ARM GAS  C:\Users\mathi\AppData\Local\Temp\ccSKiiIY.s 			page 1


   1              		.cpu cortex-m4
   2              		.eabi_attribute 27, 1
   3              		.eabi_attribute 28, 1
   4              		.eabi_attribute 20, 1
   5              		.eabi_attribute 21, 1
   6              		.eabi_attribute 23, 3
   7              		.eabi_attribute 24, 1
   8              		.eabi_attribute 25, 1
   9              		.eabi_attribute 26, 1
  10              		.eabi_attribute 30, 2
  11              		.eabi_attribute 34, 1
  12              		.eabi_attribute 18, 4
  13              		.file	"adc.c"
  14              		.text
  15              	.Ltext0:
  16              		.cfi_sections	.debug_frame
  17              		.section	.text.adcInit,"ax",%progbits
  18              		.align	1
  19              		.p2align 4,,15
  20              		.global	adcInit
  21              		.syntax unified
  22              		.thumb
  23              		.thumb_func
  24              		.fpu fpv4-sp-d16
  25              		.type	adcInit, %function
  26              	adcInit:
  27              	.LFB256:
  28              		.file 1 "../../lib/e-puck2_main-processor/ChibiOS//os/hal/src/adc.c"
  29              		.loc 1 56 0
  30              		.cfi_startproc
  31              		@ args = 0, pretend = 0, frame = 8
  32              		@ frame_needed = 0, uses_anonymous_args = 0
  33 0000 00B5     		push	{lr}
  34              		.cfi_def_cfa_offset 4
  35              		.cfi_offset 14, -4
  36 0002 074B     		ldr	r3, .L7
  37 0004 83B0     		sub	sp, sp, #12
  38              		.cfi_def_cfa_offset 16
  39              		.loc 1 56 0
  40 0006 1A68     		ldr	r2, [r3]
  41 0008 0192     		str	r2, [sp, #4]
  42              		.loc 1 58 0
  43 000a 019A     		ldr	r2, [sp, #4]
  44 000c 1B68     		ldr	r3, [r3]
  45 000e 9A42     		cmp	r2, r3
  46 0010 04D1     		bne	.L6
  47              		.loc 1 59 0
  48 0012 03B0     		add	sp, sp, #12
  49              		.cfi_remember_state
  50              		.cfi_def_cfa_offset 4
  51              		@ sp needed
  52 0014 5DF804EB 		ldr	lr, [sp], #4
  53              		.cfi_restore 14
  54              		.cfi_def_cfa_offset 0
  55              		.loc 1 58 0
  56 0018 FFF7FEBF 		b	adc_lld_init
  57              	.LVL0:
ARM GAS  C:\Users\mathi\AppData\Local\Temp\ccSKiiIY.s 			page 2


  58              	.L6:
  59              		.cfi_restore_state
  60 001c FFF7FEFF 		bl	__stack_chk_fail
  61              	.LVL1:
  62              	.L8:
  63              		.align	2
  64              	.L7:
  65 0020 00000000 		.word	__stack_chk_guard
  66              		.cfi_endproc
  67              	.LFE256:
  68              		.size	adcInit, .-adcInit
  69              		.section	.text.adcObjectInit,"ax",%progbits
  70              		.align	1
  71              		.p2align 4,,15
  72              		.global	adcObjectInit
  73              		.syntax unified
  74              		.thumb
  75              		.thumb_func
  76              		.fpu fpv4-sp-d16
  77              		.type	adcObjectInit, %function
  78              	adcObjectInit:
  79              	.LFB257:
  80              		.loc 1 68 0
  81              		.cfi_startproc
  82              		@ args = 0, pretend = 0, frame = 8
  83              		@ frame_needed = 0, uses_anonymous_args = 0
  84              	.LVL2:
  85 0000 00B5     		push	{lr}
  86              		.cfi_def_cfa_offset 4
  87              		.cfi_offset 14, -4
  88 0002 0C4B     		ldr	r3, .L14
  89 0004 83B0     		sub	sp, sp, #12
  90              		.cfi_def_cfa_offset 16
  91              		.loc 1 68 0
  92 0006 1A68     		ldr	r2, [r3]
  93 0008 0192     		str	r2, [sp, #4]
  94              		.loc 1 70 0
  95 000a 0122     		movs	r2, #1
  96 000c 0270     		strb	r2, [r0]
  97              	.LBB76:
  98              	.LBB77:
  99              		.file 2 "../../lib/e-puck2_main-processor/ChibiOS//os/hal/osal/rt/osal.h"
 100              		.loc 2 841 0
 101 000e 0199     		ldr	r1, [sp, #4]
 102 0010 1A68     		ldr	r2, [r3]
 103              	.LBE77:
 104              	.LBE76:
 105              		.loc 1 71 0
 106 0012 0023     		movs	r3, #0
 107              	.LBB81:
 108              	.LBB78:
 109              		.loc 2 841 0
 110 0014 9142     		cmp	r1, r2
 111              	.LBE78:
 112              	.LBE81:
 113              		.loc 1 72 0
 114 0016 C0E90133 		strd	r3, r3, [r0, #4]
ARM GAS  C:\Users\mathi\AppData\Local\Temp\ccSKiiIY.s 			page 3


 115              		.loc 1 74 0
 116 001a C0E90333 		strd	r3, r3, [r0, #12]
 117              		.loc 1 76 0
 118 001e 4361     		str	r3, [r0, #20]
 119              	.LVL3:
 120              	.LBB82:
 121              	.LBB79:
 122              		.loc 2 841 0
 123 0020 05D1     		bne	.L13
 124 0022 1830     		adds	r0, r0, #24
 125              	.LVL4:
 126              	.LBE79:
 127              	.LBE82:
 128              		.loc 1 84 0
 129 0024 03B0     		add	sp, sp, #12
 130              		.cfi_remember_state
 131              		.cfi_def_cfa_offset 4
 132              		@ sp needed
 133 0026 5DF804EB 		ldr	lr, [sp], #4
 134              		.cfi_restore 14
 135              		.cfi_def_cfa_offset 0
 136              	.LBB83:
 137              	.LBB80:
 138              		.loc 2 841 0
 139 002a FFF7FEBF 		b	chMtxObjectInit
 140              	.LVL5:
 141              	.L13:
 142              		.cfi_restore_state
 143 002e FFF7FEFF 		bl	__stack_chk_fail
 144              	.LVL6:
 145              	.L15:
 146 0032 00BF     		.align	2
 147              	.L14:
 148 0034 00000000 		.word	__stack_chk_guard
 149              	.LBE80:
 150              	.LBE83:
 151              		.cfi_endproc
 152              	.LFE257:
 153              		.size	adcObjectInit, .-adcObjectInit
 154              		.section	.text.adcStart,"ax",%progbits
 155              		.align	1
 156              		.p2align 4,,15
 157              		.global	adcStart
 158              		.syntax unified
 159              		.thumb
 160              		.thumb_func
 161              		.fpu fpv4-sp-d16
 162              		.type	adcStart, %function
 163              	adcStart:
 164              	.LFB258:
 165              		.loc 1 95 0
 166              		.cfi_startproc
 167              		@ args = 0, pretend = 0, frame = 8
 168              		@ frame_needed = 0, uses_anonymous_args = 0
 169              	.LVL7:
 170 0000 70B5     		push	{r4, r5, r6, lr}
 171              		.cfi_def_cfa_offset 16
ARM GAS  C:\Users\mathi\AppData\Local\Temp\ccSKiiIY.s 			page 4


 172              		.cfi_offset 4, -16
 173              		.cfi_offset 5, -12
 174              		.cfi_offset 6, -8
 175              		.cfi_offset 14, -4
 176 0002 1D4D     		ldr	r5, .L25
 177 0004 82B0     		sub	sp, sp, #8
 178              		.cfi_def_cfa_offset 24
 179              		.loc 1 95 0
 180 0006 2B68     		ldr	r3, [r5]
 181 0008 0193     		str	r3, [sp, #4]
 182 000a 0E46     		mov	r6, r1
 183              		.loc 1 97 0
 184 000c 0446     		mov	r4, r0
 185 000e 68B3     		cbz	r0, .L22
 186              	.LVL8:
 187              	.L17:
 188              	.LBB97:
 189              	.LBB98:
 190              	.LBB99:
 191              	.LBB100:
 192              	.LBB101:
 193              	.LBB102:
 194              		.file 3 "../../lib/e-puck2_main-processor/ChibiOS//os/ext/CMSIS/include/core_cmFunc.h"
 195              		.loc 3 546 0
 196 0010 2023     		movs	r3, #32
 197              		.syntax unified
 198              	@ 546 "../../lib/e-puck2_main-processor/ChibiOS//os/ext/CMSIS/include/core_cmFunc.h" 1
 199 0012 83F31188 		MSR basepri, r3
 200              	@ 0 "" 2
 201              	.LVL9:
 202              		.thumb
 203              		.syntax unified
 204              	.LBE102:
 205              	.LBE101:
 206              	.LBE100:
 207              		.file 4 "../../lib/e-puck2_main-processor/ChibiOS//os/rt/include/chsys.h"
 208              		.loc 4 349 0
 209 0016 FFF7FEFF 		bl	_stats_start_measure_crit_thd
 210              	.LVL10:
 211              		.loc 4 350 0
 212 001a FFF7FEFF 		bl	_dbg_check_lock
 213              	.LVL11:
 214              	.LBE99:
 215              	.LBE98:
 216              	.LBE97:
 217              		.loc 1 100 0
 218 001e 2378     		ldrb	r3, [r4]	@ zero_extendqisi2
 219 0020 013B     		subs	r3, r3, #1
 220 0022 012B     		cmp	r3, #1
 221 0024 02D9     		bls	.L18
 222              		.loc 1 100 0 is_stmt 0 discriminator 2
 223 0026 1548     		ldr	r0, .L25+4
 224 0028 FFF7FEFF 		bl	chSysHalt
 225              	.LVL12:
 226              	.L18:
 227              		.loc 1 103 0 is_stmt 1
 228 002c 2046     		mov	r0, r4
ARM GAS  C:\Users\mathi\AppData\Local\Temp\ccSKiiIY.s 			page 5


 229              		.loc 1 102 0
 230 002e 6660     		str	r6, [r4, #4]
 231              		.loc 1 103 0
 232 0030 FFF7FEFF 		bl	adc_lld_start
 233              	.LVL13:
 234              		.loc 1 104 0
 235 0034 0223     		movs	r3, #2
 236 0036 2370     		strb	r3, [r4]
 237              	.LBB103:
 238              	.LBB104:
 239              	.LBB105:
 240              		.loc 4 360 0
 241 0038 FFF7FEFF 		bl	_dbg_check_unlock
 242              	.LVL14:
 243              		.loc 4 361 0
 244 003c FFF7FEFF 		bl	_stats_stop_measure_crit_thd
 245              	.LVL15:
 246              		.loc 4 367 0
 247 0040 0F4B     		ldr	r3, .L25+8
 248 0042 1A68     		ldr	r2, [r3]
 249 0044 9A42     		cmp	r2, r3
 250 0046 04D0     		beq	.L19
 251 0048 9969     		ldr	r1, [r3, #24]
 252 004a 9368     		ldr	r3, [r2, #8]
 253 004c 8A68     		ldr	r2, [r1, #8]
 254 004e 9A42     		cmp	r2, r3
 255 0050 08D3     		bcc	.L23
 256              	.L19:
 257              	.LVL16:
 258              	.LBB106:
 259              	.LBB107:
 260              	.LBB108:
 261              		.loc 3 546 0
 262 0052 0023     		movs	r3, #0
 263              		.syntax unified
 264              	@ 546 "../../lib/e-puck2_main-processor/ChibiOS//os/ext/CMSIS/include/core_cmFunc.h" 1
 265 0054 83F31188 		MSR basepri, r3
 266              	@ 0 "" 2
 267              	.LVL17:
 268              		.thumb
 269              		.syntax unified
 270              	.LBE108:
 271              	.LBE107:
 272              	.LBE106:
 273              	.LBE105:
 274              	.LBE104:
 275              	.LBE103:
 276              		.loc 1 106 0
 277 0058 019A     		ldr	r2, [sp, #4]
 278 005a 2B68     		ldr	r3, [r5]
 279 005c 9A42     		cmp	r2, r3
 280 005e 09D1     		bne	.L24
 281 0060 02B0     		add	sp, sp, #8
 282              		.cfi_remember_state
 283              		.cfi_def_cfa_offset 16
 284              		@ sp needed
 285 0062 70BD     		pop	{r4, r5, r6, pc}
ARM GAS  C:\Users\mathi\AppData\Local\Temp\ccSKiiIY.s 			page 6


 286              	.LVL18:
 287              	.L23:
 288              		.cfi_restore_state
 289              	.LBB111:
 290              	.LBB110:
 291              	.LBB109:
 292              		.loc 4 367 0
 293 0064 0748     		ldr	r0, .L25+12
 294 0066 FFF7FEFF 		bl	chSysHalt
 295              	.LVL19:
 296 006a F2E7     		b	.L19
 297              	.LVL20:
 298              	.L22:
 299              	.LBE109:
 300              	.LBE110:
 301              	.LBE111:
 302              		.loc 1 97 0 discriminator 2
 303 006c 0348     		ldr	r0, .L25+4
 304              	.LVL21:
 305 006e FFF7FEFF 		bl	chSysHalt
 306              	.LVL22:
 307 0072 CDE7     		b	.L17
 308              	.L24:
 309              		.loc 1 106 0
 310 0074 FFF7FEFF 		bl	__stack_chk_fail
 311              	.LVL23:
 312              	.L26:
 313              		.align	2
 314              	.L25:
 315 0078 00000000 		.word	__stack_chk_guard
 316 007c 00000000 		.word	.LANCHOR0
 317 0080 00000000 		.word	ch
 318 0084 00000000 		.word	.LANCHOR1
 319              		.cfi_endproc
 320              	.LFE258:
 321              		.size	adcStart, .-adcStart
 322              		.section	.text.adcStop,"ax",%progbits
 323              		.align	1
 324              		.p2align 4,,15
 325              		.global	adcStop
 326              		.syntax unified
 327              		.thumb
 328              		.thumb_func
 329              		.fpu fpv4-sp-d16
 330              		.type	adcStop, %function
 331              	adcStop:
 332              	.LFB259:
 333              		.loc 1 115 0
 334              		.cfi_startproc
 335              		@ args = 0, pretend = 0, frame = 8
 336              		@ frame_needed = 0, uses_anonymous_args = 0
 337              	.LVL24:
 338 0000 30B5     		push	{r4, r5, lr}
 339              		.cfi_def_cfa_offset 12
 340              		.cfi_offset 4, -12
 341              		.cfi_offset 5, -8
 342              		.cfi_offset 14, -4
ARM GAS  C:\Users\mathi\AppData\Local\Temp\ccSKiiIY.s 			page 7


 343 0002 1C4D     		ldr	r5, .L36
 344 0004 83B0     		sub	sp, sp, #12
 345              		.cfi_def_cfa_offset 24
 346              		.loc 1 115 0
 347 0006 2B68     		ldr	r3, [r5]
 348 0008 0193     		str	r3, [sp, #4]
 349              		.loc 1 117 0
 350 000a 0446     		mov	r4, r0
 351 000c 60B3     		cbz	r0, .L33
 352              	.LVL25:
 353              	.L28:
 354              	.LBB125:
 355              	.LBB126:
 356              	.LBB127:
 357              	.LBB128:
 358              	.LBB129:
 359              	.LBB130:
 360              		.loc 3 546 0
 361 000e 2023     		movs	r3, #32
 362              		.syntax unified
 363              	@ 546 "../../lib/e-puck2_main-processor/ChibiOS//os/ext/CMSIS/include/core_cmFunc.h" 1
 364 0010 83F31188 		MSR basepri, r3
 365              	@ 0 "" 2
 366              	.LVL26:
 367              		.thumb
 368              		.syntax unified
 369              	.LBE130:
 370              	.LBE129:
 371              	.LBE128:
 372              		.loc 4 349 0
 373 0014 FFF7FEFF 		bl	_stats_start_measure_crit_thd
 374              	.LVL27:
 375              		.loc 4 350 0
 376 0018 FFF7FEFF 		bl	_dbg_check_lock
 377              	.LVL28:
 378              	.LBE127:
 379              	.LBE126:
 380              	.LBE125:
 381              		.loc 1 120 0
 382 001c 2378     		ldrb	r3, [r4]	@ zero_extendqisi2
 383 001e 013B     		subs	r3, r3, #1
 384 0020 012B     		cmp	r3, #1
 385 0022 02D9     		bls	.L29
 386              		.loc 1 120 0 is_stmt 0 discriminator 2
 387 0024 1448     		ldr	r0, .L36+4
 388 0026 FFF7FEFF 		bl	chSysHalt
 389              	.LVL29:
 390              	.L29:
 391              		.loc 1 122 0 is_stmt 1
 392 002a 2046     		mov	r0, r4
 393 002c FFF7FEFF 		bl	adc_lld_stop
 394              	.LVL30:
 395              		.loc 1 123 0
 396 0030 0123     		movs	r3, #1
 397 0032 2370     		strb	r3, [r4]
 398              	.LBB131:
 399              	.LBB132:
ARM GAS  C:\Users\mathi\AppData\Local\Temp\ccSKiiIY.s 			page 8


 400              	.LBB133:
 401              		.loc 4 360 0
 402 0034 FFF7FEFF 		bl	_dbg_check_unlock
 403              	.LVL31:
 404              		.loc 4 361 0
 405 0038 FFF7FEFF 		bl	_stats_stop_measure_crit_thd
 406              	.LVL32:
 407              		.loc 4 367 0
 408 003c 0F4B     		ldr	r3, .L36+8
 409 003e 1A68     		ldr	r2, [r3]
 410 0040 9A42     		cmp	r2, r3
 411 0042 04D0     		beq	.L30
 412 0044 9969     		ldr	r1, [r3, #24]
 413 0046 9368     		ldr	r3, [r2, #8]
 414 0048 8A68     		ldr	r2, [r1, #8]
 415 004a 9A42     		cmp	r2, r3
 416 004c 08D3     		bcc	.L34
 417              	.L30:
 418              	.LVL33:
 419              	.LBB134:
 420              	.LBB135:
 421              	.LBB136:
 422              		.loc 3 546 0
 423 004e 0023     		movs	r3, #0
 424              		.syntax unified
 425              	@ 546 "../../lib/e-puck2_main-processor/ChibiOS//os/ext/CMSIS/include/core_cmFunc.h" 1
 426 0050 83F31188 		MSR basepri, r3
 427              	@ 0 "" 2
 428              	.LVL34:
 429              		.thumb
 430              		.syntax unified
 431              	.LBE136:
 432              	.LBE135:
 433              	.LBE134:
 434              	.LBE133:
 435              	.LBE132:
 436              	.LBE131:
 437              		.loc 1 125 0
 438 0054 019A     		ldr	r2, [sp, #4]
 439 0056 2B68     		ldr	r3, [r5]
 440 0058 9A42     		cmp	r2, r3
 441 005a 09D1     		bne	.L35
 442 005c 03B0     		add	sp, sp, #12
 443              		.cfi_remember_state
 444              		.cfi_def_cfa_offset 12
 445              		@ sp needed
 446 005e 30BD     		pop	{r4, r5, pc}
 447              	.LVL35:
 448              	.L34:
 449              		.cfi_restore_state
 450              	.LBB139:
 451              	.LBB138:
 452              	.LBB137:
 453              		.loc 4 367 0
 454 0060 0748     		ldr	r0, .L36+12
 455 0062 FFF7FEFF 		bl	chSysHalt
 456              	.LVL36:
ARM GAS  C:\Users\mathi\AppData\Local\Temp\ccSKiiIY.s 			page 9


 457 0066 F2E7     		b	.L30
 458              	.LVL37:
 459              	.L33:
 460              	.LBE137:
 461              	.LBE138:
 462              	.LBE139:
 463              		.loc 1 117 0 discriminator 2
 464 0068 0348     		ldr	r0, .L36+4
 465              	.LVL38:
 466 006a FFF7FEFF 		bl	chSysHalt
 467              	.LVL39:
 468 006e CEE7     		b	.L28
 469              	.L35:
 470              		.loc 1 125 0
 471 0070 FFF7FEFF 		bl	__stack_chk_fail
 472              	.LVL40:
 473              	.L37:
 474              		.align	2
 475              	.L36:
 476 0074 00000000 		.word	__stack_chk_guard
 477 0078 00000000 		.word	.LANCHOR2
 478 007c 00000000 		.word	ch
 479 0080 00000000 		.word	.LANCHOR1
 480              		.cfi_endproc
 481              	.LFE259:
 482              		.size	adcStop, .-adcStop
 483              		.section	.text.adcStartConversion,"ax",%progbits
 484              		.align	1
 485              		.p2align 4,,15
 486              		.global	adcStartConversion
 487              		.syntax unified
 488              		.thumb
 489              		.thumb_func
 490              		.fpu fpv4-sp-d16
 491              		.type	adcStartConversion, %function
 492              	adcStartConversion:
 493              	.LFB260:
 494              		.loc 1 146 0
 495              		.cfi_startproc
 496              		@ args = 0, pretend = 0, frame = 8
 497              		@ frame_needed = 0, uses_anonymous_args = 0
 498              	.LVL41:
 499 0000 2DE9F041 		push	{r4, r5, r6, r7, r8, lr}
 500              		.cfi_def_cfa_offset 24
 501              		.cfi_offset 4, -24
 502              		.cfi_offset 5, -20
 503              		.cfi_offset 6, -16
 504              		.cfi_offset 7, -12
 505              		.cfi_offset 8, -8
 506              		.cfi_offset 14, -4
 507 0004 254D     		ldr	r5, .L65
 508 0006 82B0     		sub	sp, sp, #8
 509              		.cfi_def_cfa_offset 32
 510              		.loc 1 146 0
 511 0008 2C68     		ldr	r4, [r5]
 512 000a 0194     		str	r4, [sp, #4]
 513              	.LVL42:
ARM GAS  C:\Users\mathi\AppData\Local\Temp\ccSKiiIY.s 			page 10


 514 000c 1F46     		mov	r7, r3
 515 000e 0446     		mov	r4, r0
 516 0010 0E46     		mov	r6, r1
 517 0012 9046     		mov	r8, r2
 518              	.LBB155:
 519              	.LBB156:
 520              	.LBB157:
 521              	.LBB158:
 522              	.LBB159:
 523              	.LBB160:
 524              		.loc 3 546 0
 525 0014 2023     		movs	r3, #32
 526              	.LVL43:
 527              		.syntax unified
 528              	@ 546 "../../lib/e-puck2_main-processor/ChibiOS//os/ext/CMSIS/include/core_cmFunc.h" 1
 529 0016 83F31188 		MSR basepri, r3
 530              	@ 0 "" 2
 531              	.LVL44:
 532              		.thumb
 533              		.syntax unified
 534              	.LBE160:
 535              	.LBE159:
 536              	.LBE158:
 537              		.loc 4 349 0
 538 001a FFF7FEFF 		bl	_stats_start_measure_crit_thd
 539              	.LVL45:
 540              		.loc 4 350 0
 541 001e FFF7FEFF 		bl	_dbg_check_lock
 542              	.LVL46:
 543              	.LBE157:
 544              	.LBE156:
 545              	.LBE155:
 546              	.LBB161:
 547              	.LBB162:
 548              		.loc 1 176 0
 549 0022 FFF7FEFF 		bl	chDbgCheckClassI
 550              	.LVL47:
 551              		.loc 1 177 0
 552 0026 3CB1     		cbz	r4, .L39
 553 0028 36B1     		cbz	r6, .L39
 554 002a B8F1000F 		cmp	r8, #0
 555 002e 03D0     		beq	.L39
 556 0030 012F     		cmp	r7, #1
 557 0032 04D0     		beq	.L40
 558 0034 FB07     		lsls	r3, r7, #31
 559 0036 02D5     		bpl	.L40
 560              	.L39:
 561 0038 1948     		ldr	r0, .L65+4
 562 003a FFF7FEFF 		bl	chSysHalt
 563              	.LVL48:
 564              	.L40:
 565              		.loc 1 179 0
 566 003e 2378     		ldrb	r3, [r4]	@ zero_extendqisi2
 567 0040 022B     		cmp	r3, #2
 568 0042 05D0     		beq	.L41
 569 0044 043B     		subs	r3, r3, #4
 570 0046 012B     		cmp	r3, #1
ARM GAS  C:\Users\mathi\AppData\Local\Temp\ccSKiiIY.s 			page 11


 571 0048 02D9     		bls	.L41
 572 004a 1548     		ldr	r0, .L65+4
 573 004c FFF7FEFF 		bl	chSysHalt
 574              	.LVL49:
 575              	.L41:
 576              		.loc 1 187 0
 577 0050 0323     		movs	r3, #3
 578 0052 2370     		strb	r3, [r4]
 579              		.loc 1 188 0
 580 0054 2046     		mov	r0, r4
 581              		.loc 1 185 0
 582 0056 C4E90287 		strd	r8, r7, [r4, #8]
 583              		.loc 1 186 0
 584 005a 2661     		str	r6, [r4, #16]
 585              		.loc 1 188 0
 586 005c FFF7FEFF 		bl	adc_lld_start_conversion
 587              	.LVL50:
 588              	.LBE162:
 589              	.LBE161:
 590              	.LBB163:
 591              	.LBB164:
 592              	.LBB165:
 593              		.loc 4 360 0
 594 0060 FFF7FEFF 		bl	_dbg_check_unlock
 595              	.LVL51:
 596              		.loc 4 361 0
 597 0064 FFF7FEFF 		bl	_stats_stop_measure_crit_thd
 598              	.LVL52:
 599              		.loc 4 367 0
 600 0068 0E4B     		ldr	r3, .L65+8
 601 006a 1A68     		ldr	r2, [r3]
 602 006c 9A42     		cmp	r2, r3
 603 006e 04D0     		beq	.L42
 604 0070 9969     		ldr	r1, [r3, #24]
 605 0072 9368     		ldr	r3, [r2, #8]
 606 0074 8A68     		ldr	r2, [r1, #8]
 607 0076 9A42     		cmp	r2, r3
 608 0078 09D3     		bcc	.L63
 609              	.L42:
 610              	.LVL53:
 611              	.LBB166:
 612              	.LBB167:
 613              	.LBB168:
 614              		.loc 3 546 0
 615 007a 0023     		movs	r3, #0
 616              		.syntax unified
 617              	@ 546 "../../lib/e-puck2_main-processor/ChibiOS//os/ext/CMSIS/include/core_cmFunc.h" 1
 618 007c 83F31188 		MSR basepri, r3
 619              	@ 0 "" 2
 620              	.LVL54:
 621              		.thumb
 622              		.syntax unified
 623              	.LBE168:
 624              	.LBE167:
 625              	.LBE166:
 626              	.LBE165:
 627              	.LBE164:
ARM GAS  C:\Users\mathi\AppData\Local\Temp\ccSKiiIY.s 			page 12


 628              	.LBE163:
 629              		.loc 1 151 0
 630 0080 019A     		ldr	r2, [sp, #4]
 631 0082 2B68     		ldr	r3, [r5]
 632 0084 9A42     		cmp	r2, r3
 633 0086 06D1     		bne	.L64
 634 0088 02B0     		add	sp, sp, #8
 635              		.cfi_remember_state
 636              		.cfi_def_cfa_offset 24
 637              		@ sp needed
 638 008a BDE8F081 		pop	{r4, r5, r6, r7, r8, pc}
 639              	.LVL55:
 640              	.L63:
 641              		.cfi_restore_state
 642              	.LBB171:
 643              	.LBB170:
 644              	.LBB169:
 645              		.loc 4 367 0
 646 008e 0648     		ldr	r0, .L65+12
 647 0090 FFF7FEFF 		bl	chSysHalt
 648              	.LVL56:
 649 0094 F1E7     		b	.L42
 650              	.L64:
 651              	.LBE169:
 652              	.LBE170:
 653              	.LBE171:
 654              		.loc 1 151 0
 655 0096 FFF7FEFF 		bl	__stack_chk_fail
 656              	.LVL57:
 657              	.L66:
 658 009a 00BF     		.align	2
 659              	.L65:
 660 009c 00000000 		.word	__stack_chk_guard
 661 00a0 00000000 		.word	.LANCHOR3
 662 00a4 00000000 		.word	ch
 663 00a8 00000000 		.word	.LANCHOR1
 664              		.cfi_endproc
 665              	.LFE260:
 666              		.size	adcStartConversion, .-adcStartConversion
 667              		.section	.text.adcStartConversionI,"ax",%progbits
 668              		.align	1
 669              		.p2align 4,,15
 670              		.global	adcStartConversionI
 671              		.syntax unified
 672              		.thumb
 673              		.thumb_func
 674              		.fpu fpv4-sp-d16
 675              		.type	adcStartConversionI, %function
 676              	adcStartConversionI:
 677              	.LFB261:
 678              		.loc 1 174 0
 679              		.cfi_startproc
 680              		@ args = 0, pretend = 0, frame = 8
 681              		@ frame_needed = 0, uses_anonymous_args = 0
 682              	.LVL58:
 683 0000 2DE9F041 		push	{r4, r5, r6, r7, r8, lr}
 684              		.cfi_def_cfa_offset 24
ARM GAS  C:\Users\mathi\AppData\Local\Temp\ccSKiiIY.s 			page 13


 685              		.cfi_offset 4, -24
 686              		.cfi_offset 5, -20
 687              		.cfi_offset 6, -16
 688              		.cfi_offset 7, -12
 689              		.cfi_offset 8, -8
 690              		.cfi_offset 14, -4
 691 0004 174D     		ldr	r5, .L93
 692 0006 82B0     		sub	sp, sp, #8
 693              		.cfi_def_cfa_offset 32
 694              		.loc 1 174 0
 695 0008 0446     		mov	r4, r0
 696 000a 2868     		ldr	r0, [r5]
 697              	.LVL59:
 698 000c 0190     		str	r0, [sp, #4]
 699 000e 0E46     		mov	r6, r1
 700 0010 9046     		mov	r8, r2
 701 0012 1F46     		mov	r7, r3
 702              		.loc 1 176 0
 703 0014 FFF7FEFF 		bl	chDbgCheckClassI
 704              	.LVL60:
 705              		.loc 1 177 0
 706 0018 3CB1     		cbz	r4, .L68
 707              		.loc 1 177 0 is_stmt 0 discriminator 3
 708 001a 36B1     		cbz	r6, .L68
 709              		.loc 1 177 0 discriminator 5
 710 001c B8F1000F 		cmp	r8, #0
 711 0020 03D0     		beq	.L68
 712              		.loc 1 177 0 discriminator 7
 713 0022 012F     		cmp	r7, #1
 714 0024 04D0     		beq	.L69
 715              		.loc 1 177 0 discriminator 8
 716 0026 FB07     		lsls	r3, r7, #31
 717 0028 02D5     		bpl	.L69
 718              	.L68:
 719              		.loc 1 177 0 discriminator 9
 720 002a 0F48     		ldr	r0, .L93+4
 721 002c FFF7FEFF 		bl	chSysHalt
 722              	.LVL61:
 723              	.L69:
 724              		.loc 1 179 0 is_stmt 1 discriminator 1
 725 0030 2378     		ldrb	r3, [r4]	@ zero_extendqisi2
 726 0032 022B     		cmp	r3, #2
 727 0034 05D0     		beq	.L70
 728              		.loc 1 179 0 is_stmt 0 discriminator 2
 729 0036 043B     		subs	r3, r3, #4
 730 0038 012B     		cmp	r3, #1
 731 003a 02D9     		bls	.L70
 732              		.loc 1 179 0 discriminator 4
 733 003c 0A48     		ldr	r0, .L93+4
 734 003e FFF7FEFF 		bl	chSysHalt
 735              	.LVL62:
 736              	.L70:
 737              		.loc 1 187 0 is_stmt 1
 738 0042 0323     		movs	r3, #3
 739 0044 2370     		strb	r3, [r4]
 740              		.loc 1 188 0
 741 0046 019A     		ldr	r2, [sp, #4]
ARM GAS  C:\Users\mathi\AppData\Local\Temp\ccSKiiIY.s 			page 14


 742 0048 2B68     		ldr	r3, [r5]
 743              		.loc 1 186 0
 744 004a 2661     		str	r6, [r4, #16]
 745              		.loc 1 188 0
 746 004c 9A42     		cmp	r2, r3
 747              		.loc 1 185 0
 748 004e C4E90287 		strd	r8, r7, [r4, #8]
 749              		.loc 1 188 0
 750 0052 05D1     		bne	.L92
 751 0054 2046     		mov	r0, r4
 752              		.loc 1 189 0
 753 0056 02B0     		add	sp, sp, #8
 754              		.cfi_remember_state
 755              		.cfi_def_cfa_offset 24
 756              		@ sp needed
 757 0058 BDE8F041 		pop	{r4, r5, r6, r7, r8, lr}
 758              		.cfi_restore 14
 759              		.cfi_restore 8
 760              		.cfi_restore 7
 761              		.cfi_restore 6
 762              		.cfi_restore 5
 763              		.cfi_restore 4
 764              		.cfi_def_cfa_offset 0
 765              	.LVL63:
 766              		.loc 1 188 0
 767 005c FFF7FEBF 		b	adc_lld_start_conversion
 768              	.LVL64:
 769              	.L92:
 770              		.cfi_restore_state
 771 0060 FFF7FEFF 		bl	__stack_chk_fail
 772              	.LVL65:
 773              	.L94:
 774              		.align	2
 775              	.L93:
 776 0064 00000000 		.word	__stack_chk_guard
 777 0068 00000000 		.word	.LANCHOR3
 778              		.cfi_endproc
 779              	.LFE261:
 780              		.size	adcStartConversionI, .-adcStartConversionI
 781              		.section	.text.adcStopConversion,"ax",%progbits
 782              		.align	1
 783              		.p2align 4,,15
 784              		.global	adcStopConversion
 785              		.syntax unified
 786              		.thumb
 787              		.thumb_func
 788              		.fpu fpv4-sp-d16
 789              		.type	adcStopConversion, %function
 790              	adcStopConversion:
 791              	.LFB262:
 792              		.loc 1 201 0
 793              		.cfi_startproc
 794              		@ args = 0, pretend = 0, frame = 8
 795              		@ frame_needed = 0, uses_anonymous_args = 0
 796              	.LVL66:
 797 0000 30B5     		push	{r4, r5, lr}
 798              		.cfi_def_cfa_offset 12
ARM GAS  C:\Users\mathi\AppData\Local\Temp\ccSKiiIY.s 			page 15


 799              		.cfi_offset 4, -12
 800              		.cfi_offset 5, -8
 801              		.cfi_offset 14, -4
 802 0002 224D     		ldr	r5, .L108
 803 0004 83B0     		sub	sp, sp, #12
 804              		.cfi_def_cfa_offset 24
 805              		.loc 1 201 0
 806 0006 2B68     		ldr	r3, [r5]
 807 0008 0193     		str	r3, [sp, #4]
 808              		.loc 1 203 0
 809 000a 0446     		mov	r4, r0
 810 000c 0028     		cmp	r0, #0
 811 000e 37D0     		beq	.L105
 812              	.LVL67:
 813              	.L96:
 814              	.LBB187:
 815              	.LBB188:
 816              	.LBB189:
 817              	.LBB190:
 818              	.LBB191:
 819              	.LBB192:
 820              		.loc 3 546 0
 821 0010 2023     		movs	r3, #32
 822              		.syntax unified
 823              	@ 546 "../../lib/e-puck2_main-processor/ChibiOS//os/ext/CMSIS/include/core_cmFunc.h" 1
 824 0012 83F31188 		MSR basepri, r3
 825              	@ 0 "" 2
 826              	.LVL68:
 827              		.thumb
 828              		.syntax unified
 829              	.LBE192:
 830              	.LBE191:
 831              	.LBE190:
 832              		.loc 4 349 0
 833 0016 FFF7FEFF 		bl	_stats_start_measure_crit_thd
 834              	.LVL69:
 835              		.loc 4 350 0
 836 001a FFF7FEFF 		bl	_dbg_check_lock
 837              	.LVL70:
 838              	.LBE189:
 839              	.LBE188:
 840              	.LBE187:
 841              		.loc 1 206 0
 842 001e 2378     		ldrb	r3, [r4]	@ zero_extendqisi2
 843 0020 9A1E     		subs	r2, r3, #2
 844 0022 012A     		cmp	r2, #1
 845 0024 03D9     		bls	.L97
 846              		.loc 1 206 0 is_stmt 0 discriminator 2
 847 0026 1A48     		ldr	r0, .L108+4
 848 0028 FFF7FEFF 		bl	chSysHalt
 849              	.LVL71:
 850 002c 2378     		ldrb	r3, [r4]	@ zero_extendqisi2
 851              	.L97:
 852              		.loc 1 208 0 is_stmt 1
 853 002e 022B     		cmp	r3, #2
 854 0030 0CD0     		beq	.L98
 855              		.loc 1 209 0
ARM GAS  C:\Users\mathi\AppData\Local\Temp\ccSKiiIY.s 			page 16


 856 0032 2046     		mov	r0, r4
 857 0034 FFF7FEFF 		bl	adc_lld_stop_conversion
 858              	.LVL72:
 859              		.loc 1 211 0
 860 0038 2046     		mov	r0, r4
 861              		.loc 1 210 0
 862 003a 0022     		movs	r2, #0
 863              		.loc 1 211 0
 864 003c 0223     		movs	r3, #2
 865              		.loc 1 210 0
 866 003e 2261     		str	r2, [r4, #16]
 867              	.LBB193:
 868              	.LBB194:
 869              		.loc 2 697 0
 870 0040 6FF00101 		mvn	r1, #1
 871              	.LBE194:
 872              	.LBE193:
 873              		.loc 1 211 0
 874 0044 00F8143B 		strb	r3, [r0], #20
 875              	.LVL73:
 876              	.LBB196:
 877              	.LBB195:
 878              		.loc 2 697 0
 879 0048 FFF7FEFF 		bl	chThdResumeS
 880              	.LVL74:
 881              	.L98:
 882              	.LBE195:
 883              	.LBE196:
 884              	.LBB197:
 885              	.LBB198:
 886              	.LBB199:
 887              		.loc 4 360 0
 888 004c FFF7FEFF 		bl	_dbg_check_unlock
 889              	.LVL75:
 890              		.loc 4 361 0
 891 0050 FFF7FEFF 		bl	_stats_stop_measure_crit_thd
 892              	.LVL76:
 893              		.loc 4 367 0
 894 0054 0F4B     		ldr	r3, .L108+8
 895 0056 1A68     		ldr	r2, [r3]
 896 0058 9A42     		cmp	r2, r3
 897 005a 04D0     		beq	.L99
 898 005c 9969     		ldr	r1, [r3, #24]
 899 005e 9368     		ldr	r3, [r2, #8]
 900 0060 8A68     		ldr	r2, [r1, #8]
 901 0062 9A42     		cmp	r2, r3
 902 0064 08D3     		bcc	.L106
 903              	.L99:
 904              	.LVL77:
 905              	.LBB200:
 906              	.LBB201:
 907              	.LBB202:
 908              		.loc 3 546 0
 909 0066 0023     		movs	r3, #0
 910              		.syntax unified
 911              	@ 546 "../../lib/e-puck2_main-processor/ChibiOS//os/ext/CMSIS/include/core_cmFunc.h" 1
 912 0068 83F31188 		MSR basepri, r3
ARM GAS  C:\Users\mathi\AppData\Local\Temp\ccSKiiIY.s 			page 17


 913              	@ 0 "" 2
 914              	.LVL78:
 915              		.thumb
 916              		.syntax unified
 917              	.LBE202:
 918              	.LBE201:
 919              	.LBE200:
 920              	.LBE199:
 921              	.LBE198:
 922              	.LBE197:
 923              		.loc 1 215 0
 924 006c 019A     		ldr	r2, [sp, #4]
 925 006e 2B68     		ldr	r3, [r5]
 926 0070 9A42     		cmp	r2, r3
 927 0072 09D1     		bne	.L107
 928 0074 03B0     		add	sp, sp, #12
 929              		.cfi_remember_state
 930              		.cfi_def_cfa_offset 12
 931              		@ sp needed
 932 0076 30BD     		pop	{r4, r5, pc}
 933              	.LVL79:
 934              	.L106:
 935              		.cfi_restore_state
 936              	.LBB205:
 937              	.LBB204:
 938              	.LBB203:
 939              		.loc 4 367 0
 940 0078 0748     		ldr	r0, .L108+12
 941 007a FFF7FEFF 		bl	chSysHalt
 942              	.LVL80:
 943 007e F2E7     		b	.L99
 944              	.LVL81:
 945              	.L105:
 946              	.LBE203:
 947              	.LBE204:
 948              	.LBE205:
 949              		.loc 1 203 0 discriminator 2
 950 0080 0348     		ldr	r0, .L108+4
 951              	.LVL82:
 952 0082 FFF7FEFF 		bl	chSysHalt
 953              	.LVL83:
 954 0086 C3E7     		b	.L96
 955              	.L107:
 956              		.loc 1 215 0
 957 0088 FFF7FEFF 		bl	__stack_chk_fail
 958              	.LVL84:
 959              	.L109:
 960              		.align	2
 961              	.L108:
 962 008c 00000000 		.word	__stack_chk_guard
 963 0090 00000000 		.word	.LANCHOR4
 964 0094 00000000 		.word	ch
 965 0098 00000000 		.word	.LANCHOR1
 966              		.cfi_endproc
 967              	.LFE262:
 968              		.size	adcStopConversion, .-adcStopConversion
 969              		.section	.text.adcStopConversionI,"ax",%progbits
ARM GAS  C:\Users\mathi\AppData\Local\Temp\ccSKiiIY.s 			page 18


 970              		.align	1
 971              		.p2align 4,,15
 972              		.global	adcStopConversionI
 973              		.syntax unified
 974              		.thumb
 975              		.thumb_func
 976              		.fpu fpv4-sp-d16
 977              		.type	adcStopConversionI, %function
 978              	adcStopConversionI:
 979              	.LFB263:
 980              		.loc 1 227 0
 981              		.cfi_startproc
 982              		@ args = 0, pretend = 0, frame = 8
 983              		@ frame_needed = 0, uses_anonymous_args = 0
 984              	.LVL85:
 985 0000 30B5     		push	{r4, r5, lr}
 986              		.cfi_def_cfa_offset 12
 987              		.cfi_offset 4, -12
 988              		.cfi_offset 5, -8
 989              		.cfi_offset 14, -4
 990 0002 194D     		ldr	r5, .L120
 991 0004 83B0     		sub	sp, sp, #12
 992              		.cfi_def_cfa_offset 24
 993              		.loc 1 227 0
 994 0006 0446     		mov	r4, r0
 995 0008 2B68     		ldr	r3, [r5]
 996 000a 0193     		str	r3, [sp, #4]
 997              		.loc 1 229 0
 998 000c FFF7FEFF 		bl	chDbgCheckClassI
 999              	.LVL86:
 1000              		.loc 1 230 0
 1001 0010 24B3     		cbz	r4, .L118
 1002              	.L111:
 1003              		.loc 1 231 0 discriminator 1
 1004 0012 2378     		ldrb	r3, [r4]	@ zero_extendqisi2
 1005 0014 9A1E     		subs	r2, r3, #2
 1006 0016 022A     		cmp	r2, #2
 1007 0018 1BD8     		bhi	.L119
 1008              	.L112:
 1009              		.loc 1 236 0
 1010 001a 022B     		cmp	r3, #2
 1011 001c 13D0     		beq	.L110
 1012              		.loc 1 237 0
 1013 001e 2046     		mov	r0, r4
 1014 0020 FFF7FEFF 		bl	adc_lld_stop_conversion
 1015              	.LVL87:
 1016              		.loc 1 239 0
 1017 0024 0223     		movs	r3, #2
 1018 0026 2370     		strb	r3, [r4]
 1019              	.LVL88:
 1020              	.LBB206:
 1021              	.LBB207:
 1022              		.loc 2 682 0
 1023 0028 019A     		ldr	r2, [sp, #4]
 1024 002a 2B68     		ldr	r3, [r5]
 1025              	.LBE207:
 1026              	.LBE206:
ARM GAS  C:\Users\mathi\AppData\Local\Temp\ccSKiiIY.s 			page 19


 1027              		.loc 1 238 0
 1028 002c 0021     		movs	r1, #0
 1029              	.LBB211:
 1030              	.LBB208:
 1031              		.loc 2 682 0
 1032 002e 9A42     		cmp	r2, r3
 1033              	.LBE208:
 1034              	.LBE211:
 1035              		.loc 1 238 0
 1036 0030 2161     		str	r1, [r4, #16]
 1037              	.LBB212:
 1038              	.LBB209:
 1039              		.loc 2 682 0
 1040 0032 17D1     		bne	.L117
 1041 0034 04F11400 		add	r0, r4, #20
 1042              	.LVL89:
 1043 0038 6FF00101 		mvn	r1, #1
 1044              	.LBE209:
 1045              	.LBE212:
 1046              		.loc 1 242 0
 1047 003c 03B0     		add	sp, sp, #12
 1048              		.cfi_remember_state
 1049              		.cfi_def_cfa_offset 12
 1050              		@ sp needed
 1051 003e BDE83040 		pop	{r4, r5, lr}
 1052              		.cfi_restore 14
 1053              		.cfi_restore 5
 1054              		.cfi_restore 4
 1055              		.cfi_def_cfa_offset 0
 1056              	.LVL90:
 1057              	.LBB213:
 1058              	.LBB210:
 1059              		.loc 2 682 0
 1060 0042 FFF7FEBF 		b	chThdResumeI
 1061              	.LVL91:
 1062              	.L110:
 1063              		.cfi_restore_state
 1064              	.LBE210:
 1065              	.LBE213:
 1066              		.loc 1 242 0
 1067 0046 019A     		ldr	r2, [sp, #4]
 1068 0048 2B68     		ldr	r3, [r5]
 1069 004a 9A42     		cmp	r2, r3
 1070 004c 0AD1     		bne	.L117
 1071 004e 03B0     		add	sp, sp, #12
 1072              		.cfi_remember_state
 1073              		.cfi_def_cfa_offset 12
 1074              		@ sp needed
 1075 0050 30BD     		pop	{r4, r5, pc}
 1076              	.LVL92:
 1077              	.L119:
 1078              		.cfi_restore_state
 1079              		.loc 1 231 0 discriminator 2
 1080 0052 0648     		ldr	r0, .L120+4
 1081 0054 FFF7FEFF 		bl	chSysHalt
 1082              	.LVL93:
 1083 0058 2378     		ldrb	r3, [r4]	@ zero_extendqisi2
ARM GAS  C:\Users\mathi\AppData\Local\Temp\ccSKiiIY.s 			page 20


 1084 005a DEE7     		b	.L112
 1085              	.L118:
 1086              		.loc 1 230 0 discriminator 2
 1087 005c 0348     		ldr	r0, .L120+4
 1088 005e FFF7FEFF 		bl	chSysHalt
 1089              	.LVL94:
 1090 0062 D6E7     		b	.L111
 1091              	.L117:
 1092              		.loc 1 242 0
 1093 0064 FFF7FEFF 		bl	__stack_chk_fail
 1094              	.LVL95:
 1095              	.L121:
 1096              		.align	2
 1097              	.L120:
 1098 0068 00000000 		.word	__stack_chk_guard
 1099 006c 00000000 		.word	.LANCHOR5
 1100              		.cfi_endproc
 1101              	.LFE263:
 1102              		.size	adcStopConversionI, .-adcStopConversionI
 1103              		.section	.text.adcConvert,"ax",%progbits
 1104              		.align	1
 1105              		.p2align 4,,15
 1106              		.global	adcConvert
 1107              		.syntax unified
 1108              		.thumb
 1109              		.thumb_func
 1110              		.fpu fpv4-sp-d16
 1111              		.type	adcConvert, %function
 1112              	adcConvert:
 1113              	.LFB264:
 1114              		.loc 1 271 0
 1115              		.cfi_startproc
 1116              		@ args = 0, pretend = 0, frame = 8
 1117              		@ frame_needed = 0, uses_anonymous_args = 0
 1118              	.LVL96:
 1119 0000 2DE9F041 		push	{r4, r5, r6, r7, r8, lr}
 1120              		.cfi_def_cfa_offset 24
 1121              		.cfi_offset 4, -24
 1122              		.cfi_offset 5, -20
 1123              		.cfi_offset 6, -16
 1124              		.cfi_offset 7, -12
 1125              		.cfi_offset 8, -8
 1126              		.cfi_offset 14, -4
 1127 0004 2A4E     		ldr	r6, .L153
 1128 0006 82B0     		sub	sp, sp, #8
 1129              		.cfi_def_cfa_offset 32
 1130              		.loc 1 271 0
 1131 0008 3468     		ldr	r4, [r6]
 1132 000a 0194     		str	r4, [sp, #4]
 1133              	.LVL97:
 1134 000c 1F46     		mov	r7, r3
 1135 000e 0446     		mov	r4, r0
 1136 0010 0D46     		mov	r5, r1
 1137 0012 9046     		mov	r8, r2
 1138              	.LBB231:
 1139              	.LBB232:
 1140              	.LBB233:
ARM GAS  C:\Users\mathi\AppData\Local\Temp\ccSKiiIY.s 			page 21


 1141              	.LBB234:
 1142              	.LBB235:
 1143              	.LBB236:
 1144              		.loc 3 546 0
 1145 0014 2023     		movs	r3, #32
 1146              	.LVL98:
 1147              		.syntax unified
 1148              	@ 546 "../../lib/e-puck2_main-processor/ChibiOS//os/ext/CMSIS/include/core_cmFunc.h" 1
 1149 0016 83F31188 		MSR basepri, r3
 1150              	@ 0 "" 2
 1151              	.LVL99:
 1152              		.thumb
 1153              		.syntax unified
 1154              	.LBE236:
 1155              	.LBE235:
 1156              	.LBE234:
 1157              		.loc 4 349 0
 1158 001a FFF7FEFF 		bl	_stats_start_measure_crit_thd
 1159              	.LVL100:
 1160              		.loc 4 350 0
 1161 001e FFF7FEFF 		bl	_dbg_check_lock
 1162              	.LVL101:
 1163              	.LBE233:
 1164              	.LBE232:
 1165              	.LBE231:
 1166              		.loc 1 275 0
 1167 0022 6369     		ldr	r3, [r4, #20]
 1168 0024 13B1     		cbz	r3, .L123
 1169              		.loc 1 275 0 is_stmt 0 discriminator 2
 1170 0026 2348     		ldr	r0, .L153+4
 1171 0028 FFF7FEFF 		bl	chSysHalt
 1172              	.LVL102:
 1173              	.L123:
 1174              	.LBB237:
 1175              	.LBB238:
 1176              		.loc 1 176 0 is_stmt 1
 1177 002c FFF7FEFF 		bl	chDbgCheckClassI
 1178              	.LVL103:
 1179              		.loc 1 177 0
 1180 0030 35B1     		cbz	r5, .L124
 1181 0032 B8F1000F 		cmp	r8, #0
 1182 0036 03D0     		beq	.L124
 1183 0038 012F     		cmp	r7, #1
 1184 003a 04D0     		beq	.L125
 1185 003c FB07     		lsls	r3, r7, #31
 1186 003e 02D5     		bpl	.L125
 1187              	.L124:
 1188 0040 1D48     		ldr	r0, .L153+8
 1189 0042 FFF7FEFF 		bl	chSysHalt
 1190              	.LVL104:
 1191              	.L125:
 1192              		.loc 1 179 0
 1193 0046 2378     		ldrb	r3, [r4]	@ zero_extendqisi2
 1194 0048 022B     		cmp	r3, #2
 1195 004a 05D0     		beq	.L126
 1196 004c 043B     		subs	r3, r3, #4
 1197 004e 012B     		cmp	r3, #1
ARM GAS  C:\Users\mathi\AppData\Local\Temp\ccSKiiIY.s 			page 22


 1198 0050 02D9     		bls	.L126
 1199 0052 1948     		ldr	r0, .L153+8
 1200 0054 FFF7FEFF 		bl	chSysHalt
 1201              	.LVL105:
 1202              	.L126:
 1203              		.loc 1 187 0
 1204 0058 0323     		movs	r3, #3
 1205 005a 2370     		strb	r3, [r4]
 1206              		.loc 1 188 0
 1207 005c 2046     		mov	r0, r4
 1208              		.loc 1 185 0
 1209 005e C4E90287 		strd	r8, r7, [r4, #8]
 1210              		.loc 1 186 0
 1211 0062 2561     		str	r5, [r4, #16]
 1212              		.loc 1 188 0
 1213 0064 FFF7FEFF 		bl	adc_lld_start_conversion
 1214              	.LVL106:
 1215              	.LBE238:
 1216              	.LBE237:
 1217              	.LBB239:
 1218              	.LBB240:
 1219              		.loc 2 642 0
 1220 0068 04F11400 		add	r0, r4, #20
 1221              	.LVL107:
 1222 006c FFF7FEFF 		bl	chThdSuspendS
 1223              	.LVL108:
 1224 0070 0446     		mov	r4, r0
 1225              	.LVL109:
 1226              	.LBE240:
 1227              	.LBE239:
 1228              	.LBB241:
 1229              	.LBB242:
 1230              	.LBB243:
 1231              		.loc 4 360 0
 1232 0072 FFF7FEFF 		bl	_dbg_check_unlock
 1233              	.LVL110:
 1234              		.loc 4 361 0
 1235 0076 FFF7FEFF 		bl	_stats_stop_measure_crit_thd
 1236              	.LVL111:
 1237              		.loc 4 367 0
 1238 007a 104B     		ldr	r3, .L153+12
 1239 007c 1A68     		ldr	r2, [r3]
 1240 007e 9A42     		cmp	r2, r3
 1241 0080 04D0     		beq	.L127
 1242 0082 9969     		ldr	r1, [r3, #24]
 1243 0084 9368     		ldr	r3, [r2, #8]
 1244 0086 8A68     		ldr	r2, [r1, #8]
 1245 0088 9A42     		cmp	r2, r3
 1246 008a 0AD3     		bcc	.L151
 1247              	.L127:
 1248              	.LVL112:
 1249              	.LBB244:
 1250              	.LBB245:
 1251              	.LBB246:
 1252              		.loc 3 546 0
 1253 008c 0023     		movs	r3, #0
 1254              		.syntax unified
ARM GAS  C:\Users\mathi\AppData\Local\Temp\ccSKiiIY.s 			page 23


 1255              	@ 546 "../../lib/e-puck2_main-processor/ChibiOS//os/ext/CMSIS/include/core_cmFunc.h" 1
 1256 008e 83F31188 		MSR basepri, r3
 1257              	@ 0 "" 2
 1258              	.LVL113:
 1259              		.thumb
 1260              		.syntax unified
 1261              	.LBE246:
 1262              	.LBE245:
 1263              	.LBE244:
 1264              	.LBE243:
 1265              	.LBE242:
 1266              	.LBE241:
 1267              		.loc 1 280 0
 1268 0092 019A     		ldr	r2, [sp, #4]
 1269 0094 3368     		ldr	r3, [r6]
 1270 0096 9A42     		cmp	r2, r3
 1271 0098 2046     		mov	r0, r4
 1272 009a 06D1     		bne	.L152
 1273 009c 02B0     		add	sp, sp, #8
 1274              		.cfi_remember_state
 1275              		.cfi_def_cfa_offset 24
 1276              		@ sp needed
 1277 009e BDE8F081 		pop	{r4, r5, r6, r7, r8, pc}
 1278              	.LVL114:
 1279              	.L151:
 1280              		.cfi_restore_state
 1281              	.LBB249:
 1282              	.LBB248:
 1283              	.LBB247:
 1284              		.loc 4 367 0
 1285 00a2 0748     		ldr	r0, .L153+16
 1286 00a4 FFF7FEFF 		bl	chSysHalt
 1287              	.LVL115:
 1288 00a8 F0E7     		b	.L127
 1289              	.L152:
 1290              	.LBE247:
 1291              	.LBE248:
 1292              	.LBE249:
 1293              		.loc 1 280 0
 1294 00aa FFF7FEFF 		bl	__stack_chk_fail
 1295              	.LVL116:
 1296              	.L154:
 1297 00ae 00BF     		.align	2
 1298              	.L153:
 1299 00b0 00000000 		.word	__stack_chk_guard
 1300 00b4 00000000 		.word	.LANCHOR6
 1301 00b8 00000000 		.word	.LANCHOR3
 1302 00bc 00000000 		.word	ch
 1303 00c0 00000000 		.word	.LANCHOR1
 1304              		.cfi_endproc
 1305              	.LFE264:
 1306              		.size	adcConvert, .-adcConvert
 1307              		.section	.text.adcAcquireBus,"ax",%progbits
 1308              		.align	1
 1309              		.p2align 4,,15
 1310              		.global	adcAcquireBus
 1311              		.syntax unified
ARM GAS  C:\Users\mathi\AppData\Local\Temp\ccSKiiIY.s 			page 24


 1312              		.thumb
 1313              		.thumb_func
 1314              		.fpu fpv4-sp-d16
 1315              		.type	adcAcquireBus, %function
 1316              	adcAcquireBus:
 1317              	.LFB265:
 1318              		.loc 1 295 0
 1319              		.cfi_startproc
 1320              		@ args = 0, pretend = 0, frame = 8
 1321              		@ frame_needed = 0, uses_anonymous_args = 0
 1322              	.LVL117:
 1323 0000 30B5     		push	{r4, r5, lr}
 1324              		.cfi_def_cfa_offset 12
 1325              		.cfi_offset 4, -12
 1326              		.cfi_offset 5, -8
 1327              		.cfi_offset 14, -4
 1328 0002 0B4C     		ldr	r4, .L162
 1329 0004 83B0     		sub	sp, sp, #12
 1330              		.cfi_def_cfa_offset 24
 1331              		.loc 1 295 0
 1332 0006 2368     		ldr	r3, [r4]
 1333 0008 0193     		str	r3, [sp, #4]
 1334              		.loc 1 297 0
 1335 000a 0546     		mov	r5, r0
 1336 000c 50B1     		cbz	r0, .L160
 1337              	.LVL118:
 1338              	.L156:
 1339              	.LBB250:
 1340              	.LBB251:
 1341              		.loc 2 861 0
 1342 000e 019A     		ldr	r2, [sp, #4]
 1343 0010 2368     		ldr	r3, [r4]
 1344 0012 9A42     		cmp	r2, r3
 1345 0014 0AD1     		bne	.L161
 1346 0016 05F11800 		add	r0, r5, #24
 1347              	.LVL119:
 1348              	.LBE251:
 1349              	.LBE250:
 1350              		.loc 1 300 0
 1351 001a 03B0     		add	sp, sp, #12
 1352              		.cfi_remember_state
 1353              		.cfi_def_cfa_offset 12
 1354              		@ sp needed
 1355 001c BDE83040 		pop	{r4, r5, lr}
 1356              		.cfi_restore 14
 1357              		.cfi_restore 5
 1358              		.cfi_restore 4
 1359              		.cfi_def_cfa_offset 0
 1360              	.LVL120:
 1361              	.LBB254:
 1362              	.LBB252:
 1363              		.loc 2 861 0
 1364 0020 FFF7FEBF 		b	chMtxLock
 1365              	.LVL121:
 1366              	.L160:
 1367              		.cfi_restore_state
 1368              	.LBE252:
ARM GAS  C:\Users\mathi\AppData\Local\Temp\ccSKiiIY.s 			page 25


 1369              	.LBE254:
 1370              		.loc 1 297 0 discriminator 2
 1371 0024 0348     		ldr	r0, .L162+4
 1372              	.LVL122:
 1373 0026 FFF7FEFF 		bl	chSysHalt
 1374              	.LVL123:
 1375 002a F0E7     		b	.L156
 1376              	.LVL124:
 1377              	.L161:
 1378              	.LBB255:
 1379              	.LBB253:
 1380              		.loc 2 861 0
 1381 002c FFF7FEFF 		bl	__stack_chk_fail
 1382              	.LVL125:
 1383              	.L163:
 1384              		.align	2
 1385              	.L162:
 1386 0030 00000000 		.word	__stack_chk_guard
 1387 0034 00000000 		.word	.LANCHOR7
 1388              	.LBE253:
 1389              	.LBE255:
 1390              		.cfi_endproc
 1391              	.LFE265:
 1392              		.size	adcAcquireBus, .-adcAcquireBus
 1393              		.section	.text.adcReleaseBus,"ax",%progbits
 1394              		.align	1
 1395              		.p2align 4,,15
 1396              		.global	adcReleaseBus
 1397              		.syntax unified
 1398              		.thumb
 1399              		.thumb_func
 1400              		.fpu fpv4-sp-d16
 1401              		.type	adcReleaseBus, %function
 1402              	adcReleaseBus:
 1403              	.LFB266:
 1404              		.loc 1 311 0
 1405              		.cfi_startproc
 1406              		@ args = 0, pretend = 0, frame = 8
 1407              		@ frame_needed = 0, uses_anonymous_args = 0
 1408              	.LVL126:
 1409 0000 30B5     		push	{r4, r5, lr}
 1410              		.cfi_def_cfa_offset 12
 1411              		.cfi_offset 4, -12
 1412              		.cfi_offset 5, -8
 1413              		.cfi_offset 14, -4
 1414 0002 0B4C     		ldr	r4, .L171
 1415 0004 83B0     		sub	sp, sp, #12
 1416              		.cfi_def_cfa_offset 24
 1417              		.loc 1 311 0
 1418 0006 2368     		ldr	r3, [r4]
 1419 0008 0193     		str	r3, [sp, #4]
 1420              		.loc 1 313 0
 1421 000a 0546     		mov	r5, r0
 1422 000c 50B1     		cbz	r0, .L169
 1423              	.LVL127:
 1424              	.L165:
 1425              	.LBB256:
ARM GAS  C:\Users\mathi\AppData\Local\Temp\ccSKiiIY.s 			page 26


 1426              	.LBB257:
 1427              		.loc 2 885 0
 1428 000e 019A     		ldr	r2, [sp, #4]
 1429 0010 2368     		ldr	r3, [r4]
 1430 0012 9A42     		cmp	r2, r3
 1431 0014 0AD1     		bne	.L170
 1432 0016 05F11800 		add	r0, r5, #24
 1433              	.LVL128:
 1434              	.LBE257:
 1435              	.LBE256:
 1436              		.loc 1 316 0
 1437 001a 03B0     		add	sp, sp, #12
 1438              		.cfi_remember_state
 1439              		.cfi_def_cfa_offset 12
 1440              		@ sp needed
 1441 001c BDE83040 		pop	{r4, r5, lr}
 1442              		.cfi_restore 14
 1443              		.cfi_restore 5
 1444              		.cfi_restore 4
 1445              		.cfi_def_cfa_offset 0
 1446              	.LVL129:
 1447              	.LBB260:
 1448              	.LBB258:
 1449              		.loc 2 885 0
 1450 0020 FFF7FEBF 		b	chMtxUnlock
 1451              	.LVL130:
 1452              	.L169:
 1453              		.cfi_restore_state
 1454              	.LBE258:
 1455              	.LBE260:
 1456              		.loc 1 313 0 discriminator 2
 1457 0024 0348     		ldr	r0, .L171+4
 1458              	.LVL131:
 1459 0026 FFF7FEFF 		bl	chSysHalt
 1460              	.LVL132:
 1461 002a F0E7     		b	.L165
 1462              	.LVL133:
 1463              	.L170:
 1464              	.LBB261:
 1465              	.LBB259:
 1466              		.loc 2 885 0
 1467 002c FFF7FEFF 		bl	__stack_chk_fail
 1468              	.LVL134:
 1469              	.L172:
 1470              		.align	2
 1471              	.L171:
 1472 0030 00000000 		.word	__stack_chk_guard
 1473 0034 00000000 		.word	.LANCHOR8
 1474              	.LBE259:
 1475              	.LBE261:
 1476              		.cfi_endproc
 1477              	.LFE266:
 1478              		.size	adcReleaseBus, .-adcReleaseBus
 1479              		.section	.rodata.__func__.7153,"a",%progbits
 1480              		.align	2
 1481              		.set	.LANCHOR1,. + 0
 1482              		.type	__func__.7153, %object
ARM GAS  C:\Users\mathi\AppData\Local\Temp\ccSKiiIY.s 			page 27


 1483              		.size	__func__.7153, 12
 1484              	__func__.7153:
 1485 0000 63685379 		.ascii	"chSysUnlock\000"
 1485      73556E6C 
 1485      6F636B00 
 1486              		.section	.rodata.__func__.9849,"a",%progbits
 1487              		.align	2
 1488              		.set	.LANCHOR0,. + 0
 1489              		.type	__func__.9849, %object
 1490              		.size	__func__.9849, 9
 1491              	__func__.9849:
 1492 0000 61646353 		.ascii	"adcStart\000"
 1492      74617274 
 1492      00
 1493              		.section	.rodata.__func__.9853,"a",%progbits
 1494              		.align	2
 1495              		.set	.LANCHOR2,. + 0
 1496              		.type	__func__.9853, %object
 1497              		.size	__func__.9853, 8
 1498              	__func__.9853:
 1499 0000 61646353 		.ascii	"adcStop\000"
 1499      746F7000 
 1500              		.section	.rodata.__func__.9866,"a",%progbits
 1501              		.align	2
 1502              		.set	.LANCHOR3,. + 0
 1503              		.type	__func__.9866, %object
 1504              		.size	__func__.9866, 20
 1505              	__func__.9866:
 1506 0000 61646353 		.ascii	"adcStartConversionI\000"
 1506      74617274 
 1506      436F6E76 
 1506      65727369 
 1506      6F6E4900 
 1507              		.section	.rodata.__func__.9870,"a",%progbits
 1508              		.align	2
 1509              		.set	.LANCHOR4,. + 0
 1510              		.type	__func__.9870, %object
 1511              		.size	__func__.9870, 18
 1512              	__func__.9870:
 1513 0000 61646353 		.ascii	"adcStopConversion\000"
 1513      746F7043 
 1513      6F6E7665 
 1513      7273696F 
 1513      6E00
 1514              		.section	.rodata.__func__.9874,"a",%progbits
 1515              		.align	2
 1516              		.set	.LANCHOR5,. + 0
 1517              		.type	__func__.9874, %object
 1518              		.size	__func__.9874, 19
 1519              	__func__.9874:
 1520 0000 61646353 		.ascii	"adcStopConversionI\000"
 1520      746F7043 
 1520      6F6E7665 
 1520      7273696F 
 1520      6E4900
 1521              		.section	.rodata.__func__.9882,"a",%progbits
 1522              		.align	2
ARM GAS  C:\Users\mathi\AppData\Local\Temp\ccSKiiIY.s 			page 28


 1523              		.set	.LANCHOR6,. + 0
 1524              		.type	__func__.9882, %object
 1525              		.size	__func__.9882, 11
 1526              	__func__.9882:
 1527 0000 61646343 		.ascii	"adcConvert\000"
 1527      6F6E7665 
 1527      727400
 1528              		.section	.rodata.__func__.9886,"a",%progbits
 1529              		.align	2
 1530              		.set	.LANCHOR7,. + 0
 1531              		.type	__func__.9886, %object
 1532              		.size	__func__.9886, 14
 1533              	__func__.9886:
 1534 0000 61646341 		.ascii	"adcAcquireBus\000"
 1534      63717569 
 1534      72654275 
 1534      7300
 1535              		.section	.rodata.__func__.9890,"a",%progbits
 1536              		.align	2
 1537              		.set	.LANCHOR8,. + 0
 1538              		.type	__func__.9890, %object
 1539              		.size	__func__.9890, 14
 1540              	__func__.9890:
 1541 0000 61646352 		.ascii	"adcReleaseBus\000"
 1541      656C6561 
 1541      73654275 
 1541      7300
 1542              		.text
 1543              	.Letext0:
 1544              		.file 5 "c:\\eclipse_e-puck2\\tools\\gcc-arm-none-eabi-7-2017-q4-major-win32\\lib\\gcc\\arm-none-e
 1545              		.file 6 "c:\\eclipse_e-puck2\\tools\\gcc-arm-none-eabi-7-2017-q4-major-win32\\arm-none-eabi\\inclu
 1546              		.file 7 "c:\\eclipse_e-puck2\\tools\\gcc-arm-none-eabi-7-2017-q4-major-win32\\arm-none-eabi\\inclu
 1547              		.file 8 "../../lib/e-puck2_main-processor/ChibiOS//os/rt/ports/ARMCMx/compilers/GCC/chtypes.h"
 1548              		.file 9 "../../lib/e-puck2_main-processor/ChibiOS//os/rt/include/chsystypes.h"
 1549              		.file 10 "../../lib/e-puck2_main-processor/ChibiOS//os/rt/include/chschd.h"
 1550              		.file 11 "../../lib/e-puck2_main-processor/ChibiOS//os/ext/CMSIS/include/core_cm4.h"
 1551              		.file 12 "../../lib/e-puck2_main-processor/ChibiOS//os/ext/CMSIS/ST/system_stm32f4xx.h"
 1552              		.file 13 "../../lib/e-puck2_main-processor/ChibiOS//os/ext/CMSIS/ST/stm32f407xx.h"
 1553              		.file 14 "../../lib/e-puck2_main-processor/ChibiOS//os/rt/ports/ARMCMx/chcore.h"
 1554              		.file 15 "../../lib/e-puck2_main-processor/ChibiOS//os/rt/ports/ARMCMx/chcore_v7m.h"
 1555              		.file 16 "../../lib/e-puck2_main-processor/ChibiOS//os/rt/include/chdebug.h"
 1556              		.file 17 "../../lib/e-puck2_main-processor/ChibiOS//os/rt/include/chtm.h"
 1557              		.file 18 "../../lib/e-puck2_main-processor/ChibiOS//os/rt/include/chstats.h"
 1558              		.file 19 "../../lib/e-puck2_main-processor/ChibiOS//os/rt/include/chsem.h"
 1559              		.file 20 "../../lib/e-puck2_main-processor/ChibiOS//os/rt/include/chmtx.h"
 1560              		.file 21 "../../lib/e-puck2_main-processor/ChibiOS//os/rt/include/chregistry.h"
 1561              		.file 22 "../../lib/e-puck2_main-processor/ChibiOS//os/rt/include/chevents.h"
 1562              		.file 23 "../../lib/e-puck2_main-processor/ChibiOS//os/rt/include/chqueues.h"
 1563              		.file 24 "../../lib/e-puck2_main-processor/ChibiOS//os/hal/ports/STM32/STM32F4xx/stm32_dma.h"
 1564              		.file 25 "../../lib/e-puck2_main-processor/ChibiOS//os/hal/include/hal_ioblock.h"
 1565              		.file 26 "../../lib/e-puck2_main-processor/ChibiOS//os/hal/ports/STM32/LLD/GPIOv2/pal_lld.h"
 1566              		.file 27 "../../lib/e-puck2_main-processor/ChibiOS//os/hal/include/adc.h"
 1567              		.file 28 "../../lib/e-puck2_main-processor/ChibiOS//os/hal/ports/STM32/STM32F4xx/adc_lld.h"
 1568              		.file 29 "../../lib/e-puck2_main-processor/ChibiOS//os/hal/include/can.h"
 1569              		.file 30 "../../lib/e-puck2_main-processor/ChibiOS//os/hal/ports/STM32/LLD/can_lld.h"
 1570              		.file 31 "../../lib/e-puck2_main-processor/ChibiOS//os/hal/include/dac.h"
 1571              		.file 32 "../../lib/e-puck2_main-processor/ChibiOS//os/hal/ports/STM32/LLD/DACv1/dac_lld.h"
ARM GAS  C:\Users\mathi\AppData\Local\Temp\ccSKiiIY.s 			page 29


 1572              		.file 33 "../../lib/e-puck2_main-processor/ChibiOS//os/hal/include/ext.h"
 1573              		.file 34 "../../lib/e-puck2_main-processor/ChibiOS//os/hal/ports/STM32/LLD/ext_lld.h"
 1574              		.file 35 "../../lib/e-puck2_main-processor/ChibiOS//os/hal/include/gpt.h"
 1575              		.file 36 "../../lib/e-puck2_main-processor/ChibiOS//os/hal/ports/STM32/LLD/TIMv1/gpt_lld.h"
 1576              		.file 37 "../../lib/e-puck2_main-processor/ChibiOS//os/hal/ports/STM32/LLD/TIMv1/stm32_tim.h"
 1577              		.file 38 "../../lib/e-puck2_main-processor/ChibiOS//os/hal/include/i2c.h"
 1578              		.file 39 "../../lib/e-puck2_main-processor/ChibiOS//os/hal/ports/STM32/LLD/I2Cv1/i2c_lld.h"
 1579              		.file 40 "../../lib/e-puck2_main-processor/ChibiOS//os/hal/include/i2s.h"
 1580              		.file 41 "../../lib/e-puck2_main-processor/ChibiOS//os/hal/ports/STM32/LLD/SPIv1/i2s_lld.h"
 1581              		.file 42 "../../lib/e-puck2_main-processor/ChibiOS//os/hal/include/pwm.h"
 1582              		.file 43 "../../lib/e-puck2_main-processor/ChibiOS//os/hal/ports/STM32/LLD/TIMv1/pwm_lld.h"
 1583              		.file 44 "../../lib/e-puck2_main-processor/ChibiOS//os/hal/include/serial.h"
 1584              		.file 45 "../../lib/e-puck2_main-processor/ChibiOS//os/hal/ports/STM32/LLD/USARTv1/serial_lld.h"
 1585              		.file 46 "../../lib/e-puck2_main-processor/ChibiOS//os/hal/include/sdc.h"
 1586              		.file 47 "../../lib/e-puck2_main-processor/ChibiOS//os/hal/ports/STM32/LLD/sdc_lld.h"
 1587              		.file 48 "../../lib/e-puck2_main-processor/ChibiOS//os/hal/include/spi.h"
 1588              		.file 49 "../../lib/e-puck2_main-processor/ChibiOS//os/hal/ports/STM32/LLD/SPIv1/spi_lld.h"
 1589              		.file 50 "../../lib/e-puck2_main-processor/ChibiOS//os/hal/include/usb.h"
 1590              		.file 51 "../../lib/e-puck2_main-processor/ChibiOS//os/hal/ports/STM32/LLD/OTGv1/usb_lld.h"
 1591              		.file 52 "../../lib/e-puck2_main-processor/ChibiOS//os/hal/ports/STM32/LLD/OTGv1/stm32_otg.h"
 1592              		.file 53 "../../lib/e-puck2_main-processor/ChibiOS//os/rt/include/chthreads.h"