ARM GAS  C:\Users\mathi\AppData\Local\Temp\cchA8gay.s 			page 1


   1              		.cpu cortex-m4
   2              		.eabi_attribute 27, 1
   3              		.eabi_attribute 28, 1
   4              		.eabi_attribute 20, 1
   5              		.eabi_attribute 21, 1
   6              		.eabi_attribute 23, 3
   7              		.eabi_attribute 24, 1
   8              		.eabi_attribute 25, 1
   9              		.eabi_attribute 26, 1
  10              		.eabi_attribute 30, 2
  11              		.eabi_attribute 34, 1
  12              		.eabi_attribute 18, 4
  13              		.file	"adc_lld.c"
  14              		.text
  15              	.Ltext0:
  16              		.cfi_sections	.debug_frame
  17              		.section	.text.adc_lld_serve_rx_interrupt,"ax",%progbits
  18              		.align	1
  19              		.p2align 4,,15
  20              		.syntax unified
  21              		.thumb
  22              		.thumb_func
  23              		.fpu fpv4-sp-d16
  24              		.type	adc_lld_serve_rx_interrupt, %function
  25              	adc_lld_serve_rx_interrupt:
  26              	.LFB256:
  27              		.file 1 "../../lib/e-puck2_main-processor/ChibiOS//os/hal/ports/STM32/STM32F4xx/adc_lld.c"
  28              		.loc 1 75 0
  29              		.cfi_startproc
  30              		@ args = 0, pretend = 0, frame = 8
  31              		@ frame_needed = 0, uses_anonymous_args = 0
  32              	.LVL0:
  33 0000 F0B5     		push	{r4, r5, r6, r7, lr}
  34              		.cfi_def_cfa_offset 20
  35              		.cfi_offset 4, -20
  36              		.cfi_offset 5, -16
  37              		.cfi_offset 6, -12
  38              		.cfi_offset 7, -8
  39              		.cfi_offset 14, -4
  40 0002 5F4D     		ldr	r5, .L40
  41 0004 83B0     		sub	sp, sp, #12
  42              		.cfi_def_cfa_offset 32
  43              		.loc 1 75 0
  44 0006 2B68     		ldr	r3, [r5]
  45 0008 0193     		str	r3, [sp, #4]
  46              		.loc 1 78 0
  47 000a 11F00C0F 		tst	r1, #12
  48              		.loc 1 75 0
  49 000e 0446     		mov	r4, r0
  50              		.loc 1 78 0
  51 0010 1FD1     		bne	.L39
  52              	.LVL1:
  53              	.LBB215:
  54              	.LBB216:
  55              		.loc 1 86 0
  56 0012 0369     		ldr	r3, [r0, #16]
  57 0014 002B     		cmp	r3, #0
ARM GAS  C:\Users\mathi\AppData\Local\Temp\cchA8gay.s 			page 2


  58 0016 56D0     		beq	.L1
  59              		.loc 1 87 0
  60 0018 8E06     		lsls	r6, r1, #26
  61 001a 5AD5     		bpl	.L8
  62              		.loc 1 89 0
  63 001c 1A78     		ldrb	r2, [r3]	@ zero_extendqisi2
  64 001e 002A     		cmp	r2, #0
  65 0020 67D0     		beq	.L9
  66 0022 5E68     		ldr	r6, [r3, #4]
  67 0024 002E     		cmp	r6, #0
  68 0026 4ED0     		beq	.L1
  69 0028 D0E90212 		ldrd	r1, r2, [r0, #8]
  70              	.LVL2:
  71 002c 012A     		cmp	r2, #1
  72 002e 40F29E80 		bls	.L10
  73              	.LBB217:
  74 0032 019F     		ldr	r7, [sp, #4]
  75 0034 2C68     		ldr	r4, [r5]
  76 0036 A742     		cmp	r7, r4
  77 0038 4FEA5202 		lsr	r2, r2, #1
  78              	.LVL3:
  79 003c 40F09E80 		bne	.L37
  80 0040 5C88     		ldrh	r4, [r3, #2]
  81 0042 5300     		lsls	r3, r2, #1
  82              	.LVL4:
  83 0044 04FB0311 		mla	r1, r4, r3, r1
  84 0048 3346     		mov	r3, r6
  85              	.LVL5:
  86              	.L36:
  87              	.LBE217:
  88              	.LBE216:
  89              	.LBE215:
  90              		.loc 1 97 0
  91 004a 03B0     		add	sp, sp, #12
  92              		.cfi_remember_state
  93              		.cfi_def_cfa_offset 20
  94              		@ sp needed
  95 004c BDE8F040 		pop	{r4, r5, r6, r7, lr}
  96              		.cfi_restore 14
  97              		.cfi_restore 7
  98              		.cfi_restore 6
  99              		.cfi_restore 5
 100              		.cfi_restore 4
 101              		.cfi_def_cfa_offset 0
 102              	.LBB239:
 103              	.LBB236:
 104              		.loc 1 93 0
 105 0050 1847     		bx	r3	@ indirect register sibling call
 106              	.LVL6:
 107              	.L39:
 108              		.cfi_restore_state
 109              	.LBE236:
 110              	.LBE239:
 111              	.LBB240:
 112              	.LBB241:
 113              		.loc 1 375 0
 114 0052 036B     		ldr	r3, [r0, #48]
ARM GAS  C:\Users\mathi\AppData\Local\Temp\cchA8gay.s 			page 3


 115 0054 1A68     		ldr	r2, [r3]
 116 0056 1368     		ldr	r3, [r2]
 117 0058 23F01F03 		bic	r3, r3, #31
 118 005c 1360     		str	r3, [r2]
 119 005e 026B     		ldr	r2, [r0, #48]
 120 0060 1368     		ldr	r3, [r2]
 121              	.LVL7:
 122              	.L3:
 123 0062 1968     		ldr	r1, [r3]
 124 0064 11F00101 		ands	r1, r1, #1
 125 0068 FBD1     		bne	.L3
 126 006a 107A     		ldrb	r0, [r2, #8]	@ zero_extendqisi2
 127              	.LVL8:
 128 006c 5268     		ldr	r2, [r2, #4]
 129 006e 3D23     		movs	r3, #61
 130 0070 8340     		lsls	r3, r3, r0
 131 0072 1360     		str	r3, [r2]
 132              		.loc 1 376 0
 133 0074 E36A     		ldr	r3, [r4, #44]
 134 0076 5960     		str	r1, [r3, #4]
 135              		.loc 1 377 0
 136 0078 E36A     		ldr	r3, [r4, #44]
 137 007a 9960     		str	r1, [r3, #8]
 138              		.loc 1 378 0
 139 007c E36A     		ldr	r3, [r4, #44]
 140 007e 0122     		movs	r2, #1
 141 0080 9A60     		str	r2, [r3, #8]
 142              	.LVL9:
 143              	.LBE241:
 144              	.LBE240:
 145              		.loc 1 81 0
 146 0082 2369     		ldr	r3, [r4, #16]
 147 0084 9A68     		ldr	r2, [r3, #8]
 148 0086 4AB1     		cbz	r2, .L5
 149              		.loc 1 81 0 is_stmt 0 discriminator 1
 150 0088 0522     		movs	r2, #5
 151 008a 2270     		strb	r2, [r4]
 152 008c 9B68     		ldr	r3, [r3, #8]
 153 008e 2046     		mov	r0, r4
 154 0090 9847     		blx	r3
 155              	.LVL10:
 156 0092 2378     		ldrb	r3, [r4]	@ zero_extendqisi2
 157 0094 052B     		cmp	r3, #5
 158 0096 04BF     		itt	eq
 159 0098 0223     		moveq	r3, #2
 160 009a 2370     		strbeq	r3, [r4]
 161              	.L5:
 162              		.loc 1 81 0 discriminator 5
 163 009c 0026     		movs	r6, #0
 164 009e 2661     		str	r6, [r4, #16]
 165              	.LVL11:
 166              	.LBB242:
 167              	.LBB243:
 168              	.LBB244:
 169              	.LBB245:
 170              	.LBB246:
 171              	.LBB247:
ARM GAS  C:\Users\mathi\AppData\Local\Temp\cchA8gay.s 			page 4


 172              	.LBB248:
 173              		.file 2 "../../lib/e-puck2_main-processor/ChibiOS//os/ext/CMSIS/include/core_cmFunc.h"
 174              		.loc 2 546 0 is_stmt 1 discriminator 5
 175 00a0 2023     		movs	r3, #32
 176              		.syntax unified
 177              	@ 546 "../../lib/e-puck2_main-processor/ChibiOS//os/ext/CMSIS/include/core_cmFunc.h" 1
 178 00a2 83F31188 		MSR basepri, r3
 179              	@ 0 "" 2
 180              	.LVL12:
 181              		.thumb
 182              		.syntax unified
 183              	.LBE248:
 184              	.LBE247:
 185              	.LBE246:
 186              	.LBE245:
 187              		.file 3 "../../lib/e-puck2_main-processor/ChibiOS//os/rt/include/chsys.h"
 188              		.loc 3 389 0 discriminator 5
 189 00a6 FFF7FEFF 		bl	_stats_start_measure_crit_isr
 190              	.LVL13:
 191              		.loc 3 390 0 discriminator 5
 192 00aa FFF7FEFF 		bl	_dbg_check_lock_from_isr
 193              	.LVL14:
 194              	.LBE244:
 195              	.LBE243:
 196              	.LBE242:
 197              	.LBB249:
 198              	.LBB250:
 199              		.file 4 "../../lib/e-puck2_main-processor/ChibiOS//os/hal/osal/rt/osal.h"
 200              		.loc 4 682 0 discriminator 5
 201 00ae 04F11400 		add	r0, r4, #20
 202              	.LVL15:
 203 00b2 4FF0FF31 		mov	r1, #-1
 204 00b6 FFF7FEFF 		bl	chThdResumeI
 205              	.LVL16:
 206              	.LBE250:
 207              	.LBE249:
 208              	.LBB251:
 209              	.LBB252:
 210              	.LBB253:
 211              		.loc 3 408 0 discriminator 5
 212 00ba FFF7FEFF 		bl	_dbg_check_unlock_from_isr
 213              	.LVL17:
 214              		.loc 3 409 0 discriminator 5
 215 00be FFF7FEFF 		bl	_stats_stop_measure_crit_isr
 216              	.LVL18:
 217              	.LBB254:
 218              	.LBB255:
 219              	.LBB256:
 220              	.LBB257:
 221              		.loc 2 546 0 discriminator 5
 222              		.syntax unified
 223              	@ 546 "../../lib/e-puck2_main-processor/ChibiOS//os/ext/CMSIS/include/core_cmFunc.h" 1
 224 00c2 86F31188 		MSR basepri, r6
 225              	@ 0 "" 2
 226              	.LVL19:
 227              		.thumb
 228              		.syntax unified
ARM GAS  C:\Users\mathi\AppData\Local\Temp\cchA8gay.s 			page 5


 229              	.L1:
 230              	.LBE257:
 231              	.LBE256:
 232              	.LBE255:
 233              	.LBE254:
 234              	.LBE253:
 235              	.LBE252:
 236              	.LBE251:
 237              		.loc 1 97 0
 238 00c6 019A     		ldr	r2, [sp, #4]
 239 00c8 2B68     		ldr	r3, [r5]
 240 00ca 9A42     		cmp	r2, r3
 241 00cc 56D1     		bne	.L37
 242 00ce 03B0     		add	sp, sp, #12
 243              		.cfi_remember_state
 244              		.cfi_def_cfa_offset 20
 245              		@ sp needed
 246 00d0 F0BD     		pop	{r4, r5, r6, r7, pc}
 247              	.LVL20:
 248              	.L8:
 249              		.cfi_restore_state
 250              	.LBB258:
 251              	.LBB237:
 252              		.loc 1 91 0
 253 00d2 CA06     		lsls	r2, r1, #27
 254 00d4 F7D5     		bpl	.L1
 255              		.loc 1 93 0
 256 00d6 5B68     		ldr	r3, [r3, #4]
 257 00d8 002B     		cmp	r3, #0
 258 00da F4D0     		beq	.L1
 259 00dc 0199     		ldr	r1, [sp, #4]
 260              	.LVL21:
 261 00de 2A68     		ldr	r2, [r5]
 262 00e0 9142     		cmp	r1, r2
 263 00e2 4BD1     		bne	.L37
 264 00e4 D0E90212 		ldrd	r1, r2, [r0, #8]
 265 00e8 5208     		lsrs	r2, r2, #1
 266              	.LBE237:
 267              	.LBE258:
 268              		.loc 1 97 0
 269 00ea 03B0     		add	sp, sp, #12
 270              		.cfi_remember_state
 271              		.cfi_def_cfa_offset 20
 272              		@ sp needed
 273 00ec BDE8F040 		pop	{r4, r5, r6, r7, lr}
 274              		.cfi_restore 14
 275              		.cfi_restore 7
 276              		.cfi_restore 6
 277              		.cfi_restore 5
 278              		.cfi_restore 4
 279              		.cfi_def_cfa_offset 0
 280              	.LBB259:
 281              	.LBB238:
 282              		.loc 1 93 0
 283 00f0 1847     		bx	r3	@ indirect register sibling call
 284              	.LVL22:
 285              	.L9:
ARM GAS  C:\Users\mathi\AppData\Local\Temp\cchA8gay.s 			page 6


 286              		.cfi_restore_state
 287              	.LBB218:
 288              	.LBB219:
 289              		.loc 1 375 0
 290 00f2 036B     		ldr	r3, [r0, #48]
 291 00f4 1A68     		ldr	r2, [r3]
 292 00f6 1368     		ldr	r3, [r2]
 293 00f8 23F01F03 		bic	r3, r3, #31
 294 00fc 1360     		str	r3, [r2]
 295 00fe 016B     		ldr	r1, [r0, #48]
 296              	.LVL23:
 297 0100 0A68     		ldr	r2, [r1]
 298              	.L13:
 299 0102 1368     		ldr	r3, [r2]
 300 0104 13F00103 		ands	r3, r3, #1
 301 0108 FBD1     		bne	.L13
 302 010a 087A     		ldrb	r0, [r1, #8]	@ zero_extendqisi2
 303              	.LVL24:
 304 010c 4968     		ldr	r1, [r1, #4]
 305 010e 3D22     		movs	r2, #61
 306 0110 8240     		lsls	r2, r2, r0
 307 0112 0A60     		str	r2, [r1]
 308              		.loc 1 376 0
 309 0114 E26A     		ldr	r2, [r4, #44]
 310 0116 5360     		str	r3, [r2, #4]
 311              		.loc 1 377 0
 312 0118 E26A     		ldr	r2, [r4, #44]
 313 011a 9360     		str	r3, [r2, #8]
 314              		.loc 1 378 0
 315 011c E36A     		ldr	r3, [r4, #44]
 316 011e 0122     		movs	r2, #1
 317 0120 9A60     		str	r2, [r3, #8]
 318              	.LVL25:
 319              	.LBE219:
 320              	.LBE218:
 321              		.loc 1 89 0
 322 0122 2369     		ldr	r3, [r4, #16]
 323 0124 5A68     		ldr	r2, [r3, #4]
 324 0126 EAB1     		cbz	r2, .L14
 325 0128 0422     		movs	r2, #4
 326 012a 2270     		strb	r2, [r4]
 327 012c 5B68     		ldr	r3, [r3, #4]
 328 012e D4E90212 		ldrd	r1, r2, [r4, #8]
 329 0132 2046     		mov	r0, r4
 330 0134 9847     		blx	r3
 331              	.LVL26:
 332 0136 2378     		ldrb	r3, [r4]	@ zero_extendqisi2
 333 0138 042B     		cmp	r3, #4
 334 013a 13D0     		beq	.L14
 335              	.L15:
 336              	.LVL27:
 337              	.LBB220:
 338              	.LBB221:
 339              	.LBB222:
 340              	.LBB223:
 341              	.LBB224:
 342              	.LBB225:
ARM GAS  C:\Users\mathi\AppData\Local\Temp\cchA8gay.s 			page 7


 343              	.LBB226:
 344              		.loc 2 546 0
 345 013c 2023     		movs	r3, #32
 346              		.syntax unified
 347              	@ 546 "../../lib/e-puck2_main-processor/ChibiOS//os/ext/CMSIS/include/core_cmFunc.h" 1
 348 013e 83F31188 		MSR basepri, r3
 349              	@ 0 "" 2
 350              	.LVL28:
 351              		.thumb
 352              		.syntax unified
 353              	.LBE226:
 354              	.LBE225:
 355              	.LBE224:
 356              	.LBE223:
 357              		.loc 3 389 0
 358 0142 FFF7FEFF 		bl	_stats_start_measure_crit_isr
 359              	.LVL29:
 360              		.loc 3 390 0
 361 0146 FFF7FEFF 		bl	_dbg_check_lock_from_isr
 362              	.LVL30:
 363              	.LBE222:
 364              	.LBE221:
 365              	.LBE220:
 366              	.LBB227:
 367              	.LBB228:
 368              		.loc 4 682 0
 369 014a 04F11400 		add	r0, r4, #20
 370              	.LVL31:
 371 014e 0021     		movs	r1, #0
 372 0150 FFF7FEFF 		bl	chThdResumeI
 373              	.LVL32:
 374              	.LBE228:
 375              	.LBE227:
 376              	.LBB229:
 377              	.LBB230:
 378              	.LBB231:
 379              		.loc 3 408 0
 380 0154 FFF7FEFF 		bl	_dbg_check_unlock_from_isr
 381              	.LVL33:
 382              		.loc 3 409 0
 383 0158 FFF7FEFF 		bl	_stats_stop_measure_crit_isr
 384              	.LVL34:
 385              	.LBB232:
 386              	.LBB233:
 387              	.LBB234:
 388              	.LBB235:
 389              		.loc 2 546 0
 390 015c 0023     		movs	r3, #0
 391              		.syntax unified
 392              	@ 546 "../../lib/e-puck2_main-processor/ChibiOS//os/ext/CMSIS/include/core_cmFunc.h" 1
 393 015e 83F31188 		MSR basepri, r3
 394              	@ 0 "" 2
 395              	.LVL35:
 396              		.thumb
 397              		.syntax unified
 398 0162 B0E7     		b	.L1
 399              	.L14:
ARM GAS  C:\Users\mathi\AppData\Local\Temp\cchA8gay.s 			page 8


 400              	.LBE235:
 401              	.LBE234:
 402              	.LBE233:
 403              	.LBE232:
 404              	.LBE231:
 405              	.LBE230:
 406              	.LBE229:
 407              		.loc 1 89 0
 408 0164 0222     		movs	r2, #2
 409 0166 0023     		movs	r3, #0
 410 0168 2270     		strb	r2, [r4]
 411 016a 2361     		str	r3, [r4, #16]
 412 016c E6E7     		b	.L15
 413              	.LVL36:
 414              	.L10:
 415 016e 019C     		ldr	r4, [sp, #4]
 416 0170 2B68     		ldr	r3, [r5]
 417 0172 9C42     		cmp	r4, r3
 418 0174 08BF     		it	eq
 419 0176 3346     		moveq	r3, r6
 420 0178 3FF467AF 		beq	.L36
 421              	.LVL37:
 422              	.L37:
 423              	.LBE238:
 424              	.LBE259:
 425              		.loc 1 97 0
 426 017c FFF7FEFF 		bl	__stack_chk_fail
 427              	.LVL38:
 428              	.L41:
 429              		.align	2
 430              	.L40:
 431 0180 00000000 		.word	__stack_chk_guard
 432              		.cfi_endproc
 433              	.LFE256:
 434              		.size	adc_lld_serve_rx_interrupt, .-adc_lld_serve_rx_interrupt
 435              		.section	.text.Vector88,"ax",%progbits
 436              		.align	1
 437              		.p2align 4,,15
 438              		.global	Vector88
 439              		.syntax unified
 440              		.thumb
 441              		.thumb_func
 442              		.fpu fpv4-sp-d16
 443              		.type	Vector88, %function
 444              	Vector88:
 445              	.LFB257:
 446              		.loc 1 110 0
 447              		.cfi_startproc
 448              		@ args = 0, pretend = 0, frame = 8
 449              		@ frame_needed = 0, uses_anonymous_args = 0
 450 0000 70B5     		push	{r4, r5, r6, lr}
 451              		.cfi_def_cfa_offset 16
 452              		.cfi_offset 4, -16
 453              		.cfi_offset 5, -12
 454              		.cfi_offset 6, -8
 455              		.cfi_offset 14, -4
 456 0002 744C     		ldr	r4, .L94
ARM GAS  C:\Users\mathi\AppData\Local\Temp\cchA8gay.s 			page 9


 457 0004 82B0     		sub	sp, sp, #8
 458              		.cfi_def_cfa_offset 24
 459              		.loc 1 110 0
 460 0006 2368     		ldr	r3, [r4]
 461 0008 0193     		str	r3, [sp, #4]
 462              		.loc 1 113 0
 463 000a FFF7FEFF 		bl	_stats_increase_irq
 464              	.LVL39:
 465 000e FFF7FEFF 		bl	_dbg_check_enter_isr
 466              	.LVL40:
 467              		.loc 1 116 0
 468 0012 714B     		ldr	r3, .L94+4
 469 0014 1A68     		ldr	r2, [r3]
 470              	.LVL41:
 471              		.loc 1 117 0
 472 0016 0021     		movs	r1, #0
 473 0018 1960     		str	r1, [r3]
 474              		.loc 1 120 0
 475 001a 9106     		lsls	r1, r2, #26
 476 001c 06D5     		bpl	.L43
 477              		.loc 1 120 0 is_stmt 0 discriminator 1
 478 001e 6F4D     		ldr	r5, .L94+8
 479 0020 2B6B     		ldr	r3, [r5, #48]
 480 0022 1B68     		ldr	r3, [r3]
 481 0024 5A68     		ldr	r2, [r3, #4]
 482              	.LVL42:
 483 0026 002A     		cmp	r2, #0
 484 0028 40F09680 		bne	.L91
 485              	.L43:
 486              		.loc 1 130 0 is_stmt 1
 487 002c 6C4B     		ldr	r3, .L94+12
 488 002e 1A68     		ldr	r2, [r3]
 489              	.LVL43:
 490              		.loc 1 131 0
 491 0030 0021     		movs	r1, #0
 492              		.loc 1 134 0
 493 0032 9206     		lsls	r2, r2, #26
 494              	.LVL44:
 495              		.loc 1 131 0
 496 0034 1960     		str	r1, [r3]
 497              		.loc 1 134 0
 498 0036 05D5     		bpl	.L48
 499              		.loc 1 134 0 is_stmt 0 discriminator 1
 500 0038 6A4D     		ldr	r5, .L94+16
 501 003a 2B6B     		ldr	r3, [r5, #48]
 502 003c 1B68     		ldr	r3, [r3]
 503 003e 5A68     		ldr	r2, [r3, #4]
 504 0040 002A     		cmp	r2, #0
 505 0042 4FD1     		bne	.L92
 506              	.L48:
 507              		.loc 1 144 0 is_stmt 1
 508 0044 684B     		ldr	r3, .L94+20
 509 0046 1A68     		ldr	r2, [r3]
 510              	.LVL45:
 511              		.loc 1 145 0
 512 0048 0021     		movs	r1, #0
 513 004a 1960     		str	r1, [r3]
ARM GAS  C:\Users\mathi\AppData\Local\Temp\cchA8gay.s 			page 10


 514              		.loc 1 148 0
 515 004c 9306     		lsls	r3, r2, #26
 516 004e 3ED5     		bpl	.L53
 517              		.loc 1 148 0 is_stmt 0 discriminator 1
 518 0050 664D     		ldr	r5, .L94+24
 519 0052 2B6B     		ldr	r3, [r5, #48]
 520 0054 1B68     		ldr	r3, [r3]
 521 0056 5A68     		ldr	r2, [r3, #4]
 522              	.LVL46:
 523 0058 002A     		cmp	r2, #0
 524 005a 38D0     		beq	.L53
 525              		.loc 1 151 0 is_stmt 1
 526 005c 2A69     		ldr	r2, [r5, #16]
 527 005e 002A     		cmp	r2, #0
 528 0060 35D0     		beq	.L53
 529              	.LVL47:
 530              	.LBB314:
 531              	.LBB315:
 532              		.loc 1 375 0
 533 0062 1A68     		ldr	r2, [r3]
 534 0064 22F01F02 		bic	r2, r2, #31
 535 0068 1A60     		str	r2, [r3]
 536 006a 296B     		ldr	r1, [r5, #48]
 537 006c 0A68     		ldr	r2, [r1]
 538              	.L54:
 539 006e 1368     		ldr	r3, [r2]
 540 0070 13F00103 		ands	r3, r3, #1
 541 0074 FBD1     		bne	.L54
 542 0076 087A     		ldrb	r0, [r1, #8]	@ zero_extendqisi2
 543 0078 4968     		ldr	r1, [r1, #4]
 544 007a 3D22     		movs	r2, #61
 545 007c 8240     		lsls	r2, r2, r0
 546 007e 0A60     		str	r2, [r1]
 547              		.loc 1 376 0
 548 0080 EA6A     		ldr	r2, [r5, #44]
 549 0082 5360     		str	r3, [r2, #4]
 550              		.loc 1 377 0
 551 0084 EA6A     		ldr	r2, [r5, #44]
 552 0086 9360     		str	r3, [r2, #8]
 553              		.loc 1 378 0
 554 0088 EB6A     		ldr	r3, [r5, #44]
 555 008a 0121     		movs	r1, #1
 556 008c 9960     		str	r1, [r3, #8]
 557              	.LVL48:
 558              	.LBE315:
 559              	.LBE314:
 560              		.loc 1 152 0
 561 008e 2B69     		ldr	r3, [r5, #16]
 562 0090 9B68     		ldr	r3, [r3, #8]
 563 0092 43B1     		cbz	r3, .L56
 564              		.loc 1 152 0 is_stmt 0 discriminator 1
 565 0094 0522     		movs	r2, #5
 566 0096 2A70     		strb	r2, [r5]
 567 0098 5448     		ldr	r0, .L94+24
 568 009a 9847     		blx	r3
 569              	.LVL49:
 570 009c 2B78     		ldrb	r3, [r5]	@ zero_extendqisi2
ARM GAS  C:\Users\mathi\AppData\Local\Temp\cchA8gay.s 			page 11


 571 009e 052B     		cmp	r3, #5
 572 00a0 04BF     		itt	eq
 573 00a2 0223     		moveq	r3, #2
 574 00a4 2B70     		strbeq	r3, [r5]
 575              	.L56:
 576              		.loc 1 152 0 discriminator 5
 577 00a6 0026     		movs	r6, #0
 578 00a8 2E61     		str	r6, [r5, #16]
 579              	.LVL50:
 580              	.LBB316:
 581              	.LBB317:
 582              	.LBB318:
 583              	.LBB319:
 584              	.LBB320:
 585              	.LBB321:
 586              	.LBB322:
 587              		.loc 2 546 0 is_stmt 1 discriminator 5
 588 00aa 2023     		movs	r3, #32
 589              		.syntax unified
 590              	@ 546 "../../lib/e-puck2_main-processor/ChibiOS//os/ext/CMSIS/include/core_cmFunc.h" 1
 591 00ac 83F31188 		MSR basepri, r3
 592              	@ 0 "" 2
 593              	.LVL51:
 594              		.thumb
 595              		.syntax unified
 596              	.LBE322:
 597              	.LBE321:
 598              	.LBE320:
 599              	.LBE319:
 600              		.loc 3 389 0 discriminator 5
 601 00b0 FFF7FEFF 		bl	_stats_start_measure_crit_isr
 602              	.LVL52:
 603              		.loc 3 390 0 discriminator 5
 604 00b4 FFF7FEFF 		bl	_dbg_check_lock_from_isr
 605              	.LVL53:
 606              	.LBE318:
 607              	.LBE317:
 608              	.LBE316:
 609              	.LBB323:
 610              	.LBB324:
 611              		.loc 4 682 0 discriminator 5
 612 00b8 4FF0FF31 		mov	r1, #-1
 613 00bc 4C48     		ldr	r0, .L94+28
 614 00be FFF7FEFF 		bl	chThdResumeI
 615              	.LVL54:
 616              	.LBE324:
 617              	.LBE323:
 618              	.LBB325:
 619              	.LBB326:
 620              	.LBB327:
 621              		.loc 3 408 0 discriminator 5
 622 00c2 FFF7FEFF 		bl	_dbg_check_unlock_from_isr
 623              	.LVL55:
 624              		.loc 3 409 0 discriminator 5
 625 00c6 FFF7FEFF 		bl	_stats_stop_measure_crit_isr
 626              	.LVL56:
 627              	.LBB328:
ARM GAS  C:\Users\mathi\AppData\Local\Temp\cchA8gay.s 			page 12


 628              	.LBB329:
 629              	.LBB330:
 630              	.LBB331:
 631              		.loc 2 546 0 discriminator 5
 632              		.syntax unified
 633              	@ 546 "../../lib/e-puck2_main-processor/ChibiOS//os/ext/CMSIS/include/core_cmFunc.h" 1
 634 00ca 86F31188 		MSR basepri, r6
 635              	@ 0 "" 2
 636              	.LVL57:
 637              		.thumb
 638              		.syntax unified
 639              	.L53:
 640              	.LBE331:
 641              	.LBE330:
 642              	.LBE329:
 643              	.LBE328:
 644              	.LBE327:
 645              	.LBE326:
 646              	.LBE325:
 647              		.loc 1 157 0
 648 00ce FFF7FEFF 		bl	_dbg_check_leave_isr
 649              	.LVL58:
 650 00d2 019A     		ldr	r2, [sp, #4]
 651 00d4 2368     		ldr	r3, [r4]
 652 00d6 9A42     		cmp	r2, r3
 653 00d8 79D1     		bne	.L93
 654              		.loc 1 158 0
 655 00da 02B0     		add	sp, sp, #8
 656              		.cfi_remember_state
 657              		.cfi_def_cfa_offset 16
 658              		@ sp needed
 659 00dc BDE87040 		pop	{r4, r5, r6, lr}
 660              		.cfi_restore 14
 661              		.cfi_restore 6
 662              		.cfi_restore 5
 663              		.cfi_restore 4
 664              		.cfi_def_cfa_offset 0
 665              		.loc 1 157 0
 666 00e0 FFF7FEBF 		b	_port_irq_epilogue
 667              	.LVL59:
 668              	.L92:
 669              		.cfi_restore_state
 670              		.loc 1 137 0
 671 00e4 2A69     		ldr	r2, [r5, #16]
 672 00e6 002A     		cmp	r2, #0
 673 00e8 ACD0     		beq	.L48
 674              	.LVL60:
 675              	.LBB332:
 676              	.LBB333:
 677              		.loc 1 375 0
 678 00ea 1A68     		ldr	r2, [r3]
 679 00ec 22F01F02 		bic	r2, r2, #31
 680 00f0 1A60     		str	r2, [r3]
 681 00f2 296B     		ldr	r1, [r5, #48]
 682 00f4 0A68     		ldr	r2, [r1]
 683              	.L49:
 684 00f6 1368     		ldr	r3, [r2]
ARM GAS  C:\Users\mathi\AppData\Local\Temp\cchA8gay.s 			page 13


 685 00f8 13F00103 		ands	r3, r3, #1
 686 00fc FBD1     		bne	.L49
 687 00fe 087A     		ldrb	r0, [r1, #8]	@ zero_extendqisi2
 688 0100 4968     		ldr	r1, [r1, #4]
 689 0102 3D22     		movs	r2, #61
 690 0104 8240     		lsls	r2, r2, r0
 691 0106 0A60     		str	r2, [r1]
 692              		.loc 1 376 0
 693 0108 EA6A     		ldr	r2, [r5, #44]
 694 010a 5360     		str	r3, [r2, #4]
 695              		.loc 1 377 0
 696 010c EA6A     		ldr	r2, [r5, #44]
 697 010e 9360     		str	r3, [r2, #8]
 698              		.loc 1 378 0
 699 0110 EB6A     		ldr	r3, [r5, #44]
 700 0112 0121     		movs	r1, #1
 701 0114 9960     		str	r1, [r3, #8]
 702              	.LVL61:
 703              	.LBE333:
 704              	.LBE332:
 705              		.loc 1 138 0
 706 0116 2B69     		ldr	r3, [r5, #16]
 707 0118 9B68     		ldr	r3, [r3, #8]
 708 011a 43B1     		cbz	r3, .L51
 709              		.loc 1 138 0 is_stmt 0 discriminator 1
 710 011c 0522     		movs	r2, #5
 711 011e 2A70     		strb	r2, [r5]
 712 0120 3048     		ldr	r0, .L94+16
 713 0122 9847     		blx	r3
 714              	.LVL62:
 715 0124 2B78     		ldrb	r3, [r5]	@ zero_extendqisi2
 716 0126 052B     		cmp	r3, #5
 717 0128 04BF     		itt	eq
 718 012a 0223     		moveq	r3, #2
 719 012c 2B70     		strbeq	r3, [r5]
 720              	.L51:
 721              		.loc 1 138 0 discriminator 5
 722 012e 0026     		movs	r6, #0
 723 0130 2E61     		str	r6, [r5, #16]
 724              	.LVL63:
 725              	.LBB334:
 726              	.LBB335:
 727              	.LBB336:
 728              	.LBB337:
 729              	.LBB338:
 730              	.LBB339:
 731              	.LBB340:
 732              		.loc 2 546 0 is_stmt 1 discriminator 5
 733 0132 2023     		movs	r3, #32
 734              		.syntax unified
 735              	@ 546 "../../lib/e-puck2_main-processor/ChibiOS//os/ext/CMSIS/include/core_cmFunc.h" 1
 736 0134 83F31188 		MSR basepri, r3
 737              	@ 0 "" 2
 738              	.LVL64:
 739              		.thumb
 740              		.syntax unified
 741              	.LBE340:
ARM GAS  C:\Users\mathi\AppData\Local\Temp\cchA8gay.s 			page 14


 742              	.LBE339:
 743              	.LBE338:
 744              	.LBE337:
 745              		.loc 3 389 0 discriminator 5
 746 0138 FFF7FEFF 		bl	_stats_start_measure_crit_isr
 747              	.LVL65:
 748              		.loc 3 390 0 discriminator 5
 749 013c FFF7FEFF 		bl	_dbg_check_lock_from_isr
 750              	.LVL66:
 751              	.LBE336:
 752              	.LBE335:
 753              	.LBE334:
 754              	.LBB341:
 755              	.LBB342:
 756              		.loc 4 682 0 discriminator 5
 757 0140 4FF0FF31 		mov	r1, #-1
 758 0144 2B48     		ldr	r0, .L94+32
 759 0146 FFF7FEFF 		bl	chThdResumeI
 760              	.LVL67:
 761              	.LBE342:
 762              	.LBE341:
 763              	.LBB343:
 764              	.LBB344:
 765              	.LBB345:
 766              		.loc 3 408 0 discriminator 5
 767 014a FFF7FEFF 		bl	_dbg_check_unlock_from_isr
 768              	.LVL68:
 769              		.loc 3 409 0 discriminator 5
 770 014e FFF7FEFF 		bl	_stats_stop_measure_crit_isr
 771              	.LVL69:
 772              	.LBB346:
 773              	.LBB347:
 774              	.LBB348:
 775              	.LBB349:
 776              		.loc 2 546 0 discriminator 5
 777              		.syntax unified
 778              	@ 546 "../../lib/e-puck2_main-processor/ChibiOS//os/ext/CMSIS/include/core_cmFunc.h" 1
 779 0152 86F31188 		MSR basepri, r6
 780              	@ 0 "" 2
 781              	.LVL70:
 782              		.thumb
 783              		.syntax unified
 784 0156 75E7     		b	.L48
 785              	.L91:
 786              	.LBE349:
 787              	.LBE348:
 788              	.LBE347:
 789              	.LBE346:
 790              	.LBE345:
 791              	.LBE344:
 792              	.LBE343:
 793              		.loc 1 123 0
 794 0158 2A69     		ldr	r2, [r5, #16]
 795 015a 002A     		cmp	r2, #0
 796 015c 3FF466AF 		beq	.L43
 797              	.LVL71:
 798              	.LBB350:
ARM GAS  C:\Users\mathi\AppData\Local\Temp\cchA8gay.s 			page 15


 799              	.LBB351:
 800              		.loc 1 375 0
 801 0160 1A68     		ldr	r2, [r3]
 802 0162 22F01F02 		bic	r2, r2, #31
 803 0166 1A60     		str	r2, [r3]
 804 0168 296B     		ldr	r1, [r5, #48]
 805 016a 0A68     		ldr	r2, [r1]
 806              	.L44:
 807 016c 1368     		ldr	r3, [r2]
 808 016e 13F00103 		ands	r3, r3, #1
 809 0172 FBD1     		bne	.L44
 810 0174 087A     		ldrb	r0, [r1, #8]	@ zero_extendqisi2
 811 0176 4968     		ldr	r1, [r1, #4]
 812 0178 3D22     		movs	r2, #61
 813 017a 8240     		lsls	r2, r2, r0
 814 017c 0A60     		str	r2, [r1]
 815              		.loc 1 376 0
 816 017e EA6A     		ldr	r2, [r5, #44]
 817 0180 5360     		str	r3, [r2, #4]
 818              		.loc 1 377 0
 819 0182 EA6A     		ldr	r2, [r5, #44]
 820 0184 9360     		str	r3, [r2, #8]
 821              		.loc 1 378 0
 822 0186 EB6A     		ldr	r3, [r5, #44]
 823 0188 0121     		movs	r1, #1
 824 018a 9960     		str	r1, [r3, #8]
 825              	.LVL72:
 826              	.LBE351:
 827              	.LBE350:
 828              		.loc 1 124 0
 829 018c 2B69     		ldr	r3, [r5, #16]
 830 018e 9B68     		ldr	r3, [r3, #8]
 831 0190 43B1     		cbz	r3, .L46
 832              		.loc 1 124 0 is_stmt 0 discriminator 1
 833 0192 0522     		movs	r2, #5
 834 0194 2A70     		strb	r2, [r5]
 835 0196 1148     		ldr	r0, .L94+8
 836 0198 9847     		blx	r3
 837              	.LVL73:
 838 019a 2B78     		ldrb	r3, [r5]	@ zero_extendqisi2
 839 019c 052B     		cmp	r3, #5
 840 019e 04BF     		itt	eq
 841 01a0 0223     		moveq	r3, #2
 842 01a2 2B70     		strbeq	r3, [r5]
 843              	.L46:
 844              		.loc 1 124 0 discriminator 5
 845 01a4 0026     		movs	r6, #0
 846 01a6 2E61     		str	r6, [r5, #16]
 847              	.LVL74:
 848              	.LBB352:
 849              	.LBB353:
 850              	.LBB354:
 851              	.LBB355:
 852              	.LBB356:
 853              	.LBB357:
 854              	.LBB358:
 855              		.loc 2 546 0 is_stmt 1 discriminator 5
ARM GAS  C:\Users\mathi\AppData\Local\Temp\cchA8gay.s 			page 16


 856 01a8 2023     		movs	r3, #32
 857              		.syntax unified
 858              	@ 546 "../../lib/e-puck2_main-processor/ChibiOS//os/ext/CMSIS/include/core_cmFunc.h" 1
 859 01aa 83F31188 		MSR basepri, r3
 860              	@ 0 "" 2
 861              	.LVL75:
 862              		.thumb
 863              		.syntax unified
 864              	.LBE358:
 865              	.LBE357:
 866              	.LBE356:
 867              	.LBE355:
 868              		.loc 3 389 0 discriminator 5
 869 01ae FFF7FEFF 		bl	_stats_start_measure_crit_isr
 870              	.LVL76:
 871              		.loc 3 390 0 discriminator 5
 872 01b2 FFF7FEFF 		bl	_dbg_check_lock_from_isr
 873              	.LVL77:
 874              	.LBE354:
 875              	.LBE353:
 876              	.LBE352:
 877              	.LBB359:
 878              	.LBB360:
 879              		.loc 4 682 0 discriminator 5
 880 01b6 4FF0FF31 		mov	r1, #-1
 881 01ba 0F48     		ldr	r0, .L94+36
 882 01bc FFF7FEFF 		bl	chThdResumeI
 883              	.LVL78:
 884              	.LBE360:
 885              	.LBE359:
 886              	.LBB361:
 887              	.LBB362:
 888              	.LBB363:
 889              		.loc 3 408 0 discriminator 5
 890 01c0 FFF7FEFF 		bl	_dbg_check_unlock_from_isr
 891              	.LVL79:
 892              		.loc 3 409 0 discriminator 5
 893 01c4 FFF7FEFF 		bl	_stats_stop_measure_crit_isr
 894              	.LVL80:
 895              	.LBB364:
 896              	.LBB365:
 897              	.LBB366:
 898              	.LBB367:
 899              		.loc 2 546 0 discriminator 5
 900              		.syntax unified
 901              	@ 546 "../../lib/e-puck2_main-processor/ChibiOS//os/ext/CMSIS/include/core_cmFunc.h" 1
 902 01c8 86F31188 		MSR basepri, r6
 903              	@ 0 "" 2
 904              	.LVL81:
 905              		.thumb
 906              		.syntax unified
 907 01cc 2EE7     		b	.L43
 908              	.L93:
 909              	.LBE367:
 910              	.LBE366:
 911              	.LBE365:
 912              	.LBE364:
ARM GAS  C:\Users\mathi\AppData\Local\Temp\cchA8gay.s 			page 17


 913              	.LBE363:
 914              	.LBE362:
 915              	.LBE361:
 916              		.loc 1 157 0
 917 01ce FFF7FEFF 		bl	__stack_chk_fail
 918              	.LVL82:
 919              	.L95:
 920 01d2 00BF     		.align	2
 921              	.L94:
 922 01d4 00000000 		.word	__stack_chk_guard
 923 01d8 00200140 		.word	1073815552
 924 01dc 00000000 		.word	.LANCHOR0
 925 01e0 00210140 		.word	1073815808
 926 01e4 00000000 		.word	.LANCHOR1
 927 01e8 00220140 		.word	1073816064
 928 01ec 00000000 		.word	.LANCHOR2
 929 01f0 14000000 		.word	.LANCHOR2+20
 930 01f4 14000000 		.word	.LANCHOR1+20
 931 01f8 14000000 		.word	.LANCHOR0+20
 932              		.cfi_endproc
 933              	.LFE257:
 934              		.size	Vector88, .-Vector88
 935              		.section	.text.adc_lld_init,"ax",%progbits
 936              		.align	1
 937              		.p2align 4,,15
 938              		.global	adc_lld_init
 939              		.syntax unified
 940              		.thumb
 941              		.thumb_func
 942              		.fpu fpv4-sp-d16
 943              		.type	adc_lld_init, %function
 944              	adc_lld_init:
 945              	.LFB258:
 946              		.loc 1 170 0
 947              		.cfi_startproc
 948              		@ args = 0, pretend = 0, frame = 8
 949              		@ frame_needed = 0, uses_anonymous_args = 0
 950 0000 2DE9F041 		push	{r4, r5, r6, r7, r8, lr}
 951              		.cfi_def_cfa_offset 24
 952              		.cfi_offset 4, -24
 953              		.cfi_offset 5, -20
 954              		.cfi_offset 6, -16
 955              		.cfi_offset 7, -12
 956              		.cfi_offset 8, -8
 957              		.cfi_offset 14, -4
 958              		.loc 1 174 0
 959 0004 194F     		ldr	r7, .L101
 960              		.loc 1 170 0
 961 0006 DFF88C80 		ldr	r8, .L101+40
 962              		.loc 1 187 0
 963 000a 194E     		ldr	r6, .L101+4
 964              		.loc 1 170 0
 965 000c D8F80030 		ldr	r3, [r8]
 966              		.loc 1 176 0
 967 0010 184C     		ldr	r4, .L101+8
 968              		.loc 1 200 0
 969 0012 194D     		ldr	r5, .L101+12
ARM GAS  C:\Users\mathi\AppData\Local\Temp\cchA8gay.s 			page 18


 970              		.loc 1 170 0
 971 0014 82B0     		sub	sp, sp, #8
 972              		.cfi_def_cfa_offset 32
 973              		.loc 1 174 0
 974 0016 3846     		mov	r0, r7
 975              		.loc 1 170 0
 976 0018 0193     		str	r3, [sp, #4]
 977              		.loc 1 174 0
 978 001a FFF7FEFF 		bl	adcObjectInit
 979              	.LVL83:
 980              		.loc 1 175 0
 981 001e 174B     		ldr	r3, .L101+16
 982 0020 FB62     		str	r3, [r7, #44]
 983              		.loc 1 187 0
 984 0022 3046     		mov	r0, r6
 985              		.loc 1 177 0
 986 0024 164B     		ldr	r3, .L101+20
 987 0026 7B63     		str	r3, [r7, #52]
 988              		.loc 1 176 0
 989 0028 3C63     		str	r4, [r7, #48]
 990              		.loc 1 187 0
 991 002a FFF7FEFF 		bl	adcObjectInit
 992              	.LVL84:
 993              		.loc 1 188 0
 994 002e 154A     		ldr	r2, .L101+24
 995              		.loc 1 190 0
 996 0030 154B     		ldr	r3, .L101+28
 997              		.loc 1 188 0
 998 0032 F262     		str	r2, [r6, #44]
 999              		.loc 1 200 0
 1000 0034 2846     		mov	r0, r5
 1001              		.loc 1 189 0
 1002 0036 A4F11802 		sub	r2, r4, #24
 1003 003a 3263     		str	r2, [r6, #48]
 1004              		.loc 1 190 0
 1005 003c 7363     		str	r3, [r6, #52]
 1006              		.loc 1 200 0
 1007 003e FFF7FEFF 		bl	adcObjectInit
 1008              	.LVL85:
 1009              		.loc 1 213 0
 1010 0042 019A     		ldr	r2, [sp, #4]
 1011 0044 D8F80030 		ldr	r3, [r8]
 1012              		.loc 1 203 0
 1013 0048 1049     		ldr	r1, .L101+32
 1014              		.loc 1 201 0
 1015 004a 1148     		ldr	r0, .L101+36
 1016 004c E862     		str	r0, [r5, #44]
 1017              		.loc 1 202 0
 1018 004e 243C     		subs	r4, r4, #36
 1019              		.loc 1 213 0
 1020 0050 9A42     		cmp	r2, r3
 1021              		.loc 1 203 0
 1022 0052 C5E90C41 		strd	r4, r1, [r5, #48]
 1023              		.loc 1 213 0
 1024 0056 06D1     		bne	.L100
 1025 0058 0621     		movs	r1, #6
 1026 005a 1220     		movs	r0, #18
ARM GAS  C:\Users\mathi\AppData\Local\Temp\cchA8gay.s 			page 19


 1027              		.loc 1 214 0
 1028 005c 02B0     		add	sp, sp, #8
 1029              		.cfi_remember_state
 1030              		.cfi_def_cfa_offset 24
 1031              		@ sp needed
 1032 005e BDE8F041 		pop	{r4, r5, r6, r7, r8, lr}
 1033              		.cfi_restore 14
 1034              		.cfi_restore 8
 1035              		.cfi_restore 7
 1036              		.cfi_restore 6
 1037              		.cfi_restore 5
 1038              		.cfi_restore 4
 1039              		.cfi_def_cfa_offset 0
 1040              		.loc 1 213 0
 1041 0062 FFF7FEBF 		b	nvicEnableVector
 1042              	.LVL86:
 1043              	.L100:
 1044              		.cfi_restore_state
 1045 0066 FFF7FEFF 		bl	__stack_chk_fail
 1046              	.LVL87:
 1047              	.L102:
 1048 006a 00BF     		.align	2
 1049              	.L101:
 1050 006c 00000000 		.word	.LANCHOR0
 1051 0070 00000000 		.word	.LANCHOR1
 1052 0074 90000000 		.word	_stm32_dma_streams+144
 1053 0078 00000000 		.word	.LANCHOR2
 1054 007c 00200140 		.word	1073815552
 1055 0080 162C0200 		.word	142358
 1056 0084 00210140 		.word	1073815808
 1057 0088 162C0202 		.word	33696790
 1058 008c 162C0204 		.word	67251222
 1059 0090 00220140 		.word	1073816064
 1060 0094 00000000 		.word	__stack_chk_guard
 1061              		.cfi_endproc
 1062              	.LFE258:
 1063              		.size	adc_lld_init, .-adc_lld_init
 1064              		.section	.text.adc_lld_start,"ax",%progbits
 1065              		.align	1
 1066              		.p2align 4,,15
 1067              		.global	adc_lld_start
 1068              		.syntax unified
 1069              		.thumb
 1070              		.thumb_func
 1071              		.fpu fpv4-sp-d16
 1072              		.type	adc_lld_start, %function
 1073              	adc_lld_start:
 1074              	.LFB259:
 1075              		.loc 1 223 0
 1076              		.cfi_startproc
 1077              		@ args = 0, pretend = 0, frame = 8
 1078              		@ frame_needed = 0, uses_anonymous_args = 0
 1079              	.LVL88:
 1080 0000 70B5     		push	{r4, r5, r6, lr}
 1081              		.cfi_def_cfa_offset 16
 1082              		.cfi_offset 4, -16
 1083              		.cfi_offset 5, -12
ARM GAS  C:\Users\mathi\AppData\Local\Temp\cchA8gay.s 			page 20


 1084              		.cfi_offset 6, -8
 1085              		.cfi_offset 14, -4
 1086 0002 344D     		ldr	r5, .L130
 1087              		.loc 1 226 0
 1088 0004 0378     		ldrb	r3, [r0]	@ zero_extendqisi2
 1089              		.loc 1 223 0
 1090 0006 2A68     		ldr	r2, [r5]
 1091 0008 82B0     		sub	sp, sp, #8
 1092              		.cfi_def_cfa_offset 24
 1093              		.loc 1 226 0
 1094 000a 012B     		cmp	r3, #1
 1095              		.loc 1 223 0
 1096 000c 0192     		str	r2, [sp, #4]
 1097              		.loc 1 226 0
 1098 000e 05D0     		beq	.L122
 1099              	.LVL89:
 1100              	.L103:
 1101              		.loc 1 277 0
 1102 0010 019A     		ldr	r2, [sp, #4]
 1103 0012 2B68     		ldr	r3, [r5]
 1104 0014 9A42     		cmp	r2, r3
 1105 0016 5BD1     		bne	.L123
 1106 0018 02B0     		add	sp, sp, #8
 1107              		.cfi_remember_state
 1108              		.cfi_def_cfa_offset 16
 1109              		@ sp needed
 1110 001a 70BD     		pop	{r4, r5, r6, pc}
 1111              	.LVL90:
 1112              	.L122:
 1113              		.cfi_restore_state
 1114              		.loc 1 228 0
 1115 001c 2E4E     		ldr	r6, .L130+4
 1116 001e B042     		cmp	r0, r6
 1117 0020 0446     		mov	r4, r0
 1118 0022 38D0     		beq	.L124
 1119              		.loc 1 241 0
 1120 0024 2D4E     		ldr	r6, .L130+8
 1121 0026 B042     		cmp	r0, r6
 1122 0028 24D0     		beq	.L125
 1123              		.loc 1 254 0
 1124 002a 2D4E     		ldr	r6, .L130+12
 1125 002c B042     		cmp	r0, r6
 1126 002e 0FD0     		beq	.L126
 1127              	.LVL91:
 1128              	.L107:
 1129              		.loc 1 268 0
 1130 0030 2C4A     		ldr	r2, .L130+16
 1131 0032 5368     		ldr	r3, [r2, #4]
 1132 0034 03F44003 		and	r3, r3, #12582912
 1133 0038 43F44033 		orr	r3, r3, #196608
 1134 003c 5360     		str	r3, [r2, #4]
 1135              		.loc 1 273 0
 1136 003e E26A     		ldr	r2, [r4, #44]
 1137 0040 0023     		movs	r3, #0
 1138 0042 5360     		str	r3, [r2, #4]
 1139              		.loc 1 274 0
 1140 0044 E26A     		ldr	r2, [r4, #44]
ARM GAS  C:\Users\mathi\AppData\Local\Temp\cchA8gay.s 			page 21


 1141 0046 9360     		str	r3, [r2, #8]
 1142              		.loc 1 275 0
 1143 0048 E36A     		ldr	r3, [r4, #44]
 1144 004a 0122     		movs	r2, #1
 1145 004c 9A60     		str	r2, [r3, #8]
 1146              		.loc 1 277 0
 1147 004e DFE7     		b	.L103
 1148              	.LVL92:
 1149              	.L126:
 1150              	.LBB368:
 1151              		.loc 1 256 0
 1152 0050 0346     		mov	r3, r0
 1153 0052 254A     		ldr	r2, .L130+20
 1154 0054 006B     		ldr	r0, [r0, #48]
 1155              	.LVL93:
 1156 0056 0621     		movs	r1, #6
 1157 0058 FFF7FEFF 		bl	dmaStreamAllocate
 1158              	.LVL94:
 1159              		.loc 1 260 0
 1160 005c 0028     		cmp	r0, #0
 1161 005e 33D1     		bne	.L127
 1162              	.LVL95:
 1163              	.L110:
 1164              		.loc 1 261 0
 1165 0060 336B     		ldr	r3, [r6, #48]
 1166              		.loc 1 262 0
 1167 0062 224A     		ldr	r2, .L130+24
 1168              		.loc 1 261 0
 1169 0064 1B68     		ldr	r3, [r3]
 1170 0066 2249     		ldr	r1, .L130+28
 1171 0068 9960     		str	r1, [r3, #8]
 1172              		.loc 1 262 0
 1173 006a 536C     		ldr	r3, [r2, #68]
 1174 006c 43F48063 		orr	r3, r3, #1024
 1175 0070 5364     		str	r3, [r2, #68]
 1176 0072 DDE7     		b	.L107
 1177              	.LVL96:
 1178              	.L125:
 1179              	.LBE368:
 1180              	.LBB369:
 1181              		.loc 1 243 0
 1182 0074 0346     		mov	r3, r0
 1183 0076 1C4A     		ldr	r2, .L130+20
 1184 0078 006B     		ldr	r0, [r0, #48]
 1185              	.LVL97:
 1186 007a 0621     		movs	r1, #6
 1187 007c FFF7FEFF 		bl	dmaStreamAllocate
 1188              	.LVL98:
 1189              		.loc 1 247 0
 1190 0080 F0B9     		cbnz	r0, .L128
 1191              	.LVL99:
 1192              	.L109:
 1193              		.loc 1 248 0
 1194 0082 336B     		ldr	r3, [r6, #48]
 1195              		.loc 1 249 0
 1196 0084 194A     		ldr	r2, .L130+24
 1197              		.loc 1 248 0
ARM GAS  C:\Users\mathi\AppData\Local\Temp\cchA8gay.s 			page 22


 1198 0086 1B68     		ldr	r3, [r3]
 1199 0088 1A49     		ldr	r1, .L130+32
 1200 008a 9960     		str	r1, [r3, #8]
 1201              		.loc 1 249 0
 1202 008c 536C     		ldr	r3, [r2, #68]
 1203 008e 43F40073 		orr	r3, r3, #512
 1204 0092 5364     		str	r3, [r2, #68]
 1205 0094 CCE7     		b	.L107
 1206              	.LVL100:
 1207              	.L124:
 1208              	.LBE369:
 1209              	.LBB370:
 1210              		.loc 1 230 0
 1211 0096 0346     		mov	r3, r0
 1212 0098 134A     		ldr	r2, .L130+20
 1213 009a 006B     		ldr	r0, [r0, #48]
 1214              	.LVL101:
 1215 009c 0621     		movs	r1, #6
 1216 009e FFF7FEFF 		bl	dmaStreamAllocate
 1217              	.LVL102:
 1218              		.loc 1 234 0
 1219 00a2 48B9     		cbnz	r0, .L129
 1220              	.LVL103:
 1221              	.L106:
 1222              		.loc 1 235 0
 1223 00a4 336B     		ldr	r3, [r6, #48]
 1224              		.loc 1 236 0
 1225 00a6 114A     		ldr	r2, .L130+24
 1226              		.loc 1 235 0
 1227 00a8 1B68     		ldr	r3, [r3]
 1228 00aa 1349     		ldr	r1, .L130+36
 1229 00ac 9960     		str	r1, [r3, #8]
 1230              		.loc 1 236 0
 1231 00ae 536C     		ldr	r3, [r2, #68]
 1232 00b0 43F48073 		orr	r3, r3, #256
 1233 00b4 5364     		str	r3, [r2, #68]
 1234 00b6 BBE7     		b	.L107
 1235              	.LVL104:
 1236              	.L129:
 1237              		.loc 1 234 0 discriminator 2
 1238 00b8 1048     		ldr	r0, .L130+40
 1239              	.LVL105:
 1240 00ba FFF7FEFF 		bl	chSysHalt
 1241              	.LVL106:
 1242 00be F1E7     		b	.L106
 1243              	.LVL107:
 1244              	.L128:
 1245              	.LBE370:
 1246              	.LBB371:
 1247              		.loc 1 247 0 discriminator 2
 1248 00c0 0E48     		ldr	r0, .L130+40
 1249              	.LVL108:
 1250 00c2 FFF7FEFF 		bl	chSysHalt
 1251              	.LVL109:
 1252 00c6 DCE7     		b	.L109
 1253              	.LVL110:
 1254              	.L127:
ARM GAS  C:\Users\mathi\AppData\Local\Temp\cchA8gay.s 			page 23


 1255              	.LBE371:
 1256              	.LBB372:
 1257              		.loc 1 260 0 discriminator 2
 1258 00c8 0C48     		ldr	r0, .L130+40
 1259              	.LVL111:
 1260 00ca FFF7FEFF 		bl	chSysHalt
 1261              	.LVL112:
 1262 00ce C7E7     		b	.L110
 1263              	.LVL113:
 1264              	.L123:
 1265              	.LBE372:
 1266              		.loc 1 277 0
 1267 00d0 FFF7FEFF 		bl	__stack_chk_fail
 1268              	.LVL114:
 1269              	.L131:
 1270              		.align	2
 1271              	.L130:
 1272 00d4 00000000 		.word	__stack_chk_guard
 1273 00d8 00000000 		.word	.LANCHOR0
 1274 00dc 00000000 		.word	.LANCHOR1
 1275 00e0 00000000 		.word	.LANCHOR2
 1276 00e4 00230140 		.word	1073816320
 1277 00e8 00000000 		.word	adc_lld_serve_rx_interrupt
 1278 00ec 00380240 		.word	1073887232
 1279 00f0 4C220140 		.word	1073816140
 1280 00f4 4C210140 		.word	1073815884
 1281 00f8 4C200140 		.word	1073815628
 1282 00fc 00000000 		.word	.LANCHOR3
 1283              		.cfi_endproc
 1284              	.LFE259:
 1285              		.size	adc_lld_start, .-adc_lld_start
 1286              		.section	.text.adc_lld_stop,"ax",%progbits
 1287              		.align	1
 1288              		.p2align 4,,15
 1289              		.global	adc_lld_stop
 1290              		.syntax unified
 1291              		.thumb
 1292              		.thumb_func
 1293              		.fpu fpv4-sp-d16
 1294              		.type	adc_lld_stop, %function
 1295              	adc_lld_stop:
 1296              	.LFB260:
 1297              		.loc 1 286 0
 1298              		.cfi_startproc
 1299              		@ args = 0, pretend = 0, frame = 8
 1300              		@ frame_needed = 0, uses_anonymous_args = 0
 1301              	.LVL115:
 1302 0000 30B5     		push	{r4, r5, lr}
 1303              		.cfi_def_cfa_offset 12
 1304              		.cfi_offset 4, -12
 1305              		.cfi_offset 5, -8
 1306              		.cfi_offset 14, -4
 1307 0002 194D     		ldr	r5, .L144
 1308              		.loc 1 289 0
 1309 0004 0378     		ldrb	r3, [r0]	@ zero_extendqisi2
 1310              		.loc 1 286 0
 1311 0006 2A68     		ldr	r2, [r5]
ARM GAS  C:\Users\mathi\AppData\Local\Temp\cchA8gay.s 			page 24


 1312 0008 83B0     		sub	sp, sp, #12
 1313              		.cfi_def_cfa_offset 24
 1314              		.loc 1 289 0
 1315 000a 022B     		cmp	r3, #2
 1316              		.loc 1 286 0
 1317 000c 0192     		str	r2, [sp, #4]
 1318              		.loc 1 289 0
 1319 000e 05D0     		beq	.L140
 1320              	.LVL116:
 1321              	.L132:
 1322              		.loc 1 309 0
 1323 0010 019A     		ldr	r2, [sp, #4]
 1324 0012 2B68     		ldr	r3, [r5]
 1325 0014 9A42     		cmp	r2, r3
 1326 0016 25D1     		bne	.L141
 1327 0018 03B0     		add	sp, sp, #12
 1328              		.cfi_remember_state
 1329              		.cfi_def_cfa_offset 12
 1330              		@ sp needed
 1331 001a 30BD     		pop	{r4, r5, pc}
 1332              	.LVL117:
 1333              	.L140:
 1334              		.cfi_restore_state
 1335 001c 0446     		mov	r4, r0
 1336              		.loc 1 290 0
 1337 001e 006B     		ldr	r0, [r0, #48]
 1338              	.LVL118:
 1339 0020 FFF7FEFF 		bl	dmaStreamRelease
 1340              	.LVL119:
 1341              		.loc 1 291 0
 1342 0024 E16A     		ldr	r1, [r4, #44]
 1343              		.loc 1 295 0
 1344 0026 114A     		ldr	r2, .L144+4
 1345              		.loc 1 291 0
 1346 0028 0023     		movs	r3, #0
 1347 002a 4B60     		str	r3, [r1, #4]
 1348              		.loc 1 292 0
 1349 002c E16A     		ldr	r1, [r4, #44]
 1350              		.loc 1 295 0
 1351 002e 9442     		cmp	r4, r2
 1352              		.loc 1 292 0
 1353 0030 8B60     		str	r3, [r1, #8]
 1354              		.loc 1 295 0
 1355 0032 0BD0     		beq	.L142
 1356              		.loc 1 300 0
 1357 0034 0E4B     		ldr	r3, .L144+8
 1358 0036 9C42     		cmp	r4, r3
 1359 0038 0ED0     		beq	.L143
 1360              		.loc 1 305 0
 1361 003a 0E4B     		ldr	r3, .L144+12
 1362 003c 9C42     		cmp	r4, r3
 1363 003e E7D1     		bne	.L132
 1364              		.loc 1 306 0
 1365 0040 0D4A     		ldr	r2, .L144+16
 1366 0042 536C     		ldr	r3, [r2, #68]
 1367 0044 23F48063 		bic	r3, r3, #1024
 1368 0048 5364     		str	r3, [r2, #68]
ARM GAS  C:\Users\mathi\AppData\Local\Temp\cchA8gay.s 			page 25


 1369              		.loc 1 309 0
 1370 004a E1E7     		b	.L132
 1371              	.L142:
 1372              		.loc 1 296 0
 1373 004c 0A4A     		ldr	r2, .L144+16
 1374 004e 536C     		ldr	r3, [r2, #68]
 1375 0050 23F48073 		bic	r3, r3, #256
 1376 0054 5364     		str	r3, [r2, #68]
 1377 0056 DBE7     		b	.L132
 1378              	.L143:
 1379              		.loc 1 301 0
 1380 0058 074A     		ldr	r2, .L144+16
 1381 005a 536C     		ldr	r3, [r2, #68]
 1382 005c 23F40073 		bic	r3, r3, #512
 1383 0060 5364     		str	r3, [r2, #68]
 1384 0062 D5E7     		b	.L132
 1385              	.LVL120:
 1386              	.L141:
 1387              		.loc 1 309 0
 1388 0064 FFF7FEFF 		bl	__stack_chk_fail
 1389              	.LVL121:
 1390              	.L145:
 1391              		.align	2
 1392              	.L144:
 1393 0068 00000000 		.word	__stack_chk_guard
 1394 006c 00000000 		.word	.LANCHOR0
 1395 0070 00000000 		.word	.LANCHOR1
 1396 0074 00000000 		.word	.LANCHOR2
 1397 0078 00380240 		.word	1073887232
 1398              		.cfi_endproc
 1399              	.LFE260:
 1400              		.size	adc_lld_stop, .-adc_lld_stop
 1401              		.section	.text.adc_lld_start_conversion,"ax",%progbits
 1402              		.align	1
 1403              		.p2align 4,,15
 1404              		.global	adc_lld_start_conversion
 1405              		.syntax unified
 1406              		.thumb
 1407              		.thumb_func
 1408              		.fpu fpv4-sp-d16
 1409              		.type	adc_lld_start_conversion, %function
 1410              	adc_lld_start_conversion:
 1411              	.LFB261:
 1412              		.loc 1 318 0
 1413              		.cfi_startproc
 1414              		@ args = 0, pretend = 0, frame = 8
 1415              		@ frame_needed = 0, uses_anonymous_args = 0
 1416              	.LVL122:
 1417 0000 70B5     		push	{r4, r5, r6, lr}
 1418              		.cfi_def_cfa_offset 16
 1419              		.cfi_offset 4, -16
 1420              		.cfi_offset 5, -12
 1421              		.cfi_offset 6, -8
 1422              		.cfi_offset 14, -4
 1423              		.loc 1 321 0
 1424 0002 0369     		ldr	r3, [r0, #16]
 1425              	.LVL123:
ARM GAS  C:\Users\mathi\AppData\Local\Temp\cchA8gay.s 			page 26


 1426              		.loc 1 318 0
 1427 0004 2C49     		ldr	r1, .L158
 1428              		.loc 1 325 0
 1429 0006 1A78     		ldrb	r2, [r3]	@ zero_extendqisi2
 1430              		.loc 1 318 0
 1431 0008 0C68     		ldr	r4, [r1]
 1432 000a 82B0     		sub	sp, sp, #8
 1433              		.cfi_def_cfa_offset 24
 1434              		.loc 1 318 0
 1435 000c 0194     		str	r4, [sp, #4]
 1436              		.loc 1 324 0
 1437 000e 446B     		ldr	r4, [r0, #52]
 1438              	.LVL124:
 1439              		.loc 1 325 0
 1440 0010 32B1     		cbz	r2, .L147
 1441              	.LVL125:
 1442              		.loc 1 327 0
 1443 0012 C268     		ldr	r2, [r0, #12]
 1444 0014 012A     		cmp	r2, #1
 1445              		.loc 1 326 0
 1446 0016 94BF     		ite	ls
 1447 0018 44F48074 		orrls	r4, r4, #256
 1448              	.LVL126:
 1449              		.loc 1 330 0
 1450 001c 44F48474 		orrhi	r4, r4, #264
 1451              	.LVL127:
 1452              	.L147:
 1453              		.loc 1 333 0
 1454 0020 026B     		ldr	r2, [r0, #48]
 1455 0022 8568     		ldr	r5, [r0, #8]
 1456 0024 1268     		ldr	r2, [r2]
 1457 0026 D560     		str	r5, [r2, #12]
 1458              		.loc 1 334 0
 1459 0028 056B     		ldr	r5, [r0, #48]
 1460 002a 5E88     		ldrh	r6, [r3, #2]
 1461 002c C268     		ldr	r2, [r0, #12]
 1462 002e 2D68     		ldr	r5, [r5]
 1463 0030 02FB06F2 		mul	r2, r2, r6
 1464 0034 6A60     		str	r2, [r5, #4]
 1465              		.loc 1 336 0
 1466 0036 026B     		ldr	r2, [r0, #48]
 1467 0038 1268     		ldr	r2, [r2]
 1468 003a 1460     		str	r4, [r2]
 1469              		.loc 1 337 0
 1470 003c 026B     		ldr	r2, [r0, #48]
 1471 003e 1468     		ldr	r4, [r2]
 1472              	.LVL128:
 1473 0040 2268     		ldr	r2, [r4]
 1474 0042 42F00102 		orr	r2, r2, #1
 1475 0046 2260     		str	r2, [r4]
 1476              		.loc 1 340 0
 1477 0048 C26A     		ldr	r2, [r0, #44]
 1478 004a 0024     		movs	r4, #0
 1479 004c 1460     		str	r4, [r2]
 1480              		.loc 1 341 0
 1481 004e C26A     		ldr	r2, [r0, #44]
 1482 0050 5C69     		ldr	r4, [r3, #20]
ARM GAS  C:\Users\mathi\AppData\Local\Temp\cchA8gay.s 			page 27


 1483 0052 D460     		str	r4, [r2, #12]
 1484              		.loc 1 342 0
 1485 0054 C26A     		ldr	r2, [r0, #44]
 1486 0056 9C69     		ldr	r4, [r3, #24]
 1487 0058 1461     		str	r4, [r2, #16]
 1488              		.loc 1 343 0
 1489 005a C26A     		ldr	r2, [r0, #44]
 1490 005c DC69     		ldr	r4, [r3, #28]
 1491 005e D462     		str	r4, [r2, #44]
 1492              		.loc 1 344 0
 1493 0060 C26A     		ldr	r2, [r0, #44]
 1494 0062 1C6A     		ldr	r4, [r3, #32]
 1495 0064 1463     		str	r4, [r2, #48]
 1496              		.loc 1 345 0
 1497 0066 C26A     		ldr	r2, [r0, #44]
 1498 0068 5C6A     		ldr	r4, [r3, #36]
 1499 006a 5463     		str	r4, [r2, #52]
 1500              		.loc 1 348 0
 1501 006c DA68     		ldr	r2, [r3, #12]
 1502 006e C46A     		ldr	r4, [r0, #44]
 1503 0070 42F08062 		orr	r2, r2, #67108864
 1504 0074 42F48072 		orr	r2, r2, #256
 1505 0078 6260     		str	r2, [r4, #4]
 1506              		.loc 1 351 0
 1507 007a 1B69     		ldr	r3, [r3, #16]
 1508              	.LVL129:
 1509              		.loc 1 355 0
 1510 007c 5A00     		lsls	r2, r3, #1
 1511 007e 0BD4     		bmi	.L156
 1512              		.loc 1 351 0
 1513 0080 43F44073 		orr	r3, r3, #768
 1514              	.LVL130:
 1515              		.loc 1 363 0
 1516 0084 C26A     		ldr	r2, [r0, #44]
 1517              		.loc 1 351 0
 1518 0086 43F00103 		orr	r3, r3, #1
 1519              		.loc 1 363 0
 1520 008a 9360     		str	r3, [r2, #8]
 1521              	.L146:
 1522              		.loc 1 364 0
 1523 008c 019A     		ldr	r2, [sp, #4]
 1524 008e 0B68     		ldr	r3, [r1]
 1525 0090 9A42     		cmp	r2, r3
 1526 0092 0ED1     		bne	.L157
 1527 0094 02B0     		add	sp, sp, #8
 1528              		.cfi_remember_state
 1529              		.cfi_def_cfa_offset 16
 1530              		@ sp needed
 1531 0096 70BD     		pop	{r4, r5, r6, pc}
 1532              	.LVL131:
 1533              	.L156:
 1534              		.cfi_restore_state
 1535              		.loc 1 357 0
 1536 0098 23F08042 		bic	r2, r3, #1073741824
 1537 009c 40F20334 		movw	r4, #771
 1538 00a0 C56A     		ldr	r5, [r0, #44]
 1539 00a2 22F00202 		bic	r2, r2, #2
ARM GAS  C:\Users\mathi\AppData\Local\Temp\cchA8gay.s 			page 28


 1540 00a6 2243     		orrs	r2, r2, r4
 1541 00a8 AA60     		str	r2, [r5, #8]
 1542              		.loc 1 360 0
 1543 00aa C26A     		ldr	r2, [r0, #44]
 1544 00ac 2343     		orrs	r3, r3, r4
 1545              	.LVL132:
 1546 00ae 9360     		str	r3, [r2, #8]
 1547 00b0 ECE7     		b	.L146
 1548              	.L157:
 1549              		.loc 1 364 0
 1550 00b2 FFF7FEFF 		bl	__stack_chk_fail
 1551              	.LVL133:
 1552              	.L159:
 1553 00b6 00BF     		.align	2
 1554              	.L158:
 1555 00b8 00000000 		.word	__stack_chk_guard
 1556              		.cfi_endproc
 1557              	.LFE261:
 1558              		.size	adc_lld_start_conversion, .-adc_lld_start_conversion
 1559              		.section	.text.adc_lld_stop_conversion,"ax",%progbits
 1560              		.align	1
 1561              		.p2align 4,,15
 1562              		.global	adc_lld_stop_conversion
 1563              		.syntax unified
 1564              		.thumb
 1565              		.thumb_func
 1566              		.fpu fpv4-sp-d16
 1567              		.type	adc_lld_stop_conversion, %function
 1568              	adc_lld_stop_conversion:
 1569              	.LFB262:
 1570              		.loc 1 373 0
 1571              		.cfi_startproc
 1572              		@ args = 0, pretend = 0, frame = 8
 1573              		@ frame_needed = 0, uses_anonymous_args = 0
 1574              	.LVL134:
 1575 0000 30B5     		push	{r4, r5, lr}
 1576              		.cfi_def_cfa_offset 12
 1577              		.cfi_offset 4, -12
 1578              		.cfi_offset 5, -8
 1579              		.cfi_offset 14, -4
 1580              		.loc 1 375 0
 1581 0002 026B     		ldr	r2, [r0, #48]
 1582              		.loc 1 373 0
 1583 0004 114C     		ldr	r4, .L166
 1584              		.loc 1 375 0
 1585 0006 1268     		ldr	r2, [r2]
 1586              		.loc 1 373 0
 1587 0008 2368     		ldr	r3, [r4]
 1588 000a 83B0     		sub	sp, sp, #12
 1589              		.cfi_def_cfa_offset 24
 1590              		.loc 1 373 0
 1591 000c 0193     		str	r3, [sp, #4]
 1592              		.loc 1 375 0
 1593 000e 1368     		ldr	r3, [r2]
 1594 0010 23F01F03 		bic	r3, r3, #31
 1595 0014 1360     		str	r3, [r2]
 1596 0016 016B     		ldr	r1, [r0, #48]
ARM GAS  C:\Users\mathi\AppData\Local\Temp\cchA8gay.s 			page 29


 1597 0018 0A68     		ldr	r2, [r1]
 1598              	.L161:
 1599              		.loc 1 375 0 is_stmt 0 discriminator 2
 1600 001a 1368     		ldr	r3, [r2]
 1601 001c 13F00103 		ands	r3, r3, #1
 1602 0020 FBD1     		bne	.L161
 1603              		.loc 1 375 0 discriminator 3
 1604 0022 0D7A     		ldrb	r5, [r1, #8]	@ zero_extendqisi2
 1605 0024 4968     		ldr	r1, [r1, #4]
 1606 0026 3D22     		movs	r2, #61
 1607 0028 AA40     		lsls	r2, r2, r5
 1608 002a 0A60     		str	r2, [r1]
 1609              		.loc 1 376 0 is_stmt 1 discriminator 3
 1610 002c C26A     		ldr	r2, [r0, #44]
 1611 002e 5360     		str	r3, [r2, #4]
 1612              		.loc 1 377 0 discriminator 3
 1613 0030 C26A     		ldr	r2, [r0, #44]
 1614 0032 9360     		str	r3, [r2, #8]
 1615              		.loc 1 378 0 discriminator 3
 1616 0034 C36A     		ldr	r3, [r0, #44]
 1617 0036 0122     		movs	r2, #1
 1618 0038 9A60     		str	r2, [r3, #8]
 1619              		.loc 1 379 0 discriminator 3
 1620 003a 019A     		ldr	r2, [sp, #4]
 1621 003c 2368     		ldr	r3, [r4]
 1622 003e 9A42     		cmp	r2, r3
 1623 0040 01D1     		bne	.L165
 1624              		.loc 1 379 0 is_stmt 0
 1625 0042 03B0     		add	sp, sp, #12
 1626              		.cfi_remember_state
 1627              		.cfi_def_cfa_offset 12
 1628              		@ sp needed
 1629 0044 30BD     		pop	{r4, r5, pc}
 1630              	.L165:
 1631              		.cfi_restore_state
 1632 0046 FFF7FEFF 		bl	__stack_chk_fail
 1633              	.LVL135:
 1634              	.L167:
 1635 004a 00BF     		.align	2
 1636              	.L166:
 1637 004c 00000000 		.word	__stack_chk_guard
 1638              		.cfi_endproc
 1639              	.LFE262:
 1640              		.size	adc_lld_stop_conversion, .-adc_lld_stop_conversion
 1641              		.section	.text.adcSTM32EnableTSVREFE,"ax",%progbits
 1642              		.align	1
 1643              		.p2align 4,,15
 1644              		.global	adcSTM32EnableTSVREFE
 1645              		.syntax unified
 1646              		.thumb
 1647              		.thumb_func
 1648              		.fpu fpv4-sp-d16
 1649              		.type	adcSTM32EnableTSVREFE, %function
 1650              	adcSTM32EnableTSVREFE:
 1651              	.LFB263:
 1652              		.loc 1 387 0 is_stmt 1
 1653              		.cfi_startproc
ARM GAS  C:\Users\mathi\AppData\Local\Temp\cchA8gay.s 			page 30


 1654              		@ args = 0, pretend = 0, frame = 8
 1655              		@ frame_needed = 0, uses_anonymous_args = 0
 1656 0000 00B5     		push	{lr}
 1657              		.cfi_def_cfa_offset 4
 1658              		.cfi_offset 14, -4
 1659 0002 094A     		ldr	r2, .L172
 1660              		.loc 1 389 0
 1661 0004 0949     		ldr	r1, .L172+4
 1662              		.loc 1 387 0
 1663 0006 1368     		ldr	r3, [r2]
 1664 0008 83B0     		sub	sp, sp, #12
 1665              		.cfi_def_cfa_offset 16
 1666              		.loc 1 387 0
 1667 000a 0193     		str	r3, [sp, #4]
 1668              		.loc 1 389 0
 1669 000c 4B68     		ldr	r3, [r1, #4]
 1670 000e 43F40003 		orr	r3, r3, #8388608
 1671 0012 4B60     		str	r3, [r1, #4]
 1672              		.loc 1 390 0
 1673 0014 0199     		ldr	r1, [sp, #4]
 1674 0016 1368     		ldr	r3, [r2]
 1675 0018 9942     		cmp	r1, r3
 1676 001a 02D1     		bne	.L171
 1677 001c 03B0     		add	sp, sp, #12
 1678              		.cfi_remember_state
 1679              		.cfi_def_cfa_offset 4
 1680              		@ sp needed
 1681 001e 5DF804FB 		ldr	pc, [sp], #4
 1682              	.L171:
 1683              		.cfi_restore_state
 1684 0022 FFF7FEFF 		bl	__stack_chk_fail
 1685              	.LVL136:
 1686              	.L173:
 1687 0026 00BF     		.align	2
 1688              	.L172:
 1689 0028 00000000 		.word	__stack_chk_guard
 1690 002c 00230140 		.word	1073816320
 1691              		.cfi_endproc
 1692              	.LFE263:
 1693              		.size	adcSTM32EnableTSVREFE, .-adcSTM32EnableTSVREFE
 1694              		.section	.text.adcSTM32DisableTSVREFE,"ax",%progbits
 1695              		.align	1
 1696              		.p2align 4,,15
 1697              		.global	adcSTM32DisableTSVREFE
 1698              		.syntax unified
 1699              		.thumb
 1700              		.thumb_func
 1701              		.fpu fpv4-sp-d16
 1702              		.type	adcSTM32DisableTSVREFE, %function
 1703              	adcSTM32DisableTSVREFE:
 1704              	.LFB264:
 1705              		.loc 1 398 0
 1706              		.cfi_startproc
 1707              		@ args = 0, pretend = 0, frame = 8
 1708              		@ frame_needed = 0, uses_anonymous_args = 0
 1709 0000 00B5     		push	{lr}
 1710              		.cfi_def_cfa_offset 4
ARM GAS  C:\Users\mathi\AppData\Local\Temp\cchA8gay.s 			page 31


 1711              		.cfi_offset 14, -4
 1712 0002 094A     		ldr	r2, .L178
 1713              		.loc 1 400 0
 1714 0004 0949     		ldr	r1, .L178+4
 1715              		.loc 1 398 0
 1716 0006 1368     		ldr	r3, [r2]
 1717 0008 83B0     		sub	sp, sp, #12
 1718              		.cfi_def_cfa_offset 16
 1719              		.loc 1 398 0
 1720 000a 0193     		str	r3, [sp, #4]
 1721              		.loc 1 400 0
 1722 000c 4B68     		ldr	r3, [r1, #4]
 1723 000e 23F40003 		bic	r3, r3, #8388608
 1724 0012 4B60     		str	r3, [r1, #4]
 1725              		.loc 1 401 0
 1726 0014 0199     		ldr	r1, [sp, #4]
 1727 0016 1368     		ldr	r3, [r2]
 1728 0018 9942     		cmp	r1, r3
 1729 001a 02D1     		bne	.L177
 1730 001c 03B0     		add	sp, sp, #12
 1731              		.cfi_remember_state
 1732              		.cfi_def_cfa_offset 4
 1733              		@ sp needed
 1734 001e 5DF804FB 		ldr	pc, [sp], #4
 1735              	.L177:
 1736              		.cfi_restore_state
 1737 0022 FFF7FEFF 		bl	__stack_chk_fail
 1738              	.LVL137:
 1739              	.L179:
 1740 0026 00BF     		.align	2
 1741              	.L178:
 1742 0028 00000000 		.word	__stack_chk_guard
 1743 002c 00230140 		.word	1073816320
 1744              		.cfi_endproc
 1745              	.LFE264:
 1746              		.size	adcSTM32DisableTSVREFE, .-adcSTM32DisableTSVREFE
 1747              		.section	.text.adcSTM32EnableVBATE,"ax",%progbits
 1748              		.align	1
 1749              		.p2align 4,,15
 1750              		.global	adcSTM32EnableVBATE
 1751              		.syntax unified
 1752              		.thumb
 1753              		.thumb_func
 1754              		.fpu fpv4-sp-d16
 1755              		.type	adcSTM32EnableVBATE, %function
 1756              	adcSTM32EnableVBATE:
 1757              	.LFB265:
 1758              		.loc 1 409 0
 1759              		.cfi_startproc
 1760              		@ args = 0, pretend = 0, frame = 8
 1761              		@ frame_needed = 0, uses_anonymous_args = 0
 1762 0000 00B5     		push	{lr}
 1763              		.cfi_def_cfa_offset 4
 1764              		.cfi_offset 14, -4
 1765 0002 094A     		ldr	r2, .L184
 1766              		.loc 1 411 0
 1767 0004 0949     		ldr	r1, .L184+4
ARM GAS  C:\Users\mathi\AppData\Local\Temp\cchA8gay.s 			page 32


 1768              		.loc 1 409 0
 1769 0006 1368     		ldr	r3, [r2]
 1770 0008 83B0     		sub	sp, sp, #12
 1771              		.cfi_def_cfa_offset 16
 1772              		.loc 1 409 0
 1773 000a 0193     		str	r3, [sp, #4]
 1774              		.loc 1 411 0
 1775 000c 4B68     		ldr	r3, [r1, #4]
 1776 000e 43F48003 		orr	r3, r3, #4194304
 1777 0012 4B60     		str	r3, [r1, #4]
 1778              		.loc 1 412 0
 1779 0014 0199     		ldr	r1, [sp, #4]
 1780 0016 1368     		ldr	r3, [r2]
 1781 0018 9942     		cmp	r1, r3
 1782 001a 02D1     		bne	.L183
 1783 001c 03B0     		add	sp, sp, #12
 1784              		.cfi_remember_state
 1785              		.cfi_def_cfa_offset 4
 1786              		@ sp needed
 1787 001e 5DF804FB 		ldr	pc, [sp], #4
 1788              	.L183:
 1789              		.cfi_restore_state
 1790 0022 FFF7FEFF 		bl	__stack_chk_fail
 1791              	.LVL138:
 1792              	.L185:
 1793 0026 00BF     		.align	2
 1794              	.L184:
 1795 0028 00000000 		.word	__stack_chk_guard
 1796 002c 00230140 		.word	1073816320
 1797              		.cfi_endproc
 1798              	.LFE265:
 1799              		.size	adcSTM32EnableVBATE, .-adcSTM32EnableVBATE
 1800              		.section	.text.adcSTM32DisableVBATE,"ax",%progbits
 1801              		.align	1
 1802              		.p2align 4,,15
 1803              		.global	adcSTM32DisableVBATE
 1804              		.syntax unified
 1805              		.thumb
 1806              		.thumb_func
 1807              		.fpu fpv4-sp-d16
 1808              		.type	adcSTM32DisableVBATE, %function
 1809              	adcSTM32DisableVBATE:
 1810              	.LFB266:
 1811              		.loc 1 420 0
 1812              		.cfi_startproc
 1813              		@ args = 0, pretend = 0, frame = 8
 1814              		@ frame_needed = 0, uses_anonymous_args = 0
 1815 0000 00B5     		push	{lr}
 1816              		.cfi_def_cfa_offset 4
 1817              		.cfi_offset 14, -4
 1818 0002 094A     		ldr	r2, .L190
 1819              		.loc 1 422 0
 1820 0004 0949     		ldr	r1, .L190+4
 1821              		.loc 1 420 0
 1822 0006 1368     		ldr	r3, [r2]
 1823 0008 83B0     		sub	sp, sp, #12
 1824              		.cfi_def_cfa_offset 16
ARM GAS  C:\Users\mathi\AppData\Local\Temp\cchA8gay.s 			page 33


 1825              		.loc 1 420 0
 1826 000a 0193     		str	r3, [sp, #4]
 1827              		.loc 1 422 0
 1828 000c 4B68     		ldr	r3, [r1, #4]
 1829 000e 23F48003 		bic	r3, r3, #4194304
 1830 0012 4B60     		str	r3, [r1, #4]
 1831              		.loc 1 423 0
 1832 0014 0199     		ldr	r1, [sp, #4]
 1833 0016 1368     		ldr	r3, [r2]
 1834 0018 9942     		cmp	r1, r3
 1835 001a 02D1     		bne	.L189
 1836 001c 03B0     		add	sp, sp, #12
 1837              		.cfi_remember_state
 1838              		.cfi_def_cfa_offset 4
 1839              		@ sp needed
 1840 001e 5DF804FB 		ldr	pc, [sp], #4
 1841              	.L189:
 1842              		.cfi_restore_state
 1843 0022 FFF7FEFF 		bl	__stack_chk_fail
 1844              	.LVL139:
 1845              	.L191:
 1846 0026 00BF     		.align	2
 1847              	.L190:
 1848 0028 00000000 		.word	__stack_chk_guard
 1849 002c 00230140 		.word	1073816320
 1850              		.cfi_endproc
 1851              	.LFE266:
 1852              		.size	adcSTM32DisableVBATE, .-adcSTM32DisableVBATE
 1853              		.global	ADCD3
 1854              		.global	ADCD2
 1855              		.global	ADCD1
 1856              		.section	.bss.ADCD1,"aw",%nobits
 1857              		.align	2
 1858              		.set	.LANCHOR0,. + 0
 1859              		.type	ADCD1, %object
 1860              		.size	ADCD1, 56
 1861              	ADCD1:
 1862 0000 00000000 		.space	56
 1862      00000000 
 1862      00000000 
 1862      00000000 
 1862      00000000 
 1863              		.section	.bss.ADCD2,"aw",%nobits
 1864              		.align	2
 1865              		.set	.LANCHOR1,. + 0
 1866              		.type	ADCD2, %object
 1867              		.size	ADCD2, 56
 1868              	ADCD2:
 1869 0000 00000000 		.space	56
 1869      00000000 
 1869      00000000 
 1869      00000000 
 1869      00000000 
 1870              		.section	.bss.ADCD3,"aw",%nobits
 1871              		.align	2
 1872              		.set	.LANCHOR2,. + 0
 1873              		.type	ADCD3, %object
ARM GAS  C:\Users\mathi\AppData\Local\Temp\cchA8gay.s 			page 34


 1874              		.size	ADCD3, 56
 1875              	ADCD3:
 1876 0000 00000000 		.space	56
 1876      00000000 
 1876      00000000 
 1876      00000000 
 1876      00000000 
 1877              		.section	.rodata.__func__.9859,"a",%progbits
 1878              		.align	2
 1879              		.set	.LANCHOR3,. + 0
 1880              		.type	__func__.9859, %object
 1881              		.size	__func__.9859, 14
 1882              	__func__.9859:
 1883 0000 6164635F 		.ascii	"adc_lld_start\000"
 1883      6C6C645F 
 1883      73746172 
 1883      7400
 1884              		.text
 1885              	.Letext0:
 1886              		.file 5 "c:\\eclipse_e-puck2\\tools\\gcc-arm-none-eabi-7-2017-q4-major-win32\\lib\\gcc\\arm-none-e
 1887              		.file 6 "c:\\eclipse_e-puck2\\tools\\gcc-arm-none-eabi-7-2017-q4-major-win32\\arm-none-eabi\\inclu
 1888              		.file 7 "c:\\eclipse_e-puck2\\tools\\gcc-arm-none-eabi-7-2017-q4-major-win32\\arm-none-eabi\\inclu
 1889              		.file 8 "../../lib/e-puck2_main-processor/ChibiOS//os/rt/ports/ARMCMx/compilers/GCC/chtypes.h"
 1890              		.file 9 "../../lib/e-puck2_main-processor/ChibiOS//os/rt/include/chsystypes.h"
 1891              		.file 10 "../../lib/e-puck2_main-processor/ChibiOS//os/rt/include/chschd.h"
 1892              		.file 11 "../../lib/e-puck2_main-processor/ChibiOS//os/ext/CMSIS/include/core_cm4.h"
 1893              		.file 12 "../../lib/e-puck2_main-processor/ChibiOS//os/ext/CMSIS/ST/system_stm32f4xx.h"
 1894              		.file 13 "../../lib/e-puck2_main-processor/ChibiOS//os/ext/CMSIS/ST/stm32f407xx.h"
 1895              		.file 14 "../../lib/e-puck2_main-processor/ChibiOS//os/rt/ports/ARMCMx/chcore.h"
 1896              		.file 15 "../../lib/e-puck2_main-processor/ChibiOS//os/rt/ports/ARMCMx/chcore_v7m.h"
 1897              		.file 16 "../../lib/e-puck2_main-processor/ChibiOS//os/rt/include/chdebug.h"
 1898              		.file 17 "../../lib/e-puck2_main-processor/ChibiOS//os/rt/include/chtm.h"
 1899              		.file 18 "../../lib/e-puck2_main-processor/ChibiOS//os/rt/include/chstats.h"
 1900              		.file 19 "../../lib/e-puck2_main-processor/ChibiOS//os/rt/include/chsem.h"
 1901              		.file 20 "../../lib/e-puck2_main-processor/ChibiOS//os/rt/include/chmtx.h"
 1902              		.file 21 "../../lib/e-puck2_main-processor/ChibiOS//os/rt/include/chregistry.h"
 1903              		.file 22 "../../lib/e-puck2_main-processor/ChibiOS//os/rt/include/chevents.h"
 1904              		.file 23 "../../lib/e-puck2_main-processor/ChibiOS//os/rt/include/chqueues.h"
 1905              		.file 24 "../../lib/e-puck2_main-processor/ChibiOS//os/hal/ports/STM32/STM32F4xx/stm32_dma.h"
 1906              		.file 25 "../../lib/e-puck2_main-processor/ChibiOS//os/hal/include/hal_ioblock.h"
 1907              		.file 26 "../../lib/e-puck2_main-processor/ChibiOS//os/hal/ports/STM32/LLD/GPIOv2/pal_lld.h"
 1908              		.file 27 "../../lib/e-puck2_main-processor/ChibiOS//os/hal/include/adc.h"
 1909              		.file 28 "../../lib/e-puck2_main-processor/ChibiOS//os/hal/ports/STM32/STM32F4xx/adc_lld.h"
 1910              		.file 29 "../../lib/e-puck2_main-processor/ChibiOS//os/hal/include/can.h"
 1911              		.file 30 "../../lib/e-puck2_main-processor/ChibiOS//os/hal/ports/STM32/LLD/can_lld.h"
 1912              		.file 31 "../../lib/e-puck2_main-processor/ChibiOS//os/hal/include/dac.h"
 1913              		.file 32 "../../lib/e-puck2_main-processor/ChibiOS//os/hal/ports/STM32/LLD/DACv1/dac_lld.h"
 1914              		.file 33 "../../lib/e-puck2_main-processor/ChibiOS//os/hal/include/ext.h"
 1915              		.file 34 "../../lib/e-puck2_main-processor/ChibiOS//os/hal/ports/STM32/LLD/ext_lld.h"
 1916              		.file 35 "../../lib/e-puck2_main-processor/ChibiOS//os/hal/include/gpt.h"
 1917              		.file 36 "../../lib/e-puck2_main-processor/ChibiOS//os/hal/ports/STM32/LLD/TIMv1/gpt_lld.h"
 1918              		.file 37 "../../lib/e-puck2_main-processor/ChibiOS//os/hal/ports/STM32/LLD/TIMv1/stm32_tim.h"
 1919              		.file 38 "../../lib/e-puck2_main-processor/ChibiOS//os/hal/include/i2c.h"
 1920              		.file 39 "../../lib/e-puck2_main-processor/ChibiOS//os/hal/ports/STM32/LLD/I2Cv1/i2c_lld.h"
 1921              		.file 40 "../../lib/e-puck2_main-processor/ChibiOS//os/hal/include/i2s.h"
 1922              		.file 41 "../../lib/e-puck2_main-processor/ChibiOS//os/hal/ports/STM32/LLD/SPIv1/i2s_lld.h"
 1923              		.file 42 "../../lib/e-puck2_main-processor/ChibiOS//os/hal/include/pwm.h"
ARM GAS  C:\Users\mathi\AppData\Local\Temp\cchA8gay.s 			page 35


 1924              		.file 43 "../../lib/e-puck2_main-processor/ChibiOS//os/hal/ports/STM32/LLD/TIMv1/pwm_lld.h"
 1925              		.file 44 "../../lib/e-puck2_main-processor/ChibiOS//os/hal/include/serial.h"
 1926              		.file 45 "../../lib/e-puck2_main-processor/ChibiOS//os/hal/ports/STM32/LLD/USARTv1/serial_lld.h"
 1927              		.file 46 "../../lib/e-puck2_main-processor/ChibiOS//os/hal/include/sdc.h"
 1928              		.file 47 "../../lib/e-puck2_main-processor/ChibiOS//os/hal/ports/STM32/LLD/sdc_lld.h"
 1929              		.file 48 "../../lib/e-puck2_main-processor/ChibiOS//os/hal/include/spi.h"
 1930              		.file 49 "../../lib/e-puck2_main-processor/ChibiOS//os/hal/ports/STM32/LLD/SPIv1/spi_lld.h"
 1931              		.file 50 "../../lib/e-puck2_main-processor/ChibiOS//os/hal/include/usb.h"
 1932              		.file 51 "../../lib/e-puck2_main-processor/ChibiOS//os/hal/ports/STM32/LLD/OTGv1/usb_lld.h"
 1933              		.file 52 "../../lib/e-puck2_main-processor/ChibiOS//os/hal/ports/STM32/LLD/OTGv1/stm32_otg.h"
 1934              		.file 53 "../../lib/e-puck2_main-processor/ChibiOS//os/hal/ports/common/ARMCMx/nvic.h"
 1935              		.file 54 "../../lib/e-puck2_main-processor/ChibiOS//os/rt/include/chthreads.h"