ARM GAS  C:\Users\mathi\AppData\Local\Temp\cc0ZaFXf.s 			page 1


   1              		.cpu cortex-m4
   2              		.eabi_attribute 27, 1
   3              		.eabi_attribute 28, 1
   4              		.eabi_attribute 20, 1
   5              		.eabi_attribute 21, 1
   6              		.eabi_attribute 23, 3
   7              		.eabi_attribute 24, 1
   8              		.eabi_attribute 25, 1
   9              		.eabi_attribute 26, 1
  10              		.eabi_attribute 30, 2
  11              		.eabi_attribute 34, 1
  12              		.eabi_attribute 18, 4
  13              		.file	"Asercom.c"
  14              		.text
  15              	.Ltext0:
  16              		.cfi_sections	.debug_frame
  17              		.section	.text.run_asercom,"ax",%progbits
  18              		.align	1
  19              		.p2align 4,,15
  20              		.global	run_asercom
  21              		.syntax unified
  22              		.thumb
  23              		.thumb_func
  24              		.fpu fpv4-sp-d16
  25              		.type	run_asercom, %function
  26              	run_asercom:
  27              	.LFB259:
  28              		.file 1 "../../lib/e-puck2_main-processor/src/epuck1x/Asercom.c"
  29              		.loc 1 59 0
  30              		.cfi_startproc
  31              		@ args = 0, pretend = 0, frame = 64
  32              		@ frame_needed = 0, uses_anonymous_args = 0
  33 0000 2DE9F04F 		push	{r4, r5, r6, r7, r8, r9, r10, fp, lr}
  34              		.cfi_def_cfa_offset 36
  35              		.cfi_offset 4, -36
  36              		.cfi_offset 5, -32
  37              		.cfi_offset 6, -28
  38              		.cfi_offset 7, -24
  39              		.cfi_offset 8, -20
  40              		.cfi_offset 9, -16
  41              		.cfi_offset 10, -12
  42              		.cfi_offset 11, -8
  43              		.cfi_offset 14, -4
  44 0004 2DED028B 		vpush.64	{d8}
  45              		.cfi_def_cfa_offset 44
  46              		.cfi_offset 80, -44
  47              		.cfi_offset 81, -40
  48 0008 AD4B     		ldr	r3, .L686
  49 000a 99B0     		sub	sp, sp, #100
  50              		.cfi_def_cfa_offset 144
  51              		.loc 1 59 0
  52 000c 1B68     		ldr	r3, [r3]
  53 000e 1793     		str	r3, [sp, #92]
  54              	.LVL0:
  55              		.loc 1 76 0
  56 0010 FFF7FEFF 		bl	e_init_motors
  57              	.LVL1:
ARM GAS  C:\Users\mathi\AppData\Local\Temp\cc0ZaFXf.s 			page 2


  58              		.loc 1 80 0
  59 0014 FFF7FEFF 		bl	getselector
  60              	.LVL2:
  61 0018 AA4B     		ldr	r3, .L686+4
  62              		.loc 1 81 0
  63 001a 0A28     		cmp	r0, #10
  64              		.loc 1 80 0
  65 001c 1860     		str	r0, [r3]
  66              		.loc 1 81 0
  67 001e 74D0     		beq	.L2
  68              	.LVL3:
  69              		.loc 1 89 0
  70 0020 FFF7FEFF 		bl	e_i2cp_init
  71              	.LVL4:
  72              		.loc 1 105 0
  73 0024 A84C     		ldr	r4, .L686+8
  74              		.loc 1 107 0
  75 0026 A94E     		ldr	r6, .L686+12
  76              		.loc 1 108 0
  77 0028 A94F     		ldr	r7, .L686+16
  78              		.loc 1 110 0
  79 002a AA4B     		ldr	r3, .L686+20
  80              		.loc 1 109 0
  81 002c AA4D     		ldr	r5, .L686+24
  82              		.loc 1 105 0
  83 002e 1494     		str	r4, [sp, #80]
  84              		.loc 1 109 0
  85 0030 1595     		str	r5, [sp, #84]
  86              		.loc 1 110 0
  87 0032 1393     		str	r3, [sp, #76]
  88              		.loc 1 107 0
  89 0034 1196     		str	r6, [sp, #68]
  90              		.loc 1 108 0
  91 0036 1297     		str	r7, [sp, #72]
  92              		.loc 1 94 0
  93 0038 FFF7FEFF 		bl	e_init_remote_control
  94              	.LVL5:
  95              		.loc 1 102 0
  96 003c 0123     		movs	r3, #1
  97 003e A74A     		ldr	r2, .L686+28
  98              		.loc 1 109 0
  99 0040 A54D     		ldr	r5, .L686+24
 100              		.loc 1 102 0
 101 0042 4FF6FE71 		movw	r1, #65534
 102 0046 7F20     		movs	r0, #127
 103 0048 FFF7FEFF 		bl	ReadEE
 104              	.LVL6:
 105              		.loc 1 107 0
 106 004c 2823     		movs	r3, #40
 107 004e 3360     		str	r3, [r6]
 108              		.loc 1 108 0
 109 0050 3B60     		str	r3, [r7]
 110              		.loc 1 110 0
 111 0052 A04B     		ldr	r3, .L686+20
 112              		.loc 1 109 0
 113 0054 0821     		movs	r1, #8
 114              		.loc 1 110 0
ARM GAS  C:\Users\mathi\AppData\Local\Temp\cc0ZaFXf.s 			page 3


 115 0056 4FF44862 		mov	r2, #3200
 116              		.loc 1 105 0
 117 005a 0120     		movs	r0, #1
 118              		.loc 1 109 0
 119 005c 2960     		str	r1, [r5]
 120              		.loc 1 110 0
 121 005e 1A60     		str	r2, [r3]
 122              		.loc 1 105 0
 123 0060 2060     		str	r0, [r4]
 124              		.loc 1 113 0
 125 0062 FFF7FEFF 		bl	e_poxxxx_init_cam
 126              	.LVL7:
 127              		.loc 1 114 0
 128 0066 2D68     		ldr	r5, [r5]
 129 0068 3268     		ldr	r2, [r6]
 130 006a 3B68     		ldr	r3, [r7]
 131 006c 2468     		ldr	r4, [r4]
 132 006e 0294     		str	r4, [sp, #8]
 133 0070 02FB05F2 		mul	r2, r2, r5
 134 0074 03FB05F3 		mul	r3, r3, r5
 135 0078 C3F5F071 		rsb	r1, r3, #480
 136 007c C2F52070 		rsb	r0, r2, #640
 137 0080 01EBD171 		add	r1, r1, r1, lsr #31
 138 0084 00EBD070 		add	r0, r0, r0, lsr #31
 139 0088 4910     		asrs	r1, r1, #1
 140 008a 0195     		str	r5, [sp, #4]
 141 008c 0095     		str	r5, [sp]
 142 008e 4010     		asrs	r0, r0, #1
 143 0090 FFF7FEFF 		bl	e_poxxxx_config_cam
 144              	.LVL8:
 145              		.loc 1 115 0
 146 0094 FFF7FEFF 		bl	e_poxxxx_write_cam_registers
 147              	.LVL9:
 148              		.loc 1 119 0
 149 0098 FFF7FEFF 		bl	e_acc_calibr
 150              	.LVL10:
 151              		.loc 1 120 0
 152 009c 5821     		movs	r1, #88
 153 009e 9048     		ldr	r0, .L686+32
 154 00a0 FFF7FEFF 		bl	e_send_uart1_char
 155              	.LVL11:
 156              	.L3:
 157              		.loc 1 120 0 is_stmt 0 discriminator 2
 158 00a4 FFF7FEFF 		bl	e_uart1_sending
 159              	.LVL12:
 160 00a8 0028     		cmp	r0, #0
 161 00aa FBD1     		bne	.L3
 162              		.loc 1 84 0 is_stmt 1
 163 00ac 0123     		movs	r3, #1
 164 00ae 0993     		str	r3, [sp, #36]
 165              	.LVL13:
 166              	.L6:
 167 00b0 DFF83882 		ldr	r8, .L686+44
 168 00b4 8B4F     		ldr	r7, .L686+36
 169 00b6 DFF84892 		ldr	r9, .L686+64
 170 00ba DFF848A2 		ldr	r10, .L686+68
 171 00be 4FF0000B 		mov	fp, #0
ARM GAS  C:\Users\mathi\AppData\Local\Temp\cc0ZaFXf.s 			page 4


 172              	.LVL14:
 173              	.L4:
 174              		.loc 1 133 0
 175 00c2 099B     		ldr	r3, [sp, #36]
 176 00c4 002B     		cmp	r3, #0
 177 00c6 00F0A980 		beq	.L626
 178              	.L668:
 179              		.loc 1 134 0
 180 00ca 864D     		ldr	r5, .L686+36
 181              	.LVL15:
 182              	.L8:
 183 00cc 2846     		mov	r0, r5
 184 00ce FFF7FEFF 		bl	e_getchar_uart1
 185              	.LVL16:
 186 00d2 0446     		mov	r4, r0
 187 00d4 0028     		cmp	r0, #0
 188 00d6 44D1     		bne	.L26
 189              		.loc 1 137 0
 190 00d8 FFF7FEFF 		bl	e_get_data
 191              	.LVL17:
 192 00dc 0646     		mov	r6, r0
 193              	.LVL18:
 194              		.loc 1 138 0
 195 00de FFF7FEFF 		bl	e_get_address
 196              	.LVL19:
 197              		.loc 1 139 0
 198 00e2 10F0F70F 		tst	r0, #247
 199 00e6 F1D1     		bne	.L8
 200              		.loc 1 139 0 is_stmt 0 discriminator 3
 201 00e8 B345     		cmp	fp, r6
 202 00ea EFD0     		beq	.L8
 203              		.loc 1 140 0 is_stmt 1
 204 00ec 092E     		cmp	r6, #9
 205 00ee 01F28983 		bhi	.L11
 206 00f2 DFE816F0 		tbh	[pc, r6, lsl #1]
 207              	.L13:
 208 00f6 3C01     		.2byte	(.L12-.L13)/2
 209 00f8 3301     		.2byte	(.L14-.L13)/2
 210 00fa 2C01     		.2byte	(.L15-.L13)/2
 211 00fc 2301     		.2byte	(.L16-.L13)/2
 212 00fe 2001     		.2byte	(.L17-.L13)/2
 213 0100 1A01     		.2byte	(.L18-.L13)/2
 214 0102 1701     		.2byte	(.L19-.L13)/2
 215 0104 1001     		.2byte	(.L20-.L13)/2
 216 0106 0901     		.2byte	(.L21-.L13)/2
 217 0108 D500     		.2byte	(.L22-.L13)/2
 218              	.LVL20:
 219              		.p2align 1
 220              	.L2:
 221              		.loc 1 94 0
 222 010a FFF7FEFF 		bl	e_init_remote_control
 223              	.LVL21:
 224              		.loc 1 105 0
 225 010e 6E4C     		ldr	r4, .L686+8
 226              		.loc 1 102 0
 227 0110 724A     		ldr	r2, .L686+28
 228              		.loc 1 107 0
ARM GAS  C:\Users\mathi\AppData\Local\Temp\cc0ZaFXf.s 			page 5


 229 0112 6E4D     		ldr	r5, .L686+12
 230              		.loc 1 108 0
 231 0114 6E4E     		ldr	r6, .L686+16
 232              		.loc 1 109 0
 233 0116 704F     		ldr	r7, .L686+24
 234              		.loc 1 105 0
 235 0118 1494     		str	r4, [sp, #80]
 236              		.loc 1 102 0
 237 011a 0123     		movs	r3, #1
 238 011c 4FF6FE71 		movw	r1, #65534
 239 0120 7F20     		movs	r0, #127
 240              		.loc 1 107 0
 241 0122 1195     		str	r5, [sp, #68]
 242              		.loc 1 108 0
 243 0124 1296     		str	r6, [sp, #72]
 244              		.loc 1 109 0
 245 0126 1597     		str	r7, [sp, #84]
 246              		.loc 1 102 0
 247 0128 FFF7FEFF 		bl	ReadEE
 248              	.LVL22:
 249              		.loc 1 107 0
 250 012c 2823     		movs	r3, #40
 251              		.loc 1 110 0
 252 012e 6949     		ldr	r1, .L686+20
 253              		.loc 1 107 0
 254 0130 2B60     		str	r3, [r5]
 255              		.loc 1 105 0
 256 0132 0122     		movs	r2, #1
 257 0134 2260     		str	r2, [r4]
 258              		.loc 1 108 0
 259 0136 3360     		str	r3, [r6]
 260              		.loc 1 109 0
 261 0138 0822     		movs	r2, #8
 262              		.loc 1 110 0
 263 013a 4FF44863 		mov	r3, #3200
 264 013e 1391     		str	r1, [sp, #76]
 265              		.loc 1 109 0
 266 0140 3A60     		str	r2, [r7]
 267              		.loc 1 110 0
 268 0142 0B60     		str	r3, [r1]
 269              		.loc 1 124 0
 270 0144 FFF7FEFF 		bl	isEpuckVersion1_3
 271              	.LVL23:
 272 0148 08B9     		cbnz	r0, .L356
 273              		.loc 1 125 0
 274 014a FFF7FEFF 		bl	e_acc_calibr
 275              	.LVL24:
 276              	.L356:
 277              		.loc 1 127 0
 278 014e 5821     		movs	r1, #88
 279 0150 6348     		ldr	r0, .L686+32
 280 0152 FFF7FEFF 		bl	e_send_uart2_char
 281              	.LVL25:
 282              	.L5:
 283              		.loc 1 127 0 is_stmt 0 discriminator 2
 284 0156 FFF7FEFF 		bl	e_uart2_sending
 285              	.LVL26:
ARM GAS  C:\Users\mathi\AppData\Local\Temp\cc0ZaFXf.s 			page 6


 286 015a 0990     		str	r0, [sp, #36]
 287 015c 0028     		cmp	r0, #0
 288 015e FAD1     		bne	.L5
 289 0160 A6E7     		b	.L6
 290              	.LVL27:
 291              	.L26:
 292              		.loc 1 259 0 is_stmt 1
 293 0162 3B78     		ldrb	r3, [r7]	@ zero_extendqisi2
 294 0164 1A06     		lsls	r2, r3, #24
 295 0166 00F16181 		bmi	.L664
 296              		.loc 1 598 0
 297 016a 002B     		cmp	r3, #0
 298 016c A9D0     		beq	.L4
 299              		.loc 1 599 0
 300 016e 099A     		ldr	r2, [sp, #36]
 301              		.loc 1 600 0
 302 0170 5C4C     		ldr	r4, .L686+36
 303              		.loc 1 599 0
 304 0172 002A     		cmp	r2, #0
 305 0174 76D0     		beq	.L147
 306 0176 03E0     		b	.L146
 307              	.L148:
 308              		.loc 1 600 0 discriminator 4
 309 0178 2046     		mov	r0, r4
 310 017a FFF7FEFF 		bl	e_getchar_uart1
 311              	.LVL28:
 312 017e 3B78     		ldrb	r3, [r7]	@ zero_extendqisi2
 313              	.L146:
 314              		.loc 1 600 0 is_stmt 0 discriminator 1
 315 0180 0A2B     		cmp	r3, #10
 316 0182 F9D0     		beq	.L148
 317              		.loc 1 600 0 discriminator 3
 318 0184 0D2B     		cmp	r3, #13
 319 0186 F7D0     		beq	.L148
 320              		.loc 1 605 0 is_stmt 1
 321 0188 0122     		movs	r2, #1
 322              		.loc 1 604 0
 323 018a 88F80030 		strb	r3, [r8]
 324              		.loc 1 605 0
 325 018e C9F80020 		str	r2, [r9]
 326              		.loc 1 607 0
 327 0192 544C     		ldr	r4, .L686+36
 328 0194 04E0     		b	.L157
 329              	.L665:
 330 0196 3B78     		ldrb	r3, [r7]	@ zero_extendqisi2
 331              		.loc 1 608 0
 332 0198 0A2B     		cmp	r3, #10
 333 019a 11D0     		beq	.L158
 334              	.L154:
 335              		.loc 1 608 0 is_stmt 0 discriminator 1
 336 019c 0D2B     		cmp	r3, #13
 337 019e 0FD0     		beq	.L158
 338              	.L157:
 339              		.loc 1 607 0 is_stmt 1
 340 01a0 2046     		mov	r0, r4
 341 01a2 FFF7FEFF 		bl	e_getchar_uart1
 342              	.LVL29:
ARM GAS  C:\Users\mathi\AppData\Local\Temp\cc0ZaFXf.s 			page 7


 343 01a6 0028     		cmp	r0, #0
 344 01a8 F5D0     		beq	.L665
 345              		.loc 1 607 0 is_stmt 0 discriminator 1
 346 01aa D9F80020 		ldr	r2, [r9]
 347 01ae 3B78     		ldrb	r3, [r7]	@ zero_extendqisi2
 348 01b0 08F80230 		strb	r3, [r8, r2]
 349              		.loc 1 608 0 is_stmt 1 discriminator 1
 350 01b4 0A2B     		cmp	r3, #10
 351              		.loc 1 607 0 discriminator 1
 352 01b6 02F10102 		add	r2, r2, #1
 353 01ba C9F80020 		str	r2, [r9]
 354              		.loc 1 608 0 discriminator 1
 355 01be EDD1     		bne	.L154
 356              	.L158:
 357              		.loc 1 613 0
 358 01c0 D9F80030 		ldr	r3, [r9]
 359 01c4 0022     		movs	r2, #0
 360 01c6 08F80320 		strb	r2, [r8, r3]
 361              		.loc 1 615 0
 362 01ca 98F80040 		ldrb	r4, [r8]	@ zero_extendqisi2
 363              		.loc 1 613 0
 364 01ce 0133     		adds	r3, r3, #1
 365              		.loc 1 615 0
 366 01d0 622C     		cmp	r4, #98
 367              		.loc 1 613 0
 368 01d2 C9F80030 		str	r3, [r9]
 369              		.loc 1 615 0
 370 01d6 01F03584 		beq	.L156
 371              		.loc 1 615 0 is_stmt 0 discriminator 1
 372 01da 672C     		cmp	r4, #103
 373 01dc 40F0F284 		bne	.L666
 374              	.L162:
 375              	.LBB2:
 376              		.loc 1 701 0 is_stmt 1
 377 01e0 099B     		ldr	r3, [sp, #36]
 378 01e2 002B     		cmp	r3, #0
 379 01e4 01F05584 		beq	.L217
 380              		.loc 1 701 0 is_stmt 0 discriminator 1
 381 01e8 FFF7FEFF 		bl	isEpuckVersion1_3
 382              	.LVL30:
 383 01ec 0028     		cmp	r0, #0
 384 01ee 41F0BA86 		bne	.L667
 385              		.loc 1 704 0 is_stmt 1
 386 01f2 3D4B     		ldr	r3, .L686+40
 387 01f4 93E80700 		ldm	r3, {r0, r1, r2}
 388 01f8 3C4B     		ldr	r3, .L686+44
 389 01fa 03C3     		stmia	r3!, {r0, r1}
 390 01fc 1A80     		strh	r2, [r3]	@ movhi
 391              	.L357:
 392              		.loc 1 707 0
 393 01fe 3B48     		ldr	r0, .L686+44
 394 0200 FFF7FEFF 		bl	strlen
 395              	.LVL31:
 396 0204 0146     		mov	r1, r0
 397 0206 3948     		ldr	r0, .L686+44
 398 0208 FFF7FEFF 		bl	e_send_uart1_char
 399              	.LVL32:
ARM GAS  C:\Users\mathi\AppData\Local\Temp\cc0ZaFXf.s 			page 8


 400              	.L219:
 401              		.loc 1 707 0 is_stmt 0 discriminator 2
 402 020c FFF7FEFF 		bl	e_uart1_sending
 403              	.LVL33:
 404 0210 0028     		cmp	r0, #0
 405 0212 FBD1     		bne	.L219
 406              	.LBE2:
 407              		.loc 1 133 0 is_stmt 1
 408 0214 099B     		ldr	r3, [sp, #36]
 409 0216 002B     		cmp	r3, #0
 410 0218 7FF457AF 		bne	.L668
 411              	.LVL34:
 412              	.L626:
 413              		.loc 1 196 0
 414 021c 314D     		ldr	r5, .L686+36
 415              	.L9:
 416              	.LVL35:
 417 021e 2846     		mov	r0, r5
 418 0220 FFF7FEFF 		bl	e_getchar_uart2
 419              	.LVL36:
 420 0224 0446     		mov	r4, r0
 421 0226 0028     		cmp	r0, #0
 422 0228 9BD1     		bne	.L26
 423              		.loc 1 199 0
 424 022a FFF7FEFF 		bl	e_get_data
 425              	.LVL37:
 426 022e 0646     		mov	r6, r0
 427              	.LVL38:
 428              		.loc 1 200 0
 429 0230 FFF7FEFF 		bl	e_get_address
 430              	.LVL39:
 431              		.loc 1 201 0
 432 0234 10F0F70F 		tst	r0, #247
 433 0238 F1D1     		bne	.L9
 434              		.loc 1 201 0 is_stmt 0 discriminator 3
 435 023a B345     		cmp	fp, r6
 436 023c EFD0     		beq	.L9
 437              		.loc 1 202 0 is_stmt 1
 438 023e 092E     		cmp	r6, #9
 439 0240 01F2D982 		bhi	.L28
 440 0244 DFE816F0 		tbh	[pc, r6, lsl #1]
 441              	.L30:
 442 0248 E400     		.2byte	(.L29-.L30)/2
 443 024a DB00     		.2byte	(.L31-.L30)/2
 444 024c D400     		.2byte	(.L32-.L30)/2
 445 024e CB00     		.2byte	(.L33-.L30)/2
 446 0250 C800     		.2byte	(.L34-.L30)/2
 447 0252 C200     		.2byte	(.L35-.L30)/2
 448 0254 BF00     		.2byte	(.L36-.L30)/2
 449 0256 B800     		.2byte	(.L37-.L30)/2
 450 0258 B100     		.2byte	(.L38-.L30)/2
 451 025a A100     		.2byte	(.L39-.L30)/2
 452              	.LVL40:
 453              		.p2align 1
 454              	.L150:
 455              		.loc 1 602 0 discriminator 4
 456 025c 2046     		mov	r0, r4
ARM GAS  C:\Users\mathi\AppData\Local\Temp\cc0ZaFXf.s 			page 9


 457 025e FFF7FEFF 		bl	e_getchar_uart2
 458              	.LVL41:
 459 0262 3B78     		ldrb	r3, [r7]	@ zero_extendqisi2
 460              	.L147:
 461              		.loc 1 602 0 is_stmt 0 discriminator 1
 462 0264 0A2B     		cmp	r3, #10
 463 0266 F9D0     		beq	.L150
 464              		.loc 1 602 0 discriminator 3
 465 0268 0D2B     		cmp	r3, #13
 466 026a F7D0     		beq	.L150
 467              		.loc 1 605 0 is_stmt 1
 468 026c 0122     		movs	r2, #1
 469              		.loc 1 604 0
 470 026e 88F80030 		strb	r3, [r8]
 471              		.loc 1 605 0
 472 0272 C9F80020 		str	r2, [r9]
 473              		.loc 1 610 0
 474 0276 1B4C     		ldr	r4, .L686+36
 475 0278 04E0     		b	.L161
 476              	.L669:
 477 027a 3B78     		ldrb	r3, [r7]	@ zero_extendqisi2
 478              	.L160:
 479              		.loc 1 611 0
 480 027c 0A2B     		cmp	r3, #10
 481 027e 9FD0     		beq	.L158
 482              		.loc 1 611 0 is_stmt 0 discriminator 1
 483 0280 0D2B     		cmp	r3, #13
 484 0282 9DD0     		beq	.L158
 485              	.L161:
 486              		.loc 1 610 0 is_stmt 1
 487 0284 2046     		mov	r0, r4
 488 0286 FFF7FEFF 		bl	e_getchar_uart2
 489              	.LVL42:
 490 028a 0028     		cmp	r0, #0
 491 028c F5D0     		beq	.L669
 492              		.loc 1 610 0 is_stmt 0 discriminator 1
 493 028e D9F80020 		ldr	r2, [r9]
 494 0292 3B78     		ldrb	r3, [r7]	@ zero_extendqisi2
 495 0294 08F80230 		strb	r3, [r8, r2]
 496 0298 0132     		adds	r2, r2, #1
 497 029a C9F80020 		str	r2, [r9]
 498 029e EDE7     		b	.L160
 499              	.LVL43:
 500              	.L22:
 501              		.loc 1 174 0 is_stmt 1
 502 02a0 134B     		ldr	r3, .L686+48
 503              	.L650:
 504              		.loc 1 175 0
 505 02a2 144A     		ldr	r2, .L686+52
 506 02a4 1449     		ldr	r1, .L686+56
 507 02a6 1160     		str	r1, [r2]
 508              		.loc 1 174 0
 509 02a8 144A     		ldr	r2, .L686+60
 510              		.loc 1 176 0
 511 02aa 0C46     		mov	r4, r1
 512              		.loc 1 174 0
 513 02ac 1360     		str	r3, [r2]
ARM GAS  C:\Users\mathi\AppData\Local\Temp\cc0ZaFXf.s 			page 10


 514              	.LVL44:
 515              	.L23:
 516              		.loc 1 188 0
 517 02ae 2046     		mov	r0, r4
 518 02b0 FFF7FEFF 		bl	e_set_speed_left
 519              	.LVL45:
 520              		.loc 1 189 0
 521 02b4 114B     		ldr	r3, .L686+60
 522 02b6 1868     		ldr	r0, [r3]
 523 02b8 FFF7FEFF 		bl	e_set_speed_right
 524              	.LVL46:
 525 02bc B346     		mov	fp, r6
 526 02be 05E7     		b	.L8
 527              	.L687:
 528              		.align	2
 529              	.L686:
 530 02c0 00000000 		.word	__stack_chk_guard
 531 02c4 00000000 		.word	.LANCHOR0
 532 02c8 00000000 		.word	.LANCHOR2
 533 02cc 00000000 		.word	.LANCHOR3
 534 02d0 00000000 		.word	.LANCHOR4
 535 02d4 00000000 		.word	.LANCHOR6
 536 02d8 00000000 		.word	.LANCHOR5
 537 02dc 00000000 		.word	.LANCHOR1
 538 02e0 00000000 		.word	.LC0
 539 02e4 00000000 		.word	.LANCHOR10
 540 02e8 6C0A0000 		.word	.LC92
 541 02ec 00000000 		.word	buffer
 542 02f0 D4FEFFFF 		.word	-300
 543 02f4 00000000 		.word	.LANCHOR8
 544 02f8 A8FDFFFF 		.word	-600
 545 02fc 00000000 		.word	.LANCHOR7
 546 0300 00000000 		.word	.LANCHOR11
 547 0304 00000000 		.word	.LANCHOR22
 548              	.LVL47:
 549              	.L21:
 550              		.loc 1 170 0
 551 0308 A04A     		ldr	r2, .L688
 552 030a A14B     		ldr	r3, .L688+4
 553 030c 1360     		str	r3, [r2]
 554              		.loc 1 171 0
 555 030e A14A     		ldr	r2, .L688+8
 556              		.loc 1 172 0
 557 0310 1C46     		mov	r4, r3
 558              		.loc 1 171 0
 559 0312 1360     		str	r3, [r2]
 560              		.loc 1 172 0
 561 0314 CBE7     		b	.L23
 562              	.L20:
 563              		.loc 1 167 0
 564 0316 A04C     		ldr	r4, .L688+12
 565              	.L651:
 566              		.loc 1 166 0
 567 0318 9C4B     		ldr	r3, .L688
 568 031a 9D4A     		ldr	r2, .L688+4
 569 031c 1A60     		str	r2, [r3]
 570              		.loc 1 167 0
ARM GAS  C:\Users\mathi\AppData\Local\Temp\cc0ZaFXf.s 			page 11


 571 031e 9D4B     		ldr	r3, .L688+8
 572 0320 1C60     		str	r4, [r3]
 573              		.loc 1 168 0
 574 0322 C4E7     		b	.L23
 575              	.L19:
 576              		.loc 1 163 0
 577 0324 4FF41674 		mov	r4, #600
 578 0328 F6E7     		b	.L651
 579              	.L18:
 580              		.loc 1 158 0
 581 032a 984A     		ldr	r2, .L688
 582 032c 0023     		movs	r3, #0
 583 032e 1360     		str	r3, [r2]
 584              		.loc 1 159 0
 585 0330 984A     		ldr	r2, .L688+8
 586 0332 1360     		str	r3, [r2]
 587              		.loc 1 160 0
 588 0334 BBE7     		b	.L23
 589              	.L17:
 590              		.loc 1 154 0
 591 0336 4FF41673 		mov	r3, #600
 592 033a B2E7     		b	.L650
 593              	.L16:
 594              		.loc 1 150 0
 595 033c 934A     		ldr	r2, .L688
 596 033e 4FF49673 		mov	r3, #300
 597 0342 1360     		str	r3, [r2]
 598              		.loc 1 151 0
 599 0344 934B     		ldr	r3, .L688+8
 600 0346 4FF41674 		mov	r4, #600
 601 034a 1C60     		str	r4, [r3]
 602              		.loc 1 152 0
 603 034c AFE7     		b	.L23
 604              	.L15:
 605              		.loc 1 146 0
 606 034e 8F4B     		ldr	r3, .L688
 607 0350 4FF41674 		mov	r4, #600
 608 0354 1C60     		str	r4, [r3]
 609              		.loc 1 147 0
 610 0356 8F4B     		ldr	r3, .L688+8
 611 0358 1C60     		str	r4, [r3]
 612              		.loc 1 148 0
 613 035a A8E7     		b	.L23
 614              	.L14:
 615              		.loc 1 142 0
 616 035c 8B4A     		ldr	r2, .L688
 617 035e 4FF41673 		mov	r3, #600
 618 0362 1360     		str	r3, [r2]
 619              		.loc 1 143 0
 620 0364 8B4B     		ldr	r3, .L688+8
 621 0366 4FF49674 		mov	r4, #300
 622 036a 1C60     		str	r4, [r3]
 623              		.loc 1 144 0
 624 036c 9FE7     		b	.L23
 625              	.L12:
 626              		.loc 1 178 0
 627 036e 8B4B     		ldr	r3, .L688+16
ARM GAS  C:\Users\mathi\AppData\Local\Temp\cc0ZaFXf.s 			page 12


 628 0370 1B78     		ldrb	r3, [r3]	@ zero_extendqisi2
 629 0372 002B     		cmp	r3, #0
 630 0374 01F0D082 		beq	.L670
 631              	.LVL48:
 632              	.L24:
 633              		.loc 1 182 0
 634 0378 41F65071 		movw	r1, #8016
 635 037c 42F61430 		movw	r0, #11028
 636 0380 FFF7FEFF 		bl	e_play_sound
 637              	.LVL49:
 638 0384 834B     		ldr	r3, .L688+8
 639 0386 1C68     		ldr	r4, [r3]
 640              		.loc 1 183 0
 641 0388 91E7     		b	.L23
 642              	.LVL50:
 643              	.L39:
 644              		.loc 1 236 0
 645 038a 834B     		ldr	r3, .L688+12
 646              	.L652:
 647              		.loc 1 237 0
 648 038c 814A     		ldr	r2, .L688+8
 649 038e 8049     		ldr	r1, .L688+4
 650 0390 1160     		str	r1, [r2]
 651              		.loc 1 236 0
 652 0392 7E4A     		ldr	r2, .L688
 653              		.loc 1 238 0
 654 0394 0C46     		mov	r4, r1
 655              		.loc 1 236 0
 656 0396 1360     		str	r3, [r2]
 657              	.LVL51:
 658              	.L40:
 659              		.loc 1 250 0
 660 0398 2046     		mov	r0, r4
 661 039a FFF7FEFF 		bl	e_set_speed_left
 662              	.LVL52:
 663              		.loc 1 251 0
 664 039e 7B4B     		ldr	r3, .L688
 665 03a0 1868     		ldr	r0, [r3]
 666 03a2 FFF7FEFF 		bl	e_set_speed_right
 667              	.LVL53:
 668 03a6 B346     		mov	fp, r6
 669 03a8 39E7     		b	.L9
 670              	.LVL54:
 671              	.L38:
 672              		.loc 1 232 0
 673 03aa 784A     		ldr	r2, .L688
 674 03ac 784B     		ldr	r3, .L688+4
 675 03ae 1360     		str	r3, [r2]
 676              		.loc 1 233 0
 677 03b0 784A     		ldr	r2, .L688+8
 678              		.loc 1 234 0
 679 03b2 1C46     		mov	r4, r3
 680              		.loc 1 233 0
 681 03b4 1360     		str	r3, [r2]
 682              		.loc 1 234 0
 683 03b6 EFE7     		b	.L40
 684              	.L37:
ARM GAS  C:\Users\mathi\AppData\Local\Temp\cc0ZaFXf.s 			page 13


 685              		.loc 1 229 0
 686 03b8 774C     		ldr	r4, .L688+12
 687              	.L653:
 688              		.loc 1 228 0
 689 03ba 744B     		ldr	r3, .L688
 690 03bc 744A     		ldr	r2, .L688+4
 691 03be 1A60     		str	r2, [r3]
 692              		.loc 1 229 0
 693 03c0 744B     		ldr	r3, .L688+8
 694 03c2 1C60     		str	r4, [r3]
 695              		.loc 1 230 0
 696 03c4 E8E7     		b	.L40
 697              	.L36:
 698              		.loc 1 225 0
 699 03c6 4FF41674 		mov	r4, #600
 700 03ca F6E7     		b	.L653
 701              	.L35:
 702              		.loc 1 220 0
 703 03cc 6F4A     		ldr	r2, .L688
 704 03ce 0023     		movs	r3, #0
 705 03d0 1360     		str	r3, [r2]
 706              		.loc 1 221 0
 707 03d2 704A     		ldr	r2, .L688+8
 708 03d4 1360     		str	r3, [r2]
 709              		.loc 1 222 0
 710 03d6 DFE7     		b	.L40
 711              	.L34:
 712              		.loc 1 216 0
 713 03d8 4FF41673 		mov	r3, #600
 714 03dc D6E7     		b	.L652
 715              	.L33:
 716              		.loc 1 212 0
 717 03de 6B4A     		ldr	r2, .L688
 718 03e0 4FF49673 		mov	r3, #300
 719 03e4 1360     		str	r3, [r2]
 720              		.loc 1 213 0
 721 03e6 6B4B     		ldr	r3, .L688+8
 722 03e8 4FF41674 		mov	r4, #600
 723 03ec 1C60     		str	r4, [r3]
 724              		.loc 1 214 0
 725 03ee D3E7     		b	.L40
 726              	.L32:
 727              		.loc 1 208 0
 728 03f0 664B     		ldr	r3, .L688
 729 03f2 4FF41674 		mov	r4, #600
 730 03f6 1C60     		str	r4, [r3]
 731              		.loc 1 209 0
 732 03f8 664B     		ldr	r3, .L688+8
 733 03fa 1C60     		str	r4, [r3]
 734              		.loc 1 210 0
 735 03fc CCE7     		b	.L40
 736              	.L31:
 737              		.loc 1 204 0
 738 03fe 634A     		ldr	r2, .L688
 739 0400 4FF41673 		mov	r3, #600
 740 0404 1360     		str	r3, [r2]
 741              		.loc 1 205 0
ARM GAS  C:\Users\mathi\AppData\Local\Temp\cc0ZaFXf.s 			page 14


 742 0406 634B     		ldr	r3, .L688+8
 743 0408 4FF49674 		mov	r4, #300
 744 040c 1C60     		str	r4, [r3]
 745              		.loc 1 206 0
 746 040e C3E7     		b	.L40
 747              	.L29:
 748              		.loc 1 240 0
 749 0410 624B     		ldr	r3, .L688+16
 750 0412 1B78     		ldrb	r3, [r3]	@ zero_extendqisi2
 751 0414 002B     		cmp	r3, #0
 752 0416 01F07882 		beq	.L671
 753              	.LVL55:
 754              	.L41:
 755              		.loc 1 244 0
 756 041a 41F65071 		movw	r1, #8016
 757 041e 42F61430 		movw	r0, #11028
 758 0422 FFF7FEFF 		bl	e_play_sound
 759              	.LVL56:
 760 0426 5B4B     		ldr	r3, .L688+8
 761 0428 1C68     		ldr	r4, [r3]
 762              		.loc 1 245 0
 763 042a B5E7     		b	.L40
 764              	.LVL57:
 765              	.L664:
 766              		.loc 1 260 0
 767 042c 0022     		movs	r2, #0
 768 042e CDF828B0 		str	fp, [sp, #40]
 769              		.loc 1 577 0
 770 0432 5B4E     		ldr	r6, .L688+20
 771              		.loc 1 295 0
 772 0434 9FED5B8A 		vldr.32	s16, .L688+24
 773              		.loc 1 260 0
 774 0438 DDF824B0 		ldr	fp, [sp, #36]
 775              	.LVL58:
 776 043c C9F80020 		str	r2, [r9]
 777              	.L139:
 778              		.loc 1 262 0
 779 0440 5B42     		negs	r3, r3
 780 0442 DBB2     		uxtb	r3, r3
 781 0444 413B     		subs	r3, r3, #65
 782 0446 362B     		cmp	r3, #54
 783 0448 6ED8     		bhi	.L44
 784 044a DFE813F0 		tbh	[pc, r3, lsl #1]
 785              	.L46:
 786 044e 7902     		.2byte	(.L45-.L46)/2
 787 0450 6D00     		.2byte	(.L44-.L46)/2
 788 0452 6D00     		.2byte	(.L44-.L46)/2
 789 0454 2502     		.2byte	(.L47-.L46)/2
 790 0456 DE01     		.2byte	(.L48-.L46)/2
 791 0458 6D00     		.2byte	(.L44-.L46)/2
 792 045a 6D00     		.2byte	(.L44-.L46)/2
 793 045c 6D00     		.2byte	(.L44-.L46)/2
 794 045e F501     		.2byte	(.L49-.L46)/2
 795 0460 6D00     		.2byte	(.L44-.L46)/2
 796 0462 6D00     		.2byte	(.L44-.L46)/2
 797 0464 5E01     		.2byte	(.L50-.L46)/2
 798 0466 9301     		.2byte	(.L51-.L46)/2
ARM GAS  C:\Users\mathi\AppData\Local\Temp\cc0ZaFXf.s 			page 15


 799 0468 4201     		.2byte	(.L52-.L46)/2
 800 046a 2601     		.2byte	(.L53-.L46)/2
 801 046c D200     		.2byte	(.L54-.L46)/2
 802 046e B700     		.2byte	(.L55-.L46)/2
 803 0470 6D00     		.2byte	(.L44-.L46)/2
 804 0472 6D00     		.2byte	(.L44-.L46)/2
 805 0474 6D00     		.2byte	(.L44-.L46)/2
 806 0476 6D00     		.2byte	(.L44-.L46)/2
 807 0478 6D00     		.2byte	(.L44-.L46)/2
 808 047a F602     		.2byte	(.L56-.L46)/2
 809 047c 6D00     		.2byte	(.L44-.L46)/2
 810 047e 6D00     		.2byte	(.L44-.L46)/2
 811 0480 6D00     		.2byte	(.L44-.L46)/2
 812 0482 6D00     		.2byte	(.L44-.L46)/2
 813 0484 6D00     		.2byte	(.L44-.L46)/2
 814 0486 6D00     		.2byte	(.L44-.L46)/2
 815 0488 6D00     		.2byte	(.L44-.L46)/2
 816 048a 6D00     		.2byte	(.L44-.L46)/2
 817 048c 6D00     		.2byte	(.L44-.L46)/2
 818 048e 3700     		.2byte	(.L57-.L46)/2
 819 0490 2503     		.2byte	(.L58-.L46)/2
 820 0492 6D00     		.2byte	(.L44-.L46)/2
 821 0494 6D00     		.2byte	(.L44-.L46)/2
 822 0496 6D00     		.2byte	(.L44-.L46)/2
 823 0498 6D00     		.2byte	(.L44-.L46)/2
 824 049a C502     		.2byte	(.L59-.L46)/2
 825 049c 6D00     		.2byte	(.L44-.L46)/2
 826 049e 6D00     		.2byte	(.L44-.L46)/2
 827 04a0 6D00     		.2byte	(.L44-.L46)/2
 828 04a2 6D00     		.2byte	(.L44-.L46)/2
 829 04a4 6D00     		.2byte	(.L44-.L46)/2
 830 04a6 6D00     		.2byte	(.L44-.L46)/2
 831 04a8 6D00     		.2byte	(.L44-.L46)/2
 832 04aa 6D00     		.2byte	(.L44-.L46)/2
 833 04ac 6D00     		.2byte	(.L44-.L46)/2
 834 04ae 6D00     		.2byte	(.L44-.L46)/2
 835 04b0 6D00     		.2byte	(.L44-.L46)/2
 836 04b2 6D00     		.2byte	(.L44-.L46)/2
 837 04b4 1803     		.2byte	(.L60-.L46)/2
 838 04b6 D602     		.2byte	(.L61-.L46)/2
 839 04b8 6D00     		.2byte	(.L44-.L46)/2
 840 04ba 9000     		.2byte	(.L62-.L46)/2
 841              		.p2align 1
 842              	.L57:
 843              		.loc 1 264 0
 844 04bc BBF1000F 		cmp	fp, #0
 845 04c0 01F0CF81 		beq	.L63
 846              		.loc 1 265 0
 847 04c4 0121     		movs	r1, #1
 848 04c6 0020     		movs	r0, #0
 849              	.L654:
 850              		.loc 1 277 0
 851 04c8 FFF7FEFF 		bl	e_get_acc_filtered
 852              	.LVL59:
 853 04cc 364C     		ldr	r4, .L688+28
 854              		.loc 1 278 0
 855 04ce 374D     		ldr	r5, .L688+32
ARM GAS  C:\Users\mathi\AppData\Local\Temp\cc0ZaFXf.s 			page 16


 856              		.loc 1 277 0
 857 04d0 2060     		str	r0, [r4]
 858              		.loc 1 278 0
 859 04d2 0121     		movs	r1, #1
 860 04d4 0846     		mov	r0, r1
 861 04d6 FFF7FEFF 		bl	e_get_acc_filtered
 862              	.LVL60:
 863              		.loc 1 279 0
 864 04da 0121     		movs	r1, #1
 865              		.loc 1 278 0
 866 04dc 2860     		str	r0, [r5]
 867              		.loc 1 279 0
 868 04de 0220     		movs	r0, #2
 869 04e0 FFF7FEFF 		bl	e_get_acc_filtered
 870              	.LVL61:
 871 04e4 2B68     		ldr	r3, [r5]
 872 04e6 2468     		ldr	r4, [r4]
 873 04e8 314A     		ldr	r2, .L688+36
 874 04ea C5B2     		uxtb	r5, r0
 875 04ec 1060     		str	r0, [r2]
 876 04ee E1B2     		uxtb	r1, r4
 877 04f0 C0F30722 		ubfx	r2, r0, #8, #8
 878 04f4 C4F30724 		ubfx	r4, r4, #8, #8
 879 04f8 5FFA83FC 		uxtb	ip, r3
 880 04fc C3F30720 		ubfx	r0, r3, #8, #8
 881              	.L64:
 882              		.loc 1 282 0
 883 0500 0023     		movs	r3, #0
 884 0502 61F30703 		bfi	r3, r1, #0, #8
 885 0506 D9F80010 		ldr	r1, [r9]
 886 050a 64F30F23 		bfi	r3, r4, #8, #8
 887 050e 6CF31743 		bfi	r3, ip, #16, #8
 888 0512 08EB0104 		add	r4, r8, r1
 889 0516 60F31F63 		bfi	r3, r0, #24, #8
 890              		.loc 1 287 0
 891 051a 881D     		adds	r0, r1, #6
 892              		.loc 1 282 0
 893 051c 48F80130 		str	r3, [r8, r1]	@ unaligned
 894              		.loc 1 287 0
 895 0520 C9F80000 		str	r0, [r9]
 896              		.loc 1 286 0
 897 0524 2571     		strb	r5, [r4, #4]
 898              		.loc 1 287 0
 899 0526 6271     		strb	r2, [r4, #5]
 900              	.L44:
 901              		.loc 1 574 0
 902 0528 BBF1000F 		cmp	fp, #0
 903 052c 23D0     		beq	.L138
 904              	.L135:
 905              		.loc 1 575 0 discriminator 1
 906 052e 3046     		mov	r0, r6
 907 0530 FFF7FEFF 		bl	e_getchar_uart1
 908              	.LVL62:
 909 0534 0028     		cmp	r0, #0
 910 0536 FAD0     		beq	.L135
 911              	.L136:
 912              		.loc 1 579 0
ARM GAS  C:\Users\mathi\AppData\Local\Temp\cc0ZaFXf.s 			page 17


 913 0538 3B78     		ldrb	r3, [r7]	@ zero_extendqisi2
 914 053a 002B     		cmp	r3, #0
 915 053c 80D1     		bne	.L139
 916              		.loc 1 580 0
 917 053e D9F80010 		ldr	r1, [r9]
 918 0542 DDF828B0 		ldr	fp, [sp, #40]
 919 0546 0029     		cmp	r1, #0
 920 0548 3FF4BBAD 		beq	.L4
 921              		.loc 1 581 0
 922 054c 099A     		ldr	r2, [sp, #36]
 923 054e 002A     		cmp	r2, #0
 924 0550 01F05F81 		beq	.L141
 925              		.loc 1 582 0
 926 0554 174A     		ldr	r2, .L688+40
 927 0556 1278     		ldrb	r2, [r2]	@ zero_extendqisi2
 928 0558 002A     		cmp	r2, #0
 929 055a 41F05882 		bne	.L672
 930              	.L142:
 931              		.loc 1 590 0
 932 055e 1648     		ldr	r0, .L688+44
 933 0560 FFF7FEFF 		bl	e_send_uart1_char
 934              	.LVL63:
 935              	.L144:
 936              		.loc 1 591 0 discriminator 1
 937 0564 FFF7FEFF 		bl	e_uart1_sending
 938              	.LVL64:
 939 0568 0028     		cmp	r0, #0
 940 056a FBD1     		bne	.L144
 941 056c A9E5     		b	.L4
 942              	.L62:
 943              		.loc 1 547 0
 944 056e BBF1000F 		cmp	fp, #0
 945 0572 40F0A182 		bne	.L673
 946              	.L138:
 947              		.loc 1 577 0 discriminator 1
 948 0576 3046     		mov	r0, r6
 949 0578 FFF7FEFF 		bl	e_getchar_uart2
 950              	.LVL65:
 951 057c 0028     		cmp	r0, #0
 952 057e DBD1     		bne	.L136
 953              	.L662:
 954              		.loc 1 577 0 is_stmt 0
 955 0580 3046     		mov	r0, r6
 956 0582 FFF7FEFF 		bl	e_getchar_uart2
 957              	.LVL66:
 958 0586 0028     		cmp	r0, #0
 959 0588 F5D0     		beq	.L138
 960 058a D5E7     		b	.L136
 961              	.L689:
 962              		.align	2
 963              	.L688:
 964 058c 00000000 		.word	.LANCHOR7
 965 0590 A8FDFFFF 		.word	-600
 966 0594 00000000 		.word	.LANCHOR8
 967 0598 D4FEFFFF 		.word	-300
 968 059c 00000000 		.word	.LANCHOR9
 969 05a0 00000000 		.word	.LANCHOR10
ARM GAS  C:\Users\mathi\AppData\Local\Temp\cc0ZaFXf.s 			page 18


 970 05a4 00000000 		.word	0
 971 05a8 00000000 		.word	.LANCHOR12
 972 05ac 00000000 		.word	.LANCHOR13
 973 05b0 00000000 		.word	.LANCHOR14
 974 05b4 00000000 		.word	.LANCHOR21
 975 05b8 00000000 		.word	buffer
 976              	.L55:
 977              		.loc 1 497 0 is_stmt 1
 978 05bc FFF7FEFF 		bl	e_get_steps_left
 979              	.LVL67:
 980              		.loc 1 498 0
 981 05c0 D9F80030 		ldr	r3, [r9]
 982              		.loc 1 499 0
 983 05c4 08EB0302 		add	r2, r8, r3
 984              		.loc 1 498 0
 985 05c8 08F80300 		strb	r0, [r8, r3]
 986              		.loc 1 499 0
 987 05cc 0112     		asrs	r1, r0, #8
 988 05ce 0233     		adds	r3, r3, #2
 989 05d0 5170     		strb	r1, [r2, #1]
 990 05d2 C9F80030 		str	r3, [r9]
 991              		.loc 1 500 0
 992 05d6 FFF7FEFF 		bl	e_get_steps_right
 993              	.LVL68:
 994              	.L657:
 995              		.loc 1 523 0
 996 05da D9F80030 		ldr	r3, [r9]
 997              		.loc 1 524 0
 998 05de 08EB0302 		add	r2, r8, r3
 999              		.loc 1 523 0
 1000 05e2 08F80300 		strb	r0, [r8, r3]
 1001              		.loc 1 524 0
 1002 05e6 0112     		asrs	r1, r0, #8
 1003 05e8 0233     		adds	r3, r3, #2
 1004 05ea 5170     		strb	r1, [r2, #1]
 1005 05ec C9F80030 		str	r3, [r9]
 1006              		.loc 1 525 0
 1007 05f0 9AE7     		b	.L44
 1008              	.L54:
 1009              		.loc 1 478 0
 1010 05f2 A24C     		ldr	r4, .L690
 1011              		.loc 1 477 0
 1012 05f4 BBF1000F 		cmp	fp, #0
 1013 05f8 2FD0     		beq	.L108
 1014              	.L109:
 1015              		.loc 1 478 0 discriminator 1
 1016 05fa 2046     		mov	r0, r4
 1017 05fc FFF7FEFF 		bl	e_getchar_uart1
 1018              	.LVL69:
 1019 0600 0028     		cmp	r0, #0
 1020 0602 FAD0     		beq	.L109
 1021              		.loc 1 479 0
 1022 0604 9E4C     		ldr	r4, .L690+4
 1023              	.L110:
 1024              		.loc 1 479 0 is_stmt 0 discriminator 1
 1025 0606 2046     		mov	r0, r4
 1026 0608 FFF7FEFF 		bl	e_getchar_uart1
ARM GAS  C:\Users\mathi\AppData\Local\Temp\cc0ZaFXf.s 			page 19


 1027              	.LVL70:
 1028 060c 0028     		cmp	r0, #0
 1029 060e FAD0     		beq	.L110
 1030              		.loc 1 484 0 is_stmt 1
 1031 0610 9B4B     		ldr	r3, .L690+4
 1032              		.loc 1 486 0
 1033 0612 9A4C     		ldr	r4, .L690
 1034              		.loc 1 484 0
 1035 0614 1A78     		ldrb	r2, [r3]	@ zero_extendqisi2
 1036 0616 994B     		ldr	r3, .L690
 1037 0618 1B78     		ldrb	r3, [r3]	@ zero_extendqisi2
 1038 061a 03EB0223 		add	r3, r3, r2, lsl #8
 1039 061e 994A     		ldr	r2, .L690+8
 1040 0620 1360     		str	r3, [r2]
 1041              	.L114:
 1042              		.loc 1 486 0 discriminator 1
 1043 0622 2046     		mov	r0, r4
 1044 0624 FFF7FEFF 		bl	e_getchar_uart1
 1045              	.LVL71:
 1046 0628 0028     		cmp	r0, #0
 1047 062a FAD0     		beq	.L114
 1048              		.loc 1 487 0
 1049 062c 944C     		ldr	r4, .L690+4
 1050              	.L115:
 1051              		.loc 1 487 0 is_stmt 0 discriminator 1
 1052 062e 2046     		mov	r0, r4
 1053 0630 FFF7FEFF 		bl	e_getchar_uart1
 1054              	.LVL72:
 1055 0634 0028     		cmp	r0, #0
 1056 0636 FAD0     		beq	.L115
 1057              	.L116:
 1058              		.loc 1 492 0 is_stmt 1
 1059 0638 914B     		ldr	r3, .L690+4
 1060              		.loc 1 493 0
 1061 063a 9249     		ldr	r1, .L690+8
 1062              		.loc 1 492 0
 1063 063c 1A78     		ldrb	r2, [r3]	@ zero_extendqisi2
 1064 063e 8F4B     		ldr	r3, .L690
 1065              		.loc 1 493 0
 1066 0640 0868     		ldr	r0, [r1]
 1067              		.loc 1 492 0
 1068 0642 1B78     		ldrb	r3, [r3]	@ zero_extendqisi2
 1069 0644 03EB0223 		add	r3, r3, r2, lsl #8
 1070 0648 8F4A     		ldr	r2, .L690+12
 1071 064a 1446     		mov	r4, r2
 1072 064c 1360     		str	r3, [r2]
 1073              		.loc 1 493 0
 1074 064e FFF7FEFF 		bl	e_set_steps_left
 1075              	.LVL73:
 1076              		.loc 1 494 0
 1077 0652 2068     		ldr	r0, [r4]
 1078 0654 FFF7FEFF 		bl	e_set_steps_right
 1079              	.LVL74:
 1080              		.loc 1 495 0
 1081 0658 66E7     		b	.L44
 1082              	.L108:
 1083              		.loc 1 481 0 discriminator 1
ARM GAS  C:\Users\mathi\AppData\Local\Temp\cc0ZaFXf.s 			page 20


 1084 065a 2046     		mov	r0, r4
 1085 065c FFF7FEFF 		bl	e_getchar_uart2
 1086              	.LVL75:
 1087 0660 0028     		cmp	r0, #0
 1088 0662 FAD0     		beq	.L108
 1089              		.loc 1 482 0
 1090 0664 864C     		ldr	r4, .L690+4
 1091              	.L112:
 1092              		.loc 1 482 0 is_stmt 0 discriminator 1
 1093 0666 2046     		mov	r0, r4
 1094 0668 FFF7FEFF 		bl	e_getchar_uart2
 1095              	.LVL76:
 1096 066c 0028     		cmp	r0, #0
 1097 066e FAD0     		beq	.L112
 1098              		.loc 1 484 0 is_stmt 1
 1099 0670 834B     		ldr	r3, .L690+4
 1100              		.loc 1 489 0
 1101 0672 824C     		ldr	r4, .L690
 1102              		.loc 1 484 0
 1103 0674 1A78     		ldrb	r2, [r3]	@ zero_extendqisi2
 1104 0676 814B     		ldr	r3, .L690
 1105 0678 1B78     		ldrb	r3, [r3]	@ zero_extendqisi2
 1106 067a 03EB0223 		add	r3, r3, r2, lsl #8
 1107 067e 814A     		ldr	r2, .L690+8
 1108 0680 1360     		str	r3, [r2]
 1109              	.L117:
 1110              		.loc 1 489 0 discriminator 1
 1111 0682 2046     		mov	r0, r4
 1112 0684 FFF7FEFF 		bl	e_getchar_uart2
 1113              	.LVL77:
 1114 0688 0028     		cmp	r0, #0
 1115 068a FAD0     		beq	.L117
 1116              		.loc 1 490 0
 1117 068c 7C4C     		ldr	r4, .L690+4
 1118              	.L118:
 1119              		.loc 1 490 0 is_stmt 0 discriminator 1
 1120 068e 2046     		mov	r0, r4
 1121 0690 FFF7FEFF 		bl	e_getchar_uart2
 1122              	.LVL78:
 1123 0694 0028     		cmp	r0, #0
 1124 0696 FAD0     		beq	.L118
 1125 0698 CEE7     		b	.L116
 1126              	.L53:
 1127              		.loc 1 460 0 is_stmt 1
 1128 069a BBF1000F 		cmp	fp, #0
 1129 069e 01F01581 		beq	.L104
 1130              		.loc 1 461 0
 1131 06a2 0020     		movs	r0, #0
 1132 06a4 CAF80000 		str	r0, [r10]
 1133              	.L105:
 1134              		.loc 1 463 0 discriminator 3
 1135 06a8 FFF7FEFF 		bl	e_get_ambient_light
 1136              	.LVL79:
 1137              		.loc 1 464 0 discriminator 3
 1138 06ac D9F80020 		ldr	r2, [r9]
 1139              		.loc 1 461 0 discriminator 3
 1140 06b0 DAF80030 		ldr	r3, [r10]
ARM GAS  C:\Users\mathi\AppData\Local\Temp\cc0ZaFXf.s 			page 21


 1141              		.loc 1 464 0 discriminator 3
 1142 06b4 08F80200 		strb	r0, [r8, r2]
 1143              		.loc 1 465 0 discriminator 3
 1144 06b8 08EB0204 		add	r4, r8, r2
 1145 06bc 0112     		asrs	r1, r0, #8
 1146              		.loc 1 461 0 discriminator 3
 1147 06be 581C     		adds	r0, r3, #1
 1148              		.loc 1 465 0 discriminator 3
 1149 06c0 0232     		adds	r2, r2, #2
 1150              		.loc 1 461 0 discriminator 3
 1151 06c2 0728     		cmp	r0, #7
 1152              		.loc 1 465 0 discriminator 3
 1153 06c4 6170     		strb	r1, [r4, #1]
 1154 06c6 C9F80020 		str	r2, [r9]
 1155              		.loc 1 461 0 discriminator 3
 1156 06ca CAF80000 		str	r0, [r10]
 1157 06ce EBDD     		ble	.L105
 1158 06d0 2DE7     		b	.L135
 1159              	.L52:
 1160              		.loc 1 445 0
 1161 06d2 BBF1000F 		cmp	fp, #0
 1162 06d6 01F0DA80 		beq	.L101
 1163              		.loc 1 446 0
 1164 06da 0020     		movs	r0, #0
 1165 06dc CAF80000 		str	r0, [r10]
 1166              	.L102:
 1167              		.loc 1 447 0 discriminator 3
 1168 06e0 FFF7FEFF 		bl	e_get_calibrated_prox
 1169              	.LVL80:
 1170              		.loc 1 448 0 discriminator 3
 1171 06e4 D9F80020 		ldr	r2, [r9]
 1172              		.loc 1 446 0 discriminator 3
 1173 06e8 DAF80030 		ldr	r3, [r10]
 1174              		.loc 1 448 0 discriminator 3
 1175 06ec 08F80200 		strb	r0, [r8, r2]
 1176              		.loc 1 449 0 discriminator 3
 1177 06f0 08EB0204 		add	r4, r8, r2
 1178 06f4 0112     		asrs	r1, r0, #8
 1179              		.loc 1 446 0 discriminator 3
 1180 06f6 581C     		adds	r0, r3, #1
 1181              		.loc 1 449 0 discriminator 3
 1182 06f8 0232     		adds	r2, r2, #2
 1183              		.loc 1 446 0 discriminator 3
 1184 06fa 0728     		cmp	r0, #7
 1185              		.loc 1 449 0 discriminator 3
 1186 06fc 6170     		strb	r1, [r4, #1]
 1187 06fe C9F80020 		str	r2, [r9]
 1188              		.loc 1 446 0 discriminator 3
 1189 0702 CAF80000 		str	r0, [r10]
 1190 0706 EBDD     		ble	.L102
 1191 0708 11E7     		b	.L135
 1192              	.L50:
 1193              		.loc 1 400 0
 1194 070a 5C4C     		ldr	r4, .L690
 1195              		.loc 1 399 0
 1196 070c BBF1000F 		cmp	fp, #0
 1197 0710 17D0     		beq	.L84
ARM GAS  C:\Users\mathi\AppData\Local\Temp\cc0ZaFXf.s 			page 22


 1198              	.L85:
 1199              		.loc 1 400 0 discriminator 1
 1200 0712 2046     		mov	r0, r4
 1201 0714 FFF7FEFF 		bl	e_getchar_uart1
 1202              	.LVL81:
 1203 0718 0028     		cmp	r0, #0
 1204 071a FAD0     		beq	.L85
 1205              		.loc 1 401 0
 1206 071c 584C     		ldr	r4, .L690+4
 1207              	.L86:
 1208              		.loc 1 401 0 is_stmt 0 discriminator 1
 1209 071e 2046     		mov	r0, r4
 1210 0720 FFF7FEFF 		bl	e_getchar_uart1
 1211              	.LVL82:
 1212 0724 0028     		cmp	r0, #0
 1213 0726 FAD0     		beq	.L86
 1214              		.loc 1 406 0 is_stmt 1
 1215 0728 544B     		ldr	r3, .L690
 1216 072a 1878     		ldrb	r0, [r3]	@ zero_extendqisi2
 1217 072c 0828     		cmp	r0, #8
 1218 072e 01F0FA80 		beq	.L421
 1219 0732 0928     		cmp	r0, #9
 1220 0734 01F0A781 		beq	.L674
 1221              	.L92:
 1222              		.loc 1 418 0
 1223 0738 514B     		ldr	r3, .L690+4
 1224 073a 1978     		ldrb	r1, [r3]	@ zero_extendqisi2
 1225 073c FFF7FEFF 		bl	e_set_led
 1226              	.LVL83:
 1227              		.loc 1 419 0
 1228 0740 F2E6     		b	.L44
 1229              	.L84:
 1230              		.loc 1 403 0 discriminator 1
 1231 0742 2046     		mov	r0, r4
 1232 0744 FFF7FEFF 		bl	e_getchar_uart2
 1233              	.LVL84:
 1234 0748 0028     		cmp	r0, #0
 1235 074a FAD0     		beq	.L84
 1236              		.loc 1 404 0
 1237 074c 4C4C     		ldr	r4, .L690+4
 1238              	.L88:
 1239              		.loc 1 404 0 is_stmt 0 discriminator 1
 1240 074e 2046     		mov	r0, r4
 1241 0750 FFF7FEFF 		bl	e_getchar_uart2
 1242              	.LVL85:
 1243 0754 0028     		cmp	r0, #0
 1244 0756 FAD0     		beq	.L88
 1245              		.loc 1 406 0 is_stmt 1
 1246 0758 484B     		ldr	r3, .L690
 1247 075a 1878     		ldrb	r0, [r3]	@ zero_extendqisi2
 1248 075c 0828     		cmp	r0, #8
 1249 075e 3FF40AAF 		beq	.L138
 1250 0762 0928     		cmp	r0, #9
 1251 0764 E8D1     		bne	.L92
 1252              		.loc 1 577 0
 1253 0766 3046     		mov	r0, r6
 1254 0768 FFF7FEFF 		bl	e_getchar_uart2
ARM GAS  C:\Users\mathi\AppData\Local\Temp\cc0ZaFXf.s 			page 23


 1255              	.LVL86:
 1256 076c 0028     		cmp	r0, #0
 1257 076e 3FF407AF 		beq	.L662
 1258 0772 E1E6     		b	.L136
 1259              	.L51:
 1260              		.loc 1 424 0
 1261 0774 BBF1000F 		cmp	fp, #0
 1262 0778 3FF4FDAE 		beq	.L138
 1263              		.loc 1 425 0
 1264 077c FFF7FEFF 		bl	e_i2cp_init
 1265              	.LVL87:
 1266              		.loc 1 426 0
 1267 0780 FFF7FEFF 		bl	e_i2cp_enable
 1268              	.LVL88:
 1269              		.loc 1 427 0
 1270 0784 0021     		movs	r1, #0
 1271 0786 C020     		movs	r0, #192
 1272 0788 FFF7FEFF 		bl	e_i2cp_read
 1273              	.LVL89:
 1274              		.loc 1 428 0
 1275 078c 0023     		movs	r3, #0
 1276 078e CAF80030 		str	r3, [r10]
 1277              	.L93:
 1278 0792 DAB2     		uxtb	r2, r3
 1279 0794 D9F80040 		ldr	r4, [r9]
 1280              		.loc 1 429 0
 1281 0798 DB07     		lsls	r3, r3, #31
 1282 079a 02F10101 		add	r1, r2, #1
 1283              		.loc 1 430 0
 1284 079e 02F1FF32 		add	r2, r2, #-1
 1285              		.loc 1 429 0
 1286 07a2 4FF0C000 		mov	r0, #192
 1287 07a6 C9B2     		uxtb	r1, r1
 1288              		.loc 1 430 0
 1289 07a8 44BF     		itt	mi
 1290 07aa C020     		movmi	r0, #192
 1291 07ac D1B2     		uxtbmi	r1, r2
 1292 07ae 651C     		adds	r5, r4, #1
 1293 07b0 C9F80050 		str	r5, [r9]
 1294 07b4 FFF7FEFF 		bl	e_i2cp_read
 1295              	.LVL90:
 1296              		.loc 1 428 0
 1297 07b8 DAF80030 		ldr	r3, [r10]
 1298              		.loc 1 430 0
 1299 07bc 08F80400 		strb	r0, [r8, r4]
 1300              		.loc 1 428 0
 1301 07c0 0133     		adds	r3, r3, #1
 1302 07c2 052B     		cmp	r3, #5
 1303 07c4 CAF80030 		str	r3, [r10]
 1304 07c8 E3DD     		ble	.L93
 1305              		.loc 1 433 0
 1306 07ca 0D23     		movs	r3, #13
 1307 07cc CAF80030 		str	r3, [r10]
 1308              	.L97:
 1309 07d0 DAB2     		uxtb	r2, r3
 1310 07d2 D9F80040 		ldr	r4, [r9]
 1311              		.loc 1 434 0
ARM GAS  C:\Users\mathi\AppData\Local\Temp\cc0ZaFXf.s 			page 24


 1312 07d6 DB07     		lsls	r3, r3, #31
 1313 07d8 02F1FF31 		add	r1, r2, #-1
 1314              		.loc 1 435 0
 1315 07dc 02F10102 		add	r2, r2, #1
 1316              		.loc 1 434 0
 1317 07e0 4FF0C000 		mov	r0, #192
 1318 07e4 C9B2     		uxtb	r1, r1
 1319              		.loc 1 435 0
 1320 07e6 44BF     		itt	mi
 1321 07e8 C020     		movmi	r0, #192
 1322 07ea D1B2     		uxtbmi	r1, r2
 1323 07ec 651C     		adds	r5, r4, #1
 1324 07ee C9F80050 		str	r5, [r9]
 1325 07f2 FFF7FEFF 		bl	e_i2cp_read
 1326              	.LVL91:
 1327              		.loc 1 433 0
 1328 07f6 DAF80030 		ldr	r3, [r10]
 1329              		.loc 1 435 0
 1330 07fa 08F80400 		strb	r0, [r8, r4]
 1331              		.loc 1 433 0
 1332 07fe 0133     		adds	r3, r3, #1
 1333 0800 102B     		cmp	r3, #16
 1334 0802 CAF80030 		str	r3, [r10]
 1335 0806 E3DD     		ble	.L97
 1336 0808 36E1     		b	.L658
 1337              	.L48:
 1338              		.loc 1 363 0
 1339 080a 204B     		ldr	r3, .L690+16
 1340 080c 1968     		ldr	r1, [r3]
 1341              		.loc 1 365 0
 1342 080e 204B     		ldr	r3, .L690+20
 1343 0810 1A68     		ldr	r2, [r3]
 1344              		.loc 1 363 0
 1345 0812 0023     		movs	r3, #0
 1346 0814 61F30703 		bfi	r3, r1, #0, #8
 1347              		.loc 1 364 0
 1348 0818 0912     		asrs	r1, r1, #8
 1349              		.loc 1 363 0
 1350 081a 61F30F23 		bfi	r3, r1, #8, #8
 1351 081e D9F80010 		ldr	r1, [r9]
 1352 0822 62F31743 		bfi	r3, r2, #16, #8
 1353              		.loc 1 366 0
 1354 0826 1212     		asrs	r2, r2, #8
 1355              		.loc 1 363 0
 1356 0828 62F31F63 		bfi	r3, r2, #24, #8
 1357              		.loc 1 366 0
 1358 082c 0A1D     		adds	r2, r1, #4
 1359              		.loc 1 363 0
 1360 082e 48F80130 		str	r3, [r8, r1]	@ unaligned
 1361              		.loc 1 366 0
 1362 0832 C9F80020 		str	r2, [r9]
 1363              		.loc 1 367 0
 1364 0836 77E6     		b	.L44
 1365              	.L49:
 1366              		.loc 1 389 0
 1367 0838 BBF1000F 		cmp	fp, #0
 1368 083c 3FF49BAE 		beq	.L138
ARM GAS  C:\Users\mathi\AppData\Local\Temp\cc0ZaFXf.s 			page 25


 1369              		.loc 1 390 0
 1370 0840 D9F80030 		ldr	r3, [r9]
 1371 0844 0333     		adds	r3, r3, #3
 1372 0846 08EB0300 		add	r0, r8, r3
 1373 084a FFF7FEFF 		bl	e_poxxxx_launch_capture
 1374              	.LVL92:
 1375              		.loc 1 392 0
 1376 084e 1499     		ldr	r1, [sp, #80]
 1377              		.loc 1 395 0
 1378 0850 139A     		ldr	r2, [sp, #76]
 1379              		.loc 1 392 0
 1380 0852 D9F80030 		ldr	r3, [r9]
 1381 0856 0868     		ldr	r0, [r1]
 1382              		.loc 1 395 0
 1383 0858 1268     		ldr	r2, [r2]
 1384              		.loc 1 392 0
 1385 085a 08F80300 		strb	r0, [r8, r3]
 1386              		.loc 1 394 0
 1387 085e D81C     		adds	r0, r3, #3
 1388              		.loc 1 395 0
 1389 0860 0244     		add	r2, r2, r0
 1390              		.loc 1 393 0
 1391 0862 1199     		ldr	r1, [sp, #68]
 1392              		.loc 1 394 0
 1393 0864 1298     		ldr	r0, [sp, #72]
 1394              		.loc 1 393 0
 1395 0866 0968     		ldr	r1, [r1]
 1396              		.loc 1 394 0
 1397 0868 0068     		ldr	r0, [r0]
 1398              		.loc 1 395 0
 1399 086a C9F80020 		str	r2, [r9]
 1400              		.loc 1 393 0
 1401 086e 4344     		add	r3, r3, r8
 1402              		.loc 1 391 0
 1403 0870 0122     		movs	r2, #1
 1404              		.loc 1 393 0
 1405 0872 5970     		strb	r1, [r3, #1]
 1406              		.loc 1 394 0
 1407 0874 9870     		strb	r0, [r3, #2]
 1408              		.loc 1 391 0
 1409 0876 074B     		ldr	r3, .L690+24
 1410 0878 1A70     		strb	r2, [r3]
 1411 087a 58E6     		b	.L135
 1412              	.L691:
 1413              		.align	2
 1414              	.L690:
 1415 087c 00000000 		.word	.LANCHOR16
 1416 0880 00000000 		.word	.LANCHOR17
 1417 0884 00000000 		.word	.LANCHOR24
 1418 0888 00000000 		.word	.LANCHOR23
 1419 088c 00000000 		.word	.LANCHOR8
 1420 0890 00000000 		.word	.LANCHOR7
 1421 0894 00000000 		.word	.LANCHOR21
 1422              	.L47:
 1423              		.loc 1 344 0
 1424 0898 C24C     		ldr	r4, .L692
 1425              		.loc 1 343 0
ARM GAS  C:\Users\mathi\AppData\Local\Temp\cc0ZaFXf.s 			page 26


 1426 089a BBF1000F 		cmp	fp, #0
 1427 089e 2FD0     		beq	.L70
 1428              	.L71:
 1429              		.loc 1 344 0 discriminator 1
 1430 08a0 2046     		mov	r0, r4
 1431 08a2 FFF7FEFF 		bl	e_getchar_uart1
 1432              	.LVL93:
 1433 08a6 0028     		cmp	r0, #0
 1434 08a8 FAD0     		beq	.L71
 1435              		.loc 1 345 0
 1436 08aa BF4C     		ldr	r4, .L692+4
 1437              	.L72:
 1438              		.loc 1 345 0 is_stmt 0 discriminator 1
 1439 08ac 2046     		mov	r0, r4
 1440 08ae FFF7FEFF 		bl	e_getchar_uart1
 1441              	.LVL94:
 1442 08b2 0028     		cmp	r0, #0
 1443 08b4 FAD0     		beq	.L72
 1444              		.loc 1 350 0 is_stmt 1
 1445 08b6 BC4B     		ldr	r3, .L692+4
 1446              		.loc 1 352 0
 1447 08b8 BA4C     		ldr	r4, .L692
 1448              		.loc 1 350 0
 1449 08ba 1A78     		ldrb	r2, [r3]	@ zero_extendqisi2
 1450 08bc B94B     		ldr	r3, .L692
 1451 08be 1B78     		ldrb	r3, [r3]	@ zero_extendqisi2
 1452 08c0 03EB0223 		add	r3, r3, r2, lsl #8
 1453 08c4 B94A     		ldr	r2, .L692+8
 1454 08c6 1360     		str	r3, [r2]
 1455              	.L76:
 1456              		.loc 1 352 0 discriminator 1
 1457 08c8 2046     		mov	r0, r4
 1458 08ca FFF7FEFF 		bl	e_getchar_uart1
 1459              	.LVL95:
 1460 08ce 0028     		cmp	r0, #0
 1461 08d0 FAD0     		beq	.L76
 1462              		.loc 1 353 0
 1463 08d2 B54C     		ldr	r4, .L692+4
 1464              	.L77:
 1465              		.loc 1 353 0 is_stmt 0 discriminator 1
 1466 08d4 2046     		mov	r0, r4
 1467 08d6 FFF7FEFF 		bl	e_getchar_uart1
 1468              	.LVL96:
 1469 08da 0028     		cmp	r0, #0
 1470 08dc FAD0     		beq	.L77
 1471              	.L78:
 1472              		.loc 1 358 0 is_stmt 1
 1473 08de B24B     		ldr	r3, .L692+4
 1474              		.loc 1 359 0
 1475 08e0 B249     		ldr	r1, .L692+8
 1476              		.loc 1 358 0
 1477 08e2 1A78     		ldrb	r2, [r3]	@ zero_extendqisi2
 1478 08e4 AF4B     		ldr	r3, .L692
 1479              		.loc 1 359 0
 1480 08e6 0868     		ldr	r0, [r1]
 1481              		.loc 1 358 0
 1482 08e8 1B78     		ldrb	r3, [r3]	@ zero_extendqisi2
ARM GAS  C:\Users\mathi\AppData\Local\Temp\cc0ZaFXf.s 			page 27


 1483 08ea 03EB0223 		add	r3, r3, r2, lsl #8
 1484 08ee B04A     		ldr	r2, .L692+12
 1485 08f0 1446     		mov	r4, r2
 1486 08f2 1360     		str	r3, [r2]
 1487              		.loc 1 359 0
 1488 08f4 FFF7FEFF 		bl	e_set_speed_left
 1489              	.LVL97:
 1490              		.loc 1 360 0
 1491 08f8 2068     		ldr	r0, [r4]
 1492 08fa FFF7FEFF 		bl	e_set_speed_right
 1493              	.LVL98:
 1494              		.loc 1 361 0
 1495 08fe 13E6     		b	.L44
 1496              	.L70:
 1497              		.loc 1 347 0 discriminator 1
 1498 0900 2046     		mov	r0, r4
 1499 0902 FFF7FEFF 		bl	e_getchar_uart2
 1500              	.LVL99:
 1501 0906 0028     		cmp	r0, #0
 1502 0908 FAD0     		beq	.L70
 1503              		.loc 1 348 0
 1504 090a A74C     		ldr	r4, .L692+4
 1505              	.L74:
 1506              		.loc 1 348 0 is_stmt 0 discriminator 1
 1507 090c 2046     		mov	r0, r4
 1508 090e FFF7FEFF 		bl	e_getchar_uart2
 1509              	.LVL100:
 1510 0912 0028     		cmp	r0, #0
 1511 0914 FAD0     		beq	.L74
 1512              		.loc 1 350 0 is_stmt 1
 1513 0916 A44B     		ldr	r3, .L692+4
 1514              		.loc 1 355 0
 1515 0918 A24C     		ldr	r4, .L692
 1516              		.loc 1 350 0
 1517 091a 1A78     		ldrb	r2, [r3]	@ zero_extendqisi2
 1518 091c A14B     		ldr	r3, .L692
 1519 091e 1B78     		ldrb	r3, [r3]	@ zero_extendqisi2
 1520 0920 03EB0223 		add	r3, r3, r2, lsl #8
 1521 0924 A14A     		ldr	r2, .L692+8
 1522 0926 1360     		str	r3, [r2]
 1523              	.L79:
 1524              		.loc 1 355 0 discriminator 1
 1525 0928 2046     		mov	r0, r4
 1526 092a FFF7FEFF 		bl	e_getchar_uart2
 1527              	.LVL101:
 1528 092e 0028     		cmp	r0, #0
 1529 0930 FAD0     		beq	.L79
 1530              		.loc 1 356 0
 1531 0932 9D4C     		ldr	r4, .L692+4
 1532              	.L80:
 1533              		.loc 1 356 0 is_stmt 0 discriminator 1
 1534 0934 2046     		mov	r0, r4
 1535 0936 FFF7FEFF 		bl	e_getchar_uart2
 1536              	.LVL102:
 1537 093a 0028     		cmp	r0, #0
 1538 093c FAD0     		beq	.L80
 1539 093e CEE7     		b	.L78
ARM GAS  C:\Users\mathi\AppData\Local\Temp\cc0ZaFXf.s 			page 28


 1540              	.L45:
 1541              		.loc 1 291 0 is_stmt 1
 1542 0940 BBF1000F 		cmp	fp, #0
 1543 0944 40F06E87 		bne	.L68
 1544              		.loc 1 294 0
 1545 0948 FFF7FEFF 		bl	isEpuckVersion1_3
 1546              	.LVL103:
 1547 094c 0028     		cmp	r0, #0
 1548 094e 00F06987 		beq	.L68
 1549              		.loc 1 295 0
 1550 0952 984B     		ldr	r3, .L692+16
 1551 0954 CDF840B0 		str	fp, [sp, #64]
 1552 0958 CDE90EBB 		strd	fp, fp, [sp, #56]
 1553 095c CDE90CBB 		strd	fp, fp, [sp, #48]
 1554 0960 83ED008A 		vstr.32	s16, [r3]
 1555              		.loc 1 296 0
 1556 0964 83ED028A 		vstr.32	s16, [r3, #8]
 1557              		.loc 1 297 0
 1558 0968 83ED018A 		vstr.32	s16, [r3, #4]
 1559 096c 5C46     		mov	r4, fp
 1560 096e 5D46     		mov	r5, fp
 1561 0970 5846     		mov	r0, fp
 1562 0972 DC46     		mov	ip, fp
 1563 0974 5B46     		mov	r3, fp
 1564 0976 DE46     		mov	lr, fp
 1565 0978 5A46     		mov	r2, fp
 1566              	.L67:
 1567              	.LVL104:
 1568              		.loc 1 303 0
 1569 097a D9F80010 		ldr	r1, [r9]
 1570 097e 0B91     		str	r1, [sp, #44]
 1571 0980 0021     		movs	r1, #0
 1572 0982 62F30701 		bfi	r1, r2, #0, #8
 1573              		.loc 1 312 0
 1574 0986 0022     		movs	r2, #0
 1575 0988 63F30702 		bfi	r2, r3, #0, #8
 1576              		.loc 1 321 0
 1577 098c 0023     		movs	r3, #0
 1578 098e 60F30703 		bfi	r3, r0, #0, #8
 1579              		.loc 1 303 0
 1580 0992 0C98     		ldr	r0, [sp, #48]
 1581 0994 6EF30F21 		bfi	r1, lr, #8, #8
 1582 0998 60F31741 		bfi	r1, r0, #16, #8
 1583              		.loc 1 312 0
 1584 099c 0E98     		ldr	r0, [sp, #56]
 1585 099e 6CF30F22 		bfi	r2, ip, #8, #8
 1586 09a2 60F31742 		bfi	r2, r0, #16, #8
 1587              		.loc 1 303 0
 1588 09a6 0D98     		ldr	r0, [sp, #52]
 1589 09a8 60F31F61 		bfi	r1, r0, #24, #8
 1590              		.loc 1 312 0
 1591 09ac 0F98     		ldr	r0, [sp, #60]
 1592              		.loc 1 321 0
 1593 09ae 65F30F23 		bfi	r3, r5, #8, #8
 1594              		.loc 1 312 0
 1595 09b2 60F31F62 		bfi	r2, r0, #24, #8
 1596 09b6 0B9D     		ldr	r5, [sp, #44]
ARM GAS  C:\Users\mathi\AppData\Local\Temp\cc0ZaFXf.s 			page 29


 1597              		.loc 1 321 0
 1598 09b8 1098     		ldr	r0, [sp, #64]
 1599 09ba 64F31743 		bfi	r3, r4, #16, #8
 1600              		.loc 1 327 0
 1601 09be 0B9C     		ldr	r4, [sp, #44]
 1602 09c0 4544     		add	r5, r8, r5
 1603              		.loc 1 321 0
 1604 09c2 60F31F63 		bfi	r3, r0, #24, #8
 1605              		.loc 1 303 0
 1606 09c6 0B98     		ldr	r0, [sp, #44]
 1607              		.loc 1 327 0
 1608 09c8 0C34     		adds	r4, r4, #12
 1609              		.loc 1 303 0
 1610 09ca 48F80010 		str	r1, [r8, r0]	@ unaligned
 1611              		.loc 1 327 0
 1612 09ce C9F80040 		str	r4, [r9]
 1613              		.loc 1 303 0
 1614 09d2 6A60     		str	r2, [r5, #4]	@ unaligned
 1615 09d4 AB60     		str	r3, [r5, #8]	@ unaligned
 1616              		.loc 1 328 0
 1617 09d6 A7E5     		b	.L44
 1618              	.LVL105:
 1619              	.L59:
 1620              		.loc 1 370 0
 1621 09d8 BBF1000F 		cmp	fp, #0
 1622 09dc 40F0E487 		bne	.L675
 1623              	.L81:
 1624              		.loc 1 379 0
 1625 09e0 D9F80020 		ldr	r2, [r9]
 1626 09e4 08EB0201 		add	r1, r8, r2
 1627 09e8 0023     		movs	r3, #0
 1628              		.loc 1 384 0
 1629 09ea 901D     		adds	r0, r2, #6
 1630              		.loc 1 379 0
 1631 09ec 48F80230 		str	r3, [r8, r2]	@ unaligned
 1632              		.loc 1 384 0
 1633 09f0 C9F80000 		str	r0, [r9]
 1634              		.loc 1 383 0
 1635 09f4 0B71     		strb	r3, [r1, #4]
 1636              		.loc 1 384 0
 1637 09f6 4B71     		strb	r3, [r1, #5]
 1638 09f8 96E5     		b	.L44
 1639              	.L61:
 1640              		.loc 1 514 0
 1641 09fa 0020     		movs	r0, #0
 1642 09fc FFF7FEFF 		bl	e_get_micro_volume
 1643              	.LVL106:
 1644              		.loc 1 515 0
 1645 0a00 D9F80030 		ldr	r3, [r9]
 1646              		.loc 1 516 0
 1647 0a04 08EB0302 		add	r2, r8, r3
 1648              		.loc 1 515 0
 1649 0a08 08F80300 		strb	r0, [r8, r3]
 1650              		.loc 1 516 0
 1651 0a0c 0112     		asrs	r1, r0, #8
 1652 0a0e 0233     		adds	r3, r3, #2
 1653              		.loc 1 518 0
ARM GAS  C:\Users\mathi\AppData\Local\Temp\cc0ZaFXf.s 			page 30


 1654 0a10 0120     		movs	r0, #1
 1655              		.loc 1 516 0
 1656 0a12 5170     		strb	r1, [r2, #1]
 1657 0a14 C9F80030 		str	r3, [r9]
 1658              		.loc 1 518 0
 1659 0a18 FFF7FEFF 		bl	e_get_micro_volume
 1660              	.LVL107:
 1661              		.loc 1 519 0
 1662 0a1c D9F80030 		ldr	r3, [r9]
 1663              		.loc 1 520 0
 1664 0a20 08EB0302 		add	r2, r8, r3
 1665              		.loc 1 519 0
 1666 0a24 08F80300 		strb	r0, [r8, r3]
 1667              		.loc 1 520 0
 1668 0a28 0112     		asrs	r1, r0, #8
 1669 0a2a 0233     		adds	r3, r3, #2
 1670              		.loc 1 522 0
 1671 0a2c 0220     		movs	r0, #2
 1672              		.loc 1 520 0
 1673 0a2e 5170     		strb	r1, [r2, #1]
 1674 0a30 C9F80030 		str	r3, [r9]
 1675              		.loc 1 522 0
 1676 0a34 FFF7FEFF 		bl	e_get_micro_volume
 1677              	.LVL108:
 1678 0a38 CFE5     		b	.L657
 1679              	.L56:
 1680              		.loc 1 537 0
 1681 0a3a BBF1000F 		cmp	fp, #0
 1682 0a3e 3FF49AAD 		beq	.L138
 1683              	.L120:
 1684              		.loc 1 538 0 discriminator 1
 1685 0a42 5D48     		ldr	r0, .L692+20
 1686 0a44 FFF7FEFF 		bl	e_getchar_uart1
 1687              	.LVL109:
 1688 0a48 0028     		cmp	r0, #0
 1689 0a4a FAD0     		beq	.L120
 1690              		.loc 1 539 0
 1691 0a4c 5B4C     		ldr	r4, .L692+24
 1692              	.L121:
 1693              		.loc 1 539 0 is_stmt 0 discriminator 1
 1694 0a4e 2046     		mov	r0, r4
 1695 0a50 FFF7FEFF 		bl	e_getchar_uart1
 1696              	.LVL110:
 1697 0a54 0028     		cmp	r0, #0
 1698 0a56 FAD0     		beq	.L121
 1699              		.loc 1 540 0 is_stmt 1
 1700 0a58 594C     		ldr	r4, .L692+28
 1701              	.L122:
 1702              		.loc 1 540 0 is_stmt 0 discriminator 1
 1703 0a5a 2046     		mov	r0, r4
 1704 0a5c FFF7FEFF 		bl	e_getchar_uart1
 1705              	.LVL111:
 1706 0a60 0028     		cmp	r0, #0
 1707 0a62 FAD0     		beq	.L122
 1708              		.loc 1 541 0 is_stmt 1
 1709 0a64 FFF7FEFF 		bl	e_i2cp_enable
 1710              	.LVL112:
ARM GAS  C:\Users\mathi\AppData\Local\Temp\cc0ZaFXf.s 			page 31


 1711              		.loc 1 542 0
 1712 0a68 554B     		ldr	r3, .L692+28
 1713 0a6a 1A78     		ldrb	r2, [r3]	@ zero_extendqisi2
 1714 0a6c 534B     		ldr	r3, .L692+24
 1715 0a6e 1978     		ldrb	r1, [r3]	@ zero_extendqisi2
 1716 0a70 514B     		ldr	r3, .L692+20
 1717 0a72 1878     		ldrb	r0, [r3]	@ zero_extendqisi2
 1718 0a74 FFF7FEFF 		bl	e_i2cp_write
 1719              	.LVL113:
 1720              	.L658:
 1721              		.loc 1 543 0
 1722 0a78 FFF7FEFF 		bl	e_i2cp_disable
 1723              	.LVL114:
 1724 0a7c 57E5     		b	.L135
 1725              	.L60:
 1726              		.loc 1 506 0
 1727 0a7e BBF1000F 		cmp	fp, #0
 1728 0a82 40F0B487 		bne	.L676
 1729              	.L119:
 1730              		.loc 1 509 0
 1731 0a86 D9F80030 		ldr	r3, [r9]
 1732 0a8a 0021     		movs	r1, #0
 1733 0a8c 5A1C     		adds	r2, r3, #1
 1734 0a8e 08F80310 		strb	r1, [r8, r3]
 1735 0a92 C9F80020 		str	r2, [r9]
 1736 0a96 47E5     		b	.L44
 1737              	.L58:
 1738              		.loc 1 331 0
 1739 0a98 FFF7FEFF 		bl	isEpuckVersion1_3
 1740              	.LVL115:
 1741 0a9c 0028     		cmp	r0, #0
 1742 0a9e 40F04C87 		bne	.L677
 1743              		.loc 1 337 0
 1744 0aa2 D9F80030 		ldr	r3, [r9]
 1745              		.loc 1 338 0
 1746 0aa6 08EB0302 		add	r2, r8, r3
 1747 0aaa 991C     		adds	r1, r3, #2
 1748              		.loc 1 337 0
 1749 0aac 08F80300 		strb	r0, [r8, r3]
 1750              		.loc 1 338 0
 1751 0ab0 C9F80010 		str	r1, [r9]
 1752 0ab4 5070     		strb	r0, [r2, #1]
 1753 0ab6 37E5     		b	.L44
 1754              	.L673:
 1755              		.loc 1 548 0
 1756 0ab8 FFF7FEFF 		bl	e_i2cp_enable
 1757              	.LVL116:
 1758              		.loc 1 549 0
 1759 0abc 0020     		movs	r0, #0
 1760 0abe CAF80000 		str	r0, [r10]
 1761 0ac2 01E0     		b	.L124
 1762              	.L678:
 1763 0ac4 DAF80000 		ldr	r0, [r10]
 1764              	.L124:
 1765              		.loc 1 550 0 discriminator 1
 1766 0ac8 4044     		add	r0, r0, r8
 1767 0aca FFF7FEFF 		bl	e_getchar_uart1
ARM GAS  C:\Users\mathi\AppData\Local\Temp\cc0ZaFXf.s 			page 32


 1768              	.LVL117:
 1769 0ace 0028     		cmp	r0, #0
 1770 0ad0 F8D0     		beq	.L678
 1771              		.loc 1 549 0 discriminator 2
 1772 0ad2 DAF80000 		ldr	r0, [r10]
 1773 0ad6 0130     		adds	r0, r0, #1
 1774 0ad8 1728     		cmp	r0, #23
 1775 0ada CAF80000 		str	r0, [r10]
 1776 0ade F3DD     		ble	.L124
 1777              		.loc 1 552 0
 1778 0ae0 9220     		movs	r0, #146
 1779 0ae2 CAF80000 		str	r0, [r10]
 1780 0ae6 01E0     		b	.L127
 1781              	.L679:
 1782 0ae8 DAF80000 		ldr	r0, [r10]
 1783              	.L127:
 1784              		.loc 1 553 0 discriminator 1
 1785 0aec 7A38     		subs	r0, r0, #122
 1786 0aee 4044     		add	r0, r0, r8
 1787 0af0 FFF7FEFF 		bl	e_getchar_uart1
 1788              	.LVL118:
 1789 0af4 0028     		cmp	r0, #0
 1790 0af6 F7D0     		beq	.L679
 1791              		.loc 1 552 0 discriminator 2
 1792 0af8 DAF80000 		ldr	r0, [r10]
 1793 0afc 0130     		adds	r0, r0, #1
 1794 0afe 9428     		cmp	r0, #148
 1795 0b00 CAF80000 		str	r0, [r10]
 1796 0b04 F2DD     		ble	.L127
 1797              		.loc 1 555 0
 1798 0b06 A420     		movs	r0, #164
 1799 0b08 CAF80000 		str	r0, [r10]
 1800 0b0c 01E0     		b	.L130
 1801              	.L680:
 1802 0b0e DAF80000 		ldr	r0, [r10]
 1803              	.L130:
 1804              		.loc 1 556 0 discriminator 1
 1805 0b12 8938     		subs	r0, r0, #137
 1806 0b14 4044     		add	r0, r0, r8
 1807 0b16 FFF7FEFF 		bl	e_getchar_uart1
 1808              	.LVL119:
 1809 0b1a 0028     		cmp	r0, #0
 1810 0b1c F7D0     		beq	.L680
 1811              		.loc 1 555 0 discriminator 2
 1812 0b1e DAF80000 		ldr	r0, [r10]
 1813 0b22 0130     		adds	r0, r0, #1
 1814 0b24 AB28     		cmp	r0, #171
 1815 0b26 CAF80000 		str	r0, [r10]
 1816 0b2a F2DD     		ble	.L130
 1817              		.loc 1 558 0
 1818 0b2c 0021     		movs	r1, #0
 1819 0b2e CAF80010 		str	r1, [r10]
 1820              	.L132:
 1821              		.loc 1 559 0 discriminator 3
 1822 0b32 18F80120 		ldrb	r2, [r8, r1]	@ zero_extendqisi2
 1823 0b36 B020     		movs	r0, #176
 1824 0b38 C9B2     		uxtb	r1, r1
ARM GAS  C:\Users\mathi\AppData\Local\Temp\cc0ZaFXf.s 			page 33


 1825 0b3a FFF7FEFF 		bl	e_i2cp_write
 1826              	.LVL120:
 1827              		.loc 1 558 0 discriminator 3
 1828 0b3e DAF80010 		ldr	r1, [r10]
 1829 0b42 0131     		adds	r1, r1, #1
 1830 0b44 1729     		cmp	r1, #23
 1831 0b46 CAF80010 		str	r1, [r10]
 1832 0b4a F2DD     		ble	.L132
 1833              		.loc 1 561 0
 1834 0b4c 9221     		movs	r1, #146
 1835 0b4e CAF80010 		str	r1, [r10]
 1836              	.L133:
 1837              		.loc 1 562 0 discriminator 3
 1838 0b52 08EB0103 		add	r3, r8, r1
 1839 0b56 B020     		movs	r0, #176
 1840 0b58 C9B2     		uxtb	r1, r1
 1841 0b5a 13F87A2C 		ldrb	r2, [r3, #-122]	@ zero_extendqisi2
 1842 0b5e FFF7FEFF 		bl	e_i2cp_write
 1843              	.LVL121:
 1844              		.loc 1 561 0 discriminator 3
 1845 0b62 DAF80010 		ldr	r1, [r10]
 1846 0b66 0131     		adds	r1, r1, #1
 1847 0b68 9429     		cmp	r1, #148
 1848 0b6a CAF80010 		str	r1, [r10]
 1849 0b6e F0DD     		ble	.L133
 1850              		.loc 1 564 0
 1851 0b70 A421     		movs	r1, #164
 1852 0b72 CAF80010 		str	r1, [r10]
 1853              	.L134:
 1854              		.loc 1 565 0 discriminator 3
 1855 0b76 08EB0103 		add	r3, r8, r1
 1856 0b7a B020     		movs	r0, #176
 1857 0b7c C9B2     		uxtb	r1, r1
 1858 0b7e 13F8892C 		ldrb	r2, [r3, #-137]	@ zero_extendqisi2
 1859 0b82 FFF7FEFF 		bl	e_i2cp_write
 1860              	.LVL122:
 1861              		.loc 1 564 0 discriminator 3
 1862 0b86 DAF80010 		ldr	r1, [r10]
 1863 0b8a 0131     		adds	r1, r1, #1
 1864 0b8c AB29     		cmp	r1, #171
 1865 0b8e CAF80010 		str	r1, [r10]
 1866 0b92 F0DD     		ble	.L134
 1867              		.loc 1 567 0
 1868 0b94 0122     		movs	r2, #1
 1869 0b96 9121     		movs	r1, #145
 1870 0b98 B020     		movs	r0, #176
 1871 0b9a FFF7FEFF 		bl	e_i2cp_write
 1872              	.LVL123:
 1873              		.loc 1 568 0
 1874 0b9e FFF7FEFF 		bl	e_i2cp_disable
 1875              	.LVL124:
 1876 0ba2 C4E4     		b	.L135
 1877              	.L693:
 1878              		.align	2
 1879              	.L692:
 1880 0ba4 00000000 		.word	.LANCHOR16
 1881 0ba8 00000000 		.word	.LANCHOR17
ARM GAS  C:\Users\mathi\AppData\Local\Temp\cc0ZaFXf.s 			page 34


 1882 0bac 00000000 		.word	.LANCHOR8
 1883 0bb0 00000000 		.word	.LANCHOR7
 1884 0bb4 00000000 		.word	.LANCHOR15
 1885 0bb8 00000000 		.word	.LANCHOR25
 1886 0bbc 00000000 		.word	.LANCHOR26
 1887 0bc0 00000000 		.word	.LANCHOR27
 1888              	.LVL125:
 1889              	.L666:
 1890              	.LBB3:
 1891              		.loc 1 616 0
 1892 0bc4 FFF7FEFF 		bl	__locale_ctype_ptr
 1893              	.LVL126:
 1894 0bc8 2044     		add	r0, r0, r4
 1895 0bca 4378     		ldrb	r3, [r0, #1]	@ zero_extendqisi2
 1896 0bcc 03F00303 		and	r3, r3, #3
 1897 0bd0 022B     		cmp	r3, #2
 1898 0bd2 08BF     		it	eq
 1899 0bd4 203C     		subeq	r4, r4, #32
 1900              	.LVL127:
 1901              	.LBE3:
 1902 0bd6 E4B2     		uxtb	r4, r4
 1903              		.loc 1 618 0
 1904 0bd8 A4F14103 		sub	r3, r4, #65
 1905              		.loc 1 616 0
 1906 0bdc 88F80040 		strb	r4, [r8]
 1907              		.loc 1 618 0
 1908 0be0 332B     		cmp	r3, #51
 1909 0be2 00F2D185 		bhi	.L164
 1910 0be6 01A2     		adr	r2, .L166
 1911 0be8 52F823F0 		ldr	pc, [r2, r3, lsl #2]
 1912              		.p2align 2
 1913              	.L166:
 1914 0bec 1D120000 		.word	.L165+1
 1915 0bf0 0B130000 		.word	.L167+1
 1916 0bf4 B3120000 		.word	.L168+1
 1917 0bf8 85130000 		.word	.L169+1
 1918 0bfc A7110000 		.word	.L170+1
 1919 0c00 5B170000 		.word	.L171+1
 1920 0c04 BD130000 		.word	.L172+1
 1921 0c08 31140000 		.word	.L173+1
 1922 0c0c D9110000 		.word	.L174+1
 1923 0c10 8D160000 		.word	.L175+1
 1924 0c14 69120000 		.word	.L176+1
 1925 0c18 FD130000 		.word	.L177+1
 1926 0c1c CB100000 		.word	.L178+1
 1927 0c20 D90F0000 		.word	.L179+1
 1928 0c24 FD0E0000 		.word	.L180+1
 1929 0c28 8F0E0000 		.word	.L181+1
 1930 0c2c 570E0000 		.word	.L182+1
 1931 0c30 C3000000 		.word	.L4+1
 1932 0c34 9B100000 		.word	.L183+1
 1933 0c38 C70E0000 		.word	.L184+1
 1934 0c3c 55100000 		.word	.L185+1
 1935 0c40 190E0000 		.word	.L186+1
 1936 0c44 D50D0000 		.word	.L187+1
 1937 0c48 89170000 		.word	.L164+1
 1938 0c4c 5D0D0000 		.word	.L188+1
ARM GAS  C:\Users\mathi\AppData\Local\Temp\cc0ZaFXf.s 			page 35


 1939 0c50 F70C0000 		.word	.L189+1
 1940 0c54 89170000 		.word	.L164+1
 1941 0c58 89170000 		.word	.L164+1
 1942 0c5c 89170000 		.word	.L164+1
 1943 0c60 89170000 		.word	.L164+1
 1944 0c64 89170000 		.word	.L164+1
 1945 0c68 89170000 		.word	.L164+1
 1946 0c6c 89170000 		.word	.L164+1
 1947 0c70 451A0000 		.word	.L156+1
 1948 0c74 89170000 		.word	.L164+1
 1949 0c78 89170000 		.word	.L164+1
 1950 0c7c 89170000 		.word	.L164+1
 1951 0c80 89170000 		.word	.L164+1
 1952 0c84 E1010000 		.word	.L162+1
 1953 0c88 89170000 		.word	.L164+1
 1954 0c8c 89170000 		.word	.L164+1
 1955 0c90 89170000 		.word	.L164+1
 1956 0c94 89170000 		.word	.L164+1
 1957 0c98 89170000 		.word	.L164+1
 1958 0c9c 89170000 		.word	.L164+1
 1959 0ca0 89170000 		.word	.L164+1
 1960 0ca4 89170000 		.word	.L164+1
 1961 0ca8 89170000 		.word	.L164+1
 1962 0cac 89170000 		.word	.L164+1
 1963 0cb0 89170000 		.word	.L164+1
 1964 0cb4 89170000 		.word	.L164+1
 1965 0cb8 BD0C0000 		.word	.L190+1
 1966              		.p2align 1
 1967              	.L190:
 1968              	.LBB4:
 1969              		.loc 1 998 0
 1970 0cbc 099B     		ldr	r3, [sp, #36]
 1971 0cbe 002B     		cmp	r3, #0
 1972 0cc0 00F0F886 		beq	.L332
 1973              		.loc 1 998 0 is_stmt 0 discriminator 1
 1974 0cc4 FFF7FEFF 		bl	isEpuckVersion1_3
 1975              	.LVL128:
 1976 0cc8 0028     		cmp	r0, #0
 1977 0cca 41F05D81 		bne	.L681
 1978              		.loc 1 1001 0 is_stmt 1
 1979 0cce AA4B     		ldr	r3, .L694
 1980 0cd0 93E80300 		ldm	r3, {r0, r1}
 1981 0cd4 A94B     		ldr	r3, .L694+4
 1982 0cd6 C8F80000 		str	r0, [r8]
 1983 0cda 1980     		strh	r1, [r3]	@ movhi
 1984              	.L358:
 1985              		.loc 1 1004 0
 1986 0cdc A848     		ldr	r0, .L694+8
 1987 0cde FFF7FEFF 		bl	strlen
 1988              	.LVL129:
 1989 0ce2 0146     		mov	r1, r0
 1990 0ce4 A648     		ldr	r0, .L694+8
 1991 0ce6 FFF7FEFF 		bl	e_send_uart1_char
 1992              	.LVL130:
 1993              	.L334:
 1994              		.loc 1 1004 0 is_stmt 0 discriminator 2
 1995 0cea FFF7FEFF 		bl	e_uart1_sending
ARM GAS  C:\Users\mathi\AppData\Local\Temp\cc0ZaFXf.s 			page 36


 1996              	.LVL131:
 1997 0cee 0028     		cmp	r0, #0
 1998 0cf0 FBD1     		bne	.L334
 1999 0cf2 FFF7E6B9 		b	.L4
 2000              	.L189:
 2001              		.loc 1 1058 0 is_stmt 1
 2002 0cf6 099B     		ldr	r3, [sp, #36]
 2003 0cf8 002B     		cmp	r3, #0
 2004 0cfa 3FF48FAA 		beq	.L626
 2005              		.loc 1 1059 0
 2006 0cfe 0223     		movs	r3, #2
 2007              		.loc 1 1064 0
 2008 0d00 A04D     		ldr	r5, .L694+12
 2009 0d02 9F4C     		ldr	r4, .L694+8
 2010              		.loc 1 1059 0
 2011 0d04 CAF80030 		str	r3, [r10]
 2012 0d08 07E0     		b	.L351
 2013              	.L349:
 2014 0d0a DAF80030 		ldr	r3, [r10]
 2015 0d0e 0233     		adds	r3, r3, #2
 2016 0d10 FE2B     		cmp	r3, #254
 2017 0d12 CAF80030 		str	r3, [r10]
 2018 0d16 3FF7D4A9 		bgt	.L4
 2019              	.L351:
 2020              		.loc 1 1060 0
 2021 0d1a FFF7FEFF 		bl	e_i2cp_enable
 2022              	.LVL132:
 2023              		.loc 1 1061 0
 2024 0d1e 0021     		movs	r1, #0
 2025 0d20 9AF80000 		ldrb	r0, [r10]	@ zero_extendqisi2
 2026 0d24 FFF7FEFF 		bl	e_i2cp_read
 2027              	.LVL133:
 2028 0d28 974B     		ldr	r3, .L694+16
 2029 0d2a 1E46     		mov	r6, r3
 2030 0d2c 1860     		str	r0, [r3]
 2031              		.loc 1 1062 0
 2032 0d2e FFF7FEFF 		bl	e_i2cp_disable
 2033              	.LVL134:
 2034              		.loc 1 1063 0
 2035 0d32 3368     		ldr	r3, [r6]
 2036 0d34 002B     		cmp	r3, #0
 2037 0d36 E8DB     		blt	.L349
 2038              		.loc 1 1064 0
 2039 0d38 2946     		mov	r1, r5
 2040 0d3a DAF80020 		ldr	r2, [r10]
 2041 0d3e 2046     		mov	r0, r4
 2042 0d40 FFF7FEFF 		bl	sprintf
 2043              	.LVL135:
 2044              		.loc 1 1065 0
 2045 0d44 2046     		mov	r0, r4
 2046 0d46 FFF7FEFF 		bl	strlen
 2047              	.LVL136:
 2048 0d4a 0146     		mov	r1, r0
 2049 0d4c 2046     		mov	r0, r4
 2050 0d4e FFF7FEFF 		bl	e_send_uart1_char
 2051              	.LVL137:
 2052              	.L350:
ARM GAS  C:\Users\mathi\AppData\Local\Temp\cc0ZaFXf.s 			page 37


 2053              		.loc 1 1065 0 is_stmt 0 discriminator 2
 2054 0d52 FFF7FEFF 		bl	e_uart1_sending
 2055              	.LVL138:
 2056 0d56 0028     		cmp	r0, #0
 2057 0d58 FBD1     		bne	.L350
 2058 0d5a D6E7     		b	.L349
 2059              	.L188:
 2060              		.loc 1 1041 0 is_stmt 1
 2061 0d5c 099B     		ldr	r3, [sp, #36]
 2062 0d5e 002B     		cmp	r3, #0
 2063 0d60 3FF45CAA 		beq	.L626
 2064              		.loc 1 1042 0
 2065 0d64 894B     		ldr	r3, .L694+20
 2066 0d66 8A4A     		ldr	r2, .L694+24
 2067 0d68 8A49     		ldr	r1, .L694+28
 2068 0d6a 8548     		ldr	r0, .L694+8
 2069 0d6c FFF7FEFF 		bl	sscanf
 2070              	.LVL139:
 2071              		.loc 1 1044 0
 2072 0d70 864B     		ldr	r3, .L694+20
 2073 0d72 874A     		ldr	r2, .L694+24
 2074 0d74 8849     		ldr	r1, .L694+32
 2075 0d76 1B68     		ldr	r3, [r3]
 2076 0d78 1268     		ldr	r2, [r2]
 2077 0d7a 8148     		ldr	r0, .L694+8
 2078 0d7c FFF7FEFF 		bl	sprintf
 2079              	.LVL140:
 2080              		.loc 1 1045 0
 2081 0d80 7F48     		ldr	r0, .L694+8
 2082 0d82 FFF7FEFF 		bl	strlen
 2083              	.LVL141:
 2084 0d86 0146     		mov	r1, r0
 2085 0d88 7D48     		ldr	r0, .L694+8
 2086 0d8a FFF7FEFF 		bl	e_send_uart1_char
 2087              	.LVL142:
 2088              	.L347:
 2089              		.loc 1 1045 0 is_stmt 0 discriminator 2
 2090 0d8e FFF7FEFF 		bl	e_uart1_sending
 2091              	.LVL143:
 2092 0d92 0028     		cmp	r0, #0
 2093 0d94 FBD1     		bne	.L347
 2094              		.loc 1 1050 0 is_stmt 1
 2095 0d96 FFF7FEFF 		bl	e_i2cp_enable
 2096              	.LVL144:
 2097              		.loc 1 1051 0
 2098 0d9a 7C4B     		ldr	r3, .L694+20
 2099 0d9c 1978     		ldrb	r1, [r3]	@ zero_extendqisi2
 2100 0d9e 7C4B     		ldr	r3, .L694+24
 2101 0da0 1878     		ldrb	r0, [r3]	@ zero_extendqisi2
 2102 0da2 FFF7FEFF 		bl	e_i2cp_read
 2103              	.LVL145:
 2104 0da6 784B     		ldr	r3, .L694+16
 2105 0da8 1C46     		mov	r4, r3
 2106 0daa 1860     		str	r0, [r3]
 2107              		.loc 1 1052 0
 2108 0dac FFF7FEFF 		bl	e_i2cp_disable
 2109              	.LVL146:
ARM GAS  C:\Users\mathi\AppData\Local\Temp\cc0ZaFXf.s 			page 38


 2110              		.loc 1 1053 0
 2111 0db0 7A49     		ldr	r1, .L694+36
 2112 0db2 2268     		ldr	r2, [r4]
 2113 0db4 7248     		ldr	r0, .L694+8
 2114 0db6 FFF7FEFF 		bl	sprintf
 2115              	.LVL147:
 2116              		.loc 1 1054 0
 2117 0dba 7148     		ldr	r0, .L694+8
 2118 0dbc FFF7FEFF 		bl	strlen
 2119              	.LVL148:
 2120 0dc0 0146     		mov	r1, r0
 2121 0dc2 6F48     		ldr	r0, .L694+8
 2122 0dc4 FFF7FEFF 		bl	e_send_uart1_char
 2123              	.LVL149:
 2124              	.L348:
 2125              		.loc 1 1054 0 is_stmt 0 discriminator 2
 2126 0dc8 FFF7FEFF 		bl	e_uart1_sending
 2127              	.LVL150:
 2128 0dcc 0028     		cmp	r0, #0
 2129 0dce FBD1     		bne	.L348
 2130 0dd0 FFF777B9 		b	.L4
 2131              	.L187:
 2132              		.loc 1 1032 0 is_stmt 1
 2133 0dd4 099B     		ldr	r3, [sp, #36]
 2134 0dd6 002B     		cmp	r3, #0
 2135 0dd8 3FF420AA 		beq	.L626
 2136              		.loc 1 1033 0
 2137 0ddc 6A4B     		ldr	r3, .L694+16
 2138 0dde 6C4A     		ldr	r2, .L694+24
 2139 0de0 6F49     		ldr	r1, .L694+40
 2140 0de2 0093     		str	r3, [sp]
 2141 0de4 1C46     		mov	r4, r3
 2142 0de6 6648     		ldr	r0, .L694+8
 2143 0de8 684B     		ldr	r3, .L694+20
 2144 0dea FFF7FEFF 		bl	sscanf
 2145              	.LVL151:
 2146              		.loc 1 1034 0
 2147 0dee FFF7FEFF 		bl	e_i2cp_enable
 2148              	.LVL152:
 2149              		.loc 1 1035 0
 2150 0df2 664B     		ldr	r3, .L694+20
 2151 0df4 2278     		ldrb	r2, [r4]	@ zero_extendqisi2
 2152 0df6 1978     		ldrb	r1, [r3]	@ zero_extendqisi2
 2153 0df8 654B     		ldr	r3, .L694+24
 2154 0dfa 1878     		ldrb	r0, [r3]	@ zero_extendqisi2
 2155 0dfc FFF7FEFF 		bl	e_i2cp_write
 2156              	.LVL153:
 2157              		.loc 1 1036 0
 2158 0e00 FFF7FEFF 		bl	e_i2cp_disable
 2159              	.LVL154:
 2160              		.loc 1 1037 0
 2161 0e04 0321     		movs	r1, #3
 2162 0e06 6748     		ldr	r0, .L694+44
 2163 0e08 FFF7FEFF 		bl	e_send_uart1_char
 2164              	.LVL155:
 2165              	.L346:
 2166              		.loc 1 1037 0 is_stmt 0 discriminator 2
ARM GAS  C:\Users\mathi\AppData\Local\Temp\cc0ZaFXf.s 			page 39


 2167 0e0c FFF7FEFF 		bl	e_uart1_sending
 2168              	.LVL156:
 2169 0e10 0028     		cmp	r0, #0
 2170 0e12 FBD1     		bne	.L346
 2171 0e14 FFF755B9 		b	.L4
 2172              	.L186:
 2173              		.loc 1 1019 0 is_stmt 1
 2174 0e18 099B     		ldr	r3, [sp, #36]
 2175              		.loc 1 1020 0
 2176 0e1a 6348     		ldr	r0, .L694+48
 2177 0e1c 2621     		movs	r1, #38
 2178              		.loc 1 1019 0
 2179 0e1e 002B     		cmp	r3, #0
 2180 0e20 00F0BE86 		beq	.L339
 2181              		.loc 1 1020 0
 2182 0e24 FFF7FEFF 		bl	e_send_uart1_char
 2183              	.LVL157:
 2184              	.L340:
 2185              		.loc 1 1020 0 is_stmt 0 discriminator 2
 2186 0e28 FFF7FEFF 		bl	e_uart1_sending
 2187              	.LVL158:
 2188 0e2c 0028     		cmp	r0, #0
 2189 0e2e FBD1     		bne	.L340
 2190              		.loc 1 1024 0 is_stmt 1
 2191 0e30 5E4B     		ldr	r3, .L694+52
 2192 0e32 5F49     		ldr	r1, .L694+56
 2193 0e34 1A68     		ldr	r2, [r3]
 2194 0e36 5248     		ldr	r0, .L694+8
 2195 0e38 FFF7FEFF 		bl	sprintf
 2196              	.LVL159:
 2197              		.loc 1 1026 0
 2198 0e3c 5048     		ldr	r0, .L694+8
 2199 0e3e FFF7FEFF 		bl	strlen
 2200              	.LVL160:
 2201 0e42 0146     		mov	r1, r0
 2202 0e44 4E48     		ldr	r0, .L694+8
 2203 0e46 FFF7FEFF 		bl	e_send_uart1_char
 2204              	.LVL161:
 2205              	.L344:
 2206              		.loc 1 1026 0 is_stmt 0 discriminator 2
 2207 0e4a FFF7FEFF 		bl	e_uart1_sending
 2208              	.LVL162:
 2209 0e4e 0028     		cmp	r0, #0
 2210 0e50 FBD1     		bne	.L344
 2211 0e52 FFF736B9 		b	.L4
 2212              	.L182:
 2213              		.loc 1 942 0 is_stmt 1
 2214 0e56 FFF7FEFF 		bl	e_get_steps_left
 2215              	.LVL163:
 2216 0e5a 0446     		mov	r4, r0
 2217 0e5c FFF7FEFF 		bl	e_get_steps_right
 2218              	.LVL164:
 2219 0e60 2246     		mov	r2, r4
 2220 0e62 0346     		mov	r3, r0
 2221 0e64 5349     		ldr	r1, .L694+60
 2222 0e66 4648     		ldr	r0, .L694+8
 2223 0e68 FFF7FEFF 		bl	sprintf
ARM GAS  C:\Users\mathi\AppData\Local\Temp\cc0ZaFXf.s 			page 40


 2224              	.LVL165:
 2225              		.loc 1 943 0
 2226 0e6c 099B     		ldr	r3, [sp, #36]
 2227              		.loc 1 944 0
 2228 0e6e 4448     		ldr	r0, .L694+8
 2229              		.loc 1 943 0
 2230 0e70 002B     		cmp	r3, #0
 2231 0e72 00F0AE86 		beq	.L314
 2232              		.loc 1 944 0
 2233 0e76 FFF7FEFF 		bl	strlen
 2234              	.LVL166:
 2235 0e7a 0146     		mov	r1, r0
 2236 0e7c 4048     		ldr	r0, .L694+8
 2237 0e7e FFF7FEFF 		bl	e_send_uart1_char
 2238              	.LVL167:
 2239              	.L315:
 2240              		.loc 1 944 0 is_stmt 0 discriminator 2
 2241 0e82 FFF7FEFF 		bl	e_uart1_sending
 2242              	.LVL168:
 2243 0e86 0028     		cmp	r0, #0
 2244 0e88 FBD1     		bne	.L315
 2245 0e8a FFF71AB9 		b	.L4
 2246              	.L181:
 2247              		.loc 1 932 0 is_stmt 1
 2248 0e8e 4A49     		ldr	r1, .L694+64
 2249 0e90 4A4A     		ldr	r2, .L694+68
 2250 0e92 4B4B     		ldr	r3, .L694+72
 2251 0e94 3A48     		ldr	r0, .L694+8
 2252 0e96 FFF7FEFF 		bl	sscanf
 2253              	.LVL169:
 2254              		.loc 1 933 0
 2255 0e9a 484B     		ldr	r3, .L694+68
 2256 0e9c 1868     		ldr	r0, [r3]
 2257 0e9e FFF7FEFF 		bl	e_set_steps_left
 2258              	.LVL170:
 2259              		.loc 1 934 0
 2260 0ea2 474B     		ldr	r3, .L694+72
 2261 0ea4 1868     		ldr	r0, [r3]
 2262 0ea6 FFF7FEFF 		bl	e_set_steps_right
 2263              	.LVL171:
 2264              		.loc 1 935 0
 2265 0eaa 099B     		ldr	r3, [sp, #36]
 2266              		.loc 1 936 0
 2267 0eac 4548     		ldr	r0, .L694+76
 2268 0eae 0321     		movs	r1, #3
 2269              		.loc 1 935 0
 2270 0eb0 002B     		cmp	r3, #0
 2271 0eb2 00F0BE86 		beq	.L311
 2272              		.loc 1 936 0
 2273 0eb6 FFF7FEFF 		bl	e_send_uart1_char
 2274              	.LVL172:
 2275              	.L312:
 2276              		.loc 1 936 0 is_stmt 0 discriminator 2
 2277 0eba FFF7FEFF 		bl	e_uart1_sending
 2278              	.LVL173:
 2279 0ebe 0028     		cmp	r0, #0
 2280 0ec0 FBD1     		bne	.L312
ARM GAS  C:\Users\mathi\AppData\Local\Temp\cc0ZaFXf.s 			page 41


 2281 0ec2 FFF7FEB8 		b	.L4
 2282              	.L184:
 2283              		.loc 1 968 0 is_stmt 1
 2284 0ec6 099B     		ldr	r3, [sp, #36]
 2285 0ec8 002B     		cmp	r3, #0
 2286 0eca 00F05187 		beq	.L320
 2287              		.loc 1 969 0
 2288 0ece 3E4A     		ldr	r2, .L694+80
 2289 0ed0 3E49     		ldr	r1, .L694+84
 2290 0ed2 2B48     		ldr	r0, .L694+8
 2291 0ed4 FFF7FEFF 		bl	sscanf
 2292              	.LVL174:
 2293              		.loc 1 970 0
 2294 0ed8 3D4B     		ldr	r3, .L694+88
 2295 0eda 1B78     		ldrb	r3, [r3]	@ zero_extendqisi2
 2296 0edc 002B     		cmp	r3, #0
 2297 0ede 01F03B80 		beq	.L682
 2298              	.L321:
 2299              		.loc 1 974 0
 2300 0ee2 394B     		ldr	r3, .L694+80
 2301 0ee4 1B68     		ldr	r3, [r3]
 2302 0ee6 013B     		subs	r3, r3, #1
 2303 0ee8 042B     		cmp	r3, #4
 2304 0eea 01F27C80 		bhi	.L322
 2305 0eee DFE813F0 		tbh	[pc, r3, lsl #1]
 2306              	.L324:
 2307 0ef2 7C04     		.2byte	(.L323-.L324)/2
 2308 0ef4 7604     		.2byte	(.L325-.L324)/2
 2309 0ef6 7004     		.2byte	(.L326-.L324)/2
 2310 0ef8 6904     		.2byte	(.L327-.L324)/2
 2311 0efa 5904     		.2byte	(.L328-.L324)/2
 2312              		.p2align 1
 2313              	.L180:
 2314              		.loc 1 918 0
 2315 0efc 099B     		ldr	r3, [sp, #36]
 2316 0efe 002B     		cmp	r3, #0
 2317 0f00 00F00886 		beq	.L308
 2318              		.loc 1 919 0
 2319 0f04 0020     		movs	r0, #0
 2320 0f06 FFF7FEFF 		bl	e_get_ambient_light
 2321              	.LVL175:
 2322 0f0a 0D90     		str	r0, [sp, #52]
 2323 0f0c 0120     		movs	r0, #1
 2324 0f0e FFF7FEFF 		bl	e_get_ambient_light
 2325              	.LVL176:
 2326 0f12 0C90     		str	r0, [sp, #48]
 2327 0f14 0220     		movs	r0, #2
 2328 0f16 FFF7FEFF 		bl	e_get_ambient_light
 2329              	.LVL177:
 2330 0f1a 0A90     		str	r0, [sp, #40]
 2331 0f1c 0320     		movs	r0, #3
 2332 0f1e FFF7FEFF 		bl	e_get_ambient_light
 2333              	.LVL178:
 2334 0f22 0446     		mov	r4, r0
 2335 0f24 0420     		movs	r0, #4
 2336 0f26 FFF7FEFF 		bl	e_get_ambient_light
 2337              	.LVL179:
ARM GAS  C:\Users\mathi\AppData\Local\Temp\cc0ZaFXf.s 			page 42


 2338 0f2a 0546     		mov	r5, r0
 2339 0f2c 0520     		movs	r0, #5
 2340 0f2e FFF7FEFF 		bl	e_get_ambient_light
 2341              	.LVL180:
 2342 0f32 0646     		mov	r6, r0
 2343 0f34 0620     		movs	r0, #6
 2344 0f36 FFF7FEFF 		bl	e_get_ambient_light
 2345              	.LVL181:
 2346 0f3a 0B90     		str	r0, [sp, #44]
 2347 0f3c 0720     		movs	r0, #7
 2348 0f3e FFF7FEFF 		bl	e_get_ambient_light
 2349              	.LVL182:
 2350 0f42 0B99     		ldr	r1, [sp, #44]
 2351 0f44 0A9B     		ldr	r3, [sp, #40]
 2352 0f46 0093     		str	r3, [sp]
 2353 0f48 0590     		str	r0, [sp, #20]
 2354 0f4a CDE90361 		strd	r6, r1, [sp, #12]
 2355 0f4e DDE90C32 		ldrd	r3, r2, [sp, #48]
 2356 0f52 2049     		ldr	r1, .L694+92
 2357 0f54 0A48     		ldr	r0, .L694+8
 2358 0f56 CDE90145 		strd	r4, r5, [sp, #4]
 2359 0f5a FFF7FEFF 		bl	sprintf
 2360              	.LVL183:
 2361              		.loc 1 922 0
 2362 0f5e 0848     		ldr	r0, .L694+8
 2363 0f60 FFF7FEFF 		bl	strlen
 2364              	.LVL184:
 2365 0f64 0146     		mov	r1, r0
 2366 0f66 0648     		ldr	r0, .L694+8
 2367 0f68 FFF7FEFF 		bl	e_send_uart1_char
 2368              	.LVL185:
 2369              	.L309:
 2370              		.loc 1 922 0 is_stmt 0 discriminator 2
 2371 0f6c FFF7FEFF 		bl	e_uart1_sending
 2372              	.LVL186:
 2373 0f70 0028     		cmp	r0, #0
 2374 0f72 FBD1     		bne	.L309
 2375 0f74 FFF7A5B8 		b	.L4
 2376              	.L695:
 2377              		.align	2
 2378              	.L694:
 2379 0f78 780A0000 		.word	.LC93
 2380 0f7c 04000000 		.word	buffer+4
 2381 0f80 00000000 		.word	buffer
 2382 0f84 180A0000 		.word	.LC88
 2383 0f88 00000000 		.word	.LANCHOR27
 2384 0f8c 00000000 		.word	.LANCHOR26
 2385 0f90 00000000 		.word	.LANCHOR25
 2386 0f94 F8090000 		.word	.LC85
 2387 0f98 040A0000 		.word	.LC86
 2388 0f9c 100A0000 		.word	.LC87
 2389 0fa0 E8090000 		.word	.LC83
 2390 0fa4 F4090000 		.word	.LC84
 2391 0fa8 C0090000 		.word	.LC82
 2392 0fac 00000000 		.word	.LANCHOR1
 2393 0fb0 580A0000 		.word	.LC91
 2394 0fb4 8C090000 		.word	.LC76
ARM GAS  C:\Users\mathi\AppData\Local\Temp\cc0ZaFXf.s 			page 43


 2395 0fb8 7C090000 		.word	.LC74
 2396 0fbc 00000000 		.word	.LANCHOR24
 2397 0fc0 00000000 		.word	.LANCHOR23
 2398 0fc4 88090000 		.word	.LC75
 2399 0fc8 00000000 		.word	.LANCHOR32
 2400 0fcc 9C090000 		.word	.LC78
 2401 0fd0 00000000 		.word	.LANCHOR9
 2402 0fd4 3C090000 		.word	.LC72
 2403              	.L179:
 2404              		.loc 1 904 0 is_stmt 1
 2405 0fd8 099B     		ldr	r3, [sp, #36]
 2406 0fda 002B     		cmp	r3, #0
 2407 0fdc 00F07486 		beq	.L305
 2408              		.loc 1 905 0
 2409 0fe0 0020     		movs	r0, #0
 2410 0fe2 FFF7FEFF 		bl	e_get_calibrated_prox
 2411              	.LVL187:
 2412 0fe6 0D90     		str	r0, [sp, #52]
 2413 0fe8 0120     		movs	r0, #1
 2414 0fea FFF7FEFF 		bl	e_get_calibrated_prox
 2415              	.LVL188:
 2416 0fee 0C90     		str	r0, [sp, #48]
 2417 0ff0 0220     		movs	r0, #2
 2418 0ff2 FFF7FEFF 		bl	e_get_calibrated_prox
 2419              	.LVL189:
 2420 0ff6 0A90     		str	r0, [sp, #40]
 2421 0ff8 0320     		movs	r0, #3
 2422 0ffa FFF7FEFF 		bl	e_get_calibrated_prox
 2423              	.LVL190:
 2424 0ffe 0446     		mov	r4, r0
 2425 1000 0420     		movs	r0, #4
 2426 1002 FFF7FEFF 		bl	e_get_calibrated_prox
 2427              	.LVL191:
 2428 1006 0546     		mov	r5, r0
 2429 1008 0520     		movs	r0, #5
 2430 100a FFF7FEFF 		bl	e_get_calibrated_prox
 2431              	.LVL192:
 2432 100e 0646     		mov	r6, r0
 2433 1010 0620     		movs	r0, #6
 2434 1012 FFF7FEFF 		bl	e_get_calibrated_prox
 2435              	.LVL193:
 2436 1016 0B90     		str	r0, [sp, #44]
 2437 1018 0720     		movs	r0, #7
 2438 101a FFF7FEFF 		bl	e_get_calibrated_prox
 2439              	.LVL194:
 2440 101e 0B99     		ldr	r1, [sp, #44]
 2441 1020 0A9B     		ldr	r3, [sp, #40]
 2442 1022 0093     		str	r3, [sp]
 2443 1024 0590     		str	r0, [sp, #20]
 2444 1026 CDE90361 		strd	r6, r1, [sp, #12]
 2445 102a DDE90C32 		ldrd	r3, r2, [sp, #48]
 2446 102e C249     		ldr	r1, .L696
 2447 1030 C248     		ldr	r0, .L696+4
 2448 1032 CDE90145 		strd	r4, r5, [sp, #4]
 2449 1036 FFF7FEFF 		bl	sprintf
 2450              	.LVL195:
 2451              		.loc 1 908 0
ARM GAS  C:\Users\mathi\AppData\Local\Temp\cc0ZaFXf.s 			page 44


 2452 103a C048     		ldr	r0, .L696+4
 2453 103c FFF7FEFF 		bl	strlen
 2454              	.LVL196:
 2455 1040 0146     		mov	r1, r0
 2456 1042 BE48     		ldr	r0, .L696+4
 2457 1044 FFF7FEFF 		bl	e_send_uart1_char
 2458              	.LVL197:
 2459              	.L306:
 2460              		.loc 1 908 0 is_stmt 0 discriminator 2
 2461 1048 FFF7FEFF 		bl	e_uart1_sending
 2462              	.LVL198:
 2463 104c 0028     		cmp	r0, #0
 2464 104e FBD1     		bne	.L306
 2465 1050 FFF737B8 		b	.L4
 2466              	.L185:
 2467              		.loc 1 1011 0 is_stmt 1
 2468 1054 0020     		movs	r0, #0
 2469 1056 FFF7FEFF 		bl	e_get_micro_volume
 2470              	.LVL199:
 2471 105a 0446     		mov	r4, r0
 2472 105c 0120     		movs	r0, #1
 2473 105e FFF7FEFF 		bl	e_get_micro_volume
 2474              	.LVL200:
 2475 1062 0546     		mov	r5, r0
 2476 1064 0220     		movs	r0, #2
 2477 1066 FFF7FEFF 		bl	e_get_micro_volume
 2478              	.LVL201:
 2479 106a 2B46     		mov	r3, r5
 2480 106c 0090     		str	r0, [sp]
 2481 106e 2246     		mov	r2, r4
 2482 1070 B349     		ldr	r1, .L696+8
 2483 1072 B248     		ldr	r0, .L696+4
 2484 1074 FFF7FEFF 		bl	sprintf
 2485              	.LVL202:
 2486              		.loc 1 1012 0
 2487 1078 099B     		ldr	r3, [sp, #36]
 2488              		.loc 1 1013 0
 2489 107a B048     		ldr	r0, .L696+4
 2490              		.loc 1 1012 0
 2491 107c 002B     		cmp	r3, #0
 2492 107e 00F0E085 		beq	.L336
 2493              		.loc 1 1013 0
 2494 1082 FFF7FEFF 		bl	strlen
 2495              	.LVL203:
 2496 1086 0146     		mov	r1, r0
 2497 1088 AC48     		ldr	r0, .L696+4
 2498 108a FFF7FEFF 		bl	e_send_uart1_char
 2499              	.LVL204:
 2500              	.L337:
 2501              		.loc 1 1013 0 is_stmt 0 discriminator 2
 2502 108e FFF7FEFF 		bl	e_uart1_sending
 2503              	.LVL205:
 2504 1092 0028     		cmp	r0, #0
 2505 1094 FBD1     		bne	.L337
 2506 1096 FFF714B8 		b	.L4
 2507              	.L183:
 2508              		.loc 1 958 0 is_stmt 1
ARM GAS  C:\Users\mathi\AppData\Local\Temp\cc0ZaFXf.s 			page 45


 2509 109a 0020     		movs	r0, #0
 2510 109c FFF7FEFF 		bl	e_set_speed_left
 2511              	.LVL206:
 2512              		.loc 1 959 0
 2513 10a0 0020     		movs	r0, #0
 2514 10a2 FFF7FEFF 		bl	e_set_speed_right
 2515              	.LVL207:
 2516              		.loc 1 960 0
 2517 10a6 0021     		movs	r1, #0
 2518 10a8 0820     		movs	r0, #8
 2519 10aa FFF7FEFF 		bl	e_set_led
 2520              	.LVL208:
 2521              		.loc 1 961 0
 2522 10ae 099B     		ldr	r3, [sp, #36]
 2523              		.loc 1 962 0
 2524 10b0 A448     		ldr	r0, .L696+12
 2525 10b2 0321     		movs	r1, #3
 2526              		.loc 1 961 0
 2527 10b4 002B     		cmp	r3, #0
 2528 10b6 00F09885 		beq	.L317
 2529              		.loc 1 962 0
 2530 10ba FFF7FEFF 		bl	e_send_uart1_char
 2531              	.LVL209:
 2532              	.L318:
 2533              		.loc 1 962 0 is_stmt 0 discriminator 2
 2534 10be FFF7FEFF 		bl	e_uart1_sending
 2535              	.LVL210:
 2536 10c2 0028     		cmp	r0, #0
 2537 10c4 FBD1     		bne	.L318
 2538 10c6 FEF7FCBF 		b	.L4
 2539              	.L178:
 2540              		.loc 1 858 0 is_stmt 1
 2541 10ca 099B     		ldr	r3, [sp, #36]
 2542 10cc 002B     		cmp	r3, #0
 2543 10ce 3FF4A5A8 		beq	.L626
 2544              		.loc 1 860 0
 2545 10d2 0024     		movs	r4, #0
 2546              		.loc 1 859 0
 2547 10d4 FFF7FEFF 		bl	e_i2cp_enable
 2548              	.LVL211:
 2549              		.loc 1 860 0
 2550 10d8 CAF80040 		str	r4, [r10]
 2551              	.L296:
 2552 10dc E3B2     		uxtb	r3, r4
 2553              		.loc 1 861 0
 2554 10de E207     		lsls	r2, r4, #31
 2555 10e0 03F10101 		add	r1, r3, #1
 2556              		.loc 1 862 0
 2557 10e4 03F1FF33 		add	r3, r3, #-1
 2558              		.loc 1 861 0
 2559 10e8 4FF0C000 		mov	r0, #192
 2560 10ec C9B2     		uxtb	r1, r1
 2561              		.loc 1 862 0
 2562 10ee 44BF     		itt	mi
 2563 10f0 C020     		movmi	r0, #192
 2564 10f2 D9B2     		uxtbmi	r1, r3
 2565 10f4 FFF7FEFF 		bl	e_i2cp_read
ARM GAS  C:\Users\mathi\AppData\Local\Temp\cc0ZaFXf.s 			page 46


 2566              	.LVL212:
 2567              		.loc 1 860 0
 2568 10f8 DAF80030 		ldr	r3, [r10]
 2569              		.loc 1 862 0
 2570 10fc 08F80400 		strb	r0, [r8, r4]
 2571              		.loc 1 860 0
 2572 1100 5C1C     		adds	r4, r3, #1
 2573 1102 052C     		cmp	r4, #5
 2574 1104 CAF80040 		str	r4, [r10]
 2575 1108 E8DD     		ble	.L296
 2576              		.loc 1 865 0
 2577 110a 0D23     		movs	r3, #13
 2578 110c CAF80030 		str	r3, [r10]
 2579              	.L300:
 2580 1110 DAB2     		uxtb	r2, r3
 2581 1112 DC1F     		subs	r4, r3, #7
 2582              		.loc 1 866 0
 2583 1114 511E     		subs	r1, r2, #1
 2584 1116 DB07     		lsls	r3, r3, #31
 2585              		.loc 1 867 0
 2586 1118 02F10102 		add	r2, r2, #1
 2587              		.loc 1 866 0
 2588 111c 4FF0C000 		mov	r0, #192
 2589 1120 C9B2     		uxtb	r1, r1
 2590              		.loc 1 867 0
 2591 1122 44BF     		itt	mi
 2592 1124 C020     		movmi	r0, #192
 2593 1126 D1B2     		uxtbmi	r1, r2
 2594 1128 FFF7FEFF 		bl	e_i2cp_read
 2595              	.LVL213:
 2596              		.loc 1 865 0
 2597 112c DAF80030 		ldr	r3, [r10]
 2598              		.loc 1 867 0
 2599 1130 08F80400 		strb	r0, [r8, r4]
 2600              		.loc 1 865 0
 2601 1134 0133     		adds	r3, r3, #1
 2602 1136 102B     		cmp	r3, #16
 2603 1138 CAF80030 		str	r3, [r10]
 2604 113c E8DD     		ble	.L300
 2605              		.loc 1 870 0
 2606 113e FFF7FEFF 		bl	e_i2cp_disable
 2607              	.LVL214:
 2608              		.loc 1 883 0
 2609 1142 98F80950 		ldrb	r5, [r8, #9]	@ zero_extendqisi2
 2610              		.loc 1 881 0
 2611 1146 98F80730 		ldrb	r3, [r8, #7]	@ zero_extendqisi2
 2612              		.loc 1 882 0
 2613 114a 98F80800 		ldrb	r0, [r8, #8]	@ zero_extendqisi2
 2614              		.loc 1 880 0
 2615 114e 98F80620 		ldrb	r2, [r8, #6]	@ zero_extendqisi2
 2616              		.loc 1 879 0
 2617 1152 98F80540 		ldrb	r4, [r8, #5]	@ zero_extendqisi2
 2618              		.loc 1 878 0
 2619 1156 98F80410 		ldrb	r1, [r8, #4]	@ zero_extendqisi2
 2620              		.loc 1 873 0
 2621 115a 00EB0520 		add	r0, r0, r5, lsl #8
 2622 115e 02EB0322 		add	r2, r2, r3, lsl #8
ARM GAS  C:\Users\mathi\AppData\Local\Temp\cc0ZaFXf.s 			page 47


 2623 1162 0290     		str	r0, [sp, #8]
 2624              		.loc 1 877 0
 2625 1164 98F80330 		ldrb	r3, [r8, #3]	@ zero_extendqisi2
 2626              		.loc 1 875 0
 2627 1168 98F80100 		ldrb	r0, [r8, #1]	@ zero_extendqisi2
 2628              		.loc 1 876 0
 2629 116c 98F80250 		ldrb	r5, [r8, #2]	@ zero_extendqisi2
 2630              		.loc 1 873 0
 2631 1170 0192     		str	r2, [sp, #4]
 2632              		.loc 1 874 0
 2633 1172 98F80020 		ldrb	r2, [r8]	@ zero_extendqisi2
 2634              		.loc 1 873 0
 2635 1176 01EB0421 		add	r1, r1, r4, lsl #8
 2636 117a 02EB0022 		add	r2, r2, r0, lsl #8
 2637 117e 0091     		str	r1, [sp]
 2638 1180 05EB0323 		add	r3, r5, r3, lsl #8
 2639 1184 7049     		ldr	r1, .L696+16
 2640 1186 6D48     		ldr	r0, .L696+4
 2641 1188 FFF7FEFF 		bl	sprintf
 2642              	.LVL215:
 2643              		.loc 1 893 0
 2644 118c 6B48     		ldr	r0, .L696+4
 2645 118e FFF7FEFF 		bl	strlen
 2646              	.LVL216:
 2647 1192 0146     		mov	r1, r0
 2648 1194 6948     		ldr	r0, .L696+4
 2649 1196 FFF7FEFF 		bl	e_send_uart1_char
 2650              	.LVL217:
 2651              	.L304:
 2652              		.loc 1 893 0 is_stmt 0 discriminator 2
 2653 119a FFF7FEFF 		bl	e_uart1_sending
 2654              	.LVL218:
 2655 119e 0028     		cmp	r0, #0
 2656 11a0 FBD1     		bne	.L304
 2657 11a2 FEF78EBF 		b	.L4
 2658              	.L170:
 2659              		.loc 1 676 0 is_stmt 1
 2660 11a6 694B     		ldr	r3, .L696+20
 2661 11a8 694A     		ldr	r2, .L696+24
 2662 11aa 1B68     		ldr	r3, [r3]
 2663 11ac 1268     		ldr	r2, [r2]
 2664 11ae 6949     		ldr	r1, .L696+28
 2665 11b0 6248     		ldr	r0, .L696+4
 2666 11b2 FFF7FEFF 		bl	sprintf
 2667              	.LVL219:
 2668              		.loc 1 677 0
 2669 11b6 099B     		ldr	r3, [sp, #36]
 2670              		.loc 1 678 0
 2671 11b8 6048     		ldr	r0, .L696+4
 2672              		.loc 1 677 0
 2673 11ba 002B     		cmp	r3, #0
 2674 11bc 00F02585 		beq	.L210
 2675              		.loc 1 678 0
 2676 11c0 FFF7FEFF 		bl	strlen
 2677              	.LVL220:
 2678 11c4 0146     		mov	r1, r0
 2679 11c6 5D48     		ldr	r0, .L696+4
ARM GAS  C:\Users\mathi\AppData\Local\Temp\cc0ZaFXf.s 			page 48


 2680 11c8 FFF7FEFF 		bl	e_send_uart1_char
 2681              	.LVL221:
 2682              	.L211:
 2683              		.loc 1 678 0 is_stmt 0 discriminator 2
 2684 11cc FFF7FEFF 		bl	e_uart1_sending
 2685              	.LVL222:
 2686 11d0 0028     		cmp	r0, #0
 2687 11d2 FBD1     		bne	.L211
 2688 11d4 FEF775BF 		b	.L4
 2689              	.L174:
 2690              		.loc 1 795 0 is_stmt 1
 2691 11d8 099B     		ldr	r3, [sp, #36]
 2692 11da 002B     		cmp	r3, #0
 2693 11dc 3FF41EA8 		beq	.L626
 2694              		.loc 1 796 0
 2695 11e0 1399     		ldr	r1, [sp, #76]
 2696 11e2 119B     		ldr	r3, [sp, #68]
 2697 11e4 0C68     		ldr	r4, [r1]
 2698 11e6 1599     		ldr	r1, [sp, #84]
 2699 11e8 149A     		ldr	r2, [sp, #80]
 2700 11ea 0868     		ldr	r0, [r1]
 2701 11ec 1299     		ldr	r1, [sp, #72]
 2702 11ee 1B68     		ldr	r3, [r3]
 2703 11f0 0968     		ldr	r1, [r1]
 2704 11f2 1268     		ldr	r2, [r2]
 2705 11f4 0091     		str	r1, [sp]
 2706 11f6 CDE90104 		strd	r0, r4, [sp, #4]
 2707 11fa 5749     		ldr	r1, .L696+32
 2708 11fc 4F48     		ldr	r0, .L696+4
 2709 11fe FFF7FEFF 		bl	sprintf
 2710              	.LVL223:
 2711              		.loc 1 797 0
 2712 1202 4E48     		ldr	r0, .L696+4
 2713 1204 FFF7FEFF 		bl	strlen
 2714              	.LVL224:
 2715 1208 0146     		mov	r1, r0
 2716 120a 4C48     		ldr	r0, .L696+4
 2717 120c FFF7FEFF 		bl	e_send_uart1_char
 2718              	.LVL225:
 2719              	.L278:
 2720              		.loc 1 797 0 is_stmt 0 discriminator 2
 2721 1210 FFF7FEFF 		bl	e_uart1_sending
 2722              	.LVL226:
 2723 1214 0028     		cmp	r0, #0
 2724 1216 FBD1     		bne	.L278
 2725 1218 FEF753BF 		b	.L4
 2726              	.L165:
 2727              		.loc 1 620 0 is_stmt 1
 2728 121c 099B     		ldr	r3, [sp, #36]
 2729 121e 002B     		cmp	r3, #0
 2730 1220 00F01B85 		beq	.L191
 2731              		.loc 1 621 0
 2732 1224 0121     		movs	r1, #1
 2733 1226 0020     		movs	r0, #0
 2734 1228 FFF7FEFF 		bl	e_get_acc_filtered
 2735              	.LVL227:
 2736 122c 0121     		movs	r1, #1
ARM GAS  C:\Users\mathi\AppData\Local\Temp\cc0ZaFXf.s 			page 49


 2737 122e 0446     		mov	r4, r0
 2738 1230 0846     		mov	r0, r1
 2739 1232 FFF7FEFF 		bl	e_get_acc_filtered
 2740              	.LVL228:
 2741 1236 0121     		movs	r1, #1
 2742 1238 0546     		mov	r5, r0
 2743 123a 0220     		movs	r0, #2
 2744 123c FFF7FEFF 		bl	e_get_acc_filtered
 2745              	.LVL229:
 2746 1240 4649     		ldr	r1, .L696+36
 2747 1242 0090     		str	r0, [sp]
 2748 1244 2B46     		mov	r3, r5
 2749 1246 2246     		mov	r2, r4
 2750 1248 3C48     		ldr	r0, .L696+4
 2751 124a FFF7FEFF 		bl	sprintf
 2752              	.LVL230:
 2753              		.loc 1 630 0
 2754 124e 3B48     		ldr	r0, .L696+4
 2755 1250 FFF7FEFF 		bl	strlen
 2756              	.LVL231:
 2757 1254 0146     		mov	r1, r0
 2758 1256 3948     		ldr	r0, .L696+4
 2759 1258 FFF7FEFF 		bl	e_send_uart1_char
 2760              	.LVL232:
 2761              	.L192:
 2762              		.loc 1 630 0 is_stmt 0 discriminator 2
 2763 125c FFF7FEFF 		bl	e_uart1_sending
 2764              	.LVL233:
 2765 1260 0028     		cmp	r0, #0
 2766 1262 FBD1     		bne	.L192
 2767 1264 FEF72DBF 		b	.L4
 2768              	.L176:
 2769              		.loc 1 828 0 is_stmt 1
 2770 1268 099B     		ldr	r3, [sp, #36]
 2771              		.loc 1 829 0
 2772 126a 3D48     		ldr	r0, .L696+40
 2773 126c 3E21     		movs	r1, #62
 2774              		.loc 1 828 0
 2775 126e 002B     		cmp	r3, #0
 2776 1270 00F03184 		beq	.L286
 2777              		.loc 1 829 0
 2778 1274 FFF7FEFF 		bl	e_send_uart1_char
 2779              	.LVL234:
 2780              	.L287:
 2781              		.loc 1 829 0 is_stmt 0 discriminator 2
 2782 1278 FFF7FEFF 		bl	e_uart1_sending
 2783              	.LVL235:
 2784 127c 0028     		cmp	r0, #0
 2785 127e FBD1     		bne	.L287
 2786              		.loc 1 834 0 is_stmt 1
 2787 1280 0121     		movs	r1, #1
 2788 1282 0820     		movs	r0, #8
 2789 1284 FFF7FEFF 		bl	e_set_led
 2790              	.LVL236:
 2791              		.loc 1 836 0
 2792 1288 4FF4C870 		mov	r0, #400
 2793 128c FFF7FEFF 		bl	chThdSleep
ARM GAS  C:\Users\mathi\AppData\Local\Temp\cc0ZaFXf.s 			page 50


 2794              	.LVL237:
 2795              		.loc 1 837 0
 2796 1290 FFF7FEFF 		bl	e_led_clear
 2797              	.LVL238:
 2798              		.loc 1 839 0
 2799 1294 6420     		movs	r0, #100
 2800 1296 FFF7FEFF 		bl	chThdSleep
 2801              	.LVL239:
 2802              		.loc 1 840 0
 2803 129a FFF7FEFF 		bl	e_calibrate_ir
 2804              	.LVL240:
 2805              		.loc 1 842 0
 2806 129e 1921     		movs	r1, #25
 2807 12a0 3048     		ldr	r0, .L696+44
 2808 12a2 FFF7FEFF 		bl	e_send_uart1_char
 2809              	.LVL241:
 2810              	.L291:
 2811              		.loc 1 842 0 is_stmt 0 discriminator 2
 2812 12a6 FFF7FEFF 		bl	e_uart1_sending
 2813              	.LVL242:
 2814 12aa 0028     		cmp	r0, #0
 2815 12ac FBD1     		bne	.L291
 2816 12ae FEF708BF 		b	.L4
 2817              	.LVL243:
 2818              	.L168:
 2819              		.loc 1 657 0 is_stmt 1
 2820 12b2 2D4A     		ldr	r2, .L696+48
 2821 12b4 2D49     		ldr	r1, .L696+52
 2822 12b6 1369     		ldr	r3, [r2, #16]
 2823 12b8 1069     		ldr	r0, [r2, #16]
 2824 12ba 0C69     		ldr	r4, [r1, #16]
 2825 12bc 1269     		ldr	r2, [r2, #16]
 2826              		.loc 1 658 0
 2827 12be 2C49     		ldr	r1, .L696+56
 2828              		.loc 1 657 0
 2829 12c0 C4F30014 		ubfx	r4, r4, #4, #1
 2830 12c4 C0F3C030 		ubfx	r0, r0, #15, #1
 2831 12c8 00EB4400 		add	r0, r0, r4, lsl #1
 2832 12cc C2F38032 		ubfx	r2, r2, #14, #1
 2833 12d0 02EB4002 		add	r2, r2, r0, lsl #1
 2834 12d4 C3F34033 		ubfx	r3, r3, #13, #1
 2835 12d8 03EB4203 		add	r3, r3, r2, lsl #1
 2836 12dc 254C     		ldr	r4, .L696+60
 2837              		.loc 1 658 0
 2838 12de 1748     		ldr	r0, .L696+4
 2839              		.loc 1 657 0
 2840 12e0 2360     		str	r3, [r4]
 2841              		.loc 1 658 0
 2842 12e2 1A46     		mov	r2, r3
 2843 12e4 FFF7FEFF 		bl	sprintf
 2844              	.LVL244:
 2845              		.loc 1 659 0
 2846 12e8 099B     		ldr	r3, [sp, #36]
 2847              		.loc 1 660 0
 2848 12ea 1448     		ldr	r0, .L696+4
 2849              		.loc 1 659 0
 2850 12ec 002B     		cmp	r3, #0
ARM GAS  C:\Users\mathi\AppData\Local\Temp\cc0ZaFXf.s 			page 51


 2851 12ee 00F0F585 		beq	.L204
 2852              		.loc 1 660 0
 2853 12f2 FFF7FEFF 		bl	strlen
 2854              	.LVL245:
 2855 12f6 0146     		mov	r1, r0
 2856 12f8 1048     		ldr	r0, .L696+4
 2857 12fa FFF7FEFF 		bl	e_send_uart1_char
 2858              	.LVL246:
 2859              	.L205:
 2860              		.loc 1 660 0 is_stmt 0 discriminator 2
 2861 12fe FFF7FEFF 		bl	e_uart1_sending
 2862              	.LVL247:
 2863 1302 0028     		cmp	r0, #0
 2864 1304 FBD1     		bne	.L205
 2865 1306 FEF7DCBE 		b	.L4
 2866              	.L167:
 2867              		.loc 1 648 0 is_stmt 1
 2868 130a 1B4A     		ldr	r2, .L696+64
 2869 130c 1B49     		ldr	r1, .L696+68
 2870 130e 0B48     		ldr	r0, .L696+4
 2871 1310 FFF7FEFF 		bl	sscanf
 2872              	.LVL248:
 2873              		.loc 1 649 0
 2874 1314 099B     		ldr	r3, [sp, #36]
 2875 1316 002B     		cmp	r3, #0
 2876 1318 00F03C85 		beq	.L201
 2877              		.loc 1 650 0
 2878 131c 164B     		ldr	r3, .L696+64
 2879 131e 1868     		ldr	r0, [r3]
 2880 1320 FFF7FEFF 		bl	e_set_body_led
 2881              	.LVL249:
 2882              		.loc 1 651 0
 2883 1324 0321     		movs	r1, #3
 2884 1326 1648     		ldr	r0, .L696+72
 2885 1328 FFF7FEFF 		bl	e_send_uart1_char
 2886              	.LVL250:
 2887              	.L202:
 2888              		.loc 1 651 0 is_stmt 0 discriminator 2
 2889 132c FFF7FEFF 		bl	e_uart1_sending
 2890              	.LVL251:
 2891 1330 0028     		cmp	r0, #0
 2892 1332 FBD1     		bne	.L202
 2893 1334 FEF7C5BE 		b	.L4
 2894              	.L697:
 2895              		.align	2
 2896              	.L696:
 2897 1338 FC080000 		.word	.LC70
 2898 133c 00000000 		.word	buffer
 2899 1340 B0090000 		.word	.LC81
 2900 1344 98090000 		.word	.LC77
 2901 1348 E8080000 		.word	.LC69
 2902 134c 00000000 		.word	.LANCHOR7
 2903 1350 00000000 		.word	.LANCHOR8
 2904 1354 B4000000 		.word	.LC10
 2905 1358 68080000 		.word	.LC63
 2906 135c 5C000000 		.word	.LC1
 2907 1360 98080000 		.word	.LC66
ARM GAS  C:\Users\mathi\AppData\Local\Temp\cc0ZaFXf.s 			page 52


 2908 1364 3C0A0000 		.word	.LC90
 2909 1368 00080240 		.word	1073874944
 2910 136c 000C0240 		.word	1073875968
 2911 1370 9C000000 		.word	.LC7
 2912 1374 00000000 		.word	.LANCHOR0
 2913 1378 00000000 		.word	.LANCHOR28
 2914 137c 90000000 		.word	.LC5
 2915 1380 98000000 		.word	.LC6
 2916              	.L169:
 2917              		.loc 1 666 0 is_stmt 1
 2918 1384 9D49     		ldr	r1, .L698
 2919 1386 9E4A     		ldr	r2, .L698+4
 2920 1388 9E4B     		ldr	r3, .L698+8
 2921 138a 9F48     		ldr	r0, .L698+12
 2922 138c FFF7FEFF 		bl	sscanf
 2923              	.LVL252:
 2924              		.loc 1 667 0
 2925 1390 9B4B     		ldr	r3, .L698+4
 2926 1392 1868     		ldr	r0, [r3]
 2927 1394 FFF7FEFF 		bl	e_set_speed_left
 2928              	.LVL253:
 2929              		.loc 1 668 0
 2930 1398 9A4B     		ldr	r3, .L698+8
 2931 139a 1868     		ldr	r0, [r3]
 2932 139c FFF7FEFF 		bl	e_set_speed_right
 2933              	.LVL254:
 2934              		.loc 1 669 0
 2935 13a0 099B     		ldr	r3, [sp, #36]
 2936              		.loc 1 670 0
 2937 13a2 9A48     		ldr	r0, .L698+16
 2938 13a4 0321     		movs	r1, #3
 2939              		.loc 1 669 0
 2940 13a6 002B     		cmp	r3, #0
 2941 13a8 00F02784 		beq	.L207
 2942              		.loc 1 670 0
 2943 13ac FFF7FEFF 		bl	e_send_uart1_char
 2944              	.LVL255:
 2945              	.L208:
 2946              		.loc 1 670 0 is_stmt 0 discriminator 2
 2947 13b0 FFF7FEFF 		bl	e_uart1_sending
 2948              	.LVL256:
 2949 13b4 0028     		cmp	r0, #0
 2950 13b6 FBD1     		bne	.L208
 2951 13b8 FEF783BE 		b	.L4
 2952              	.L172:
 2953              		.loc 1 694 0 is_stmt 1
 2954 13bc 099B     		ldr	r3, [sp, #36]
 2955 13be 002B     		cmp	r3, #0
 2956 13c0 3EF42CAF 		beq	.L626
 2957              		.loc 1 695 0
 2958 13c4 FFF7FEFF 		bl	e_get_check
 2959              	.LVL257:
 2960 13c8 0446     		mov	r4, r0
 2961 13ca FFF7FEFF 		bl	e_get_address
 2962              	.LVL258:
 2963 13ce 0546     		mov	r5, r0
 2964 13d0 FFF7FEFF 		bl	e_get_data
ARM GAS  C:\Users\mathi\AppData\Local\Temp\cc0ZaFXf.s 			page 53


 2965              	.LVL259:
 2966 13d4 8E49     		ldr	r1, .L698+20
 2967 13d6 0090     		str	r0, [sp]
 2968 13d8 2B46     		mov	r3, r5
 2969 13da 2246     		mov	r2, r4
 2970 13dc 8A48     		ldr	r0, .L698+12
 2971 13de FFF7FEFF 		bl	sprintf
 2972              	.LVL260:
 2973              		.loc 1 696 0
 2974 13e2 8948     		ldr	r0, .L698+12
 2975 13e4 FFF7FEFF 		bl	strlen
 2976              	.LVL261:
 2977 13e8 0146     		mov	r1, r0
 2978 13ea 8748     		ldr	r0, .L698+12
 2979 13ec FFF7FEFF 		bl	e_send_uart1_char
 2980              	.LVL262:
 2981              	.L216:
 2982              		.loc 1 696 0 is_stmt 0 discriminator 2
 2983 13f0 FFF7FEFF 		bl	e_uart1_sending
 2984              	.LVL263:
 2985 13f4 0028     		cmp	r0, #0
 2986 13f6 FBD1     		bne	.L216
 2987 13f8 FEF763BE 		b	.L4
 2988              	.L177:
 2989              		.loc 1 848 0 is_stmt 1
 2990 13fc 854B     		ldr	r3, .L698+24
 2991 13fe 864A     		ldr	r2, .L698+28
 2992 1400 8649     		ldr	r1, .L698+32
 2993 1402 8148     		ldr	r0, .L698+12
 2994 1404 FFF7FEFF 		bl	sscanf
 2995              	.LVL264:
 2996              		.loc 1 849 0
 2997 1408 824B     		ldr	r3, .L698+24
 2998 140a 1968     		ldr	r1, [r3]
 2999 140c 824B     		ldr	r3, .L698+28
 3000 140e 1868     		ldr	r0, [r3]
 3001 1410 FFF7FEFF 		bl	e_set_led
 3002              	.LVL265:
 3003              		.loc 1 850 0
 3004 1414 099B     		ldr	r3, [sp, #36]
 3005              		.loc 1 851 0
 3006 1416 8248     		ldr	r0, .L698+36
 3007 1418 0321     		movs	r1, #3
 3008              		.loc 1 850 0
 3009 141a 002B     		cmp	r3, #0
 3010 141c 00F00184 		beq	.L293
 3011              		.loc 1 851 0
 3012 1420 FFF7FEFF 		bl	e_send_uart1_char
 3013              	.LVL266:
 3014              	.L294:
 3015              		.loc 1 851 0 is_stmt 0 discriminator 2
 3016 1424 FFF7FEFF 		bl	e_uart1_sending
 3017              	.LVL267:
 3018 1428 0028     		cmp	r0, #0
 3019 142a FBD1     		bne	.L294
 3020 142c FEF749BE 		b	.L4
 3021              	.L173:
ARM GAS  C:\Users\mathi\AppData\Local\Temp\cc0ZaFXf.s 			page 54


 3022              		.loc 1 714 0 is_stmt 1
 3023 1430 099B     		ldr	r3, [sp, #36]
 3024              		.loc 1 715 0
 3025 1432 7C48     		ldr	r0, .L698+40
 3026 1434 0121     		movs	r1, #1
 3027              		.loc 1 714 0
 3028 1436 002B     		cmp	r3, #0
 3029 1438 00F0B684 		beq	.L221
 3030              		.loc 1 715 0
 3031 143c FFF7FEFF 		bl	e_send_uart1_char
 3032              	.LVL268:
 3033              	.L222:
 3034              		.loc 1 715 0 is_stmt 0 discriminator 2
 3035 1440 FFF7FEFF 		bl	e_uart1_sending
 3036              	.LVL269:
 3037 1444 0028     		cmp	r0, #0
 3038 1446 FBD1     		bne	.L222
 3039              		.loc 1 716 0 is_stmt 1
 3040 1448 2121     		movs	r1, #33
 3041 144a 7748     		ldr	r0, .L698+44
 3042 144c FFF7FEFF 		bl	e_send_uart1_char
 3043              	.LVL270:
 3044              	.L223:
 3045              		.loc 1 716 0 is_stmt 0 discriminator 2
 3046 1450 FFF7FEFF 		bl	e_uart1_sending
 3047              	.LVL271:
 3048 1454 0028     		cmp	r0, #0
 3049 1456 FBD1     		bne	.L223
 3050              		.loc 1 717 0 is_stmt 1
 3051 1458 3121     		movs	r1, #49
 3052 145a 7448     		ldr	r0, .L698+48
 3053 145c FFF7FEFF 		bl	e_send_uart1_char
 3054              	.LVL272:
 3055              	.L224:
 3056              		.loc 1 717 0 is_stmt 0 discriminator 2
 3057 1460 FFF7FEFF 		bl	e_uart1_sending
 3058              	.LVL273:
 3059 1464 0028     		cmp	r0, #0
 3060 1466 FBD1     		bne	.L224
 3061              		.loc 1 718 0 is_stmt 1
 3062 1468 FFF7FEFF 		bl	isEpuckVersion1_3
 3063              	.LVL274:
 3064 146c 0028     		cmp	r0, #0
 3065 146e 00F06985 		beq	.L225
 3066              		.loc 1 719 0
 3067 1472 2121     		movs	r1, #33
 3068 1474 6E48     		ldr	r0, .L698+52
 3069 1476 FFF7FEFF 		bl	e_send_uart1_char
 3070              	.LVL275:
 3071              	.L226:
 3072              		.loc 1 719 0 is_stmt 0 discriminator 2
 3073 147a FFF7FEFF 		bl	e_uart1_sending
 3074              	.LVL276:
 3075 147e 0028     		cmp	r0, #0
 3076 1480 FBD1     		bne	.L226
 3077              	.L227:
 3078              		.loc 1 723 0 is_stmt 1
ARM GAS  C:\Users\mathi\AppData\Local\Temp\cc0ZaFXf.s 			page 55


 3079 1482 2521     		movs	r1, #37
 3080 1484 6B48     		ldr	r0, .L698+56
 3081 1486 FFF7FEFF 		bl	e_send_uart1_char
 3082              	.LVL277:
 3083              	.L229:
 3084              		.loc 1 723 0 is_stmt 0 discriminator 2
 3085 148a FFF7FEFF 		bl	e_uart1_sending
 3086              	.LVL278:
 3087 148e 0028     		cmp	r0, #0
 3088 1490 FBD1     		bne	.L229
 3089              		.loc 1 724 0 is_stmt 1
 3090 1492 2E21     		movs	r1, #46
 3091 1494 6848     		ldr	r0, .L698+60
 3092 1496 FFF7FEFF 		bl	e_send_uart1_char
 3093              	.LVL279:
 3094              	.L230:
 3095              		.loc 1 724 0 is_stmt 0 discriminator 2
 3096 149a FFF7FEFF 		bl	e_uart1_sending
 3097              	.LVL280:
 3098 149e 0028     		cmp	r0, #0
 3099 14a0 FBD1     		bne	.L230
 3100              		.loc 1 725 0 is_stmt 1
 3101 14a2 2E21     		movs	r1, #46
 3102 14a4 6548     		ldr	r0, .L698+64
 3103 14a6 FFF7FEFF 		bl	e_send_uart1_char
 3104              	.LVL281:
 3105              	.L231:
 3106              		.loc 1 725 0 is_stmt 0 discriminator 2
 3107 14aa FFF7FEFF 		bl	e_uart1_sending
 3108              	.LVL282:
 3109 14ae 0028     		cmp	r0, #0
 3110 14b0 FBD1     		bne	.L231
 3111              		.loc 1 726 0 is_stmt 1
 3112 14b2 3221     		movs	r1, #50
 3113 14b4 6248     		ldr	r0, .L698+68
 3114 14b6 FFF7FEFF 		bl	e_send_uart1_char
 3115              	.LVL283:
 3116              	.L232:
 3117              		.loc 1 726 0 is_stmt 0 discriminator 2
 3118 14ba FFF7FEFF 		bl	e_uart1_sending
 3119              	.LVL284:
 3120 14be 0028     		cmp	r0, #0
 3121 14c0 FBD1     		bne	.L232
 3122              		.loc 1 728 0 is_stmt 1
 3123 14c2 1F21     		movs	r1, #31
 3124 14c4 5F48     		ldr	r0, .L698+72
 3125 14c6 FFF7FEFF 		bl	e_send_uart1_char
 3126              	.LVL285:
 3127              	.L233:
 3128              		.loc 1 728 0 is_stmt 0 discriminator 2
 3129 14ca FFF7FEFF 		bl	e_uart1_sending
 3130              	.LVL286:
 3131 14ce 0028     		cmp	r0, #0
 3132 14d0 FBD1     		bne	.L233
 3133              		.loc 1 730 0 is_stmt 1
 3134 14d2 FFF7FEFF 		bl	isEpuckVersion1_3
 3135              	.LVL287:
ARM GAS  C:\Users\mathi\AppData\Local\Temp\cc0ZaFXf.s 			page 56


 3136 14d6 0028     		cmp	r0, #0
 3137 14d8 40F07B85 		bne	.L683
 3138              	.L234:
 3139              		.loc 1 733 0
 3140 14dc 1821     		movs	r1, #24
 3141 14de 5A48     		ldr	r0, .L698+76
 3142 14e0 FFF7FEFF 		bl	e_send_uart1_char
 3143              	.LVL288:
 3144              	.L236:
 3145              		.loc 1 733 0 is_stmt 0 discriminator 2
 3146 14e4 FFF7FEFF 		bl	e_uart1_sending
 3147              	.LVL289:
 3148 14e8 0028     		cmp	r0, #0
 3149 14ea FBD1     		bne	.L236
 3150              		.loc 1 734 0 is_stmt 1
 3151 14ec 2821     		movs	r1, #40
 3152 14ee 5748     		ldr	r0, .L698+80
 3153 14f0 FFF7FEFF 		bl	e_send_uart1_char
 3154              	.LVL290:
 3155              	.L237:
 3156              		.loc 1 734 0 is_stmt 0 discriminator 2
 3157 14f4 FFF7FEFF 		bl	e_uart1_sending
 3158              	.LVL291:
 3159 14f8 0028     		cmp	r0, #0
 3160 14fa FBD1     		bne	.L237
 3161              		.loc 1 735 0 is_stmt 1
 3162 14fc 4F21     		movs	r1, #79
 3163 14fe 5448     		ldr	r0, .L698+84
 3164 1500 FFF7FEFF 		bl	e_send_uart1_char
 3165              	.LVL292:
 3166              	.L238:
 3167              		.loc 1 735 0 is_stmt 0 discriminator 2
 3168 1504 FFF7FEFF 		bl	e_uart1_sending
 3169              	.LVL293:
 3170 1508 0028     		cmp	r0, #0
 3171 150a FBD1     		bne	.L238
 3172              		.loc 1 736 0 is_stmt 1
 3173 150c 2F21     		movs	r1, #47
 3174 150e 5148     		ldr	r0, .L698+88
 3175 1510 FFF7FEFF 		bl	e_send_uart1_char
 3176              	.LVL294:
 3177              	.L239:
 3178              		.loc 1 736 0 is_stmt 0 discriminator 2
 3179 1514 FFF7FEFF 		bl	e_uart1_sending
 3180              	.LVL295:
 3181 1518 0028     		cmp	r0, #0
 3182 151a FBD1     		bne	.L239
 3183              		.loc 1 737 0 is_stmt 1
 3184 151c 3321     		movs	r1, #51
 3185 151e 4E48     		ldr	r0, .L698+92
 3186 1520 FFF7FEFF 		bl	e_send_uart1_char
 3187              	.LVL296:
 3188              	.L240:
 3189              		.loc 1 737 0 is_stmt 0 discriminator 2
 3190 1524 FFF7FEFF 		bl	e_uart1_sending
 3191              	.LVL297:
 3192 1528 0028     		cmp	r0, #0
ARM GAS  C:\Users\mathi\AppData\Local\Temp\cc0ZaFXf.s 			page 57


 3193 152a FBD1     		bne	.L240
 3194              		.loc 1 739 0 is_stmt 1
 3195 152c 2121     		movs	r1, #33
 3196 152e 4B48     		ldr	r0, .L698+96
 3197 1530 FFF7FEFF 		bl	e_send_uart1_char
 3198              	.LVL298:
 3199              	.L241:
 3200              		.loc 1 739 0 is_stmt 0 discriminator 2
 3201 1534 FFF7FEFF 		bl	e_uart1_sending
 3202              	.LVL299:
 3203 1538 0028     		cmp	r0, #0
 3204 153a FBD1     		bne	.L241
 3205              		.loc 1 741 0 is_stmt 1
 3206 153c 1D21     		movs	r1, #29
 3207 153e 4848     		ldr	r0, .L698+100
 3208 1540 FFF7FEFF 		bl	e_send_uart1_char
 3209              	.LVL300:
 3210              	.L242:
 3211              		.loc 1 741 0 is_stmt 0 discriminator 2
 3212 1544 FFF7FEFF 		bl	e_uart1_sending
 3213              	.LVL301:
 3214 1548 0028     		cmp	r0, #0
 3215 154a FBD1     		bne	.L242
 3216              		.loc 1 742 0 is_stmt 1
 3217 154c 2121     		movs	r1, #33
 3218 154e 4548     		ldr	r0, .L698+104
 3219 1550 FFF7FEFF 		bl	e_send_uart1_char
 3220              	.LVL302:
 3221              	.L243:
 3222              		.loc 1 742 0 is_stmt 0 discriminator 2
 3223 1554 FFF7FEFF 		bl	e_uart1_sending
 3224              	.LVL303:
 3225 1558 0028     		cmp	r0, #0
 3226 155a FBD1     		bne	.L243
 3227              		.loc 1 743 0 is_stmt 1
 3228 155c 3121     		movs	r1, #49
 3229 155e 4248     		ldr	r0, .L698+108
 3230 1560 FFF7FEFF 		bl	e_send_uart1_char
 3231              	.LVL304:
 3232              	.L244:
 3233              		.loc 1 743 0 is_stmt 0 discriminator 2
 3234 1564 FFF7FEFF 		bl	e_uart1_sending
 3235              	.LVL305:
 3236 1568 0028     		cmp	r0, #0
 3237 156a FBD1     		bne	.L244
 3238              		.loc 1 744 0 is_stmt 1
 3239 156c 3121     		movs	r1, #49
 3240 156e 3F48     		ldr	r0, .L698+112
 3241 1570 FFF7FEFF 		bl	e_send_uart1_char
 3242              	.LVL306:
 3243              	.L245:
 3244              		.loc 1 744 0 is_stmt 0 discriminator 2
 3245 1574 FFF7FEFF 		bl	e_uart1_sending
 3246              	.LVL307:
 3247 1578 0028     		cmp	r0, #0
 3248 157a FBD1     		bne	.L245
 3249              		.loc 1 745 0 is_stmt 1
ARM GAS  C:\Users\mathi\AppData\Local\Temp\cc0ZaFXf.s 			page 58


 3250 157c 2021     		movs	r1, #32
 3251 157e 3C48     		ldr	r0, .L698+116
 3252 1580 FFF7FEFF 		bl	e_send_uart1_char
 3253              	.LVL308:
 3254              	.L246:
 3255              		.loc 1 745 0 is_stmt 0 discriminator 2
 3256 1584 FFF7FEFF 		bl	e_uart1_sending
 3257              	.LVL309:
 3258 1588 0028     		cmp	r0, #0
 3259 158a FBD1     		bne	.L246
 3260              		.loc 1 746 0 is_stmt 1
 3261 158c 3121     		movs	r1, #49
 3262 158e 3948     		ldr	r0, .L698+120
 3263 1590 FFF7FEFF 		bl	e_send_uart1_char
 3264              	.LVL310:
 3265              	.L247:
 3266              		.loc 1 746 0 is_stmt 0 discriminator 2
 3267 1594 FFF7FEFF 		bl	e_uart1_sending
 3268              	.LVL311:
 3269 1598 0028     		cmp	r0, #0
 3270 159a FBD1     		bne	.L247
 3271              		.loc 1 747 0 is_stmt 1
 3272 159c 3221     		movs	r1, #50
 3273 159e 3648     		ldr	r0, .L698+124
 3274 15a0 FFF7FEFF 		bl	e_send_uart1_char
 3275              	.LVL312:
 3276              	.L248:
 3277              		.loc 1 747 0 is_stmt 0 discriminator 2
 3278 15a4 FFF7FEFF 		bl	e_uart1_sending
 3279              	.LVL313:
 3280 15a8 0028     		cmp	r0, #0
 3281 15aa FBD1     		bne	.L248
 3282              		.loc 1 748 0 is_stmt 1
 3283 15ac FFF7FEFF 		bl	isEpuckVersion1_3
 3284              	.LVL314:
 3285 15b0 0028     		cmp	r0, #0
 3286 15b2 40F00485 		bne	.L684
 3287              	.L249:
 3288              		.loc 1 751 0
 3289 15b6 2C21     		movs	r1, #44
 3290 15b8 3048     		ldr	r0, .L698+128
 3291 15ba FFF7FEFF 		bl	e_send_uart1_char
 3292              	.LVL315:
 3293              	.L251:
 3294              		.loc 1 751 0 is_stmt 0 discriminator 2
 3295 15be FFF7FEFF 		bl	e_uart1_sending
 3296              	.LVL316:
 3297 15c2 0028     		cmp	r0, #0
 3298 15c4 FBD1     		bne	.L251
 3299              		.loc 1 752 0 is_stmt 1
 3300 15c6 2521     		movs	r1, #37
 3301 15c8 2D48     		ldr	r0, .L698+132
 3302 15ca FFF7FEFF 		bl	e_send_uart1_char
 3303              	.LVL317:
 3304              	.L252:
 3305              		.loc 1 752 0 is_stmt 0 discriminator 2
 3306 15ce FFF7FEFF 		bl	e_uart1_sending
ARM GAS  C:\Users\mathi\AppData\Local\Temp\cc0ZaFXf.s 			page 59


 3307              	.LVL318:
 3308 15d2 0028     		cmp	r0, #0
 3309 15d4 FBD1     		bne	.L252
 3310              		.loc 1 753 0 is_stmt 1
 3311 15d6 2B21     		movs	r1, #43
 3312 15d8 2A48     		ldr	r0, .L698+136
 3313 15da FFF7FEFF 		bl	e_send_uart1_char
 3314              	.LVL319:
 3315              	.L253:
 3316              		.loc 1 753 0 is_stmt 0 discriminator 2
 3317 15de FFF7FEFF 		bl	e_uart1_sending
 3318              	.LVL320:
 3319 15e2 0028     		cmp	r0, #0
 3320 15e4 FBD1     		bne	.L253
 3321              		.loc 1 754 0 is_stmt 1
 3322 15e6 2A21     		movs	r1, #42
 3323 15e8 2748     		ldr	r0, .L698+140
 3324 15ea FFF7FEFF 		bl	e_send_uart1_char
 3325              	.LVL321:
 3326              	.L254:
 3327              		.loc 1 754 0 is_stmt 0 discriminator 2
 3328 15ee FFF7FEFF 		bl	e_uart1_sending
 3329              	.LVL322:
 3330 15f2 0028     		cmp	r0, #0
 3331 15f4 FBD1     		bne	.L254
 3332 15f6 FEF764BD 		b	.L4
 3333              	.L699:
 3334 15fa 00BF     		.align	2
 3335              	.L698:
 3336 15fc A4000000 		.word	.LC8
 3337 1600 00000000 		.word	.LANCHOR8
 3338 1604 00000000 		.word	.LANCHOR7
 3339 1608 00000000 		.word	buffer
 3340 160c B0000000 		.word	.LC9
 3341 1610 CC000000 		.word	.LC13
 3342 1614 00000000 		.word	.LANCHOR28
 3343 1618 00000000 		.word	.LANCHOR31
 3344 161c D8080000 		.word	.LC67
 3345 1620 E4080000 		.word	.LC68
 3346 1624 10010000 		.word	.LC15
 3347 1628 14010000 		.word	.LC16
 3348 162c 38010000 		.word	.LC17
 3349 1630 6C010000 		.word	.LC18
 3350 1634 C0010000 		.word	.LC20
 3351 1638 E8010000 		.word	.LC21
 3352 163c 18020000 		.word	.LC22
 3353 1640 48020000 		.word	.LC23
 3354 1644 7C020000 		.word	.LC24
 3355 1648 B8020000 		.word	.LC26
 3356 164c D4020000 		.word	.LC27
 3357 1650 00030000 		.word	.LC28
 3358 1654 50030000 		.word	.LC29
 3359 1658 80030000 		.word	.LC30
 3360 165c B4030000 		.word	.LC31
 3361 1660 D8030000 		.word	.LC32
 3362 1664 F8030000 		.word	.LC33
 3363 1668 1C040000 		.word	.LC34
ARM GAS  C:\Users\mathi\AppData\Local\Temp\cc0ZaFXf.s 			page 60


 3364 166c 50040000 		.word	.LC35
 3365 1670 84040000 		.word	.LC36
 3366 1674 A8040000 		.word	.LC37
 3367 1678 DC040000 		.word	.LC38
 3368 167c 30050000 		.word	.LC40
 3369 1680 60050000 		.word	.LC41
 3370 1684 88050000 		.word	.LC42
 3371 1688 B4050000 		.word	.LC43
 3372              	.L175:
 3373              		.loc 1 801 0 is_stmt 1
 3374 168c 099B     		ldr	r3, [sp, #36]
 3375 168e 002B     		cmp	r3, #0
 3376 1690 3EF4C4AD 		beq	.L626
 3377              		.loc 1 804 0
 3378 1694 159B     		ldr	r3, [sp, #84]
 3379 1696 B04D     		ldr	r5, .L700
 3380 1698 B04E     		ldr	r6, .L700+4
 3381 169a 0193     		str	r3, [sp, #4]
 3382              		.loc 1 802 0
 3383 169c 4FF0FF34 		mov	r4, #-1
 3384              		.loc 1 804 0
 3385 16a0 129B     		ldr	r3, [sp, #72]
 3386 16a2 0093     		str	r3, [sp]
 3387 16a4 0395     		str	r5, [sp, #12]
 3388 16a6 0296     		str	r6, [sp, #8]
 3389 16a8 AD4B     		ldr	r3, .L700+8
 3390 16aa AE4A     		ldr	r2, .L700+12
 3391 16ac AE49     		ldr	r1, .L700+16
 3392 16ae AF48     		ldr	r0, .L700+20
 3393              		.loc 1 802 0
 3394 16b0 3460     		str	r4, [r6]
 3395              		.loc 1 803 0
 3396 16b2 2C60     		str	r4, [r5]
 3397              		.loc 1 804 0
 3398 16b4 FFF7FEFF 		bl	sscanf
 3399              	.LVL323:
 3400              		.loc 1 805 0
 3401 16b8 149A     		ldr	r2, [sp, #80]
 3402 16ba 1368     		ldr	r3, [r2]
 3403 16bc 002B     		cmp	r3, #0
 3404 16be 40F07584 		bne	.L279
 3405              		.loc 1 806 0
 3406 16c2 119A     		ldr	r2, [sp, #68]
 3407 16c4 129B     		ldr	r3, [sp, #72]
 3408 16c6 1268     		ldr	r2, [r2]
 3409 16c8 1B68     		ldr	r3, [r3]
 3410 16ca 03FB02F3 		mul	r3, r3, r2
 3411              	.L280:
 3412              		.loc 1 809 0
 3413 16ce 41F22B02 		movw	r2, #4139
 3414 16d2 1399     		ldr	r1, [sp, #76]
 3415 16d4 9342     		cmp	r3, r2
 3416 16d6 0B60     		str	r3, [r1]
 3417 16d8 0ADD     		ble	.L281
 3418              		.loc 1 810 0
 3419 16da 1498     		ldr	r0, [sp, #80]
 3420 16dc 0122     		movs	r2, #1
ARM GAS  C:\Users\mathi\AppData\Local\Temp\cc0ZaFXf.s 			page 61


 3421 16de 0260     		str	r2, [r0]
 3422              		.loc 1 811 0
 3423 16e0 1198     		ldr	r0, [sp, #68]
 3424 16e2 2823     		movs	r3, #40
 3425 16e4 0360     		str	r3, [r0]
 3426              		.loc 1 812 0
 3427 16e6 1298     		ldr	r0, [sp, #72]
 3428              		.loc 1 813 0
 3429 16e8 4FF44862 		mov	r2, #3200
 3430              		.loc 1 812 0
 3431 16ec 0360     		str	r3, [r0]
 3432              		.loc 1 813 0
 3433 16ee 0A60     		str	r2, [r1]
 3434              	.L281:
 3435              		.loc 1 815 0
 3436 16f0 FFF7FEFF 		bl	e_poxxxx_init_cam
 3437              	.LVL324:
 3438              		.loc 1 816 0
 3439 16f4 994B     		ldr	r3, .L700+4
 3440 16f6 1868     		ldr	r0, [r3]
 3441              		.loc 1 817 0
 3442 16f8 159B     		ldr	r3, [sp, #84]
 3443 16fa 1D68     		ldr	r5, [r3]
 3444 16fc 119B     		ldr	r3, [sp, #68]
 3445 16fe 1A68     		ldr	r2, [r3]
 3446              		.loc 1 816 0
 3447 1700 461C     		adds	r6, r0, #1
 3448              		.loc 1 817 0
 3449 1702 02FB05F2 		mul	r2, r2, r5
 3450              		.loc 1 816 0
 3451 1706 06D1     		bne	.L283
 3452              		.loc 1 817 0
 3453 1708 C2F52070 		rsb	r0, r2, #640
 3454 170c 00EBD070 		add	r0, r0, r0, lsr #31
 3455 1710 924B     		ldr	r3, .L700+4
 3456 1712 4010     		asrs	r0, r0, #1
 3457 1714 1860     		str	r0, [r3]
 3458              	.L283:
 3459              		.loc 1 819 0
 3460 1716 9049     		ldr	r1, .L700
 3461 1718 129B     		ldr	r3, [sp, #72]
 3462 171a 0968     		ldr	r1, [r1]
 3463 171c 1B68     		ldr	r3, [r3]
 3464 171e 4C1C     		adds	r4, r1, #1
 3465 1720 03FB05F3 		mul	r3, r3, r5
 3466 1724 06D1     		bne	.L284
 3467              		.loc 1 820 0
 3468 1726 C3F5F071 		rsb	r1, r3, #480
 3469 172a 01EBD171 		add	r1, r1, r1, lsr #31
 3470 172e 8A4C     		ldr	r4, .L700
 3471 1730 4910     		asrs	r1, r1, #1
 3472 1732 2160     		str	r1, [r4]
 3473              	.L284:
 3474              		.loc 1 822 0
 3475 1734 149C     		ldr	r4, [sp, #80]
 3476 1736 2468     		ldr	r4, [r4]
 3477 1738 0294     		str	r4, [sp, #8]
ARM GAS  C:\Users\mathi\AppData\Local\Temp\cc0ZaFXf.s 			page 62


 3478 173a CDE90055 		strd	r5, r5, [sp]
 3479 173e FFF7FEFF 		bl	e_poxxxx_config_cam
 3480              	.LVL325:
 3481              		.loc 1 823 0
 3482 1742 FFF7FEFF 		bl	e_poxxxx_write_cam_registers
 3483              	.LVL326:
 3484              		.loc 1 824 0
 3485 1746 0321     		movs	r1, #3
 3486 1748 8948     		ldr	r0, .L700+24
 3487 174a FFF7FEFF 		bl	e_send_uart1_char
 3488              	.LVL327:
 3489              	.L285:
 3490              		.loc 1 824 0 is_stmt 0 discriminator 2
 3491 174e FFF7FEFF 		bl	e_uart1_sending
 3492              	.LVL328:
 3493 1752 0028     		cmp	r0, #0
 3494 1754 FBD1     		bne	.L285
 3495 1756 FEF7B4BC 		b	.L4
 3496              	.L171:
 3497              		.loc 1 684 0 is_stmt 1
 3498 175a 864A     		ldr	r2, .L700+28
 3499 175c 8649     		ldr	r1, .L700+32
 3500 175e 8348     		ldr	r0, .L700+20
 3501 1760 FFF7FEFF 		bl	sscanf
 3502              	.LVL329:
 3503              		.loc 1 685 0
 3504 1764 099B     		ldr	r3, [sp, #36]
 3505 1766 002B     		cmp	r3, #0
 3506 1768 00F0C483 		beq	.L213
 3507              		.loc 1 686 0
 3508 176c 814B     		ldr	r3, .L700+28
 3509 176e 1868     		ldr	r0, [r3]
 3510 1770 FFF7FEFF 		bl	e_set_front_led
 3511              	.LVL330:
 3512              		.loc 1 687 0
 3513 1774 0321     		movs	r1, #3
 3514 1776 8148     		ldr	r0, .L700+36
 3515 1778 FFF7FEFF 		bl	e_send_uart1_char
 3516              	.LVL331:
 3517              	.L214:
 3518              		.loc 1 687 0 is_stmt 0 discriminator 2
 3519 177c FFF7FEFF 		bl	e_uart1_sending
 3520              	.LVL332:
 3521 1780 0028     		cmp	r0, #0
 3522 1782 FBD1     		bne	.L214
 3523 1784 FEF79DBC 		b	.L4
 3524              	.L164:
 3525              		.loc 1 1071 0 is_stmt 1
 3526 1788 099B     		ldr	r3, [sp, #36]
 3527              		.loc 1 1072 0
 3528 178a 7D48     		ldr	r0, .L700+40
 3529 178c 1521     		movs	r1, #21
 3530              		.loc 1 1071 0
 3531 178e 002B     		cmp	r3, #0
 3532 1790 00F0F882 		beq	.L352
 3533              		.loc 1 1072 0
 3534 1794 FFF7FEFF 		bl	e_send_uart1_char
ARM GAS  C:\Users\mathi\AppData\Local\Temp\cc0ZaFXf.s 			page 63


 3535              	.LVL333:
 3536              	.L353:
 3537              		.loc 1 1072 0 is_stmt 0 discriminator 2
 3538 1798 FFF7FEFF 		bl	e_uart1_sending
 3539              	.LVL334:
 3540 179c 0028     		cmp	r0, #0
 3541 179e FBD1     		bne	.L353
 3542 17a0 FEF78FBC 		b	.L4
 3543              	.L328:
 3544              		.loc 1 983 0 is_stmt 1
 3545 17a4 41F65071 		movw	r1, #8016
 3546 17a8 42F61430 		movw	r0, #11028
 3547 17ac FFF7FEFF 		bl	e_play_sound
 3548              	.LVL335:
 3549              	.L329:
 3550              		.loc 1 991 0
 3551 17b0 0321     		movs	r1, #3
 3552 17b2 7448     		ldr	r0, .L700+44
 3553 17b4 FFF7FEFF 		bl	e_send_uart1_char
 3554              	.LVL336:
 3555              	.L330:
 3556              		.loc 1 991 0 is_stmt 0 discriminator 2
 3557 17b8 FFF7FEFF 		bl	e_uart1_sending
 3558              	.LVL337:
 3559 17bc 0028     		cmp	r0, #0
 3560 17be FBD1     		bne	.L330
 3561 17c0 FEF77FBC 		b	.L4
 3562              	.L327:
 3563              		.loc 1 981 0 is_stmt 1
 3564 17c4 40F69461 		movw	r1, #3732
 3565 17c8 41F67E40 		movw	r0, #7294
 3566 17cc FFF7FEFF 		bl	e_play_sound
 3567              	.LVL338:
 3568              		.loc 1 982 0
 3569 17d0 EEE7     		b	.L329
 3570              	.L326:
 3571              		.loc 1 979 0
 3572 17d2 0022     		movs	r2, #0
 3573 17d4 0221     		movs	r1, #2
 3574 17d6 0B20     		movs	r0, #11
 3575 17d8 FFF7FEFF 		bl	playMelody
 3576              	.LVL339:
 3577              		.loc 1 980 0
 3578 17dc E8E7     		b	.L329
 3579              	.L325:
 3580              		.loc 1 977 0
 3581 17de 0022     		movs	r2, #0
 3582 17e0 0221     		movs	r1, #2
 3583 17e2 0420     		movs	r0, #4
 3584 17e4 FFF7FEFF 		bl	playMelody
 3585              	.LVL340:
 3586              		.loc 1 978 0
 3587 17e8 E2E7     		b	.L329
 3588              	.L323:
 3589              		.loc 1 975 0
 3590 17ea 0022     		movs	r2, #0
 3591 17ec 0221     		movs	r1, #2
ARM GAS  C:\Users\mathi\AppData\Local\Temp\cc0ZaFXf.s 			page 64


 3592 17ee 0320     		movs	r0, #3
 3593 17f0 FFF7FEFF 		bl	playMelody
 3594              	.LVL341:
 3595              		.loc 1 976 0
 3596 17f4 DCE7     		b	.L329
 3597              	.LVL342:
 3598              	.L28:
 3599              	.LBE4:
 3600              		.loc 1 247 0
 3601 17f6 644A     		ldr	r2, .L700+48
 3602 17f8 0023     		movs	r3, #0
 3603 17fa 1360     		str	r3, [r2]
 3604 17fc 634A     		ldr	r2, .L700+52
 3605 17fe 1360     		str	r3, [r2]
 3606 1800 FEF7CABD 		b	.L40
 3607              	.L11:
 3608              		.loc 1 185 0
 3609 1804 604A     		ldr	r2, .L700+48
 3610 1806 0023     		movs	r3, #0
 3611 1808 1360     		str	r3, [r2]
 3612 180a 604A     		ldr	r2, .L700+52
 3613 180c 1360     		str	r3, [r2]
 3614 180e FEF74EBD 		b	.L23
 3615              	.LVL343:
 3616              	.L141:
 3617              		.loc 1 593 0
 3618 1812 5648     		ldr	r0, .L700+20
 3619 1814 FFF7FEFF 		bl	e_send_uart2_char
 3620              	.LVL344:
 3621              	.L145:
 3622              		.loc 1 594 0 discriminator 1
 3623 1818 FFF7FEFF 		bl	e_uart2_sending
 3624              	.LVL345:
 3625 181c 0028     		cmp	r0, #0
 3626 181e FBD1     		bne	.L145
 3627 1820 FEF7FCBC 		b	.L626
 3628              	.L68:
 3629              		.loc 1 299 0
 3630 1824 FFF7FEFF 		bl	e_read_acc_spheric
 3631              	.LVL346:
 3632 1828 594B     		ldr	r3, .L700+56
 3633 182a 1946     		mov	r1, r3
 3634 182c 83ED000A 		vstr.32	s0, [r3]
 3635 1830 C3ED010A 		vstr.32	s1, [r3, #4]
 3636 1834 83ED021A 		vstr.32	s2, [r3, #8]
 3637 1838 8879     		ldrb	r0, [r1, #6]	@ zero_extendqisi2
 3638 183a 1A78     		ldrb	r2, [r3]	@ zero_extendqisi2
 3639 183c 93F801E0 		ldrb	lr, [r3, #1]	@ zero_extendqisi2
 3640 1840 9B78     		ldrb	r3, [r3, #2]	@ zero_extendqisi2
 3641 1842 0C93     		str	r3, [sp, #48]
 3642 1844 0E90     		str	r0, [sp, #56]
 3643 1846 CB78     		ldrb	r3, [r1, #3]	@ zero_extendqisi2
 3644 1848 C879     		ldrb	r0, [r1, #7]	@ zero_extendqisi2
 3645 184a 0D93     		str	r3, [sp, #52]
 3646 184c 91F805C0 		ldrb	ip, [r1, #5]	@ zero_extendqisi2
 3647 1850 0B79     		ldrb	r3, [r1, #4]	@ zero_extendqisi2
 3648 1852 0F90     		str	r0, [sp, #60]
ARM GAS  C:\Users\mathi\AppData\Local\Temp\cc0ZaFXf.s 			page 65


 3649 1854 4D7A     		ldrb	r5, [r1, #9]	@ zero_extendqisi2
 3650 1856 087A     		ldrb	r0, [r1, #8]	@ zero_extendqisi2
 3651 1858 8C7A     		ldrb	r4, [r1, #10]	@ zero_extendqisi2
 3652 185a C97A     		ldrb	r1, [r1, #11]	@ zero_extendqisi2
 3653 185c 1091     		str	r1, [sp, #64]
 3654 185e FFF78CB8 		b	.L67
 3655              	.L63:
 3656              		.loc 1 272 0
 3657 1862 FFF7FEFF 		bl	isEpuckVersion1_3
 3658              	.LVL347:
 3659 1866 0028     		cmp	r0, #0
 3660 1868 00F0E980 		beq	.L65
 3661              		.loc 1 273 0
 3662 186c 494B     		ldr	r3, .L700+60
 3663 186e C3F800B0 		str	fp, [r3]
 3664              		.loc 1 274 0
 3665 1872 494B     		ldr	r3, .L700+64
 3666 1874 C3F800B0 		str	fp, [r3]
 3667              		.loc 1 275 0
 3668 1878 484B     		ldr	r3, .L700+68
 3669 187a 5A46     		mov	r2, fp
 3670 187c C3F800B0 		str	fp, [r3]
 3671 1880 5D46     		mov	r5, fp
 3672 1882 5846     		mov	r0, fp
 3673 1884 DC46     		mov	ip, fp
 3674 1886 5C46     		mov	r4, fp
 3675 1888 5946     		mov	r1, fp
 3676 188a FEF739BE 		b	.L64
 3677              	.L101:
 3678              		.loc 1 452 0
 3679 188e CAF800B0 		str	fp, [r10]
 3680 1892 5846     		mov	r0, fp
 3681              	.L103:
 3682              		.loc 1 453 0 discriminator 3
 3683 1894 FFF7FEFF 		bl	e_get_calibrated_prox
 3684              	.LVL348:
 3685              		.loc 1 454 0 discriminator 3
 3686 1898 D9F80020 		ldr	r2, [r9]
 3687              		.loc 1 452 0 discriminator 3
 3688 189c DAF80030 		ldr	r3, [r10]
 3689              		.loc 1 454 0 discriminator 3
 3690 18a0 08F80200 		strb	r0, [r8, r2]
 3691              		.loc 1 455 0 discriminator 3
 3692 18a4 08EB0204 		add	r4, r8, r2
 3693 18a8 0112     		asrs	r1, r0, #8
 3694              		.loc 1 452 0 discriminator 3
 3695 18aa 581C     		adds	r0, r3, #1
 3696              		.loc 1 455 0 discriminator 3
 3697 18ac 0232     		adds	r2, r2, #2
 3698              		.loc 1 452 0 discriminator 3
 3699 18ae 0928     		cmp	r0, #9
 3700              		.loc 1 455 0 discriminator 3
 3701 18b0 6170     		strb	r1, [r4, #1]
 3702 18b2 C9F80020 		str	r2, [r9]
 3703              		.loc 1 452 0 discriminator 3
 3704 18b6 CAF80000 		str	r0, [r10]
 3705 18ba EBDD     		ble	.L103
ARM GAS  C:\Users\mathi\AppData\Local\Temp\cc0ZaFXf.s 			page 66


 3706              		.loc 1 577 0
 3707 18bc 3046     		mov	r0, r6
 3708 18be FFF7FEFF 		bl	e_getchar_uart2
 3709              	.LVL349:
 3710 18c2 0028     		cmp	r0, #0
 3711 18c4 3EF45CAE 		beq	.L662
 3712 18c8 FEF736BE 		b	.L136
 3713              	.L104:
 3714              		.loc 1 468 0
 3715 18cc CAF800B0 		str	fp, [r10]
 3716 18d0 5846     		mov	r0, fp
 3717              	.L107:
 3718              		.loc 1 469 0 discriminator 3
 3719 18d2 FFF7FEFF 		bl	e_get_ambient_light
 3720              	.LVL350:
 3721              		.loc 1 470 0 discriminator 3
 3722 18d6 D9F80020 		ldr	r2, [r9]
 3723              		.loc 1 468 0 discriminator 3
 3724 18da DAF80030 		ldr	r3, [r10]
 3725              		.loc 1 470 0 discriminator 3
 3726 18de 08F80200 		strb	r0, [r8, r2]
 3727              		.loc 1 471 0 discriminator 3
 3728 18e2 08EB0204 		add	r4, r8, r2
 3729 18e6 0112     		asrs	r1, r0, #8
 3730              		.loc 1 468 0 discriminator 3
 3731 18e8 581C     		adds	r0, r3, #1
 3732              		.loc 1 471 0 discriminator 3
 3733 18ea 0232     		adds	r2, r2, #2
 3734              		.loc 1 468 0 discriminator 3
 3735 18ec 0928     		cmp	r0, #9
 3736              		.loc 1 471 0 discriminator 3
 3737 18ee 6170     		strb	r1, [r4, #1]
 3738 18f0 C9F80020 		str	r2, [r9]
 3739              		.loc 1 468 0 discriminator 3
 3740 18f4 CAF80000 		str	r0, [r10]
 3741 18f8 EBDD     		ble	.L107
 3742              		.loc 1 577 0
 3743 18fa 3046     		mov	r0, r6
 3744 18fc FFF7FEFF 		bl	e_getchar_uart2
 3745              	.LVL351:
 3746 1900 0028     		cmp	r0, #0
 3747 1902 3EF43DAE 		beq	.L662
 3748 1906 FEF717BE 		b	.L136
 3749              	.LVL352:
 3750              	.L671:
 3751              		.loc 1 241 0
 3752 190a FFF7FEFF 		bl	e_init_sound
 3753              	.LVL353:
 3754              		.loc 1 242 0
 3755 190e 244A     		ldr	r2, .L700+72
 3756 1910 0123     		movs	r3, #1
 3757 1912 1370     		strb	r3, [r2]
 3758 1914 FEF781BD 		b	.L41
 3759              	.LVL354:
 3760              	.L670:
 3761              		.loc 1 179 0
 3762 1918 FFF7FEFF 		bl	e_init_sound
ARM GAS  C:\Users\mathi\AppData\Local\Temp\cc0ZaFXf.s 			page 67


 3763              	.LVL355:
 3764              		.loc 1 180 0
 3765 191c 204A     		ldr	r2, .L700+72
 3766 191e 0123     		movs	r3, #1
 3767 1920 1370     		strb	r3, [r2]
 3768 1922 FEF729BD 		b	.L24
 3769              	.LVL356:
 3770              	.L421:
 3771              		.loc 1 408 0
 3772 1926 BBF1000F 		cmp	fp, #0
 3773 192a 3EF424AE 		beq	.L138
 3774              		.loc 1 409 0
 3775 192e 1D4B     		ldr	r3, .L700+76
 3776 1930 1878     		ldrb	r0, [r3]	@ zero_extendqisi2
 3777 1932 FFF7FEFF 		bl	e_set_body_led
 3778              	.LVL357:
 3779 1936 FEF7FABD 		b	.L135
 3780              	.L677:
 3781              		.loc 1 333 0
 3782 193a FFF7FEFF 		bl	getBatteryValueRaw
 3783              	.LVL358:
 3784              		.loc 1 334 0
 3785 193e D9F80030 		ldr	r3, [r9]
 3786              		.loc 1 335 0
 3787 1942 08EB0302 		add	r2, r8, r3
 3788              		.loc 1 334 0
 3789 1946 08F80300 		strb	r0, [r8, r3]
 3790              		.loc 1 335 0
 3791 194a 010A     		lsrs	r1, r0, #8
 3792 194c 0233     		adds	r3, r3, #2
 3793 194e 5170     		strb	r1, [r2, #1]
 3794 1950 C9F80030 		str	r3, [r9]
 3795 1954 FEF7E8BD 		b	.L44
 3796              	.L701:
 3797              		.align	2
 3798              	.L700:
 3799 1958 00000000 		.word	.LANCHOR30
 3800 195c 00000000 		.word	.LANCHOR29
 3801 1960 00000000 		.word	.LANCHOR3
 3802 1964 00000000 		.word	.LANCHOR2
 3803 1968 7C080000 		.word	.LC64
 3804 196c 00000000 		.word	buffer
 3805 1970 94080000 		.word	.LC65
 3806 1974 00000000 		.word	.LANCHOR28
 3807 1978 C0000000 		.word	.LC11
 3808 197c C8000000 		.word	.LC12
 3809 1980 240A0000 		.word	.LC89
 3810 1984 A4090000 		.word	.LC79
 3811 1988 00000000 		.word	.LANCHOR8
 3812 198c 00000000 		.word	.LANCHOR7
 3813 1990 00000000 		.word	.LANCHOR15
 3814 1994 00000000 		.word	.LANCHOR12
 3815 1998 00000000 		.word	.LANCHOR13
 3816 199c 00000000 		.word	.LANCHOR14
 3817 19a0 00000000 		.word	.LANCHOR9
 3818 19a4 00000000 		.word	.LANCHOR17
 3819              	.LVL359:
ARM GAS  C:\Users\mathi\AppData\Local\Temp\cc0ZaFXf.s 			page 68


 3820              	.L675:
 3821              		.loc 1 370 0 discriminator 1
 3822 19a8 FFF7FEFF 		bl	isEpuckVersion1_3
 3823              	.LVL360:
 3824 19ac 0028     		cmp	r0, #0
 3825 19ae 3FF417A8 		beq	.L81
 3826              		.loc 1 371 0
 3827 19b2 B64A     		ldr	r2, .L702
 3828 19b4 B649     		ldr	r1, .L702+4
 3829 19b6 B748     		ldr	r0, .L702+8
 3830 19b8 FFF7FEFF 		bl	getAllAxesGyro
 3831              	.LVL361:
 3832              		.loc 1 372 0
 3833 19bc B54B     		ldr	r3, .L702+8
 3834 19be D9F80020 		ldr	r2, [r9]
 3835 19c2 1968     		ldr	r1, [r3]
 3836              		.loc 1 374 0
 3837 19c4 B24B     		ldr	r3, .L702+4
 3838              		.loc 1 372 0
 3839 19c6 08F80210 		strb	r1, [r8, r2]
 3840              		.loc 1 374 0
 3841 19ca 1C68     		ldr	r4, [r3]
 3842              		.loc 1 376 0
 3843 19cc AF4B     		ldr	r3, .L702
 3844 19ce 1868     		ldr	r0, [r3]
 3845              		.loc 1 373 0
 3846 19d0 08EB0203 		add	r3, r8, r2
 3847 19d4 0912     		asrs	r1, r1, #8
 3848              		.loc 1 377 0
 3849 19d6 0632     		adds	r2, r2, #6
 3850              		.loc 1 373 0
 3851 19d8 5970     		strb	r1, [r3, #1]
 3852              		.loc 1 377 0
 3853 19da C9F80020 		str	r2, [r9]
 3854              		.loc 1 375 0
 3855 19de 2112     		asrs	r1, r4, #8
 3856              		.loc 1 377 0
 3857 19e0 0212     		asrs	r2, r0, #8
 3858              		.loc 1 374 0
 3859 19e2 9C70     		strb	r4, [r3, #2]
 3860              		.loc 1 375 0
 3861 19e4 D970     		strb	r1, [r3, #3]
 3862              		.loc 1 376 0
 3863 19e6 1871     		strb	r0, [r3, #4]
 3864              		.loc 1 377 0
 3865 19e8 5A71     		strb	r2, [r3, #5]
 3866 19ea FEF7A0BD 		b	.L135
 3867              	.L676:
 3868              		.loc 1 506 0 discriminator 1
 3869 19ee FFF7FEFF 		bl	isEpuckVersion1_3
 3870              	.LVL362:
 3871 19f2 0028     		cmp	r0, #0
 3872 19f4 3FF447A8 		beq	.L119
 3873              		.loc 1 507 0
 3874 19f8 FFF7FEFF 		bl	getTemperature
 3875              	.LVL363:
 3876 19fc D9F80030 		ldr	r3, [r9]
ARM GAS  C:\Users\mathi\AppData\Local\Temp\cc0ZaFXf.s 			page 69


 3877 1a00 5A1C     		adds	r2, r3, #1
 3878 1a02 08F80300 		strb	r0, [r8, r3]
 3879 1a06 C9F80020 		str	r2, [r9]
 3880 1a0a FEF790BD 		b	.L135
 3881              	.L672:
 3882              		.loc 1 583 0
 3883 1a0e A24A     		ldr	r2, .L702+12
 3884 1a10 1370     		strb	r3, [r2]
 3885              	.L143:
 3886              		.loc 1 584 0 discriminator 1
 3887 1a12 FFF7FEFF 		bl	e_poxxxx_is_img_ready
 3888              	.LVL364:
 3889 1a16 0028     		cmp	r0, #0
 3890 1a18 FBD0     		beq	.L143
 3891              		.loc 1 585 0
 3892 1a1a 139D     		ldr	r5, [sp, #76]
 3893 1a1c D9F80030 		ldr	r3, [r9]
 3894 1a20 2C68     		ldr	r4, [r5]
 3895 1a22 1B1B     		subs	r3, r3, r4
 3896 1a24 08EB0304 		add	r4, r8, r3
 3897 1a28 FFF7FEFF 		bl	dcmi_get_last_image_ptr
 3898              	.LVL365:
 3899 1a2c 2A68     		ldr	r2, [r5]
 3900 1a2e 0146     		mov	r1, r0
 3901 1a30 2046     		mov	r0, r4
 3902 1a32 FFF7FEFF 		bl	memcpy
 3903              	.LVL366:
 3904 1a36 D9F80010 		ldr	r1, [r9]
 3905 1a3a FEF790BD 		b	.L142
 3906              	.L65:
 3907              		.loc 1 277 0
 3908 1a3e 0121     		movs	r1, #1
 3909 1a40 FEF742BD 		b	.L654
 3910              	.LVL367:
 3911              	.L156:
 3912              	.LBB5:
 3913              		.loc 1 636 0
 3914 1a44 FFF7FEFF 		bl	isEpuckVersion1_3
 3915              	.LVL368:
 3916 1a48 0028     		cmp	r0, #0
 3917 1a4a 00F08B81 		beq	.L196
 3918              		.loc 1 637 0
 3919 1a4e FFF7FEFF 		bl	getBatteryValueRaw
 3920              	.LVL369:
 3921 1a52 0446     		mov	r4, r0
 3922 1a54 FFF7FEFF 		bl	getBatteryValuePercentage
 3923              	.LVL370:
 3924 1a58 2246     		mov	r2, r4
 3925 1a5a 0346     		mov	r3, r0
 3926 1a5c 8F49     		ldr	r1, .L702+16
 3927 1a5e 9048     		ldr	r0, .L702+20
 3928 1a60 FFF7FEFF 		bl	sprintf
 3929              	.LVL371:
 3930              	.L197:
 3931 1a64 8E48     		ldr	r0, .L702+20
 3932 1a66 FFF7FEFF 		bl	strlen
 3933              	.LVL372:
ARM GAS  C:\Users\mathi\AppData\Local\Temp\cc0ZaFXf.s 			page 70


 3934              		.loc 1 641 0
 3935 1a6a 099B     		ldr	r3, [sp, #36]
 3936 1a6c 0146     		mov	r1, r0
 3937              		.loc 1 642 0
 3938 1a6e 8C48     		ldr	r0, .L702+20
 3939              		.loc 1 641 0
 3940 1a70 002B     		cmp	r3, #0
 3941 1a72 00F06F81 		beq	.L198
 3942              		.loc 1 642 0
 3943 1a76 FFF7FEFF 		bl	e_send_uart1_char
 3944              	.LVL373:
 3945              	.L199:
 3946              		.loc 1 642 0 is_stmt 0 discriminator 2
 3947 1a7a FFF7FEFF 		bl	e_uart1_sending
 3948              	.LVL374:
 3949 1a7e 0028     		cmp	r0, #0
 3950 1a80 FBD1     		bne	.L199
 3951 1a82 FEF71EBB 		b	.L4
 3952              	.LVL375:
 3953              	.L674:
 3954              	.LBE5:
 3955              		.loc 1 414 0 is_stmt 1
 3956 1a86 874B     		ldr	r3, .L702+24
 3957 1a88 1878     		ldrb	r0, [r3]	@ zero_extendqisi2
 3958 1a8a FFF7FEFF 		bl	e_set_front_led
 3959              	.LVL376:
 3960 1a8e FEF74EBD 		b	.L135
 3961              	.LVL377:
 3962              	.L217:
 3963              	.LBB6:
 3964              		.loc 1 704 0
 3965 1a92 854B     		ldr	r3, .L702+28
 3966 1a94 93E80700 		ldm	r3, {r0, r1, r2}
 3967 1a98 814B     		ldr	r3, .L702+20
 3968 1a9a 03C3     		stmia	r3!, {r0, r1}
 3969 1a9c 1846     		mov	r0, r3
 3970              		.loc 1 709 0
 3971 1a9e 0921     		movs	r1, #9
 3972              		.loc 1 704 0
 3973 1aa0 20F80829 		strh	r2, [r0], #-8	@ movhi
 3974              		.loc 1 709 0
 3975 1aa4 FFF7FEFF 		bl	e_send_uart2_char
 3976              	.LVL378:
 3977              	.L220:
 3978              		.loc 1 709 0 is_stmt 0 discriminator 2
 3979 1aa8 FFF7FEFF 		bl	e_uart2_sending
 3980              	.LVL379:
 3981 1aac 0028     		cmp	r0, #0
 3982 1aae FBD1     		bne	.L220
 3983 1ab0 FEF7B4BB 		b	.L626
 3984              	.L332:
 3985              		.loc 1 1001 0 is_stmt 1
 3986 1ab4 7D4B     		ldr	r3, .L702+32
 3987 1ab6 93E80300 		ldm	r3, {r0, r1}
 3988 1aba 7D4B     		ldr	r3, .L702+36
 3989 1abc C8F80000 		str	r0, [r8]
 3990 1ac0 1980     		strh	r1, [r3]	@ movhi
ARM GAS  C:\Users\mathi\AppData\Local\Temp\cc0ZaFXf.s 			page 71


 3991              		.loc 1 1006 0
 3992 1ac2 181F     		subs	r0, r3, #4
 3993 1ac4 0521     		movs	r1, #5
 3994 1ac6 FFF7FEFF 		bl	e_send_uart2_char
 3995              	.LVL380:
 3996              	.L335:
 3997              		.loc 1 1006 0 is_stmt 0 discriminator 2
 3998 1aca FFF7FEFF 		bl	e_uart2_sending
 3999              	.LVL381:
 4000 1ace 0028     		cmp	r0, #0
 4001 1ad0 FBD1     		bne	.L335
 4002 1ad2 FEF7A3BB 		b	.L626
 4003              	.L286:
 4004              		.loc 1 831 0 is_stmt 1
 4005 1ad6 FFF7FEFF 		bl	e_send_uart2_char
 4006              	.LVL382:
 4007              	.L289:
 4008              		.loc 1 831 0 is_stmt 0 discriminator 2
 4009 1ada FFF7FEFF 		bl	e_uart2_sending
 4010              	.LVL383:
 4011 1ade 0028     		cmp	r0, #0
 4012 1ae0 FBD1     		bne	.L289
 4013              		.loc 1 834 0 is_stmt 1
 4014 1ae2 0121     		movs	r1, #1
 4015 1ae4 0820     		movs	r0, #8
 4016 1ae6 FFF7FEFF 		bl	e_set_led
 4017              	.LVL384:
 4018              		.loc 1 836 0
 4019 1aea 4FF4C870 		mov	r0, #400
 4020 1aee FFF7FEFF 		bl	chThdSleep
 4021              	.LVL385:
 4022              		.loc 1 837 0
 4023 1af2 FFF7FEFF 		bl	e_led_clear
 4024              	.LVL386:
 4025              		.loc 1 839 0
 4026 1af6 6420     		movs	r0, #100
 4027 1af8 FFF7FEFF 		bl	chThdSleep
 4028              	.LVL387:
 4029              		.loc 1 840 0
 4030 1afc FFF7FEFF 		bl	e_calibrate_ir
 4031              	.LVL388:
 4032              		.loc 1 844 0
 4033 1b00 1921     		movs	r1, #25
 4034 1b02 6C48     		ldr	r0, .L702+40
 4035 1b04 FFF7FEFF 		bl	e_send_uart2_char
 4036              	.LVL389:
 4037              	.L292:
 4038              		.loc 1 844 0 is_stmt 0 discriminator 2
 4039 1b08 FFF7FEFF 		bl	e_uart2_sending
 4040              	.LVL390:
 4041 1b0c 0028     		cmp	r0, #0
 4042 1b0e FBD1     		bne	.L292
 4043 1b10 FEF784BB 		b	.L626
 4044              	.LVL391:
 4045              	.L308:
 4046 1b14 1846     		mov	r0, r3
 4047              		.loc 1 924 0 is_stmt 1
ARM GAS  C:\Users\mathi\AppData\Local\Temp\cc0ZaFXf.s 			page 72


 4048 1b16 FFF7FEFF 		bl	e_get_ambient_light
 4049              	.LVL392:
 4050 1b1a 0F90     		str	r0, [sp, #60]
 4051 1b1c 0120     		movs	r0, #1
 4052 1b1e FFF7FEFF 		bl	e_get_ambient_light
 4053              	.LVL393:
 4054 1b22 0E90     		str	r0, [sp, #56]
 4055 1b24 0220     		movs	r0, #2
 4056 1b26 FFF7FEFF 		bl	e_get_ambient_light
 4057              	.LVL394:
 4058 1b2a 0A90     		str	r0, [sp, #40]
 4059 1b2c 0320     		movs	r0, #3
 4060 1b2e FFF7FEFF 		bl	e_get_ambient_light
 4061              	.LVL395:
 4062 1b32 0D90     		str	r0, [sp, #52]
 4063 1b34 0420     		movs	r0, #4
 4064 1b36 FFF7FEFF 		bl	e_get_ambient_light
 4065              	.LVL396:
 4066 1b3a 0B90     		str	r0, [sp, #44]
 4067 1b3c 0520     		movs	r0, #5
 4068 1b3e FFF7FEFF 		bl	e_get_ambient_light
 4069              	.LVL397:
 4070 1b42 0446     		mov	r4, r0
 4071 1b44 0620     		movs	r0, #6
 4072 1b46 FFF7FEFF 		bl	e_get_ambient_light
 4073              	.LVL398:
 4074 1b4a 0546     		mov	r5, r0
 4075 1b4c 0720     		movs	r0, #7
 4076 1b4e FFF7FEFF 		bl	e_get_ambient_light
 4077              	.LVL399:
 4078 1b52 0646     		mov	r6, r0
 4079 1b54 0820     		movs	r0, #8
 4080 1b56 FFF7FEFF 		bl	e_get_ambient_light
 4081              	.LVL400:
 4082 1b5a 0C90     		str	r0, [sp, #48]
 4083 1b5c 0920     		movs	r0, #9
 4084 1b5e FFF7FEFF 		bl	e_get_ambient_light
 4085              	.LVL401:
 4086 1b62 0A9B     		ldr	r3, [sp, #40]
 4087 1b64 0093     		str	r3, [sp]
 4088 1b66 0C9B     		ldr	r3, [sp, #48]
 4089 1b68 0D99     		ldr	r1, [sp, #52]
 4090 1b6a 0790     		str	r0, [sp, #28]
 4091 1b6c CDE90563 		strd	r6, r3, [sp, #20]
 4092 1b70 0B9B     		ldr	r3, [sp, #44]
 4093 1b72 0293     		str	r3, [sp, #8]
 4094 1b74 0191     		str	r1, [sp, #4]
 4095 1b76 DDE90E32 		ldrd	r3, r2, [sp, #56]
 4096 1b7a 4F49     		ldr	r1, .L702+44
 4097 1b7c 4848     		ldr	r0, .L702+20
 4098 1b7e CDE90345 		strd	r4, r5, [sp, #12]
 4099 1b82 FFF7FEFF 		bl	sprintf
 4100              	.LVL402:
 4101              		.loc 1 928 0
 4102 1b86 4648     		ldr	r0, .L702+20
 4103 1b88 FFF7FEFF 		bl	strlen
 4104              	.LVL403:
ARM GAS  C:\Users\mathi\AppData\Local\Temp\cc0ZaFXf.s 			page 73


 4105 1b8c 0146     		mov	r1, r0
 4106 1b8e 4448     		ldr	r0, .L702+20
 4107 1b90 FFF7FEFF 		bl	e_send_uart2_char
 4108              	.LVL404:
 4109              	.L310:
 4110              		.loc 1 928 0 is_stmt 0 discriminator 2
 4111 1b94 FFF7FEFF 		bl	e_uart2_sending
 4112              	.LVL405:
 4113 1b98 0028     		cmp	r0, #0
 4114 1b9a FBD1     		bne	.L310
 4115 1b9c FEF73EBB 		b	.L626
 4116              	.L339:
 4117              		.loc 1 1022 0 is_stmt 1
 4118 1ba0 FFF7FEFF 		bl	e_send_uart2_char
 4119              	.LVL406:
 4120              	.L342:
 4121              		.loc 1 1022 0 is_stmt 0 discriminator 2
 4122 1ba4 FFF7FEFF 		bl	e_uart2_sending
 4123              	.LVL407:
 4124 1ba8 0028     		cmp	r0, #0
 4125 1baa FBD1     		bne	.L342
 4126              		.loc 1 1024 0 is_stmt 1
 4127 1bac 434B     		ldr	r3, .L702+48
 4128 1bae 4449     		ldr	r1, .L702+52
 4129 1bb0 1A68     		ldr	r2, [r3]
 4130 1bb2 3B48     		ldr	r0, .L702+20
 4131 1bb4 FFF7FEFF 		bl	sprintf
 4132              	.LVL408:
 4133              		.loc 1 1028 0
 4134 1bb8 3948     		ldr	r0, .L702+20
 4135 1bba FFF7FEFF 		bl	strlen
 4136              	.LVL409:
 4137 1bbe 0146     		mov	r1, r0
 4138 1bc0 3748     		ldr	r0, .L702+20
 4139 1bc2 FFF7FEFF 		bl	e_send_uart2_char
 4140              	.LVL410:
 4141              	.L345:
 4142              		.loc 1 1028 0 is_stmt 0 discriminator 2
 4143 1bc6 FFF7FEFF 		bl	e_uart2_sending
 4144              	.LVL411:
 4145 1bca 0028     		cmp	r0, #0
 4146 1bcc FBD1     		bne	.L345
 4147 1bce FEF725BB 		b	.L626
 4148              	.L314:
 4149              		.loc 1 946 0 is_stmt 1
 4150 1bd2 FFF7FEFF 		bl	strlen
 4151              	.LVL412:
 4152 1bd6 0146     		mov	r1, r0
 4153 1bd8 3148     		ldr	r0, .L702+20
 4154 1bda FFF7FEFF 		bl	e_send_uart2_char
 4155              	.LVL413:
 4156              	.L316:
 4157              		.loc 1 946 0 is_stmt 0 discriminator 2
 4158 1bde FFF7FEFF 		bl	e_uart2_sending
 4159              	.LVL414:
 4160 1be2 0028     		cmp	r0, #0
 4161 1be4 FBD1     		bne	.L316
ARM GAS  C:\Users\mathi\AppData\Local\Temp\cc0ZaFXf.s 			page 74


 4162 1be6 FEF719BB 		b	.L626
 4163              	.L317:
 4164              		.loc 1 964 0 is_stmt 1
 4165 1bea FFF7FEFF 		bl	e_send_uart2_char
 4166              	.LVL415:
 4167              	.L319:
 4168              		.loc 1 964 0 is_stmt 0 discriminator 2
 4169 1bee FFF7FEFF 		bl	e_uart2_sending
 4170              	.LVL416:
 4171 1bf2 0028     		cmp	r0, #0
 4172 1bf4 FBD1     		bne	.L319
 4173 1bf6 FEF711BB 		b	.L626
 4174              	.L207:
 4175              		.loc 1 672 0 is_stmt 1
 4176 1bfa FFF7FEFF 		bl	e_send_uart2_char
 4177              	.LVL417:
 4178              	.L209:
 4179              		.loc 1 672 0 is_stmt 0 discriminator 2
 4180 1bfe FFF7FEFF 		bl	e_uart2_sending
 4181              	.LVL418:
 4182 1c02 0028     		cmp	r0, #0
 4183 1c04 FBD1     		bne	.L209
 4184 1c06 FEF709BB 		b	.L626
 4185              	.L210:
 4186              		.loc 1 680 0 is_stmt 1
 4187 1c0a FFF7FEFF 		bl	strlen
 4188              	.LVL419:
 4189 1c0e 0146     		mov	r1, r0
 4190 1c10 2348     		ldr	r0, .L702+20
 4191 1c12 FFF7FEFF 		bl	e_send_uart2_char
 4192              	.LVL420:
 4193              	.L212:
 4194              		.loc 1 680 0 is_stmt 0 discriminator 2
 4195 1c16 FFF7FEFF 		bl	e_uart2_sending
 4196              	.LVL421:
 4197 1c1a 0028     		cmp	r0, #0
 4198 1c1c FBD1     		bne	.L212
 4199 1c1e FEF7FDBA 		b	.L626
 4200              	.L293:
 4201              		.loc 1 853 0 is_stmt 1
 4202 1c22 FFF7FEFF 		bl	e_send_uart2_char
 4203              	.LVL422:
 4204              	.L295:
 4205              		.loc 1 853 0 is_stmt 0 discriminator 2
 4206 1c26 FFF7FEFF 		bl	e_uart2_sending
 4207              	.LVL423:
 4208 1c2a 0028     		cmp	r0, #0
 4209 1c2c FBD1     		bne	.L295
 4210 1c2e FEF7F5BA 		b	.L626
 4211              	.L311:
 4212              		.loc 1 938 0 is_stmt 1
 4213 1c32 FFF7FEFF 		bl	e_send_uart2_char
 4214              	.LVL424:
 4215              	.L313:
 4216              		.loc 1 938 0 is_stmt 0 discriminator 2
 4217 1c36 FFF7FEFF 		bl	e_uart2_sending
 4218              	.LVL425:
ARM GAS  C:\Users\mathi\AppData\Local\Temp\cc0ZaFXf.s 			page 75


 4219 1c3a 0028     		cmp	r0, #0
 4220 1c3c FBD1     		bne	.L313
 4221 1c3e FEF7EDBA 		b	.L626
 4222              	.L336:
 4223              		.loc 1 1015 0 is_stmt 1
 4224 1c42 FFF7FEFF 		bl	strlen
 4225              	.LVL426:
 4226 1c46 0146     		mov	r1, r0
 4227 1c48 1548     		ldr	r0, .L702+20
 4228 1c4a FFF7FEFF 		bl	e_send_uart2_char
 4229              	.LVL427:
 4230              	.L338:
 4231              		.loc 1 1015 0 is_stmt 0 discriminator 2
 4232 1c4e FFF7FEFF 		bl	e_uart2_sending
 4233              	.LVL428:
 4234 1c52 0028     		cmp	r0, #0
 4235 1c54 FBD1     		bne	.L338
 4236 1c56 FEF7E1BA 		b	.L626
 4237              	.L191:
 4238              		.loc 1 623 0 is_stmt 1
 4239 1c5a FFF7FEFF 		bl	isEpuckVersion1_3
 4240              	.LVL429:
 4241 1c5e 0028     		cmp	r0, #0
 4242 1c60 00F05281 		beq	.L193
 4243              		.loc 1 624 0
 4244 1c64 174B     		ldr	r3, .L702+56
 4245 1c66 93E80700 		ldm	r3, {r0, r1, r2}
 4246 1c6a 0D4B     		ldr	r3, .L702+20
 4247 1c6c 03C3     		stmia	r3!, {r0, r1}
 4248 1c6e 1A80     		strh	r2, [r3]	@ movhi
 4249              	.L194:
 4250              		.loc 1 632 0
 4251 1c70 0B48     		ldr	r0, .L702+20
 4252 1c72 FFF7FEFF 		bl	strlen
 4253              	.LVL430:
 4254 1c76 0146     		mov	r1, r0
 4255 1c78 0948     		ldr	r0, .L702+20
 4256 1c7a FFF7FEFF 		bl	e_send_uart2_char
 4257              	.LVL431:
 4258              	.L195:
 4259              		.loc 1 632 0 is_stmt 0 discriminator 2
 4260 1c7e FFF7FEFF 		bl	e_uart2_sending
 4261              	.LVL432:
 4262 1c82 0028     		cmp	r0, #0
 4263 1c84 FBD1     		bne	.L195
 4264 1c86 FEF7C9BA 		b	.L626
 4265              	.L703:
 4266 1c8a 00BF     		.align	2
 4267              	.L702:
 4268 1c8c 00000000 		.word	.LANCHOR18
 4269 1c90 00000000 		.word	.LANCHOR19
 4270 1c94 00000000 		.word	.LANCHOR20
 4271 1c98 00000000 		.word	.LANCHOR21
 4272 1c9c 78000000 		.word	.LC3
 4273 1ca0 00000000 		.word	buffer
 4274 1ca4 00000000 		.word	.LANCHOR17
 4275 1ca8 6C0A0000 		.word	.LC92
ARM GAS  C:\Users\mathi\AppData\Local\Temp\cc0ZaFXf.s 			page 76


 4276 1cac 780A0000 		.word	.LC93
 4277 1cb0 04000000 		.word	buffer+4
 4278 1cb4 3C0A0000 		.word	.LC90
 4279 1cb8 58090000 		.word	.LC73
 4280 1cbc 00000000 		.word	.LANCHOR1
 4281 1cc0 580A0000 		.word	.LC91
 4282 1cc4 6C000000 		.word	.LC2
 4283              	.L305:
 4284 1cc8 1846     		mov	r0, r3
 4285              		.loc 1 910 0 is_stmt 1
 4286 1cca FFF7FEFF 		bl	e_get_calibrated_prox
 4287              	.LVL433:
 4288 1cce 0F90     		str	r0, [sp, #60]
 4289 1cd0 0120     		movs	r0, #1
 4290 1cd2 FFF7FEFF 		bl	e_get_calibrated_prox
 4291              	.LVL434:
 4292 1cd6 0E90     		str	r0, [sp, #56]
 4293 1cd8 0220     		movs	r0, #2
 4294 1cda FFF7FEFF 		bl	e_get_calibrated_prox
 4295              	.LVL435:
 4296 1cde 0A90     		str	r0, [sp, #40]
 4297 1ce0 0320     		movs	r0, #3
 4298 1ce2 FFF7FEFF 		bl	e_get_calibrated_prox
 4299              	.LVL436:
 4300 1ce6 0D90     		str	r0, [sp, #52]
 4301 1ce8 0420     		movs	r0, #4
 4302 1cea FFF7FEFF 		bl	e_get_calibrated_prox
 4303              	.LVL437:
 4304 1cee 0B90     		str	r0, [sp, #44]
 4305 1cf0 0520     		movs	r0, #5
 4306 1cf2 FFF7FEFF 		bl	e_get_calibrated_prox
 4307              	.LVL438:
 4308 1cf6 0446     		mov	r4, r0
 4309 1cf8 0620     		movs	r0, #6
 4310 1cfa FFF7FEFF 		bl	e_get_calibrated_prox
 4311              	.LVL439:
 4312 1cfe 0546     		mov	r5, r0
 4313 1d00 0720     		movs	r0, #7
 4314 1d02 FFF7FEFF 		bl	e_get_calibrated_prox
 4315              	.LVL440:
 4316 1d06 0646     		mov	r6, r0
 4317 1d08 0820     		movs	r0, #8
 4318 1d0a FFF7FEFF 		bl	e_get_calibrated_prox
 4319              	.LVL441:
 4320 1d0e 0C90     		str	r0, [sp, #48]
 4321 1d10 0920     		movs	r0, #9
 4322 1d12 FFF7FEFF 		bl	e_get_calibrated_prox
 4323              	.LVL442:
 4324 1d16 0A9B     		ldr	r3, [sp, #40]
 4325 1d18 0093     		str	r3, [sp]
 4326 1d1a 0C9B     		ldr	r3, [sp, #48]
 4327 1d1c 0D99     		ldr	r1, [sp, #52]
 4328 1d1e 0790     		str	r0, [sp, #28]
 4329 1d20 CDE90563 		strd	r6, r3, [sp, #20]
 4330 1d24 0B9B     		ldr	r3, [sp, #44]
 4331 1d26 0293     		str	r3, [sp, #8]
 4332 1d28 0191     		str	r1, [sp, #4]
ARM GAS  C:\Users\mathi\AppData\Local\Temp\cc0ZaFXf.s 			page 77


 4333 1d2a DDE90E32 		ldrd	r3, r2, [sp, #56]
 4334 1d2e B249     		ldr	r1, .L704
 4335 1d30 B248     		ldr	r0, .L704+4
 4336 1d32 CDE90345 		strd	r4, r5, [sp, #12]
 4337 1d36 FFF7FEFF 		bl	sprintf
 4338              	.LVL443:
 4339              		.loc 1 914 0
 4340 1d3a B048     		ldr	r0, .L704+4
 4341 1d3c FFF7FEFF 		bl	strlen
 4342              	.LVL444:
 4343 1d40 0146     		mov	r1, r0
 4344 1d42 AE48     		ldr	r0, .L704+4
 4345 1d44 FFF7FEFF 		bl	e_send_uart2_char
 4346              	.LVL445:
 4347              	.L307:
 4348              		.loc 1 914 0 is_stmt 0 discriminator 2
 4349 1d48 FFF7FEFF 		bl	e_uart2_sending
 4350              	.LVL446:
 4351 1d4c 0028     		cmp	r0, #0
 4352 1d4e FBD1     		bne	.L307
 4353 1d50 FEF764BA 		b	.L626
 4354              	.L198:
 4355              		.loc 1 644 0 is_stmt 1
 4356 1d54 FFF7FEFF 		bl	e_send_uart2_char
 4357              	.LVL447:
 4358              	.L200:
 4359              		.loc 1 644 0 is_stmt 0 discriminator 2
 4360 1d58 FFF7FEFF 		bl	e_uart2_sending
 4361              	.LVL448:
 4362 1d5c 0028     		cmp	r0, #0
 4363 1d5e FBD1     		bne	.L200
 4364 1d60 FEF75CBA 		b	.L626
 4365              	.L196:
 4366              		.loc 1 639 0 is_stmt 1
 4367 1d64 0246     		mov	r2, r0
 4368 1d66 A649     		ldr	r1, .L704+8
 4369 1d68 A448     		ldr	r0, .L704+4
 4370 1d6a FFF7FEFF 		bl	sprintf
 4371              	.LVL449:
 4372 1d6e 79E6     		b	.L197
 4373              	.L320:
 4374              		.loc 1 993 0
 4375 1d70 0321     		movs	r1, #3
 4376 1d72 A448     		ldr	r0, .L704+12
 4377 1d74 FFF7FEFF 		bl	e_send_uart2_char
 4378              	.LVL450:
 4379              	.L331:
 4380              		.loc 1 993 0 is_stmt 0 discriminator 2
 4381 1d78 FFF7FEFF 		bl	e_uart2_sending
 4382              	.LVL451:
 4383 1d7c 0028     		cmp	r0, #0
 4384 1d7e FBD1     		bne	.L331
 4385 1d80 FEF74CBA 		b	.L626
 4386              	.L352:
 4387              		.loc 1 1074 0 is_stmt 1
 4388 1d84 FFF7FEFF 		bl	e_send_uart2_char
 4389              	.LVL452:
ARM GAS  C:\Users\mathi\AppData\Local\Temp\cc0ZaFXf.s 			page 78


 4390              	.L354:
 4391              		.loc 1 1074 0 is_stmt 0 discriminator 2
 4392 1d88 FFF7FEFF 		bl	e_uart2_sending
 4393              	.LVL453:
 4394 1d8c 0028     		cmp	r0, #0
 4395 1d8e FBD1     		bne	.L354
 4396 1d90 FEF744BA 		b	.L626
 4397              	.L201:
 4398              		.loc 1 653 0 is_stmt 1
 4399 1d94 0321     		movs	r1, #3
 4400 1d96 9C48     		ldr	r0, .L704+16
 4401 1d98 FFF7FEFF 		bl	e_send_uart2_char
 4402              	.LVL454:
 4403              	.L203:
 4404              		.loc 1 653 0 is_stmt 0 discriminator 2
 4405 1d9c FFF7FEFF 		bl	e_uart2_sending
 4406              	.LVL455:
 4407 1da0 0028     		cmp	r0, #0
 4408 1da2 FBD1     		bne	.L203
 4409 1da4 FEF73ABA 		b	.L626
 4410              	.L221:
 4411              		.loc 1 756 0 is_stmt 1
 4412 1da8 FFF7FEFF 		bl	e_send_uart2_char
 4413              	.LVL456:
 4414              	.L255:
 4415              		.loc 1 756 0 is_stmt 0 discriminator 2
 4416 1dac FFF7FEFF 		bl	e_uart2_sending
 4417              	.LVL457:
 4418 1db0 0028     		cmp	r0, #0
 4419 1db2 FBD1     		bne	.L255
 4420              		.loc 1 757 0 is_stmt 1
 4421 1db4 FFF7FEFF 		bl	isEpuckVersion1_3
 4422              	.LVL458:
 4423 1db8 0028     		cmp	r0, #0
 4424 1dba 00F0EE80 		beq	.L685
 4425              	.L256:
 4426              		.loc 1 760 0
 4427 1dbe FFF7FEFF 		bl	isEpuckVersion1_3
 4428              	.LVL459:
 4429 1dc2 0028     		cmp	r0, #0
 4430 1dc4 00F0B580 		beq	.L258
 4431              		.loc 1 761 0
 4432 1dc8 1921     		movs	r1, #25
 4433 1dca 9048     		ldr	r0, .L704+20
 4434 1dcc FFF7FEFF 		bl	e_send_uart2_char
 4435              	.LVL460:
 4436              	.L259:
 4437              		.loc 1 761 0 is_stmt 0 discriminator 2
 4438 1dd0 FFF7FEFF 		bl	e_uart2_sending
 4439              	.LVL461:
 4440 1dd4 0028     		cmp	r0, #0
 4441 1dd6 FBD1     		bne	.L259
 4442              	.L260:
 4443              		.loc 1 766 0 is_stmt 1
 4444 1dd8 1D21     		movs	r1, #29
 4445 1dda 8D48     		ldr	r0, .L704+24
 4446 1ddc FFF7FEFF 		bl	e_send_uart2_char
ARM GAS  C:\Users\mathi\AppData\Local\Temp\cc0ZaFXf.s 			page 79


 4447              	.LVL462:
 4448              	.L262:
 4449              		.loc 1 766 0 is_stmt 0 discriminator 2
 4450 1de0 FFF7FEFF 		bl	e_uart2_sending
 4451              	.LVL463:
 4452 1de4 0028     		cmp	r0, #0
 4453 1de6 FBD1     		bne	.L262
 4454              		.loc 1 767 0 is_stmt 1
 4455 1de8 2621     		movs	r1, #38
 4456 1dea 8A48     		ldr	r0, .L704+28
 4457 1dec FFF7FEFF 		bl	e_send_uart2_char
 4458              	.LVL464:
 4459              	.L263:
 4460              		.loc 1 767 0 is_stmt 0 discriminator 2
 4461 1df0 FFF7FEFF 		bl	e_uart2_sending
 4462              	.LVL465:
 4463 1df4 0028     		cmp	r0, #0
 4464 1df6 FBD1     		bne	.L263
 4465              		.loc 1 768 0 is_stmt 1
 4466 1df8 2621     		movs	r1, #38
 4467 1dfa 8748     		ldr	r0, .L704+32
 4468 1dfc FFF7FEFF 		bl	e_send_uart2_char
 4469              	.LVL466:
 4470              	.L264:
 4471              		.loc 1 768 0 is_stmt 0 discriminator 2
 4472 1e00 FFF7FEFF 		bl	e_uart2_sending
 4473              	.LVL467:
 4474 1e04 0028     		cmp	r0, #0
 4475 1e06 FBD1     		bne	.L264
 4476              		.loc 1 771 0 is_stmt 1
 4477 1e08 1721     		movs	r1, #23
 4478 1e0a 8448     		ldr	r0, .L704+36
 4479 1e0c FFF7FEFF 		bl	e_send_uart2_char
 4480              	.LVL468:
 4481              	.L265:
 4482              		.loc 1 771 0 is_stmt 0 discriminator 2
 4483 1e10 FFF7FEFF 		bl	e_uart2_sending
 4484              	.LVL469:
 4485 1e14 0028     		cmp	r0, #0
 4486 1e16 FBD1     		bne	.L265
 4487              		.loc 1 773 0 is_stmt 1
 4488 1e18 1021     		movs	r1, #16
 4489 1e1a 8148     		ldr	r0, .L704+40
 4490 1e1c FFF7FEFF 		bl	e_send_uart2_char
 4491              	.LVL470:
 4492              	.L266:
 4493              		.loc 1 773 0 is_stmt 0 discriminator 2
 4494 1e20 FFF7FEFF 		bl	e_uart2_sending
 4495              	.LVL471:
 4496 1e24 0028     		cmp	r0, #0
 4497 1e26 FBD1     		bne	.L266
 4498              		.loc 1 776 0 is_stmt 1
 4499 1e28 2721     		movs	r1, #39
 4500 1e2a 7E48     		ldr	r0, .L704+44
 4501 1e2c FFF7FEFF 		bl	e_send_uart2_char
 4502              	.LVL472:
 4503              	.L267:
ARM GAS  C:\Users\mathi\AppData\Local\Temp\cc0ZaFXf.s 			page 80


 4504              		.loc 1 776 0 is_stmt 0 discriminator 2
 4505 1e30 FFF7FEFF 		bl	e_uart2_sending
 4506              	.LVL473:
 4507 1e34 0028     		cmp	r0, #0
 4508 1e36 FBD1     		bne	.L267
 4509              		.loc 1 777 0 is_stmt 1
 4510 1e38 2B21     		movs	r1, #43
 4511 1e3a 7B48     		ldr	r0, .L704+48
 4512 1e3c FFF7FEFF 		bl	e_send_uart2_char
 4513              	.LVL474:
 4514              	.L268:
 4515              		.loc 1 777 0 is_stmt 0 discriminator 2
 4516 1e40 FFF7FEFF 		bl	e_uart2_sending
 4517              	.LVL475:
 4518 1e44 0028     		cmp	r0, #0
 4519 1e46 FBD1     		bne	.L268
 4520              		.loc 1 779 0 is_stmt 1
 4521 1e48 1921     		movs	r1, #25
 4522 1e4a 7848     		ldr	r0, .L704+52
 4523 1e4c FFF7FEFF 		bl	e_send_uart2_char
 4524              	.LVL476:
 4525              	.L269:
 4526              		.loc 1 779 0 is_stmt 0 discriminator 2
 4527 1e50 FFF7FEFF 		bl	e_uart2_sending
 4528              	.LVL477:
 4529 1e54 0028     		cmp	r0, #0
 4530 1e56 FBD1     		bne	.L269
 4531              		.loc 1 781 0 is_stmt 1
 4532 1e58 1521     		movs	r1, #21
 4533 1e5a 7548     		ldr	r0, .L704+56
 4534 1e5c FFF7FEFF 		bl	e_send_uart2_char
 4535              	.LVL478:
 4536              	.L270:
 4537              		.loc 1 781 0 is_stmt 0 discriminator 2
 4538 1e60 FFF7FEFF 		bl	e_uart2_sending
 4539              	.LVL479:
 4540 1e64 0028     		cmp	r0, #0
 4541 1e66 FBD1     		bne	.L270
 4542              		.loc 1 782 0 is_stmt 1
 4543 1e68 1921     		movs	r1, #25
 4544 1e6a 7248     		ldr	r0, .L704+60
 4545 1e6c FFF7FEFF 		bl	e_send_uart2_char
 4546              	.LVL480:
 4547              	.L271:
 4548              		.loc 1 782 0 is_stmt 0 discriminator 2
 4549 1e70 FFF7FEFF 		bl	e_uart2_sending
 4550              	.LVL481:
 4551 1e74 0028     		cmp	r0, #0
 4552 1e76 FBD1     		bne	.L271
 4553              		.loc 1 783 0 is_stmt 1
 4554 1e78 2921     		movs	r1, #41
 4555 1e7a 6F48     		ldr	r0, .L704+64
 4556 1e7c FFF7FEFF 		bl	e_send_uart2_char
 4557              	.LVL482:
 4558              	.L272:
 4559              		.loc 1 783 0 is_stmt 0 discriminator 2
 4560 1e80 FFF7FEFF 		bl	e_uart2_sending
ARM GAS  C:\Users\mathi\AppData\Local\Temp\cc0ZaFXf.s 			page 81


 4561              	.LVL483:
 4562 1e84 0028     		cmp	r0, #0
 4563 1e86 FBD1     		bne	.L272
 4564              		.loc 1 784 0 is_stmt 1
 4565 1e88 2921     		movs	r1, #41
 4566 1e8a 6C48     		ldr	r0, .L704+68
 4567 1e8c FFF7FEFF 		bl	e_send_uart2_char
 4568              	.LVL484:
 4569              	.L273:
 4570              		.loc 1 784 0 is_stmt 0 discriminator 2
 4571 1e90 FFF7FEFF 		bl	e_uart2_sending
 4572              	.LVL485:
 4573 1e94 0028     		cmp	r0, #0
 4574 1e96 FBD1     		bne	.L273
 4575              		.loc 1 785 0 is_stmt 1
 4576 1e98 1821     		movs	r1, #24
 4577 1e9a 6948     		ldr	r0, .L704+72
 4578 1e9c FFF7FEFF 		bl	e_send_uart2_char
 4579              	.LVL486:
 4580              	.L274:
 4581              		.loc 1 785 0 is_stmt 0 discriminator 2
 4582 1ea0 FFF7FEFF 		bl	e_uart2_sending
 4583              	.LVL487:
 4584 1ea4 0028     		cmp	r0, #0
 4585 1ea6 FBD1     		bne	.L274
 4586              		.loc 1 786 0 is_stmt 1
 4587 1ea8 2921     		movs	r1, #41
 4588 1eaa 6648     		ldr	r0, .L704+76
 4589 1eac FFF7FEFF 		bl	e_send_uart2_char
 4590              	.LVL488:
 4591              	.L275:
 4592              		.loc 1 786 0 is_stmt 0 discriminator 2
 4593 1eb0 FFF7FEFF 		bl	e_uart2_sending
 4594              	.LVL489:
 4595 1eb4 0028     		cmp	r0, #0
 4596 1eb6 FBD1     		bne	.L275
 4597              		.loc 1 788 0 is_stmt 1
 4598 1eb8 2421     		movs	r1, #36
 4599 1eba 6348     		ldr	r0, .L704+80
 4600 1ebc FFF7FEFF 		bl	e_send_uart2_char
 4601              	.LVL490:
 4602              	.L276:
 4603              		.loc 1 788 0 is_stmt 0 discriminator 2
 4604 1ec0 FFF7FEFF 		bl	e_uart2_sending
 4605              	.LVL491:
 4606 1ec4 0028     		cmp	r0, #0
 4607 1ec6 FBD1     		bne	.L276
 4608              		.loc 1 789 0 is_stmt 1
 4609 1ec8 1D21     		movs	r1, #29
 4610 1eca 6048     		ldr	r0, .L704+84
 4611 1ecc FFF7FEFF 		bl	e_send_uart2_char
 4612              	.LVL492:
 4613              	.L277:
 4614              		.loc 1 789 0 is_stmt 0 discriminator 2
 4615 1ed0 FFF7FEFF 		bl	e_uart2_sending
 4616              	.LVL493:
 4617 1ed4 0028     		cmp	r0, #0
ARM GAS  C:\Users\mathi\AppData\Local\Temp\cc0ZaFXf.s 			page 82


 4618 1ed6 FBD1     		bne	.L277
 4619 1ed8 FEF7A0B9 		b	.L626
 4620              	.L204:
 4621              		.loc 1 662 0 is_stmt 1
 4622 1edc FFF7FEFF 		bl	strlen
 4623              	.LVL494:
 4624 1ee0 0146     		mov	r1, r0
 4625 1ee2 4648     		ldr	r0, .L704+4
 4626 1ee4 FFF7FEFF 		bl	e_send_uart2_char
 4627              	.LVL495:
 4628              	.L206:
 4629              		.loc 1 662 0 is_stmt 0 discriminator 2
 4630 1ee8 FFF7FEFF 		bl	e_uart2_sending
 4631              	.LVL496:
 4632 1eec 0028     		cmp	r0, #0
 4633 1eee FBD1     		bne	.L206
 4634 1ef0 FEF794B9 		b	.L626
 4635              	.L213:
 4636              		.loc 1 689 0 is_stmt 1
 4637 1ef4 0321     		movs	r1, #3
 4638 1ef6 5648     		ldr	r0, .L704+88
 4639 1ef8 FFF7FEFF 		bl	e_send_uart2_char
 4640              	.LVL497:
 4641              	.L215:
 4642              		.loc 1 689 0 is_stmt 0 discriminator 2
 4643 1efc FFF7FEFF 		bl	e_uart2_sending
 4644              	.LVL498:
 4645 1f00 0028     		cmp	r0, #0
 4646 1f02 FBD1     		bne	.L215
 4647 1f04 FEF78AB9 		b	.L626
 4648              	.L193:
 4649              		.loc 1 626 0 is_stmt 1
 4650 1f08 0121     		movs	r1, #1
 4651 1f0a FFF7FEFF 		bl	e_get_acc_filtered
 4652              	.LVL499:
 4653 1f0e 0121     		movs	r1, #1
 4654 1f10 0446     		mov	r4, r0
 4655 1f12 0846     		mov	r0, r1
 4656 1f14 FFF7FEFF 		bl	e_get_acc_filtered
 4657              	.LVL500:
 4658 1f18 0121     		movs	r1, #1
 4659 1f1a 0546     		mov	r5, r0
 4660 1f1c 0220     		movs	r0, #2
 4661 1f1e FFF7FEFF 		bl	e_get_acc_filtered
 4662              	.LVL501:
 4663 1f22 2B46     		mov	r3, r5
 4664 1f24 0090     		str	r0, [sp]
 4665 1f26 2246     		mov	r2, r4
 4666 1f28 4A49     		ldr	r1, .L704+92
 4667 1f2a 3448     		ldr	r0, .L704+4
 4668 1f2c FFF7FEFF 		bl	sprintf
 4669              	.LVL502:
 4670 1f30 9EE6     		b	.L194
 4671              	.L258:
 4672              		.loc 1 763 0
 4673 1f32 2721     		movs	r1, #39
 4674 1f34 4848     		ldr	r0, .L704+96
ARM GAS  C:\Users\mathi\AppData\Local\Temp\cc0ZaFXf.s 			page 83


 4675 1f36 FFF7FEFF 		bl	e_send_uart2_char
 4676              	.LVL503:
 4677              	.L261:
 4678              		.loc 1 763 0 is_stmt 0 discriminator 2
 4679 1f3a FFF7FEFF 		bl	e_uart2_sending
 4680              	.LVL504:
 4681 1f3e 0028     		cmp	r0, #0
 4682 1f40 FBD1     		bne	.L261
 4683 1f42 49E7     		b	.L260
 4684              	.L225:
 4685              		.loc 1 721 0 is_stmt 1
 4686 1f44 2F21     		movs	r1, #47
 4687 1f46 4548     		ldr	r0, .L704+100
 4688 1f48 FFF7FEFF 		bl	e_send_uart1_char
 4689              	.LVL505:
 4690              	.L228:
 4691              		.loc 1 721 0 is_stmt 0 discriminator 2
 4692 1f4c FFF7FEFF 		bl	e_uart1_sending
 4693              	.LVL506:
 4694 1f50 0028     		cmp	r0, #0
 4695 1f52 FBD1     		bne	.L228
 4696 1f54 FFF795BA 		b	.L227
 4697              	.L682:
 4698              		.loc 1 971 0 is_stmt 1
 4699 1f58 FFF7FEFF 		bl	e_init_sound
 4700              	.LVL507:
 4701              		.loc 1 972 0
 4702 1f5c 404A     		ldr	r2, .L704+104
 4703 1f5e 0123     		movs	r3, #1
 4704 1f60 1370     		strb	r3, [r2]
 4705 1f62 FEF7BEBF 		b	.L321
 4706              	.L667:
 4707              		.loc 1 702 0
 4708 1f66 FFF7FEFF 		bl	getXAxisGyro
 4709              	.LVL508:
 4710 1f6a 0446     		mov	r4, r0
 4711 1f6c FFF7FEFF 		bl	getYAxisGyro
 4712              	.LVL509:
 4713 1f70 0546     		mov	r5, r0
 4714 1f72 FFF7FEFF 		bl	getZAxisGyro
 4715              	.LVL510:
 4716 1f76 2B46     		mov	r3, r5
 4717 1f78 0090     		str	r0, [sp]
 4718 1f7a 2246     		mov	r2, r4
 4719 1f7c 3949     		ldr	r1, .L704+108
 4720 1f7e 1F48     		ldr	r0, .L704+4
 4721 1f80 FFF7FEFF 		bl	sprintf
 4722              	.LVL511:
 4723 1f84 FEF73BB9 		b	.L357
 4724              	.L681:
 4725              		.loc 1 999 0
 4726 1f88 FFF7FEFF 		bl	getTemperature
 4727              	.LVL512:
 4728 1f8c 3649     		ldr	r1, .L704+112
 4729 1f8e 0246     		mov	r2, r0
 4730 1f90 1A48     		ldr	r0, .L704+4
 4731 1f92 FFF7FEFF 		bl	sprintf
ARM GAS  C:\Users\mathi\AppData\Local\Temp\cc0ZaFXf.s 			page 84


 4732              	.LVL513:
 4733 1f96 FEF7A1BE 		b	.L358
 4734              	.L685:
 4735              		.loc 1 758 0
 4736 1f9a 1921     		movs	r1, #25
 4737 1f9c 3348     		ldr	r0, .L704+116
 4738 1f9e FFF7FEFF 		bl	e_send_uart2_char
 4739              	.LVL514:
 4740              	.L257:
 4741              		.loc 1 758 0 is_stmt 0 discriminator 2
 4742 1fa2 FFF7FEFF 		bl	e_uart2_sending
 4743              	.LVL515:
 4744 1fa6 0028     		cmp	r0, #0
 4745 1fa8 FBD1     		bne	.L257
 4746 1faa 08E7     		b	.L256
 4747              	.L279:
 4748              		.loc 1 808 0 is_stmt 1
 4749 1fac 119B     		ldr	r3, [sp, #68]
 4750 1fae 1A68     		ldr	r2, [r3]
 4751 1fb0 129B     		ldr	r3, [sp, #72]
 4752 1fb2 1B68     		ldr	r3, [r3]
 4753 1fb4 03FB02F3 		mul	r3, r3, r2
 4754 1fb8 5B00     		lsls	r3, r3, #1
 4755 1fba FFF788BB 		b	.L280
 4756              	.L684:
 4757              		.loc 1 749 0
 4758 1fbe 1F21     		movs	r1, #31
 4759 1fc0 2B48     		ldr	r0, .L704+120
 4760 1fc2 FFF7FEFF 		bl	e_send_uart1_char
 4761              	.LVL516:
 4762              	.L250:
 4763              		.loc 1 749 0 is_stmt 0 discriminator 2
 4764 1fc6 FFF7FEFF 		bl	e_uart1_sending
 4765              	.LVL517:
 4766 1fca 0028     		cmp	r0, #0
 4767 1fcc FBD1     		bne	.L250
 4768 1fce FFF7F2BA 		b	.L249
 4769              	.L683:
 4770              		.loc 1 731 0 is_stmt 1
 4771 1fd2 1821     		movs	r1, #24
 4772 1fd4 2748     		ldr	r0, .L704+124
 4773 1fd6 FFF7FEFF 		bl	e_send_uart1_char
 4774              	.LVL518:
 4775              	.L235:
 4776              		.loc 1 731 0 is_stmt 0 discriminator 2
 4777 1fda FFF7FEFF 		bl	e_uart1_sending
 4778              	.LVL519:
 4779 1fde 0028     		cmp	r0, #0
 4780 1fe0 FBD1     		bne	.L235
 4781 1fe2 FFF77BBA 		b	.L234
 4782              	.L322:
 4783              		.loc 1 986 0 is_stmt 1
 4784 1fe6 FFF7FEFF 		bl	e_close_sound
 4785              	.LVL520:
 4786              		.loc 1 987 0
 4787 1fea FFF7FEFF 		bl	stopCurrentMelody
 4788              	.LVL521:
ARM GAS  C:\Users\mathi\AppData\Local\Temp\cc0ZaFXf.s 			page 85


 4789              		.loc 1 988 0
 4790 1fee 1C4A     		ldr	r2, .L704+104
 4791 1ff0 0023     		movs	r3, #0
 4792 1ff2 1370     		strb	r3, [r2]
 4793              		.loc 1 989 0
 4794 1ff4 FFF7DCBB 		b	.L329
 4795              	.L705:
 4796              		.align	2
 4797              	.L704:
 4798 1ff8 18090000 		.word	.LC71
 4799 1ffc 00000000 		.word	buffer
 4800 2000 88000000 		.word	.LC4
 4801 2004 A4090000 		.word	.LC79
 4802 2008 98000000 		.word	.LC6
 4803 200c FC050000 		.word	.LC45
 4804 2010 40060000 		.word	.LC47
 4805 2014 60060000 		.word	.LC48
 4806 2018 88060000 		.word	.LC49
 4807 201c B0060000 		.word	.LC50
 4808 2020 C8060000 		.word	.LC51
 4809 2024 DC060000 		.word	.LC52
 4810 2028 04070000 		.word	.LC53
 4811 202c 30070000 		.word	.LC54
 4812 2030 4C070000 		.word	.LC55
 4813 2034 64070000 		.word	.LC56
 4814 2038 80070000 		.word	.LC57
 4815 203c AC070000 		.word	.LC58
 4816 2040 D8070000 		.word	.LC59
 4817 2044 F4070000 		.word	.LC60
 4818 2048 20080000 		.word	.LC61
 4819 204c 48080000 		.word	.LC62
 4820 2050 C8000000 		.word	.LC12
 4821 2054 5C000000 		.word	.LC1
 4822 2058 18060000 		.word	.LC46
 4823 205c 90010000 		.word	.LC19
 4824 2060 00000000 		.word	.LANCHOR9
 4825 2064 00010000 		.word	.LC14
 4826 2068 A8090000 		.word	.LC80
 4827 206c E0050000 		.word	.LC44
 4828 2070 10050000 		.word	.LC39
 4829 2074 9C020000 		.word	.LC25
 4830              	.LBE6:
 4831              		.cfi_endproc
 4832              	.LFE259:
 4833              		.size	run_asercom, .-run_asercom
 4834              		.global	e_ambient_and_reflected_ir
 4835              		.global	e_ambient_ir
 4836              		.global	c
 4837              		.global	selector
 4838              		.global	buffer
 4839              		.section	.bss.LED_action.12673,"aw",%nobits
 4840              		.align	2
 4841              		.set	.LANCHOR28,. + 0
 4842              		.type	LED_action.12673, %object
 4843              		.size	LED_action.12673, 4
 4844              	LED_action.12673:
 4845 0000 00000000 		.space	4
ARM GAS  C:\Users\mathi\AppData\Local\Temp\cc0ZaFXf.s 			page 86


 4846              		.section	.bss.LED_nbr.12672,"aw",%nobits
 4847              		.align	2
 4848              		.set	.LANCHOR31,. + 0
 4849              		.type	LED_nbr.12672, %object
 4850              		.size	LED_nbr.12672, 4
 4851              	LED_nbr.12672:
 4852 0000 00000000 		.space	4
 4853              		.section	.bss.accelero.12696,"aw",%nobits
 4854              		.align	2
 4855              		.set	.LANCHOR15,. + 0
 4856              		.type	accelero.12696, %object
 4857              		.size	accelero.12696, 12
 4858              	accelero.12696:
 4859 0000 00000000 		.space	12
 4859      00000000 
 4859      00000000 
 4860              		.section	.bss.accx.12674,"aw",%nobits
 4861              		.align	2
 4862              		.set	.LANCHOR12,. + 0
 4863              		.type	accx.12674, %object
 4864              		.size	accx.12674, 4
 4865              	accx.12674:
 4866 0000 00000000 		.space	4
 4867              		.section	.bss.accy.12675,"aw",%nobits
 4868              		.align	2
 4869              		.set	.LANCHOR13,. + 0
 4870              		.type	accy.12675, %object
 4871              		.size	accy.12675, 4
 4872              	accy.12675:
 4873 0000 00000000 		.space	4
 4874              		.section	.bss.accz.12676,"aw",%nobits
 4875              		.align	2
 4876              		.set	.LANCHOR14,. + 0
 4877              		.type	accz.12676, %object
 4878              		.size	accz.12676, 4
 4879              	accz.12676:
 4880 0000 00000000 		.space	4
 4881              		.section	.bss.buffer,"aw",%nobits
 4882              		.align	2
 4883              		.type	buffer, %object
 4884              		.size	buffer, 4139
 4885              	buffer:
 4886 0000 00000000 		.space	4139
 4886      00000000 
 4886      00000000 
 4886      00000000 
 4886      00000000 
 4887              		.section	.bss.c,"aw",%nobits
 4888              		.set	.LANCHOR10,. + 0
 4889              		.type	c, %object
 4890              		.size	c, 1
 4891              	c:
 4892 0000 00       		.space	1
 4893              		.section	.bss.c1.12662,"aw",%nobits
 4894              		.set	.LANCHOR16,. + 0
 4895              		.type	c1.12662, %object
 4896              		.size	c1.12662, 1
ARM GAS  C:\Users\mathi\AppData\Local\Temp\cc0ZaFXf.s 			page 87


 4897              	c1.12662:
 4898 0000 00       		.space	1
 4899              		.section	.bss.c2.12663,"aw",%nobits
 4900              		.set	.LANCHOR17,. + 0
 4901              		.type	c2.12663, %object
 4902              		.size	c2.12663, 1
 4903              	c2.12663:
 4904 0000 00       		.space	1
 4905              		.section	.bss.cam_heigth.12683,"aw",%nobits
 4906              		.align	2
 4907              		.set	.LANCHOR4,. + 0
 4908              		.type	cam_heigth.12683, %object
 4909              		.size	cam_heigth.12683, 4
 4910              	cam_heigth.12683:
 4911 0000 00000000 		.space	4
 4912              		.section	.bss.cam_mode.12681,"aw",%nobits
 4913              		.align	2
 4914              		.set	.LANCHOR2,. + 0
 4915              		.type	cam_mode.12681, %object
 4916              		.size	cam_mode.12681, 4
 4917              	cam_mode.12681:
 4918 0000 00000000 		.space	4
 4919              		.section	.bss.cam_size.12685,"aw",%nobits
 4920              		.align	2
 4921              		.set	.LANCHOR6,. + 0
 4922              		.type	cam_size.12685, %object
 4923              		.size	cam_size.12685, 4
 4924              	cam_size.12685:
 4925 0000 00000000 		.space	4
 4926              		.section	.bss.cam_width.12682,"aw",%nobits
 4927              		.align	2
 4928              		.set	.LANCHOR3,. + 0
 4929              		.type	cam_width.12682, %object
 4930              		.size	cam_width.12682, 4
 4931              	cam_width.12682:
 4932 0000 00000000 		.space	4
 4933              		.section	.bss.cam_x1.12686,"aw",%nobits
 4934              		.align	2
 4935              		.set	.LANCHOR29,. + 0
 4936              		.type	cam_x1.12686, %object
 4937              		.size	cam_x1.12686, 4
 4938              	cam_x1.12686:
 4939 0000 00000000 		.space	4
 4940              		.section	.bss.cam_y1.12687,"aw",%nobits
 4941              		.align	2
 4942              		.set	.LANCHOR30,. + 0
 4943              		.type	cam_y1.12687, %object
 4944              		.size	cam_y1.12687, 4
 4945              	cam_y1.12687:
 4946 0000 00000000 		.space	4
 4947              		.section	.bss.cam_zoom.12684,"aw",%nobits
 4948              		.align	2
 4949              		.set	.LANCHOR5,. + 0
 4950              		.type	cam_zoom.12684, %object
 4951              		.size	cam_zoom.12684, 4
 4952              	cam_zoom.12684:
 4953 0000 00000000 		.space	4
ARM GAS  C:\Users\mathi\AppData\Local\Temp\cc0ZaFXf.s 			page 88


 4954              		.section	.bss.e_ambient_and_reflected_ir,"aw",%nobits
 4955              		.align	2
 4956              		.type	e_ambient_and_reflected_ir, %object
 4957              		.size	e_ambient_and_reflected_ir, 40
 4958              	e_ambient_and_reflected_ir:
 4959 0000 00000000 		.space	40
 4959      00000000 
 4959      00000000 
 4959      00000000 
 4959      00000000 
 4960              		.section	.bss.e_ambient_ir,"aw",%nobits
 4961              		.align	2
 4962              		.type	e_ambient_ir, %object
 4963              		.size	e_ambient_ir, 40
 4964              	e_ambient_ir:
 4965 0000 00000000 		.space	40
 4965      00000000 
 4965      00000000 
 4965      00000000 
 4965      00000000 
 4966              		.section	.bss.first.12688,"aw",%nobits
 4967              		.set	.LANCHOR9,. + 0
 4968              		.type	first.12688, %object
 4969              		.size	first.12688, 1
 4970              	first.12688:
 4971 0000 00       		.space	1
 4972              		.section	.bss.gyrox.12678,"aw",%nobits
 4973              		.align	2
 4974              		.set	.LANCHOR20,. + 0
 4975              		.type	gyrox.12678, %object
 4976              		.size	gyrox.12678, 4
 4977              	gyrox.12678:
 4978 0000 00000000 		.space	4
 4979              		.section	.bss.gyroy.12679,"aw",%nobits
 4980              		.align	2
 4981              		.set	.LANCHOR19,. + 0
 4982              		.type	gyroy.12679, %object
 4983              		.size	gyroy.12679, 4
 4984              	gyroy.12679:
 4985 0000 00000000 		.space	4
 4986              		.section	.bss.gyroz.12680,"aw",%nobits
 4987              		.align	2
 4988              		.set	.LANCHOR18,. + 0
 4989              		.type	gyroz.12680, %object
 4990              		.size	gyroz.12680, 4
 4991              	gyroz.12680:
 4992 0000 00000000 		.space	4
 4993              		.section	.bss.i.12665,"aw",%nobits
 4994              		.align	2
 4995              		.set	.LANCHOR11,. + 0
 4996              		.type	i.12665, %object
 4997              		.size	i.12665, 4
 4998              	i.12665:
 4999 0000 00000000 		.space	4
 5000              		.section	.bss.j.12666,"aw",%nobits
 5001              		.align	2
 5002              		.set	.LANCHOR22,. + 0
ARM GAS  C:\Users\mathi\AppData\Local\Temp\cc0ZaFXf.s 			page 89


 5003              		.type	j.12666, %object
 5004              		.size	j.12666, 4
 5005              	j.12666:
 5006 0000 00000000 		.space	4
 5007              		.section	.bss.mod.12690,"aw",%nobits
 5008              		.align	2
 5009              		.set	.LANCHOR25,. + 0
 5010              		.type	mod.12690, %object
 5011              		.size	mod.12690, 4
 5012              	mod.12690:
 5013 0000 00000000 		.space	4
 5014              		.section	.bss.positionl.12671,"aw",%nobits
 5015              		.align	2
 5016              		.set	.LANCHOR24,. + 0
 5017              		.type	positionl.12671, %object
 5018              		.size	positionl.12671, 4
 5019              	positionl.12671:
 5020 0000 00000000 		.space	4
 5021              		.section	.bss.positionr.12670,"aw",%nobits
 5022              		.align	2
 5023              		.set	.LANCHOR23,. + 0
 5024              		.type	positionr.12670, %object
 5025              		.size	positionr.12670, 4
 5026              	positionr.12670:
 5027 0000 00000000 		.space	4
 5028              		.section	.bss.reg.12691,"aw",%nobits
 5029              		.align	2
 5030              		.set	.LANCHOR26,. + 0
 5031              		.type	reg.12691, %object
 5032              		.size	reg.12691, 4
 5033              	reg.12691:
 5034 0000 00000000 		.space	4
 5035              		.section	.bss.selector,"aw",%nobits
 5036              		.align	2
 5037              		.set	.LANCHOR0,. + 0
 5038              		.type	selector, %object
 5039              		.size	selector, 4
 5040              	selector:
 5041 0000 00000000 		.space	4
 5042              		.section	.bss.sound.12677,"aw",%nobits
 5043              		.align	2
 5044              		.set	.LANCHOR32,. + 0
 5045              		.type	sound.12677, %object
 5046              		.size	sound.12677, 4
 5047              	sound.12677:
 5048 0000 00000000 		.space	4
 5049              		.section	.bss.speedl.12669,"aw",%nobits
 5050              		.align	2
 5051              		.set	.LANCHOR8,. + 0
 5052              		.type	speedl.12669, %object
 5053              		.size	speedl.12669, 4
 5054              	speedl.12669:
 5055 0000 00000000 		.space	4
 5056              		.section	.bss.speedr.12668,"aw",%nobits
 5057              		.align	2
 5058              		.set	.LANCHOR7,. + 0
 5059              		.type	speedr.12668, %object
ARM GAS  C:\Users\mathi\AppData\Local\Temp\cc0ZaFXf.s 			page 90


 5060              		.size	speedr.12668, 4
 5061              	speedr.12668:
 5062 0000 00000000 		.space	4
 5063              		.section	.bss.val.12692,"aw",%nobits
 5064              		.align	2
 5065              		.set	.LANCHOR27,. + 0
 5066              		.type	val.12692, %object
 5067              		.size	val.12692, 4
 5068              	val.12692:
 5069 0000 00000000 		.space	4
 5070              		.section	.bss.wait_cam.12664,"aw",%nobits
 5071              		.set	.LANCHOR21,. + 0
 5072              		.type	wait_cam.12664, %object
 5073              		.size	wait_cam.12664, 1
 5074              	wait_cam.12664:
 5075 0000 00       		.space	1
 5076              		.section	.data.HWversion.12699,"aw",%progbits
 5077              		.align	2
 5078              		.set	.LANCHOR1,. + 0
 5079              		.type	HWversion.12699, %object
 5080              		.size	HWversion.12699, 4
 5081              	HWversion.12699:
 5082 0000 FFFF0000 		.word	65535
 5083              		.section	.rodata.run_asercom.str1.4,"aMS",%progbits,1
 5084              		.align	2
 5085              	.LC0:
 5086 0000 0C075745 		.ascii	"\014\007WELCOME to the SerCom protocol on e-Puck\015"
 5086      4C434F4D 
 5086      4520746F 
 5086      20746865 
 5086      20536572 
 5087 002b 0A746865 		.ascii	"\012the EPFL education robot type \"H\" for help\015"
 5087      20455046 
 5087      4C206564 
 5087      75636174 
 5087      696F6E20 
 5088 0057 0A00     		.ascii	"\012\000"
 5089 0059 000000   		.space	3
 5090              	.LC1:
 5091 005c 612C2564 		.ascii	"a,%d,%d,%d\015\012\000"
 5091      2C25642C 
 5091      25640D0A 
 5091      00
 5092 0069 000000   		.space	3
 5093              	.LC2:
 5094 006c 612C302C 		.ascii	"a,0,0,0\015\012\000"
 5094      302C300D 
 5094      0A00
 5095 0076 0000     		.space	2
 5096              	.LC3:
 5097 0078 622C2564 		.ascii	"b,%d (%d%%)\015\012\000"
 5097      20282564 
 5097      2525290D 
 5097      0A00
 5098 0086 0000     		.space	2
 5099              	.LC4:
 5100 0088 622C2564 		.ascii	"b,%d\015\012\000"
ARM GAS  C:\Users\mathi\AppData\Local\Temp\cc0ZaFXf.s 			page 91


 5100      0D0A00
 5101 008f 00       		.space	1
 5102              	.LC5:
 5103 0090 422C2564 		.ascii	"B,%d\015\000"
 5103      0D00
 5104 0096 0000     		.space	2
 5105              	.LC6:
 5106 0098 620D0A00 		.ascii	"b\015\012\000"
 5107              	.LC7:
 5108 009c 632C2564 		.ascii	"c,%d\015\012\000"
 5108      0D0A00
 5109 00a3 00       		.space	1
 5110              	.LC8:
 5111 00a4 442C2564 		.ascii	"D,%d,%d\015\000"
 5111      2C25640D 
 5111      00
 5112 00ad 000000   		.space	3
 5113              	.LC9:
 5114 00b0 640D0A00 		.ascii	"d\015\012\000"
 5115              	.LC10:
 5116 00b4 652C2564 		.ascii	"e,%d,%d\015\012\000"
 5116      2C25640D 
 5116      0A00
 5117 00be 0000     		.space	2
 5118              	.LC11:
 5119 00c0 462C2564 		.ascii	"F,%d\015\000"
 5119      0D00
 5120 00c6 0000     		.space	2
 5121              	.LC12:
 5122 00c8 660D0A00 		.ascii	"f\015\012\000"
 5123              	.LC13:
 5124 00cc 67204952 		.ascii	"g IR check : 0x%x, address : 0x%x, data : 0x%x\015\012"
 5124      20636865 
 5124      636B203A 
 5124      20307825 
 5124      782C2061 
 5125 00fc 00       		.ascii	"\000"
 5126 00fd 000000   		.space	3
 5127              	.LC14:
 5128 0100 672C2564 		.ascii	"g,%d,%d,%d\015\012\000"
 5128      2C25642C 
 5128      25640D0A 
 5128      00
 5129 010d 000000   		.space	3
 5130              	.LC15:
 5131 0110 0A00     		.ascii	"\012\000"
 5132 0112 0000     		.space	2
 5133              	.LC16:
 5134 0114 22412220 		.ascii	"\"A\"               Accelerometer\015\012\000"
 5134      20202020 
 5134      20202020 
 5134      20202020 
 5134      20204163 
 5135 0136 0000     		.space	2
 5136              	.LC17:
 5137 0138 22422C23 		.ascii	"\"B,#\"             Body led 0=off 1=on 2=inverse\015"
 5137      22202020 
ARM GAS  C:\Users\mathi\AppData\Local\Temp\cc0ZaFXf.s 			page 92


 5137      20202020 
 5137      20202020 
 5137      2020426F 
 5138 0168 0A00     		.ascii	"\012\000"
 5139 016a 0000     		.space	2
 5140              	.LC18:
 5141 016c 22622220 		.ascii	"\"b\"               Battery value\015\012\000"
 5141      20202020 
 5141      20202020 
 5141      20202020 
 5141      20204261 
 5142 018e 0000     		.space	2
 5143              	.LC19:
 5144 0190 22622220 		.ascii	"\"b\"               Battery state (1=ok, 0=low)\015"
 5144      20202020 
 5144      20202020 
 5144      20202020 
 5144      20204261 
 5145 01be 0A00     		.ascii	"\012\000"
 5146              	.LC20:
 5147 01c0 22432220 		.ascii	"\"C\"               Selector position\015\012\000"
 5147      20202020 
 5147      20202020 
 5147      20202020 
 5147      20205365 
 5148 01e6 0000     		.space	2
 5149              	.LC21:
 5150 01e8 22442C23 		.ascii	"\"D,#,#\"           Set motor speed left,right\015\012"
 5150      2C232220 
 5150      20202020 
 5150      20202020 
 5150      20205365 
 5151 0216 00       		.ascii	"\000"
 5152 0217 00       		.space	1
 5153              	.LC22:
 5154 0218 22452220 		.ascii	"\"E\"               Get motor speed left,right\015\012"
 5154      20202020 
 5154      20202020 
 5154      20202020 
 5154      20204765 
 5155 0246 00       		.ascii	"\000"
 5156 0247 00       		.space	1
 5157              	.LC23:
 5158 0248 22462C23 		.ascii	"\"F,#\"             Front led 0=off 1=on 2=inverse\015"
 5158      22202020 
 5158      20202020 
 5158      20202020 
 5158      20204672 
 5159 0279 0A00     		.ascii	"\012\000"
 5160 027b 00       		.space	1
 5161              	.LC24:
 5162 027c 22472220 		.ascii	"\"G\"               IR receiver\015\012\000"
 5162      20202020 
 5162      20202020 
 5162      20202020 
 5162      20204952 
 5163              	.LC25:
ARM GAS  C:\Users\mathi\AppData\Local\Temp\cc0ZaFXf.s 			page 93


 5164 029c 22672220 		.ascii	"\"g\"               Gyro\015\012\000"
 5164      20202020 
 5164      20202020 
 5164      20202020 
 5164      20204779 
 5165 02b5 000000   		.space	3
 5166              	.LC26:
 5167 02b8 22482220 		.ascii	"\"H\"               Help\015\012\000"
 5167      20202020 
 5167      20202020 
 5167      20202020 
 5167      20204865 
 5168 02d1 000000   		.space	3
 5169              	.LC27:
 5170 02d4 22492220 		.ascii	"\"I\"               Get camera parameter\015\012\000"
 5170      20202020 
 5170      20202020 
 5170      20202020 
 5170      20204765 
 5171 02fd 000000   		.space	3
 5172              	.LC28:
 5173 0300 224A2C23 		.ascii	"\"J,#,#,#,#,#,#\"   Set camera parameter mode,width"
 5173      2C232C23 
 5173      2C232C23 
 5173      2C232220 
 5173      20205365 
 5174 0331 2C686569 		.ascii	",heigth,zoom(1,4 or 8),x1,y1\015\012\000"
 5174      6774682C 
 5174      7A6F6F6D 
 5174      28312C34 
 5174      206F7220 
 5175              	.LC29:
 5176 0350 224B2220 		.ascii	"\"K\"               Calibrate proximity sensors\015"
 5176      20202020 
 5176      20202020 
 5176      20202020 
 5176      20204361 
 5177 037e 0A00     		.ascii	"\012\000"
 5178              	.LC30:
 5179 0380 224C2C23 		.ascii	"\"L,#,#\"           Led number,0=off 1=on 2=inverse"
 5179      2C232220 
 5179      20202020 
 5179      20202020 
 5179      20204C65 
 5180 03b1 0D0A00   		.ascii	"\015\012\000"
 5181              	.LC31:
 5182 03b4 224D2220 		.ascii	"\"M\"               Floor sensors\015\012\000"
 5182      20202020 
 5182      20202020 
 5182      20202020 
 5182      2020466C 
 5183 03d6 0000     		.space	2
 5184              	.LC32:
 5185 03d8 224E2220 		.ascii	"\"N\"               Proximity\015\012\000"
 5185      20202020 
 5185      20202020 
 5185      20202020 
ARM GAS  C:\Users\mathi\AppData\Local\Temp\cc0ZaFXf.s 			page 94


 5185      20205072 
 5186 03f6 0000     		.space	2
 5187              	.LC33:
 5188 03f8 224F2220 		.ascii	"\"O\"               Light sensors\015\012\000"
 5188      20202020 
 5188      20202020 
 5188      20202020 
 5188      20204C69 
 5189 041a 0000     		.space	2
 5190              	.LC34:
 5191 041c 22502C23 		.ascii	"\"P,#,#\"           Set motor position left,right\015"
 5191      2C232220 
 5191      20202020 
 5191      20202020 
 5191      20205365 
 5192 044c 0A00     		.ascii	"\012\000"
 5193 044e 0000     		.space	2
 5194              	.LC35:
 5195 0450 22512220 		.ascii	"\"Q\"               Get motor position left,right\015"
 5195      20202020 
 5195      20202020 
 5195      20202020 
 5195      20204765 
 5196 0480 0A00     		.ascii	"\012\000"
 5197 0482 0000     		.space	2
 5198              	.LC36:
 5199 0484 22522220 		.ascii	"\"R\"               Reset e-puck\015\012\000"
 5199      20202020 
 5199      20202020 
 5199      20202020 
 5199      20205265 
 5200 04a5 000000   		.space	3
 5201              	.LC37:
 5202 04a8 22532220 		.ascii	"\"S\"               Stop e-puck and turn off leds\015"
 5202      20202020 
 5202      20202020 
 5202      20202020 
 5202      20205374 
 5203 04d8 0A00     		.ascii	"\012\000"
 5204 04da 0000     		.space	2
 5205              	.LC38:
 5206 04dc 22542C23 		.ascii	"\"T,#\"             Play sound 1-5 else stop sound\015"
 5206      22202020 
 5206      20202020 
 5206      20202020 
 5206      2020506C 
 5207 050d 0A00     		.ascii	"\012\000"
 5208 050f 00       		.space	1
 5209              	.LC39:
 5210 0510 22742220 		.ascii	"\"t\"               Temperature\015\012\000"
 5210      20202020 
 5210      20202020 
 5210      20202020 
 5210      20205465 
 5211              	.LC40:
 5212 0530 22552220 		.ascii	"\"U\"               Get microphone amplitude\015\012"
 5212      20202020 
ARM GAS  C:\Users\mathi\AppData\Local\Temp\cc0ZaFXf.s 			page 95


 5212      20202020 
 5212      20202020 
 5212      20204765 
 5213 055c 00       		.ascii	"\000"
 5214 055d 000000   		.space	3
 5215              	.LC41:
 5216 0560 22562220 		.ascii	"\"V\"               Version of SerCom\015\012\000"
 5216      20202020 
 5216      20202020 
 5216      20202020 
 5216      20205665 
 5217 0586 0000     		.space	2
 5218              	.LC42:
 5219 0588 22572220 		.ascii	"\"W\"               Write I2C (mod,reg,val)\015\012"
 5219      20202020 
 5219      20202020 
 5219      20202020 
 5219      20205772 
 5220 05b3 00       		.ascii	"\000"
 5221              	.LC43:
 5222 05b4 22592220 		.ascii	"\"Y\"               Read I2C val=(mod,reg)\015\012\000"
 5222      20202020 
 5222      20202020 
 5222      20202020 
 5222      20205265 
 5223 05df 00       		.space	1
 5224              	.LC44:
 5225 05e0 22412220 		.ascii	"\"A\"       Accelerometer\015\012\000"
 5225      20202020 
 5225      20204163 
 5225      63656C65 
 5225      726F6D65 
 5226 05fa 0000     		.space	2
 5227              	.LC45:
 5228 05fc 22622220 		.ascii	"\"b\"       Battery value\015\012\000"
 5228      20202020 
 5228      20204261 
 5228      74746572 
 5228      79207661 
 5229 0616 0000     		.space	2
 5230              	.LC46:
 5231 0618 22622220 		.ascii	"\"b\"       Battery state (1=ok, 0=low)\015\012\000"
 5231      20202020 
 5231      20204261 
 5231      74746572 
 5231      79207374 
 5232              	.LC47:
 5233 0640 22432220 		.ascii	"\"C\"       Selector position\015\012\000"
 5233      20202020 
 5233      20205365 
 5233      6C656374 
 5233      6F722070 
 5234 065e 0000     		.space	2
 5235              	.LC48:
 5236 0660 22442C23 		.ascii	"\"D,#,#\"   Set motor speed left,right\015\012\000"
 5236      2C232220 
 5236      20205365 
ARM GAS  C:\Users\mathi\AppData\Local\Temp\cc0ZaFXf.s 			page 96


 5236      74206D6F 
 5236      746F7220 
 5237 0687 00       		.space	1
 5238              	.LC49:
 5239 0688 22452220 		.ascii	"\"E\"       Get motor speed left,right\015\012\000"
 5239      20202020 
 5239      20204765 
 5239      74206D6F 
 5239      746F7220 
 5240 06af 00       		.space	1
 5241              	.LC50:
 5242 06b0 22472220 		.ascii	"\"G\"       IR receiver\015\012\000"
 5242      20202020 
 5242      20204952 
 5242      20726563 
 5242      65697665 
 5243              	.LC51:
 5244 06c8 22482220 		.ascii	"\"H\"       Help\015\012\000"
 5244      20202020 
 5244      20204865 
 5244      6C700D0A 
 5244      00
 5245 06d9 000000   		.space	3
 5246              	.LC52:
 5247 06dc 224B2220 		.ascii	"\"K\"       Calibrate proximity sensors\015\012\000"
 5247      20202020 
 5247      20204361 
 5247      6C696272 
 5247      61746520 
 5248              	.LC53:
 5249 0704 224C2C23 		.ascii	"\"L,#,#\"   Led number,0=off 1=on 2=inverse\015\012"
 5249      2C232220 
 5249      20204C65 
 5249      64206E75 
 5249      6D626572 
 5250 072f 00       		.ascii	"\000"
 5251              	.LC54:
 5252 0730 224D2220 		.ascii	"\"M\"       Floor sensors\015\012\000"
 5252      20202020 
 5252      2020466C 
 5252      6F6F7220 
 5252      73656E73 
 5253 074a 0000     		.space	2
 5254              	.LC55:
 5255 074c 224E2220 		.ascii	"\"N\"       Proximity\015\012\000"
 5255      20202020 
 5255      20205072 
 5255      6F78696D 
 5255      6974790D 
 5256 0762 0000     		.space	2
 5257              	.LC56:
 5258 0764 224F2220 		.ascii	"\"O\"       Light sensors\015\012\000"
 5258      20202020 
 5258      20204C69 
 5258      67687420 
 5258      73656E73 
 5259 077e 0000     		.space	2
ARM GAS  C:\Users\mathi\AppData\Local\Temp\cc0ZaFXf.s 			page 97


 5260              	.LC57:
 5261 0780 22502C23 		.ascii	"\"P,#,#\"   Set motor position left,right\015\012\000"
 5261      2C232220 
 5261      20205365 
 5261      74206D6F 
 5261      746F7220 
 5262 07aa 0000     		.space	2
 5263              	.LC58:
 5264 07ac 22512220 		.ascii	"\"Q\"       Get motor position left,right\015\012\000"
 5264      20202020 
 5264      20204765 
 5264      74206D6F 
 5264      746F7220 
 5265 07d6 0000     		.space	2
 5266              	.LC59:
 5267 07d8 22522220 		.ascii	"\"R\"       Reset e-puck\015\012\000"
 5267      20202020 
 5267      20205265 
 5267      73657420 
 5267      652D7075 
 5268 07f1 000000   		.space	3
 5269              	.LC60:
 5270 07f4 22532220 		.ascii	"\"S\"       Stop e-puck and turn off leds\015\012\000"
 5270      20202020 
 5270      20205374 
 5270      6F702065 
 5270      2D707563 
 5271 081e 0000     		.space	2
 5272              	.LC61:
 5273 0820 22552220 		.ascii	"\"U\"       Get microphone amplitude\015\012\000"
 5273      20202020 
 5273      20204765 
 5273      74206D69 
 5273      63726F70 
 5274 0845 000000   		.space	3
 5275              	.LC62:
 5276 0848 22562220 		.ascii	"\"V\"       Version of SerCom\015\012\000"
 5276      20202020 
 5276      20205665 
 5276      7273696F 
 5276      6E206F66 
 5277 0866 0000     		.space	2
 5278              	.LC63:
 5279 0868 692C2564 		.ascii	"i,%d,%d,%d,%d,%d\015\012\000"
 5279      2C25642C 
 5279      25642C25 
 5279      642C2564 
 5279      0D0A00
 5280 087b 00       		.space	1
 5281              	.LC64:
 5282 087c 4A2C2564 		.ascii	"J,%d,%d,%d,%d,%d,%d\015\000"
 5282      2C25642C 
 5282      25642C25 
 5282      642C2564 
 5282      2C25640D 
 5283 0891 000000   		.space	3
 5284              	.LC65:
ARM GAS  C:\Users\mathi\AppData\Local\Temp\cc0ZaFXf.s 			page 98


 5285 0894 6A0D0A00 		.ascii	"j\015\012\000"
 5286              	.LC66:
 5287 0898 6B2C2053 		.ascii	"k, Starting calibration - Remove any object in sens"
 5287      74617274 
 5287      696E6720 
 5287      63616C69 
 5287      62726174 
 5288 08cb 6F727320 		.ascii	"ors range\015\012\000"
 5288      72616E67 
 5288      650D0A00 
 5289 08d7 00       		.space	1
 5290              	.LC67:
 5291 08d8 4C2C2564 		.ascii	"L,%d,%d\015\000"
 5291      2C25640D 
 5291      00
 5292 08e1 000000   		.space	3
 5293              	.LC68:
 5294 08e4 6C0D0A00 		.ascii	"l\015\012\000"
 5295              	.LC69:
 5296 08e8 6D2C2564 		.ascii	"m,%d,%d,%d,%d,%d\015\012\000"
 5296      2C25642C 
 5296      25642C25 
 5296      642C2564 
 5296      0D0A00
 5297 08fb 00       		.space	1
 5298              	.LC70:
 5299 08fc 6E2C2564 		.ascii	"n,%d,%d,%d,%d,%d,%d,%d,%d\015\012\000"
 5299      2C25642C 
 5299      25642C25 
 5299      642C2564 
 5299      2C25642C 
 5300              	.LC71:
 5301 0918 6E2C2564 		.ascii	"n,%d,%d,%d,%d,%d,%d,%d,%d,%d,%d\015\012\000"
 5301      2C25642C 
 5301      25642C25 
 5301      642C2564 
 5301      2C25642C 
 5302 093a 0000     		.space	2
 5303              	.LC72:
 5304 093c 6F2C2564 		.ascii	"o,%d,%d,%d,%d,%d,%d,%d,%d\015\012\000"
 5304      2C25642C 
 5304      25642C25 
 5304      642C2564 
 5304      2C25642C 
 5305              	.LC73:
 5306 0958 6F2C2564 		.ascii	"o,%d,%d,%d,%d,%d,%d,%d,%d,%d,%d\015\012\000"
 5306      2C25642C 
 5306      25642C25 
 5306      642C2564 
 5306      2C25642C 
 5307 097a 0000     		.space	2
 5308              	.LC74:
 5309 097c 502C2564 		.ascii	"P,%d,%d\015\000"
 5309      2C25640D 
 5309      00
 5310 0985 000000   		.space	3
 5311              	.LC75:
ARM GAS  C:\Users\mathi\AppData\Local\Temp\cc0ZaFXf.s 			page 99


 5312 0988 700D0A00 		.ascii	"p\015\012\000"
 5313              	.LC76:
 5314 098c 712C2564 		.ascii	"q,%d,%d\015\012\000"
 5314      2C25640D 
 5314      0A00
 5315 0996 0000     		.space	2
 5316              	.LC77:
 5317 0998 730D0A00 		.ascii	"s\015\012\000"
 5318              	.LC78:
 5319 099c 542C2564 		.ascii	"T,%d\000"
 5319      00
 5320 09a1 000000   		.space	3
 5321              	.LC79:
 5322 09a4 740D0A00 		.ascii	"t\015\012\000"
 5323              	.LC80:
 5324 09a8 742C2564 		.ascii	"t,%d\015\012\000"
 5324      0D0A00
 5325 09af 00       		.space	1
 5326              	.LC81:
 5327 09b0 752C2564 		.ascii	"u,%d,%d,%d\015\012\000"
 5327      2C25642C 
 5327      25640D0A 
 5327      00
 5328 09bd 000000   		.space	3
 5329              	.LC82:
 5330 09c0 762C5665 		.ascii	"v,Version 1.2.2 August 2008 GCtronic\015\012\000"
 5330      7273696F 
 5330      6E20312E 
 5330      322E3220 
 5330      41756775 
 5331 09e7 00       		.space	1
 5332              	.LC83:
 5333 09e8 572C2564 		.ascii	"W,%d,%d,%d\015\000"
 5333      2C25642C 
 5333      25640D00 
 5334              	.LC84:
 5335 09f4 770D0A00 		.ascii	"w\015\012\000"
 5336              	.LC85:
 5337 09f8 592C2564 		.ascii	"Y,%d,%d\015\000"
 5337      2C25640D 
 5337      00
 5338 0a01 000000   		.space	3
 5339              	.LC86:
 5340 0a04 792C2564 		.ascii	"y,%d,%d\015\012\000"
 5340      2C25640D 
 5340      0A00
 5341 0a0e 0000     		.space	2
 5342              	.LC87:
 5343 0a10 792C2564 		.ascii	"y,%d\015\012\000"
 5343      0D0A00
 5344 0a17 00       		.space	1
 5345              	.LC88:
 5346 0a18 25643A20 		.ascii	"%d: %d\015\012\000"
 5346      25640D0A 
 5346      00
 5347 0a21 000000   		.space	3
 5348              	.LC89:
ARM GAS  C:\Users\mathi\AppData\Local\Temp\cc0ZaFXf.s 			page 100


 5349 0a24 7A2C436F 		.ascii	"z,Command not found\015\012\000"
 5349      6D6D616E 
 5349      64206E6F 
 5349      7420666F 
 5349      756E640D 
 5350 0a3a 0000     		.space	2
 5351              	.LC90:
 5352 0a3c 6B2C2043 		.ascii	"k, Calibration finished\015\012\000"
 5352      616C6962 
 5352      72617469 
 5352      6F6E2066 
 5352      696E6973 
 5353 0a56 0000     		.space	2
 5354              	.LC91:
 5355 0a58 48572076 		.ascii	"HW version: %X\015\012\000"
 5355      65727369 
 5355      6F6E3A20 
 5355      25580D0A 
 5355      00
 5356 0a69 000000   		.space	3
 5357              	.LC92:
 5358 0a6c 672C302C 		.ascii	"g,0,0,0\015\012\000"
 5358      302C300D 
 5358      0A00
 5359 0a76 0000     		.space	2
 5360              	.LC93:
 5361 0a78 742C300D 		.ascii	"t,0\015\012\000"
 5361      0A00
 5362              		.text
 5363              	.Letext0:
 5364              		.file 2 "c:\\eclipse_e-puck2\\tools\\gcc-arm-none-eabi-7-2017-q4-major-win32\\arm-none-eabi\\inclu
 5365              		.file 3 "c:\\eclipse_e-puck2\\tools\\gcc-arm-none-eabi-7-2017-q4-major-win32\\arm-none-eabi\\inclu
 5366              		.file 4 "c:\\eclipse_e-puck2\\tools\\gcc-arm-none-eabi-7-2017-q4-major-win32\\lib\\gcc\\arm-none-e
 5367              		.file 5 "../../lib/e-puck2_main-processor/ChibiOS//os/rt/ports/ARMCMx/compilers/GCC/chtypes.h"
 5368              		.file 6 "../../lib/e-puck2_main-processor/ChibiOS//os/rt/include/chsystypes.h"
 5369              		.file 7 "../../lib/e-puck2_main-processor/ChibiOS//os/rt/include/chschd.h"
 5370              		.file 8 "../../lib/e-puck2_main-processor/ChibiOS//os/ext/CMSIS/include/core_cm4.h"
 5371              		.file 9 "../../lib/e-puck2_main-processor/ChibiOS//os/ext/CMSIS/ST/system_stm32f4xx.h"
 5372              		.file 10 "../../lib/e-puck2_main-processor/ChibiOS//os/ext/CMSIS/ST/stm32f407xx.h"
 5373              		.file 11 "../../lib/e-puck2_main-processor/ChibiOS//os/rt/ports/ARMCMx/chcore.h"
 5374              		.file 12 "../../lib/e-puck2_main-processor/ChibiOS//os/rt/ports/ARMCMx/chcore_v7m.h"
 5375              		.file 13 "../../lib/e-puck2_main-processor/ChibiOS//os/rt/include/chdebug.h"
 5376              		.file 14 "../../lib/e-puck2_main-processor/ChibiOS//os/rt/include/chtm.h"
 5377              		.file 15 "../../lib/e-puck2_main-processor/ChibiOS//os/rt/include/chstats.h"
 5378              		.file 16 "../../lib/e-puck2_main-processor/ChibiOS//os/rt/include/chsem.h"
 5379              		.file 17 "../../lib/e-puck2_main-processor/ChibiOS//os/rt/include/chmtx.h"
 5380              		.file 18 "../../lib/e-puck2_main-processor/ChibiOS//os/rt/include/chregistry.h"
 5381              		.file 19 "../../lib/e-puck2_main-processor/ChibiOS//os/rt/include/chevents.h"
 5382              		.file 20 "../../lib/e-puck2_main-processor/ChibiOS//os/rt/include/chqueues.h"
 5383              		.file 21 "../../lib/e-puck2_main-processor/ChibiOS//os/hal/ports/STM32/STM32F4xx/stm32_dma.h"
 5384              		.file 22 "../../lib/e-puck2_main-processor/ChibiOS//os/hal/include/hal_ioblock.h"
 5385              		.file 23 "../../lib/e-puck2_main-processor/ChibiOS//os/hal/ports/STM32/LLD/GPIOv2/pal_lld.h"
 5386              		.file 24 "../../lib/e-puck2_main-processor/ChibiOS//os/hal/include/adc.h"
 5387              		.file 25 "../../lib/e-puck2_main-processor/ChibiOS//os/hal/ports/STM32/STM32F4xx/adc_lld.h"
 5388              		.file 26 "../../lib/e-puck2_main-processor/ChibiOS//os/hal/include/can.h"
 5389              		.file 27 "../../lib/e-puck2_main-processor/ChibiOS//os/hal/ports/STM32/LLD/can_lld.h"
 5390              		.file 28 "../../lib/e-puck2_main-processor/ChibiOS//os/hal/include/dac.h"
ARM GAS  C:\Users\mathi\AppData\Local\Temp\cc0ZaFXf.s 			page 101


 5391              		.file 29 "../../lib/e-puck2_main-processor/ChibiOS//os/hal/ports/STM32/LLD/DACv1/dac_lld.h"
 5392              		.file 30 "../../lib/e-puck2_main-processor/ChibiOS//os/hal/include/ext.h"
 5393              		.file 31 "../../lib/e-puck2_main-processor/ChibiOS//os/hal/ports/STM32/LLD/ext_lld.h"
 5394              		.file 32 "../../lib/e-puck2_main-processor/ChibiOS//os/hal/include/gpt.h"
 5395              		.file 33 "../../lib/e-puck2_main-processor/ChibiOS//os/hal/ports/STM32/LLD/TIMv1/gpt_lld.h"
 5396              		.file 34 "../../lib/e-puck2_main-processor/ChibiOS//os/hal/ports/STM32/LLD/TIMv1/stm32_tim.h"
 5397              		.file 35 "../../lib/e-puck2_main-processor/ChibiOS//os/hal/include/i2c.h"
 5398              		.file 36 "../../lib/e-puck2_main-processor/ChibiOS//os/hal/ports/STM32/LLD/I2Cv1/i2c_lld.h"
 5399              		.file 37 "../../lib/e-puck2_main-processor/ChibiOS//os/hal/include/i2s.h"
 5400              		.file 38 "../../lib/e-puck2_main-processor/ChibiOS//os/hal/ports/STM32/LLD/SPIv1/i2s_lld.h"
 5401              		.file 39 "../../lib/e-puck2_main-processor/ChibiOS//os/hal/include/pwm.h"
 5402              		.file 40 "../../lib/e-puck2_main-processor/ChibiOS//os/hal/ports/STM32/LLD/TIMv1/pwm_lld.h"
 5403              		.file 41 "../../lib/e-puck2_main-processor/ChibiOS//os/hal/include/serial.h"
 5404              		.file 42 "../../lib/e-puck2_main-processor/ChibiOS//os/hal/ports/STM32/LLD/USARTv1/serial_lld.h"
 5405              		.file 43 "../../lib/e-puck2_main-processor/ChibiOS//os/hal/include/sdc.h"
 5406              		.file 44 "../../lib/e-puck2_main-processor/ChibiOS//os/hal/ports/STM32/LLD/sdc_lld.h"
 5407              		.file 45 "../../lib/e-puck2_main-processor/ChibiOS//os/hal/include/spi.h"
 5408              		.file 46 "../../lib/e-puck2_main-processor/ChibiOS//os/hal/ports/STM32/LLD/SPIv1/spi_lld.h"
 5409              		.file 47 "../../lib/e-puck2_main-processor/ChibiOS//os/hal/include/usb.h"
 5410              		.file 48 "../../lib/e-puck2_main-processor/ChibiOS//os/hal/ports/STM32/LLD/OTGv1/usb_lld.h"
 5411              		.file 49 "../../lib/e-puck2_main-processor/ChibiOS//os/hal/ports/STM32/LLD/OTGv1/stm32_otg.h"
 5412              		.file 50 "../../lib/e-puck2_main-processor/ChibiOS_ext/os/hal/include/../ports/STM32/STM32F4xx/dcm
 5413              		.file 51 "c:\\eclipse_e-puck2\\tools\\gcc-arm-none-eabi-7-2017-q4-major-win32\\arm-none-eabi\\incl
 5414              		.file 52 "c:\\eclipse_e-puck2\\tools\\gcc-arm-none-eabi-7-2017-q4-major-win32\\arm-none-eabi\\incl
 5415              		.file 53 "c:\\eclipse_e-puck2\\tools\\gcc-arm-none-eabi-7-2017-q4-major-win32\\arm-none-eabi\\incl
 5416              		.file 54 "../../lib/e-puck2_main-processor/src/msgbus/messagebus.h"
 5417              		.file 55 "c:\\eclipse_e-puck2\\tools\\gcc-arm-none-eabi-7-2017-q4-major-win32\\arm-none-eabi\\incl
 5418              		.file 56 "c:\\eclipse_e-puck2\\tools\\gcc-arm-none-eabi-7-2017-q4-major-win32\\arm-none-eabi\\incl
 5419              		.file 57 "../../lib/e-puck2_main-processor/src/parameter/parameter.h"
 5420              		.file 58 "./main.h"
 5421              		.file 59 "../../lib/e-puck2_main-processor/src/audio/play_melody.h"
 5422              		.file 60 "c:\\eclipse_e-puck2\\tools\\gcc-arm-none-eabi-7-2017-q4-major-win32\\arm-none-eabi\\incl
 5423              		.file 61 "../../lib/e-puck2_main-processor/src/epuck1x/a_d/advance_ad_scan/e_acc.h"
 5424              		.file 62 "../../lib/e-puck2_main-processor/src/epuck1x/motor_led/e_init_port.h"
 5425              		.file 63 "c:\\eclipse_e-puck2\\tools\\gcc-arm-none-eabi-7-2017-q4-major-win32\\arm-none-eabi\\incl
 5426              		.file 64 "../../lib/e-puck2_main-processor/src/epuck1x/uart/e_uart_char.h"
 5427              		.file 65 "../../lib/e-puck2_main-processor/src/epuck1x/I2C/e_I2C_protocol.h"
 5428              		.file 66 "c:\\eclipse_e-puck2\\tools\\gcc-arm-none-eabi-7-2017-q4-major-win32\\arm-none-eabi\\incl
 5429              		.file 67 "../../lib/e-puck2_main-processor/src/epuck1x/motor_led/advance_one_timer/e_motors.h"
 5430              		.file 68 "../../lib/e-puck2_main-processor/src/epuck1x/a_d/advance_ad_scan/e_prox.h"
 5431              		.file 69 "../../lib/e-puck2_main-processor/src/epuck1x/a_d/advance_ad_scan/e_micro.h"
 5432              		.file 70 "../../lib/e-puck2_main-processor/src/epuck1x/motor_led/advance_one_timer/e_led.h"
 5433              		.file 71 "../../lib/e-puck2_main-processor/ChibiOS//os/rt/include/chthreads.h"
 5434              		.file 72 "../../lib/e-puck2_main-processor/src/epuck1x/motor_led/advance_one_timer/e_remote_contro
 5435              		.file 73 "../../lib/e-puck2_main-processor/src/epuck1x/camera/fast_2_timer/e_poxxxx.h"
 5436              		.file 74 "../../lib/e-puck2_main-processor/src/epuck1x/codec/e_sound.h"
 5437              		.file 75 "../../lib/e-puck2_main-processor/src/epuck1x/utility/utility.h"
 5438              		.file 76 "../../lib/e-puck2_main-processor/src/epuck1x/acc_gyro/e_lsm330.h"
 5439              		.file 77 "../../lib/e-puck2_main-processor/src/epuck1x/DataEEPROM.h"
 5440              		.file 78 "../../lib/e-puck2_main-processor/src/camera/dcmi_camera.h"
 5441              		.file 79 "<built-in>"
 5442              		.section	.debug_info,"",%progbits
 5443              	.Ldebug_info0:
 5444 0000 A66B0000 		.4byte	0x6ba6
 5445 0004 0400     		.2byte	0x4
 5446 0006 00000000 		.4byte	.Ldebug_abbrev0
 5447 000a 04       		.byte	0x4
ARM GAS  C:\Users\mathi\AppData\Local\Temp\cc0ZaFXf.s 			page 102


 5448 000b 01       		.uleb128 0x1
 5449 000c 2F020000 		.4byte	.LASF1009
 5450 0010 0C       		.byte	0xc
 5451 0011 6A210000 		.4byte	.LASF1010
 5452 0015 BB160000 		.4byte	.LASF1011
 5453 0019 28000000 		.4byte	.Ldebug_ranges0+0x28
 5454 001d 00000000 		.4byte	0
 5455 0021 00000000 		.4byte	.Ldebug_line0
 5456 0025 02       		.uleb128 0x2
 5457 0026 6E280000 		.4byte	.LASF0
 5458 002a 02       		.byte	0x2
 5459 002b 29       		.byte	0x29
 5460 002c 30000000 		.4byte	0x30
 5461 0030 03       		.uleb128 0x3
 5462 0031 01       		.byte	0x1
 5463 0032 06       		.byte	0x6
 5464 0033 A7170000 		.4byte	.LASF2
 5465 0037 02       		.uleb128 0x2
 5466 0038 2B010000 		.4byte	.LASF1
 5467 003c 02       		.byte	0x2
 5468 003d 2B       		.byte	0x2b
 5469 003e 42000000 		.4byte	0x42
 5470 0042 03       		.uleb128 0x3
 5471 0043 01       		.byte	0x1
 5472 0044 08       		.byte	0x8
 5473 0045 940B0000 		.4byte	.LASF3
 5474 0049 02       		.uleb128 0x2
 5475 004a D1090000 		.4byte	.LASF4
 5476 004e 02       		.byte	0x2
 5477 004f 37       		.byte	0x37
 5478 0050 54000000 		.4byte	0x54
 5479 0054 03       		.uleb128 0x3
 5480 0055 02       		.byte	0x2
 5481 0056 05       		.byte	0x5
 5482 0057 4C290000 		.4byte	.LASF5
 5483 005b 02       		.uleb128 0x2
 5484 005c DB090000 		.4byte	.LASF6
 5485 0060 02       		.byte	0x2
 5486 0061 39       		.byte	0x39
 5487 0062 66000000 		.4byte	0x66
 5488 0066 03       		.uleb128 0x3
 5489 0067 02       		.byte	0x2
 5490 0068 07       		.byte	0x7
 5491 0069 8C170000 		.4byte	.LASF7
 5492 006d 02       		.uleb128 0x2
 5493 006e BB210000 		.4byte	.LASF8
 5494 0072 02       		.byte	0x2
 5495 0073 4D       		.byte	0x4d
 5496 0074 78000000 		.4byte	0x78
 5497 0078 03       		.uleb128 0x3
 5498 0079 04       		.byte	0x4
 5499 007a 05       		.byte	0x5
 5500 007b 6B1A0000 		.4byte	.LASF9
 5501 007f 02       		.uleb128 0x2
 5502 0080 D5210000 		.4byte	.LASF10
 5503 0084 02       		.byte	0x2
 5504 0085 4F       		.byte	0x4f
ARM GAS  C:\Users\mathi\AppData\Local\Temp\cc0ZaFXf.s 			page 103


 5505 0086 8A000000 		.4byte	0x8a
 5506 008a 03       		.uleb128 0x3
 5507 008b 04       		.byte	0x4
 5508 008c 07       		.byte	0x7
 5509 008d 1A1C0000 		.4byte	.LASF11
 5510 0091 03       		.uleb128 0x3
 5511 0092 08       		.byte	0x8
 5512 0093 05       		.byte	0x5
 5513 0094 72260000 		.4byte	.LASF12
 5514 0098 02       		.uleb128 0x2
 5515 0099 05130000 		.4byte	.LASF13
 5516 009d 02       		.byte	0x2
 5517 009e 69       		.byte	0x69
 5518 009f A3000000 		.4byte	0xa3
 5519 00a3 03       		.uleb128 0x3
 5520 00a4 08       		.byte	0x8
 5521 00a5 07       		.byte	0x7
 5522 00a6 1A240000 		.4byte	.LASF14
 5523 00aa 04       		.uleb128 0x4
 5524 00ab 04       		.byte	0x4
 5525 00ac 05       		.byte	0x5
 5526 00ad 696E7400 		.ascii	"int\000"
 5527 00b1 03       		.uleb128 0x3
 5528 00b2 04       		.byte	0x4
 5529 00b3 07       		.byte	0x7
 5530 00b4 D4280000 		.4byte	.LASF15
 5531 00b8 02       		.uleb128 0x2
 5532 00b9 07160000 		.4byte	.LASF16
 5533 00bd 03       		.byte	0x3
 5534 00be 14       		.byte	0x14
 5535 00bf 25000000 		.4byte	0x25
 5536 00c3 02       		.uleb128 0x2
 5537 00c4 DE0F0000 		.4byte	.LASF17
 5538 00c8 03       		.byte	0x3
 5539 00c9 18       		.byte	0x18
 5540 00ca 37000000 		.4byte	0x37
 5541 00ce 05       		.uleb128 0x5
 5542 00cf C3000000 		.4byte	0xc3
 5543 00d3 02       		.uleb128 0x2
 5544 00d4 6F170000 		.4byte	.LASF18
 5545 00d8 03       		.byte	0x3
 5546 00d9 20       		.byte	0x20
 5547 00da 49000000 		.4byte	0x49
 5548 00de 02       		.uleb128 0x2
 5549 00df C5030000 		.4byte	.LASF19
 5550 00e3 03       		.byte	0x3
 5551 00e4 24       		.byte	0x24
 5552 00e5 5B000000 		.4byte	0x5b
 5553 00e9 02       		.uleb128 0x2
 5554 00ea 9A050000 		.4byte	.LASF20
 5555 00ee 03       		.byte	0x3
 5556 00ef 2C       		.byte	0x2c
 5557 00f0 6D000000 		.4byte	0x6d
 5558 00f4 06       		.uleb128 0x6
 5559 00f5 E9000000 		.4byte	0xe9
 5560 00f9 02       		.uleb128 0x2
 5561 00fa 9C1B0000 		.4byte	.LASF21
ARM GAS  C:\Users\mathi\AppData\Local\Temp\cc0ZaFXf.s 			page 104


 5562 00fe 03       		.byte	0x3
 5563 00ff 30       		.byte	0x30
 5564 0100 7F000000 		.4byte	0x7f
 5565 0104 06       		.uleb128 0x6
 5566 0105 F9000000 		.4byte	0xf9
 5567 0109 05       		.uleb128 0x5
 5568 010a 04010000 		.4byte	0x104
 5569 010e 02       		.uleb128 0x2
 5570 010f 0F0D0000 		.4byte	.LASF22
 5571 0113 03       		.byte	0x3
 5572 0114 3C       		.byte	0x3c
 5573 0115 98000000 		.4byte	0x98
 5574 0119 02       		.uleb128 0x2
 5575 011a A20F0000 		.4byte	.LASF23
 5576 011e 04       		.byte	0x4
 5577 011f D8       		.byte	0xd8
 5578 0120 B1000000 		.4byte	0xb1
 5579 0124 03       		.uleb128 0x3
 5580 0125 08       		.byte	0x8
 5581 0126 04       		.byte	0x4
 5582 0127 E01B0000 		.4byte	.LASF24
 5583 012b 02       		.uleb128 0x2
 5584 012c 230F0000 		.4byte	.LASF25
 5585 0130 05       		.byte	0x5
 5586 0131 45       		.byte	0x45
 5587 0132 F9000000 		.4byte	0xf9
 5588 0136 02       		.uleb128 0x2
 5589 0137 F2070000 		.4byte	.LASF26
 5590 013b 05       		.byte	0x5
 5591 013c 46       		.byte	0x46
 5592 013d 0E010000 		.4byte	0x10e
 5593 0141 02       		.uleb128 0x2
 5594 0142 D2140000 		.4byte	.LASF27
 5595 0146 05       		.byte	0x5
 5596 0147 48       		.byte	0x48
 5597 0148 C3000000 		.4byte	0xc3
 5598 014c 02       		.uleb128 0x2
 5599 014d 13250000 		.4byte	.LASF28
 5600 0151 05       		.byte	0x5
 5601 0152 49       		.byte	0x49
 5602 0153 C3000000 		.4byte	0xc3
 5603 0157 02       		.uleb128 0x2
 5604 0158 59140000 		.4byte	.LASF29
 5605 015c 05       		.byte	0x5
 5606 015d 4A       		.byte	0x4a
 5607 015e C3000000 		.4byte	0xc3
 5608 0162 02       		.uleb128 0x2
 5609 0163 A4160000 		.4byte	.LASF30
 5610 0167 05       		.byte	0x5
 5611 0168 4B       		.byte	0x4b
 5612 0169 C3000000 		.4byte	0xc3
 5613 016d 02       		.uleb128 0x2
 5614 016e AA080000 		.4byte	.LASF31
 5615 0172 05       		.byte	0x5
 5616 0173 4C       		.byte	0x4c
 5617 0174 F9000000 		.4byte	0xf9
 5618 0178 02       		.uleb128 0x2
ARM GAS  C:\Users\mathi\AppData\Local\Temp\cc0ZaFXf.s 			page 105


 5619 0179 9D000000 		.4byte	.LASF32
 5620 017d 05       		.byte	0x5
 5621 017e 4D       		.byte	0x4d
 5622 017f E9000000 		.4byte	0xe9
 5623 0183 02       		.uleb128 0x2
 5624 0184 F51B0000 		.4byte	.LASF33
 5625 0188 05       		.byte	0x5
 5626 0189 4F       		.byte	0x4f
 5627 018a F9000000 		.4byte	0xf9
 5628 018e 02       		.uleb128 0x2
 5629 018f 1C270000 		.4byte	.LASF34
 5630 0193 05       		.byte	0x5
 5631 0194 50       		.byte	0x50
 5632 0195 F9000000 		.4byte	0xf9
 5633 0199 02       		.uleb128 0x2
 5634 019a 121F0000 		.4byte	.LASF35
 5635 019e 05       		.byte	0x5
 5636 019f 51       		.byte	0x51
 5637 01a0 E9000000 		.4byte	0xe9
 5638 01a4 02       		.uleb128 0x2
 5639 01a5 D2170000 		.4byte	.LASF36
 5640 01a9 05       		.byte	0x5
 5641 01aa 52       		.byte	0x52
 5642 01ab F9000000 		.4byte	0xf9
 5643 01af 02       		.uleb128 0x2
 5644 01b0 C6050000 		.4byte	.LASF37
 5645 01b4 06       		.byte	0x6
 5646 01b5 33       		.byte	0x33
 5647 01b6 F9000000 		.4byte	0xf9
 5648 01ba 06       		.uleb128 0x6
 5649 01bb AF010000 		.4byte	0x1af
 5650 01bf 02       		.uleb128 0x2
 5651 01c0 52050000 		.4byte	.LASF38
 5652 01c4 06       		.byte	0x6
 5653 01c5 3F       		.byte	0x3f
 5654 01c6 CA010000 		.4byte	0x1ca
 5655 01ca 07       		.uleb128 0x7
 5656 01cb D90B0000 		.4byte	.LASF62
 5657 01cf 68       		.byte	0x68
 5658 01d0 07       		.byte	0x7
 5659 01d1 C2       		.byte	0xc2
 5660 01d2 E8020000 		.4byte	0x2e8
 5661 01d6 08       		.uleb128 0x8
 5662 01d7 F5130000 		.4byte	.LASF39
 5663 01db 07       		.byte	0x7
 5664 01dc C3       		.byte	0xc3
 5665 01dd F3020000 		.4byte	0x2f3
 5666 01e1 00       		.byte	0
 5667 01e2 08       		.uleb128 0x8
 5668 01e3 04100000 		.4byte	.LASF40
 5669 01e7 07       		.byte	0x7
 5670 01e8 C5       		.byte	0xc5
 5671 01e9 F3020000 		.4byte	0x2f3
 5672 01ed 04       		.byte	0x4
 5673 01ee 08       		.uleb128 0x8
 5674 01ef E6120000 		.4byte	.LASF41
 5675 01f3 07       		.byte	0x7
ARM GAS  C:\Users\mathi\AppData\Local\Temp\cc0ZaFXf.s 			page 106


 5676 01f4 C7       		.byte	0xc7
 5677 01f5 6D010000 		.4byte	0x16d
 5678 01f9 08       		.byte	0x8
 5679 01fa 08       		.uleb128 0x8
 5680 01fb 970C0000 		.4byte	.LASF42
 5681 01ff 07       		.byte	0x7
 5682 0200 C8       		.byte	0xc8
 5683 0201 9F0D0000 		.4byte	0xd9f
 5684 0205 0C       		.byte	0xc
 5685 0206 08       		.uleb128 0x8
 5686 0207 6C040000 		.4byte	.LASF43
 5687 020b 07       		.byte	0x7
 5688 020c CA       		.byte	0xca
 5689 020d F3020000 		.4byte	0x2f3
 5690 0211 10       		.byte	0x10
 5691 0212 08       		.uleb128 0x8
 5692 0213 9E270000 		.4byte	.LASF44
 5693 0217 07       		.byte	0x7
 5694 0218 CB       		.byte	0xcb
 5695 0219 F3020000 		.4byte	0x2f3
 5696 021d 14       		.byte	0x14
 5697 021e 08       		.uleb128 0x8
 5698 021f 93250000 		.4byte	.LASF45
 5699 0223 07       		.byte	0x7
 5700 0224 D2       		.byte	0xd2
 5701 0225 15110000 		.4byte	0x1115
 5702 0229 18       		.byte	0x18
 5703 022a 08       		.uleb128 0x8
 5704 022b 071F0000 		.4byte	.LASF46
 5705 022f 07       		.byte	0x7
 5706 0230 D8       		.byte	0xd8
 5707 0231 2C110000 		.4byte	0x112c
 5708 0235 1C       		.byte	0x1c
 5709 0236 08       		.uleb128 0x8
 5710 0237 102A0000 		.4byte	.LASF47
 5711 023b 07       		.byte	0x7
 5712 023c DD       		.byte	0xdd
 5713 023d 4C010000 		.4byte	0x14c
 5714 0241 20       		.byte	0x20
 5715 0242 08       		.uleb128 0x8
 5716 0243 B9240000 		.4byte	.LASF48
 5717 0247 07       		.byte	0x7
 5718 0248 E1       		.byte	0xe1
 5719 0249 41010000 		.4byte	0x141
 5720 024d 21       		.byte	0x21
 5721 024e 08       		.uleb128 0x8
 5722 024f 4A1A0000 		.4byte	.LASF49
 5723 0253 07       		.byte	0x7
 5724 0254 E6       		.byte	0xe6
 5725 0255 57010000 		.4byte	0x157
 5726 0259 22       		.byte	0x22
 5727 025a 08       		.uleb128 0x8
 5728 025b C8170000 		.4byte	.LASF50
 5729 025f 07       		.byte	0x7
 5730 0260 EC       		.byte	0xec
 5731 0261 62010000 		.4byte	0x162
 5732 0265 23       		.byte	0x23
ARM GAS  C:\Users\mathi\AppData\Local\Temp\cc0ZaFXf.s 			page 107


 5733 0266 08       		.uleb128 0x8
 5734 0267 431A0000 		.4byte	.LASF51
 5735 026b 07       		.byte	0x7
 5736 026c F3       		.byte	0xf3
 5737 026d BA010000 		.4byte	0x1ba
 5738 0271 24       		.byte	0x24
 5739 0272 09       		.uleb128 0x9
 5740 0273 705F7500 		.ascii	"p_u\000"
 5741 0277 07       		.byte	0x7
 5742 0278 3101     		.2byte	0x131
 5743 027a 44100000 		.4byte	0x1044
 5744 027e 28       		.byte	0x28
 5745 027f 0A       		.uleb128 0xa
 5746 0280 33070000 		.4byte	.LASF52
 5747 0284 07       		.byte	0x7
 5748 0285 3601     		.2byte	0x136
 5749 0287 F9020000 		.4byte	0x2f9
 5750 028b 2C       		.byte	0x2c
 5751 028c 0A       		.uleb128 0xa
 5752 028d 68180000 		.4byte	.LASF53
 5753 0291 07       		.byte	0x7
 5754 0292 3C01     		.2byte	0x13c
 5755 0294 1D030000 		.4byte	0x31d
 5756 0298 30       		.byte	0x30
 5757 0299 0A       		.uleb128 0xa
 5758 029a FE090000 		.4byte	.LASF54
 5759 029e 07       		.byte	0x7
 5760 029f 4001     		.2byte	0x140
 5761 02a1 78010000 		.4byte	0x178
 5762 02a5 38       		.byte	0x38
 5763 02a6 0A       		.uleb128 0xa
 5764 02a7 AC220000 		.4byte	.LASF55
 5765 02ab 07       		.byte	0x7
 5766 02ac 4601     		.2byte	0x146
 5767 02ae 83010000 		.4byte	0x183
 5768 02b2 3C       		.byte	0x3c
 5769 02b3 0A       		.uleb128 0xa
 5770 02b4 FE240000 		.4byte	.LASF56
 5771 02b8 07       		.byte	0x7
 5772 02b9 4D01     		.2byte	0x14d
 5773 02bb 0F110000 		.4byte	0x110f
 5774 02bf 40       		.byte	0x40
 5775 02c0 0A       		.uleb128 0xa
 5776 02c1 A8200000 		.4byte	.LASF57
 5777 02c5 07       		.byte	0x7
 5778 02c6 5101     		.2byte	0x151
 5779 02c8 6D010000 		.4byte	0x16d
 5780 02cc 44       		.byte	0x44
 5781 02cd 0A       		.uleb128 0xa
 5782 02ce 61140000 		.4byte	.LASF58
 5783 02d2 07       		.byte	0x7
 5784 02d3 5801     		.2byte	0x158
 5785 02d5 D0030000 		.4byte	0x3d0
 5786 02d9 48       		.byte	0x48
 5787 02da 0A       		.uleb128 0xa
 5788 02db 512A0000 		.4byte	.LASF59
 5789 02df 07       		.byte	0x7
ARM GAS  C:\Users\mathi\AppData\Local\Temp\cc0ZaFXf.s 			page 108


 5790 02e0 5E01     		.2byte	0x15e
 5791 02e2 F50F0000 		.4byte	0xff5
 5792 02e6 50       		.byte	0x50
 5793 02e7 00       		.byte	0
 5794 02e8 02       		.uleb128 0x2
 5795 02e9 07280000 		.4byte	.LASF60
 5796 02ed 06       		.byte	0x6
 5797 02ee 44       		.byte	0x44
 5798 02ef F3020000 		.4byte	0x2f3
 5799 02f3 0B       		.uleb128 0xb
 5800 02f4 04       		.byte	0x4
 5801 02f5 BF010000 		.4byte	0x1bf
 5802 02f9 02       		.uleb128 0x2
 5803 02fa 7D070000 		.4byte	.LASF61
 5804 02fe 06       		.byte	0x6
 5805 02ff 49       		.byte	0x49
 5806 0300 04030000 		.4byte	0x304
 5807 0304 07       		.uleb128 0x7
 5808 0305 2A2A0000 		.4byte	.LASF63
 5809 0309 04       		.byte	0x4
 5810 030a 07       		.byte	0x7
 5811 030b B0       		.byte	0xb0
 5812 030c 1D030000 		.4byte	0x31d
 5813 0310 08       		.uleb128 0x8
 5814 0311 F5130000 		.4byte	.LASF39
 5815 0315 07       		.byte	0x7
 5816 0316 B1       		.byte	0xb1
 5817 0317 F3020000 		.4byte	0x2f3
 5818 031b 00       		.byte	0
 5819 031c 00       		.byte	0
 5820 031d 02       		.uleb128 0x2
 5821 031e 281A0000 		.4byte	.LASF64
 5822 0322 06       		.byte	0x6
 5823 0323 50       		.byte	0x50
 5824 0324 28030000 		.4byte	0x328
 5825 0328 07       		.uleb128 0x7
 5826 0329 51040000 		.4byte	.LASF65
 5827 032d 08       		.byte	0x8
 5828 032e 07       		.byte	0x7
 5829 032f B7       		.byte	0xb7
 5830 0330 4D030000 		.4byte	0x34d
 5831 0334 08       		.uleb128 0x8
 5832 0335 F5130000 		.4byte	.LASF39
 5833 0339 07       		.byte	0x7
 5834 033a B8       		.byte	0xb8
 5835 033b F3020000 		.4byte	0x2f3
 5836 033f 00       		.byte	0
 5837 0340 08       		.uleb128 0x8
 5838 0341 04100000 		.4byte	.LASF40
 5839 0345 07       		.byte	0x7
 5840 0346 B9       		.byte	0xb9
 5841 0347 F3020000 		.4byte	0x2f3
 5842 034b 04       		.byte	0x4
 5843 034c 00       		.byte	0
 5844 034d 02       		.uleb128 0x2
 5845 034e CC0B0000 		.4byte	.LASF66
 5846 0352 06       		.byte	0x6
ARM GAS  C:\Users\mathi\AppData\Local\Temp\cc0ZaFXf.s 			page 109


 5847 0353 57       		.byte	0x57
 5848 0354 58030000 		.4byte	0x358
 5849 0358 0C       		.uleb128 0xc
 5850 0359 A1210000 		.4byte	.LASF67
 5851 035d 1C       		.byte	0x1c
 5852 035e 07       		.byte	0x7
 5853 035f 9001     		.2byte	0x190
 5854 0361 B4030000 		.4byte	0x3b4
 5855 0365 0A       		.uleb128 0xa
 5856 0366 F41C0000 		.4byte	.LASF68
 5857 036a 07       		.byte	0x7
 5858 036b 9101     		.2byte	0x191
 5859 036d 1D030000 		.4byte	0x31d
 5860 0371 00       		.byte	0
 5861 0372 0A       		.uleb128 0xa
 5862 0373 E1230000 		.4byte	.LASF69
 5863 0377 07       		.byte	0x7
 5864 0378 9201     		.2byte	0x192
 5865 037a 6D010000 		.4byte	0x16d
 5866 037e 08       		.byte	0x8
 5867 037f 0A       		.uleb128 0xa
 5868 0380 030F0000 		.4byte	.LASF70
 5869 0384 07       		.byte	0x7
 5870 0385 9401     		.2byte	0x194
 5871 0387 9F0D0000 		.4byte	0xd9f
 5872 038b 0C       		.byte	0xc
 5873 038c 0A       		.uleb128 0xa
 5874 038d 34160000 		.4byte	.LASF71
 5875 0391 07       		.byte	0x7
 5876 0392 9701     		.2byte	0x197
 5877 0394 F3020000 		.4byte	0x2f3
 5878 0398 10       		.byte	0x10
 5879 0399 0A       		.uleb128 0xa
 5880 039a FC0F0000 		.4byte	.LASF72
 5881 039e 07       		.byte	0x7
 5882 039f 9801     		.2byte	0x198
 5883 03a1 F3020000 		.4byte	0x2f3
 5884 03a5 14       		.byte	0x14
 5885 03a6 0A       		.uleb128 0xa
 5886 03a7 C30C0000 		.4byte	.LASF73
 5887 03ab 07       		.byte	0x7
 5888 03ac 9B01     		.2byte	0x19b
 5889 03ae F3020000 		.4byte	0x2f3
 5890 03b2 18       		.byte	0x18
 5891 03b3 00       		.byte	0
 5892 03b4 02       		.uleb128 0x2
 5893 03b5 37200000 		.4byte	.LASF74
 5894 03b9 06       		.byte	0x6
 5895 03ba 5C       		.byte	0x5c
 5896 03bb BF030000 		.4byte	0x3bf
 5897 03bf 0B       		.uleb128 0xb
 5898 03c0 04       		.byte	0x4
 5899 03c1 C5030000 		.4byte	0x3c5
 5900 03c5 0D       		.uleb128 0xd
 5901 03c6 D0030000 		.4byte	0x3d0
 5902 03ca 0E       		.uleb128 0xe
 5903 03cb D0030000 		.4byte	0x3d0
ARM GAS  C:\Users\mathi\AppData\Local\Temp\cc0ZaFXf.s 			page 110


 5904 03cf 00       		.byte	0
 5905 03d0 0F       		.uleb128 0xf
 5906 03d1 04       		.byte	0x4
 5907 03d2 02       		.uleb128 0x2
 5908 03d3 DB0E0000 		.4byte	.LASF75
 5909 03d7 06       		.byte	0x6
 5910 03d8 61       		.byte	0x61
 5911 03d9 DD030000 		.4byte	0x3dd
 5912 03dd 0C       		.uleb128 0xc
 5913 03de A8240000 		.4byte	.LASF76
 5914 03e2 14       		.byte	0x14
 5915 03e3 07       		.byte	0x7
 5916 03e4 6B01     		.2byte	0x16b
 5917 03e6 2C040000 		.4byte	0x42c
 5918 03ea 0A       		.uleb128 0xa
 5919 03eb 090F0000 		.4byte	.LASF77
 5920 03ef 07       		.byte	0x7
 5921 03f0 6C01     		.2byte	0x16c
 5922 03f2 32110000 		.4byte	0x1132
 5923 03f6 00       		.byte	0
 5924 03f7 0A       		.uleb128 0xa
 5925 03f8 720B0000 		.4byte	.LASF78
 5926 03fc 07       		.byte	0x7
 5927 03fd 6D01     		.2byte	0x16d
 5928 03ff 32110000 		.4byte	0x1132
 5929 0403 04       		.byte	0x4
 5930 0404 0A       		.uleb128 0xa
 5931 0405 39170000 		.4byte	.LASF79
 5932 0409 07       		.byte	0x7
 5933 040a 6E01     		.2byte	0x16e
 5934 040c AF010000 		.4byte	0x1af
 5935 0410 08       		.byte	0x8
 5936 0411 0A       		.uleb128 0xa
 5937 0412 93240000 		.4byte	.LASF80
 5938 0416 07       		.byte	0x7
 5939 0417 6F01     		.2byte	0x16f
 5940 0419 B4030000 		.4byte	0x3b4
 5941 041d 0C       		.byte	0xc
 5942 041e 0A       		.uleb128 0xa
 5943 041f 9D0C0000 		.4byte	.LASF81
 5944 0423 07       		.byte	0x7
 5945 0424 7101     		.2byte	0x171
 5946 0426 D0030000 		.4byte	0x3d0
 5947 042a 10       		.byte	0x10
 5948 042b 00       		.byte	0
 5949 042c 02       		.uleb128 0x2
 5950 042d E7250000 		.4byte	.LASF82
 5951 0431 06       		.byte	0x6
 5952 0432 66       		.byte	0x66
 5953 0433 37040000 		.4byte	0x437
 5954 0437 0C       		.uleb128 0xc
 5955 0438 7C050000 		.4byte	.LASF83
 5956 043c 10       		.byte	0x10
 5957 043d 07       		.byte	0x7
 5958 043e 7B01     		.2byte	0x17b
 5959 0440 79040000 		.4byte	0x479
 5960 0444 0A       		.uleb128 0xa
ARM GAS  C:\Users\mathi\AppData\Local\Temp\cc0ZaFXf.s 			page 111


 5961 0445 090F0000 		.4byte	.LASF77
 5962 0449 07       		.byte	0x7
 5963 044a 7C01     		.2byte	0x17c
 5964 044c 32110000 		.4byte	0x1132
 5965 0450 00       		.byte	0
 5966 0451 0A       		.uleb128 0xa
 5967 0452 720B0000 		.4byte	.LASF78
 5968 0456 07       		.byte	0x7
 5969 0457 7E01     		.2byte	0x17e
 5970 0459 32110000 		.4byte	0x1132
 5971 045d 04       		.byte	0x4
 5972 045e 0A       		.uleb128 0xa
 5973 045f 39170000 		.4byte	.LASF79
 5974 0463 07       		.byte	0x7
 5975 0464 8001     		.2byte	0x180
 5976 0466 AF010000 		.4byte	0x1af
 5977 046a 08       		.byte	0x8
 5978 046b 0A       		.uleb128 0xa
 5979 046c F0010000 		.4byte	.LASF84
 5980 0470 07       		.byte	0x7
 5981 0471 8201     		.2byte	0x182
 5982 0473 BA010000 		.4byte	0x1ba
 5983 0477 0C       		.byte	0xc
 5984 0478 00       		.byte	0
 5985 0479 02       		.uleb128 0x2
 5986 047a 660C0000 		.4byte	.LASF85
 5987 047e 06       		.byte	0x6
 5988 047f 6B       		.byte	0x6b
 5989 0480 84040000 		.4byte	0x484
 5990 0484 10       		.uleb128 0x10
 5991 0485 EB210000 		.4byte	.LASF86
 5992 0489 1404     		.2byte	0x414
 5993 048b 07       		.byte	0x7
 5994 048c A201     		.2byte	0x1a2
 5995 048e C7040000 		.4byte	0x4c7
 5996 0492 0A       		.uleb128 0xa
 5997 0493 16160000 		.4byte	.LASF87
 5998 0497 07       		.byte	0x7
 5999 0498 AA01     		.2byte	0x1aa
 6000 049a 1B110000 		.4byte	0x111b
 6001 049e 00       		.byte	0
 6002 049f 0A       		.uleb128 0xa
 6003 04a0 AF150000 		.4byte	.LASF88
 6004 04a4 07       		.byte	0x7
 6005 04a5 AF01     		.2byte	0x1af
 6006 04a7 99010000 		.4byte	0x199
 6007 04ab 04       		.byte	0x4
 6008 04ac 0A       		.uleb128 0xa
 6009 04ad 48040000 		.4byte	.LASF89
 6010 04b1 07       		.byte	0x7
 6011 04b2 B301     		.2byte	0x1b3
 6012 04b4 99010000 		.4byte	0x199
 6013 04b8 08       		.byte	0x8
 6014 04b9 0A       		.uleb128 0xa
 6015 04ba 7F190000 		.4byte	.LASF90
 6016 04be 07       		.byte	0x7
 6017 04bf B901     		.2byte	0x1b9
ARM GAS  C:\Users\mathi\AppData\Local\Temp\cc0ZaFXf.s 			page 112


 6018 04c1 870F0000 		.4byte	0xf87
 6019 04c5 0C       		.byte	0xc
 6020 04c6 00       		.byte	0
 6021 04c7 02       		.uleb128 0x2
 6022 04c8 1F010000 		.4byte	.LASF91
 6023 04cc 06       		.byte	0x6
 6024 04cd 70       		.byte	0x70
 6025 04ce D2040000 		.4byte	0x4d2
 6026 04d2 10       		.uleb128 0x10
 6027 04d3 68190000 		.4byte	.LASF92
 6028 04d7 7006     		.2byte	0x670
 6029 04d9 07       		.byte	0x7
 6030 04da C201     		.2byte	0x1c2
 6031 04dc 3F050000 		.4byte	0x53f
 6032 04e0 0A       		.uleb128 0xa
 6033 04e1 77070000 		.4byte	.LASF93
 6034 04e5 07       		.byte	0x7
 6035 04e6 C601     		.2byte	0x1c6
 6036 04e8 4D030000 		.4byte	0x34d
 6037 04ec 00       		.byte	0
 6038 04ed 0A       		.uleb128 0xa
 6039 04ee 1D070000 		.4byte	.LASF94
 6040 04f2 07       		.byte	0x7
 6041 04f3 CA01     		.2byte	0x1ca
 6042 04f5 2C040000 		.4byte	0x42c
 6043 04f9 1C       		.byte	0x1c
 6044 04fa 09       		.uleb128 0x9
 6045 04fb 64626700 		.ascii	"dbg\000"
 6046 04ff 07       		.byte	0x7
 6047 0500 CE01     		.2byte	0x1ce
 6048 0502 79040000 		.4byte	0x479
 6049 0506 2C       		.byte	0x2c
 6050 0507 11       		.uleb128 0x11
 6051 0508 741A0000 		.4byte	.LASF95
 6052 050c 07       		.byte	0x7
 6053 050d D201     		.2byte	0x1d2
 6054 050f BF010000 		.4byte	0x1bf
 6055 0513 4004     		.2byte	0x440
 6056 0515 12       		.uleb128 0x12
 6057 0516 746D00   		.ascii	"tm\000"
 6058 0519 07       		.byte	0x7
 6059 051a D701     		.2byte	0x1d7
 6060 051c A70F0000 		.4byte	0xfa7
 6061 0520 A804     		.2byte	0x4a8
 6062 0522 11       		.uleb128 0x11
 6063 0523 A90F0000 		.4byte	.LASF96
 6064 0527 07       		.byte	0x7
 6065 0528 DD01     		.2byte	0x1dd
 6066 052a 39100000 		.4byte	0x1039
 6067 052e B004     		.2byte	0x4b0
 6068 0530 11       		.uleb128 0x11
 6069 0531 70240000 		.4byte	.LASF97
 6070 0535 07       		.byte	0x7
 6071 0536 E301     		.2byte	0x1e3
 6072 0538 38110000 		.4byte	0x1138
 6073 053c E804     		.2byte	0x4e8
 6074 053e 00       		.byte	0
ARM GAS  C:\Users\mathi\AppData\Local\Temp\cc0ZaFXf.s 			page 113


 6075 053f 13       		.uleb128 0x13
 6076 0540 F9000000 		.4byte	0xf9
 6077 0544 4F050000 		.4byte	0x54f
 6078 0548 14       		.uleb128 0x14
 6079 0549 B1000000 		.4byte	0xb1
 6080 054d 01       		.byte	0x1
 6081 054e 00       		.byte	0
 6082 054f 13       		.uleb128 0x13
 6083 0550 F9000000 		.4byte	0xf9
 6084 0554 5F050000 		.4byte	0x55f
 6085 0558 14       		.uleb128 0x14
 6086 0559 B1000000 		.4byte	0xb1
 6087 055d 07       		.byte	0x7
 6088 055e 00       		.byte	0
 6089 055f 15       		.uleb128 0x15
 6090 0560 ED230000 		.4byte	.LASF98
 6091 0564 08       		.byte	0x8
 6092 0565 A706     		.2byte	0x6a7
 6093 0567 F4000000 		.4byte	0xf4
 6094 056b 16       		.uleb128 0x16
 6095 056c AD180000 		.4byte	.LASF99
 6096 0570 09       		.byte	0x9
 6097 0571 4C       		.byte	0x4c
 6098 0572 F9000000 		.4byte	0xf9
 6099 0576 17       		.uleb128 0x17
 6100 0577 50       		.byte	0x50
 6101 0578 0A       		.byte	0xa
 6102 0579 C4       		.byte	0xc4
 6103 057a 6D060000 		.4byte	0x66d
 6104 057e 18       		.uleb128 0x18
 6105 057f 535200   		.ascii	"SR\000"
 6106 0582 0A       		.byte	0xa
 6107 0583 C6       		.byte	0xc6
 6108 0584 04010000 		.4byte	0x104
 6109 0588 00       		.byte	0
 6110 0589 18       		.uleb128 0x18
 6111 058a 43523100 		.ascii	"CR1\000"
 6112 058e 0A       		.byte	0xa
 6113 058f C7       		.byte	0xc7
 6114 0590 04010000 		.4byte	0x104
 6115 0594 04       		.byte	0x4
 6116 0595 18       		.uleb128 0x18
 6117 0596 43523200 		.ascii	"CR2\000"
 6118 059a 0A       		.byte	0xa
 6119 059b C8       		.byte	0xc8
 6120 059c 04010000 		.4byte	0x104
 6121 05a0 08       		.byte	0x8
 6122 05a1 08       		.uleb128 0x8
 6123 05a2 8C040000 		.4byte	.LASF100
 6124 05a6 0A       		.byte	0xa
 6125 05a7 C9       		.byte	0xc9
 6126 05a8 04010000 		.4byte	0x104
 6127 05ac 0C       		.byte	0xc
 6128 05ad 08       		.uleb128 0x8
 6129 05ae 92040000 		.4byte	.LASF101
 6130 05b2 0A       		.byte	0xa
 6131 05b3 CA       		.byte	0xca
ARM GAS  C:\Users\mathi\AppData\Local\Temp\cc0ZaFXf.s 			page 114


 6132 05b4 04010000 		.4byte	0x104
 6133 05b8 10       		.byte	0x10
 6134 05b9 08       		.uleb128 0x8
 6135 05ba A40C0000 		.4byte	.LASF102
 6136 05be 0A       		.byte	0xa
 6137 05bf CB       		.byte	0xcb
 6138 05c0 04010000 		.4byte	0x104
 6139 05c4 14       		.byte	0x14
 6140 05c5 08       		.uleb128 0x8
 6141 05c6 AA0C0000 		.4byte	.LASF103
 6142 05ca 0A       		.byte	0xa
 6143 05cb CC       		.byte	0xcc
 6144 05cc 04010000 		.4byte	0x104
 6145 05d0 18       		.byte	0x18
 6146 05d1 08       		.uleb128 0x8
 6147 05d2 B00C0000 		.4byte	.LASF104
 6148 05d6 0A       		.byte	0xa
 6149 05d7 CD       		.byte	0xcd
 6150 05d8 04010000 		.4byte	0x104
 6151 05dc 1C       		.byte	0x1c
 6152 05dd 08       		.uleb128 0x8
 6153 05de B60C0000 		.4byte	.LASF105
 6154 05e2 0A       		.byte	0xa
 6155 05e3 CE       		.byte	0xce
 6156 05e4 04010000 		.4byte	0x104
 6157 05e8 20       		.byte	0x20
 6158 05e9 18       		.uleb128 0x18
 6159 05ea 48545200 		.ascii	"HTR\000"
 6160 05ee 0A       		.byte	0xa
 6161 05ef CF       		.byte	0xcf
 6162 05f0 04010000 		.4byte	0x104
 6163 05f4 24       		.byte	0x24
 6164 05f5 18       		.uleb128 0x18
 6165 05f6 4C545200 		.ascii	"LTR\000"
 6166 05fa 0A       		.byte	0xa
 6167 05fb D0       		.byte	0xd0
 6168 05fc 04010000 		.4byte	0x104
 6169 0600 28       		.byte	0x28
 6170 0601 08       		.uleb128 0x8
 6171 0602 F6140000 		.4byte	.LASF106
 6172 0606 0A       		.byte	0xa
 6173 0607 D1       		.byte	0xd1
 6174 0608 04010000 		.4byte	0x104
 6175 060c 2C       		.byte	0x2c
 6176 060d 08       		.uleb128 0x8
 6177 060e FB140000 		.4byte	.LASF107
 6178 0612 0A       		.byte	0xa
 6179 0613 D2       		.byte	0xd2
 6180 0614 04010000 		.4byte	0x104
 6181 0618 30       		.byte	0x30
 6182 0619 08       		.uleb128 0x8
 6183 061a 00150000 		.4byte	.LASF108
 6184 061e 0A       		.byte	0xa
 6185 061f D3       		.byte	0xd3
 6186 0620 04010000 		.4byte	0x104
 6187 0624 34       		.byte	0x34
 6188 0625 08       		.uleb128 0x8
ARM GAS  C:\Users\mathi\AppData\Local\Temp\cc0ZaFXf.s 			page 115


 6189 0626 AA0E0000 		.4byte	.LASF109
 6190 062a 0A       		.byte	0xa
 6191 062b D4       		.byte	0xd4
 6192 062c 04010000 		.4byte	0x104
 6193 0630 38       		.byte	0x38
 6194 0631 08       		.uleb128 0x8
 6195 0632 B2250000 		.4byte	.LASF110
 6196 0636 0A       		.byte	0xa
 6197 0637 D5       		.byte	0xd5
 6198 0638 04010000 		.4byte	0x104
 6199 063c 3C       		.byte	0x3c
 6200 063d 08       		.uleb128 0x8
 6201 063e B7250000 		.4byte	.LASF111
 6202 0642 0A       		.byte	0xa
 6203 0643 D6       		.byte	0xd6
 6204 0644 04010000 		.4byte	0x104
 6205 0648 40       		.byte	0x40
 6206 0649 08       		.uleb128 0x8
 6207 064a BC250000 		.4byte	.LASF112
 6208 064e 0A       		.byte	0xa
 6209 064f D7       		.byte	0xd7
 6210 0650 04010000 		.4byte	0x104
 6211 0654 44       		.byte	0x44
 6212 0655 08       		.uleb128 0x8
 6213 0656 C1250000 		.4byte	.LASF113
 6214 065a 0A       		.byte	0xa
 6215 065b D8       		.byte	0xd8
 6216 065c 04010000 		.4byte	0x104
 6217 0660 48       		.byte	0x48
 6218 0661 18       		.uleb128 0x18
 6219 0662 445200   		.ascii	"DR\000"
 6220 0665 0A       		.byte	0xa
 6221 0666 D9       		.byte	0xd9
 6222 0667 04010000 		.4byte	0x104
 6223 066b 4C       		.byte	0x4c
 6224 066c 00       		.byte	0
 6225 066d 02       		.uleb128 0x2
 6226 066e 80170000 		.4byte	.LASF114
 6227 0672 0A       		.byte	0xa
 6228 0673 DA       		.byte	0xda
 6229 0674 76050000 		.4byte	0x576
 6230 0678 17       		.uleb128 0x17
 6231 0679 10       		.byte	0x10
 6232 067a 0A       		.byte	0xa
 6233 067b E9       		.byte	0xe9
 6234 067c B1060000 		.4byte	0x6b1
 6235 0680 18       		.uleb128 0x18
 6236 0681 54495200 		.ascii	"TIR\000"
 6237 0685 0A       		.byte	0xa
 6238 0686 EB       		.byte	0xeb
 6239 0687 04010000 		.4byte	0x104
 6240 068b 00       		.byte	0
 6241 068c 08       		.uleb128 0x8
 6242 068d 92120000 		.4byte	.LASF115
 6243 0691 0A       		.byte	0xa
 6244 0692 EC       		.byte	0xec
 6245 0693 04010000 		.4byte	0x104
ARM GAS  C:\Users\mathi\AppData\Local\Temp\cc0ZaFXf.s 			page 116


 6246 0697 04       		.byte	0x4
 6247 0698 08       		.uleb128 0x8
 6248 0699 661A0000 		.4byte	.LASF116
 6249 069d 0A       		.byte	0xa
 6250 069e ED       		.byte	0xed
 6251 069f 04010000 		.4byte	0x104
 6252 06a3 08       		.byte	0x8
 6253 06a4 08       		.uleb128 0x8
 6254 06a5 D9170000 		.4byte	.LASF117
 6255 06a9 0A       		.byte	0xa
 6256 06aa EE       		.byte	0xee
 6257 06ab 04010000 		.4byte	0x104
 6258 06af 0C       		.byte	0xc
 6259 06b0 00       		.byte	0
 6260 06b1 02       		.uleb128 0x2
 6261 06b2 61070000 		.4byte	.LASF118
 6262 06b6 0A       		.byte	0xa
 6263 06b7 EF       		.byte	0xef
 6264 06b8 78060000 		.4byte	0x678
 6265 06bc 17       		.uleb128 0x17
 6266 06bd 10       		.byte	0x10
 6267 06be 0A       		.byte	0xa
 6268 06bf F5       		.byte	0xf5
 6269 06c0 F5060000 		.4byte	0x6f5
 6270 06c4 18       		.uleb128 0x18
 6271 06c5 52495200 		.ascii	"RIR\000"
 6272 06c9 0A       		.byte	0xa
 6273 06ca F7       		.byte	0xf7
 6274 06cb 04010000 		.4byte	0x104
 6275 06cf 00       		.byte	0
 6276 06d0 08       		.uleb128 0x8
 6277 06d1 4D210000 		.4byte	.LASF119
 6278 06d5 0A       		.byte	0xa
 6279 06d6 F8       		.byte	0xf8
 6280 06d7 04010000 		.4byte	0x104
 6281 06db 04       		.byte	0x4
 6282 06dc 08       		.uleb128 0x8
 6283 06dd C41B0000 		.4byte	.LASF120
 6284 06e1 0A       		.byte	0xa
 6285 06e2 F9       		.byte	0xf9
 6286 06e3 04010000 		.4byte	0x104
 6287 06e7 08       		.byte	0x8
 6288 06e8 08       		.uleb128 0x8
 6289 06e9 49190000 		.4byte	.LASF121
 6290 06ed 0A       		.byte	0xa
 6291 06ee FA       		.byte	0xfa
 6292 06ef 04010000 		.4byte	0x104
 6293 06f3 0C       		.byte	0xc
 6294 06f4 00       		.byte	0
 6295 06f5 02       		.uleb128 0x2
 6296 06f6 40200000 		.4byte	.LASF122
 6297 06fa 0A       		.byte	0xa
 6298 06fb FB       		.byte	0xfb
 6299 06fc BC060000 		.4byte	0x6bc
 6300 0700 19       		.uleb128 0x19
 6301 0701 08       		.byte	0x8
 6302 0702 0A       		.byte	0xa
ARM GAS  C:\Users\mathi\AppData\Local\Temp\cc0ZaFXf.s 			page 117


 6303 0703 0101     		.2byte	0x101
 6304 0705 24070000 		.4byte	0x724
 6305 0709 09       		.uleb128 0x9
 6306 070a 46523100 		.ascii	"FR1\000"
 6307 070e 0A       		.byte	0xa
 6308 070f 0301     		.2byte	0x103
 6309 0711 04010000 		.4byte	0x104
 6310 0715 00       		.byte	0
 6311 0716 09       		.uleb128 0x9
 6312 0717 46523200 		.ascii	"FR2\000"
 6313 071b 0A       		.byte	0xa
 6314 071c 0401     		.2byte	0x104
 6315 071e 04010000 		.4byte	0x104
 6316 0722 04       		.byte	0x4
 6317 0723 00       		.byte	0
 6318 0724 1A       		.uleb128 0x1a
 6319 0725 97120000 		.4byte	.LASF123
 6320 0729 0A       		.byte	0xa
 6321 072a 0501     		.2byte	0x105
 6322 072c 00070000 		.4byte	0x700
 6323 0730 1B       		.uleb128 0x1b
 6324 0731 2003     		.2byte	0x320
 6325 0733 0A       		.byte	0xa
 6326 0734 0B01     		.2byte	0x10b
 6327 0736 66080000 		.4byte	0x866
 6328 073a 09       		.uleb128 0x9
 6329 073b 4D435200 		.ascii	"MCR\000"
 6330 073f 0A       		.byte	0xa
 6331 0740 0D01     		.2byte	0x10d
 6332 0742 04010000 		.4byte	0x104
 6333 0746 00       		.byte	0
 6334 0747 09       		.uleb128 0x9
 6335 0748 4D535200 		.ascii	"MSR\000"
 6336 074c 0A       		.byte	0xa
 6337 074d 0E01     		.2byte	0x10e
 6338 074f 04010000 		.4byte	0x104
 6339 0753 04       		.byte	0x4
 6340 0754 09       		.uleb128 0x9
 6341 0755 54535200 		.ascii	"TSR\000"
 6342 0759 0A       		.byte	0xa
 6343 075a 0F01     		.2byte	0x10f
 6344 075c 04010000 		.4byte	0x104
 6345 0760 08       		.byte	0x8
 6346 0761 0A       		.uleb128 0xa
 6347 0762 DD100000 		.4byte	.LASF124
 6348 0766 0A       		.byte	0xa
 6349 0767 1001     		.2byte	0x110
 6350 0769 04010000 		.4byte	0x104
 6351 076d 0C       		.byte	0xc
 6352 076e 0A       		.uleb128 0xa
 6353 076f 93110000 		.4byte	.LASF125
 6354 0773 0A       		.byte	0xa
 6355 0774 1101     		.2byte	0x111
 6356 0776 04010000 		.4byte	0x104
 6357 077a 10       		.byte	0x10
 6358 077b 09       		.uleb128 0x9
 6359 077c 49455200 		.ascii	"IER\000"
ARM GAS  C:\Users\mathi\AppData\Local\Temp\cc0ZaFXf.s 			page 118


 6360 0780 0A       		.byte	0xa
 6361 0781 1201     		.2byte	0x112
 6362 0783 04010000 		.4byte	0x104
 6363 0787 14       		.byte	0x14
 6364 0788 09       		.uleb128 0x9
 6365 0789 45535200 		.ascii	"ESR\000"
 6366 078d 0A       		.byte	0xa
 6367 078e 1301     		.2byte	0x113
 6368 0790 04010000 		.4byte	0x104
 6369 0794 18       		.byte	0x18
 6370 0795 09       		.uleb128 0x9
 6371 0796 42545200 		.ascii	"BTR\000"
 6372 079a 0A       		.byte	0xa
 6373 079b 1401     		.2byte	0x114
 6374 079d 04010000 		.4byte	0x104
 6375 07a1 1C       		.byte	0x1c
 6376 07a2 0A       		.uleb128 0xa
 6377 07a3 F4220000 		.4byte	.LASF126
 6378 07a7 0A       		.byte	0xa
 6379 07a8 1501     		.2byte	0x115
 6380 07aa 66080000 		.4byte	0x866
 6381 07ae 20       		.byte	0x20
 6382 07af 11       		.uleb128 0x11
 6383 07b0 C7130000 		.4byte	.LASF127
 6384 07b4 0A       		.byte	0xa
 6385 07b5 1601     		.2byte	0x116
 6386 07b7 76080000 		.4byte	0x876
 6387 07bb 8001     		.2byte	0x180
 6388 07bd 11       		.uleb128 0x11
 6389 07be 33270000 		.4byte	.LASF128
 6390 07c2 0A       		.byte	0xa
 6391 07c3 1701     		.2byte	0x117
 6392 07c5 86080000 		.4byte	0x886
 6393 07c9 B001     		.2byte	0x1b0
 6394 07cb 11       		.uleb128 0x11
 6395 07cc FE220000 		.4byte	.LASF129
 6396 07d0 0A       		.byte	0xa
 6397 07d1 1801     		.2byte	0x118
 6398 07d3 96080000 		.4byte	0x896
 6399 07d7 D001     		.2byte	0x1d0
 6400 07d9 12       		.uleb128 0x12
 6401 07da 464D5200 		.ascii	"FMR\000"
 6402 07de 0A       		.byte	0xa
 6403 07df 1901     		.2byte	0x119
 6404 07e1 04010000 		.4byte	0x104
 6405 07e5 0002     		.2byte	0x200
 6406 07e7 11       		.uleb128 0x11
 6407 07e8 380D0000 		.4byte	.LASF130
 6408 07ec 0A       		.byte	0xa
 6409 07ed 1A01     		.2byte	0x11a
 6410 07ef 04010000 		.4byte	0x104
 6411 07f3 0402     		.2byte	0x204
 6412 07f5 11       		.uleb128 0x11
 6413 07f6 08230000 		.4byte	.LASF131
 6414 07fa 0A       		.byte	0xa
 6415 07fb 1B01     		.2byte	0x11b
 6416 07fd F9000000 		.4byte	0xf9
ARM GAS  C:\Users\mathi\AppData\Local\Temp\cc0ZaFXf.s 			page 119


 6417 0801 0802     		.2byte	0x208
 6418 0803 11       		.uleb128 0x11
 6419 0804 0E250000 		.4byte	.LASF132
 6420 0808 0A       		.byte	0xa
 6421 0809 1C01     		.2byte	0x11c
 6422 080b 04010000 		.4byte	0x104
 6423 080f 0C02     		.2byte	0x20c
 6424 0811 11       		.uleb128 0x11
 6425 0812 12230000 		.4byte	.LASF133
 6426 0816 0A       		.byte	0xa
 6427 0817 1D01     		.2byte	0x11d
 6428 0819 F9000000 		.4byte	0xf9
 6429 081d 1002     		.2byte	0x210
 6430 081f 11       		.uleb128 0x11
 6431 0820 071C0000 		.4byte	.LASF134
 6432 0824 0A       		.byte	0xa
 6433 0825 1E01     		.2byte	0x11e
 6434 0827 04010000 		.4byte	0x104
 6435 082b 1402     		.2byte	0x214
 6436 082d 11       		.uleb128 0x11
 6437 082e 1C230000 		.4byte	.LASF135
 6438 0832 0A       		.byte	0xa
 6439 0833 1F01     		.2byte	0x11f
 6440 0835 F9000000 		.4byte	0xf9
 6441 0839 1802     		.2byte	0x218
 6442 083b 11       		.uleb128 0x11
 6443 083c 25060000 		.4byte	.LASF136
 6444 0840 0A       		.byte	0xa
 6445 0841 2001     		.2byte	0x120
 6446 0843 04010000 		.4byte	0x104
 6447 0847 1C02     		.2byte	0x21c
 6448 0849 11       		.uleb128 0x11
 6449 084a 26230000 		.4byte	.LASF137
 6450 084e 0A       		.byte	0xa
 6451 084f 2101     		.2byte	0x121
 6452 0851 4F050000 		.4byte	0x54f
 6453 0855 2002     		.2byte	0x220
 6454 0857 11       		.uleb128 0x11
 6455 0858 15080000 		.4byte	.LASF138
 6456 085c 0A       		.byte	0xa
 6457 085d 2201     		.2byte	0x122
 6458 085f A6080000 		.4byte	0x8a6
 6459 0863 4002     		.2byte	0x240
 6460 0865 00       		.byte	0
 6461 0866 13       		.uleb128 0x13
 6462 0867 F9000000 		.4byte	0xf9
 6463 086b 76080000 		.4byte	0x876
 6464 086f 14       		.uleb128 0x14
 6465 0870 B1000000 		.4byte	0xb1
 6466 0874 57       		.byte	0x57
 6467 0875 00       		.byte	0
 6468 0876 13       		.uleb128 0x13
 6469 0877 B1060000 		.4byte	0x6b1
 6470 087b 86080000 		.4byte	0x886
 6471 087f 14       		.uleb128 0x14
 6472 0880 B1000000 		.4byte	0xb1
 6473 0884 02       		.byte	0x2
ARM GAS  C:\Users\mathi\AppData\Local\Temp\cc0ZaFXf.s 			page 120


 6474 0885 00       		.byte	0
 6475 0886 13       		.uleb128 0x13
 6476 0887 F5060000 		.4byte	0x6f5
 6477 088b 96080000 		.4byte	0x896
 6478 088f 14       		.uleb128 0x14
 6479 0890 B1000000 		.4byte	0xb1
 6480 0894 01       		.byte	0x1
 6481 0895 00       		.byte	0
 6482 0896 13       		.uleb128 0x13
 6483 0897 F9000000 		.4byte	0xf9
 6484 089b A6080000 		.4byte	0x8a6
 6485 089f 14       		.uleb128 0x14
 6486 08a0 B1000000 		.4byte	0xb1
 6487 08a4 0B       		.byte	0xb
 6488 08a5 00       		.byte	0
 6489 08a6 13       		.uleb128 0x13
 6490 08a7 24070000 		.4byte	0x724
 6491 08ab B6080000 		.4byte	0x8b6
 6492 08af 14       		.uleb128 0x14
 6493 08b0 B1000000 		.4byte	0xb1
 6494 08b4 1B       		.byte	0x1b
 6495 08b5 00       		.byte	0
 6496 08b6 1A       		.uleb128 0x1a
 6497 08b7 710F0000 		.4byte	.LASF139
 6498 08bb 0A       		.byte	0xa
 6499 08bc 2301     		.2byte	0x123
 6500 08be 30070000 		.4byte	0x730
 6501 08c2 19       		.uleb128 0x19
 6502 08c3 38       		.byte	0x38
 6503 08c4 0A       		.byte	0xa
 6504 08c5 3601     		.2byte	0x136
 6505 08c7 80090000 		.4byte	0x980
 6506 08cb 09       		.uleb128 0x9
 6507 08cc 435200   		.ascii	"CR\000"
 6508 08cf 0A       		.byte	0xa
 6509 08d0 3801     		.2byte	0x138
 6510 08d2 04010000 		.4byte	0x104
 6511 08d6 00       		.byte	0
 6512 08d7 0A       		.uleb128 0xa
 6513 08d8 21190000 		.4byte	.LASF140
 6514 08dc 0A       		.byte	0xa
 6515 08dd 3901     		.2byte	0x139
 6516 08df 04010000 		.4byte	0x104
 6517 08e3 04       		.byte	0x4
 6518 08e4 0A       		.uleb128 0xa
 6519 08e5 42230000 		.4byte	.LASF141
 6520 08e9 0A       		.byte	0xa
 6521 08ea 3A01     		.2byte	0x13a
 6522 08ec 04010000 		.4byte	0x104
 6523 08f0 08       		.byte	0x8
 6524 08f1 0A       		.uleb128 0xa
 6525 08f2 7C1E0000 		.4byte	.LASF142
 6526 08f6 0A       		.byte	0xa
 6527 08f7 3B01     		.2byte	0x13b
 6528 08f9 04010000 		.4byte	0x104
 6529 08fd 0C       		.byte	0xc
 6530 08fe 0A       		.uleb128 0xa
ARM GAS  C:\Users\mathi\AppData\Local\Temp\cc0ZaFXf.s 			page 121


 6531 08ff 750C0000 		.4byte	.LASF143
 6532 0903 0A       		.byte	0xa
 6533 0904 3C01     		.2byte	0x13c
 6534 0906 04010000 		.4byte	0x104
 6535 090a 10       		.byte	0x10
 6536 090b 0A       		.uleb128 0xa
 6537 090c 4A230000 		.4byte	.LASF144
 6538 0910 0A       		.byte	0xa
 6539 0911 3D01     		.2byte	0x13d
 6540 0913 04010000 		.4byte	0x104
 6541 0917 14       		.byte	0x14
 6542 0918 0A       		.uleb128 0xa
 6543 0919 841E0000 		.4byte	.LASF145
 6544 091d 0A       		.byte	0xa
 6545 091e 3E01     		.2byte	0x13e
 6546 0920 04010000 		.4byte	0x104
 6547 0924 18       		.byte	0x18
 6548 0925 0A       		.uleb128 0xa
 6549 0926 7C0C0000 		.4byte	.LASF146
 6550 092a 0A       		.byte	0xa
 6551 092b 3F01     		.2byte	0x13f
 6552 092d 04010000 		.4byte	0x104
 6553 0931 1C       		.byte	0x1c
 6554 0932 0A       		.uleb128 0xa
 6555 0933 A4230000 		.4byte	.LASF147
 6556 0937 0A       		.byte	0xa
 6557 0938 4001     		.2byte	0x140
 6558 093a 04010000 		.4byte	0x104
 6559 093e 20       		.byte	0x20
 6560 093f 0A       		.uleb128 0xa
 6561 0940 C61E0000 		.4byte	.LASF148
 6562 0944 0A       		.byte	0xa
 6563 0945 4101     		.2byte	0x141
 6564 0947 04010000 		.4byte	0x104
 6565 094b 24       		.byte	0x24
 6566 094c 0A       		.uleb128 0xa
 6567 094d 55270000 		.4byte	.LASF149
 6568 0951 0A       		.byte	0xa
 6569 0952 4201     		.2byte	0x142
 6570 0954 04010000 		.4byte	0x104
 6571 0958 28       		.byte	0x28
 6572 0959 0A       		.uleb128 0xa
 6573 095a FB010000 		.4byte	.LASF150
 6574 095e 0A       		.byte	0xa
 6575 095f 4301     		.2byte	0x143
 6576 0961 04010000 		.4byte	0x104
 6577 0965 2C       		.byte	0x2c
 6578 0966 0A       		.uleb128 0xa
 6579 0967 00020000 		.4byte	.LASF151
 6580 096b 0A       		.byte	0xa
 6581 096c 4401     		.2byte	0x144
 6582 096e 04010000 		.4byte	0x104
 6583 0972 30       		.byte	0x30
 6584 0973 09       		.uleb128 0x9
 6585 0974 535200   		.ascii	"SR\000"
 6586 0977 0A       		.byte	0xa
 6587 0978 4501     		.2byte	0x145
ARM GAS  C:\Users\mathi\AppData\Local\Temp\cc0ZaFXf.s 			page 122


 6588 097a 04010000 		.4byte	0x104
 6589 097e 34       		.byte	0x34
 6590 097f 00       		.byte	0
 6591 0980 1A       		.uleb128 0x1a
 6592 0981 58200000 		.4byte	.LASF152
 6593 0985 0A       		.byte	0xa
 6594 0986 4601     		.2byte	0x146
 6595 0988 C2080000 		.4byte	0x8c2
 6596 098c 19       		.uleb128 0x19
 6597 098d 2C       		.byte	0x2c
 6598 098e 0A       		.byte	0xa
 6599 098f 5801     		.2byte	0x158
 6600 0991 220A0000 		.4byte	0xa22
 6601 0995 09       		.uleb128 0x9
 6602 0996 435200   		.ascii	"CR\000"
 6603 0999 0A       		.byte	0xa
 6604 099a 5A01     		.2byte	0x15a
 6605 099c 04010000 		.4byte	0x104
 6606 09a0 00       		.byte	0
 6607 09a1 09       		.uleb128 0x9
 6608 09a2 535200   		.ascii	"SR\000"
 6609 09a5 0A       		.byte	0xa
 6610 09a6 5B01     		.2byte	0x15b
 6611 09a8 04010000 		.4byte	0x104
 6612 09ac 04       		.byte	0x4
 6613 09ad 0A       		.uleb128 0xa
 6614 09ae C10B0000 		.4byte	.LASF153
 6615 09b2 0A       		.byte	0xa
 6616 09b3 5C01     		.2byte	0x15c
 6617 09b5 04010000 		.4byte	0x104
 6618 09b9 08       		.byte	0x8
 6619 09ba 09       		.uleb128 0x9
 6620 09bb 49455200 		.ascii	"IER\000"
 6621 09bf 0A       		.byte	0xa
 6622 09c0 5D01     		.2byte	0x15d
 6623 09c2 04010000 		.4byte	0x104
 6624 09c6 0C       		.byte	0xc
 6625 09c7 0A       		.uleb128 0xa
 6626 09c8 E8230000 		.4byte	.LASF154
 6627 09cc 0A       		.byte	0xa
 6628 09cd 5E01     		.2byte	0x15e
 6629 09cf 04010000 		.4byte	0x104
 6630 09d3 10       		.byte	0x10
 6631 09d4 09       		.uleb128 0x9
 6632 09d5 49435200 		.ascii	"ICR\000"
 6633 09d9 0A       		.byte	0xa
 6634 09da 5F01     		.2byte	0x15f
 6635 09dc 04010000 		.4byte	0x104
 6636 09e0 14       		.byte	0x14
 6637 09e1 0A       		.uleb128 0xa
 6638 09e2 DE1C0000 		.4byte	.LASF155
 6639 09e6 0A       		.byte	0xa
 6640 09e7 6001     		.2byte	0x160
 6641 09e9 04010000 		.4byte	0x104
 6642 09ed 18       		.byte	0x18
 6643 09ee 0A       		.uleb128 0xa
 6644 09ef 32290000 		.4byte	.LASF156
ARM GAS  C:\Users\mathi\AppData\Local\Temp\cc0ZaFXf.s 			page 123


 6645 09f3 0A       		.byte	0xa
 6646 09f4 6101     		.2byte	0x161
 6647 09f6 04010000 		.4byte	0x104
 6648 09fa 1C       		.byte	0x1c
 6649 09fb 0A       		.uleb128 0xa
 6650 09fc 8C140000 		.4byte	.LASF157
 6651 0a00 0A       		.byte	0xa
 6652 0a01 6201     		.2byte	0x162
 6653 0a03 04010000 		.4byte	0x104
 6654 0a07 20       		.byte	0x20
 6655 0a08 0A       		.uleb128 0xa
 6656 0a09 A31D0000 		.4byte	.LASF158
 6657 0a0d 0A       		.byte	0xa
 6658 0a0e 6301     		.2byte	0x163
 6659 0a10 04010000 		.4byte	0x104
 6660 0a14 24       		.byte	0x24
 6661 0a15 09       		.uleb128 0x9
 6662 0a16 445200   		.ascii	"DR\000"
 6663 0a19 0A       		.byte	0xa
 6664 0a1a 6401     		.2byte	0x164
 6665 0a1c 04010000 		.4byte	0x104
 6666 0a20 28       		.byte	0x28
 6667 0a21 00       		.byte	0
 6668 0a22 1A       		.uleb128 0x1a
 6669 0a23 31060000 		.4byte	.LASF159
 6670 0a27 0A       		.byte	0xa
 6671 0a28 6501     		.2byte	0x165
 6672 0a2a 8C090000 		.4byte	0x98c
 6673 0a2e 19       		.uleb128 0x19
 6674 0a2f 18       		.byte	0x18
 6675 0a30 0A       		.byte	0xa
 6676 0a31 6B01     		.2byte	0x16b
 6677 0a33 850A0000 		.4byte	0xa85
 6678 0a37 09       		.uleb128 0x9
 6679 0a38 435200   		.ascii	"CR\000"
 6680 0a3b 0A       		.byte	0xa
 6681 0a3c 6D01     		.2byte	0x16d
 6682 0a3e 04010000 		.4byte	0x104
 6683 0a42 00       		.byte	0
 6684 0a43 0A       		.uleb128 0xa
 6685 0a44 4C240000 		.4byte	.LASF160
 6686 0a48 0A       		.byte	0xa
 6687 0a49 6E01     		.2byte	0x16e
 6688 0a4b 04010000 		.4byte	0x104
 6689 0a4f 04       		.byte	0x4
 6690 0a50 09       		.uleb128 0x9
 6691 0a51 50415200 		.ascii	"PAR\000"
 6692 0a55 0A       		.byte	0xa
 6693 0a56 6F01     		.2byte	0x16f
 6694 0a58 04010000 		.4byte	0x104
 6695 0a5c 08       		.byte	0x8
 6696 0a5d 0A       		.uleb128 0xa
 6697 0a5e F0050000 		.4byte	.LASF161
 6698 0a62 0A       		.byte	0xa
 6699 0a63 7001     		.2byte	0x170
 6700 0a65 04010000 		.4byte	0x104
 6701 0a69 0C       		.byte	0xc
ARM GAS  C:\Users\mathi\AppData\Local\Temp\cc0ZaFXf.s 			page 124


 6702 0a6a 0A       		.uleb128 0xa
 6703 0a6b 450A0000 		.4byte	.LASF162
 6704 0a6f 0A       		.byte	0xa
 6705 0a70 7101     		.2byte	0x171
 6706 0a72 04010000 		.4byte	0x104
 6707 0a76 10       		.byte	0x10
 6708 0a77 09       		.uleb128 0x9
 6709 0a78 46435200 		.ascii	"FCR\000"
 6710 0a7c 0A       		.byte	0xa
 6711 0a7d 7201     		.2byte	0x172
 6712 0a7f 04010000 		.4byte	0x104
 6713 0a83 14       		.byte	0x14
 6714 0a84 00       		.byte	0
 6715 0a85 1A       		.uleb128 0x1a
 6716 0a86 4F0A0000 		.4byte	.LASF163
 6717 0a8a 0A       		.byte	0xa
 6718 0a8b 7301     		.2byte	0x173
 6719 0a8d 2E0A0000 		.4byte	0xa2e
 6720 0a91 13       		.uleb128 0x13
 6721 0a92 04010000 		.4byte	0x104
 6722 0a96 A10A0000 		.4byte	0xaa1
 6723 0a9a 14       		.uleb128 0x14
 6724 0a9b B1000000 		.4byte	0xb1
 6725 0a9f 01       		.byte	0x1
 6726 0aa0 00       		.byte	0
 6727 0aa1 06       		.uleb128 0x6
 6728 0aa2 910A0000 		.4byte	0xa91
 6729 0aa6 13       		.uleb128 0x13
 6730 0aa7 04010000 		.4byte	0x104
 6731 0aab B60A0000 		.4byte	0xab6
 6732 0aaf 14       		.uleb128 0x14
 6733 0ab0 B1000000 		.4byte	0xb1
 6734 0ab4 03       		.byte	0x3
 6735 0ab5 00       		.byte	0
 6736 0ab6 06       		.uleb128 0x6
 6737 0ab7 A60A0000 		.4byte	0xaa6
 6738 0abb 19       		.uleb128 0x19
 6739 0abc 28       		.byte	0x28
 6740 0abd 0A       		.byte	0xa
 6741 0abe 3F02     		.2byte	0x23f
 6742 0ac0 460B0000 		.4byte	0xb46
 6743 0ac4 09       		.uleb128 0x9
 6744 0ac5 43523100 		.ascii	"CR1\000"
 6745 0ac9 0A       		.byte	0xa
 6746 0aca 4102     		.2byte	0x241
 6747 0acc 04010000 		.4byte	0x104
 6748 0ad0 00       		.byte	0
 6749 0ad1 09       		.uleb128 0x9
 6750 0ad2 43523200 		.ascii	"CR2\000"
 6751 0ad6 0A       		.byte	0xa
 6752 0ad7 4202     		.2byte	0x242
 6753 0ad9 04010000 		.4byte	0x104
 6754 0add 04       		.byte	0x4
 6755 0ade 0A       		.uleb128 0xa
 6756 0adf 472A0000 		.4byte	.LASF164
 6757 0ae3 0A       		.byte	0xa
 6758 0ae4 4302     		.2byte	0x243
ARM GAS  C:\Users\mathi\AppData\Local\Temp\cc0ZaFXf.s 			page 125


 6759 0ae6 04010000 		.4byte	0x104
 6760 0aea 08       		.byte	0x8
 6761 0aeb 0A       		.uleb128 0xa
 6762 0aec 4C2A0000 		.4byte	.LASF165
 6763 0af0 0A       		.byte	0xa
 6764 0af1 4402     		.2byte	0x244
 6765 0af3 04010000 		.4byte	0x104
 6766 0af7 0C       		.byte	0xc
 6767 0af8 09       		.uleb128 0x9
 6768 0af9 445200   		.ascii	"DR\000"
 6769 0afc 0A       		.byte	0xa
 6770 0afd 4502     		.2byte	0x245
 6771 0aff 04010000 		.4byte	0x104
 6772 0b03 10       		.byte	0x10
 6773 0b04 09       		.uleb128 0x9
 6774 0b05 53523100 		.ascii	"SR1\000"
 6775 0b09 0A       		.byte	0xa
 6776 0b0a 4602     		.2byte	0x246
 6777 0b0c 04010000 		.4byte	0x104
 6778 0b10 14       		.byte	0x14
 6779 0b11 09       		.uleb128 0x9
 6780 0b12 53523200 		.ascii	"SR2\000"
 6781 0b16 0A       		.byte	0xa
 6782 0b17 4702     		.2byte	0x247
 6783 0b19 04010000 		.4byte	0x104
 6784 0b1d 18       		.byte	0x18
 6785 0b1e 09       		.uleb128 0x9
 6786 0b1f 43435200 		.ascii	"CCR\000"
 6787 0b23 0A       		.byte	0xa
 6788 0b24 4802     		.2byte	0x248
 6789 0b26 04010000 		.4byte	0x104
 6790 0b2a 1C       		.byte	0x1c
 6791 0b2b 0A       		.uleb128 0xa
 6792 0b2c 24070000 		.4byte	.LASF166
 6793 0b30 0A       		.byte	0xa
 6794 0b31 4902     		.2byte	0x249
 6795 0b33 04010000 		.4byte	0x104
 6796 0b37 20       		.byte	0x20
 6797 0b38 0A       		.uleb128 0xa
 6798 0b39 BD280000 		.4byte	.LASF167
 6799 0b3d 0A       		.byte	0xa
 6800 0b3e 4A02     		.2byte	0x24a
 6801 0b40 04010000 		.4byte	0x104
 6802 0b44 24       		.byte	0x24
 6803 0b45 00       		.byte	0
 6804 0b46 1A       		.uleb128 0x1a
 6805 0b47 3D190000 		.4byte	.LASF168
 6806 0b4b 0A       		.byte	0xa
 6807 0b4c 4B02     		.2byte	0x24b
 6808 0b4e BB0A0000 		.4byte	0xabb
 6809 0b52 19       		.uleb128 0x19
 6810 0b53 84       		.byte	0x84
 6811 0b54 0A       		.byte	0xa
 6812 0b55 BF02     		.2byte	0x2bf
 6813 0b57 600C0000 		.4byte	0xc60
 6814 0b5b 0A       		.uleb128 0xa
 6815 0b5c 72190000 		.4byte	.LASF169
ARM GAS  C:\Users\mathi\AppData\Local\Temp\cc0ZaFXf.s 			page 126


 6816 0b60 0A       		.byte	0xa
 6817 0b61 C102     		.2byte	0x2c1
 6818 0b63 04010000 		.4byte	0x104
 6819 0b67 00       		.byte	0
 6820 0b68 0A       		.uleb128 0xa
 6821 0b69 83250000 		.4byte	.LASF170
 6822 0b6d 0A       		.byte	0xa
 6823 0b6e C202     		.2byte	0x2c2
 6824 0b70 04010000 		.4byte	0x104
 6825 0b74 04       		.byte	0x4
 6826 0b75 09       		.uleb128 0x9
 6827 0b76 41524700 		.ascii	"ARG\000"
 6828 0b7a 0A       		.byte	0xa
 6829 0b7b C302     		.2byte	0x2c3
 6830 0b7d 04010000 		.4byte	0x104
 6831 0b81 08       		.byte	0x8
 6832 0b82 09       		.uleb128 0x9
 6833 0b83 434D4400 		.ascii	"CMD\000"
 6834 0b87 0A       		.byte	0xa
 6835 0b88 C402     		.2byte	0x2c4
 6836 0b8a 04010000 		.4byte	0x104
 6837 0b8e 0C       		.byte	0xc
 6838 0b8f 0A       		.uleb128 0xa
 6839 0b90 A01C0000 		.4byte	.LASF171
 6840 0b94 0A       		.byte	0xa
 6841 0b95 C502     		.2byte	0x2c5
 6842 0b97 09010000 		.4byte	0x109
 6843 0b9b 10       		.byte	0x10
 6844 0b9c 0A       		.uleb128 0xa
 6845 0b9d 3C080000 		.4byte	.LASF172
 6846 0ba1 0A       		.byte	0xa
 6847 0ba2 C602     		.2byte	0x2c6
 6848 0ba4 09010000 		.4byte	0x109
 6849 0ba8 14       		.byte	0x14
 6850 0ba9 0A       		.uleb128 0xa
 6851 0baa 42080000 		.4byte	.LASF173
 6852 0bae 0A       		.byte	0xa
 6853 0baf C702     		.2byte	0x2c7
 6854 0bb1 09010000 		.4byte	0x109
 6855 0bb5 18       		.byte	0x18
 6856 0bb6 0A       		.uleb128 0xa
 6857 0bb7 48080000 		.4byte	.LASF174
 6858 0bbb 0A       		.byte	0xa
 6859 0bbc C802     		.2byte	0x2c8
 6860 0bbe 09010000 		.4byte	0x109
 6861 0bc2 1C       		.byte	0x1c
 6862 0bc3 0A       		.uleb128 0xa
 6863 0bc4 4E080000 		.4byte	.LASF175
 6864 0bc8 0A       		.byte	0xa
 6865 0bc9 C902     		.2byte	0x2c9
 6866 0bcb 09010000 		.4byte	0x109
 6867 0bcf 20       		.byte	0x20
 6868 0bd0 0A       		.uleb128 0xa
 6869 0bd1 2D160000 		.4byte	.LASF176
 6870 0bd5 0A       		.byte	0xa
 6871 0bd6 CA02     		.2byte	0x2ca
 6872 0bd8 04010000 		.4byte	0x104
ARM GAS  C:\Users\mathi\AppData\Local\Temp\cc0ZaFXf.s 			page 127


 6873 0bdc 24       		.byte	0x24
 6874 0bdd 0A       		.uleb128 0xa
 6875 0bde 03180000 		.4byte	.LASF177
 6876 0be2 0A       		.byte	0xa
 6877 0be3 CB02     		.2byte	0x2cb
 6878 0be5 04010000 		.4byte	0x104
 6879 0be9 28       		.byte	0x28
 6880 0bea 0A       		.uleb128 0xa
 6881 0beb A9280000 		.4byte	.LASF178
 6882 0bef 0A       		.byte	0xa
 6883 0bf0 CC02     		.2byte	0x2cc
 6884 0bf2 04010000 		.4byte	0x104
 6885 0bf6 2C       		.byte	0x2c
 6886 0bf7 0A       		.uleb128 0xa
 6887 0bf8 402A0000 		.4byte	.LASF179
 6888 0bfc 0A       		.byte	0xa
 6889 0bfd CD02     		.2byte	0x2cd
 6890 0bff 09010000 		.4byte	0x109
 6891 0c03 30       		.byte	0x30
 6892 0c04 09       		.uleb128 0x9
 6893 0c05 53544100 		.ascii	"STA\000"
 6894 0c09 0A       		.byte	0xa
 6895 0c0a CE02     		.2byte	0x2ce
 6896 0c0c 09010000 		.4byte	0x109
 6897 0c10 34       		.byte	0x34
 6898 0c11 09       		.uleb128 0x9
 6899 0c12 49435200 		.ascii	"ICR\000"
 6900 0c16 0A       		.byte	0xa
 6901 0c17 CF02     		.2byte	0x2cf
 6902 0c19 04010000 		.4byte	0x104
 6903 0c1d 38       		.byte	0x38
 6904 0c1e 0A       		.uleb128 0xa
 6905 0c1f 7D030000 		.4byte	.LASF180
 6906 0c23 0A       		.byte	0xa
 6907 0c24 D002     		.2byte	0x2d0
 6908 0c26 04010000 		.4byte	0x104
 6909 0c2a 3C       		.byte	0x3c
 6910 0c2b 0A       		.uleb128 0xa
 6911 0c2c F4220000 		.4byte	.LASF126
 6912 0c30 0A       		.byte	0xa
 6913 0c31 D102     		.2byte	0x2d1
 6914 0c33 3F050000 		.4byte	0x53f
 6915 0c37 40       		.byte	0x40
 6916 0c38 0A       		.uleb128 0xa
 6917 0c39 19170000 		.4byte	.LASF181
 6918 0c3d 0A       		.byte	0xa
 6919 0c3e D202     		.2byte	0x2d2
 6920 0c40 09010000 		.4byte	0x109
 6921 0c44 48       		.byte	0x48
 6922 0c45 0A       		.uleb128 0xa
 6923 0c46 FE220000 		.4byte	.LASF129
 6924 0c4a 0A       		.byte	0xa
 6925 0c4b D302     		.2byte	0x2d3
 6926 0c4d 600C0000 		.4byte	0xc60
 6927 0c51 4C       		.byte	0x4c
 6928 0c52 0A       		.uleb128 0xa
 6929 0c53 AA0B0000 		.4byte	.LASF182
ARM GAS  C:\Users\mathi\AppData\Local\Temp\cc0ZaFXf.s 			page 128


 6930 0c57 0A       		.byte	0xa
 6931 0c58 D402     		.2byte	0x2d4
 6932 0c5a 04010000 		.4byte	0x104
 6933 0c5e 80       		.byte	0x80
 6934 0c5f 00       		.byte	0
 6935 0c60 13       		.uleb128 0x13
 6936 0c61 F9000000 		.4byte	0xf9
 6937 0c65 700C0000 		.4byte	0xc70
 6938 0c69 14       		.uleb128 0x14
 6939 0c6a B1000000 		.4byte	0xb1
 6940 0c6e 0C       		.byte	0xc
 6941 0c6f 00       		.byte	0
 6942 0c70 1A       		.uleb128 0x1a
 6943 0c71 31240000 		.4byte	.LASF183
 6944 0c75 0A       		.byte	0xa
 6945 0c76 D502     		.2byte	0x2d5
 6946 0c78 520B0000 		.4byte	0xb52
 6947 0c7c 19       		.uleb128 0x19
 6948 0c7d 24       		.byte	0x24
 6949 0c7e 0A       		.byte	0xa
 6950 0c7f DB02     		.2byte	0x2db
 6951 0c81 F90C0000 		.4byte	0xcf9
 6952 0c85 09       		.uleb128 0x9
 6953 0c86 43523100 		.ascii	"CR1\000"
 6954 0c8a 0A       		.byte	0xa
 6955 0c8b DD02     		.2byte	0x2dd
 6956 0c8d 04010000 		.4byte	0x104
 6957 0c91 00       		.byte	0
 6958 0c92 09       		.uleb128 0x9
 6959 0c93 43523200 		.ascii	"CR2\000"
 6960 0c97 0A       		.byte	0xa
 6961 0c98 DE02     		.2byte	0x2de
 6962 0c9a 04010000 		.4byte	0x104
 6963 0c9e 04       		.byte	0x4
 6964 0c9f 09       		.uleb128 0x9
 6965 0ca0 535200   		.ascii	"SR\000"
 6966 0ca3 0A       		.byte	0xa
 6967 0ca4 DF02     		.2byte	0x2df
 6968 0ca6 04010000 		.4byte	0x104
 6969 0caa 08       		.byte	0x8
 6970 0cab 09       		.uleb128 0x9
 6971 0cac 445200   		.ascii	"DR\000"
 6972 0caf 0A       		.byte	0xa
 6973 0cb0 E002     		.2byte	0x2e0
 6974 0cb2 04010000 		.4byte	0x104
 6975 0cb6 0C       		.byte	0xc
 6976 0cb7 0A       		.uleb128 0xa
 6977 0cb8 C1090000 		.4byte	.LASF184
 6978 0cbc 0A       		.byte	0xa
 6979 0cbd E102     		.2byte	0x2e1
 6980 0cbf 04010000 		.4byte	0x104
 6981 0cc3 10       		.byte	0x10
 6982 0cc4 0A       		.uleb128 0xa
 6983 0cc5 E10D0000 		.4byte	.LASF185
 6984 0cc9 0A       		.byte	0xa
 6985 0cca E202     		.2byte	0x2e2
 6986 0ccc 04010000 		.4byte	0x104
ARM GAS  C:\Users\mathi\AppData\Local\Temp\cc0ZaFXf.s 			page 129


 6987 0cd0 14       		.byte	0x14
 6988 0cd1 0A       		.uleb128 0xa
 6989 0cd2 DA0C0000 		.4byte	.LASF186
 6990 0cd6 0A       		.byte	0xa
 6991 0cd7 E302     		.2byte	0x2e3
 6992 0cd9 04010000 		.4byte	0x104
 6993 0cdd 18       		.byte	0x18
 6994 0cde 0A       		.uleb128 0xa
 6995 0cdf 45260000 		.4byte	.LASF187
 6996 0ce3 0A       		.byte	0xa
 6997 0ce4 E402     		.2byte	0x2e4
 6998 0ce6 04010000 		.4byte	0x104
 6999 0cea 1C       		.byte	0x1c
 7000 0ceb 0A       		.uleb128 0xa
 7001 0cec 64090000 		.4byte	.LASF188
 7002 0cf0 0A       		.byte	0xa
 7003 0cf1 E502     		.2byte	0x2e5
 7004 0cf3 04010000 		.4byte	0x104
 7005 0cf7 20       		.byte	0x20
 7006 0cf8 00       		.byte	0
 7007 0cf9 1A       		.uleb128 0x1a
 7008 0cfa 87240000 		.4byte	.LASF189
 7009 0cfe 0A       		.byte	0xa
 7010 0cff E602     		.2byte	0x2e6
 7011 0d01 7C0C0000 		.4byte	0xc7c
 7012 0d05 19       		.uleb128 0x19
 7013 0d06 1C       		.byte	0x1c
 7014 0d07 0A       		.byte	0xa
 7015 0d08 0903     		.2byte	0x309
 7016 0d0a 680D0000 		.4byte	0xd68
 7017 0d0e 09       		.uleb128 0x9
 7018 0d0f 535200   		.ascii	"SR\000"
 7019 0d12 0A       		.byte	0xa
 7020 0d13 0B03     		.2byte	0x30b
 7021 0d15 04010000 		.4byte	0x104
 7022 0d19 00       		.byte	0
 7023 0d1a 09       		.uleb128 0x9
 7024 0d1b 445200   		.ascii	"DR\000"
 7025 0d1e 0A       		.byte	0xa
 7026 0d1f 0C03     		.2byte	0x30c
 7027 0d21 04010000 		.4byte	0x104
 7028 0d25 04       		.byte	0x4
 7029 0d26 09       		.uleb128 0x9
 7030 0d27 42525200 		.ascii	"BRR\000"
 7031 0d2b 0A       		.byte	0xa
 7032 0d2c 0D03     		.2byte	0x30d
 7033 0d2e 04010000 		.4byte	0x104
 7034 0d32 08       		.byte	0x8
 7035 0d33 09       		.uleb128 0x9
 7036 0d34 43523100 		.ascii	"CR1\000"
 7037 0d38 0A       		.byte	0xa
 7038 0d39 0E03     		.2byte	0x30e
 7039 0d3b 04010000 		.4byte	0x104
 7040 0d3f 0C       		.byte	0xc
 7041 0d40 09       		.uleb128 0x9
 7042 0d41 43523200 		.ascii	"CR2\000"
 7043 0d45 0A       		.byte	0xa
ARM GAS  C:\Users\mathi\AppData\Local\Temp\cc0ZaFXf.s 			page 130


 7044 0d46 0F03     		.2byte	0x30f
 7045 0d48 04010000 		.4byte	0x104
 7046 0d4c 10       		.byte	0x10
 7047 0d4d 09       		.uleb128 0x9
 7048 0d4e 43523300 		.ascii	"CR3\000"
 7049 0d52 0A       		.byte	0xa
 7050 0d53 1003     		.2byte	0x310
 7051 0d55 04010000 		.4byte	0x104
 7052 0d59 14       		.byte	0x14
 7053 0d5a 0A       		.uleb128 0xa
 7054 0d5b 80280000 		.4byte	.LASF190
 7055 0d5f 0A       		.byte	0xa
 7056 0d60 1103     		.2byte	0x311
 7057 0d62 04010000 		.4byte	0x104
 7058 0d66 18       		.byte	0x18
 7059 0d67 00       		.byte	0
 7060 0d68 1A       		.uleb128 0x1a
 7061 0d69 72290000 		.4byte	.LASF191
 7062 0d6d 0A       		.byte	0xa
 7063 0d6e 1203     		.2byte	0x312
 7064 0d70 050D0000 		.4byte	0xd05
 7065 0d74 13       		.uleb128 0x13
 7066 0d75 04010000 		.4byte	0x104
 7067 0d79 840D0000 		.4byte	0xd84
 7068 0d7d 14       		.uleb128 0x14
 7069 0d7e B1000000 		.4byte	0xb1
 7070 0d82 0E       		.byte	0xe
 7071 0d83 00       		.byte	0
 7072 0d84 06       		.uleb128 0x6
 7073 0d85 740D0000 		.4byte	0xd74
 7074 0d89 02       		.uleb128 0x2
 7075 0d8a EC1B0000 		.4byte	.LASF192
 7076 0d8e 0B       		.byte	0xb
 7077 0d8f 65       		.byte	0x65
 7078 0d90 D0030000 		.4byte	0x3d0
 7079 0d94 02       		.uleb128 0x2
 7080 0d95 480B0000 		.4byte	.LASF193
 7081 0d99 0B       		.byte	0xb
 7082 0d9a 6D       		.byte	0x6d
 7083 0d9b 0E010000 		.4byte	0x10e
 7084 0d9f 07       		.uleb128 0x7
 7085 0da0 4E1B0000 		.4byte	.LASF194
 7086 0da4 04       		.byte	0x4
 7087 0da5 0B       		.byte	0xb
 7088 0da6 89       		.byte	0x89
 7089 0da7 B80D0000 		.4byte	0xdb8
 7090 0dab 18       		.uleb128 0x18
 7091 0dac 72313300 		.ascii	"r13\000"
 7092 0db0 0B       		.byte	0xb
 7093 0db1 8A       		.byte	0x8a
 7094 0db2 F90E0000 		.4byte	0xef9
 7095 0db6 00       		.byte	0
 7096 0db7 00       		.byte	0
 7097 0db8 07       		.uleb128 0x7
 7098 0db9 09000000 		.4byte	.LASF195
 7099 0dbd 64       		.byte	0x64
 7100 0dbe 0C       		.byte	0xc
ARM GAS  C:\Users\mathi\AppData\Local\Temp\cc0ZaFXf.s 			page 131


 7101 0dbf F4       		.byte	0xf4
 7102 0dc0 F90E0000 		.4byte	0xef9
 7103 0dc4 18       		.uleb128 0x18
 7104 0dc5 73313600 		.ascii	"s16\000"
 7105 0dc9 0C       		.byte	0xc
 7106 0dca F6       		.byte	0xf6
 7107 0dcb 890D0000 		.4byte	0xd89
 7108 0dcf 00       		.byte	0
 7109 0dd0 18       		.uleb128 0x18
 7110 0dd1 73313700 		.ascii	"s17\000"
 7111 0dd5 0C       		.byte	0xc
 7112 0dd6 F7       		.byte	0xf7
 7113 0dd7 890D0000 		.4byte	0xd89
 7114 0ddb 04       		.byte	0x4
 7115 0ddc 18       		.uleb128 0x18
 7116 0ddd 73313800 		.ascii	"s18\000"
 7117 0de1 0C       		.byte	0xc
 7118 0de2 F8       		.byte	0xf8
 7119 0de3 890D0000 		.4byte	0xd89
 7120 0de7 08       		.byte	0x8
 7121 0de8 18       		.uleb128 0x18
 7122 0de9 73313900 		.ascii	"s19\000"
 7123 0ded 0C       		.byte	0xc
 7124 0dee F9       		.byte	0xf9
 7125 0def 890D0000 		.4byte	0xd89
 7126 0df3 0C       		.byte	0xc
 7127 0df4 18       		.uleb128 0x18
 7128 0df5 73323000 		.ascii	"s20\000"
 7129 0df9 0C       		.byte	0xc
 7130 0dfa FA       		.byte	0xfa
 7131 0dfb 890D0000 		.4byte	0xd89
 7132 0dff 10       		.byte	0x10
 7133 0e00 18       		.uleb128 0x18
 7134 0e01 73323100 		.ascii	"s21\000"
 7135 0e05 0C       		.byte	0xc
 7136 0e06 FB       		.byte	0xfb
 7137 0e07 890D0000 		.4byte	0xd89
 7138 0e0b 14       		.byte	0x14
 7139 0e0c 18       		.uleb128 0x18
 7140 0e0d 73323200 		.ascii	"s22\000"
 7141 0e11 0C       		.byte	0xc
 7142 0e12 FC       		.byte	0xfc
 7143 0e13 890D0000 		.4byte	0xd89
 7144 0e17 18       		.byte	0x18
 7145 0e18 18       		.uleb128 0x18
 7146 0e19 73323300 		.ascii	"s23\000"
 7147 0e1d 0C       		.byte	0xc
 7148 0e1e FD       		.byte	0xfd
 7149 0e1f 890D0000 		.4byte	0xd89
 7150 0e23 1C       		.byte	0x1c
 7151 0e24 18       		.uleb128 0x18
 7152 0e25 73323400 		.ascii	"s24\000"
 7153 0e29 0C       		.byte	0xc
 7154 0e2a FE       		.byte	0xfe
 7155 0e2b 890D0000 		.4byte	0xd89
 7156 0e2f 20       		.byte	0x20
 7157 0e30 18       		.uleb128 0x18
ARM GAS  C:\Users\mathi\AppData\Local\Temp\cc0ZaFXf.s 			page 132


 7158 0e31 73323500 		.ascii	"s25\000"
 7159 0e35 0C       		.byte	0xc
 7160 0e36 FF       		.byte	0xff
 7161 0e37 890D0000 		.4byte	0xd89
 7162 0e3b 24       		.byte	0x24
 7163 0e3c 09       		.uleb128 0x9
 7164 0e3d 73323600 		.ascii	"s26\000"
 7165 0e41 0C       		.byte	0xc
 7166 0e42 0001     		.2byte	0x100
 7167 0e44 890D0000 		.4byte	0xd89
 7168 0e48 28       		.byte	0x28
 7169 0e49 09       		.uleb128 0x9
 7170 0e4a 73323700 		.ascii	"s27\000"
 7171 0e4e 0C       		.byte	0xc
 7172 0e4f 0101     		.2byte	0x101
 7173 0e51 890D0000 		.4byte	0xd89
 7174 0e55 2C       		.byte	0x2c
 7175 0e56 09       		.uleb128 0x9
 7176 0e57 73323800 		.ascii	"s28\000"
 7177 0e5b 0C       		.byte	0xc
 7178 0e5c 0201     		.2byte	0x102
 7179 0e5e 890D0000 		.4byte	0xd89
 7180 0e62 30       		.byte	0x30
 7181 0e63 09       		.uleb128 0x9
 7182 0e64 73323900 		.ascii	"s29\000"
 7183 0e68 0C       		.byte	0xc
 7184 0e69 0301     		.2byte	0x103
 7185 0e6b 890D0000 		.4byte	0xd89
 7186 0e6f 34       		.byte	0x34
 7187 0e70 09       		.uleb128 0x9
 7188 0e71 73333000 		.ascii	"s30\000"
 7189 0e75 0C       		.byte	0xc
 7190 0e76 0401     		.2byte	0x104
 7191 0e78 890D0000 		.4byte	0xd89
 7192 0e7c 38       		.byte	0x38
 7193 0e7d 09       		.uleb128 0x9
 7194 0e7e 73333100 		.ascii	"s31\000"
 7195 0e82 0C       		.byte	0xc
 7196 0e83 0501     		.2byte	0x105
 7197 0e85 890D0000 		.4byte	0xd89
 7198 0e89 3C       		.byte	0x3c
 7199 0e8a 09       		.uleb128 0x9
 7200 0e8b 723400   		.ascii	"r4\000"
 7201 0e8e 0C       		.byte	0xc
 7202 0e8f 0701     		.2byte	0x107
 7203 0e91 890D0000 		.4byte	0xd89
 7204 0e95 40       		.byte	0x40
 7205 0e96 09       		.uleb128 0x9
 7206 0e97 723500   		.ascii	"r5\000"
 7207 0e9a 0C       		.byte	0xc
 7208 0e9b 0801     		.2byte	0x108
 7209 0e9d 890D0000 		.4byte	0xd89
 7210 0ea1 44       		.byte	0x44
 7211 0ea2 09       		.uleb128 0x9
 7212 0ea3 723600   		.ascii	"r6\000"
 7213 0ea6 0C       		.byte	0xc
 7214 0ea7 0901     		.2byte	0x109
ARM GAS  C:\Users\mathi\AppData\Local\Temp\cc0ZaFXf.s 			page 133


 7215 0ea9 890D0000 		.4byte	0xd89
 7216 0ead 48       		.byte	0x48
 7217 0eae 09       		.uleb128 0x9
 7218 0eaf 723700   		.ascii	"r7\000"
 7219 0eb2 0C       		.byte	0xc
 7220 0eb3 0A01     		.2byte	0x10a
 7221 0eb5 890D0000 		.4byte	0xd89
 7222 0eb9 4C       		.byte	0x4c
 7223 0eba 09       		.uleb128 0x9
 7224 0ebb 723800   		.ascii	"r8\000"
 7225 0ebe 0C       		.byte	0xc
 7226 0ebf 0B01     		.2byte	0x10b
 7227 0ec1 890D0000 		.4byte	0xd89
 7228 0ec5 50       		.byte	0x50
 7229 0ec6 09       		.uleb128 0x9
 7230 0ec7 723900   		.ascii	"r9\000"
 7231 0eca 0C       		.byte	0xc
 7232 0ecb 0C01     		.2byte	0x10c
 7233 0ecd 890D0000 		.4byte	0xd89
 7234 0ed1 54       		.byte	0x54
 7235 0ed2 09       		.uleb128 0x9
 7236 0ed3 72313000 		.ascii	"r10\000"
 7237 0ed7 0C       		.byte	0xc
 7238 0ed8 0D01     		.2byte	0x10d
 7239 0eda 890D0000 		.4byte	0xd89
 7240 0ede 58       		.byte	0x58
 7241 0edf 09       		.uleb128 0x9
 7242 0ee0 72313100 		.ascii	"r11\000"
 7243 0ee4 0C       		.byte	0xc
 7244 0ee5 0E01     		.2byte	0x10e
 7245 0ee7 890D0000 		.4byte	0xd89
 7246 0eeb 5C       		.byte	0x5c
 7247 0eec 09       		.uleb128 0x9
 7248 0eed 6C7200   		.ascii	"lr\000"
 7249 0ef0 0C       		.byte	0xc
 7250 0ef1 0F01     		.2byte	0x10f
 7251 0ef3 890D0000 		.4byte	0xd89
 7252 0ef7 60       		.byte	0x60
 7253 0ef8 00       		.byte	0
 7254 0ef9 0B       		.uleb128 0xb
 7255 0efa 04       		.byte	0x4
 7256 0efb B80D0000 		.4byte	0xdb8
 7257 0eff 17       		.uleb128 0x17
 7258 0f00 10       		.byte	0x10
 7259 0f01 0D       		.byte	0xd
 7260 0f02 51       		.byte	0x51
 7261 0f03 380F0000 		.4byte	0xf38
 7262 0f07 08       		.uleb128 0x8
 7263 0f08 68230000 		.4byte	.LASF196
 7264 0f0c 0D       		.byte	0xd
 7265 0f0d 55       		.byte	0x55
 7266 0f0e AF010000 		.4byte	0x1af
 7267 0f12 00       		.byte	0
 7268 0f13 08       		.uleb128 0x8
 7269 0f14 6C1C0000 		.4byte	.LASF197
 7270 0f18 0D       		.byte	0xd
 7271 0f19 59       		.byte	0x59
ARM GAS  C:\Users\mathi\AppData\Local\Temp\cc0ZaFXf.s 			page 134


 7272 0f1a F3020000 		.4byte	0x2f3
 7273 0f1e 04       		.byte	0x4
 7274 0f1f 08       		.uleb128 0x8
 7275 0f20 A00E0000 		.4byte	.LASF198
 7276 0f24 0D       		.byte	0xd
 7277 0f25 5D       		.byte	0x5d
 7278 0f26 D0030000 		.4byte	0x3d0
 7279 0f2a 08       		.byte	0x8
 7280 0f2b 08       		.uleb128 0x8
 7281 0f2c 4C0C0000 		.4byte	.LASF199
 7282 0f30 0D       		.byte	0xd
 7283 0f31 61       		.byte	0x61
 7284 0f32 C3000000 		.4byte	0xc3
 7285 0f36 0C       		.byte	0xc
 7286 0f37 00       		.byte	0
 7287 0f38 02       		.uleb128 0x2
 7288 0f39 840F0000 		.4byte	.LASF200
 7289 0f3d 0D       		.byte	0xd
 7290 0f3e 62       		.byte	0x62
 7291 0f3f FF0E0000 		.4byte	0xeff
 7292 0f43 1C       		.uleb128 0x1c
 7293 0f44 0804     		.2byte	0x408
 7294 0f46 0D       		.byte	0xd
 7295 0f47 67       		.byte	0x67
 7296 0f48 710F0000 		.4byte	0xf71
 7297 0f4c 08       		.uleb128 0x8
 7298 0f4d 67100000 		.4byte	.LASF201
 7299 0f51 0D       		.byte	0xd
 7300 0f52 6B       		.byte	0x6b
 7301 0f53 B1000000 		.4byte	0xb1
 7302 0f57 00       		.byte	0
 7303 0f58 08       		.uleb128 0x8
 7304 0f59 48170000 		.4byte	.LASF202
 7305 0f5d 0D       		.byte	0xd
 7306 0f5e 6F       		.byte	0x6f
 7307 0f5f 710F0000 		.4byte	0xf71
 7308 0f63 04       		.byte	0x4
 7309 0f64 08       		.uleb128 0x8
 7310 0f65 AF0B0000 		.4byte	.LASF203
 7311 0f69 0D       		.byte	0xd
 7312 0f6a 73       		.byte	0x73
 7313 0f6b 770F0000 		.4byte	0xf77
 7314 0f6f 08       		.byte	0x8
 7315 0f70 00       		.byte	0
 7316 0f71 0B       		.uleb128 0xb
 7317 0f72 04       		.byte	0x4
 7318 0f73 380F0000 		.4byte	0xf38
 7319 0f77 13       		.uleb128 0x13
 7320 0f78 380F0000 		.4byte	0xf38
 7321 0f7c 870F0000 		.4byte	0xf87
 7322 0f80 14       		.uleb128 0x14
 7323 0f81 B1000000 		.4byte	0xb1
 7324 0f85 3F       		.byte	0x3f
 7325 0f86 00       		.byte	0
 7326 0f87 02       		.uleb128 0x2
 7327 0f88 15000000 		.4byte	.LASF204
 7328 0f8c 0D       		.byte	0xd
ARM GAS  C:\Users\mathi\AppData\Local\Temp\cc0ZaFXf.s 			page 135


 7329 0f8d 74       		.byte	0x74
 7330 0f8e 430F0000 		.4byte	0xf43
 7331 0f92 17       		.uleb128 0x17
 7332 0f93 04       		.byte	0x4
 7333 0f94 0E       		.byte	0xe
 7334 0f95 38       		.byte	0x38
 7335 0f96 A70F0000 		.4byte	0xfa7
 7336 0f9a 08       		.uleb128 0x8
 7337 0f9b 3E240000 		.4byte	.LASF205
 7338 0f9f 0E       		.byte	0xe
 7339 0fa0 3C       		.byte	0x3c
 7340 0fa1 2B010000 		.4byte	0x12b
 7341 0fa5 00       		.byte	0
 7342 0fa6 00       		.byte	0
 7343 0fa7 02       		.uleb128 0x2
 7344 0fa8 5D280000 		.4byte	.LASF206
 7345 0fac 0E       		.byte	0xe
 7346 0fad 3D       		.byte	0x3d
 7347 0fae 920F0000 		.4byte	0xf92
 7348 0fb2 17       		.uleb128 0x17
 7349 0fb3 18       		.byte	0x18
 7350 0fb4 0E       		.byte	0xe
 7351 0fb5 48       		.byte	0x48
 7352 0fb6 F50F0000 		.4byte	0xff5
 7353 0fba 08       		.uleb128 0x8
 7354 0fbb 75090000 		.4byte	.LASF207
 7355 0fbf 0E       		.byte	0xe
 7356 0fc0 49       		.byte	0x49
 7357 0fc1 2B010000 		.4byte	0x12b
 7358 0fc5 00       		.byte	0
 7359 0fc6 08       		.uleb128 0x8
 7360 0fc7 EA010000 		.4byte	.LASF208
 7361 0fcb 0E       		.byte	0xe
 7362 0fcc 4A       		.byte	0x4a
 7363 0fcd 2B010000 		.4byte	0x12b
 7364 0fd1 04       		.byte	0x4
 7365 0fd2 08       		.uleb128 0x8
 7366 0fd3 7C1B0000 		.4byte	.LASF209
 7367 0fd7 0E       		.byte	0xe
 7368 0fd8 4B       		.byte	0x4b
 7369 0fd9 2B010000 		.4byte	0x12b
 7370 0fdd 08       		.byte	0x8
 7371 0fde 18       		.uleb128 0x18
 7372 0fdf 6E00     		.ascii	"n\000"
 7373 0fe1 0E       		.byte	0xe
 7374 0fe2 4C       		.byte	0x4c
 7375 0fe3 A4010000 		.4byte	0x1a4
 7376 0fe7 0C       		.byte	0xc
 7377 0fe8 08       		.uleb128 0x8
 7378 0fe9 1B1B0000 		.4byte	.LASF210
 7379 0fed 0E       		.byte	0xe
 7380 0fee 4D       		.byte	0x4d
 7381 0fef 36010000 		.4byte	0x136
 7382 0ff3 10       		.byte	0x10
 7383 0ff4 00       		.byte	0
 7384 0ff5 02       		.uleb128 0x2
 7385 0ff6 DB260000 		.4byte	.LASF211
ARM GAS  C:\Users\mathi\AppData\Local\Temp\cc0ZaFXf.s 			page 136


 7386 0ffa 0E       		.byte	0xe
 7387 0ffb 4E       		.byte	0x4e
 7388 0ffc B20F0000 		.4byte	0xfb2
 7389 1000 17       		.uleb128 0x17
 7390 1001 38       		.byte	0x38
 7391 1002 0F       		.byte	0xf
 7392 1003 38       		.byte	0x38
 7393 1004 39100000 		.4byte	0x1039
 7394 1008 08       		.uleb128 0x8
 7395 1009 B2080000 		.4byte	.LASF212
 7396 100d 0F       		.byte	0xf
 7397 100e 39       		.byte	0x39
 7398 100f A4010000 		.4byte	0x1a4
 7399 1013 00       		.byte	0
 7400 1014 08       		.uleb128 0x8
 7401 1015 180D0000 		.4byte	.LASF213
 7402 1019 0F       		.byte	0xf
 7403 101a 3A       		.byte	0x3a
 7404 101b A4010000 		.4byte	0x1a4
 7405 101f 04       		.byte	0x4
 7406 1020 08       		.uleb128 0x8
 7407 1021 28260000 		.4byte	.LASF214
 7408 1025 0F       		.byte	0xf
 7409 1026 3B       		.byte	0x3b
 7410 1027 F50F0000 		.4byte	0xff5
 7411 102b 08       		.byte	0x8
 7412 102c 08       		.uleb128 0x8
 7413 102d BC000000 		.4byte	.LASF215
 7414 1031 0F       		.byte	0xf
 7415 1032 3D       		.byte	0x3d
 7416 1033 F50F0000 		.4byte	0xff5
 7417 1037 20       		.byte	0x20
 7418 1038 00       		.byte	0
 7419 1039 02       		.uleb128 0x2
 7420 103a 3D070000 		.4byte	.LASF216
 7421 103e 0F       		.byte	0xf
 7422 103f 3F       		.byte	0x3f
 7423 1040 00100000 		.4byte	0x1000
 7424 1044 1D       		.uleb128 0x1d
 7425 1045 04       		.byte	0x4
 7426 1046 07       		.byte	0x7
 7427 1047 FA       		.byte	0xfa
 7428 1048 A1100000 		.4byte	0x10a1
 7429 104c 1E       		.uleb128 0x1e
 7430 104d 79120000 		.4byte	.LASF217
 7431 1051 07       		.byte	0x7
 7432 1052 0101     		.2byte	0x101
 7433 1054 78010000 		.4byte	0x178
 7434 1058 1E       		.uleb128 0x1e
 7435 1059 3C0A0000 		.4byte	.LASF218
 7436 105d 07       		.byte	0x7
 7437 105e 0801     		.2byte	0x108
 7438 1060 78010000 		.4byte	0x178
 7439 1064 1E       		.uleb128 0x1e
 7440 1065 64200000 		.4byte	.LASF219
 7441 1069 07       		.byte	0x7
 7442 106a 0F01     		.2byte	0x10f
ARM GAS  C:\Users\mathi\AppData\Local\Temp\cc0ZaFXf.s 			page 137


 7443 106c D0030000 		.4byte	0x3d0
 7444 1070 1E       		.uleb128 0x1e
 7445 1071 401B0000 		.4byte	.LASF220
 7446 1075 07       		.byte	0x7
 7447 1076 1601     		.2byte	0x116
 7448 1078 A1100000 		.4byte	0x10a1
 7449 107c 1E       		.uleb128 0x1e
 7450 107d 35010000 		.4byte	.LASF221
 7451 1081 07       		.byte	0x7
 7452 1082 1E01     		.2byte	0x11e
 7453 1084 CC100000 		.4byte	0x10cc
 7454 1088 1E       		.uleb128 0x1e
 7455 1089 C5200000 		.4byte	.LASF222
 7456 108d 07       		.byte	0x7
 7457 108e 2701     		.2byte	0x127
 7458 1090 0F110000 		.4byte	0x110f
 7459 1094 1E       		.uleb128 0x1e
 7460 1095 DB240000 		.4byte	.LASF223
 7461 1099 07       		.byte	0x7
 7462 109a 2F01     		.2byte	0x12f
 7463 109c 83010000 		.4byte	0x183
 7464 10a0 00       		.byte	0
 7465 10a1 0B       		.uleb128 0xb
 7466 10a2 04       		.byte	0x4
 7467 10a3 E8020000 		.4byte	0x2e8
 7468 10a7 07       		.uleb128 0x7
 7469 10a8 D0190000 		.4byte	.LASF224
 7470 10ac 0C       		.byte	0xc
 7471 10ad 10       		.byte	0x10
 7472 10ae 34       		.byte	0x34
 7473 10af CC100000 		.4byte	0x10cc
 7474 10b3 08       		.uleb128 0x8
 7475 10b4 20260000 		.4byte	.LASF225
 7476 10b8 10       		.byte	0x10
 7477 10b9 35       		.byte	0x35
 7478 10ba 1D030000 		.4byte	0x31d
 7479 10be 00       		.byte	0
 7480 10bf 08       		.uleb128 0x8
 7481 10c0 C60B0000 		.4byte	.LASF226
 7482 10c4 10       		.byte	0x10
 7483 10c5 37       		.byte	0x37
 7484 10c6 99010000 		.4byte	0x199
 7485 10ca 08       		.byte	0x8
 7486 10cb 00       		.byte	0
 7487 10cc 0B       		.uleb128 0xb
 7488 10cd 04       		.byte	0x4
 7489 10ce A7100000 		.4byte	0x10a7
 7490 10d2 07       		.uleb128 0x7
 7491 10d3 0F0E0000 		.4byte	.LASF227
 7492 10d7 14       		.byte	0x14
 7493 10d8 11       		.byte	0x11
 7494 10d9 39       		.byte	0x39
 7495 10da 0F110000 		.4byte	0x110f
 7496 10de 08       		.uleb128 0x8
 7497 10df 941A0000 		.4byte	.LASF228
 7498 10e3 11       		.byte	0x11
 7499 10e4 3A       		.byte	0x3a
ARM GAS  C:\Users\mathi\AppData\Local\Temp\cc0ZaFXf.s 			page 138


 7500 10e5 1D030000 		.4byte	0x31d
 7501 10e9 00       		.byte	0
 7502 10ea 08       		.uleb128 0x8
 7503 10eb 89180000 		.4byte	.LASF229
 7504 10ef 11       		.byte	0x11
 7505 10f0 3C       		.byte	0x3c
 7506 10f1 F3020000 		.4byte	0x2f3
 7507 10f5 08       		.byte	0x8
 7508 10f6 08       		.uleb128 0x8
 7509 10f7 21020000 		.4byte	.LASF230
 7510 10fb 11       		.byte	0x11
 7511 10fc 3E       		.byte	0x3e
 7512 10fd 6A120000 		.4byte	0x126a
 7513 1101 0C       		.byte	0xc
 7514 1102 08       		.uleb128 0x8
 7515 1103 C20A0000 		.4byte	.LASF231
 7516 1107 11       		.byte	0x11
 7517 1108 41       		.byte	0x41
 7518 1109 99010000 		.4byte	0x199
 7519 110d 10       		.byte	0x10
 7520 110e 00       		.byte	0
 7521 110f 0B       		.uleb128 0xb
 7522 1110 04       		.byte	0x4
 7523 1111 D2100000 		.4byte	0x10d2
 7524 1115 0B       		.uleb128 0xb
 7525 1116 04       		.byte	0x4
 7526 1117 27110000 		.4byte	0x1127
 7527 111b 06       		.uleb128 0x6
 7528 111c 15110000 		.4byte	0x1115
 7529 1120 03       		.uleb128 0x3
 7530 1121 01       		.byte	0x1
 7531 1122 08       		.byte	0x8
 7532 1123 C71C0000 		.4byte	.LASF232
 7533 1127 05       		.uleb128 0x5
 7534 1128 20110000 		.4byte	0x1120
 7535 112c 0B       		.uleb128 0xb
 7536 112d 04       		.byte	0x4
 7537 112e 940D0000 		.4byte	0xd94
 7538 1132 0B       		.uleb128 0xb
 7539 1133 04       		.byte	0x4
 7540 1134 D2030000 		.4byte	0x3d2
 7541 1138 13       		.uleb128 0x13
 7542 1139 940D0000 		.4byte	0xd94
 7543 113d 48110000 		.4byte	0x1148
 7544 1141 14       		.uleb128 0x14
 7545 1142 B1000000 		.4byte	0xb1
 7546 1146 30       		.byte	0x30
 7547 1147 00       		.byte	0
 7548 1148 1F       		.uleb128 0x1f
 7549 1149 636800   		.ascii	"ch\000"
 7550 114c 07       		.byte	0x7
 7551 114d 0902     		.2byte	0x209
 7552 114f C7040000 		.4byte	0x4c7
 7553 1153 17       		.uleb128 0x17
 7554 1154 16       		.byte	0x16
 7555 1155 12       		.byte	0x12
 7556 1156 34       		.byte	0x34
ARM GAS  C:\Users\mathi\AppData\Local\Temp\cc0ZaFXf.s 			page 139


 7557 1157 34120000 		.4byte	0x1234
 7558 115b 08       		.uleb128 0x8
 7559 115c 54260000 		.4byte	.LASF233
 7560 1160 12       		.byte	0x12
 7561 1161 35       		.byte	0x35
 7562 1162 34120000 		.4byte	0x1234
 7563 1166 00       		.byte	0
 7564 1167 08       		.uleb128 0x8
 7565 1168 8F280000 		.4byte	.LASF234
 7566 116c 12       		.byte	0x12
 7567 116d 36       		.byte	0x36
 7568 116e C3000000 		.4byte	0xc3
 7569 1172 04       		.byte	0x4
 7570 1173 08       		.uleb128 0x8
 7571 1174 E0040000 		.4byte	.LASF235
 7572 1178 12       		.byte	0x12
 7573 1179 37       		.byte	0x37
 7574 117a C3000000 		.4byte	0xc3
 7575 117e 05       		.byte	0x5
 7576 117f 08       		.uleb128 0x8
 7577 1180 F4180000 		.4byte	.LASF236
 7578 1184 12       		.byte	0x12
 7579 1185 38       		.byte	0x38
 7580 1186 DE000000 		.4byte	0xde
 7581 118a 06       		.byte	0x6
 7582 118b 08       		.uleb128 0x8
 7583 118c 27000000 		.4byte	.LASF237
 7584 1190 12       		.byte	0x12
 7585 1191 39       		.byte	0x39
 7586 1192 C3000000 		.4byte	0xc3
 7587 1196 08       		.byte	0x8
 7588 1197 08       		.uleb128 0x8
 7589 1198 08060000 		.4byte	.LASF238
 7590 119c 12       		.byte	0x12
 7591 119d 3A       		.byte	0x3a
 7592 119e C3000000 		.4byte	0xc3
 7593 11a2 09       		.byte	0x9
 7594 11a3 08       		.uleb128 0x8
 7595 11a4 AF280000 		.4byte	.LASF239
 7596 11a8 12       		.byte	0x12
 7597 11a9 3B       		.byte	0x3b
 7598 11aa C3000000 		.4byte	0xc3
 7599 11ae 0A       		.byte	0xa
 7600 11af 08       		.uleb128 0x8
 7601 11b0 AD260000 		.4byte	.LASF240
 7602 11b4 12       		.byte	0x12
 7603 11b5 3C       		.byte	0x3c
 7604 11b6 C3000000 		.4byte	0xc3
 7605 11ba 0B       		.byte	0xb
 7606 11bb 08       		.uleb128 0x8
 7607 11bc 8C070000 		.4byte	.LASF241
 7608 11c0 12       		.byte	0x12
 7609 11c1 3D       		.byte	0x3d
 7610 11c2 C3000000 		.4byte	0xc3
 7611 11c6 0C       		.byte	0xc
 7612 11c7 08       		.uleb128 0x8
 7613 11c8 630E0000 		.4byte	.LASF242
ARM GAS  C:\Users\mathi\AppData\Local\Temp\cc0ZaFXf.s 			page 140


 7614 11cc 12       		.byte	0x12
 7615 11cd 3E       		.byte	0x3e
 7616 11ce C3000000 		.4byte	0xc3
 7617 11d2 0D       		.byte	0xd
 7618 11d3 08       		.uleb128 0x8
 7619 11d4 E5070000 		.4byte	.LASF243
 7620 11d8 12       		.byte	0x12
 7621 11d9 3F       		.byte	0x3f
 7622 11da C3000000 		.4byte	0xc3
 7623 11de 0E       		.byte	0xe
 7624 11df 08       		.uleb128 0x8
 7625 11e0 0B100000 		.4byte	.LASF244
 7626 11e4 12       		.byte	0x12
 7627 11e5 40       		.byte	0x40
 7628 11e6 C3000000 		.4byte	0xc3
 7629 11ea 0F       		.byte	0xf
 7630 11eb 08       		.uleb128 0x8
 7631 11ec E0050000 		.4byte	.LASF245
 7632 11f0 12       		.byte	0x12
 7633 11f1 41       		.byte	0x41
 7634 11f2 C3000000 		.4byte	0xc3
 7635 11f6 10       		.byte	0x10
 7636 11f7 08       		.uleb128 0x8
 7637 11f8 D20A0000 		.4byte	.LASF246
 7638 11fc 12       		.byte	0x12
 7639 11fd 43       		.byte	0x43
 7640 11fe C3000000 		.4byte	0xc3
 7641 1202 11       		.byte	0x11
 7642 1203 08       		.uleb128 0x8
 7643 1204 98040000 		.4byte	.LASF247
 7644 1208 12       		.byte	0x12
 7645 1209 44       		.byte	0x44
 7646 120a C3000000 		.4byte	0xc3
 7647 120e 12       		.byte	0x12
 7648 120f 08       		.uleb128 0x8
 7649 1210 73180000 		.4byte	.LASF248
 7650 1214 12       		.byte	0x12
 7651 1215 45       		.byte	0x45
 7652 1216 C3000000 		.4byte	0xc3
 7653 121a 13       		.byte	0x13
 7654 121b 08       		.uleb128 0x8
 7655 121c 711F0000 		.4byte	.LASF249
 7656 1220 12       		.byte	0x12
 7657 1221 46       		.byte	0x46
 7658 1222 C3000000 		.4byte	0xc3
 7659 1226 14       		.byte	0x14
 7660 1227 08       		.uleb128 0x8
 7661 1228 13010000 		.4byte	.LASF250
 7662 122c 12       		.byte	0x12
 7663 122d 48       		.byte	0x48
 7664 122e C3000000 		.4byte	0xc3
 7665 1232 15       		.byte	0x15
 7666 1233 00       		.byte	0
 7667 1234 13       		.uleb128 0x13
 7668 1235 20110000 		.4byte	0x1120
 7669 1239 44120000 		.4byte	0x1244
 7670 123d 14       		.uleb128 0x14
ARM GAS  C:\Users\mathi\AppData\Local\Temp\cc0ZaFXf.s 			page 141


 7671 123e B1000000 		.4byte	0xb1
 7672 1242 03       		.byte	0x3
 7673 1243 00       		.byte	0
 7674 1244 02       		.uleb128 0x2
 7675 1245 4E160000 		.4byte	.LASF251
 7676 1249 12       		.byte	0x12
 7677 124a 49       		.byte	0x49
 7678 124b 53110000 		.4byte	0x1153
 7679 124f 05       		.uleb128 0x5
 7680 1250 44120000 		.4byte	0x1244
 7681 1254 16       		.uleb128 0x16
 7682 1255 2A0D0000 		.4byte	.LASF252
 7683 1259 12       		.byte	0x12
 7684 125a 6E       		.byte	0x6e
 7685 125b 4F120000 		.4byte	0x124f
 7686 125f 02       		.uleb128 0x2
 7687 1260 9F220000 		.4byte	.LASF253
 7688 1264 11       		.byte	0x11
 7689 1265 34       		.byte	0x34
 7690 1266 D2100000 		.4byte	0x10d2
 7691 126a 0B       		.uleb128 0xb
 7692 126b 04       		.byte	0x4
 7693 126c 5F120000 		.4byte	0x125f
 7694 1270 02       		.uleb128 0x2
 7695 1271 820D0000 		.4byte	.LASF254
 7696 1275 13       		.byte	0x13
 7697 1276 34       		.byte	0x34
 7698 1277 7B120000 		.4byte	0x127b
 7699 127b 07       		.uleb128 0x7
 7700 127c 37290000 		.4byte	.LASF255
 7701 1280 14       		.byte	0x14
 7702 1281 13       		.byte	0x13
 7703 1282 39       		.byte	0x39
 7704 1283 C4120000 		.4byte	0x12c4
 7705 1287 08       		.uleb128 0x8
 7706 1288 0F040000 		.4byte	.LASF256
 7707 128c 13       		.byte	0x13
 7708 128d 3A       		.byte	0x3a
 7709 128e C4120000 		.4byte	0x12c4
 7710 1292 00       		.byte	0
 7711 1293 08       		.uleb128 0x8
 7712 1294 AC230000 		.4byte	.LASF257
 7713 1298 13       		.byte	0x13
 7714 1299 3D       		.byte	0x3d
 7715 129a F3020000 		.4byte	0x2f3
 7716 129e 04       		.byte	0x4
 7717 129f 08       		.uleb128 0x8
 7718 12a0 5B050000 		.4byte	.LASF258
 7719 12a4 13       		.byte	0x13
 7720 12a5 3F       		.byte	0x3f
 7721 12a6 83010000 		.4byte	0x183
 7722 12aa 08       		.byte	0x8
 7723 12ab 08       		.uleb128 0x8
 7724 12ac E2240000 		.4byte	.LASF259
 7725 12b0 13       		.byte	0x13
 7726 12b1 41       		.byte	0x41
 7727 12b2 8E010000 		.4byte	0x18e
ARM GAS  C:\Users\mathi\AppData\Local\Temp\cc0ZaFXf.s 			page 142


 7728 12b6 0C       		.byte	0xc
 7729 12b7 08       		.uleb128 0x8
 7730 12b8 53100000 		.4byte	.LASF260
 7731 12bc 13       		.byte	0x13
 7732 12bd 43       		.byte	0x43
 7733 12be 8E010000 		.4byte	0x18e
 7734 12c2 10       		.byte	0x10
 7735 12c3 00       		.byte	0
 7736 12c4 0B       		.uleb128 0xb
 7737 12c5 04       		.byte	0x4
 7738 12c6 70120000 		.4byte	0x1270
 7739 12ca 07       		.uleb128 0x7
 7740 12cb F1240000 		.4byte	.LASF261
 7741 12cf 04       		.byte	0x4
 7742 12d0 13       		.byte	0x13
 7743 12d1 4A       		.byte	0x4a
 7744 12d2 E3120000 		.4byte	0x12e3
 7745 12d6 08       		.uleb128 0x8
 7746 12d7 51240000 		.4byte	.LASF262
 7747 12db 13       		.byte	0x13
 7748 12dc 4B       		.byte	0x4b
 7749 12dd C4120000 		.4byte	0x12c4
 7750 12e1 00       		.byte	0
 7751 12e2 00       		.byte	0
 7752 12e3 02       		.uleb128 0x2
 7753 12e4 21170000 		.4byte	.LASF263
 7754 12e8 13       		.byte	0x13
 7755 12e9 4E       		.byte	0x4e
 7756 12ea CA120000 		.4byte	0x12ca
 7757 12ee 02       		.uleb128 0x2
 7758 12ef 93100000 		.4byte	.LASF264
 7759 12f3 14       		.byte	0x14
 7760 12f4 3F       		.byte	0x3f
 7761 12f5 F9120000 		.4byte	0x12f9
 7762 12f9 07       		.uleb128 0x7
 7763 12fa F5120000 		.4byte	.LASF265
 7764 12fe 24       		.byte	0x24
 7765 12ff 14       		.byte	0x14
 7766 1300 4D       		.byte	0x4d
 7767 1301 66130000 		.4byte	0x1366
 7768 1305 08       		.uleb128 0x8
 7769 1306 57070000 		.4byte	.LASF266
 7770 130a 14       		.byte	0x14
 7771 130b 4E       		.byte	0x4e
 7772 130c 1D030000 		.4byte	0x31d
 7773 1310 00       		.byte	0
 7774 1311 08       		.uleb128 0x8
 7775 1312 37220000 		.4byte	.LASF267
 7776 1316 14       		.byte	0x14
 7777 1317 4F       		.byte	0x4f
 7778 1318 19010000 		.4byte	0x119
 7779 131c 08       		.byte	0x8
 7780 131d 08       		.uleb128 0x8
 7781 131e EC130000 		.4byte	.LASF268
 7782 1322 14       		.byte	0x14
 7783 1323 50       		.byte	0x50
 7784 1324 88130000 		.4byte	0x1388
ARM GAS  C:\Users\mathi\AppData\Local\Temp\cc0ZaFXf.s 			page 143


 7785 1328 0C       		.byte	0xc
 7786 1329 08       		.uleb128 0x8
 7787 132a A3060000 		.4byte	.LASF269
 7788 132e 14       		.byte	0x14
 7789 132f 51       		.byte	0x51
 7790 1330 88130000 		.4byte	0x1388
 7791 1334 10       		.byte	0x10
 7792 1335 08       		.uleb128 0x8
 7793 1336 721C0000 		.4byte	.LASF270
 7794 133a 14       		.byte	0x14
 7795 133b 53       		.byte	0x53
 7796 133c 88130000 		.4byte	0x1388
 7797 1340 14       		.byte	0x14
 7798 1341 08       		.uleb128 0x8
 7799 1342 461B0000 		.4byte	.LASF271
 7800 1346 14       		.byte	0x14
 7801 1347 54       		.byte	0x54
 7802 1348 88130000 		.4byte	0x1388
 7803 134c 18       		.byte	0x18
 7804 134d 08       		.uleb128 0x8
 7805 134e BC200000 		.4byte	.LASF272
 7806 1352 14       		.byte	0x14
 7807 1353 55       		.byte	0x55
 7808 1354 66130000 		.4byte	0x1366
 7809 1358 1C       		.byte	0x1c
 7810 1359 08       		.uleb128 0x8
 7811 135a B51D0000 		.4byte	.LASF273
 7812 135e 14       		.byte	0x14
 7813 135f 56       		.byte	0x56
 7814 1360 D0030000 		.4byte	0x3d0
 7815 1364 20       		.byte	0x20
 7816 1365 00       		.byte	0
 7817 1366 02       		.uleb128 0x2
 7818 1367 58060000 		.4byte	.LASF274
 7819 136b 14       		.byte	0x14
 7820 136c 42       		.byte	0x42
 7821 136d 71130000 		.4byte	0x1371
 7822 1371 0B       		.uleb128 0xb
 7823 1372 04       		.byte	0x4
 7824 1373 77130000 		.4byte	0x1377
 7825 1377 0D       		.uleb128 0xd
 7826 1378 82130000 		.4byte	0x1382
 7827 137c 0E       		.uleb128 0xe
 7828 137d 82130000 		.4byte	0x1382
 7829 1381 00       		.byte	0
 7830 1382 0B       		.uleb128 0xb
 7831 1383 04       		.byte	0x4
 7832 1384 EE120000 		.4byte	0x12ee
 7833 1388 0B       		.uleb128 0xb
 7834 1389 04       		.byte	0x4
 7835 138a C3000000 		.4byte	0xc3
 7836 138e 02       		.uleb128 0x2
 7837 138f 97070000 		.4byte	.LASF275
 7838 1393 14       		.byte	0x14
 7839 1394 64       		.byte	0x64
 7840 1395 EE120000 		.4byte	0x12ee
 7841 1399 02       		.uleb128 0x2
ARM GAS  C:\Users\mathi\AppData\Local\Temp\cc0ZaFXf.s 			page 144


 7842 139a 80290000 		.4byte	.LASF276
 7843 139e 14       		.byte	0x14
 7844 139f 71       		.byte	0x71
 7845 13a0 EE120000 		.4byte	0x12ee
 7846 13a4 20       		.uleb128 0x20
 7847 13a5 19010000 		.4byte	0x119
 7848 13a9 BD130000 		.4byte	0x13bd
 7849 13ad 0E       		.uleb128 0xe
 7850 13ae D0030000 		.4byte	0x3d0
 7851 13b2 0E       		.uleb128 0xe
 7852 13b3 BD130000 		.4byte	0x13bd
 7853 13b7 0E       		.uleb128 0xe
 7854 13b8 19010000 		.4byte	0x119
 7855 13bc 00       		.byte	0
 7856 13bd 0B       		.uleb128 0xb
 7857 13be 04       		.byte	0x4
 7858 13bf CE000000 		.4byte	0xce
 7859 13c3 0B       		.uleb128 0xb
 7860 13c4 04       		.byte	0x4
 7861 13c5 A4130000 		.4byte	0x13a4
 7862 13c9 20       		.uleb128 0x20
 7863 13ca 19010000 		.4byte	0x119
 7864 13ce E2130000 		.4byte	0x13e2
 7865 13d2 0E       		.uleb128 0xe
 7866 13d3 D0030000 		.4byte	0x3d0
 7867 13d7 0E       		.uleb128 0xe
 7868 13d8 88130000 		.4byte	0x1388
 7869 13dc 0E       		.uleb128 0xe
 7870 13dd 19010000 		.4byte	0x119
 7871 13e1 00       		.byte	0
 7872 13e2 0B       		.uleb128 0xb
 7873 13e3 04       		.byte	0x4
 7874 13e4 C9130000 		.4byte	0x13c9
 7875 13e8 20       		.uleb128 0x20
 7876 13e9 78010000 		.4byte	0x178
 7877 13ed FC130000 		.4byte	0x13fc
 7878 13f1 0E       		.uleb128 0xe
 7879 13f2 D0030000 		.4byte	0x3d0
 7880 13f6 0E       		.uleb128 0xe
 7881 13f7 C3000000 		.4byte	0xc3
 7882 13fb 00       		.byte	0
 7883 13fc 0B       		.uleb128 0xb
 7884 13fd 04       		.byte	0x4
 7885 13fe E8130000 		.4byte	0x13e8
 7886 1402 20       		.uleb128 0x20
 7887 1403 78010000 		.4byte	0x178
 7888 1407 11140000 		.4byte	0x1411
 7889 140b 0E       		.uleb128 0xe
 7890 140c D0030000 		.4byte	0x3d0
 7891 1410 00       		.byte	0
 7892 1411 0B       		.uleb128 0xb
 7893 1412 04       		.byte	0x4
 7894 1413 02140000 		.4byte	0x1402
 7895 1417 17       		.uleb128 0x17
 7896 1418 0C       		.byte	0xc
 7897 1419 15       		.byte	0x15
 7898 141a DA       		.byte	0xda
ARM GAS  C:\Users\mathi\AppData\Local\Temp\cc0ZaFXf.s 			page 145


 7899 141b 5C140000 		.4byte	0x145c
 7900 141f 08       		.uleb128 0x8
 7901 1420 11290000 		.4byte	.LASF277
 7902 1424 15       		.byte	0x15
 7903 1425 DB       		.byte	0xdb
 7904 1426 5C140000 		.4byte	0x145c
 7905 142a 00       		.byte	0
 7906 142b 08       		.uleb128 0x8
 7907 142c 3F120000 		.4byte	.LASF278
 7908 1430 15       		.byte	0x15
 7909 1431 DC       		.byte	0xdc
 7910 1432 62140000 		.4byte	0x1462
 7911 1436 04       		.byte	0x4
 7912 1437 08       		.uleb128 0x8
 7913 1438 83060000 		.4byte	.LASF279
 7914 143c 15       		.byte	0x15
 7915 143d DD       		.byte	0xdd
 7916 143e C3000000 		.4byte	0xc3
 7917 1442 08       		.byte	0x8
 7918 1443 08       		.uleb128 0x8
 7919 1444 95220000 		.4byte	.LASF280
 7920 1448 15       		.byte	0x15
 7921 1449 DF       		.byte	0xdf
 7922 144a C3000000 		.4byte	0xc3
 7923 144e 09       		.byte	0x9
 7924 144f 08       		.uleb128 0x8
 7925 1450 93050000 		.4byte	.LASF281
 7926 1454 15       		.byte	0x15
 7927 1455 E0       		.byte	0xe0
 7928 1456 C3000000 		.4byte	0xc3
 7929 145a 0A       		.byte	0xa
 7930 145b 00       		.byte	0
 7931 145c 0B       		.uleb128 0xb
 7932 145d 04       		.byte	0x4
 7933 145e 850A0000 		.4byte	0xa85
 7934 1462 0B       		.uleb128 0xb
 7935 1463 04       		.byte	0x4
 7936 1464 04010000 		.4byte	0x104
 7937 1468 02       		.uleb128 0x2
 7938 1469 1A150000 		.4byte	.LASF282
 7939 146d 15       		.byte	0x15
 7940 146e E1       		.byte	0xe1
 7941 146f 17140000 		.4byte	0x1417
 7942 1473 05       		.uleb128 0x5
 7943 1474 68140000 		.4byte	0x1468
 7944 1478 13       		.uleb128 0x13
 7945 1479 73140000 		.4byte	0x1473
 7946 147d 88140000 		.4byte	0x1488
 7947 1481 14       		.uleb128 0x14
 7948 1482 B1000000 		.4byte	0xb1
 7949 1486 0F       		.byte	0xf
 7950 1487 00       		.byte	0
 7951 1488 05       		.uleb128 0x5
 7952 1489 78140000 		.4byte	0x1478
 7953 148d 15       		.uleb128 0x15
 7954 148e 691E0000 		.4byte	.LASF283
 7955 1492 15       		.byte	0x15
ARM GAS  C:\Users\mathi\AppData\Local\Temp\cc0ZaFXf.s 			page 146


 7956 1493 BB01     		.2byte	0x1bb
 7957 1495 88140000 		.4byte	0x1488
 7958 1499 20       		.uleb128 0x20
 7959 149a 78010000 		.4byte	0x178
 7960 149e B2140000 		.4byte	0x14b2
 7961 14a2 0E       		.uleb128 0xe
 7962 14a3 D0030000 		.4byte	0x3d0
 7963 14a7 0E       		.uleb128 0xe
 7964 14a8 C3000000 		.4byte	0xc3
 7965 14ac 0E       		.uleb128 0xe
 7966 14ad AF010000 		.4byte	0x1af
 7967 14b1 00       		.byte	0
 7968 14b2 0B       		.uleb128 0xb
 7969 14b3 04       		.byte	0x4
 7970 14b4 99140000 		.4byte	0x1499
 7971 14b8 20       		.uleb128 0x20
 7972 14b9 78010000 		.4byte	0x178
 7973 14bd CC140000 		.4byte	0x14cc
 7974 14c1 0E       		.uleb128 0xe
 7975 14c2 D0030000 		.4byte	0x3d0
 7976 14c6 0E       		.uleb128 0xe
 7977 14c7 AF010000 		.4byte	0x1af
 7978 14cb 00       		.byte	0
 7979 14cc 0B       		.uleb128 0xb
 7980 14cd 04       		.byte	0x4
 7981 14ce B8140000 		.4byte	0x14b8
 7982 14d2 20       		.uleb128 0x20
 7983 14d3 19010000 		.4byte	0x119
 7984 14d7 F0140000 		.4byte	0x14f0
 7985 14db 0E       		.uleb128 0xe
 7986 14dc D0030000 		.4byte	0x3d0
 7987 14e0 0E       		.uleb128 0xe
 7988 14e1 BD130000 		.4byte	0x13bd
 7989 14e5 0E       		.uleb128 0xe
 7990 14e6 19010000 		.4byte	0x119
 7991 14ea 0E       		.uleb128 0xe
 7992 14eb AF010000 		.4byte	0x1af
 7993 14ef 00       		.byte	0
 7994 14f0 0B       		.uleb128 0xb
 7995 14f1 04       		.byte	0x4
 7996 14f2 D2140000 		.4byte	0x14d2
 7997 14f6 20       		.uleb128 0x20
 7998 14f7 19010000 		.4byte	0x119
 7999 14fb 14150000 		.4byte	0x1514
 8000 14ff 0E       		.uleb128 0xe
 8001 1500 D0030000 		.4byte	0x3d0
 8002 1504 0E       		.uleb128 0xe
 8003 1505 88130000 		.4byte	0x1388
 8004 1509 0E       		.uleb128 0xe
 8005 150a 19010000 		.4byte	0x119
 8006 150e 0E       		.uleb128 0xe
 8007 150f AF010000 		.4byte	0x1af
 8008 1513 00       		.byte	0
 8009 1514 0B       		.uleb128 0xb
 8010 1515 04       		.byte	0x4
 8011 1516 F6140000 		.4byte	0x14f6
 8012 151a 21       		.uleb128 0x21
ARM GAS  C:\Users\mathi\AppData\Local\Temp\cc0ZaFXf.s 			page 147


 8013 151b 07       		.byte	0x7
 8014 151c 01       		.byte	0x1
 8015 151d 42000000 		.4byte	0x42
 8016 1521 16       		.byte	0x16
 8017 1522 28       		.byte	0x28
 8018 1523 5E150000 		.4byte	0x155e
 8019 1527 22       		.uleb128 0x22
 8020 1528 CE010000 		.4byte	.LASF284
 8021 152c 00       		.byte	0
 8022 152d 22       		.uleb128 0x22
 8023 152e 5D110000 		.4byte	.LASF285
 8024 1532 01       		.byte	0x1
 8025 1533 22       		.uleb128 0x22
 8026 1534 6D0D0000 		.4byte	.LASF286
 8027 1538 02       		.byte	0x2
 8028 1539 22       		.uleb128 0x22
 8029 153a EE1F0000 		.4byte	.LASF287
 8030 153e 03       		.byte	0x3
 8031 153f 22       		.uleb128 0x22
 8032 1540 E6270000 		.4byte	.LASF288
 8033 1544 04       		.byte	0x4
 8034 1545 22       		.uleb128 0x22
 8035 1546 C7090000 		.4byte	.LASF289
 8036 154a 05       		.byte	0x5
 8037 154b 22       		.uleb128 0x22
 8038 154c 5F220000 		.4byte	.LASF290
 8039 1550 06       		.byte	0x6
 8040 1551 22       		.uleb128 0x22
 8041 1552 B81B0000 		.4byte	.LASF291
 8042 1556 07       		.byte	0x7
 8043 1557 22       		.uleb128 0x22
 8044 1558 A6270000 		.4byte	.LASF292
 8045 155c 08       		.byte	0x8
 8046 155d 00       		.byte	0
 8047 155e 02       		.uleb128 0x2
 8048 155f 381A0000 		.4byte	.LASF293
 8049 1563 16       		.byte	0x16
 8050 1564 32       		.byte	0x32
 8051 1565 1A150000 		.4byte	0x151a
 8052 1569 17       		.uleb128 0x17
 8053 156a 08       		.byte	0x8
 8054 156b 16       		.byte	0x16
 8055 156c 37       		.byte	0x37
 8056 156d 8A150000 		.4byte	0x158a
 8057 1571 08       		.uleb128 0x8
 8058 1572 3E090000 		.4byte	.LASF294
 8059 1576 16       		.byte	0x16
 8060 1577 38       		.byte	0x38
 8061 1578 F9000000 		.4byte	0xf9
 8062 157c 00       		.byte	0
 8063 157d 08       		.uleb128 0x8
 8064 157e 52210000 		.4byte	.LASF295
 8065 1582 16       		.byte	0x16
 8066 1583 39       		.byte	0x39
 8067 1584 F9000000 		.4byte	0xf9
 8068 1588 04       		.byte	0x4
 8069 1589 00       		.byte	0
ARM GAS  C:\Users\mathi\AppData\Local\Temp\cc0ZaFXf.s 			page 148


 8070 158a 02       		.uleb128 0x2
 8071 158b 0A240000 		.4byte	.LASF296
 8072 158f 16       		.byte	0x16
 8073 1590 3A       		.byte	0x3a
 8074 1591 69150000 		.4byte	0x1569
 8075 1595 20       		.uleb128 0x20
 8076 1596 A4150000 		.4byte	0x15a4
 8077 159a A4150000 		.4byte	0x15a4
 8078 159e 0E       		.uleb128 0xe
 8079 159f D0030000 		.4byte	0x3d0
 8080 15a3 00       		.byte	0
 8081 15a4 03       		.uleb128 0x3
 8082 15a5 01       		.byte	0x1
 8083 15a6 02       		.byte	0x2
 8084 15a7 4B010000 		.4byte	.LASF297
 8085 15ab 0B       		.uleb128 0xb
 8086 15ac 04       		.byte	0x4
 8087 15ad 95150000 		.4byte	0x1595
 8088 15b1 20       		.uleb128 0x20
 8089 15b2 A4150000 		.4byte	0x15a4
 8090 15b6 CF150000 		.4byte	0x15cf
 8091 15ba 0E       		.uleb128 0xe
 8092 15bb D0030000 		.4byte	0x3d0
 8093 15bf 0E       		.uleb128 0xe
 8094 15c0 F9000000 		.4byte	0xf9
 8095 15c4 0E       		.uleb128 0xe
 8096 15c5 88130000 		.4byte	0x1388
 8097 15c9 0E       		.uleb128 0xe
 8098 15ca F9000000 		.4byte	0xf9
 8099 15ce 00       		.byte	0
 8100 15cf 0B       		.uleb128 0xb
 8101 15d0 04       		.byte	0x4
 8102 15d1 B1150000 		.4byte	0x15b1
 8103 15d5 20       		.uleb128 0x20
 8104 15d6 A4150000 		.4byte	0x15a4
 8105 15da F3150000 		.4byte	0x15f3
 8106 15de 0E       		.uleb128 0xe
 8107 15df D0030000 		.4byte	0x3d0
 8108 15e3 0E       		.uleb128 0xe
 8109 15e4 F9000000 		.4byte	0xf9
 8110 15e8 0E       		.uleb128 0xe
 8111 15e9 BD130000 		.4byte	0x13bd
 8112 15ed 0E       		.uleb128 0xe
 8113 15ee F9000000 		.4byte	0xf9
 8114 15f2 00       		.byte	0
 8115 15f3 0B       		.uleb128 0xb
 8116 15f4 04       		.byte	0x4
 8117 15f5 D5150000 		.4byte	0x15d5
 8118 15f9 20       		.uleb128 0x20
 8119 15fa A4150000 		.4byte	0x15a4
 8120 15fe 0D160000 		.4byte	0x160d
 8121 1602 0E       		.uleb128 0xe
 8122 1603 D0030000 		.4byte	0x3d0
 8123 1607 0E       		.uleb128 0xe
 8124 1608 0D160000 		.4byte	0x160d
 8125 160c 00       		.byte	0
 8126 160d 0B       		.uleb128 0xb
ARM GAS  C:\Users\mathi\AppData\Local\Temp\cc0ZaFXf.s 			page 149


 8127 160e 04       		.byte	0x4
 8128 160f 8A150000 		.4byte	0x158a
 8129 1613 0B       		.uleb128 0xb
 8130 1614 04       		.byte	0x4
 8131 1615 F9150000 		.4byte	0x15f9
 8132 1619 13       		.uleb128 0x13
 8133 161a F9000000 		.4byte	0xf9
 8134 161e 29160000 		.4byte	0x1629
 8135 1622 14       		.uleb128 0x14
 8136 1623 B1000000 		.4byte	0xb1
 8137 1627 03       		.byte	0x3
 8138 1628 00       		.byte	0
 8139 1629 17       		.uleb128 0x17
 8140 162a 04       		.byte	0x4
 8141 162b 17       		.byte	0x17
 8142 162c B3       		.byte	0xb3
 8143 162d 4A160000 		.4byte	0x164a
 8144 1631 18       		.uleb128 0x18
 8145 1632 73657400 		.ascii	"set\000"
 8146 1636 17       		.byte	0x17
 8147 1637 B4       		.byte	0xb4
 8148 1638 DE000000 		.4byte	0xde
 8149 163c 00       		.byte	0
 8150 163d 08       		.uleb128 0x8
 8151 163e 660F0000 		.4byte	.LASF298
 8152 1642 17       		.byte	0x17
 8153 1643 B5       		.byte	0xb5
 8154 1644 DE000000 		.4byte	0xde
 8155 1648 02       		.byte	0x2
 8156 1649 00       		.byte	0
 8157 164a 1D       		.uleb128 0x1d
 8158 164b 04       		.byte	0x4
 8159 164c 17       		.byte	0x17
 8160 164d B1       		.byte	0xb1
 8161 164e 65160000 		.4byte	0x1665
 8162 1652 23       		.uleb128 0x23
 8163 1653 5700     		.ascii	"W\000"
 8164 1655 17       		.byte	0x17
 8165 1656 B2       		.byte	0xb2
 8166 1657 F9000000 		.4byte	0xf9
 8167 165b 23       		.uleb128 0x23
 8168 165c 4800     		.ascii	"H\000"
 8169 165e 17       		.byte	0x17
 8170 165f B6       		.byte	0xb6
 8171 1660 29160000 		.4byte	0x1629
 8172 1664 00       		.byte	0
 8173 1665 06       		.uleb128 0x6
 8174 1666 4A160000 		.4byte	0x164a
 8175 166a 17       		.uleb128 0x17
 8176 166b 2C       		.byte	0x2c
 8177 166c 17       		.byte	0x17
 8178 166d A9       		.byte	0xa9
 8179 166e F7160000 		.4byte	0x16f7
 8180 1672 08       		.uleb128 0x8
 8181 1673 C6220000 		.4byte	.LASF299
 8182 1677 17       		.byte	0x17
 8183 1678 AB       		.byte	0xab
ARM GAS  C:\Users\mathi\AppData\Local\Temp\cc0ZaFXf.s 			page 150


 8184 1679 04010000 		.4byte	0x104
 8185 167d 00       		.byte	0
 8186 167e 08       		.uleb128 0x8
 8187 167f 01050000 		.4byte	.LASF300
 8188 1683 17       		.byte	0x17
 8189 1684 AC       		.byte	0xac
 8190 1685 04010000 		.4byte	0x104
 8191 1689 04       		.byte	0x4
 8192 168a 08       		.uleb128 0x8
 8193 168b 19110000 		.4byte	.LASF301
 8194 168f 17       		.byte	0x17
 8195 1690 AD       		.byte	0xad
 8196 1691 04010000 		.4byte	0x104
 8197 1695 08       		.byte	0x8
 8198 1696 08       		.uleb128 0x8
 8199 1697 B5210000 		.4byte	.LASF302
 8200 169b 17       		.byte	0x17
 8201 169c AE       		.byte	0xae
 8202 169d 04010000 		.4byte	0x104
 8203 16a1 0C       		.byte	0xc
 8204 16a2 18       		.uleb128 0x18
 8205 16a3 49445200 		.ascii	"IDR\000"
 8206 16a7 17       		.byte	0x17
 8207 16a8 AF       		.byte	0xaf
 8208 16a9 04010000 		.4byte	0x104
 8209 16ad 10       		.byte	0x10
 8210 16ae 18       		.uleb128 0x18
 8211 16af 4F445200 		.ascii	"ODR\000"
 8212 16b3 17       		.byte	0x17
 8213 16b4 B0       		.byte	0xb0
 8214 16b5 04010000 		.4byte	0x104
 8215 16b9 14       		.byte	0x14
 8216 16ba 08       		.uleb128 0x8
 8217 16bb 05150000 		.4byte	.LASF303
 8218 16bf 17       		.byte	0x17
 8219 16c0 B7       		.byte	0xb7
 8220 16c1 65160000 		.4byte	0x1665
 8221 16c5 18       		.byte	0x18
 8222 16c6 08       		.uleb128 0x8
 8223 16c7 8D1B0000 		.4byte	.LASF304
 8224 16cb 17       		.byte	0x17
 8225 16cc B8       		.byte	0xb8
 8226 16cd 04010000 		.4byte	0x104
 8227 16d1 1C       		.byte	0x1c
 8228 16d2 08       		.uleb128 0x8
 8229 16d3 601F0000 		.4byte	.LASF305
 8230 16d7 17       		.byte	0x17
 8231 16d8 B9       		.byte	0xb9
 8232 16d9 04010000 		.4byte	0x104
 8233 16dd 20       		.byte	0x20
 8234 16de 08       		.uleb128 0x8
 8235 16df 541F0000 		.4byte	.LASF306
 8236 16e3 17       		.byte	0x17
 8237 16e4 BA       		.byte	0xba
 8238 16e5 04010000 		.4byte	0x104
 8239 16e9 24       		.byte	0x24
 8240 16ea 18       		.uleb128 0x18
ARM GAS  C:\Users\mathi\AppData\Local\Temp\cc0ZaFXf.s 			page 151


 8241 16eb 42525200 		.ascii	"BRR\000"
 8242 16ef 17       		.byte	0x17
 8243 16f0 BB       		.byte	0xbb
 8244 16f1 04010000 		.4byte	0x104
 8245 16f5 28       		.byte	0x28
 8246 16f6 00       		.byte	0
 8247 16f7 02       		.uleb128 0x2
 8248 16f8 6C120000 		.4byte	.LASF307
 8249 16fc 17       		.byte	0x17
 8250 16fd BC       		.byte	0xbc
 8251 16fe 6A160000 		.4byte	0x166a
 8252 1702 17       		.uleb128 0x17
 8253 1703 1C       		.byte	0x1c
 8254 1704 17       		.byte	0x17
 8255 1705 C1       		.byte	0xc1
 8256 1706 5F170000 		.4byte	0x175f
 8257 170a 08       		.uleb128 0x8
 8258 170b 1A260000 		.4byte	.LASF308
 8259 170f 17       		.byte	0x17
 8260 1710 C3       		.byte	0xc3
 8261 1711 F9000000 		.4byte	0xf9
 8262 1715 00       		.byte	0
 8263 1716 08       		.uleb128 0x8
 8264 1717 FA040000 		.4byte	.LASF309
 8265 171b 17       		.byte	0x17
 8266 171c C5       		.byte	0xc5
 8267 171d F9000000 		.4byte	0xf9
 8268 1721 04       		.byte	0x4
 8269 1722 08       		.uleb128 0x8
 8270 1723 F2030000 		.4byte	.LASF310
 8271 1727 17       		.byte	0x17
 8272 1728 C7       		.byte	0xc7
 8273 1729 F9000000 		.4byte	0xf9
 8274 172d 08       		.byte	0x8
 8275 172e 08       		.uleb128 0x8
 8276 172f 4F250000 		.4byte	.LASF311
 8277 1733 17       		.byte	0x17
 8278 1734 C9       		.byte	0xc9
 8279 1735 F9000000 		.4byte	0xf9
 8280 1739 0C       		.byte	0xc
 8281 173a 18       		.uleb128 0x18
 8282 173b 6F647200 		.ascii	"odr\000"
 8283 173f 17       		.byte	0x17
 8284 1740 CB       		.byte	0xcb
 8285 1741 F9000000 		.4byte	0xf9
 8286 1745 10       		.byte	0x10
 8287 1746 08       		.uleb128 0x8
 8288 1747 6B220000 		.4byte	.LASF312
 8289 174b 17       		.byte	0x17
 8290 174c CD       		.byte	0xcd
 8291 174d F9000000 		.4byte	0xf9
 8292 1751 14       		.byte	0x14
 8293 1752 08       		.uleb128 0x8
 8294 1753 A3000000 		.4byte	.LASF313
 8295 1757 17       		.byte	0x17
 8296 1758 CF       		.byte	0xcf
 8297 1759 F9000000 		.4byte	0xf9
ARM GAS  C:\Users\mathi\AppData\Local\Temp\cc0ZaFXf.s 			page 152


 8298 175d 18       		.byte	0x18
 8299 175e 00       		.byte	0
 8300 175f 02       		.uleb128 0x2
 8301 1760 241E0000 		.4byte	.LASF314
 8302 1764 17       		.byte	0x17
 8303 1765 D0       		.byte	0xd0
 8304 1766 02170000 		.4byte	0x1702
 8305 176a 17       		.uleb128 0x17
 8306 176b FC       		.byte	0xfc
 8307 176c 17       		.byte	0x17
 8308 176d D9       		.byte	0xd9
 8309 176e DF170000 		.4byte	0x17df
 8310 1772 08       		.uleb128 0x8
 8311 1773 FE120000 		.4byte	.LASF315
 8312 1777 17       		.byte	0x17
 8313 1778 DC       		.byte	0xdc
 8314 1779 5F170000 		.4byte	0x175f
 8315 177d 00       		.byte	0
 8316 177e 08       		.uleb128 0x8
 8317 177f D9040000 		.4byte	.LASF316
 8318 1783 17       		.byte	0x17
 8319 1784 E0       		.byte	0xe0
 8320 1785 5F170000 		.4byte	0x175f
 8321 1789 1C       		.byte	0x1c
 8322 178a 08       		.uleb128 0x8
 8323 178b 28020000 		.4byte	.LASF317
 8324 178f 17       		.byte	0x17
 8325 1790 E4       		.byte	0xe4
 8326 1791 5F170000 		.4byte	0x175f
 8327 1795 38       		.byte	0x38
 8328 1796 08       		.uleb128 0x8
 8329 1797 6F100000 		.4byte	.LASF318
 8330 179b 17       		.byte	0x17
 8331 179c E8       		.byte	0xe8
 8332 179d 5F170000 		.4byte	0x175f
 8333 17a1 54       		.byte	0x54
 8334 17a2 08       		.uleb128 0x8
 8335 17a3 ED1C0000 		.4byte	.LASF319
 8336 17a7 17       		.byte	0x17
 8337 17a8 EC       		.byte	0xec
 8338 17a9 5F170000 		.4byte	0x175f
 8339 17ad 70       		.byte	0x70
 8340 17ae 08       		.uleb128 0x8
 8341 17af EF290000 		.4byte	.LASF320
 8342 17b3 17       		.byte	0x17
 8343 17b4 F0       		.byte	0xf0
 8344 17b5 5F170000 		.4byte	0x175f
 8345 17b9 8C       		.byte	0x8c
 8346 17ba 08       		.uleb128 0x8
 8347 17bb 300E0000 		.4byte	.LASF321
 8348 17bf 17       		.byte	0x17
 8349 17c0 F4       		.byte	0xf4
 8350 17c1 5F170000 		.4byte	0x175f
 8351 17c5 A8       		.byte	0xa8
 8352 17c6 08       		.uleb128 0x8
 8353 17c7 BC1A0000 		.4byte	.LASF322
 8354 17cb 17       		.byte	0x17
ARM GAS  C:\Users\mathi\AppData\Local\Temp\cc0ZaFXf.s 			page 153


 8355 17cc F8       		.byte	0xf8
 8356 17cd 5F170000 		.4byte	0x175f
 8357 17d1 C4       		.byte	0xc4
 8358 17d2 08       		.uleb128 0x8
 8359 17d3 B2270000 		.4byte	.LASF323
 8360 17d7 17       		.byte	0x17
 8361 17d8 FC       		.byte	0xfc
 8362 17d9 5F170000 		.4byte	0x175f
 8363 17dd E0       		.byte	0xe0
 8364 17de 00       		.byte	0
 8365 17df 02       		.uleb128 0x2
 8366 17e0 460D0000 		.4byte	.LASF324
 8367 17e4 17       		.byte	0x17
 8368 17e5 FE       		.byte	0xfe
 8369 17e6 6A170000 		.4byte	0x176a
 8370 17ea 05       		.uleb128 0x5
 8371 17eb DF170000 		.4byte	0x17df
 8372 17ef 1A       		.uleb128 0x1a
 8373 17f0 C31A0000 		.4byte	.LASF325
 8374 17f4 17       		.byte	0x17
 8375 17f5 1B01     		.2byte	0x11b
 8376 17f7 FB170000 		.4byte	0x17fb
 8377 17fb 0B       		.uleb128 0xb
 8378 17fc 04       		.byte	0x4
 8379 17fd F7160000 		.4byte	0x16f7
 8380 1801 15       		.uleb128 0x15
 8381 1802 79230000 		.4byte	.LASF326
 8382 1806 17       		.byte	0x17
 8383 1807 DA01     		.2byte	0x1da
 8384 1809 EA170000 		.4byte	0x17ea
 8385 180d 21       		.uleb128 0x21
 8386 180e 07       		.byte	0x7
 8387 180f 01       		.byte	0x1
 8388 1810 42000000 		.4byte	0x42
 8389 1814 18       		.byte	0x18
 8390 1815 46       		.byte	0x46
 8391 1816 3F180000 		.4byte	0x183f
 8392 181a 22       		.uleb128 0x22
 8393 181b 8E0A0000 		.4byte	.LASF327
 8394 181f 00       		.byte	0
 8395 1820 22       		.uleb128 0x22
 8396 1821 DE170000 		.4byte	.LASF328
 8397 1825 01       		.byte	0x1
 8398 1826 22       		.uleb128 0x22
 8399 1827 CF250000 		.4byte	.LASF329
 8400 182b 02       		.byte	0x2
 8401 182c 22       		.uleb128 0x22
 8402 182d E5140000 		.4byte	.LASF330
 8403 1831 03       		.byte	0x3
 8404 1832 22       		.uleb128 0x22
 8405 1833 7D080000 		.4byte	.LASF331
 8406 1837 04       		.byte	0x4
 8407 1838 22       		.uleb128 0x22
 8408 1839 AB140000 		.4byte	.LASF332
 8409 183d 05       		.byte	0x5
 8410 183e 00       		.byte	0
 8411 183f 02       		.uleb128 0x2
ARM GAS  C:\Users\mathi\AppData\Local\Temp\cc0ZaFXf.s 			page 154


 8412 1840 62060000 		.4byte	.LASF333
 8413 1844 18       		.byte	0x18
 8414 1845 4D       		.byte	0x4d
 8415 1846 0D180000 		.4byte	0x180d
 8416 184a 1A       		.uleb128 0x1a
 8417 184b D2130000 		.4byte	.LASF334
 8418 184f 19       		.byte	0x19
 8419 1850 2701     		.2byte	0x127
 8420 1852 DE000000 		.4byte	0xde
 8421 1856 1A       		.uleb128 0x1a
 8422 1857 24200000 		.4byte	.LASF335
 8423 185b 19       		.byte	0x19
 8424 185c 2C01     		.2byte	0x12c
 8425 185e DE000000 		.4byte	0xde
 8426 1862 24       		.uleb128 0x24
 8427 1863 07       		.byte	0x7
 8428 1864 01       		.byte	0x1
 8429 1865 42000000 		.4byte	0x42
 8430 1869 19       		.byte	0x19
 8431 186a 3301     		.2byte	0x133
 8432 186c 7D180000 		.4byte	0x187d
 8433 1870 22       		.uleb128 0x22
 8434 1871 E2100000 		.4byte	.LASF336
 8435 1875 00       		.byte	0
 8436 1876 22       		.uleb128 0x22
 8437 1877 23040000 		.4byte	.LASF337
 8438 187b 01       		.byte	0x1
 8439 187c 00       		.byte	0
 8440 187d 1A       		.uleb128 0x1a
 8441 187e F7260000 		.4byte	.LASF338
 8442 1882 19       		.byte	0x19
 8443 1883 3601     		.2byte	0x136
 8444 1885 62180000 		.4byte	0x1862
 8445 1889 1A       		.uleb128 0x1a
 8446 188a 98110000 		.4byte	.LASF339
 8447 188e 19       		.byte	0x19
 8448 188f 3B01     		.2byte	0x13b
 8449 1891 95180000 		.4byte	0x1895
 8450 1895 0C       		.uleb128 0xc
 8451 1896 98110000 		.4byte	.LASF339
 8452 189a 38       		.byte	0x38
 8453 189b 19       		.byte	0x19
 8454 189c 9F01     		.2byte	0x19f
 8455 189e 25190000 		.4byte	0x1925
 8456 18a2 0A       		.uleb128 0xa
 8457 18a3 E2180000 		.4byte	.LASF340
 8458 18a7 19       		.byte	0x19
 8459 18a8 A301     		.2byte	0x1a3
 8460 18aa 3F180000 		.4byte	0x183f
 8461 18ae 00       		.byte	0
 8462 18af 0A       		.uleb128 0xa
 8463 18b0 B91F0000 		.4byte	.LASF341
 8464 18b4 19       		.byte	0x19
 8465 18b5 A701     		.2byte	0x1a7
 8466 18b7 4C1A0000 		.4byte	0x1a4c
 8467 18bb 04       		.byte	0x4
 8468 18bc 0A       		.uleb128 0xa
ARM GAS  C:\Users\mathi\AppData\Local\Temp\cc0ZaFXf.s 			page 155


 8469 18bd 82030000 		.4byte	.LASF342
 8470 18c1 19       		.byte	0x19
 8471 18c2 AB01     		.2byte	0x1ab
 8472 18c4 52190000 		.4byte	0x1952
 8473 18c8 08       		.byte	0x8
 8474 18c9 0A       		.uleb128 0xa
 8475 18ca 011C0000 		.4byte	.LASF343
 8476 18ce 19       		.byte	0x19
 8477 18cf AF01     		.2byte	0x1af
 8478 18d1 19010000 		.4byte	0x119
 8479 18d5 0C       		.byte	0xc
 8480 18d6 0A       		.uleb128 0xa
 8481 18d7 9F230000 		.4byte	.LASF344
 8482 18db 19       		.byte	0x19
 8483 18dc B301     		.2byte	0x1b3
 8484 18de 521A0000 		.4byte	0x1a52
 8485 18e2 10       		.byte	0x10
 8486 18e3 0A       		.uleb128 0xa
 8487 18e4 15090000 		.4byte	.LASF345
 8488 18e8 19       		.byte	0x19
 8489 18e9 B801     		.2byte	0x1b8
 8490 18eb E8020000 		.4byte	0x2e8
 8491 18ef 14       		.byte	0x14
 8492 18f0 0A       		.uleb128 0xa
 8493 18f1 2B0F0000 		.4byte	.LASF346
 8494 18f5 19       		.byte	0x19
 8495 18f6 BE01     		.2byte	0x1be
 8496 18f8 5F120000 		.4byte	0x125f
 8497 18fc 18       		.byte	0x18
 8498 18fd 09       		.uleb128 0x9
 8499 18fe 61646300 		.ascii	"adc\000"
 8500 1902 19       		.byte	0x19
 8501 1903 C701     		.2byte	0x1c7
 8502 1905 581A0000 		.4byte	0x1a58
 8503 1909 2C       		.byte	0x2c
 8504 190a 0A       		.uleb128 0xa
 8505 190b EE0C0000 		.4byte	.LASF347
 8506 190f 19       		.byte	0x19
 8507 1910 CB01     		.2byte	0x1cb
 8508 1912 5E1A0000 		.4byte	0x1a5e
 8509 1916 30       		.byte	0x30
 8510 1917 0A       		.uleb128 0xa
 8511 1918 131B0000 		.4byte	.LASF348
 8512 191c 19       		.byte	0x19
 8513 191d CF01     		.2byte	0x1cf
 8514 191f F9000000 		.4byte	0xf9
 8515 1923 34       		.byte	0x34
 8516 1924 00       		.byte	0
 8517 1925 1A       		.uleb128 0x1a
 8518 1926 E11E0000 		.4byte	.LASF349
 8519 192a 19       		.byte	0x19
 8520 192b 4501     		.2byte	0x145
 8521 192d 31190000 		.4byte	0x1931
 8522 1931 0B       		.uleb128 0xb
 8523 1932 04       		.byte	0x4
 8524 1933 37190000 		.4byte	0x1937
 8525 1937 0D       		.uleb128 0xd
ARM GAS  C:\Users\mathi\AppData\Local\Temp\cc0ZaFXf.s 			page 156


 8526 1938 4C190000 		.4byte	0x194c
 8527 193c 0E       		.uleb128 0xe
 8528 193d 4C190000 		.4byte	0x194c
 8529 1941 0E       		.uleb128 0xe
 8530 1942 52190000 		.4byte	0x1952
 8531 1946 0E       		.uleb128 0xe
 8532 1947 19010000 		.4byte	0x119
 8533 194b 00       		.byte	0
 8534 194c 0B       		.uleb128 0xb
 8535 194d 04       		.byte	0x4
 8536 194e 89180000 		.4byte	0x1889
 8537 1952 0B       		.uleb128 0xb
 8538 1953 04       		.byte	0x4
 8539 1954 4A180000 		.4byte	0x184a
 8540 1958 1A       		.uleb128 0x1a
 8541 1959 BD180000 		.4byte	.LASF350
 8542 195d 19       		.byte	0x19
 8543 195e 4E01     		.2byte	0x14e
 8544 1960 64190000 		.4byte	0x1964
 8545 1964 0B       		.uleb128 0xb
 8546 1965 04       		.byte	0x4
 8547 1966 6A190000 		.4byte	0x196a
 8548 196a 0D       		.uleb128 0xd
 8549 196b 7A190000 		.4byte	0x197a
 8550 196f 0E       		.uleb128 0xe
 8551 1970 4C190000 		.4byte	0x194c
 8552 1974 0E       		.uleb128 0xe
 8553 1975 7D180000 		.4byte	0x187d
 8554 1979 00       		.byte	0
 8555 197a 19       		.uleb128 0x19
 8556 197b 28       		.byte	0x28
 8557 197c 19       		.byte	0x19
 8558 197d 5801     		.2byte	0x158
 8559 197f 131A0000 		.4byte	0x1a13
 8560 1983 0A       		.uleb128 0xa
 8561 1984 06260000 		.4byte	.LASF351
 8562 1988 19       		.byte	0x19
 8563 1989 5C01     		.2byte	0x15c
 8564 198b A4150000 		.4byte	0x15a4
 8565 198f 00       		.byte	0
 8566 1990 0A       		.uleb128 0xa
 8567 1991 BE120000 		.4byte	.LASF352
 8568 1995 19       		.byte	0x19
 8569 1996 6001     		.2byte	0x160
 8570 1998 56180000 		.4byte	0x1856
 8571 199c 02       		.byte	0x2
 8572 199d 0A       		.uleb128 0xa
 8573 199e 840B0000 		.4byte	.LASF353
 8574 19a2 19       		.byte	0x19
 8575 19a3 6401     		.2byte	0x164
 8576 19a5 25190000 		.4byte	0x1925
 8577 19a9 04       		.byte	0x4
 8578 19aa 0A       		.uleb128 0xa
 8579 19ab DD270000 		.4byte	.LASF354
 8580 19af 19       		.byte	0x19
 8581 19b0 6801     		.2byte	0x168
 8582 19b2 58190000 		.4byte	0x1958
ARM GAS  C:\Users\mathi\AppData\Local\Temp\cc0ZaFXf.s 			page 157


 8583 19b6 08       		.byte	0x8
 8584 19b7 09       		.uleb128 0x9
 8585 19b8 63723100 		.ascii	"cr1\000"
 8586 19bc 19       		.byte	0x19
 8587 19bd 6F01     		.2byte	0x16f
 8588 19bf F9000000 		.4byte	0xf9
 8589 19c3 0C       		.byte	0xc
 8590 19c4 09       		.uleb128 0x9
 8591 19c5 63723200 		.ascii	"cr2\000"
 8592 19c9 19       		.byte	0x19
 8593 19ca 7601     		.2byte	0x176
 8594 19cc F9000000 		.4byte	0xf9
 8595 19d0 10       		.byte	0x10
 8596 19d1 0A       		.uleb128 0xa
 8597 19d2 1C1A0000 		.4byte	.LASF355
 8598 19d6 19       		.byte	0x19
 8599 19d7 7C01     		.2byte	0x17c
 8600 19d9 F9000000 		.4byte	0xf9
 8601 19dd 14       		.byte	0x14
 8602 19de 0A       		.uleb128 0xa
 8603 19df 221A0000 		.4byte	.LASF356
 8604 19e3 19       		.byte	0x19
 8605 19e4 8201     		.2byte	0x182
 8606 19e6 F9000000 		.4byte	0xf9
 8607 19ea 18       		.byte	0x18
 8608 19eb 0A       		.uleb128 0xa
 8609 19ec BF010000 		.4byte	.LASF357
 8610 19f0 19       		.byte	0x19
 8611 19f1 8701     		.2byte	0x187
 8612 19f3 F9000000 		.4byte	0xf9
 8613 19f7 1C       		.byte	0x1c
 8614 19f8 0A       		.uleb128 0xa
 8615 19f9 E1280000 		.4byte	.LASF358
 8616 19fd 19       		.byte	0x19
 8617 19fe 8C01     		.2byte	0x18c
 8618 1a00 F9000000 		.4byte	0xf9
 8619 1a04 20       		.byte	0x20
 8620 1a05 0A       		.uleb128 0xa
 8621 1a06 E6280000 		.4byte	.LASF359
 8622 1a0a 19       		.byte	0x19
 8623 1a0b 9101     		.2byte	0x191
 8624 1a0d F9000000 		.4byte	0xf9
 8625 1a11 24       		.byte	0x24
 8626 1a12 00       		.byte	0
 8627 1a13 1A       		.uleb128 0x1a
 8628 1a14 A5070000 		.4byte	.LASF360
 8629 1a18 19       		.byte	0x19
 8630 1a19 9201     		.2byte	0x192
 8631 1a1b 7A190000 		.4byte	0x197a
 8632 1a1f 05       		.uleb128 0x5
 8633 1a20 131A0000 		.4byte	0x1a13
 8634 1a24 19       		.uleb128 0x19
 8635 1a25 04       		.byte	0x4
 8636 1a26 19       		.byte	0x19
 8637 1a27 9801     		.2byte	0x198
 8638 1a29 3B1A0000 		.4byte	0x1a3b
 8639 1a2d 0A       		.uleb128 0xa
ARM GAS  C:\Users\mathi\AppData\Local\Temp\cc0ZaFXf.s 			page 158


 8640 1a2e 18290000 		.4byte	.LASF361
 8641 1a32 19       		.byte	0x19
 8642 1a33 9901     		.2byte	0x199
 8643 1a35 F9000000 		.4byte	0xf9
 8644 1a39 00       		.byte	0
 8645 1a3a 00       		.byte	0
 8646 1a3b 1A       		.uleb128 0x1a
 8647 1a3c B0110000 		.4byte	.LASF362
 8648 1a40 19       		.byte	0x19
 8649 1a41 9A01     		.2byte	0x19a
 8650 1a43 241A0000 		.4byte	0x1a24
 8651 1a47 05       		.uleb128 0x5
 8652 1a48 3B1A0000 		.4byte	0x1a3b
 8653 1a4c 0B       		.uleb128 0xb
 8654 1a4d 04       		.byte	0x4
 8655 1a4e 471A0000 		.4byte	0x1a47
 8656 1a52 0B       		.uleb128 0xb
 8657 1a53 04       		.byte	0x4
 8658 1a54 1F1A0000 		.4byte	0x1a1f
 8659 1a58 0B       		.uleb128 0xb
 8660 1a59 04       		.byte	0x4
 8661 1a5a 6D060000 		.4byte	0x66d
 8662 1a5e 0B       		.uleb128 0xb
 8663 1a5f 04       		.byte	0x4
 8664 1a60 73140000 		.4byte	0x1473
 8665 1a64 15       		.uleb128 0x15
 8666 1a65 FC1A0000 		.4byte	.LASF363
 8667 1a69 19       		.byte	0x19
 8668 1a6a 1402     		.2byte	0x214
 8669 1a6c 89180000 		.4byte	0x1889
 8670 1a70 15       		.uleb128 0x15
 8671 1a71 021B0000 		.4byte	.LASF364
 8672 1a75 19       		.byte	0x19
 8673 1a76 1802     		.2byte	0x218
 8674 1a78 89180000 		.4byte	0x1889
 8675 1a7c 15       		.uleb128 0x15
 8676 1a7d 081B0000 		.4byte	.LASF365
 8677 1a81 19       		.byte	0x19
 8678 1a82 1C02     		.2byte	0x21c
 8679 1a84 89180000 		.4byte	0x1889
 8680 1a88 21       		.uleb128 0x21
 8681 1a89 07       		.byte	0x7
 8682 1a8a 01       		.byte	0x1
 8683 1a8b 42000000 		.4byte	0x42
 8684 1a8f 1A       		.byte	0x1a
 8685 1a90 5F       		.byte	0x5f
 8686 1a91 B41A0000 		.4byte	0x1ab4
 8687 1a95 22       		.uleb128 0x22
 8688 1a96 550C0000 		.4byte	.LASF366
 8689 1a9a 00       		.byte	0
 8690 1a9b 22       		.uleb128 0x22
 8691 1a9c 0A010000 		.4byte	.LASF367
 8692 1aa0 01       		.byte	0x1
 8693 1aa1 22       		.uleb128 0x22
 8694 1aa2 67000000 		.4byte	.LASF368
 8695 1aa6 02       		.byte	0x2
 8696 1aa7 22       		.uleb128 0x22
ARM GAS  C:\Users\mathi\AppData\Local\Temp\cc0ZaFXf.s 			page 159


 8697 1aa8 DB070000 		.4byte	.LASF369
 8698 1aac 03       		.byte	0x3
 8699 1aad 22       		.uleb128 0x22
 8700 1aae 420C0000 		.4byte	.LASF370
 8701 1ab2 04       		.byte	0x4
 8702 1ab3 00       		.byte	0
 8703 1ab4 02       		.uleb128 0x2
 8704 1ab5 0A080000 		.4byte	.LASF371
 8705 1ab9 1A       		.byte	0x1a
 8706 1aba 65       		.byte	0x65
 8707 1abb 881A0000 		.4byte	0x1a88
 8708 1abf 13       		.uleb128 0x13
 8709 1ac0 C3000000 		.4byte	0xc3
 8710 1ac4 CF1A0000 		.4byte	0x1acf
 8711 1ac8 14       		.uleb128 0x14
 8712 1ac9 B1000000 		.4byte	0xb1
 8713 1acd 07       		.byte	0x7
 8714 1ace 00       		.byte	0
 8715 1acf 17       		.uleb128 0x17
 8716 1ad0 08       		.byte	0x8
 8717 1ad1 1B       		.byte	0x1b
 8718 1ad2 F4       		.byte	0xf4
 8719 1ad3 F11A0000 		.4byte	0x1af1
 8720 1ad7 18       		.uleb128 0x18
 8721 1ad8 6D637200 		.ascii	"mcr\000"
 8722 1adc 1B       		.byte	0x1b
 8723 1add FA       		.byte	0xfa
 8724 1ade F9000000 		.4byte	0xf9
 8725 1ae2 00       		.byte	0
 8726 1ae3 09       		.uleb128 0x9
 8727 1ae4 62747200 		.ascii	"btr\000"
 8728 1ae8 1B       		.byte	0x1b
 8729 1ae9 0001     		.2byte	0x100
 8730 1aeb F9000000 		.4byte	0xf9
 8731 1aef 04       		.byte	0x4
 8732 1af0 00       		.byte	0
 8733 1af1 1A       		.uleb128 0x1a
 8734 1af2 E31C0000 		.4byte	.LASF372
 8735 1af6 1B       		.byte	0x1b
 8736 1af7 0101     		.2byte	0x101
 8737 1af9 CF1A0000 		.4byte	0x1acf
 8738 1afd 05       		.uleb128 0x5
 8739 1afe F11A0000 		.4byte	0x1af1
 8740 1b02 19       		.uleb128 0x19
 8741 1b03 30       		.byte	0x30
 8742 1b04 1B       		.byte	0x1b
 8743 1b05 0601     		.2byte	0x106
 8744 1b07 8E1B0000 		.4byte	0x1b8e
 8745 1b0b 0A       		.uleb128 0xa
 8746 1b0c E2180000 		.4byte	.LASF340
 8747 1b10 1B       		.byte	0x1b
 8748 1b11 0A01     		.2byte	0x10a
 8749 1b13 B41A0000 		.4byte	0x1ab4
 8750 1b17 00       		.byte	0
 8751 1b18 0A       		.uleb128 0xa
 8752 1b19 B91F0000 		.4byte	.LASF341
 8753 1b1d 1B       		.byte	0x1b
ARM GAS  C:\Users\mathi\AppData\Local\Temp\cc0ZaFXf.s 			page 160


 8754 1b1e 0E01     		.2byte	0x10e
 8755 1b20 8E1B0000 		.4byte	0x1b8e
 8756 1b24 04       		.byte	0x4
 8757 1b25 0A       		.uleb128 0xa
 8758 1b26 B90B0000 		.4byte	.LASF373
 8759 1b2a 1B       		.byte	0x1b
 8760 1b2b 1201     		.2byte	0x112
 8761 1b2d 1D030000 		.4byte	0x31d
 8762 1b31 08       		.byte	0x8
 8763 1b32 0A       		.uleb128 0xa
 8764 1b33 60230000 		.4byte	.LASF374
 8765 1b37 1B       		.byte	0x1b
 8766 1b38 1601     		.2byte	0x116
 8767 1b3a 1D030000 		.4byte	0x31d
 8768 1b3e 10       		.byte	0x10
 8769 1b3f 0A       		.uleb128 0xa
 8770 1b40 A81C0000 		.4byte	.LASF375
 8771 1b44 1B       		.byte	0x1b
 8772 1b45 2301     		.2byte	0x123
 8773 1b47 E3120000 		.4byte	0x12e3
 8774 1b4b 18       		.byte	0x18
 8775 1b4c 0A       		.uleb128 0xa
 8776 1b4d 180E0000 		.4byte	.LASF376
 8777 1b51 1B       		.byte	0x1b
 8778 1b52 2A01     		.2byte	0x12a
 8779 1b54 E3120000 		.4byte	0x12e3
 8780 1b58 1C       		.byte	0x1c
 8781 1b59 0A       		.uleb128 0xa
 8782 1b5a B2120000 		.4byte	.LASF377
 8783 1b5e 1B       		.byte	0x1b
 8784 1b5f 3001     		.2byte	0x130
 8785 1b61 E3120000 		.4byte	0x12e3
 8786 1b65 20       		.byte	0x20
 8787 1b66 0A       		.uleb128 0xa
 8788 1b67 70050000 		.4byte	.LASF378
 8789 1b6b 1B       		.byte	0x1b
 8790 1b6c 3501     		.2byte	0x135
 8791 1b6e E3120000 		.4byte	0x12e3
 8792 1b72 24       		.byte	0x24
 8793 1b73 0A       		.uleb128 0xa
 8794 1b74 650B0000 		.4byte	.LASF379
 8795 1b78 1B       		.byte	0x1b
 8796 1b79 3901     		.2byte	0x139
 8797 1b7b E3120000 		.4byte	0x12e3
 8798 1b7f 28       		.byte	0x28
 8799 1b80 09       		.uleb128 0x9
 8800 1b81 63616E00 		.ascii	"can\000"
 8801 1b85 1B       		.byte	0x1b
 8802 1b86 3F01     		.2byte	0x13f
 8803 1b88 941B0000 		.4byte	0x1b94
 8804 1b8c 2C       		.byte	0x2c
 8805 1b8d 00       		.byte	0
 8806 1b8e 0B       		.uleb128 0xb
 8807 1b8f 04       		.byte	0x4
 8808 1b90 FD1A0000 		.4byte	0x1afd
 8809 1b94 0B       		.uleb128 0xb
 8810 1b95 04       		.byte	0x4
ARM GAS  C:\Users\mathi\AppData\Local\Temp\cc0ZaFXf.s 			page 161


 8811 1b96 B6080000 		.4byte	0x8b6
 8812 1b9a 1A       		.uleb128 0x1a
 8813 1b9b D6050000 		.4byte	.LASF380
 8814 1b9f 1B       		.byte	0x1b
 8815 1ba0 4001     		.2byte	0x140
 8816 1ba2 021B0000 		.4byte	0x1b02
 8817 1ba6 15       		.uleb128 0x15
 8818 1ba7 08250000 		.4byte	.LASF381
 8819 1bab 1B       		.byte	0x1b
 8820 1bac 4B01     		.2byte	0x14b
 8821 1bae 9A1B0000 		.4byte	0x1b9a
 8822 1bb2 21       		.uleb128 0x21
 8823 1bb3 07       		.byte	0x7
 8824 1bb4 01       		.byte	0x1
 8825 1bb5 42000000 		.4byte	0x42
 8826 1bb9 1C       		.byte	0x1c
 8827 1bba 46       		.byte	0x46
 8828 1bbb E41B0000 		.4byte	0x1be4
 8829 1bbf 22       		.uleb128 0x22
 8830 1bc0 19200000 		.4byte	.LASF382
 8831 1bc4 00       		.byte	0
 8832 1bc5 22       		.uleb128 0x22
 8833 1bc6 33260000 		.4byte	.LASF383
 8834 1bca 01       		.byte	0x1
 8835 1bcb 22       		.uleb128 0x22
 8836 1bcc 21110000 		.4byte	.LASF384
 8837 1bd0 02       		.byte	0x2
 8838 1bd1 22       		.uleb128 0x22
 8839 1bd2 D0180000 		.4byte	.LASF385
 8840 1bd6 03       		.byte	0x3
 8841 1bd7 22       		.uleb128 0x22
 8842 1bd8 881F0000 		.4byte	.LASF386
 8843 1bdc 04       		.byte	0x4
 8844 1bdd 22       		.uleb128 0x22
 8845 1bde F9110000 		.4byte	.LASF387
 8846 1be2 05       		.byte	0x5
 8847 1be3 00       		.byte	0
 8848 1be4 02       		.uleb128 0x2
 8849 1be5 541C0000 		.4byte	.LASF388
 8850 1be9 1C       		.byte	0x1c
 8851 1bea 4D       		.byte	0x4d
 8852 1beb B21B0000 		.4byte	0x1bb2
 8853 1bef 17       		.uleb128 0x17
 8854 1bf0 1C       		.byte	0x1c
 8855 1bf1 1D       		.byte	0x1d
 8856 1bf2 F9       		.byte	0xf9
 8857 1bf3 521C0000 		.4byte	0x1c52
 8858 1bf7 18       		.uleb128 0x18
 8859 1bf8 64616300 		.ascii	"dac\000"
 8860 1bfc 1D       		.byte	0x1d
 8861 1bfd FD       		.byte	0xfd
 8862 1bfe 521C0000 		.4byte	0x1c52
 8863 1c02 00       		.byte	0
 8864 1c03 0A       		.uleb128 0xa
 8865 1c04 A51B0000 		.4byte	.LASF389
 8866 1c08 1D       		.byte	0x1d
 8867 1c09 0101     		.2byte	0x101
ARM GAS  C:\Users\mathi\AppData\Local\Temp\cc0ZaFXf.s 			page 162


 8868 1c0b F9000000 		.4byte	0xf9
 8869 1c0f 04       		.byte	0x4
 8870 1c10 0A       		.uleb128 0xa
 8871 1c11 1C090000 		.4byte	.LASF390
 8872 1c15 1D       		.byte	0x1d
 8873 1c16 0501     		.2byte	0x105
 8874 1c18 F9000000 		.4byte	0xf9
 8875 1c1c 08       		.byte	0x8
 8876 1c1d 0A       		.uleb128 0xa
 8877 1c1e AA030000 		.4byte	.LASF391
 8878 1c22 1D       		.byte	0x1d
 8879 1c23 0901     		.2byte	0x109
 8880 1c25 F9000000 		.4byte	0xf9
 8881 1c29 0C       		.byte	0xc
 8882 1c2a 09       		.uleb128 0x9
 8883 1c2b 646D6100 		.ascii	"dma\000"
 8884 1c2f 1D       		.byte	0x1d
 8885 1c30 0D01     		.2byte	0x10d
 8886 1c32 5E1A0000 		.4byte	0x1a5e
 8887 1c36 10       		.byte	0x10
 8888 1c37 0A       		.uleb128 0xa
 8889 1c38 131B0000 		.4byte	.LASF348
 8890 1c3c 1D       		.byte	0x1d
 8891 1c3d 1101     		.2byte	0x111
 8892 1c3f F9000000 		.4byte	0xf9
 8893 1c43 14       		.byte	0x14
 8894 1c44 0A       		.uleb128 0xa
 8895 1c45 9C1A0000 		.4byte	.LASF392
 8896 1c49 1D       		.byte	0x1d
 8897 1c4a 1501     		.2byte	0x115
 8898 1c4c F9000000 		.4byte	0xf9
 8899 1c50 18       		.byte	0x18
 8900 1c51 00       		.byte	0
 8901 1c52 0B       		.uleb128 0xb
 8902 1c53 04       		.byte	0x4
 8903 1c54 80090000 		.4byte	0x980
 8904 1c58 1A       		.uleb128 0x1a
 8905 1c59 08050000 		.4byte	.LASF393
 8906 1c5d 1D       		.byte	0x1d
 8907 1c5e 1601     		.2byte	0x116
 8908 1c60 EF1B0000 		.4byte	0x1bef
 8909 1c64 05       		.uleb128 0x5
 8910 1c65 581C0000 		.4byte	0x1c58
 8911 1c69 1A       		.uleb128 0x1a
 8912 1c6a 420F0000 		.4byte	.LASF394
 8913 1c6e 1D       		.byte	0x1d
 8914 1c6f 1B01     		.2byte	0x11b
 8915 1c71 751C0000 		.4byte	0x1c75
 8916 1c75 0C       		.uleb128 0xc
 8917 1c76 420F0000 		.4byte	.LASF394
 8918 1c7a 30       		.byte	0x30
 8919 1c7b 1D       		.byte	0x1d
 8920 1c7c 7B01     		.2byte	0x17b
 8921 1c7e EB1C0000 		.4byte	0x1ceb
 8922 1c82 0A       		.uleb128 0xa
 8923 1c83 E2180000 		.4byte	.LASF340
 8924 1c87 1D       		.byte	0x1d
ARM GAS  C:\Users\mathi\AppData\Local\Temp\cc0ZaFXf.s 			page 163


 8925 1c88 7F01     		.2byte	0x17f
 8926 1c8a E41B0000 		.4byte	0x1be4
 8927 1c8e 00       		.byte	0
 8928 1c8f 0A       		.uleb128 0xa
 8929 1c90 9F230000 		.4byte	.LASF344
 8930 1c94 1D       		.byte	0x1d
 8931 1c95 8301     		.2byte	0x183
 8932 1c97 291E0000 		.4byte	0x1e29
 8933 1c9b 04       		.byte	0x4
 8934 1c9c 0A       		.uleb128 0xa
 8935 1c9d 82030000 		.4byte	.LASF342
 8936 1ca1 1D       		.byte	0x1d
 8937 1ca2 8701     		.2byte	0x187
 8938 1ca4 501D0000 		.4byte	0x1d50
 8939 1ca8 08       		.byte	0x8
 8940 1ca9 0A       		.uleb128 0xa
 8941 1caa 011C0000 		.4byte	.LASF343
 8942 1cae 1D       		.byte	0x1d
 8943 1caf 8B01     		.2byte	0x18b
 8944 1cb1 DE000000 		.4byte	0xde
 8945 1cb5 0C       		.byte	0xc
 8946 1cb6 0A       		.uleb128 0xa
 8947 1cb7 B91F0000 		.4byte	.LASF341
 8948 1cbb 1D       		.byte	0x1d
 8949 1cbc 8F01     		.2byte	0x18f
 8950 1cbe 2F1E0000 		.4byte	0x1e2f
 8951 1cc2 10       		.byte	0x10
 8952 1cc3 0A       		.uleb128 0xa
 8953 1cc4 15090000 		.4byte	.LASF345
 8954 1cc8 1D       		.byte	0x1d
 8955 1cc9 9401     		.2byte	0x194
 8956 1ccb E8020000 		.4byte	0x2e8
 8957 1ccf 14       		.byte	0x14
 8958 1cd0 0A       		.uleb128 0xa
 8959 1cd1 2B0F0000 		.4byte	.LASF346
 8960 1cd5 1D       		.byte	0x1d
 8961 1cd6 9A01     		.2byte	0x19a
 8962 1cd8 5F120000 		.4byte	0x125f
 8963 1cdc 18       		.byte	0x18
 8964 1cdd 0A       		.uleb128 0xa
 8965 1cde 3D130000 		.4byte	.LASF395
 8966 1ce2 1D       		.byte	0x1d
 8967 1ce3 A301     		.2byte	0x1a3
 8968 1ce5 351E0000 		.4byte	0x1e35
 8969 1ce9 2C       		.byte	0x2c
 8970 1cea 00       		.byte	0
 8971 1ceb 1A       		.uleb128 0x1a
 8972 1cec 7A1C0000 		.4byte	.LASF396
 8973 1cf0 1D       		.byte	0x1d
 8974 1cf1 2001     		.2byte	0x120
 8975 1cf3 DE000000 		.4byte	0xde
 8976 1cf7 05       		.uleb128 0x5
 8977 1cf8 EB1C0000 		.4byte	0x1ceb
 8978 1cfc 24       		.uleb128 0x24
 8979 1cfd 07       		.byte	0x7
 8980 1cfe 01       		.byte	0x1
 8981 1cff 42000000 		.4byte	0x42
ARM GAS  C:\Users\mathi\AppData\Local\Temp\cc0ZaFXf.s 			page 164


 8982 1d03 1D       		.byte	0x1d
 8983 1d04 2701     		.2byte	0x127
 8984 1d06 171D0000 		.4byte	0x1d17
 8985 1d0a 22       		.uleb128 0x22
 8986 1d0b 641D0000 		.4byte	.LASF397
 8987 1d0f 00       		.byte	0
 8988 1d10 22       		.uleb128 0x22
 8989 1d11 530B0000 		.4byte	.LASF398
 8990 1d15 01       		.byte	0x1
 8991 1d16 00       		.byte	0
 8992 1d17 1A       		.uleb128 0x1a
 8993 1d18 BC130000 		.4byte	.LASF399
 8994 1d1c 1D       		.byte	0x1d
 8995 1d1d 2A01     		.2byte	0x12a
 8996 1d1f FC1C0000 		.4byte	0x1cfc
 8997 1d23 1A       		.uleb128 0x1a
 8998 1d24 96090000 		.4byte	.LASF400
 8999 1d28 1D       		.byte	0x1d
 9000 1d29 3401     		.2byte	0x134
 9001 1d2b 2F1D0000 		.4byte	0x1d2f
 9002 1d2f 0B       		.uleb128 0xb
 9003 1d30 04       		.byte	0x4
 9004 1d31 351D0000 		.4byte	0x1d35
 9005 1d35 0D       		.uleb128 0xd
 9006 1d36 4A1D0000 		.4byte	0x1d4a
 9007 1d3a 0E       		.uleb128 0xe
 9008 1d3b 4A1D0000 		.4byte	0x1d4a
 9009 1d3f 0E       		.uleb128 0xe
 9010 1d40 501D0000 		.4byte	0x1d50
 9011 1d44 0E       		.uleb128 0xe
 9012 1d45 19010000 		.4byte	0x119
 9013 1d49 00       		.byte	0
 9014 1d4a 0B       		.uleb128 0xb
 9015 1d4b 04       		.byte	0x4
 9016 1d4c 691C0000 		.4byte	0x1c69
 9017 1d50 0B       		.uleb128 0xb
 9018 1d51 04       		.byte	0x4
 9019 1d52 F71C0000 		.4byte	0x1cf7
 9020 1d56 1A       		.uleb128 0x1a
 9021 1d57 55250000 		.4byte	.LASF401
 9022 1d5b 1D       		.byte	0x1d
 9023 1d5c 3F01     		.2byte	0x13f
 9024 1d5e 621D0000 		.4byte	0x1d62
 9025 1d62 0B       		.uleb128 0xb
 9026 1d63 04       		.byte	0x4
 9027 1d64 681D0000 		.4byte	0x1d68
 9028 1d68 0D       		.uleb128 0xd
 9029 1d69 781D0000 		.4byte	0x1d78
 9030 1d6d 0E       		.uleb128 0xe
 9031 1d6e 4A1D0000 		.4byte	0x1d4a
 9032 1d72 0E       		.uleb128 0xe
 9033 1d73 171D0000 		.4byte	0x1d17
 9034 1d77 00       		.byte	0
 9035 1d78 24       		.uleb128 0x24
 9036 1d79 07       		.byte	0x7
 9037 1d7a 01       		.byte	0x1
 9038 1d7b 42000000 		.4byte	0x42
ARM GAS  C:\Users\mathi\AppData\Local\Temp\cc0ZaFXf.s 			page 165


 9039 1d7f 1D       		.byte	0x1d
 9040 1d80 4401     		.2byte	0x144
 9041 1d82 991D0000 		.4byte	0x1d99
 9042 1d86 22       		.uleb128 0x22
 9043 1d87 73200000 		.4byte	.LASF402
 9044 1d8b 00       		.byte	0
 9045 1d8c 22       		.uleb128 0x22
 9046 1d8d 62150000 		.4byte	.LASF403
 9047 1d91 01       		.byte	0x1
 9048 1d92 22       		.uleb128 0x22
 9049 1d93 A3190000 		.4byte	.LASF404
 9050 1d97 02       		.byte	0x2
 9051 1d98 00       		.byte	0
 9052 1d99 1A       		.uleb128 0x1a
 9053 1d9a E10C0000 		.4byte	.LASF405
 9054 1d9e 1D       		.byte	0x1d
 9055 1d9f 4D01     		.2byte	0x14d
 9056 1da1 781D0000 		.4byte	0x1d78
 9057 1da5 19       		.uleb128 0x19
 9058 1da6 10       		.byte	0x10
 9059 1da7 1D       		.byte	0x1d
 9060 1da8 5201     		.2byte	0x152
 9061 1daa E31D0000 		.4byte	0x1de3
 9062 1dae 0A       		.uleb128 0xa
 9063 1daf BE120000 		.4byte	.LASF352
 9064 1db3 1D       		.byte	0x1d
 9065 1db4 5601     		.2byte	0x156
 9066 1db6 F9000000 		.4byte	0xf9
 9067 1dba 00       		.byte	0
 9068 1dbb 0A       		.uleb128 0xa
 9069 1dbc 840B0000 		.4byte	.LASF353
 9070 1dc0 1D       		.byte	0x1d
 9071 1dc1 5A01     		.2byte	0x15a
 9072 1dc3 231D0000 		.4byte	0x1d23
 9073 1dc7 04       		.byte	0x4
 9074 1dc8 0A       		.uleb128 0xa
 9075 1dc9 DD270000 		.4byte	.LASF354
 9076 1dcd 1D       		.byte	0x1d
 9077 1dce 5E01     		.2byte	0x15e
 9078 1dd0 561D0000 		.4byte	0x1d56
 9079 1dd4 08       		.byte	0x8
 9080 1dd5 0A       		.uleb128 0xa
 9081 1dd6 4F170000 		.4byte	.LASF406
 9082 1dda 1D       		.byte	0x1d
 9083 1ddb 6601     		.2byte	0x166
 9084 1ddd F9000000 		.4byte	0xf9
 9085 1de1 0C       		.byte	0xc
 9086 1de2 00       		.byte	0
 9087 1de3 1A       		.uleb128 0x1a
 9088 1de4 79140000 		.4byte	.LASF407
 9089 1de8 1D       		.byte	0x1d
 9090 1de9 6701     		.2byte	0x167
 9091 1deb A51D0000 		.4byte	0x1da5
 9092 1def 05       		.uleb128 0x5
 9093 1df0 E31D0000 		.4byte	0x1de3
 9094 1df4 19       		.uleb128 0x19
 9095 1df5 04       		.byte	0x4
ARM GAS  C:\Users\mathi\AppData\Local\Temp\cc0ZaFXf.s 			page 166


 9096 1df6 1D       		.byte	0x1d
 9097 1df7 6C01     		.2byte	0x16c
 9098 1df9 181E0000 		.4byte	0x1e18
 9099 1dfd 0A       		.uleb128 0xa
 9100 1dfe 330D0000 		.4byte	.LASF408
 9101 1e02 1D       		.byte	0x1d
 9102 1e03 7101     		.2byte	0x171
 9103 1e05 EB1C0000 		.4byte	0x1ceb
 9104 1e09 00       		.byte	0
 9105 1e0a 0A       		.uleb128 0xa
 9106 1e0b 51010000 		.4byte	.LASF409
 9107 1e0f 1D       		.byte	0x1d
 9108 1e10 7501     		.2byte	0x175
 9109 1e12 991D0000 		.4byte	0x1d99
 9110 1e16 02       		.byte	0x2
 9111 1e17 00       		.byte	0
 9112 1e18 1A       		.uleb128 0x1a
 9113 1e19 4C0F0000 		.4byte	.LASF410
 9114 1e1d 1D       		.byte	0x1d
 9115 1e1e 7601     		.2byte	0x176
 9116 1e20 F41D0000 		.4byte	0x1df4
 9117 1e24 05       		.uleb128 0x5
 9118 1e25 181E0000 		.4byte	0x1e18
 9119 1e29 0B       		.uleb128 0xb
 9120 1e2a 04       		.byte	0x4
 9121 1e2b EF1D0000 		.4byte	0x1def
 9122 1e2f 0B       		.uleb128 0xb
 9123 1e30 04       		.byte	0x4
 9124 1e31 241E0000 		.4byte	0x1e24
 9125 1e35 0B       		.uleb128 0xb
 9126 1e36 04       		.byte	0x4
 9127 1e37 641C0000 		.4byte	0x1c64
 9128 1e3b 15       		.uleb128 0x15
 9129 1e3c D0050000 		.4byte	.LASF411
 9130 1e40 1D       		.byte	0x1d
 9131 1e41 B301     		.2byte	0x1b3
 9132 1e43 691C0000 		.4byte	0x1c69
 9133 1e47 21       		.uleb128 0x21
 9134 1e48 07       		.byte	0x7
 9135 1e49 01       		.byte	0x1
 9136 1e4a 42000000 		.4byte	0x42
 9137 1e4e 1E       		.byte	0x1e
 9138 1e4f 3F       		.byte	0x3f
 9139 1e50 671E0000 		.4byte	0x1e67
 9140 1e54 22       		.uleb128 0x22
 9141 1e55 370C0000 		.4byte	.LASF412
 9142 1e59 00       		.byte	0
 9143 1e5a 22       		.uleb128 0x22
 9144 1e5b F6290000 		.4byte	.LASF413
 9145 1e5f 01       		.byte	0x1
 9146 1e60 22       		.uleb128 0x22
 9147 1e61 DB030000 		.4byte	.LASF414
 9148 1e65 02       		.byte	0x2
 9149 1e66 00       		.byte	0
 9150 1e67 02       		.uleb128 0x2
 9151 1e68 181F0000 		.4byte	.LASF415
 9152 1e6c 1E       		.byte	0x1e
ARM GAS  C:\Users\mathi\AppData\Local\Temp\cc0ZaFXf.s 			page 167


 9153 1e6d 43       		.byte	0x43
 9154 1e6e 471E0000 		.4byte	0x1e47
 9155 1e72 02       		.uleb128 0x2
 9156 1e73 C80A0000 		.4byte	.LASF416
 9157 1e77 1E       		.byte	0x1e
 9158 1e78 48       		.byte	0x48
 9159 1e79 7D1E0000 		.4byte	0x1e7d
 9160 1e7d 07       		.uleb128 0x7
 9161 1e7e C80A0000 		.4byte	.LASF416
 9162 1e82 08       		.byte	0x8
 9163 1e83 1F       		.byte	0x1f
 9164 1e84 71       		.byte	0x71
 9165 1e85 A21E0000 		.4byte	0x1ea2
 9166 1e89 08       		.uleb128 0x8
 9167 1e8a E2180000 		.4byte	.LASF340
 9168 1e8e 1F       		.byte	0x1f
 9169 1e8f 75       		.byte	0x75
 9170 1e90 671E0000 		.4byte	0x1e67
 9171 1e94 00       		.byte	0
 9172 1e95 08       		.uleb128 0x8
 9173 1e96 B91F0000 		.4byte	.LASF341
 9174 1e9a 1F       		.byte	0x1f
 9175 1e9b 79       		.byte	0x79
 9176 1e9c 341F0000 		.4byte	0x1f34
 9177 1ea0 04       		.byte	0x4
 9178 1ea1 00       		.byte	0
 9179 1ea2 02       		.uleb128 0x2
 9180 1ea3 26280000 		.4byte	.LASF417
 9181 1ea7 1F       		.byte	0x1f
 9182 1ea8 47       		.byte	0x47
 9183 1ea9 F9000000 		.4byte	0xf9
 9184 1ead 02       		.uleb128 0x2
 9185 1eae 52230000 		.4byte	.LASF418
 9186 1eb2 1F       		.byte	0x1f
 9187 1eb3 4F       		.byte	0x4f
 9188 1eb4 B81E0000 		.4byte	0x1eb8
 9189 1eb8 0B       		.uleb128 0xb
 9190 1eb9 04       		.byte	0x4
 9191 1eba BE1E0000 		.4byte	0x1ebe
 9192 1ebe 0D       		.uleb128 0xd
 9193 1ebf CE1E0000 		.4byte	0x1ece
 9194 1ec3 0E       		.uleb128 0xe
 9195 1ec4 CE1E0000 		.4byte	0x1ece
 9196 1ec8 0E       		.uleb128 0xe
 9197 1ec9 A21E0000 		.4byte	0x1ea2
 9198 1ecd 00       		.byte	0
 9199 1ece 0B       		.uleb128 0xb
 9200 1ecf 04       		.byte	0x4
 9201 1ed0 721E0000 		.4byte	0x1e72
 9202 1ed4 17       		.uleb128 0x17
 9203 1ed5 08       		.byte	0x8
 9204 1ed6 1F       		.byte	0x1f
 9205 1ed7 54       		.byte	0x54
 9206 1ed8 F41E0000 		.4byte	0x1ef4
 9207 1edc 08       		.uleb128 0x8
 9208 1edd AD0A0000 		.4byte	.LASF419
 9209 1ee1 1F       		.byte	0x1f
ARM GAS  C:\Users\mathi\AppData\Local\Temp\cc0ZaFXf.s 			page 168


 9210 1ee2 58       		.byte	0x58
 9211 1ee3 F9000000 		.4byte	0xf9
 9212 1ee7 00       		.byte	0
 9213 1ee8 18       		.uleb128 0x18
 9214 1ee9 636200   		.ascii	"cb\000"
 9215 1eec 1F       		.byte	0x1f
 9216 1eed 5F       		.byte	0x5f
 9217 1eee AD1E0000 		.4byte	0x1ead
 9218 1ef2 04       		.byte	0x4
 9219 1ef3 00       		.byte	0
 9220 1ef4 02       		.uleb128 0x2
 9221 1ef5 08110000 		.4byte	.LASF420
 9222 1ef9 1F       		.byte	0x1f
 9223 1efa 60       		.byte	0x60
 9224 1efb D41E0000 		.4byte	0x1ed4
 9225 1eff 17       		.uleb128 0x17
 9226 1f00 B8       		.byte	0xb8
 9227 1f01 1F       		.byte	0x1f
 9228 1f02 66       		.byte	0x66
 9229 1f03 141F0000 		.4byte	0x1f14
 9230 1f07 08       		.uleb128 0x8
 9231 1f08 7A250000 		.4byte	.LASF421
 9232 1f0c 1F       		.byte	0x1f
 9233 1f0d 6A       		.byte	0x6a
 9234 1f0e 141F0000 		.4byte	0x1f14
 9235 1f12 00       		.byte	0
 9236 1f13 00       		.byte	0
 9237 1f14 13       		.uleb128 0x13
 9238 1f15 F41E0000 		.4byte	0x1ef4
 9239 1f19 241F0000 		.4byte	0x1f24
 9240 1f1d 14       		.uleb128 0x14
 9241 1f1e B1000000 		.4byte	0xb1
 9242 1f22 16       		.byte	0x16
 9243 1f23 00       		.byte	0
 9244 1f24 02       		.uleb128 0x2
 9245 1f25 17220000 		.4byte	.LASF422
 9246 1f29 1F       		.byte	0x1f
 9247 1f2a 6C       		.byte	0x6c
 9248 1f2b FF1E0000 		.4byte	0x1eff
 9249 1f2f 05       		.uleb128 0x5
 9250 1f30 241F0000 		.4byte	0x1f24
 9251 1f34 0B       		.uleb128 0xb
 9252 1f35 04       		.byte	0x4
 9253 1f36 2F1F0000 		.4byte	0x1f2f
 9254 1f3a 16       		.uleb128 0x16
 9255 1f3b FB070000 		.4byte	.LASF423
 9256 1f3f 1F       		.byte	0x1f
 9257 1f40 86       		.byte	0x86
 9258 1f41 721E0000 		.4byte	0x1e72
 9259 1f45 21       		.uleb128 0x21
 9260 1f46 07       		.byte	0x7
 9261 1f47 01       		.byte	0x1
 9262 1f48 42000000 		.4byte	0x42
 9263 1f4c 20       		.byte	0x20
 9264 1f4d 31       		.byte	0x31
 9265 1f4e 711F0000 		.4byte	0x1f71
 9266 1f52 22       		.uleb128 0x22
ARM GAS  C:\Users\mathi\AppData\Local\Temp\cc0ZaFXf.s 			page 169


 9267 1f53 B7190000 		.4byte	.LASF424
 9268 1f57 00       		.byte	0
 9269 1f58 22       		.uleb128 0x22
 9270 1f59 77170000 		.4byte	.LASF425
 9271 1f5d 01       		.byte	0x1
 9272 1f5e 22       		.uleb128 0x22
 9273 1f5f 4A1C0000 		.4byte	.LASF426
 9274 1f63 02       		.byte	0x2
 9275 1f64 22       		.uleb128 0x22
 9276 1f65 E6090000 		.4byte	.LASF427
 9277 1f69 03       		.byte	0x3
 9278 1f6a 22       		.uleb128 0x22
 9279 1f6b 97060000 		.4byte	.LASF428
 9280 1f6f 04       		.byte	0x4
 9281 1f70 00       		.byte	0
 9282 1f71 02       		.uleb128 0x2
 9283 1f72 EC150000 		.4byte	.LASF429
 9284 1f76 20       		.byte	0x20
 9285 1f77 37       		.byte	0x37
 9286 1f78 451F0000 		.4byte	0x1f45
 9287 1f7c 02       		.uleb128 0x2
 9288 1f7d A71A0000 		.4byte	.LASF430
 9289 1f81 20       		.byte	0x20
 9290 1f82 3C       		.byte	0x3c
 9291 1f83 871F0000 		.4byte	0x1f87
 9292 1f87 0C       		.uleb128 0xc
 9293 1f88 A71A0000 		.4byte	.LASF430
 9294 1f8c 10       		.byte	0x10
 9295 1f8d 21       		.byte	0x21
 9296 1f8e 9701     		.2byte	0x197
 9297 1f90 C91F0000 		.4byte	0x1fc9
 9298 1f94 0A       		.uleb128 0xa
 9299 1f95 E2180000 		.4byte	.LASF340
 9300 1f99 21       		.byte	0x21
 9301 1f9a 9B01     		.2byte	0x19b
 9302 1f9c 711F0000 		.4byte	0x1f71
 9303 1fa0 00       		.byte	0
 9304 1fa1 0A       		.uleb128 0xa
 9305 1fa2 B91F0000 		.4byte	.LASF341
 9306 1fa6 21       		.byte	0x21
 9307 1fa7 9F01     		.2byte	0x19f
 9308 1fa9 5E210000 		.4byte	0x215e
 9309 1fad 04       		.byte	0x4
 9310 1fae 0A       		.uleb128 0xa
 9311 1faf 600F0000 		.4byte	.LASF431
 9312 1fb3 21       		.byte	0x21
 9313 1fb4 A701     		.2byte	0x1a7
 9314 1fb6 F9000000 		.4byte	0xf9
 9315 1fba 08       		.byte	0x8
 9316 1fbb 09       		.uleb128 0x9
 9317 1fbc 74696D00 		.ascii	"tim\000"
 9318 1fc0 21       		.byte	0x21
 9319 1fc1 AB01     		.2byte	0x1ab
 9320 1fc3 64210000 		.4byte	0x2164
 9321 1fc7 0C       		.byte	0xc
 9322 1fc8 00       		.byte	0
 9323 1fc9 02       		.uleb128 0x2
ARM GAS  C:\Users\mathi\AppData\Local\Temp\cc0ZaFXf.s 			page 170


 9324 1fca DE130000 		.4byte	.LASF432
 9325 1fce 20       		.byte	0x20
 9326 1fcf 43       		.byte	0x43
 9327 1fd0 D41F0000 		.4byte	0x1fd4
 9328 1fd4 0B       		.uleb128 0xb
 9329 1fd5 04       		.byte	0x4
 9330 1fd6 DA1F0000 		.4byte	0x1fda
 9331 1fda 0D       		.uleb128 0xd
 9332 1fdb E51F0000 		.4byte	0x1fe5
 9333 1fdf 0E       		.uleb128 0xe
 9334 1fe0 E51F0000 		.4byte	0x1fe5
 9335 1fe4 00       		.byte	0
 9336 1fe5 0B       		.uleb128 0xb
 9337 1fe6 04       		.byte	0x4
 9338 1fe7 7C1F0000 		.4byte	0x1f7c
 9339 1feb 19       		.uleb128 0x19
 9340 1fec 60       		.byte	0x60
 9341 1fed 22       		.byte	0x22
 9342 1fee 9E01     		.2byte	0x19e
 9343 1ff0 F7200000 		.4byte	0x20f7
 9344 1ff4 09       		.uleb128 0x9
 9345 1ff5 43523100 		.ascii	"CR1\000"
 9346 1ff9 22       		.byte	0x22
 9347 1ffa 9F01     		.2byte	0x19f
 9348 1ffc 04010000 		.4byte	0x104
 9349 2000 00       		.byte	0
 9350 2001 09       		.uleb128 0x9
 9351 2002 43523200 		.ascii	"CR2\000"
 9352 2006 22       		.byte	0x22
 9353 2007 A001     		.2byte	0x1a0
 9354 2009 04010000 		.4byte	0x104
 9355 200d 04       		.byte	0x4
 9356 200e 0A       		.uleb128 0xa
 9357 200f 9B240000 		.4byte	.LASF433
 9358 2013 22       		.byte	0x22
 9359 2014 A101     		.2byte	0x1a1
 9360 2016 04010000 		.4byte	0x104
 9361 201a 08       		.byte	0x8
 9362 201b 0A       		.uleb128 0xa
 9363 201c 830C0000 		.4byte	.LASF434
 9364 2020 22       		.byte	0x22
 9365 2021 A201     		.2byte	0x1a2
 9366 2023 04010000 		.4byte	0x104
 9367 2027 0C       		.byte	0xc
 9368 2028 09       		.uleb128 0x9
 9369 2029 535200   		.ascii	"SR\000"
 9370 202c 22       		.byte	0x22
 9371 202d A301     		.2byte	0x1a3
 9372 202f 04010000 		.4byte	0x104
 9373 2033 10       		.byte	0x10
 9374 2034 09       		.uleb128 0x9
 9375 2035 45475200 		.ascii	"EGR\000"
 9376 2039 22       		.byte	0x22
 9377 203a A401     		.2byte	0x1a4
 9378 203c 04010000 		.4byte	0x104
 9379 2040 14       		.byte	0x14
 9380 2041 0A       		.uleb128 0xa
ARM GAS  C:\Users\mathi\AppData\Local\Temp\cc0ZaFXf.s 			page 171


 9381 2042 C2280000 		.4byte	.LASF435
 9382 2046 22       		.byte	0x22
 9383 2047 A501     		.2byte	0x1a5
 9384 2049 04010000 		.4byte	0x104
 9385 204d 18       		.byte	0x18
 9386 204e 0A       		.uleb128 0xa
 9387 204f C8280000 		.4byte	.LASF436
 9388 2053 22       		.byte	0x22
 9389 2054 A601     		.2byte	0x1a6
 9390 2056 04010000 		.4byte	0x104
 9391 205a 1C       		.byte	0x1c
 9392 205b 0A       		.uleb128 0xa
 9393 205c 5F090000 		.4byte	.LASF437
 9394 2060 22       		.byte	0x22
 9395 2061 A701     		.2byte	0x1a7
 9396 2063 04010000 		.4byte	0x104
 9397 2067 20       		.byte	0x20
 9398 2068 09       		.uleb128 0x9
 9399 2069 434E5400 		.ascii	"CNT\000"
 9400 206d 22       		.byte	0x22
 9401 206e A801     		.2byte	0x1a8
 9402 2070 04010000 		.4byte	0x104
 9403 2074 24       		.byte	0x24
 9404 2075 09       		.uleb128 0x9
 9405 2076 50534300 		.ascii	"PSC\000"
 9406 207a 22       		.byte	0x22
 9407 207b A901     		.2byte	0x1a9
 9408 207d 04010000 		.4byte	0x104
 9409 2081 28       		.byte	0x28
 9410 2082 09       		.uleb128 0x9
 9411 2083 41525200 		.ascii	"ARR\000"
 9412 2087 22       		.byte	0x22
 9413 2088 AA01     		.2byte	0x1aa
 9414 208a 04010000 		.4byte	0x104
 9415 208e 2C       		.byte	0x2c
 9416 208f 09       		.uleb128 0x9
 9417 2090 52435200 		.ascii	"RCR\000"
 9418 2094 22       		.byte	0x22
 9419 2095 AB01     		.2byte	0x1ab
 9420 2097 04010000 		.4byte	0x104
 9421 209b 30       		.byte	0x30
 9422 209c 09       		.uleb128 0x9
 9423 209d 43435200 		.ascii	"CCR\000"
 9424 20a1 22       		.byte	0x22
 9425 20a2 AC01     		.2byte	0x1ac
 9426 20a4 B60A0000 		.4byte	0xab6
 9427 20a8 34       		.byte	0x34
 9428 20a9 0A       		.uleb128 0xa
 9429 20aa A5030000 		.4byte	.LASF438
 9430 20ae 22       		.byte	0x22
 9431 20af AD01     		.2byte	0x1ad
 9432 20b1 04010000 		.4byte	0x104
 9433 20b5 44       		.byte	0x44
 9434 20b6 09       		.uleb128 0x9
 9435 20b7 44435200 		.ascii	"DCR\000"
 9436 20bb 22       		.byte	0x22
 9437 20bc AE01     		.2byte	0x1ae
ARM GAS  C:\Users\mathi\AppData\Local\Temp\cc0ZaFXf.s 			page 172


 9438 20be 04010000 		.4byte	0x104
 9439 20c2 48       		.byte	0x48
 9440 20c3 0A       		.uleb128 0xa
 9441 20c4 5A190000 		.4byte	.LASF439
 9442 20c8 22       		.byte	0x22
 9443 20c9 AF01     		.2byte	0x1af
 9444 20cb 04010000 		.4byte	0x104
 9445 20cf 4C       		.byte	0x4c
 9446 20d0 09       		.uleb128 0x9
 9447 20d1 4F5200   		.ascii	"OR\000"
 9448 20d4 22       		.byte	0x22
 9449 20d5 B001     		.2byte	0x1b0
 9450 20d7 04010000 		.4byte	0x104
 9451 20db 50       		.byte	0x50
 9452 20dc 0A       		.uleb128 0xa
 9453 20dd CE280000 		.4byte	.LASF440
 9454 20e1 22       		.byte	0x22
 9455 20e2 B101     		.2byte	0x1b1
 9456 20e4 04010000 		.4byte	0x104
 9457 20e8 54       		.byte	0x54
 9458 20e9 0A       		.uleb128 0xa
 9459 20ea 6C0F0000 		.4byte	.LASF441
 9460 20ee 22       		.byte	0x22
 9461 20ef B201     		.2byte	0x1b2
 9462 20f1 A10A0000 		.4byte	0xaa1
 9463 20f5 58       		.byte	0x58
 9464 20f6 00       		.byte	0
 9465 20f7 1A       		.uleb128 0x1a
 9466 20f8 D5230000 		.4byte	.LASF442
 9467 20fc 22       		.byte	0x22
 9468 20fd B301     		.2byte	0x1b3
 9469 20ff EB1F0000 		.4byte	0x1feb
 9470 2103 1A       		.uleb128 0x1a
 9471 2104 050B0000 		.4byte	.LASF443
 9472 2108 21       		.byte	0x21
 9473 2109 6D01     		.2byte	0x16d
 9474 210b F9000000 		.4byte	0xf9
 9475 210f 19       		.uleb128 0x19
 9476 2110 10       		.byte	0x10
 9477 2111 21       		.byte	0x21
 9478 2112 7801     		.2byte	0x178
 9479 2114 4D210000 		.4byte	0x214d
 9480 2118 0A       		.uleb128 0xa
 9481 2119 53280000 		.4byte	.LASF444
 9482 211d 21       		.byte	0x21
 9483 211e 7E01     		.2byte	0x17e
 9484 2120 03210000 		.4byte	0x2103
 9485 2124 00       		.byte	0
 9486 2125 0A       		.uleb128 0xa
 9487 2126 5F190000 		.4byte	.LASF445
 9488 212a 21       		.byte	0x21
 9489 212b 8501     		.2byte	0x185
 9490 212d C91F0000 		.4byte	0x1fc9
 9491 2131 04       		.byte	0x4
 9492 2132 09       		.uleb128 0x9
 9493 2133 63723200 		.ascii	"cr2\000"
 9494 2137 21       		.byte	0x21
ARM GAS  C:\Users\mathi\AppData\Local\Temp\cc0ZaFXf.s 			page 173


 9495 2138 8B01     		.2byte	0x18b
 9496 213a F9000000 		.4byte	0xf9
 9497 213e 08       		.byte	0x8
 9498 213f 0A       		.uleb128 0xa
 9499 2140 BF0E0000 		.4byte	.LASF446
 9500 2144 21       		.byte	0x21
 9501 2145 9101     		.2byte	0x191
 9502 2147 F9000000 		.4byte	0xf9
 9503 214b 0C       		.byte	0xc
 9504 214c 00       		.byte	0
 9505 214d 1A       		.uleb128 0x1a
 9506 214e 8A080000 		.4byte	.LASF447
 9507 2152 21       		.byte	0x21
 9508 2153 9201     		.2byte	0x192
 9509 2155 0F210000 		.4byte	0x210f
 9510 2159 05       		.uleb128 0x5
 9511 215a 4D210000 		.4byte	0x214d
 9512 215e 0B       		.uleb128 0xb
 9513 215f 04       		.byte	0x4
 9514 2160 59210000 		.4byte	0x2159
 9515 2164 0B       		.uleb128 0xb
 9516 2165 04       		.byte	0x4
 9517 2166 F7200000 		.4byte	0x20f7
 9518 216a 15       		.uleb128 0x15
 9519 216b C3270000 		.4byte	.LASF448
 9520 216f 21       		.byte	0x21
 9521 2170 F201     		.2byte	0x1f2
 9522 2172 7C1F0000 		.4byte	0x1f7c
 9523 2176 15       		.uleb128 0x15
 9524 2177 C01F0000 		.4byte	.LASF449
 9525 217b 21       		.byte	0x21
 9526 217c 0202     		.2byte	0x202
 9527 217e 7C1F0000 		.4byte	0x1f7c
 9528 2182 15       		.uleb128 0x15
 9529 2183 C71F0000 		.4byte	.LASF450
 9530 2187 21       		.byte	0x21
 9531 2188 0602     		.2byte	0x206
 9532 218a 7C1F0000 		.4byte	0x1f7c
 9533 218e 21       		.uleb128 0x21
 9534 218f 07       		.byte	0x7
 9535 2190 01       		.byte	0x1
 9536 2191 42000000 		.4byte	0x42
 9537 2195 23       		.byte	0x23
 9538 2196 4C       		.byte	0x4c
 9539 2197 C0210000 		.4byte	0x21c0
 9540 219b 22       		.uleb128 0x22
 9541 219c 62080000 		.4byte	.LASF451
 9542 21a0 00       		.byte	0
 9543 21a1 22       		.uleb128 0x22
 9544 21a2 C1100000 		.4byte	.LASF452
 9545 21a6 01       		.byte	0x1
 9546 21a7 22       		.uleb128 0x22
 9547 21a8 CF080000 		.4byte	.LASF453
 9548 21ac 02       		.byte	0x2
 9549 21ad 22       		.uleb128 0x22
 9550 21ae C6060000 		.4byte	.LASF454
 9551 21b2 03       		.byte	0x3
ARM GAS  C:\Users\mathi\AppData\Local\Temp\cc0ZaFXf.s 			page 174


 9552 21b3 22       		.uleb128 0x22
 9553 21b4 44050000 		.4byte	.LASF455
 9554 21b8 04       		.byte	0x4
 9555 21b9 22       		.uleb128 0x22
 9556 21ba 9D150000 		.4byte	.LASF456
 9557 21be 05       		.byte	0x5
 9558 21bf 00       		.byte	0
 9559 21c0 02       		.uleb128 0x2
 9560 21c1 77130000 		.4byte	.LASF457
 9561 21c5 23       		.byte	0x23
 9562 21c6 53       		.byte	0x53
 9563 21c7 8E210000 		.4byte	0x218e
 9564 21cb 1A       		.uleb128 0x1a
 9565 21cc 13070000 		.4byte	.LASF458
 9566 21d0 24       		.byte	0x24
 9567 21d1 6A01     		.2byte	0x16a
 9568 21d3 DE000000 		.4byte	0xde
 9569 21d7 1A       		.uleb128 0x1a
 9570 21d8 14060000 		.4byte	.LASF459
 9571 21dc 24       		.byte	0x24
 9572 21dd 6F01     		.2byte	0x16f
 9573 21df F9000000 		.4byte	0xf9
 9574 21e3 24       		.uleb128 0x24
 9575 21e4 07       		.byte	0x7
 9576 21e5 01       		.byte	0x1
 9577 21e6 42000000 		.4byte	0x42
 9578 21ea 24       		.byte	0x24
 9579 21eb 7401     		.2byte	0x174
 9580 21ed 04220000 		.4byte	0x2204
 9581 21f1 22       		.uleb128 0x22
 9582 21f2 D9060000 		.4byte	.LASF460
 9583 21f6 01       		.byte	0x1
 9584 21f7 22       		.uleb128 0x22
 9585 21f8 A8000000 		.4byte	.LASF461
 9586 21fc 02       		.byte	0x2
 9587 21fd 22       		.uleb128 0x22
 9588 21fe E30B0000 		.4byte	.LASF462
 9589 2202 03       		.byte	0x3
 9590 2203 00       		.byte	0
 9591 2204 1A       		.uleb128 0x1a
 9592 2205 26290000 		.4byte	.LASF463
 9593 2209 24       		.byte	0x24
 9594 220a 7801     		.2byte	0x178
 9595 220c E3210000 		.4byte	0x21e3
 9596 2210 24       		.uleb128 0x24
 9597 2211 07       		.byte	0x7
 9598 2212 01       		.byte	0x1
 9599 2213 42000000 		.4byte	0x42
 9600 2217 24       		.byte	0x24
 9601 2218 7D01     		.2byte	0x17d
 9602 221a 31220000 		.4byte	0x2231
 9603 221e 22       		.uleb128 0x22
 9604 221f CC070000 		.4byte	.LASF464
 9605 2223 01       		.byte	0x1
 9606 2224 22       		.uleb128 0x22
 9607 2225 97280000 		.4byte	.LASF465
 9608 2229 02       		.byte	0x2
ARM GAS  C:\Users\mathi\AppData\Local\Temp\cc0ZaFXf.s 			page 175


 9609 222a 22       		.uleb128 0x22
 9610 222b FA0C0000 		.4byte	.LASF466
 9611 222f 03       		.byte	0x3
 9612 2230 00       		.byte	0
 9613 2231 1A       		.uleb128 0x1a
 9614 2232 E2080000 		.4byte	.LASF467
 9615 2236 24       		.byte	0x24
 9616 2237 8101     		.2byte	0x181
 9617 2239 10220000 		.4byte	0x2210
 9618 223d 19       		.uleb128 0x19
 9619 223e 0C       		.byte	0xc
 9620 223f 24       		.byte	0x24
 9621 2240 8601     		.2byte	0x186
 9622 2242 6E220000 		.4byte	0x226e
 9623 2246 0A       		.uleb128 0xa
 9624 2247 9F170000 		.4byte	.LASF468
 9625 224b 24       		.byte	0x24
 9626 224c 8801     		.2byte	0x188
 9627 224e 04220000 		.4byte	0x2204
 9628 2252 00       		.byte	0
 9629 2253 0A       		.uleb128 0xa
 9630 2254 BA050000 		.4byte	.LASF469
 9631 2258 24       		.byte	0x24
 9632 2259 8901     		.2byte	0x189
 9633 225b F9000000 		.4byte	0xf9
 9634 225f 04       		.byte	0x4
 9635 2260 0A       		.uleb128 0xa
 9636 2261 B8290000 		.4byte	.LASF470
 9637 2265 24       		.byte	0x24
 9638 2266 8C01     		.2byte	0x18c
 9639 2268 31220000 		.4byte	0x2231
 9640 226c 08       		.byte	0x8
 9641 226d 00       		.byte	0
 9642 226e 1A       		.uleb128 0x1a
 9643 226f BB030000 		.4byte	.LASF471
 9644 2273 24       		.byte	0x24
 9645 2274 8E01     		.2byte	0x18e
 9646 2276 3D220000 		.4byte	0x223d
 9647 227a 05       		.uleb128 0x5
 9648 227b 6E220000 		.4byte	0x226e
 9649 227f 1A       		.uleb128 0x1a
 9650 2280 BC060000 		.4byte	.LASF472
 9651 2284 24       		.byte	0x24
 9652 2285 9301     		.2byte	0x193
 9653 2287 8B220000 		.4byte	0x228b
 9654 228b 0C       		.uleb128 0xc
 9655 228c BC060000 		.4byte	.LASF472
 9656 2290 3C       		.byte	0x3c
 9657 2291 24       		.byte	0x24
 9658 2292 9801     		.2byte	0x198
 9659 2294 28230000 		.4byte	0x2328
 9660 2298 0A       		.uleb128 0xa
 9661 2299 E2180000 		.4byte	.LASF340
 9662 229d 24       		.byte	0x24
 9663 229e 9C01     		.2byte	0x19c
 9664 22a0 C0210000 		.4byte	0x21c0
 9665 22a4 00       		.byte	0
ARM GAS  C:\Users\mathi\AppData\Local\Temp\cc0ZaFXf.s 			page 176


 9666 22a5 0A       		.uleb128 0xa
 9667 22a6 B91F0000 		.4byte	.LASF341
 9668 22aa 24       		.byte	0x24
 9669 22ab A001     		.2byte	0x1a0
 9670 22ad 28230000 		.4byte	0x2328
 9671 22b1 04       		.byte	0x4
 9672 22b2 0A       		.uleb128 0xa
 9673 22b3 E3010000 		.4byte	.LASF473
 9674 22b7 24       		.byte	0x24
 9675 22b8 A401     		.2byte	0x1a4
 9676 22ba D7210000 		.4byte	0x21d7
 9677 22be 08       		.byte	0x8
 9678 22bf 0A       		.uleb128 0xa
 9679 22c0 2B0F0000 		.4byte	.LASF346
 9680 22c4 24       		.byte	0x24
 9681 22c5 A901     		.2byte	0x1a9
 9682 22c7 5F120000 		.4byte	0x125f
 9683 22cb 0C       		.byte	0xc
 9684 22cc 0A       		.uleb128 0xa
 9685 22cd 15090000 		.4byte	.LASF345
 9686 22d1 24       		.byte	0x24
 9687 22d2 B201     		.2byte	0x1b2
 9688 22d4 E8020000 		.4byte	0x2e8
 9689 22d8 20       		.byte	0x20
 9690 22d9 0A       		.uleb128 0xa
 9691 22da CA100000 		.4byte	.LASF474
 9692 22de 24       		.byte	0x24
 9693 22df B601     		.2byte	0x1b6
 9694 22e1 CB210000 		.4byte	0x21cb
 9695 22e5 24       		.byte	0x24
 9696 22e6 0A       		.uleb128 0xa
 9697 22e7 990A0000 		.4byte	.LASF475
 9698 22eb 24       		.byte	0x24
 9699 22ec BA01     		.2byte	0x1ba
 9700 22ee F9000000 		.4byte	0xf9
 9701 22f2 28       		.byte	0x28
 9702 22f3 0A       		.uleb128 0xa
 9703 22f4 F30A0000 		.4byte	.LASF476
 9704 22f8 24       		.byte	0x24
 9705 22f9 BE01     		.2byte	0x1be
 9706 22fb F9000000 		.4byte	0xf9
 9707 22ff 2C       		.byte	0x2c
 9708 2300 0A       		.uleb128 0xa
 9709 2301 5A010000 		.4byte	.LASF477
 9710 2305 24       		.byte	0x24
 9711 2306 C201     		.2byte	0x1c2
 9712 2308 5E1A0000 		.4byte	0x1a5e
 9713 230c 30       		.byte	0x30
 9714 230d 0A       		.uleb128 0xa
 9715 230e CE030000 		.4byte	.LASF478
 9716 2312 24       		.byte	0x24
 9717 2313 C601     		.2byte	0x1c6
 9718 2315 5E1A0000 		.4byte	0x1a5e
 9719 2319 34       		.byte	0x34
 9720 231a 09       		.uleb128 0x9
 9721 231b 69326300 		.ascii	"i2c\000"
 9722 231f 24       		.byte	0x24
ARM GAS  C:\Users\mathi\AppData\Local\Temp\cc0ZaFXf.s 			page 177


 9723 2320 CA01     		.2byte	0x1ca
 9724 2322 2E230000 		.4byte	0x232e
 9725 2326 38       		.byte	0x38
 9726 2327 00       		.byte	0
 9727 2328 0B       		.uleb128 0xb
 9728 2329 04       		.byte	0x4
 9729 232a 7A220000 		.4byte	0x227a
 9730 232e 0B       		.uleb128 0xb
 9731 232f 04       		.byte	0x4
 9732 2330 460B0000 		.4byte	0xb46
 9733 2334 15       		.uleb128 0x15
 9734 2335 FC130000 		.4byte	.LASF479
 9735 2339 24       		.byte	0x24
 9736 233a E001     		.2byte	0x1e0
 9737 233c 7F220000 		.4byte	0x227f
 9738 2340 21       		.uleb128 0x21
 9739 2341 07       		.byte	0x7
 9740 2342 01       		.byte	0x1
 9741 2343 42000000 		.4byte	0x42
 9742 2347 25       		.byte	0x25
 9743 2348 39       		.byte	0x39
 9744 2349 6C230000 		.4byte	0x236c
 9745 234d 22       		.uleb128 0x22
 9746 234e 56120000 		.4byte	.LASF480
 9747 2352 00       		.byte	0
 9748 2353 22       		.uleb128 0x22
 9749 2354 110F0000 		.4byte	.LASF481
 9750 2358 01       		.byte	0x1
 9751 2359 22       		.uleb128 0x22
 9752 235a 60010000 		.4byte	.LASF482
 9753 235e 02       		.byte	0x2
 9754 235f 22       		.uleb128 0x22
 9755 2360 3F1C0000 		.4byte	.LASF483
 9756 2364 03       		.byte	0x3
 9757 2365 22       		.uleb128 0x22
 9758 2366 CC220000 		.4byte	.LASF484
 9759 236a 04       		.byte	0x4
 9760 236b 00       		.byte	0
 9761 236c 02       		.uleb128 0x2
 9762 236d 0F260000 		.4byte	.LASF485
 9763 2371 25       		.byte	0x25
 9764 2372 3F       		.byte	0x3f
 9765 2373 40230000 		.4byte	0x2340
 9766 2377 02       		.uleb128 0x2
 9767 2378 AE290000 		.4byte	.LASF486
 9768 237c 26       		.byte	0x26
 9769 237d E2       		.byte	0xe2
 9770 237e 82230000 		.4byte	0x2382
 9771 2382 0C       		.uleb128 0xc
 9772 2383 AE290000 		.4byte	.LASF486
 9773 2387 20       		.byte	0x20
 9774 2388 26       		.byte	0x26
 9775 2389 1B01     		.2byte	0x11b
 9776 238b F8230000 		.4byte	0x23f8
 9777 238f 0A       		.uleb128 0xa
 9778 2390 E2180000 		.4byte	.LASF340
 9779 2394 26       		.byte	0x26
ARM GAS  C:\Users\mathi\AppData\Local\Temp\cc0ZaFXf.s 			page 178


 9780 2395 1F01     		.2byte	0x11f
 9781 2397 6C230000 		.4byte	0x236c
 9782 239b 00       		.byte	0
 9783 239c 0A       		.uleb128 0xa
 9784 239d B91F0000 		.4byte	.LASF341
 9785 23a1 26       		.byte	0x26
 9786 23a2 2301     		.2byte	0x123
 9787 23a4 90240000 		.4byte	0x2490
 9788 23a8 04       		.byte	0x4
 9789 23a9 09       		.uleb128 0x9
 9790 23aa 73706900 		.ascii	"spi\000"
 9791 23ae 26       		.byte	0x26
 9792 23af 2801     		.2byte	0x128
 9793 23b1 96240000 		.4byte	0x2496
 9794 23b5 08       		.byte	0x8
 9795 23b6 09       		.uleb128 0x9
 9796 23b7 63666700 		.ascii	"cfg\000"
 9797 23bb 26       		.byte	0x26
 9798 23bc 2C01     		.2byte	0x12c
 9799 23be DE000000 		.4byte	0xde
 9800 23c2 0C       		.byte	0xc
 9801 23c3 0A       		.uleb128 0xa
 9802 23c4 5A010000 		.4byte	.LASF477
 9803 23c8 26       		.byte	0x26
 9804 23c9 3001     		.2byte	0x130
 9805 23cb 5E1A0000 		.4byte	0x1a5e
 9806 23cf 10       		.byte	0x10
 9807 23d0 0A       		.uleb128 0xa
 9808 23d1 CE030000 		.4byte	.LASF478
 9809 23d5 26       		.byte	0x26
 9810 23d6 3401     		.2byte	0x134
 9811 23d8 5E1A0000 		.4byte	0x1a5e
 9812 23dc 14       		.byte	0x14
 9813 23dd 0A       		.uleb128 0xa
 9814 23de 990A0000 		.4byte	.LASF475
 9815 23e2 26       		.byte	0x26
 9816 23e3 3801     		.2byte	0x138
 9817 23e5 F9000000 		.4byte	0xf9
 9818 23e9 18       		.byte	0x18
 9819 23ea 0A       		.uleb128 0xa
 9820 23eb F30A0000 		.4byte	.LASF476
 9821 23ef 26       		.byte	0x26
 9822 23f0 3C01     		.2byte	0x13c
 9823 23f2 F9000000 		.4byte	0xf9
 9824 23f6 1C       		.byte	0x1c
 9825 23f7 00       		.byte	0
 9826 23f8 02       		.uleb128 0x2
 9827 23f9 DF0A0000 		.4byte	.LASF487
 9828 23fd 26       		.byte	0x26
 9829 23fe EB       		.byte	0xeb
 9830 23ff 03240000 		.4byte	0x2403
 9831 2403 0B       		.uleb128 0xb
 9832 2404 04       		.byte	0x4
 9833 2405 09240000 		.4byte	0x2409
 9834 2409 0D       		.uleb128 0xd
 9835 240a 1E240000 		.4byte	0x241e
 9836 240e 0E       		.uleb128 0xe
ARM GAS  C:\Users\mathi\AppData\Local\Temp\cc0ZaFXf.s 			page 179


 9837 240f 1E240000 		.4byte	0x241e
 9838 2413 0E       		.uleb128 0xe
 9839 2414 19010000 		.4byte	0x119
 9840 2418 0E       		.uleb128 0xe
 9841 2419 19010000 		.4byte	0x119
 9842 241d 00       		.byte	0
 9843 241e 0B       		.uleb128 0xb
 9844 241f 04       		.byte	0x4
 9845 2420 77230000 		.4byte	0x2377
 9846 2424 17       		.uleb128 0x17
 9847 2425 14       		.byte	0x14
 9848 2426 26       		.byte	0x26
 9849 2427 F1       		.byte	0xf1
 9850 2428 78240000 		.4byte	0x2478
 9851 242c 08       		.uleb128 0x8
 9852 242d 05020000 		.4byte	.LASF488
 9853 2431 26       		.byte	0x26
 9854 2432 F6       		.byte	0xf6
 9855 2433 78240000 		.4byte	0x2478
 9856 2437 00       		.byte	0
 9857 2438 08       		.uleb128 0x8
 9858 2439 D9010000 		.4byte	.LASF489
 9859 243d 26       		.byte	0x26
 9860 243e FB       		.byte	0xfb
 9861 243f D0030000 		.4byte	0x3d0
 9862 2443 04       		.byte	0x4
 9863 2444 08       		.uleb128 0x8
 9864 2445 310F0000 		.4byte	.LASF490
 9865 2449 26       		.byte	0x26
 9866 244a FF       		.byte	0xff
 9867 244b 19010000 		.4byte	0x119
 9868 244f 08       		.byte	0x8
 9869 2450 0A       		.uleb128 0xa
 9870 2451 840B0000 		.4byte	.LASF353
 9871 2455 26       		.byte	0x26
 9872 2456 0301     		.2byte	0x103
 9873 2458 F8230000 		.4byte	0x23f8
 9874 245c 0C       		.byte	0xc
 9875 245d 0A       		.uleb128 0xa
 9876 245e 981C0000 		.4byte	.LASF491
 9877 2462 26       		.byte	0x26
 9878 2463 0F01     		.2byte	0x10f
 9879 2465 D3000000 		.4byte	0xd3
 9880 2469 10       		.byte	0x10
 9881 246a 0A       		.uleb128 0xa
 9882 246b C0080000 		.4byte	.LASF492
 9883 246f 26       		.byte	0x26
 9884 2470 1501     		.2byte	0x115
 9885 2472 D3000000 		.4byte	0xd3
 9886 2476 12       		.byte	0x12
 9887 2477 00       		.byte	0
 9888 2478 0B       		.uleb128 0xb
 9889 2479 04       		.byte	0x4
 9890 247a 7E240000 		.4byte	0x247e
 9891 247e 25       		.uleb128 0x25
 9892 247f 1A       		.uleb128 0x1a
 9893 2480 C3290000 		.4byte	.LASF493
ARM GAS  C:\Users\mathi\AppData\Local\Temp\cc0ZaFXf.s 			page 180


 9894 2484 26       		.byte	0x26
 9895 2485 1601     		.2byte	0x116
 9896 2487 24240000 		.4byte	0x2424
 9897 248b 05       		.uleb128 0x5
 9898 248c 7F240000 		.4byte	0x247f
 9899 2490 0B       		.uleb128 0xb
 9900 2491 04       		.byte	0x4
 9901 2492 8B240000 		.4byte	0x248b
 9902 2496 0B       		.uleb128 0xb
 9903 2497 04       		.byte	0x4
 9904 2498 F90C0000 		.4byte	0xcf9
 9905 249c 15       		.uleb128 0x15
 9906 249d 182A0000 		.4byte	.LASF494
 9907 24a1 26       		.byte	0x26
 9908 24a2 4801     		.2byte	0x148
 9909 24a4 77230000 		.4byte	0x2377
 9910 24a8 21       		.uleb128 0x21
 9911 24a9 07       		.byte	0x7
 9912 24aa 01       		.byte	0x1
 9913 24ab 42000000 		.4byte	0x42
 9914 24af 27       		.byte	0x27
 9915 24b0 4A       		.byte	0x4a
 9916 24b1 C8240000 		.4byte	0x24c8
 9917 24b5 22       		.uleb128 0x22
 9918 24b6 6A090000 		.4byte	.LASF495
 9919 24ba 00       		.byte	0
 9920 24bb 22       		.uleb128 0x22
 9921 24bc 1A0F0000 		.4byte	.LASF496
 9922 24c0 01       		.byte	0x1
 9923 24c1 22       		.uleb128 0x22
 9924 24c2 88120000 		.4byte	.LASF497
 9925 24c6 02       		.byte	0x2
 9926 24c7 00       		.byte	0
 9927 24c8 02       		.uleb128 0x2
 9928 24c9 65050000 		.4byte	.LASF498
 9929 24cd 27       		.byte	0x27
 9930 24ce 4E       		.byte	0x4e
 9931 24cf A8240000 		.4byte	0x24a8
 9932 24d3 02       		.uleb128 0x2
 9933 24d4 260E0000 		.4byte	.LASF499
 9934 24d8 27       		.byte	0x27
 9935 24d9 53       		.byte	0x53
 9936 24da DE240000 		.4byte	0x24de
 9937 24de 0C       		.uleb128 0xc
 9938 24df 260E0000 		.4byte	.LASF499
 9939 24e3 1C       		.byte	0x1c
 9940 24e4 28       		.byte	0x28
 9941 24e5 7901     		.2byte	0x179
 9942 24e7 47250000 		.4byte	0x2547
 9943 24eb 0A       		.uleb128 0xa
 9944 24ec E2180000 		.4byte	.LASF340
 9945 24f0 28       		.byte	0x28
 9946 24f1 7D01     		.2byte	0x17d
 9947 24f3 C8240000 		.4byte	0x24c8
 9948 24f7 00       		.byte	0
 9949 24f8 0A       		.uleb128 0xa
 9950 24f9 B91F0000 		.4byte	.LASF341
ARM GAS  C:\Users\mathi\AppData\Local\Temp\cc0ZaFXf.s 			page 181


 9951 24fd 28       		.byte	0x28
 9952 24fe 8101     		.2byte	0x181
 9953 2500 42260000 		.4byte	0x2642
 9954 2504 04       		.byte	0x4
 9955 2505 0A       		.uleb128 0xa
 9956 2506 88150000 		.4byte	.LASF500
 9957 250a 28       		.byte	0x28
 9958 250b 8501     		.2byte	0x185
 9959 250d 8D250000 		.4byte	0x258d
 9960 2511 08       		.byte	0x8
 9961 2512 0A       		.uleb128 0xa
 9962 2513 3F1D0000 		.4byte	.LASF501
 9963 2517 28       		.byte	0x28
 9964 2518 8901     		.2byte	0x189
 9965 251a 81250000 		.4byte	0x2581
 9966 251e 0C       		.byte	0xc
 9967 251f 0A       		.uleb128 0xa
 9968 2520 7A250000 		.4byte	.LASF421
 9969 2524 28       		.byte	0x28
 9970 2525 8D01     		.2byte	0x18d
 9971 2527 75250000 		.4byte	0x2575
 9972 252b 10       		.byte	0x10
 9973 252c 0A       		.uleb128 0xa
 9974 252d 600F0000 		.4byte	.LASF431
 9975 2531 28       		.byte	0x28
 9976 2532 9501     		.2byte	0x195
 9977 2534 F9000000 		.4byte	0xf9
 9978 2538 14       		.byte	0x14
 9979 2539 09       		.uleb128 0x9
 9980 253a 74696D00 		.ascii	"tim\000"
 9981 253e 28       		.byte	0x28
 9982 253f 9901     		.2byte	0x199
 9983 2541 64210000 		.4byte	0x2164
 9984 2545 18       		.byte	0x18
 9985 2546 00       		.byte	0
 9986 2547 02       		.uleb128 0x2
 9987 2548 2F130000 		.4byte	.LASF502
 9988 254c 27       		.byte	0x27
 9989 254d 5A       		.byte	0x5a
 9990 254e 52250000 		.4byte	0x2552
 9991 2552 0B       		.uleb128 0xb
 9992 2553 04       		.byte	0x4
 9993 2554 58250000 		.4byte	0x2558
 9994 2558 0D       		.uleb128 0xd
 9995 2559 63250000 		.4byte	0x2563
 9996 255d 0E       		.uleb128 0xe
 9997 255e 63250000 		.4byte	0x2563
 9998 2562 00       		.byte	0
 9999 2563 0B       		.uleb128 0xb
 10000 2564 04       		.byte	0x4
 10001 2565 D3240000 		.4byte	0x24d3
 10002 2569 1A       		.uleb128 0x1a
 10003 256a F2170000 		.4byte	.LASF503
 10004 256e 28       		.byte	0x28
 10005 256f 2501     		.2byte	0x125
 10006 2571 F9000000 		.4byte	0xf9
 10007 2575 1A       		.uleb128 0x1a
ARM GAS  C:\Users\mathi\AppData\Local\Temp\cc0ZaFXf.s 			page 182


 10008 2576 591A0000 		.4byte	.LASF504
 10009 257a 28       		.byte	0x28
 10010 257b 2A01     		.2byte	0x12a
 10011 257d C3000000 		.4byte	0xc3
 10012 2581 1A       		.uleb128 0x1a
 10013 2582 BA040000 		.4byte	.LASF505
 10014 2586 28       		.byte	0x28
 10015 2587 2F01     		.2byte	0x12f
 10016 2589 F9000000 		.4byte	0xf9
 10017 258d 1A       		.uleb128 0x1a
 10018 258e 28100000 		.4byte	.LASF506
 10019 2592 28       		.byte	0x28
 10020 2593 3401     		.2byte	0x134
 10021 2595 F9000000 		.4byte	0xf9
 10022 2599 19       		.uleb128 0x19
 10023 259a 08       		.byte	0x8
 10024 259b 28       		.byte	0x28
 10025 259c 3901     		.2byte	0x139
 10026 259e BD250000 		.4byte	0x25bd
 10027 25a2 0A       		.uleb128 0xa
 10028 25a3 AD0A0000 		.4byte	.LASF419
 10029 25a7 28       		.byte	0x28
 10030 25a8 3D01     		.2byte	0x13d
 10031 25aa 69250000 		.4byte	0x2569
 10032 25ae 00       		.byte	0
 10033 25af 0A       		.uleb128 0xa
 10034 25b0 5F190000 		.4byte	.LASF445
 10035 25b4 28       		.byte	0x28
 10036 25b5 4301     		.2byte	0x143
 10037 25b7 47250000 		.4byte	0x2547
 10038 25bb 04       		.byte	0x4
 10039 25bc 00       		.byte	0
 10040 25bd 1A       		.uleb128 0x1a
 10041 25be 17100000 		.4byte	.LASF507
 10042 25c2 28       		.byte	0x28
 10043 25c3 4501     		.2byte	0x145
 10044 25c5 99250000 		.4byte	0x2599
 10045 25c9 19       		.uleb128 0x19
 10046 25ca 34       		.byte	0x34
 10047 25cb 28       		.byte	0x28
 10048 25cc 4A01     		.2byte	0x14a
 10049 25ce 21260000 		.4byte	0x2621
 10050 25d2 0A       		.uleb128 0xa
 10051 25d3 53280000 		.4byte	.LASF444
 10052 25d7 28       		.byte	0x28
 10053 25d8 5001     		.2byte	0x150
 10054 25da F9000000 		.4byte	0xf9
 10055 25de 00       		.byte	0
 10056 25df 0A       		.uleb128 0xa
 10057 25e0 88150000 		.4byte	.LASF500
 10058 25e4 28       		.byte	0x28
 10059 25e5 5601     		.2byte	0x156
 10060 25e7 8D250000 		.4byte	0x258d
 10061 25eb 04       		.byte	0x4
 10062 25ec 0A       		.uleb128 0xa
 10063 25ed 5F190000 		.4byte	.LASF445
 10064 25f1 28       		.byte	0x28
ARM GAS  C:\Users\mathi\AppData\Local\Temp\cc0ZaFXf.s 			page 183


 10065 25f2 5C01     		.2byte	0x15c
 10066 25f4 47250000 		.4byte	0x2547
 10067 25f8 08       		.byte	0x8
 10068 25f9 0A       		.uleb128 0xa
 10069 25fa 7A250000 		.4byte	.LASF421
 10070 25fe 28       		.byte	0x28
 10071 25ff 6001     		.2byte	0x160
 10072 2601 21260000 		.4byte	0x2621
 10073 2605 0C       		.byte	0xc
 10074 2606 09       		.uleb128 0x9
 10075 2607 63723200 		.ascii	"cr2\000"
 10076 260b 28       		.byte	0x28
 10077 260c 6601     		.2byte	0x166
 10078 260e F9000000 		.4byte	0xf9
 10079 2612 2C       		.byte	0x2c
 10080 2613 0A       		.uleb128 0xa
 10081 2614 BF0E0000 		.4byte	.LASF446
 10082 2618 28       		.byte	0x28
 10083 2619 7301     		.2byte	0x173
 10084 261b F9000000 		.4byte	0xf9
 10085 261f 30       		.byte	0x30
 10086 2620 00       		.byte	0
 10087 2621 13       		.uleb128 0x13
 10088 2622 BD250000 		.4byte	0x25bd
 10089 2626 31260000 		.4byte	0x2631
 10090 262a 14       		.uleb128 0x14
 10091 262b B1000000 		.4byte	0xb1
 10092 262f 03       		.byte	0x3
 10093 2630 00       		.byte	0
 10094 2631 1A       		.uleb128 0x1a
 10095 2632 370E0000 		.4byte	.LASF508
 10096 2636 28       		.byte	0x28
 10097 2637 7401     		.2byte	0x174
 10098 2639 C9250000 		.4byte	0x25c9
 10099 263d 05       		.uleb128 0x5
 10100 263e 31260000 		.4byte	0x2631
 10101 2642 0B       		.uleb128 0xb
 10102 2643 04       		.byte	0x4
 10103 2644 3D260000 		.4byte	0x263d
 10104 2648 15       		.uleb128 0x15
 10105 2649 2D140000 		.4byte	.LASF509
 10106 264d 28       		.byte	0x28
 10107 264e BC01     		.2byte	0x1bc
 10108 2650 D3240000 		.4byte	0x24d3
 10109 2654 15       		.uleb128 0x15
 10110 2655 33140000 		.4byte	.LASF510
 10111 2659 28       		.byte	0x28
 10112 265a C001     		.2byte	0x1c0
 10113 265c D3240000 		.4byte	0x24d3
 10114 2660 15       		.uleb128 0x15
 10115 2661 39140000 		.4byte	.LASF511
 10116 2665 28       		.byte	0x28
 10117 2666 C401     		.2byte	0x1c4
 10118 2668 D3240000 		.4byte	0x24d3
 10119 266c 15       		.uleb128 0x15
 10120 266d 3F140000 		.4byte	.LASF512
 10121 2671 28       		.byte	0x28
ARM GAS  C:\Users\mathi\AppData\Local\Temp\cc0ZaFXf.s 			page 184


 10122 2672 C801     		.2byte	0x1c8
 10123 2674 D3240000 		.4byte	0x24d3
 10124 2678 21       		.uleb128 0x21
 10125 2679 07       		.byte	0x7
 10126 267a 01       		.byte	0x1
 10127 267b 42000000 		.4byte	0x42
 10128 267f 29       		.byte	0x29
 10129 2680 55       		.byte	0x55
 10130 2681 98260000 		.4byte	0x2698
 10131 2685 22       		.uleb128 0x22
 10132 2686 94080000 		.4byte	.LASF513
 10133 268a 00       		.byte	0
 10134 268b 22       		.uleb128 0x22
 10135 268c 930F0000 		.4byte	.LASF514
 10136 2690 01       		.byte	0x1
 10137 2691 22       		.uleb128 0x22
 10138 2692 DD110000 		.4byte	.LASF515
 10139 2696 02       		.byte	0x2
 10140 2697 00       		.byte	0
 10141 2698 02       		.uleb128 0x2
 10142 2699 921B0000 		.4byte	.LASF516
 10143 269d 29       		.byte	0x29
 10144 269e 59       		.byte	0x59
 10145 269f 78260000 		.4byte	0x2678
 10146 26a3 02       		.uleb128 0x2
 10147 26a4 A5250000 		.4byte	.LASF517
 10148 26a8 29       		.byte	0x29
 10149 26a9 5E       		.byte	0x5e
 10150 26aa AE260000 		.4byte	0x26ae
 10151 26ae 07       		.uleb128 0x7
 10152 26af A5250000 		.4byte	.LASF517
 10153 26b3 78       		.byte	0x78
 10154 26b4 29       		.byte	0x29
 10155 26b5 78       		.byte	0x78
 10156 26b6 19270000 		.4byte	0x2719
 10157 26ba 18       		.uleb128 0x18
 10158 26bb 766D7400 		.ascii	"vmt\000"
 10159 26bf 29       		.byte	0x29
 10160 26c0 7A       		.byte	0x7a
 10161 26c1 97270000 		.4byte	0x2797
 10162 26c5 00       		.byte	0
 10163 26c6 08       		.uleb128 0x8
 10164 26c7 47000000 		.4byte	.LASF518
 10165 26cb 29       		.byte	0x29
 10166 26cc 7B       		.byte	0x7b
 10167 26cd E3120000 		.4byte	0x12e3
 10168 26d1 04       		.byte	0x4
 10169 26d2 08       		.uleb128 0x8
 10170 26d3 E2180000 		.4byte	.LASF340
 10171 26d7 29       		.byte	0x29
 10172 26d8 7B       		.byte	0x7b
 10173 26d9 98260000 		.4byte	0x2698
 10174 26dd 08       		.byte	0x8
 10175 26de 08       		.uleb128 0x8
 10176 26df 671B0000 		.4byte	.LASF519
 10177 26e3 29       		.byte	0x29
 10178 26e4 7B       		.byte	0x7b
ARM GAS  C:\Users\mathi\AppData\Local\Temp\cc0ZaFXf.s 			page 185


 10179 26e5 8E130000 		.4byte	0x138e
 10180 26e9 0C       		.byte	0xc
 10181 26ea 08       		.uleb128 0x8
 10182 26eb 52140000 		.4byte	.LASF520
 10183 26ef 29       		.byte	0x29
 10184 26f0 7B       		.byte	0x7b
 10185 26f1 99130000 		.4byte	0x1399
 10186 26f5 30       		.byte	0x30
 10187 26f6 18       		.uleb128 0x18
 10188 26f7 696200   		.ascii	"ib\000"
 10189 26fa 29       		.byte	0x29
 10190 26fb 7B       		.byte	0x7b
 10191 26fc 9D270000 		.4byte	0x279d
 10192 2700 54       		.byte	0x54
 10193 2701 18       		.uleb128 0x18
 10194 2702 6F6200   		.ascii	"ob\000"
 10195 2705 29       		.byte	0x29
 10196 2706 7B       		.byte	0x7b
 10197 2707 9D270000 		.4byte	0x279d
 10198 270b 64       		.byte	0x64
 10199 270c 08       		.uleb128 0x8
 10200 270d 9D1D0000 		.4byte	.LASF521
 10201 2711 29       		.byte	0x29
 10202 2712 7B       		.byte	0x7b
 10203 2713 AD270000 		.4byte	0x27ad
 10204 2717 74       		.byte	0x74
 10205 2718 00       		.byte	0
 10206 2719 1F       		.uleb128 0x1f
 10207 271a 53443300 		.ascii	"SD3\000"
 10208 271e 2A       		.byte	0x2a
 10209 271f 1501     		.2byte	0x115
 10210 2721 A3260000 		.4byte	0x26a3
 10211 2725 07       		.uleb128 0x7
 10212 2726 66110000 		.4byte	.LASF522
 10213 272a 20       		.byte	0x20
 10214 272b 29       		.byte	0x29
 10215 272c 6D       		.byte	0x6d
 10216 272d 92270000 		.4byte	0x2792
 10217 2731 08       		.uleb128 0x8
 10218 2732 561B0000 		.4byte	.LASF523
 10219 2736 29       		.byte	0x29
 10220 2737 6E       		.byte	0x6e
 10221 2738 C3130000 		.4byte	0x13c3
 10222 273c 00       		.byte	0
 10223 273d 08       		.uleb128 0x8
 10224 273e D4060000 		.4byte	.LASF524
 10225 2742 29       		.byte	0x29
 10226 2743 6E       		.byte	0x6e
 10227 2744 E2130000 		.4byte	0x13e2
 10228 2748 04       		.byte	0x4
 10229 2749 18       		.uleb128 0x18
 10230 274a 70757400 		.ascii	"put\000"
 10231 274e 29       		.byte	0x29
 10232 274f 6E       		.byte	0x6e
 10233 2750 FC130000 		.4byte	0x13fc
 10234 2754 08       		.byte	0x8
 10235 2755 18       		.uleb128 0x18
ARM GAS  C:\Users\mathi\AppData\Local\Temp\cc0ZaFXf.s 			page 186


 10236 2756 67657400 		.ascii	"get\000"
 10237 275a 29       		.byte	0x29
 10238 275b 6E       		.byte	0x6e
 10239 275c 11140000 		.4byte	0x1411
 10240 2760 0C       		.byte	0xc
 10241 2761 08       		.uleb128 0x8
 10242 2762 9F160000 		.4byte	.LASF525
 10243 2766 29       		.byte	0x29
 10244 2767 6E       		.byte	0x6e
 10245 2768 B2140000 		.4byte	0x14b2
 10246 276c 10       		.byte	0x10
 10247 276d 08       		.uleb128 0x8
 10248 276e 321B0000 		.4byte	.LASF526
 10249 2772 29       		.byte	0x29
 10250 2773 6E       		.byte	0x6e
 10251 2774 CC140000 		.4byte	0x14cc
 10252 2778 14       		.byte	0x14
 10253 2779 08       		.uleb128 0x8
 10254 277a 62260000 		.4byte	.LASF527
 10255 277e 29       		.byte	0x29
 10256 277f 6E       		.byte	0x6e
 10257 2780 F0140000 		.4byte	0x14f0
 10258 2784 18       		.byte	0x18
 10259 2785 08       		.uleb128 0x8
 10260 2786 D5150000 		.4byte	.LASF528
 10261 278a 29       		.byte	0x29
 10262 278b 6E       		.byte	0x6e
 10263 278c 14150000 		.4byte	0x1514
 10264 2790 1C       		.byte	0x1c
 10265 2791 00       		.byte	0
 10266 2792 05       		.uleb128 0x5
 10267 2793 25270000 		.4byte	0x2725
 10268 2797 0B       		.uleb128 0xb
 10269 2798 04       		.byte	0x4
 10270 2799 92270000 		.4byte	0x2792
 10271 279d 13       		.uleb128 0x13
 10272 279e C3000000 		.4byte	0xc3
 10273 27a2 AD270000 		.4byte	0x27ad
 10274 27a6 14       		.uleb128 0x14
 10275 27a7 B1000000 		.4byte	0xb1
 10276 27ab 0F       		.byte	0xf
 10277 27ac 00       		.byte	0
 10278 27ad 0B       		.uleb128 0xb
 10279 27ae 04       		.byte	0x4
 10280 27af 680D0000 		.4byte	0xd68
 10281 27b3 21       		.uleb128 0x21
 10282 27b4 07       		.byte	0x7
 10283 27b5 01       		.byte	0x1
 10284 27b6 42000000 		.4byte	0x42
 10285 27ba 2B       		.byte	0x2b
 10286 27bb 6C       		.byte	0x6c
 10287 27bc D3270000 		.4byte	0x27d3
 10288 27c0 22       		.uleb128 0x22
 10289 27c1 14050000 		.4byte	.LASF529
 10290 27c5 00       		.byte	0
 10291 27c6 22       		.uleb128 0x22
 10292 27c7 14180000 		.4byte	.LASF530
ARM GAS  C:\Users\mathi\AppData\Local\Temp\cc0ZaFXf.s 			page 187


 10293 27cb 01       		.byte	0x1
 10294 27cc 22       		.uleb128 0x22
 10295 27cd 4D150000 		.4byte	.LASF531
 10296 27d1 02       		.byte	0x2
 10297 27d2 00       		.byte	0
 10298 27d3 02       		.uleb128 0x2
 10299 27d4 991E0000 		.4byte	.LASF532
 10300 27d8 2B       		.byte	0x2b
 10301 27d9 70       		.byte	0x70
 10302 27da B3270000 		.4byte	0x27b3
 10303 27de 02       		.uleb128 0x2
 10304 27df AB1D0000 		.4byte	.LASF533
 10305 27e3 2C       		.byte	0x2c
 10306 27e4 BF       		.byte	0xbf
 10307 27e5 F9000000 		.4byte	0xf9
 10308 27e9 02       		.uleb128 0x2
 10309 27ea B11A0000 		.4byte	.LASF534
 10310 27ee 2C       		.byte	0x2c
 10311 27ef C4       		.byte	0xc4
 10312 27f0 F9000000 		.4byte	0xf9
 10313 27f4 02       		.uleb128 0x2
 10314 27f5 89250000 		.4byte	.LASF535
 10315 27f9 2C       		.byte	0x2c
 10316 27fa C9       		.byte	0xc9
 10317 27fb FF270000 		.4byte	0x27ff
 10318 27ff 07       		.uleb128 0x7
 10319 2800 89250000 		.4byte	.LASF535
 10320 2804 4C       		.byte	0x4c
 10321 2805 2C       		.byte	0x2c
 10322 2806 F2       		.byte	0xf2
 10323 2807 AE280000 		.4byte	0x28ae
 10324 280b 18       		.uleb128 0x18
 10325 280c 766D7400 		.ascii	"vmt\000"
 10326 2810 2C       		.byte	0x2c
 10327 2811 F6       		.byte	0xf6
 10328 2812 51290000 		.4byte	0x2951
 10329 2816 00       		.byte	0
 10330 2817 08       		.uleb128 0x8
 10331 2818 E2180000 		.4byte	.LASF340
 10332 281c 2C       		.byte	0x2c
 10333 281d F7       		.byte	0xf7
 10334 281e 5E150000 		.4byte	0x155e
 10335 2822 04       		.byte	0x4
 10336 2823 18       		.uleb128 0x18
 10337 2824 63696400 		.ascii	"cid\000"
 10338 2828 2C       		.byte	0x2c
 10339 2829 F7       		.byte	0xf7
 10340 282a 19160000 		.4byte	0x1619
 10341 282e 08       		.byte	0x8
 10342 282f 18       		.uleb128 0x18
 10343 2830 63736400 		.ascii	"csd\000"
 10344 2834 2C       		.byte	0x2c
 10345 2835 F7       		.byte	0xf7
 10346 2836 19160000 		.4byte	0x1619
 10347 283a 18       		.byte	0x18
 10348 283b 08       		.uleb128 0x8
 10349 283c B3200000 		.4byte	.LASF536
ARM GAS  C:\Users\mathi\AppData\Local\Temp\cc0ZaFXf.s 			page 188


 10350 2840 2C       		.byte	0x2c
 10351 2841 F7       		.byte	0xf7
 10352 2842 F9000000 		.4byte	0xf9
 10353 2846 28       		.byte	0x28
 10354 2847 08       		.uleb128 0x8
 10355 2848 B91F0000 		.4byte	.LASF341
 10356 284c 2C       		.byte	0x2c
 10357 284d FB       		.byte	0xfb
 10358 284e 57290000 		.4byte	0x2957
 10359 2852 2C       		.byte	0x2c
 10360 2853 08       		.uleb128 0x8
 10361 2854 BF170000 		.4byte	.LASF537
 10362 2858 2C       		.byte	0x2c
 10363 2859 FF       		.byte	0xff
 10364 285a DE270000 		.4byte	0x27de
 10365 285e 30       		.byte	0x30
 10366 285f 0A       		.uleb128 0xa
 10367 2860 E3010000 		.4byte	.LASF473
 10368 2864 2C       		.byte	0x2c
 10369 2865 0301     		.2byte	0x103
 10370 2867 E9270000 		.4byte	0x27e9
 10371 286b 34       		.byte	0x34
 10372 286c 09       		.uleb128 0x9
 10373 286d 72636100 		.ascii	"rca\000"
 10374 2871 2C       		.byte	0x2c
 10375 2872 0701     		.2byte	0x107
 10376 2874 F9000000 		.4byte	0xf9
 10377 2878 38       		.byte	0x38
 10378 2879 0A       		.uleb128 0xa
 10379 287a 15090000 		.4byte	.LASF345
 10380 287e 2C       		.byte	0x2c
 10381 287f 0C01     		.2byte	0x10c
 10382 2881 E8020000 		.4byte	0x2e8
 10383 2885 3C       		.byte	0x3c
 10384 2886 0A       		.uleb128 0xa
 10385 2887 131B0000 		.4byte	.LASF348
 10386 288b 2C       		.byte	0x2c
 10387 288c 1001     		.2byte	0x110
 10388 288e F9000000 		.4byte	0xf9
 10389 2892 40       		.byte	0x40
 10390 2893 09       		.uleb128 0x9
 10391 2894 646D6100 		.ascii	"dma\000"
 10392 2898 2C       		.byte	0x2c
 10393 2899 1401     		.2byte	0x114
 10394 289b 5E1A0000 		.4byte	0x1a5e
 10395 289f 44       		.byte	0x44
 10396 28a0 0A       		.uleb128 0xa
 10397 28a1 06190000 		.4byte	.LASF538
 10398 28a5 2C       		.byte	0x2c
 10399 28a6 1901     		.2byte	0x119
 10400 28a8 5D290000 		.4byte	0x295d
 10401 28ac 48       		.byte	0x48
 10402 28ad 00       		.byte	0
 10403 28ae 17       		.uleb128 0x17
 10404 28af 08       		.byte	0x8
 10405 28b0 2C       		.byte	0x2c
 10406 28b1 CF       		.byte	0xcf
ARM GAS  C:\Users\mathi\AppData\Local\Temp\cc0ZaFXf.s 			page 189


 10407 28b2 CF280000 		.4byte	0x28cf
 10408 28b6 08       		.uleb128 0x8
 10409 28b7 76100000 		.4byte	.LASF539
 10410 28bb 2C       		.byte	0x2c
 10411 28bc D8       		.byte	0xd8
 10412 28bd 88130000 		.4byte	0x1388
 10413 28c1 00       		.byte	0
 10414 28c2 08       		.uleb128 0x8
 10415 28c3 40270000 		.4byte	.LASF540
 10416 28c7 2C       		.byte	0x2c
 10417 28c8 DC       		.byte	0xdc
 10418 28c9 D3270000 		.4byte	0x27d3
 10419 28cd 04       		.byte	0x4
 10420 28ce 00       		.byte	0
 10421 28cf 02       		.uleb128 0x2
 10422 28d0 7F180000 		.4byte	.LASF541
 10423 28d4 2C       		.byte	0x2c
 10424 28d5 DE       		.byte	0xde
 10425 28d6 AE280000 		.4byte	0x28ae
 10426 28da 05       		.uleb128 0x5
 10427 28db CF280000 		.4byte	0x28cf
 10428 28df 07       		.uleb128 0x7
 10429 28e0 61270000 		.4byte	.LASF542
 10430 28e4 20       		.byte	0x20
 10431 28e5 2C       		.byte	0x2c
 10432 28e6 EB       		.byte	0xeb
 10433 28e7 4C290000 		.4byte	0x294c
 10434 28eb 08       		.uleb128 0x8
 10435 28ec 1E2A0000 		.4byte	.LASF543
 10436 28f0 2C       		.byte	0x2c
 10437 28f1 EC       		.byte	0xec
 10438 28f2 AB150000 		.4byte	0x15ab
 10439 28f6 00       		.byte	0
 10440 28f7 08       		.uleb128 0x8
 10441 28f8 C40E0000 		.4byte	.LASF544
 10442 28fc 2C       		.byte	0x2c
 10443 28fd EC       		.byte	0xec
 10444 28fe AB150000 		.4byte	0x15ab
 10445 2902 04       		.byte	0x4
 10446 2903 08       		.uleb128 0x8
 10447 2904 8B110000 		.4byte	.LASF545
 10448 2908 2C       		.byte	0x2c
 10449 2909 EC       		.byte	0xec
 10450 290a AB150000 		.4byte	0x15ab
 10451 290e 08       		.byte	0x8
 10452 290f 08       		.uleb128 0x8
 10453 2910 8D160000 		.4byte	.LASF546
 10454 2914 2C       		.byte	0x2c
 10455 2915 EC       		.byte	0xec
 10456 2916 AB150000 		.4byte	0x15ab
 10457 291a 0C       		.byte	0xc
 10458 291b 08       		.uleb128 0x8
 10459 291c D4060000 		.4byte	.LASF524
 10460 2920 2C       		.byte	0x2c
 10461 2921 EC       		.byte	0xec
 10462 2922 CF150000 		.4byte	0x15cf
 10463 2926 10       		.byte	0x10
ARM GAS  C:\Users\mathi\AppData\Local\Temp\cc0ZaFXf.s 			page 190


 10464 2927 08       		.uleb128 0x8
 10465 2928 561B0000 		.4byte	.LASF523
 10466 292c 2C       		.byte	0x2c
 10467 292d EC       		.byte	0xec
 10468 292e F3150000 		.4byte	0x15f3
 10469 2932 14       		.byte	0x14
 10470 2933 08       		.uleb128 0x8
 10471 2934 981D0000 		.4byte	.LASF547
 10472 2938 2C       		.byte	0x2c
 10473 2939 EC       		.byte	0xec
 10474 293a AB150000 		.4byte	0x15ab
 10475 293e 18       		.byte	0x18
 10476 293f 08       		.uleb128 0x8
 10477 2940 EE260000 		.4byte	.LASF548
 10478 2944 2C       		.byte	0x2c
 10479 2945 EC       		.byte	0xec
 10480 2946 13160000 		.4byte	0x1613
 10481 294a 1C       		.byte	0x1c
 10482 294b 00       		.byte	0
 10483 294c 05       		.uleb128 0x5
 10484 294d DF280000 		.4byte	0x28df
 10485 2951 0B       		.uleb128 0xb
 10486 2952 04       		.byte	0x4
 10487 2953 4C290000 		.4byte	0x294c
 10488 2957 0B       		.uleb128 0xb
 10489 2958 04       		.byte	0x4
 10490 2959 DA280000 		.4byte	0x28da
 10491 295d 0B       		.uleb128 0xb
 10492 295e 04       		.byte	0x4
 10493 295f 700C0000 		.4byte	0xc70
 10494 2963 15       		.uleb128 0x15
 10495 2964 600C0000 		.4byte	.LASF549
 10496 2968 2C       		.byte	0x2c
 10497 2969 2501     		.2byte	0x125
 10498 296b F4270000 		.4byte	0x27f4
 10499 296f 21       		.uleb128 0x21
 10500 2970 07       		.byte	0x7
 10501 2971 01       		.byte	0x1
 10502 2972 42000000 		.4byte	0x42
 10503 2976 2D       		.byte	0x2d
 10504 2977 46       		.byte	0x46
 10505 2978 9B290000 		.4byte	0x299b
 10506 297c 22       		.uleb128 0x22
 10507 297d 2B090000 		.4byte	.LASF550
 10508 2981 00       		.byte	0
 10509 2982 22       		.uleb128 0x22
 10510 2983 B1040000 		.4byte	.LASF551
 10511 2987 01       		.byte	0x1
 10512 2988 22       		.uleb128 0x22
 10513 2989 29270000 		.4byte	.LASF552
 10514 298d 02       		.byte	0x2
 10515 298e 22       		.uleb128 0x22
 10516 298f F5100000 		.4byte	.LASF553
 10517 2993 03       		.byte	0x3
 10518 2994 22       		.uleb128 0x22
 10519 2995 20160000 		.4byte	.LASF554
 10520 2999 04       		.byte	0x4
ARM GAS  C:\Users\mathi\AppData\Local\Temp\cc0ZaFXf.s 			page 191


 10521 299a 00       		.byte	0
 10522 299b 02       		.uleb128 0x2
 10523 299c A9100000 		.4byte	.LASF555
 10524 29a0 2D       		.byte	0x2d
 10525 29a1 4C       		.byte	0x4c
 10526 29a2 6F290000 		.4byte	0x296f
 10527 29a6 1A       		.uleb128 0x1a
 10528 29a7 1C250000 		.4byte	.LASF556
 10529 29ab 2E       		.byte	0x2e
 10530 29ac 9601     		.2byte	0x196
 10531 29ae B2290000 		.4byte	0x29b2
 10532 29b2 0C       		.uleb128 0xc
 10533 29b3 1C250000 		.4byte	.LASF556
 10534 29b7 34       		.byte	0x34
 10535 29b8 2E       		.byte	0x2e
 10536 29b9 BA01     		.2byte	0x1ba
 10537 29bb 352A0000 		.4byte	0x2a35
 10538 29bf 0A       		.uleb128 0xa
 10539 29c0 E2180000 		.4byte	.LASF340
 10540 29c4 2E       		.byte	0x2e
 10541 29c5 BE01     		.2byte	0x1be
 10542 29c7 9B290000 		.4byte	0x299b
 10543 29cb 00       		.byte	0
 10544 29cc 0A       		.uleb128 0xa
 10545 29cd B91F0000 		.4byte	.LASF341
 10546 29d1 2E       		.byte	0x2e
 10547 29d2 C201     		.2byte	0x1c2
 10548 29d4 A72A0000 		.4byte	0x2aa7
 10549 29d8 04       		.byte	0x4
 10550 29d9 0A       		.uleb128 0xa
 10551 29da 15090000 		.4byte	.LASF345
 10552 29de 2E       		.byte	0x2e
 10553 29df C701     		.2byte	0x1c7
 10554 29e1 E8020000 		.4byte	0x2e8
 10555 29e5 08       		.byte	0x8
 10556 29e6 0A       		.uleb128 0xa
 10557 29e7 2B0F0000 		.4byte	.LASF346
 10558 29eb 2E       		.byte	0x2e
 10559 29ec CD01     		.2byte	0x1cd
 10560 29ee 5F120000 		.4byte	0x125f
 10561 29f2 0C       		.byte	0xc
 10562 29f3 09       		.uleb128 0x9
 10563 29f4 73706900 		.ascii	"spi\000"
 10564 29f8 2E       		.byte	0x2e
 10565 29f9 D601     		.2byte	0x1d6
 10566 29fb 96240000 		.4byte	0x2496
 10567 29ff 20       		.byte	0x20
 10568 2a00 0A       		.uleb128 0xa
 10569 2a01 5A010000 		.4byte	.LASF477
 10570 2a05 2E       		.byte	0x2e
 10571 2a06 DA01     		.2byte	0x1da
 10572 2a08 5E1A0000 		.4byte	0x1a5e
 10573 2a0c 24       		.byte	0x24
 10574 2a0d 0A       		.uleb128 0xa
 10575 2a0e CE030000 		.4byte	.LASF478
 10576 2a12 2E       		.byte	0x2e
 10577 2a13 DE01     		.2byte	0x1de
ARM GAS  C:\Users\mathi\AppData\Local\Temp\cc0ZaFXf.s 			page 192


 10578 2a15 5E1A0000 		.4byte	0x1a5e
 10579 2a19 28       		.byte	0x28
 10580 2a1a 0A       		.uleb128 0xa
 10581 2a1b 990A0000 		.4byte	.LASF475
 10582 2a1f 2E       		.byte	0x2e
 10583 2a20 E201     		.2byte	0x1e2
 10584 2a22 F9000000 		.4byte	0xf9
 10585 2a26 2C       		.byte	0x2c
 10586 2a27 0A       		.uleb128 0xa
 10587 2a28 F30A0000 		.4byte	.LASF476
 10588 2a2c 2E       		.byte	0x2e
 10589 2a2d E601     		.2byte	0x1e6
 10590 2a2f F9000000 		.4byte	0xf9
 10591 2a33 30       		.byte	0x30
 10592 2a34 00       		.byte	0
 10593 2a35 1A       		.uleb128 0x1a
 10594 2a36 48180000 		.4byte	.LASF557
 10595 2a3a 2E       		.byte	0x2e
 10596 2a3b 9E01     		.2byte	0x19e
 10597 2a3d 412A0000 		.4byte	0x2a41
 10598 2a41 0B       		.uleb128 0xb
 10599 2a42 04       		.byte	0x4
 10600 2a43 472A0000 		.4byte	0x2a47
 10601 2a47 0D       		.uleb128 0xd
 10602 2a48 522A0000 		.4byte	0x2a52
 10603 2a4c 0E       		.uleb128 0xe
 10604 2a4d 522A0000 		.4byte	0x2a52
 10605 2a51 00       		.byte	0
 10606 2a52 0B       		.uleb128 0xb
 10607 2a53 04       		.byte	0x4
 10608 2a54 A6290000 		.4byte	0x29a6
 10609 2a58 19       		.uleb128 0x19
 10610 2a59 0C       		.byte	0xc
 10611 2a5a 2E       		.byte	0x2e
 10612 2a5b A301     		.2byte	0x1a3
 10613 2a5d 962A0000 		.4byte	0x2a96
 10614 2a61 0A       		.uleb128 0xa
 10615 2a62 840B0000 		.4byte	.LASF353
 10616 2a66 2E       		.byte	0x2e
 10617 2a67 A701     		.2byte	0x1a7
 10618 2a69 352A0000 		.4byte	0x2a35
 10619 2a6d 00       		.byte	0
 10620 2a6e 0A       		.uleb128 0xa
 10621 2a6f F8270000 		.4byte	.LASF558
 10622 2a73 2E       		.byte	0x2e
 10623 2a74 AC01     		.2byte	0x1ac
 10624 2a76 EF170000 		.4byte	0x17ef
 10625 2a7a 04       		.byte	0x4
 10626 2a7b 0A       		.uleb128 0xa
 10627 2a7c ED0A0000 		.4byte	.LASF559
 10628 2a80 2E       		.byte	0x2e
 10629 2a81 B001     		.2byte	0x1b0
 10630 2a83 DE000000 		.4byte	0xde
 10631 2a87 08       		.byte	0x8
 10632 2a88 09       		.uleb128 0x9
 10633 2a89 63723100 		.ascii	"cr1\000"
 10634 2a8d 2E       		.byte	0x2e
ARM GAS  C:\Users\mathi\AppData\Local\Temp\cc0ZaFXf.s 			page 193


 10635 2a8e B401     		.2byte	0x1b4
 10636 2a90 DE000000 		.4byte	0xde
 10637 2a94 0A       		.byte	0xa
 10638 2a95 00       		.byte	0
 10639 2a96 1A       		.uleb128 0x1a
 10640 2a97 2C250000 		.4byte	.LASF560
 10641 2a9b 2E       		.byte	0x2e
 10642 2a9c B501     		.2byte	0x1b5
 10643 2a9e 582A0000 		.4byte	0x2a58
 10644 2aa2 05       		.uleb128 0x5
 10645 2aa3 962A0000 		.4byte	0x2a96
 10646 2aa7 0B       		.uleb128 0xb
 10647 2aa8 04       		.byte	0x4
 10648 2aa9 A22A0000 		.4byte	0x2aa2
 10649 2aad 15       		.uleb128 0x15
 10650 2aae 2C1B0000 		.4byte	.LASF561
 10651 2ab2 2E       		.byte	0x2e
 10652 2ab3 F201     		.2byte	0x1f2
 10653 2ab5 A6290000 		.4byte	0x29a6
 10654 2ab9 02       		.uleb128 0x2
 10655 2aba 09140000 		.4byte	.LASF562
 10656 2abe 2F       		.byte	0x2f
 10657 2abf FA       		.byte	0xfa
 10658 2ac0 C42A0000 		.4byte	0x2ac4
 10659 2ac4 10       		.uleb128 0x10
 10660 2ac5 09140000 		.4byte	.LASF562
 10661 2ac9 6002     		.2byte	0x260
 10662 2acb 30       		.byte	0x30
 10663 2acc 7701     		.2byte	0x177
 10664 2ace F02B0000 		.4byte	0x2bf0
 10665 2ad2 0A       		.uleb128 0xa
 10666 2ad3 E2180000 		.4byte	.LASF340
 10667 2ad7 30       		.byte	0x30
 10668 2ad8 7B01     		.2byte	0x17b
 10669 2ada 282C0000 		.4byte	0x2c28
 10670 2ade 00       		.byte	0
 10671 2adf 0A       		.uleb128 0xa
 10672 2ae0 B91F0000 		.4byte	.LASF341
 10673 2ae4 30       		.byte	0x30
 10674 2ae5 7F01     		.2byte	0x17f
 10675 2ae7 4B350000 		.4byte	0x354b
 10676 2aeb 04       		.byte	0x4
 10677 2aec 0A       		.uleb128 0xa
 10678 2aed 6D250000 		.4byte	.LASF563
 10679 2af1 30       		.byte	0x30
 10680 2af2 8301     		.2byte	0x183
 10681 2af4 DE000000 		.4byte	0xde
 10682 2af8 08       		.byte	0x8
 10683 2af9 0A       		.uleb128 0xa
 10684 2afa 33280000 		.4byte	.LASF564
 10685 2afe 30       		.byte	0x30
 10686 2aff 8701     		.2byte	0x187
 10687 2b01 DE000000 		.4byte	0xde
 10688 2b05 0A       		.byte	0xa
 10689 2b06 09       		.uleb128 0x9
 10690 2b07 65706300 		.ascii	"epc\000"
 10691 2b0b 30       		.byte	0x30
ARM GAS  C:\Users\mathi\AppData\Local\Temp\cc0ZaFXf.s 			page 194


 10692 2b0c 8B01     		.2byte	0x18b
 10693 2b0e 51350000 		.4byte	0x3551
 10694 2b12 0C       		.byte	0xc
 10695 2b13 0A       		.uleb128 0xa
 10696 2b14 55090000 		.4byte	.LASF565
 10697 2b18 30       		.byte	0x30
 10698 2b19 9201     		.2byte	0x192
 10699 2b1b 67350000 		.4byte	0x3567
 10700 2b1f 1C       		.byte	0x1c
 10701 2b20 0A       		.uleb128 0xa
 10702 2b21 950E0000 		.4byte	.LASF566
 10703 2b25 30       		.byte	0x30
 10704 2b26 9901     		.2byte	0x199
 10705 2b28 67350000 		.4byte	0x3567
 10706 2b2c 28       		.byte	0x28
 10707 2b2d 0A       		.uleb128 0xa
 10708 2b2e 22120000 		.4byte	.LASF567
 10709 2b32 30       		.byte	0x30
 10710 2b33 9D01     		.2byte	0x19d
 10711 2b35 6D2C0000 		.4byte	0x2c6d
 10712 2b39 34       		.byte	0x34
 10713 2b3a 0A       		.uleb128 0xa
 10714 2b3b 371F0000 		.4byte	.LASF568
 10715 2b3f 30       		.byte	0x30
 10716 2b40 A101     		.2byte	0x1a1
 10717 2b42 88130000 		.4byte	0x1388
 10718 2b46 38       		.byte	0x38
 10719 2b47 0A       		.uleb128 0xa
 10720 2b48 861A0000 		.4byte	.LASF569
 10721 2b4c 30       		.byte	0x30
 10722 2b4d A501     		.2byte	0x1a5
 10723 2b4f 19010000 		.4byte	0x119
 10724 2b53 3C       		.byte	0x3c
 10725 2b54 0A       		.uleb128 0xa
 10726 2b55 76220000 		.4byte	.LASF570
 10727 2b59 30       		.byte	0x30
 10728 2b5a A901     		.2byte	0x1a9
 10729 2b5c ED2C0000 		.4byte	0x2ced
 10730 2b60 40       		.byte	0x40
 10731 2b61 0A       		.uleb128 0xa
 10732 2b62 25090000 		.4byte	.LASF571
 10733 2b66 30       		.byte	0x30
 10734 2b67 AD01     		.2byte	0x1ad
 10735 2b69 BF1A0000 		.4byte	0x1abf
 10736 2b6d 44       		.byte	0x44
 10737 2b6e 0A       		.uleb128 0xa
 10738 2b6f FC170000 		.4byte	.LASF572
 10739 2b73 30       		.byte	0x30
 10740 2b74 B101     		.2byte	0x1b1
 10741 2b76 DE000000 		.4byte	0xde
 10742 2b7a 4C       		.byte	0x4c
 10743 2b7b 0A       		.uleb128 0xa
 10744 2b7c 60180000 		.4byte	.LASF573
 10745 2b80 30       		.byte	0x30
 10746 2b81 B501     		.2byte	0x1b5
 10747 2b83 C3000000 		.4byte	0xc3
 10748 2b87 4E       		.byte	0x4e
ARM GAS  C:\Users\mathi\AppData\Local\Temp\cc0ZaFXf.s 			page 195


 10749 2b88 0A       		.uleb128 0xa
 10750 2b89 0D1E0000 		.4byte	.LASF574
 10751 2b8d 30       		.byte	0x30
 10752 2b8e B901     		.2byte	0x1b9
 10753 2b90 C3000000 		.4byte	0xc3
 10754 2b94 4F       		.byte	0x4f
 10755 2b95 09       		.uleb128 0x9
 10756 2b96 6F746700 		.ascii	"otg\000"
 10757 2b9a 30       		.byte	0x30
 10758 2b9b C101     		.2byte	0x1c1
 10759 2b9d 77350000 		.4byte	0x3577
 10760 2ba1 50       		.byte	0x50
 10761 2ba2 0A       		.uleb128 0xa
 10762 2ba3 5D100000 		.4byte	.LASF575
 10763 2ba7 30       		.byte	0x30
 10764 2ba8 C501     		.2byte	0x1c5
 10765 2baa 7D350000 		.4byte	0x357d
 10766 2bae 54       		.byte	0x54
 10767 2baf 0A       		.uleb128 0xa
 10768 2bb0 2C1C0000 		.4byte	.LASF576
 10769 2bb4 30       		.byte	0x30
 10770 2bb5 C901     		.2byte	0x1c9
 10771 2bb7 F9000000 		.4byte	0xf9
 10772 2bbb 58       		.byte	0x58
 10773 2bbc 0A       		.uleb128 0xa
 10774 2bbd 560F0000 		.4byte	.LASF577
 10775 2bc1 30       		.byte	0x30
 10776 2bc2 CD01     		.2byte	0x1cd
 10777 2bc4 F9000000 		.4byte	0xf9
 10778 2bc8 5C       		.byte	0x5c
 10779 2bc9 0A       		.uleb128 0xa
 10780 2bca 4A0A0000 		.4byte	.LASF578
 10781 2bce 30       		.byte	0x30
 10782 2bcf D101     		.2byte	0x1d1
 10783 2bd1 E8020000 		.4byte	0x2e8
 10784 2bd5 60       		.byte	0x60
 10785 2bd6 09       		.uleb128 0x9
 10786 2bd7 747200   		.ascii	"tr\000"
 10787 2bda 30       		.byte	0x30
 10788 2bdb D601     		.2byte	0x1d6
 10789 2bdd E8020000 		.4byte	0x2e8
 10790 2be1 64       		.byte	0x64
 10791 2be2 0A       		.uleb128 0xa
 10792 2be3 11170000 		.4byte	.LASF579
 10793 2be7 30       		.byte	0x30
 10794 2be8 DA01     		.2byte	0x1da
 10795 2bea 83350000 		.4byte	0x3583
 10796 2bee 68       		.byte	0x68
 10797 2bef 00       		.byte	0
 10798 2bf0 02       		.uleb128 0x2
 10799 2bf1 0D0C0000 		.4byte	.LASF580
 10800 2bf5 2F       		.byte	0x2f
 10801 2bf6 FF       		.byte	0xff
 10802 2bf7 C3000000 		.4byte	0xc3
 10803 2bfb 24       		.uleb128 0x24
 10804 2bfc 07       		.byte	0x7
 10805 2bfd 01       		.byte	0x1
ARM GAS  C:\Users\mathi\AppData\Local\Temp\cc0ZaFXf.s 			page 196


 10806 2bfe 42000000 		.4byte	0x42
 10807 2c02 2F       		.byte	0x2f
 10808 2c03 0401     		.2byte	0x104
 10809 2c05 282C0000 		.4byte	0x2c28
 10810 2c09 22       		.uleb128 0x22
 10811 2c0a 06290000 		.4byte	.LASF581
 10812 2c0e 00       		.byte	0
 10813 2c0f 22       		.uleb128 0x22
 10814 2c10 00000000 		.4byte	.LASF582
 10815 2c14 01       		.byte	0x1
 10816 2c15 22       		.uleb128 0x22
 10817 2c16 CB150000 		.4byte	.LASF583
 10818 2c1a 02       		.byte	0x2
 10819 2c1b 22       		.uleb128 0x22
 10820 2c1c 0D1C0000 		.4byte	.LASF584
 10821 2c20 03       		.byte	0x3
 10822 2c21 22       		.uleb128 0x22
 10823 2c22 620A0000 		.4byte	.LASF585
 10824 2c26 04       		.byte	0x4
 10825 2c27 00       		.byte	0
 10826 2c28 1A       		.uleb128 0x1a
 10827 2c29 592A0000 		.4byte	.LASF586
 10828 2c2d 2F       		.byte	0x2f
 10829 2c2e 0A01     		.2byte	0x10a
 10830 2c30 FB2B0000 		.4byte	0x2bfb
 10831 2c34 24       		.uleb128 0x24
 10832 2c35 07       		.byte	0x7
 10833 2c36 01       		.byte	0x1
 10834 2c37 42000000 		.4byte	0x42
 10835 2c3b 2F       		.byte	0x2f
 10836 2c3c 1801     		.2byte	0x118
 10837 2c3e 6D2C0000 		.4byte	0x2c6d
 10838 2c42 22       		.uleb128 0x22
 10839 2c43 41220000 		.4byte	.LASF587
 10840 2c47 00       		.byte	0
 10841 2c48 22       		.uleb128 0x22
 10842 2c49 17120000 		.4byte	.LASF588
 10843 2c4d 01       		.byte	0x1
 10844 2c4e 22       		.uleb128 0x22
 10845 2c4f 231F0000 		.4byte	.LASF589
 10846 2c53 02       		.byte	0x2
 10847 2c54 22       		.uleb128 0x22
 10848 2c55 29190000 		.4byte	.LASF590
 10849 2c59 03       		.byte	0x3
 10850 2c5a 22       		.uleb128 0x22
 10851 2c5b E7170000 		.4byte	.LASF591
 10852 2c5f 04       		.byte	0x4
 10853 2c60 22       		.uleb128 0x22
 10854 2c61 44130000 		.4byte	.LASF592
 10855 2c65 05       		.byte	0x5
 10856 2c66 22       		.uleb128 0x22
 10857 2c67 76110000 		.4byte	.LASF593
 10858 2c6b 06       		.byte	0x6
 10859 2c6c 00       		.byte	0
 10860 2c6d 1A       		.uleb128 0x1a
 10861 2c6e AE130000 		.4byte	.LASF594
 10862 2c72 2F       		.byte	0x2f
ARM GAS  C:\Users\mathi\AppData\Local\Temp\cc0ZaFXf.s 			page 197


 10863 2c73 2001     		.2byte	0x120
 10864 2c75 342C0000 		.4byte	0x2c34
 10865 2c79 24       		.uleb128 0x24
 10866 2c7a 07       		.byte	0x7
 10867 2c7b 01       		.byte	0x1
 10868 2c7c 42000000 		.4byte	0x42
 10869 2c80 2F       		.byte	0x2f
 10870 2c81 2501     		.2byte	0x125
 10871 2c83 AC2C0000 		.4byte	0x2cac
 10872 2c87 22       		.uleb128 0x22
 10873 2c88 5A210000 		.4byte	.LASF595
 10874 2c8c 00       		.byte	0
 10875 2c8d 22       		.uleb128 0x22
 10876 2c8e 861C0000 		.4byte	.LASF596
 10877 2c92 01       		.byte	0x1
 10878 2c93 22       		.uleb128 0x22
 10879 2c94 78160000 		.4byte	.LASF597
 10880 2c98 02       		.byte	0x2
 10881 2c99 22       		.uleb128 0x22
 10882 2c9a 5D170000 		.4byte	.LASF598
 10883 2c9e 03       		.byte	0x3
 10884 2c9f 22       		.uleb128 0x22
 10885 2ca0 7C270000 		.4byte	.LASF599
 10886 2ca4 04       		.byte	0x4
 10887 2ca5 22       		.uleb128 0x22
 10888 2ca6 3C160000 		.4byte	.LASF600
 10889 2caa 05       		.byte	0x5
 10890 2cab 00       		.byte	0
 10891 2cac 1A       		.uleb128 0x1a
 10892 2cad B51C0000 		.4byte	.LASF601
 10893 2cb1 2F       		.byte	0x2f
 10894 2cb2 2C01     		.2byte	0x12c
 10895 2cb4 792C0000 		.4byte	0x2c79
 10896 2cb8 19       		.uleb128 0x19
 10897 2cb9 08       		.byte	0x8
 10898 2cba 2F       		.byte	0x2f
 10899 2cbb 3101     		.2byte	0x131
 10900 2cbd DC2C0000 		.4byte	0x2cdc
 10901 2cc1 0A       		.uleb128 0xa
 10902 2cc2 CD290000 		.4byte	.LASF602
 10903 2cc6 2F       		.byte	0x2f
 10904 2cc7 3501     		.2byte	0x135
 10905 2cc9 19010000 		.4byte	0x119
 10906 2ccd 00       		.byte	0
 10907 2cce 0A       		.uleb128 0xa
 10908 2ccf B2060000 		.4byte	.LASF603
 10909 2cd3 2F       		.byte	0x2f
 10910 2cd4 3901     		.2byte	0x139
 10911 2cd6 BD130000 		.4byte	0x13bd
 10912 2cda 04       		.byte	0x4
 10913 2cdb 00       		.byte	0
 10914 2cdc 1A       		.uleb128 0x1a
 10915 2cdd 22180000 		.4byte	.LASF604
 10916 2ce1 2F       		.byte	0x2f
 10917 2ce2 3A01     		.2byte	0x13a
 10918 2ce4 B82C0000 		.4byte	0x2cb8
 10919 2ce8 05       		.uleb128 0x5
ARM GAS  C:\Users\mathi\AppData\Local\Temp\cc0ZaFXf.s 			page 198


 10920 2ce9 DC2C0000 		.4byte	0x2cdc
 10921 2ced 1A       		.uleb128 0x1a
 10922 2cee 56290000 		.4byte	.LASF605
 10923 2cf2 2F       		.byte	0x2f
 10924 2cf3 4201     		.2byte	0x142
 10925 2cf5 F92C0000 		.4byte	0x2cf9
 10926 2cf9 0B       		.uleb128 0xb
 10927 2cfa 04       		.byte	0x4
 10928 2cfb FF2C0000 		.4byte	0x2cff
 10929 2cff 0D       		.uleb128 0xd
 10930 2d00 0A2D0000 		.4byte	0x2d0a
 10931 2d04 0E       		.uleb128 0xe
 10932 2d05 0A2D0000 		.4byte	0x2d0a
 10933 2d09 00       		.byte	0
 10934 2d0a 0B       		.uleb128 0xb
 10935 2d0b 04       		.byte	0x4
 10936 2d0c B92A0000 		.4byte	0x2ab9
 10937 2d10 1A       		.uleb128 0x1a
 10938 2d11 03070000 		.4byte	.LASF606
 10939 2d15 2F       		.byte	0x2f
 10940 2d16 4B01     		.2byte	0x14b
 10941 2d18 1C2D0000 		.4byte	0x2d1c
 10942 2d1c 0B       		.uleb128 0xb
 10943 2d1d 04       		.byte	0x4
 10944 2d1e 222D0000 		.4byte	0x2d22
 10945 2d22 0D       		.uleb128 0xd
 10946 2d23 322D0000 		.4byte	0x2d32
 10947 2d27 0E       		.uleb128 0xe
 10948 2d28 0A2D0000 		.4byte	0x2d0a
 10949 2d2c 0E       		.uleb128 0xe
 10950 2d2d F02B0000 		.4byte	0x2bf0
 10951 2d31 00       		.byte	0
 10952 2d32 1A       		.uleb128 0x1a
 10953 2d33 600D0000 		.4byte	.LASF607
 10954 2d37 2F       		.byte	0x2f
 10955 2d38 5401     		.2byte	0x154
 10956 2d3a 3E2D0000 		.4byte	0x2d3e
 10957 2d3e 0B       		.uleb128 0xb
 10958 2d3f 04       		.byte	0x4
 10959 2d40 442D0000 		.4byte	0x2d44
 10960 2d44 0D       		.uleb128 0xd
 10961 2d45 542D0000 		.4byte	0x2d54
 10962 2d49 0E       		.uleb128 0xe
 10963 2d4a 0A2D0000 		.4byte	0x2d0a
 10964 2d4e 0E       		.uleb128 0xe
 10965 2d4f AC2C0000 		.4byte	0x2cac
 10966 2d53 00       		.byte	0
 10967 2d54 1A       		.uleb128 0x1a
 10968 2d55 6D080000 		.4byte	.LASF608
 10969 2d59 2F       		.byte	0x2f
 10970 2d5a 6001     		.2byte	0x160
 10971 2d5c 602D0000 		.4byte	0x2d60
 10972 2d60 0B       		.uleb128 0xb
 10973 2d61 04       		.byte	0x4
 10974 2d62 662D0000 		.4byte	0x2d66
 10975 2d66 20       		.uleb128 0x20
 10976 2d67 A4150000 		.4byte	0x15a4
ARM GAS  C:\Users\mathi\AppData\Local\Temp\cc0ZaFXf.s 			page 199


 10977 2d6b 752D0000 		.4byte	0x2d75
 10978 2d6f 0E       		.uleb128 0xe
 10979 2d70 0A2D0000 		.4byte	0x2d0a
 10980 2d74 00       		.byte	0
 10981 2d75 1A       		.uleb128 0x1a
 10982 2d76 E6110000 		.4byte	.LASF609
 10983 2d7a 2F       		.byte	0x2f
 10984 2d7b 6501     		.2byte	0x165
 10985 2d7d 812D0000 		.4byte	0x2d81
 10986 2d81 0B       		.uleb128 0xb
 10987 2d82 04       		.byte	0x4
 10988 2d83 872D0000 		.4byte	0x2d87
 10989 2d87 20       		.uleb128 0x20
 10990 2d88 A52D0000 		.4byte	0x2da5
 10991 2d8c A52D0000 		.4byte	0x2da5
 10992 2d90 0E       		.uleb128 0xe
 10993 2d91 0A2D0000 		.4byte	0x2d0a
 10994 2d95 0E       		.uleb128 0xe
 10995 2d96 C3000000 		.4byte	0xc3
 10996 2d9a 0E       		.uleb128 0xe
 10997 2d9b C3000000 		.4byte	0xc3
 10998 2d9f 0E       		.uleb128 0xe
 10999 2da0 DE000000 		.4byte	0xde
 11000 2da4 00       		.byte	0
 11001 2da5 0B       		.uleb128 0xb
 11002 2da6 04       		.byte	0x4
 11003 2da7 E82C0000 		.4byte	0x2ce8
 11004 2dab 17       		.uleb128 0x17
 11005 2dac 20       		.byte	0x20
 11006 2dad 31       		.byte	0x31
 11007 2dae 35       		.byte	0x35
 11008 2daf 142E0000 		.4byte	0x2e14
 11009 2db3 08       		.uleb128 0x8
 11010 2db4 22050000 		.4byte	.LASF610
 11011 2db8 31       		.byte	0x31
 11012 2db9 36       		.byte	0x36
 11013 2dba 04010000 		.4byte	0x104
 11014 2dbe 00       		.byte	0
 11015 2dbf 08       		.uleb128 0x8
 11016 2dc0 9B0F0000 		.4byte	.LASF611
 11017 2dc4 31       		.byte	0x31
 11018 2dc5 38       		.byte	0x38
 11019 2dc6 04010000 		.4byte	0x104
 11020 2dca 04       		.byte	0x4
 11021 2dcb 08       		.uleb128 0x8
 11022 2dcc 86040000 		.4byte	.LASF612
 11023 2dd0 31       		.byte	0x31
 11024 2dd1 39       		.byte	0x39
 11025 2dd2 04010000 		.4byte	0x104
 11026 2dd6 08       		.byte	0x8
 11027 2dd7 08       		.uleb128 0x8
 11028 2dd8 9D1F0000 		.4byte	.LASF613
 11029 2ddc 31       		.byte	0x31
 11030 2ddd 3A       		.byte	0x3a
 11031 2dde 04010000 		.4byte	0x104
 11032 2de2 0C       		.byte	0xc
 11033 2de3 08       		.uleb128 0x8
ARM GAS  C:\Users\mathi\AppData\Local\Temp\cc0ZaFXf.s 			page 200


 11034 2de4 71160000 		.4byte	.LASF614
 11035 2de8 31       		.byte	0x31
 11036 2de9 3C       		.byte	0x3c
 11037 2dea 04010000 		.4byte	0x104
 11038 2dee 10       		.byte	0x10
 11039 2def 08       		.uleb128 0x8
 11040 2df0 EC0F0000 		.4byte	.LASF615
 11041 2df4 31       		.byte	0x31
 11042 2df5 3E       		.byte	0x3e
 11043 2df6 04010000 		.4byte	0x104
 11044 2dfa 14       		.byte	0x14
 11045 2dfb 08       		.uleb128 0x8
 11046 2dfc F40F0000 		.4byte	.LASF616
 11047 2e00 31       		.byte	0x31
 11048 2e01 3F       		.byte	0x3f
 11049 2e02 04010000 		.4byte	0x104
 11050 2e06 18       		.byte	0x18
 11051 2e07 08       		.uleb128 0x8
 11052 2e08 00060000 		.4byte	.LASF617
 11053 2e0c 31       		.byte	0x31
 11054 2e0d 40       		.byte	0x40
 11055 2e0e 04010000 		.4byte	0x104
 11056 2e12 1C       		.byte	0x1c
 11057 2e13 00       		.byte	0
 11058 2e14 02       		.uleb128 0x2
 11059 2e15 3F1F0000 		.4byte	.LASF618
 11060 2e19 31       		.byte	0x31
 11061 2e1a 41       		.byte	0x41
 11062 2e1b AB2D0000 		.4byte	0x2dab
 11063 2e1f 17       		.uleb128 0x17
 11064 2e20 20       		.byte	0x20
 11065 2e21 31       		.byte	0x31
 11066 2e22 46       		.byte	0x46
 11067 2e23 882E0000 		.4byte	0x2e88
 11068 2e27 08       		.uleb128 0x8
 11069 2e28 4B100000 		.4byte	.LASF619
 11070 2e2c 31       		.byte	0x31
 11071 2e2d 47       		.byte	0x47
 11072 2e2e 04010000 		.4byte	0x104
 11073 2e32 00       		.byte	0
 11074 2e33 08       		.uleb128 0x8
 11075 2e34 02140000 		.4byte	.LASF620
 11076 2e38 31       		.byte	0x31
 11077 2e39 49       		.byte	0x49
 11078 2e3a 04010000 		.4byte	0x104
 11079 2e3e 04       		.byte	0x4
 11080 2e3f 08       		.uleb128 0x8
 11081 2e40 7F240000 		.4byte	.LASF621
 11082 2e44 31       		.byte	0x31
 11083 2e45 4A       		.byte	0x4a
 11084 2e46 04010000 		.4byte	0x104
 11085 2e4a 08       		.byte	0x8
 11086 2e4b 08       		.uleb128 0x8
 11087 2e4c 26140000 		.4byte	.LASF622
 11088 2e50 31       		.byte	0x31
 11089 2e51 4C       		.byte	0x4c
 11090 2e52 04010000 		.4byte	0x104
ARM GAS  C:\Users\mathi\AppData\Local\Temp\cc0ZaFXf.s 			page 201


 11091 2e56 0C       		.byte	0xc
 11092 2e57 08       		.uleb128 0x8
 11093 2e58 021A0000 		.4byte	.LASF623
 11094 2e5c 31       		.byte	0x31
 11095 2e5d 4D       		.byte	0x4d
 11096 2e5e 04010000 		.4byte	0x104
 11097 2e62 10       		.byte	0x10
 11098 2e63 08       		.uleb128 0x8
 11099 2e64 EC0F0000 		.4byte	.LASF615
 11100 2e68 31       		.byte	0x31
 11101 2e69 4F       		.byte	0x4f
 11102 2e6a 04010000 		.4byte	0x104
 11103 2e6e 14       		.byte	0x14
 11104 2e6f 08       		.uleb128 0x8
 11105 2e70 36090000 		.4byte	.LASF624
 11106 2e74 31       		.byte	0x31
 11107 2e75 50       		.byte	0x50
 11108 2e76 04010000 		.4byte	0x104
 11109 2e7a 18       		.byte	0x18
 11110 2e7b 08       		.uleb128 0x8
 11111 2e7c 68240000 		.4byte	.LASF625
 11112 2e80 31       		.byte	0x31
 11113 2e81 52       		.byte	0x52
 11114 2e82 04010000 		.4byte	0x104
 11115 2e86 1C       		.byte	0x1c
 11116 2e87 00       		.byte	0
 11117 2e88 02       		.uleb128 0x2
 11118 2e89 760A0000 		.4byte	.LASF626
 11119 2e8d 31       		.byte	0x31
 11120 2e8e 53       		.byte	0x53
 11121 2e8f 1F2E0000 		.4byte	0x2e1f
 11122 2e93 17       		.uleb128 0x17
 11123 2e94 20       		.byte	0x20
 11124 2e95 31       		.byte	0x31
 11125 2e96 58       		.byte	0x58
 11126 2e97 FC2E0000 		.4byte	0x2efc
 11127 2e9b 08       		.uleb128 0x8
 11128 2e9c 951F0000 		.4byte	.LASF627
 11129 2ea0 31       		.byte	0x31
 11130 2ea1 59       		.byte	0x59
 11131 2ea2 04010000 		.4byte	0x104
 11132 2ea6 00       		.byte	0
 11133 2ea7 08       		.uleb128 0x8
 11134 2ea8 02140000 		.4byte	.LASF620
 11135 2eac 31       		.byte	0x31
 11136 2ead 5B       		.byte	0x5b
 11137 2eae 04010000 		.4byte	0x104
 11138 2eb2 04       		.byte	0x4
 11139 2eb3 08       		.uleb128 0x8
 11140 2eb4 741B0000 		.4byte	.LASF628
 11141 2eb8 31       		.byte	0x31
 11142 2eb9 5C       		.byte	0x5c
 11143 2eba 04010000 		.4byte	0x104
 11144 2ebe 08       		.byte	0x8
 11145 2ebf 08       		.uleb128 0x8
 11146 2ec0 26140000 		.4byte	.LASF622
 11147 2ec4 31       		.byte	0x31
ARM GAS  C:\Users\mathi\AppData\Local\Temp\cc0ZaFXf.s 			page 202


 11148 2ec5 5E       		.byte	0x5e
 11149 2ec6 04010000 		.4byte	0x104
 11150 2eca 0C       		.byte	0xc
 11151 2ecb 08       		.uleb128 0x8
 11152 2ecc C6250000 		.4byte	.LASF629
 11153 2ed0 31       		.byte	0x31
 11154 2ed1 5F       		.byte	0x5f
 11155 2ed2 04010000 		.4byte	0x104
 11156 2ed6 10       		.byte	0x10
 11157 2ed7 08       		.uleb128 0x8
 11158 2ed8 EC0F0000 		.4byte	.LASF615
 11159 2edc 31       		.byte	0x31
 11160 2edd 61       		.byte	0x61
 11161 2ede 04010000 		.4byte	0x104
 11162 2ee2 14       		.byte	0x14
 11163 2ee3 08       		.uleb128 0x8
 11164 2ee4 F40F0000 		.4byte	.LASF616
 11165 2ee8 31       		.byte	0x31
 11166 2ee9 62       		.byte	0x62
 11167 2eea 04010000 		.4byte	0x104
 11168 2eee 18       		.byte	0x18
 11169 2eef 08       		.uleb128 0x8
 11170 2ef0 68240000 		.4byte	.LASF625
 11171 2ef4 31       		.byte	0x31
 11172 2ef5 63       		.byte	0x63
 11173 2ef6 04010000 		.4byte	0x104
 11174 2efa 1C       		.byte	0x1c
 11175 2efb 00       		.byte	0
 11176 2efc 02       		.uleb128 0x2
 11177 2efd 110A0000 		.4byte	.LASF630
 11178 2f01 31       		.byte	0x31
 11179 2f02 64       		.byte	0x64
 11180 2f03 932E0000 		.4byte	0x2e93
 11181 2f07 26       		.uleb128 0x26
 11182 2f08 00100100 		.4byte	0x11000
 11183 2f0c 31       		.byte	0x31
 11184 2f0d 69       		.byte	0x69
 11185 2f0e E4310000 		.4byte	0x31e4
 11186 2f12 08       		.uleb128 0x8
 11187 2f13 FB060000 		.4byte	.LASF631
 11188 2f17 31       		.byte	0x31
 11189 2f18 6A       		.byte	0x6a
 11190 2f19 04010000 		.4byte	0x104
 11191 2f1d 00       		.byte	0
 11192 2f1e 08       		.uleb128 0x8
 11193 2f1f 780E0000 		.4byte	.LASF632
 11194 2f23 31       		.byte	0x31
 11195 2f24 6B       		.byte	0x6b
 11196 2f25 04010000 		.4byte	0x104
 11197 2f29 04       		.byte	0x4
 11198 2f2a 08       		.uleb128 0x8
 11199 2f2b 8E090000 		.4byte	.LASF633
 11200 2f2f 31       		.byte	0x31
 11201 2f30 6C       		.byte	0x6c
 11202 2f31 04010000 		.4byte	0x104
 11203 2f35 08       		.byte	0x8
 11204 2f36 08       		.uleb128 0x8
ARM GAS  C:\Users\mathi\AppData\Local\Temp\cc0ZaFXf.s 			page 203


 11205 2f37 6A290000 		.4byte	.LASF634
 11206 2f3b 31       		.byte	0x31
 11207 2f3c 6D       		.byte	0x6d
 11208 2f3d 04010000 		.4byte	0x104
 11209 2f41 0C       		.byte	0xc
 11210 2f42 08       		.uleb128 0x8
 11211 2f43 E4150000 		.4byte	.LASF635
 11212 2f47 31       		.byte	0x31
 11213 2f48 6E       		.byte	0x6e
 11214 2f49 04010000 		.4byte	0x104
 11215 2f4d 10       		.byte	0x10
 11216 2f4e 08       		.uleb128 0x8
 11217 2f4f FB0D0000 		.4byte	.LASF636
 11218 2f53 31       		.byte	0x31
 11219 2f54 6F       		.byte	0x6f
 11220 2f55 04010000 		.4byte	0x104
 11221 2f59 14       		.byte	0x14
 11222 2f5a 08       		.uleb128 0x8
 11223 2f5b FC1D0000 		.4byte	.LASF637
 11224 2f5f 31       		.byte	0x31
 11225 2f60 70       		.byte	0x70
 11226 2f61 04010000 		.4byte	0x104
 11227 2f65 18       		.byte	0x18
 11228 2f66 08       		.uleb128 0x8
 11229 2f67 2C0A0000 		.4byte	.LASF638
 11230 2f6b 31       		.byte	0x31
 11231 2f6c 71       		.byte	0x71
 11232 2f6d 04010000 		.4byte	0x104
 11233 2f71 1C       		.byte	0x1c
 11234 2f72 08       		.uleb128 0x8
 11235 2f73 240A0000 		.4byte	.LASF639
 11236 2f77 31       		.byte	0x31
 11237 2f78 73       		.byte	0x73
 11238 2f79 04010000 		.4byte	0x104
 11239 2f7d 20       		.byte	0x20
 11240 2f7e 08       		.uleb128 0x8
 11241 2f7f 771D0000 		.4byte	.LASF640
 11242 2f83 31       		.byte	0x31
 11243 2f84 75       		.byte	0x75
 11244 2f85 04010000 		.4byte	0x104
 11245 2f89 24       		.byte	0x24
 11246 2f8a 08       		.uleb128 0x8
 11247 2f8b FB000000 		.4byte	.LASF641
 11248 2f8f 31       		.byte	0x31
 11249 2f90 76       		.byte	0x76
 11250 2f91 04010000 		.4byte	0x104
 11251 2f95 28       		.byte	0x28
 11252 2f96 08       		.uleb128 0x8
 11253 2f97 041E0000 		.4byte	.LASF642
 11254 2f9b 31       		.byte	0x31
 11255 2f9c 78       		.byte	0x78
 11256 2f9d 04010000 		.4byte	0x104
 11257 2fa1 2C       		.byte	0x2c
 11258 2fa2 08       		.uleb128 0x8
 11259 2fa3 2B110000 		.4byte	.LASF643
 11260 2fa7 31       		.byte	0x31
 11261 2fa8 7A       		.byte	0x7a
ARM GAS  C:\Users\mathi\AppData\Local\Temp\cc0ZaFXf.s 			page 204


 11262 2fa9 04010000 		.4byte	0x104
 11263 2fad 30       		.byte	0x30
 11264 2fae 08       		.uleb128 0x8
 11265 2faf 3A110000 		.4byte	.LASF644
 11266 2fb3 31       		.byte	0x31
 11267 2fb4 7B       		.byte	0x7b
 11268 2fb5 04010000 		.4byte	0x104
 11269 2fb9 34       		.byte	0x34
 11270 2fba 08       		.uleb128 0x8
 11271 2fbb 8A030000 		.4byte	.LASF645
 11272 2fbf 31       		.byte	0x31
 11273 2fc0 7C       		.byte	0x7c
 11274 2fc1 04010000 		.4byte	0x104
 11275 2fc5 38       		.byte	0x38
 11276 2fc6 18       		.uleb128 0x18
 11277 2fc7 43494400 		.ascii	"CID\000"
 11278 2fcb 31       		.byte	0x31
 11279 2fcc 7D       		.byte	0x7d
 11280 2fcd 04010000 		.4byte	0x104
 11281 2fd1 3C       		.byte	0x3c
 11282 2fd2 08       		.uleb128 0x8
 11283 2fd3 CB120000 		.4byte	.LASF646
 11284 2fd7 31       		.byte	0x31
 11285 2fd8 7E       		.byte	0x7e
 11286 2fd9 F4310000 		.4byte	0x31f4
 11287 2fdd 40       		.byte	0x40
 11288 2fde 27       		.uleb128 0x27
 11289 2fdf 8F260000 		.4byte	.LASF647
 11290 2fe3 31       		.byte	0x31
 11291 2fe4 7F       		.byte	0x7f
 11292 2fe5 04010000 		.4byte	0x104
 11293 2fe9 0001     		.2byte	0x100
 11294 2feb 27       		.uleb128 0x27
 11295 2fec 07040000 		.4byte	.LASF648
 11296 2ff0 31       		.byte	0x31
 11297 2ff1 81       		.byte	0x81
 11298 2ff2 840D0000 		.4byte	0xd84
 11299 2ff6 0401     		.2byte	0x104
 11300 2ff8 27       		.uleb128 0x27
 11301 2ff9 30170000 		.4byte	.LASF649
 11302 2ffd 31       		.byte	0x31
 11303 2ffe 83       		.byte	0x83
 11304 2fff 09320000 		.4byte	0x3209
 11305 3003 4001     		.2byte	0x140
 11306 3005 27       		.uleb128 0x27
 11307 3006 0E1B0000 		.4byte	.LASF650
 11308 300a 31       		.byte	0x31
 11309 300b 84       		.byte	0x84
 11310 300c 04010000 		.4byte	0x104
 11311 3010 0004     		.2byte	0x400
 11312 3012 27       		.uleb128 0x27
 11313 3013 F6280000 		.4byte	.LASF651
 11314 3017 31       		.byte	0x31
 11315 3018 85       		.byte	0x85
 11316 3019 04010000 		.4byte	0x104
 11317 301d 0404     		.2byte	0x404
 11318 301f 27       		.uleb128 0x27
ARM GAS  C:\Users\mathi\AppData\Local\Temp\cc0ZaFXf.s 			page 205


 11319 3020 3E060000 		.4byte	.LASF652
 11320 3024 31       		.byte	0x31
 11321 3025 86       		.byte	0x86
 11322 3026 04010000 		.4byte	0x104
 11323 302a 0804     		.2byte	0x408
 11324 302c 27       		.uleb128 0x27
 11325 302d FD250000 		.4byte	.LASF653
 11326 3031 31       		.byte	0x31
 11327 3032 88       		.byte	0x88
 11328 3033 04010000 		.4byte	0x104
 11329 3037 0C04     		.2byte	0x40c
 11330 3039 27       		.uleb128 0x27
 11331 303a F2040000 		.4byte	.LASF654
 11332 303e 31       		.byte	0x31
 11333 303f 89       		.byte	0x89
 11334 3040 04010000 		.4byte	0x104
 11335 3044 1004     		.2byte	0x410
 11336 3046 27       		.uleb128 0x27
 11337 3047 1F060000 		.4byte	.LASF655
 11338 304b 31       		.byte	0x31
 11339 304c 8B       		.byte	0x8b
 11340 304d 04010000 		.4byte	0x104
 11341 3051 1404     		.2byte	0x414
 11342 3053 27       		.uleb128 0x27
 11343 3054 8C0E0000 		.4byte	.LASF656
 11344 3058 31       		.byte	0x31
 11345 3059 8D       		.byte	0x8d
 11346 305a 04010000 		.4byte	0x104
 11347 305e 1804     		.2byte	0x418
 11348 3060 27       		.uleb128 0x27
 11349 3061 1D210000 		.4byte	.LASF657
 11350 3065 31       		.byte	0x31
 11351 3066 8F       		.byte	0x8f
 11352 3067 1E320000 		.4byte	0x321e
 11353 306b 1C04     		.2byte	0x41c
 11354 306d 27       		.uleb128 0x27
 11355 306e 74040000 		.4byte	.LASF658
 11356 3072 31       		.byte	0x31
 11357 3073 90       		.byte	0x90
 11358 3074 04010000 		.4byte	0x104
 11359 3078 4004     		.2byte	0x440
 11360 307a 27       		.uleb128 0x27
 11361 307b 70230000 		.4byte	.LASF659
 11362 307f 31       		.byte	0x31
 11363 3080 92       		.byte	0x92
 11364 3081 33320000 		.4byte	0x3233
 11365 3085 4404     		.2byte	0x444
 11366 3087 28       		.uleb128 0x28
 11367 3088 686300   		.ascii	"hc\000"
 11368 308b 31       		.byte	0x31
 11369 308c 93       		.byte	0x93
 11370 308d 38320000 		.4byte	0x3238
 11371 3091 0005     		.2byte	0x500
 11372 3093 27       		.uleb128 0x27
 11373 3094 3C260000 		.4byte	.LASF660
 11374 3098 31       		.byte	0x31
 11375 3099 94       		.byte	0x94
ARM GAS  C:\Users\mathi\AppData\Local\Temp\cc0ZaFXf.s 			page 206


 11376 309a 58320000 		.4byte	0x3258
 11377 309e 0007     		.2byte	0x700
 11378 30a0 27       		.uleb128 0x27
 11379 30a1 E61D0000 		.4byte	.LASF661
 11380 30a5 31       		.byte	0x31
 11381 30a6 95       		.byte	0x95
 11382 30a7 04010000 		.4byte	0x104
 11383 30ab 0008     		.2byte	0x800
 11384 30ad 27       		.uleb128 0x27
 11385 30ae 5C270000 		.4byte	.LASF662
 11386 30b2 31       		.byte	0x31
 11387 30b3 96       		.byte	0x96
 11388 30b4 04010000 		.4byte	0x104
 11389 30b8 0408     		.2byte	0x804
 11390 30ba 27       		.uleb128 0x27
 11391 30bb C0070000 		.4byte	.LASF663
 11392 30bf 31       		.byte	0x31
 11393 30c0 97       		.byte	0x97
 11394 30c1 04010000 		.4byte	0x104
 11395 30c5 0808     		.2byte	0x808
 11396 30c7 27       		.uleb128 0x27
 11397 30c8 E4060000 		.4byte	.LASF664
 11398 30cc 31       		.byte	0x31
 11399 30cd 98       		.byte	0x98
 11400 30ce 04010000 		.4byte	0x104
 11401 30d2 0C08     		.2byte	0x80c
 11402 30d4 27       		.uleb128 0x27
 11403 30d5 700E0000 		.4byte	.LASF665
 11404 30d9 31       		.byte	0x31
 11405 30da 99       		.byte	0x99
 11406 30db 04010000 		.4byte	0x104
 11407 30df 1008     		.2byte	0x810
 11408 30e1 27       		.uleb128 0x27
 11409 30e2 A0240000 		.4byte	.LASF666
 11410 30e6 31       		.byte	0x31
 11411 30e7 9B       		.byte	0x9b
 11412 30e8 04010000 		.4byte	0x104
 11413 30ec 1408     		.2byte	0x814
 11414 30ee 27       		.uleb128 0x27
 11415 30ef 26250000 		.4byte	.LASF667
 11416 30f3 31       		.byte	0x31
 11417 30f4 9D       		.byte	0x9d
 11418 30f5 04010000 		.4byte	0x104
 11419 30f9 1808     		.2byte	0x818
 11420 30fb 27       		.uleb128 0x27
 11421 30fc FB210000 		.4byte	.LASF668
 11422 3100 31       		.byte	0x31
 11423 3101 9F       		.byte	0x9f
 11424 3102 04010000 		.4byte	0x104
 11425 3106 1C08     		.2byte	0x81c
 11426 3108 27       		.uleb128 0x27
 11427 3109 33080000 		.4byte	.LASF669
 11428 310d 31       		.byte	0x31
 11429 310e A1       		.byte	0xa1
 11430 310f 04010000 		.4byte	0x104
 11431 3113 2008     		.2byte	0x820
 11432 3115 27       		.uleb128 0x27
ARM GAS  C:\Users\mathi\AppData\Local\Temp\cc0ZaFXf.s 			page 207


 11433 3116 2A070000 		.4byte	.LASF670
 11434 311a 31       		.byte	0x31
 11435 311b A2       		.byte	0xa2
 11436 311c 04010000 		.4byte	0x104
 11437 3120 2408     		.2byte	0x824
 11438 3122 27       		.uleb128 0x27
 11439 3123 F31D0000 		.4byte	.LASF671
 11440 3127 31       		.byte	0x31
 11441 3128 A3       		.byte	0xa3
 11442 3129 04010000 		.4byte	0x104
 11443 312d 2808     		.2byte	0x828
 11444 312f 27       		.uleb128 0x27
 11445 3130 42110000 		.4byte	.LASF672
 11446 3134 31       		.byte	0x31
 11447 3135 A5       		.byte	0xa5
 11448 3136 04010000 		.4byte	0x104
 11449 313a 2C08     		.2byte	0x82c
 11450 313c 27       		.uleb128 0x27
 11451 313d C6080000 		.4byte	.LASF673
 11452 3141 31       		.byte	0x31
 11453 3142 A7       		.byte	0xa7
 11454 3143 04010000 		.4byte	0x104
 11455 3147 3008     		.2byte	0x830
 11456 3149 27       		.uleb128 0x27
 11457 314a 31100000 		.4byte	.LASF674
 11458 314e 31       		.byte	0x31
 11459 314f A8       		.byte	0xa8
 11460 3150 04010000 		.4byte	0x104
 11461 3154 3408     		.2byte	0x834
 11462 3156 27       		.uleb128 0x27
 11463 3157 D9080000 		.4byte	.LASF675
 11464 315b 31       		.byte	0x31
 11465 315c AA       		.byte	0xaa
 11466 315d 04010000 		.4byte	0x104
 11467 3161 3808     		.2byte	0x838
 11468 3163 27       		.uleb128 0x27
 11469 3164 F8080000 		.4byte	.LASF676
 11470 3168 31       		.byte	0x31
 11471 3169 AB       		.byte	0xab
 11472 316a 04010000 		.4byte	0x104
 11473 316e 3C08     		.2byte	0x83c
 11474 3170 27       		.uleb128 0x27
 11475 3171 AC090000 		.4byte	.LASF677
 11476 3175 31       		.byte	0x31
 11477 3176 AC       		.byte	0xac
 11478 3177 6D320000 		.4byte	0x326d
 11479 317b 4008     		.2byte	0x840
 11480 317d 27       		.uleb128 0x27
 11481 317e B60F0000 		.4byte	.LASF678
 11482 3182 31       		.byte	0x31
 11483 3183 AD       		.byte	0xad
 11484 3184 6D320000 		.4byte	0x326d
 11485 3188 8008     		.2byte	0x880
 11486 318a 27       		.uleb128 0x27
 11487 318b 13140000 		.4byte	.LASF679
 11488 318f 31       		.byte	0x31
 11489 3190 AE       		.byte	0xae
ARM GAS  C:\Users\mathi\AppData\Local\Temp\cc0ZaFXf.s 			page 208


 11490 3191 6D320000 		.4byte	0x326d
 11491 3195 C008     		.2byte	0x8c0
 11492 3197 28       		.uleb128 0x28
 11493 3198 696500   		.ascii	"ie\000"
 11494 319b 31       		.byte	0x31
 11495 319c AF       		.byte	0xaf
 11496 319d 72320000 		.4byte	0x3272
 11497 31a1 0009     		.2byte	0x900
 11498 31a3 28       		.uleb128 0x28
 11499 31a4 6F6500   		.ascii	"oe\000"
 11500 31a7 31       		.byte	0x31
 11501 31a8 B0       		.byte	0xb0
 11502 31a9 82320000 		.4byte	0x3282
 11503 31ad 000B     		.2byte	0xb00
 11504 31af 27       		.uleb128 0x27
 11505 31b0 D80D0000 		.4byte	.LASF680
 11506 31b4 31       		.byte	0x31
 11507 31b5 B1       		.byte	0xb1
 11508 31b6 58320000 		.4byte	0x3258
 11509 31ba 000D     		.2byte	0xd00
 11510 31bc 27       		.uleb128 0x27
 11511 31bd 74270000 		.4byte	.LASF681
 11512 31c1 31       		.byte	0x31
 11513 31c2 B2       		.byte	0xb2
 11514 31c3 04010000 		.4byte	0x104
 11515 31c7 000E     		.2byte	0xe00
 11516 31c9 27       		.uleb128 0x27
 11517 31ca 8B1A0000 		.4byte	.LASF682
 11518 31ce 31       		.byte	0x31
 11519 31cf B4       		.byte	0xb4
 11520 31d0 A2320000 		.4byte	0x32a2
 11521 31d4 040E     		.2byte	0xe04
 11522 31d6 27       		.uleb128 0x27
 11523 31d7 AA0B0000 		.4byte	.LASF182
 11524 31db 31       		.byte	0x31
 11525 31dc B5       		.byte	0xb5
 11526 31dd BE320000 		.4byte	0x32be
 11527 31e1 0010     		.2byte	0x1000
 11528 31e3 00       		.byte	0
 11529 31e4 13       		.uleb128 0x13
 11530 31e5 04010000 		.4byte	0x104
 11531 31e9 F4310000 		.4byte	0x31f4
 11532 31ed 14       		.uleb128 0x14
 11533 31ee B1000000 		.4byte	0xb1
 11534 31f2 2F       		.byte	0x2f
 11535 31f3 00       		.byte	0
 11536 31f4 06       		.uleb128 0x6
 11537 31f5 E4310000 		.4byte	0x31e4
 11538 31f9 13       		.uleb128 0x13
 11539 31fa 04010000 		.4byte	0x104
 11540 31fe 09320000 		.4byte	0x3209
 11541 3202 14       		.uleb128 0x14
 11542 3203 B1000000 		.4byte	0xb1
 11543 3207 AF       		.byte	0xaf
 11544 3208 00       		.byte	0
 11545 3209 06       		.uleb128 0x6
 11546 320a F9310000 		.4byte	0x31f9
ARM GAS  C:\Users\mathi\AppData\Local\Temp\cc0ZaFXf.s 			page 209


 11547 320e 13       		.uleb128 0x13
 11548 320f 04010000 		.4byte	0x104
 11549 3213 1E320000 		.4byte	0x321e
 11550 3217 14       		.uleb128 0x14
 11551 3218 B1000000 		.4byte	0xb1
 11552 321c 08       		.byte	0x8
 11553 321d 00       		.byte	0
 11554 321e 06       		.uleb128 0x6
 11555 321f 0E320000 		.4byte	0x320e
 11556 3223 13       		.uleb128 0x13
 11557 3224 04010000 		.4byte	0x104
 11558 3228 33320000 		.4byte	0x3233
 11559 322c 14       		.uleb128 0x14
 11560 322d B1000000 		.4byte	0xb1
 11561 3231 2E       		.byte	0x2e
 11562 3232 00       		.byte	0
 11563 3233 06       		.uleb128 0x6
 11564 3234 23320000 		.4byte	0x3223
 11565 3238 13       		.uleb128 0x13
 11566 3239 142E0000 		.4byte	0x2e14
 11567 323d 48320000 		.4byte	0x3248
 11568 3241 14       		.uleb128 0x14
 11569 3242 B1000000 		.4byte	0xb1
 11570 3246 0F       		.byte	0xf
 11571 3247 00       		.byte	0
 11572 3248 13       		.uleb128 0x13
 11573 3249 04010000 		.4byte	0x104
 11574 324d 58320000 		.4byte	0x3258
 11575 3251 14       		.uleb128 0x14
 11576 3252 B1000000 		.4byte	0xb1
 11577 3256 3F       		.byte	0x3f
 11578 3257 00       		.byte	0
 11579 3258 06       		.uleb128 0x6
 11580 3259 48320000 		.4byte	0x3248
 11581 325d 13       		.uleb128 0x13
 11582 325e 04010000 		.4byte	0x104
 11583 3262 6D320000 		.4byte	0x326d
 11584 3266 14       		.uleb128 0x14
 11585 3267 B1000000 		.4byte	0xb1
 11586 326b 0F       		.byte	0xf
 11587 326c 00       		.byte	0
 11588 326d 06       		.uleb128 0x6
 11589 326e 5D320000 		.4byte	0x325d
 11590 3272 13       		.uleb128 0x13
 11591 3273 882E0000 		.4byte	0x2e88
 11592 3277 82320000 		.4byte	0x3282
 11593 327b 14       		.uleb128 0x14
 11594 327c B1000000 		.4byte	0xb1
 11595 3280 0F       		.byte	0xf
 11596 3281 00       		.byte	0
 11597 3282 13       		.uleb128 0x13
 11598 3283 FC2E0000 		.4byte	0x2efc
 11599 3287 92320000 		.4byte	0x3292
 11600 328b 14       		.uleb128 0x14
 11601 328c B1000000 		.4byte	0xb1
 11602 3290 0F       		.byte	0xf
 11603 3291 00       		.byte	0
ARM GAS  C:\Users\mathi\AppData\Local\Temp\cc0ZaFXf.s 			page 210


 11604 3292 13       		.uleb128 0x13
 11605 3293 04010000 		.4byte	0x104
 11606 3297 A2320000 		.4byte	0x32a2
 11607 329b 14       		.uleb128 0x14
 11608 329c B1000000 		.4byte	0xb1
 11609 32a0 7E       		.byte	0x7e
 11610 32a1 00       		.byte	0
 11611 32a2 06       		.uleb128 0x6
 11612 32a3 92320000 		.4byte	0x3292
 11613 32a7 13       		.uleb128 0x13
 11614 32a8 04010000 		.4byte	0x104
 11615 32ac BE320000 		.4byte	0x32be
 11616 32b0 14       		.uleb128 0x14
 11617 32b1 B1000000 		.4byte	0xb1
 11618 32b5 0F       		.byte	0xf
 11619 32b6 29       		.uleb128 0x29
 11620 32b7 B1000000 		.4byte	0xb1
 11621 32bb FF03     		.2byte	0x3ff
 11622 32bd 00       		.byte	0
 11623 32be 06       		.uleb128 0x6
 11624 32bf A7320000 		.4byte	0x32a7
 11625 32c3 02       		.uleb128 0x2
 11626 32c4 97290000 		.4byte	.LASF683
 11627 32c8 31       		.byte	0x31
 11628 32c9 B6       		.byte	0xb6
 11629 32ca 072F0000 		.4byte	0x2f07
 11630 32ce 17       		.uleb128 0x17
 11631 32cf 0C       		.byte	0xc
 11632 32d0 30       		.byte	0x30
 11633 32d1 C6       		.byte	0xc6
 11634 32d2 FB320000 		.4byte	0x32fb
 11635 32d6 08       		.uleb128 0x8
 11636 32d7 3B0B0000 		.4byte	.LASF684
 11637 32db 30       		.byte	0x30
 11638 32dc C7       		.byte	0xc7
 11639 32dd F9000000 		.4byte	0xf9
 11640 32e1 00       		.byte	0
 11641 32e2 08       		.uleb128 0x8
 11642 32e3 9C0D0000 		.4byte	.LASF685
 11643 32e7 30       		.byte	0x30
 11644 32e8 C8       		.byte	0xc8
 11645 32e9 F9000000 		.4byte	0xf9
 11646 32ed 04       		.byte	0x4
 11647 32ee 08       		.uleb128 0x8
 11648 32ef A2110000 		.4byte	.LASF686
 11649 32f3 30       		.byte	0x30
 11650 32f4 C9       		.byte	0xc9
 11651 32f5 F9000000 		.4byte	0xf9
 11652 32f9 08       		.byte	0x8
 11653 32fa 00       		.byte	0
 11654 32fb 02       		.uleb128 0x2
 11655 32fc C50D0000 		.4byte	.LASF687
 11656 3300 30       		.byte	0x30
 11657 3301 CA       		.byte	0xca
 11658 3302 CE320000 		.4byte	0x32ce
 11659 3306 05       		.uleb128 0x5
 11660 3307 FB320000 		.4byte	0x32fb
ARM GAS  C:\Users\mathi\AppData\Local\Temp\cc0ZaFXf.s 			page 211


 11661 330b 17       		.uleb128 0x17
 11662 330c 04       		.byte	0x4
 11663 330d 30       		.byte	0x30
 11664 330e DD       		.byte	0xdd
 11665 330f 20330000 		.4byte	0x3320
 11666 3313 08       		.uleb128 0x8
 11667 3314 6E270000 		.4byte	.LASF688
 11668 3318 30       		.byte	0x30
 11669 3319 E1       		.byte	0xe1
 11670 331a BD130000 		.4byte	0x13bd
 11671 331e 00       		.byte	0
 11672 331f 00       		.byte	0
 11673 3320 17       		.uleb128 0x17
 11674 3321 04       		.byte	0x4
 11675 3322 30       		.byte	0x30
 11676 3323 E3       		.byte	0xe3
 11677 3324 35330000 		.4byte	0x3335
 11678 3328 08       		.uleb128 0x8
 11679 3329 B90B0000 		.4byte	.LASF373
 11680 332d 30       		.byte	0x30
 11681 332e E7       		.byte	0xe7
 11682 332f 35330000 		.4byte	0x3335
 11683 3333 00       		.byte	0
 11684 3334 00       		.byte	0
 11685 3335 0B       		.uleb128 0xb
 11686 3336 04       		.byte	0x4
 11687 3337 99130000 		.4byte	0x1399
 11688 333b 1D       		.uleb128 0x1d
 11689 333c 04       		.byte	0x4
 11690 333d 30       		.byte	0x30
 11691 333e DC       		.byte	0xdc
 11692 333f 5A330000 		.4byte	0x335a
 11693 3343 2A       		.uleb128 0x2a
 11694 3344 B8230000 		.4byte	.LASF689
 11695 3348 30       		.byte	0x30
 11696 3349 E2       		.byte	0xe2
 11697 334a 0B330000 		.4byte	0x330b
 11698 334e 2A       		.uleb128 0x2a
 11699 334f 70220000 		.4byte	.LASF690
 11700 3353 30       		.byte	0x30
 11701 3354 E8       		.byte	0xe8
 11702 3355 20330000 		.4byte	0x3320
 11703 3359 00       		.byte	0
 11704 335a 17       		.uleb128 0x17
 11705 335b 14       		.byte	0x14
 11706 335c 30       		.byte	0x30
 11707 335d CF       		.byte	0xcf
 11708 335e 9F330000 		.4byte	0x339f
 11709 3362 08       		.uleb128 0x8
 11710 3363 F5090000 		.4byte	.LASF691
 11711 3367 30       		.byte	0x30
 11712 3368 D3       		.byte	0xd3
 11713 3369 A4150000 		.4byte	0x15a4
 11714 336d 00       		.byte	0
 11715 336e 08       		.uleb128 0x8
 11716 336f 5B150000 		.4byte	.LASF692
 11717 3373 30       		.byte	0x30
ARM GAS  C:\Users\mathi\AppData\Local\Temp\cc0ZaFXf.s 			page 212


 11718 3374 D7       		.byte	0xd7
 11719 3375 19010000 		.4byte	0x119
 11720 3379 04       		.byte	0x4
 11721 337a 08       		.uleb128 0x8
 11722 337b 500D0000 		.4byte	.LASF693
 11723 337f 30       		.byte	0x30
 11724 3380 DB       		.byte	0xdb
 11725 3381 19010000 		.4byte	0x119
 11726 3385 08       		.byte	0x8
 11727 3386 08       		.uleb128 0x8
 11728 3387 AD0A0000 		.4byte	.LASF419
 11729 338b 30       		.byte	0x30
 11730 338c E9       		.byte	0xe9
 11731 338d 3B330000 		.4byte	0x333b
 11732 3391 0C       		.byte	0xc
 11733 3392 08       		.uleb128 0x8
 11734 3393 BA110000 		.4byte	.LASF694
 11735 3397 30       		.byte	0x30
 11736 3398 ED       		.byte	0xed
 11737 3399 19010000 		.4byte	0x119
 11738 339d 10       		.byte	0x10
 11739 339e 00       		.byte	0
 11740 339f 02       		.uleb128 0x2
 11741 33a0 D3120000 		.4byte	.LASF695
 11742 33a4 30       		.byte	0x30
 11743 33a5 EE       		.byte	0xee
 11744 33a6 5A330000 		.4byte	0x335a
 11745 33aa 19       		.uleb128 0x19
 11746 33ab 04       		.byte	0x4
 11747 33ac 30       		.byte	0x30
 11748 33ad 0101     		.2byte	0x101
 11749 33af C1330000 		.4byte	0x33c1
 11750 33b3 0A       		.uleb128 0xa
 11751 33b4 E80D0000 		.4byte	.LASF696
 11752 33b8 30       		.byte	0x30
 11753 33b9 0501     		.2byte	0x105
 11754 33bb 88130000 		.4byte	0x1388
 11755 33bf 00       		.byte	0
 11756 33c0 00       		.byte	0
 11757 33c1 19       		.uleb128 0x19
 11758 33c2 04       		.byte	0x4
 11759 33c3 30       		.byte	0x30
 11760 33c4 0701     		.2byte	0x107
 11761 33c6 D8330000 		.4byte	0x33d8
 11762 33ca 0A       		.uleb128 0xa
 11763 33cb 60230000 		.4byte	.LASF374
 11764 33cf 30       		.byte	0x30
 11765 33d0 0B01     		.2byte	0x10b
 11766 33d2 D8330000 		.4byte	0x33d8
 11767 33d6 00       		.byte	0
 11768 33d7 00       		.byte	0
 11769 33d8 0B       		.uleb128 0xb
 11770 33d9 04       		.byte	0x4
 11771 33da 8E130000 		.4byte	0x138e
 11772 33de 2B       		.uleb128 0x2b
 11773 33df 04       		.byte	0x4
 11774 33e0 30       		.byte	0x30
ARM GAS  C:\Users\mathi\AppData\Local\Temp\cc0ZaFXf.s 			page 213


 11775 33e1 0001     		.2byte	0x100
 11776 33e3 00340000 		.4byte	0x3400
 11777 33e7 1E       		.uleb128 0x1e
 11778 33e8 B8230000 		.4byte	.LASF689
 11779 33ec 30       		.byte	0x30
 11780 33ed 0601     		.2byte	0x106
 11781 33ef AA330000 		.4byte	0x33aa
 11782 33f3 1E       		.uleb128 0x1e
 11783 33f4 70220000 		.4byte	.LASF690
 11784 33f8 30       		.byte	0x30
 11785 33f9 0C01     		.2byte	0x10c
 11786 33fb C1330000 		.4byte	0x33c1
 11787 33ff 00       		.byte	0
 11788 3400 17       		.uleb128 0x17
 11789 3401 14       		.byte	0x14
 11790 3402 30       		.byte	0x30
 11791 3403 F3       		.byte	0xf3
 11792 3404 47340000 		.4byte	0x3447
 11793 3408 08       		.uleb128 0x8
 11794 3409 01080000 		.4byte	.LASF697
 11795 340d 30       		.byte	0x30
 11796 340e F7       		.byte	0xf7
 11797 340f A4150000 		.4byte	0x15a4
 11798 3413 00       		.byte	0
 11799 3414 08       		.uleb128 0x8
 11800 3415 58160000 		.4byte	.LASF698
 11801 3419 30       		.byte	0x30
 11802 341a FB       		.byte	0xfb
 11803 341b 19010000 		.4byte	0x119
 11804 341f 04       		.byte	0x4
 11805 3420 08       		.uleb128 0x8
 11806 3421 880A0000 		.4byte	.LASF699
 11807 3425 30       		.byte	0x30
 11808 3426 FF       		.byte	0xff
 11809 3427 19010000 		.4byte	0x119
 11810 342b 08       		.byte	0x8
 11811 342c 0A       		.uleb128 0xa
 11812 342d AD0A0000 		.4byte	.LASF419
 11813 3431 30       		.byte	0x30
 11814 3432 0D01     		.2byte	0x10d
 11815 3434 DE330000 		.4byte	0x33de
 11816 3438 0C       		.byte	0xc
 11817 3439 0A       		.uleb128 0xa
 11818 343a BA110000 		.4byte	.LASF694
 11819 343e 30       		.byte	0x30
 11820 343f 1101     		.2byte	0x111
 11821 3441 19010000 		.4byte	0x119
 11822 3445 10       		.byte	0x10
 11823 3446 00       		.byte	0
 11824 3447 1A       		.uleb128 0x1a
 11825 3448 F8200000 		.4byte	.LASF700
 11826 344c 30       		.byte	0x30
 11827 344d 1201     		.2byte	0x112
 11828 344f 00340000 		.4byte	0x3400
 11829 3453 19       		.uleb128 0x19
 11830 3454 24       		.byte	0x24
 11831 3455 30       		.byte	0x30
ARM GAS  C:\Users\mathi\AppData\Local\Temp\cc0ZaFXf.s 			page 214


 11832 3456 1801     		.2byte	0x118
 11833 3458 DF340000 		.4byte	0x34df
 11834 345c 0A       		.uleb128 0xa
 11835 345d 511A0000 		.4byte	.LASF701
 11836 3461 30       		.byte	0x30
 11837 3462 1C01     		.2byte	0x11c
 11838 3464 F9000000 		.4byte	0xf9
 11839 3468 00       		.byte	0
 11840 3469 0A       		.uleb128 0xa
 11841 346a 8B0B0000 		.4byte	.LASF702
 11842 346e 30       		.byte	0x30
 11843 346f 2701     		.2byte	0x127
 11844 3471 102D0000 		.4byte	0x2d10
 11845 3475 04       		.byte	0x4
 11846 3476 0A       		.uleb128 0xa
 11847 3477 6E1B0000 		.4byte	.LASF703
 11848 347b 30       		.byte	0x30
 11849 347c 2D01     		.2byte	0x12d
 11850 347e 102D0000 		.4byte	0x2d10
 11851 3482 08       		.byte	0x8
 11852 3483 0A       		.uleb128 0xa
 11853 3484 850E0000 		.4byte	.LASF704
 11854 3488 30       		.byte	0x30
 11855 3489 3301     		.2byte	0x133
 11856 348b 102D0000 		.4byte	0x2d10
 11857 348f 0C       		.byte	0xc
 11858 3490 0A       		.uleb128 0xa
 11859 3491 E4290000 		.4byte	.LASF705
 11860 3495 30       		.byte	0x30
 11861 3496 3901     		.2byte	0x139
 11862 3498 DE000000 		.4byte	0xde
 11863 349c 10       		.byte	0x10
 11864 349d 0A       		.uleb128 0xa
 11865 349e EB0E0000 		.4byte	.LASF706
 11866 34a2 30       		.byte	0x30
 11867 34a3 3F01     		.2byte	0x13f
 11868 34a5 DE000000 		.4byte	0xde
 11869 34a9 12       		.byte	0x12
 11870 34aa 0A       		.uleb128 0xa
 11871 34ab 77280000 		.4byte	.LASF707
 11872 34af 30       		.byte	0x30
 11873 34b0 4401     		.2byte	0x144
 11874 34b2 DF340000 		.4byte	0x34df
 11875 34b6 14       		.byte	0x14
 11876 34b7 0A       		.uleb128 0xa
 11877 34b8 89100000 		.4byte	.LASF708
 11878 34bc 30       		.byte	0x30
 11879 34bd 4901     		.2byte	0x149
 11880 34bf E5340000 		.4byte	0x34e5
 11881 34c3 18       		.byte	0x18
 11882 34c4 0A       		.uleb128 0xa
 11883 34c5 9D140000 		.4byte	.LASF709
 11884 34c9 30       		.byte	0x30
 11885 34ca 5001     		.2byte	0x150
 11886 34cc DE000000 		.4byte	0xde
 11887 34d0 1C       		.byte	0x1c
 11888 34d1 0A       		.uleb128 0xa
ARM GAS  C:\Users\mathi\AppData\Local\Temp\cc0ZaFXf.s 			page 215


 11889 34d2 B9270000 		.4byte	.LASF710
 11890 34d6 30       		.byte	0x30
 11891 34d7 5601     		.2byte	0x156
 11892 34d9 88130000 		.4byte	0x1388
 11893 34dd 20       		.byte	0x20
 11894 34de 00       		.byte	0
 11895 34df 0B       		.uleb128 0xb
 11896 34e0 04       		.byte	0x4
 11897 34e1 9F330000 		.4byte	0x339f
 11898 34e5 0B       		.uleb128 0xb
 11899 34e6 04       		.byte	0x4
 11900 34e7 47340000 		.4byte	0x3447
 11901 34eb 1A       		.uleb128 0x1a
 11902 34ec 30230000 		.4byte	.LASF711
 11903 34f0 30       		.byte	0x30
 11904 34f1 5701     		.2byte	0x157
 11905 34f3 53340000 		.4byte	0x3453
 11906 34f7 05       		.uleb128 0x5
 11907 34f8 EB340000 		.4byte	0x34eb
 11908 34fc 19       		.uleb128 0x19
 11909 34fd 10       		.byte	0x10
 11910 34fe 30       		.byte	0x30
 11911 34ff 5C01     		.2byte	0x15c
 11912 3501 3A350000 		.4byte	0x353a
 11913 3505 0A       		.uleb128 0xa
 11914 3506 ED060000 		.4byte	.LASF712
 11915 350a 30       		.byte	0x30
 11916 350b 6101     		.2byte	0x161
 11917 350d 322D0000 		.4byte	0x2d32
 11918 3511 00       		.byte	0
 11919 3512 0A       		.uleb128 0xa
 11920 3513 02270000 		.4byte	.LASF713
 11921 3517 30       		.byte	0x30
 11922 3518 6601     		.2byte	0x166
 11923 351a 752D0000 		.4byte	0x2d75
 11924 351e 04       		.byte	0x4
 11925 351f 0A       		.uleb128 0xa
 11926 3520 2D150000 		.4byte	.LASF714
 11927 3524 30       		.byte	0x30
 11928 3525 6C01     		.2byte	0x16c
 11929 3527 542D0000 		.4byte	0x2d54
 11930 352b 08       		.byte	0x8
 11931 352c 0A       		.uleb128 0xa
 11932 352d D4030000 		.4byte	.LASF715
 11933 3531 30       		.byte	0x30
 11934 3532 7001     		.2byte	0x170
 11935 3534 ED2C0000 		.4byte	0x2ced
 11936 3538 0C       		.byte	0xc
 11937 3539 00       		.byte	0
 11938 353a 1A       		.uleb128 0x1a
 11939 353b 1C140000 		.4byte	.LASF716
 11940 353f 30       		.byte	0x30
 11941 3540 7201     		.2byte	0x172
 11942 3542 FC340000 		.4byte	0x34fc
 11943 3546 05       		.uleb128 0x5
 11944 3547 3A350000 		.4byte	0x353a
 11945 354b 0B       		.uleb128 0xb
ARM GAS  C:\Users\mathi\AppData\Local\Temp\cc0ZaFXf.s 			page 216


 11946 354c 04       		.byte	0x4
 11947 354d 46350000 		.4byte	0x3546
 11948 3551 13       		.uleb128 0x13
 11949 3552 61350000 		.4byte	0x3561
 11950 3556 61350000 		.4byte	0x3561
 11951 355a 14       		.uleb128 0x14
 11952 355b B1000000 		.4byte	0xb1
 11953 355f 03       		.byte	0x3
 11954 3560 00       		.byte	0
 11955 3561 0B       		.uleb128 0xb
 11956 3562 04       		.byte	0x4
 11957 3563 F7340000 		.4byte	0x34f7
 11958 3567 13       		.uleb128 0x13
 11959 3568 D0030000 		.4byte	0x3d0
 11960 356c 77350000 		.4byte	0x3577
 11961 3570 14       		.uleb128 0x14
 11962 3571 B1000000 		.4byte	0xb1
 11963 3575 02       		.byte	0x2
 11964 3576 00       		.byte	0
 11965 3577 0B       		.uleb128 0xb
 11966 3578 04       		.byte	0x4
 11967 3579 C3320000 		.4byte	0x32c3
 11968 357d 0B       		.uleb128 0xb
 11969 357e 04       		.byte	0x4
 11970 357f 06330000 		.4byte	0x3306
 11971 3583 13       		.uleb128 0x13
 11972 3584 940D0000 		.4byte	0xd94
 11973 3588 93350000 		.4byte	0x3593
 11974 358c 14       		.uleb128 0x14
 11975 358d B1000000 		.4byte	0xb1
 11976 3591 3E       		.byte	0x3e
 11977 3592 00       		.byte	0
 11978 3593 15       		.uleb128 0x15
 11979 3594 04010000 		.4byte	.LASF717
 11980 3598 30       		.byte	0x30
 11981 3599 0602     		.2byte	0x206
 11982 359b B92A0000 		.4byte	0x2ab9
 11983 359f 21       		.uleb128 0x21
 11984 35a0 07       		.byte	0x7
 11985 35a1 01       		.byte	0x1
 11986 35a2 42000000 		.4byte	0x42
 11987 35a6 32       		.byte	0x32
 11988 35a7 83       		.byte	0x83
 11989 35a8 B9350000 		.4byte	0x35b9
 11990 35ac 22       		.uleb128 0x22
 11991 35ad C9270000 		.4byte	.LASF718
 11992 35b1 00       		.byte	0
 11993 35b2 22       		.uleb128 0x22
 11994 35b3 CC1C0000 		.4byte	.LASF719
 11995 35b7 01       		.byte	0x1
 11996 35b8 00       		.byte	0
 11997 35b9 02       		.uleb128 0x2
 11998 35ba 1A280000 		.4byte	.LASF720
 11999 35be 32       		.byte	0x32
 12000 35bf 86       		.byte	0x86
 12001 35c0 9F350000 		.4byte	0x359f
 12002 35c4 21       		.uleb128 0x21
ARM GAS  C:\Users\mathi\AppData\Local\Temp\cc0ZaFXf.s 			page 217


 12003 35c5 07       		.byte	0x7
 12004 35c6 01       		.byte	0x1
 12005 35c7 42000000 		.4byte	0x42
 12006 35cb 32       		.byte	0x32
 12007 35cc 8B       		.byte	0x8b
 12008 35cd 02360000 		.4byte	0x3602
 12009 35d1 22       		.uleb128 0x22
 12010 35d2 9E080000 		.4byte	.LASF721
 12011 35d6 00       		.byte	0
 12012 35d7 22       		.uleb128 0x22
 12013 35d8 E8040000 		.4byte	.LASF722
 12014 35dc 01       		.byte	0x1
 12015 35dd 22       		.uleb128 0x22
 12016 35de BF230000 		.4byte	.LASF723
 12017 35e2 02       		.byte	0x2
 12018 35e3 22       		.uleb128 0x22
 12019 35e4 04220000 		.4byte	.LASF724
 12020 35e8 03       		.byte	0x3
 12021 35e9 22       		.uleb128 0x22
 12022 35ea 89000000 		.4byte	.LASF725
 12023 35ee 04       		.byte	0x4
 12024 35ef 22       		.uleb128 0x22
 12025 35f0 47090000 		.4byte	.LASF726
 12026 35f4 05       		.byte	0x5
 12027 35f5 22       		.uleb128 0x22
 12028 35f6 DA140000 		.4byte	.LASF727
 12029 35fa 06       		.byte	0x6
 12030 35fb 22       		.uleb128 0x22
 12031 35fc 5F1C0000 		.4byte	.LASF728
 12032 3600 07       		.byte	0x7
 12033 3601 00       		.byte	0
 12034 3602 02       		.uleb128 0x2
 12035 3603 F6190000 		.4byte	.LASF729
 12036 3607 32       		.byte	0x32
 12037 3608 94       		.byte	0x94
 12038 3609 C4350000 		.4byte	0x35c4
 12039 360d 02       		.uleb128 0x2
 12040 360e EB280000 		.4byte	.LASF730
 12041 3612 32       		.byte	0x32
 12042 3613 99       		.byte	0x99
 12043 3614 18360000 		.4byte	0x3618
 12044 3618 07       		.uleb128 0x7
 12045 3619 EB280000 		.4byte	.LASF730
 12046 361d 14       		.byte	0x14
 12047 361e 32       		.byte	0x32
 12048 361f C3       		.byte	0xc3
 12049 3620 61360000 		.4byte	0x3661
 12050 3624 08       		.uleb128 0x8
 12051 3625 E2180000 		.4byte	.LASF340
 12052 3629 32       		.byte	0x32
 12053 362a C7       		.byte	0xc7
 12054 362b 02360000 		.4byte	0x3602
 12055 362f 00       		.byte	0
 12056 3630 08       		.uleb128 0x8
 12057 3631 B91F0000 		.4byte	.LASF341
 12058 3635 32       		.byte	0x32
 12059 3636 CB       		.byte	0xcb
ARM GAS  C:\Users\mathi\AppData\Local\Temp\cc0ZaFXf.s 			page 218


 12060 3637 EC360000 		.4byte	0x36ec
 12061 363b 04       		.byte	0x4
 12062 363c 08       		.uleb128 0x8
 12063 363d 68250000 		.4byte	.LASF731
 12064 3641 32       		.byte	0x32
 12065 3642 CF       		.byte	0xcf
 12066 3643 F2360000 		.4byte	0x36f2
 12067 3647 08       		.byte	0x8
 12068 3648 08       		.uleb128 0x8
 12069 3649 EE0C0000 		.4byte	.LASF347
 12070 364d 32       		.byte	0x32
 12071 364e D3       		.byte	0xd3
 12072 364f 5E1A0000 		.4byte	0x1a5e
 12073 3653 0C       		.byte	0xc
 12074 3654 08       		.uleb128 0x8
 12075 3655 131B0000 		.4byte	.LASF348
 12076 3659 32       		.byte	0x32
 12077 365a D7       		.byte	0xd7
 12078 365b F9000000 		.4byte	0xf9
 12079 365f 10       		.byte	0x10
 12080 3660 00       		.byte	0
 12081 3661 02       		.uleb128 0x2
 12082 3662 3C100000 		.4byte	.LASF732
 12083 3666 32       		.byte	0x32
 12084 3667 A0       		.byte	0xa0
 12085 3668 6C360000 		.4byte	0x366c
 12086 366c 0B       		.uleb128 0xb
 12087 366d 04       		.byte	0x4
 12088 366e 72360000 		.4byte	0x3672
 12089 3672 0D       		.uleb128 0xd
 12090 3673 7D360000 		.4byte	0x367d
 12091 3677 0E       		.uleb128 0xe
 12092 3678 7D360000 		.4byte	0x367d
 12093 367c 00       		.byte	0
 12094 367d 0B       		.uleb128 0xb
 12095 367e 04       		.byte	0x4
 12096 367f 0D360000 		.4byte	0x360d
 12097 3683 02       		.uleb128 0x2
 12098 3684 D21D0000 		.4byte	.LASF733
 12099 3688 32       		.byte	0x32
 12100 3689 A8       		.byte	0xa8
 12101 368a 8E360000 		.4byte	0x368e
 12102 368e 0B       		.uleb128 0xb
 12103 368f 04       		.byte	0x4
 12104 3690 94360000 		.4byte	0x3694
 12105 3694 0D       		.uleb128 0xd
 12106 3695 A4360000 		.4byte	0x36a4
 12107 3699 0E       		.uleb128 0xe
 12108 369a 7D360000 		.4byte	0x367d
 12109 369e 0E       		.uleb128 0xe
 12110 369f B9350000 		.4byte	0x35b9
 12111 36a3 00       		.byte	0
 12112 36a4 17       		.uleb128 0x17
 12113 36a5 10       		.byte	0x10
 12114 36a6 32       		.byte	0x32
 12115 36a7 AD       		.byte	0xad
 12116 36a8 DC360000 		.4byte	0x36dc
ARM GAS  C:\Users\mathi\AppData\Local\Temp\cc0ZaFXf.s 			page 219


 12117 36ac 08       		.uleb128 0x8
 12118 36ad EB200000 		.4byte	.LASF734
 12119 36b1 32       		.byte	0x32
 12120 36b2 B1       		.byte	0xb1
 12121 36b3 61360000 		.4byte	0x3661
 12122 36b7 00       		.byte	0
 12123 36b8 08       		.uleb128 0x8
 12124 36b9 98260000 		.4byte	.LASF735
 12125 36bd 32       		.byte	0x32
 12126 36be B5       		.byte	0xb5
 12127 36bf 61360000 		.4byte	0x3661
 12128 36c3 04       		.byte	0x4
 12129 36c4 08       		.uleb128 0x8
 12130 36c5 DD270000 		.4byte	.LASF354
 12131 36c9 32       		.byte	0x32
 12132 36ca B9       		.byte	0xb9
 12133 36cb 83360000 		.4byte	0x3683
 12134 36cf 08       		.byte	0x8
 12135 36d0 18       		.uleb128 0x18
 12136 36d1 637200   		.ascii	"cr\000"
 12137 36d4 32       		.byte	0x32
 12138 36d5 BD       		.byte	0xbd
 12139 36d6 F9000000 		.4byte	0xf9
 12140 36da 0C       		.byte	0xc
 12141 36db 00       		.byte	0
 12142 36dc 02       		.uleb128 0x2
 12143 36dd FB280000 		.4byte	.LASF736
 12144 36e1 32       		.byte	0x32
 12145 36e2 BE       		.byte	0xbe
 12146 36e3 A4360000 		.4byte	0x36a4
 12147 36e7 05       		.uleb128 0x5
 12148 36e8 DC360000 		.4byte	0x36dc
 12149 36ec 0B       		.uleb128 0xb
 12150 36ed 04       		.byte	0x4
 12151 36ee E7360000 		.4byte	0x36e7
 12152 36f2 0B       		.uleb128 0xb
 12153 36f3 04       		.byte	0x4
 12154 36f4 220A0000 		.4byte	0xa22
 12155 36f8 16       		.uleb128 0x16
 12156 36f9 7D060000 		.4byte	.LASF737
 12157 36fd 32       		.byte	0x32
 12158 36fe E3       		.byte	0xe3
 12159 36ff 0D360000 		.4byte	0x360d
 12160 3703 02       		.uleb128 0x2
 12161 3704 A4090000 		.4byte	.LASF738
 12162 3708 33       		.byte	0x33
 12163 3709 22       		.byte	0x22
 12164 370a 0E370000 		.4byte	0x370e
 12165 370e 0B       		.uleb128 0xb
 12166 370f 04       		.byte	0x4
 12167 3710 14370000 		.4byte	0x3714
 12168 3714 2C       		.uleb128 0x2c
 12169 3715 C5070000 		.4byte	.LASF868
 12170 3719 02       		.uleb128 0x2
 12171 371a 7D0F0000 		.4byte	.LASF739
 12172 371e 34       		.byte	0x34
 12173 371f 2C       		.byte	0x2c
ARM GAS  C:\Users\mathi\AppData\Local\Temp\cc0ZaFXf.s 			page 220


 12174 3720 78000000 		.4byte	0x78
 12175 3724 02       		.uleb128 0x2
 12176 3725 6B200000 		.4byte	.LASF740
 12177 3729 34       		.byte	0x34
 12178 372a 72       		.byte	0x72
 12179 372b 78000000 		.4byte	0x78
 12180 372f 1A       		.uleb128 0x1a
 12181 3730 84110000 		.4byte	.LASF741
 12182 3734 04       		.byte	0x4
 12183 3735 6501     		.2byte	0x165
 12184 3737 B1000000 		.4byte	0xb1
 12185 373b 1D       		.uleb128 0x1d
 12186 373c 04       		.byte	0x4
 12187 373d 34       		.byte	0x34
 12188 373e A6       		.byte	0xa6
 12189 373f 5A370000 		.4byte	0x375a
 12190 3743 2A       		.uleb128 0x2a
 12191 3744 C2190000 		.4byte	.LASF742
 12192 3748 34       		.byte	0x34
 12193 3749 A8       		.byte	0xa8
 12194 374a 2F370000 		.4byte	0x372f
 12195 374e 2A       		.uleb128 0x2a
 12196 374f 33110000 		.4byte	.LASF743
 12197 3753 34       		.byte	0x34
 12198 3754 A9       		.byte	0xa9
 12199 3755 5A370000 		.4byte	0x375a
 12200 3759 00       		.byte	0
 12201 375a 13       		.uleb128 0x13
 12202 375b 42000000 		.4byte	0x42
 12203 375f 6A370000 		.4byte	0x376a
 12204 3763 14       		.uleb128 0x14
 12205 3764 B1000000 		.4byte	0xb1
 12206 3768 03       		.byte	0x3
 12207 3769 00       		.byte	0
 12208 376a 17       		.uleb128 0x17
 12209 376b 08       		.byte	0x8
 12210 376c 34       		.byte	0x34
 12211 376d A3       		.byte	0xa3
 12212 376e 8B370000 		.4byte	0x378b
 12213 3772 08       		.uleb128 0x8
 12214 3773 D60F0000 		.4byte	.LASF744
 12215 3777 34       		.byte	0x34
 12216 3778 A5       		.byte	0xa5
 12217 3779 AA000000 		.4byte	0xaa
 12218 377d 00       		.byte	0
 12219 377e 08       		.uleb128 0x8
 12220 377f C8190000 		.4byte	.LASF745
 12221 3783 34       		.byte	0x34
 12222 3784 AA       		.byte	0xaa
 12223 3785 3B370000 		.4byte	0x373b
 12224 3789 04       		.byte	0x4
 12225 378a 00       		.byte	0
 12226 378b 02       		.uleb128 0x2
 12227 378c 2E210000 		.4byte	.LASF746
 12228 3790 34       		.byte	0x34
 12229 3791 AB       		.byte	0xab
 12230 3792 6A370000 		.4byte	0x376a
ARM GAS  C:\Users\mathi\AppData\Local\Temp\cc0ZaFXf.s 			page 221


 12231 3796 02       		.uleb128 0x2
 12232 3797 DE250000 		.4byte	.LASF747
 12233 379b 34       		.byte	0x34
 12234 379c AF       		.byte	0xaf
 12235 379d 03370000 		.4byte	0x3703
 12236 37a1 0B       		.uleb128 0xb
 12237 37a2 04       		.byte	0x4
 12238 37a3 20110000 		.4byte	0x1120
 12239 37a7 16       		.uleb128 0x16
 12240 37a8 00110000 		.4byte	.LASF748
 12241 37ac 35       		.byte	0x35
 12242 37ad 10       		.byte	0x10
 12243 37ae B2370000 		.4byte	0x37b2
 12244 37b2 0B       		.uleb128 0xb
 12245 37b3 04       		.byte	0x4
 12246 37b4 A1370000 		.4byte	0x37a1
 12247 37b8 16       		.uleb128 0x16
 12248 37b9 F1080000 		.4byte	.LASF749
 12249 37bd 35       		.byte	0x35
 12250 37be E8       		.byte	0xe8
 12251 37bf A1370000 		.4byte	0x37a1
 12252 37c3 16       		.uleb128 0x16
 12253 37c4 4D260000 		.4byte	.LASF750
 12254 37c8 35       		.byte	0x35
 12255 37c9 E9       		.byte	0xe9
 12256 37ca AA000000 		.4byte	0xaa
 12257 37ce 16       		.uleb128 0x16
 12258 37cf 4E190000 		.4byte	.LASF751
 12259 37d3 35       		.byte	0x35
 12260 37d4 E9       		.byte	0xe9
 12261 37d5 AA000000 		.4byte	0xaa
 12262 37d9 16       		.uleb128 0x16
 12263 37da 98160000 		.4byte	.LASF752
 12264 37de 35       		.byte	0x35
 12265 37df E9       		.byte	0xe9
 12266 37e0 AA000000 		.4byte	0xaa
 12267 37e4 16       		.uleb128 0x16
 12268 37e5 6D0A0000 		.4byte	.LASF753
 12269 37e9 35       		.byte	0x35
 12270 37ea EB       		.byte	0xeb
 12271 37eb AA000000 		.4byte	0xaa
 12272 37ef 07       		.uleb128 0x7
 12273 37f0 37120000 		.4byte	.LASF754
 12274 37f4 5C       		.byte	0x5c
 12275 37f5 36       		.byte	0x36
 12276 37f6 0C       		.byte	0xc
 12277 37f7 5C380000 		.4byte	0x385c
 12278 37fb 08       		.uleb128 0x8
 12279 37fc 591F0000 		.4byte	.LASF755
 12280 3800 36       		.byte	0x36
 12281 3801 0D       		.byte	0xd
 12282 3802 D0030000 		.4byte	0x3d0
 12283 3806 00       		.byte	0
 12284 3807 08       		.uleb128 0x8
 12285 3808 C91B0000 		.4byte	.LASF756
 12286 380c 36       		.byte	0x36
 12287 380d 0E       		.byte	0xe
ARM GAS  C:\Users\mathi\AppData\Local\Temp\cc0ZaFXf.s 			page 222


 12288 380e 19010000 		.4byte	0x119
 12289 3812 04       		.byte	0x4
 12290 3813 08       		.uleb128 0x8
 12291 3814 F50C0000 		.4byte	.LASF757
 12292 3818 36       		.byte	0x36
 12293 3819 0F       		.byte	0xf
 12294 381a D0030000 		.4byte	0x3d0
 12295 381e 08       		.byte	0x8
 12296 381f 08       		.uleb128 0x8
 12297 3820 B8080000 		.4byte	.LASF758
 12298 3824 36       		.byte	0x36
 12299 3825 10       		.byte	0x10
 12300 3826 D0030000 		.4byte	0x3d0
 12301 382a 0C       		.byte	0xc
 12302 382b 08       		.uleb128 0x8
 12303 382c D9250000 		.4byte	.LASF759
 12304 3830 36       		.byte	0x36
 12305 3831 11       		.byte	0x11
 12306 3832 5C380000 		.4byte	0x385c
 12307 3836 10       		.byte	0x10
 12308 3837 08       		.uleb128 0x8
 12309 3838 C4010000 		.4byte	.LASF760
 12310 383c 36       		.byte	0x36
 12311 383d 12       		.byte	0x12
 12312 383e A4150000 		.4byte	0x15a4
 12313 3842 51       		.byte	0x51
 12314 3843 08       		.uleb128 0x8
 12315 3844 EB220000 		.4byte	.LASF761
 12316 3848 36       		.byte	0x36
 12317 3849 13       		.byte	0x13
 12318 384a 91380000 		.4byte	0x3891
 12319 384e 54       		.byte	0x54
 12320 384f 08       		.uleb128 0x8
 12321 3850 ED030000 		.4byte	.LASF762
 12322 3854 36       		.byte	0x36
 12323 3855 14       		.byte	0x14
 12324 3856 97380000 		.4byte	0x3897
 12325 385a 58       		.byte	0x58
 12326 385b 00       		.byte	0
 12327 385c 13       		.uleb128 0x13
 12328 385d 20110000 		.4byte	0x1120
 12329 3861 6C380000 		.4byte	0x386c
 12330 3865 14       		.uleb128 0x14
 12331 3866 B1000000 		.4byte	0xb1
 12332 386a 40       		.byte	0x40
 12333 386b 00       		.byte	0
 12334 386c 07       		.uleb128 0x7
 12335 386d 32000000 		.4byte	.LASF763
 12336 3871 08       		.byte	0x8
 12337 3872 36       		.byte	0x36
 12338 3873 25       		.byte	0x25
 12339 3874 91380000 		.4byte	0x3891
 12340 3878 08       		.uleb128 0x8
 12341 3879 AF210000 		.4byte	.LASF764
 12342 387d 36       		.byte	0x36
 12343 387e 26       		.byte	0x26
 12344 387f 37390000 		.4byte	0x3937
ARM GAS  C:\Users\mathi\AppData\Local\Temp\cc0ZaFXf.s 			page 223


 12345 3883 00       		.byte	0
 12346 3884 08       		.uleb128 0x8
 12347 3885 ED030000 		.4byte	.LASF762
 12348 3889 36       		.byte	0x36
 12349 388a 27       		.byte	0x27
 12350 388b 91380000 		.4byte	0x3891
 12351 388f 04       		.byte	0x4
 12352 3890 00       		.byte	0
 12353 3891 0B       		.uleb128 0xb
 12354 3892 04       		.byte	0x4
 12355 3893 6C380000 		.4byte	0x386c
 12356 3897 0B       		.uleb128 0xb
 12357 3898 04       		.byte	0x4
 12358 3899 EF370000 		.4byte	0x37ef
 12359 389d 02       		.uleb128 0x2
 12360 389e CE1A0000 		.4byte	.LASF765
 12361 38a2 36       		.byte	0x36
 12362 38a3 15       		.byte	0x15
 12363 38a4 EF370000 		.4byte	0x37ef
 12364 38a8 17       		.uleb128 0x17
 12365 38a9 04       		.byte	0x4
 12366 38aa 36       		.byte	0x36
 12367 38ab 18       		.byte	0x18
 12368 38ac BD380000 		.4byte	0x38bd
 12369 38b0 08       		.uleb128 0x8
 12370 38b1 880C0000 		.4byte	.LASF766
 12371 38b5 36       		.byte	0x36
 12372 38b6 19       		.byte	0x19
 12373 38b7 BD380000 		.4byte	0x38bd
 12374 38bb 00       		.byte	0
 12375 38bc 00       		.byte	0
 12376 38bd 0B       		.uleb128 0xb
 12377 38be 04       		.byte	0x4
 12378 38bf 9D380000 		.4byte	0x389d
 12379 38c3 17       		.uleb128 0x17
 12380 38c4 0C       		.byte	0xc
 12381 38c5 36       		.byte	0x36
 12382 38c6 17       		.byte	0x17
 12383 38c7 F0380000 		.4byte	0x38f0
 12384 38cb 08       		.uleb128 0x8
 12385 38cc 45240000 		.4byte	.LASF767
 12386 38d0 36       		.byte	0x36
 12387 38d1 1A       		.byte	0x1a
 12388 38d2 A8380000 		.4byte	0x38a8
 12389 38d6 00       		.byte	0
 12390 38d7 08       		.uleb128 0x8
 12391 38d8 F50C0000 		.4byte	.LASF757
 12392 38dc 36       		.byte	0x36
 12393 38dd 1B       		.byte	0x1b
 12394 38de D0030000 		.4byte	0x3d0
 12395 38e2 04       		.byte	0x4
 12396 38e3 08       		.uleb128 0x8
 12397 38e4 B8080000 		.4byte	.LASF758
 12398 38e8 36       		.byte	0x36
 12399 38e9 1C       		.byte	0x1c
 12400 38ea D0030000 		.4byte	0x3d0
 12401 38ee 08       		.byte	0x8
ARM GAS  C:\Users\mathi\AppData\Local\Temp\cc0ZaFXf.s 			page 224


 12402 38ef 00       		.byte	0
 12403 38f0 02       		.uleb128 0x2
 12404 38f1 0A120000 		.4byte	.LASF768
 12405 38f5 36       		.byte	0x36
 12406 38f6 1D       		.byte	0x1d
 12407 38f7 C3380000 		.4byte	0x38c3
 12408 38fb 07       		.uleb128 0x7
 12409 38fc 151D0000 		.4byte	.LASF769
 12410 3900 0C       		.byte	0xc
 12411 3901 36       		.byte	0x36
 12412 3902 1F       		.byte	0x1f
 12413 3903 2C390000 		.4byte	0x392c
 12414 3907 08       		.uleb128 0x8
 12415 3908 F50C0000 		.4byte	.LASF757
 12416 390c 36       		.byte	0x36
 12417 390d 20       		.byte	0x20
 12418 390e D0030000 		.4byte	0x3d0
 12419 3912 00       		.byte	0
 12420 3913 08       		.uleb128 0x8
 12421 3914 B8080000 		.4byte	.LASF758
 12422 3918 36       		.byte	0x36
 12423 3919 21       		.byte	0x21
 12424 391a D0030000 		.4byte	0x3d0
 12425 391e 04       		.byte	0x4
 12426 391f 08       		.uleb128 0x8
 12427 3920 6D060000 		.4byte	.LASF770
 12428 3924 36       		.byte	0x36
 12429 3925 22       		.byte	0x22
 12430 3926 BD380000 		.4byte	0x38bd
 12431 392a 08       		.byte	0x8
 12432 392b 00       		.byte	0
 12433 392c 02       		.uleb128 0x2
 12434 392d EF1E0000 		.4byte	.LASF771
 12435 3931 36       		.byte	0x36
 12436 3932 23       		.byte	0x23
 12437 3933 FB380000 		.4byte	0x38fb
 12438 3937 0B       		.uleb128 0xb
 12439 3938 04       		.byte	0x4
 12440 3939 2C390000 		.4byte	0x392c
 12441 393d 02       		.uleb128 0x2
 12442 393e 0E160000 		.4byte	.LASF772
 12443 3942 37       		.byte	0x37
 12444 3943 16       		.byte	0x16
 12445 3944 8A000000 		.4byte	0x8a
 12446 3948 07       		.uleb128 0x7
 12447 3949 EB1D0000 		.4byte	.LASF773
 12448 394d 18       		.byte	0x18
 12449 394e 37       		.byte	0x37
 12450 394f 2F       		.byte	0x2f
 12451 3950 9B390000 		.4byte	0x399b
 12452 3954 08       		.uleb128 0x8
 12453 3955 22130000 		.4byte	.LASF774
 12454 3959 37       		.byte	0x37
 12455 395a 31       		.byte	0x31
 12456 395b 9B390000 		.4byte	0x399b
 12457 395f 00       		.byte	0
 12458 3960 18       		.uleb128 0x18
ARM GAS  C:\Users\mathi\AppData\Local\Temp\cc0ZaFXf.s 			page 225


 12459 3961 5F6B00   		.ascii	"_k\000"
 12460 3964 37       		.byte	0x37
 12461 3965 32       		.byte	0x32
 12462 3966 AA000000 		.4byte	0xaa
 12463 396a 04       		.byte	0x4
 12464 396b 08       		.uleb128 0x8
 12465 396c B01B0000 		.4byte	.LASF775
 12466 3970 37       		.byte	0x37
 12467 3971 32       		.byte	0x32
 12468 3972 AA000000 		.4byte	0xaa
 12469 3976 08       		.byte	0x8
 12470 3977 08       		.uleb128 0x8
 12471 3978 D41B0000 		.4byte	.LASF776
 12472 397c 37       		.byte	0x37
 12473 397d 32       		.byte	0x32
 12474 397e AA000000 		.4byte	0xaa
 12475 3982 0C       		.byte	0xc
 12476 3983 08       		.uleb128 0x8
 12477 3984 230C0000 		.4byte	.LASF777
 12478 3988 37       		.byte	0x37
 12479 3989 32       		.byte	0x32
 12480 398a AA000000 		.4byte	0xaa
 12481 398e 10       		.byte	0x10
 12482 398f 18       		.uleb128 0x18
 12483 3990 5F7800   		.ascii	"_x\000"
 12484 3993 37       		.byte	0x37
 12485 3994 33       		.byte	0x33
 12486 3995 A1390000 		.4byte	0x39a1
 12487 3999 14       		.byte	0x14
 12488 399a 00       		.byte	0
 12489 399b 0B       		.uleb128 0xb
 12490 399c 04       		.byte	0x4
 12491 399d 48390000 		.4byte	0x3948
 12492 39a1 13       		.uleb128 0x13
 12493 39a2 3D390000 		.4byte	0x393d
 12494 39a6 B1390000 		.4byte	0x39b1
 12495 39aa 14       		.uleb128 0x14
 12496 39ab B1000000 		.4byte	0xb1
 12497 39af 00       		.byte	0
 12498 39b0 00       		.byte	0
 12499 39b1 07       		.uleb128 0x7
 12500 39b2 C11E0000 		.4byte	.LASF778
 12501 39b6 24       		.byte	0x24
 12502 39b7 37       		.byte	0x37
 12503 39b8 37       		.byte	0x37
 12504 39b9 2A3A0000 		.4byte	0x3a2a
 12505 39bd 08       		.uleb128 0x8
 12506 39be 94140000 		.4byte	.LASF779
 12507 39c2 37       		.byte	0x37
 12508 39c3 39       		.byte	0x39
 12509 39c4 AA000000 		.4byte	0xaa
 12510 39c8 00       		.byte	0
 12511 39c9 08       		.uleb128 0x8
 12512 39ca 3D0D0000 		.4byte	.LASF780
 12513 39ce 37       		.byte	0x37
 12514 39cf 3A       		.byte	0x3a
 12515 39d0 AA000000 		.4byte	0xaa
ARM GAS  C:\Users\mathi\AppData\Local\Temp\cc0ZaFXf.s 			page 226


 12516 39d4 04       		.byte	0x4
 12517 39d5 08       		.uleb128 0x8
 12518 39d6 4D110000 		.4byte	.LASF781
 12519 39da 37       		.byte	0x37
 12520 39db 3B       		.byte	0x3b
 12521 39dc AA000000 		.4byte	0xaa
 12522 39e0 08       		.byte	0x8
 12523 39e1 08       		.uleb128 0x8
 12524 39e2 310B0000 		.4byte	.LASF782
 12525 39e6 37       		.byte	0x37
 12526 39e7 3C       		.byte	0x3c
 12527 39e8 AA000000 		.4byte	0xaa
 12528 39ec 0C       		.byte	0xc
 12529 39ed 08       		.uleb128 0x8
 12530 39ee 0F020000 		.4byte	.LASF783
 12531 39f2 37       		.byte	0x37
 12532 39f3 3D       		.byte	0x3d
 12533 39f4 AA000000 		.4byte	0xaa
 12534 39f8 10       		.byte	0x10
 12535 39f9 08       		.uleb128 0x8
 12536 39fa 780D0000 		.4byte	.LASF784
 12537 39fe 37       		.byte	0x37
 12538 39ff 3E       		.byte	0x3e
 12539 3a00 AA000000 		.4byte	0xaa
 12540 3a04 14       		.byte	0x14
 12541 3a05 08       		.uleb128 0x8
 12542 3a06 160B0000 		.4byte	.LASF785
 12543 3a0a 37       		.byte	0x37
 12544 3a0b 3F       		.byte	0x3f
 12545 3a0c AA000000 		.4byte	0xaa
 12546 3a10 18       		.byte	0x18
 12547 3a11 08       		.uleb128 0x8
 12548 3a12 7A0B0000 		.4byte	.LASF786
 12549 3a16 37       		.byte	0x37
 12550 3a17 40       		.byte	0x40
 12551 3a18 AA000000 		.4byte	0xaa
 12552 3a1c 1C       		.byte	0x1c
 12553 3a1d 08       		.uleb128 0x8
 12554 3a1e A3290000 		.4byte	.LASF787
 12555 3a22 37       		.byte	0x37
 12556 3a23 41       		.byte	0x41
 12557 3a24 AA000000 		.4byte	0xaa
 12558 3a28 20       		.byte	0x20
 12559 3a29 00       		.byte	0
 12560 3a2a 2D       		.uleb128 0x2d
 12561 3a2b B5140000 		.4byte	.LASF788
 12562 3a2f 0801     		.2byte	0x108
 12563 3a31 37       		.byte	0x37
 12564 3a32 4A       		.byte	0x4a
 12565 3a33 6A3A0000 		.4byte	0x3a6a
 12566 3a37 08       		.uleb128 0x8
 12567 3a38 80120000 		.4byte	.LASF789
 12568 3a3c 37       		.byte	0x37
 12569 3a3d 4B       		.byte	0x4b
 12570 3a3e 6A3A0000 		.4byte	0x3a6a
 12571 3a42 00       		.byte	0
 12572 3a43 08       		.uleb128 0x8
ARM GAS  C:\Users\mathi\AppData\Local\Temp\cc0ZaFXf.s 			page 227


 12573 3a44 38050000 		.4byte	.LASF790
 12574 3a48 37       		.byte	0x37
 12575 3a49 4C       		.byte	0x4c
 12576 3a4a 6A3A0000 		.4byte	0x3a6a
 12577 3a4e 80       		.byte	0x80
 12578 3a4f 27       		.uleb128 0x27
 12579 3a50 18020000 		.4byte	.LASF791
 12580 3a54 37       		.byte	0x37
 12581 3a55 4E       		.byte	0x4e
 12582 3a56 3D390000 		.4byte	0x393d
 12583 3a5a 0001     		.2byte	0x100
 12584 3a5c 27       		.uleb128 0x27
 12585 3a5d 57220000 		.4byte	.LASF792
 12586 3a61 37       		.byte	0x37
 12587 3a62 51       		.byte	0x51
 12588 3a63 3D390000 		.4byte	0x393d
 12589 3a67 0401     		.2byte	0x104
 12590 3a69 00       		.byte	0
 12591 3a6a 13       		.uleb128 0x13
 12592 3a6b D0030000 		.4byte	0x3d0
 12593 3a6f 7A3A0000 		.4byte	0x3a7a
 12594 3a73 14       		.uleb128 0x14
 12595 3a74 B1000000 		.4byte	0xb1
 12596 3a78 1F       		.byte	0x1f
 12597 3a79 00       		.byte	0
 12598 3a7a 2D       		.uleb128 0x2d
 12599 3a7b 6A010000 		.4byte	.LASF793
 12600 3a7f 9001     		.2byte	0x190
 12601 3a81 37       		.byte	0x37
 12602 3a82 5D       		.byte	0x5d
 12603 3a83 B83A0000 		.4byte	0x3ab8
 12604 3a87 08       		.uleb128 0x8
 12605 3a88 22130000 		.4byte	.LASF774
 12606 3a8c 37       		.byte	0x37
 12607 3a8d 5E       		.byte	0x5e
 12608 3a8e B83A0000 		.4byte	0x3ab8
 12609 3a92 00       		.byte	0
 12610 3a93 08       		.uleb128 0x8
 12611 3a94 78030000 		.4byte	.LASF794
 12612 3a98 37       		.byte	0x37
 12613 3a99 5F       		.byte	0x5f
 12614 3a9a AA000000 		.4byte	0xaa
 12615 3a9e 04       		.byte	0x4
 12616 3a9f 08       		.uleb128 0x8
 12617 3aa0 E6200000 		.4byte	.LASF795
 12618 3aa4 37       		.byte	0x37
 12619 3aa5 61       		.byte	0x61
 12620 3aa6 BE3A0000 		.4byte	0x3abe
 12621 3aaa 08       		.byte	0x8
 12622 3aab 08       		.uleb128 0x8
 12623 3aac B5140000 		.4byte	.LASF788
 12624 3ab0 37       		.byte	0x37
 12625 3ab1 62       		.byte	0x62
 12626 3ab2 2A3A0000 		.4byte	0x3a2a
 12627 3ab6 88       		.byte	0x88
 12628 3ab7 00       		.byte	0
 12629 3ab8 0B       		.uleb128 0xb
ARM GAS  C:\Users\mathi\AppData\Local\Temp\cc0ZaFXf.s 			page 228


 12630 3ab9 04       		.byte	0x4
 12631 3aba 7A3A0000 		.4byte	0x3a7a
 12632 3abe 13       		.uleb128 0x13
 12633 3abf CE3A0000 		.4byte	0x3ace
 12634 3ac3 CE3A0000 		.4byte	0x3ace
 12635 3ac7 14       		.uleb128 0x14
 12636 3ac8 B1000000 		.4byte	0xb1
 12637 3acc 1F       		.byte	0x1f
 12638 3acd 00       		.byte	0
 12639 3ace 0B       		.uleb128 0xb
 12640 3acf 04       		.byte	0x4
 12641 3ad0 D43A0000 		.4byte	0x3ad4
 12642 3ad4 2E       		.uleb128 0x2e
 12643 3ad5 07       		.uleb128 0x7
 12644 3ad6 FF180000 		.4byte	.LASF796
 12645 3ada 08       		.byte	0x8
 12646 3adb 37       		.byte	0x37
 12647 3adc 75       		.byte	0x75
 12648 3add FA3A0000 		.4byte	0x3afa
 12649 3ae1 08       		.uleb128 0x8
 12650 3ae2 F0140000 		.4byte	.LASF797
 12651 3ae6 37       		.byte	0x37
 12652 3ae7 76       		.byte	0x76
 12653 3ae8 FA3A0000 		.4byte	0x3afa
 12654 3aec 00       		.byte	0
 12655 3aed 08       		.uleb128 0x8
 12656 3aee CD0C0000 		.4byte	.LASF798
 12657 3af2 37       		.byte	0x37
 12658 3af3 77       		.byte	0x77
 12659 3af4 AA000000 		.4byte	0xaa
 12660 3af8 04       		.byte	0x4
 12661 3af9 00       		.byte	0
 12662 3afa 0B       		.uleb128 0xb
 12663 3afb 04       		.byte	0x4
 12664 3afc 42000000 		.4byte	0x42
 12665 3b00 07       		.uleb128 0x7
 12666 3b01 CC200000 		.4byte	.LASF799
 12667 3b05 68       		.byte	0x68
 12668 3b06 37       		.byte	0x37
 12669 3b07 B5       		.byte	0xb5
 12670 3b08 2A3C0000 		.4byte	0x3c2a
 12671 3b0c 18       		.uleb128 0x18
 12672 3b0d 5F7000   		.ascii	"_p\000"
 12673 3b10 37       		.byte	0x37
 12674 3b11 B6       		.byte	0xb6
 12675 3b12 FA3A0000 		.4byte	0x3afa
 12676 3b16 00       		.byte	0
 12677 3b17 18       		.uleb128 0x18
 12678 3b18 5F7200   		.ascii	"_r\000"
 12679 3b1b 37       		.byte	0x37
 12680 3b1c B7       		.byte	0xb7
 12681 3b1d AA000000 		.4byte	0xaa
 12682 3b21 04       		.byte	0x4
 12683 3b22 18       		.uleb128 0x18
 12684 3b23 5F7700   		.ascii	"_w\000"
 12685 3b26 37       		.byte	0x37
 12686 3b27 B8       		.byte	0xb8
ARM GAS  C:\Users\mathi\AppData\Local\Temp\cc0ZaFXf.s 			page 229


 12687 3b28 AA000000 		.4byte	0xaa
 12688 3b2c 08       		.byte	0x8
 12689 3b2d 08       		.uleb128 0x8
 12690 3b2e E6030000 		.4byte	.LASF800
 12691 3b32 37       		.byte	0x37
 12692 3b33 B9       		.byte	0xb9
 12693 3b34 54000000 		.4byte	0x54
 12694 3b38 0C       		.byte	0xc
 12695 3b39 08       		.uleb128 0x8
 12696 3b3a 88200000 		.4byte	.LASF801
 12697 3b3e 37       		.byte	0x37
 12698 3b3f BA       		.byte	0xba
 12699 3b40 54000000 		.4byte	0x54
 12700 3b44 0E       		.byte	0xe
 12701 3b45 18       		.uleb128 0x18
 12702 3b46 5F626600 		.ascii	"_bf\000"
 12703 3b4a 37       		.byte	0x37
 12704 3b4b BB       		.byte	0xbb
 12705 3b4c D53A0000 		.4byte	0x3ad5
 12706 3b50 10       		.byte	0x10
 12707 3b51 08       		.uleb128 0x8
 12708 3b52 A9060000 		.4byte	.LASF802
 12709 3b56 37       		.byte	0x37
 12710 3b57 BC       		.byte	0xbc
 12711 3b58 AA000000 		.4byte	0xaa
 12712 3b5c 18       		.byte	0x18
 12713 3b5d 08       		.uleb128 0x8
 12714 3b5e 82130000 		.4byte	.LASF803
 12715 3b62 37       		.byte	0x37
 12716 3b63 C3       		.byte	0xc3
 12717 3b64 D0030000 		.4byte	0x3d0
 12718 3b68 1C       		.byte	0x1c
 12719 3b69 08       		.uleb128 0x8
 12720 3b6a 64290000 		.4byte	.LASF804
 12721 3b6e 37       		.byte	0x37
 12722 3b6f C5       		.byte	0xc5
 12723 3b70 853D0000 		.4byte	0x3d85
 12724 3b74 20       		.byte	0x20
 12725 3b75 08       		.uleb128 0x8
 12726 3b76 D30C0000 		.4byte	.LASF805
 12727 3b7a 37       		.byte	0x37
 12728 3b7b C7       		.byte	0xc7
 12729 3b7c A93D0000 		.4byte	0x3da9
 12730 3b80 24       		.byte	0x24
 12731 3b81 08       		.uleb128 0x8
 12732 3b82 57170000 		.4byte	.LASF806
 12733 3b86 37       		.byte	0x37
 12734 3b87 CA       		.byte	0xca
 12735 3b88 CD3D0000 		.4byte	0x3dcd
 12736 3b8c 28       		.byte	0x28
 12737 3b8d 08       		.uleb128 0x8
 12738 3b8e C01C0000 		.4byte	.LASF807
 12739 3b92 37       		.byte	0x37
 12740 3b93 CB       		.byte	0xcb
 12741 3b94 E73D0000 		.4byte	0x3de7
 12742 3b98 2C       		.byte	0x2c
 12743 3b99 18       		.uleb128 0x18
ARM GAS  C:\Users\mathi\AppData\Local\Temp\cc0ZaFXf.s 			page 230


 12744 3b9a 5F756200 		.ascii	"_ub\000"
 12745 3b9e 37       		.byte	0x37
 12746 3b9f CE       		.byte	0xce
 12747 3ba0 D53A0000 		.4byte	0x3ad5
 12748 3ba4 30       		.byte	0x30
 12749 3ba5 18       		.uleb128 0x18
 12750 3ba6 5F757000 		.ascii	"_up\000"
 12751 3baa 37       		.byte	0x37
 12752 3bab CF       		.byte	0xcf
 12753 3bac FA3A0000 		.4byte	0x3afa
 12754 3bb0 38       		.byte	0x38
 12755 3bb1 18       		.uleb128 0x18
 12756 3bb2 5F757200 		.ascii	"_ur\000"
 12757 3bb6 37       		.byte	0x37
 12758 3bb7 D0       		.byte	0xd0
 12759 3bb8 AA000000 		.4byte	0xaa
 12760 3bbc 3C       		.byte	0x3c
 12761 3bbd 08       		.uleb128 0x8
 12762 3bbe A61F0000 		.4byte	.LASF808
 12763 3bc2 37       		.byte	0x37
 12764 3bc3 D3       		.byte	0xd3
 12765 3bc4 ED3D0000 		.4byte	0x3ded
 12766 3bc8 40       		.byte	0x40
 12767 3bc9 08       		.uleb128 0x8
 12768 3bca AB040000 		.4byte	.LASF809
 12769 3bce 37       		.byte	0x37
 12770 3bcf D4       		.byte	0xd4
 12771 3bd0 FD3D0000 		.4byte	0x3dfd
 12772 3bd4 43       		.byte	0x43
 12773 3bd5 18       		.uleb128 0x18
 12774 3bd6 5F6C6200 		.ascii	"_lb\000"
 12775 3bda 37       		.byte	0x37
 12776 3bdb D7       		.byte	0xd7
 12777 3bdc D53A0000 		.4byte	0x3ad5
 12778 3be0 44       		.byte	0x44
 12779 3be1 08       		.uleb128 0x8
 12780 3be2 930D0000 		.4byte	.LASF810
 12781 3be6 37       		.byte	0x37
 12782 3be7 DA       		.byte	0xda
 12783 3be8 AA000000 		.4byte	0xaa
 12784 3bec 4C       		.byte	0x4c
 12785 3bed 08       		.uleb128 0x8
 12786 3bee 91180000 		.4byte	.LASF811
 12787 3bf2 37       		.byte	0x37
 12788 3bf3 DB       		.byte	0xdb
 12789 3bf4 19370000 		.4byte	0x3719
 12790 3bf8 50       		.byte	0x50
 12791 3bf9 08       		.uleb128 0x8
 12792 3bfa EB240000 		.4byte	.LASF812
 12793 3bfe 37       		.byte	0x37
 12794 3bff DE       		.byte	0xde
 12795 3c00 483C0000 		.4byte	0x3c48
 12796 3c04 54       		.byte	0x54
 12797 3c05 08       		.uleb128 0x8
 12798 3c06 A5040000 		.4byte	.LASF813
 12799 3c0a 37       		.byte	0x37
 12800 3c0b E2       		.byte	0xe2
ARM GAS  C:\Users\mathi\AppData\Local\Temp\cc0ZaFXf.s 			page 231


 12801 3c0c 96370000 		.4byte	0x3796
 12802 3c10 58       		.byte	0x58
 12803 3c11 08       		.uleb128 0x8
 12804 3c12 DB150000 		.4byte	.LASF814
 12805 3c16 37       		.byte	0x37
 12806 3c17 E4       		.byte	0xe4
 12807 3c18 8B370000 		.4byte	0x378b
 12808 3c1c 5C       		.byte	0x5c
 12809 3c1d 08       		.uleb128 0x8
 12810 3c1e B9260000 		.4byte	.LASF815
 12811 3c22 37       		.byte	0x37
 12812 3c23 E5       		.byte	0xe5
 12813 3c24 AA000000 		.4byte	0xaa
 12814 3c28 64       		.byte	0x64
 12815 3c29 00       		.byte	0
 12816 3c2a 20       		.uleb128 0x20
 12817 3c2b AA000000 		.4byte	0xaa
 12818 3c2f 483C0000 		.4byte	0x3c48
 12819 3c33 0E       		.uleb128 0xe
 12820 3c34 483C0000 		.4byte	0x3c48
 12821 3c38 0E       		.uleb128 0xe
 12822 3c39 D0030000 		.4byte	0x3d0
 12823 3c3d 0E       		.uleb128 0xe
 12824 3c3e A1370000 		.4byte	0x37a1
 12825 3c42 0E       		.uleb128 0xe
 12826 3c43 AA000000 		.4byte	0xaa
 12827 3c47 00       		.byte	0
 12828 3c48 0B       		.uleb128 0xb
 12829 3c49 04       		.byte	0x4
 12830 3c4a 533C0000 		.4byte	0x3c53
 12831 3c4e 05       		.uleb128 0x5
 12832 3c4f 483C0000 		.4byte	0x3c48
 12833 3c53 10       		.uleb128 0x10
 12834 3c54 78190000 		.4byte	.LASF816
 12835 3c58 2804     		.2byte	0x428
 12836 3c5a 37       		.byte	0x37
 12837 3c5b 3902     		.2byte	0x239
 12838 3c5d 853D0000 		.4byte	0x3d85
 12839 3c61 0A       		.uleb128 0xa
 12840 3c62 03120000 		.4byte	.LASF817
 12841 3c66 37       		.byte	0x37
 12842 3c67 3B02     		.2byte	0x23b
 12843 3c69 AA000000 		.4byte	0xaa
 12844 3c6d 00       		.byte	0
 12845 3c6e 0A       		.uleb128 0xa
 12846 3c6f AF0E0000 		.4byte	.LASF818
 12847 3c73 37       		.byte	0x37
 12848 3c74 4002     		.2byte	0x240
 12849 3c76 543E0000 		.4byte	0x3e54
 12850 3c7a 04       		.byte	0x4
 12851 3c7b 0A       		.uleb128 0xa
 12852 3c7c A20B0000 		.4byte	.LASF819
 12853 3c80 37       		.byte	0x37
 12854 3c81 4002     		.2byte	0x240
 12855 3c83 543E0000 		.4byte	0x3e54
 12856 3c87 08       		.byte	0x8
 12857 3c88 0A       		.uleb128 0xa
ARM GAS  C:\Users\mathi\AppData\Local\Temp\cc0ZaFXf.s 			page 232


 12858 3c89 B20A0000 		.4byte	.LASF820
 12859 3c8d 37       		.byte	0x37
 12860 3c8e 4002     		.2byte	0x240
 12861 3c90 543E0000 		.4byte	0x3e54
 12862 3c94 0C       		.byte	0xc
 12863 3c95 0A       		.uleb128 0xa
 12864 3c96 73030000 		.4byte	.LASF821
 12865 3c9a 37       		.byte	0x37
 12866 3c9b 4202     		.2byte	0x242
 12867 3c9d AA000000 		.4byte	0xaa
 12868 3ca1 10       		.byte	0x10
 12869 3ca2 0A       		.uleb128 0xa
 12870 3ca3 9E100000 		.4byte	.LASF822
 12871 3ca7 37       		.byte	0x37
 12872 3ca8 4302     		.2byte	0x243
 12873 3caa 36400000 		.4byte	0x4036
 12874 3cae 14       		.byte	0x14
 12875 3caf 0A       		.uleb128 0xa
 12876 3cb0 36250000 		.4byte	.LASF823
 12877 3cb4 37       		.byte	0x37
 12878 3cb5 4602     		.2byte	0x246
 12879 3cb7 AA000000 		.4byte	0xaa
 12880 3cbb 30       		.byte	0x30
 12881 3cbc 0A       		.uleb128 0xa
 12882 3cbd 14270000 		.4byte	.LASF824
 12883 3cc1 37       		.byte	0x37
 12884 3cc2 4702     		.2byte	0x247
 12885 3cc4 4B400000 		.4byte	0x404b
 12886 3cc8 34       		.byte	0x34
 12887 3cc9 0A       		.uleb128 0xa
 12888 3cca 9A250000 		.4byte	.LASF825
 12889 3cce 37       		.byte	0x37
 12890 3ccf 4902     		.2byte	0x249
 12891 3cd1 AA000000 		.4byte	0xaa
 12892 3cd5 38       		.byte	0x38
 12893 3cd6 0A       		.uleb128 0xa
 12894 3cd7 FD1F0000 		.4byte	.LASF826
 12895 3cdb 37       		.byte	0x37
 12896 3cdc 4B02     		.2byte	0x24b
 12897 3cde 5C400000 		.4byte	0x405c
 12898 3ce2 3C       		.byte	0x3c
 12899 3ce3 0A       		.uleb128 0xa
 12900 3ce4 BA0A0000 		.4byte	.LASF827
 12901 3ce8 37       		.byte	0x37
 12902 3ce9 4E02     		.2byte	0x24e
 12903 3ceb 9B390000 		.4byte	0x399b
 12904 3cef 40       		.byte	0x40
 12905 3cf0 0A       		.uleb128 0xa
 12906 3cf1 A30A0000 		.4byte	.LASF828
 12907 3cf5 37       		.byte	0x37
 12908 3cf6 4F02     		.2byte	0x24f
 12909 3cf8 AA000000 		.4byte	0xaa
 12910 3cfc 44       		.byte	0x44
 12911 3cfd 0A       		.uleb128 0xa
 12912 3cfe A7220000 		.4byte	.LASF829
 12913 3d02 37       		.byte	0x37
 12914 3d03 5002     		.2byte	0x250
ARM GAS  C:\Users\mathi\AppData\Local\Temp\cc0ZaFXf.s 			page 233


 12915 3d05 9B390000 		.4byte	0x399b
 12916 3d09 48       		.byte	0x48
 12917 3d0a 0A       		.uleb128 0xa
 12918 3d0b 56180000 		.4byte	.LASF830
 12919 3d0f 37       		.byte	0x37
 12920 3d10 5102     		.2byte	0x251
 12921 3d12 62400000 		.4byte	0x4062
 12922 3d16 4C       		.byte	0x4c
 12923 3d17 0A       		.uleb128 0xa
 12924 3d18 34040000 		.4byte	.LASF831
 12925 3d1c 37       		.byte	0x37
 12926 3d1d 5402     		.2byte	0x254
 12927 3d1f AA000000 		.4byte	0xaa
 12928 3d23 50       		.byte	0x50
 12929 3d24 0A       		.uleb128 0xa
 12930 3d25 81100000 		.4byte	.LASF832
 12931 3d29 37       		.byte	0x37
 12932 3d2a 5502     		.2byte	0x255
 12933 3d2c A1370000 		.4byte	0x37a1
 12934 3d30 54       		.byte	0x54
 12935 3d31 0A       		.uleb128 0xa
 12936 3d32 F6060000 		.4byte	.LASF833
 12937 3d36 37       		.byte	0x37
 12938 3d37 7802     		.2byte	0x278
 12939 3d39 14400000 		.4byte	0x4014
 12940 3d3d 58       		.byte	0x58
 12941 3d3e 11       		.uleb128 0x11
 12942 3d3f 6A010000 		.4byte	.LASF793
 12943 3d43 37       		.byte	0x37
 12944 3d44 7C02     		.2byte	0x27c
 12945 3d46 B83A0000 		.4byte	0x3ab8
 12946 3d4a 4801     		.2byte	0x148
 12947 3d4c 11       		.uleb128 0x11
 12948 3d4d 1B1E0000 		.4byte	.LASF834
 12949 3d51 37       		.byte	0x37
 12950 3d52 7D02     		.2byte	0x27d
 12951 3d54 7A3A0000 		.4byte	0x3a7a
 12952 3d58 4C01     		.2byte	0x14c
 12953 3d5a 11       		.uleb128 0x11
 12954 3d5b 62040000 		.4byte	.LASF835
 12955 3d5f 37       		.byte	0x37
 12956 3d60 8102     		.2byte	0x281
 12957 3d62 73400000 		.4byte	0x4073
 12958 3d66 DC02     		.2byte	0x2dc
 12959 3d68 11       		.uleb128 0x11
 12960 3d69 DB1F0000 		.4byte	.LASF836
 12961 3d6d 37       		.byte	0x37
 12962 3d6e 8602     		.2byte	0x286
 12963 3d70 193E0000 		.4byte	0x3e19
 12964 3d74 E002     		.2byte	0x2e0
 12965 3d76 11       		.uleb128 0x11
 12966 3d77 25080000 		.4byte	.LASF837
 12967 3d7b 37       		.byte	0x37
 12968 3d7c 8802     		.2byte	0x288
 12969 3d7e 7F400000 		.4byte	0x407f
 12970 3d82 EC02     		.2byte	0x2ec
 12971 3d84 00       		.byte	0
ARM GAS  C:\Users\mathi\AppData\Local\Temp\cc0ZaFXf.s 			page 234


 12972 3d85 0B       		.uleb128 0xb
 12973 3d86 04       		.byte	0x4
 12974 3d87 2A3C0000 		.4byte	0x3c2a
 12975 3d8b 20       		.uleb128 0x20
 12976 3d8c AA000000 		.4byte	0xaa
 12977 3d90 A93D0000 		.4byte	0x3da9
 12978 3d94 0E       		.uleb128 0xe
 12979 3d95 483C0000 		.4byte	0x3c48
 12980 3d99 0E       		.uleb128 0xe
 12981 3d9a D0030000 		.4byte	0x3d0
 12982 3d9e 0E       		.uleb128 0xe
 12983 3d9f 15110000 		.4byte	0x1115
 12984 3da3 0E       		.uleb128 0xe
 12985 3da4 AA000000 		.4byte	0xaa
 12986 3da8 00       		.byte	0
 12987 3da9 0B       		.uleb128 0xb
 12988 3daa 04       		.byte	0x4
 12989 3dab 8B3D0000 		.4byte	0x3d8b
 12990 3daf 20       		.uleb128 0x20
 12991 3db0 24370000 		.4byte	0x3724
 12992 3db4 CD3D0000 		.4byte	0x3dcd
 12993 3db8 0E       		.uleb128 0xe
 12994 3db9 483C0000 		.4byte	0x3c48
 12995 3dbd 0E       		.uleb128 0xe
 12996 3dbe D0030000 		.4byte	0x3d0
 12997 3dc2 0E       		.uleb128 0xe
 12998 3dc3 24370000 		.4byte	0x3724
 12999 3dc7 0E       		.uleb128 0xe
 13000 3dc8 AA000000 		.4byte	0xaa
 13001 3dcc 00       		.byte	0
 13002 3dcd 0B       		.uleb128 0xb
 13003 3dce 04       		.byte	0x4
 13004 3dcf AF3D0000 		.4byte	0x3daf
 13005 3dd3 20       		.uleb128 0x20
 13006 3dd4 AA000000 		.4byte	0xaa
 13007 3dd8 E73D0000 		.4byte	0x3de7
 13008 3ddc 0E       		.uleb128 0xe
 13009 3ddd 483C0000 		.4byte	0x3c48
 13010 3de1 0E       		.uleb128 0xe
 13011 3de2 D0030000 		.4byte	0x3d0
 13012 3de6 00       		.byte	0
 13013 3de7 0B       		.uleb128 0xb
 13014 3de8 04       		.byte	0x4
 13015 3de9 D33D0000 		.4byte	0x3dd3
 13016 3ded 13       		.uleb128 0x13
 13017 3dee 42000000 		.4byte	0x42
 13018 3df2 FD3D0000 		.4byte	0x3dfd
 13019 3df6 14       		.uleb128 0x14
 13020 3df7 B1000000 		.4byte	0xb1
 13021 3dfb 02       		.byte	0x2
 13022 3dfc 00       		.byte	0
 13023 3dfd 13       		.uleb128 0x13
 13024 3dfe 42000000 		.4byte	0x42
 13025 3e02 0D3E0000 		.4byte	0x3e0d
 13026 3e06 14       		.uleb128 0x14
 13027 3e07 B1000000 		.4byte	0xb1
 13028 3e0b 00       		.byte	0
ARM GAS  C:\Users\mathi\AppData\Local\Temp\cc0ZaFXf.s 			page 235


 13029 3e0c 00       		.byte	0
 13030 3e0d 1A       		.uleb128 0x1a
 13031 3e0e 4C280000 		.4byte	.LASF838
 13032 3e12 37       		.byte	0x37
 13033 3e13 1F01     		.2byte	0x11f
 13034 3e15 003B0000 		.4byte	0x3b00
 13035 3e19 0C       		.uleb128 0xc
 13036 3e1a FC1C0000 		.4byte	.LASF839
 13037 3e1e 0C       		.byte	0xc
 13038 3e1f 37       		.byte	0x37
 13039 3e20 2301     		.2byte	0x123
 13040 3e22 4E3E0000 		.4byte	0x3e4e
 13041 3e26 0A       		.uleb128 0xa
 13042 3e27 22130000 		.4byte	.LASF774
 13043 3e2b 37       		.byte	0x37
 13044 3e2c 2501     		.2byte	0x125
 13045 3e2e 4E3E0000 		.4byte	0x3e4e
 13046 3e32 00       		.byte	0
 13047 3e33 0A       		.uleb128 0xa
 13048 3e34 D6110000 		.4byte	.LASF840
 13049 3e38 37       		.byte	0x37
 13050 3e39 2601     		.2byte	0x126
 13051 3e3b AA000000 		.4byte	0xaa
 13052 3e3f 04       		.byte	0x4
 13053 3e40 0A       		.uleb128 0xa
 13054 3e41 261B0000 		.4byte	.LASF841
 13055 3e45 37       		.byte	0x37
 13056 3e46 2701     		.2byte	0x127
 13057 3e48 543E0000 		.4byte	0x3e54
 13058 3e4c 08       		.byte	0x8
 13059 3e4d 00       		.byte	0
 13060 3e4e 0B       		.uleb128 0xb
 13061 3e4f 04       		.byte	0x4
 13062 3e50 193E0000 		.4byte	0x3e19
 13063 3e54 0B       		.uleb128 0xb
 13064 3e55 04       		.byte	0x4
 13065 3e56 0D3E0000 		.4byte	0x3e0d
 13066 3e5a 0C       		.uleb128 0xc
 13067 3e5b 8F290000 		.4byte	.LASF842
 13068 3e5f 0E       		.byte	0xe
 13069 3e60 37       		.byte	0x37
 13070 3e61 3F01     		.2byte	0x13f
 13071 3e63 8F3E0000 		.4byte	0x3e8f
 13072 3e67 0A       		.uleb128 0xa
 13073 3e68 42170000 		.4byte	.LASF843
 13074 3e6c 37       		.byte	0x37
 13075 3e6d 4001     		.2byte	0x140
 13076 3e6f 8F3E0000 		.4byte	0x3e8f
 13077 3e73 00       		.byte	0
 13078 3e74 0A       		.uleb128 0xa
 13079 3e75 46290000 		.4byte	.LASF844
 13080 3e79 37       		.byte	0x37
 13081 3e7a 4101     		.2byte	0x141
 13082 3e7c 8F3E0000 		.4byte	0x3e8f
 13083 3e80 06       		.byte	0x6
 13084 3e81 0A       		.uleb128 0xa
 13085 3e82 55190000 		.4byte	.LASF845
ARM GAS  C:\Users\mathi\AppData\Local\Temp\cc0ZaFXf.s 			page 236


 13086 3e86 37       		.byte	0x37
 13087 3e87 4201     		.2byte	0x142
 13088 3e89 66000000 		.4byte	0x66
 13089 3e8d 0C       		.byte	0xc
 13090 3e8e 00       		.byte	0
 13091 3e8f 13       		.uleb128 0x13
 13092 3e90 66000000 		.4byte	0x66
 13093 3e94 9F3E0000 		.4byte	0x3e9f
 13094 3e98 14       		.uleb128 0x14
 13095 3e99 B1000000 		.4byte	0xb1
 13096 3e9d 02       		.byte	0x2
 13097 3e9e 00       		.byte	0
 13098 3e9f 19       		.uleb128 0x19
 13099 3ea0 D0       		.byte	0xd0
 13100 3ea1 37       		.byte	0x37
 13101 3ea2 5902     		.2byte	0x259
 13102 3ea4 A03F0000 		.4byte	0x3fa0
 13103 3ea8 0A       		.uleb128 0xa
 13104 3ea9 040A0000 		.4byte	.LASF846
 13105 3ead 37       		.byte	0x37
 13106 3eae 5B02     		.2byte	0x25b
 13107 3eb0 B1000000 		.4byte	0xb1
 13108 3eb4 00       		.byte	0
 13109 3eb5 0A       		.uleb128 0xa
 13110 3eb6 AE160000 		.4byte	.LASF847
 13111 3eba 37       		.byte	0x37
 13112 3ebb 5C02     		.2byte	0x25c
 13113 3ebd A1370000 		.4byte	0x37a1
 13114 3ec1 04       		.byte	0x4
 13115 3ec2 0A       		.uleb128 0xa
 13116 3ec3 96190000 		.4byte	.LASF848
 13117 3ec7 37       		.byte	0x37
 13118 3ec8 5D02     		.2byte	0x25d
 13119 3eca A03F0000 		.4byte	0x3fa0
 13120 3ece 08       		.byte	0x8
 13121 3ecf 0A       		.uleb128 0xa
 13122 3ed0 C3140000 		.4byte	.LASF849
 13123 3ed4 37       		.byte	0x37
 13124 3ed5 5E02     		.2byte	0x25e
 13125 3ed7 B1390000 		.4byte	0x39b1
 13126 3edb 24       		.byte	0x24
 13127 3edc 0A       		.uleb128 0xa
 13128 3edd 59240000 		.4byte	.LASF850
 13129 3ee1 37       		.byte	0x37
 13130 3ee2 5F02     		.2byte	0x25f
 13131 3ee4 AA000000 		.4byte	0xaa
 13132 3ee8 48       		.byte	0x48
 13133 3ee9 0A       		.uleb128 0xa
 13134 3eea 5C1B0000 		.4byte	.LASF851
 13135 3eee 37       		.byte	0x37
 13136 3eef 6002     		.2byte	0x260
 13137 3ef1 A3000000 		.4byte	0xa3
 13138 3ef5 50       		.byte	0x50
 13139 3ef6 0A       		.uleb128 0xa
 13140 3ef7 8D270000 		.4byte	.LASF852
 13141 3efb 37       		.byte	0x37
 13142 3efc 6102     		.2byte	0x261
ARM GAS  C:\Users\mathi\AppData\Local\Temp\cc0ZaFXf.s 			page 237


 13143 3efe 5A3E0000 		.4byte	0x3e5a
 13144 3f02 58       		.byte	0x58
 13145 3f03 0A       		.uleb128 0xa
 13146 3f04 CE1F0000 		.4byte	.LASF853
 13147 3f08 37       		.byte	0x37
 13148 3f09 6202     		.2byte	0x262
 13149 3f0b 8B370000 		.4byte	0x378b
 13150 3f0f 68       		.byte	0x68
 13151 3f10 0A       		.uleb128 0xa
 13152 3f11 54080000 		.4byte	.LASF854
 13153 3f15 37       		.byte	0x37
 13154 3f16 6302     		.2byte	0x263
 13155 3f18 8B370000 		.4byte	0x378b
 13156 3f1c 70       		.byte	0x70
 13157 3f1d 0A       		.uleb128 0xa
 13158 3f1e A2050000 		.4byte	.LASF855
 13159 3f22 37       		.byte	0x37
 13160 3f23 6402     		.2byte	0x264
 13161 3f25 8B370000 		.4byte	0x378b
 13162 3f29 78       		.byte	0x78
 13163 3f2a 0A       		.uleb128 0xa
 13164 3f2b 8C190000 		.4byte	.LASF856
 13165 3f2f 37       		.byte	0x37
 13166 3f30 6502     		.2byte	0x265
 13167 3f32 B03F0000 		.4byte	0x3fb0
 13168 3f36 80       		.byte	0x80
 13169 3f37 0A       		.uleb128 0xa
 13170 3f38 58130000 		.4byte	.LASF857
 13171 3f3c 37       		.byte	0x37
 13172 3f3d 6602     		.2byte	0x266
 13173 3f3f C03F0000 		.4byte	0x3fc0
 13174 3f43 88       		.byte	0x88
 13175 3f44 0A       		.uleb128 0xa
 13176 3f45 8C1E0000 		.4byte	.LASF858
 13177 3f49 37       		.byte	0x37
 13178 3f4a 6702     		.2byte	0x267
 13179 3f4c AA000000 		.4byte	0xaa
 13180 3f50 A0       		.byte	0xa0
 13181 3f51 0A       		.uleb128 0xa
 13182 3f52 410E0000 		.4byte	.LASF859
 13183 3f56 37       		.byte	0x37
 13184 3f57 6802     		.2byte	0x268
 13185 3f59 8B370000 		.4byte	0x378b
 13186 3f5d A4       		.byte	0xa4
 13187 3f5e 0A       		.uleb128 0xa
 13188 3f5f 4D000000 		.4byte	.LASF860
 13189 3f63 37       		.byte	0x37
 13190 3f64 6902     		.2byte	0x269
 13191 3f66 8B370000 		.4byte	0x378b
 13192 3f6a AC       		.byte	0xac
 13193 3f6b 0A       		.uleb128 0xa
 13194 3f6c FC0B0000 		.4byte	.LASF861
 13195 3f70 37       		.byte	0x37
 13196 3f71 6A02     		.2byte	0x26a
 13197 3f73 8B370000 		.4byte	0x378b
 13198 3f77 B4       		.byte	0xb4
 13199 3f78 0A       		.uleb128 0xa
ARM GAS  C:\Users\mathi\AppData\Local\Temp\cc0ZaFXf.s 			page 238


 13200 3f79 3E150000 		.4byte	.LASF862
 13201 3f7d 37       		.byte	0x37
 13202 3f7e 6B02     		.2byte	0x26b
 13203 3f80 8B370000 		.4byte	0x378b
 13204 3f84 BC       		.byte	0xbc
 13205 3f85 0A       		.uleb128 0xa
 13206 3f86 E5190000 		.4byte	.LASF863
 13207 3f8a 37       		.byte	0x37
 13208 3f8b 6C02     		.2byte	0x26c
 13209 3f8d 8B370000 		.4byte	0x378b
 13210 3f91 C4       		.byte	0xc4
 13211 3f92 0A       		.uleb128 0xa
 13212 3f93 39210000 		.4byte	.LASF864
 13213 3f97 37       		.byte	0x37
 13214 3f98 6D02     		.2byte	0x26d
 13215 3f9a AA000000 		.4byte	0xaa
 13216 3f9e CC       		.byte	0xcc
 13217 3f9f 00       		.byte	0
 13218 3fa0 13       		.uleb128 0x13
 13219 3fa1 20110000 		.4byte	0x1120
 13220 3fa5 B03F0000 		.4byte	0x3fb0
 13221 3fa9 14       		.uleb128 0x14
 13222 3faa B1000000 		.4byte	0xb1
 13223 3fae 19       		.byte	0x19
 13224 3faf 00       		.byte	0
 13225 3fb0 13       		.uleb128 0x13
 13226 3fb1 20110000 		.4byte	0x1120
 13227 3fb5 C03F0000 		.4byte	0x3fc0
 13228 3fb9 14       		.uleb128 0x14
 13229 3fba B1000000 		.4byte	0xb1
 13230 3fbe 07       		.byte	0x7
 13231 3fbf 00       		.byte	0
 13232 3fc0 13       		.uleb128 0x13
 13233 3fc1 20110000 		.4byte	0x1120
 13234 3fc5 D03F0000 		.4byte	0x3fd0
 13235 3fc9 14       		.uleb128 0x14
 13236 3fca B1000000 		.4byte	0xb1
 13237 3fce 17       		.byte	0x17
 13238 3fcf 00       		.byte	0
 13239 3fd0 19       		.uleb128 0x19
 13240 3fd1 F0       		.byte	0xf0
 13241 3fd2 37       		.byte	0x37
 13242 3fd3 7202     		.2byte	0x272
 13243 3fd5 F43F0000 		.4byte	0x3ff4
 13244 3fd9 0A       		.uleb128 0xa
 13245 3fda D4260000 		.4byte	.LASF865
 13246 3fde 37       		.byte	0x37
 13247 3fdf 7502     		.2byte	0x275
 13248 3fe1 F43F0000 		.4byte	0x3ff4
 13249 3fe5 00       		.byte	0
 13250 3fe6 0A       		.uleb128 0xa
 13251 3fe7 B60E0000 		.4byte	.LASF866
 13252 3feb 37       		.byte	0x37
 13253 3fec 7602     		.2byte	0x276
 13254 3fee 04400000 		.4byte	0x4004
 13255 3ff2 78       		.byte	0x78
 13256 3ff3 00       		.byte	0
ARM GAS  C:\Users\mathi\AppData\Local\Temp\cc0ZaFXf.s 			page 239


 13257 3ff4 13       		.uleb128 0x13
 13258 3ff5 FA3A0000 		.4byte	0x3afa
 13259 3ff9 04400000 		.4byte	0x4004
 13260 3ffd 14       		.uleb128 0x14
 13261 3ffe B1000000 		.4byte	0xb1
 13262 4002 1D       		.byte	0x1d
 13263 4003 00       		.byte	0
 13264 4004 13       		.uleb128 0x13
 13265 4005 B1000000 		.4byte	0xb1
 13266 4009 14400000 		.4byte	0x4014
 13267 400d 14       		.uleb128 0x14
 13268 400e B1000000 		.4byte	0xb1
 13269 4012 1D       		.byte	0x1d
 13270 4013 00       		.byte	0
 13271 4014 2B       		.uleb128 0x2b
 13272 4015 F0       		.byte	0xf0
 13273 4016 37       		.byte	0x37
 13274 4017 5702     		.2byte	0x257
 13275 4019 36400000 		.4byte	0x4036
 13276 401d 1E       		.uleb128 0x1e
 13277 401e 78190000 		.4byte	.LASF816
 13278 4022 37       		.byte	0x37
 13279 4023 6E02     		.2byte	0x26e
 13280 4025 9F3E0000 		.4byte	0x3e9f
 13281 4029 1E       		.uleb128 0x1e
 13282 402a 801F0000 		.4byte	.LASF867
 13283 402e 37       		.byte	0x37
 13284 402f 7702     		.2byte	0x277
 13285 4031 D03F0000 		.4byte	0x3fd0
 13286 4035 00       		.byte	0
 13287 4036 13       		.uleb128 0x13
 13288 4037 20110000 		.4byte	0x1120
 13289 403b 46400000 		.4byte	0x4046
 13290 403f 14       		.uleb128 0x14
 13291 4040 B1000000 		.4byte	0xb1
 13292 4044 18       		.byte	0x18
 13293 4045 00       		.byte	0
 13294 4046 2C       		.uleb128 0x2c
 13295 4047 E31F0000 		.4byte	.LASF869
 13296 404b 0B       		.uleb128 0xb
 13297 404c 04       		.byte	0x4
 13298 404d 46400000 		.4byte	0x4046
 13299 4051 0D       		.uleb128 0xd
 13300 4052 5C400000 		.4byte	0x405c
 13301 4056 0E       		.uleb128 0xe
 13302 4057 483C0000 		.4byte	0x3c48
 13303 405b 00       		.byte	0
 13304 405c 0B       		.uleb128 0xb
 13305 405d 04       		.byte	0x4
 13306 405e 51400000 		.4byte	0x4051
 13307 4062 0B       		.uleb128 0xb
 13308 4063 04       		.byte	0x4
 13309 4064 9B390000 		.4byte	0x399b
 13310 4068 0D       		.uleb128 0xd
 13311 4069 73400000 		.4byte	0x4073
 13312 406d 0E       		.uleb128 0xe
 13313 406e AA000000 		.4byte	0xaa
ARM GAS  C:\Users\mathi\AppData\Local\Temp\cc0ZaFXf.s 			page 240


 13314 4072 00       		.byte	0
 13315 4073 0B       		.uleb128 0xb
 13316 4074 04       		.byte	0x4
 13317 4075 79400000 		.4byte	0x4079
 13318 4079 0B       		.uleb128 0xb
 13319 407a 04       		.byte	0x4
 13320 407b 68400000 		.4byte	0x4068
 13321 407f 13       		.uleb128 0x13
 13322 4080 0D3E0000 		.4byte	0x3e0d
 13323 4084 8F400000 		.4byte	0x408f
 13324 4088 14       		.uleb128 0x14
 13325 4089 B1000000 		.4byte	0xb1
 13326 408d 02       		.byte	0x2
 13327 408e 00       		.byte	0
 13328 408f 15       		.uleb128 0x15
 13329 4090 651F0000 		.4byte	.LASF870
 13330 4094 37       		.byte	0x37
 13331 4095 0703     		.2byte	0x307
 13332 4097 483C0000 		.4byte	0x3c48
 13333 409b 15       		.uleb128 0x15
 13334 409c 8C230000 		.4byte	.LASF871
 13335 40a0 37       		.byte	0x37
 13336 40a1 0803     		.2byte	0x308
 13337 40a3 4E3C0000 		.4byte	0x3c4e
 13338 40a7 16       		.uleb128 0x16
 13339 40a8 B5010000 		.4byte	.LASF872
 13340 40ac 38       		.byte	0x38
 13341 40ad 63       		.byte	0x63
 13342 40ae A1370000 		.4byte	0x37a1
 13343 40b2 02       		.uleb128 0x2
 13344 40b3 8A130000 		.4byte	.LASF873
 13345 40b7 39       		.byte	0x39
 13346 40b8 08       		.byte	0x8
 13347 40b9 BD400000 		.4byte	0x40bd
 13348 40bd 07       		.uleb128 0x7
 13349 40be 21220000 		.4byte	.LASF874
 13350 40c2 18       		.byte	0x18
 13351 40c3 39       		.byte	0x39
 13352 40c4 0B       		.byte	0xb
 13353 40c5 11410000 		.4byte	0x4111
 13354 40c9 18       		.uleb128 0x18
 13355 40ca 696400   		.ascii	"id\000"
 13356 40cd 39       		.byte	0x39
 13357 40ce 0C       		.byte	0xc
 13358 40cf 15110000 		.4byte	0x1115
 13359 40d3 00       		.byte	0
 13360 40d4 08       		.uleb128 0x8
 13361 40d5 A9010000 		.4byte	.LASF875
 13362 40d9 39       		.byte	0x39
 13363 40da 0D       		.byte	0xd
 13364 40db E9000000 		.4byte	0xe9
 13365 40df 04       		.byte	0x4
 13366 40e0 08       		.uleb128 0x8
 13367 40e1 51060000 		.4byte	.LASF876
 13368 40e5 39       		.byte	0x39
 13369 40e6 0E       		.byte	0xe
 13370 40e7 7B410000 		.4byte	0x417b
ARM GAS  C:\Users\mathi\AppData\Local\Temp\cc0ZaFXf.s 			page 241


 13371 40eb 08       		.byte	0x8
 13372 40ec 08       		.uleb128 0x8
 13373 40ed 560D0000 		.4byte	.LASF877
 13374 40f1 39       		.byte	0x39
 13375 40f2 0F       		.byte	0xf
 13376 40f3 7B410000 		.4byte	0x417b
 13377 40f7 0C       		.byte	0xc
 13378 40f8 08       		.uleb128 0x8
 13379 40f9 ED030000 		.4byte	.LASF762
 13380 40fd 39       		.byte	0x39
 13381 40fe 10       		.byte	0x10
 13382 40ff 7B410000 		.4byte	0x417b
 13383 4103 10       		.byte	0x10
 13384 4104 08       		.uleb128 0x8
 13385 4105 3D280000 		.4byte	.LASF878
 13386 4109 39       		.byte	0x39
 13387 410a 11       		.byte	0x11
 13388 410b 81410000 		.4byte	0x4181
 13389 410f 14       		.byte	0x14
 13390 4110 00       		.byte	0
 13391 4111 02       		.uleb128 0x2
 13392 4112 B3170000 		.4byte	.LASF879
 13393 4116 39       		.byte	0x39
 13394 4117 09       		.byte	0x9
 13395 4118 1C410000 		.4byte	0x411c
 13396 411c 07       		.uleb128 0x7
 13397 411d 2B120000 		.4byte	.LASF880
 13398 4121 18       		.byte	0x18
 13399 4122 39       		.byte	0x39
 13400 4123 2E       		.byte	0x2e
 13401 4124 7B410000 		.4byte	0x417b
 13402 4128 18       		.uleb128 0x18
 13403 4129 696400   		.ascii	"id\000"
 13404 412c 39       		.byte	0x39
 13405 412d 2F       		.byte	0x2f
 13406 412e 15110000 		.4byte	0x1115
 13407 4132 00       		.byte	0
 13408 4133 18       		.uleb128 0x18
 13409 4134 6E7300   		.ascii	"ns\000"
 13410 4137 39       		.byte	0x39
 13411 4138 30       		.byte	0x30
 13412 4139 7B410000 		.4byte	0x417b
 13413 413d 04       		.byte	0x4
 13414 413e 08       		.uleb128 0x8
 13415 413f ED030000 		.4byte	.LASF762
 13416 4143 39       		.byte	0x39
 13417 4144 31       		.byte	0x31
 13418 4145 81410000 		.4byte	0x4181
 13419 4149 08       		.byte	0x8
 13420 414a 08       		.uleb128 0x8
 13421 414b 26210000 		.4byte	.LASF881
 13422 414f 39       		.byte	0x39
 13423 4150 32       		.byte	0x32
 13424 4151 A4150000 		.4byte	0x15a4
 13425 4155 0C       		.byte	0xc
 13426 4156 08       		.uleb128 0x8
 13427 4157 ED120000 		.4byte	.LASF882
ARM GAS  C:\Users\mathi\AppData\Local\Temp\cc0ZaFXf.s 			page 242


 13428 415b 39       		.byte	0x39
 13429 415c 33       		.byte	0x33
 13430 415d A4150000 		.4byte	0x15a4
 13431 4161 0D       		.byte	0xd
 13432 4162 08       		.uleb128 0x8
 13433 4163 7A090000 		.4byte	.LASF883
 13434 4167 39       		.byte	0x39
 13435 4168 34       		.byte	0x34
 13436 4169 C3000000 		.4byte	0xc3
 13437 416d 0E       		.byte	0xe
 13438 416e 08       		.uleb128 0x8
 13439 416f 5D0E0000 		.4byte	.LASF884
 13440 4173 39       		.byte	0x39
 13441 4174 3C       		.byte	0x3c
 13442 4175 23420000 		.4byte	0x4223
 13443 4179 10       		.byte	0x10
 13444 417a 00       		.byte	0
 13445 417b 0B       		.uleb128 0xb
 13446 417c 04       		.byte	0x4
 13447 417d B2400000 		.4byte	0x40b2
 13448 4181 0B       		.uleb128 0xb
 13449 4182 04       		.byte	0x4
 13450 4183 11410000 		.4byte	0x4111
 13451 4187 07       		.uleb128 0x7
 13452 4188 0B1A0000 		.4byte	.LASF885
 13453 418c 08       		.byte	0x8
 13454 418d 39       		.byte	0x39
 13455 418e 14       		.byte	0x14
 13456 418f B8410000 		.4byte	0x41b8
 13457 4193 18       		.uleb128 0x18
 13458 4194 62756600 		.ascii	"buf\000"
 13459 4198 39       		.byte	0x39
 13460 4199 15       		.byte	0x15
 13461 419a A1370000 		.4byte	0x37a1
 13462 419e 00       		.byte	0
 13463 419f 08       		.uleb128 0x8
 13464 41a0 FF270000 		.4byte	.LASF886
 13465 41a4 39       		.byte	0x39
 13466 41a5 16       		.byte	0x16
 13467 41a6 DE000000 		.4byte	0xde
 13468 41aa 04       		.byte	0x4
 13469 41ab 18       		.uleb128 0x18
 13470 41ac 6C656E00 		.ascii	"len\000"
 13471 41b0 39       		.byte	0x39
 13472 41b1 17       		.byte	0x17
 13473 41b2 DE000000 		.4byte	0xde
 13474 41b6 06       		.byte	0x6
 13475 41b7 00       		.byte	0
 13476 41b8 07       		.uleb128 0x7
 13477 41b9 99180000 		.4byte	.LASF887
 13478 41bd 08       		.byte	0x8
 13479 41be 39       		.byte	0x39
 13480 41bf 1A       		.byte	0x1a
 13481 41c0 E9410000 		.4byte	0x41e9
 13482 41c4 18       		.uleb128 0x18
 13483 41c5 62756600 		.ascii	"buf\000"
 13484 41c9 39       		.byte	0x39
ARM GAS  C:\Users\mathi\AppData\Local\Temp\cc0ZaFXf.s 			page 243


 13485 41ca 1B       		.byte	0x1b
 13486 41cb E9410000 		.4byte	0x41e9
 13487 41cf 00       		.byte	0
 13488 41d0 08       		.uleb128 0x8
 13489 41d1 FD0A0000 		.4byte	.LASF888
 13490 41d5 39       		.byte	0x39
 13491 41d6 1C       		.byte	0x1c
 13492 41d7 DE000000 		.4byte	0xde
 13493 41db 04       		.byte	0x4
 13494 41dc 18       		.uleb128 0x18
 13495 41dd 64696D00 		.ascii	"dim\000"
 13496 41e1 39       		.byte	0x39
 13497 41e2 1D       		.byte	0x1d
 13498 41e3 DE000000 		.4byte	0xde
 13499 41e7 06       		.byte	0x6
 13500 41e8 00       		.byte	0
 13501 41e9 0B       		.uleb128 0xb
 13502 41ea 04       		.byte	0x4
 13503 41eb EF410000 		.4byte	0x41ef
 13504 41ef 03       		.uleb128 0x3
 13505 41f0 04       		.byte	0x4
 13506 41f1 04       		.byte	0x4
 13507 41f2 280C0000 		.4byte	.LASF889
 13508 41f6 07       		.uleb128 0x7
 13509 41f7 C2110000 		.4byte	.LASF890
 13510 41fb 08       		.byte	0x8
 13511 41fc 39       		.byte	0x39
 13512 41fd 20       		.byte	0x20
 13513 41fe 23420000 		.4byte	0x4223
 13514 4202 18       		.uleb128 0x18
 13515 4203 62756600 		.ascii	"buf\000"
 13516 4207 39       		.byte	0x39
 13517 4208 21       		.byte	0x21
 13518 4209 E9410000 		.4byte	0x41e9
 13519 420d 00       		.byte	0
 13520 420e 18       		.uleb128 0x18
 13521 420f 6E00     		.ascii	"n\000"
 13522 4211 39       		.byte	0x39
 13523 4212 22       		.byte	0x22
 13524 4213 DE000000 		.4byte	0xde
 13525 4217 04       		.byte	0x4
 13526 4218 18       		.uleb128 0x18
 13527 4219 6D00     		.ascii	"m\000"
 13528 421b 39       		.byte	0x39
 13529 421c 23       		.byte	0x23
 13530 421d DE000000 		.4byte	0xde
 13531 4221 06       		.byte	0x6
 13532 4222 00       		.byte	0
 13533 4223 1D       		.uleb128 0x1d
 13534 4224 08       		.byte	0x8
 13535 4225 39       		.byte	0x39
 13536 4226 35       		.byte	0x35
 13537 4227 68420000 		.4byte	0x4268
 13538 422b 23       		.uleb128 0x23
 13539 422c 6200     		.ascii	"b\000"
 13540 422e 39       		.byte	0x39
 13541 422f 36       		.byte	0x36
ARM GAS  C:\Users\mathi\AppData\Local\Temp\cc0ZaFXf.s 			page 244


 13542 4230 A4150000 		.4byte	0x15a4
 13543 4234 23       		.uleb128 0x23
 13544 4235 7300     		.ascii	"s\000"
 13545 4237 39       		.byte	0x39
 13546 4238 37       		.byte	0x37
 13547 4239 EF410000 		.4byte	0x41ef
 13548 423d 23       		.uleb128 0x23
 13549 423e 6900     		.ascii	"i\000"
 13550 4240 39       		.byte	0x39
 13551 4241 38       		.byte	0x38
 13552 4242 E9000000 		.4byte	0xe9
 13553 4246 23       		.uleb128 0x23
 13554 4247 73747200 		.ascii	"str\000"
 13555 424b 39       		.byte	0x39
 13556 424c 39       		.byte	0x39
 13557 424d 87410000 		.4byte	0x4187
 13558 4251 2A       		.uleb128 0x2a
 13559 4252 F6000000 		.4byte	.LASF891
 13560 4256 39       		.byte	0x39
 13561 4257 3A       		.byte	0x3a
 13562 4258 B8410000 		.4byte	0x41b8
 13563 425c 23       		.uleb128 0x23
 13564 425d 6D617400 		.ascii	"mat\000"
 13565 4261 39       		.byte	0x39
 13566 4262 3B       		.byte	0x3b
 13567 4263 F6410000 		.4byte	0x41f6
 13568 4267 00       		.byte	0
 13569 4268 2F       		.uleb128 0x2f
 13570 4269 62757300 		.ascii	"bus\000"
 13571 426d 3A       		.byte	0x3a
 13572 426e 0F       		.byte	0xf
 13573 426f F0380000 		.4byte	0x38f0
 13574 4273 16       		.uleb128 0x16
 13575 4274 C70F0000 		.4byte	.LASF892
 13576 4278 3A       		.byte	0x3a
 13577 4279 11       		.byte	0x11
 13578 427a B2400000 		.4byte	0x40b2
 13579 427e 21       		.uleb128 0x21
 13580 427f 07       		.byte	0x7
 13581 4280 01       		.byte	0x1
 13582 4281 42000000 		.4byte	0x42
 13583 4285 3B       		.byte	0x3b
 13584 4286 70       		.byte	0x70
 13585 4287 EC420000 		.4byte	0x42ec
 13586 428b 22       		.uleb128 0x22
 13587 428c C6040000 		.4byte	.LASF893
 13588 4290 00       		.byte	0
 13589 4291 22       		.uleb128 0x22
 13590 4292 90030000 		.4byte	.LASF894
 13591 4296 01       		.byte	0x1
 13592 4297 22       		.uleb128 0x22
 13593 4298 BC0C0000 		.4byte	.LASF895
 13594 429c 02       		.byte	0x2
 13595 429d 22       		.uleb128 0x22
 13596 429e DA1B0000 		.4byte	.LASF896
 13597 42a2 03       		.byte	0x3
 13598 42a3 22       		.uleb128 0x22
ARM GAS  C:\Users\mathi\AppData\Local\Temp\cc0ZaFXf.s 			page 245


 13599 42a4 42210000 		.4byte	.LASF897
 13600 42a8 04       		.byte	0x4
 13601 42a9 22       		.uleb128 0x22
 13602 42aa B5090000 		.4byte	.LASF898
 13603 42ae 05       		.byte	0x5
 13604 42af 22       		.uleb128 0x22
 13605 42b0 030E0000 		.4byte	.LASF899
 13606 42b4 06       		.byte	0x6
 13607 42b5 22       		.uleb128 0x22
 13608 42b6 E0210000 		.4byte	.LASF900
 13609 42ba 07       		.byte	0x7
 13610 42bb 22       		.uleb128 0x22
 13611 42bc BF0F0000 		.4byte	.LASF901
 13612 42c0 08       		.byte	0x8
 13613 42c1 22       		.uleb128 0x22
 13614 42c2 7F1D0000 		.4byte	.LASF902
 13615 42c6 09       		.byte	0x9
 13616 42c7 22       		.uleb128 0x22
 13617 42c8 1E290000 		.4byte	.LASF903
 13618 42cc 0A       		.byte	0xa
 13619 42cd 22       		.uleb128 0x22
 13620 42ce 2E0C0000 		.4byte	.LASF904
 13621 42d2 0B       		.byte	0xb
 13622 42d3 22       		.uleb128 0x22
 13623 42d4 5C000000 		.4byte	.LASF905
 13624 42d8 0C       		.byte	0xc
 13625 42d9 22       		.uleb128 0x22
 13626 42da 44120000 		.4byte	.LASF906
 13627 42de 0D       		.byte	0xd
 13628 42df 22       		.uleb128 0x22
 13629 42e0 69260000 		.4byte	.LASF907
 13630 42e4 0E       		.byte	0xe
 13631 42e5 22       		.uleb128 0x22
 13632 42e6 CF100000 		.4byte	.LASF908
 13633 42ea 0F       		.byte	0xf
 13634 42eb 00       		.byte	0
 13635 42ec 21       		.uleb128 0x21
 13636 42ed 07       		.byte	0x7
 13637 42ee 01       		.byte	0x1
 13638 42ef 42000000 		.4byte	0x42
 13639 42f3 3B       		.byte	0x3b
 13640 42f4 86       		.byte	0x86
 13641 42f5 0C430000 		.4byte	0x430c
 13642 42f9 22       		.uleb128 0x22
 13643 42fa 3C010000 		.4byte	.LASF909
 13644 42fe 00       		.byte	0
 13645 42ff 22       		.uleb128 0x22
 13646 4300 3E1E0000 		.4byte	.LASF910
 13647 4304 01       		.byte	0x1
 13648 4305 22       		.uleb128 0x22
 13649 4306 C5210000 		.4byte	.LASF911
 13650 430a 02       		.byte	0x2
 13651 430b 00       		.byte	0
 13652 430c 13       		.uleb128 0x13
 13653 430d 27110000 		.4byte	0x1127
 13654 4311 17430000 		.4byte	0x4317
 13655 4315 30       		.uleb128 0x30
ARM GAS  C:\Users\mathi\AppData\Local\Temp\cc0ZaFXf.s 			page 246


 13656 4316 00       		.byte	0
 13657 4317 05       		.uleb128 0x5
 13658 4318 0C430000 		.4byte	0x430c
 13659 431c 16       		.uleb128 0x16
 13660 431d DD190000 		.4byte	.LASF912
 13661 4321 3C       		.byte	0x3c
 13662 4322 A5       		.byte	0xa5
 13663 4323 17430000 		.4byte	0x4317
 13664 4327 17       		.uleb128 0x17
 13665 4328 0C       		.byte	0xc
 13666 4329 3D       		.byte	0x3d
 13667 432a 16       		.byte	0x16
 13668 432b 54430000 		.4byte	0x4354
 13669 432f 08       		.uleb128 0x8
 13670 4330 B4100000 		.4byte	.LASF913
 13671 4334 3D       		.byte	0x3d
 13672 4335 18       		.byte	0x18
 13673 4336 EF410000 		.4byte	0x41ef
 13674 433a 00       		.byte	0
 13675 433b 08       		.uleb128 0x8
 13676 433c 3C040000 		.4byte	.LASF914
 13677 4340 3D       		.byte	0x3d
 13678 4341 1A       		.byte	0x1a
 13679 4342 EF410000 		.4byte	0x41ef
 13680 4346 04       		.byte	0x4
 13681 4347 08       		.uleb128 0x8
 13682 4348 17040000 		.4byte	.LASF915
 13683 434c 3D       		.byte	0x3d
 13684 434d 24       		.byte	0x24
 13685 434e EF410000 		.4byte	0x41ef
 13686 4352 08       		.byte	0x8
 13687 4353 00       		.byte	0
 13688 4354 02       		.uleb128 0x2
 13689 4355 99200000 		.4byte	.LASF916
 13690 4359 3D       		.byte	0x3d
 13691 435a 28       		.byte	0x28
 13692 435b 27430000 		.4byte	0x4327
 13693 435f 13       		.uleb128 0x13
 13694 4360 20110000 		.4byte	0x1120
 13695 4364 70430000 		.4byte	0x4370
 13696 4368 29       		.uleb128 0x29
 13697 4369 B1000000 		.4byte	0xb1
 13698 436d 2A10     		.2byte	0x102a
 13699 436f 00       		.byte	0
 13700 4370 31       		.uleb128 0x31
 13701 4371 591F0000 		.4byte	.LASF755
 13702 4375 01       		.byte	0x1
 13703 4376 2E       		.byte	0x2e
 13704 4377 5F430000 		.4byte	0x435f
 13705 437b 05       		.uleb128 0x5
 13706 437c 03       		.byte	0x3
 13707 437d 00000000 		.4byte	buffer
 13708 4381 16       		.uleb128 0x16
 13709 4382 CE1E0000 		.4byte	.LASF917
 13710 4386 01       		.byte	0x1
 13711 4387 30       		.byte	0x30
 13712 4388 B1000000 		.4byte	0xb1
ARM GAS  C:\Users\mathi\AppData\Local\Temp\cc0ZaFXf.s 			page 247


 13713 438c 31       		.uleb128 0x31
 13714 438d A90D0000 		.4byte	.LASF918
 13715 4391 01       		.byte	0x1
 13716 4392 31       		.byte	0x31
 13717 4393 AA000000 		.4byte	0xaa
 13718 4397 05       		.uleb128 0x5
 13719 4398 03       		.byte	0x3
 13720 4399 00000000 		.4byte	selector
 13721 439d 32       		.uleb128 0x32
 13722 439e 6300     		.ascii	"c\000"
 13723 43a0 01       		.byte	0x1
 13724 43a1 32       		.byte	0x32
 13725 43a2 20110000 		.4byte	0x1120
 13726 43a6 05       		.uleb128 0x5
 13727 43a7 03       		.byte	0x3
 13728 43a8 00000000 		.4byte	c
 13729 43ac 13       		.uleb128 0x13
 13730 43ad AA000000 		.4byte	0xaa
 13731 43b1 BC430000 		.4byte	0x43bc
 13732 43b5 14       		.uleb128 0x14
 13733 43b6 B1000000 		.4byte	0xb1
 13734 43ba 09       		.byte	0x9
 13735 43bb 00       		.byte	0
 13736 43bc 31       		.uleb128 0x31
 13737 43bd 44060000 		.4byte	.LASF919
 13738 43c1 01       		.byte	0x1
 13739 43c2 33       		.byte	0x33
 13740 43c3 AC430000 		.4byte	0x43ac
 13741 43c7 05       		.uleb128 0x5
 13742 43c8 03       		.byte	0x3
 13743 43c9 00000000 		.4byte	e_ambient_ir
 13744 43cd 31       		.uleb128 0x31
 13745 43ce E11A0000 		.4byte	.LASF920
 13746 43d2 01       		.byte	0x1
 13747 43d3 34       		.byte	0x34
 13748 43d4 AC430000 		.4byte	0x43ac
 13749 43d8 05       		.uleb128 0x5
 13750 43d9 03       		.byte	0x3
 13751 43da 00000000 		.4byte	e_ambient_and_reflected_ir
 13752 43de 33       		.uleb128 0x33
 13753 43df 360F0000 		.4byte	.LASF1012
 13754 43e3 01       		.byte	0x1
 13755 43e4 3B       		.byte	0x3b
 13756 43e5 AA000000 		.4byte	0xaa
 13757 43e9 00000000 		.4byte	.LFB259
 13758 43ed 78200000 		.4byte	.LFE259-.LFB259
 13759 43f1 01       		.uleb128 0x1
 13760 43f2 9C       		.byte	0x9c
 13761 43f3 11690000 		.4byte	0x6911
 13762 43f7 34       		.uleb128 0x34
 13763 43f8 633100   		.ascii	"c1\000"
 13764 43fb 01       		.byte	0x1
 13765 43fc 3C       		.byte	0x3c
 13766 43fd 20110000 		.4byte	0x1120
 13767 4401 05       		.uleb128 0x5
 13768 4402 03       		.byte	0x3
 13769 4403 00000000 		.4byte	c1.12662
ARM GAS  C:\Users\mathi\AppData\Local\Temp\cc0ZaFXf.s 			page 248


 13770 4407 34       		.uleb128 0x34
 13771 4408 633200   		.ascii	"c2\000"
 13772 440b 01       		.byte	0x1
 13773 440c 3C       		.byte	0x3c
 13774 440d 20110000 		.4byte	0x1120
 13775 4411 05       		.uleb128 0x5
 13776 4412 03       		.byte	0x3
 13777 4413 00000000 		.4byte	c2.12663
 13778 4417 35       		.uleb128 0x35
 13779 4418 2A080000 		.4byte	.LASF921
 13780 441c 01       		.byte	0x1
 13781 441d 3C       		.byte	0x3c
 13782 441e 20110000 		.4byte	0x1120
 13783 4422 05       		.uleb128 0x5
 13784 4423 03       		.byte	0x3
 13785 4424 00000000 		.4byte	wait_cam.12664
 13786 4428 34       		.uleb128 0x34
 13787 4429 6900     		.ascii	"i\000"
 13788 442b 01       		.byte	0x1
 13789 442c 3D       		.byte	0x3d
 13790 442d AA000000 		.4byte	0xaa
 13791 4431 05       		.uleb128 0x5
 13792 4432 03       		.byte	0x3
 13793 4433 00000000 		.4byte	i.12665
 13794 4437 34       		.uleb128 0x34
 13795 4438 6A00     		.ascii	"j\000"
 13796 443a 01       		.byte	0x1
 13797 443b 3D       		.byte	0x3d
 13798 443c AA000000 		.4byte	0xaa
 13799 4440 05       		.uleb128 0x5
 13800 4441 03       		.byte	0x3
 13801 4442 00000000 		.4byte	j.12666
 13802 4446 36       		.uleb128 0x36
 13803 4447 6E00     		.ascii	"n\000"
 13804 4449 01       		.byte	0x1
 13805 444a 3D       		.byte	0x3d
 13806 444b AA000000 		.4byte	0xaa
 13807 444f 35       		.uleb128 0x35
 13808 4450 C4150000 		.4byte	.LASF922
 13809 4454 01       		.byte	0x1
 13810 4455 3D       		.byte	0x3d
 13811 4456 AA000000 		.4byte	0xaa
 13812 445a 05       		.uleb128 0x5
 13813 445b 03       		.byte	0x3
 13814 445c 00000000 		.4byte	speedr.12668
 13815 4460 35       		.uleb128 0x35
 13816 4461 A8150000 		.4byte	.LASF923
 13817 4465 01       		.byte	0x1
 13818 4466 3D       		.byte	0x3d
 13819 4467 AA000000 		.4byte	0xaa
 13820 446b 05       		.uleb128 0x5
 13821 446c 03       		.byte	0x3
 13822 446d 00000000 		.4byte	speedl.12669
 13823 4471 35       		.uleb128 0x35
 13824 4472 E2000000 		.4byte	.LASF924
 13825 4476 01       		.byte	0x1
 13826 4477 3D       		.byte	0x3d
ARM GAS  C:\Users\mathi\AppData\Local\Temp\cc0ZaFXf.s 			page 249


 13827 4478 AA000000 		.4byte	0xaa
 13828 447c 05       		.uleb128 0x5
 13829 447d 03       		.byte	0x3
 13830 447e 00000000 		.4byte	positionr.12670
 13831 4482 35       		.uleb128 0x35
 13832 4483 D8000000 		.4byte	.LASF925
 13833 4487 01       		.byte	0x1
 13834 4488 3D       		.byte	0x3d
 13835 4489 AA000000 		.4byte	0xaa
 13836 448d 05       		.uleb128 0x5
 13837 448e 03       		.byte	0x3
 13838 448f 00000000 		.4byte	positionl.12671
 13839 4493 35       		.uleb128 0x35
 13840 4494 74000000 		.4byte	.LASF926
 13841 4498 01       		.byte	0x1
 13842 4499 3D       		.byte	0x3d
 13843 449a AA000000 		.4byte	0xaa
 13844 449e 05       		.uleb128 0x5
 13845 449f 03       		.byte	0x3
 13846 44a0 00000000 		.4byte	LED_nbr.12672
 13847 44a4 35       		.uleb128 0x35
 13848 44a5 4A270000 		.4byte	.LASF927
 13849 44a9 01       		.byte	0x1
 13850 44aa 3D       		.byte	0x3d
 13851 44ab AA000000 		.4byte	0xaa
 13852 44af 05       		.uleb128 0x5
 13853 44b0 03       		.byte	0x3
 13854 44b1 00000000 		.4byte	LED_action.12673
 13855 44b5 35       		.uleb128 0x35
 13856 44b6 8D0C0000 		.4byte	.LASF928
 13857 44ba 01       		.byte	0x1
 13858 44bb 3D       		.byte	0x3d
 13859 44bc AA000000 		.4byte	0xaa
 13860 44c0 05       		.uleb128 0x5
 13861 44c1 03       		.byte	0x3
 13862 44c2 00000000 		.4byte	accx.12674
 13863 44c6 35       		.uleb128 0x35
 13864 44c7 920C0000 		.4byte	.LASF929
 13865 44cb 01       		.byte	0x1
 13866 44cc 3D       		.byte	0x3d
 13867 44cd AA000000 		.4byte	0xaa
 13868 44d1 05       		.uleb128 0x5
 13869 44d2 03       		.byte	0x3
 13870 44d3 00000000 		.4byte	accy.12675
 13871 44d7 35       		.uleb128 0x35
 13872 44d8 800E0000 		.4byte	.LASF930
 13873 44dc 01       		.byte	0x1
 13874 44dd 3D       		.byte	0x3d
 13875 44de AA000000 		.4byte	0xaa
 13876 44e2 05       		.uleb128 0x5
 13877 44e3 03       		.byte	0x3
 13878 44e4 00000000 		.4byte	accz.12676
 13879 44e8 35       		.uleb128 0x35
 13880 44e9 3A2A0000 		.4byte	.LASF931
 13881 44ed 01       		.byte	0x1
 13882 44ee 3D       		.byte	0x3d
 13883 44ef AA000000 		.4byte	0xaa
ARM GAS  C:\Users\mathi\AppData\Local\Temp\cc0ZaFXf.s 			page 250


 13884 44f3 05       		.uleb128 0x5
 13885 44f4 03       		.byte	0x3
 13886 44f5 00000000 		.4byte	sound.12677
 13887 44f9 35       		.uleb128 0x35
 13888 44fa 92270000 		.4byte	.LASF932
 13889 44fe 01       		.byte	0x1
 13890 44ff 3D       		.byte	0x3d
 13891 4500 AA000000 		.4byte	0xaa
 13892 4504 05       		.uleb128 0x5
 13893 4505 03       		.byte	0x3
 13894 4506 00000000 		.4byte	gyrox.12678
 13895 450a 35       		.uleb128 0x35
 13896 450b E60F0000 		.4byte	.LASF933
 13897 450f 01       		.byte	0x1
 13898 4510 3D       		.byte	0x3d
 13899 4511 AA000000 		.4byte	0xaa
 13900 4515 05       		.uleb128 0x5
 13901 4516 03       		.byte	0x3
 13902 4517 00000000 		.4byte	gyroy.12679
 13903 451b 35       		.uleb128 0x35
 13904 451c 98270000 		.4byte	.LASF934
 13905 4520 01       		.byte	0x1
 13906 4521 3D       		.byte	0x3d
 13907 4522 AA000000 		.4byte	0xaa
 13908 4526 05       		.uleb128 0x5
 13909 4527 03       		.byte	0x3
 13910 4528 00000000 		.4byte	gyroz.12680
 13911 452c 35       		.uleb128 0x35
 13912 452d 371B0000 		.4byte	.LASF935
 13913 4531 01       		.byte	0x1
 13914 4532 3E       		.byte	0x3e
 13915 4533 AA000000 		.4byte	0xaa
 13916 4537 05       		.uleb128 0x5
 13917 4538 03       		.byte	0x3
 13918 4539 00000000 		.4byte	cam_mode.12681
 13919 453d 35       		.uleb128 0x35
 13920 453e D10E0000 		.4byte	.LASF936
 13921 4542 01       		.byte	0x1
 13922 4543 3E       		.byte	0x3e
 13923 4544 AA000000 		.4byte	0xaa
 13924 4548 05       		.uleb128 0x5
 13925 4549 03       		.byte	0x3
 13926 454a 00000000 		.4byte	cam_width.12682
 13927 454e 35       		.uleb128 0x35
 13928 454f 8E200000 		.4byte	.LASF937
 13929 4553 01       		.byte	0x1
 13930 4554 3E       		.byte	0x3e
 13931 4555 AA000000 		.4byte	0xaa
 13932 4559 05       		.uleb128 0x5
 13933 455a 03       		.byte	0x3
 13934 455b 00000000 		.4byte	cam_heigth.12683
 13935 455f 35       		.uleb128 0x35
 13936 4560 B2030000 		.4byte	.LASF938
 13937 4564 01       		.byte	0x1
 13938 4565 3E       		.byte	0x3e
 13939 4566 AA000000 		.4byte	0xaa
 13940 456a 05       		.uleb128 0x5
ARM GAS  C:\Users\mathi\AppData\Local\Temp\cc0ZaFXf.s 			page 251


 13941 456b 03       		.byte	0x3
 13942 456c 00000000 		.4byte	cam_zoom.12684
 13943 4570 35       		.uleb128 0x35
 13944 4571 210D0000 		.4byte	.LASF939
 13945 4575 01       		.byte	0x1
 13946 4576 3E       		.byte	0x3e
 13947 4577 AA000000 		.4byte	0xaa
 13948 457b 05       		.uleb128 0x5
 13949 457c 03       		.byte	0x3
 13950 457d 00000000 		.4byte	cam_size.12685
 13951 4581 35       		.uleb128 0x35
 13952 4582 28130000 		.4byte	.LASF940
 13953 4586 01       		.byte	0x1
 13954 4587 3E       		.byte	0x3e
 13955 4588 AA000000 		.4byte	0xaa
 13956 458c 05       		.uleb128 0x5
 13957 458d 03       		.byte	0x3
 13958 458e 00000000 		.4byte	cam_x1.12686
 13959 4592 35       		.uleb128 0x35
 13960 4593 DB180000 		.4byte	.LASF941
 13961 4597 01       		.byte	0x1
 13962 4598 3E       		.byte	0x3e
 13963 4599 AA000000 		.4byte	0xaa
 13964 459d 05       		.uleb128 0x5
 13965 459e 03       		.byte	0x3
 13966 459f 00000000 		.4byte	cam_y1.12687
 13967 45a3 35       		.uleb128 0x35
 13968 45a4 57110000 		.4byte	.LASF942
 13969 45a8 01       		.byte	0x1
 13970 45a9 3F       		.byte	0x3f
 13971 45aa 20110000 		.4byte	0x1120
 13972 45ae 05       		.uleb128 0x5
 13973 45af 03       		.byte	0x3
 13974 45b0 00000000 		.4byte	first.12688
 13975 45b4 37       		.uleb128 0x37
 13976 45b5 70747200 		.ascii	"ptr\000"
 13977 45b9 01       		.byte	0x1
 13978 45ba 40       		.byte	0x40
 13979 45bb A1370000 		.4byte	0x37a1
 13980 45bf 00000000 		.4byte	.LLST0
 13981 45c3 34       		.uleb128 0x34
 13982 45c4 6D6F6400 		.ascii	"mod\000"
 13983 45c8 01       		.byte	0x1
 13984 45c9 41       		.byte	0x41
 13985 45ca AA000000 		.4byte	0xaa
 13986 45ce 05       		.uleb128 0x5
 13987 45cf 03       		.byte	0x3
 13988 45d0 00000000 		.4byte	mod.12690
 13989 45d4 34       		.uleb128 0x34
 13990 45d5 72656700 		.ascii	"reg\000"
 13991 45d9 01       		.byte	0x1
 13992 45da 41       		.byte	0x41
 13993 45db AA000000 		.4byte	0xaa
 13994 45df 05       		.uleb128 0x5
 13995 45e0 03       		.byte	0x3
 13996 45e1 00000000 		.4byte	reg.12691
 13997 45e5 34       		.uleb128 0x34
ARM GAS  C:\Users\mathi\AppData\Local\Temp\cc0ZaFXf.s 			page 252


 13998 45e6 76616C00 		.ascii	"val\000"
 13999 45ea 01       		.byte	0x1
 14000 45eb 41       		.byte	0x41
 14001 45ec AA000000 		.4byte	0xaa
 14002 45f0 05       		.uleb128 0x5
 14003 45f1 03       		.byte	0x3
 14004 45f2 00000000 		.4byte	val.12692
 14005 45f6 38       		.uleb128 0x38
 14006 45f7 B8070000 		.4byte	.LASF943
 14007 45fb 01       		.byte	0x1
 14008 45fc 43       		.byte	0x43
 14009 45fd 20110000 		.4byte	0x1120
 14010 4601 18000000 		.4byte	.LLST1
 14011 4605 38       		.uleb128 0x38
 14012 4606 4C070000 		.4byte	.LASF944
 14013 460a 01       		.byte	0x1
 14014 460b 43       		.byte	0x43
 14015 460c 20110000 		.4byte	0x1120
 14016 4610 6F000000 		.4byte	.LLST2
 14017 4614 38       		.uleb128 0x38
 14018 4615 45140000 		.4byte	.LASF945
 14019 4619 01       		.byte	0x1
 14020 461a 43       		.byte	0x43
 14021 461b 20110000 		.4byte	0x1120
 14022 461f F2000000 		.4byte	.LLST3
 14023 4623 35       		.uleb128 0x35
 14024 4624 B81E0000 		.4byte	.LASF946
 14025 4628 01       		.byte	0x1
 14026 4629 45       		.byte	0x45
 14027 462a 54430000 		.4byte	0x4354
 14028 462e 05       		.uleb128 0x5
 14029 462f 03       		.byte	0x3
 14030 4630 00000000 		.4byte	accelero.12696
 14031 4634 38       		.uleb128 0x38
 14032 4635 0F0B0000 		.4byte	.LASF947
 14033 4639 01       		.byte	0x1
 14034 463a 47       		.byte	0x47
 14035 463b AA000000 		.4byte	0xaa
 14036 463f 8B010000 		.4byte	.LLST4
 14037 4643 38       		.uleb128 0x38
 14038 4644 EC000000 		.4byte	.LASF948
 14039 4648 01       		.byte	0x1
 14040 4649 48       		.byte	0x48
 14041 464a B1000000 		.4byte	0xb1
 14042 464e B7010000 		.4byte	.LLST5
 14043 4652 35       		.uleb128 0x35
 14044 4653 85280000 		.4byte	.LASF949
 14045 4657 01       		.byte	0x1
 14046 4658 65       		.byte	0x65
 14047 4659 AA000000 		.4byte	0xaa
 14048 465d 05       		.uleb128 0x5
 14049 465e 03       		.byte	0x3
 14050 465f 00000000 		.4byte	HWversion.12699
 14051 4663 39       		.uleb128 0x39
 14052 4664 C40B0000 		.4byte	.LBB3
 14053 4668 12000000 		.4byte	.LBE3-.LBB3
 14054 466c 8A460000 		.4byte	0x468a
ARM GAS  C:\Users\mathi\AppData\Local\Temp\cc0ZaFXf.s 			page 253


 14055 4670 3A       		.uleb128 0x3a
 14056 4671 5F5F7800 		.ascii	"__x\000"
 14057 4675 01       		.byte	0x1
 14058 4676 6802     		.2byte	0x268
 14059 4678 20110000 		.4byte	0x1120
 14060 467c E2010000 		.4byte	.LLST7
 14061 4680 3B       		.uleb128 0x3b
 14062 4681 C80B0000 		.4byte	.LVL126
 14063 4685 11690000 		.4byte	0x6911
 14064 4689 00       		.byte	0
 14065 468a 3C       		.uleb128 0x3c
 14066 468b 00000000 		.4byte	.Ldebug_ranges0+0
 14067 468f D9610000 		.4byte	0x61d9
 14068 4693 3A       		.uleb128 0x3a
 14069 4694 7400     		.ascii	"t\000"
 14070 4696 01       		.byte	0x1
 14071 4697 4103     		.2byte	0x341
 14072 4699 78000000 		.4byte	0x78
 14073 469d F5010000 		.4byte	.LLST6
 14074 46a1 3B       		.uleb128 0x3b
 14075 46a2 EC010000 		.4byte	.LVL30
 14076 46a6 1C690000 		.4byte	0x691c
 14077 46aa 3D       		.uleb128 0x3d
 14078 46ab 04020000 		.4byte	.LVL31
 14079 46af 27690000 		.4byte	0x6927
 14080 46b3 BE460000 		.4byte	0x46be
 14081 46b7 3E       		.uleb128 0x3e
 14082 46b8 01       		.uleb128 0x1
 14083 46b9 50       		.byte	0x50
 14084 46ba 02       		.uleb128 0x2
 14085 46bb 78       		.byte	0x78
 14086 46bc 00       		.sleb128 0
 14087 46bd 00       		.byte	0
 14088 46be 3D       		.uleb128 0x3d
 14089 46bf 0C020000 		.4byte	.LVL32
 14090 46c3 32690000 		.4byte	0x6932
 14091 46c7 D2460000 		.4byte	0x46d2
 14092 46cb 3E       		.uleb128 0x3e
 14093 46cc 01       		.uleb128 0x1
 14094 46cd 50       		.byte	0x50
 14095 46ce 02       		.uleb128 0x2
 14096 46cf 78       		.byte	0x78
 14097 46d0 00       		.sleb128 0
 14098 46d1 00       		.byte	0
 14099 46d2 3B       		.uleb128 0x3b
 14100 46d3 10020000 		.4byte	.LVL33
 14101 46d7 3D690000 		.4byte	0x693d
 14102 46db 3B       		.uleb128 0x3b
 14103 46dc C80C0000 		.4byte	.LVL128
 14104 46e0 1C690000 		.4byte	0x691c
 14105 46e4 3D       		.uleb128 0x3d
 14106 46e5 E20C0000 		.4byte	.LVL129
 14107 46e9 27690000 		.4byte	0x6927
 14108 46ed F8460000 		.4byte	0x46f8
 14109 46f1 3E       		.uleb128 0x3e
 14110 46f2 01       		.uleb128 0x1
 14111 46f3 50       		.byte	0x50
ARM GAS  C:\Users\mathi\AppData\Local\Temp\cc0ZaFXf.s 			page 254


 14112 46f4 02       		.uleb128 0x2
 14113 46f5 78       		.byte	0x78
 14114 46f6 00       		.sleb128 0
 14115 46f7 00       		.byte	0
 14116 46f8 3D       		.uleb128 0x3d
 14117 46f9 EA0C0000 		.4byte	.LVL130
 14118 46fd 32690000 		.4byte	0x6932
 14119 4701 0C470000 		.4byte	0x470c
 14120 4705 3E       		.uleb128 0x3e
 14121 4706 01       		.uleb128 0x1
 14122 4707 50       		.byte	0x50
 14123 4708 02       		.uleb128 0x2
 14124 4709 78       		.byte	0x78
 14125 470a 00       		.sleb128 0
 14126 470b 00       		.byte	0
 14127 470c 3B       		.uleb128 0x3b
 14128 470d EE0C0000 		.4byte	.LVL131
 14129 4711 3D690000 		.4byte	0x693d
 14130 4715 3B       		.uleb128 0x3b
 14131 4716 1E0D0000 		.4byte	.LVL132
 14132 471a 48690000 		.4byte	0x6948
 14133 471e 3D       		.uleb128 0x3d
 14134 471f 280D0000 		.4byte	.LVL133
 14135 4723 53690000 		.4byte	0x6953
 14136 4727 31470000 		.4byte	0x4731
 14137 472b 3E       		.uleb128 0x3e
 14138 472c 01       		.uleb128 0x1
 14139 472d 51       		.byte	0x51
 14140 472e 01       		.uleb128 0x1
 14141 472f 30       		.byte	0x30
 14142 4730 00       		.byte	0
 14143 4731 3B       		.uleb128 0x3b
 14144 4732 320D0000 		.4byte	.LVL134
 14145 4736 5E690000 		.4byte	0x695e
 14146 473a 3D       		.uleb128 0x3d
 14147 473b 440D0000 		.4byte	.LVL135
 14148 473f 69690000 		.4byte	0x6969
 14149 4743 54470000 		.4byte	0x4754
 14150 4747 3E       		.uleb128 0x3e
 14151 4748 01       		.uleb128 0x1
 14152 4749 50       		.byte	0x50
 14153 474a 02       		.uleb128 0x2
 14154 474b 78       		.byte	0x78
 14155 474c 00       		.sleb128 0
 14156 474d 3E       		.uleb128 0x3e
 14157 474e 01       		.uleb128 0x1
 14158 474f 51       		.byte	0x51
 14159 4750 02       		.uleb128 0x2
 14160 4751 75       		.byte	0x75
 14161 4752 00       		.sleb128 0
 14162 4753 00       		.byte	0
 14163 4754 3D       		.uleb128 0x3d
 14164 4755 4A0D0000 		.4byte	.LVL136
 14165 4759 27690000 		.4byte	0x6927
 14166 475d 68470000 		.4byte	0x4768
 14167 4761 3E       		.uleb128 0x3e
 14168 4762 01       		.uleb128 0x1
ARM GAS  C:\Users\mathi\AppData\Local\Temp\cc0ZaFXf.s 			page 255


 14169 4763 50       		.byte	0x50
 14170 4764 02       		.uleb128 0x2
 14171 4765 78       		.byte	0x78
 14172 4766 00       		.sleb128 0
 14173 4767 00       		.byte	0
 14174 4768 3D       		.uleb128 0x3d
 14175 4769 520D0000 		.4byte	.LVL137
 14176 476d 32690000 		.4byte	0x6932
 14177 4771 7C470000 		.4byte	0x477c
 14178 4775 3E       		.uleb128 0x3e
 14179 4776 01       		.uleb128 0x1
 14180 4777 50       		.byte	0x50
 14181 4778 02       		.uleb128 0x2
 14182 4779 78       		.byte	0x78
 14183 477a 00       		.sleb128 0
 14184 477b 00       		.byte	0
 14185 477c 3B       		.uleb128 0x3b
 14186 477d 560D0000 		.4byte	.LVL138
 14187 4781 3D690000 		.4byte	0x693d
 14188 4785 3D       		.uleb128 0x3d
 14189 4786 700D0000 		.4byte	.LVL139
 14190 478a 74690000 		.4byte	0x6974
 14191 478e B4470000 		.4byte	0x47b4
 14192 4792 3E       		.uleb128 0x3e
 14193 4793 01       		.uleb128 0x1
 14194 4794 50       		.byte	0x50
 14195 4795 02       		.uleb128 0x2
 14196 4796 78       		.byte	0x78
 14197 4797 00       		.sleb128 0
 14198 4798 3E       		.uleb128 0x3e
 14199 4799 01       		.uleb128 0x1
 14200 479a 51       		.byte	0x51
 14201 479b 05       		.uleb128 0x5
 14202 479c 03       		.byte	0x3
 14203 479d F8090000 		.4byte	.LC85
 14204 47a1 3E       		.uleb128 0x3e
 14205 47a2 01       		.uleb128 0x1
 14206 47a3 52       		.byte	0x52
 14207 47a4 05       		.uleb128 0x5
 14208 47a5 03       		.byte	0x3
 14209 47a6 00000000 		.4byte	.LANCHOR25
 14210 47aa 3E       		.uleb128 0x3e
 14211 47ab 01       		.uleb128 0x1
 14212 47ac 53       		.byte	0x53
 14213 47ad 05       		.uleb128 0x5
 14214 47ae 03       		.byte	0x3
 14215 47af 00000000 		.4byte	.LANCHOR26
 14216 47b3 00       		.byte	0
 14217 47b4 3D       		.uleb128 0x3d
 14218 47b5 800D0000 		.4byte	.LVL140
 14219 47b9 69690000 		.4byte	0x6969
 14220 47bd D1470000 		.4byte	0x47d1
 14221 47c1 3E       		.uleb128 0x3e
 14222 47c2 01       		.uleb128 0x1
 14223 47c3 50       		.byte	0x50
 14224 47c4 02       		.uleb128 0x2
 14225 47c5 78       		.byte	0x78
ARM GAS  C:\Users\mathi\AppData\Local\Temp\cc0ZaFXf.s 			page 256


 14226 47c6 00       		.sleb128 0
 14227 47c7 3E       		.uleb128 0x3e
 14228 47c8 01       		.uleb128 0x1
 14229 47c9 51       		.byte	0x51
 14230 47ca 05       		.uleb128 0x5
 14231 47cb 03       		.byte	0x3
 14232 47cc 040A0000 		.4byte	.LC86
 14233 47d0 00       		.byte	0
 14234 47d1 3D       		.uleb128 0x3d
 14235 47d2 860D0000 		.4byte	.LVL141
 14236 47d6 27690000 		.4byte	0x6927
 14237 47da E5470000 		.4byte	0x47e5
 14238 47de 3E       		.uleb128 0x3e
 14239 47df 01       		.uleb128 0x1
 14240 47e0 50       		.byte	0x50
 14241 47e1 02       		.uleb128 0x2
 14242 47e2 78       		.byte	0x78
 14243 47e3 00       		.sleb128 0
 14244 47e4 00       		.byte	0
 14245 47e5 3D       		.uleb128 0x3d
 14246 47e6 8E0D0000 		.4byte	.LVL142
 14247 47ea 32690000 		.4byte	0x6932
 14248 47ee F9470000 		.4byte	0x47f9
 14249 47f2 3E       		.uleb128 0x3e
 14250 47f3 01       		.uleb128 0x1
 14251 47f4 50       		.byte	0x50
 14252 47f5 02       		.uleb128 0x2
 14253 47f6 78       		.byte	0x78
 14254 47f7 00       		.sleb128 0
 14255 47f8 00       		.byte	0
 14256 47f9 3B       		.uleb128 0x3b
 14257 47fa 920D0000 		.4byte	.LVL143
 14258 47fe 3D690000 		.4byte	0x693d
 14259 4802 3B       		.uleb128 0x3b
 14260 4803 9A0D0000 		.4byte	.LVL144
 14261 4807 48690000 		.4byte	0x6948
 14262 480b 3B       		.uleb128 0x3b
 14263 480c A60D0000 		.4byte	.LVL145
 14264 4810 53690000 		.4byte	0x6953
 14265 4814 3B       		.uleb128 0x3b
 14266 4815 B00D0000 		.4byte	.LVL146
 14267 4819 5E690000 		.4byte	0x695e
 14268 481d 3D       		.uleb128 0x3d
 14269 481e BA0D0000 		.4byte	.LVL147
 14270 4822 69690000 		.4byte	0x6969
 14271 4826 3A480000 		.4byte	0x483a
 14272 482a 3E       		.uleb128 0x3e
 14273 482b 01       		.uleb128 0x1
 14274 482c 50       		.byte	0x50
 14275 482d 02       		.uleb128 0x2
 14276 482e 78       		.byte	0x78
 14277 482f 00       		.sleb128 0
 14278 4830 3E       		.uleb128 0x3e
 14279 4831 01       		.uleb128 0x1
 14280 4832 51       		.byte	0x51
 14281 4833 05       		.uleb128 0x5
 14282 4834 03       		.byte	0x3
ARM GAS  C:\Users\mathi\AppData\Local\Temp\cc0ZaFXf.s 			page 257


 14283 4835 100A0000 		.4byte	.LC87
 14284 4839 00       		.byte	0
 14285 483a 3D       		.uleb128 0x3d
 14286 483b C00D0000 		.4byte	.LVL148
 14287 483f 27690000 		.4byte	0x6927
 14288 4843 4E480000 		.4byte	0x484e
 14289 4847 3E       		.uleb128 0x3e
 14290 4848 01       		.uleb128 0x1
 14291 4849 50       		.byte	0x50
 14292 484a 02       		.uleb128 0x2
 14293 484b 78       		.byte	0x78
 14294 484c 00       		.sleb128 0
 14295 484d 00       		.byte	0
 14296 484e 3D       		.uleb128 0x3d
 14297 484f C80D0000 		.4byte	.LVL149
 14298 4853 32690000 		.4byte	0x6932
 14299 4857 62480000 		.4byte	0x4862
 14300 485b 3E       		.uleb128 0x3e
 14301 485c 01       		.uleb128 0x1
 14302 485d 50       		.byte	0x50
 14303 485e 02       		.uleb128 0x2
 14304 485f 78       		.byte	0x78
 14305 4860 00       		.sleb128 0
 14306 4861 00       		.byte	0
 14307 4862 3B       		.uleb128 0x3b
 14308 4863 CC0D0000 		.4byte	.LVL150
 14309 4867 3D690000 		.4byte	0x693d
 14310 486b 3D       		.uleb128 0x3d
 14311 486c EE0D0000 		.4byte	.LVL151
 14312 4870 74690000 		.4byte	0x6974
 14313 4874 A1480000 		.4byte	0x48a1
 14314 4878 3E       		.uleb128 0x3e
 14315 4879 01       		.uleb128 0x1
 14316 487a 50       		.byte	0x50
 14317 487b 02       		.uleb128 0x2
 14318 487c 78       		.byte	0x78
 14319 487d 00       		.sleb128 0
 14320 487e 3E       		.uleb128 0x3e
 14321 487f 01       		.uleb128 0x1
 14322 4880 51       		.byte	0x51
 14323 4881 05       		.uleb128 0x5
 14324 4882 03       		.byte	0x3
 14325 4883 E8090000 		.4byte	.LC83
 14326 4887 3E       		.uleb128 0x3e
 14327 4888 01       		.uleb128 0x1
 14328 4889 52       		.byte	0x52
 14329 488a 05       		.uleb128 0x5
 14330 488b 03       		.byte	0x3
 14331 488c 00000000 		.4byte	.LANCHOR25
 14332 4890 3E       		.uleb128 0x3e
 14333 4891 01       		.uleb128 0x1
 14334 4892 53       		.byte	0x53
 14335 4893 05       		.uleb128 0x5
 14336 4894 03       		.byte	0x3
 14337 4895 00000000 		.4byte	.LANCHOR26
 14338 4899 3E       		.uleb128 0x3e
 14339 489a 02       		.uleb128 0x2
ARM GAS  C:\Users\mathi\AppData\Local\Temp\cc0ZaFXf.s 			page 258


 14340 489b 7D       		.byte	0x7d
 14341 489c 00       		.sleb128 0
 14342 489d 02       		.uleb128 0x2
 14343 489e 74       		.byte	0x74
 14344 489f 00       		.sleb128 0
 14345 48a0 00       		.byte	0
 14346 48a1 3B       		.uleb128 0x3b
 14347 48a2 F20D0000 		.4byte	.LVL152
 14348 48a6 48690000 		.4byte	0x6948
 14349 48aa 3B       		.uleb128 0x3b
 14350 48ab 000E0000 		.4byte	.LVL153
 14351 48af 7F690000 		.4byte	0x697f
 14352 48b3 3B       		.uleb128 0x3b
 14353 48b4 040E0000 		.4byte	.LVL154
 14354 48b8 5E690000 		.4byte	0x695e
 14355 48bc 3D       		.uleb128 0x3d
 14356 48bd 0C0E0000 		.4byte	.LVL155
 14357 48c1 32690000 		.4byte	0x6932
 14358 48c5 D8480000 		.4byte	0x48d8
 14359 48c9 3E       		.uleb128 0x3e
 14360 48ca 01       		.uleb128 0x1
 14361 48cb 50       		.byte	0x50
 14362 48cc 05       		.uleb128 0x5
 14363 48cd 03       		.byte	0x3
 14364 48ce F4090000 		.4byte	.LC84
 14365 48d2 3E       		.uleb128 0x3e
 14366 48d3 01       		.uleb128 0x1
 14367 48d4 51       		.byte	0x51
 14368 48d5 01       		.uleb128 0x1
 14369 48d6 33       		.byte	0x33
 14370 48d7 00       		.byte	0
 14371 48d8 3B       		.uleb128 0x3b
 14372 48d9 100E0000 		.4byte	.LVL156
 14373 48dd 3D690000 		.4byte	0x693d
 14374 48e1 3D       		.uleb128 0x3d
 14375 48e2 280E0000 		.4byte	.LVL157
 14376 48e6 32690000 		.4byte	0x6932
 14377 48ea FE480000 		.4byte	0x48fe
 14378 48ee 3E       		.uleb128 0x3e
 14379 48ef 01       		.uleb128 0x1
 14380 48f0 50       		.byte	0x50
 14381 48f1 05       		.uleb128 0x5
 14382 48f2 03       		.byte	0x3
 14383 48f3 C0090000 		.4byte	.LC82
 14384 48f7 3E       		.uleb128 0x3e
 14385 48f8 01       		.uleb128 0x1
 14386 48f9 51       		.byte	0x51
 14387 48fa 02       		.uleb128 0x2
 14388 48fb 08       		.byte	0x8
 14389 48fc 26       		.byte	0x26
 14390 48fd 00       		.byte	0
 14391 48fe 3B       		.uleb128 0x3b
 14392 48ff 2C0E0000 		.4byte	.LVL158
 14393 4903 3D690000 		.4byte	0x693d
 14394 4907 3D       		.uleb128 0x3d
 14395 4908 3C0E0000 		.4byte	.LVL159
 14396 490c 69690000 		.4byte	0x6969
ARM GAS  C:\Users\mathi\AppData\Local\Temp\cc0ZaFXf.s 			page 259


 14397 4910 24490000 		.4byte	0x4924
 14398 4914 3E       		.uleb128 0x3e
 14399 4915 01       		.uleb128 0x1
 14400 4916 50       		.byte	0x50
 14401 4917 02       		.uleb128 0x2
 14402 4918 78       		.byte	0x78
 14403 4919 00       		.sleb128 0
 14404 491a 3E       		.uleb128 0x3e
 14405 491b 01       		.uleb128 0x1
 14406 491c 51       		.byte	0x51
 14407 491d 05       		.uleb128 0x5
 14408 491e 03       		.byte	0x3
 14409 491f 580A0000 		.4byte	.LC91
 14410 4923 00       		.byte	0
 14411 4924 3D       		.uleb128 0x3d
 14412 4925 420E0000 		.4byte	.LVL160
 14413 4929 27690000 		.4byte	0x6927
 14414 492d 38490000 		.4byte	0x4938
 14415 4931 3E       		.uleb128 0x3e
 14416 4932 01       		.uleb128 0x1
 14417 4933 50       		.byte	0x50
 14418 4934 02       		.uleb128 0x2
 14419 4935 78       		.byte	0x78
 14420 4936 00       		.sleb128 0
 14421 4937 00       		.byte	0
 14422 4938 3D       		.uleb128 0x3d
 14423 4939 4A0E0000 		.4byte	.LVL161
 14424 493d 32690000 		.4byte	0x6932
 14425 4941 4C490000 		.4byte	0x494c
 14426 4945 3E       		.uleb128 0x3e
 14427 4946 01       		.uleb128 0x1
 14428 4947 50       		.byte	0x50
 14429 4948 02       		.uleb128 0x2
 14430 4949 78       		.byte	0x78
 14431 494a 00       		.sleb128 0
 14432 494b 00       		.byte	0
 14433 494c 3B       		.uleb128 0x3b
 14434 494d 4E0E0000 		.4byte	.LVL162
 14435 4951 3D690000 		.4byte	0x693d
 14436 4955 3B       		.uleb128 0x3b
 14437 4956 5A0E0000 		.4byte	.LVL163
 14438 495a 8A690000 		.4byte	0x698a
 14439 495e 3B       		.uleb128 0x3b
 14440 495f 600E0000 		.4byte	.LVL164
 14441 4963 95690000 		.4byte	0x6995
 14442 4967 3D       		.uleb128 0x3d
 14443 4968 6C0E0000 		.4byte	.LVL165
 14444 496c 69690000 		.4byte	0x6969
 14445 4970 8A490000 		.4byte	0x498a
 14446 4974 3E       		.uleb128 0x3e
 14447 4975 01       		.uleb128 0x1
 14448 4976 50       		.byte	0x50
 14449 4977 02       		.uleb128 0x2
 14450 4978 78       		.byte	0x78
 14451 4979 00       		.sleb128 0
 14452 497a 3E       		.uleb128 0x3e
 14453 497b 01       		.uleb128 0x1
ARM GAS  C:\Users\mathi\AppData\Local\Temp\cc0ZaFXf.s 			page 260


 14454 497c 51       		.byte	0x51
 14455 497d 05       		.uleb128 0x5
 14456 497e 03       		.byte	0x3
 14457 497f 8C090000 		.4byte	.LC76
 14458 4983 3E       		.uleb128 0x3e
 14459 4984 01       		.uleb128 0x1
 14460 4985 52       		.byte	0x52
 14461 4986 02       		.uleb128 0x2
 14462 4987 74       		.byte	0x74
 14463 4988 00       		.sleb128 0
 14464 4989 00       		.byte	0
 14465 498a 3D       		.uleb128 0x3d
 14466 498b 7A0E0000 		.4byte	.LVL166
 14467 498f 27690000 		.4byte	0x6927
 14468 4993 9E490000 		.4byte	0x499e
 14469 4997 3E       		.uleb128 0x3e
 14470 4998 01       		.uleb128 0x1
 14471 4999 50       		.byte	0x50
 14472 499a 02       		.uleb128 0x2
 14473 499b 78       		.byte	0x78
 14474 499c 00       		.sleb128 0
 14475 499d 00       		.byte	0
 14476 499e 3D       		.uleb128 0x3d
 14477 499f 820E0000 		.4byte	.LVL167
 14478 49a3 32690000 		.4byte	0x6932
 14479 49a7 B2490000 		.4byte	0x49b2
 14480 49ab 3E       		.uleb128 0x3e
 14481 49ac 01       		.uleb128 0x1
 14482 49ad 50       		.byte	0x50
 14483 49ae 02       		.uleb128 0x2
 14484 49af 78       		.byte	0x78
 14485 49b0 00       		.sleb128 0
 14486 49b1 00       		.byte	0
 14487 49b2 3B       		.uleb128 0x3b
 14488 49b3 860E0000 		.4byte	.LVL168
 14489 49b7 3D690000 		.4byte	0x693d
 14490 49bb 3D       		.uleb128 0x3d
 14491 49bc 9A0E0000 		.4byte	.LVL169
 14492 49c0 74690000 		.4byte	0x6974
 14493 49c4 EA490000 		.4byte	0x49ea
 14494 49c8 3E       		.uleb128 0x3e
 14495 49c9 01       		.uleb128 0x1
 14496 49ca 50       		.byte	0x50
 14497 49cb 02       		.uleb128 0x2
 14498 49cc 78       		.byte	0x78
 14499 49cd 00       		.sleb128 0
 14500 49ce 3E       		.uleb128 0x3e
 14501 49cf 01       		.uleb128 0x1
 14502 49d0 51       		.byte	0x51
 14503 49d1 05       		.uleb128 0x5
 14504 49d2 03       		.byte	0x3
 14505 49d3 7C090000 		.4byte	.LC74
 14506 49d7 3E       		.uleb128 0x3e
 14507 49d8 01       		.uleb128 0x1
 14508 49d9 52       		.byte	0x52
 14509 49da 05       		.uleb128 0x5
 14510 49db 03       		.byte	0x3
ARM GAS  C:\Users\mathi\AppData\Local\Temp\cc0ZaFXf.s 			page 261


 14511 49dc 00000000 		.4byte	.LANCHOR24
 14512 49e0 3E       		.uleb128 0x3e
 14513 49e1 01       		.uleb128 0x1
 14514 49e2 53       		.byte	0x53
 14515 49e3 05       		.uleb128 0x5
 14516 49e4 03       		.byte	0x3
 14517 49e5 00000000 		.4byte	.LANCHOR23
 14518 49e9 00       		.byte	0
 14519 49ea 3B       		.uleb128 0x3b
 14520 49eb A20E0000 		.4byte	.LVL170
 14521 49ef A0690000 		.4byte	0x69a0
 14522 49f3 3B       		.uleb128 0x3b
 14523 49f4 AA0E0000 		.4byte	.LVL171
 14524 49f8 AB690000 		.4byte	0x69ab
 14525 49fc 3D       		.uleb128 0x3d
 14526 49fd BA0E0000 		.4byte	.LVL172
 14527 4a01 32690000 		.4byte	0x6932
 14528 4a05 184A0000 		.4byte	0x4a18
 14529 4a09 3E       		.uleb128 0x3e
 14530 4a0a 01       		.uleb128 0x1
 14531 4a0b 50       		.byte	0x50
 14532 4a0c 05       		.uleb128 0x5
 14533 4a0d 03       		.byte	0x3
 14534 4a0e 88090000 		.4byte	.LC75
 14535 4a12 3E       		.uleb128 0x3e
 14536 4a13 01       		.uleb128 0x1
 14537 4a14 51       		.byte	0x51
 14538 4a15 01       		.uleb128 0x1
 14539 4a16 33       		.byte	0x33
 14540 4a17 00       		.byte	0
 14541 4a18 3B       		.uleb128 0x3b
 14542 4a19 BE0E0000 		.4byte	.LVL173
 14543 4a1d 3D690000 		.4byte	0x693d
 14544 4a21 3D       		.uleb128 0x3d
 14545 4a22 D80E0000 		.4byte	.LVL174
 14546 4a26 74690000 		.4byte	0x6974
 14547 4a2a 474A0000 		.4byte	0x4a47
 14548 4a2e 3E       		.uleb128 0x3e
 14549 4a2f 01       		.uleb128 0x1
 14550 4a30 50       		.byte	0x50
 14551 4a31 02       		.uleb128 0x2
 14552 4a32 78       		.byte	0x78
 14553 4a33 00       		.sleb128 0
 14554 4a34 3E       		.uleb128 0x3e
 14555 4a35 01       		.uleb128 0x1
 14556 4a36 51       		.byte	0x51
 14557 4a37 05       		.uleb128 0x5
 14558 4a38 03       		.byte	0x3
 14559 4a39 9C090000 		.4byte	.LC78
 14560 4a3d 3E       		.uleb128 0x3e
 14561 4a3e 01       		.uleb128 0x1
 14562 4a3f 52       		.byte	0x52
 14563 4a40 05       		.uleb128 0x5
 14564 4a41 03       		.byte	0x3
 14565 4a42 00000000 		.4byte	.LANCHOR32
 14566 4a46 00       		.byte	0
 14567 4a47 3D       		.uleb128 0x3d
ARM GAS  C:\Users\mathi\AppData\Local\Temp\cc0ZaFXf.s 			page 262


 14568 4a48 0A0F0000 		.4byte	.LVL175
 14569 4a4c B6690000 		.4byte	0x69b6
 14570 4a50 5A4A0000 		.4byte	0x4a5a
 14571 4a54 3E       		.uleb128 0x3e
 14572 4a55 01       		.uleb128 0x1
 14573 4a56 50       		.byte	0x50
 14574 4a57 01       		.uleb128 0x1
 14575 4a58 30       		.byte	0x30
 14576 4a59 00       		.byte	0
 14577 4a5a 3D       		.uleb128 0x3d
 14578 4a5b 120F0000 		.4byte	.LVL176
 14579 4a5f B6690000 		.4byte	0x69b6
 14580 4a63 6D4A0000 		.4byte	0x4a6d
 14581 4a67 3E       		.uleb128 0x3e
 14582 4a68 01       		.uleb128 0x1
 14583 4a69 50       		.byte	0x50
 14584 4a6a 01       		.uleb128 0x1
 14585 4a6b 31       		.byte	0x31
 14586 4a6c 00       		.byte	0
 14587 4a6d 3D       		.uleb128 0x3d
 14588 4a6e 1A0F0000 		.4byte	.LVL177
 14589 4a72 B6690000 		.4byte	0x69b6
 14590 4a76 804A0000 		.4byte	0x4a80
 14591 4a7a 3E       		.uleb128 0x3e
 14592 4a7b 01       		.uleb128 0x1
 14593 4a7c 50       		.byte	0x50
 14594 4a7d 01       		.uleb128 0x1
 14595 4a7e 32       		.byte	0x32
 14596 4a7f 00       		.byte	0
 14597 4a80 3D       		.uleb128 0x3d
 14598 4a81 220F0000 		.4byte	.LVL178
 14599 4a85 B6690000 		.4byte	0x69b6
 14600 4a89 934A0000 		.4byte	0x4a93
 14601 4a8d 3E       		.uleb128 0x3e
 14602 4a8e 01       		.uleb128 0x1
 14603 4a8f 50       		.byte	0x50
 14604 4a90 01       		.uleb128 0x1
 14605 4a91 33       		.byte	0x33
 14606 4a92 00       		.byte	0
 14607 4a93 3D       		.uleb128 0x3d
 14608 4a94 2A0F0000 		.4byte	.LVL179
 14609 4a98 B6690000 		.4byte	0x69b6
 14610 4a9c A64A0000 		.4byte	0x4aa6
 14611 4aa0 3E       		.uleb128 0x3e
 14612 4aa1 01       		.uleb128 0x1
 14613 4aa2 50       		.byte	0x50
 14614 4aa3 01       		.uleb128 0x1
 14615 4aa4 34       		.byte	0x34
 14616 4aa5 00       		.byte	0
 14617 4aa6 3D       		.uleb128 0x3d
 14618 4aa7 320F0000 		.4byte	.LVL180
 14619 4aab B6690000 		.4byte	0x69b6
 14620 4aaf B94A0000 		.4byte	0x4ab9
 14621 4ab3 3E       		.uleb128 0x3e
 14622 4ab4 01       		.uleb128 0x1
 14623 4ab5 50       		.byte	0x50
 14624 4ab6 01       		.uleb128 0x1
ARM GAS  C:\Users\mathi\AppData\Local\Temp\cc0ZaFXf.s 			page 263


 14625 4ab7 35       		.byte	0x35
 14626 4ab8 00       		.byte	0
 14627 4ab9 3D       		.uleb128 0x3d
 14628 4aba 3A0F0000 		.4byte	.LVL181
 14629 4abe B6690000 		.4byte	0x69b6
 14630 4ac2 CC4A0000 		.4byte	0x4acc
 14631 4ac6 3E       		.uleb128 0x3e
 14632 4ac7 01       		.uleb128 0x1
 14633 4ac8 50       		.byte	0x50
 14634 4ac9 01       		.uleb128 0x1
 14635 4aca 36       		.byte	0x36
 14636 4acb 00       		.byte	0
 14637 4acc 3D       		.uleb128 0x3d
 14638 4acd 420F0000 		.4byte	.LVL182
 14639 4ad1 B6690000 		.4byte	0x69b6
 14640 4ad5 DF4A0000 		.4byte	0x4adf
 14641 4ad9 3E       		.uleb128 0x3e
 14642 4ada 01       		.uleb128 0x1
 14643 4adb 50       		.byte	0x50
 14644 4adc 01       		.uleb128 0x1
 14645 4add 37       		.byte	0x37
 14646 4ade 00       		.byte	0
 14647 4adf 3D       		.uleb128 0x3d
 14648 4ae0 5E0F0000 		.4byte	.LVL183
 14649 4ae4 69690000 		.4byte	0x6969
 14650 4ae8 334B0000 		.4byte	0x4b33
 14651 4aec 3E       		.uleb128 0x3e
 14652 4aed 01       		.uleb128 0x1
 14653 4aee 50       		.byte	0x50
 14654 4aef 02       		.uleb128 0x2
 14655 4af0 78       		.byte	0x78
 14656 4af1 00       		.sleb128 0
 14657 4af2 3E       		.uleb128 0x3e
 14658 4af3 01       		.uleb128 0x1
 14659 4af4 51       		.byte	0x51
 14660 4af5 05       		.uleb128 0x5
 14661 4af6 03       		.byte	0x3
 14662 4af7 3C090000 		.4byte	.LC72
 14663 4afb 3E       		.uleb128 0x3e
 14664 4afc 01       		.uleb128 0x1
 14665 4afd 52       		.byte	0x52
 14666 4afe 04       		.uleb128 0x4
 14667 4aff 91       		.byte	0x91
 14668 4b00 A47F     		.sleb128 -92
 14669 4b02 06       		.byte	0x6
 14670 4b03 3E       		.uleb128 0x3e
 14671 4b04 01       		.uleb128 0x1
 14672 4b05 53       		.byte	0x53
 14673 4b06 04       		.uleb128 0x4
 14674 4b07 91       		.byte	0x91
 14675 4b08 A07F     		.sleb128 -96
 14676 4b0a 06       		.byte	0x6
 14677 4b0b 3E       		.uleb128 0x3e
 14678 4b0c 02       		.uleb128 0x2
 14679 4b0d 7D       		.byte	0x7d
 14680 4b0e 00       		.sleb128 0
 14681 4b0f 04       		.uleb128 0x4
ARM GAS  C:\Users\mathi\AppData\Local\Temp\cc0ZaFXf.s 			page 264


 14682 4b10 91       		.byte	0x91
 14683 4b11 987F     		.sleb128 -104
 14684 4b13 06       		.byte	0x6
 14685 4b14 3E       		.uleb128 0x3e
 14686 4b15 02       		.uleb128 0x2
 14687 4b16 7D       		.byte	0x7d
 14688 4b17 04       		.sleb128 4
 14689 4b18 02       		.uleb128 0x2
 14690 4b19 74       		.byte	0x74
 14691 4b1a 00       		.sleb128 0
 14692 4b1b 3E       		.uleb128 0x3e
 14693 4b1c 02       		.uleb128 0x2
 14694 4b1d 7D       		.byte	0x7d
 14695 4b1e 08       		.sleb128 8
 14696 4b1f 02       		.uleb128 0x2
 14697 4b20 75       		.byte	0x75
 14698 4b21 00       		.sleb128 0
 14699 4b22 3E       		.uleb128 0x3e
 14700 4b23 02       		.uleb128 0x2
 14701 4b24 7D       		.byte	0x7d
 14702 4b25 0C       		.sleb128 12
 14703 4b26 02       		.uleb128 0x2
 14704 4b27 76       		.byte	0x76
 14705 4b28 00       		.sleb128 0
 14706 4b29 3E       		.uleb128 0x3e
 14707 4b2a 02       		.uleb128 0x2
 14708 4b2b 7D       		.byte	0x7d
 14709 4b2c 10       		.sleb128 16
 14710 4b2d 04       		.uleb128 0x4
 14711 4b2e 91       		.byte	0x91
 14712 4b2f 9C7F     		.sleb128 -100
 14713 4b31 06       		.byte	0x6
 14714 4b32 00       		.byte	0
 14715 4b33 3D       		.uleb128 0x3d
 14716 4b34 640F0000 		.4byte	.LVL184
 14717 4b38 27690000 		.4byte	0x6927
 14718 4b3c 474B0000 		.4byte	0x4b47
 14719 4b40 3E       		.uleb128 0x3e
 14720 4b41 01       		.uleb128 0x1
 14721 4b42 50       		.byte	0x50
 14722 4b43 02       		.uleb128 0x2
 14723 4b44 78       		.byte	0x78
 14724 4b45 00       		.sleb128 0
 14725 4b46 00       		.byte	0
 14726 4b47 3D       		.uleb128 0x3d
 14727 4b48 6C0F0000 		.4byte	.LVL185
 14728 4b4c 32690000 		.4byte	0x6932
 14729 4b50 5B4B0000 		.4byte	0x4b5b
 14730 4b54 3E       		.uleb128 0x3e
 14731 4b55 01       		.uleb128 0x1
 14732 4b56 50       		.byte	0x50
 14733 4b57 02       		.uleb128 0x2
 14734 4b58 78       		.byte	0x78
 14735 4b59 00       		.sleb128 0
 14736 4b5a 00       		.byte	0
 14737 4b5b 3B       		.uleb128 0x3b
 14738 4b5c 700F0000 		.4byte	.LVL186
ARM GAS  C:\Users\mathi\AppData\Local\Temp\cc0ZaFXf.s 			page 265


 14739 4b60 3D690000 		.4byte	0x693d
 14740 4b64 3D       		.uleb128 0x3d
 14741 4b65 E60F0000 		.4byte	.LVL187
 14742 4b69 C1690000 		.4byte	0x69c1
 14743 4b6d 774B0000 		.4byte	0x4b77
 14744 4b71 3E       		.uleb128 0x3e
 14745 4b72 01       		.uleb128 0x1
 14746 4b73 50       		.byte	0x50
 14747 4b74 01       		.uleb128 0x1
 14748 4b75 30       		.byte	0x30
 14749 4b76 00       		.byte	0
 14750 4b77 3D       		.uleb128 0x3d
 14751 4b78 EE0F0000 		.4byte	.LVL188
 14752 4b7c C1690000 		.4byte	0x69c1
 14753 4b80 8A4B0000 		.4byte	0x4b8a
 14754 4b84 3E       		.uleb128 0x3e
 14755 4b85 01       		.uleb128 0x1
 14756 4b86 50       		.byte	0x50
 14757 4b87 01       		.uleb128 0x1
 14758 4b88 31       		.byte	0x31
 14759 4b89 00       		.byte	0
 14760 4b8a 3D       		.uleb128 0x3d
 14761 4b8b F60F0000 		.4byte	.LVL189
 14762 4b8f C1690000 		.4byte	0x69c1
 14763 4b93 9D4B0000 		.4byte	0x4b9d
 14764 4b97 3E       		.uleb128 0x3e
 14765 4b98 01       		.uleb128 0x1
 14766 4b99 50       		.byte	0x50
 14767 4b9a 01       		.uleb128 0x1
 14768 4b9b 32       		.byte	0x32
 14769 4b9c 00       		.byte	0
 14770 4b9d 3D       		.uleb128 0x3d
 14771 4b9e FE0F0000 		.4byte	.LVL190
 14772 4ba2 C1690000 		.4byte	0x69c1
 14773 4ba6 B04B0000 		.4byte	0x4bb0
 14774 4baa 3E       		.uleb128 0x3e
 14775 4bab 01       		.uleb128 0x1
 14776 4bac 50       		.byte	0x50
 14777 4bad 01       		.uleb128 0x1
 14778 4bae 33       		.byte	0x33
 14779 4baf 00       		.byte	0
 14780 4bb0 3D       		.uleb128 0x3d
 14781 4bb1 06100000 		.4byte	.LVL191
 14782 4bb5 C1690000 		.4byte	0x69c1
 14783 4bb9 C34B0000 		.4byte	0x4bc3
 14784 4bbd 3E       		.uleb128 0x3e
 14785 4bbe 01       		.uleb128 0x1
 14786 4bbf 50       		.byte	0x50
 14787 4bc0 01       		.uleb128 0x1
 14788 4bc1 34       		.byte	0x34
 14789 4bc2 00       		.byte	0
 14790 4bc3 3D       		.uleb128 0x3d
 14791 4bc4 0E100000 		.4byte	.LVL192
 14792 4bc8 C1690000 		.4byte	0x69c1
 14793 4bcc D64B0000 		.4byte	0x4bd6
 14794 4bd0 3E       		.uleb128 0x3e
 14795 4bd1 01       		.uleb128 0x1
ARM GAS  C:\Users\mathi\AppData\Local\Temp\cc0ZaFXf.s 			page 266


 14796 4bd2 50       		.byte	0x50
 14797 4bd3 01       		.uleb128 0x1
 14798 4bd4 35       		.byte	0x35
 14799 4bd5 00       		.byte	0
 14800 4bd6 3D       		.uleb128 0x3d
 14801 4bd7 16100000 		.4byte	.LVL193
 14802 4bdb C1690000 		.4byte	0x69c1
 14803 4bdf E94B0000 		.4byte	0x4be9
 14804 4be3 3E       		.uleb128 0x3e
 14805 4be4 01       		.uleb128 0x1
 14806 4be5 50       		.byte	0x50
 14807 4be6 01       		.uleb128 0x1
 14808 4be7 36       		.byte	0x36
 14809 4be8 00       		.byte	0
 14810 4be9 3D       		.uleb128 0x3d
 14811 4bea 1E100000 		.4byte	.LVL194
 14812 4bee C1690000 		.4byte	0x69c1
 14813 4bf2 FC4B0000 		.4byte	0x4bfc
 14814 4bf6 3E       		.uleb128 0x3e
 14815 4bf7 01       		.uleb128 0x1
 14816 4bf8 50       		.byte	0x50
 14817 4bf9 01       		.uleb128 0x1
 14818 4bfa 37       		.byte	0x37
 14819 4bfb 00       		.byte	0
 14820 4bfc 3D       		.uleb128 0x3d
 14821 4bfd 3A100000 		.4byte	.LVL195
 14822 4c01 69690000 		.4byte	0x6969
 14823 4c05 504C0000 		.4byte	0x4c50
 14824 4c09 3E       		.uleb128 0x3e
 14825 4c0a 01       		.uleb128 0x1
 14826 4c0b 50       		.byte	0x50
 14827 4c0c 02       		.uleb128 0x2
 14828 4c0d 78       		.byte	0x78
 14829 4c0e 00       		.sleb128 0
 14830 4c0f 3E       		.uleb128 0x3e
 14831 4c10 01       		.uleb128 0x1
 14832 4c11 51       		.byte	0x51
 14833 4c12 05       		.uleb128 0x5
 14834 4c13 03       		.byte	0x3
 14835 4c14 FC080000 		.4byte	.LC70
 14836 4c18 3E       		.uleb128 0x3e
 14837 4c19 01       		.uleb128 0x1
 14838 4c1a 52       		.byte	0x52
 14839 4c1b 04       		.uleb128 0x4
 14840 4c1c 91       		.byte	0x91
 14841 4c1d A47F     		.sleb128 -92
 14842 4c1f 06       		.byte	0x6
 14843 4c20 3E       		.uleb128 0x3e
 14844 4c21 01       		.uleb128 0x1
 14845 4c22 53       		.byte	0x53
 14846 4c23 04       		.uleb128 0x4
 14847 4c24 91       		.byte	0x91
 14848 4c25 A07F     		.sleb128 -96
 14849 4c27 06       		.byte	0x6
 14850 4c28 3E       		.uleb128 0x3e
 14851 4c29 02       		.uleb128 0x2
 14852 4c2a 7D       		.byte	0x7d
ARM GAS  C:\Users\mathi\AppData\Local\Temp\cc0ZaFXf.s 			page 267


 14853 4c2b 00       		.sleb128 0
 14854 4c2c 04       		.uleb128 0x4
 14855 4c2d 91       		.byte	0x91
 14856 4c2e 987F     		.sleb128 -104
 14857 4c30 06       		.byte	0x6
 14858 4c31 3E       		.uleb128 0x3e
 14859 4c32 02       		.uleb128 0x2
 14860 4c33 7D       		.byte	0x7d
 14861 4c34 04       		.sleb128 4
 14862 4c35 02       		.uleb128 0x2
 14863 4c36 74       		.byte	0x74
 14864 4c37 00       		.sleb128 0
 14865 4c38 3E       		.uleb128 0x3e
 14866 4c39 02       		.uleb128 0x2
 14867 4c3a 7D       		.byte	0x7d
 14868 4c3b 08       		.sleb128 8
 14869 4c3c 02       		.uleb128 0x2
 14870 4c3d 75       		.byte	0x75
 14871 4c3e 00       		.sleb128 0
 14872 4c3f 3E       		.uleb128 0x3e
 14873 4c40 02       		.uleb128 0x2
 14874 4c41 7D       		.byte	0x7d
 14875 4c42 0C       		.sleb128 12
 14876 4c43 02       		.uleb128 0x2
 14877 4c44 76       		.byte	0x76
 14878 4c45 00       		.sleb128 0
 14879 4c46 3E       		.uleb128 0x3e
 14880 4c47 02       		.uleb128 0x2
 14881 4c48 7D       		.byte	0x7d
 14882 4c49 10       		.sleb128 16
 14883 4c4a 04       		.uleb128 0x4
 14884 4c4b 91       		.byte	0x91
 14885 4c4c 9C7F     		.sleb128 -100
 14886 4c4e 06       		.byte	0x6
 14887 4c4f 00       		.byte	0
 14888 4c50 3D       		.uleb128 0x3d
 14889 4c51 40100000 		.4byte	.LVL196
 14890 4c55 27690000 		.4byte	0x6927
 14891 4c59 644C0000 		.4byte	0x4c64
 14892 4c5d 3E       		.uleb128 0x3e
 14893 4c5e 01       		.uleb128 0x1
 14894 4c5f 50       		.byte	0x50
 14895 4c60 02       		.uleb128 0x2
 14896 4c61 78       		.byte	0x78
 14897 4c62 00       		.sleb128 0
 14898 4c63 00       		.byte	0
 14899 4c64 3D       		.uleb128 0x3d
 14900 4c65 48100000 		.4byte	.LVL197
 14901 4c69 32690000 		.4byte	0x6932
 14902 4c6d 784C0000 		.4byte	0x4c78
 14903 4c71 3E       		.uleb128 0x3e
 14904 4c72 01       		.uleb128 0x1
 14905 4c73 50       		.byte	0x50
 14906 4c74 02       		.uleb128 0x2
 14907 4c75 78       		.byte	0x78
 14908 4c76 00       		.sleb128 0
 14909 4c77 00       		.byte	0
ARM GAS  C:\Users\mathi\AppData\Local\Temp\cc0ZaFXf.s 			page 268


 14910 4c78 3B       		.uleb128 0x3b
 14911 4c79 4C100000 		.4byte	.LVL198
 14912 4c7d 3D690000 		.4byte	0x693d
 14913 4c81 3D       		.uleb128 0x3d
 14914 4c82 5A100000 		.4byte	.LVL199
 14915 4c86 CC690000 		.4byte	0x69cc
 14916 4c8a 944C0000 		.4byte	0x4c94
 14917 4c8e 3E       		.uleb128 0x3e
 14918 4c8f 01       		.uleb128 0x1
 14919 4c90 50       		.byte	0x50
 14920 4c91 01       		.uleb128 0x1
 14921 4c92 30       		.byte	0x30
 14922 4c93 00       		.byte	0
 14923 4c94 3D       		.uleb128 0x3d
 14924 4c95 62100000 		.4byte	.LVL200
 14925 4c99 CC690000 		.4byte	0x69cc
 14926 4c9d A74C0000 		.4byte	0x4ca7
 14927 4ca1 3E       		.uleb128 0x3e
 14928 4ca2 01       		.uleb128 0x1
 14929 4ca3 50       		.byte	0x50
 14930 4ca4 01       		.uleb128 0x1
 14931 4ca5 31       		.byte	0x31
 14932 4ca6 00       		.byte	0
 14933 4ca7 3D       		.uleb128 0x3d
 14934 4ca8 6A100000 		.4byte	.LVL201
 14935 4cac CC690000 		.4byte	0x69cc
 14936 4cb0 BA4C0000 		.4byte	0x4cba
 14937 4cb4 3E       		.uleb128 0x3e
 14938 4cb5 01       		.uleb128 0x1
 14939 4cb6 50       		.byte	0x50
 14940 4cb7 01       		.uleb128 0x1
 14941 4cb8 32       		.byte	0x32
 14942 4cb9 00       		.byte	0
 14943 4cba 3D       		.uleb128 0x3d
 14944 4cbb 78100000 		.4byte	.LVL202
 14945 4cbf 69690000 		.4byte	0x6969
 14946 4cc3 E34C0000 		.4byte	0x4ce3
 14947 4cc7 3E       		.uleb128 0x3e
 14948 4cc8 01       		.uleb128 0x1
 14949 4cc9 50       		.byte	0x50
 14950 4cca 02       		.uleb128 0x2
 14951 4ccb 78       		.byte	0x78
 14952 4ccc 00       		.sleb128 0
 14953 4ccd 3E       		.uleb128 0x3e
 14954 4cce 01       		.uleb128 0x1
 14955 4ccf 51       		.byte	0x51
 14956 4cd0 05       		.uleb128 0x5
 14957 4cd1 03       		.byte	0x3
 14958 4cd2 B0090000 		.4byte	.LC81
 14959 4cd6 3E       		.uleb128 0x3e
 14960 4cd7 01       		.uleb128 0x1
 14961 4cd8 52       		.byte	0x52
 14962 4cd9 02       		.uleb128 0x2
 14963 4cda 74       		.byte	0x74
 14964 4cdb 00       		.sleb128 0
 14965 4cdc 3E       		.uleb128 0x3e
 14966 4cdd 01       		.uleb128 0x1
ARM GAS  C:\Users\mathi\AppData\Local\Temp\cc0ZaFXf.s 			page 269


 14967 4cde 53       		.byte	0x53
 14968 4cdf 02       		.uleb128 0x2
 14969 4ce0 75       		.byte	0x75
 14970 4ce1 00       		.sleb128 0
 14971 4ce2 00       		.byte	0
 14972 4ce3 3D       		.uleb128 0x3d
 14973 4ce4 86100000 		.4byte	.LVL203
 14974 4ce8 27690000 		.4byte	0x6927
 14975 4cec F74C0000 		.4byte	0x4cf7
 14976 4cf0 3E       		.uleb128 0x3e
 14977 4cf1 01       		.uleb128 0x1
 14978 4cf2 50       		.byte	0x50
 14979 4cf3 02       		.uleb128 0x2
 14980 4cf4 78       		.byte	0x78
 14981 4cf5 00       		.sleb128 0
 14982 4cf6 00       		.byte	0
 14983 4cf7 3D       		.uleb128 0x3d
 14984 4cf8 8E100000 		.4byte	.LVL204
 14985 4cfc 32690000 		.4byte	0x6932
 14986 4d00 0B4D0000 		.4byte	0x4d0b
 14987 4d04 3E       		.uleb128 0x3e
 14988 4d05 01       		.uleb128 0x1
 14989 4d06 50       		.byte	0x50
 14990 4d07 02       		.uleb128 0x2
 14991 4d08 78       		.byte	0x78
 14992 4d09 00       		.sleb128 0
 14993 4d0a 00       		.byte	0
 14994 4d0b 3B       		.uleb128 0x3b
 14995 4d0c 92100000 		.4byte	.LVL205
 14996 4d10 3D690000 		.4byte	0x693d
 14997 4d14 3D       		.uleb128 0x3d
 14998 4d15 A0100000 		.4byte	.LVL206
 14999 4d19 D7690000 		.4byte	0x69d7
 15000 4d1d 274D0000 		.4byte	0x4d27
 15001 4d21 3E       		.uleb128 0x3e
 15002 4d22 01       		.uleb128 0x1
 15003 4d23 50       		.byte	0x50
 15004 4d24 01       		.uleb128 0x1
 15005 4d25 30       		.byte	0x30
 15006 4d26 00       		.byte	0
 15007 4d27 3D       		.uleb128 0x3d
 15008 4d28 A6100000 		.4byte	.LVL207
 15009 4d2c E2690000 		.4byte	0x69e2
 15010 4d30 3A4D0000 		.4byte	0x4d3a
 15011 4d34 3E       		.uleb128 0x3e
 15012 4d35 01       		.uleb128 0x1
 15013 4d36 50       		.byte	0x50
 15014 4d37 01       		.uleb128 0x1
 15015 4d38 30       		.byte	0x30
 15016 4d39 00       		.byte	0
 15017 4d3a 3D       		.uleb128 0x3d
 15018 4d3b AE100000 		.4byte	.LVL208
 15019 4d3f ED690000 		.4byte	0x69ed
 15020 4d43 524D0000 		.4byte	0x4d52
 15021 4d47 3E       		.uleb128 0x3e
 15022 4d48 01       		.uleb128 0x1
 15023 4d49 50       		.byte	0x50
ARM GAS  C:\Users\mathi\AppData\Local\Temp\cc0ZaFXf.s 			page 270


 15024 4d4a 01       		.uleb128 0x1
 15025 4d4b 38       		.byte	0x38
 15026 4d4c 3E       		.uleb128 0x3e
 15027 4d4d 01       		.uleb128 0x1
 15028 4d4e 51       		.byte	0x51
 15029 4d4f 01       		.uleb128 0x1
 15030 4d50 30       		.byte	0x30
 15031 4d51 00       		.byte	0
 15032 4d52 3D       		.uleb128 0x3d
 15033 4d53 BE100000 		.4byte	.LVL209
 15034 4d57 32690000 		.4byte	0x6932
 15035 4d5b 6E4D0000 		.4byte	0x4d6e
 15036 4d5f 3E       		.uleb128 0x3e
 15037 4d60 01       		.uleb128 0x1
 15038 4d61 50       		.byte	0x50
 15039 4d62 05       		.uleb128 0x5
 15040 4d63 03       		.byte	0x3
 15041 4d64 98090000 		.4byte	.LC77
 15042 4d68 3E       		.uleb128 0x3e
 15043 4d69 01       		.uleb128 0x1
 15044 4d6a 51       		.byte	0x51
 15045 4d6b 01       		.uleb128 0x1
 15046 4d6c 33       		.byte	0x33
 15047 4d6d 00       		.byte	0
 15048 4d6e 3B       		.uleb128 0x3b
 15049 4d6f C2100000 		.4byte	.LVL210
 15050 4d73 3D690000 		.4byte	0x693d
 15051 4d77 3B       		.uleb128 0x3b
 15052 4d78 D8100000 		.4byte	.LVL211
 15053 4d7c 48690000 		.4byte	0x6948
 15054 4d80 3D       		.uleb128 0x3d
 15055 4d81 F8100000 		.4byte	.LVL212
 15056 4d85 53690000 		.4byte	0x6953
 15057 4d89 B74D0000 		.4byte	0x4db7
 15058 4d8d 3E       		.uleb128 0x3e
 15059 4d8e 01       		.uleb128 0x1
 15060 4d8f 50       		.byte	0x50
 15061 4d90 02       		.uleb128 0x2
 15062 4d91 09       		.byte	0x9
 15063 4d92 C0       		.byte	0xc0
 15064 4d93 3E       		.uleb128 0x3e
 15065 4d94 01       		.uleb128 0x1
 15066 4d95 51       		.byte	0x51
 15067 4d96 1F       		.uleb128 0x1f
 15068 4d97 74       		.byte	0x74
 15069 4d98 00       		.sleb128 0
 15070 4d99 08       		.byte	0x8
 15071 4d9a FF       		.byte	0xff
 15072 4d9b 1A       		.byte	0x1a
 15073 4d9c 31       		.byte	0x31
 15074 4d9d 1C       		.byte	0x1c
 15075 4d9e 08       		.byte	0x8
 15076 4d9f FF       		.byte	0xff
 15077 4da0 1A       		.byte	0x1a
 15078 4da1 74       		.byte	0x74
 15079 4da2 00       		.sleb128 0
 15080 4da3 08       		.byte	0x8
ARM GAS  C:\Users\mathi\AppData\Local\Temp\cc0ZaFXf.s 			page 271


 15081 4da4 FF       		.byte	0xff
 15082 4da5 1A       		.byte	0x1a
 15083 4da6 23       		.byte	0x23
 15084 4da7 01       		.uleb128 0x1
 15085 4da8 08       		.byte	0x8
 15086 4da9 FF       		.byte	0xff
 15087 4daa 1A       		.byte	0x1a
 15088 4dab 74       		.byte	0x74
 15089 4dac 00       		.sleb128 0
 15090 4dad 4F       		.byte	0x4f
 15091 4dae 24       		.byte	0x24
 15092 4daf 30       		.byte	0x30
 15093 4db0 2D       		.byte	0x2d
 15094 4db1 28       		.byte	0x28
 15095 4db2 0100     		.2byte	0x1
 15096 4db4 16       		.byte	0x16
 15097 4db5 13       		.byte	0x13
 15098 4db6 00       		.byte	0
 15099 4db7 3D       		.uleb128 0x3d
 15100 4db8 2C110000 		.4byte	.LVL213
 15101 4dbc 53690000 		.4byte	0x6953
 15102 4dc0 CB4D0000 		.4byte	0x4dcb
 15103 4dc4 3E       		.uleb128 0x3e
 15104 4dc5 01       		.uleb128 0x1
 15105 4dc6 50       		.byte	0x50
 15106 4dc7 02       		.uleb128 0x2
 15107 4dc8 09       		.byte	0x9
 15108 4dc9 C0       		.byte	0xc0
 15109 4dca 00       		.byte	0
 15110 4dcb 3B       		.uleb128 0x3b
 15111 4dcc 42110000 		.4byte	.LVL214
 15112 4dd0 5E690000 		.4byte	0x695e
 15113 4dd4 3D       		.uleb128 0x3d
 15114 4dd5 8C110000 		.4byte	.LVL215
 15115 4dd9 69690000 		.4byte	0x6969
 15116 4ddd F14D0000 		.4byte	0x4df1
 15117 4de1 3E       		.uleb128 0x3e
 15118 4de2 01       		.uleb128 0x1
 15119 4de3 50       		.byte	0x50
 15120 4de4 02       		.uleb128 0x2
 15121 4de5 78       		.byte	0x78
 15122 4de6 00       		.sleb128 0
 15123 4de7 3E       		.uleb128 0x3e
 15124 4de8 01       		.uleb128 0x1
 15125 4de9 51       		.byte	0x51
 15126 4dea 05       		.uleb128 0x5
 15127 4deb 03       		.byte	0x3
 15128 4dec E8080000 		.4byte	.LC69
 15129 4df0 00       		.byte	0
 15130 4df1 3D       		.uleb128 0x3d
 15131 4df2 92110000 		.4byte	.LVL216
 15132 4df6 27690000 		.4byte	0x6927
 15133 4dfa 054E0000 		.4byte	0x4e05
 15134 4dfe 3E       		.uleb128 0x3e
 15135 4dff 01       		.uleb128 0x1
 15136 4e00 50       		.byte	0x50
 15137 4e01 02       		.uleb128 0x2
ARM GAS  C:\Users\mathi\AppData\Local\Temp\cc0ZaFXf.s 			page 272


 15138 4e02 78       		.byte	0x78
 15139 4e03 00       		.sleb128 0
 15140 4e04 00       		.byte	0
 15141 4e05 3D       		.uleb128 0x3d
 15142 4e06 9A110000 		.4byte	.LVL217
 15143 4e0a 32690000 		.4byte	0x6932
 15144 4e0e 194E0000 		.4byte	0x4e19
 15145 4e12 3E       		.uleb128 0x3e
 15146 4e13 01       		.uleb128 0x1
 15147 4e14 50       		.byte	0x50
 15148 4e15 02       		.uleb128 0x2
 15149 4e16 78       		.byte	0x78
 15150 4e17 00       		.sleb128 0
 15151 4e18 00       		.byte	0
 15152 4e19 3B       		.uleb128 0x3b
 15153 4e1a 9E110000 		.4byte	.LVL218
 15154 4e1e 3D690000 		.4byte	0x693d
 15155 4e22 3D       		.uleb128 0x3d
 15156 4e23 B6110000 		.4byte	.LVL219
 15157 4e27 69690000 		.4byte	0x6969
 15158 4e2b 3F4E0000 		.4byte	0x4e3f
 15159 4e2f 3E       		.uleb128 0x3e
 15160 4e30 01       		.uleb128 0x1
 15161 4e31 50       		.byte	0x50
 15162 4e32 02       		.uleb128 0x2
 15163 4e33 78       		.byte	0x78
 15164 4e34 00       		.sleb128 0
 15165 4e35 3E       		.uleb128 0x3e
 15166 4e36 01       		.uleb128 0x1
 15167 4e37 51       		.byte	0x51
 15168 4e38 05       		.uleb128 0x5
 15169 4e39 03       		.byte	0x3
 15170 4e3a B4000000 		.4byte	.LC10
 15171 4e3e 00       		.byte	0
 15172 4e3f 3D       		.uleb128 0x3d
 15173 4e40 C4110000 		.4byte	.LVL220
 15174 4e44 27690000 		.4byte	0x6927
 15175 4e48 534E0000 		.4byte	0x4e53
 15176 4e4c 3E       		.uleb128 0x3e
 15177 4e4d 01       		.uleb128 0x1
 15178 4e4e 50       		.byte	0x50
 15179 4e4f 02       		.uleb128 0x2
 15180 4e50 78       		.byte	0x78
 15181 4e51 00       		.sleb128 0
 15182 4e52 00       		.byte	0
 15183 4e53 3D       		.uleb128 0x3d
 15184 4e54 CC110000 		.4byte	.LVL221
 15185 4e58 32690000 		.4byte	0x6932
 15186 4e5c 674E0000 		.4byte	0x4e67
 15187 4e60 3E       		.uleb128 0x3e
 15188 4e61 01       		.uleb128 0x1
 15189 4e62 50       		.byte	0x50
 15190 4e63 02       		.uleb128 0x2
 15191 4e64 78       		.byte	0x78
 15192 4e65 00       		.sleb128 0
 15193 4e66 00       		.byte	0
 15194 4e67 3B       		.uleb128 0x3b
ARM GAS  C:\Users\mathi\AppData\Local\Temp\cc0ZaFXf.s 			page 273


 15195 4e68 D0110000 		.4byte	.LVL222
 15196 4e6c 3D690000 		.4byte	0x693d
 15197 4e70 3D       		.uleb128 0x3d
 15198 4e71 02120000 		.4byte	.LVL223
 15199 4e75 69690000 		.4byte	0x6969
 15200 4e79 944E0000 		.4byte	0x4e94
 15201 4e7d 3E       		.uleb128 0x3e
 15202 4e7e 01       		.uleb128 0x1
 15203 4e7f 50       		.byte	0x50
 15204 4e80 02       		.uleb128 0x2
 15205 4e81 78       		.byte	0x78
 15206 4e82 00       		.sleb128 0
 15207 4e83 3E       		.uleb128 0x3e
 15208 4e84 01       		.uleb128 0x1
 15209 4e85 51       		.byte	0x51
 15210 4e86 05       		.uleb128 0x5
 15211 4e87 03       		.byte	0x3
 15212 4e88 68080000 		.4byte	.LC63
 15213 4e8c 3E       		.uleb128 0x3e
 15214 4e8d 02       		.uleb128 0x2
 15215 4e8e 7D       		.byte	0x7d
 15216 4e8f 08       		.sleb128 8
 15217 4e90 02       		.uleb128 0x2
 15218 4e91 74       		.byte	0x74
 15219 4e92 00       		.sleb128 0
 15220 4e93 00       		.byte	0
 15221 4e94 3D       		.uleb128 0x3d
 15222 4e95 08120000 		.4byte	.LVL224
 15223 4e99 27690000 		.4byte	0x6927
 15224 4e9d A84E0000 		.4byte	0x4ea8
 15225 4ea1 3E       		.uleb128 0x3e
 15226 4ea2 01       		.uleb128 0x1
 15227 4ea3 50       		.byte	0x50
 15228 4ea4 02       		.uleb128 0x2
 15229 4ea5 78       		.byte	0x78
 15230 4ea6 00       		.sleb128 0
 15231 4ea7 00       		.byte	0
 15232 4ea8 3D       		.uleb128 0x3d
 15233 4ea9 10120000 		.4byte	.LVL225
 15234 4ead 32690000 		.4byte	0x6932
 15235 4eb1 BC4E0000 		.4byte	0x4ebc
 15236 4eb5 3E       		.uleb128 0x3e
 15237 4eb6 01       		.uleb128 0x1
 15238 4eb7 50       		.byte	0x50
 15239 4eb8 02       		.uleb128 0x2
 15240 4eb9 78       		.byte	0x78
 15241 4eba 00       		.sleb128 0
 15242 4ebb 00       		.byte	0
 15243 4ebc 3B       		.uleb128 0x3b
 15244 4ebd 14120000 		.4byte	.LVL226
 15245 4ec1 3D690000 		.4byte	0x693d
 15246 4ec5 3D       		.uleb128 0x3d
 15247 4ec6 2C120000 		.4byte	.LVL227
 15248 4eca F8690000 		.4byte	0x69f8
 15249 4ece DD4E0000 		.4byte	0x4edd
 15250 4ed2 3E       		.uleb128 0x3e
 15251 4ed3 01       		.uleb128 0x1
ARM GAS  C:\Users\mathi\AppData\Local\Temp\cc0ZaFXf.s 			page 274


 15252 4ed4 50       		.byte	0x50
 15253 4ed5 01       		.uleb128 0x1
 15254 4ed6 30       		.byte	0x30
 15255 4ed7 3E       		.uleb128 0x3e
 15256 4ed8 01       		.uleb128 0x1
 15257 4ed9 51       		.byte	0x51
 15258 4eda 01       		.uleb128 0x1
 15259 4edb 31       		.byte	0x31
 15260 4edc 00       		.byte	0
 15261 4edd 3D       		.uleb128 0x3d
 15262 4ede 36120000 		.4byte	.LVL228
 15263 4ee2 F8690000 		.4byte	0x69f8
 15264 4ee6 F54E0000 		.4byte	0x4ef5
 15265 4eea 3E       		.uleb128 0x3e
 15266 4eeb 01       		.uleb128 0x1
 15267 4eec 50       		.byte	0x50
 15268 4eed 01       		.uleb128 0x1
 15269 4eee 31       		.byte	0x31
 15270 4eef 3E       		.uleb128 0x3e
 15271 4ef0 01       		.uleb128 0x1
 15272 4ef1 51       		.byte	0x51
 15273 4ef2 01       		.uleb128 0x1
 15274 4ef3 31       		.byte	0x31
 15275 4ef4 00       		.byte	0
 15276 4ef5 3D       		.uleb128 0x3d
 15277 4ef6 40120000 		.4byte	.LVL229
 15278 4efa F8690000 		.4byte	0x69f8
 15279 4efe 0D4F0000 		.4byte	0x4f0d
 15280 4f02 3E       		.uleb128 0x3e
 15281 4f03 01       		.uleb128 0x1
 15282 4f04 50       		.byte	0x50
 15283 4f05 01       		.uleb128 0x1
 15284 4f06 32       		.byte	0x32
 15285 4f07 3E       		.uleb128 0x3e
 15286 4f08 01       		.uleb128 0x1
 15287 4f09 51       		.byte	0x51
 15288 4f0a 01       		.uleb128 0x1
 15289 4f0b 31       		.byte	0x31
 15290 4f0c 00       		.byte	0
 15291 4f0d 3D       		.uleb128 0x3d
 15292 4f0e 4E120000 		.4byte	.LVL230
 15293 4f12 69690000 		.4byte	0x6969
 15294 4f16 364F0000 		.4byte	0x4f36
 15295 4f1a 3E       		.uleb128 0x3e
 15296 4f1b 01       		.uleb128 0x1
 15297 4f1c 50       		.byte	0x50
 15298 4f1d 02       		.uleb128 0x2
 15299 4f1e 78       		.byte	0x78
 15300 4f1f 00       		.sleb128 0
 15301 4f20 3E       		.uleb128 0x3e
 15302 4f21 01       		.uleb128 0x1
 15303 4f22 51       		.byte	0x51
 15304 4f23 05       		.uleb128 0x5
 15305 4f24 03       		.byte	0x3
 15306 4f25 5C000000 		.4byte	.LC1
 15307 4f29 3E       		.uleb128 0x3e
 15308 4f2a 01       		.uleb128 0x1
ARM GAS  C:\Users\mathi\AppData\Local\Temp\cc0ZaFXf.s 			page 275


 15309 4f2b 52       		.byte	0x52
 15310 4f2c 02       		.uleb128 0x2
 15311 4f2d 74       		.byte	0x74
 15312 4f2e 00       		.sleb128 0
 15313 4f2f 3E       		.uleb128 0x3e
 15314 4f30 01       		.uleb128 0x1
 15315 4f31 53       		.byte	0x53
 15316 4f32 02       		.uleb128 0x2
 15317 4f33 75       		.byte	0x75
 15318 4f34 00       		.sleb128 0
 15319 4f35 00       		.byte	0
 15320 4f36 3D       		.uleb128 0x3d
 15321 4f37 54120000 		.4byte	.LVL231
 15322 4f3b 27690000 		.4byte	0x6927
 15323 4f3f 4A4F0000 		.4byte	0x4f4a
 15324 4f43 3E       		.uleb128 0x3e
 15325 4f44 01       		.uleb128 0x1
 15326 4f45 50       		.byte	0x50
 15327 4f46 02       		.uleb128 0x2
 15328 4f47 78       		.byte	0x78
 15329 4f48 00       		.sleb128 0
 15330 4f49 00       		.byte	0
 15331 4f4a 3D       		.uleb128 0x3d
 15332 4f4b 5C120000 		.4byte	.LVL232
 15333 4f4f 32690000 		.4byte	0x6932
 15334 4f53 5E4F0000 		.4byte	0x4f5e
 15335 4f57 3E       		.uleb128 0x3e
 15336 4f58 01       		.uleb128 0x1
 15337 4f59 50       		.byte	0x50
 15338 4f5a 02       		.uleb128 0x2
 15339 4f5b 78       		.byte	0x78
 15340 4f5c 00       		.sleb128 0
 15341 4f5d 00       		.byte	0
 15342 4f5e 3B       		.uleb128 0x3b
 15343 4f5f 60120000 		.4byte	.LVL233
 15344 4f63 3D690000 		.4byte	0x693d
 15345 4f67 3D       		.uleb128 0x3d
 15346 4f68 78120000 		.4byte	.LVL234
 15347 4f6c 32690000 		.4byte	0x6932
 15348 4f70 844F0000 		.4byte	0x4f84
 15349 4f74 3E       		.uleb128 0x3e
 15350 4f75 01       		.uleb128 0x1
 15351 4f76 50       		.byte	0x50
 15352 4f77 05       		.uleb128 0x5
 15353 4f78 03       		.byte	0x3
 15354 4f79 98080000 		.4byte	.LC66
 15355 4f7d 3E       		.uleb128 0x3e
 15356 4f7e 01       		.uleb128 0x1
 15357 4f7f 51       		.byte	0x51
 15358 4f80 02       		.uleb128 0x2
 15359 4f81 08       		.byte	0x8
 15360 4f82 3E       		.byte	0x3e
 15361 4f83 00       		.byte	0
 15362 4f84 3B       		.uleb128 0x3b
 15363 4f85 7C120000 		.4byte	.LVL235
 15364 4f89 3D690000 		.4byte	0x693d
 15365 4f8d 3D       		.uleb128 0x3d
ARM GAS  C:\Users\mathi\AppData\Local\Temp\cc0ZaFXf.s 			page 276


 15366 4f8e 88120000 		.4byte	.LVL236
 15367 4f92 ED690000 		.4byte	0x69ed
 15368 4f96 A54F0000 		.4byte	0x4fa5
 15369 4f9a 3E       		.uleb128 0x3e
 15370 4f9b 01       		.uleb128 0x1
 15371 4f9c 50       		.byte	0x50
 15372 4f9d 01       		.uleb128 0x1
 15373 4f9e 38       		.byte	0x38
 15374 4f9f 3E       		.uleb128 0x3e
 15375 4fa0 01       		.uleb128 0x1
 15376 4fa1 51       		.byte	0x51
 15377 4fa2 01       		.uleb128 0x1
 15378 4fa3 31       		.byte	0x31
 15379 4fa4 00       		.byte	0
 15380 4fa5 3D       		.uleb128 0x3d
 15381 4fa6 90120000 		.4byte	.LVL237
 15382 4faa 036A0000 		.4byte	0x6a03
 15383 4fae BA4F0000 		.4byte	0x4fba
 15384 4fb2 3E       		.uleb128 0x3e
 15385 4fb3 01       		.uleb128 0x1
 15386 4fb4 50       		.byte	0x50
 15387 4fb5 03       		.uleb128 0x3
 15388 4fb6 0A       		.byte	0xa
 15389 4fb7 9001     		.2byte	0x190
 15390 4fb9 00       		.byte	0
 15391 4fba 3B       		.uleb128 0x3b
 15392 4fbb 94120000 		.4byte	.LVL238
 15393 4fbf 0E6A0000 		.4byte	0x6a0e
 15394 4fc3 3D       		.uleb128 0x3d
 15395 4fc4 9A120000 		.4byte	.LVL239
 15396 4fc8 036A0000 		.4byte	0x6a03
 15397 4fcc D74F0000 		.4byte	0x4fd7
 15398 4fd0 3E       		.uleb128 0x3e
 15399 4fd1 01       		.uleb128 0x1
 15400 4fd2 50       		.byte	0x50
 15401 4fd3 02       		.uleb128 0x2
 15402 4fd4 08       		.byte	0x8
 15403 4fd5 64       		.byte	0x64
 15404 4fd6 00       		.byte	0
 15405 4fd7 3B       		.uleb128 0x3b
 15406 4fd8 9E120000 		.4byte	.LVL240
 15407 4fdc 196A0000 		.4byte	0x6a19
 15408 4fe0 3D       		.uleb128 0x3d
 15409 4fe1 A6120000 		.4byte	.LVL241
 15410 4fe5 32690000 		.4byte	0x6932
 15411 4fe9 FC4F0000 		.4byte	0x4ffc
 15412 4fed 3E       		.uleb128 0x3e
 15413 4fee 01       		.uleb128 0x1
 15414 4fef 50       		.byte	0x50
 15415 4ff0 05       		.uleb128 0x5
 15416 4ff1 03       		.byte	0x3
 15417 4ff2 3C0A0000 		.4byte	.LC90
 15418 4ff6 3E       		.uleb128 0x3e
 15419 4ff7 01       		.uleb128 0x1
 15420 4ff8 51       		.byte	0x51
 15421 4ff9 01       		.uleb128 0x1
 15422 4ffa 49       		.byte	0x49
ARM GAS  C:\Users\mathi\AppData\Local\Temp\cc0ZaFXf.s 			page 277


 15423 4ffb 00       		.byte	0
 15424 4ffc 3B       		.uleb128 0x3b
 15425 4ffd AA120000 		.4byte	.LVL242
 15426 5001 3D690000 		.4byte	0x693d
 15427 5005 3D       		.uleb128 0x3d
 15428 5006 E8120000 		.4byte	.LVL244
 15429 500a 69690000 		.4byte	0x6969
 15430 500e 22500000 		.4byte	0x5022
 15431 5012 3E       		.uleb128 0x3e
 15432 5013 01       		.uleb128 0x1
 15433 5014 50       		.byte	0x50
 15434 5015 02       		.uleb128 0x2
 15435 5016 78       		.byte	0x78
 15436 5017 00       		.sleb128 0
 15437 5018 3E       		.uleb128 0x3e
 15438 5019 01       		.uleb128 0x1
 15439 501a 51       		.byte	0x51
 15440 501b 05       		.uleb128 0x5
 15441 501c 03       		.byte	0x3
 15442 501d 9C000000 		.4byte	.LC7
 15443 5021 00       		.byte	0
 15444 5022 3D       		.uleb128 0x3d
 15445 5023 F6120000 		.4byte	.LVL245
 15446 5027 27690000 		.4byte	0x6927
 15447 502b 36500000 		.4byte	0x5036
 15448 502f 3E       		.uleb128 0x3e
 15449 5030 01       		.uleb128 0x1
 15450 5031 50       		.byte	0x50
 15451 5032 02       		.uleb128 0x2
 15452 5033 78       		.byte	0x78
 15453 5034 00       		.sleb128 0
 15454 5035 00       		.byte	0
 15455 5036 3D       		.uleb128 0x3d
 15456 5037 FE120000 		.4byte	.LVL246
 15457 503b 32690000 		.4byte	0x6932
 15458 503f 4A500000 		.4byte	0x504a
 15459 5043 3E       		.uleb128 0x3e
 15460 5044 01       		.uleb128 0x1
 15461 5045 50       		.byte	0x50
 15462 5046 02       		.uleb128 0x2
 15463 5047 78       		.byte	0x78
 15464 5048 00       		.sleb128 0
 15465 5049 00       		.byte	0
 15466 504a 3B       		.uleb128 0x3b
 15467 504b 02130000 		.4byte	.LVL247
 15468 504f 3D690000 		.4byte	0x693d
 15469 5053 3D       		.uleb128 0x3d
 15470 5054 14130000 		.4byte	.LVL248
 15471 5058 74690000 		.4byte	0x6974
 15472 505c 79500000 		.4byte	0x5079
 15473 5060 3E       		.uleb128 0x3e
 15474 5061 01       		.uleb128 0x1
 15475 5062 50       		.byte	0x50
 15476 5063 02       		.uleb128 0x2
 15477 5064 78       		.byte	0x78
 15478 5065 00       		.sleb128 0
 15479 5066 3E       		.uleb128 0x3e
ARM GAS  C:\Users\mathi\AppData\Local\Temp\cc0ZaFXf.s 			page 278


 15480 5067 01       		.uleb128 0x1
 15481 5068 51       		.byte	0x51
 15482 5069 05       		.uleb128 0x5
 15483 506a 03       		.byte	0x3
 15484 506b 90000000 		.4byte	.LC5
 15485 506f 3E       		.uleb128 0x3e
 15486 5070 01       		.uleb128 0x1
 15487 5071 52       		.byte	0x52
 15488 5072 05       		.uleb128 0x5
 15489 5073 03       		.byte	0x3
 15490 5074 00000000 		.4byte	.LANCHOR28
 15491 5078 00       		.byte	0
 15492 5079 3B       		.uleb128 0x3b
 15493 507a 24130000 		.4byte	.LVL249
 15494 507e 246A0000 		.4byte	0x6a24
 15495 5082 3D       		.uleb128 0x3d
 15496 5083 2C130000 		.4byte	.LVL250
 15497 5087 32690000 		.4byte	0x6932
 15498 508b 9E500000 		.4byte	0x509e
 15499 508f 3E       		.uleb128 0x3e
 15500 5090 01       		.uleb128 0x1
 15501 5091 50       		.byte	0x50
 15502 5092 05       		.uleb128 0x5
 15503 5093 03       		.byte	0x3
 15504 5094 98000000 		.4byte	.LC6
 15505 5098 3E       		.uleb128 0x3e
 15506 5099 01       		.uleb128 0x1
 15507 509a 51       		.byte	0x51
 15508 509b 01       		.uleb128 0x1
 15509 509c 33       		.byte	0x33
 15510 509d 00       		.byte	0
 15511 509e 3B       		.uleb128 0x3b
 15512 509f 30130000 		.4byte	.LVL251
 15513 50a3 3D690000 		.4byte	0x693d
 15514 50a7 3D       		.uleb128 0x3d
 15515 50a8 90130000 		.4byte	.LVL252
 15516 50ac 74690000 		.4byte	0x6974
 15517 50b0 D6500000 		.4byte	0x50d6
 15518 50b4 3E       		.uleb128 0x3e
 15519 50b5 01       		.uleb128 0x1
 15520 50b6 50       		.byte	0x50
 15521 50b7 02       		.uleb128 0x2
 15522 50b8 78       		.byte	0x78
 15523 50b9 00       		.sleb128 0
 15524 50ba 3E       		.uleb128 0x3e
 15525 50bb 01       		.uleb128 0x1
 15526 50bc 51       		.byte	0x51
 15527 50bd 05       		.uleb128 0x5
 15528 50be 03       		.byte	0x3
 15529 50bf A4000000 		.4byte	.LC8
 15530 50c3 3E       		.uleb128 0x3e
 15531 50c4 01       		.uleb128 0x1
 15532 50c5 52       		.byte	0x52
 15533 50c6 05       		.uleb128 0x5
 15534 50c7 03       		.byte	0x3
 15535 50c8 00000000 		.4byte	.LANCHOR8
 15536 50cc 3E       		.uleb128 0x3e
ARM GAS  C:\Users\mathi\AppData\Local\Temp\cc0ZaFXf.s 			page 279


 15537 50cd 01       		.uleb128 0x1
 15538 50ce 53       		.byte	0x53
 15539 50cf 05       		.uleb128 0x5
 15540 50d0 03       		.byte	0x3
 15541 50d1 00000000 		.4byte	.LANCHOR7
 15542 50d5 00       		.byte	0
 15543 50d6 3B       		.uleb128 0x3b
 15544 50d7 98130000 		.4byte	.LVL253
 15545 50db D7690000 		.4byte	0x69d7
 15546 50df 3B       		.uleb128 0x3b
 15547 50e0 A0130000 		.4byte	.LVL254
 15548 50e4 E2690000 		.4byte	0x69e2
 15549 50e8 3D       		.uleb128 0x3d
 15550 50e9 B0130000 		.4byte	.LVL255
 15551 50ed 32690000 		.4byte	0x6932
 15552 50f1 04510000 		.4byte	0x5104
 15553 50f5 3E       		.uleb128 0x3e
 15554 50f6 01       		.uleb128 0x1
 15555 50f7 50       		.byte	0x50
 15556 50f8 05       		.uleb128 0x5
 15557 50f9 03       		.byte	0x3
 15558 50fa B0000000 		.4byte	.LC9
 15559 50fe 3E       		.uleb128 0x3e
 15560 50ff 01       		.uleb128 0x1
 15561 5100 51       		.byte	0x51
 15562 5101 01       		.uleb128 0x1
 15563 5102 33       		.byte	0x33
 15564 5103 00       		.byte	0
 15565 5104 3B       		.uleb128 0x3b
 15566 5105 B4130000 		.4byte	.LVL256
 15567 5109 3D690000 		.4byte	0x693d
 15568 510d 3B       		.uleb128 0x3b
 15569 510e C8130000 		.4byte	.LVL257
 15570 5112 2F6A0000 		.4byte	0x6a2f
 15571 5116 3B       		.uleb128 0x3b
 15572 5117 CE130000 		.4byte	.LVL258
 15573 511b 3A6A0000 		.4byte	0x6a3a
 15574 511f 3B       		.uleb128 0x3b
 15575 5120 D4130000 		.4byte	.LVL259
 15576 5124 456A0000 		.4byte	0x6a45
 15577 5128 3D       		.uleb128 0x3d
 15578 5129 E2130000 		.4byte	.LVL260
 15579 512d 69690000 		.4byte	0x6969
 15580 5131 51510000 		.4byte	0x5151
 15581 5135 3E       		.uleb128 0x3e
 15582 5136 01       		.uleb128 0x1
 15583 5137 50       		.byte	0x50
 15584 5138 02       		.uleb128 0x2
 15585 5139 78       		.byte	0x78
 15586 513a 00       		.sleb128 0
 15587 513b 3E       		.uleb128 0x3e
 15588 513c 01       		.uleb128 0x1
 15589 513d 51       		.byte	0x51
 15590 513e 05       		.uleb128 0x5
 15591 513f 03       		.byte	0x3
 15592 5140 CC000000 		.4byte	.LC13
 15593 5144 3E       		.uleb128 0x3e
ARM GAS  C:\Users\mathi\AppData\Local\Temp\cc0ZaFXf.s 			page 280


 15594 5145 01       		.uleb128 0x1
 15595 5146 52       		.byte	0x52
 15596 5147 02       		.uleb128 0x2
 15597 5148 74       		.byte	0x74
 15598 5149 00       		.sleb128 0
 15599 514a 3E       		.uleb128 0x3e
 15600 514b 01       		.uleb128 0x1
 15601 514c 53       		.byte	0x53
 15602 514d 02       		.uleb128 0x2
 15603 514e 75       		.byte	0x75
 15604 514f 00       		.sleb128 0
 15605 5150 00       		.byte	0
 15606 5151 3D       		.uleb128 0x3d
 15607 5152 E8130000 		.4byte	.LVL261
 15608 5156 27690000 		.4byte	0x6927
 15609 515a 65510000 		.4byte	0x5165
 15610 515e 3E       		.uleb128 0x3e
 15611 515f 01       		.uleb128 0x1
 15612 5160 50       		.byte	0x50
 15613 5161 02       		.uleb128 0x2
 15614 5162 78       		.byte	0x78
 15615 5163 00       		.sleb128 0
 15616 5164 00       		.byte	0
 15617 5165 3D       		.uleb128 0x3d
 15618 5166 F0130000 		.4byte	.LVL262
 15619 516a 32690000 		.4byte	0x6932
 15620 516e 79510000 		.4byte	0x5179
 15621 5172 3E       		.uleb128 0x3e
 15622 5173 01       		.uleb128 0x1
 15623 5174 50       		.byte	0x50
 15624 5175 02       		.uleb128 0x2
 15625 5176 78       		.byte	0x78
 15626 5177 00       		.sleb128 0
 15627 5178 00       		.byte	0
 15628 5179 3B       		.uleb128 0x3b
 15629 517a F4130000 		.4byte	.LVL263
 15630 517e 3D690000 		.4byte	0x693d
 15631 5182 3D       		.uleb128 0x3d
 15632 5183 08140000 		.4byte	.LVL264
 15633 5187 74690000 		.4byte	0x6974
 15634 518b B1510000 		.4byte	0x51b1
 15635 518f 3E       		.uleb128 0x3e
 15636 5190 01       		.uleb128 0x1
 15637 5191 50       		.byte	0x50
 15638 5192 02       		.uleb128 0x2
 15639 5193 78       		.byte	0x78
 15640 5194 00       		.sleb128 0
 15641 5195 3E       		.uleb128 0x3e
 15642 5196 01       		.uleb128 0x1
 15643 5197 51       		.byte	0x51
 15644 5198 05       		.uleb128 0x5
 15645 5199 03       		.byte	0x3
 15646 519a D8080000 		.4byte	.LC67
 15647 519e 3E       		.uleb128 0x3e
 15648 519f 01       		.uleb128 0x1
 15649 51a0 52       		.byte	0x52
 15650 51a1 05       		.uleb128 0x5
ARM GAS  C:\Users\mathi\AppData\Local\Temp\cc0ZaFXf.s 			page 281


 15651 51a2 03       		.byte	0x3
 15652 51a3 00000000 		.4byte	.LANCHOR31
 15653 51a7 3E       		.uleb128 0x3e
 15654 51a8 01       		.uleb128 0x1
 15655 51a9 53       		.byte	0x53
 15656 51aa 05       		.uleb128 0x5
 15657 51ab 03       		.byte	0x3
 15658 51ac 00000000 		.4byte	.LANCHOR28
 15659 51b0 00       		.byte	0
 15660 51b1 3B       		.uleb128 0x3b
 15661 51b2 14140000 		.4byte	.LVL265
 15662 51b6 ED690000 		.4byte	0x69ed
 15663 51ba 3D       		.uleb128 0x3d
 15664 51bb 24140000 		.4byte	.LVL266
 15665 51bf 32690000 		.4byte	0x6932
 15666 51c3 D6510000 		.4byte	0x51d6
 15667 51c7 3E       		.uleb128 0x3e
 15668 51c8 01       		.uleb128 0x1
 15669 51c9 50       		.byte	0x50
 15670 51ca 05       		.uleb128 0x5
 15671 51cb 03       		.byte	0x3
 15672 51cc E4080000 		.4byte	.LC68
 15673 51d0 3E       		.uleb128 0x3e
 15674 51d1 01       		.uleb128 0x1
 15675 51d2 51       		.byte	0x51
 15676 51d3 01       		.uleb128 0x1
 15677 51d4 33       		.byte	0x33
 15678 51d5 00       		.byte	0
 15679 51d6 3B       		.uleb128 0x3b
 15680 51d7 28140000 		.4byte	.LVL267
 15681 51db 3D690000 		.4byte	0x693d
 15682 51df 3D       		.uleb128 0x3d
 15683 51e0 40140000 		.4byte	.LVL268
 15684 51e4 32690000 		.4byte	0x6932
 15685 51e8 FB510000 		.4byte	0x51fb
 15686 51ec 3E       		.uleb128 0x3e
 15687 51ed 01       		.uleb128 0x1
 15688 51ee 50       		.byte	0x50
 15689 51ef 05       		.uleb128 0x5
 15690 51f0 03       		.byte	0x3
 15691 51f1 10010000 		.4byte	.LC15
 15692 51f5 3E       		.uleb128 0x3e
 15693 51f6 01       		.uleb128 0x1
 15694 51f7 51       		.byte	0x51
 15695 51f8 01       		.uleb128 0x1
 15696 51f9 31       		.byte	0x31
 15697 51fa 00       		.byte	0
 15698 51fb 3B       		.uleb128 0x3b
 15699 51fc 44140000 		.4byte	.LVL269
 15700 5200 3D690000 		.4byte	0x693d
 15701 5204 3D       		.uleb128 0x3d
 15702 5205 50140000 		.4byte	.LVL270
 15703 5209 32690000 		.4byte	0x6932
 15704 520d 21520000 		.4byte	0x5221
 15705 5211 3E       		.uleb128 0x3e
 15706 5212 01       		.uleb128 0x1
 15707 5213 50       		.byte	0x50
ARM GAS  C:\Users\mathi\AppData\Local\Temp\cc0ZaFXf.s 			page 282


 15708 5214 05       		.uleb128 0x5
 15709 5215 03       		.byte	0x3
 15710 5216 14010000 		.4byte	.LC16
 15711 521a 3E       		.uleb128 0x3e
 15712 521b 01       		.uleb128 0x1
 15713 521c 51       		.byte	0x51
 15714 521d 02       		.uleb128 0x2
 15715 521e 08       		.byte	0x8
 15716 521f 21       		.byte	0x21
 15717 5220 00       		.byte	0
 15718 5221 3B       		.uleb128 0x3b
 15719 5222 54140000 		.4byte	.LVL271
 15720 5226 3D690000 		.4byte	0x693d
 15721 522a 3D       		.uleb128 0x3d
 15722 522b 60140000 		.4byte	.LVL272
 15723 522f 32690000 		.4byte	0x6932
 15724 5233 47520000 		.4byte	0x5247
 15725 5237 3E       		.uleb128 0x3e
 15726 5238 01       		.uleb128 0x1
 15727 5239 50       		.byte	0x50
 15728 523a 05       		.uleb128 0x5
 15729 523b 03       		.byte	0x3
 15730 523c 38010000 		.4byte	.LC17
 15731 5240 3E       		.uleb128 0x3e
 15732 5241 01       		.uleb128 0x1
 15733 5242 51       		.byte	0x51
 15734 5243 02       		.uleb128 0x2
 15735 5244 08       		.byte	0x8
 15736 5245 31       		.byte	0x31
 15737 5246 00       		.byte	0
 15738 5247 3B       		.uleb128 0x3b
 15739 5248 64140000 		.4byte	.LVL273
 15740 524c 3D690000 		.4byte	0x693d
 15741 5250 3B       		.uleb128 0x3b
 15742 5251 6C140000 		.4byte	.LVL274
 15743 5255 1C690000 		.4byte	0x691c
 15744 5259 3D       		.uleb128 0x3d
 15745 525a 7A140000 		.4byte	.LVL275
 15746 525e 32690000 		.4byte	0x6932
 15747 5262 76520000 		.4byte	0x5276
 15748 5266 3E       		.uleb128 0x3e
 15749 5267 01       		.uleb128 0x1
 15750 5268 50       		.byte	0x50
 15751 5269 05       		.uleb128 0x5
 15752 526a 03       		.byte	0x3
 15753 526b 6C010000 		.4byte	.LC18
 15754 526f 3E       		.uleb128 0x3e
 15755 5270 01       		.uleb128 0x1
 15756 5271 51       		.byte	0x51
 15757 5272 02       		.uleb128 0x2
 15758 5273 08       		.byte	0x8
 15759 5274 21       		.byte	0x21
 15760 5275 00       		.byte	0
 15761 5276 3B       		.uleb128 0x3b
 15762 5277 7E140000 		.4byte	.LVL276
 15763 527b 3D690000 		.4byte	0x693d
 15764 527f 3D       		.uleb128 0x3d
ARM GAS  C:\Users\mathi\AppData\Local\Temp\cc0ZaFXf.s 			page 283


 15765 5280 8A140000 		.4byte	.LVL277
 15766 5284 32690000 		.4byte	0x6932
 15767 5288 9C520000 		.4byte	0x529c
 15768 528c 3E       		.uleb128 0x3e
 15769 528d 01       		.uleb128 0x1
 15770 528e 50       		.byte	0x50
 15771 528f 05       		.uleb128 0x5
 15772 5290 03       		.byte	0x3
 15773 5291 C0010000 		.4byte	.LC20
 15774 5295 3E       		.uleb128 0x3e
 15775 5296 01       		.uleb128 0x1
 15776 5297 51       		.byte	0x51
 15777 5298 02       		.uleb128 0x2
 15778 5299 08       		.byte	0x8
 15779 529a 25       		.byte	0x25
 15780 529b 00       		.byte	0
 15781 529c 3B       		.uleb128 0x3b
 15782 529d 8E140000 		.4byte	.LVL278
 15783 52a1 3D690000 		.4byte	0x693d
 15784 52a5 3D       		.uleb128 0x3d
 15785 52a6 9A140000 		.4byte	.LVL279
 15786 52aa 32690000 		.4byte	0x6932
 15787 52ae C2520000 		.4byte	0x52c2
 15788 52b2 3E       		.uleb128 0x3e
 15789 52b3 01       		.uleb128 0x1
 15790 52b4 50       		.byte	0x50
 15791 52b5 05       		.uleb128 0x5
 15792 52b6 03       		.byte	0x3
 15793 52b7 E8010000 		.4byte	.LC21
 15794 52bb 3E       		.uleb128 0x3e
 15795 52bc 01       		.uleb128 0x1
 15796 52bd 51       		.byte	0x51
 15797 52be 02       		.uleb128 0x2
 15798 52bf 08       		.byte	0x8
 15799 52c0 2E       		.byte	0x2e
 15800 52c1 00       		.byte	0
 15801 52c2 3B       		.uleb128 0x3b
 15802 52c3 9E140000 		.4byte	.LVL280
 15803 52c7 3D690000 		.4byte	0x693d
 15804 52cb 3D       		.uleb128 0x3d
 15805 52cc AA140000 		.4byte	.LVL281
 15806 52d0 32690000 		.4byte	0x6932
 15807 52d4 E8520000 		.4byte	0x52e8
 15808 52d8 3E       		.uleb128 0x3e
 15809 52d9 01       		.uleb128 0x1
 15810 52da 50       		.byte	0x50
 15811 52db 05       		.uleb128 0x5
 15812 52dc 03       		.byte	0x3
 15813 52dd 18020000 		.4byte	.LC22
 15814 52e1 3E       		.uleb128 0x3e
 15815 52e2 01       		.uleb128 0x1
 15816 52e3 51       		.byte	0x51
 15817 52e4 02       		.uleb128 0x2
 15818 52e5 08       		.byte	0x8
 15819 52e6 2E       		.byte	0x2e
 15820 52e7 00       		.byte	0
 15821 52e8 3B       		.uleb128 0x3b
ARM GAS  C:\Users\mathi\AppData\Local\Temp\cc0ZaFXf.s 			page 284


 15822 52e9 AE140000 		.4byte	.LVL282
 15823 52ed 3D690000 		.4byte	0x693d
 15824 52f1 3D       		.uleb128 0x3d
 15825 52f2 BA140000 		.4byte	.LVL283
 15826 52f6 32690000 		.4byte	0x6932
 15827 52fa 0E530000 		.4byte	0x530e
 15828 52fe 3E       		.uleb128 0x3e
 15829 52ff 01       		.uleb128 0x1
 15830 5300 50       		.byte	0x50
 15831 5301 05       		.uleb128 0x5
 15832 5302 03       		.byte	0x3
 15833 5303 48020000 		.4byte	.LC23
 15834 5307 3E       		.uleb128 0x3e
 15835 5308 01       		.uleb128 0x1
 15836 5309 51       		.byte	0x51
 15837 530a 02       		.uleb128 0x2
 15838 530b 08       		.byte	0x8
 15839 530c 32       		.byte	0x32
 15840 530d 00       		.byte	0
 15841 530e 3B       		.uleb128 0x3b
 15842 530f BE140000 		.4byte	.LVL284
 15843 5313 3D690000 		.4byte	0x693d
 15844 5317 3D       		.uleb128 0x3d
 15845 5318 CA140000 		.4byte	.LVL285
 15846 531c 32690000 		.4byte	0x6932
 15847 5320 33530000 		.4byte	0x5333
 15848 5324 3E       		.uleb128 0x3e
 15849 5325 01       		.uleb128 0x1
 15850 5326 50       		.byte	0x50
 15851 5327 05       		.uleb128 0x5
 15852 5328 03       		.byte	0x3
 15853 5329 7C020000 		.4byte	.LC24
 15854 532d 3E       		.uleb128 0x3e
 15855 532e 01       		.uleb128 0x1
 15856 532f 51       		.byte	0x51
 15857 5330 01       		.uleb128 0x1
 15858 5331 4F       		.byte	0x4f
 15859 5332 00       		.byte	0
 15860 5333 3B       		.uleb128 0x3b
 15861 5334 CE140000 		.4byte	.LVL286
 15862 5338 3D690000 		.4byte	0x693d
 15863 533c 3B       		.uleb128 0x3b
 15864 533d D6140000 		.4byte	.LVL287
 15865 5341 1C690000 		.4byte	0x691c
 15866 5345 3D       		.uleb128 0x3d
 15867 5346 E4140000 		.4byte	.LVL288
 15868 534a 32690000 		.4byte	0x6932
 15869 534e 61530000 		.4byte	0x5361
 15870 5352 3E       		.uleb128 0x3e
 15871 5353 01       		.uleb128 0x1
 15872 5354 50       		.byte	0x50
 15873 5355 05       		.uleb128 0x5
 15874 5356 03       		.byte	0x3
 15875 5357 B8020000 		.4byte	.LC26
 15876 535b 3E       		.uleb128 0x3e
 15877 535c 01       		.uleb128 0x1
 15878 535d 51       		.byte	0x51
ARM GAS  C:\Users\mathi\AppData\Local\Temp\cc0ZaFXf.s 			page 285


 15879 535e 01       		.uleb128 0x1
 15880 535f 48       		.byte	0x48
 15881 5360 00       		.byte	0
 15882 5361 3B       		.uleb128 0x3b
 15883 5362 E8140000 		.4byte	.LVL289
 15884 5366 3D690000 		.4byte	0x693d
 15885 536a 3D       		.uleb128 0x3d
 15886 536b F4140000 		.4byte	.LVL290
 15887 536f 32690000 		.4byte	0x6932
 15888 5373 87530000 		.4byte	0x5387
 15889 5377 3E       		.uleb128 0x3e
 15890 5378 01       		.uleb128 0x1
 15891 5379 50       		.byte	0x50
 15892 537a 05       		.uleb128 0x5
 15893 537b 03       		.byte	0x3
 15894 537c D4020000 		.4byte	.LC27
 15895 5380 3E       		.uleb128 0x3e
 15896 5381 01       		.uleb128 0x1
 15897 5382 51       		.byte	0x51
 15898 5383 02       		.uleb128 0x2
 15899 5384 08       		.byte	0x8
 15900 5385 28       		.byte	0x28
 15901 5386 00       		.byte	0
 15902 5387 3B       		.uleb128 0x3b
 15903 5388 F8140000 		.4byte	.LVL291
 15904 538c 3D690000 		.4byte	0x693d
 15905 5390 3D       		.uleb128 0x3d
 15906 5391 04150000 		.4byte	.LVL292
 15907 5395 32690000 		.4byte	0x6932
 15908 5399 AD530000 		.4byte	0x53ad
 15909 539d 3E       		.uleb128 0x3e
 15910 539e 01       		.uleb128 0x1
 15911 539f 50       		.byte	0x50
 15912 53a0 05       		.uleb128 0x5
 15913 53a1 03       		.byte	0x3
 15914 53a2 00030000 		.4byte	.LC28
 15915 53a6 3E       		.uleb128 0x3e
 15916 53a7 01       		.uleb128 0x1
 15917 53a8 51       		.byte	0x51
 15918 53a9 02       		.uleb128 0x2
 15919 53aa 08       		.byte	0x8
 15920 53ab 4F       		.byte	0x4f
 15921 53ac 00       		.byte	0
 15922 53ad 3B       		.uleb128 0x3b
 15923 53ae 08150000 		.4byte	.LVL293
 15924 53b2 3D690000 		.4byte	0x693d
 15925 53b6 3D       		.uleb128 0x3d
 15926 53b7 14150000 		.4byte	.LVL294
 15927 53bb 32690000 		.4byte	0x6932
 15928 53bf D3530000 		.4byte	0x53d3
 15929 53c3 3E       		.uleb128 0x3e
 15930 53c4 01       		.uleb128 0x1
 15931 53c5 50       		.byte	0x50
 15932 53c6 05       		.uleb128 0x5
 15933 53c7 03       		.byte	0x3
 15934 53c8 50030000 		.4byte	.LC29
 15935 53cc 3E       		.uleb128 0x3e
ARM GAS  C:\Users\mathi\AppData\Local\Temp\cc0ZaFXf.s 			page 286


 15936 53cd 01       		.uleb128 0x1
 15937 53ce 51       		.byte	0x51
 15938 53cf 02       		.uleb128 0x2
 15939 53d0 08       		.byte	0x8
 15940 53d1 2F       		.byte	0x2f
 15941 53d2 00       		.byte	0
 15942 53d3 3B       		.uleb128 0x3b
 15943 53d4 18150000 		.4byte	.LVL295
 15944 53d8 3D690000 		.4byte	0x693d
 15945 53dc 3D       		.uleb128 0x3d
 15946 53dd 24150000 		.4byte	.LVL296
 15947 53e1 32690000 		.4byte	0x6932
 15948 53e5 F9530000 		.4byte	0x53f9
 15949 53e9 3E       		.uleb128 0x3e
 15950 53ea 01       		.uleb128 0x1
 15951 53eb 50       		.byte	0x50
 15952 53ec 05       		.uleb128 0x5
 15953 53ed 03       		.byte	0x3
 15954 53ee 80030000 		.4byte	.LC30
 15955 53f2 3E       		.uleb128 0x3e
 15956 53f3 01       		.uleb128 0x1
 15957 53f4 51       		.byte	0x51
 15958 53f5 02       		.uleb128 0x2
 15959 53f6 08       		.byte	0x8
 15960 53f7 33       		.byte	0x33
 15961 53f8 00       		.byte	0
 15962 53f9 3B       		.uleb128 0x3b
 15963 53fa 28150000 		.4byte	.LVL297
 15964 53fe 3D690000 		.4byte	0x693d
 15965 5402 3D       		.uleb128 0x3d
 15966 5403 34150000 		.4byte	.LVL298
 15967 5407 32690000 		.4byte	0x6932
 15968 540b 1F540000 		.4byte	0x541f
 15969 540f 3E       		.uleb128 0x3e
 15970 5410 01       		.uleb128 0x1
 15971 5411 50       		.byte	0x50
 15972 5412 05       		.uleb128 0x5
 15973 5413 03       		.byte	0x3
 15974 5414 B4030000 		.4byte	.LC31
 15975 5418 3E       		.uleb128 0x3e
 15976 5419 01       		.uleb128 0x1
 15977 541a 51       		.byte	0x51
 15978 541b 02       		.uleb128 0x2
 15979 541c 08       		.byte	0x8
 15980 541d 21       		.byte	0x21
 15981 541e 00       		.byte	0
 15982 541f 3B       		.uleb128 0x3b
 15983 5420 38150000 		.4byte	.LVL299
 15984 5424 3D690000 		.4byte	0x693d
 15985 5428 3D       		.uleb128 0x3d
 15986 5429 44150000 		.4byte	.LVL300
 15987 542d 32690000 		.4byte	0x6932
 15988 5431 44540000 		.4byte	0x5444
 15989 5435 3E       		.uleb128 0x3e
 15990 5436 01       		.uleb128 0x1
 15991 5437 50       		.byte	0x50
 15992 5438 05       		.uleb128 0x5
ARM GAS  C:\Users\mathi\AppData\Local\Temp\cc0ZaFXf.s 			page 287


 15993 5439 03       		.byte	0x3
 15994 543a D8030000 		.4byte	.LC32
 15995 543e 3E       		.uleb128 0x3e
 15996 543f 01       		.uleb128 0x1
 15997 5440 51       		.byte	0x51
 15998 5441 01       		.uleb128 0x1
 15999 5442 4D       		.byte	0x4d
 16000 5443 00       		.byte	0
 16001 5444 3B       		.uleb128 0x3b
 16002 5445 48150000 		.4byte	.LVL301
 16003 5449 3D690000 		.4byte	0x693d
 16004 544d 3D       		.uleb128 0x3d
 16005 544e 54150000 		.4byte	.LVL302
 16006 5452 32690000 		.4byte	0x6932
 16007 5456 6A540000 		.4byte	0x546a
 16008 545a 3E       		.uleb128 0x3e
 16009 545b 01       		.uleb128 0x1
 16010 545c 50       		.byte	0x50
 16011 545d 05       		.uleb128 0x5
 16012 545e 03       		.byte	0x3
 16013 545f F8030000 		.4byte	.LC33
 16014 5463 3E       		.uleb128 0x3e
 16015 5464 01       		.uleb128 0x1
 16016 5465 51       		.byte	0x51
 16017 5466 02       		.uleb128 0x2
 16018 5467 08       		.byte	0x8
 16019 5468 21       		.byte	0x21
 16020 5469 00       		.byte	0
 16021 546a 3B       		.uleb128 0x3b
 16022 546b 58150000 		.4byte	.LVL303
 16023 546f 3D690000 		.4byte	0x693d
 16024 5473 3D       		.uleb128 0x3d
 16025 5474 64150000 		.4byte	.LVL304
 16026 5478 32690000 		.4byte	0x6932
 16027 547c 90540000 		.4byte	0x5490
 16028 5480 3E       		.uleb128 0x3e
 16029 5481 01       		.uleb128 0x1
 16030 5482 50       		.byte	0x50
 16031 5483 05       		.uleb128 0x5
 16032 5484 03       		.byte	0x3
 16033 5485 1C040000 		.4byte	.LC34
 16034 5489 3E       		.uleb128 0x3e
 16035 548a 01       		.uleb128 0x1
 16036 548b 51       		.byte	0x51
 16037 548c 02       		.uleb128 0x2
 16038 548d 08       		.byte	0x8
 16039 548e 31       		.byte	0x31
 16040 548f 00       		.byte	0
 16041 5490 3B       		.uleb128 0x3b
 16042 5491 68150000 		.4byte	.LVL305
 16043 5495 3D690000 		.4byte	0x693d
 16044 5499 3D       		.uleb128 0x3d
 16045 549a 74150000 		.4byte	.LVL306
 16046 549e 32690000 		.4byte	0x6932
 16047 54a2 B6540000 		.4byte	0x54b6
 16048 54a6 3E       		.uleb128 0x3e
 16049 54a7 01       		.uleb128 0x1
ARM GAS  C:\Users\mathi\AppData\Local\Temp\cc0ZaFXf.s 			page 288


 16050 54a8 50       		.byte	0x50
 16051 54a9 05       		.uleb128 0x5
 16052 54aa 03       		.byte	0x3
 16053 54ab 50040000 		.4byte	.LC35
 16054 54af 3E       		.uleb128 0x3e
 16055 54b0 01       		.uleb128 0x1
 16056 54b1 51       		.byte	0x51
 16057 54b2 02       		.uleb128 0x2
 16058 54b3 08       		.byte	0x8
 16059 54b4 31       		.byte	0x31
 16060 54b5 00       		.byte	0
 16061 54b6 3B       		.uleb128 0x3b
 16062 54b7 78150000 		.4byte	.LVL307
 16063 54bb 3D690000 		.4byte	0x693d
 16064 54bf 3D       		.uleb128 0x3d
 16065 54c0 84150000 		.4byte	.LVL308
 16066 54c4 32690000 		.4byte	0x6932
 16067 54c8 DC540000 		.4byte	0x54dc
 16068 54cc 3E       		.uleb128 0x3e
 16069 54cd 01       		.uleb128 0x1
 16070 54ce 50       		.byte	0x50
 16071 54cf 05       		.uleb128 0x5
 16072 54d0 03       		.byte	0x3
 16073 54d1 84040000 		.4byte	.LC36
 16074 54d5 3E       		.uleb128 0x3e
 16075 54d6 01       		.uleb128 0x1
 16076 54d7 51       		.byte	0x51
 16077 54d8 02       		.uleb128 0x2
 16078 54d9 08       		.byte	0x8
 16079 54da 20       		.byte	0x20
 16080 54db 00       		.byte	0
 16081 54dc 3B       		.uleb128 0x3b
 16082 54dd 88150000 		.4byte	.LVL309
 16083 54e1 3D690000 		.4byte	0x693d
 16084 54e5 3D       		.uleb128 0x3d
 16085 54e6 94150000 		.4byte	.LVL310
 16086 54ea 32690000 		.4byte	0x6932
 16087 54ee 02550000 		.4byte	0x5502
 16088 54f2 3E       		.uleb128 0x3e
 16089 54f3 01       		.uleb128 0x1
 16090 54f4 50       		.byte	0x50
 16091 54f5 05       		.uleb128 0x5
 16092 54f6 03       		.byte	0x3
 16093 54f7 A8040000 		.4byte	.LC37
 16094 54fb 3E       		.uleb128 0x3e
 16095 54fc 01       		.uleb128 0x1
 16096 54fd 51       		.byte	0x51
 16097 54fe 02       		.uleb128 0x2
 16098 54ff 08       		.byte	0x8
 16099 5500 31       		.byte	0x31
 16100 5501 00       		.byte	0
 16101 5502 3B       		.uleb128 0x3b
 16102 5503 98150000 		.4byte	.LVL311
 16103 5507 3D690000 		.4byte	0x693d
 16104 550b 3D       		.uleb128 0x3d
 16105 550c A4150000 		.4byte	.LVL312
 16106 5510 32690000 		.4byte	0x6932
ARM GAS  C:\Users\mathi\AppData\Local\Temp\cc0ZaFXf.s 			page 289


 16107 5514 28550000 		.4byte	0x5528
 16108 5518 3E       		.uleb128 0x3e
 16109 5519 01       		.uleb128 0x1
 16110 551a 50       		.byte	0x50
 16111 551b 05       		.uleb128 0x5
 16112 551c 03       		.byte	0x3
 16113 551d DC040000 		.4byte	.LC38
 16114 5521 3E       		.uleb128 0x3e
 16115 5522 01       		.uleb128 0x1
 16116 5523 51       		.byte	0x51
 16117 5524 02       		.uleb128 0x2
 16118 5525 08       		.byte	0x8
 16119 5526 32       		.byte	0x32
 16120 5527 00       		.byte	0
 16121 5528 3B       		.uleb128 0x3b
 16122 5529 A8150000 		.4byte	.LVL313
 16123 552d 3D690000 		.4byte	0x693d
 16124 5531 3B       		.uleb128 0x3b
 16125 5532 B0150000 		.4byte	.LVL314
 16126 5536 1C690000 		.4byte	0x691c
 16127 553a 3D       		.uleb128 0x3d
 16128 553b BE150000 		.4byte	.LVL315
 16129 553f 32690000 		.4byte	0x6932
 16130 5543 57550000 		.4byte	0x5557
 16131 5547 3E       		.uleb128 0x3e
 16132 5548 01       		.uleb128 0x1
 16133 5549 50       		.byte	0x50
 16134 554a 05       		.uleb128 0x5
 16135 554b 03       		.byte	0x3
 16136 554c 30050000 		.4byte	.LC40
 16137 5550 3E       		.uleb128 0x3e
 16138 5551 01       		.uleb128 0x1
 16139 5552 51       		.byte	0x51
 16140 5553 02       		.uleb128 0x2
 16141 5554 08       		.byte	0x8
 16142 5555 2C       		.byte	0x2c
 16143 5556 00       		.byte	0
 16144 5557 3B       		.uleb128 0x3b
 16145 5558 C2150000 		.4byte	.LVL316
 16146 555c 3D690000 		.4byte	0x693d
 16147 5560 3D       		.uleb128 0x3d
 16148 5561 CE150000 		.4byte	.LVL317
 16149 5565 32690000 		.4byte	0x6932
 16150 5569 7D550000 		.4byte	0x557d
 16151 556d 3E       		.uleb128 0x3e
 16152 556e 01       		.uleb128 0x1
 16153 556f 50       		.byte	0x50
 16154 5570 05       		.uleb128 0x5
 16155 5571 03       		.byte	0x3
 16156 5572 60050000 		.4byte	.LC41
 16157 5576 3E       		.uleb128 0x3e
 16158 5577 01       		.uleb128 0x1
 16159 5578 51       		.byte	0x51
 16160 5579 02       		.uleb128 0x2
 16161 557a 08       		.byte	0x8
 16162 557b 25       		.byte	0x25
 16163 557c 00       		.byte	0
ARM GAS  C:\Users\mathi\AppData\Local\Temp\cc0ZaFXf.s 			page 290


 16164 557d 3B       		.uleb128 0x3b
 16165 557e D2150000 		.4byte	.LVL318
 16166 5582 3D690000 		.4byte	0x693d
 16167 5586 3D       		.uleb128 0x3d
 16168 5587 DE150000 		.4byte	.LVL319
 16169 558b 32690000 		.4byte	0x6932
 16170 558f A3550000 		.4byte	0x55a3
 16171 5593 3E       		.uleb128 0x3e
 16172 5594 01       		.uleb128 0x1
 16173 5595 50       		.byte	0x50
 16174 5596 05       		.uleb128 0x5
 16175 5597 03       		.byte	0x3
 16176 5598 88050000 		.4byte	.LC42
 16177 559c 3E       		.uleb128 0x3e
 16178 559d 01       		.uleb128 0x1
 16179 559e 51       		.byte	0x51
 16180 559f 02       		.uleb128 0x2
 16181 55a0 08       		.byte	0x8
 16182 55a1 2B       		.byte	0x2b
 16183 55a2 00       		.byte	0
 16184 55a3 3B       		.uleb128 0x3b
 16185 55a4 E2150000 		.4byte	.LVL320
 16186 55a8 3D690000 		.4byte	0x693d
 16187 55ac 3D       		.uleb128 0x3d
 16188 55ad EE150000 		.4byte	.LVL321
 16189 55b1 32690000 		.4byte	0x6932
 16190 55b5 C9550000 		.4byte	0x55c9
 16191 55b9 3E       		.uleb128 0x3e
 16192 55ba 01       		.uleb128 0x1
 16193 55bb 50       		.byte	0x50
 16194 55bc 05       		.uleb128 0x5
 16195 55bd 03       		.byte	0x3
 16196 55be B4050000 		.4byte	.LC43
 16197 55c2 3E       		.uleb128 0x3e
 16198 55c3 01       		.uleb128 0x1
 16199 55c4 51       		.byte	0x51
 16200 55c5 02       		.uleb128 0x2
 16201 55c6 08       		.byte	0x8
 16202 55c7 2A       		.byte	0x2a
 16203 55c8 00       		.byte	0
 16204 55c9 3B       		.uleb128 0x3b
 16205 55ca F2150000 		.4byte	.LVL322
 16206 55ce 3D690000 		.4byte	0x693d
 16207 55d2 3D       		.uleb128 0x3d
 16208 55d3 B8160000 		.4byte	.LVL323
 16209 55d7 74690000 		.4byte	0x6974
 16210 55db FE550000 		.4byte	0x55fe
 16211 55df 3E       		.uleb128 0x3e
 16212 55e0 01       		.uleb128 0x1
 16213 55e1 50       		.byte	0x50
 16214 55e2 02       		.uleb128 0x2
 16215 55e3 78       		.byte	0x78
 16216 55e4 00       		.sleb128 0
 16217 55e5 3E       		.uleb128 0x3e
 16218 55e6 01       		.uleb128 0x1
 16219 55e7 51       		.byte	0x51
 16220 55e8 05       		.uleb128 0x5
ARM GAS  C:\Users\mathi\AppData\Local\Temp\cc0ZaFXf.s 			page 291


 16221 55e9 03       		.byte	0x3
 16222 55ea 7C080000 		.4byte	.LC64
 16223 55ee 3E       		.uleb128 0x3e
 16224 55ef 01       		.uleb128 0x1
 16225 55f0 52       		.byte	0x52
 16226 55f1 03       		.uleb128 0x3
 16227 55f2 91       		.byte	0x91
 16228 55f3 40       		.sleb128 -64
 16229 55f4 06       		.byte	0x6
 16230 55f5 3E       		.uleb128 0x3e
 16231 55f6 01       		.uleb128 0x1
 16232 55f7 53       		.byte	0x53
 16233 55f8 04       		.uleb128 0x4
 16234 55f9 91       		.byte	0x91
 16235 55fa B47F     		.sleb128 -76
 16236 55fc 06       		.byte	0x6
 16237 55fd 00       		.byte	0
 16238 55fe 3B       		.uleb128 0x3b
 16239 55ff F4160000 		.4byte	.LVL324
 16240 5603 506A0000 		.4byte	0x6a50
 16241 5607 3D       		.uleb128 0x3d
 16242 5608 42170000 		.4byte	.LVL325
 16243 560c 5B6A0000 		.4byte	0x6a5b
 16244 5610 2A560000 		.4byte	0x562a
 16245 5614 3E       		.uleb128 0x3e
 16246 5615 02       		.uleb128 0x2
 16247 5616 7D       		.byte	0x7d
 16248 5617 00       		.sleb128 0
 16249 5618 02       		.uleb128 0x2
 16250 5619 75       		.byte	0x75
 16251 561a 00       		.sleb128 0
 16252 561b 3E       		.uleb128 0x3e
 16253 561c 02       		.uleb128 0x2
 16254 561d 7D       		.byte	0x7d
 16255 561e 04       		.sleb128 4
 16256 561f 02       		.uleb128 0x2
 16257 5620 75       		.byte	0x75
 16258 5621 00       		.sleb128 0
 16259 5622 3E       		.uleb128 0x3e
 16260 5623 02       		.uleb128 0x2
 16261 5624 7D       		.byte	0x7d
 16262 5625 08       		.sleb128 8
 16263 5626 02       		.uleb128 0x2
 16264 5627 74       		.byte	0x74
 16265 5628 00       		.sleb128 0
 16266 5629 00       		.byte	0
 16267 562a 3B       		.uleb128 0x3b
 16268 562b 46170000 		.4byte	.LVL326
 16269 562f 666A0000 		.4byte	0x6a66
 16270 5633 3D       		.uleb128 0x3d
 16271 5634 4E170000 		.4byte	.LVL327
 16272 5638 32690000 		.4byte	0x6932
 16273 563c 4F560000 		.4byte	0x564f
 16274 5640 3E       		.uleb128 0x3e
 16275 5641 01       		.uleb128 0x1
 16276 5642 50       		.byte	0x50
 16277 5643 05       		.uleb128 0x5
ARM GAS  C:\Users\mathi\AppData\Local\Temp\cc0ZaFXf.s 			page 292


 16278 5644 03       		.byte	0x3
 16279 5645 94080000 		.4byte	.LC65
 16280 5649 3E       		.uleb128 0x3e
 16281 564a 01       		.uleb128 0x1
 16282 564b 51       		.byte	0x51
 16283 564c 01       		.uleb128 0x1
 16284 564d 33       		.byte	0x33
 16285 564e 00       		.byte	0
 16286 564f 3B       		.uleb128 0x3b
 16287 5650 52170000 		.4byte	.LVL328
 16288 5654 3D690000 		.4byte	0x693d
 16289 5658 3D       		.uleb128 0x3d
 16290 5659 64170000 		.4byte	.LVL329
 16291 565d 74690000 		.4byte	0x6974
 16292 5661 7E560000 		.4byte	0x567e
 16293 5665 3E       		.uleb128 0x3e
 16294 5666 01       		.uleb128 0x1
 16295 5667 50       		.byte	0x50
 16296 5668 02       		.uleb128 0x2
 16297 5669 78       		.byte	0x78
 16298 566a 00       		.sleb128 0
 16299 566b 3E       		.uleb128 0x3e
 16300 566c 01       		.uleb128 0x1
 16301 566d 51       		.byte	0x51
 16302 566e 05       		.uleb128 0x5
 16303 566f 03       		.byte	0x3
 16304 5670 C0000000 		.4byte	.LC11
 16305 5674 3E       		.uleb128 0x3e
 16306 5675 01       		.uleb128 0x1
 16307 5676 52       		.byte	0x52
 16308 5677 05       		.uleb128 0x5
 16309 5678 03       		.byte	0x3
 16310 5679 00000000 		.4byte	.LANCHOR28
 16311 567d 00       		.byte	0
 16312 567e 3B       		.uleb128 0x3b
 16313 567f 74170000 		.4byte	.LVL330
 16314 5683 716A0000 		.4byte	0x6a71
 16315 5687 3D       		.uleb128 0x3d
 16316 5688 7C170000 		.4byte	.LVL331
 16317 568c 32690000 		.4byte	0x6932
 16318 5690 A3560000 		.4byte	0x56a3
 16319 5694 3E       		.uleb128 0x3e
 16320 5695 01       		.uleb128 0x1
 16321 5696 50       		.byte	0x50
 16322 5697 05       		.uleb128 0x5
 16323 5698 03       		.byte	0x3
 16324 5699 C8000000 		.4byte	.LC12
 16325 569d 3E       		.uleb128 0x3e
 16326 569e 01       		.uleb128 0x1
 16327 569f 51       		.byte	0x51
 16328 56a0 01       		.uleb128 0x1
 16329 56a1 33       		.byte	0x33
 16330 56a2 00       		.byte	0
 16331 56a3 3B       		.uleb128 0x3b
 16332 56a4 80170000 		.4byte	.LVL332
 16333 56a8 3D690000 		.4byte	0x693d
 16334 56ac 3D       		.uleb128 0x3d
ARM GAS  C:\Users\mathi\AppData\Local\Temp\cc0ZaFXf.s 			page 293


 16335 56ad 98170000 		.4byte	.LVL333
 16336 56b1 32690000 		.4byte	0x6932
 16337 56b5 C8560000 		.4byte	0x56c8
 16338 56b9 3E       		.uleb128 0x3e
 16339 56ba 01       		.uleb128 0x1
 16340 56bb 50       		.byte	0x50
 16341 56bc 05       		.uleb128 0x5
 16342 56bd 03       		.byte	0x3
 16343 56be 240A0000 		.4byte	.LC89
 16344 56c2 3E       		.uleb128 0x3e
 16345 56c3 01       		.uleb128 0x1
 16346 56c4 51       		.byte	0x51
 16347 56c5 01       		.uleb128 0x1
 16348 56c6 45       		.byte	0x45
 16349 56c7 00       		.byte	0
 16350 56c8 3B       		.uleb128 0x3b
 16351 56c9 9C170000 		.4byte	.LVL334
 16352 56cd 3D690000 		.4byte	0x693d
 16353 56d1 3D       		.uleb128 0x3d
 16354 56d2 B0170000 		.4byte	.LVL335
 16355 56d6 7C6A0000 		.4byte	0x6a7c
 16356 56da ED560000 		.4byte	0x56ed
 16357 56de 3E       		.uleb128 0x3e
 16358 56df 01       		.uleb128 0x1
 16359 56e0 50       		.byte	0x50
 16360 56e1 03       		.uleb128 0x3
 16361 56e2 0A       		.byte	0xa
 16362 56e3 142B     		.2byte	0x2b14
 16363 56e5 3E       		.uleb128 0x3e
 16364 56e6 01       		.uleb128 0x1
 16365 56e7 51       		.byte	0x51
 16366 56e8 03       		.uleb128 0x3
 16367 56e9 0A       		.byte	0xa
 16368 56ea 501F     		.2byte	0x1f50
 16369 56ec 00       		.byte	0
 16370 56ed 3D       		.uleb128 0x3d
 16371 56ee B8170000 		.4byte	.LVL336
 16372 56f2 32690000 		.4byte	0x6932
 16373 56f6 09570000 		.4byte	0x5709
 16374 56fa 3E       		.uleb128 0x3e
 16375 56fb 01       		.uleb128 0x1
 16376 56fc 50       		.byte	0x50
 16377 56fd 05       		.uleb128 0x5
 16378 56fe 03       		.byte	0x3
 16379 56ff A4090000 		.4byte	.LC79
 16380 5703 3E       		.uleb128 0x3e
 16381 5704 01       		.uleb128 0x1
 16382 5705 51       		.byte	0x51
 16383 5706 01       		.uleb128 0x1
 16384 5707 33       		.byte	0x33
 16385 5708 00       		.byte	0
 16386 5709 3B       		.uleb128 0x3b
 16387 570a BC170000 		.4byte	.LVL337
 16388 570e 3D690000 		.4byte	0x693d
 16389 5712 3D       		.uleb128 0x3d
 16390 5713 D0170000 		.4byte	.LVL338
 16391 5717 7C6A0000 		.4byte	0x6a7c
ARM GAS  C:\Users\mathi\AppData\Local\Temp\cc0ZaFXf.s 			page 294


 16392 571b 2E570000 		.4byte	0x572e
 16393 571f 3E       		.uleb128 0x3e
 16394 5720 01       		.uleb128 0x1
 16395 5721 50       		.byte	0x50
 16396 5722 03       		.uleb128 0x3
 16397 5723 0A       		.byte	0xa
 16398 5724 7E1C     		.2byte	0x1c7e
 16399 5726 3E       		.uleb128 0x3e
 16400 5727 01       		.uleb128 0x1
 16401 5728 51       		.byte	0x51
 16402 5729 03       		.uleb128 0x3
 16403 572a 0A       		.byte	0xa
 16404 572b 940E     		.2byte	0xe94
 16405 572d 00       		.byte	0
 16406 572e 3D       		.uleb128 0x3d
 16407 572f DC170000 		.4byte	.LVL339
 16408 5733 876A0000 		.4byte	0x6a87
 16409 5737 4B570000 		.4byte	0x574b
 16410 573b 3E       		.uleb128 0x3e
 16411 573c 01       		.uleb128 0x1
 16412 573d 50       		.byte	0x50
 16413 573e 01       		.uleb128 0x1
 16414 573f 3B       		.byte	0x3b
 16415 5740 3E       		.uleb128 0x3e
 16416 5741 01       		.uleb128 0x1
 16417 5742 51       		.byte	0x51
 16418 5743 01       		.uleb128 0x1
 16419 5744 32       		.byte	0x32
 16420 5745 3E       		.uleb128 0x3e
 16421 5746 01       		.uleb128 0x1
 16422 5747 52       		.byte	0x52
 16423 5748 01       		.uleb128 0x1
 16424 5749 30       		.byte	0x30
 16425 574a 00       		.byte	0
 16426 574b 3D       		.uleb128 0x3d
 16427 574c E8170000 		.4byte	.LVL340
 16428 5750 876A0000 		.4byte	0x6a87
 16429 5754 68570000 		.4byte	0x5768
 16430 5758 3E       		.uleb128 0x3e
 16431 5759 01       		.uleb128 0x1
 16432 575a 50       		.byte	0x50
 16433 575b 01       		.uleb128 0x1
 16434 575c 34       		.byte	0x34
 16435 575d 3E       		.uleb128 0x3e
 16436 575e 01       		.uleb128 0x1
 16437 575f 51       		.byte	0x51
 16438 5760 01       		.uleb128 0x1
 16439 5761 32       		.byte	0x32
 16440 5762 3E       		.uleb128 0x3e
 16441 5763 01       		.uleb128 0x1
 16442 5764 52       		.byte	0x52
 16443 5765 01       		.uleb128 0x1
 16444 5766 30       		.byte	0x30
 16445 5767 00       		.byte	0
 16446 5768 3D       		.uleb128 0x3d
 16447 5769 F4170000 		.4byte	.LVL341
 16448 576d 876A0000 		.4byte	0x6a87
ARM GAS  C:\Users\mathi\AppData\Local\Temp\cc0ZaFXf.s 			page 295


 16449 5771 85570000 		.4byte	0x5785
 16450 5775 3E       		.uleb128 0x3e
 16451 5776 01       		.uleb128 0x1
 16452 5777 50       		.byte	0x50
 16453 5778 01       		.uleb128 0x1
 16454 5779 33       		.byte	0x33
 16455 577a 3E       		.uleb128 0x3e
 16456 577b 01       		.uleb128 0x1
 16457 577c 51       		.byte	0x51
 16458 577d 01       		.uleb128 0x1
 16459 577e 32       		.byte	0x32
 16460 577f 3E       		.uleb128 0x3e
 16461 5780 01       		.uleb128 0x1
 16462 5781 52       		.byte	0x52
 16463 5782 01       		.uleb128 0x1
 16464 5783 30       		.byte	0x30
 16465 5784 00       		.byte	0
 16466 5785 3B       		.uleb128 0x3b
 16467 5786 481A0000 		.4byte	.LVL368
 16468 578a 1C690000 		.4byte	0x691c
 16469 578e 3B       		.uleb128 0x3b
 16470 578f 521A0000 		.4byte	.LVL369
 16471 5793 926A0000 		.4byte	0x6a92
 16472 5797 3B       		.uleb128 0x3b
 16473 5798 581A0000 		.4byte	.LVL370
 16474 579c 9D6A0000 		.4byte	0x6a9d
 16475 57a0 3D       		.uleb128 0x3d
 16476 57a1 641A0000 		.4byte	.LVL371
 16477 57a5 69690000 		.4byte	0x6969
 16478 57a9 C3570000 		.4byte	0x57c3
 16479 57ad 3E       		.uleb128 0x3e
 16480 57ae 01       		.uleb128 0x1
 16481 57af 50       		.byte	0x50
 16482 57b0 02       		.uleb128 0x2
 16483 57b1 78       		.byte	0x78
 16484 57b2 00       		.sleb128 0
 16485 57b3 3E       		.uleb128 0x3e
 16486 57b4 01       		.uleb128 0x1
 16487 57b5 51       		.byte	0x51
 16488 57b6 05       		.uleb128 0x5
 16489 57b7 03       		.byte	0x3
 16490 57b8 78000000 		.4byte	.LC3
 16491 57bc 3E       		.uleb128 0x3e
 16492 57bd 01       		.uleb128 0x1
 16493 57be 52       		.byte	0x52
 16494 57bf 02       		.uleb128 0x2
 16495 57c0 74       		.byte	0x74
 16496 57c1 00       		.sleb128 0
 16497 57c2 00       		.byte	0
 16498 57c3 3D       		.uleb128 0x3d
 16499 57c4 7A1A0000 		.4byte	.LVL373
 16500 57c8 32690000 		.4byte	0x6932
 16501 57cc D7570000 		.4byte	0x57d7
 16502 57d0 3E       		.uleb128 0x3e
 16503 57d1 01       		.uleb128 0x1
 16504 57d2 50       		.byte	0x50
 16505 57d3 02       		.uleb128 0x2
ARM GAS  C:\Users\mathi\AppData\Local\Temp\cc0ZaFXf.s 			page 296


 16506 57d4 78       		.byte	0x78
 16507 57d5 00       		.sleb128 0
 16508 57d6 00       		.byte	0
 16509 57d7 3B       		.uleb128 0x3b
 16510 57d8 7E1A0000 		.4byte	.LVL374
 16511 57dc 3D690000 		.4byte	0x693d
 16512 57e0 3D       		.uleb128 0x3d
 16513 57e1 A81A0000 		.4byte	.LVL378
 16514 57e5 A86A0000 		.4byte	0x6aa8
 16515 57e9 F9570000 		.4byte	0x57f9
 16516 57ed 3E       		.uleb128 0x3e
 16517 57ee 01       		.uleb128 0x1
 16518 57ef 50       		.byte	0x50
 16519 57f0 02       		.uleb128 0x2
 16520 57f1 78       		.byte	0x78
 16521 57f2 00       		.sleb128 0
 16522 57f3 3E       		.uleb128 0x3e
 16523 57f4 01       		.uleb128 0x1
 16524 57f5 51       		.byte	0x51
 16525 57f6 01       		.uleb128 0x1
 16526 57f7 39       		.byte	0x39
 16527 57f8 00       		.byte	0
 16528 57f9 3B       		.uleb128 0x3b
 16529 57fa AC1A0000 		.4byte	.LVL379
 16530 57fe B36A0000 		.4byte	0x6ab3
 16531 5802 3D       		.uleb128 0x3d
 16532 5803 CA1A0000 		.4byte	.LVL380
 16533 5807 A86A0000 		.4byte	0x6aa8
 16534 580b 1E580000 		.4byte	0x581e
 16535 580f 3E       		.uleb128 0x3e
 16536 5810 01       		.uleb128 0x1
 16537 5811 50       		.byte	0x50
 16538 5812 05       		.uleb128 0x5
 16539 5813 03       		.byte	0x3
 16540 5814 00000000 		.4byte	buffer
 16541 5818 3E       		.uleb128 0x3e
 16542 5819 01       		.uleb128 0x1
 16543 581a 51       		.byte	0x51
 16544 581b 01       		.uleb128 0x1
 16545 581c 35       		.byte	0x35
 16546 581d 00       		.byte	0
 16547 581e 3B       		.uleb128 0x3b
 16548 581f CE1A0000 		.4byte	.LVL381
 16549 5823 B36A0000 		.4byte	0x6ab3
 16550 5827 3B       		.uleb128 0x3b
 16551 5828 DA1A0000 		.4byte	.LVL382
 16552 582c A86A0000 		.4byte	0x6aa8
 16553 5830 3B       		.uleb128 0x3b
 16554 5831 DE1A0000 		.4byte	.LVL383
 16555 5835 B36A0000 		.4byte	0x6ab3
 16556 5839 3D       		.uleb128 0x3d
 16557 583a EA1A0000 		.4byte	.LVL384
 16558 583e ED690000 		.4byte	0x69ed
 16559 5842 51580000 		.4byte	0x5851
 16560 5846 3E       		.uleb128 0x3e
 16561 5847 01       		.uleb128 0x1
 16562 5848 50       		.byte	0x50
ARM GAS  C:\Users\mathi\AppData\Local\Temp\cc0ZaFXf.s 			page 297


 16563 5849 01       		.uleb128 0x1
 16564 584a 38       		.byte	0x38
 16565 584b 3E       		.uleb128 0x3e
 16566 584c 01       		.uleb128 0x1
 16567 584d 51       		.byte	0x51
 16568 584e 01       		.uleb128 0x1
 16569 584f 31       		.byte	0x31
 16570 5850 00       		.byte	0
 16571 5851 3D       		.uleb128 0x3d
 16572 5852 F21A0000 		.4byte	.LVL385
 16573 5856 036A0000 		.4byte	0x6a03
 16574 585a 66580000 		.4byte	0x5866
 16575 585e 3E       		.uleb128 0x3e
 16576 585f 01       		.uleb128 0x1
 16577 5860 50       		.byte	0x50
 16578 5861 03       		.uleb128 0x3
 16579 5862 0A       		.byte	0xa
 16580 5863 9001     		.2byte	0x190
 16581 5865 00       		.byte	0
 16582 5866 3B       		.uleb128 0x3b
 16583 5867 F61A0000 		.4byte	.LVL386
 16584 586b 0E6A0000 		.4byte	0x6a0e
 16585 586f 3D       		.uleb128 0x3d
 16586 5870 FC1A0000 		.4byte	.LVL387
 16587 5874 036A0000 		.4byte	0x6a03
 16588 5878 83580000 		.4byte	0x5883
 16589 587c 3E       		.uleb128 0x3e
 16590 587d 01       		.uleb128 0x1
 16591 587e 50       		.byte	0x50
 16592 587f 02       		.uleb128 0x2
 16593 5880 08       		.byte	0x8
 16594 5881 64       		.byte	0x64
 16595 5882 00       		.byte	0
 16596 5883 3B       		.uleb128 0x3b
 16597 5884 001B0000 		.4byte	.LVL388
 16598 5888 196A0000 		.4byte	0x6a19
 16599 588c 3D       		.uleb128 0x3d
 16600 588d 081B0000 		.4byte	.LVL389
 16601 5891 A86A0000 		.4byte	0x6aa8
 16602 5895 A8580000 		.4byte	0x58a8
 16603 5899 3E       		.uleb128 0x3e
 16604 589a 01       		.uleb128 0x1
 16605 589b 50       		.byte	0x50
 16606 589c 05       		.uleb128 0x5
 16607 589d 03       		.byte	0x3
 16608 589e 3C0A0000 		.4byte	.LC90
 16609 58a2 3E       		.uleb128 0x3e
 16610 58a3 01       		.uleb128 0x1
 16611 58a4 51       		.byte	0x51
 16612 58a5 01       		.uleb128 0x1
 16613 58a6 49       		.byte	0x49
 16614 58a7 00       		.byte	0
 16615 58a8 3B       		.uleb128 0x3b
 16616 58a9 0C1B0000 		.4byte	.LVL390
 16617 58ad B36A0000 		.4byte	0x6ab3
 16618 58b1 3D       		.uleb128 0x3d
 16619 58b2 1A1B0000 		.4byte	.LVL392
ARM GAS  C:\Users\mathi\AppData\Local\Temp\cc0ZaFXf.s 			page 298


 16620 58b6 B6690000 		.4byte	0x69b6
 16621 58ba C7580000 		.4byte	0x58c7
 16622 58be 3E       		.uleb128 0x3e
 16623 58bf 01       		.uleb128 0x1
 16624 58c0 50       		.byte	0x50
 16625 58c1 04       		.uleb128 0x4
 16626 58c2 91       		.byte	0x91
 16627 58c3 947F     		.sleb128 -108
 16628 58c5 06       		.byte	0x6
 16629 58c6 00       		.byte	0
 16630 58c7 3D       		.uleb128 0x3d
 16631 58c8 221B0000 		.4byte	.LVL393
 16632 58cc B6690000 		.4byte	0x69b6
 16633 58d0 DA580000 		.4byte	0x58da
 16634 58d4 3E       		.uleb128 0x3e
 16635 58d5 01       		.uleb128 0x1
 16636 58d6 50       		.byte	0x50
 16637 58d7 01       		.uleb128 0x1
 16638 58d8 31       		.byte	0x31
 16639 58d9 00       		.byte	0
 16640 58da 3D       		.uleb128 0x3d
 16641 58db 2A1B0000 		.4byte	.LVL394
 16642 58df B6690000 		.4byte	0x69b6
 16643 58e3 ED580000 		.4byte	0x58ed
 16644 58e7 3E       		.uleb128 0x3e
 16645 58e8 01       		.uleb128 0x1
 16646 58e9 50       		.byte	0x50
 16647 58ea 01       		.uleb128 0x1
 16648 58eb 32       		.byte	0x32
 16649 58ec 00       		.byte	0
 16650 58ed 3D       		.uleb128 0x3d
 16651 58ee 321B0000 		.4byte	.LVL395
 16652 58f2 B6690000 		.4byte	0x69b6
 16653 58f6 00590000 		.4byte	0x5900
 16654 58fa 3E       		.uleb128 0x3e
 16655 58fb 01       		.uleb128 0x1
 16656 58fc 50       		.byte	0x50
 16657 58fd 01       		.uleb128 0x1
 16658 58fe 33       		.byte	0x33
 16659 58ff 00       		.byte	0
 16660 5900 3D       		.uleb128 0x3d
 16661 5901 3A1B0000 		.4byte	.LVL396
 16662 5905 B6690000 		.4byte	0x69b6
 16663 5909 13590000 		.4byte	0x5913
 16664 590d 3E       		.uleb128 0x3e
 16665 590e 01       		.uleb128 0x1
 16666 590f 50       		.byte	0x50
 16667 5910 01       		.uleb128 0x1
 16668 5911 34       		.byte	0x34
 16669 5912 00       		.byte	0
 16670 5913 3D       		.uleb128 0x3d
 16671 5914 421B0000 		.4byte	.LVL397
 16672 5918 B6690000 		.4byte	0x69b6
 16673 591c 26590000 		.4byte	0x5926
 16674 5920 3E       		.uleb128 0x3e
 16675 5921 01       		.uleb128 0x1
 16676 5922 50       		.byte	0x50
ARM GAS  C:\Users\mathi\AppData\Local\Temp\cc0ZaFXf.s 			page 299


 16677 5923 01       		.uleb128 0x1
 16678 5924 35       		.byte	0x35
 16679 5925 00       		.byte	0
 16680 5926 3D       		.uleb128 0x3d
 16681 5927 4A1B0000 		.4byte	.LVL398
 16682 592b B6690000 		.4byte	0x69b6
 16683 592f 39590000 		.4byte	0x5939
 16684 5933 3E       		.uleb128 0x3e
 16685 5934 01       		.uleb128 0x1
 16686 5935 50       		.byte	0x50
 16687 5936 01       		.uleb128 0x1
 16688 5937 36       		.byte	0x36
 16689 5938 00       		.byte	0
 16690 5939 3D       		.uleb128 0x3d
 16691 593a 521B0000 		.4byte	.LVL399
 16692 593e B6690000 		.4byte	0x69b6
 16693 5942 4C590000 		.4byte	0x594c
 16694 5946 3E       		.uleb128 0x3e
 16695 5947 01       		.uleb128 0x1
 16696 5948 50       		.byte	0x50
 16697 5949 01       		.uleb128 0x1
 16698 594a 37       		.byte	0x37
 16699 594b 00       		.byte	0
 16700 594c 3D       		.uleb128 0x3d
 16701 594d 5A1B0000 		.4byte	.LVL400
 16702 5951 B6690000 		.4byte	0x69b6
 16703 5955 5F590000 		.4byte	0x595f
 16704 5959 3E       		.uleb128 0x3e
 16705 595a 01       		.uleb128 0x1
 16706 595b 50       		.byte	0x50
 16707 595c 01       		.uleb128 0x1
 16708 595d 38       		.byte	0x38
 16709 595e 00       		.byte	0
 16710 595f 3D       		.uleb128 0x3d
 16711 5960 621B0000 		.4byte	.LVL401
 16712 5964 B6690000 		.4byte	0x69b6
 16713 5968 72590000 		.4byte	0x5972
 16714 596c 3E       		.uleb128 0x3e
 16715 596d 01       		.uleb128 0x1
 16716 596e 50       		.byte	0x50
 16717 596f 01       		.uleb128 0x1
 16718 5970 39       		.byte	0x39
 16719 5971 00       		.byte	0
 16720 5972 3D       		.uleb128 0x3d
 16721 5973 861B0000 		.4byte	.LVL402
 16722 5977 69690000 		.4byte	0x6969
 16723 597b D8590000 		.4byte	0x59d8
 16724 597f 3E       		.uleb128 0x3e
 16725 5980 01       		.uleb128 0x1
 16726 5981 50       		.byte	0x50
 16727 5982 02       		.uleb128 0x2
 16728 5983 78       		.byte	0x78
 16729 5984 00       		.sleb128 0
 16730 5985 3E       		.uleb128 0x3e
 16731 5986 01       		.uleb128 0x1
 16732 5987 51       		.byte	0x51
 16733 5988 05       		.uleb128 0x5
ARM GAS  C:\Users\mathi\AppData\Local\Temp\cc0ZaFXf.s 			page 300


 16734 5989 03       		.byte	0x3
 16735 598a 58090000 		.4byte	.LC73
 16736 598e 3E       		.uleb128 0x3e
 16737 598f 01       		.uleb128 0x1
 16738 5990 52       		.byte	0x52
 16739 5991 04       		.uleb128 0x4
 16740 5992 91       		.byte	0x91
 16741 5993 AC7F     		.sleb128 -84
 16742 5995 06       		.byte	0x6
 16743 5996 3E       		.uleb128 0x3e
 16744 5997 01       		.uleb128 0x1
 16745 5998 53       		.byte	0x53
 16746 5999 04       		.uleb128 0x4
 16747 599a 91       		.byte	0x91
 16748 599b A87F     		.sleb128 -88
 16749 599d 06       		.byte	0x6
 16750 599e 3E       		.uleb128 0x3e
 16751 599f 02       		.uleb128 0x2
 16752 59a0 7D       		.byte	0x7d
 16753 59a1 00       		.sleb128 0
 16754 59a2 04       		.uleb128 0x4
 16755 59a3 91       		.byte	0x91
 16756 59a4 987F     		.sleb128 -104
 16757 59a6 06       		.byte	0x6
 16758 59a7 3E       		.uleb128 0x3e
 16759 59a8 02       		.uleb128 0x2
 16760 59a9 7D       		.byte	0x7d
 16761 59aa 04       		.sleb128 4
 16762 59ab 04       		.uleb128 0x4
 16763 59ac 91       		.byte	0x91
 16764 59ad A47F     		.sleb128 -92
 16765 59af 06       		.byte	0x6
 16766 59b0 3E       		.uleb128 0x3e
 16767 59b1 02       		.uleb128 0x2
 16768 59b2 7D       		.byte	0x7d
 16769 59b3 08       		.sleb128 8
 16770 59b4 04       		.uleb128 0x4
 16771 59b5 91       		.byte	0x91
 16772 59b6 9C7F     		.sleb128 -100
 16773 59b8 06       		.byte	0x6
 16774 59b9 3E       		.uleb128 0x3e
 16775 59ba 02       		.uleb128 0x2
 16776 59bb 7D       		.byte	0x7d
 16777 59bc 0C       		.sleb128 12
 16778 59bd 02       		.uleb128 0x2
 16779 59be 74       		.byte	0x74
 16780 59bf 00       		.sleb128 0
 16781 59c0 3E       		.uleb128 0x3e
 16782 59c1 02       		.uleb128 0x2
 16783 59c2 7D       		.byte	0x7d
 16784 59c3 10       		.sleb128 16
 16785 59c4 02       		.uleb128 0x2
 16786 59c5 75       		.byte	0x75
 16787 59c6 00       		.sleb128 0
 16788 59c7 3E       		.uleb128 0x3e
 16789 59c8 02       		.uleb128 0x2
 16790 59c9 7D       		.byte	0x7d
ARM GAS  C:\Users\mathi\AppData\Local\Temp\cc0ZaFXf.s 			page 301


 16791 59ca 14       		.sleb128 20
 16792 59cb 02       		.uleb128 0x2
 16793 59cc 76       		.byte	0x76
 16794 59cd 00       		.sleb128 0
 16795 59ce 3E       		.uleb128 0x3e
 16796 59cf 02       		.uleb128 0x2
 16797 59d0 7D       		.byte	0x7d
 16798 59d1 18       		.sleb128 24
 16799 59d2 04       		.uleb128 0x4
 16800 59d3 91       		.byte	0x91
 16801 59d4 A07F     		.sleb128 -96
 16802 59d6 06       		.byte	0x6
 16803 59d7 00       		.byte	0
 16804 59d8 3D       		.uleb128 0x3d
 16805 59d9 8C1B0000 		.4byte	.LVL403
 16806 59dd 27690000 		.4byte	0x6927
 16807 59e1 EC590000 		.4byte	0x59ec
 16808 59e5 3E       		.uleb128 0x3e
 16809 59e6 01       		.uleb128 0x1
 16810 59e7 50       		.byte	0x50
 16811 59e8 02       		.uleb128 0x2
 16812 59e9 78       		.byte	0x78
 16813 59ea 00       		.sleb128 0
 16814 59eb 00       		.byte	0
 16815 59ec 3D       		.uleb128 0x3d
 16816 59ed 941B0000 		.4byte	.LVL404
 16817 59f1 A86A0000 		.4byte	0x6aa8
 16818 59f5 005A0000 		.4byte	0x5a00
 16819 59f9 3E       		.uleb128 0x3e
 16820 59fa 01       		.uleb128 0x1
 16821 59fb 50       		.byte	0x50
 16822 59fc 02       		.uleb128 0x2
 16823 59fd 78       		.byte	0x78
 16824 59fe 00       		.sleb128 0
 16825 59ff 00       		.byte	0
 16826 5a00 3B       		.uleb128 0x3b
 16827 5a01 981B0000 		.4byte	.LVL405
 16828 5a05 B36A0000 		.4byte	0x6ab3
 16829 5a09 3B       		.uleb128 0x3b
 16830 5a0a A41B0000 		.4byte	.LVL406
 16831 5a0e A86A0000 		.4byte	0x6aa8
 16832 5a12 3B       		.uleb128 0x3b
 16833 5a13 A81B0000 		.4byte	.LVL407
 16834 5a17 B36A0000 		.4byte	0x6ab3
 16835 5a1b 3D       		.uleb128 0x3d
 16836 5a1c B81B0000 		.4byte	.LVL408
 16837 5a20 69690000 		.4byte	0x6969
 16838 5a24 385A0000 		.4byte	0x5a38
 16839 5a28 3E       		.uleb128 0x3e
 16840 5a29 01       		.uleb128 0x1
 16841 5a2a 50       		.byte	0x50
 16842 5a2b 02       		.uleb128 0x2
 16843 5a2c 78       		.byte	0x78
 16844 5a2d 00       		.sleb128 0
 16845 5a2e 3E       		.uleb128 0x3e
 16846 5a2f 01       		.uleb128 0x1
 16847 5a30 51       		.byte	0x51
ARM GAS  C:\Users\mathi\AppData\Local\Temp\cc0ZaFXf.s 			page 302


 16848 5a31 05       		.uleb128 0x5
 16849 5a32 03       		.byte	0x3
 16850 5a33 580A0000 		.4byte	.LC91
 16851 5a37 00       		.byte	0
 16852 5a38 3D       		.uleb128 0x3d
 16853 5a39 BE1B0000 		.4byte	.LVL409
 16854 5a3d 27690000 		.4byte	0x6927
 16855 5a41 4C5A0000 		.4byte	0x5a4c
 16856 5a45 3E       		.uleb128 0x3e
 16857 5a46 01       		.uleb128 0x1
 16858 5a47 50       		.byte	0x50
 16859 5a48 02       		.uleb128 0x2
 16860 5a49 78       		.byte	0x78
 16861 5a4a 00       		.sleb128 0
 16862 5a4b 00       		.byte	0
 16863 5a4c 3D       		.uleb128 0x3d
 16864 5a4d C61B0000 		.4byte	.LVL410
 16865 5a51 A86A0000 		.4byte	0x6aa8
 16866 5a55 605A0000 		.4byte	0x5a60
 16867 5a59 3E       		.uleb128 0x3e
 16868 5a5a 01       		.uleb128 0x1
 16869 5a5b 50       		.byte	0x50
 16870 5a5c 02       		.uleb128 0x2
 16871 5a5d 78       		.byte	0x78
 16872 5a5e 00       		.sleb128 0
 16873 5a5f 00       		.byte	0
 16874 5a60 3B       		.uleb128 0x3b
 16875 5a61 CA1B0000 		.4byte	.LVL411
 16876 5a65 B36A0000 		.4byte	0x6ab3
 16877 5a69 3B       		.uleb128 0x3b
 16878 5a6a D61B0000 		.4byte	.LVL412
 16879 5a6e 27690000 		.4byte	0x6927
 16880 5a72 3D       		.uleb128 0x3d
 16881 5a73 DE1B0000 		.4byte	.LVL413
 16882 5a77 A86A0000 		.4byte	0x6aa8
 16883 5a7b 865A0000 		.4byte	0x5a86
 16884 5a7f 3E       		.uleb128 0x3e
 16885 5a80 01       		.uleb128 0x1
 16886 5a81 50       		.byte	0x50
 16887 5a82 02       		.uleb128 0x2
 16888 5a83 78       		.byte	0x78
 16889 5a84 00       		.sleb128 0
 16890 5a85 00       		.byte	0
 16891 5a86 3B       		.uleb128 0x3b
 16892 5a87 E21B0000 		.4byte	.LVL414
 16893 5a8b B36A0000 		.4byte	0x6ab3
 16894 5a8f 3B       		.uleb128 0x3b
 16895 5a90 EE1B0000 		.4byte	.LVL415
 16896 5a94 A86A0000 		.4byte	0x6aa8
 16897 5a98 3B       		.uleb128 0x3b
 16898 5a99 F21B0000 		.4byte	.LVL416
 16899 5a9d B36A0000 		.4byte	0x6ab3
 16900 5aa1 3B       		.uleb128 0x3b
 16901 5aa2 FE1B0000 		.4byte	.LVL417
 16902 5aa6 A86A0000 		.4byte	0x6aa8
 16903 5aaa 3B       		.uleb128 0x3b
 16904 5aab 021C0000 		.4byte	.LVL418
ARM GAS  C:\Users\mathi\AppData\Local\Temp\cc0ZaFXf.s 			page 303


 16905 5aaf B36A0000 		.4byte	0x6ab3
 16906 5ab3 3B       		.uleb128 0x3b
 16907 5ab4 0E1C0000 		.4byte	.LVL419
 16908 5ab8 27690000 		.4byte	0x6927
 16909 5abc 3D       		.uleb128 0x3d
 16910 5abd 161C0000 		.4byte	.LVL420
 16911 5ac1 A86A0000 		.4byte	0x6aa8
 16912 5ac5 D05A0000 		.4byte	0x5ad0
 16913 5ac9 3E       		.uleb128 0x3e
 16914 5aca 01       		.uleb128 0x1
 16915 5acb 50       		.byte	0x50
 16916 5acc 02       		.uleb128 0x2
 16917 5acd 78       		.byte	0x78
 16918 5ace 00       		.sleb128 0
 16919 5acf 00       		.byte	0
 16920 5ad0 3B       		.uleb128 0x3b
 16921 5ad1 1A1C0000 		.4byte	.LVL421
 16922 5ad5 B36A0000 		.4byte	0x6ab3
 16923 5ad9 3B       		.uleb128 0x3b
 16924 5ada 261C0000 		.4byte	.LVL422
 16925 5ade A86A0000 		.4byte	0x6aa8
 16926 5ae2 3B       		.uleb128 0x3b
 16927 5ae3 2A1C0000 		.4byte	.LVL423
 16928 5ae7 B36A0000 		.4byte	0x6ab3
 16929 5aeb 3B       		.uleb128 0x3b
 16930 5aec 361C0000 		.4byte	.LVL424
 16931 5af0 A86A0000 		.4byte	0x6aa8
 16932 5af4 3B       		.uleb128 0x3b
 16933 5af5 3A1C0000 		.4byte	.LVL425
 16934 5af9 B36A0000 		.4byte	0x6ab3
 16935 5afd 3B       		.uleb128 0x3b
 16936 5afe 461C0000 		.4byte	.LVL426
 16937 5b02 27690000 		.4byte	0x6927
 16938 5b06 3D       		.uleb128 0x3d
 16939 5b07 4E1C0000 		.4byte	.LVL427
 16940 5b0b A86A0000 		.4byte	0x6aa8
 16941 5b0f 1A5B0000 		.4byte	0x5b1a
 16942 5b13 3E       		.uleb128 0x3e
 16943 5b14 01       		.uleb128 0x1
 16944 5b15 50       		.byte	0x50
 16945 5b16 02       		.uleb128 0x2
 16946 5b17 78       		.byte	0x78
 16947 5b18 00       		.sleb128 0
 16948 5b19 00       		.byte	0
 16949 5b1a 3B       		.uleb128 0x3b
 16950 5b1b 521C0000 		.4byte	.LVL428
 16951 5b1f B36A0000 		.4byte	0x6ab3
 16952 5b23 3B       		.uleb128 0x3b
 16953 5b24 5E1C0000 		.4byte	.LVL429
 16954 5b28 1C690000 		.4byte	0x691c
 16955 5b2c 3D       		.uleb128 0x3d
 16956 5b2d 761C0000 		.4byte	.LVL430
 16957 5b31 27690000 		.4byte	0x6927
 16958 5b35 405B0000 		.4byte	0x5b40
 16959 5b39 3E       		.uleb128 0x3e
 16960 5b3a 01       		.uleb128 0x1
 16961 5b3b 50       		.byte	0x50
ARM GAS  C:\Users\mathi\AppData\Local\Temp\cc0ZaFXf.s 			page 304


 16962 5b3c 02       		.uleb128 0x2
 16963 5b3d 78       		.byte	0x78
 16964 5b3e 00       		.sleb128 0
 16965 5b3f 00       		.byte	0
 16966 5b40 3D       		.uleb128 0x3d
 16967 5b41 7E1C0000 		.4byte	.LVL431
 16968 5b45 A86A0000 		.4byte	0x6aa8
 16969 5b49 545B0000 		.4byte	0x5b54
 16970 5b4d 3E       		.uleb128 0x3e
 16971 5b4e 01       		.uleb128 0x1
 16972 5b4f 50       		.byte	0x50
 16973 5b50 02       		.uleb128 0x2
 16974 5b51 78       		.byte	0x78
 16975 5b52 00       		.sleb128 0
 16976 5b53 00       		.byte	0
 16977 5b54 3B       		.uleb128 0x3b
 16978 5b55 821C0000 		.4byte	.LVL432
 16979 5b59 B36A0000 		.4byte	0x6ab3
 16980 5b5d 3D       		.uleb128 0x3d
 16981 5b5e CE1C0000 		.4byte	.LVL433
 16982 5b62 C1690000 		.4byte	0x69c1
 16983 5b66 735B0000 		.4byte	0x5b73
 16984 5b6a 3E       		.uleb128 0x3e
 16985 5b6b 01       		.uleb128 0x1
 16986 5b6c 50       		.byte	0x50
 16987 5b6d 04       		.uleb128 0x4
 16988 5b6e 91       		.byte	0x91
 16989 5b6f 947F     		.sleb128 -108
 16990 5b71 06       		.byte	0x6
 16991 5b72 00       		.byte	0
 16992 5b73 3D       		.uleb128 0x3d
 16993 5b74 D61C0000 		.4byte	.LVL434
 16994 5b78 C1690000 		.4byte	0x69c1
 16995 5b7c 865B0000 		.4byte	0x5b86
 16996 5b80 3E       		.uleb128 0x3e
 16997 5b81 01       		.uleb128 0x1
 16998 5b82 50       		.byte	0x50
 16999 5b83 01       		.uleb128 0x1
 17000 5b84 31       		.byte	0x31
 17001 5b85 00       		.byte	0
 17002 5b86 3D       		.uleb128 0x3d
 17003 5b87 DE1C0000 		.4byte	.LVL435
 17004 5b8b C1690000 		.4byte	0x69c1
 17005 5b8f 995B0000 		.4byte	0x5b99
 17006 5b93 3E       		.uleb128 0x3e
 17007 5b94 01       		.uleb128 0x1
 17008 5b95 50       		.byte	0x50
 17009 5b96 01       		.uleb128 0x1
 17010 5b97 32       		.byte	0x32
 17011 5b98 00       		.byte	0
 17012 5b99 3D       		.uleb128 0x3d
 17013 5b9a E61C0000 		.4byte	.LVL436
 17014 5b9e C1690000 		.4byte	0x69c1
 17015 5ba2 AC5B0000 		.4byte	0x5bac
 17016 5ba6 3E       		.uleb128 0x3e
 17017 5ba7 01       		.uleb128 0x1
 17018 5ba8 50       		.byte	0x50
ARM GAS  C:\Users\mathi\AppData\Local\Temp\cc0ZaFXf.s 			page 305


 17019 5ba9 01       		.uleb128 0x1
 17020 5baa 33       		.byte	0x33
 17021 5bab 00       		.byte	0
 17022 5bac 3D       		.uleb128 0x3d
 17023 5bad EE1C0000 		.4byte	.LVL437
 17024 5bb1 C1690000 		.4byte	0x69c1
 17025 5bb5 BF5B0000 		.4byte	0x5bbf
 17026 5bb9 3E       		.uleb128 0x3e
 17027 5bba 01       		.uleb128 0x1
 17028 5bbb 50       		.byte	0x50
 17029 5bbc 01       		.uleb128 0x1
 17030 5bbd 34       		.byte	0x34
 17031 5bbe 00       		.byte	0
 17032 5bbf 3D       		.uleb128 0x3d
 17033 5bc0 F61C0000 		.4byte	.LVL438
 17034 5bc4 C1690000 		.4byte	0x69c1
 17035 5bc8 D25B0000 		.4byte	0x5bd2
 17036 5bcc 3E       		.uleb128 0x3e
 17037 5bcd 01       		.uleb128 0x1
 17038 5bce 50       		.byte	0x50
 17039 5bcf 01       		.uleb128 0x1
 17040 5bd0 35       		.byte	0x35
 17041 5bd1 00       		.byte	0
 17042 5bd2 3D       		.uleb128 0x3d
 17043 5bd3 FE1C0000 		.4byte	.LVL439
 17044 5bd7 C1690000 		.4byte	0x69c1
 17045 5bdb E55B0000 		.4byte	0x5be5
 17046 5bdf 3E       		.uleb128 0x3e
 17047 5be0 01       		.uleb128 0x1
 17048 5be1 50       		.byte	0x50
 17049 5be2 01       		.uleb128 0x1
 17050 5be3 36       		.byte	0x36
 17051 5be4 00       		.byte	0
 17052 5be5 3D       		.uleb128 0x3d
 17053 5be6 061D0000 		.4byte	.LVL440
 17054 5bea C1690000 		.4byte	0x69c1
 17055 5bee F85B0000 		.4byte	0x5bf8
 17056 5bf2 3E       		.uleb128 0x3e
 17057 5bf3 01       		.uleb128 0x1
 17058 5bf4 50       		.byte	0x50
 17059 5bf5 01       		.uleb128 0x1
 17060 5bf6 37       		.byte	0x37
 17061 5bf7 00       		.byte	0
 17062 5bf8 3D       		.uleb128 0x3d
 17063 5bf9 0E1D0000 		.4byte	.LVL441
 17064 5bfd C1690000 		.4byte	0x69c1
 17065 5c01 0B5C0000 		.4byte	0x5c0b
 17066 5c05 3E       		.uleb128 0x3e
 17067 5c06 01       		.uleb128 0x1
 17068 5c07 50       		.byte	0x50
 17069 5c08 01       		.uleb128 0x1
 17070 5c09 38       		.byte	0x38
 17071 5c0a 00       		.byte	0
 17072 5c0b 3D       		.uleb128 0x3d
 17073 5c0c 161D0000 		.4byte	.LVL442
 17074 5c10 C1690000 		.4byte	0x69c1
 17075 5c14 1E5C0000 		.4byte	0x5c1e
ARM GAS  C:\Users\mathi\AppData\Local\Temp\cc0ZaFXf.s 			page 306


 17076 5c18 3E       		.uleb128 0x3e
 17077 5c19 01       		.uleb128 0x1
 17078 5c1a 50       		.byte	0x50
 17079 5c1b 01       		.uleb128 0x1
 17080 5c1c 39       		.byte	0x39
 17081 5c1d 00       		.byte	0
 17082 5c1e 3D       		.uleb128 0x3d
 17083 5c1f 3A1D0000 		.4byte	.LVL443
 17084 5c23 69690000 		.4byte	0x6969
 17085 5c27 845C0000 		.4byte	0x5c84
 17086 5c2b 3E       		.uleb128 0x3e
 17087 5c2c 01       		.uleb128 0x1
 17088 5c2d 50       		.byte	0x50
 17089 5c2e 02       		.uleb128 0x2
 17090 5c2f 78       		.byte	0x78
 17091 5c30 00       		.sleb128 0
 17092 5c31 3E       		.uleb128 0x3e
 17093 5c32 01       		.uleb128 0x1
 17094 5c33 51       		.byte	0x51
 17095 5c34 05       		.uleb128 0x5
 17096 5c35 03       		.byte	0x3
 17097 5c36 18090000 		.4byte	.LC71
 17098 5c3a 3E       		.uleb128 0x3e
 17099 5c3b 01       		.uleb128 0x1
 17100 5c3c 52       		.byte	0x52
 17101 5c3d 04       		.uleb128 0x4
 17102 5c3e 91       		.byte	0x91
 17103 5c3f AC7F     		.sleb128 -84
 17104 5c41 06       		.byte	0x6
 17105 5c42 3E       		.uleb128 0x3e
 17106 5c43 01       		.uleb128 0x1
 17107 5c44 53       		.byte	0x53
 17108 5c45 04       		.uleb128 0x4
 17109 5c46 91       		.byte	0x91
 17110 5c47 A87F     		.sleb128 -88
 17111 5c49 06       		.byte	0x6
 17112 5c4a 3E       		.uleb128 0x3e
 17113 5c4b 02       		.uleb128 0x2
 17114 5c4c 7D       		.byte	0x7d
 17115 5c4d 00       		.sleb128 0
 17116 5c4e 04       		.uleb128 0x4
 17117 5c4f 91       		.byte	0x91
 17118 5c50 987F     		.sleb128 -104
 17119 5c52 06       		.byte	0x6
 17120 5c53 3E       		.uleb128 0x3e
 17121 5c54 02       		.uleb128 0x2
 17122 5c55 7D       		.byte	0x7d
 17123 5c56 04       		.sleb128 4
 17124 5c57 04       		.uleb128 0x4
 17125 5c58 91       		.byte	0x91
 17126 5c59 A47F     		.sleb128 -92
 17127 5c5b 06       		.byte	0x6
 17128 5c5c 3E       		.uleb128 0x3e
 17129 5c5d 02       		.uleb128 0x2
 17130 5c5e 7D       		.byte	0x7d
 17131 5c5f 08       		.sleb128 8
 17132 5c60 04       		.uleb128 0x4
ARM GAS  C:\Users\mathi\AppData\Local\Temp\cc0ZaFXf.s 			page 307


 17133 5c61 91       		.byte	0x91
 17134 5c62 9C7F     		.sleb128 -100
 17135 5c64 06       		.byte	0x6
 17136 5c65 3E       		.uleb128 0x3e
 17137 5c66 02       		.uleb128 0x2
 17138 5c67 7D       		.byte	0x7d
 17139 5c68 0C       		.sleb128 12
 17140 5c69 02       		.uleb128 0x2
 17141 5c6a 74       		.byte	0x74
 17142 5c6b 00       		.sleb128 0
 17143 5c6c 3E       		.uleb128 0x3e
 17144 5c6d 02       		.uleb128 0x2
 17145 5c6e 7D       		.byte	0x7d
 17146 5c6f 10       		.sleb128 16
 17147 5c70 02       		.uleb128 0x2
 17148 5c71 75       		.byte	0x75
 17149 5c72 00       		.sleb128 0
 17150 5c73 3E       		.uleb128 0x3e
 17151 5c74 02       		.uleb128 0x2
 17152 5c75 7D       		.byte	0x7d
 17153 5c76 14       		.sleb128 20
 17154 5c77 02       		.uleb128 0x2
 17155 5c78 76       		.byte	0x76
 17156 5c79 00       		.sleb128 0
 17157 5c7a 3E       		.uleb128 0x3e
 17158 5c7b 02       		.uleb128 0x2
 17159 5c7c 7D       		.byte	0x7d
 17160 5c7d 18       		.sleb128 24
 17161 5c7e 04       		.uleb128 0x4
 17162 5c7f 91       		.byte	0x91
 17163 5c80 A07F     		.sleb128 -96
 17164 5c82 06       		.byte	0x6
 17165 5c83 00       		.byte	0
 17166 5c84 3D       		.uleb128 0x3d
 17167 5c85 401D0000 		.4byte	.LVL444
 17168 5c89 27690000 		.4byte	0x6927
 17169 5c8d 985C0000 		.4byte	0x5c98
 17170 5c91 3E       		.uleb128 0x3e
 17171 5c92 01       		.uleb128 0x1
 17172 5c93 50       		.byte	0x50
 17173 5c94 02       		.uleb128 0x2
 17174 5c95 78       		.byte	0x78
 17175 5c96 00       		.sleb128 0
 17176 5c97 00       		.byte	0
 17177 5c98 3D       		.uleb128 0x3d
 17178 5c99 481D0000 		.4byte	.LVL445
 17179 5c9d A86A0000 		.4byte	0x6aa8
 17180 5ca1 AC5C0000 		.4byte	0x5cac
 17181 5ca5 3E       		.uleb128 0x3e
 17182 5ca6 01       		.uleb128 0x1
 17183 5ca7 50       		.byte	0x50
 17184 5ca8 02       		.uleb128 0x2
 17185 5ca9 78       		.byte	0x78
 17186 5caa 00       		.sleb128 0
 17187 5cab 00       		.byte	0
 17188 5cac 3B       		.uleb128 0x3b
 17189 5cad 4C1D0000 		.4byte	.LVL446
ARM GAS  C:\Users\mathi\AppData\Local\Temp\cc0ZaFXf.s 			page 308


 17190 5cb1 B36A0000 		.4byte	0x6ab3
 17191 5cb5 3B       		.uleb128 0x3b
 17192 5cb6 581D0000 		.4byte	.LVL447
 17193 5cba A86A0000 		.4byte	0x6aa8
 17194 5cbe 3B       		.uleb128 0x3b
 17195 5cbf 5C1D0000 		.4byte	.LVL448
 17196 5cc3 B36A0000 		.4byte	0x6ab3
 17197 5cc7 3D       		.uleb128 0x3d
 17198 5cc8 6E1D0000 		.4byte	.LVL449
 17199 5ccc 69690000 		.4byte	0x6969
 17200 5cd0 E45C0000 		.4byte	0x5ce4
 17201 5cd4 3E       		.uleb128 0x3e
 17202 5cd5 01       		.uleb128 0x1
 17203 5cd6 50       		.byte	0x50
 17204 5cd7 02       		.uleb128 0x2
 17205 5cd8 78       		.byte	0x78
 17206 5cd9 00       		.sleb128 0
 17207 5cda 3E       		.uleb128 0x3e
 17208 5cdb 01       		.uleb128 0x1
 17209 5cdc 51       		.byte	0x51
 17210 5cdd 05       		.uleb128 0x5
 17211 5cde 03       		.byte	0x3
 17212 5cdf 88000000 		.4byte	.LC4
 17213 5ce3 00       		.byte	0
 17214 5ce4 3D       		.uleb128 0x3d
 17215 5ce5 781D0000 		.4byte	.LVL450
 17216 5ce9 A86A0000 		.4byte	0x6aa8
 17217 5ced 005D0000 		.4byte	0x5d00
 17218 5cf1 3E       		.uleb128 0x3e
 17219 5cf2 01       		.uleb128 0x1
 17220 5cf3 50       		.byte	0x50
 17221 5cf4 05       		.uleb128 0x5
 17222 5cf5 03       		.byte	0x3
 17223 5cf6 A4090000 		.4byte	.LC79
 17224 5cfa 3E       		.uleb128 0x3e
 17225 5cfb 01       		.uleb128 0x1
 17226 5cfc 51       		.byte	0x51
 17227 5cfd 01       		.uleb128 0x1
 17228 5cfe 33       		.byte	0x33
 17229 5cff 00       		.byte	0
 17230 5d00 3B       		.uleb128 0x3b
 17231 5d01 7C1D0000 		.4byte	.LVL451
 17232 5d05 B36A0000 		.4byte	0x6ab3
 17233 5d09 3B       		.uleb128 0x3b
 17234 5d0a 881D0000 		.4byte	.LVL452
 17235 5d0e A86A0000 		.4byte	0x6aa8
 17236 5d12 3B       		.uleb128 0x3b
 17237 5d13 8C1D0000 		.4byte	.LVL453
 17238 5d17 B36A0000 		.4byte	0x6ab3
 17239 5d1b 3D       		.uleb128 0x3d
 17240 5d1c 9C1D0000 		.4byte	.LVL454
 17241 5d20 A86A0000 		.4byte	0x6aa8
 17242 5d24 375D0000 		.4byte	0x5d37
 17243 5d28 3E       		.uleb128 0x3e
 17244 5d29 01       		.uleb128 0x1
 17245 5d2a 50       		.byte	0x50
 17246 5d2b 05       		.uleb128 0x5
ARM GAS  C:\Users\mathi\AppData\Local\Temp\cc0ZaFXf.s 			page 309


 17247 5d2c 03       		.byte	0x3
 17248 5d2d 98000000 		.4byte	.LC6
 17249 5d31 3E       		.uleb128 0x3e
 17250 5d32 01       		.uleb128 0x1
 17251 5d33 51       		.byte	0x51
 17252 5d34 01       		.uleb128 0x1
 17253 5d35 33       		.byte	0x33
 17254 5d36 00       		.byte	0
 17255 5d37 3B       		.uleb128 0x3b
 17256 5d38 A01D0000 		.4byte	.LVL455
 17257 5d3c B36A0000 		.4byte	0x6ab3
 17258 5d40 3B       		.uleb128 0x3b
 17259 5d41 AC1D0000 		.4byte	.LVL456
 17260 5d45 A86A0000 		.4byte	0x6aa8
 17261 5d49 3B       		.uleb128 0x3b
 17262 5d4a B01D0000 		.4byte	.LVL457
 17263 5d4e B36A0000 		.4byte	0x6ab3
 17264 5d52 3B       		.uleb128 0x3b
 17265 5d53 B81D0000 		.4byte	.LVL458
 17266 5d57 1C690000 		.4byte	0x691c
 17267 5d5b 3B       		.uleb128 0x3b
 17268 5d5c C21D0000 		.4byte	.LVL459
 17269 5d60 1C690000 		.4byte	0x691c
 17270 5d64 3D       		.uleb128 0x3d
 17271 5d65 D01D0000 		.4byte	.LVL460
 17272 5d69 A86A0000 		.4byte	0x6aa8
 17273 5d6d 805D0000 		.4byte	0x5d80
 17274 5d71 3E       		.uleb128 0x3e
 17275 5d72 01       		.uleb128 0x1
 17276 5d73 50       		.byte	0x50
 17277 5d74 05       		.uleb128 0x5
 17278 5d75 03       		.byte	0x3
 17279 5d76 FC050000 		.4byte	.LC45
 17280 5d7a 3E       		.uleb128 0x3e
 17281 5d7b 01       		.uleb128 0x1
 17282 5d7c 51       		.byte	0x51
 17283 5d7d 01       		.uleb128 0x1
 17284 5d7e 49       		.byte	0x49
 17285 5d7f 00       		.byte	0
 17286 5d80 3B       		.uleb128 0x3b
 17287 5d81 D41D0000 		.4byte	.LVL461
 17288 5d85 B36A0000 		.4byte	0x6ab3
 17289 5d89 3D       		.uleb128 0x3d
 17290 5d8a E01D0000 		.4byte	.LVL462
 17291 5d8e A86A0000 		.4byte	0x6aa8
 17292 5d92 A55D0000 		.4byte	0x5da5
 17293 5d96 3E       		.uleb128 0x3e
 17294 5d97 01       		.uleb128 0x1
 17295 5d98 50       		.byte	0x50
 17296 5d99 05       		.uleb128 0x5
 17297 5d9a 03       		.byte	0x3
 17298 5d9b 40060000 		.4byte	.LC47
 17299 5d9f 3E       		.uleb128 0x3e
 17300 5da0 01       		.uleb128 0x1
 17301 5da1 51       		.byte	0x51
 17302 5da2 01       		.uleb128 0x1
 17303 5da3 4D       		.byte	0x4d
ARM GAS  C:\Users\mathi\AppData\Local\Temp\cc0ZaFXf.s 			page 310


 17304 5da4 00       		.byte	0
 17305 5da5 3B       		.uleb128 0x3b
 17306 5da6 E41D0000 		.4byte	.LVL463
 17307 5daa B36A0000 		.4byte	0x6ab3
 17308 5dae 3D       		.uleb128 0x3d
 17309 5daf F01D0000 		.4byte	.LVL464
 17310 5db3 A86A0000 		.4byte	0x6aa8
 17311 5db7 CB5D0000 		.4byte	0x5dcb
 17312 5dbb 3E       		.uleb128 0x3e
 17313 5dbc 01       		.uleb128 0x1
 17314 5dbd 50       		.byte	0x50
 17315 5dbe 05       		.uleb128 0x5
 17316 5dbf 03       		.byte	0x3
 17317 5dc0 60060000 		.4byte	.LC48
 17318 5dc4 3E       		.uleb128 0x3e
 17319 5dc5 01       		.uleb128 0x1
 17320 5dc6 51       		.byte	0x51
 17321 5dc7 02       		.uleb128 0x2
 17322 5dc8 08       		.byte	0x8
 17323 5dc9 26       		.byte	0x26
 17324 5dca 00       		.byte	0
 17325 5dcb 3B       		.uleb128 0x3b
 17326 5dcc F41D0000 		.4byte	.LVL465
 17327 5dd0 B36A0000 		.4byte	0x6ab3
 17328 5dd4 3D       		.uleb128 0x3d
 17329 5dd5 001E0000 		.4byte	.LVL466
 17330 5dd9 A86A0000 		.4byte	0x6aa8
 17331 5ddd F15D0000 		.4byte	0x5df1
 17332 5de1 3E       		.uleb128 0x3e
 17333 5de2 01       		.uleb128 0x1
 17334 5de3 50       		.byte	0x50
 17335 5de4 05       		.uleb128 0x5
 17336 5de5 03       		.byte	0x3
 17337 5de6 88060000 		.4byte	.LC49
 17338 5dea 3E       		.uleb128 0x3e
 17339 5deb 01       		.uleb128 0x1
 17340 5dec 51       		.byte	0x51
 17341 5ded 02       		.uleb128 0x2
 17342 5dee 08       		.byte	0x8
 17343 5def 26       		.byte	0x26
 17344 5df0 00       		.byte	0
 17345 5df1 3B       		.uleb128 0x3b
 17346 5df2 041E0000 		.4byte	.LVL467
 17347 5df6 B36A0000 		.4byte	0x6ab3
 17348 5dfa 3D       		.uleb128 0x3d
 17349 5dfb 101E0000 		.4byte	.LVL468
 17350 5dff A86A0000 		.4byte	0x6aa8
 17351 5e03 165E0000 		.4byte	0x5e16
 17352 5e07 3E       		.uleb128 0x3e
 17353 5e08 01       		.uleb128 0x1
 17354 5e09 50       		.byte	0x50
 17355 5e0a 05       		.uleb128 0x5
 17356 5e0b 03       		.byte	0x3
 17357 5e0c B0060000 		.4byte	.LC50
 17358 5e10 3E       		.uleb128 0x3e
 17359 5e11 01       		.uleb128 0x1
 17360 5e12 51       		.byte	0x51
ARM GAS  C:\Users\mathi\AppData\Local\Temp\cc0ZaFXf.s 			page 311


 17361 5e13 01       		.uleb128 0x1
 17362 5e14 47       		.byte	0x47
 17363 5e15 00       		.byte	0
 17364 5e16 3B       		.uleb128 0x3b
 17365 5e17 141E0000 		.4byte	.LVL469
 17366 5e1b B36A0000 		.4byte	0x6ab3
 17367 5e1f 3D       		.uleb128 0x3d
 17368 5e20 201E0000 		.4byte	.LVL470
 17369 5e24 A86A0000 		.4byte	0x6aa8
 17370 5e28 3B5E0000 		.4byte	0x5e3b
 17371 5e2c 3E       		.uleb128 0x3e
 17372 5e2d 01       		.uleb128 0x1
 17373 5e2e 50       		.byte	0x50
 17374 5e2f 05       		.uleb128 0x5
 17375 5e30 03       		.byte	0x3
 17376 5e31 C8060000 		.4byte	.LC51
 17377 5e35 3E       		.uleb128 0x3e
 17378 5e36 01       		.uleb128 0x1
 17379 5e37 51       		.byte	0x51
 17380 5e38 01       		.uleb128 0x1
 17381 5e39 40       		.byte	0x40
 17382 5e3a 00       		.byte	0
 17383 5e3b 3B       		.uleb128 0x3b
 17384 5e3c 241E0000 		.4byte	.LVL471
 17385 5e40 B36A0000 		.4byte	0x6ab3
 17386 5e44 3D       		.uleb128 0x3d
 17387 5e45 301E0000 		.4byte	.LVL472
 17388 5e49 A86A0000 		.4byte	0x6aa8
 17389 5e4d 615E0000 		.4byte	0x5e61
 17390 5e51 3E       		.uleb128 0x3e
 17391 5e52 01       		.uleb128 0x1
 17392 5e53 50       		.byte	0x50
 17393 5e54 05       		.uleb128 0x5
 17394 5e55 03       		.byte	0x3
 17395 5e56 DC060000 		.4byte	.LC52
 17396 5e5a 3E       		.uleb128 0x3e
 17397 5e5b 01       		.uleb128 0x1
 17398 5e5c 51       		.byte	0x51
 17399 5e5d 02       		.uleb128 0x2
 17400 5e5e 08       		.byte	0x8
 17401 5e5f 27       		.byte	0x27
 17402 5e60 00       		.byte	0
 17403 5e61 3B       		.uleb128 0x3b
 17404 5e62 341E0000 		.4byte	.LVL473
 17405 5e66 B36A0000 		.4byte	0x6ab3
 17406 5e6a 3D       		.uleb128 0x3d
 17407 5e6b 401E0000 		.4byte	.LVL474
 17408 5e6f A86A0000 		.4byte	0x6aa8
 17409 5e73 875E0000 		.4byte	0x5e87
 17410 5e77 3E       		.uleb128 0x3e
 17411 5e78 01       		.uleb128 0x1
 17412 5e79 50       		.byte	0x50
 17413 5e7a 05       		.uleb128 0x5
 17414 5e7b 03       		.byte	0x3
 17415 5e7c 04070000 		.4byte	.LC53
 17416 5e80 3E       		.uleb128 0x3e
 17417 5e81 01       		.uleb128 0x1
ARM GAS  C:\Users\mathi\AppData\Local\Temp\cc0ZaFXf.s 			page 312


 17418 5e82 51       		.byte	0x51
 17419 5e83 02       		.uleb128 0x2
 17420 5e84 08       		.byte	0x8
 17421 5e85 2B       		.byte	0x2b
 17422 5e86 00       		.byte	0
 17423 5e87 3B       		.uleb128 0x3b
 17424 5e88 441E0000 		.4byte	.LVL475
 17425 5e8c B36A0000 		.4byte	0x6ab3
 17426 5e90 3D       		.uleb128 0x3d
 17427 5e91 501E0000 		.4byte	.LVL476
 17428 5e95 A86A0000 		.4byte	0x6aa8
 17429 5e99 AC5E0000 		.4byte	0x5eac
 17430 5e9d 3E       		.uleb128 0x3e
 17431 5e9e 01       		.uleb128 0x1
 17432 5e9f 50       		.byte	0x50
 17433 5ea0 05       		.uleb128 0x5
 17434 5ea1 03       		.byte	0x3
 17435 5ea2 30070000 		.4byte	.LC54
 17436 5ea6 3E       		.uleb128 0x3e
 17437 5ea7 01       		.uleb128 0x1
 17438 5ea8 51       		.byte	0x51
 17439 5ea9 01       		.uleb128 0x1
 17440 5eaa 49       		.byte	0x49
 17441 5eab 00       		.byte	0
 17442 5eac 3B       		.uleb128 0x3b
 17443 5ead 541E0000 		.4byte	.LVL477
 17444 5eb1 B36A0000 		.4byte	0x6ab3
 17445 5eb5 3D       		.uleb128 0x3d
 17446 5eb6 601E0000 		.4byte	.LVL478
 17447 5eba A86A0000 		.4byte	0x6aa8
 17448 5ebe D15E0000 		.4byte	0x5ed1
 17449 5ec2 3E       		.uleb128 0x3e
 17450 5ec3 01       		.uleb128 0x1
 17451 5ec4 50       		.byte	0x50
 17452 5ec5 05       		.uleb128 0x5
 17453 5ec6 03       		.byte	0x3
 17454 5ec7 4C070000 		.4byte	.LC55
 17455 5ecb 3E       		.uleb128 0x3e
 17456 5ecc 01       		.uleb128 0x1
 17457 5ecd 51       		.byte	0x51
 17458 5ece 01       		.uleb128 0x1
 17459 5ecf 45       		.byte	0x45
 17460 5ed0 00       		.byte	0
 17461 5ed1 3B       		.uleb128 0x3b
 17462 5ed2 641E0000 		.4byte	.LVL479
 17463 5ed6 B36A0000 		.4byte	0x6ab3
 17464 5eda 3D       		.uleb128 0x3d
 17465 5edb 701E0000 		.4byte	.LVL480
 17466 5edf A86A0000 		.4byte	0x6aa8
 17467 5ee3 F65E0000 		.4byte	0x5ef6
 17468 5ee7 3E       		.uleb128 0x3e
 17469 5ee8 01       		.uleb128 0x1
 17470 5ee9 50       		.byte	0x50
 17471 5eea 05       		.uleb128 0x5
 17472 5eeb 03       		.byte	0x3
 17473 5eec 64070000 		.4byte	.LC56
 17474 5ef0 3E       		.uleb128 0x3e
ARM GAS  C:\Users\mathi\AppData\Local\Temp\cc0ZaFXf.s 			page 313


 17475 5ef1 01       		.uleb128 0x1
 17476 5ef2 51       		.byte	0x51
 17477 5ef3 01       		.uleb128 0x1
 17478 5ef4 49       		.byte	0x49
 17479 5ef5 00       		.byte	0
 17480 5ef6 3B       		.uleb128 0x3b
 17481 5ef7 741E0000 		.4byte	.LVL481
 17482 5efb B36A0000 		.4byte	0x6ab3
 17483 5eff 3D       		.uleb128 0x3d
 17484 5f00 801E0000 		.4byte	.LVL482
 17485 5f04 A86A0000 		.4byte	0x6aa8
 17486 5f08 1C5F0000 		.4byte	0x5f1c
 17487 5f0c 3E       		.uleb128 0x3e
 17488 5f0d 01       		.uleb128 0x1
 17489 5f0e 50       		.byte	0x50
 17490 5f0f 05       		.uleb128 0x5
 17491 5f10 03       		.byte	0x3
 17492 5f11 80070000 		.4byte	.LC57
 17493 5f15 3E       		.uleb128 0x3e
 17494 5f16 01       		.uleb128 0x1
 17495 5f17 51       		.byte	0x51
 17496 5f18 02       		.uleb128 0x2
 17497 5f19 08       		.byte	0x8
 17498 5f1a 29       		.byte	0x29
 17499 5f1b 00       		.byte	0
 17500 5f1c 3B       		.uleb128 0x3b
 17501 5f1d 841E0000 		.4byte	.LVL483
 17502 5f21 B36A0000 		.4byte	0x6ab3
 17503 5f25 3D       		.uleb128 0x3d
 17504 5f26 901E0000 		.4byte	.LVL484
 17505 5f2a A86A0000 		.4byte	0x6aa8
 17506 5f2e 425F0000 		.4byte	0x5f42
 17507 5f32 3E       		.uleb128 0x3e
 17508 5f33 01       		.uleb128 0x1
 17509 5f34 50       		.byte	0x50
 17510 5f35 05       		.uleb128 0x5
 17511 5f36 03       		.byte	0x3
 17512 5f37 AC070000 		.4byte	.LC58
 17513 5f3b 3E       		.uleb128 0x3e
 17514 5f3c 01       		.uleb128 0x1
 17515 5f3d 51       		.byte	0x51
 17516 5f3e 02       		.uleb128 0x2
 17517 5f3f 08       		.byte	0x8
 17518 5f40 29       		.byte	0x29
 17519 5f41 00       		.byte	0
 17520 5f42 3B       		.uleb128 0x3b
 17521 5f43 941E0000 		.4byte	.LVL485
 17522 5f47 B36A0000 		.4byte	0x6ab3
 17523 5f4b 3D       		.uleb128 0x3d
 17524 5f4c A01E0000 		.4byte	.LVL486
 17525 5f50 A86A0000 		.4byte	0x6aa8
 17526 5f54 675F0000 		.4byte	0x5f67
 17527 5f58 3E       		.uleb128 0x3e
 17528 5f59 01       		.uleb128 0x1
 17529 5f5a 50       		.byte	0x50
 17530 5f5b 05       		.uleb128 0x5
 17531 5f5c 03       		.byte	0x3
ARM GAS  C:\Users\mathi\AppData\Local\Temp\cc0ZaFXf.s 			page 314


 17532 5f5d D8070000 		.4byte	.LC59
 17533 5f61 3E       		.uleb128 0x3e
 17534 5f62 01       		.uleb128 0x1
 17535 5f63 51       		.byte	0x51
 17536 5f64 01       		.uleb128 0x1
 17537 5f65 48       		.byte	0x48
 17538 5f66 00       		.byte	0
 17539 5f67 3B       		.uleb128 0x3b
 17540 5f68 A41E0000 		.4byte	.LVL487
 17541 5f6c B36A0000 		.4byte	0x6ab3
 17542 5f70 3D       		.uleb128 0x3d
 17543 5f71 B01E0000 		.4byte	.LVL488
 17544 5f75 A86A0000 		.4byte	0x6aa8
 17545 5f79 8D5F0000 		.4byte	0x5f8d
 17546 5f7d 3E       		.uleb128 0x3e
 17547 5f7e 01       		.uleb128 0x1
 17548 5f7f 50       		.byte	0x50
 17549 5f80 05       		.uleb128 0x5
 17550 5f81 03       		.byte	0x3
 17551 5f82 F4070000 		.4byte	.LC60
 17552 5f86 3E       		.uleb128 0x3e
 17553 5f87 01       		.uleb128 0x1
 17554 5f88 51       		.byte	0x51
 17555 5f89 02       		.uleb128 0x2
 17556 5f8a 08       		.byte	0x8
 17557 5f8b 29       		.byte	0x29
 17558 5f8c 00       		.byte	0
 17559 5f8d 3B       		.uleb128 0x3b
 17560 5f8e B41E0000 		.4byte	.LVL489
 17561 5f92 B36A0000 		.4byte	0x6ab3
 17562 5f96 3D       		.uleb128 0x3d
 17563 5f97 C01E0000 		.4byte	.LVL490
 17564 5f9b A86A0000 		.4byte	0x6aa8
 17565 5f9f B35F0000 		.4byte	0x5fb3
 17566 5fa3 3E       		.uleb128 0x3e
 17567 5fa4 01       		.uleb128 0x1
 17568 5fa5 50       		.byte	0x50
 17569 5fa6 05       		.uleb128 0x5
 17570 5fa7 03       		.byte	0x3
 17571 5fa8 20080000 		.4byte	.LC61
 17572 5fac 3E       		.uleb128 0x3e
 17573 5fad 01       		.uleb128 0x1
 17574 5fae 51       		.byte	0x51
 17575 5faf 02       		.uleb128 0x2
 17576 5fb0 08       		.byte	0x8
 17577 5fb1 24       		.byte	0x24
 17578 5fb2 00       		.byte	0
 17579 5fb3 3B       		.uleb128 0x3b
 17580 5fb4 C41E0000 		.4byte	.LVL491
 17581 5fb8 B36A0000 		.4byte	0x6ab3
 17582 5fbc 3D       		.uleb128 0x3d
 17583 5fbd D01E0000 		.4byte	.LVL492
 17584 5fc1 A86A0000 		.4byte	0x6aa8
 17585 5fc5 D85F0000 		.4byte	0x5fd8
 17586 5fc9 3E       		.uleb128 0x3e
 17587 5fca 01       		.uleb128 0x1
 17588 5fcb 50       		.byte	0x50
ARM GAS  C:\Users\mathi\AppData\Local\Temp\cc0ZaFXf.s 			page 315


 17589 5fcc 05       		.uleb128 0x5
 17590 5fcd 03       		.byte	0x3
 17591 5fce 48080000 		.4byte	.LC62
 17592 5fd2 3E       		.uleb128 0x3e
 17593 5fd3 01       		.uleb128 0x1
 17594 5fd4 51       		.byte	0x51
 17595 5fd5 01       		.uleb128 0x1
 17596 5fd6 4D       		.byte	0x4d
 17597 5fd7 00       		.byte	0
 17598 5fd8 3B       		.uleb128 0x3b
 17599 5fd9 D41E0000 		.4byte	.LVL493
 17600 5fdd B36A0000 		.4byte	0x6ab3
 17601 5fe1 3B       		.uleb128 0x3b
 17602 5fe2 E01E0000 		.4byte	.LVL494
 17603 5fe6 27690000 		.4byte	0x6927
 17604 5fea 3D       		.uleb128 0x3d
 17605 5feb E81E0000 		.4byte	.LVL495
 17606 5fef A86A0000 		.4byte	0x6aa8
 17607 5ff3 FE5F0000 		.4byte	0x5ffe
 17608 5ff7 3E       		.uleb128 0x3e
 17609 5ff8 01       		.uleb128 0x1
 17610 5ff9 50       		.byte	0x50
 17611 5ffa 02       		.uleb128 0x2
 17612 5ffb 78       		.byte	0x78
 17613 5ffc 00       		.sleb128 0
 17614 5ffd 00       		.byte	0
 17615 5ffe 3B       		.uleb128 0x3b
 17616 5fff EC1E0000 		.4byte	.LVL496
 17617 6003 B36A0000 		.4byte	0x6ab3
 17618 6007 3D       		.uleb128 0x3d
 17619 6008 FC1E0000 		.4byte	.LVL497
 17620 600c A86A0000 		.4byte	0x6aa8
 17621 6010 23600000 		.4byte	0x6023
 17622 6014 3E       		.uleb128 0x3e
 17623 6015 01       		.uleb128 0x1
 17624 6016 50       		.byte	0x50
 17625 6017 05       		.uleb128 0x5
 17626 6018 03       		.byte	0x3
 17627 6019 C8000000 		.4byte	.LC12
 17628 601d 3E       		.uleb128 0x3e
 17629 601e 01       		.uleb128 0x1
 17630 601f 51       		.byte	0x51
 17631 6020 01       		.uleb128 0x1
 17632 6021 33       		.byte	0x33
 17633 6022 00       		.byte	0
 17634 6023 3B       		.uleb128 0x3b
 17635 6024 001F0000 		.4byte	.LVL498
 17636 6028 B36A0000 		.4byte	0x6ab3
 17637 602c 3D       		.uleb128 0x3d
 17638 602d 0E1F0000 		.4byte	.LVL499
 17639 6031 F8690000 		.4byte	0x69f8
 17640 6035 3F600000 		.4byte	0x603f
 17641 6039 3E       		.uleb128 0x3e
 17642 603a 01       		.uleb128 0x1
 17643 603b 51       		.byte	0x51
 17644 603c 01       		.uleb128 0x1
 17645 603d 31       		.byte	0x31
ARM GAS  C:\Users\mathi\AppData\Local\Temp\cc0ZaFXf.s 			page 316


 17646 603e 00       		.byte	0
 17647 603f 3D       		.uleb128 0x3d
 17648 6040 181F0000 		.4byte	.LVL500
 17649 6044 F8690000 		.4byte	0x69f8
 17650 6048 57600000 		.4byte	0x6057
 17651 604c 3E       		.uleb128 0x3e
 17652 604d 01       		.uleb128 0x1
 17653 604e 50       		.byte	0x50
 17654 604f 01       		.uleb128 0x1
 17655 6050 31       		.byte	0x31
 17656 6051 3E       		.uleb128 0x3e
 17657 6052 01       		.uleb128 0x1
 17658 6053 51       		.byte	0x51
 17659 6054 01       		.uleb128 0x1
 17660 6055 31       		.byte	0x31
 17661 6056 00       		.byte	0
 17662 6057 3D       		.uleb128 0x3d
 17663 6058 221F0000 		.4byte	.LVL501
 17664 605c F8690000 		.4byte	0x69f8
 17665 6060 6F600000 		.4byte	0x606f
 17666 6064 3E       		.uleb128 0x3e
 17667 6065 01       		.uleb128 0x1
 17668 6066 50       		.byte	0x50
 17669 6067 01       		.uleb128 0x1
 17670 6068 32       		.byte	0x32
 17671 6069 3E       		.uleb128 0x3e
 17672 606a 01       		.uleb128 0x1
 17673 606b 51       		.byte	0x51
 17674 606c 01       		.uleb128 0x1
 17675 606d 31       		.byte	0x31
 17676 606e 00       		.byte	0
 17677 606f 3D       		.uleb128 0x3d
 17678 6070 301F0000 		.4byte	.LVL502
 17679 6074 69690000 		.4byte	0x6969
 17680 6078 98600000 		.4byte	0x6098
 17681 607c 3E       		.uleb128 0x3e
 17682 607d 01       		.uleb128 0x1
 17683 607e 50       		.byte	0x50
 17684 607f 02       		.uleb128 0x2
 17685 6080 78       		.byte	0x78
 17686 6081 00       		.sleb128 0
 17687 6082 3E       		.uleb128 0x3e
 17688 6083 01       		.uleb128 0x1
 17689 6084 51       		.byte	0x51
 17690 6085 05       		.uleb128 0x5
 17691 6086 03       		.byte	0x3
 17692 6087 5C000000 		.4byte	.LC1
 17693 608b 3E       		.uleb128 0x3e
 17694 608c 01       		.uleb128 0x1
 17695 608d 52       		.byte	0x52
 17696 608e 02       		.uleb128 0x2
 17697 608f 74       		.byte	0x74
 17698 6090 00       		.sleb128 0
 17699 6091 3E       		.uleb128 0x3e
 17700 6092 01       		.uleb128 0x1
 17701 6093 53       		.byte	0x53
 17702 6094 02       		.uleb128 0x2
ARM GAS  C:\Users\mathi\AppData\Local\Temp\cc0ZaFXf.s 			page 317


 17703 6095 75       		.byte	0x75
 17704 6096 00       		.sleb128 0
 17705 6097 00       		.byte	0
 17706 6098 3D       		.uleb128 0x3d
 17707 6099 3A1F0000 		.4byte	.LVL503
 17708 609d A86A0000 		.4byte	0x6aa8
 17709 60a1 B5600000 		.4byte	0x60b5
 17710 60a5 3E       		.uleb128 0x3e
 17711 60a6 01       		.uleb128 0x1
 17712 60a7 50       		.byte	0x50
 17713 60a8 05       		.uleb128 0x5
 17714 60a9 03       		.byte	0x3
 17715 60aa 18060000 		.4byte	.LC46
 17716 60ae 3E       		.uleb128 0x3e
 17717 60af 01       		.uleb128 0x1
 17718 60b0 51       		.byte	0x51
 17719 60b1 02       		.uleb128 0x2
 17720 60b2 08       		.byte	0x8
 17721 60b3 27       		.byte	0x27
 17722 60b4 00       		.byte	0
 17723 60b5 3B       		.uleb128 0x3b
 17724 60b6 3E1F0000 		.4byte	.LVL504
 17725 60ba B36A0000 		.4byte	0x6ab3
 17726 60be 3D       		.uleb128 0x3d
 17727 60bf 4C1F0000 		.4byte	.LVL505
 17728 60c3 32690000 		.4byte	0x6932
 17729 60c7 DB600000 		.4byte	0x60db
 17730 60cb 3E       		.uleb128 0x3e
 17731 60cc 01       		.uleb128 0x1
 17732 60cd 50       		.byte	0x50
 17733 60ce 05       		.uleb128 0x5
 17734 60cf 03       		.byte	0x3
 17735 60d0 90010000 		.4byte	.LC19
 17736 60d4 3E       		.uleb128 0x3e
 17737 60d5 01       		.uleb128 0x1
 17738 60d6 51       		.byte	0x51
 17739 60d7 02       		.uleb128 0x2
 17740 60d8 08       		.byte	0x8
 17741 60d9 2F       		.byte	0x2f
 17742 60da 00       		.byte	0
 17743 60db 3B       		.uleb128 0x3b
 17744 60dc 501F0000 		.4byte	.LVL506
 17745 60e0 3D690000 		.4byte	0x693d
 17746 60e4 3B       		.uleb128 0x3b
 17747 60e5 5C1F0000 		.4byte	.LVL507
 17748 60e9 BE6A0000 		.4byte	0x6abe
 17749 60ed 3B       		.uleb128 0x3b
 17750 60ee 6A1F0000 		.4byte	.LVL508
 17751 60f2 C96A0000 		.4byte	0x6ac9
 17752 60f6 3B       		.uleb128 0x3b
 17753 60f7 701F0000 		.4byte	.LVL509
 17754 60fb D46A0000 		.4byte	0x6ad4
 17755 60ff 3B       		.uleb128 0x3b
 17756 6100 761F0000 		.4byte	.LVL510
 17757 6104 DF6A0000 		.4byte	0x6adf
 17758 6108 3D       		.uleb128 0x3d
 17759 6109 841F0000 		.4byte	.LVL511
ARM GAS  C:\Users\mathi\AppData\Local\Temp\cc0ZaFXf.s 			page 318


 17760 610d 69690000 		.4byte	0x6969
 17761 6111 31610000 		.4byte	0x6131
 17762 6115 3E       		.uleb128 0x3e
 17763 6116 01       		.uleb128 0x1
 17764 6117 50       		.byte	0x50
 17765 6118 02       		.uleb128 0x2
 17766 6119 78       		.byte	0x78
 17767 611a 00       		.sleb128 0
 17768 611b 3E       		.uleb128 0x3e
 17769 611c 01       		.uleb128 0x1
 17770 611d 51       		.byte	0x51
 17771 611e 05       		.uleb128 0x5
 17772 611f 03       		.byte	0x3
 17773 6120 00010000 		.4byte	.LC14
 17774 6124 3E       		.uleb128 0x3e
 17775 6125 01       		.uleb128 0x1
 17776 6126 52       		.byte	0x52
 17777 6127 02       		.uleb128 0x2
 17778 6128 74       		.byte	0x74
 17779 6129 00       		.sleb128 0
 17780 612a 3E       		.uleb128 0x3e
 17781 612b 01       		.uleb128 0x1
 17782 612c 53       		.byte	0x53
 17783 612d 02       		.uleb128 0x2
 17784 612e 75       		.byte	0x75
 17785 612f 00       		.sleb128 0
 17786 6130 00       		.byte	0
 17787 6131 3B       		.uleb128 0x3b
 17788 6132 8C1F0000 		.4byte	.LVL512
 17789 6136 EA6A0000 		.4byte	0x6aea
 17790 613a 3D       		.uleb128 0x3d
 17791 613b 961F0000 		.4byte	.LVL513
 17792 613f 69690000 		.4byte	0x6969
 17793 6143 57610000 		.4byte	0x6157
 17794 6147 3E       		.uleb128 0x3e
 17795 6148 01       		.uleb128 0x1
 17796 6149 50       		.byte	0x50
 17797 614a 02       		.uleb128 0x2
 17798 614b 78       		.byte	0x78
 17799 614c 00       		.sleb128 0
 17800 614d 3E       		.uleb128 0x3e
 17801 614e 01       		.uleb128 0x1
 17802 614f 51       		.byte	0x51
 17803 6150 05       		.uleb128 0x5
 17804 6151 03       		.byte	0x3
 17805 6152 A8090000 		.4byte	.LC80
 17806 6156 00       		.byte	0
 17807 6157 3D       		.uleb128 0x3d
 17808 6158 A21F0000 		.4byte	.LVL514
 17809 615c A86A0000 		.4byte	0x6aa8
 17810 6160 73610000 		.4byte	0x6173
 17811 6164 3E       		.uleb128 0x3e
 17812 6165 01       		.uleb128 0x1
 17813 6166 50       		.byte	0x50
 17814 6167 05       		.uleb128 0x5
 17815 6168 03       		.byte	0x3
 17816 6169 E0050000 		.4byte	.LC44
ARM GAS  C:\Users\mathi\AppData\Local\Temp\cc0ZaFXf.s 			page 319


 17817 616d 3E       		.uleb128 0x3e
 17818 616e 01       		.uleb128 0x1
 17819 616f 51       		.byte	0x51
 17820 6170 01       		.uleb128 0x1
 17821 6171 49       		.byte	0x49
 17822 6172 00       		.byte	0
 17823 6173 3B       		.uleb128 0x3b
 17824 6174 A61F0000 		.4byte	.LVL515
 17825 6178 B36A0000 		.4byte	0x6ab3
 17826 617c 3D       		.uleb128 0x3d
 17827 617d C61F0000 		.4byte	.LVL516
 17828 6181 32690000 		.4byte	0x6932
 17829 6185 98610000 		.4byte	0x6198
 17830 6189 3E       		.uleb128 0x3e
 17831 618a 01       		.uleb128 0x1
 17832 618b 50       		.byte	0x50
 17833 618c 05       		.uleb128 0x5
 17834 618d 03       		.byte	0x3
 17835 618e 10050000 		.4byte	.LC39
 17836 6192 3E       		.uleb128 0x3e
 17837 6193 01       		.uleb128 0x1
 17838 6194 51       		.byte	0x51
 17839 6195 01       		.uleb128 0x1
 17840 6196 4F       		.byte	0x4f
 17841 6197 00       		.byte	0
 17842 6198 3B       		.uleb128 0x3b
 17843 6199 CA1F0000 		.4byte	.LVL517
 17844 619d 3D690000 		.4byte	0x693d
 17845 61a1 3D       		.uleb128 0x3d
 17846 61a2 DA1F0000 		.4byte	.LVL518
 17847 61a6 32690000 		.4byte	0x6932
 17848 61aa BD610000 		.4byte	0x61bd
 17849 61ae 3E       		.uleb128 0x3e
 17850 61af 01       		.uleb128 0x1
 17851 61b0 50       		.byte	0x50
 17852 61b1 05       		.uleb128 0x5
 17853 61b2 03       		.byte	0x3
 17854 61b3 9C020000 		.4byte	.LC25
 17855 61b7 3E       		.uleb128 0x3e
 17856 61b8 01       		.uleb128 0x1
 17857 61b9 51       		.byte	0x51
 17858 61ba 01       		.uleb128 0x1
 17859 61bb 48       		.byte	0x48
 17860 61bc 00       		.byte	0
 17861 61bd 3B       		.uleb128 0x3b
 17862 61be DE1F0000 		.4byte	.LVL519
 17863 61c2 3D690000 		.4byte	0x693d
 17864 61c6 3B       		.uleb128 0x3b
 17865 61c7 EA1F0000 		.4byte	.LVL520
 17866 61cb F56A0000 		.4byte	0x6af5
 17867 61cf 3B       		.uleb128 0x3b
 17868 61d0 EE1F0000 		.4byte	.LVL521
 17869 61d4 006B0000 		.4byte	0x6b00
 17870 61d8 00       		.byte	0
 17871 61d9 3B       		.uleb128 0x3b
 17872 61da 14000000 		.4byte	.LVL1
 17873 61de 0B6B0000 		.4byte	0x6b0b
ARM GAS  C:\Users\mathi\AppData\Local\Temp\cc0ZaFXf.s 			page 320


 17874 61e2 3B       		.uleb128 0x3b
 17875 61e3 18000000 		.4byte	.LVL2
 17876 61e7 166B0000 		.4byte	0x6b16
 17877 61eb 3B       		.uleb128 0x3b
 17878 61ec 24000000 		.4byte	.LVL4
 17879 61f0 216B0000 		.4byte	0x6b21
 17880 61f4 3B       		.uleb128 0x3b
 17881 61f5 3C000000 		.4byte	.LVL5
 17882 61f9 2C6B0000 		.4byte	0x6b2c
 17883 61fd 3D       		.uleb128 0x3d
 17884 61fe 4C000000 		.4byte	.LVL6
 17885 6202 376B0000 		.4byte	0x6b37
 17886 6206 26620000 		.4byte	0x6226
 17887 620a 3E       		.uleb128 0x3e
 17888 620b 01       		.uleb128 0x1
 17889 620c 50       		.byte	0x50
 17890 620d 02       		.uleb128 0x2
 17891 620e 08       		.byte	0x8
 17892 620f 7F       		.byte	0x7f
 17893 6210 3E       		.uleb128 0x3e
 17894 6211 01       		.uleb128 0x1
 17895 6212 51       		.byte	0x51
 17896 6213 03       		.uleb128 0x3
 17897 6214 0A       		.byte	0xa
 17898 6215 FEFF     		.2byte	0xfffe
 17899 6217 3E       		.uleb128 0x3e
 17900 6218 01       		.uleb128 0x1
 17901 6219 52       		.byte	0x52
 17902 621a 05       		.uleb128 0x5
 17903 621b 03       		.byte	0x3
 17904 621c 00000000 		.4byte	.LANCHOR1
 17905 6220 3E       		.uleb128 0x3e
 17906 6221 01       		.uleb128 0x1
 17907 6222 53       		.byte	0x53
 17908 6223 01       		.uleb128 0x1
 17909 6224 31       		.byte	0x31
 17910 6225 00       		.byte	0
 17911 6226 3B       		.uleb128 0x3b
 17912 6227 66000000 		.4byte	.LVL7
 17913 622b 506A0000 		.4byte	0x6a50
 17914 622f 3D       		.uleb128 0x3d
 17915 6230 94000000 		.4byte	.LVL8
 17916 6234 5B6A0000 		.4byte	0x6a5b
 17917 6238 52620000 		.4byte	0x6252
 17918 623c 3E       		.uleb128 0x3e
 17919 623d 02       		.uleb128 0x2
 17920 623e 7D       		.byte	0x7d
 17921 623f 00       		.sleb128 0
 17922 6240 02       		.uleb128 0x2
 17923 6241 75       		.byte	0x75
 17924 6242 00       		.sleb128 0
 17925 6243 3E       		.uleb128 0x3e
 17926 6244 02       		.uleb128 0x2
 17927 6245 7D       		.byte	0x7d
 17928 6246 04       		.sleb128 4
 17929 6247 02       		.uleb128 0x2
 17930 6248 75       		.byte	0x75
ARM GAS  C:\Users\mathi\AppData\Local\Temp\cc0ZaFXf.s 			page 321


 17931 6249 00       		.sleb128 0
 17932 624a 3E       		.uleb128 0x3e
 17933 624b 02       		.uleb128 0x2
 17934 624c 7D       		.byte	0x7d
 17935 624d 08       		.sleb128 8
 17936 624e 02       		.uleb128 0x2
 17937 624f 74       		.byte	0x74
 17938 6250 00       		.sleb128 0
 17939 6251 00       		.byte	0
 17940 6252 3B       		.uleb128 0x3b
 17941 6253 98000000 		.4byte	.LVL9
 17942 6257 666A0000 		.4byte	0x6a66
 17943 625b 3B       		.uleb128 0x3b
 17944 625c 9C000000 		.4byte	.LVL10
 17945 6260 426B0000 		.4byte	0x6b42
 17946 6264 3D       		.uleb128 0x3d
 17947 6265 A4000000 		.4byte	.LVL11
 17948 6269 32690000 		.4byte	0x6932
 17949 626d 81620000 		.4byte	0x6281
 17950 6271 3E       		.uleb128 0x3e
 17951 6272 01       		.uleb128 0x1
 17952 6273 50       		.byte	0x50
 17953 6274 05       		.uleb128 0x5
 17954 6275 03       		.byte	0x3
 17955 6276 00000000 		.4byte	.LC0
 17956 627a 3E       		.uleb128 0x3e
 17957 627b 01       		.uleb128 0x1
 17958 627c 51       		.byte	0x51
 17959 627d 02       		.uleb128 0x2
 17960 627e 08       		.byte	0x8
 17961 627f 58       		.byte	0x58
 17962 6280 00       		.byte	0
 17963 6281 3B       		.uleb128 0x3b
 17964 6282 A8000000 		.4byte	.LVL12
 17965 6286 3D690000 		.4byte	0x693d
 17966 628a 3D       		.uleb128 0x3d
 17967 628b D2000000 		.4byte	.LVL16
 17968 628f 4D6B0000 		.4byte	0x6b4d
 17969 6293 9E620000 		.4byte	0x629e
 17970 6297 3E       		.uleb128 0x3e
 17971 6298 01       		.uleb128 0x1
 17972 6299 50       		.byte	0x50
 17973 629a 02       		.uleb128 0x2
 17974 629b 75       		.byte	0x75
 17975 629c 00       		.sleb128 0
 17976 629d 00       		.byte	0
 17977 629e 3B       		.uleb128 0x3b
 17978 629f DC000000 		.4byte	.LVL17
 17979 62a3 456A0000 		.4byte	0x6a45
 17980 62a7 3B       		.uleb128 0x3b
 17981 62a8 E2000000 		.4byte	.LVL19
 17982 62ac 3A6A0000 		.4byte	0x6a3a
 17983 62b0 3B       		.uleb128 0x3b
 17984 62b1 0E010000 		.4byte	.LVL21
 17985 62b5 2C6B0000 		.4byte	0x6b2c
 17986 62b9 3D       		.uleb128 0x3d
 17987 62ba 2C010000 		.4byte	.LVL22
ARM GAS  C:\Users\mathi\AppData\Local\Temp\cc0ZaFXf.s 			page 322


 17988 62be 376B0000 		.4byte	0x6b37
 17989 62c2 E2620000 		.4byte	0x62e2
 17990 62c6 3E       		.uleb128 0x3e
 17991 62c7 01       		.uleb128 0x1
 17992 62c8 50       		.byte	0x50
 17993 62c9 02       		.uleb128 0x2
 17994 62ca 08       		.byte	0x8
 17995 62cb 7F       		.byte	0x7f
 17996 62cc 3E       		.uleb128 0x3e
 17997 62cd 01       		.uleb128 0x1
 17998 62ce 51       		.byte	0x51
 17999 62cf 03       		.uleb128 0x3
 18000 62d0 0A       		.byte	0xa
 18001 62d1 FEFF     		.2byte	0xfffe
 18002 62d3 3E       		.uleb128 0x3e
 18003 62d4 01       		.uleb128 0x1
 18004 62d5 52       		.byte	0x52
 18005 62d6 05       		.uleb128 0x5
 18006 62d7 03       		.byte	0x3
 18007 62d8 00000000 		.4byte	.LANCHOR1
 18008 62dc 3E       		.uleb128 0x3e
 18009 62dd 01       		.uleb128 0x1
 18010 62de 53       		.byte	0x53
 18011 62df 01       		.uleb128 0x1
 18012 62e0 31       		.byte	0x31
 18013 62e1 00       		.byte	0
 18014 62e2 3B       		.uleb128 0x3b
 18015 62e3 48010000 		.4byte	.LVL23
 18016 62e7 1C690000 		.4byte	0x691c
 18017 62eb 3B       		.uleb128 0x3b
 18018 62ec 4E010000 		.4byte	.LVL24
 18019 62f0 426B0000 		.4byte	0x6b42
 18020 62f4 3D       		.uleb128 0x3d
 18021 62f5 56010000 		.4byte	.LVL25
 18022 62f9 A86A0000 		.4byte	0x6aa8
 18023 62fd 11630000 		.4byte	0x6311
 18024 6301 3E       		.uleb128 0x3e
 18025 6302 01       		.uleb128 0x1
 18026 6303 50       		.byte	0x50
 18027 6304 05       		.uleb128 0x5
 18028 6305 03       		.byte	0x3
 18029 6306 00000000 		.4byte	.LC0
 18030 630a 3E       		.uleb128 0x3e
 18031 630b 01       		.uleb128 0x1
 18032 630c 51       		.byte	0x51
 18033 630d 02       		.uleb128 0x2
 18034 630e 08       		.byte	0x8
 18035 630f 58       		.byte	0x58
 18036 6310 00       		.byte	0
 18037 6311 3B       		.uleb128 0x3b
 18038 6312 5A010000 		.4byte	.LVL26
 18039 6316 B36A0000 		.4byte	0x6ab3
 18040 631a 3D       		.uleb128 0x3d
 18041 631b 7E010000 		.4byte	.LVL28
 18042 631f 4D6B0000 		.4byte	0x6b4d
 18043 6323 2E630000 		.4byte	0x632e
 18044 6327 3E       		.uleb128 0x3e
ARM GAS  C:\Users\mathi\AppData\Local\Temp\cc0ZaFXf.s 			page 323


 18045 6328 01       		.uleb128 0x1
 18046 6329 50       		.byte	0x50
 18047 632a 02       		.uleb128 0x2
 18048 632b 74       		.byte	0x74
 18049 632c 00       		.sleb128 0
 18050 632d 00       		.byte	0
 18051 632e 3D       		.uleb128 0x3d
 18052 632f A6010000 		.4byte	.LVL29
 18053 6333 4D6B0000 		.4byte	0x6b4d
 18054 6337 42630000 		.4byte	0x6342
 18055 633b 3E       		.uleb128 0x3e
 18056 633c 01       		.uleb128 0x1
 18057 633d 50       		.byte	0x50
 18058 633e 02       		.uleb128 0x2
 18059 633f 74       		.byte	0x74
 18060 6340 00       		.sleb128 0
 18061 6341 00       		.byte	0
 18062 6342 3D       		.uleb128 0x3d
 18063 6343 24020000 		.4byte	.LVL36
 18064 6347 586B0000 		.4byte	0x6b58
 18065 634b 56630000 		.4byte	0x6356
 18066 634f 3E       		.uleb128 0x3e
 18067 6350 01       		.uleb128 0x1
 18068 6351 50       		.byte	0x50
 18069 6352 02       		.uleb128 0x2
 18070 6353 75       		.byte	0x75
 18071 6354 00       		.sleb128 0
 18072 6355 00       		.byte	0
 18073 6356 3B       		.uleb128 0x3b
 18074 6357 2E020000 		.4byte	.LVL37
 18075 635b 456A0000 		.4byte	0x6a45
 18076 635f 3B       		.uleb128 0x3b
 18077 6360 34020000 		.4byte	.LVL39
 18078 6364 3A6A0000 		.4byte	0x6a3a
 18079 6368 3D       		.uleb128 0x3d
 18080 6369 62020000 		.4byte	.LVL41
 18081 636d 586B0000 		.4byte	0x6b58
 18082 6371 7C630000 		.4byte	0x637c
 18083 6375 3E       		.uleb128 0x3e
 18084 6376 01       		.uleb128 0x1
 18085 6377 50       		.byte	0x50
 18086 6378 02       		.uleb128 0x2
 18087 6379 74       		.byte	0x74
 18088 637a 00       		.sleb128 0
 18089 637b 00       		.byte	0
 18090 637c 3D       		.uleb128 0x3d
 18091 637d 8A020000 		.4byte	.LVL42
 18092 6381 586B0000 		.4byte	0x6b58
 18093 6385 90630000 		.4byte	0x6390
 18094 6389 3E       		.uleb128 0x3e
 18095 638a 01       		.uleb128 0x1
 18096 638b 50       		.byte	0x50
 18097 638c 02       		.uleb128 0x2
 18098 638d 74       		.byte	0x74
 18099 638e 00       		.sleb128 0
 18100 638f 00       		.byte	0
 18101 6390 3D       		.uleb128 0x3d
ARM GAS  C:\Users\mathi\AppData\Local\Temp\cc0ZaFXf.s 			page 324


 18102 6391 B4020000 		.4byte	.LVL45
 18103 6395 D7690000 		.4byte	0x69d7
 18104 6399 A4630000 		.4byte	0x63a4
 18105 639d 3E       		.uleb128 0x3e
 18106 639e 01       		.uleb128 0x1
 18107 639f 50       		.byte	0x50
 18108 63a0 02       		.uleb128 0x2
 18109 63a1 74       		.byte	0x74
 18110 63a2 00       		.sleb128 0
 18111 63a3 00       		.byte	0
 18112 63a4 3B       		.uleb128 0x3b
 18113 63a5 BC020000 		.4byte	.LVL46
 18114 63a9 E2690000 		.4byte	0x69e2
 18115 63ad 3D       		.uleb128 0x3d
 18116 63ae 84030000 		.4byte	.LVL49
 18117 63b2 7C6A0000 		.4byte	0x6a7c
 18118 63b6 C9630000 		.4byte	0x63c9
 18119 63ba 3E       		.uleb128 0x3e
 18120 63bb 01       		.uleb128 0x1
 18121 63bc 50       		.byte	0x50
 18122 63bd 03       		.uleb128 0x3
 18123 63be 0A       		.byte	0xa
 18124 63bf 142B     		.2byte	0x2b14
 18125 63c1 3E       		.uleb128 0x3e
 18126 63c2 01       		.uleb128 0x1
 18127 63c3 51       		.byte	0x51
 18128 63c4 03       		.uleb128 0x3
 18129 63c5 0A       		.byte	0xa
 18130 63c6 501F     		.2byte	0x1f50
 18131 63c8 00       		.byte	0
 18132 63c9 3D       		.uleb128 0x3d
 18133 63ca 9E030000 		.4byte	.LVL52
 18134 63ce D7690000 		.4byte	0x69d7
 18135 63d2 DD630000 		.4byte	0x63dd
 18136 63d6 3E       		.uleb128 0x3e
 18137 63d7 01       		.uleb128 0x1
 18138 63d8 50       		.byte	0x50
 18139 63d9 02       		.uleb128 0x2
 18140 63da 74       		.byte	0x74
 18141 63db 00       		.sleb128 0
 18142 63dc 00       		.byte	0
 18143 63dd 3B       		.uleb128 0x3b
 18144 63de A6030000 		.4byte	.LVL53
 18145 63e2 E2690000 		.4byte	0x69e2
 18146 63e6 3D       		.uleb128 0x3d
 18147 63e7 26040000 		.4byte	.LVL56
 18148 63eb 7C6A0000 		.4byte	0x6a7c
 18149 63ef 02640000 		.4byte	0x6402
 18150 63f3 3E       		.uleb128 0x3e
 18151 63f4 01       		.uleb128 0x1
 18152 63f5 50       		.byte	0x50
 18153 63f6 03       		.uleb128 0x3
 18154 63f7 0A       		.byte	0xa
 18155 63f8 142B     		.2byte	0x2b14
 18156 63fa 3E       		.uleb128 0x3e
 18157 63fb 01       		.uleb128 0x1
 18158 63fc 51       		.byte	0x51
ARM GAS  C:\Users\mathi\AppData\Local\Temp\cc0ZaFXf.s 			page 325


 18159 63fd 03       		.uleb128 0x3
 18160 63fe 0A       		.byte	0xa
 18161 63ff 501F     		.2byte	0x1f50
 18162 6401 00       		.byte	0
 18163 6402 3B       		.uleb128 0x3b
 18164 6403 CC040000 		.4byte	.LVL59
 18165 6407 F8690000 		.4byte	0x69f8
 18166 640b 3D       		.uleb128 0x3d
 18167 640c DA040000 		.4byte	.LVL60
 18168 6410 F8690000 		.4byte	0x69f8
 18169 6414 23640000 		.4byte	0x6423
 18170 6418 3E       		.uleb128 0x3e
 18171 6419 01       		.uleb128 0x1
 18172 641a 50       		.byte	0x50
 18173 641b 01       		.uleb128 0x1
 18174 641c 31       		.byte	0x31
 18175 641d 3E       		.uleb128 0x3e
 18176 641e 01       		.uleb128 0x1
 18177 641f 51       		.byte	0x51
 18178 6420 01       		.uleb128 0x1
 18179 6421 31       		.byte	0x31
 18180 6422 00       		.byte	0
 18181 6423 3D       		.uleb128 0x3d
 18182 6424 E4040000 		.4byte	.LVL61
 18183 6428 F8690000 		.4byte	0x69f8
 18184 642c 3B640000 		.4byte	0x643b
 18185 6430 3E       		.uleb128 0x3e
 18186 6431 01       		.uleb128 0x1
 18187 6432 50       		.byte	0x50
 18188 6433 01       		.uleb128 0x1
 18189 6434 32       		.byte	0x32
 18190 6435 3E       		.uleb128 0x3e
 18191 6436 01       		.uleb128 0x1
 18192 6437 51       		.byte	0x51
 18193 6438 01       		.uleb128 0x1
 18194 6439 31       		.byte	0x31
 18195 643a 00       		.byte	0
 18196 643b 3D       		.uleb128 0x3d
 18197 643c 34050000 		.4byte	.LVL62
 18198 6440 4D6B0000 		.4byte	0x6b4d
 18199 6444 4F640000 		.4byte	0x644f
 18200 6448 3E       		.uleb128 0x3e
 18201 6449 01       		.uleb128 0x1
 18202 644a 50       		.byte	0x50
 18203 644b 02       		.uleb128 0x2
 18204 644c 76       		.byte	0x76
 18205 644d 00       		.sleb128 0
 18206 644e 00       		.byte	0
 18207 644f 3D       		.uleb128 0x3d
 18208 6450 64050000 		.4byte	.LVL63
 18209 6454 32690000 		.4byte	0x6932
 18210 6458 63640000 		.4byte	0x6463
 18211 645c 3E       		.uleb128 0x3e
 18212 645d 01       		.uleb128 0x1
 18213 645e 50       		.byte	0x50
 18214 645f 02       		.uleb128 0x2
 18215 6460 78       		.byte	0x78
ARM GAS  C:\Users\mathi\AppData\Local\Temp\cc0ZaFXf.s 			page 326


 18216 6461 00       		.sleb128 0
 18217 6462 00       		.byte	0
 18218 6463 3B       		.uleb128 0x3b
 18219 6464 68050000 		.4byte	.LVL64
 18220 6468 3D690000 		.4byte	0x693d
 18221 646c 3D       		.uleb128 0x3d
 18222 646d 7C050000 		.4byte	.LVL65
 18223 6471 586B0000 		.4byte	0x6b58
 18224 6475 80640000 		.4byte	0x6480
 18225 6479 3E       		.uleb128 0x3e
 18226 647a 01       		.uleb128 0x1
 18227 647b 50       		.byte	0x50
 18228 647c 02       		.uleb128 0x2
 18229 647d 76       		.byte	0x76
 18230 647e 00       		.sleb128 0
 18231 647f 00       		.byte	0
 18232 6480 3D       		.uleb128 0x3d
 18233 6481 86050000 		.4byte	.LVL66
 18234 6485 586B0000 		.4byte	0x6b58
 18235 6489 94640000 		.4byte	0x6494
 18236 648d 3E       		.uleb128 0x3e
 18237 648e 01       		.uleb128 0x1
 18238 648f 50       		.byte	0x50
 18239 6490 02       		.uleb128 0x2
 18240 6491 76       		.byte	0x76
 18241 6492 00       		.sleb128 0
 18242 6493 00       		.byte	0
 18243 6494 3B       		.uleb128 0x3b
 18244 6495 C0050000 		.4byte	.LVL67
 18245 6499 8A690000 		.4byte	0x698a
 18246 649d 3B       		.uleb128 0x3b
 18247 649e DA050000 		.4byte	.LVL68
 18248 64a2 95690000 		.4byte	0x6995
 18249 64a6 3D       		.uleb128 0x3d
 18250 64a7 00060000 		.4byte	.LVL69
 18251 64ab 4D6B0000 		.4byte	0x6b4d
 18252 64af BA640000 		.4byte	0x64ba
 18253 64b3 3E       		.uleb128 0x3e
 18254 64b4 01       		.uleb128 0x1
 18255 64b5 50       		.byte	0x50
 18256 64b6 02       		.uleb128 0x2
 18257 64b7 74       		.byte	0x74
 18258 64b8 00       		.sleb128 0
 18259 64b9 00       		.byte	0
 18260 64ba 3D       		.uleb128 0x3d
 18261 64bb 0C060000 		.4byte	.LVL70
 18262 64bf 4D6B0000 		.4byte	0x6b4d
 18263 64c3 CE640000 		.4byte	0x64ce
 18264 64c7 3E       		.uleb128 0x3e
 18265 64c8 01       		.uleb128 0x1
 18266 64c9 50       		.byte	0x50
 18267 64ca 02       		.uleb128 0x2
 18268 64cb 74       		.byte	0x74
 18269 64cc 00       		.sleb128 0
 18270 64cd 00       		.byte	0
 18271 64ce 3D       		.uleb128 0x3d
 18272 64cf 28060000 		.4byte	.LVL71
ARM GAS  C:\Users\mathi\AppData\Local\Temp\cc0ZaFXf.s 			page 327


 18273 64d3 4D6B0000 		.4byte	0x6b4d
 18274 64d7 E2640000 		.4byte	0x64e2
 18275 64db 3E       		.uleb128 0x3e
 18276 64dc 01       		.uleb128 0x1
 18277 64dd 50       		.byte	0x50
 18278 64de 02       		.uleb128 0x2
 18279 64df 74       		.byte	0x74
 18280 64e0 00       		.sleb128 0
 18281 64e1 00       		.byte	0
 18282 64e2 3D       		.uleb128 0x3d
 18283 64e3 34060000 		.4byte	.LVL72
 18284 64e7 4D6B0000 		.4byte	0x6b4d
 18285 64eb F6640000 		.4byte	0x64f6
 18286 64ef 3E       		.uleb128 0x3e
 18287 64f0 01       		.uleb128 0x1
 18288 64f1 50       		.byte	0x50
 18289 64f2 02       		.uleb128 0x2
 18290 64f3 74       		.byte	0x74
 18291 64f4 00       		.sleb128 0
 18292 64f5 00       		.byte	0
 18293 64f6 3B       		.uleb128 0x3b
 18294 64f7 52060000 		.4byte	.LVL73
 18295 64fb A0690000 		.4byte	0x69a0
 18296 64ff 3B       		.uleb128 0x3b
 18297 6500 58060000 		.4byte	.LVL74
 18298 6504 AB690000 		.4byte	0x69ab
 18299 6508 3D       		.uleb128 0x3d
 18300 6509 60060000 		.4byte	.LVL75
 18301 650d 586B0000 		.4byte	0x6b58
 18302 6511 1C650000 		.4byte	0x651c
 18303 6515 3E       		.uleb128 0x3e
 18304 6516 01       		.uleb128 0x1
 18305 6517 50       		.byte	0x50
 18306 6518 02       		.uleb128 0x2
 18307 6519 74       		.byte	0x74
 18308 651a 00       		.sleb128 0
 18309 651b 00       		.byte	0
 18310 651c 3D       		.uleb128 0x3d
 18311 651d 6C060000 		.4byte	.LVL76
 18312 6521 586B0000 		.4byte	0x6b58
 18313 6525 30650000 		.4byte	0x6530
 18314 6529 3E       		.uleb128 0x3e
 18315 652a 01       		.uleb128 0x1
 18316 652b 50       		.byte	0x50
 18317 652c 02       		.uleb128 0x2
 18318 652d 74       		.byte	0x74
 18319 652e 00       		.sleb128 0
 18320 652f 00       		.byte	0
 18321 6530 3D       		.uleb128 0x3d
 18322 6531 88060000 		.4byte	.LVL77
 18323 6535 586B0000 		.4byte	0x6b58
 18324 6539 44650000 		.4byte	0x6544
 18325 653d 3E       		.uleb128 0x3e
 18326 653e 01       		.uleb128 0x1
 18327 653f 50       		.byte	0x50
 18328 6540 02       		.uleb128 0x2
 18329 6541 74       		.byte	0x74
ARM GAS  C:\Users\mathi\AppData\Local\Temp\cc0ZaFXf.s 			page 328


 18330 6542 00       		.sleb128 0
 18331 6543 00       		.byte	0
 18332 6544 3D       		.uleb128 0x3d
 18333 6545 94060000 		.4byte	.LVL78
 18334 6549 586B0000 		.4byte	0x6b58
 18335 654d 58650000 		.4byte	0x6558
 18336 6551 3E       		.uleb128 0x3e
 18337 6552 01       		.uleb128 0x1
 18338 6553 50       		.byte	0x50
 18339 6554 02       		.uleb128 0x2
 18340 6555 74       		.byte	0x74
 18341 6556 00       		.sleb128 0
 18342 6557 00       		.byte	0
 18343 6558 3B       		.uleb128 0x3b
 18344 6559 AC060000 		.4byte	.LVL79
 18345 655d B6690000 		.4byte	0x69b6
 18346 6561 3B       		.uleb128 0x3b
 18347 6562 E4060000 		.4byte	.LVL80
 18348 6566 C1690000 		.4byte	0x69c1
 18349 656a 3D       		.uleb128 0x3d
 18350 656b 18070000 		.4byte	.LVL81
 18351 656f 4D6B0000 		.4byte	0x6b4d
 18352 6573 7E650000 		.4byte	0x657e
 18353 6577 3E       		.uleb128 0x3e
 18354 6578 01       		.uleb128 0x1
 18355 6579 50       		.byte	0x50
 18356 657a 02       		.uleb128 0x2
 18357 657b 74       		.byte	0x74
 18358 657c 00       		.sleb128 0
 18359 657d 00       		.byte	0
 18360 657e 3D       		.uleb128 0x3d
 18361 657f 24070000 		.4byte	.LVL82
 18362 6583 4D6B0000 		.4byte	0x6b4d
 18363 6587 92650000 		.4byte	0x6592
 18364 658b 3E       		.uleb128 0x3e
 18365 658c 01       		.uleb128 0x1
 18366 658d 50       		.byte	0x50
 18367 658e 02       		.uleb128 0x2
 18368 658f 74       		.byte	0x74
 18369 6590 00       		.sleb128 0
 18370 6591 00       		.byte	0
 18371 6592 3B       		.uleb128 0x3b
 18372 6593 40070000 		.4byte	.LVL83
 18373 6597 ED690000 		.4byte	0x69ed
 18374 659b 3D       		.uleb128 0x3d
 18375 659c 48070000 		.4byte	.LVL84
 18376 65a0 586B0000 		.4byte	0x6b58
 18377 65a4 AF650000 		.4byte	0x65af
 18378 65a8 3E       		.uleb128 0x3e
 18379 65a9 01       		.uleb128 0x1
 18380 65aa 50       		.byte	0x50
 18381 65ab 02       		.uleb128 0x2
 18382 65ac 74       		.byte	0x74
 18383 65ad 00       		.sleb128 0
 18384 65ae 00       		.byte	0
 18385 65af 3D       		.uleb128 0x3d
 18386 65b0 54070000 		.4byte	.LVL85
ARM GAS  C:\Users\mathi\AppData\Local\Temp\cc0ZaFXf.s 			page 329


 18387 65b4 586B0000 		.4byte	0x6b58
 18388 65b8 C3650000 		.4byte	0x65c3
 18389 65bc 3E       		.uleb128 0x3e
 18390 65bd 01       		.uleb128 0x1
 18391 65be 50       		.byte	0x50
 18392 65bf 02       		.uleb128 0x2
 18393 65c0 74       		.byte	0x74
 18394 65c1 00       		.sleb128 0
 18395 65c2 00       		.byte	0
 18396 65c3 3D       		.uleb128 0x3d
 18397 65c4 6C070000 		.4byte	.LVL86
 18398 65c8 586B0000 		.4byte	0x6b58
 18399 65cc D7650000 		.4byte	0x65d7
 18400 65d0 3E       		.uleb128 0x3e
 18401 65d1 01       		.uleb128 0x1
 18402 65d2 50       		.byte	0x50
 18403 65d3 02       		.uleb128 0x2
 18404 65d4 76       		.byte	0x76
 18405 65d5 00       		.sleb128 0
 18406 65d6 00       		.byte	0
 18407 65d7 3B       		.uleb128 0x3b
 18408 65d8 80070000 		.4byte	.LVL87
 18409 65dc 216B0000 		.4byte	0x6b21
 18410 65e0 3B       		.uleb128 0x3b
 18411 65e1 84070000 		.4byte	.LVL88
 18412 65e5 48690000 		.4byte	0x6948
 18413 65e9 3D       		.uleb128 0x3d
 18414 65ea 8C070000 		.4byte	.LVL89
 18415 65ee 53690000 		.4byte	0x6953
 18416 65f2 02660000 		.4byte	0x6602
 18417 65f6 3E       		.uleb128 0x3e
 18418 65f7 01       		.uleb128 0x1
 18419 65f8 50       		.byte	0x50
 18420 65f9 02       		.uleb128 0x2
 18421 65fa 09       		.byte	0x9
 18422 65fb C0       		.byte	0xc0
 18423 65fc 3E       		.uleb128 0x3e
 18424 65fd 01       		.uleb128 0x1
 18425 65fe 51       		.byte	0x51
 18426 65ff 01       		.uleb128 0x1
 18427 6600 30       		.byte	0x30
 18428 6601 00       		.byte	0
 18429 6602 3B       		.uleb128 0x3b
 18430 6603 B8070000 		.4byte	.LVL90
 18431 6607 53690000 		.4byte	0x6953
 18432 660b 3B       		.uleb128 0x3b
 18433 660c F6070000 		.4byte	.LVL91
 18434 6610 53690000 		.4byte	0x6953
 18435 6614 3B       		.uleb128 0x3b
 18436 6615 4E080000 		.4byte	.LVL92
 18437 6619 636B0000 		.4byte	0x6b63
 18438 661d 3D       		.uleb128 0x3d
 18439 661e A6080000 		.4byte	.LVL93
 18440 6622 4D6B0000 		.4byte	0x6b4d
 18441 6626 31660000 		.4byte	0x6631
 18442 662a 3E       		.uleb128 0x3e
 18443 662b 01       		.uleb128 0x1
ARM GAS  C:\Users\mathi\AppData\Local\Temp\cc0ZaFXf.s 			page 330


 18444 662c 50       		.byte	0x50
 18445 662d 02       		.uleb128 0x2
 18446 662e 74       		.byte	0x74
 18447 662f 00       		.sleb128 0
 18448 6630 00       		.byte	0
 18449 6631 3D       		.uleb128 0x3d
 18450 6632 B2080000 		.4byte	.LVL94
 18451 6636 4D6B0000 		.4byte	0x6b4d
 18452 663a 45660000 		.4byte	0x6645
 18453 663e 3E       		.uleb128 0x3e
 18454 663f 01       		.uleb128 0x1
 18455 6640 50       		.byte	0x50
 18456 6641 02       		.uleb128 0x2
 18457 6642 74       		.byte	0x74
 18458 6643 00       		.sleb128 0
 18459 6644 00       		.byte	0
 18460 6645 3D       		.uleb128 0x3d
 18461 6646 CE080000 		.4byte	.LVL95
 18462 664a 4D6B0000 		.4byte	0x6b4d
 18463 664e 59660000 		.4byte	0x6659
 18464 6652 3E       		.uleb128 0x3e
 18465 6653 01       		.uleb128 0x1
 18466 6654 50       		.byte	0x50
 18467 6655 02       		.uleb128 0x2
 18468 6656 74       		.byte	0x74
 18469 6657 00       		.sleb128 0
 18470 6658 00       		.byte	0
 18471 6659 3D       		.uleb128 0x3d
 18472 665a DA080000 		.4byte	.LVL96
 18473 665e 4D6B0000 		.4byte	0x6b4d
 18474 6662 6D660000 		.4byte	0x666d
 18475 6666 3E       		.uleb128 0x3e
 18476 6667 01       		.uleb128 0x1
 18477 6668 50       		.byte	0x50
 18478 6669 02       		.uleb128 0x2
 18479 666a 74       		.byte	0x74
 18480 666b 00       		.sleb128 0
 18481 666c 00       		.byte	0
 18482 666d 3B       		.uleb128 0x3b
 18483 666e F8080000 		.4byte	.LVL97
 18484 6672 D7690000 		.4byte	0x69d7
 18485 6676 3B       		.uleb128 0x3b
 18486 6677 FE080000 		.4byte	.LVL98
 18487 667b E2690000 		.4byte	0x69e2
 18488 667f 3D       		.uleb128 0x3d
 18489 6680 06090000 		.4byte	.LVL99
 18490 6684 586B0000 		.4byte	0x6b58
 18491 6688 93660000 		.4byte	0x6693
 18492 668c 3E       		.uleb128 0x3e
 18493 668d 01       		.uleb128 0x1
 18494 668e 50       		.byte	0x50
 18495 668f 02       		.uleb128 0x2
 18496 6690 74       		.byte	0x74
 18497 6691 00       		.sleb128 0
 18498 6692 00       		.byte	0
 18499 6693 3D       		.uleb128 0x3d
 18500 6694 12090000 		.4byte	.LVL100
ARM GAS  C:\Users\mathi\AppData\Local\Temp\cc0ZaFXf.s 			page 331


 18501 6698 586B0000 		.4byte	0x6b58
 18502 669c A7660000 		.4byte	0x66a7
 18503 66a0 3E       		.uleb128 0x3e
 18504 66a1 01       		.uleb128 0x1
 18505 66a2 50       		.byte	0x50
 18506 66a3 02       		.uleb128 0x2
 18507 66a4 74       		.byte	0x74
 18508 66a5 00       		.sleb128 0
 18509 66a6 00       		.byte	0
 18510 66a7 3D       		.uleb128 0x3d
 18511 66a8 2E090000 		.4byte	.LVL101
 18512 66ac 586B0000 		.4byte	0x6b58
 18513 66b0 BB660000 		.4byte	0x66bb
 18514 66b4 3E       		.uleb128 0x3e
 18515 66b5 01       		.uleb128 0x1
 18516 66b6 50       		.byte	0x50
 18517 66b7 02       		.uleb128 0x2
 18518 66b8 74       		.byte	0x74
 18519 66b9 00       		.sleb128 0
 18520 66ba 00       		.byte	0
 18521 66bb 3D       		.uleb128 0x3d
 18522 66bc 3A090000 		.4byte	.LVL102
 18523 66c0 586B0000 		.4byte	0x6b58
 18524 66c4 CF660000 		.4byte	0x66cf
 18525 66c8 3E       		.uleb128 0x3e
 18526 66c9 01       		.uleb128 0x1
 18527 66ca 50       		.byte	0x50
 18528 66cb 02       		.uleb128 0x2
 18529 66cc 74       		.byte	0x74
 18530 66cd 00       		.sleb128 0
 18531 66ce 00       		.byte	0
 18532 66cf 3B       		.uleb128 0x3b
 18533 66d0 4C090000 		.4byte	.LVL103
 18534 66d4 1C690000 		.4byte	0x691c
 18535 66d8 3D       		.uleb128 0x3d
 18536 66d9 000A0000 		.4byte	.LVL106
 18537 66dd CC690000 		.4byte	0x69cc
 18538 66e1 EB660000 		.4byte	0x66eb
 18539 66e5 3E       		.uleb128 0x3e
 18540 66e6 01       		.uleb128 0x1
 18541 66e7 50       		.byte	0x50
 18542 66e8 01       		.uleb128 0x1
 18543 66e9 30       		.byte	0x30
 18544 66ea 00       		.byte	0
 18545 66eb 3D       		.uleb128 0x3d
 18546 66ec 1C0A0000 		.4byte	.LVL107
 18547 66f0 CC690000 		.4byte	0x69cc
 18548 66f4 FE660000 		.4byte	0x66fe
 18549 66f8 3E       		.uleb128 0x3e
 18550 66f9 01       		.uleb128 0x1
 18551 66fa 50       		.byte	0x50
 18552 66fb 01       		.uleb128 0x1
 18553 66fc 31       		.byte	0x31
 18554 66fd 00       		.byte	0
 18555 66fe 3D       		.uleb128 0x3d
 18556 66ff 380A0000 		.4byte	.LVL108
 18557 6703 CC690000 		.4byte	0x69cc
ARM GAS  C:\Users\mathi\AppData\Local\Temp\cc0ZaFXf.s 			page 332


 18558 6707 11670000 		.4byte	0x6711
 18559 670b 3E       		.uleb128 0x3e
 18560 670c 01       		.uleb128 0x1
 18561 670d 50       		.byte	0x50
 18562 670e 01       		.uleb128 0x1
 18563 670f 32       		.byte	0x32
 18564 6710 00       		.byte	0
 18565 6711 3D       		.uleb128 0x3d
 18566 6712 480A0000 		.4byte	.LVL109
 18567 6716 4D6B0000 		.4byte	0x6b4d
 18568 671a 28670000 		.4byte	0x6728
 18569 671e 3E       		.uleb128 0x3e
 18570 671f 01       		.uleb128 0x1
 18571 6720 50       		.byte	0x50
 18572 6721 05       		.uleb128 0x5
 18573 6722 03       		.byte	0x3
 18574 6723 00000000 		.4byte	.LANCHOR25
 18575 6727 00       		.byte	0
 18576 6728 3D       		.uleb128 0x3d
 18577 6729 540A0000 		.4byte	.LVL110
 18578 672d 4D6B0000 		.4byte	0x6b4d
 18579 6731 3C670000 		.4byte	0x673c
 18580 6735 3E       		.uleb128 0x3e
 18581 6736 01       		.uleb128 0x1
 18582 6737 50       		.byte	0x50
 18583 6738 02       		.uleb128 0x2
 18584 6739 74       		.byte	0x74
 18585 673a 00       		.sleb128 0
 18586 673b 00       		.byte	0
 18587 673c 3D       		.uleb128 0x3d
 18588 673d 600A0000 		.4byte	.LVL111
 18589 6741 4D6B0000 		.4byte	0x6b4d
 18590 6745 50670000 		.4byte	0x6750
 18591 6749 3E       		.uleb128 0x3e
 18592 674a 01       		.uleb128 0x1
 18593 674b 50       		.byte	0x50
 18594 674c 02       		.uleb128 0x2
 18595 674d 74       		.byte	0x74
 18596 674e 00       		.sleb128 0
 18597 674f 00       		.byte	0
 18598 6750 3B       		.uleb128 0x3b
 18599 6751 680A0000 		.4byte	.LVL112
 18600 6755 48690000 		.4byte	0x6948
 18601 6759 3B       		.uleb128 0x3b
 18602 675a 780A0000 		.4byte	.LVL113
 18603 675e 7F690000 		.4byte	0x697f
 18604 6762 3B       		.uleb128 0x3b
 18605 6763 7C0A0000 		.4byte	.LVL114
 18606 6767 5E690000 		.4byte	0x695e
 18607 676b 3B       		.uleb128 0x3b
 18608 676c 9C0A0000 		.4byte	.LVL115
 18609 6770 1C690000 		.4byte	0x691c
 18610 6774 3B       		.uleb128 0x3b
 18611 6775 BC0A0000 		.4byte	.LVL116
 18612 6779 48690000 		.4byte	0x6948
 18613 677d 3B       		.uleb128 0x3b
 18614 677e CE0A0000 		.4byte	.LVL117
ARM GAS  C:\Users\mathi\AppData\Local\Temp\cc0ZaFXf.s 			page 333


 18615 6782 4D6B0000 		.4byte	0x6b4d
 18616 6786 3B       		.uleb128 0x3b
 18617 6787 F40A0000 		.4byte	.LVL118
 18618 678b 4D6B0000 		.4byte	0x6b4d
 18619 678f 3B       		.uleb128 0x3b
 18620 6790 1A0B0000 		.4byte	.LVL119
 18621 6794 4D6B0000 		.4byte	0x6b4d
 18622 6798 3D       		.uleb128 0x3d
 18623 6799 3E0B0000 		.4byte	.LVL120
 18624 679d 7F690000 		.4byte	0x697f
 18625 67a1 AC670000 		.4byte	0x67ac
 18626 67a5 3E       		.uleb128 0x3e
 18627 67a6 01       		.uleb128 0x1
 18628 67a7 50       		.byte	0x50
 18629 67a8 02       		.uleb128 0x2
 18630 67a9 09       		.byte	0x9
 18631 67aa B0       		.byte	0xb0
 18632 67ab 00       		.byte	0
 18633 67ac 3D       		.uleb128 0x3d
 18634 67ad 620B0000 		.4byte	.LVL121
 18635 67b1 7F690000 		.4byte	0x697f
 18636 67b5 C0670000 		.4byte	0x67c0
 18637 67b9 3E       		.uleb128 0x3e
 18638 67ba 01       		.uleb128 0x1
 18639 67bb 50       		.byte	0x50
 18640 67bc 02       		.uleb128 0x2
 18641 67bd 09       		.byte	0x9
 18642 67be B0       		.byte	0xb0
 18643 67bf 00       		.byte	0
 18644 67c0 3D       		.uleb128 0x3d
 18645 67c1 860B0000 		.4byte	.LVL122
 18646 67c5 7F690000 		.4byte	0x697f
 18647 67c9 D4670000 		.4byte	0x67d4
 18648 67cd 3E       		.uleb128 0x3e
 18649 67ce 01       		.uleb128 0x1
 18650 67cf 50       		.byte	0x50
 18651 67d0 02       		.uleb128 0x2
 18652 67d1 09       		.byte	0x9
 18653 67d2 B0       		.byte	0xb0
 18654 67d3 00       		.byte	0
 18655 67d4 3D       		.uleb128 0x3d
 18656 67d5 9E0B0000 		.4byte	.LVL123
 18657 67d9 7F690000 		.4byte	0x697f
 18658 67dd F3670000 		.4byte	0x67f3
 18659 67e1 3E       		.uleb128 0x3e
 18660 67e2 01       		.uleb128 0x1
 18661 67e3 50       		.byte	0x50
 18662 67e4 02       		.uleb128 0x2
 18663 67e5 09       		.byte	0x9
 18664 67e6 B0       		.byte	0xb0
 18665 67e7 3E       		.uleb128 0x3e
 18666 67e8 01       		.uleb128 0x1
 18667 67e9 51       		.byte	0x51
 18668 67ea 02       		.uleb128 0x2
 18669 67eb 09       		.byte	0x9
 18670 67ec 91       		.byte	0x91
 18671 67ed 3E       		.uleb128 0x3e
ARM GAS  C:\Users\mathi\AppData\Local\Temp\cc0ZaFXf.s 			page 334


 18672 67ee 01       		.uleb128 0x1
 18673 67ef 52       		.byte	0x52
 18674 67f0 01       		.uleb128 0x1
 18675 67f1 31       		.byte	0x31
 18676 67f2 00       		.byte	0
 18677 67f3 3B       		.uleb128 0x3b
 18678 67f4 A20B0000 		.4byte	.LVL124
 18679 67f8 5E690000 		.4byte	0x695e
 18680 67fc 3D       		.uleb128 0x3d
 18681 67fd 18180000 		.4byte	.LVL344
 18682 6801 A86A0000 		.4byte	0x6aa8
 18683 6805 10680000 		.4byte	0x6810
 18684 6809 3E       		.uleb128 0x3e
 18685 680a 01       		.uleb128 0x1
 18686 680b 50       		.byte	0x50
 18687 680c 02       		.uleb128 0x2
 18688 680d 78       		.byte	0x78
 18689 680e 00       		.sleb128 0
 18690 680f 00       		.byte	0
 18691 6810 3B       		.uleb128 0x3b
 18692 6811 1C180000 		.4byte	.LVL345
 18693 6815 B36A0000 		.4byte	0x6ab3
 18694 6819 3B       		.uleb128 0x3b
 18695 681a 28180000 		.4byte	.LVL346
 18696 681e 6E6B0000 		.4byte	0x6b6e
 18697 6822 3B       		.uleb128 0x3b
 18698 6823 66180000 		.4byte	.LVL347
 18699 6827 1C690000 		.4byte	0x691c
 18700 682b 3B       		.uleb128 0x3b
 18701 682c 98180000 		.4byte	.LVL348
 18702 6830 C1690000 		.4byte	0x69c1
 18703 6834 3D       		.uleb128 0x3d
 18704 6835 C2180000 		.4byte	.LVL349
 18705 6839 586B0000 		.4byte	0x6b58
 18706 683d 48680000 		.4byte	0x6848
 18707 6841 3E       		.uleb128 0x3e
 18708 6842 01       		.uleb128 0x1
 18709 6843 50       		.byte	0x50
 18710 6844 02       		.uleb128 0x2
 18711 6845 76       		.byte	0x76
 18712 6846 00       		.sleb128 0
 18713 6847 00       		.byte	0
 18714 6848 3B       		.uleb128 0x3b
 18715 6849 D6180000 		.4byte	.LVL350
 18716 684d B6690000 		.4byte	0x69b6
 18717 6851 3D       		.uleb128 0x3d
 18718 6852 00190000 		.4byte	.LVL351
 18719 6856 586B0000 		.4byte	0x6b58
 18720 685a 65680000 		.4byte	0x6865
 18721 685e 3E       		.uleb128 0x3e
 18722 685f 01       		.uleb128 0x1
 18723 6860 50       		.byte	0x50
 18724 6861 02       		.uleb128 0x2
 18725 6862 76       		.byte	0x76
 18726 6863 00       		.sleb128 0
 18727 6864 00       		.byte	0
 18728 6865 3B       		.uleb128 0x3b
ARM GAS  C:\Users\mathi\AppData\Local\Temp\cc0ZaFXf.s 			page 335


 18729 6866 0E190000 		.4byte	.LVL353
 18730 686a BE6A0000 		.4byte	0x6abe
 18731 686e 3B       		.uleb128 0x3b
 18732 686f 1C190000 		.4byte	.LVL355
 18733 6873 BE6A0000 		.4byte	0x6abe
 18734 6877 3B       		.uleb128 0x3b
 18735 6878 36190000 		.4byte	.LVL357
 18736 687c 246A0000 		.4byte	0x6a24
 18737 6880 3B       		.uleb128 0x3b
 18738 6881 3E190000 		.4byte	.LVL358
 18739 6885 926A0000 		.4byte	0x6a92
 18740 6889 3B       		.uleb128 0x3b
 18741 688a AC190000 		.4byte	.LVL360
 18742 688e 1C690000 		.4byte	0x691c
 18743 6892 3D       		.uleb128 0x3d
 18744 6893 BC190000 		.4byte	.LVL361
 18745 6897 796B0000 		.4byte	0x6b79
 18746 689b BB680000 		.4byte	0x68bb
 18747 689f 3E       		.uleb128 0x3e
 18748 68a0 01       		.uleb128 0x1
 18749 68a1 50       		.byte	0x50
 18750 68a2 05       		.uleb128 0x5
 18751 68a3 03       		.byte	0x3
 18752 68a4 00000000 		.4byte	.LANCHOR20
 18753 68a8 3E       		.uleb128 0x3e
 18754 68a9 01       		.uleb128 0x1
 18755 68aa 51       		.byte	0x51
 18756 68ab 05       		.uleb128 0x5
 18757 68ac 03       		.byte	0x3
 18758 68ad 00000000 		.4byte	.LANCHOR19
 18759 68b1 3E       		.uleb128 0x3e
 18760 68b2 01       		.uleb128 0x1
 18761 68b3 52       		.byte	0x52
 18762 68b4 05       		.uleb128 0x5
 18763 68b5 03       		.byte	0x3
 18764 68b6 00000000 		.4byte	.LANCHOR18
 18765 68ba 00       		.byte	0
 18766 68bb 3B       		.uleb128 0x3b
 18767 68bc F2190000 		.4byte	.LVL362
 18768 68c0 1C690000 		.4byte	0x691c
 18769 68c4 3B       		.uleb128 0x3b
 18770 68c5 FC190000 		.4byte	.LVL363
 18771 68c9 EA6A0000 		.4byte	0x6aea
 18772 68cd 3B       		.uleb128 0x3b
 18773 68ce 161A0000 		.4byte	.LVL364
 18774 68d2 846B0000 		.4byte	0x6b84
 18775 68d6 3B       		.uleb128 0x3b
 18776 68d7 2C1A0000 		.4byte	.LVL365
 18777 68db 8F6B0000 		.4byte	0x6b8f
 18778 68df 3D       		.uleb128 0x3d
 18779 68e0 361A0000 		.4byte	.LVL366
 18780 68e4 9A6B0000 		.4byte	0x6b9a
 18781 68e8 F3680000 		.4byte	0x68f3
 18782 68ec 3E       		.uleb128 0x3e
 18783 68ed 01       		.uleb128 0x1
 18784 68ee 50       		.byte	0x50
 18785 68ef 02       		.uleb128 0x2
ARM GAS  C:\Users\mathi\AppData\Local\Temp\cc0ZaFXf.s 			page 336


 18786 68f0 74       		.byte	0x74
 18787 68f1 00       		.sleb128 0
 18788 68f2 00       		.byte	0
 18789 68f3 3D       		.uleb128 0x3d
 18790 68f4 6A1A0000 		.4byte	.LVL372
 18791 68f8 27690000 		.4byte	0x6927
 18792 68fc 07690000 		.4byte	0x6907
 18793 6900 3E       		.uleb128 0x3e
 18794 6901 01       		.uleb128 0x1
 18795 6902 50       		.byte	0x50
 18796 6903 02       		.uleb128 0x2
 18797 6904 78       		.byte	0x78
 18798 6905 00       		.sleb128 0
 18799 6906 00       		.byte	0
 18800 6907 3B       		.uleb128 0x3b
 18801 6908 8E1A0000 		.4byte	.LVL376
 18802 690c 716A0000 		.4byte	0x6a71
 18803 6910 00       		.byte	0
 18804 6911 3F       		.uleb128 0x3f
 18805 6912 021D0000 		.4byte	.LASF950
 18806 6916 021D0000 		.4byte	.LASF950
 18807 691a 3C       		.byte	0x3c
 18808 691b 45       		.byte	0x45
 18809 691c 3F       		.uleb128 0x3f
 18810 691d 76150000 		.4byte	.LASF951
 18811 6921 76150000 		.4byte	.LASF951
 18812 6925 3E       		.byte	0x3e
 18813 6926 23       		.byte	0x23
 18814 6927 3F       		.uleb128 0x3f
 18815 6928 371E0000 		.4byte	.LASF952
 18816 692c 371E0000 		.4byte	.LASF952
 18817 6930 3F       		.byte	0x3f
 18818 6931 29       		.byte	0x29
 18819 6932 3F       		.uleb128 0x3f
 18820 6933 D4200000 		.4byte	.LASF953
 18821 6937 D4200000 		.4byte	.LASF953
 18822 693b 40       		.byte	0x40
 18823 693c 71       		.byte	0x71
 18824 693d 3F       		.uleb128 0x3f
 18825 693e 69140000 		.4byte	.LASF954
 18826 6942 69140000 		.4byte	.LASF954
 18827 6946 40       		.byte	0x40
 18828 6947 76       		.byte	0x76
 18829 6948 3F       		.uleb128 0x3f
 18830 6949 8F150000 		.4byte	.LASF955
 18831 694d 8F150000 		.4byte	.LASF955
 18832 6951 41       		.byte	0x41
 18833 6952 29       		.byte	0x29
 18834 6953 3F       		.uleb128 0x3f
 18835 6954 331C0000 		.4byte	.LASF956
 18836 6958 331C0000 		.4byte	.LASF956
 18837 695c 41       		.byte	0x41
 18838 695d 28       		.byte	0x28
 18839 695e 3F       		.uleb128 0x3f
 18840 695f 7F090000 		.4byte	.LASF957
 18841 6963 7F090000 		.4byte	.LASF957
 18842 6967 41       		.byte	0x41
ARM GAS  C:\Users\mathi\AppData\Local\Temp\cc0ZaFXf.s 			page 337


 18843 6968 2A       		.byte	0x2a
 18844 6969 3F       		.uleb128 0x3f
 18845 696a 340A0000 		.4byte	.LASF958
 18846 696e 340A0000 		.4byte	.LASF958
 18847 6972 42       		.byte	0x42
 18848 6973 F4       		.byte	0xf4
 18849 6974 3F       		.uleb128 0x3f
 18850 6975 F50B0000 		.4byte	.LASF959
 18851 6979 F50B0000 		.4byte	.LASF959
 18852 697d 42       		.byte	0x42
 18853 697e CC       		.byte	0xcc
 18854 697f 3F       		.uleb128 0x3f
 18855 6980 8A060000 		.4byte	.LASF960
 18856 6984 8A060000 		.4byte	.LASF960
 18857 6988 41       		.byte	0x41
 18858 6989 27       		.byte	0x27
 18859 698a 3F       		.uleb128 0x3f
 18860 698b C7000000 		.4byte	.LASF961
 18861 698f C7000000 		.4byte	.LASF961
 18862 6993 43       		.byte	0x43
 18863 6994 40       		.byte	0x40
 18864 6995 3F       		.uleb128 0x3f
 18865 6996 5F160000 		.4byte	.LASF962
 18866 699a 5F160000 		.4byte	.LASF962
 18867 699e 43       		.byte	0x43
 18868 699f 41       		.byte	0x41
 18869 69a0 3F       		.uleb128 0x3f
 18870 69a1 FF290000 		.4byte	.LASF963
 18871 69a5 FF290000 		.4byte	.LASF963
 18872 69a9 43       		.byte	0x43
 18873 69aa 3D       		.byte	0x3d
 18874 69ab 3F       		.uleb128 0x3f
 18875 69ac A61E0000 		.4byte	.LASF964
 18876 69b0 A61E0000 		.4byte	.LASF964
 18877 69b4 43       		.byte	0x43
 18878 69b5 3E       		.byte	0x3e
 18879 69b6 3F       		.uleb128 0x3f
 18880 69b7 95010000 		.4byte	.LASF965
 18881 69bb 95010000 		.4byte	.LASF965
 18882 69bf 44       		.byte	0x44
 18883 69c0 30       		.byte	0x30
 18884 69c1 3F       		.uleb128 0x3f
 18885 69c2 0B190000 		.4byte	.LASF966
 18886 69c6 0B190000 		.4byte	.LASF966
 18887 69ca 44       		.byte	0x44
 18888 69cb 27       		.byte	0x27
 18889 69cc 3F       		.uleb128 0x3f
 18890 69cd C1260000 		.4byte	.LASF967
 18891 69d1 C1260000 		.4byte	.LASF967
 18892 69d5 45       		.byte	0x45
 18893 69d6 26       		.byte	0x26
 18894 69d7 3F       		.uleb128 0x3f
 18895 69d8 200B0000 		.4byte	.LASF968
 18896 69dc 200B0000 		.4byte	.LASF968
 18897 69e0 43       		.byte	0x43
 18898 69e1 39       		.byte	0x39
 18899 69e2 3F       		.uleb128 0x3f
ARM GAS  C:\Users\mathi\AppData\Local\Temp\cc0ZaFXf.s 			page 338


 18900 69e3 2D1D0000 		.4byte	.LASF969
 18901 69e7 2D1D0000 		.4byte	.LASF969
 18902 69eb 43       		.byte	0x43
 18903 69ec 3A       		.byte	0x3a
 18904 69ed 3F       		.uleb128 0x3f
 18905 69ee B0050000 		.4byte	.LASF970
 18906 69f2 B0050000 		.4byte	.LASF970
 18907 69f6 46       		.byte	0x46
 18908 69f7 3A       		.byte	0x3a
 18909 69f8 3F       		.uleb128 0x3f
 18910 69f9 64130000 		.4byte	.LASF971
 18911 69fd 64130000 		.4byte	.LASF971
 18912 6a01 3D       		.byte	0x3d
 18913 6a02 42       		.byte	0x42
 18914 6a03 3F       		.uleb128 0x3f
 18915 6a04 CA230000 		.4byte	.LASF972
 18916 6a08 CA230000 		.4byte	.LASF972
 18917 6a0c 47       		.byte	0x47
 18918 6a0d 96       		.byte	0x96
 18919 6a0e 3F       		.uleb128 0x3f
 18920 6a0f 811B0000 		.4byte	.LASF973
 18921 6a13 811B0000 		.4byte	.LASF973
 18922 6a17 46       		.byte	0x46
 18923 6a18 3B       		.byte	0x3b
 18924 6a19 3F       		.uleb128 0x3f
 18925 6a1a 29050000 		.4byte	.LASF974
 18926 6a1e 29050000 		.4byte	.LASF974
 18927 6a22 44       		.byte	0x44
 18928 6a23 0B       		.byte	0xb
 18929 6a24 3F       		.uleb128 0x3f
 18930 6a25 D5290000 		.4byte	.LASF975
 18931 6a29 D5290000 		.4byte	.LASF975
 18932 6a2d 46       		.byte	0x46
 18933 6a2e 46       		.byte	0x46
 18934 6a2f 3F       		.uleb128 0x3f
 18935 6a30 E8180000 		.4byte	.LASF976
 18936 6a34 E8180000 		.4byte	.LASF976
 18937 6a38 48       		.byte	0x48
 18938 6a39 72       		.byte	0x72
 18939 6a3a 3F       		.uleb128 0x3f
 18940 6a3b 4F0E0000 		.4byte	.LASF977
 18941 6a3f 4F0E0000 		.4byte	.LASF977
 18942 6a43 48       		.byte	0x48
 18943 6a44 73       		.byte	0x73
 18944 6a45 3F       		.uleb128 0x3f
 18945 6a46 F5050000 		.4byte	.LASF978
 18946 6a4a F5050000 		.4byte	.LASF978
 18947 6a4e 48       		.byte	0x48
 18948 6a4f 74       		.byte	0x74
 18949 6a50 3F       		.uleb128 0x3f
 18950 6a51 D9220000 		.4byte	.LASF979
 18951 6a55 D9220000 		.4byte	.LASF979
 18952 6a59 49       		.byte	0x49
 18953 6a5a 22       		.byte	0x22
 18954 6a5b 3F       		.uleb128 0x3f
 18955 6a5c 01090000 		.4byte	.LASF980
 18956 6a60 01090000 		.4byte	.LASF980
ARM GAS  C:\Users\mathi\AppData\Local\Temp\cc0ZaFXf.s 			page 339


 18957 6a64 49       		.byte	0x49
 18958 6a65 1D       		.byte	0x1d
 18959 6a66 3F       		.uleb128 0x3f
 18960 6a67 471D0000 		.4byte	.LASF981
 18961 6a6b 471D0000 		.4byte	.LASF981
 18962 6a6f 49       		.byte	0x49
 18963 6a70 25       		.byte	0x25
 18964 6a71 3F       		.uleb128 0x3f
 18965 6a72 0A150000 		.4byte	.LASF982
 18966 6a76 0A150000 		.4byte	.LASF982
 18967 6a7a 46       		.byte	0x46
 18968 6a7b 47       		.byte	0x47
 18969 6a7c 3F       		.uleb128 0x3f
 18970 6a7d B7150000 		.4byte	.LASF983
 18971 6a81 B7150000 		.4byte	.LASF983
 18972 6a85 4A       		.byte	0x4a
 18973 6a86 68       		.byte	0x68
 18974 6a87 3F       		.uleb128 0x3f
 18975 6a88 61120000 		.4byte	.LASF984
 18976 6a8c 61120000 		.4byte	.LASF984
 18977 6a90 3B       		.byte	0x3b
 18978 6a91 A2       		.byte	0xa2
 18979 6a92 3F       		.uleb128 0x3f
 18980 6a93 B20D0000 		.4byte	.LASF985
 18981 6a97 B20D0000 		.4byte	.LASF985
 18982 6a9b 4B       		.byte	0x4b
 18983 6a9c 0B       		.byte	0xb
 18984 6a9d 3F       		.uleb128 0x3f
 18985 6a9e C1240000 		.4byte	.LASF986
 18986 6aa2 C1240000 		.4byte	.LASF986
 18987 6aa6 4B       		.byte	0x4b
 18988 6aa7 0D       		.byte	0xd
 18989 6aa8 3F       		.uleb128 0x3f
 18990 6aa9 07200000 		.4byte	.LASF987
 18991 6aad 07200000 		.4byte	.LASF987
 18992 6ab1 40       		.byte	0x40
 18993 6ab2 8A       		.byte	0x8a
 18994 6ab3 3F       		.uleb128 0x3f
 18995 6ab4 72010000 		.4byte	.LASF988
 18996 6ab8 72010000 		.4byte	.LASF988
 18997 6abc 40       		.byte	0x40
 18998 6abd 8F       		.byte	0x8f
 18999 6abe 3F       		.uleb128 0x3f
 19000 6abf 79040000 		.4byte	.LASF989
 19001 6ac3 79040000 		.4byte	.LASF989
 19002 6ac7 4A       		.byte	0x4a
 19003 6ac8 67       		.byte	0x67
 19004 6ac9 3F       		.uleb128 0x3f
 19005 6aca EE0D0000 		.4byte	.LASF990
 19006 6ace EE0D0000 		.4byte	.LASF990
 19007 6ad2 4C       		.byte	0x4c
 19008 6ad3 17       		.byte	0x17
 19009 6ad4 3F       		.uleb128 0x3f
 19010 6ad5 AC1F0000 		.4byte	.LASF991
 19011 6ad9 AC1F0000 		.4byte	.LASF991
 19012 6add 4C       		.byte	0x4c
 19013 6ade 19       		.byte	0x19
ARM GAS  C:\Users\mathi\AppData\Local\Temp\cc0ZaFXf.s 			page 340


 19014 6adf 3F       		.uleb128 0x3f
 19015 6ae0 7C000000 		.4byte	.LASF992
 19016 6ae4 7C000000 		.4byte	.LASF992
 19017 6ae8 4C       		.byte	0x4c
 19018 6ae9 1B       		.byte	0x1b
 19019 6aea 3F       		.uleb128 0x3f
 19020 6aeb 80260000 		.4byte	.LASF993
 19021 6aef 80260000 		.4byte	.LASF993
 19022 6af3 4C       		.byte	0x4c
 19023 6af4 15       		.byte	0x15
 19024 6af5 3F       		.uleb128 0x3f
 19025 6af6 A0130000 		.4byte	.LASF994
 19026 6afa A0130000 		.4byte	.LASF994
 19027 6afe 4A       		.byte	0x4a
 19028 6aff 69       		.byte	0x69
 19029 6b00 3F       		.uleb128 0x3f
 19030 6b01 10130000 		.4byte	.LASF995
 19031 6b05 10130000 		.4byte	.LASF995
 19032 6b09 3B       		.byte	0x3b
 19033 6b0a AF       		.byte	0xaf
 19034 6b0b 3F       		.uleb128 0x3f
 19035 6b0c 150C0000 		.4byte	.LASF996
 19036 6b10 150C0000 		.4byte	.LASF996
 19037 6b14 43       		.byte	0x43
 19038 6b15 37       		.byte	0x37
 19039 6b16 3F       		.uleb128 0x3f
 19040 6b17 08180000 		.4byte	.LASF997
 19041 6b1b 08180000 		.4byte	.LASF997
 19042 6b1f 4B       		.byte	0x4b
 19043 6b20 0A       		.byte	0xa
 19044 6b21 3F       		.uleb128 0x3f
 19045 6b22 F70E0000 		.4byte	.LASF998
 19046 6b26 F70E0000 		.4byte	.LASF998
 19047 6b2a 41       		.byte	0x41
 19048 6b2b 25       		.byte	0x25
 19049 6b2c 3F       		.uleb128 0x3f
 19050 6b2d BC1D0000 		.4byte	.LASF999
 19051 6b31 BC1D0000 		.4byte	.LASF999
 19052 6b35 48       		.byte	0x48
 19053 6b36 6F       		.byte	0x6f
 19054 6b37 3F       		.uleb128 0x3f
 19055 6b38 7F1A0000 		.4byte	.LASF1000
 19056 6b3c 7F1A0000 		.4byte	.LASF1000
 19057 6b40 4D       		.byte	0x4d
 19058 6b41 12       		.byte	0x12
 19059 6b42 3F       		.uleb128 0x3f
 19060 6b43 FA030000 		.4byte	.LASF1001
 19061 6b47 FA030000 		.4byte	.LASF1001
 19062 6b4b 3D       		.byte	0x3d
 19063 6b4c 49       		.byte	0x49
 19064 6b4d 3F       		.uleb128 0x3f
 19065 6b4e F7150000 		.4byte	.LASF1002
 19066 6b52 F7150000 		.4byte	.LASF1002
 19067 6b56 40       		.byte	0x40
 19068 6b57 6B       		.byte	0x6b
 19069 6b58 3F       		.uleb128 0x3f
 19070 6b59 FA230000 		.4byte	.LASF1003
ARM GAS  C:\Users\mathi\AppData\Local\Temp\cc0ZaFXf.s 			page 341


 19071 6b5d FA230000 		.4byte	.LASF1003
 19072 6b61 40       		.byte	0x40
 19073 6b62 84       		.byte	0x84
 19074 6b63 3F       		.uleb128 0x3f
 19075 6b64 511E0000 		.4byte	.LASF1004
 19076 6b68 511E0000 		.4byte	.LASF1004
 19077 6b6c 49       		.byte	0x49
 19078 6b6d 27       		.byte	0x27
 19079 6b6e 3F       		.uleb128 0x3f
 19080 6b6f 82010000 		.4byte	.LASF1005
 19081 6b73 82010000 		.4byte	.LASF1005
 19082 6b77 3D       		.byte	0x3d
 19083 6b78 4F       		.byte	0x4f
 19084 6b79 3F       		.uleb128 0x3f
 19085 6b7a B7220000 		.4byte	.LASF1006
 19086 6b7e B7220000 		.4byte	.LASF1006
 19087 6b82 4C       		.byte	0x4c
 19088 6b83 12       		.byte	0x12
 19089 6b84 3F       		.uleb128 0x3f
 19090 6b85 7F220000 		.4byte	.LASF1007
 19091 6b89 7F220000 		.4byte	.LASF1007
 19092 6b8d 49       		.byte	0x49
 19093 6b8e 28       		.byte	0x28
 19094 6b8f 3F       		.uleb128 0x3f
 19095 6b90 30180000 		.4byte	.LASF1008
 19096 6b94 30180000 		.4byte	.LASF1008
 19097 6b98 4E       		.byte	0x4e
 19098 6b99 6E       		.byte	0x6e
 19099 6b9a 40       		.uleb128 0x40
 19100 6b9b 2A060000 		.4byte	.LASF1013
 19101 6b9f 0C210000 		.4byte	.LASF1014
 19102 6ba3 4F       		.byte	0x4f
 19103 6ba4 00       		.byte	0
 19104 6ba5 2A060000 		.4byte	.LASF1013
 19105 6ba9 00       		.byte	0
 19106              		.section	.debug_abbrev,"",%progbits
 19107              	.Ldebug_abbrev0:
 19108 0000 01       		.uleb128 0x1
 19109 0001 11       		.uleb128 0x11
 19110 0002 01       		.byte	0x1
 19111 0003 25       		.uleb128 0x25
 19112 0004 0E       		.uleb128 0xe
 19113 0005 13       		.uleb128 0x13
 19114 0006 0B       		.uleb128 0xb
 19115 0007 03       		.uleb128 0x3
 19116 0008 0E       		.uleb128 0xe
 19117 0009 1B       		.uleb128 0x1b
 19118 000a 0E       		.uleb128 0xe
 19119 000b 55       		.uleb128 0x55
 19120 000c 17       		.uleb128 0x17
 19121 000d 11       		.uleb128 0x11
 19122 000e 01       		.uleb128 0x1
 19123 000f 10       		.uleb128 0x10
 19124 0010 17       		.uleb128 0x17
 19125 0011 00       		.byte	0
 19126 0012 00       		.byte	0
 19127 0013 02       		.uleb128 0x2
ARM GAS  C:\Users\mathi\AppData\Local\Temp\cc0ZaFXf.s 			page 342


 19128 0014 16       		.uleb128 0x16
 19129 0015 00       		.byte	0
 19130 0016 03       		.uleb128 0x3
 19131 0017 0E       		.uleb128 0xe
 19132 0018 3A       		.uleb128 0x3a
 19133 0019 0B       		.uleb128 0xb
 19134 001a 3B       		.uleb128 0x3b
 19135 001b 0B       		.uleb128 0xb
 19136 001c 49       		.uleb128 0x49
 19137 001d 13       		.uleb128 0x13
 19138 001e 00       		.byte	0
 19139 001f 00       		.byte	0
 19140 0020 03       		.uleb128 0x3
 19141 0021 24       		.uleb128 0x24
 19142 0022 00       		.byte	0
 19143 0023 0B       		.uleb128 0xb
 19144 0024 0B       		.uleb128 0xb
 19145 0025 3E       		.uleb128 0x3e
 19146 0026 0B       		.uleb128 0xb
 19147 0027 03       		.uleb128 0x3
 19148 0028 0E       		.uleb128 0xe
 19149 0029 00       		.byte	0
 19150 002a 00       		.byte	0
 19151 002b 04       		.uleb128 0x4
 19152 002c 24       		.uleb128 0x24
 19153 002d 00       		.byte	0
 19154 002e 0B       		.uleb128 0xb
 19155 002f 0B       		.uleb128 0xb
 19156 0030 3E       		.uleb128 0x3e
 19157 0031 0B       		.uleb128 0xb
 19158 0032 03       		.uleb128 0x3
 19159 0033 08       		.uleb128 0x8
 19160 0034 00       		.byte	0
 19161 0035 00       		.byte	0
 19162 0036 05       		.uleb128 0x5
 19163 0037 26       		.uleb128 0x26
 19164 0038 00       		.byte	0
 19165 0039 49       		.uleb128 0x49
 19166 003a 13       		.uleb128 0x13
 19167 003b 00       		.byte	0
 19168 003c 00       		.byte	0
 19169 003d 06       		.uleb128 0x6
 19170 003e 35       		.uleb128 0x35
 19171 003f 00       		.byte	0
 19172 0040 49       		.uleb128 0x49
 19173 0041 13       		.uleb128 0x13
 19174 0042 00       		.byte	0
 19175 0043 00       		.byte	0
 19176 0044 07       		.uleb128 0x7
 19177 0045 13       		.uleb128 0x13
 19178 0046 01       		.byte	0x1
 19179 0047 03       		.uleb128 0x3
 19180 0048 0E       		.uleb128 0xe
 19181 0049 0B       		.uleb128 0xb
 19182 004a 0B       		.uleb128 0xb
 19183 004b 3A       		.uleb128 0x3a
 19184 004c 0B       		.uleb128 0xb
ARM GAS  C:\Users\mathi\AppData\Local\Temp\cc0ZaFXf.s 			page 343


 19185 004d 3B       		.uleb128 0x3b
 19186 004e 0B       		.uleb128 0xb
 19187 004f 01       		.uleb128 0x1
 19188 0050 13       		.uleb128 0x13
 19189 0051 00       		.byte	0
 19190 0052 00       		.byte	0
 19191 0053 08       		.uleb128 0x8
 19192 0054 0D       		.uleb128 0xd
 19193 0055 00       		.byte	0
 19194 0056 03       		.uleb128 0x3
 19195 0057 0E       		.uleb128 0xe
 19196 0058 3A       		.uleb128 0x3a
 19197 0059 0B       		.uleb128 0xb
 19198 005a 3B       		.uleb128 0x3b
 19199 005b 0B       		.uleb128 0xb
 19200 005c 49       		.uleb128 0x49
 19201 005d 13       		.uleb128 0x13
 19202 005e 38       		.uleb128 0x38
 19203 005f 0B       		.uleb128 0xb
 19204 0060 00       		.byte	0
 19205 0061 00       		.byte	0
 19206 0062 09       		.uleb128 0x9
 19207 0063 0D       		.uleb128 0xd
 19208 0064 00       		.byte	0
 19209 0065 03       		.uleb128 0x3
 19210 0066 08       		.uleb128 0x8
 19211 0067 3A       		.uleb128 0x3a
 19212 0068 0B       		.uleb128 0xb
 19213 0069 3B       		.uleb128 0x3b
 19214 006a 05       		.uleb128 0x5
 19215 006b 49       		.uleb128 0x49
 19216 006c 13       		.uleb128 0x13
 19217 006d 38       		.uleb128 0x38
 19218 006e 0B       		.uleb128 0xb
 19219 006f 00       		.byte	0
 19220 0070 00       		.byte	0
 19221 0071 0A       		.uleb128 0xa
 19222 0072 0D       		.uleb128 0xd
 19223 0073 00       		.byte	0
 19224 0074 03       		.uleb128 0x3
 19225 0075 0E       		.uleb128 0xe
 19226 0076 3A       		.uleb128 0x3a
 19227 0077 0B       		.uleb128 0xb
 19228 0078 3B       		.uleb128 0x3b
 19229 0079 05       		.uleb128 0x5
 19230 007a 49       		.uleb128 0x49
 19231 007b 13       		.uleb128 0x13
 19232 007c 38       		.uleb128 0x38
 19233 007d 0B       		.uleb128 0xb
 19234 007e 00       		.byte	0
 19235 007f 00       		.byte	0
 19236 0080 0B       		.uleb128 0xb
 19237 0081 0F       		.uleb128 0xf
 19238 0082 00       		.byte	0
 19239 0083 0B       		.uleb128 0xb
 19240 0084 0B       		.uleb128 0xb
 19241 0085 49       		.uleb128 0x49
ARM GAS  C:\Users\mathi\AppData\Local\Temp\cc0ZaFXf.s 			page 344


 19242 0086 13       		.uleb128 0x13
 19243 0087 00       		.byte	0
 19244 0088 00       		.byte	0
 19245 0089 0C       		.uleb128 0xc
 19246 008a 13       		.uleb128 0x13
 19247 008b 01       		.byte	0x1
 19248 008c 03       		.uleb128 0x3
 19249 008d 0E       		.uleb128 0xe
 19250 008e 0B       		.uleb128 0xb
 19251 008f 0B       		.uleb128 0xb
 19252 0090 3A       		.uleb128 0x3a
 19253 0091 0B       		.uleb128 0xb
 19254 0092 3B       		.uleb128 0x3b
 19255 0093 05       		.uleb128 0x5
 19256 0094 01       		.uleb128 0x1
 19257 0095 13       		.uleb128 0x13
 19258 0096 00       		.byte	0
 19259 0097 00       		.byte	0
 19260 0098 0D       		.uleb128 0xd
 19261 0099 15       		.uleb128 0x15
 19262 009a 01       		.byte	0x1
 19263 009b 27       		.uleb128 0x27
 19264 009c 19       		.uleb128 0x19
 19265 009d 01       		.uleb128 0x1
 19266 009e 13       		.uleb128 0x13
 19267 009f 00       		.byte	0
 19268 00a0 00       		.byte	0
 19269 00a1 0E       		.uleb128 0xe
 19270 00a2 05       		.uleb128 0x5
 19271 00a3 00       		.byte	0
 19272 00a4 49       		.uleb128 0x49
 19273 00a5 13       		.uleb128 0x13
 19274 00a6 00       		.byte	0
 19275 00a7 00       		.byte	0
 19276 00a8 0F       		.uleb128 0xf
 19277 00a9 0F       		.uleb128 0xf
 19278 00aa 00       		.byte	0
 19279 00ab 0B       		.uleb128 0xb
 19280 00ac 0B       		.uleb128 0xb
 19281 00ad 00       		.byte	0
 19282 00ae 00       		.byte	0
 19283 00af 10       		.uleb128 0x10
 19284 00b0 13       		.uleb128 0x13
 19285 00b1 01       		.byte	0x1
 19286 00b2 03       		.uleb128 0x3
 19287 00b3 0E       		.uleb128 0xe
 19288 00b4 0B       		.uleb128 0xb
 19289 00b5 05       		.uleb128 0x5
 19290 00b6 3A       		.uleb128 0x3a
 19291 00b7 0B       		.uleb128 0xb
 19292 00b8 3B       		.uleb128 0x3b
 19293 00b9 05       		.uleb128 0x5
 19294 00ba 01       		.uleb128 0x1
 19295 00bb 13       		.uleb128 0x13
 19296 00bc 00       		.byte	0
 19297 00bd 00       		.byte	0
 19298 00be 11       		.uleb128 0x11
ARM GAS  C:\Users\mathi\AppData\Local\Temp\cc0ZaFXf.s 			page 345


 19299 00bf 0D       		.uleb128 0xd
 19300 00c0 00       		.byte	0
 19301 00c1 03       		.uleb128 0x3
 19302 00c2 0E       		.uleb128 0xe
 19303 00c3 3A       		.uleb128 0x3a
 19304 00c4 0B       		.uleb128 0xb
 19305 00c5 3B       		.uleb128 0x3b
 19306 00c6 05       		.uleb128 0x5
 19307 00c7 49       		.uleb128 0x49
 19308 00c8 13       		.uleb128 0x13
 19309 00c9 38       		.uleb128 0x38
 19310 00ca 05       		.uleb128 0x5
 19311 00cb 00       		.byte	0
 19312 00cc 00       		.byte	0
 19313 00cd 12       		.uleb128 0x12
 19314 00ce 0D       		.uleb128 0xd
 19315 00cf 00       		.byte	0
 19316 00d0 03       		.uleb128 0x3
 19317 00d1 08       		.uleb128 0x8
 19318 00d2 3A       		.uleb128 0x3a
 19319 00d3 0B       		.uleb128 0xb
 19320 00d4 3B       		.uleb128 0x3b
 19321 00d5 05       		.uleb128 0x5
 19322 00d6 49       		.uleb128 0x49
 19323 00d7 13       		.uleb128 0x13
 19324 00d8 38       		.uleb128 0x38
 19325 00d9 05       		.uleb128 0x5
 19326 00da 00       		.byte	0
 19327 00db 00       		.byte	0
 19328 00dc 13       		.uleb128 0x13
 19329 00dd 01       		.uleb128 0x1
 19330 00de 01       		.byte	0x1
 19331 00df 49       		.uleb128 0x49
 19332 00e0 13       		.uleb128 0x13
 19333 00e1 01       		.uleb128 0x1
 19334 00e2 13       		.uleb128 0x13
 19335 00e3 00       		.byte	0
 19336 00e4 00       		.byte	0
 19337 00e5 14       		.uleb128 0x14
 19338 00e6 21       		.uleb128 0x21
 19339 00e7 00       		.byte	0
 19340 00e8 49       		.uleb128 0x49
 19341 00e9 13       		.uleb128 0x13
 19342 00ea 2F       		.uleb128 0x2f
 19343 00eb 0B       		.uleb128 0xb
 19344 00ec 00       		.byte	0
 19345 00ed 00       		.byte	0
 19346 00ee 15       		.uleb128 0x15
 19347 00ef 34       		.uleb128 0x34
 19348 00f0 00       		.byte	0
 19349 00f1 03       		.uleb128 0x3
 19350 00f2 0E       		.uleb128 0xe
 19351 00f3 3A       		.uleb128 0x3a
 19352 00f4 0B       		.uleb128 0xb
 19353 00f5 3B       		.uleb128 0x3b
 19354 00f6 05       		.uleb128 0x5
 19355 00f7 49       		.uleb128 0x49
ARM GAS  C:\Users\mathi\AppData\Local\Temp\cc0ZaFXf.s 			page 346


 19356 00f8 13       		.uleb128 0x13
 19357 00f9 3F       		.uleb128 0x3f
 19358 00fa 19       		.uleb128 0x19
 19359 00fb 3C       		.uleb128 0x3c
 19360 00fc 19       		.uleb128 0x19
 19361 00fd 00       		.byte	0
 19362 00fe 00       		.byte	0
 19363 00ff 16       		.uleb128 0x16
 19364 0100 34       		.uleb128 0x34
 19365 0101 00       		.byte	0
 19366 0102 03       		.uleb128 0x3
 19367 0103 0E       		.uleb128 0xe
 19368 0104 3A       		.uleb128 0x3a
 19369 0105 0B       		.uleb128 0xb
 19370 0106 3B       		.uleb128 0x3b
 19371 0107 0B       		.uleb128 0xb
 19372 0108 49       		.uleb128 0x49
 19373 0109 13       		.uleb128 0x13
 19374 010a 3F       		.uleb128 0x3f
 19375 010b 19       		.uleb128 0x19
 19376 010c 3C       		.uleb128 0x3c
 19377 010d 19       		.uleb128 0x19
 19378 010e 00       		.byte	0
 19379 010f 00       		.byte	0
 19380 0110 17       		.uleb128 0x17
 19381 0111 13       		.uleb128 0x13
 19382 0112 01       		.byte	0x1
 19383 0113 0B       		.uleb128 0xb
 19384 0114 0B       		.uleb128 0xb
 19385 0115 3A       		.uleb128 0x3a
 19386 0116 0B       		.uleb128 0xb
 19387 0117 3B       		.uleb128 0x3b
 19388 0118 0B       		.uleb128 0xb
 19389 0119 01       		.uleb128 0x1
 19390 011a 13       		.uleb128 0x13
 19391 011b 00       		.byte	0
 19392 011c 00       		.byte	0
 19393 011d 18       		.uleb128 0x18
 19394 011e 0D       		.uleb128 0xd
 19395 011f 00       		.byte	0
 19396 0120 03       		.uleb128 0x3
 19397 0121 08       		.uleb128 0x8
 19398 0122 3A       		.uleb128 0x3a
 19399 0123 0B       		.uleb128 0xb
 19400 0124 3B       		.uleb128 0x3b
 19401 0125 0B       		.uleb128 0xb
 19402 0126 49       		.uleb128 0x49
 19403 0127 13       		.uleb128 0x13
 19404 0128 38       		.uleb128 0x38
 19405 0129 0B       		.uleb128 0xb
 19406 012a 00       		.byte	0
 19407 012b 00       		.byte	0
 19408 012c 19       		.uleb128 0x19
 19409 012d 13       		.uleb128 0x13
 19410 012e 01       		.byte	0x1
 19411 012f 0B       		.uleb128 0xb
 19412 0130 0B       		.uleb128 0xb
ARM GAS  C:\Users\mathi\AppData\Local\Temp\cc0ZaFXf.s 			page 347


 19413 0131 3A       		.uleb128 0x3a
 19414 0132 0B       		.uleb128 0xb
 19415 0133 3B       		.uleb128 0x3b
 19416 0134 05       		.uleb128 0x5
 19417 0135 01       		.uleb128 0x1
 19418 0136 13       		.uleb128 0x13
 19419 0137 00       		.byte	0
 19420 0138 00       		.byte	0
 19421 0139 1A       		.uleb128 0x1a
 19422 013a 16       		.uleb128 0x16
 19423 013b 00       		.byte	0
 19424 013c 03       		.uleb128 0x3
 19425 013d 0E       		.uleb128 0xe
 19426 013e 3A       		.uleb128 0x3a
 19427 013f 0B       		.uleb128 0xb
 19428 0140 3B       		.uleb128 0x3b
 19429 0141 05       		.uleb128 0x5
 19430 0142 49       		.uleb128 0x49
 19431 0143 13       		.uleb128 0x13
 19432 0144 00       		.byte	0
 19433 0145 00       		.byte	0
 19434 0146 1B       		.uleb128 0x1b
 19435 0147 13       		.uleb128 0x13
 19436 0148 01       		.byte	0x1
 19437 0149 0B       		.uleb128 0xb
 19438 014a 05       		.uleb128 0x5
 19439 014b 3A       		.uleb128 0x3a
 19440 014c 0B       		.uleb128 0xb
 19441 014d 3B       		.uleb128 0x3b
 19442 014e 05       		.uleb128 0x5
 19443 014f 01       		.uleb128 0x1
 19444 0150 13       		.uleb128 0x13
 19445 0151 00       		.byte	0
 19446 0152 00       		.byte	0
 19447 0153 1C       		.uleb128 0x1c
 19448 0154 13       		.uleb128 0x13
 19449 0155 01       		.byte	0x1
 19450 0156 0B       		.uleb128 0xb
 19451 0157 05       		.uleb128 0x5
 19452 0158 3A       		.uleb128 0x3a
 19453 0159 0B       		.uleb128 0xb
 19454 015a 3B       		.uleb128 0x3b
 19455 015b 0B       		.uleb128 0xb
 19456 015c 01       		.uleb128 0x1
 19457 015d 13       		.uleb128 0x13
 19458 015e 00       		.byte	0
 19459 015f 00       		.byte	0
 19460 0160 1D       		.uleb128 0x1d
 19461 0161 17       		.uleb128 0x17
 19462 0162 01       		.byte	0x1
 19463 0163 0B       		.uleb128 0xb
 19464 0164 0B       		.uleb128 0xb
 19465 0165 3A       		.uleb128 0x3a
 19466 0166 0B       		.uleb128 0xb
 19467 0167 3B       		.uleb128 0x3b
 19468 0168 0B       		.uleb128 0xb
 19469 0169 01       		.uleb128 0x1
ARM GAS  C:\Users\mathi\AppData\Local\Temp\cc0ZaFXf.s 			page 348


 19470 016a 13       		.uleb128 0x13
 19471 016b 00       		.byte	0
 19472 016c 00       		.byte	0
 19473 016d 1E       		.uleb128 0x1e
 19474 016e 0D       		.uleb128 0xd
 19475 016f 00       		.byte	0
 19476 0170 03       		.uleb128 0x3
 19477 0171 0E       		.uleb128 0xe
 19478 0172 3A       		.uleb128 0x3a
 19479 0173 0B       		.uleb128 0xb
 19480 0174 3B       		.uleb128 0x3b
 19481 0175 05       		.uleb128 0x5
 19482 0176 49       		.uleb128 0x49
 19483 0177 13       		.uleb128 0x13
 19484 0178 00       		.byte	0
 19485 0179 00       		.byte	0
 19486 017a 1F       		.uleb128 0x1f
 19487 017b 34       		.uleb128 0x34
 19488 017c 00       		.byte	0
 19489 017d 03       		.uleb128 0x3
 19490 017e 08       		.uleb128 0x8
 19491 017f 3A       		.uleb128 0x3a
 19492 0180 0B       		.uleb128 0xb
 19493 0181 3B       		.uleb128 0x3b
 19494 0182 05       		.uleb128 0x5
 19495 0183 49       		.uleb128 0x49
 19496 0184 13       		.uleb128 0x13
 19497 0185 3F       		.uleb128 0x3f
 19498 0186 19       		.uleb128 0x19
 19499 0187 3C       		.uleb128 0x3c
 19500 0188 19       		.uleb128 0x19
 19501 0189 00       		.byte	0
 19502 018a 00       		.byte	0
 19503 018b 20       		.uleb128 0x20
 19504 018c 15       		.uleb128 0x15
 19505 018d 01       		.byte	0x1
 19506 018e 27       		.uleb128 0x27
 19507 018f 19       		.uleb128 0x19
 19508 0190 49       		.uleb128 0x49
 19509 0191 13       		.uleb128 0x13
 19510 0192 01       		.uleb128 0x1
 19511 0193 13       		.uleb128 0x13
 19512 0194 00       		.byte	0
 19513 0195 00       		.byte	0
 19514 0196 21       		.uleb128 0x21
 19515 0197 04       		.uleb128 0x4
 19516 0198 01       		.byte	0x1
 19517 0199 3E       		.uleb128 0x3e
 19518 019a 0B       		.uleb128 0xb
 19519 019b 0B       		.uleb128 0xb
 19520 019c 0B       		.uleb128 0xb
 19521 019d 49       		.uleb128 0x49
 19522 019e 13       		.uleb128 0x13
 19523 019f 3A       		.uleb128 0x3a
 19524 01a0 0B       		.uleb128 0xb
 19525 01a1 3B       		.uleb128 0x3b
 19526 01a2 0B       		.uleb128 0xb
ARM GAS  C:\Users\mathi\AppData\Local\Temp\cc0ZaFXf.s 			page 349


 19527 01a3 01       		.uleb128 0x1
 19528 01a4 13       		.uleb128 0x13
 19529 01a5 00       		.byte	0
 19530 01a6 00       		.byte	0
 19531 01a7 22       		.uleb128 0x22
 19532 01a8 28       		.uleb128 0x28
 19533 01a9 00       		.byte	0
 19534 01aa 03       		.uleb128 0x3
 19535 01ab 0E       		.uleb128 0xe
 19536 01ac 1C       		.uleb128 0x1c
 19537 01ad 0B       		.uleb128 0xb
 19538 01ae 00       		.byte	0
 19539 01af 00       		.byte	0
 19540 01b0 23       		.uleb128 0x23
 19541 01b1 0D       		.uleb128 0xd
 19542 01b2 00       		.byte	0
 19543 01b3 03       		.uleb128 0x3
 19544 01b4 08       		.uleb128 0x8
 19545 01b5 3A       		.uleb128 0x3a
 19546 01b6 0B       		.uleb128 0xb
 19547 01b7 3B       		.uleb128 0x3b
 19548 01b8 0B       		.uleb128 0xb
 19549 01b9 49       		.uleb128 0x49
 19550 01ba 13       		.uleb128 0x13
 19551 01bb 00       		.byte	0
 19552 01bc 00       		.byte	0
 19553 01bd 24       		.uleb128 0x24
 19554 01be 04       		.uleb128 0x4
 19555 01bf 01       		.byte	0x1
 19556 01c0 3E       		.uleb128 0x3e
 19557 01c1 0B       		.uleb128 0xb
 19558 01c2 0B       		.uleb128 0xb
 19559 01c3 0B       		.uleb128 0xb
 19560 01c4 49       		.uleb128 0x49
 19561 01c5 13       		.uleb128 0x13
 19562 01c6 3A       		.uleb128 0x3a
 19563 01c7 0B       		.uleb128 0xb
 19564 01c8 3B       		.uleb128 0x3b
 19565 01c9 05       		.uleb128 0x5
 19566 01ca 01       		.uleb128 0x1
 19567 01cb 13       		.uleb128 0x13
 19568 01cc 00       		.byte	0
 19569 01cd 00       		.byte	0
 19570 01ce 25       		.uleb128 0x25
 19571 01cf 26       		.uleb128 0x26
 19572 01d0 00       		.byte	0
 19573 01d1 00       		.byte	0
 19574 01d2 00       		.byte	0
 19575 01d3 26       		.uleb128 0x26
 19576 01d4 13       		.uleb128 0x13
 19577 01d5 01       		.byte	0x1
 19578 01d6 0B       		.uleb128 0xb
 19579 01d7 06       		.uleb128 0x6
 19580 01d8 3A       		.uleb128 0x3a
 19581 01d9 0B       		.uleb128 0xb
 19582 01da 3B       		.uleb128 0x3b
 19583 01db 0B       		.uleb128 0xb
ARM GAS  C:\Users\mathi\AppData\Local\Temp\cc0ZaFXf.s 			page 350


 19584 01dc 01       		.uleb128 0x1
 19585 01dd 13       		.uleb128 0x13
 19586 01de 00       		.byte	0
 19587 01df 00       		.byte	0
 19588 01e0 27       		.uleb128 0x27
 19589 01e1 0D       		.uleb128 0xd
 19590 01e2 00       		.byte	0
 19591 01e3 03       		.uleb128 0x3
 19592 01e4 0E       		.uleb128 0xe
 19593 01e5 3A       		.uleb128 0x3a
 19594 01e6 0B       		.uleb128 0xb
 19595 01e7 3B       		.uleb128 0x3b
 19596 01e8 0B       		.uleb128 0xb
 19597 01e9 49       		.uleb128 0x49
 19598 01ea 13       		.uleb128 0x13
 19599 01eb 38       		.uleb128 0x38
 19600 01ec 05       		.uleb128 0x5
 19601 01ed 00       		.byte	0
 19602 01ee 00       		.byte	0
 19603 01ef 28       		.uleb128 0x28
 19604 01f0 0D       		.uleb128 0xd
 19605 01f1 00       		.byte	0
 19606 01f2 03       		.uleb128 0x3
 19607 01f3 08       		.uleb128 0x8
 19608 01f4 3A       		.uleb128 0x3a
 19609 01f5 0B       		.uleb128 0xb
 19610 01f6 3B       		.uleb128 0x3b
 19611 01f7 0B       		.uleb128 0xb
 19612 01f8 49       		.uleb128 0x49
 19613 01f9 13       		.uleb128 0x13
 19614 01fa 38       		.uleb128 0x38
 19615 01fb 05       		.uleb128 0x5
 19616 01fc 00       		.byte	0
 19617 01fd 00       		.byte	0
 19618 01fe 29       		.uleb128 0x29
 19619 01ff 21       		.uleb128 0x21
 19620 0200 00       		.byte	0
 19621 0201 49       		.uleb128 0x49
 19622 0202 13       		.uleb128 0x13
 19623 0203 2F       		.uleb128 0x2f
 19624 0204 05       		.uleb128 0x5
 19625 0205 00       		.byte	0
 19626 0206 00       		.byte	0
 19627 0207 2A       		.uleb128 0x2a
 19628 0208 0D       		.uleb128 0xd
 19629 0209 00       		.byte	0
 19630 020a 03       		.uleb128 0x3
 19631 020b 0E       		.uleb128 0xe
 19632 020c 3A       		.uleb128 0x3a
 19633 020d 0B       		.uleb128 0xb
 19634 020e 3B       		.uleb128 0x3b
 19635 020f 0B       		.uleb128 0xb
 19636 0210 49       		.uleb128 0x49
 19637 0211 13       		.uleb128 0x13
 19638 0212 00       		.byte	0
 19639 0213 00       		.byte	0
 19640 0214 2B       		.uleb128 0x2b
ARM GAS  C:\Users\mathi\AppData\Local\Temp\cc0ZaFXf.s 			page 351


 19641 0215 17       		.uleb128 0x17
 19642 0216 01       		.byte	0x1
 19643 0217 0B       		.uleb128 0xb
 19644 0218 0B       		.uleb128 0xb
 19645 0219 3A       		.uleb128 0x3a
 19646 021a 0B       		.uleb128 0xb
 19647 021b 3B       		.uleb128 0x3b
 19648 021c 05       		.uleb128 0x5
 19649 021d 01       		.uleb128 0x1
 19650 021e 13       		.uleb128 0x13
 19651 021f 00       		.byte	0
 19652 0220 00       		.byte	0
 19653 0221 2C       		.uleb128 0x2c
 19654 0222 13       		.uleb128 0x13
 19655 0223 00       		.byte	0
 19656 0224 03       		.uleb128 0x3
 19657 0225 0E       		.uleb128 0xe
 19658 0226 3C       		.uleb128 0x3c
 19659 0227 19       		.uleb128 0x19
 19660 0228 00       		.byte	0
 19661 0229 00       		.byte	0
 19662 022a 2D       		.uleb128 0x2d
 19663 022b 13       		.uleb128 0x13
 19664 022c 01       		.byte	0x1
 19665 022d 03       		.uleb128 0x3
 19666 022e 0E       		.uleb128 0xe
 19667 022f 0B       		.uleb128 0xb
 19668 0230 05       		.uleb128 0x5
 19669 0231 3A       		.uleb128 0x3a
 19670 0232 0B       		.uleb128 0xb
 19671 0233 3B       		.uleb128 0x3b
 19672 0234 0B       		.uleb128 0xb
 19673 0235 01       		.uleb128 0x1
 19674 0236 13       		.uleb128 0x13
 19675 0237 00       		.byte	0
 19676 0238 00       		.byte	0
 19677 0239 2E       		.uleb128 0x2e
 19678 023a 15       		.uleb128 0x15
 19679 023b 00       		.byte	0
 19680 023c 27       		.uleb128 0x27
 19681 023d 19       		.uleb128 0x19
 19682 023e 00       		.byte	0
 19683 023f 00       		.byte	0
 19684 0240 2F       		.uleb128 0x2f
 19685 0241 34       		.uleb128 0x34
 19686 0242 00       		.byte	0
 19687 0243 03       		.uleb128 0x3
 19688 0244 08       		.uleb128 0x8
 19689 0245 3A       		.uleb128 0x3a
 19690 0246 0B       		.uleb128 0xb
 19691 0247 3B       		.uleb128 0x3b
 19692 0248 0B       		.uleb128 0xb
 19693 0249 49       		.uleb128 0x49
 19694 024a 13       		.uleb128 0x13
 19695 024b 3F       		.uleb128 0x3f
 19696 024c 19       		.uleb128 0x19
 19697 024d 3C       		.uleb128 0x3c
ARM GAS  C:\Users\mathi\AppData\Local\Temp\cc0ZaFXf.s 			page 352


 19698 024e 19       		.uleb128 0x19
 19699 024f 00       		.byte	0
 19700 0250 00       		.byte	0
 19701 0251 30       		.uleb128 0x30
 19702 0252 21       		.uleb128 0x21
 19703 0253 00       		.byte	0
 19704 0254 00       		.byte	0
 19705 0255 00       		.byte	0
 19706 0256 31       		.uleb128 0x31
 19707 0257 34       		.uleb128 0x34
 19708 0258 00       		.byte	0
 19709 0259 03       		.uleb128 0x3
 19710 025a 0E       		.uleb128 0xe
 19711 025b 3A       		.uleb128 0x3a
 19712 025c 0B       		.uleb128 0xb
 19713 025d 3B       		.uleb128 0x3b
 19714 025e 0B       		.uleb128 0xb
 19715 025f 49       		.uleb128 0x49
 19716 0260 13       		.uleb128 0x13
 19717 0261 3F       		.uleb128 0x3f
 19718 0262 19       		.uleb128 0x19
 19719 0263 02       		.uleb128 0x2
 19720 0264 18       		.uleb128 0x18
 19721 0265 00       		.byte	0
 19722 0266 00       		.byte	0
 19723 0267 32       		.uleb128 0x32
 19724 0268 34       		.uleb128 0x34
 19725 0269 00       		.byte	0
 19726 026a 03       		.uleb128 0x3
 19727 026b 08       		.uleb128 0x8
 19728 026c 3A       		.uleb128 0x3a
 19729 026d 0B       		.uleb128 0xb
 19730 026e 3B       		.uleb128 0x3b
 19731 026f 0B       		.uleb128 0xb
 19732 0270 49       		.uleb128 0x49
 19733 0271 13       		.uleb128 0x13
 19734 0272 3F       		.uleb128 0x3f
 19735 0273 19       		.uleb128 0x19
 19736 0274 02       		.uleb128 0x2
 19737 0275 18       		.uleb128 0x18
 19738 0276 00       		.byte	0
 19739 0277 00       		.byte	0
 19740 0278 33       		.uleb128 0x33
 19741 0279 2E       		.uleb128 0x2e
 19742 027a 01       		.byte	0x1
 19743 027b 3F       		.uleb128 0x3f
 19744 027c 19       		.uleb128 0x19
 19745 027d 03       		.uleb128 0x3
 19746 027e 0E       		.uleb128 0xe
 19747 027f 3A       		.uleb128 0x3a
 19748 0280 0B       		.uleb128 0xb
 19749 0281 3B       		.uleb128 0x3b
 19750 0282 0B       		.uleb128 0xb
 19751 0283 27       		.uleb128 0x27
 19752 0284 19       		.uleb128 0x19
 19753 0285 49       		.uleb128 0x49
 19754 0286 13       		.uleb128 0x13
ARM GAS  C:\Users\mathi\AppData\Local\Temp\cc0ZaFXf.s 			page 353


 19755 0287 11       		.uleb128 0x11
 19756 0288 01       		.uleb128 0x1
 19757 0289 12       		.uleb128 0x12
 19758 028a 06       		.uleb128 0x6
 19759 028b 40       		.uleb128 0x40
 19760 028c 18       		.uleb128 0x18
 19761 028d 9742     		.uleb128 0x2117
 19762 028f 19       		.uleb128 0x19
 19763 0290 01       		.uleb128 0x1
 19764 0291 13       		.uleb128 0x13
 19765 0292 00       		.byte	0
 19766 0293 00       		.byte	0
 19767 0294 34       		.uleb128 0x34
 19768 0295 34       		.uleb128 0x34
 19769 0296 00       		.byte	0
 19770 0297 03       		.uleb128 0x3
 19771 0298 08       		.uleb128 0x8
 19772 0299 3A       		.uleb128 0x3a
 19773 029a 0B       		.uleb128 0xb
 19774 029b 3B       		.uleb128 0x3b
 19775 029c 0B       		.uleb128 0xb
 19776 029d 49       		.uleb128 0x49
 19777 029e 13       		.uleb128 0x13
 19778 029f 02       		.uleb128 0x2
 19779 02a0 18       		.uleb128 0x18
 19780 02a1 00       		.byte	0
 19781 02a2 00       		.byte	0
 19782 02a3 35       		.uleb128 0x35
 19783 02a4 34       		.uleb128 0x34
 19784 02a5 00       		.byte	0
 19785 02a6 03       		.uleb128 0x3
 19786 02a7 0E       		.uleb128 0xe
 19787 02a8 3A       		.uleb128 0x3a
 19788 02a9 0B       		.uleb128 0xb
 19789 02aa 3B       		.uleb128 0x3b
 19790 02ab 0B       		.uleb128 0xb
 19791 02ac 49       		.uleb128 0x49
 19792 02ad 13       		.uleb128 0x13
 19793 02ae 02       		.uleb128 0x2
 19794 02af 18       		.uleb128 0x18
 19795 02b0 00       		.byte	0
 19796 02b1 00       		.byte	0
 19797 02b2 36       		.uleb128 0x36
 19798 02b3 34       		.uleb128 0x34
 19799 02b4 00       		.byte	0
 19800 02b5 03       		.uleb128 0x3
 19801 02b6 08       		.uleb128 0x8
 19802 02b7 3A       		.uleb128 0x3a
 19803 02b8 0B       		.uleb128 0xb
 19804 02b9 3B       		.uleb128 0x3b
 19805 02ba 0B       		.uleb128 0xb
 19806 02bb 49       		.uleb128 0x49
 19807 02bc 13       		.uleb128 0x13
 19808 02bd 00       		.byte	0
 19809 02be 00       		.byte	0
 19810 02bf 37       		.uleb128 0x37
 19811 02c0 34       		.uleb128 0x34
ARM GAS  C:\Users\mathi\AppData\Local\Temp\cc0ZaFXf.s 			page 354


 19812 02c1 00       		.byte	0
 19813 02c2 03       		.uleb128 0x3
 19814 02c3 08       		.uleb128 0x8
 19815 02c4 3A       		.uleb128 0x3a
 19816 02c5 0B       		.uleb128 0xb
 19817 02c6 3B       		.uleb128 0x3b
 19818 02c7 0B       		.uleb128 0xb
 19819 02c8 49       		.uleb128 0x49
 19820 02c9 13       		.uleb128 0x13
 19821 02ca 02       		.uleb128 0x2
 19822 02cb 17       		.uleb128 0x17
 19823 02cc 00       		.byte	0
 19824 02cd 00       		.byte	0
 19825 02ce 38       		.uleb128 0x38
 19826 02cf 34       		.uleb128 0x34
 19827 02d0 00       		.byte	0
 19828 02d1 03       		.uleb128 0x3
 19829 02d2 0E       		.uleb128 0xe
 19830 02d3 3A       		.uleb128 0x3a
 19831 02d4 0B       		.uleb128 0xb
 19832 02d5 3B       		.uleb128 0x3b
 19833 02d6 0B       		.uleb128 0xb
 19834 02d7 49       		.uleb128 0x49
 19835 02d8 13       		.uleb128 0x13
 19836 02d9 02       		.uleb128 0x2
 19837 02da 17       		.uleb128 0x17
 19838 02db 00       		.byte	0
 19839 02dc 00       		.byte	0
 19840 02dd 39       		.uleb128 0x39
 19841 02de 0B       		.uleb128 0xb
 19842 02df 01       		.byte	0x1
 19843 02e0 11       		.uleb128 0x11
 19844 02e1 01       		.uleb128 0x1
 19845 02e2 12       		.uleb128 0x12
 19846 02e3 06       		.uleb128 0x6
 19847 02e4 01       		.uleb128 0x1
 19848 02e5 13       		.uleb128 0x13
 19849 02e6 00       		.byte	0
 19850 02e7 00       		.byte	0
 19851 02e8 3A       		.uleb128 0x3a
 19852 02e9 34       		.uleb128 0x34
 19853 02ea 00       		.byte	0
 19854 02eb 03       		.uleb128 0x3
 19855 02ec 08       		.uleb128 0x8
 19856 02ed 3A       		.uleb128 0x3a
 19857 02ee 0B       		.uleb128 0xb
 19858 02ef 3B       		.uleb128 0x3b
 19859 02f0 05       		.uleb128 0x5
 19860 02f1 49       		.uleb128 0x49
 19861 02f2 13       		.uleb128 0x13
 19862 02f3 02       		.uleb128 0x2
 19863 02f4 17       		.uleb128 0x17
 19864 02f5 00       		.byte	0
 19865 02f6 00       		.byte	0
 19866 02f7 3B       		.uleb128 0x3b
 19867 02f8 898201   		.uleb128 0x4109
 19868 02fb 00       		.byte	0
ARM GAS  C:\Users\mathi\AppData\Local\Temp\cc0ZaFXf.s 			page 355


 19869 02fc 11       		.uleb128 0x11
 19870 02fd 01       		.uleb128 0x1
 19871 02fe 31       		.uleb128 0x31
 19872 02ff 13       		.uleb128 0x13
 19873 0300 00       		.byte	0
 19874 0301 00       		.byte	0
 19875 0302 3C       		.uleb128 0x3c
 19876 0303 0B       		.uleb128 0xb
 19877 0304 01       		.byte	0x1
 19878 0305 55       		.uleb128 0x55
 19879 0306 17       		.uleb128 0x17
 19880 0307 01       		.uleb128 0x1
 19881 0308 13       		.uleb128 0x13
 19882 0309 00       		.byte	0
 19883 030a 00       		.byte	0
 19884 030b 3D       		.uleb128 0x3d
 19885 030c 898201   		.uleb128 0x4109
 19886 030f 01       		.byte	0x1
 19887 0310 11       		.uleb128 0x11
 19888 0311 01       		.uleb128 0x1
 19889 0312 31       		.uleb128 0x31
 19890 0313 13       		.uleb128 0x13
 19891 0314 01       		.uleb128 0x1
 19892 0315 13       		.uleb128 0x13
 19893 0316 00       		.byte	0
 19894 0317 00       		.byte	0
 19895 0318 3E       		.uleb128 0x3e
 19896 0319 8A8201   		.uleb128 0x410a
 19897 031c 00       		.byte	0
 19898 031d 02       		.uleb128 0x2
 19899 031e 18       		.uleb128 0x18
 19900 031f 9142     		.uleb128 0x2111
 19901 0321 18       		.uleb128 0x18
 19902 0322 00       		.byte	0
 19903 0323 00       		.byte	0
 19904 0324 3F       		.uleb128 0x3f
 19905 0325 2E       		.uleb128 0x2e
 19906 0326 00       		.byte	0
 19907 0327 3F       		.uleb128 0x3f
 19908 0328 19       		.uleb128 0x19
 19909 0329 3C       		.uleb128 0x3c
 19910 032a 19       		.uleb128 0x19
 19911 032b 6E       		.uleb128 0x6e
 19912 032c 0E       		.uleb128 0xe
 19913 032d 03       		.uleb128 0x3
 19914 032e 0E       		.uleb128 0xe
 19915 032f 3A       		.uleb128 0x3a
 19916 0330 0B       		.uleb128 0xb
 19917 0331 3B       		.uleb128 0x3b
 19918 0332 0B       		.uleb128 0xb
 19919 0333 00       		.byte	0
 19920 0334 00       		.byte	0
 19921 0335 40       		.uleb128 0x40
 19922 0336 2E       		.uleb128 0x2e
 19923 0337 00       		.byte	0
 19924 0338 3F       		.uleb128 0x3f
 19925 0339 19       		.uleb128 0x19
ARM GAS  C:\Users\mathi\AppData\Local\Temp\cc0ZaFXf.s 			page 356


 19926 033a 3C       		.uleb128 0x3c
 19927 033b 19       		.uleb128 0x19
 19928 033c 6E       		.uleb128 0x6e
 19929 033d 0E       		.uleb128 0xe
 19930 033e 03       		.uleb128 0x3
 19931 033f 0E       		.uleb128 0xe
 19932 0340 3A       		.uleb128 0x3a
 19933 0341 0B       		.uleb128 0xb
 19934 0342 3B       		.uleb128 0x3b
 19935 0343 0B       		.uleb128 0xb
 19936 0344 6E       		.uleb128 0x6e
 19937 0345 0E       		.uleb128 0xe
 19938 0346 00       		.byte	0
 19939 0347 00       		.byte	0
 19940 0348 00       		.byte	0
 19941              		.section	.debug_loc,"",%progbits
 19942              	.Ldebug_loc0:
 19943              	.LLST0:
 19944 0000 7A090000 		.4byte	.LVL104
 19945 0004 D8090000 		.4byte	.LVL105
 19946 0008 0600     		.2byte	0x6
 19947 000a 03       		.byte	0x3
 19948 000b 0B000000 		.4byte	accelero.12696+11
 19949 000f 9F       		.byte	0x9f
 19950 0010 00000000 		.4byte	0
 19951 0014 00000000 		.4byte	0
 19952              	.LLST1:
 19953 0018 10000000 		.4byte	.LVL0
 19954 001c C2000000 		.4byte	.LVL14
 19955 0020 0200     		.2byte	0x2
 19956 0022 30       		.byte	0x30
 19957 0023 9F       		.byte	0x9f
 19958 0024 DE000000 		.4byte	.LVL18
 19959 0028 0A010000 		.4byte	.LVL20
 19960 002c 0100     		.2byte	0x1
 19961 002e 56       		.byte	0x56
 19962 002f 0A010000 		.4byte	.LVL20
 19963 0033 62010000 		.4byte	.LVL27
 19964 0037 0200     		.2byte	0x2
 19965 0039 30       		.byte	0x30
 19966 003a 9F       		.byte	0x9f
 19967 003b 30020000 		.4byte	.LVL38
 19968 003f 5C020000 		.4byte	.LVL40
 19969 0043 0100     		.2byte	0x1
 19970 0045 56       		.byte	0x56
 19971 0046 A0020000 		.4byte	.LVL43
 19972 004a 2C040000 		.4byte	.LVL57
 19973 004e 0100     		.2byte	0x1
 19974 0050 56       		.byte	0x56
 19975 0051 F6170000 		.4byte	.LVL342
 19976 0055 12180000 		.4byte	.LVL343
 19977 0059 0100     		.2byte	0x1
 19978 005b 56       		.byte	0x56
 19979 005c 0A190000 		.4byte	.LVL352
 19980 0060 26190000 		.4byte	.LVL356
 19981 0064 0100     		.2byte	0x1
 19982 0066 56       		.byte	0x56
ARM GAS  C:\Users\mathi\AppData\Local\Temp\cc0ZaFXf.s 			page 357


 19983 0067 00000000 		.4byte	0
 19984 006b 00000000 		.4byte	0
 19985              	.LLST2:
 19986 006f 10000000 		.4byte	.LVL0
 19987 0073 C2000000 		.4byte	.LVL14
 19988 0077 0200     		.2byte	0x2
 19989 0079 30       		.byte	0x30
 19990 007a 9F       		.byte	0x9f
 19991 007b E2000000 		.4byte	.LVL19
 19992 007f 0A010000 		.4byte	.LVL20
 19993 0083 0100     		.2byte	0x1
 19994 0085 50       		.byte	0x50
 19995 0086 0A010000 		.4byte	.LVL20
 19996 008a 62010000 		.4byte	.LVL27
 19997 008e 0200     		.2byte	0x2
 19998 0090 30       		.byte	0x30
 19999 0091 9F       		.byte	0x9f
 20000 0092 34020000 		.4byte	.LVL39
 20001 0096 5C020000 		.4byte	.LVL40
 20002 009a 0100     		.2byte	0x1
 20003 009c 50       		.byte	0x50
 20004 009d A0020000 		.4byte	.LVL43
 20005 00a1 AE020000 		.4byte	.LVL44
 20006 00a5 0100     		.2byte	0x1
 20007 00a7 50       		.byte	0x50
 20008 00a8 08030000 		.4byte	.LVL47
 20009 00ac 78030000 		.4byte	.LVL48
 20010 00b0 0100     		.2byte	0x1
 20011 00b2 50       		.byte	0x50
 20012 00b3 8A030000 		.4byte	.LVL50
 20013 00b7 98030000 		.4byte	.LVL51
 20014 00bb 0100     		.2byte	0x1
 20015 00bd 50       		.byte	0x50
 20016 00be AA030000 		.4byte	.LVL54
 20017 00c2 1A040000 		.4byte	.LVL55
 20018 00c6 0100     		.2byte	0x1
 20019 00c8 50       		.byte	0x50
 20020 00c9 F6170000 		.4byte	.LVL342
 20021 00cd 12180000 		.4byte	.LVL343
 20022 00d1 0100     		.2byte	0x1
 20023 00d3 50       		.byte	0x50
 20024 00d4 0A190000 		.4byte	.LVL352
 20025 00d8 0D190000 		.4byte	.LVL353-1
 20026 00dc 0100     		.2byte	0x1
 20027 00de 50       		.byte	0x50
 20028 00df 18190000 		.4byte	.LVL354
 20029 00e3 1B190000 		.4byte	.LVL355-1
 20030 00e7 0100     		.2byte	0x1
 20031 00e9 50       		.byte	0x50
 20032 00ea 00000000 		.4byte	0
 20033 00ee 00000000 		.4byte	0
 20034              	.LLST3:
 20035 00f2 10000000 		.4byte	.LVL0
 20036 00f6 C2000000 		.4byte	.LVL14
 20037 00fa 0200     		.2byte	0x2
 20038 00fc 30       		.byte	0x30
 20039 00fd 9F       		.byte	0x9f
ARM GAS  C:\Users\mathi\AppData\Local\Temp\cc0ZaFXf.s 			page 358


 20040 00fe C2000000 		.4byte	.LVL14
 20041 0102 0A010000 		.4byte	.LVL20
 20042 0106 0100     		.2byte	0x1
 20043 0108 5B       		.byte	0x5b
 20044 0109 0A010000 		.4byte	.LVL20
 20045 010d 62010000 		.4byte	.LVL27
 20046 0111 0200     		.2byte	0x2
 20047 0113 30       		.byte	0x30
 20048 0114 9F       		.byte	0x9f
 20049 0115 62010000 		.4byte	.LVL27
 20050 0119 1C020000 		.4byte	.LVL34
 20051 011d 0100     		.2byte	0x1
 20052 011f 5B       		.byte	0x5b
 20053 0120 1E020000 		.4byte	.LVL35
 20054 0124 AE020000 		.4byte	.LVL44
 20055 0128 0100     		.2byte	0x1
 20056 012a 5B       		.byte	0x5b
 20057 012b AE020000 		.4byte	.LVL44
 20058 012f 08030000 		.4byte	.LVL47
 20059 0133 0100     		.2byte	0x1
 20060 0135 56       		.byte	0x56
 20061 0136 08030000 		.4byte	.LVL47
 20062 013a 98030000 		.4byte	.LVL51
 20063 013e 0100     		.2byte	0x1
 20064 0140 5B       		.byte	0x5b
 20065 0141 98030000 		.4byte	.LVL51
 20066 0145 AA030000 		.4byte	.LVL54
 20067 0149 0100     		.2byte	0x1
 20068 014b 56       		.byte	0x56
 20069 014c AA030000 		.4byte	.LVL54
 20070 0150 3C040000 		.4byte	.LVL58
 20071 0154 0100     		.2byte	0x1
 20072 0156 5B       		.byte	0x5b
 20073 0157 C40B0000 		.4byte	.LVL125
 20074 015b 12180000 		.4byte	.LVL343
 20075 015f 0100     		.2byte	0x1
 20076 0161 5B       		.byte	0x5b
 20077 0162 0A190000 		.4byte	.LVL352
 20078 0166 26190000 		.4byte	.LVL356
 20079 016a 0100     		.2byte	0x1
 20080 016c 5B       		.byte	0x5b
 20081 016d 441A0000 		.4byte	.LVL367
 20082 0171 861A0000 		.4byte	.LVL375
 20083 0175 0100     		.2byte	0x1
 20084 0177 5B       		.byte	0x5b
 20085 0178 921A0000 		.4byte	.LVL377
 20086 017c 78200000 		.4byte	.LFE259
 20087 0180 0100     		.2byte	0x1
 20088 0182 5B       		.byte	0x5b
 20089 0183 00000000 		.4byte	0
 20090 0187 00000000 		.4byte	0
 20091              	.LLST4:
 20092 018b 10000000 		.4byte	.LVL0
 20093 018f 20000000 		.4byte	.LVL3
 20094 0193 0200     		.2byte	0x2
 20095 0195 30       		.byte	0x30
 20096 0196 9F       		.byte	0x9f
ARM GAS  C:\Users\mathi\AppData\Local\Temp\cc0ZaFXf.s 			page 359


 20097 0197 20000000 		.4byte	.LVL3
 20098 019b B0000000 		.4byte	.LVL13
 20099 019f 0200     		.2byte	0x2
 20100 01a1 31       		.byte	0x31
 20101 01a2 9F       		.byte	0x9f
 20102 01a3 0A010000 		.4byte	.LVL20
 20103 01a7 62010000 		.4byte	.LVL27
 20104 01ab 0200     		.2byte	0x2
 20105 01ad 30       		.byte	0x30
 20106 01ae 9F       		.byte	0x9f
 20107 01af 00000000 		.4byte	0
 20108 01b3 00000000 		.4byte	0
 20109              	.LLST5:
 20110 01b7 10000000 		.4byte	.LVL0
 20111 01bb C2000000 		.4byte	.LVL14
 20112 01bf 0200     		.2byte	0x2
 20113 01c1 30       		.byte	0x30
 20114 01c2 9F       		.byte	0x9f
 20115 01c3 0A010000 		.4byte	.LVL20
 20116 01c7 62010000 		.4byte	.LVL27
 20117 01cb 0200     		.2byte	0x2
 20118 01cd 30       		.byte	0x30
 20119 01ce 9F       		.byte	0x9f
 20120 01cf 3E190000 		.4byte	.LVL358
 20121 01d3 A8190000 		.4byte	.LVL359
 20122 01d7 0100     		.2byte	0x1
 20123 01d9 50       		.byte	0x50
 20124 01da 00000000 		.4byte	0
 20125 01de 00000000 		.4byte	0
 20126              	.LLST7:
 20127 01e2 C40B0000 		.4byte	.LVL125
 20128 01e6 D60B0000 		.4byte	.LVL127
 20129 01ea 0100     		.2byte	0x1
 20130 01ec 54       		.byte	0x54
 20131 01ed 00000000 		.4byte	0
 20132 01f1 00000000 		.4byte	0
 20133              	.LLST6:
 20134 01f5 88120000 		.4byte	.LVL236
 20135 01f9 B2120000 		.4byte	.LVL243
 20136 01fd 0200     		.2byte	0x2
 20137 01ff 30       		.byte	0x30
 20138 0200 9F       		.byte	0x9f
 20139 0201 EA1A0000 		.4byte	.LVL384
 20140 0205 141B0000 		.4byte	.LVL391
 20141 0209 0200     		.2byte	0x2
 20142 020b 30       		.byte	0x30
 20143 020c 9F       		.byte	0x9f
 20144 020d 00000000 		.4byte	0
 20145 0211 00000000 		.4byte	0
 20146              		.section	.debug_aranges,"",%progbits
 20147 0000 1C000000 		.4byte	0x1c
 20148 0004 0200     		.2byte	0x2
 20149 0006 00000000 		.4byte	.Ldebug_info0
 20150 000a 04       		.byte	0x4
 20151 000b 00       		.byte	0
 20152 000c 0000     		.2byte	0
 20153 000e 0000     		.2byte	0
ARM GAS  C:\Users\mathi\AppData\Local\Temp\cc0ZaFXf.s 			page 360


 20154 0010 00000000 		.4byte	.LFB259
 20155 0014 78200000 		.4byte	.LFE259-.LFB259
 20156 0018 00000000 		.4byte	0
 20157 001c 00000000 		.4byte	0
 20158              		.section	.debug_ranges,"",%progbits
 20159              	.Ldebug_ranges0:
 20160 0000 E0010000 		.4byte	.LBB2
 20161 0004 14020000 		.4byte	.LBE2
 20162 0008 BC0C0000 		.4byte	.LBB4
 20163 000c F6170000 		.4byte	.LBE4
 20164 0010 441A0000 		.4byte	.LBB5
 20165 0014 861A0000 		.4byte	.LBE5
 20166 0018 921A0000 		.4byte	.LBB6
 20167 001c 78200000 		.4byte	.LBE6
 20168 0020 00000000 		.4byte	0
 20169 0024 00000000 		.4byte	0
 20170 0028 00000000 		.4byte	.LFB259
 20171 002c 78200000 		.4byte	.LFE259
 20172 0030 00000000 		.4byte	0
 20173 0034 00000000 		.4byte	0
 20174              		.section	.debug_line,"",%progbits
 20175              	.Ldebug_line0:
 20176 0000 4F160000 		.section	.debug_str,"MS",%progbits,1
 20176      0200C30C 
 20176      00000201 
 20176      FB0E0D00 
 20176      01010101 
 20177              	.LASF582:
 20178 0000 5553425F 		.ascii	"USB_STOP\000"
 20178      53544F50 
 20178      00
 20179              	.LASF195:
 20180 0009 706F7274 		.ascii	"port_intctx\000"
 20180      5F696E74 
 20180      63747800 
 20181              	.LASF204:
 20182 0015 63685F74 		.ascii	"ch_trace_buffer_t\000"
 20182      72616365 
 20182      5F627566 
 20182      6665725F 
 20182      7400
 20183              	.LASF237:
 20184 0027 63685F70 		.ascii	"ch_ptrsize\000"
 20184      74727369 
 20184      7A6500
 20185              	.LASF763:
 20186 0032 6D657373 		.ascii	"messagebus_watcher_s\000"
 20186      61676562 
 20186      75735F77 
 20186      61746368 
 20186      65725F73 
 20187              	.LASF518:
 20188 0047 6576656E 		.ascii	"event\000"
 20188      7400
 20189              	.LASF860:
 20190 004d 5F6D6272 		.ascii	"_mbrtowc_state\000"
 20190      746F7763 
ARM GAS  C:\Users\mathi\AppData\Local\Temp\cc0ZaFXf.s 			page 361


 20190      5F737461 
 20190      746500
 20191              	.LASF905:
 20192 005c 53414E44 		.ascii	"SANDSTORMS\000"
 20192      53544F52 
 20192      4D5300
 20193              	.LASF368:
 20194 0067 43414E5F 		.ascii	"CAN_STARTING\000"
 20194      53544152 
 20194      54494E47 
 20194      00
 20195              	.LASF926:
 20196 0074 4C45445F 		.ascii	"LED_nbr\000"
 20196      6E627200 
 20197              	.LASF992:
 20198 007c 6765745A 		.ascii	"getZAxisGyro\000"
 20198      41786973 
 20198      4779726F 
 20198      00
 20199              	.LASF725:
 20200 0089 44434D49 		.ascii	"DCMI_ACTIVE_ONESHOT\000"
 20200      5F414354 
 20200      4956455F 
 20200      4F4E4553 
 20200      484F5400 
 20201              	.LASF32:
 20202 009d 6D73675F 		.ascii	"msg_t\000"
 20202      7400
 20203              	.LASF313:
 20204 00a3 61667268 		.ascii	"afrh\000"
 20204      00
 20205              	.LASF461:
 20206 00a8 4F504D4F 		.ascii	"OPMODE_SMBUS_DEVICE\000"
 20206      44455F53 
 20206      4D425553 
 20206      5F444556 
 20206      49434500 
 20207              	.LASF215:
 20208 00bc 6D5F6372 		.ascii	"m_crit_isr\000"
 20208      69745F69 
 20208      737200
 20209              	.LASF961:
 20210 00c7 655F6765 		.ascii	"e_get_steps_left\000"
 20210      745F7374 
 20210      6570735F 
 20210      6C656674 
 20210      00
 20211              	.LASF925:
 20212 00d8 706F7369 		.ascii	"positionl\000"
 20212      74696F6E 
 20212      6C00
 20213              	.LASF924:
 20214 00e2 706F7369 		.ascii	"positionr\000"
 20214      74696F6E 
 20214      7200
 20215              	.LASF948:
 20216 00ec 62617474 		.ascii	"battValue\000"
ARM GAS  C:\Users\mathi\AppData\Local\Temp\cc0ZaFXf.s 			page 362


 20216      56616C75 
 20216      6500
 20217              	.LASF891:
 20218 00f6 76656374 		.ascii	"vect\000"
 20218      00
 20219              	.LASF641:
 20220 00fb 44494550 		.ascii	"DIEPTXF0\000"
 20220      54584630 
 20220      00
 20221              	.LASF717:
 20222 0104 55534244 		.ascii	"USBD1\000"
 20222      3100
 20223              	.LASF367:
 20224 010a 43414E5F 		.ascii	"CAN_STOP\000"
 20224      53544F50 
 20224      00
 20225              	.LASF250:
 20226 0113 63665F6F 		.ascii	"cf_off_time\000"
 20226      66665F74 
 20226      696D6500 
 20227              	.LASF91:
 20228 011f 63685F73 		.ascii	"ch_system_t\000"
 20228      79737465 
 20228      6D5F7400 
 20229              	.LASF1:
 20230 012b 5F5F7569 		.ascii	"__uint8_t\000"
 20230      6E74385F 
 20230      7400
 20231              	.LASF221:
 20232 0135 77747365 		.ascii	"wtsemp\000"
 20232      6D7000
 20233              	.LASF909:
 20234 013c 4D4C5F53 		.ascii	"ML_SIMPLE_PLAY\000"
 20234      494D504C 
 20234      455F504C 
 20234      415900
 20235              	.LASF297:
 20236 014b 5F426F6F 		.ascii	"_Bool\000"
 20236      6C00
 20237              	.LASF409:
 20238 0151 64617461 		.ascii	"datamode\000"
 20238      6D6F6465 
 20238      00
 20239              	.LASF477:
 20240 015a 646D6172 		.ascii	"dmarx\000"
 20240      7800
 20241              	.LASF482:
 20242 0160 4932535F 		.ascii	"I2S_READY\000"
 20242      52454144 
 20242      5900
 20243              	.LASF793:
 20244 016a 5F617465 		.ascii	"_atexit\000"
 20244      78697400 
 20245              	.LASF988:
 20246 0172 655F7561 		.ascii	"e_uart2_sending\000"
 20246      7274325F 
 20246      73656E64 
ARM GAS  C:\Users\mathi\AppData\Local\Temp\cc0ZaFXf.s 			page 363


 20246      696E6700 
 20247              	.LASF1005:
 20248 0182 655F7265 		.ascii	"e_read_acc_spheric\000"
 20248      61645F61 
 20248      63635F73 
 20248      70686572 
 20248      696300
 20249              	.LASF965:
 20250 0195 655F6765 		.ascii	"e_get_ambient_light\000"
 20250      745F616D 
 20250      6269656E 
 20250      745F6C69 
 20250      67687400 
 20251              	.LASF875:
 20252 01a9 6368616E 		.ascii	"changed_cnt\000"
 20252      6765645F 
 20252      636E7400 
 20253              	.LASF872:
 20254 01b5 7375626F 		.ascii	"suboptarg\000"
 20254      70746172 
 20254      6700
 20255              	.LASF357:
 20256 01bf 73717231 		.ascii	"sqr1\000"
 20256      00
 20257              	.LASF760:
 20258 01c4 7075626C 		.ascii	"published\000"
 20258      69736865 
 20258      6400
 20259              	.LASF284:
 20260 01ce 424C4B5F 		.ascii	"BLK_UNINIT\000"
 20260      554E494E 
 20260      495400
 20261              	.LASF489:
 20262 01d9 72785F62 		.ascii	"rx_buffer\000"
 20262      75666665 
 20262      7200
 20263              	.LASF473:
 20264 01e3 6572726F 		.ascii	"errors\000"
 20264      727300
 20265              	.LASF208:
 20266 01ea 776F7273 		.ascii	"worst\000"
 20266      7400
 20267              	.LASF84:
 20268 01f0 76745F73 		.ascii	"vt_systime\000"
 20268      79737469 
 20268      6D6500
 20269              	.LASF150:
 20270 01fb 444F5231 		.ascii	"DOR1\000"
 20270      00
 20271              	.LASF151:
 20272 0200 444F5232 		.ascii	"DOR2\000"
 20272      00
 20273              	.LASF488:
 20274 0205 74785F62 		.ascii	"tx_buffer\000"
 20274      75666665 
 20274      7200
 20275              	.LASF783:
ARM GAS  C:\Users\mathi\AppData\Local\Temp\cc0ZaFXf.s 			page 364


 20276 020f 5F5F746D 		.ascii	"__tm_mon\000"
 20276      5F6D6F6E 
 20276      00
 20277              	.LASF791:
 20278 0218 5F666E74 		.ascii	"_fntypes\000"
 20278      79706573 
 20278      00
 20279              	.LASF230:
 20280 0221 6D5F6E65 		.ascii	"m_next\000"
 20280      787400
 20281              	.LASF317:
 20282 0228 50434461 		.ascii	"PCData\000"
 20282      746100
 20283              	.LASF1009:
 20284 022f 474E5520 		.ascii	"GNU C11 7.2.1 20170904 (release) [ARM/embedded-7-br"
 20284      43313120 
 20284      372E322E 
 20284      31203230 
 20284      31373039 
 20285 0262 616E6368 		.ascii	"anch revision 255204] -mcpu=cortex-m4 -mfloat-abi=h"
 20285      20726576 
 20285      6973696F 
 20285      6E203235 
 20285      35323034 
 20286 0295 61726420 		.ascii	"ard -mfpu=fpv4-sp-d16 -mno-thumb-interwork -mthumb "
 20286      2D6D6670 
 20286      753D6670 
 20286      76342D73 
 20286      702D6431 
 20287 02c8 2D676764 		.ascii	"-ggdb -O3 -fomit-frame-pointer -falign-functions=16"
 20287      62202D4F 
 20287      33202D66 
 20287      6F6D6974 
 20287      2D667261 
 20288 02fb 202D666E 		.ascii	" -fno-strict-aliasing -fstack-protector-all -ffunct"
 20288      6F2D7374 
 20288      72696374 
 20288      2D616C69 
 20288      6173696E 
 20289 032e 696F6E2D 		.ascii	"ion-sections -fdata-sections -fno-common -fsingle-p"
 20289      73656374 
 20289      696F6E73 
 20289      202D6664 
 20289      6174612D 
 20290 0361 72656369 		.ascii	"recision-constant\000"
 20290      73696F6E 
 20290      2D636F6E 
 20290      7374616E 
 20290      7400
 20291              	.LASF821:
 20292 0373 5F696E63 		.ascii	"_inc\000"
 20292      00
 20293              	.LASF794:
 20294 0378 5F696E64 		.ascii	"_ind\000"
 20294      00
 20295              	.LASF180:
 20296 037d 4D41534B 		.ascii	"MASK\000"
ARM GAS  C:\Users\mathi\AppData\Local\Temp\cc0ZaFXf.s 			page 365


 20296      00
 20297              	.LASF342:
 20298 0382 73616D70 		.ascii	"samples\000"
 20298      6C657300 
 20299              	.LASF645:
 20300 038a 47434346 		.ascii	"GCCFG\000"
 20300      4700
 20301              	.LASF894:
 20302 0390 57455F41 		.ascii	"WE_ARE_THE_CHAMPIONS\000"
 20302      52455F54 
 20302      48455F43 
 20302      48414D50 
 20302      494F4E53 
 20303              	.LASF438:
 20304 03a5 42445452 		.ascii	"BDTR\000"
 20304      00
 20305              	.LASF391:
 20306 03aa 7265676D 		.ascii	"regmask\000"
 20306      61736B00 
 20307              	.LASF938:
 20308 03b2 63616D5F 		.ascii	"cam_zoom\000"
 20308      7A6F6F6D 
 20308      00
 20309              	.LASF471:
 20310 03bb 49324343 		.ascii	"I2CConfig\000"
 20310      6F6E6669 
 20310      6700
 20311              	.LASF19:
 20312 03c5 75696E74 		.ascii	"uint16_t\000"
 20312      31365F74 
 20312      00
 20313              	.LASF478:
 20314 03ce 646D6174 		.ascii	"dmatx\000"
 20314      7800
 20315              	.LASF715:
 20316 03d4 736F665F 		.ascii	"sof_cb\000"
 20316      636200
 20317              	.LASF414:
 20318 03db 4558545F 		.ascii	"EXT_ACTIVE\000"
 20318      41435449 
 20318      564500
 20319              	.LASF800:
 20320 03e6 5F666C61 		.ascii	"_flags\000"
 20320      677300
 20321              	.LASF762:
 20322 03ed 6E657874 		.ascii	"next\000"
 20322      00
 20323              	.LASF310:
 20324 03f2 6F737065 		.ascii	"ospeedr\000"
 20324      65647200 
 20325              	.LASF1001:
 20326 03fa 655F6163 		.ascii	"e_acc_calibr\000"
 20326      635F6361 
 20326      6C696272 
 20326      00
 20327              	.LASF648:
 20328 0407 44494550 		.ascii	"DIEPTXF\000"
ARM GAS  C:\Users\mathi\AppData\Local\Temp\cc0ZaFXf.s 			page 366


 20328      54584600 
 20329              	.LASF256:
 20330 040f 656C5F6E 		.ascii	"el_next\000"
 20330      65787400 
 20331              	.LASF915:
 20332 0417 696E636C 		.ascii	"inclination\000"
 20332      696E6174 
 20332      696F6E00 
 20333              	.LASF337:
 20334 0423 4144435F 		.ascii	"ADC_ERR_OVERFLOW\000"
 20334      4552525F 
 20334      4F564552 
 20334      464C4F57 
 20334      00
 20335              	.LASF831:
 20336 0434 5F637674 		.ascii	"_cvtlen\000"
 20336      6C656E00 
 20337              	.LASF914:
 20338 043c 6F726965 		.ascii	"orientation\000"
 20338      6E746174 
 20338      696F6E00 
 20339              	.LASF89:
 20340 0448 6C6F636B 		.ascii	"lock_cnt\000"
 20340      5F636E74 
 20340      00
 20341              	.LASF65:
 20342 0451 63685F74 		.ascii	"ch_threads_queue\000"
 20342      68726561 
 20342      64735F71 
 20342      75657565 
 20342      00
 20343              	.LASF835:
 20344 0462 5F736967 		.ascii	"_sig_func\000"
 20344      5F66756E 
 20344      6300
 20345              	.LASF43:
 20346 046c 705F6E65 		.ascii	"p_newer\000"
 20346      77657200 
 20347              	.LASF658:
 20348 0474 48505254 		.ascii	"HPRT\000"
 20348      00
 20349              	.LASF989:
 20350 0479 655F696E 		.ascii	"e_init_sound\000"
 20350      69745F73 
 20350      6F756E64 
 20350      00
 20351              	.LASF612:
 20352 0486 4843494E 		.ascii	"HCINT\000"
 20352      5400
 20353              	.LASF100:
 20354 048c 534D5052 		.ascii	"SMPR1\000"
 20354      3100
 20355              	.LASF101:
 20356 0492 534D5052 		.ascii	"SMPR2\000"
 20356      3200
 20357              	.LASF247:
 20358 0498 63665F6F 		.ascii	"cf_off_flags\000"
ARM GAS  C:\Users\mathi\AppData\Local\Temp\cc0ZaFXf.s 			page 367


 20358      66665F66 
 20358      6C616773 
 20358      00
 20359              	.LASF813:
 20360 04a5 5F6C6F63 		.ascii	"_lock\000"
 20360      6B00
 20361              	.LASF809:
 20362 04ab 5F6E6275 		.ascii	"_nbuf\000"
 20362      6600
 20363              	.LASF551:
 20364 04b1 5350495F 		.ascii	"SPI_STOP\000"
 20364      53544F50 
 20364      00
 20365              	.LASF505:
 20366 04ba 70776D63 		.ascii	"pwmchnmsk_t\000"
 20366      686E6D73 
 20366      6B5F7400 
 20367              	.LASF893:
 20368 04c6 494D504F 		.ascii	"IMPOSSIBLE_MISSION\000"
 20368      53534942 
 20368      4C455F4D 
 20368      49535349 
 20368      4F4E00
 20369              	.LASF316:
 20370 04d9 50424461 		.ascii	"PBData\000"
 20370      746100
 20371              	.LASF235:
 20372 04e0 63685F73 		.ascii	"ch_size\000"
 20372      697A6500 
 20373              	.LASF722:
 20374 04e8 44434D49 		.ascii	"DCMI_STOP\000"
 20374      5F53544F 
 20374      5000
 20375              	.LASF654:
 20376 04f2 48505458 		.ascii	"HPTXSTS\000"
 20376      53545300 
 20377              	.LASF309:
 20378 04fa 6F747970 		.ascii	"otyper\000"
 20378      657200
 20379              	.LASF300:
 20380 0501 4F545950 		.ascii	"OTYPER\000"
 20380      455200
 20381              	.LASF393:
 20382 0508 64616370 		.ascii	"dacparams_t\000"
 20382      6172616D 
 20382      735F7400 
 20383              	.LASF529:
 20384 0514 5344435F 		.ascii	"SDC_MODE_1BIT\000"
 20384      4D4F4445 
 20384      5F314249 
 20384      5400
 20385              	.LASF610:
 20386 0522 48434348 		.ascii	"HCCHAR\000"
 20386      415200
 20387              	.LASF974:
 20388 0529 655F6361 		.ascii	"e_calibrate_ir\000"
 20388      6C696272 
ARM GAS  C:\Users\mathi\AppData\Local\Temp\cc0ZaFXf.s 			page 368


 20388      6174655F 
 20388      697200
 20389              	.LASF790:
 20390 0538 5F64736F 		.ascii	"_dso_handle\000"
 20390      5F68616E 
 20390      646C6500 
 20391              	.LASF455:
 20392 0544 4932435F 		.ascii	"I2C_ACTIVE_RX\000"
 20392      41435449 
 20392      56455F52 
 20392      5800
 20393              	.LASF38:
 20394 0552 74687265 		.ascii	"thread_t\000"
 20394      61645F74 
 20394      00
 20395              	.LASF258:
 20396 055b 656C5F65 		.ascii	"el_events\000"
 20396      76656E74 
 20396      7300
 20397              	.LASF498:
 20398 0565 70776D73 		.ascii	"pwmstate_t\000"
 20398      74617465 
 20398      5F7400
 20399              	.LASF378:
 20400 0570 736C6565 		.ascii	"sleep_event\000"
 20400      705F6576 
 20400      656E7400 
 20401              	.LASF83:
 20402 057c 63685F76 		.ascii	"ch_virtual_timers_list\000"
 20402      69727475 
 20402      616C5F74 
 20402      696D6572 
 20402      735F6C69 
 20403              	.LASF281:
 20404 0593 76656374 		.ascii	"vector\000"
 20404      6F7200
 20405              	.LASF20:
 20406 059a 696E7433 		.ascii	"int32_t\000"
 20406      325F7400 
 20407              	.LASF855:
 20408 05a2 5F776374 		.ascii	"_wctomb_state\000"
 20408      6F6D625F 
 20408      73746174 
 20408      6500
 20409              	.LASF970:
 20410 05b0 655F7365 		.ascii	"e_set_led\000"
 20410      745F6C65 
 20410      6400
 20411              	.LASF469:
 20412 05ba 636C6F63 		.ascii	"clock_speed\000"
 20412      6B5F7370 
 20412      65656400 
 20413              	.LASF37:
 20414 05c6 73797374 		.ascii	"systime_t\000"
 20414      696D655F 
 20414      7400
 20415              	.LASF411:
ARM GAS  C:\Users\mathi\AppData\Local\Temp\cc0ZaFXf.s 			page 369


 20416 05d0 44414344 		.ascii	"DACD2\000"
 20416      3200
 20417              	.LASF380:
 20418 05d6 43414E44 		.ascii	"CANDriver\000"
 20418      72697665 
 20418      7200
 20419              	.LASF245:
 20420 05e0 63665F6F 		.ascii	"cf_off_stklimit\000"
 20420      66665F73 
 20420      746B6C69 
 20420      6D697400 
 20421              	.LASF161:
 20422 05f0 4D304152 		.ascii	"M0AR\000"
 20422      00
 20423              	.LASF978:
 20424 05f5 655F6765 		.ascii	"e_get_data\000"
 20424      745F6461 
 20424      746100
 20425              	.LASF617:
 20426 0600 72657376 		.ascii	"resvd1c\000"
 20426      64316300 
 20427              	.LASF238:
 20428 0608 63685F74 		.ascii	"ch_timesize\000"
 20428      696D6573 
 20428      697A6500 
 20429              	.LASF459:
 20430 0614 69326366 		.ascii	"i2cflags_t\000"
 20430      6C616773 
 20430      5F7400
 20431              	.LASF655:
 20432 061f 4841494E 		.ascii	"HAINT\000"
 20432      5400
 20433              	.LASF136:
 20434 0625 46413152 		.ascii	"FA1R\000"
 20434      00
 20435              	.LASF1013:
 20436 062a 6D656D63 		.ascii	"memcpy\000"
 20436      707900
 20437              	.LASF159:
 20438 0631 44434D49 		.ascii	"DCMI_TypeDef\000"
 20438      5F547970 
 20438      65446566 
 20438      00
 20439              	.LASF652:
 20440 063e 48464E55 		.ascii	"HFNUM\000"
 20440      4D00
 20441              	.LASF919:
 20442 0644 655F616D 		.ascii	"e_ambient_ir\000"
 20442      6269656E 
 20442      745F6972 
 20442      00
 20443              	.LASF876:
 20444 0651 70617265 		.ascii	"parent\000"
 20444      6E7400
 20445              	.LASF274:
 20446 0658 716E6F74 		.ascii	"qnotify_t\000"
 20446      6966795F 
ARM GAS  C:\Users\mathi\AppData\Local\Temp\cc0ZaFXf.s 			page 370


 20446      7400
 20447              	.LASF333:
 20448 0662 61646373 		.ascii	"adcstate_t\000"
 20448      74617465 
 20448      5F7400
 20449              	.LASF770:
 20450 066d 7075626C 		.ascii	"published_topic\000"
 20450      69736865 
 20450      645F746F 
 20450      70696300 
 20451              	.LASF737:
 20452 067d 44434D49 		.ascii	"DCMID\000"
 20452      4400
 20453              	.LASF279:
 20454 0683 69736869 		.ascii	"ishift\000"
 20454      667400
 20455              	.LASF960:
 20456 068a 655F6932 		.ascii	"e_i2cp_write\000"
 20456      63705F77 
 20456      72697465 
 20456      00
 20457              	.LASF428:
 20458 0697 4750545F 		.ascii	"GPT_ONESHOT\000"
 20458      4F4E4553 
 20458      484F5400 
 20459              	.LASF269:
 20460 06a3 715F746F 		.ascii	"q_top\000"
 20460      7000
 20461              	.LASF802:
 20462 06a9 5F6C6266 		.ascii	"_lbfsize\000"
 20462      73697A65 
 20462      00
 20463              	.LASF603:
 20464 06b2 75645F73 		.ascii	"ud_string\000"
 20464      7472696E 
 20464      6700
 20465              	.LASF472:
 20466 06bc 49324344 		.ascii	"I2CDriver\000"
 20466      72697665 
 20466      7200
 20467              	.LASF454:
 20468 06c6 4932435F 		.ascii	"I2C_ACTIVE_TX\000"
 20468      41435449 
 20468      56455F54 
 20468      5800
 20469              	.LASF524:
 20470 06d4 72656164 		.ascii	"read\000"
 20470      00
 20471              	.LASF460:
 20472 06d9 4F504D4F 		.ascii	"OPMODE_I2C\000"
 20472      44455F49 
 20472      324300
 20473              	.LASF664:
 20474 06e4 72657376 		.ascii	"resvd80C\000"
 20474      64383043 
 20474      00
 20475              	.LASF712:
ARM GAS  C:\Users\mathi\AppData\Local\Temp\cc0ZaFXf.s 			page 371


 20476 06ed 6576656E 		.ascii	"event_cb\000"
 20476      745F6362 
 20476      00
 20477              	.LASF833:
 20478 06f6 5F6E6577 		.ascii	"_new\000"
 20478      00
 20479              	.LASF631:
 20480 06fb 474F5447 		.ascii	"GOTGCTL\000"
 20480      43544C00 
 20481              	.LASF606:
 20482 0703 75736265 		.ascii	"usbepcallback_t\000"
 20482      7063616C 
 20482      6C626163 
 20482      6B5F7400 
 20483              	.LASF458:
 20484 0713 69326361 		.ascii	"i2caddr_t\000"
 20484      6464725F 
 20484      7400
 20485              	.LASF94:
 20486 071d 76746C69 		.ascii	"vtlist\000"
 20486      737400
 20487              	.LASF166:
 20488 0724 54524953 		.ascii	"TRISE\000"
 20488      4500
 20489              	.LASF670:
 20490 072a 72657376 		.ascii	"resvd824\000"
 20490      64383234 
 20490      00
 20491              	.LASF52:
 20492 0733 705F7761 		.ascii	"p_waiting\000"
 20492      6974696E 
 20492      6700
 20493              	.LASF216:
 20494 073d 6B65726E 		.ascii	"kernel_stats_t\000"
 20494      656C5F73 
 20494      74617473 
 20494      5F7400
 20495              	.LASF944:
 20496 074c 69725F61 		.ascii	"ir_address\000"
 20496      64647265 
 20496      737300
 20497              	.LASF266:
 20498 0757 715F7761 		.ascii	"q_waiting\000"
 20498      6974696E 
 20498      6700
 20499              	.LASF118:
 20500 0761 43414E5F 		.ascii	"CAN_TxMailBox_TypeDef\000"
 20500      54784D61 
 20500      696C426F 
 20500      785F5479 
 20500      70654465 
 20501              	.LASF93:
 20502 0777 726C6973 		.ascii	"rlist\000"
 20502      7400
 20503              	.LASF61:
 20504 077d 74687265 		.ascii	"threads_list_t\000"
 20504      6164735F 
ARM GAS  C:\Users\mathi\AppData\Local\Temp\cc0ZaFXf.s 			page 372


 20504      6C697374 
 20504      5F7400
 20505              	.LASF241:
 20506 078c 63665F6F 		.ascii	"cf_off_ctx\000"
 20506      66665F63 
 20506      747800
 20507              	.LASF275:
 20508 0797 696E7075 		.ascii	"input_queue_t\000"
 20508      745F7175 
 20508      6575655F 
 20508      7400
 20509              	.LASF360:
 20510 07a5 41444343 		.ascii	"ADCConversionGroup\000"
 20510      6F6E7665 
 20510      7273696F 
 20510      6E47726F 
 20510      757000
 20511              	.LASF943:
 20512 07b8 69725F6D 		.ascii	"ir_move\000"
 20512      6F766500 
 20513              	.LASF663:
 20514 07c0 44535453 		.ascii	"DSTS\000"
 20514      00
 20515              	.LASF868:
 20516 07c5 5F5F6C6F 		.ascii	"__lock\000"
 20516      636B00
 20517              	.LASF464:
 20518 07cc 5354445F 		.ascii	"STD_DUTY_CYCLE\000"
 20518      44555459 
 20518      5F435943 
 20518      4C4500
 20519              	.LASF369:
 20520 07db 43414E5F 		.ascii	"CAN_READY\000"
 20520      52454144 
 20520      5900
 20521              	.LASF243:
 20522 07e5 63665F6F 		.ascii	"cf_off_older\000"
 20522      66665F6F 
 20522      6C646572 
 20522      00
 20523              	.LASF26:
 20524 07f2 72747469 		.ascii	"rttime_t\000"
 20524      6D655F74 
 20524      00
 20525              	.LASF423:
 20526 07fb 45585444 		.ascii	"EXTD1\000"
 20526      3100
 20527              	.LASF697:
 20528 0801 72787175 		.ascii	"rxqueued\000"
 20528      65756564 
 20528      00
 20529              	.LASF371:
 20530 080a 63616E73 		.ascii	"canstate_t\000"
 20530      74617465 
 20530      5F7400
 20531              	.LASF138:
 20532 0815 7346696C 		.ascii	"sFilterRegister\000"
ARM GAS  C:\Users\mathi\AppData\Local\Temp\cc0ZaFXf.s 			page 373


 20532      74657252 
 20532      65676973 
 20532      74657200 
 20533              	.LASF837:
 20534 0825 5F5F7366 		.ascii	"__sf\000"
 20534      00
 20535              	.LASF921:
 20536 082a 77616974 		.ascii	"wait_cam\000"
 20536      5F63616D 
 20536      00
 20537              	.LASF669:
 20538 0833 72657376 		.ascii	"resvd820\000"
 20538      64383230 
 20538      00
 20539              	.LASF172:
 20540 083c 52455350 		.ascii	"RESP1\000"
 20540      3100
 20541              	.LASF173:
 20542 0842 52455350 		.ascii	"RESP2\000"
 20542      3200
 20543              	.LASF174:
 20544 0848 52455350 		.ascii	"RESP3\000"
 20544      3300
 20545              	.LASF175:
 20546 084e 52455350 		.ascii	"RESP4\000"
 20546      3400
 20547              	.LASF854:
 20548 0854 5F6D6274 		.ascii	"_mbtowc_state\000"
 20548      6F77635F 
 20548      73746174 
 20548      6500
 20549              	.LASF451:
 20550 0862 4932435F 		.ascii	"I2C_UNINIT\000"
 20550      554E494E 
 20550      495400
 20551              	.LASF608:
 20552 086d 75736272 		.ascii	"usbreqhandler_t\000"
 20552      65716861 
 20552      6E646C65 
 20552      725F7400 
 20553              	.LASF331:
 20554 087d 4144435F 		.ascii	"ADC_COMPLETE\000"
 20554      434F4D50 
 20554      4C455445 
 20554      00
 20555              	.LASF447:
 20556 088a 47505443 		.ascii	"GPTConfig\000"
 20556      6F6E6669 
 20556      6700
 20557              	.LASF513:
 20558 0894 53445F55 		.ascii	"SD_UNINIT\000"
 20558      4E494E49 
 20558      5400
 20559              	.LASF721:
 20560 089e 44434D49 		.ascii	"DCMI_UNINIT\000"
 20560      5F554E49 
 20560      4E495400 
ARM GAS  C:\Users\mathi\AppData\Local\Temp\cc0ZaFXf.s 			page 374


 20561              	.LASF31:
 20562 08aa 74707269 		.ascii	"tprio_t\000"
 20562      6F5F7400 
 20563              	.LASF212:
 20564 08b2 6E5F6972 		.ascii	"n_irq\000"
 20564      7100
 20565              	.LASF758:
 20566 08b8 636F6E64 		.ascii	"condvar\000"
 20566      76617200 
 20567              	.LASF492:
 20568 08c0 69327370 		.ascii	"i2spr\000"
 20568      7200
 20569              	.LASF673:
 20570 08c6 72657376 		.ascii	"resvd830\000"
 20570      64383330 
 20570      00
 20571              	.LASF453:
 20572 08cf 4932435F 		.ascii	"I2C_READY\000"
 20572      52454144 
 20572      5900
 20573              	.LASF675:
 20574 08d9 72657376 		.ascii	"resvd838\000"
 20574      64383338 
 20574      00
 20575              	.LASF467:
 20576 08e2 69326364 		.ascii	"i2cdutycycle_t\000"
 20576      75747963 
 20576      79636C65 
 20576      5F7400
 20577              	.LASF749:
 20578 08f1 6F707461 		.ascii	"optarg\000"
 20578      726700
 20579              	.LASF676:
 20580 08f8 72657376 		.ascii	"resvd83C\000"
 20580      64383343 
 20580      00
 20581              	.LASF980:
 20582 0901 655F706F 		.ascii	"e_poxxxx_config_cam\000"
 20582      78787878 
 20582      5F636F6E 
 20582      6669675F 
 20582      63616D00 
 20583              	.LASF345:
 20584 0915 74687265 		.ascii	"thread\000"
 20584      616400
 20585              	.LASF390:
 20586 091c 72656773 		.ascii	"regshift\000"
 20586      68696674 
 20586      00
 20587              	.LASF571:
 20588 0925 73657475 		.ascii	"setup\000"
 20588      7000
 20589              	.LASF550:
 20590 092b 5350495F 		.ascii	"SPI_UNINIT\000"
 20590      554E494E 
 20590      495400
 20591              	.LASF624:
ARM GAS  C:\Users\mathi\AppData\Local\Temp\cc0ZaFXf.s 			page 375


 20592 0936 44545846 		.ascii	"DTXFSTS\000"
 20592      53545300 
 20593              	.LASF294:
 20594 093e 626C6B5F 		.ascii	"blk_size\000"
 20594      73697A65 
 20594      00
 20595              	.LASF726:
 20596 0947 44434D49 		.ascii	"DCMI_COMPLETE\000"
 20596      5F434F4D 
 20596      504C4554 
 20596      4500
 20597              	.LASF565:
 20598 0955 696E5F70 		.ascii	"in_params\000"
 20598      6172616D 
 20598      7300
 20599              	.LASF437:
 20600 095f 43434552 		.ascii	"CCER\000"
 20600      00
 20601              	.LASF188:
 20602 0964 49325350 		.ascii	"I2SPR\000"
 20602      5200
 20603              	.LASF495:
 20604 096a 50574D5F 		.ascii	"PWM_UNINIT\000"
 20604      554E494E 
 20604      495400
 20605              	.LASF207:
 20606 0975 62657374 		.ascii	"best\000"
 20606      00
 20607              	.LASF883:
 20608 097a 74797065 		.ascii	"type\000"
 20608      00
 20609              	.LASF957:
 20610 097f 655F6932 		.ascii	"e_i2cp_disable\000"
 20610      63705F64 
 20610      69736162 
 20610      6C6500
 20611              	.LASF633:
 20612 098e 47414842 		.ascii	"GAHBCFG\000"
 20612      43464700 
 20613              	.LASF400:
 20614 0996 64616363 		.ascii	"daccallback_t\000"
 20614      616C6C62 
 20614      61636B5F 
 20614      7400
 20615              	.LASF738:
 20616 09a4 5F4C4F43 		.ascii	"_LOCK_T\000"
 20616      4B5F5400 
 20617              	.LASF677:
 20618 09ac 72657376 		.ascii	"resvd840\000"
 20618      64383430 
 20618      00
 20619              	.LASF898:
 20620 09b5 4D415249 		.ascii	"MARIO_START\000"
 20620      4F5F5354 
 20620      41525400 
 20621              	.LASF184:
 20622 09c1 43524350 		.ascii	"CRCPR\000"
ARM GAS  C:\Users\mathi\AppData\Local\Temp\cc0ZaFXf.s 			page 376


 20622      5200
 20623              	.LASF289:
 20624 09c7 424C4B5F 		.ascii	"BLK_READY\000"
 20624      52454144 
 20624      5900
 20625              	.LASF4:
 20626 09d1 5F5F696E 		.ascii	"__int16_t\000"
 20626      7431365F 
 20626      7400
 20627              	.LASF6:
 20628 09db 5F5F7569 		.ascii	"__uint16_t\000"
 20628      6E743136 
 20628      5F7400
 20629              	.LASF427:
 20630 09e6 4750545F 		.ascii	"GPT_CONTINUOUS\000"
 20630      434F4E54 
 20630      494E554F 
 20630      555300
 20631              	.LASF691:
 20632 09f5 74787175 		.ascii	"txqueued\000"
 20632      65756564 
 20632      00
 20633              	.LASF54:
 20634 09fe 705F6D73 		.ascii	"p_msg\000"
 20634      6700
 20635              	.LASF846:
 20636 0a04 5F756E75 		.ascii	"_unused_rand\000"
 20636      7365645F 
 20636      72616E64 
 20636      00
 20637              	.LASF630:
 20638 0a11 73746D33 		.ascii	"stm32_otg_out_ep_t\000"
 20638      325F6F74 
 20638      675F6F75 
 20638      745F6570 
 20638      5F7400
 20639              	.LASF639:
 20640 0a24 47525853 		.ascii	"GRXSTSP\000"
 20640      54535000 
 20641              	.LASF638:
 20642 0a2c 47525853 		.ascii	"GRXSTSR\000"
 20642      54535200 
 20643              	.LASF958:
 20644 0a34 73707269 		.ascii	"sprintf\000"
 20644      6E746600 
 20645              	.LASF218:
 20646 0a3c 65786974 		.ascii	"exitcode\000"
 20646      636F6465 
 20646      00
 20647              	.LASF162:
 20648 0a45 4D314152 		.ascii	"M1AR\000"
 20648      00
 20649              	.LASF578:
 20650 0a4a 77616974 		.ascii	"wait\000"
 20650      00
 20651              	.LASF163:
 20652 0a4f 444D415F 		.ascii	"DMA_Stream_TypeDef\000"
ARM GAS  C:\Users\mathi\AppData\Local\Temp\cc0ZaFXf.s 			page 377


 20652      53747265 
 20652      616D5F54 
 20652      79706544 
 20652      656600
 20653              	.LASF585:
 20654 0a62 5553425F 		.ascii	"USB_ACTIVE\000"
 20654      41435449 
 20654      564500
 20655              	.LASF753:
 20656 0a6d 6F707472 		.ascii	"optreset\000"
 20656      65736574 
 20656      00
 20657              	.LASF626:
 20658 0a76 73746D33 		.ascii	"stm32_otg_in_ep_t\000"
 20658      325F6F74 
 20658      675F696E 
 20658      5F65705F 
 20658      7400
 20659              	.LASF699:
 20660 0a88 7278636E 		.ascii	"rxcnt\000"
 20660      7400
 20661              	.LASF327:
 20662 0a8e 4144435F 		.ascii	"ADC_UNINIT\000"
 20662      554E494E 
 20662      495400
 20663              	.LASF475:
 20664 0a99 7278646D 		.ascii	"rxdmamode\000"
 20664      616D6F64 
 20664      6500
 20665              	.LASF828:
 20666 0aa3 5F726573 		.ascii	"_result_k\000"
 20666      756C745F 
 20666      6B00
 20667              	.LASF419:
 20668 0aad 6D6F6465 		.ascii	"mode\000"
 20668      00
 20669              	.LASF820:
 20670 0ab2 5F737464 		.ascii	"_stderr\000"
 20670      65727200 
 20671              	.LASF827:
 20672 0aba 5F726573 		.ascii	"_result\000"
 20672      756C7400 
 20673              	.LASF231:
 20674 0ac2 6D5F636E 		.ascii	"m_cnt\000"
 20674      7400
 20675              	.LASF416:
 20676 0ac8 45585444 		.ascii	"EXTDriver\000"
 20676      72697665 
 20676      7200
 20677              	.LASF246:
 20678 0ad2 63665F6F 		.ascii	"cf_off_state\000"
 20678      66665F73 
 20678      74617465 
 20678      00
 20679              	.LASF487:
 20680 0adf 69327363 		.ascii	"i2scallback_t\000"
 20680      616C6C62 
ARM GAS  C:\Users\mathi\AppData\Local\Temp\cc0ZaFXf.s 			page 378


 20680      61636B5F 
 20680      7400
 20681              	.LASF559:
 20682 0aed 73737061 		.ascii	"sspad\000"
 20682      6400
 20683              	.LASF476:
 20684 0af3 7478646D 		.ascii	"txdmamode\000"
 20684      616D6F64 
 20684      6500
 20685              	.LASF888:
 20686 0afd 6275665F 		.ascii	"buf_dim\000"
 20686      64696D00 
 20687              	.LASF443:
 20688 0b05 67707466 		.ascii	"gptfreq_t\000"
 20688      7265715F 
 20688      7400
 20689              	.LASF947:
 20690 0b0f 7573655F 		.ascii	"use_bt\000"
 20690      627400
 20691              	.LASF785:
 20692 0b16 5F5F746D 		.ascii	"__tm_wday\000"
 20692      5F776461 
 20692      7900
 20693              	.LASF968:
 20694 0b20 655F7365 		.ascii	"e_set_speed_left\000"
 20694      745F7370 
 20694      6565645F 
 20694      6C656674 
 20694      00
 20695              	.LASF782:
 20696 0b31 5F5F746D 		.ascii	"__tm_mday\000"
 20696      5F6D6461 
 20696      7900
 20697              	.LASF684:
 20698 0b3b 72785F66 		.ascii	"rx_fifo_size\000"
 20698      69666F5F 
 20698      73697A65 
 20698      00
 20699              	.LASF193:
 20700 0b48 73746B61 		.ascii	"stkalign_t\000"
 20700      6C69676E 
 20700      5F7400
 20701              	.LASF398:
 20702 0b53 4441435F 		.ascii	"DAC_ERR_UNDERFLOW\000"
 20702      4552525F 
 20702      554E4445 
 20702      52464C4F 
 20702      5700
 20703              	.LASF379:
 20704 0b65 77616B65 		.ascii	"wakeup_event\000"
 20704      75705F65 
 20704      76656E74 
 20704      00
 20705              	.LASF78:
 20706 0b72 76745F70 		.ascii	"vt_prev\000"
 20706      72657600 
 20707              	.LASF786:
ARM GAS  C:\Users\mathi\AppData\Local\Temp\cc0ZaFXf.s 			page 379


 20708 0b7a 5F5F746D 		.ascii	"__tm_yday\000"
 20708      5F796461 
 20708      7900
 20709              	.LASF353:
 20710 0b84 656E645F 		.ascii	"end_cb\000"
 20710      636200
 20711              	.LASF702:
 20712 0b8b 73657475 		.ascii	"setup_cb\000"
 20712      705F6362 
 20712      00
 20713              	.LASF3:
 20714 0b94 756E7369 		.ascii	"unsigned char\000"
 20714      676E6564 
 20714      20636861 
 20714      7200
 20715              	.LASF819:
 20716 0ba2 5F737464 		.ascii	"_stdout\000"
 20716      6F757400 
 20717              	.LASF182:
 20718 0baa 4649464F 		.ascii	"FIFO\000"
 20718      00
 20719              	.LASF203:
 20720 0baf 74625F62 		.ascii	"tb_buffer\000"
 20720      75666665 
 20720      7200
 20721              	.LASF373:
 20722 0bb9 74787175 		.ascii	"txqueue\000"
 20722      65756500 
 20723              	.LASF153:
 20724 0bc1 52495352 		.ascii	"RISR\000"
 20724      00
 20725              	.LASF226:
 20726 0bc6 735F636E 		.ascii	"s_cnt\000"
 20726      7400
 20727              	.LASF66:
 20728 0bcc 72656164 		.ascii	"ready_list_t\000"
 20728      795F6C69 
 20728      73745F74 
 20728      00
 20729              	.LASF62:
 20730 0bd9 63685F74 		.ascii	"ch_thread\000"
 20730      68726561 
 20730      6400
 20731              	.LASF462:
 20732 0be3 4F504D4F 		.ascii	"OPMODE_SMBUS_HOST\000"
 20732      44455F53 
 20732      4D425553 
 20732      5F484F53 
 20732      5400
 20733              	.LASF959:
 20734 0bf5 73736361 		.ascii	"sscanf\000"
 20734      6E6600
 20735              	.LASF861:
 20736 0bfc 5F6D6273 		.ascii	"_mbsrtowcs_state\000"
 20736      72746F77 
 20736      63735F73 
 20736      74617465 
ARM GAS  C:\Users\mathi\AppData\Local\Temp\cc0ZaFXf.s 			page 380


 20736      00
 20737              	.LASF580:
 20738 0c0d 75736265 		.ascii	"usbep_t\000"
 20738      705F7400 
 20739              	.LASF996:
 20740 0c15 655F696E 		.ascii	"e_init_motors\000"
 20740      69745F6D 
 20740      6F746F72 
 20740      7300
 20741              	.LASF777:
 20742 0c23 5F776473 		.ascii	"_wds\000"
 20742      00
 20743              	.LASF889:
 20744 0c28 666C6F61 		.ascii	"float\000"
 20744      7400
 20745              	.LASF904:
 20746 0c2e 53544152 		.ascii	"STARWARS\000"
 20746      57415253 
 20746      00
 20747              	.LASF412:
 20748 0c37 4558545F 		.ascii	"EXT_UNINIT\000"
 20748      554E494E 
 20748      495400
 20749              	.LASF370:
 20750 0c42 43414E5F 		.ascii	"CAN_SLEEP\000"
 20750      534C4545 
 20750      5000
 20751              	.LASF199:
 20752 0c4c 73655F73 		.ascii	"se_state\000"
 20752      74617465 
 20752      00
 20753              	.LASF366:
 20754 0c55 43414E5F 		.ascii	"CAN_UNINIT\000"
 20754      554E494E 
 20754      495400
 20755              	.LASF549:
 20756 0c60 53444344 		.ascii	"SDCD1\000"
 20756      3100
 20757              	.LASF85:
 20758 0c66 73797374 		.ascii	"system_debug_t\000"
 20758      656D5F64 
 20758      65627567 
 20758      5F7400
 20759              	.LASF143:
 20760 0c75 44485238 		.ascii	"DHR8R1\000"
 20760      523100
 20761              	.LASF146:
 20762 0c7c 44485238 		.ascii	"DHR8R2\000"
 20762      523200
 20763              	.LASF434:
 20764 0c83 44494552 		.ascii	"DIER\000"
 20764      00
 20765              	.LASF766:
 20766 0c88 68656164 		.ascii	"head\000"
 20766      00
 20767              	.LASF928:
 20768 0c8d 61636378 		.ascii	"accx\000"
ARM GAS  C:\Users\mathi\AppData\Local\Temp\cc0ZaFXf.s 			page 381


 20768      00
 20769              	.LASF929:
 20770 0c92 61636379 		.ascii	"accy\000"
 20770      00
 20771              	.LASF42:
 20772 0c97 705F6374 		.ascii	"p_ctx\000"
 20772      7800
 20773              	.LASF81:
 20774 0c9d 76745F70 		.ascii	"vt_par\000"
 20774      617200
 20775              	.LASF102:
 20776 0ca4 4A4F4652 		.ascii	"JOFR1\000"
 20776      3100
 20777              	.LASF103:
 20778 0caa 4A4F4652 		.ascii	"JOFR2\000"
 20778      3200
 20779              	.LASF104:
 20780 0cb0 4A4F4652 		.ascii	"JOFR3\000"
 20780      3300
 20781              	.LASF105:
 20782 0cb6 4A4F4652 		.ascii	"JOFR4\000"
 20782      3400
 20783              	.LASF895:
 20784 0cbc 52555353 		.ascii	"RUSSIA\000"
 20784      494100
 20785              	.LASF73:
 20786 0cc3 725F6375 		.ascii	"r_current\000"
 20786      7272656E 
 20786      7400
 20787              	.LASF798:
 20788 0ccd 5F73697A 		.ascii	"_size\000"
 20788      6500
 20789              	.LASF805:
 20790 0cd3 5F777269 		.ascii	"_write\000"
 20790      746500
 20791              	.LASF186:
 20792 0cda 54584352 		.ascii	"TXCRCR\000"
 20792      435200
 20793              	.LASF405:
 20794 0ce1 64616364 		.ascii	"dacdhrmode_t\000"
 20794      68726D6F 
 20794      64655F74 
 20794      00
 20795              	.LASF347:
 20796 0cee 646D6173 		.ascii	"dmastp\000"
 20796      747000
 20797              	.LASF757:
 20798 0cf5 6C6F636B 		.ascii	"lock\000"
 20798      00
 20799              	.LASF466:
 20800 0cfa 46415354 		.ascii	"FAST_DUTY_CYCLE_16_9\000"
 20800      5F445554 
 20800      595F4359 
 20800      434C455F 
 20800      31365F39 
 20801              	.LASF22:
 20802 0d0f 75696E74 		.ascii	"uint64_t\000"
ARM GAS  C:\Users\mathi\AppData\Local\Temp\cc0ZaFXf.s 			page 382


 20802      36345F74 
 20802      00
 20803              	.LASF213:
 20804 0d18 6E5F6374 		.ascii	"n_ctxswc\000"
 20804      78737763 
 20804      00
 20805              	.LASF939:
 20806 0d21 63616D5F 		.ascii	"cam_size\000"
 20806      73697A65 
 20806      00
 20807              	.LASF252:
 20808 0d2a 63685F64 		.ascii	"ch_debug\000"
 20808      65627567 
 20808      00
 20809              	.LASF408:
 20810 0d33 696E6974 		.ascii	"init\000"
 20810      00
 20811              	.LASF130:
 20812 0d38 464D3152 		.ascii	"FM1R\000"
 20812      00
 20813              	.LASF780:
 20814 0d3d 5F5F746D 		.ascii	"__tm_min\000"
 20814      5F6D696E 
 20814      00
 20815              	.LASF324:
 20816 0d46 50414C43 		.ascii	"PALConfig\000"
 20816      6F6E6669 
 20816      6700
 20817              	.LASF693:
 20818 0d50 7478636E 		.ascii	"txcnt\000"
 20818      7400
 20819              	.LASF877:
 20820 0d56 73756273 		.ascii	"subspaces\000"
 20820      70616365 
 20820      7300
 20821              	.LASF607:
 20822 0d60 75736265 		.ascii	"usbeventcb_t\000"
 20822      76656E74 
 20822      63625F74 
 20822      00
 20823              	.LASF286:
 20824 0d6d 424C4B5F 		.ascii	"BLK_ACTIVE\000"
 20824      41435449 
 20824      564500
 20825              	.LASF784:
 20826 0d78 5F5F746D 		.ascii	"__tm_year\000"
 20826      5F796561 
 20826      7200
 20827              	.LASF254:
 20828 0d82 6576656E 		.ascii	"event_listener_t\000"
 20828      745F6C69 
 20828      7374656E 
 20828      65725F74 
 20828      00
 20829              	.LASF810:
 20830 0d93 5F626C6B 		.ascii	"_blksize\000"
 20830      73697A65 
ARM GAS  C:\Users\mathi\AppData\Local\Temp\cc0ZaFXf.s 			page 383


 20830      00
 20831              	.LASF685:
 20832 0d9c 6F74675F 		.ascii	"otg_ram_size\000"
 20832      72616D5F 
 20832      73697A65 
 20832      00
 20833              	.LASF918:
 20834 0da9 73656C65 		.ascii	"selector\000"
 20834      63746F72 
 20834      00
 20835              	.LASF985:
 20836 0db2 67657442 		.ascii	"getBatteryValueRaw\000"
 20836      61747465 
 20836      72795661 
 20836      6C756552 
 20836      617700
 20837              	.LASF687:
 20838 0dc5 73746D33 		.ascii	"stm32_otg_params_t\000"
 20838      325F6F74 
 20838      675F7061 
 20838      72616D73 
 20838      5F7400
 20839              	.LASF680:
 20840 0dd8 72657376 		.ascii	"resvdD00\000"
 20840      64443030 
 20840      00
 20841              	.LASF185:
 20842 0de1 52584352 		.ascii	"RXCRCR\000"
 20842      435200
 20843              	.LASF696:
 20844 0de8 72786275 		.ascii	"rxbuf\000"
 20844      6600
 20845              	.LASF990:
 20846 0dee 67657458 		.ascii	"getXAxisGyro\000"
 20846      41786973 
 20846      4779726F 
 20846      00
 20847              	.LASF636:
 20848 0dfb 47494E54 		.ascii	"GINTSTS\000"
 20848      53545300 
 20849              	.LASF899:
 20850 0e03 4D415249 		.ascii	"MARIO_DEATH\000"
 20850      4F5F4445 
 20850      41544800 
 20851              	.LASF227:
 20852 0e0f 63685F6D 		.ascii	"ch_mutex\000"
 20852      75746578 
 20852      00
 20853              	.LASF376:
 20854 0e18 7478656D 		.ascii	"txempty_event\000"
 20854      7074795F 
 20854      6576656E 
 20854      7400
 20855              	.LASF499:
 20856 0e26 50574D44 		.ascii	"PWMDriver\000"
 20856      72697665 
 20856      7200
ARM GAS  C:\Users\mathi\AppData\Local\Temp\cc0ZaFXf.s 			page 384


 20857              	.LASF321:
 20858 0e30 50474461 		.ascii	"PGData\000"
 20858      746100
 20859              	.LASF508:
 20860 0e37 50574D43 		.ascii	"PWMConfig\000"
 20860      6F6E6669 
 20860      6700
 20861              	.LASF859:
 20862 0e41 5F6D6272 		.ascii	"_mbrlen_state\000"
 20862      6C656E5F 
 20862      73746174 
 20862      6500
 20863              	.LASF977:
 20864 0e4f 655F6765 		.ascii	"e_get_address\000"
 20864      745F6164 
 20864      64726573 
 20864      7300
 20865              	.LASF884:
 20866 0e5d 76616C75 		.ascii	"value\000"
 20866      6500
 20867              	.LASF242:
 20868 0e63 63665F6F 		.ascii	"cf_off_newer\000"
 20868      66665F6E 
 20868      65776572 
 20868      00
 20869              	.LASF665:
 20870 0e70 44494550 		.ascii	"DIEPMSK\000"
 20870      4D534B00 
 20871              	.LASF632:
 20872 0e78 474F5447 		.ascii	"GOTGINT\000"
 20872      494E5400 
 20873              	.LASF930:
 20874 0e80 6163637A 		.ascii	"accz\000"
 20874      00
 20875              	.LASF704:
 20876 0e85 6F75745F 		.ascii	"out_cb\000"
 20876      636200
 20877              	.LASF656:
 20878 0e8c 4841494E 		.ascii	"HAINTMSK\000"
 20878      544D534B 
 20878      00
 20879              	.LASF566:
 20880 0e95 6F75745F 		.ascii	"out_params\000"
 20880      70617261 
 20880      6D7300
 20881              	.LASF198:
 20882 0ea0 73655F77 		.ascii	"se_wtobjp\000"
 20882      746F626A 
 20882      7000
 20883              	.LASF109:
 20884 0eaa 4A535152 		.ascii	"JSQR\000"
 20884      00
 20885              	.LASF818:
 20886 0eaf 5F737464 		.ascii	"_stdin\000"
 20886      696E00
 20887              	.LASF866:
 20888 0eb6 5F6E6D61 		.ascii	"_nmalloc\000"
ARM GAS  C:\Users\mathi\AppData\Local\Temp\cc0ZaFXf.s 			page 385


 20888      6C6C6F63 
 20888      00
 20889              	.LASF446:
 20890 0ebf 64696572 		.ascii	"dier\000"
 20890      00
 20891              	.LASF544:
 20892 0ec4 69735F70 		.ascii	"is_protected\000"
 20892      726F7465 
 20892      63746564 
 20892      00
 20893              	.LASF936:
 20894 0ed1 63616D5F 		.ascii	"cam_width\000"
 20894      77696474 
 20894      6800
 20895              	.LASF75:
 20896 0edb 76697274 		.ascii	"virtual_timer_t\000"
 20896      75616C5F 
 20896      74696D65 
 20896      725F7400 
 20897              	.LASF706:
 20898 0eeb 6F75745F 		.ascii	"out_maxsize\000"
 20898      6D617873 
 20898      697A6500 
 20899              	.LASF998:
 20900 0ef7 655F6932 		.ascii	"e_i2cp_init\000"
 20900      63705F69 
 20900      6E697400 
 20901              	.LASF70:
 20902 0f03 725F6374 		.ascii	"r_ctx\000"
 20902      7800
 20903              	.LASF77:
 20904 0f09 76745F6E 		.ascii	"vt_next\000"
 20904      65787400 
 20905              	.LASF481:
 20906 0f11 4932535F 		.ascii	"I2S_STOP\000"
 20906      53544F50 
 20906      00
 20907              	.LASF496:
 20908 0f1a 50574D5F 		.ascii	"PWM_STOP\000"
 20908      53544F50 
 20908      00
 20909              	.LASF25:
 20910 0f23 7274636E 		.ascii	"rtcnt_t\000"
 20910      745F7400 
 20911              	.LASF346:
 20912 0f2b 6D757465 		.ascii	"mutex\000"
 20912      7800
 20913              	.LASF490:
 20914 0f31 73697A65 		.ascii	"size\000"
 20914      00
 20915              	.LASF1012:
 20916 0f36 72756E5F 		.ascii	"run_asercom\000"
 20916      61736572 
 20916      636F6D00 
 20917              	.LASF394:
 20918 0f42 44414344 		.ascii	"DACDriver\000"
 20918      72697665 
ARM GAS  C:\Users\mathi\AppData\Local\Temp\cc0ZaFXf.s 			page 386


 20918      7200
 20919              	.LASF410:
 20920 0f4c 44414343 		.ascii	"DACConfig\000"
 20920      6F6E6669 
 20920      6700
 20921              	.LASF577:
 20922 0f56 74787065 		.ascii	"txpending\000"
 20922      6E64696E 
 20922      6700
 20923              	.LASF431:
 20924 0f60 636C6F63 		.ascii	"clock\000"
 20924      6B00
 20925              	.LASF298:
 20926 0f66 636C6561 		.ascii	"clear\000"
 20926      7200
 20927              	.LASF441:
 20928 0f6c 43435852 		.ascii	"CCXR\000"
 20928      00
 20929              	.LASF139:
 20930 0f71 43414E5F 		.ascii	"CAN_TypeDef\000"
 20930      54797065 
 20930      44656600 
 20931              	.LASF739:
 20932 0f7d 5F6F6666 		.ascii	"_off_t\000"
 20932      5F7400
 20933              	.LASF200:
 20934 0f84 63685F73 		.ascii	"ch_swc_event_t\000"
 20934      77635F65 
 20934      76656E74 
 20934      5F7400
 20935              	.LASF514:
 20936 0f93 53445F53 		.ascii	"SD_STOP\000"
 20936      544F5000 
 20937              	.LASF611:
 20938 0f9b 72657376 		.ascii	"resvd8\000"
 20938      643800
 20939              	.LASF23:
 20940 0fa2 73697A65 		.ascii	"size_t\000"
 20940      5F7400
 20941              	.LASF96:
 20942 0fa9 6B65726E 		.ascii	"kernel_stats\000"
 20942      656C5F73 
 20942      74617473 
 20942      00
 20943              	.LASF678:
 20944 0fb6 72657376 		.ascii	"resvd880\000"
 20944      64383830 
 20944      00
 20945              	.LASF901:
 20946 0fbf 57414C4B 		.ascii	"WALKING\000"
 20946      494E4700 
 20947              	.LASF892:
 20948 0fc7 70617261 		.ascii	"parameter_root\000"
 20948      6D657465 
 20948      725F726F 
 20948      6F7400
 20949              	.LASF744:
ARM GAS  C:\Users\mathi\AppData\Local\Temp\cc0ZaFXf.s 			page 387


 20950 0fd6 5F5F636F 		.ascii	"__count\000"
 20950      756E7400 
 20951              	.LASF17:
 20952 0fde 75696E74 		.ascii	"uint8_t\000"
 20952      385F7400 
 20953              	.LASF933:
 20954 0fe6 6779726F 		.ascii	"gyroy\000"
 20954      7900
 20955              	.LASF615:
 20956 0fec 72657376 		.ascii	"resvd14\000"
 20956      64313400 
 20957              	.LASF616:
 20958 0ff4 72657376 		.ascii	"resvd18\000"
 20958      64313800 
 20959              	.LASF72:
 20960 0ffc 725F6F6C 		.ascii	"r_older\000"
 20960      64657200 
 20961              	.LASF40:
 20962 1004 705F7072 		.ascii	"p_prev\000"
 20962      657600
 20963              	.LASF244:
 20964 100b 63665F6F 		.ascii	"cf_off_name\000"
 20964      66665F6E 
 20964      616D6500 
 20965              	.LASF507:
 20966 1017 50574D43 		.ascii	"PWMChannelConfig\000"
 20966      68616E6E 
 20966      656C436F 
 20966      6E666967 
 20966      00
 20967              	.LASF506:
 20968 1028 70776D63 		.ascii	"pwmcnt_t\000"
 20968      6E745F74 
 20968      00
 20969              	.LASF674:
 20970 1031 44494550 		.ascii	"DIEPEMPMSK\000"
 20970      454D504D 
 20970      534B00
 20971              	.LASF732:
 20972 103c 64636D69 		.ascii	"dcmicallback_t\000"
 20972      63616C6C 
 20972      6261636B 
 20972      5F7400
 20973              	.LASF619:
 20974 104b 44494550 		.ascii	"DIEPCTL\000"
 20974      43544C00 
 20975              	.LASF260:
 20976 1053 656C5F77 		.ascii	"el_wflags\000"
 20976      666C6167 
 20976      7300
 20977              	.LASF575:
 20978 105d 6F746770 		.ascii	"otgparams\000"
 20978      6172616D 
 20978      7300
 20979              	.LASF201:
 20980 1067 74625F73 		.ascii	"tb_size\000"
 20980      697A6500 
ARM GAS  C:\Users\mathi\AppData\Local\Temp\cc0ZaFXf.s 			page 388


 20981              	.LASF318:
 20982 106f 50444461 		.ascii	"PDData\000"
 20982      746100
 20983              	.LASF539:
 20984 1076 73637261 		.ascii	"scratchpad\000"
 20984      74636870 
 20984      616400
 20985              	.LASF832:
 20986 1081 5F637674 		.ascii	"_cvtbuf\000"
 20986      62756600 
 20987              	.LASF708:
 20988 1089 6F75745F 		.ascii	"out_state\000"
 20988      73746174 
 20988      6500
 20989              	.LASF264:
 20990 1093 696F5F71 		.ascii	"io_queue_t\000"
 20990      75657565 
 20990      5F7400
 20991              	.LASF822:
 20992 109e 5F656D65 		.ascii	"_emergency\000"
 20992      7267656E 
 20992      637900
 20993              	.LASF555:
 20994 10a9 73706973 		.ascii	"spistate_t\000"
 20994      74617465 
 20994      5F7400
 20995              	.LASF913:
 20996 10b4 61636365 		.ascii	"acceleration\000"
 20996      6C657261 
 20996      74696F6E 
 20996      00
 20997              	.LASF452:
 20998 10c1 4932435F 		.ascii	"I2C_STOP\000"
 20998      53544F50 
 20998      00
 20999              	.LASF474:
 21000 10ca 61646472 		.ascii	"addr\000"
 21000      00
 21001              	.LASF908:
 21002 10cf 45585445 		.ascii	"EXTERNAL_SONG\000"
 21002      524E414C 
 21002      5F534F4E 
 21002      4700
 21003              	.LASF124:
 21004 10dd 52463052 		.ascii	"RF0R\000"
 21004      00
 21005              	.LASF336:
 21006 10e2 4144435F 		.ascii	"ADC_ERR_DMAFAILURE\000"
 21006      4552525F 
 21006      444D4146 
 21006      41494C55 
 21006      524500
 21007              	.LASF553:
 21008 10f5 5350495F 		.ascii	"SPI_ACTIVE\000"
 21008      41435449 
 21008      564500
 21009              	.LASF748:
ARM GAS  C:\Users\mathi\AppData\Local\Temp\cc0ZaFXf.s 			page 389


 21010 1100 656E7669 		.ascii	"environ\000"
 21010      726F6E00 
 21011              	.LASF420:
 21012 1108 45585443 		.ascii	"EXTChannelConfig\000"
 21012      68616E6E 
 21012      656C436F 
 21012      6E666967 
 21012      00
 21013              	.LASF301:
 21014 1119 4F535045 		.ascii	"OSPEEDR\000"
 21014      45445200 
 21015              	.LASF384:
 21016 1121 4441435F 		.ascii	"DAC_READY\000"
 21016      52454144 
 21016      5900
 21017              	.LASF643:
 21018 112b 72657376 		.ascii	"resvd30\000"
 21018      64333000 
 21019              	.LASF743:
 21020 1133 5F5F7763 		.ascii	"__wchb\000"
 21020      686200
 21021              	.LASF644:
 21022 113a 72657376 		.ascii	"resvd34\000"
 21022      64333400 
 21023              	.LASF672:
 21024 1142 44564255 		.ascii	"DVBUSPULSE\000"
 21024      5350554C 
 21024      534500
 21025              	.LASF781:
 21026 114d 5F5F746D 		.ascii	"__tm_hour\000"
 21026      5F686F75 
 21026      7200
 21027              	.LASF942:
 21028 1157 66697273 		.ascii	"first\000"
 21028      7400
 21029              	.LASF285:
 21030 115d 424C4B5F 		.ascii	"BLK_STOP\000"
 21030      53544F50 
 21030      00
 21031              	.LASF522:
 21032 1166 53657269 		.ascii	"SerialDriverVMT\000"
 21032      616C4472 
 21032      69766572 
 21032      564D5400 
 21033              	.LASF593:
 21034 1176 5553425F 		.ascii	"USB_EP0_ERROR\000"
 21034      4550305F 
 21034      4552524F 
 21034      5200
 21035              	.LASF741:
 21036 1184 77696E74 		.ascii	"wint_t\000"
 21036      5F7400
 21037              	.LASF545:
 21038 118b 636F6E6E 		.ascii	"connect\000"
 21038      65637400 
 21039              	.LASF125:
 21040 1193 52463152 		.ascii	"RF1R\000"
ARM GAS  C:\Users\mathi\AppData\Local\Temp\cc0ZaFXf.s 			page 390


 21040      00
 21041              	.LASF339:
 21042 1198 41444344 		.ascii	"ADCDriver\000"
 21042      72697665 
 21042      7200
 21043              	.LASF686:
 21044 11a2 6E756D5F 		.ascii	"num_endpoints\000"
 21044      656E6470 
 21044      6F696E74 
 21044      7300
 21045              	.LASF362:
 21046 11b0 41444343 		.ascii	"ADCConfig\000"
 21046      6F6E6669 
 21046      6700
 21047              	.LASF694:
 21048 11ba 746F7473 		.ascii	"totsize\000"
 21048      697A6500 
 21049              	.LASF890:
 21050 11c2 5F706172 		.ascii	"_param_val_matrix_s\000"
 21050      616D5F76 
 21050      616C5F6D 
 21050      61747269 
 21050      785F7300 
 21051              	.LASF840:
 21052 11d6 5F6E696F 		.ascii	"_niobs\000"
 21052      627300
 21053              	.LASF515:
 21054 11dd 53445F52 		.ascii	"SD_READY\000"
 21054      45414459 
 21054      00
 21055              	.LASF609:
 21056 11e6 75736267 		.ascii	"usbgetdescriptor_t\000"
 21056      65746465 
 21056      73637269 
 21056      70746F72 
 21056      5F7400
 21057              	.LASF387:
 21058 11f9 4441435F 		.ascii	"DAC_ERROR\000"
 21058      4552524F 
 21058      5200
 21059              	.LASF817:
 21060 1203 5F657272 		.ascii	"_errno\000"
 21060      6E6F00
 21061              	.LASF768:
 21062 120a 6D657373 		.ascii	"messagebus_t\000"
 21062      61676562 
 21062      75735F74 
 21062      00
 21063              	.LASF588:
 21064 1217 5553425F 		.ascii	"USB_EP0_TX\000"
 21064      4550305F 
 21064      545800
 21065              	.LASF567:
 21066 1222 65703073 		.ascii	"ep0state\000"
 21066      74617465 
 21066      00
 21067              	.LASF880:
ARM GAS  C:\Users\mathi\AppData\Local\Temp\cc0ZaFXf.s 			page 391


 21068 122b 70617261 		.ascii	"parameter_s\000"
 21068      6D657465 
 21068      725F7300 
 21069              	.LASF754:
 21070 1237 746F7069 		.ascii	"topic_s\000"
 21070      635F7300 
 21071              	.LASF278:
 21072 123f 69666372 		.ascii	"ifcr\000"
 21072      00
 21073              	.LASF906:
 21074 1244 53455645 		.ascii	"SEVEN_NATION_ARMY\000"
 21074      4E5F4E41 
 21074      54494F4E 
 21074      5F41524D 
 21074      5900
 21075              	.LASF480:
 21076 1256 4932535F 		.ascii	"I2S_UNINIT\000"
 21076      554E494E 
 21076      495400
 21077              	.LASF984:
 21078 1261 706C6179 		.ascii	"playMelody\000"
 21078      4D656C6F 
 21078      647900
 21079              	.LASF307:
 21080 126c 73746D33 		.ascii	"stm32_gpio_t\000"
 21080      325F6770 
 21080      696F5F74 
 21080      00
 21081              	.LASF217:
 21082 1279 7264796D 		.ascii	"rdymsg\000"
 21082      736700
 21083              	.LASF789:
 21084 1280 5F666E61 		.ascii	"_fnargs\000"
 21084      72677300 
 21085              	.LASF497:
 21086 1288 50574D5F 		.ascii	"PWM_READY\000"
 21086      52454144 
 21086      5900
 21087              	.LASF115:
 21088 1292 54445452 		.ascii	"TDTR\000"
 21088      00
 21089              	.LASF123:
 21090 1297 43414E5F 		.ascii	"CAN_FilterRegister_TypeDef\000"
 21090      46696C74 
 21090      65725265 
 21090      67697374 
 21090      65725F54 
 21091              	.LASF377:
 21092 12b2 6572726F 		.ascii	"error_event\000"
 21092      725F6576 
 21092      656E7400 
 21093              	.LASF352:
 21094 12be 6E756D5F 		.ascii	"num_channels\000"
 21094      6368616E 
 21094      6E656C73 
 21094      00
 21095              	.LASF646:
ARM GAS  C:\Users\mathi\AppData\Local\Temp\cc0ZaFXf.s 			page 392


 21096 12cb 72657376 		.ascii	"resvd58\000"
 21096      64353800 
 21097              	.LASF695:
 21098 12d3 55534249 		.ascii	"USBInEndpointState\000"
 21098      6E456E64 
 21098      706F696E 
 21098      74537461 
 21098      746500
 21099              	.LASF41:
 21100 12e6 705F7072 		.ascii	"p_prio\000"
 21100      696F00
 21101              	.LASF882:
 21102 12ed 64656669 		.ascii	"defined\000"
 21102      6E656400 
 21103              	.LASF265:
 21104 12f5 696F5F71 		.ascii	"io_queue\000"
 21104      75657565 
 21104      00
 21105              	.LASF315:
 21106 12fe 50414461 		.ascii	"PAData\000"
 21106      746100
 21107              	.LASF13:
 21108 1305 5F5F7569 		.ascii	"__uint64_t\000"
 21108      6E743634 
 21108      5F7400
 21109              	.LASF995:
 21110 1310 73746F70 		.ascii	"stopCurrentMelody\000"
 21110      43757272 
 21110      656E744D 
 21110      656C6F64 
 21110      7900
 21111              	.LASF774:
 21112 1322 5F6E6578 		.ascii	"_next\000"
 21112      7400
 21113              	.LASF940:
 21114 1328 63616D5F 		.ascii	"cam_x1\000"
 21114      783100
 21115              	.LASF502:
 21116 132f 70776D63 		.ascii	"pwmcallback_t\000"
 21116      616C6C62 
 21116      61636B5F 
 21116      7400
 21117              	.LASF395:
 21118 133d 70617261 		.ascii	"params\000"
 21118      6D7300
 21119              	.LASF592:
 21120 1344 5553425F 		.ascii	"USB_EP0_SENDING_STS\000"
 21120      4550305F 
 21120      53454E44 
 21120      494E475F 
 21120      53545300 
 21121              	.LASF857:
 21122 1358 5F736967 		.ascii	"_signal_buf\000"
 21122      6E616C5F 
 21122      62756600 
 21123              	.LASF971:
 21124 1364 655F6765 		.ascii	"e_get_acc_filtered\000"
ARM GAS  C:\Users\mathi\AppData\Local\Temp\cc0ZaFXf.s 			page 393


 21124      745F6163 
 21124      635F6669 
 21124      6C746572 
 21124      656400
 21125              	.LASF457:
 21126 1377 69326373 		.ascii	"i2cstate_t\000"
 21126      74617465 
 21126      5F7400
 21127              	.LASF803:
 21128 1382 5F636F6F 		.ascii	"_cookie\000"
 21128      6B696500 
 21129              	.LASF873:
 21130 138a 70617261 		.ascii	"parameter_namespace_t\000"
 21130      6D657465 
 21130      725F6E61 
 21130      6D657370 
 21130      6163655F 
 21131              	.LASF994:
 21132 13a0 655F636C 		.ascii	"e_close_sound\000"
 21132      6F73655F 
 21132      736F756E 
 21132      6400
 21133              	.LASF594:
 21134 13ae 75736265 		.ascii	"usbep0state_t\000"
 21134      70307374 
 21134      6174655F 
 21134      7400
 21135              	.LASF399:
 21136 13bc 64616365 		.ascii	"dacerror_t\000"
 21136      72726F72 
 21136      5F7400
 21137              	.LASF127:
 21138 13c7 7354784D 		.ascii	"sTxMailBox\000"
 21138      61696C42 
 21138      6F7800
 21139              	.LASF334:
 21140 13d2 61646373 		.ascii	"adcsample_t\000"
 21140      616D706C 
 21140      655F7400 
 21141              	.LASF432:
 21142 13de 67707463 		.ascii	"gptcallback_t\000"
 21142      616C6C62 
 21142      61636B5F 
 21142      7400
 21143              	.LASF268:
 21144 13ec 715F6275 		.ascii	"q_buffer\000"
 21144      66666572 
 21144      00
 21145              	.LASF39:
 21146 13f5 705F6E65 		.ascii	"p_next\000"
 21146      787400
 21147              	.LASF479:
 21148 13fc 49324344 		.ascii	"I2CD1\000"
 21148      3100
 21149              	.LASF620:
 21150 1402 72657376 		.ascii	"resvd4\000"
 21150      643400
ARM GAS  C:\Users\mathi\AppData\Local\Temp\cc0ZaFXf.s 			page 394


 21151              	.LASF562:
 21152 1409 55534244 		.ascii	"USBDriver\000"
 21152      72697665 
 21152      7200
 21153              	.LASF679:
 21154 1413 72657376 		.ascii	"resvd8C0\000"
 21154      64384330 
 21154      00
 21155              	.LASF716:
 21156 141c 55534243 		.ascii	"USBConfig\000"
 21156      6F6E6669 
 21156      6700
 21157              	.LASF622:
 21158 1426 72657376 		.ascii	"resvdC\000"
 21158      644300
 21159              	.LASF509:
 21160 142d 50574D44 		.ascii	"PWMD2\000"
 21160      3200
 21161              	.LASF510:
 21162 1433 50574D44 		.ascii	"PWMD3\000"
 21162      3300
 21163              	.LASF511:
 21164 1439 50574D44 		.ascii	"PWMD4\000"
 21164      3400
 21165              	.LASF512:
 21166 143f 50574D44 		.ascii	"PWMD5\000"
 21166      3500
 21167              	.LASF945:
 21168 1445 69725F6C 		.ascii	"ir_last_move\000"
 21168      6173745F 
 21168      6D6F7665 
 21168      00
 21169              	.LASF520:
 21170 1452 6F717565 		.ascii	"oqueue\000"
 21170      756500
 21171              	.LASF29:
 21172 1459 74726566 		.ascii	"trefs_t\000"
 21172      735F7400 
 21173              	.LASF58:
 21174 1461 705F6D70 		.ascii	"p_mpool\000"
 21174      6F6F6C00 
 21175              	.LASF954:
 21176 1469 655F7561 		.ascii	"e_uart1_sending\000"
 21176      7274315F 
 21176      73656E64 
 21176      696E6700 
 21177              	.LASF407:
 21178 1479 44414343 		.ascii	"DACConversionGroup\000"
 21178      6F6E7665 
 21178      7273696F 
 21178      6E47726F 
 21178      757000
 21179              	.LASF157:
 21180 148c 43575354 		.ascii	"CWSTRTR\000"
 21180      52545200 
 21181              	.LASF779:
 21182 1494 5F5F746D 		.ascii	"__tm_sec\000"
ARM GAS  C:\Users\mathi\AppData\Local\Temp\cc0ZaFXf.s 			page 395


 21182      5F736563 
 21182      00
 21183              	.LASF709:
 21184 149d 696E5F6D 		.ascii	"in_multiplier\000"
 21184      756C7469 
 21184      706C6965 
 21184      7200
 21185              	.LASF332:
 21186 14ab 4144435F 		.ascii	"ADC_ERROR\000"
 21186      4552524F 
 21186      5200
 21187              	.LASF788:
 21188 14b5 5F6F6E5F 		.ascii	"_on_exit_args\000"
 21188      65786974 
 21188      5F617267 
 21188      7300
 21189              	.LASF849:
 21190 14c3 5F6C6F63 		.ascii	"_localtime_buf\000"
 21190      616C7469 
 21190      6D655F62 
 21190      756600
 21191              	.LASF27:
 21192 14d2 746D6F64 		.ascii	"tmode_t\000"
 21192      655F7400 
 21193              	.LASF727:
 21194 14da 44434D49 		.ascii	"DCMI_ERROR\000"
 21194      5F455252 
 21194      4F5200
 21195              	.LASF330:
 21196 14e5 4144435F 		.ascii	"ADC_ACTIVE\000"
 21196      41435449 
 21196      564500
 21197              	.LASF797:
 21198 14f0 5F626173 		.ascii	"_base\000"
 21198      6500
 21199              	.LASF106:
 21200 14f6 53515231 		.ascii	"SQR1\000"
 21200      00
 21201              	.LASF107:
 21202 14fb 53515232 		.ascii	"SQR2\000"
 21202      00
 21203              	.LASF108:
 21204 1500 53515233 		.ascii	"SQR3\000"
 21204      00
 21205              	.LASF303:
 21206 1505 42535252 		.ascii	"BSRR\000"
 21206      00
 21207              	.LASF982:
 21208 150a 655F7365 		.ascii	"e_set_front_led\000"
 21208      745F6672 
 21208      6F6E745F 
 21208      6C656400 
 21209              	.LASF282:
 21210 151a 73746D33 		.ascii	"stm32_dma_stream_t\000"
 21210      325F646D 
 21210      615F7374 
 21210      7265616D 
ARM GAS  C:\Users\mathi\AppData\Local\Temp\cc0ZaFXf.s 			page 396


 21210      5F7400
 21211              	.LASF714:
 21212 152d 72657175 		.ascii	"requests_hook_cb\000"
 21212      65737473 
 21212      5F686F6F 
 21212      6B5F6362 
 21212      00
 21213              	.LASF862:
 21214 153e 5F776372 		.ascii	"_wcrtomb_state\000"
 21214      746F6D62 
 21214      5F737461 
 21214      746500
 21215              	.LASF531:
 21216 154d 5344435F 		.ascii	"SDC_MODE_8BIT\000"
 21216      4D4F4445 
 21216      5F384249 
 21216      5400
 21217              	.LASF692:
 21218 155b 74787369 		.ascii	"txsize\000"
 21218      7A6500
 21219              	.LASF403:
 21220 1562 4441435F 		.ascii	"DAC_DHRM_12BIT_LEFT\000"
 21220      4448524D 
 21220      5F313242 
 21220      49545F4C 
 21220      45465400 
 21221              	.LASF951:
 21222 1576 69734570 		.ascii	"isEpuckVersion1_3\000"
 21222      75636B56 
 21222      65727369 
 21222      6F6E315F 
 21222      3300
 21223              	.LASF500:
 21224 1588 70657269 		.ascii	"period\000"
 21224      6F6400
 21225              	.LASF955:
 21226 158f 655F6932 		.ascii	"e_i2cp_enable\000"
 21226      63705F65 
 21226      6E61626C 
 21226      6500
 21227              	.LASF456:
 21228 159d 4932435F 		.ascii	"I2C_LOCKED\000"
 21228      4C4F434B 
 21228      454400
 21229              	.LASF923:
 21230 15a8 73706565 		.ascii	"speedl\000"
 21230      646C00
 21231              	.LASF88:
 21232 15af 6973725F 		.ascii	"isr_cnt\000"
 21232      636E7400 
 21233              	.LASF983:
 21234 15b7 655F706C 		.ascii	"e_play_sound\000"
 21234      61795F73 
 21234      6F756E64 
 21234      00
 21235              	.LASF922:
 21236 15c4 73706565 		.ascii	"speedr\000"
ARM GAS  C:\Users\mathi\AppData\Local\Temp\cc0ZaFXf.s 			page 397


 21236      647200
 21237              	.LASF583:
 21238 15cb 5553425F 		.ascii	"USB_READY\000"
 21238      52454144 
 21238      5900
 21239              	.LASF528:
 21240 15d5 72656164 		.ascii	"readt\000"
 21240      7400
 21241              	.LASF814:
 21242 15db 5F6D6273 		.ascii	"_mbstate\000"
 21242      74617465 
 21242      00
 21243              	.LASF635:
 21244 15e4 47525354 		.ascii	"GRSTCTL\000"
 21244      43544C00 
 21245              	.LASF429:
 21246 15ec 67707473 		.ascii	"gptstate_t\000"
 21246      74617465 
 21246      5F7400
 21247              	.LASF1002:
 21248 15f7 655F6765 		.ascii	"e_getchar_uart1\000"
 21248      74636861 
 21248      725F7561 
 21248      72743100 
 21249              	.LASF16:
 21250 1607 696E7438 		.ascii	"int8_t\000"
 21250      5F7400
 21251              	.LASF772:
 21252 160e 5F5F554C 		.ascii	"__ULong\000"
 21252      6F6E6700 
 21253              	.LASF87:
 21254 1616 70616E69 		.ascii	"panic_msg\000"
 21254      635F6D73 
 21254      6700
 21255              	.LASF554:
 21256 1620 5350495F 		.ascii	"SPI_COMPLETE\000"
 21256      434F4D50 
 21256      4C455445 
 21256      00
 21257              	.LASF176:
 21258 162d 4454494D 		.ascii	"DTIMER\000"
 21258      455200
 21259              	.LASF71:
 21260 1634 725F6E65 		.ascii	"r_newer\000"
 21260      77657200 
 21261              	.LASF600:
 21262 163c 5553425F 		.ascii	"USB_EVENT_STALLED\000"
 21262      4556454E 
 21262      545F5354 
 21262      414C4C45 
 21262      4400
 21263              	.LASF251:
 21264 164e 63686465 		.ascii	"chdebug_t\000"
 21264      6275675F 
 21264      7400
 21265              	.LASF698:
 21266 1658 72787369 		.ascii	"rxsize\000"
ARM GAS  C:\Users\mathi\AppData\Local\Temp\cc0ZaFXf.s 			page 398


 21266      7A6500
 21267              	.LASF962:
 21268 165f 655F6765 		.ascii	"e_get_steps_right\000"
 21268      745F7374 
 21268      6570735F 
 21268      72696768 
 21268      7400
 21269              	.LASF614:
 21270 1671 48435453 		.ascii	"HCTSIZ\000"
 21270      495A00
 21271              	.LASF597:
 21272 1678 5553425F 		.ascii	"USB_EVENT_CONFIGURED\000"
 21272      4556454E 
 21272      545F434F 
 21272      4E464947 
 21272      55524544 
 21273              	.LASF546:
 21274 168d 64697363 		.ascii	"disconnect\000"
 21274      6F6E6E65 
 21274      637400
 21275              	.LASF752:
 21276 1698 6F70746F 		.ascii	"optopt\000"
 21276      707400
 21277              	.LASF525:
 21278 169f 70757474 		.ascii	"putt\000"
 21278      00
 21279              	.LASF30:
 21280 16a4 74736C69 		.ascii	"tslices_t\000"
 21280      6365735F 
 21280      7400
 21281              	.LASF847:
 21282 16ae 5F737472 		.ascii	"_strtok_last\000"
 21282      746F6B5F 
 21282      6C617374 
 21282      00
 21283              	.LASF1011:
 21284 16bb 433A5C55 		.ascii	"C:\\Users\\mathi\\Documents\\robotique\\robotics_pr"
 21284      73657273 
 21284      5C6D6174 
 21284      68695C44 
 21284      6F63756D 
 21285 16e9 6F6A6563 		.ascii	"oject\\robotics_project\\robotics_project\000"
 21285      745C726F 
 21285      626F7469 
 21285      63735F70 
 21285      726F6A65 
 21286              	.LASF579:
 21287 1711 77615F70 		.ascii	"wa_pump\000"
 21287      756D7000 
 21288              	.LASF181:
 21289 1719 4649464F 		.ascii	"FIFOCNT\000"
 21289      434E5400 
 21290              	.LASF263:
 21291 1721 6576656E 		.ascii	"event_source_t\000"
 21291      745F736F 
 21291      75726365 
 21291      5F7400
ARM GAS  C:\Users\mathi\AppData\Local\Temp\cc0ZaFXf.s 			page 399


 21292              	.LASF649:
 21293 1730 72657376 		.ascii	"resvd140\000"
 21293      64313430 
 21293      00
 21294              	.LASF79:
 21295 1739 76745F64 		.ascii	"vt_delta\000"
 21295      656C7461 
 21295      00
 21296              	.LASF843:
 21297 1742 5F736565 		.ascii	"_seed\000"
 21297      6400
 21298              	.LASF202:
 21299 1748 74625F70 		.ascii	"tb_ptr\000"
 21299      747200
 21300              	.LASF406:
 21301 174f 74726967 		.ascii	"trigger\000"
 21301      67657200 
 21302              	.LASF806:
 21303 1757 5F736565 		.ascii	"_seek\000"
 21303      6B00
 21304              	.LASF598:
 21305 175d 5553425F 		.ascii	"USB_EVENT_SUSPEND\000"
 21305      4556454E 
 21305      545F5355 
 21305      5350454E 
 21305      4400
 21306              	.LASF18:
 21307 176f 696E7431 		.ascii	"int16_t\000"
 21307      365F7400 
 21308              	.LASF425:
 21309 1777 4750545F 		.ascii	"GPT_STOP\000"
 21309      53544F50 
 21309      00
 21310              	.LASF114:
 21311 1780 4144435F 		.ascii	"ADC_TypeDef\000"
 21311      54797065 
 21311      44656600 
 21312              	.LASF7:
 21313 178c 73686F72 		.ascii	"short unsigned int\000"
 21313      7420756E 
 21313      7369676E 
 21313      65642069 
 21313      6E7400
 21314              	.LASF468:
 21315 179f 6F705F6D 		.ascii	"op_mode\000"
 21315      6F646500 
 21316              	.LASF2:
 21317 17a7 7369676E 		.ascii	"signed char\000"
 21317      65642063 
 21317      68617200 
 21318              	.LASF879:
 21319 17b3 70617261 		.ascii	"parameter_t\000"
 21319      6D657465 
 21319      725F7400 
 21320              	.LASF537:
 21321 17bf 63617264 		.ascii	"cardmode\000"
 21321      6D6F6465 
ARM GAS  C:\Users\mathi\AppData\Local\Temp\cc0ZaFXf.s 			page 400


 21321      00
 21322              	.LASF50:
 21323 17c8 705F7072 		.ascii	"p_preempt\000"
 21323      65656D70 
 21323      7400
 21324              	.LASF36:
 21325 17d2 75636E74 		.ascii	"ucnt_t\000"
 21325      5F7400
 21326              	.LASF117:
 21327 17d9 54444852 		.ascii	"TDHR\000"
 21327      00
 21328              	.LASF328:
 21329 17de 4144435F 		.ascii	"ADC_STOP\000"
 21329      53544F50 
 21329      00
 21330              	.LASF591:
 21331 17e7 5553425F 		.ascii	"USB_EP0_RX\000"
 21331      4550305F 
 21331      525800
 21332              	.LASF503:
 21333 17f2 70776D6D 		.ascii	"pwmmode_t\000"
 21333      6F64655F 
 21333      7400
 21334              	.LASF572:
 21335 17fc 73746174 		.ascii	"status\000"
 21335      757300
 21336              	.LASF177:
 21337 1803 444C454E 		.ascii	"DLEN\000"
 21337      00
 21338              	.LASF997:
 21339 1808 67657473 		.ascii	"getselector\000"
 21339      656C6563 
 21339      746F7200 
 21340              	.LASF530:
 21341 1814 5344435F 		.ascii	"SDC_MODE_4BIT\000"
 21341      4D4F4445 
 21341      5F344249 
 21341      5400
 21342              	.LASF604:
 21343 1822 55534244 		.ascii	"USBDescriptor\000"
 21343      65736372 
 21343      6970746F 
 21343      7200
 21344              	.LASF1008:
 21345 1830 64636D69 		.ascii	"dcmi_get_last_image_ptr\000"
 21345      5F676574 
 21345      5F6C6173 
 21345      745F696D 
 21345      6167655F 
 21346              	.LASF557:
 21347 1848 73706963 		.ascii	"spicallback_t\000"
 21347      616C6C62 
 21347      61636B5F 
 21347      7400
 21348              	.LASF830:
 21349 1856 5F667265 		.ascii	"_freelist\000"
 21349      656C6973 
ARM GAS  C:\Users\mathi\AppData\Local\Temp\cc0ZaFXf.s 			page 401


 21349      7400
 21350              	.LASF573:
 21351 1860 61646472 		.ascii	"address\000"
 21351      65737300 
 21352              	.LASF53:
 21353 1868 705F6D73 		.ascii	"p_msgqueue\000"
 21353      67717565 
 21353      756500
 21354              	.LASF248:
 21355 1873 63665F6F 		.ascii	"cf_off_refs\000"
 21355      66665F72 
 21355      65667300 
 21356              	.LASF541:
 21357 187f 53444343 		.ascii	"SDCConfig\000"
 21357      6F6E6669 
 21357      6700
 21358              	.LASF229:
 21359 1889 6D5F6F77 		.ascii	"m_owner\000"
 21359      6E657200 
 21360              	.LASF811:
 21361 1891 5F6F6666 		.ascii	"_offset\000"
 21361      73657400 
 21362              	.LASF887:
 21363 1899 5F706172 		.ascii	"_param_val_vector_s\000"
 21363      616D5F76 
 21363      616C5F76 
 21363      6563746F 
 21363      725F7300 
 21364              	.LASF99:
 21365 18ad 53797374 		.ascii	"SystemCoreClock\000"
 21365      656D436F 
 21365      7265436C 
 21365      6F636B00 
 21366              	.LASF350:
 21367 18bd 61646365 		.ascii	"adcerrorcallback_t\000"
 21367      72726F72 
 21367      63616C6C 
 21367      6261636B 
 21367      5F7400
 21368              	.LASF385:
 21369 18d0 4441435F 		.ascii	"DAC_ACTIVE\000"
 21369      41435449 
 21369      564500
 21370              	.LASF941:
 21371 18db 63616D5F 		.ascii	"cam_y1\000"
 21371      793100
 21372              	.LASF340:
 21373 18e2 73746174 		.ascii	"state\000"
 21373      6500
 21374              	.LASF976:
 21375 18e8 655F6765 		.ascii	"e_get_check\000"
 21375      745F6368 
 21375      65636B00 
 21376              	.LASF236:
 21377 18f4 63685F76 		.ascii	"ch_version\000"
 21377      65727369 
 21377      6F6E00
ARM GAS  C:\Users\mathi\AppData\Local\Temp\cc0ZaFXf.s 			page 402


 21378              	.LASF796:
 21379 18ff 5F5F7362 		.ascii	"__sbuf\000"
 21379      756600
 21380              	.LASF538:
 21381 1906 7364696F 		.ascii	"sdio\000"
 21381      00
 21382              	.LASF966:
 21383 190b 655F6765 		.ascii	"e_get_calibrated_prox\000"
 21383      745F6361 
 21383      6C696272 
 21383      61746564 
 21383      5F70726F 
 21384              	.LASF140:
 21385 1921 53575452 		.ascii	"SWTRIGR\000"
 21385      49475200 
 21386              	.LASF590:
 21387 1929 5553425F 		.ascii	"USB_EP0_WAITING_STS\000"
 21387      4550305F 
 21387      57414954 
 21387      494E475F 
 21387      53545300 
 21388              	.LASF168:
 21389 193d 4932435F 		.ascii	"I2C_TypeDef\000"
 21389      54797065 
 21389      44656600 
 21390              	.LASF121:
 21391 1949 52444852 		.ascii	"RDHR\000"
 21391      00
 21392              	.LASF751:
 21393 194e 6F707465 		.ascii	"opterr\000"
 21393      727200
 21394              	.LASF845:
 21395 1955 5F616464 		.ascii	"_add\000"
 21395      00
 21396              	.LASF439:
 21397 195a 444D4152 		.ascii	"DMAR\000"
 21397      00
 21398              	.LASF445:
 21399 195f 63616C6C 		.ascii	"callback\000"
 21399      6261636B 
 21399      00
 21400              	.LASF92:
 21401 1968 63685F73 		.ascii	"ch_system\000"
 21401      79737465 
 21401      6D00
 21402              	.LASF169:
 21403 1972 504F5745 		.ascii	"POWER\000"
 21403      5200
 21404              	.LASF816:
 21405 1978 5F726565 		.ascii	"_reent\000"
 21405      6E7400
 21406              	.LASF90:
 21407 197f 74726163 		.ascii	"trace_buffer\000"
 21407      655F6275 
 21407      66666572 
 21407      00
 21408              	.LASF856:
ARM GAS  C:\Users\mathi\AppData\Local\Temp\cc0ZaFXf.s 			page 403


 21409 198c 5F6C3634 		.ascii	"_l64a_buf\000"
 21409      615F6275 
 21409      6600
 21410              	.LASF848:
 21411 1996 5F617363 		.ascii	"_asctime_buf\000"
 21411      74696D65 
 21411      5F627566 
 21411      00
 21412              	.LASF404:
 21413 19a3 4441435F 		.ascii	"DAC_DHRM_8BIT_RIGHT\000"
 21413      4448524D 
 21413      5F384249 
 21413      545F5249 
 21413      47485400 
 21414              	.LASF424:
 21415 19b7 4750545F 		.ascii	"GPT_UNINIT\000"
 21415      554E494E 
 21415      495400
 21416              	.LASF742:
 21417 19c2 5F5F7763 		.ascii	"__wch\000"
 21417      6800
 21418              	.LASF745:
 21419 19c8 5F5F7661 		.ascii	"__value\000"
 21419      6C756500 
 21420              	.LASF224:
 21421 19d0 63685F73 		.ascii	"ch_semaphore\000"
 21421      656D6170 
 21421      686F7265 
 21421      00
 21422              	.LASF912:
 21423 19dd 5F637479 		.ascii	"_ctype_\000"
 21423      70655F00 
 21424              	.LASF863:
 21425 19e5 5F776373 		.ascii	"_wcsrtombs_state\000"
 21425      72746F6D 
 21425      62735F73 
 21425      74617465 
 21425      00
 21426              	.LASF729:
 21427 19f6 64636D69 		.ascii	"dcmistate_t\000"
 21427      73746174 
 21427      655F7400 
 21428              	.LASF623:
 21429 1a02 44494550 		.ascii	"DIEPTSIZ\000"
 21429      5453495A 
 21429      00
 21430              	.LASF885:
 21431 1a0b 5F706172 		.ascii	"_param_val_str_s\000"
 21431      616D5F76 
 21431      616C5F73 
 21431      74725F73 
 21431      00
 21432              	.LASF355:
 21433 1a1c 736D7072 		.ascii	"smpr1\000"
 21433      3100
 21434              	.LASF356:
 21435 1a22 736D7072 		.ascii	"smpr2\000"
ARM GAS  C:\Users\mathi\AppData\Local\Temp\cc0ZaFXf.s 			page 404


 21435      3200
 21436              	.LASF64:
 21437 1a28 74687265 		.ascii	"threads_queue_t\000"
 21437      6164735F 
 21437      71756575 
 21437      655F7400 
 21438              	.LASF293:
 21439 1a38 626C6B73 		.ascii	"blkstate_t\000"
 21439      74617465 
 21439      5F7400
 21440              	.LASF51:
 21441 1a43 705F7469 		.ascii	"p_time\000"
 21441      6D6500
 21442              	.LASF49:
 21443 1a4a 705F7265 		.ascii	"p_refs\000"
 21443      667300
 21444              	.LASF701:
 21445 1a51 65705F6D 		.ascii	"ep_mode\000"
 21445      6F646500 
 21446              	.LASF504:
 21447 1a59 70776D63 		.ascii	"pwmchannel_t\000"
 21447      68616E6E 
 21447      656C5F74 
 21447      00
 21448              	.LASF116:
 21449 1a66 54444C52 		.ascii	"TDLR\000"
 21449      00
 21450              	.LASF9:
 21451 1a6b 6C6F6E67 		.ascii	"long int\000"
 21451      20696E74 
 21451      00
 21452              	.LASF95:
 21453 1a74 6D61696E 		.ascii	"mainthread\000"
 21453      74687265 
 21453      616400
 21454              	.LASF1000:
 21455 1a7f 52656164 		.ascii	"ReadEE\000"
 21455      454500
 21456              	.LASF569:
 21457 1a86 6570306E 		.ascii	"ep0n\000"
 21457      00
 21458              	.LASF682:
 21459 1a8b 72657376 		.ascii	"resvdE04\000"
 21459      64453034 
 21459      00
 21460              	.LASF228:
 21461 1a94 6D5F7175 		.ascii	"m_queue\000"
 21461      65756500 
 21462              	.LASF392:
 21463 1a9c 646D6169 		.ascii	"dmairqprio\000"
 21463      72717072 
 21463      696F00
 21464              	.LASF430:
 21465 1aa7 47505444 		.ascii	"GPTDriver\000"
 21465      72697665 
 21465      7200
 21466              	.LASF534:
ARM GAS  C:\Users\mathi\AppData\Local\Temp\cc0ZaFXf.s 			page 405


 21467 1ab1 73646366 		.ascii	"sdcflags_t\000"
 21467      6C616773 
 21467      5F7400
 21468              	.LASF322:
 21469 1abc 50484461 		.ascii	"PHData\000"
 21469      746100
 21470              	.LASF325:
 21471 1ac3 696F706F 		.ascii	"ioportid_t\000"
 21471      72746964 
 21471      5F7400
 21472              	.LASF765:
 21473 1ace 6D657373 		.ascii	"messagebus_topic_t\000"
 21473      61676562 
 21473      75735F74 
 21473      6F706963 
 21473      5F7400
 21474              	.LASF920:
 21475 1ae1 655F616D 		.ascii	"e_ambient_and_reflected_ir\000"
 21475      6269656E 
 21475      745F616E 
 21475      645F7265 
 21475      666C6563 
 21476              	.LASF363:
 21477 1afc 41444344 		.ascii	"ADCD1\000"
 21477      3100
 21478              	.LASF364:
 21479 1b02 41444344 		.ascii	"ADCD2\000"
 21479      3200
 21480              	.LASF365:
 21481 1b08 41444344 		.ascii	"ADCD3\000"
 21481      3300
 21482              	.LASF650:
 21483 1b0e 48434647 		.ascii	"HCFG\000"
 21483      00
 21484              	.LASF348:
 21485 1b13 646D616D 		.ascii	"dmamode\000"
 21485      6F646500 
 21486              	.LASF210:
 21487 1b1b 63756D75 		.ascii	"cumulative\000"
 21487      6C617469 
 21487      766500
 21488              	.LASF841:
 21489 1b26 5F696F62 		.ascii	"_iobs\000"
 21489      7300
 21490              	.LASF561:
 21491 1b2c 53504944 		.ascii	"SPID1\000"
 21491      3100
 21492              	.LASF526:
 21493 1b32 67657474 		.ascii	"gett\000"
 21493      00
 21494              	.LASF935:
 21495 1b37 63616D5F 		.ascii	"cam_mode\000"
 21495      6D6F6465 
 21495      00
 21496              	.LASF220:
 21497 1b40 77747472 		.ascii	"wttrp\000"
 21497      7000
ARM GAS  C:\Users\mathi\AppData\Local\Temp\cc0ZaFXf.s 			page 406


 21498              	.LASF271:
 21499 1b46 715F7264 		.ascii	"q_rdptr\000"
 21499      70747200 
 21500              	.LASF194:
 21501 1b4e 636F6E74 		.ascii	"context\000"
 21501      65787400 
 21502              	.LASF523:
 21503 1b56 77726974 		.ascii	"write\000"
 21503      6500
 21504              	.LASF851:
 21505 1b5c 5F72616E 		.ascii	"_rand_next\000"
 21505      645F6E65 
 21505      787400
 21506              	.LASF519:
 21507 1b67 69717565 		.ascii	"iqueue\000"
 21507      756500
 21508              	.LASF703:
 21509 1b6e 696E5F63 		.ascii	"in_cb\000"
 21509      6200
 21510              	.LASF628:
 21511 1b74 444F4550 		.ascii	"DOEPINT\000"
 21511      494E5400 
 21512              	.LASF209:
 21513 1b7c 6C617374 		.ascii	"last\000"
 21513      00
 21514              	.LASF973:
 21515 1b81 655F6C65 		.ascii	"e_led_clear\000"
 21515      645F636C 
 21515      65617200 
 21516              	.LASF304:
 21517 1b8d 4C434B52 		.ascii	"LCKR\000"
 21517      00
 21518              	.LASF516:
 21519 1b92 73647374 		.ascii	"sdstate_t\000"
 21519      6174655F 
 21519      7400
 21520              	.LASF21:
 21521 1b9c 75696E74 		.ascii	"uint32_t\000"
 21521      33325F74 
 21521      00
 21522              	.LASF389:
 21523 1ba5 64617461 		.ascii	"dataoffset\000"
 21523      6F666673 
 21523      657400
 21524              	.LASF775:
 21525 1bb0 5F6D6178 		.ascii	"_maxwds\000"
 21525      77647300 
 21526              	.LASF291:
 21527 1bb8 424C4B5F 		.ascii	"BLK_WRITING\000"
 21527      57524954 
 21527      494E4700 
 21528              	.LASF120:
 21529 1bc4 52444C52 		.ascii	"RDLR\000"
 21529      00
 21530              	.LASF756:
 21531 1bc9 62756666 		.ascii	"buffer_len\000"
 21531      65725F6C 
ARM GAS  C:\Users\mathi\AppData\Local\Temp\cc0ZaFXf.s 			page 407


 21531      656E00
 21532              	.LASF776:
 21533 1bd4 5F736967 		.ascii	"_sign\000"
 21533      6E00
 21534              	.LASF896:
 21535 1bda 4D415249 		.ascii	"MARIO\000"
 21535      4F00
 21536              	.LASF24:
 21537 1be0 6C6F6E67 		.ascii	"long double\000"
 21537      20646F75 
 21537      626C6500 
 21538              	.LASF192:
 21539 1bec 72656761 		.ascii	"regarm_t\000"
 21539      726D5F74 
 21539      00
 21540              	.LASF33:
 21541 1bf5 6576656E 		.ascii	"eventmask_t\000"
 21541      746D6173 
 21541      6B5F7400 
 21542              	.LASF343:
 21543 1c01 64657074 		.ascii	"depth\000"
 21543      6800
 21544              	.LASF134:
 21545 1c07 46464131 		.ascii	"FFA1R\000"
 21545      5200
 21546              	.LASF584:
 21547 1c0d 5553425F 		.ascii	"USB_SELECTED\000"
 21547      53454C45 
 21547      43544544 
 21547      00
 21548              	.LASF11:
 21549 1c1a 6C6F6E67 		.ascii	"long unsigned int\000"
 21549      20756E73 
 21549      69676E65 
 21549      6420696E 
 21549      7400
 21550              	.LASF576:
 21551 1c2c 706D6E65 		.ascii	"pmnext\000"
 21551      787400
 21552              	.LASF956:
 21553 1c33 655F6932 		.ascii	"e_i2cp_read\000"
 21553      63705F72 
 21553      65616400 
 21554              	.LASF483:
 21555 1c3f 4932535F 		.ascii	"I2S_ACTIVE\000"
 21555      41435449 
 21555      564500
 21556              	.LASF426:
 21557 1c4a 4750545F 		.ascii	"GPT_READY\000"
 21557      52454144 
 21557      5900
 21558              	.LASF388:
 21559 1c54 64616373 		.ascii	"dacstate_t\000"
 21559      74617465 
 21559      5F7400
 21560              	.LASF728:
 21561 1c5f 44434D49 		.ascii	"DCMI_TIMEOUT\000"
ARM GAS  C:\Users\mathi\AppData\Local\Temp\cc0ZaFXf.s 			page 408


 21561      5F54494D 
 21561      454F5554 
 21561      00
 21562              	.LASF197:
 21563 1c6c 73655F74 		.ascii	"se_tp\000"
 21563      7000
 21564              	.LASF270:
 21565 1c72 715F7772 		.ascii	"q_wrptr\000"
 21565      70747200 
 21566              	.LASF396:
 21567 1c7a 64616373 		.ascii	"dacsample_t\000"
 21567      616D706C 
 21567      655F7400 
 21568              	.LASF596:
 21569 1c86 5553425F 		.ascii	"USB_EVENT_ADDRESS\000"
 21569      4556454E 
 21569      545F4144 
 21569      44524553 
 21569      5300
 21570              	.LASF491:
 21571 1c98 69327363 		.ascii	"i2scfgr\000"
 21571      66677200 
 21572              	.LASF171:
 21573 1ca0 52455350 		.ascii	"RESPCMD\000"
 21573      434D4400 
 21574              	.LASF375:
 21575 1ca8 72786675 		.ascii	"rxfull_event\000"
 21575      6C6C5F65 
 21575      76656E74 
 21575      00
 21576              	.LASF601:
 21577 1cb5 75736265 		.ascii	"usbevent_t\000"
 21577      76656E74 
 21577      5F7400
 21578              	.LASF807:
 21579 1cc0 5F636C6F 		.ascii	"_close\000"
 21579      736500
 21580              	.LASF232:
 21581 1cc7 63686172 		.ascii	"char\000"
 21581      00
 21582              	.LASF719:
 21583 1ccc 44434D49 		.ascii	"DCMI_ERR_OVERFLOW\000"
 21583      5F455252 
 21583      5F4F5645 
 21583      52464C4F 
 21583      5700
 21584              	.LASF155:
 21585 1cde 45534352 		.ascii	"ESCR\000"
 21585      00
 21586              	.LASF372:
 21587 1ce3 43414E43 		.ascii	"CANConfig\000"
 21587      6F6E6669 
 21587      6700
 21588              	.LASF319:
 21589 1ced 50454461 		.ascii	"PEData\000"
 21589      746100
 21590              	.LASF68:
ARM GAS  C:\Users\mathi\AppData\Local\Temp\cc0ZaFXf.s 			page 409


 21591 1cf4 725F7175 		.ascii	"r_queue\000"
 21591      65756500 
 21592              	.LASF839:
 21593 1cfc 5F676C75 		.ascii	"_glue\000"
 21593      6500
 21594              	.LASF950:
 21595 1d02 5F5F6C6F 		.ascii	"__locale_ctype_ptr\000"
 21595      63616C65 
 21595      5F637479 
 21595      70655F70 
 21595      747200
 21596              	.LASF769:
 21597 1d15 6D657373 		.ascii	"messagebus_watchgroup_s\000"
 21597      61676562 
 21597      75735F77 
 21597      61746368 
 21597      67726F75 
 21598              	.LASF969:
 21599 1d2d 655F7365 		.ascii	"e_set_speed_right\000"
 21599      745F7370 
 21599      6565645F 
 21599      72696768 
 21599      7400
 21600              	.LASF501:
 21601 1d3f 656E6162 		.ascii	"enabled\000"
 21601      6C656400 
 21602              	.LASF981:
 21603 1d47 655F706F 		.ascii	"e_poxxxx_write_cam_registers\000"
 21603      78787878 
 21603      5F777269 
 21603      74655F63 
 21603      616D5F72 
 21604              	.LASF397:
 21605 1d64 4441435F 		.ascii	"DAC_ERR_DMAFAILURE\000"
 21605      4552525F 
 21605      444D4146 
 21605      41494C55 
 21605      524500
 21606              	.LASF640:
 21607 1d77 47525846 		.ascii	"GRXFSIZ\000"
 21607      53495A00 
 21608              	.LASF902:
 21609 1d7f 50495241 		.ascii	"PIRATES_OF_THE_CARIBBEAN\000"
 21609      5445535F 
 21609      4F465F54 
 21609      48455F43 
 21609      41524942 
 21610              	.LASF547:
 21611 1d98 73796E63 		.ascii	"sync\000"
 21611      00
 21612              	.LASF521:
 21613 1d9d 75736172 		.ascii	"usart\000"
 21613      7400
 21614              	.LASF158:
 21615 1da3 43575349 		.ascii	"CWSIZER\000"
 21615      5A455200 
 21616              	.LASF533:
ARM GAS  C:\Users\mathi\AppData\Local\Temp\cc0ZaFXf.s 			page 410


 21617 1dab 7364636D 		.ascii	"sdcmode_t\000"
 21617      6F64655F 
 21617      7400
 21618              	.LASF273:
 21619 1db5 715F6C69 		.ascii	"q_link\000"
 21619      6E6B00
 21620              	.LASF999:
 21621 1dbc 655F696E 		.ascii	"e_init_remote_control\000"
 21621      69745F72 
 21621      656D6F74 
 21621      655F636F 
 21621      6E74726F 
 21622              	.LASF733:
 21623 1dd2 64636D69 		.ascii	"dcmierrorcallback_t\000"
 21623      6572726F 
 21623      7263616C 
 21623      6C626163 
 21623      6B5F7400 
 21624              	.LASF661:
 21625 1de6 44434647 		.ascii	"DCFG\000"
 21625      00
 21626              	.LASF773:
 21627 1deb 5F426967 		.ascii	"_Bigint\000"
 21627      696E7400 
 21628              	.LASF671:
 21629 1df3 44564255 		.ascii	"DVBUSDIS\000"
 21629      53444953 
 21629      00
 21630              	.LASF637:
 21631 1dfc 47494E54 		.ascii	"GINTMSK\000"
 21631      4D534B00 
 21632              	.LASF642:
 21633 1e04 484E5054 		.ascii	"HNPTXSTS\000"
 21633      58535453 
 21633      00
 21634              	.LASF574:
 21635 1e0d 636F6E66 		.ascii	"configuration\000"
 21635      69677572 
 21635      6174696F 
 21635      6E00
 21636              	.LASF834:
 21637 1e1b 5F617465 		.ascii	"_atexit0\000"
 21637      78697430 
 21637      00
 21638              	.LASF314:
 21639 1e24 73746D33 		.ascii	"stm32_gpio_setup_t\000"
 21639      325F6770 
 21639      696F5F73 
 21639      65747570 
 21639      5F7400
 21640              	.LASF952:
 21641 1e37 7374726C 		.ascii	"strlen\000"
 21641      656E00
 21642              	.LASF910:
 21643 1e3e 4D4C5F57 		.ascii	"ML_WAIT_AND_CHANGE\000"
 21643      4149545F 
 21643      414E445F 
ARM GAS  C:\Users\mathi\AppData\Local\Temp\cc0ZaFXf.s 			page 411


 21643      4348414E 
 21643      474500
 21644              	.LASF1004:
 21645 1e51 655F706F 		.ascii	"e_poxxxx_launch_capture\000"
 21645      78787878 
 21645      5F6C6175 
 21645      6E63685F 
 21645      63617074 
 21646              	.LASF283:
 21647 1e69 5F73746D 		.ascii	"_stm32_dma_streams\000"
 21647      33325F64 
 21647      6D615F73 
 21647      74726561 
 21647      6D7300
 21648              	.LASF142:
 21649 1e7c 44485231 		.ascii	"DHR12L1\000"
 21649      324C3100 
 21650              	.LASF145:
 21651 1e84 44485231 		.ascii	"DHR12L2\000"
 21651      324C3200 
 21652              	.LASF858:
 21653 1e8c 5F676574 		.ascii	"_getdate_err\000"
 21653      64617465 
 21653      5F657272 
 21653      00
 21654              	.LASF532:
 21655 1e99 73646362 		.ascii	"sdcbusmode_t\000"
 21655      75736D6F 
 21655      64655F74 
 21655      00
 21656              	.LASF964:
 21657 1ea6 655F7365 		.ascii	"e_set_steps_right\000"
 21657      745F7374 
 21657      6570735F 
 21657      72696768 
 21657      7400
 21658              	.LASF946:
 21659 1eb8 61636365 		.ascii	"accelero\000"
 21659      6C65726F 
 21659      00
 21660              	.LASF778:
 21661 1ec1 5F5F746D 		.ascii	"__tm\000"
 21661      00
 21662              	.LASF148:
 21663 1ec6 44485231 		.ascii	"DHR12LD\000"
 21663      324C4400 
 21664              	.LASF917:
 21665 1ece 655F6C61 		.ascii	"e_last_mic_scan_id\000"
 21665      73745F6D 
 21665      69635F73 
 21665      63616E5F 
 21665      696400
 21666              	.LASF349:
 21667 1ee1 61646363 		.ascii	"adccallback_t\000"
 21667      616C6C62 
 21667      61636B5F 
 21667      7400
ARM GAS  C:\Users\mathi\AppData\Local\Temp\cc0ZaFXf.s 			page 412


 21668              	.LASF771:
 21669 1eef 6D657373 		.ascii	"messagebus_watchgroup_t\000"
 21669      61676562 
 21669      75735F77 
 21669      61746368 
 21669      67726F75 
 21670              	.LASF46:
 21671 1f07 705F7374 		.ascii	"p_stklimit\000"
 21671      6B6C696D 
 21671      697400
 21672              	.LASF35:
 21673 1f12 636E745F 		.ascii	"cnt_t\000"
 21673      7400
 21674              	.LASF415:
 21675 1f18 65787473 		.ascii	"extstate_t\000"
 21675      74617465 
 21675      5F7400
 21676              	.LASF589:
 21677 1f23 5553425F 		.ascii	"USB_EP0_WAITING_TX0\000"
 21677      4550305F 
 21677      57414954 
 21677      494E475F 
 21677      54583000 
 21678              	.LASF568:
 21679 1f37 6570306E 		.ascii	"ep0next\000"
 21679      65787400 
 21680              	.LASF618:
 21681 1f3f 73746D33 		.ascii	"stm32_otg_host_chn_t\000"
 21681      325F6F74 
 21681      675F686F 
 21681      73745F63 
 21681      686E5F74 
 21682              	.LASF306:
 21683 1f54 41465248 		.ascii	"AFRH\000"
 21683      00
 21684              	.LASF755:
 21685 1f59 62756666 		.ascii	"buffer\000"
 21685      657200
 21686              	.LASF305:
 21687 1f60 4146524C 		.ascii	"AFRL\000"
 21687      00
 21688              	.LASF870:
 21689 1f65 5F696D70 		.ascii	"_impure_ptr\000"
 21689      7572655F 
 21689      70747200 
 21690              	.LASF249:
 21691 1f71 63665F6F 		.ascii	"cf_off_preempt\000"
 21691      66665F70 
 21691      7265656D 
 21691      707400
 21692              	.LASF867:
 21693 1f80 5F756E75 		.ascii	"_unused\000"
 21693      73656400 
 21694              	.LASF386:
 21695 1f88 4441435F 		.ascii	"DAC_COMPLETE\000"
 21695      434F4D50 
 21695      4C455445 
ARM GAS  C:\Users\mathi\AppData\Local\Temp\cc0ZaFXf.s 			page 413


 21695      00
 21696              	.LASF627:
 21697 1f95 444F4550 		.ascii	"DOEPCTL\000"
 21697      43544C00 
 21698              	.LASF613:
 21699 1f9d 4843494E 		.ascii	"HCINTMSK\000"
 21699      544D534B 
 21699      00
 21700              	.LASF808:
 21701 1fa6 5F756275 		.ascii	"_ubuf\000"
 21701      6600
 21702              	.LASF991:
 21703 1fac 67657459 		.ascii	"getYAxisGyro\000"
 21703      41786973 
 21703      4779726F 
 21703      00
 21704              	.LASF341:
 21705 1fb9 636F6E66 		.ascii	"config\000"
 21705      696700
 21706              	.LASF449:
 21707 1fc0 47505444 		.ascii	"GPTD11\000"
 21707      313100
 21708              	.LASF450:
 21709 1fc7 47505444 		.ascii	"GPTD12\000"
 21709      313200
 21710              	.LASF853:
 21711 1fce 5F6D626C 		.ascii	"_mblen_state\000"
 21711      656E5F73 
 21711      74617465 
 21711      00
 21712              	.LASF836:
 21713 1fdb 5F5F7367 		.ascii	"__sglue\000"
 21713      6C756500 
 21714              	.LASF869:
 21715 1fe3 5F5F6C6F 		.ascii	"__locale_t\000"
 21715      63616C65 
 21715      5F7400
 21716              	.LASF287:
 21717 1fee 424C4B5F 		.ascii	"BLK_CONNECTING\000"
 21717      434F4E4E 
 21717      45435449 
 21717      4E4700
 21718              	.LASF826:
 21719 1ffd 5F5F636C 		.ascii	"__cleanup\000"
 21719      65616E75 
 21719      7000
 21720              	.LASF987:
 21721 2007 655F7365 		.ascii	"e_send_uart2_char\000"
 21721      6E645F75 
 21721      61727432 
 21721      5F636861 
 21721      7200
 21722              	.LASF382:
 21723 2019 4441435F 		.ascii	"DAC_UNINIT\000"
 21723      554E494E 
 21723      495400
 21724              	.LASF335:
ARM GAS  C:\Users\mathi\AppData\Local\Temp\cc0ZaFXf.s 			page 414


 21725 2024 6164635F 		.ascii	"adc_channels_num_t\000"
 21725      6368616E 
 21725      6E656C73 
 21725      5F6E756D 
 21725      5F7400
 21726              	.LASF74:
 21727 2037 76746675 		.ascii	"vtfunc_t\000"
 21727      6E635F74 
 21727      00
 21728              	.LASF122:
 21729 2040 43414E5F 		.ascii	"CAN_FIFOMailBox_TypeDef\000"
 21729      4649464F 
 21729      4D61696C 
 21729      426F785F 
 21729      54797065 
 21730              	.LASF152:
 21731 2058 4441435F 		.ascii	"DAC_TypeDef\000"
 21731      54797065 
 21731      44656600 
 21732              	.LASF219:
 21733 2064 77746F62 		.ascii	"wtobjp\000"
 21733      6A7000
 21734              	.LASF740:
 21735 206b 5F66706F 		.ascii	"_fpos_t\000"
 21735      735F7400 
 21736              	.LASF402:
 21737 2073 4441435F 		.ascii	"DAC_DHRM_12BIT_RIGHT\000"
 21737      4448524D 
 21737      5F313242 
 21737      49545F52 
 21737      49474854 
 21738              	.LASF801:
 21739 2088 5F66696C 		.ascii	"_file\000"
 21739      6500
 21740              	.LASF937:
 21741 208e 63616D5F 		.ascii	"cam_heigth\000"
 21741      68656967 
 21741      746800
 21742              	.LASF916:
 21743 2099 54797065 		.ascii	"TypeAccSpheric\000"
 21743      41636353 
 21743      70686572 
 21743      696300
 21744              	.LASF57:
 21745 20a8 705F7265 		.ascii	"p_realprio\000"
 21745      616C7072 
 21745      696F00
 21746              	.LASF536:
 21747 20b3 63617061 		.ascii	"capacity\000"
 21747      63697479 
 21747      00
 21748              	.LASF272:
 21749 20bc 715F6E6F 		.ascii	"q_notify\000"
 21749      74696679 
 21749      00
 21750              	.LASF222:
 21751 20c5 77746D74 		.ascii	"wtmtxp\000"
ARM GAS  C:\Users\mathi\AppData\Local\Temp\cc0ZaFXf.s 			page 415


 21751      787000
 21752              	.LASF799:
 21753 20cc 5F5F7346 		.ascii	"__sFILE\000"
 21753      494C4500 
 21754              	.LASF953:
 21755 20d4 655F7365 		.ascii	"e_send_uart1_char\000"
 21755      6E645F75 
 21755      61727431 
 21755      5F636861 
 21755      7200
 21756              	.LASF795:
 21757 20e6 5F666E73 		.ascii	"_fns\000"
 21757      00
 21758              	.LASF734:
 21759 20eb 6672616D 		.ascii	"frame_end_cb\000"
 21759      655F656E 
 21759      645F6362 
 21759      00
 21760              	.LASF700:
 21761 20f8 5553424F 		.ascii	"USBOutEndpointState\000"
 21761      7574456E 
 21761      64706F69 
 21761      6E745374 
 21761      61746500 
 21762              	.LASF1014:
 21763 210c 5F5F6275 		.ascii	"__builtin_memcpy\000"
 21763      696C7469 
 21763      6E5F6D65 
 21763      6D637079 
 21763      00
 21764              	.LASF657:
 21765 211d 72657376 		.ascii	"resvd41C\000"
 21765      64343143 
 21765      00
 21766              	.LASF881:
 21767 2126 6368616E 		.ascii	"changed\000"
 21767      67656400 
 21768              	.LASF746:
 21769 212e 5F6D6273 		.ascii	"_mbstate_t\000"
 21769      74617465 
 21769      5F7400
 21770              	.LASF864:
 21771 2139 5F685F65 		.ascii	"_h_errno\000"
 21771      72726E6F 
 21771      00
 21772              	.LASF897:
 21773 2142 554E4445 		.ascii	"UNDERWORLD\000"
 21773      52574F52 
 21773      4C4400
 21774              	.LASF119:
 21775 214d 52445452 		.ascii	"RDTR\000"
 21775      00
 21776              	.LASF295:
 21777 2152 626C6B5F 		.ascii	"blk_num\000"
 21777      6E756D00 
 21778              	.LASF595:
 21779 215a 5553425F 		.ascii	"USB_EVENT_RESET\000"
ARM GAS  C:\Users\mathi\AppData\Local\Temp\cc0ZaFXf.s 			page 416


 21779      4556454E 
 21779      545F5245 
 21779      53455400 
 21780              	.LASF1010:
 21781 216a 2E2E2F2E 		.ascii	"../../lib/e-puck2_main-processor/src/epuck1x/Aserco"
 21781      2E2F6C69 
 21781      622F652D 
 21781      7075636B 
 21781      325F6D61 
 21782 219d 6D2E6300 		.ascii	"m.c\000"
 21783              	.LASF67:
 21784 21a1 63685F72 		.ascii	"ch_ready_list\000"
 21784      65616479 
 21784      5F6C6973 
 21784      7400
 21785              	.LASF764:
 21786 21af 67726F75 		.ascii	"group\000"
 21786      7000
 21787              	.LASF302:
 21788 21b5 50555044 		.ascii	"PUPDR\000"
 21788      5200
 21789              	.LASF8:
 21790 21bb 5F5F696E 		.ascii	"__int32_t\000"
 21790      7433325F 
 21790      7400
 21791              	.LASF911:
 21792 21c5 4D4C5F46 		.ascii	"ML_FORCE_CHANGE\000"
 21792      4F524345 
 21792      5F434841 
 21792      4E474500 
 21793              	.LASF10:
 21794 21d5 5F5F7569 		.ascii	"__uint32_t\000"
 21794      6E743332 
 21794      5F7400
 21795              	.LASF900:
 21796 21e0 4D415249 		.ascii	"MARIO_FLAG\000"
 21796      4F5F464C 
 21796      414700
 21797              	.LASF86:
 21798 21eb 63685F73 		.ascii	"ch_system_debug\000"
 21798      79737465 
 21798      6D5F6465 
 21798      62756700 
 21799              	.LASF668:
 21800 21fb 4441494E 		.ascii	"DAINTMSK\000"
 21800      544D534B 
 21800      00
 21801              	.LASF724:
 21802 2204 44434D49 		.ascii	"DCMI_ACTIVE_STREAM\000"
 21802      5F414354 
 21802      4956455F 
 21802      53545245 
 21802      414D00
 21803              	.LASF422:
 21804 2217 45585443 		.ascii	"EXTConfig\000"
 21804      6F6E6669 
 21804      6700
ARM GAS  C:\Users\mathi\AppData\Local\Temp\cc0ZaFXf.s 			page 417


 21805              	.LASF874:
 21806 2221 70617261 		.ascii	"parameter_namespace_s\000"
 21806      6D657465 
 21806      725F6E61 
 21806      6D657370 
 21806      6163655F 
 21807              	.LASF267:
 21808 2237 715F636F 		.ascii	"q_counter\000"
 21808      756E7465 
 21808      7200
 21809              	.LASF587:
 21810 2241 5553425F 		.ascii	"USB_EP0_WAITING_SETUP\000"
 21810      4550305F 
 21810      57414954 
 21810      494E475F 
 21810      53455455 
 21811              	.LASF792:
 21812 2257 5F69735F 		.ascii	"_is_cxa\000"
 21812      63786100 
 21813              	.LASF290:
 21814 225f 424C4B5F 		.ascii	"BLK_READING\000"
 21814      52454144 
 21814      494E4700 
 21815              	.LASF312:
 21816 226b 6166726C 		.ascii	"afrl\000"
 21816      00
 21817              	.LASF690:
 21818 2270 71756575 		.ascii	"queue\000"
 21818      6500
 21819              	.LASF570:
 21820 2276 65703065 		.ascii	"ep0endcb\000"
 21820      6E646362 
 21820      00
 21821              	.LASF1007:
 21822 227f 655F706F 		.ascii	"e_poxxxx_is_img_ready\000"
 21822      78787878 
 21822      5F69735F 
 21822      696D675F 
 21822      72656164 
 21823              	.LASF280:
 21824 2295 73656C66 		.ascii	"selfindex\000"
 21824      696E6465 
 21824      7800
 21825              	.LASF253:
 21826 229f 6D757465 		.ascii	"mutex_t\000"
 21826      785F7400 
 21827              	.LASF829:
 21828 22a7 5F703573 		.ascii	"_p5s\000"
 21828      00
 21829              	.LASF55:
 21830 22ac 705F6570 		.ascii	"p_epending\000"
 21830      656E6469 
 21830      6E6700
 21831              	.LASF1006:
 21832 22b7 67657441 		.ascii	"getAllAxesGyro\000"
 21832      6C6C4178 
 21832      65734779 
ARM GAS  C:\Users\mathi\AppData\Local\Temp\cc0ZaFXf.s 			page 418


 21832      726F00
 21833              	.LASF299:
 21834 22c6 4D4F4445 		.ascii	"MODER\000"
 21834      5200
 21835              	.LASF484:
 21836 22cc 4932535F 		.ascii	"I2S_COMPLETE\000"
 21836      434F4D50 
 21836      4C455445 
 21836      00
 21837              	.LASF979:
 21838 22d9 655F706F 		.ascii	"e_poxxxx_init_cam\000"
 21838      78787878 
 21838      5F696E69 
 21838      745F6361 
 21838      6D00
 21839              	.LASF761:
 21840 22eb 77617463 		.ascii	"watchers\000"
 21840      68657273 
 21840      00
 21841              	.LASF126:
 21842 22f4 52455345 		.ascii	"RESERVED0\000"
 21842      52564544 
 21842      3000
 21843              	.LASF129:
 21844 22fe 52455345 		.ascii	"RESERVED1\000"
 21844      52564544 
 21844      3100
 21845              	.LASF131:
 21846 2308 52455345 		.ascii	"RESERVED2\000"
 21846      52564544 
 21846      3200
 21847              	.LASF133:
 21848 2312 52455345 		.ascii	"RESERVED3\000"
 21848      52564544 
 21848      3300
 21849              	.LASF135:
 21850 231c 52455345 		.ascii	"RESERVED4\000"
 21850      52564544 
 21850      3400
 21851              	.LASF137:
 21852 2326 52455345 		.ascii	"RESERVED5\000"
 21852      52564544 
 21852      3500
 21853              	.LASF711:
 21854 2330 55534245 		.ascii	"USBEndpointConfig\000"
 21854      6E64706F 
 21854      696E7443 
 21854      6F6E6669 
 21854      6700
 21855              	.LASF141:
 21856 2342 44485231 		.ascii	"DHR12R1\000"
 21856      32523100 
 21857              	.LASF144:
 21858 234a 44485231 		.ascii	"DHR12R2\000"
 21858      32523200 
 21859              	.LASF418:
 21860 2352 65787463 		.ascii	"extcallback_t\000"
ARM GAS  C:\Users\mathi\AppData\Local\Temp\cc0ZaFXf.s 			page 419


 21860      616C6C62 
 21860      61636B5F 
 21860      7400
 21861              	.LASF374:
 21862 2360 72787175 		.ascii	"rxqueue\000"
 21862      65756500 
 21863              	.LASF196:
 21864 2368 73655F74 		.ascii	"se_time\000"
 21864      696D6500 
 21865              	.LASF659:
 21866 2370 72657376 		.ascii	"resvd444\000"
 21866      64343434 
 21866      00
 21867              	.LASF326:
 21868 2379 70616C5F 		.ascii	"pal_default_config\000"
 21868      64656661 
 21868      756C745F 
 21868      636F6E66 
 21868      696700
 21869              	.LASF871:
 21870 238c 5F676C6F 		.ascii	"_global_impure_ptr\000"
 21870      62616C5F 
 21870      696D7075 
 21870      72655F70 
 21870      747200
 21871              	.LASF344:
 21872 239f 67727070 		.ascii	"grpp\000"
 21872      00
 21873              	.LASF147:
 21874 23a4 44485231 		.ascii	"DHR12RD\000"
 21874      32524400 
 21875              	.LASF257:
 21876 23ac 656C5F6C 		.ascii	"el_listener\000"
 21876      69737465 
 21876      6E657200 
 21877              	.LASF689:
 21878 23b8 6C696E65 		.ascii	"linear\000"
 21878      617200
 21879              	.LASF723:
 21880 23bf 44434D49 		.ascii	"DCMI_READY\000"
 21880      5F524541 
 21880      445900
 21881              	.LASF972:
 21882 23ca 63685468 		.ascii	"chThdSleep\000"
 21882      64536C65 
 21882      657000
 21883              	.LASF442:
 21884 23d5 73746D33 		.ascii	"stm32_tim_t\000"
 21884      325F7469 
 21884      6D5F7400 
 21885              	.LASF69:
 21886 23e1 725F7072 		.ascii	"r_prio\000"
 21886      696F00
 21887              	.LASF154:
 21888 23e8 4D495352 		.ascii	"MISR\000"
 21888      00
 21889              	.LASF98:
ARM GAS  C:\Users\mathi\AppData\Local\Temp\cc0ZaFXf.s 			page 420


 21890 23ed 49544D5F 		.ascii	"ITM_RxBuffer\000"
 21890      52784275 
 21890      66666572 
 21890      00
 21891              	.LASF1003:
 21892 23fa 655F6765 		.ascii	"e_getchar_uart2\000"
 21892      74636861 
 21892      725F7561 
 21892      72743200 
 21893              	.LASF296:
 21894 240a 426C6F63 		.ascii	"BlockDeviceInfo\000"
 21894      6B446576 
 21894      69636549 
 21894      6E666F00 
 21895              	.LASF14:
 21896 241a 6C6F6E67 		.ascii	"long long unsigned int\000"
 21896      206C6F6E 
 21896      6720756E 
 21896      7369676E 
 21896      65642069 
 21897              	.LASF183:
 21898 2431 5344494F 		.ascii	"SDIO_TypeDef\000"
 21898      5F547970 
 21898      65446566 
 21898      00
 21899              	.LASF205:
 21900 243e 6F666673 		.ascii	"offset\000"
 21900      657400
 21901              	.LASF767:
 21902 2445 746F7069 		.ascii	"topics\000"
 21902      637300
 21903              	.LASF160:
 21904 244c 4E445452 		.ascii	"NDTR\000"
 21904      00
 21905              	.LASF262:
 21906 2451 65735F6E 		.ascii	"es_next\000"
 21906      65787400 
 21907              	.LASF850:
 21908 2459 5F67616D 		.ascii	"_gamma_signgam\000"
 21908      6D615F73 
 21908      69676E67 
 21908      616D00
 21909              	.LASF625:
 21910 2468 72657376 		.ascii	"resvd1C\000"
 21910      64314300 
 21911              	.LASF97:
 21912 2470 69646C65 		.ascii	"idle_thread_wa\000"
 21912      5F746872 
 21912      6561645F 
 21912      776100
 21913              	.LASF621:
 21914 247f 44494550 		.ascii	"DIEPINT\000"
 21914      494E5400 
 21915              	.LASF189:
 21916 2487 5350495F 		.ascii	"SPI_TypeDef\000"
 21916      54797065 
 21916      44656600 
ARM GAS  C:\Users\mathi\AppData\Local\Temp\cc0ZaFXf.s 			page 421


 21917              	.LASF80:
 21918 2493 76745F66 		.ascii	"vt_func\000"
 21918      756E6300 
 21919              	.LASF433:
 21920 249b 534D4352 		.ascii	"SMCR\000"
 21920      00
 21921              	.LASF666:
 21922 24a0 444F4550 		.ascii	"DOEPMSK\000"
 21922      4D534B00 
 21923              	.LASF76:
 21924 24a8 63685F76 		.ascii	"ch_virtual_timer\000"
 21924      69727475 
 21924      616C5F74 
 21924      696D6572 
 21924      00
 21925              	.LASF48:
 21926 24b9 705F666C 		.ascii	"p_flags\000"
 21926      61677300 
 21927              	.LASF986:
 21928 24c1 67657442 		.ascii	"getBatteryValuePercentage\000"
 21928      61747465 
 21928      72795661 
 21928      6C756550 
 21928      65726365 
 21929              	.LASF223:
 21930 24db 65776D61 		.ascii	"ewmask\000"
 21930      736B00
 21931              	.LASF259:
 21932 24e2 656C5F66 		.ascii	"el_flags\000"
 21932      6C616773 
 21932      00
 21933              	.LASF812:
 21934 24eb 5F646174 		.ascii	"_data\000"
 21934      6100
 21935              	.LASF261:
 21936 24f1 6576656E 		.ascii	"event_source\000"
 21936      745F736F 
 21936      75726365 
 21936      00
 21937              	.LASF56:
 21938 24fe 705F6D74 		.ascii	"p_mtxlist\000"
 21938      786C6973 
 21938      7400
 21939              	.LASF381:
 21940 2508 43414E44 		.ascii	"CAND1\000"
 21940      3100
 21941              	.LASF132:
 21942 250e 46533152 		.ascii	"FS1R\000"
 21942      00
 21943              	.LASF28:
 21944 2513 74737461 		.ascii	"tstate_t\000"
 21944      74655F74 
 21944      00
 21945              	.LASF556:
 21946 251c 53504944 		.ascii	"SPIDriver\000"
 21946      72697665 
 21946      7200
ARM GAS  C:\Users\mathi\AppData\Local\Temp\cc0ZaFXf.s 			page 422


 21947              	.LASF667:
 21948 2526 4441494E 		.ascii	"DAINT\000"
 21948      5400
 21949              	.LASF560:
 21950 252c 53504943 		.ascii	"SPIConfig\000"
 21950      6F6E6669 
 21950      6700
 21951              	.LASF823:
 21952 2536 5F756E73 		.ascii	"_unspecified_locale_info\000"
 21952      70656369 
 21952      66696564 
 21952      5F6C6F63 
 21952      616C655F 
 21953              	.LASF311:
 21954 254f 70757064 		.ascii	"pupdr\000"
 21954      7200
 21955              	.LASF401:
 21956 2555 64616365 		.ascii	"dacerrorcallback_t\000"
 21956      72726F72 
 21956      63616C6C 
 21956      6261636B 
 21956      5F7400
 21957              	.LASF731:
 21958 2568 64636D69 		.ascii	"dcmi\000"
 21958      00
 21959              	.LASF563:
 21960 256d 7472616E 		.ascii	"transmitting\000"
 21960      736D6974 
 21960      74696E67 
 21960      00
 21961              	.LASF421:
 21962 257a 6368616E 		.ascii	"channels\000"
 21962      6E656C73 
 21962      00
 21963              	.LASF170:
 21964 2583 434C4B43 		.ascii	"CLKCR\000"
 21964      5200
 21965              	.LASF535:
 21966 2589 53444344 		.ascii	"SDCDriver\000"
 21966      72697665 
 21966      7200
 21967              	.LASF45:
 21968 2593 705F6E61 		.ascii	"p_name\000"
 21968      6D6500
 21969              	.LASF825:
 21970 259a 5F5F7364 		.ascii	"__sdidinit\000"
 21970      6964696E 
 21970      697400
 21971              	.LASF517:
 21972 25a5 53657269 		.ascii	"SerialDriver\000"
 21972      616C4472 
 21972      69766572 
 21972      00
 21973              	.LASF110:
 21974 25b2 4A445231 		.ascii	"JDR1\000"
 21974      00
 21975              	.LASF111:
ARM GAS  C:\Users\mathi\AppData\Local\Temp\cc0ZaFXf.s 			page 423


 21976 25b7 4A445232 		.ascii	"JDR2\000"
 21976      00
 21977              	.LASF112:
 21978 25bc 4A445233 		.ascii	"JDR3\000"
 21978      00
 21979              	.LASF113:
 21980 25c1 4A445234 		.ascii	"JDR4\000"
 21980      00
 21981              	.LASF629:
 21982 25c6 444F4550 		.ascii	"DOEPTSIZ\000"
 21982      5453495A 
 21982      00
 21983              	.LASF329:
 21984 25cf 4144435F 		.ascii	"ADC_READY\000"
 21984      52454144 
 21984      5900
 21985              	.LASF759:
 21986 25d9 6E616D65 		.ascii	"name\000"
 21986      00
 21987              	.LASF747:
 21988 25de 5F666C6F 		.ascii	"_flock_t\000"
 21988      636B5F74 
 21988      00
 21989              	.LASF82:
 21990 25e7 76697274 		.ascii	"virtual_timers_list_t\000"
 21990      75616C5F 
 21990      74696D65 
 21990      72735F6C 
 21990      6973745F 
 21991              	.LASF653:
 21992 25fd 72657376 		.ascii	"resvd40C\000"
 21992      64343043 
 21992      00
 21993              	.LASF351:
 21994 2606 63697263 		.ascii	"circular\000"
 21994      756C6172 
 21994      00
 21995              	.LASF485:
 21996 260f 69327373 		.ascii	"i2sstate_t\000"
 21996      74617465 
 21996      5F7400
 21997              	.LASF308:
 21998 261a 6D6F6465 		.ascii	"moder\000"
 21998      7200
 21999              	.LASF225:
 22000 2620 735F7175 		.ascii	"s_queue\000"
 22000      65756500 
 22001              	.LASF214:
 22002 2628 6D5F6372 		.ascii	"m_crit_thd\000"
 22002      69745F74 
 22002      686400
 22003              	.LASF383:
 22004 2633 4441435F 		.ascii	"DAC_STOP\000"
 22004      53544F50 
 22004      00
 22005              	.LASF660:
 22006 263c 72657376 		.ascii	"resvd700\000"
ARM GAS  C:\Users\mathi\AppData\Local\Temp\cc0ZaFXf.s 			page 424


 22006      64373030 
 22006      00
 22007              	.LASF187:
 22008 2645 49325343 		.ascii	"I2SCFGR\000"
 22008      46475200 
 22009              	.LASF750:
 22010 264d 6F707469 		.ascii	"optind\000"
 22010      6E6400
 22011              	.LASF233:
 22012 2654 63685F69 		.ascii	"ch_identifier\000"
 22012      64656E74 
 22012      69666965 
 22012      7200
 22013              	.LASF527:
 22014 2662 77726974 		.ascii	"writet\000"
 22014      657400
 22015              	.LASF907:
 22016 2669 4E425F53 		.ascii	"NB_SONGS\000"
 22016      4F4E4753 
 22016      00
 22017              	.LASF12:
 22018 2672 6C6F6E67 		.ascii	"long long int\000"
 22018      206C6F6E 
 22018      6720696E 
 22018      7400
 22019              	.LASF993:
 22020 2680 67657454 		.ascii	"getTemperature\000"
 22020      656D7065 
 22020      72617475 
 22020      726500
 22021              	.LASF647:
 22022 268f 48505458 		.ascii	"HPTXFSIZ\000"
 22022      4653495A 
 22022      00
 22023              	.LASF735:
 22024 2698 7472616E 		.ascii	"transfer_complete_cb\000"
 22024      73666572 
 22024      5F636F6D 
 22024      706C6574 
 22024      655F6362 
 22025              	.LASF240:
 22026 26ad 63665F6F 		.ascii	"cf_off_prio\000"
 22026      66665F70 
 22026      72696F00 
 22027              	.LASF815:
 22028 26b9 5F666C61 		.ascii	"_flags2\000"
 22028      67733200 
 22029              	.LASF967:
 22030 26c1 655F6765 		.ascii	"e_get_micro_volume\000"
 22030      745F6D69 
 22030      63726F5F 
 22030      766F6C75 
 22030      6D6500
 22031              	.LASF865:
 22032 26d4 5F6E6578 		.ascii	"_nextf\000"
 22032      746600
 22033              	.LASF211:
ARM GAS  C:\Users\mathi\AppData\Local\Temp\cc0ZaFXf.s 			page 425


 22034 26db 74696D65 		.ascii	"time_measurement_t\000"
 22034      5F6D6561 
 22034      73757265 
 22034      6D656E74 
 22034      5F7400
 22035              	.LASF548:
 22036 26ee 6765745F 		.ascii	"get_info\000"
 22036      696E666F 
 22036      00
 22037              	.LASF338:
 22038 26f7 61646365 		.ascii	"adcerror_t\000"
 22038      72726F72 
 22038      5F7400
 22039              	.LASF713:
 22040 2702 6765745F 		.ascii	"get_descriptor_cb\000"
 22040      64657363 
 22040      72697074 
 22040      6F725F63 
 22040      6200
 22041              	.LASF824:
 22042 2714 5F6C6F63 		.ascii	"_locale\000"
 22042      616C6500 
 22043              	.LASF34:
 22044 271c 6576656E 		.ascii	"eventflags_t\000"
 22044      74666C61 
 22044      67735F74 
 22044      00
 22045              	.LASF552:
 22046 2729 5350495F 		.ascii	"SPI_READY\000"
 22046      52454144 
 22046      5900
 22047              	.LASF128:
 22048 2733 73464946 		.ascii	"sFIFOMailBox\000"
 22048      4F4D6169 
 22048      6C426F78 
 22048      00
 22049              	.LASF540:
 22050 2740 6275735F 		.ascii	"bus_width\000"
 22050      77696474 
 22050      6800
 22051              	.LASF927:
 22052 274a 4C45445F 		.ascii	"LED_action\000"
 22052      61637469 
 22052      6F6E00
 22053              	.LASF149:
 22054 2755 44485238 		.ascii	"DHR8RD\000"
 22054      524400
 22055              	.LASF662:
 22056 275c 4443544C 		.ascii	"DCTL\000"
 22056      00
 22057              	.LASF542:
 22058 2761 53444344 		.ascii	"SDCDriverVMT\000"
 22058      72697665 
 22058      72564D54 
 22058      00
 22059              	.LASF688:
 22060 276e 74786275 		.ascii	"txbuf\000"
ARM GAS  C:\Users\mathi\AppData\Local\Temp\cc0ZaFXf.s 			page 426


 22060      6600
 22061              	.LASF681:
 22062 2774 50434743 		.ascii	"PCGCCTL\000"
 22062      43544C00 
 22063              	.LASF599:
 22064 277c 5553425F 		.ascii	"USB_EVENT_WAKEUP\000"
 22064      4556454E 
 22064      545F5741 
 22064      4B455550 
 22064      00
 22065              	.LASF852:
 22066 278d 5F723438 		.ascii	"_r48\000"
 22066      00
 22067              	.LASF932:
 22068 2792 6779726F 		.ascii	"gyrox\000"
 22068      7800
 22069              	.LASF934:
 22070 2798 6779726F 		.ascii	"gyroz\000"
 22070      7A00
 22071              	.LASF44:
 22072 279e 705F6F6C 		.ascii	"p_older\000"
 22072      64657200 
 22073              	.LASF292:
 22074 27a6 424C4B5F 		.ascii	"BLK_SYNCING\000"
 22074      53594E43 
 22074      494E4700 
 22075              	.LASF323:
 22076 27b2 50494461 		.ascii	"PIData\000"
 22076      746100
 22077              	.LASF710:
 22078 27b9 73657475 		.ascii	"setup_buf\000"
 22078      705F6275 
 22078      6600
 22079              	.LASF448:
 22080 27c3 47505444 		.ascii	"GPTD6\000"
 22080      3600
 22081              	.LASF718:
 22082 27c9 44434D49 		.ascii	"DCMI_ERR_DMAFAILURE\000"
 22082      5F455252 
 22082      5F444D41 
 22082      4641494C 
 22082      55524500 
 22083              	.LASF354:
 22084 27dd 6572726F 		.ascii	"error_cb\000"
 22084      725F6362 
 22084      00
 22085              	.LASF288:
 22086 27e6 424C4B5F 		.ascii	"BLK_DISCONNECTING\000"
 22086      44495343 
 22086      4F4E4E45 
 22086      4354494E 
 22086      4700
 22087              	.LASF558:
 22088 27f8 7373706F 		.ascii	"ssport\000"
 22088      727400
 22089              	.LASF886:
 22090 27ff 6275665F 		.ascii	"buf_len\000"
ARM GAS  C:\Users\mathi\AppData\Local\Temp\cc0ZaFXf.s 			page 427


 22090      6C656E00 
 22091              	.LASF60:
 22092 2807 74687265 		.ascii	"thread_reference_t\000"
 22092      61645F72 
 22092      65666572 
 22092      656E6365 
 22092      5F7400
 22093              	.LASF720:
 22094 281a 64636D69 		.ascii	"dcmierror_t\000"
 22094      6572726F 
 22094      725F7400 
 22095              	.LASF417:
 22096 2826 65787063 		.ascii	"expchannel_t\000"
 22096      68616E6E 
 22096      656C5F74 
 22096      00
 22097              	.LASF564:
 22098 2833 72656365 		.ascii	"receiving\000"
 22098      6976696E 
 22098      6700
 22099              	.LASF878:
 22100 283d 70617261 		.ascii	"parameter_list\000"
 22100      6D657465 
 22100      725F6C69 
 22100      737400
 22101              	.LASF838:
 22102 284c 5F5F4649 		.ascii	"__FILE\000"
 22102      4C4500
 22103              	.LASF444:
 22104 2853 66726571 		.ascii	"frequency\000"
 22104      75656E63 
 22104      7900
 22105              	.LASF206:
 22106 285d 746D5F63 		.ascii	"tm_calibration_t\000"
 22106      616C6962 
 22106      72617469 
 22106      6F6E5F74 
 22106      00
 22107              	.LASF0:
 22108 286e 5F5F696E 		.ascii	"__int8_t\000"
 22108      74385F74 
 22108      00
 22109              	.LASF707:
 22110 2877 696E5F73 		.ascii	"in_state\000"
 22110      74617465 
 22110      00
 22111              	.LASF190:
 22112 2880 47545052 		.ascii	"GTPR\000"
 22112      00
 22113              	.LASF949:
 22114 2885 48577665 		.ascii	"HWversion\000"
 22114      7273696F 
 22114      6E00
 22115              	.LASF234:
 22116 288f 63685F7A 		.ascii	"ch_zero\000"
 22116      65726F00 
 22117              	.LASF465:
ARM GAS  C:\Users\mathi\AppData\Local\Temp\cc0ZaFXf.s 			page 428


 22118 2897 46415354 		.ascii	"FAST_DUTY_CYCLE_2\000"
 22118      5F445554 
 22118      595F4359 
 22118      434C455F 
 22118      3200
 22119              	.LASF178:
 22120 28a9 44435452 		.ascii	"DCTRL\000"
 22120      4C00
 22121              	.LASF239:
 22122 28af 63685F74 		.ascii	"ch_threadsize\000"
 22122      68726561 
 22122      6473697A 
 22122      6500
 22123              	.LASF167:
 22124 28bd 464C5452 		.ascii	"FLTR\000"
 22124      00
 22125              	.LASF435:
 22126 28c2 43434D52 		.ascii	"CCMR1\000"
 22126      3100
 22127              	.LASF436:
 22128 28c8 43434D52 		.ascii	"CCMR2\000"
 22128      3200
 22129              	.LASF440:
 22130 28ce 43434D52 		.ascii	"CCMR3\000"
 22130      3300
 22131              	.LASF15:
 22132 28d4 756E7369 		.ascii	"unsigned int\000"
 22132      676E6564 
 22132      20696E74 
 22132      00
 22133              	.LASF358:
 22134 28e1 73717232 		.ascii	"sqr2\000"
 22134      00
 22135              	.LASF359:
 22136 28e6 73717233 		.ascii	"sqr3\000"
 22136      00
 22137              	.LASF730:
 22138 28eb 44434D49 		.ascii	"DCMIDriver\000"
 22138      44726976 
 22138      657200
 22139              	.LASF651:
 22140 28f6 48464952 		.ascii	"HFIR\000"
 22140      00
 22141              	.LASF736:
 22142 28fb 44434D49 		.ascii	"DCMIConfig\000"
 22142      436F6E66 
 22142      696700
 22143              	.LASF581:
 22144 2906 5553425F 		.ascii	"USB_UNINIT\000"
 22144      554E494E 
 22144      495400
 22145              	.LASF277:
 22146 2911 73747265 		.ascii	"stream\000"
 22146      616D00
 22147              	.LASF361:
 22148 2918 64756D6D 		.ascii	"dummy\000"
 22148      7900
ARM GAS  C:\Users\mathi\AppData\Local\Temp\cc0ZaFXf.s 			page 429


 22149              	.LASF903:
 22150 291e 53494D50 		.ascii	"SIMPSON\000"
 22150      534F4E00 
 22151              	.LASF463:
 22152 2926 6932636F 		.ascii	"i2copmode_t\000"
 22152      706D6F64 
 22152      655F7400 
 22153              	.LASF156:
 22154 2932 45535552 		.ascii	"ESUR\000"
 22154      00
 22155              	.LASF255:
 22156 2937 6576656E 		.ascii	"event_listener\000"
 22156      745F6C69 
 22156      7374656E 
 22156      657200
 22157              	.LASF844:
 22158 2946 5F6D756C 		.ascii	"_mult\000"
 22158      7400
 22159              	.LASF5:
 22160 294c 73686F72 		.ascii	"short int\000"
 22160      7420696E 
 22160      7400
 22161              	.LASF605:
 22162 2956 75736263 		.ascii	"usbcallback_t\000"
 22162      616C6C62 
 22162      61636B5F 
 22162      7400
 22163              	.LASF804:
 22164 2964 5F726561 		.ascii	"_read\000"
 22164      6400
 22165              	.LASF634:
 22166 296a 47555342 		.ascii	"GUSBCFG\000"
 22166      43464700 
 22167              	.LASF191:
 22168 2972 55534152 		.ascii	"USART_TypeDef\000"
 22168      545F5479 
 22168      70654465 
 22168      6600
 22169              	.LASF276:
 22170 2980 6F757470 		.ascii	"output_queue_t\000"
 22170      75745F71 
 22170      75657565 
 22170      5F7400
 22171              	.LASF842:
 22172 298f 5F72616E 		.ascii	"_rand48\000"
 22172      64343800 
 22173              	.LASF683:
 22174 2997 73746D33 		.ascii	"stm32_otg_t\000"
 22174      325F6F74 
 22174      675F7400 
 22175              	.LASF787:
 22176 29a3 5F5F746D 		.ascii	"__tm_isdst\000"
 22176      5F697364 
 22176      737400
 22177              	.LASF486:
 22178 29ae 49325344 		.ascii	"I2SDriver\000"
 22178      72697665 
ARM GAS  C:\Users\mathi\AppData\Local\Temp\cc0ZaFXf.s 			page 430


 22178      7200
 22179              	.LASF470:
 22180 29b8 64757479 		.ascii	"duty_cycle\000"
 22180      5F637963 
 22180      6C6500
 22181              	.LASF493:
 22182 29c3 49325343 		.ascii	"I2SConfig\000"
 22182      6F6E6669 
 22182      6700
 22183              	.LASF602:
 22184 29cd 75645F73 		.ascii	"ud_size\000"
 22184      697A6500 
 22185              	.LASF975:
 22186 29d5 655F7365 		.ascii	"e_set_body_led\000"
 22186      745F626F 
 22186      64795F6C 
 22186      656400
 22187              	.LASF705:
 22188 29e4 696E5F6D 		.ascii	"in_maxsize\000"
 22188      61787369 
 22188      7A6500
 22189              	.LASF320:
 22190 29ef 50464461 		.ascii	"PFData\000"
 22190      746100
 22191              	.LASF413:
 22192 29f6 4558545F 		.ascii	"EXT_STOP\000"
 22192      53544F50 
 22192      00
 22193              	.LASF963:
 22194 29ff 655F7365 		.ascii	"e_set_steps_left\000"
 22194      745F7374 
 22194      6570735F 
 22194      6C656674 
 22194      00
 22195              	.LASF47:
 22196 2a10 705F7374 		.ascii	"p_state\000"
 22196      61746500 
 22197              	.LASF494:
 22198 2a18 49325344 		.ascii	"I2SD2\000"
 22198      3200
 22199              	.LASF543:
 22200 2a1e 69735F69 		.ascii	"is_inserted\000"
 22200      6E736572 
 22200      74656400 
 22201              	.LASF63:
 22202 2a2a 63685F74 		.ascii	"ch_threads_list\000"
 22202      68726561 
 22202      64735F6C 
 22202      69737400 
 22203              	.LASF931:
 22204 2a3a 736F756E 		.ascii	"sound\000"
 22204      6400
 22205              	.LASF179:
 22206 2a40 44434F55 		.ascii	"DCOUNT\000"
 22206      4E5400
 22207              	.LASF164:
 22208 2a47 4F415231 		.ascii	"OAR1\000"
ARM GAS  C:\Users\mathi\AppData\Local\Temp\cc0ZaFXf.s 			page 431


 22208      00
 22209              	.LASF165:
 22210 2a4c 4F415232 		.ascii	"OAR2\000"
 22210      00
 22211              	.LASF59:
 22212 2a51 705F7374 		.ascii	"p_stats\000"
 22212      61747300 
 22213              	.LASF586:
 22214 2a59 75736273 		.ascii	"usbstate_t\000"
 22214      74617465 
 22214      5F7400
 22215              		.ident	"GCC: (GNU Tools for Arm Embedded Processors 7-2017-q4-major) 7.2.1 20170904 (release) [ARM
ARM GAS  C:\Users\mathi\AppData\Local\Temp\cc0ZaFXf.s 			page 432


DEFINED SYMBOLS
                            *ABS*:00000000 Asercom.c
C:\Users\mathi\AppData\Local\Temp\cc0ZaFXf.s:18     .text.run_asercom:00000000 $t
C:\Users\mathi\AppData\Local\Temp\cc0ZaFXf.s:26     .text.run_asercom:00000000 run_asercom
C:\Users\mathi\AppData\Local\Temp\cc0ZaFXf.s:208    .text.run_asercom:000000f6 $d
C:\Users\mathi\AppData\Local\Temp\cc0ZaFXf.s:219    .text.run_asercom:0000010a $t
C:\Users\mathi\AppData\Local\Temp\cc0ZaFXf.s:442    .text.run_asercom:00000248 $d
C:\Users\mathi\AppData\Local\Temp\cc0ZaFXf.s:453    .text.run_asercom:0000025c $t
C:\Users\mathi\AppData\Local\Temp\cc0ZaFXf.s:530    .text.run_asercom:000002c0 $d
C:\Users\mathi\AppData\Local\Temp\cc0ZaFXf.s:4885   .bss.buffer:00000000 buffer
C:\Users\mathi\AppData\Local\Temp\cc0ZaFXf.s:551    .text.run_asercom:00000308 $t
C:\Users\mathi\AppData\Local\Temp\cc0ZaFXf.s:786    .text.run_asercom:0000044e $d
C:\Users\mathi\AppData\Local\Temp\cc0ZaFXf.s:841    .text.run_asercom:000004bc $t
C:\Users\mathi\AppData\Local\Temp\cc0ZaFXf.s:964    .text.run_asercom:0000058c $d
C:\Users\mathi\AppData\Local\Temp\cc0ZaFXf.s:978    .text.run_asercom:000005bc $t
C:\Users\mathi\AppData\Local\Temp\cc0ZaFXf.s:1415   .text.run_asercom:0000087c $d
C:\Users\mathi\AppData\Local\Temp\cc0ZaFXf.s:1424   .text.run_asercom:00000898 $t
C:\Users\mathi\AppData\Local\Temp\cc0ZaFXf.s:1880   .text.run_asercom:00000ba4 $d
C:\Users\mathi\AppData\Local\Temp\cc0ZaFXf.s:1892   .text.run_asercom:00000bc4 $t
C:\Users\mathi\AppData\Local\Temp\cc0ZaFXf.s:1914   .text.run_asercom:00000bec $d
C:\Users\mathi\AppData\Local\Temp\cc0ZaFXf.s:1966   .text.run_asercom:00000cbc $t
C:\Users\mathi\AppData\Local\Temp\cc0ZaFXf.s:2307   .text.run_asercom:00000ef2 $d
C:\Users\mathi\AppData\Local\Temp\cc0ZaFXf.s:2312   .text.run_asercom:00000efc $t
C:\Users\mathi\AppData\Local\Temp\cc0ZaFXf.s:2379   .text.run_asercom:00000f78 $d
C:\Users\mathi\AppData\Local\Temp\cc0ZaFXf.s:2405   .text.run_asercom:00000fd8 $t
C:\Users\mathi\AppData\Local\Temp\cc0ZaFXf.s:2897   .text.run_asercom:00001338 $d
C:\Users\mathi\AppData\Local\Temp\cc0ZaFXf.s:2918   .text.run_asercom:00001384 $t
C:\Users\mathi\AppData\Local\Temp\cc0ZaFXf.s:3336   .text.run_asercom:000015fc $d
C:\Users\mathi\AppData\Local\Temp\cc0ZaFXf.s:3374   .text.run_asercom:0000168c $t
C:\Users\mathi\AppData\Local\Temp\cc0ZaFXf.s:3799   .text.run_asercom:00001958 $d
C:\Users\mathi\AppData\Local\Temp\cc0ZaFXf.s:3822   .text.run_asercom:000019a8 $t
C:\Users\mathi\AppData\Local\Temp\cc0ZaFXf.s:4268   .text.run_asercom:00001c8c $d
C:\Users\mathi\AppData\Local\Temp\cc0ZaFXf.s:4284   .text.run_asercom:00001cc8 $t
C:\Users\mathi\AppData\Local\Temp\cc0ZaFXf.s:4798   .text.run_asercom:00001ff8 $d
C:\Users\mathi\AppData\Local\Temp\cc0ZaFXf.s:4958   .bss.e_ambient_and_reflected_ir:00000000 e_ambient_and_reflected_ir
C:\Users\mathi\AppData\Local\Temp\cc0ZaFXf.s:4964   .bss.e_ambient_ir:00000000 e_ambient_ir
C:\Users\mathi\AppData\Local\Temp\cc0ZaFXf.s:4891   .bss.c:00000000 c
C:\Users\mathi\AppData\Local\Temp\cc0ZaFXf.s:5040   .bss.selector:00000000 selector
C:\Users\mathi\AppData\Local\Temp\cc0ZaFXf.s:4840   .bss.LED_action.12673:00000000 $d
C:\Users\mathi\AppData\Local\Temp\cc0ZaFXf.s:4844   .bss.LED_action.12673:00000000 LED_action.12673
C:\Users\mathi\AppData\Local\Temp\cc0ZaFXf.s:4847   .bss.LED_nbr.12672:00000000 $d
C:\Users\mathi\AppData\Local\Temp\cc0ZaFXf.s:4851   .bss.LED_nbr.12672:00000000 LED_nbr.12672
C:\Users\mathi\AppData\Local\Temp\cc0ZaFXf.s:4854   .bss.accelero.12696:00000000 $d
C:\Users\mathi\AppData\Local\Temp\cc0ZaFXf.s:4858   .bss.accelero.12696:00000000 accelero.12696
C:\Users\mathi\AppData\Local\Temp\cc0ZaFXf.s:4861   .bss.accx.12674:00000000 $d
C:\Users\mathi\AppData\Local\Temp\cc0ZaFXf.s:4865   .bss.accx.12674:00000000 accx.12674
C:\Users\mathi\AppData\Local\Temp\cc0ZaFXf.s:4868   .bss.accy.12675:00000000 $d
C:\Users\mathi\AppData\Local\Temp\cc0ZaFXf.s:4872   .bss.accy.12675:00000000 accy.12675
C:\Users\mathi\AppData\Local\Temp\cc0ZaFXf.s:4875   .bss.accz.12676:00000000 $d
C:\Users\mathi\AppData\Local\Temp\cc0ZaFXf.s:4879   .bss.accz.12676:00000000 accz.12676
C:\Users\mathi\AppData\Local\Temp\cc0ZaFXf.s:4882   .bss.buffer:00000000 $d
C:\Users\mathi\AppData\Local\Temp\cc0ZaFXf.s:4892   .bss.c:00000000 $d
C:\Users\mathi\AppData\Local\Temp\cc0ZaFXf.s:4897   .bss.c1.12662:00000000 c1.12662
C:\Users\mathi\AppData\Local\Temp\cc0ZaFXf.s:4898   .bss.c1.12662:00000000 $d
C:\Users\mathi\AppData\Local\Temp\cc0ZaFXf.s:4903   .bss.c2.12663:00000000 c2.12663
C:\Users\mathi\AppData\Local\Temp\cc0ZaFXf.s:4904   .bss.c2.12663:00000000 $d
C:\Users\mathi\AppData\Local\Temp\cc0ZaFXf.s:4906   .bss.cam_heigth.12683:00000000 $d
ARM GAS  C:\Users\mathi\AppData\Local\Temp\cc0ZaFXf.s 			page 433


C:\Users\mathi\AppData\Local\Temp\cc0ZaFXf.s:4910   .bss.cam_heigth.12683:00000000 cam_heigth.12683
C:\Users\mathi\AppData\Local\Temp\cc0ZaFXf.s:4913   .bss.cam_mode.12681:00000000 $d
C:\Users\mathi\AppData\Local\Temp\cc0ZaFXf.s:4917   .bss.cam_mode.12681:00000000 cam_mode.12681
C:\Users\mathi\AppData\Local\Temp\cc0ZaFXf.s:4920   .bss.cam_size.12685:00000000 $d
C:\Users\mathi\AppData\Local\Temp\cc0ZaFXf.s:4924   .bss.cam_size.12685:00000000 cam_size.12685
C:\Users\mathi\AppData\Local\Temp\cc0ZaFXf.s:4927   .bss.cam_width.12682:00000000 $d
C:\Users\mathi\AppData\Local\Temp\cc0ZaFXf.s:4931   .bss.cam_width.12682:00000000 cam_width.12682
C:\Users\mathi\AppData\Local\Temp\cc0ZaFXf.s:4934   .bss.cam_x1.12686:00000000 $d
C:\Users\mathi\AppData\Local\Temp\cc0ZaFXf.s:4938   .bss.cam_x1.12686:00000000 cam_x1.12686
C:\Users\mathi\AppData\Local\Temp\cc0ZaFXf.s:4941   .bss.cam_y1.12687:00000000 $d
C:\Users\mathi\AppData\Local\Temp\cc0ZaFXf.s:4945   .bss.cam_y1.12687:00000000 cam_y1.12687
C:\Users\mathi\AppData\Local\Temp\cc0ZaFXf.s:4948   .bss.cam_zoom.12684:00000000 $d
C:\Users\mathi\AppData\Local\Temp\cc0ZaFXf.s:4952   .bss.cam_zoom.12684:00000000 cam_zoom.12684
C:\Users\mathi\AppData\Local\Temp\cc0ZaFXf.s:4955   .bss.e_ambient_and_reflected_ir:00000000 $d
C:\Users\mathi\AppData\Local\Temp\cc0ZaFXf.s:4961   .bss.e_ambient_ir:00000000 $d
C:\Users\mathi\AppData\Local\Temp\cc0ZaFXf.s:4970   .bss.first.12688:00000000 first.12688
C:\Users\mathi\AppData\Local\Temp\cc0ZaFXf.s:4971   .bss.first.12688:00000000 $d
C:\Users\mathi\AppData\Local\Temp\cc0ZaFXf.s:4973   .bss.gyrox.12678:00000000 $d
C:\Users\mathi\AppData\Local\Temp\cc0ZaFXf.s:4977   .bss.gyrox.12678:00000000 gyrox.12678
C:\Users\mathi\AppData\Local\Temp\cc0ZaFXf.s:4980   .bss.gyroy.12679:00000000 $d
C:\Users\mathi\AppData\Local\Temp\cc0ZaFXf.s:4984   .bss.gyroy.12679:00000000 gyroy.12679
C:\Users\mathi\AppData\Local\Temp\cc0ZaFXf.s:4987   .bss.gyroz.12680:00000000 $d
C:\Users\mathi\AppData\Local\Temp\cc0ZaFXf.s:4991   .bss.gyroz.12680:00000000 gyroz.12680
C:\Users\mathi\AppData\Local\Temp\cc0ZaFXf.s:4994   .bss.i.12665:00000000 $d
C:\Users\mathi\AppData\Local\Temp\cc0ZaFXf.s:4998   .bss.i.12665:00000000 i.12665
C:\Users\mathi\AppData\Local\Temp\cc0ZaFXf.s:5001   .bss.j.12666:00000000 $d
C:\Users\mathi\AppData\Local\Temp\cc0ZaFXf.s:5005   .bss.j.12666:00000000 j.12666
C:\Users\mathi\AppData\Local\Temp\cc0ZaFXf.s:5008   .bss.mod.12690:00000000 $d
C:\Users\mathi\AppData\Local\Temp\cc0ZaFXf.s:5012   .bss.mod.12690:00000000 mod.12690
C:\Users\mathi\AppData\Local\Temp\cc0ZaFXf.s:5015   .bss.positionl.12671:00000000 $d
C:\Users\mathi\AppData\Local\Temp\cc0ZaFXf.s:5019   .bss.positionl.12671:00000000 positionl.12671
C:\Users\mathi\AppData\Local\Temp\cc0ZaFXf.s:5022   .bss.positionr.12670:00000000 $d
C:\Users\mathi\AppData\Local\Temp\cc0ZaFXf.s:5026   .bss.positionr.12670:00000000 positionr.12670
C:\Users\mathi\AppData\Local\Temp\cc0ZaFXf.s:5029   .bss.reg.12691:00000000 $d
C:\Users\mathi\AppData\Local\Temp\cc0ZaFXf.s:5033   .bss.reg.12691:00000000 reg.12691
C:\Users\mathi\AppData\Local\Temp\cc0ZaFXf.s:5036   .bss.selector:00000000 $d
C:\Users\mathi\AppData\Local\Temp\cc0ZaFXf.s:5043   .bss.sound.12677:00000000 $d
C:\Users\mathi\AppData\Local\Temp\cc0ZaFXf.s:5047   .bss.sound.12677:00000000 sound.12677
C:\Users\mathi\AppData\Local\Temp\cc0ZaFXf.s:5050   .bss.speedl.12669:00000000 $d
C:\Users\mathi\AppData\Local\Temp\cc0ZaFXf.s:5054   .bss.speedl.12669:00000000 speedl.12669
C:\Users\mathi\AppData\Local\Temp\cc0ZaFXf.s:5057   .bss.speedr.12668:00000000 $d
C:\Users\mathi\AppData\Local\Temp\cc0ZaFXf.s:5061   .bss.speedr.12668:00000000 speedr.12668
C:\Users\mathi\AppData\Local\Temp\cc0ZaFXf.s:5064   .bss.val.12692:00000000 $d
C:\Users\mathi\AppData\Local\Temp\cc0ZaFXf.s:5068   .bss.val.12692:00000000 val.12692
C:\Users\mathi\AppData\Local\Temp\cc0ZaFXf.s:5074   .bss.wait_cam.12664:00000000 wait_cam.12664
C:\Users\mathi\AppData\Local\Temp\cc0ZaFXf.s:5075   .bss.wait_cam.12664:00000000 $d
C:\Users\mathi\AppData\Local\Temp\cc0ZaFXf.s:5077   .data.HWversion.12699:00000000 $d
C:\Users\mathi\AppData\Local\Temp\cc0ZaFXf.s:5081   .data.HWversion.12699:00000000 HWversion.12699
C:\Users\mathi\AppData\Local\Temp\cc0ZaFXf.s:5084   .rodata.run_asercom.str1.4:00000000 $d

UNDEFINED SYMBOLS
e_init_motors
getselector
e_i2cp_init
e_init_remote_control
ReadEE
e_poxxxx_init_cam
ARM GAS  C:\Users\mathi\AppData\Local\Temp\cc0ZaFXf.s 			page 434


e_poxxxx_config_cam
e_poxxxx_write_cam_registers
e_acc_calibr
e_send_uart1_char
e_uart1_sending
e_getchar_uart1
e_get_data
e_get_address
isEpuckVersion1_3
e_send_uart2_char
e_uart2_sending
strlen
e_getchar_uart2
e_set_speed_left
e_set_speed_right
__stack_chk_guard
e_play_sound
e_get_acc_filtered
e_get_steps_left
e_get_steps_right
e_set_steps_left
e_set_steps_right
e_get_ambient_light
e_get_calibrated_prox
e_set_led
e_i2cp_enable
e_i2cp_read
e_poxxxx_launch_capture
e_get_micro_volume
e_i2cp_write
e_i2cp_disable
__locale_ctype_ptr
sprintf
sscanf
chThdSleep
e_led_clear
e_calibrate_ir
e_set_body_led
e_get_check
e_set_front_led
playMelody
e_read_acc_spheric
e_init_sound
getBatteryValueRaw
getAllAxesGyro
getTemperature
e_poxxxx_is_img_ready
dcmi_get_last_image_ptr
memcpy
getBatteryValuePercentage
getXAxisGyro
getYAxisGyro
getZAxisGyro
e_close_sound
stopCurrentMelody
