ARM GAS  C:\Users\mathi\AppData\Local\Temp\ccXNOisu.s 			page 1


   1              		.cpu cortex-m4
   2              		.eabi_attribute 27, 1
   3              		.eabi_attribute 28, 1
   4              		.eabi_attribute 20, 1
   5              		.eabi_attribute 21, 1
   6              		.eabi_attribute 23, 3
   7              		.eabi_attribute 24, 1
   8              		.eabi_attribute 25, 1
   9              		.eabi_attribute 26, 1
  10              		.eabi_attribute 30, 2
  11              		.eabi_attribute 34, 1
  12              		.eabi_attribute 18, 4
  13              		.file	"Asercom2.c"
  14              		.text
  15              	.Ltext0:
  16              		.cfi_sections	.debug_frame
  17              		.section	.text.run_asercom2,"ax",%progbits
  18              		.align	1
  19              		.p2align 4,,15
  20              		.global	run_asercom2
  21              		.syntax unified
  22              		.thumb
  23              		.thumb_func
  24              		.fpu fpv4-sp-d16
  25              		.type	run_asercom2, %function
  26              	run_asercom2:
  27              	.LFB260:
  28              		.file 1 "../../lib/e-puck2_main-processor/src/epuck1x/Asercom2.c"
  29              		.loc 1 67 0
  30              		.cfi_startproc
  31              		@ args = 0, pretend = 0, frame = 64
  32              		@ frame_needed = 0, uses_anonymous_args = 0
  33 0000 2DE9F04F 		push	{r4, r5, r6, r7, r8, r9, r10, fp, lr}
  34              		.cfi_def_cfa_offset 36
  35              		.cfi_offset 4, -36
  36              		.cfi_offset 5, -32
  37              		.cfi_offset 6, -28
  38              		.cfi_offset 7, -24
  39              		.cfi_offset 8, -20
  40              		.cfi_offset 9, -16
  41              		.cfi_offset 10, -12
  42              		.cfi_offset 11, -8
  43              		.cfi_offset 14, -4
  44 0004 2DED028B 		vpush.64	{d8}
  45              		.cfi_def_cfa_offset 44
  46              		.cfi_offset 80, -44
  47              		.cfi_offset 81, -40
  48 0008 B24B     		ldr	r3, .L710
  49 000a 97B0     		sub	sp, sp, #92
  50              		.cfi_def_cfa_offset 136
  51              		.loc 1 67 0
  52 000c 1B68     		ldr	r3, [r3]
  53 000e 1593     		str	r3, [sp, #84]
  54              	.LVL0:
  55              		.loc 1 87 0
  56 0010 FFF7FEFF 		bl	e_init_motors
  57              	.LVL1:
ARM GAS  C:\Users\mathi\AppData\Local\Temp\ccXNOisu.s 			page 2


  58              		.loc 1 91 0
  59 0014 FFF7FEFF 		bl	getselector
  60              	.LVL2:
  61 0018 AF4B     		ldr	r3, .L710+4
  62              		.loc 1 92 0
  63 001a 0328     		cmp	r0, #3
  64              		.loc 1 91 0
  65 001c 1860     		str	r0, [r3]
  66              		.loc 1 92 0
  67 001e 00F08280 		beq	.L404
  68              		.loc 1 97 0
  69 0022 0A28     		cmp	r0, #10
  70 0024 02F00381 		beq	.L684
  71              		.loc 1 95 0
  72 0028 0023     		movs	r3, #0
  73 002a 0793     		str	r3, [sp, #28]
  74              	.L2:
  75              	.LVL3:
  76              		.loc 1 103 0
  77 002c FFF7FEFF 		bl	mountSDCard
  78              	.LVL4:
  79              		.loc 1 123 0
  80 0030 AA4C     		ldr	r4, .L710+8
  81              		.loc 1 128 0
  82 0032 AB4B     		ldr	r3, .L710+12
  83              		.loc 1 125 0
  84 0034 AB4E     		ldr	r6, .L710+16
  85              		.loc 1 126 0
  86 0036 AC4F     		ldr	r7, .L710+20
  87              		.loc 1 127 0
  88 0038 AC4D     		ldr	r5, .L710+24
  89              		.loc 1 128 0
  90 003a 0E93     		str	r3, [sp, #56]
  91              		.loc 1 123 0
  92 003c 1294     		str	r4, [sp, #72]
  93              		.loc 1 127 0
  94 003e 1395     		str	r5, [sp, #76]
  95              		.loc 1 125 0
  96 0040 1096     		str	r6, [sp, #64]
  97              		.loc 1 126 0
  98 0042 1197     		str	r7, [sp, #68]
  99              		.loc 1 107 0
 100 0044 FFF7FEFF 		bl	e_i2cp_init
 101              	.LVL5:
 102              		.loc 1 112 0
 103 0048 FFF7FEFF 		bl	e_init_remote_control
 104              	.LVL6:
 105              		.loc 1 120 0
 106 004c 0123     		movs	r3, #1
 107 004e A84A     		ldr	r2, .L710+28
 108 0050 4FF6FE71 		movw	r1, #65534
 109 0054 7F20     		movs	r0, #127
 110 0056 FFF7FEFF 		bl	ReadEE
 111              	.LVL7:
 112              		.loc 1 125 0
 113 005a 2823     		movs	r3, #40
 114              		.loc 1 127 0
ARM GAS  C:\Users\mathi\AppData\Local\Temp\ccXNOisu.s 			page 3


 115 005c 139D     		ldr	r5, [sp, #76]
 116              		.loc 1 125 0
 117 005e 3360     		str	r3, [r6]
 118              		.loc 1 126 0
 119 0060 3B60     		str	r3, [r7]
 120              		.loc 1 128 0
 121 0062 0E9B     		ldr	r3, [sp, #56]
 122              		.loc 1 127 0
 123 0064 0821     		movs	r1, #8
 124              		.loc 1 128 0
 125 0066 4FF44862 		mov	r2, #3200
 126              		.loc 1 123 0
 127 006a 0120     		movs	r0, #1
 128              		.loc 1 127 0
 129 006c 2960     		str	r1, [r5]
 130              		.loc 1 128 0
 131 006e 1A60     		str	r2, [r3]
 132              		.loc 1 123 0
 133 0070 2060     		str	r0, [r4]
 134              		.loc 1 131 0
 135 0072 FFF7FEFF 		bl	e_poxxxx_init_cam
 136              	.LVL8:
 137              		.loc 1 132 0
 138 0076 2D68     		ldr	r5, [r5]
 139 0078 3268     		ldr	r2, [r6]
 140 007a 3B68     		ldr	r3, [r7]
 141 007c 2468     		ldr	r4, [r4]
 142 007e 0294     		str	r4, [sp, #8]
 143 0080 03FB05F3 		mul	r3, r3, r5
 144 0084 02FB05F2 		mul	r2, r2, r5
 145 0088 C3F5F071 		rsb	r1, r3, #480
 146 008c C2F52070 		rsb	r0, r2, #640
 147 0090 01EBD171 		add	r1, r1, r1, lsr #31
 148 0094 00EBD070 		add	r0, r0, r0, lsr #31
 149 0098 4910     		asrs	r1, r1, #1
 150 009a 0195     		str	r5, [sp, #4]
 151 009c 0095     		str	r5, [sp]
 152 009e 4010     		asrs	r0, r0, #1
 153 00a0 FFF7FEFF 		bl	e_poxxxx_config_cam
 154              	.LVL9:
 155              		.loc 1 133 0
 156 00a4 FFF7FEFF 		bl	e_poxxxx_write_cam_registers
 157              	.LVL10:
 158              		.loc 1 141 0
 159 00a8 079B     		ldr	r3, [sp, #28]
 160 00aa 002B     		cmp	r3, #0
 161 00ac 02F0B180 		beq	.L685
 162              		.loc 1 142 0
 163 00b0 FFF7FEFF 		bl	e_acc_calibr
 164              	.LVL11:
 165              		.loc 1 143 0
 166 00b4 5821     		movs	r1, #88
 167 00b6 8F48     		ldr	r0, .L710+32
 168 00b8 FFF7FEFF 		bl	e_send_uart1_char
 169              	.LVL12:
 170              	.L7:
 171              		.loc 1 143 0 is_stmt 0 discriminator 2
ARM GAS  C:\Users\mathi\AppData\Local\Temp\ccXNOisu.s 			page 4


 172 00bc FFF7FEFF 		bl	e_uart1_sending
 173              	.LVL13:
 174 00c0 0028     		cmp	r0, #0
 175 00c2 FBD1     		bne	.L7
 176              		.loc 1 100 0 is_stmt 1
 177 00c4 0746     		mov	r7, r0
 178              	.LVL14:
 179              	.L3:
 180 00c6 0023     		movs	r3, #0
 181 00c8 DFF82C92 		ldr	r9, .L710+36
 182 00cc DFF844B2 		ldr	fp, .L710+64
 183 00d0 DFF84482 		ldr	r8, .L710+68
 184 00d4 DFF828A2 		ldr	r10, .L710+44
 185 00d8 0F93     		str	r3, [sp, #60]
 186 00da 0693     		str	r3, [sp, #24]
 187              	.LVL15:
 188              	.L6:
 189              		.loc 1 154 0
 190 00dc 37BB     		cbnz	r7, .L10
 191              	.LVL16:
 192              	.L650:
 193              		.loc 1 156 0
 194 00de 079B     		ldr	r3, [sp, #28]
 195 00e0 002B     		cmp	r3, #0
 196 00e2 00F08F80 		beq	.L641
 197              	.L691:
 198              		.loc 1 157 0
 199 00e6 844D     		ldr	r5, .L710+36
 200              	.LVL17:
 201              	.L11:
 202 00e8 2846     		mov	r0, r5
 203 00ea FFF7FEFF 		bl	e_getchar_uart1
 204              	.LVL18:
 205 00ee 0446     		mov	r4, r0
 206 00f0 E0B9     		cbnz	r0, .L10
 207              		.loc 1 160 0
 208 00f2 FFF7FEFF 		bl	e_get_data
 209              	.LVL19:
 210 00f6 0646     		mov	r6, r0
 211              	.LVL20:
 212              		.loc 1 161 0
 213 00f8 FFF7FEFF 		bl	e_get_address
 214              	.LVL21:
 215              		.loc 1 162 0
 216 00fc 10F0F70F 		tst	r0, #247
 217 0100 F2D1     		bne	.L11
 218              		.loc 1 162 0 is_stmt 0 discriminator 3
 219 0102 069B     		ldr	r3, [sp, #24]
 220 0104 B342     		cmp	r3, r6
 221 0106 EFD0     		beq	.L11
 222              		.loc 1 163 0 is_stmt 1
 223 0108 092E     		cmp	r6, #9
 224 010a 01F26884 		bhi	.L14
 225 010e DFE816F0 		tbh	[pc, r6, lsl #1]
 226              	.L16:
 227 0112 2701     		.2byte	(.L15-.L16)/2
 228 0114 1E01     		.2byte	(.L17-.L16)/2
ARM GAS  C:\Users\mathi\AppData\Local\Temp\ccXNOisu.s 			page 5


 229 0116 1701     		.2byte	(.L18-.L16)/2
 230 0118 0E01     		.2byte	(.L19-.L16)/2
 231 011a 0B01     		.2byte	(.L20-.L16)/2
 232 011c 0501     		.2byte	(.L21-.L16)/2
 233 011e DD00     		.2byte	(.L22-.L16)/2
 234 0120 D600     		.2byte	(.L23-.L16)/2
 235 0122 CF00     		.2byte	(.L24-.L16)/2
 236 0124 BF00     		.2byte	(.L25-.L16)/2
 237              	.LVL22:
 238              		.p2align 1
 239              	.L404:
 240              		.loc 1 93 0
 241 0126 0123     		movs	r3, #1
 242 0128 0793     		str	r3, [sp, #28]
 243 012a 7FE7     		b	.L2
 244              	.LVL23:
 245              	.L10:
 246              		.loc 1 282 0
 247 012c 99F80030 		ldrb	r3, [r9]	@ zero_extendqisi2
 248 0130 1A06     		lsls	r2, r3, #24
 249 0132 00F17481 		bmi	.L686
 250              		.loc 1 668 0
 251 0136 002B     		cmp	r3, #0
 252 0138 D0D0     		beq	.L6
 253              		.loc 1 669 0
 254 013a 002F     		cmp	r7, #0
 255 013c 41F03584 		bne	.L158
 256              		.loc 1 671 0
 257 0140 079A     		ldr	r2, [sp, #28]
 258              		.loc 1 672 0
 259 0142 6D4C     		ldr	r4, .L710+36
 260              		.loc 1 671 0
 261 0144 002A     		cmp	r2, #0
 262 0146 00F08380 		beq	.L160
 263 014a 04E0     		b	.L159
 264              	.L161:
 265              		.loc 1 672 0 discriminator 4
 266 014c 2046     		mov	r0, r4
 267 014e FFF7FEFF 		bl	e_getchar_uart1
 268              	.LVL24:
 269 0152 99F80030 		ldrb	r3, [r9]	@ zero_extendqisi2
 270              	.L159:
 271              		.loc 1 672 0 is_stmt 0 discriminator 1
 272 0156 0A2B     		cmp	r3, #10
 273 0158 F8D0     		beq	.L161
 274              		.loc 1 672 0 discriminator 3
 275 015a 0D2B     		cmp	r3, #13
 276 015c F6D0     		beq	.L161
 277              		.loc 1 677 0 is_stmt 1
 278 015e 0122     		movs	r2, #1
 279              		.loc 1 676 0
 280 0160 8AF80030 		strb	r3, [r10]
 281              		.loc 1 677 0
 282 0164 CBF80020 		str	r2, [fp]
 283              		.loc 1 681 0
 284 0168 634C     		ldr	r4, .L710+36
 285 016a 05E0     		b	.L169
ARM GAS  C:\Users\mathi\AppData\Local\Temp\ccXNOisu.s 			page 6


 286              	.L687:
 287 016c 99F80030 		ldrb	r3, [r9]	@ zero_extendqisi2
 288              		.loc 1 682 0
 289 0170 0A2B     		cmp	r3, #10
 290 0172 12D0     		beq	.L175
 291              	.L167:
 292              		.loc 1 682 0 is_stmt 0 discriminator 1
 293 0174 0D2B     		cmp	r3, #13
 294 0176 10D0     		beq	.L175
 295              	.L169:
 296              		.loc 1 681 0 is_stmt 1
 297 0178 2046     		mov	r0, r4
 298 017a FFF7FEFF 		bl	e_getchar_uart1
 299              	.LVL25:
 300 017e 0028     		cmp	r0, #0
 301 0180 F4D0     		beq	.L687
 302              		.loc 1 681 0 is_stmt 0 discriminator 1
 303 0182 DBF80020 		ldr	r2, [fp]
 304 0186 99F80030 		ldrb	r3, [r9]	@ zero_extendqisi2
 305 018a 0AF80230 		strb	r3, [r10, r2]
 306              		.loc 1 682 0 is_stmt 1 discriminator 1
 307 018e 0A2B     		cmp	r3, #10
 308              		.loc 1 681 0 discriminator 1
 309 0190 02F10102 		add	r2, r2, #1
 310 0194 CBF80020 		str	r2, [fp]
 311              		.loc 1 682 0 discriminator 1
 312 0198 ECD1     		bne	.L167
 313              	.L175:
 314 019a DBF80030 		ldr	r3, [fp]
 315              		.loc 1 687 0
 316 019e 0022     		movs	r2, #0
 317 01a0 0AF80320 		strb	r2, [r10, r3]
 318              		.loc 1 689 0
 319 01a4 9AF80040 		ldrb	r4, [r10]	@ zero_extendqisi2
 320 01a8 591C     		adds	r1, r3, #1
 321 01aa 622C     		cmp	r4, #98
 322              		.loc 1 687 0
 323 01ac CBF80010 		str	r1, [fp]
 324              		.loc 1 689 0
 325 01b0 01F06885 		beq	.L688
 326              	.L399:
 327              		.loc 1 689 0 is_stmt 0 discriminator 1
 328 01b4 672C     		cmp	r4, #103
 329 01b6 40F0AD85 		bne	.L689
 330              	.L176:
 331              	.LBB2:
 332              		.loc 1 785 0 is_stmt 1
 333 01ba 002F     		cmp	r7, #0
 334 01bc 41F06085 		bne	.L232
 335              		.loc 1 786 0
 336 01c0 FFF7FEFF 		bl	getXAxisGyro
 337              	.LVL26:
 338 01c4 0446     		mov	r4, r0
 339 01c6 FFF7FEFF 		bl	getYAxisGyro
 340              	.LVL27:
 341 01ca 0546     		mov	r5, r0
 342 01cc FFF7FEFF 		bl	getZAxisGyro
ARM GAS  C:\Users\mathi\AppData\Local\Temp\ccXNOisu.s 			page 7


 343              	.LVL28:
 344 01d0 2B46     		mov	r3, r5
 345 01d2 0090     		str	r0, [sp]
 346 01d4 2246     		mov	r2, r4
 347 01d6 4949     		ldr	r1, .L710+40
 348 01d8 4948     		ldr	r0, .L710+44
 349 01da FFF7FEFF 		bl	sprintf
 350              	.LVL29:
 351              		.loc 1 792 0
 352 01de 079B     		ldr	r3, [sp, #28]
 353 01e0 002B     		cmp	r3, #0
 354 01e2 01F0AF85 		beq	.L690
 355              		.loc 1 793 0
 356 01e6 4648     		ldr	r0, .L710+44
 357 01e8 FFF7FEFF 		bl	strlen
 358              	.LVL30:
 359 01ec 0146     		mov	r1, r0
 360 01ee 4448     		ldr	r0, .L710+44
 361 01f0 FFF7FEFF 		bl	e_send_uart1_char
 362              	.LVL31:
 363              	.L235:
 364              		.loc 1 793 0 is_stmt 0 discriminator 2
 365 01f4 FFF7FEFF 		bl	e_uart1_sending
 366              	.LVL32:
 367 01f8 0028     		cmp	r0, #0
 368 01fa FBD1     		bne	.L235
 369              	.LVL33:
 370              	.LBE2:
 371              		.loc 1 156 0 is_stmt 1
 372 01fc 079B     		ldr	r3, [sp, #28]
 373 01fe 002B     		cmp	r3, #0
 374 0200 7FF471AF 		bne	.L691
 375              	.LVL34:
 376              	.L641:
 377              		.loc 1 219 0
 378 0204 3C4D     		ldr	r5, .L710+36
 379              	.LVL35:
 380              	.L12:
 381 0206 2846     		mov	r0, r5
 382 0208 FFF7FEFF 		bl	e_getchar_uart2
 383              	.LVL36:
 384 020c 0446     		mov	r4, r0
 385 020e 0028     		cmp	r0, #0
 386 0210 8CD1     		bne	.L10
 387              		.loc 1 222 0
 388 0212 FFF7FEFF 		bl	e_get_data
 389              	.LVL37:
 390 0216 0646     		mov	r6, r0
 391              	.LVL38:
 392              		.loc 1 223 0
 393 0218 FFF7FEFF 		bl	e_get_address
 394              	.LVL39:
 395              		.loc 1 224 0
 396 021c 10F0F70F 		tst	r0, #247
 397 0220 F1D1     		bne	.L12
 398              		.loc 1 224 0 is_stmt 0 discriminator 3
 399 0222 069B     		ldr	r3, [sp, #24]
ARM GAS  C:\Users\mathi\AppData\Local\Temp\ccXNOisu.s 			page 8


 400 0224 B342     		cmp	r3, r6
 401 0226 EED0     		beq	.L12
 402              		.loc 1 225 0 is_stmt 1
 403 0228 092E     		cmp	r6, #9
 404 022a 01F22984 		bhi	.L30
 405 022e DFE816F0 		tbh	[pc, r6, lsl #1]
 406              	.L32:
 407 0232 E800     		.2byte	(.L31-.L32)/2
 408 0234 DF00     		.2byte	(.L33-.L32)/2
 409 0236 D800     		.2byte	(.L34-.L32)/2
 410 0238 CF00     		.2byte	(.L35-.L32)/2
 411 023a CC00     		.2byte	(.L36-.L32)/2
 412 023c C600     		.2byte	(.L37-.L32)/2
 413 023e C300     		.2byte	(.L38-.L32)/2
 414 0240 BC00     		.2byte	(.L39-.L32)/2
 415 0242 B500     		.2byte	(.L40-.L32)/2
 416 0244 A500     		.2byte	(.L41-.L32)/2
 417              	.LVL40:
 418              		.p2align 1
 419              	.L163:
 420              		.loc 1 674 0 discriminator 4
 421 0246 2046     		mov	r0, r4
 422 0248 FFF7FEFF 		bl	e_getchar_uart2
 423              	.LVL41:
 424 024c 99F80030 		ldrb	r3, [r9]	@ zero_extendqisi2
 425              	.L160:
 426              		.loc 1 674 0 is_stmt 0 discriminator 1
 427 0250 0A2B     		cmp	r3, #10
 428 0252 F8D0     		beq	.L163
 429              		.loc 1 674 0 discriminator 3
 430 0254 0D2B     		cmp	r3, #13
 431 0256 F6D0     		beq	.L163
 432              		.loc 1 677 0 is_stmt 1
 433 0258 0122     		movs	r2, #1
 434              		.loc 1 676 0
 435 025a 8AF80030 		strb	r3, [r10]
 436              		.loc 1 677 0
 437 025e CBF80020 		str	r2, [fp]
 438              		.loc 1 684 0
 439 0262 254C     		ldr	r4, .L710+36
 440 0264 05E0     		b	.L174
 441              	.L692:
 442 0266 99F80030 		ldrb	r3, [r9]	@ zero_extendqisi2
 443              	.L172:
 444              		.loc 1 685 0
 445 026a 0A2B     		cmp	r3, #10
 446 026c 95D0     		beq	.L175
 447              		.loc 1 685 0 is_stmt 0 discriminator 1
 448 026e 0D2B     		cmp	r3, #13
 449 0270 93D0     		beq	.L175
 450              	.L174:
 451              		.loc 1 684 0 is_stmt 1
 452 0272 2046     		mov	r0, r4
 453 0274 FFF7FEFF 		bl	e_getchar_uart2
 454              	.LVL42:
 455 0278 0028     		cmp	r0, #0
 456 027a F4D0     		beq	.L692
ARM GAS  C:\Users\mathi\AppData\Local\Temp\ccXNOisu.s 			page 9


 457              		.loc 1 684 0 is_stmt 0 discriminator 1
 458 027c DBF80020 		ldr	r2, [fp]
 459 0280 99F80030 		ldrb	r3, [r9]	@ zero_extendqisi2
 460 0284 0AF80230 		strb	r3, [r10, r2]
 461 0288 0132     		adds	r2, r2, #1
 462 028a CBF80020 		str	r2, [fp]
 463 028e ECE7     		b	.L172
 464              	.LVL43:
 465              	.L25:
 466              		.loc 1 197 0 is_stmt 1
 467 0290 1C4B     		ldr	r3, .L710+48
 468              	.L669:
 469              		.loc 1 198 0
 470 0292 1D4A     		ldr	r2, .L710+52
 471 0294 1D49     		ldr	r1, .L710+56
 472 0296 1160     		str	r1, [r2]
 473              		.loc 1 197 0
 474 0298 1D4A     		ldr	r2, .L710+60
 475              		.loc 1 199 0
 476 029a 0C46     		mov	r4, r1
 477              		.loc 1 197 0
 478 029c 1360     		str	r3, [r2]
 479              	.LVL44:
 480              	.L26:
 481              		.loc 1 211 0
 482 029e 2046     		mov	r0, r4
 483 02a0 FFF7FEFF 		bl	e_set_speed_left
 484              	.LVL45:
 485              		.loc 1 212 0
 486 02a4 1A4B     		ldr	r3, .L710+60
 487 02a6 1868     		ldr	r0, [r3]
 488 02a8 FFF7FEFF 		bl	e_set_speed_right
 489              	.LVL46:
 490 02ac 0696     		str	r6, [sp, #24]
 491 02ae 1BE7     		b	.L11
 492              	.LVL47:
 493              	.L24:
 494              		.loc 1 193 0
 495 02b0 174A     		ldr	r2, .L710+60
 496 02b2 164B     		ldr	r3, .L710+56
 497 02b4 1360     		str	r3, [r2]
 498              		.loc 1 194 0
 499 02b6 144A     		ldr	r2, .L710+52
 500              		.loc 1 195 0
 501 02b8 1C46     		mov	r4, r3
 502              		.loc 1 194 0
 503 02ba 1360     		str	r3, [r2]
 504              		.loc 1 195 0
 505 02bc EFE7     		b	.L26
 506              	.L23:
 507              		.loc 1 190 0
 508 02be 114C     		ldr	r4, .L710+48
 509              	.L670:
 510              		.loc 1 189 0
 511 02c0 134B     		ldr	r3, .L710+60
 512 02c2 124A     		ldr	r2, .L710+56
 513 02c4 1A60     		str	r2, [r3]
ARM GAS  C:\Users\mathi\AppData\Local\Temp\ccXNOisu.s 			page 10


 514              		.loc 1 190 0
 515 02c6 104B     		ldr	r3, .L710+52
 516 02c8 1C60     		str	r4, [r3]
 517              		.loc 1 191 0
 518 02ca E8E7     		b	.L26
 519              	.L22:
 520              		.loc 1 186 0
 521 02cc 4FF41674 		mov	r4, #600
 522 02d0 F6E7     		b	.L670
 523              	.L711:
 524 02d2 00BF     		.align	2
 525              	.L710:
 526 02d4 00000000 		.word	__stack_chk_guard
 527 02d8 00000000 		.word	selector
 528 02dc 00000000 		.word	.LANCHOR1
 529 02e0 00000000 		.word	.LANCHOR5
 530 02e4 00000000 		.word	.LANCHOR2
 531 02e8 00000000 		.word	.LANCHOR3
 532 02ec 00000000 		.word	.LANCHOR4
 533 02f0 00000000 		.word	.LANCHOR0
 534 02f4 00000000 		.word	.LC0
 535 02f8 00000000 		.word	c
 536 02fc F8000000 		.word	.LC13
 537 0300 00000000 		.word	buffer
 538 0304 D4FEFFFF 		.word	-300
 539 0308 00000000 		.word	.LANCHOR7
 540 030c A8FDFFFF 		.word	-600
 541 0310 00000000 		.word	.LANCHOR6
 542 0314 00000000 		.word	.LANCHOR9
 543 0318 00000000 		.word	.LANCHOR10
 544              	.L21:
 545              		.loc 1 181 0
 546 031c 7E4A     		ldr	r2, .L712
 547 031e 0023     		movs	r3, #0
 548 0320 1360     		str	r3, [r2]
 549              		.loc 1 182 0
 550 0322 7E4A     		ldr	r2, .L712+4
 551 0324 1360     		str	r3, [r2]
 552              		.loc 1 183 0
 553 0326 BAE7     		b	.L26
 554              	.L20:
 555              		.loc 1 177 0
 556 0328 4FF41673 		mov	r3, #600
 557 032c B1E7     		b	.L669
 558              	.L19:
 559              		.loc 1 173 0
 560 032e 7A4A     		ldr	r2, .L712
 561 0330 4FF49673 		mov	r3, #300
 562 0334 1360     		str	r3, [r2]
 563              		.loc 1 174 0
 564 0336 794B     		ldr	r3, .L712+4
 565 0338 4FF41674 		mov	r4, #600
 566 033c 1C60     		str	r4, [r3]
 567              		.loc 1 175 0
 568 033e AEE7     		b	.L26
 569              	.L18:
 570              		.loc 1 169 0
ARM GAS  C:\Users\mathi\AppData\Local\Temp\ccXNOisu.s 			page 11


 571 0340 754B     		ldr	r3, .L712
 572 0342 4FF41674 		mov	r4, #600
 573 0346 1C60     		str	r4, [r3]
 574              		.loc 1 170 0
 575 0348 744B     		ldr	r3, .L712+4
 576 034a 1C60     		str	r4, [r3]
 577              		.loc 1 171 0
 578 034c A7E7     		b	.L26
 579              	.L17:
 580              		.loc 1 165 0
 581 034e 724A     		ldr	r2, .L712
 582 0350 4FF41673 		mov	r3, #600
 583 0354 1360     		str	r3, [r2]
 584              		.loc 1 166 0
 585 0356 714B     		ldr	r3, .L712+4
 586 0358 4FF49674 		mov	r4, #300
 587 035c 1C60     		str	r4, [r3]
 588              		.loc 1 167 0
 589 035e 9EE7     		b	.L26
 590              	.L15:
 591              		.loc 1 201 0
 592 0360 6F4B     		ldr	r3, .L712+8
 593 0362 1B78     		ldrb	r3, [r3]	@ zero_extendqisi2
 594 0364 002B     		cmp	r3, #0
 595 0366 01F03E84 		beq	.L693
 596              	.LVL48:
 597              	.L27:
 598              		.loc 1 205 0
 599 036a 41F65071 		movw	r1, #8016
 600 036e 42F61430 		movw	r0, #11028
 601 0372 FFF7FEFF 		bl	e_play_sound
 602              	.LVL49:
 603 0376 694B     		ldr	r3, .L712+4
 604 0378 1C68     		ldr	r4, [r3]
 605              		.loc 1 206 0
 606 037a 90E7     		b	.L26
 607              	.LVL50:
 608              	.L41:
 609              		.loc 1 259 0
 610 037c 694B     		ldr	r3, .L712+12
 611              	.L671:
 612              		.loc 1 260 0
 613 037e 674A     		ldr	r2, .L712+4
 614 0380 6949     		ldr	r1, .L712+16
 615 0382 1160     		str	r1, [r2]
 616              		.loc 1 259 0
 617 0384 644A     		ldr	r2, .L712
 618              		.loc 1 261 0
 619 0386 0C46     		mov	r4, r1
 620              		.loc 1 259 0
 621 0388 1360     		str	r3, [r2]
 622              	.LVL51:
 623              	.L42:
 624              		.loc 1 273 0
 625 038a 2046     		mov	r0, r4
 626 038c FFF7FEFF 		bl	e_set_speed_left
 627              	.LVL52:
ARM GAS  C:\Users\mathi\AppData\Local\Temp\ccXNOisu.s 			page 12


 628              		.loc 1 274 0
 629 0390 614B     		ldr	r3, .L712
 630 0392 1868     		ldr	r0, [r3]
 631 0394 FFF7FEFF 		bl	e_set_speed_right
 632              	.LVL53:
 633 0398 0696     		str	r6, [sp, #24]
 634 039a 34E7     		b	.L12
 635              	.LVL54:
 636              	.L40:
 637              		.loc 1 255 0
 638 039c 5E4A     		ldr	r2, .L712
 639 039e 624B     		ldr	r3, .L712+16
 640 03a0 1360     		str	r3, [r2]
 641              		.loc 1 256 0
 642 03a2 5E4A     		ldr	r2, .L712+4
 643              		.loc 1 257 0
 644 03a4 1C46     		mov	r4, r3
 645              		.loc 1 256 0
 646 03a6 1360     		str	r3, [r2]
 647              		.loc 1 257 0
 648 03a8 EFE7     		b	.L42
 649              	.L39:
 650              		.loc 1 252 0
 651 03aa 5E4C     		ldr	r4, .L712+12
 652              	.L672:
 653              		.loc 1 251 0
 654 03ac 5A4B     		ldr	r3, .L712
 655 03ae 5E4A     		ldr	r2, .L712+16
 656 03b0 1A60     		str	r2, [r3]
 657              		.loc 1 252 0
 658 03b2 5A4B     		ldr	r3, .L712+4
 659 03b4 1C60     		str	r4, [r3]
 660              		.loc 1 253 0
 661 03b6 E8E7     		b	.L42
 662              	.L38:
 663              		.loc 1 248 0
 664 03b8 4FF41674 		mov	r4, #600
 665 03bc F6E7     		b	.L672
 666              	.L37:
 667              		.loc 1 243 0
 668 03be 564A     		ldr	r2, .L712
 669 03c0 0023     		movs	r3, #0
 670 03c2 1360     		str	r3, [r2]
 671              		.loc 1 244 0
 672 03c4 554A     		ldr	r2, .L712+4
 673 03c6 1360     		str	r3, [r2]
 674              		.loc 1 245 0
 675 03c8 DFE7     		b	.L42
 676              	.L36:
 677              		.loc 1 239 0
 678 03ca 4FF41673 		mov	r3, #600
 679 03ce D6E7     		b	.L671
 680              	.L35:
 681              		.loc 1 235 0
 682 03d0 514A     		ldr	r2, .L712
 683 03d2 4FF49673 		mov	r3, #300
 684 03d6 1360     		str	r3, [r2]
ARM GAS  C:\Users\mathi\AppData\Local\Temp\ccXNOisu.s 			page 13


 685              		.loc 1 236 0
 686 03d8 504B     		ldr	r3, .L712+4
 687 03da 4FF41674 		mov	r4, #600
 688 03de 1C60     		str	r4, [r3]
 689              		.loc 1 237 0
 690 03e0 D3E7     		b	.L42
 691              	.L34:
 692              		.loc 1 231 0
 693 03e2 4D4B     		ldr	r3, .L712
 694 03e4 4FF41674 		mov	r4, #600
 695 03e8 1C60     		str	r4, [r3]
 696              		.loc 1 232 0
 697 03ea 4C4B     		ldr	r3, .L712+4
 698 03ec 1C60     		str	r4, [r3]
 699              		.loc 1 233 0
 700 03ee CCE7     		b	.L42
 701              	.L33:
 702              		.loc 1 227 0
 703 03f0 494A     		ldr	r2, .L712
 704 03f2 4FF41673 		mov	r3, #600
 705 03f6 1360     		str	r3, [r2]
 706              		.loc 1 228 0
 707 03f8 484B     		ldr	r3, .L712+4
 708 03fa 4FF49674 		mov	r4, #300
 709 03fe 1C60     		str	r4, [r3]
 710              		.loc 1 229 0
 711 0400 C3E7     		b	.L42
 712              	.L31:
 713              		.loc 1 263 0
 714 0402 474B     		ldr	r3, .L712+8
 715 0404 1B78     		ldrb	r3, [r3]	@ zero_extendqisi2
 716 0406 002B     		cmp	r3, #0
 717 0408 01F0F483 		beq	.L694
 718              	.LVL55:
 719              	.L43:
 720              		.loc 1 267 0
 721 040c 41F65071 		movw	r1, #8016
 722 0410 42F61430 		movw	r0, #11028
 723 0414 FFF7FEFF 		bl	e_play_sound
 724              	.LVL56:
 725 0418 404B     		ldr	r3, .L712+4
 726 041a 1C68     		ldr	r4, [r3]
 727              		.loc 1 268 0
 728 041c B5E7     		b	.L42
 729              	.LVL57:
 730              	.L686:
 731              		.loc 1 283 0
 732 041e 0022     		movs	r2, #0
 733              		.loc 1 643 0
 734 0420 424E     		ldr	r6, .L712+20
 735              		.loc 1 368 0
 736 0422 9FED438A 		vldr.32	s16, .L712+24
 737              		.loc 1 283 0
 738 0426 CBF80020 		str	r2, [fp]
 739              	.L673:
 740 042a 5B42     		negs	r3, r3
 741              	.L46:
ARM GAS  C:\Users\mathi\AppData\Local\Temp\ccXNOisu.s 			page 14


 742              		.loc 1 285 0
 743 042c DAB2     		uxtb	r2, r3
 744 042e 0A3A     		subs	r2, r2, #10
 745 0430 6D2A     		cmp	r2, #109
 746 0432 00F29680 		bhi	.L47
 747 0436 DFE812F0 		tbh	[pc, r2, lsl #1]
 748              	.L49:
 749 043a 4F01     		.2byte	(.L48-.L49)/2
 750 043c EA03     		.2byte	(.L50-.L49)/2
 751 043e AD03     		.2byte	(.L51-.L49)/2
 752 0440 DB03     		.2byte	(.L52-.L49)/2
 753 0442 AF02     		.2byte	(.L53-.L49)/2
 754 0444 9400     		.2byte	(.L47-.L49)/2
 755 0446 9400     		.2byte	(.L47-.L49)/2
 756 0448 9400     		.2byte	(.L47-.L49)/2
 757 044a 9400     		.2byte	(.L47-.L49)/2
 758 044c 9400     		.2byte	(.L47-.L49)/2
 759 044e 9400     		.2byte	(.L47-.L49)/2
 760 0450 9400     		.2byte	(.L47-.L49)/2
 761 0452 9400     		.2byte	(.L47-.L49)/2
 762 0454 9400     		.2byte	(.L47-.L49)/2
 763 0456 9400     		.2byte	(.L47-.L49)/2
 764 0458 9400     		.2byte	(.L47-.L49)/2
 765 045a 9400     		.2byte	(.L47-.L49)/2
 766 045c 9400     		.2byte	(.L47-.L49)/2
 767 045e 9400     		.2byte	(.L47-.L49)/2
 768 0460 9400     		.2byte	(.L47-.L49)/2
 769 0462 9400     		.2byte	(.L47-.L49)/2
 770 0464 9400     		.2byte	(.L47-.L49)/2
 771 0466 9400     		.2byte	(.L47-.L49)/2
 772 0468 9400     		.2byte	(.L47-.L49)/2
 773 046a 9400     		.2byte	(.L47-.L49)/2
 774 046c 9400     		.2byte	(.L47-.L49)/2
 775 046e 9400     		.2byte	(.L47-.L49)/2
 776 0470 9400     		.2byte	(.L47-.L49)/2
 777 0472 9400     		.2byte	(.L47-.L49)/2
 778 0474 9400     		.2byte	(.L47-.L49)/2
 779 0476 9400     		.2byte	(.L47-.L49)/2
 780 0478 9400     		.2byte	(.L47-.L49)/2
 781 047a 9400     		.2byte	(.L47-.L49)/2
 782 047c 9400     		.2byte	(.L47-.L49)/2
 783 047e 9400     		.2byte	(.L47-.L49)/2
 784 0480 9400     		.2byte	(.L47-.L49)/2
 785 0482 9400     		.2byte	(.L47-.L49)/2
 786 0484 9400     		.2byte	(.L47-.L49)/2
 787 0486 9400     		.2byte	(.L47-.L49)/2
 788 0488 9400     		.2byte	(.L47-.L49)/2
 789 048a 9400     		.2byte	(.L47-.L49)/2
 790 048c 9400     		.2byte	(.L47-.L49)/2
 791 048e 9400     		.2byte	(.L47-.L49)/2
 792 0490 9400     		.2byte	(.L47-.L49)/2
 793 0492 9400     		.2byte	(.L47-.L49)/2
 794 0494 9400     		.2byte	(.L47-.L49)/2
 795 0496 9400     		.2byte	(.L47-.L49)/2
 796 0498 9400     		.2byte	(.L47-.L49)/2
 797 049a 9400     		.2byte	(.L47-.L49)/2
 798 049c 9400     		.2byte	(.L47-.L49)/2
ARM GAS  C:\Users\mathi\AppData\Local\Temp\ccXNOisu.s 			page 15


 799 049e 9400     		.2byte	(.L47-.L49)/2
 800 04a0 9400     		.2byte	(.L47-.L49)/2
 801 04a2 9400     		.2byte	(.L47-.L49)/2
 802 04a4 9400     		.2byte	(.L47-.L49)/2
 803 04a6 9400     		.2byte	(.L47-.L49)/2
 804 04a8 2C03     		.2byte	(.L54-.L49)/2
 805 04aa 9400     		.2byte	(.L47-.L49)/2
 806 04ac 9400     		.2byte	(.L47-.L49)/2
 807 04ae D502     		.2byte	(.L55-.L49)/2
 808 04b0 7003     		.2byte	(.L56-.L49)/2
 809 04b2 9400     		.2byte	(.L47-.L49)/2
 810 04b4 9400     		.2byte	(.L47-.L49)/2
 811 04b6 9400     		.2byte	(.L47-.L49)/2
 812 04b8 4202     		.2byte	(.L57-.L49)/2
 813 04ba 9400     		.2byte	(.L47-.L49)/2
 814 04bc 9400     		.2byte	(.L47-.L49)/2
 815 04be 9903     		.2byte	(.L58-.L49)/2
 816 04c0 6502     		.2byte	(.L59-.L49)/2
 817 04c2 BD02     		.2byte	(.L60-.L49)/2
 818 04c4 3701     		.2byte	(.L61-.L49)/2
 819 04c6 E000     		.2byte	(.L62-.L49)/2
 820 04c8 C500     		.2byte	(.L63-.L49)/2
 821 04ca 9400     		.2byte	(.L47-.L49)/2
 822 04cc 9400     		.2byte	(.L47-.L49)/2
 823 04ce 9400     		.2byte	(.L47-.L49)/2
 824 04d0 9400     		.2byte	(.L47-.L49)/2
 825 04d2 9400     		.2byte	(.L47-.L49)/2
 826 04d4 0D02     		.2byte	(.L64-.L49)/2
 827 04d6 9400     		.2byte	(.L47-.L49)/2
 828 04d8 9400     		.2byte	(.L47-.L49)/2
 829 04da 9400     		.2byte	(.L47-.L49)/2
 830 04dc 9400     		.2byte	(.L47-.L49)/2
 831 04de 9400     		.2byte	(.L47-.L49)/2
 832 04e0 9400     		.2byte	(.L47-.L49)/2
 833 04e2 9400     		.2byte	(.L47-.L49)/2
 834 04e4 9400     		.2byte	(.L47-.L49)/2
 835 04e6 9400     		.2byte	(.L47-.L49)/2
 836 04e8 C601     		.2byte	(.L65-.L49)/2
 837 04ea EB01     		.2byte	(.L66-.L49)/2
 838 04ec 9400     		.2byte	(.L47-.L49)/2
 839 04ee 9400     		.2byte	(.L47-.L49)/2
 840 04f0 9400     		.2byte	(.L47-.L49)/2
 841 04f2 9400     		.2byte	(.L47-.L49)/2
 842 04f4 B601     		.2byte	(.L67-.L49)/2
 843 04f6 9400     		.2byte	(.L47-.L49)/2
 844 04f8 9400     		.2byte	(.L47-.L49)/2
 845 04fa 9400     		.2byte	(.L47-.L49)/2
 846 04fc 9400     		.2byte	(.L47-.L49)/2
 847 04fe 9400     		.2byte	(.L47-.L49)/2
 848 0500 9400     		.2byte	(.L47-.L49)/2
 849 0502 9400     		.2byte	(.L47-.L49)/2
 850 0504 9400     		.2byte	(.L47-.L49)/2
 851 0506 9400     		.2byte	(.L47-.L49)/2
 852 0508 9400     		.2byte	(.L47-.L49)/2
 853 050a 9400     		.2byte	(.L47-.L49)/2
 854 050c 9400     		.2byte	(.L47-.L49)/2
 855 050e AB01     		.2byte	(.L68-.L49)/2
ARM GAS  C:\Users\mathi\AppData\Local\Temp\ccXNOisu.s 			page 16


 856 0510 8B01     		.2byte	(.L69-.L49)/2
 857 0512 9400     		.2byte	(.L47-.L49)/2
 858 0514 F403     		.2byte	(.L70-.L49)/2
 859              		.p2align 1
 860              	.L713:
 861 0516 00BF     		.align	2
 862              	.L712:
 863 0518 00000000 		.word	.LANCHOR6
 864 051c 00000000 		.word	.LANCHOR7
 865 0520 00000000 		.word	.LANCHOR8
 866 0524 D4FEFFFF 		.word	-300
 867 0528 A8FDFFFF 		.word	-600
 868 052c 00000000 		.word	c
 869 0530 00000000 		.word	0
 870              	.L100:
 871              		.loc 1 475 0 discriminator 1
 872 0534 2046     		mov	r0, r4
 873 0536 FFF7FEFF 		bl	e_getchar_uart2
 874              	.LVL58:
 875 053a 0028     		cmp	r0, #0
 876 053c FAD0     		beq	.L100
 877              		.loc 1 476 0
 878 053e BB4C     		ldr	r4, .L714
 879              	.L103:
 880              		.loc 1 476 0 is_stmt 0 discriminator 1
 881 0540 2046     		mov	r0, r4
 882 0542 FFF7FEFF 		bl	e_getchar_uart2
 883              	.LVL59:
 884 0546 0028     		cmp	r0, #0
 885 0548 FAD0     		beq	.L103
 886              	.L99:
 887              		.loc 1 478 0 is_stmt 1
 888 054a B94B     		ldr	r3, .L714+4
 889 054c B74A     		ldr	r2, .L714
 890 054e 1B78     		ldrb	r3, [r3]	@ zero_extendqisi2
 891 0550 1078     		ldrb	r0, [r2]	@ zero_extendqisi2
 892 0552 082B     		cmp	r3, #8
 893 0554 01F0C782 		beq	.L105
 894 0558 092B     		cmp	r3, #9
 895 055a 41F0BE82 		bne	.L695
 896              		.loc 1 483 0
 897 055e FFF7FEFF 		bl	e_set_front_led
 898              	.LVL60:
 899              	.L47:
 900              		.loc 1 640 0
 901 0562 37B9     		cbnz	r7, .L679
 902              	.L78:
 903              		.loc 1 642 0
 904 0564 079B     		ldr	r3, [sp, #28]
 905 0566 13B3     		cbz	r3, .L152
 906              	.L153:
 907              		.loc 1 643 0 discriminator 1
 908 0568 3046     		mov	r0, r6
 909 056a FFF7FEFF 		bl	e_getchar_uart1
 910              	.LVL61:
 911 056e 0028     		cmp	r0, #0
 912 0570 FAD0     		beq	.L153
ARM GAS  C:\Users\mathi\AppData\Local\Temp\ccXNOisu.s 			page 17


 913              	.L679:
 914 0572 99F80030 		ldrb	r3, [r9]	@ zero_extendqisi2
 915              		.loc 1 647 0
 916 0576 002B     		cmp	r3, #0
 917 0578 7FF457AF 		bne	.L673
 918              	.L649:
 919              		.loc 1 648 0
 920 057c DBF80010 		ldr	r1, [fp]
 921 0580 0029     		cmp	r1, #0
 922 0582 3FF4ABAD 		beq	.L6
 923              		.loc 1 649 0
 924 0586 002F     		cmp	r7, #0
 925 0588 7FF4A8AD 		bne	.L6
 926              		.loc 1 650 0
 927 058c A94B     		ldr	r3, .L714+8
 928 058e 1B78     		ldrb	r3, [r3]	@ zero_extendqisi2
 929 0590 002B     		cmp	r3, #0
 930 0592 41F03683 		bne	.L696
 931              	.L155:
 932              		.loc 1 659 0
 933 0596 079B     		ldr	r3, [sp, #28]
 934 0598 002B     		cmp	r3, #0
 935 059a 01F09582 		beq	.L697
 936              		.loc 1 660 0
 937 059e A648     		ldr	r0, .L714+12
 938 05a0 FFF7FEFF 		bl	e_send_uart1_char
 939              	.LVL62:
 940              	.L156:
 941              		.loc 1 661 0 discriminator 1
 942 05a4 FFF7FEFF 		bl	e_uart1_sending
 943              	.LVL63:
 944 05a8 0028     		cmp	r0, #0
 945 05aa FBD1     		bne	.L156
 946 05ac 97E5     		b	.L650
 947              	.L152:
 948              		.loc 1 645 0 discriminator 1
 949 05ae 3046     		mov	r0, r6
 950 05b0 FFF7FEFF 		bl	e_getchar_uart2
 951              	.LVL64:
 952 05b4 0028     		cmp	r0, #0
 953 05b6 DCD1     		bne	.L679
 954              		.loc 1 645 0 is_stmt 0
 955 05b8 3046     		mov	r0, r6
 956 05ba FFF7FEFF 		bl	e_getchar_uart2
 957              	.LVL65:
 958 05be 0028     		cmp	r0, #0
 959 05c0 F5D0     		beq	.L152
 960 05c2 D6E7     		b	.L679
 961              	.L63:
 962              		.loc 1 555 0 is_stmt 1
 963 05c4 FFF7FEFF 		bl	e_get_steps_left
 964              	.LVL66:
 965              		.loc 1 556 0
 966 05c8 DBF80030 		ldr	r3, [fp]
 967              		.loc 1 557 0
 968 05cc 0AEB0302 		add	r2, r10, r3
 969              		.loc 1 556 0
ARM GAS  C:\Users\mathi\AppData\Local\Temp\ccXNOisu.s 			page 18


 970 05d0 0AF80300 		strb	r0, [r10, r3]
 971              		.loc 1 557 0
 972 05d4 0112     		asrs	r1, r0, #8
 973 05d6 0233     		adds	r3, r3, #2
 974 05d8 5170     		strb	r1, [r2, #1]
 975 05da CBF80030 		str	r3, [fp]
 976              		.loc 1 558 0
 977 05de FFF7FEFF 		bl	e_get_steps_right
 978              	.LVL67:
 979              	.L677:
 980              		.loc 1 559 0
 981 05e2 DBF80030 		ldr	r3, [fp]
 982              		.loc 1 560 0
 983 05e6 0AEB0302 		add	r2, r10, r3
 984              		.loc 1 559 0
 985 05ea 0AF80300 		strb	r0, [r10, r3]
 986              		.loc 1 560 0
 987 05ee 0112     		asrs	r1, r0, #8
 988 05f0 0233     		adds	r3, r3, #2
 989 05f2 5170     		strb	r1, [r2, #1]
 990 05f4 CBF80030 		str	r3, [fp]
 991              		.loc 1 561 0
 992 05f8 B3E7     		b	.L47
 993              	.L62:
 994              		.loc 1 531 0
 995 05fa 002F     		cmp	r7, #0
 996 05fc 41F05282 		bne	.L118
 997              		.loc 1 533 0
 998 0600 079B     		ldr	r3, [sp, #28]
 999              		.loc 1 534 0
 1000 0602 8B4C     		ldr	r4, .L714+4
 1001              		.loc 1 533 0
 1002 0604 002B     		cmp	r3, #0
 1003 0606 2FD0     		beq	.L119
 1004              	.L120:
 1005              		.loc 1 534 0 discriminator 1
 1006 0608 2046     		mov	r0, r4
 1007 060a FFF7FEFF 		bl	e_getchar_uart1
 1008              	.LVL68:
 1009 060e 0028     		cmp	r0, #0
 1010 0610 FAD0     		beq	.L120
 1011              		.loc 1 535 0
 1012 0612 864C     		ldr	r4, .L714
 1013              	.L121:
 1014              		.loc 1 535 0 is_stmt 0 discriminator 1
 1015 0614 2046     		mov	r0, r4
 1016 0616 FFF7FEFF 		bl	e_getchar_uart1
 1017              	.LVL69:
 1018 061a 0028     		cmp	r0, #0
 1019 061c FAD0     		beq	.L121
 1020              		.loc 1 540 0 is_stmt 1
 1021 061e 834B     		ldr	r3, .L714
 1022              		.loc 1 544 0
 1023 0620 834C     		ldr	r4, .L714+4
 1024              		.loc 1 540 0
 1025 0622 1A78     		ldrb	r2, [r3]	@ zero_extendqisi2
 1026 0624 824B     		ldr	r3, .L714+4
ARM GAS  C:\Users\mathi\AppData\Local\Temp\ccXNOisu.s 			page 19


 1027 0626 1B78     		ldrb	r3, [r3]	@ zero_extendqisi2
 1028 0628 03EB0223 		add	r3, r3, r2, lsl #8
 1029 062c 834A     		ldr	r2, .L714+16
 1030 062e 1360     		str	r3, [r2]
 1031              	.L125:
 1032              		.loc 1 544 0 discriminator 1
 1033 0630 2046     		mov	r0, r4
 1034 0632 FFF7FEFF 		bl	e_getchar_uart1
 1035              	.LVL70:
 1036 0636 0028     		cmp	r0, #0
 1037 0638 FAD0     		beq	.L125
 1038              		.loc 1 545 0
 1039 063a 7C4C     		ldr	r4, .L714
 1040              	.L126:
 1041              		.loc 1 545 0 is_stmt 0 discriminator 1
 1042 063c 2046     		mov	r0, r4
 1043 063e FFF7FEFF 		bl	e_getchar_uart1
 1044              	.LVL71:
 1045 0642 0028     		cmp	r0, #0
 1046 0644 FAD0     		beq	.L126
 1047              	.L648:
 1048 0646 794B     		ldr	r3, .L714
 1049 0648 7C49     		ldr	r1, .L714+16
 1050 064a 1A78     		ldrb	r2, [r3]	@ zero_extendqisi2
 1051 064c 784B     		ldr	r3, .L714+4
 1052 064e 0868     		ldr	r0, [r1]
 1053 0650 1B78     		ldrb	r3, [r3]	@ zero_extendqisi2
 1054 0652 03EB0223 		add	r3, r3, r2, lsl #8
 1055              	.L130:
 1056              		.loc 1 550 0 is_stmt 1
 1057 0656 7A4A     		ldr	r2, .L714+20
 1058 0658 1446     		mov	r4, r2
 1059 065a 1360     		str	r3, [r2]
 1060              		.loc 1 551 0
 1061 065c FFF7FEFF 		bl	e_set_steps_left
 1062              	.LVL72:
 1063              		.loc 1 552 0
 1064 0660 2068     		ldr	r0, [r4]
 1065 0662 FFF7FEFF 		bl	e_set_steps_right
 1066              	.LVL73:
 1067              		.loc 1 553 0
 1068 0666 7CE7     		b	.L47
 1069              	.L119:
 1070              		.loc 1 537 0 discriminator 1
 1071 0668 2046     		mov	r0, r4
 1072 066a FFF7FEFF 		bl	e_getchar_uart2
 1073              	.LVL74:
 1074 066e 0028     		cmp	r0, #0
 1075 0670 FAD0     		beq	.L119
 1076              		.loc 1 538 0
 1077 0672 6E4C     		ldr	r4, .L714
 1078              	.L123:
 1079              		.loc 1 538 0 is_stmt 0 discriminator 1
 1080 0674 2046     		mov	r0, r4
 1081 0676 FFF7FEFF 		bl	e_getchar_uart2
 1082              	.LVL75:
 1083 067a 0028     		cmp	r0, #0
ARM GAS  C:\Users\mathi\AppData\Local\Temp\ccXNOisu.s 			page 20


 1084 067c FAD0     		beq	.L123
 1085              		.loc 1 540 0 is_stmt 1
 1086 067e 6B4B     		ldr	r3, .L714
 1087              		.loc 1 547 0
 1088 0680 6B4C     		ldr	r4, .L714+4
 1089              		.loc 1 540 0
 1090 0682 1A78     		ldrb	r2, [r3]	@ zero_extendqisi2
 1091 0684 6A4B     		ldr	r3, .L714+4
 1092 0686 1B78     		ldrb	r3, [r3]	@ zero_extendqisi2
 1093 0688 03EB0223 		add	r3, r3, r2, lsl #8
 1094 068c 6B4A     		ldr	r2, .L714+16
 1095 068e 1360     		str	r3, [r2]
 1096              	.L128:
 1097              		.loc 1 547 0 discriminator 1
 1098 0690 2046     		mov	r0, r4
 1099 0692 FFF7FEFF 		bl	e_getchar_uart2
 1100              	.LVL76:
 1101 0696 0028     		cmp	r0, #0
 1102 0698 FAD0     		beq	.L128
 1103              		.loc 1 548 0
 1104 069a 644C     		ldr	r4, .L714
 1105              	.L129:
 1106              		.loc 1 548 0 is_stmt 0 discriminator 1
 1107 069c 2046     		mov	r0, r4
 1108 069e FFF7FEFF 		bl	e_getchar_uart2
 1109              	.LVL77:
 1110 06a2 0028     		cmp	r0, #0
 1111 06a4 FAD0     		beq	.L129
 1112 06a6 CEE7     		b	.L648
 1113              	.L61:
 1114              		.loc 1 523 0 is_stmt 1
 1115 06a8 0020     		movs	r0, #0
 1116 06aa C8F80000 		str	r0, [r8]
 1117              	.L116:
 1118              		.loc 1 524 0 discriminator 3
 1119 06ae FFF7FEFF 		bl	e_get_ambient_light
 1120              	.LVL78:
 1121              		.loc 1 525 0 discriminator 3
 1122 06b2 DBF80020 		ldr	r2, [fp]
 1123              		.loc 1 523 0 discriminator 3
 1124 06b6 D8F80030 		ldr	r3, [r8]
 1125              		.loc 1 525 0 discriminator 3
 1126 06ba 0AF80200 		strb	r0, [r10, r2]
 1127              		.loc 1 526 0 discriminator 3
 1128 06be 0AEB0204 		add	r4, r10, r2
 1129 06c2 0112     		asrs	r1, r0, #8
 1130              		.loc 1 523 0 discriminator 3
 1131 06c4 581C     		adds	r0, r3, #1
 1132              		.loc 1 526 0 discriminator 3
 1133 06c6 0232     		adds	r2, r2, #2
 1134              		.loc 1 523 0 discriminator 3
 1135 06c8 0728     		cmp	r0, #7
 1136              		.loc 1 526 0 discriminator 3
 1137 06ca 6170     		strb	r1, [r4, #1]
 1138 06cc CBF80020 		str	r2, [fp]
 1139              		.loc 1 523 0 discriminator 3
 1140 06d0 C8F80000 		str	r0, [r8]
ARM GAS  C:\Users\mathi\AppData\Local\Temp\ccXNOisu.s 			page 21


 1141 06d4 EBDD     		ble	.L116
 1142 06d6 44E7     		b	.L47
 1143              	.L48:
 1144              		.loc 1 287 0
 1145 06d8 0020     		movs	r0, #0
 1146 06da 079C     		ldr	r4, [sp, #28]
 1147 06dc C8F80000 		str	r0, [r8]
 1148              	.L76:
 1149              		.loc 1 288 0
 1150 06e0 5FB9     		cbnz	r7, .L71
 1151              		.loc 1 290 0
 1152 06e2 74B3     		cbz	r4, .L72
 1153 06e4 01E0     		b	.L74
 1154              	.L73:
 1155 06e6 D8F80000 		ldr	r0, [r8]
 1156              	.L74:
 1157              		.loc 1 291 0 discriminator 1
 1158 06ea 564B     		ldr	r3, .L714+24
 1159 06ec 1844     		add	r0, r0, r3
 1160 06ee FFF7FEFF 		bl	e_getchar_uart1
 1161              	.LVL79:
 1162 06f2 0028     		cmp	r0, #0
 1163 06f4 F7D0     		beq	.L73
 1164              	.L674:
 1165 06f6 D8F80000 		ldr	r0, [r8]
 1166              	.L71:
 1167              		.loc 1 287 0 discriminator 2
 1168 06fa 0130     		adds	r0, r0, #1
 1169 06fc 0B28     		cmp	r0, #11
 1170 06fe C8F80000 		str	r0, [r8]
 1171 0702 EDDD     		ble	.L76
 1172              		.loc 1 296 0
 1173 0704 4F4B     		ldr	r3, .L714+24
 1174 0706 1A46     		mov	r2, r3
 1175 0708 1146     		mov	r1, r2
 1176 070a 0C46     		mov	r4, r1
 1177 070c 9B78     		ldrb	r3, [r3, #2]	@ zero_extendqisi2
 1178 070e 5278     		ldrb	r2, [r2, #1]	@ zero_extendqisi2
 1179 0710 0978     		ldrb	r1, [r1]	@ zero_extendqisi2
 1180 0712 0020     		movs	r0, #0
 1181 0714 FFF7FEFF 		bl	set_rgb_led
 1182              	.LVL80:
 1183              		.loc 1 297 0
 1184 0718 6379     		ldrb	r3, [r4, #5]	@ zero_extendqisi2
 1185 071a 2279     		ldrb	r2, [r4, #4]	@ zero_extendqisi2
 1186 071c E178     		ldrb	r1, [r4, #3]	@ zero_extendqisi2
 1187 071e 0120     		movs	r0, #1
 1188 0720 FFF7FEFF 		bl	set_rgb_led
 1189              	.LVL81:
 1190              		.loc 1 298 0
 1191 0724 237A     		ldrb	r3, [r4, #8]	@ zero_extendqisi2
 1192 0726 E279     		ldrb	r2, [r4, #7]	@ zero_extendqisi2
 1193 0728 A179     		ldrb	r1, [r4, #6]	@ zero_extendqisi2
 1194 072a 0220     		movs	r0, #2
 1195 072c FFF7FEFF 		bl	set_rgb_led
 1196              	.LVL82:
 1197              		.loc 1 299 0
ARM GAS  C:\Users\mathi\AppData\Local\Temp\ccXNOisu.s 			page 22


 1198 0730 E37A     		ldrb	r3, [r4, #11]	@ zero_extendqisi2
 1199 0732 A27A     		ldrb	r2, [r4, #10]	@ zero_extendqisi2
 1200 0734 617A     		ldrb	r1, [r4, #9]	@ zero_extendqisi2
 1201 0736 0320     		movs	r0, #3
 1202 0738 FFF7FEFF 		bl	set_rgb_led
 1203              	.LVL83:
 1204              		.loc 1 300 0
 1205 073c 11E7     		b	.L47
 1206              	.L75:
 1207 073e D8F80000 		ldr	r0, [r8]
 1208              	.L72:
 1209              		.loc 1 293 0 discriminator 1
 1210 0742 404B     		ldr	r3, .L714+24
 1211 0744 1844     		add	r0, r0, r3
 1212 0746 FFF7FEFF 		bl	e_getchar_uart2
 1213              	.LVL84:
 1214 074a 0028     		cmp	r0, #0
 1215 074c F7D0     		beq	.L75
 1216 074e D2E7     		b	.L674
 1217              	.L69:
 1218              		.loc 1 572 0
 1219 0750 0020     		movs	r0, #0
 1220 0752 FFF7FEFF 		bl	e_get_micro_volume
 1221              	.LVL85:
 1222              		.loc 1 573 0
 1223 0756 DBF80030 		ldr	r3, [fp]
 1224              		.loc 1 574 0
 1225 075a 0AEB0302 		add	r2, r10, r3
 1226              		.loc 1 573 0
 1227 075e 0AF80300 		strb	r0, [r10, r3]
 1228              		.loc 1 574 0
 1229 0762 0112     		asrs	r1, r0, #8
 1230 0764 0233     		adds	r3, r3, #2
 1231              		.loc 1 576 0
 1232 0766 0120     		movs	r0, #1
 1233              		.loc 1 574 0
 1234 0768 5170     		strb	r1, [r2, #1]
 1235 076a CBF80030 		str	r3, [fp]
 1236              		.loc 1 576 0
 1237 076e FFF7FEFF 		bl	e_get_micro_volume
 1238              	.LVL86:
 1239              		.loc 1 577 0
 1240 0772 DBF80030 		ldr	r3, [fp]
 1241              		.loc 1 578 0
 1242 0776 0AEB0302 		add	r2, r10, r3
 1243              		.loc 1 577 0
 1244 077a 0AF80300 		strb	r0, [r10, r3]
 1245              		.loc 1 578 0
 1246 077e 0112     		asrs	r1, r0, #8
 1247 0780 0233     		adds	r3, r3, #2
 1248              		.loc 1 580 0
 1249 0782 0220     		movs	r0, #2
 1250              		.loc 1 578 0
 1251 0784 5170     		strb	r1, [r2, #1]
 1252 0786 CBF80030 		str	r3, [fp]
 1253              		.loc 1 580 0
 1254 078a FFF7FEFF 		bl	e_get_micro_volume
ARM GAS  C:\Users\mathi\AppData\Local\Temp\ccXNOisu.s 			page 23


 1255              	.LVL87:
 1256 078e 28E7     		b	.L677
 1257              	.L68:
 1258              		.loc 1 564 0
 1259 0790 002F     		cmp	r7, #0
 1260 0792 41F0AC81 		bne	.L131
 1261              		.loc 1 565 0
 1262 0796 DBF80030 		ldr	r3, [fp]
 1263 079a 5A1C     		adds	r2, r3, #1
 1264 079c 0AF80370 		strb	r7, [r10, r3]
 1265 07a0 CBF80020 		str	r2, [fp]
 1266 07a4 DEE6     		b	.L78
 1267              	.L67:
 1268              		.loc 1 439 0
 1269 07a6 002F     		cmp	r7, #0
 1270 07a8 01F0E081 		beq	.L698
 1271              		.loc 1 448 0
 1272 07ac DBF80010 		ldr	r1, [fp]
 1273 07b0 0AEB0100 		add	r0, r10, r1
 1274 07b4 0022     		movs	r2, #0
 1275              		.loc 1 453 0
 1276 07b6 8C1D     		adds	r4, r1, #6
 1277              		.loc 1 448 0
 1278 07b8 4AF80120 		str	r2, [r10, r1]	@ unaligned
 1279              		.loc 1 453 0
 1280 07bc CBF80040 		str	r4, [fp]
 1281              		.loc 1 452 0
 1282 07c0 0271     		strb	r2, [r0, #4]
 1283              		.loc 1 453 0
 1284 07c2 4271     		strb	r2, [r0, #5]
 1285 07c4 32E6     		b	.L46
 1286              	.L65:
 1287              		.loc 1 344 0
 1288 07c6 002F     		cmp	r7, #0
 1289 07c8 01F0A181 		beq	.L699
 1290              		.loc 1 352 0
 1291 07cc 1E49     		ldr	r1, .L714+28
 1292 07ce 0022     		movs	r2, #0
 1293 07d0 0A60     		str	r2, [r1]
 1294              		.loc 1 353 0
 1295 07d2 1E49     		ldr	r1, .L714+32
 1296 07d4 0A60     		str	r2, [r1]
 1297              		.loc 1 354 0
 1298 07d6 1E49     		ldr	r1, .L714+36
 1299 07d8 1346     		mov	r3, r2
 1300 07da 0A60     		str	r2, [r1]
 1301 07dc 1546     		mov	r5, r2
 1302 07de 1446     		mov	r4, r2
 1303 07e0 9446     		mov	ip, r2
 1304 07e2 1046     		mov	r0, r2
 1305 07e4 1146     		mov	r1, r2
 1306              	.L82:
 1307              		.loc 1 356 0
 1308 07e6 0022     		movs	r2, #0
 1309 07e8 61F30702 		bfi	r2, r1, #0, #8
 1310 07ec DBF80010 		ldr	r1, [fp]
 1311 07f0 60F30F22 		bfi	r2, r0, #8, #8
ARM GAS  C:\Users\mathi\AppData\Local\Temp\ccXNOisu.s 			page 24


 1312 07f4 6CF31742 		bfi	r2, ip, #16, #8
 1313 07f8 0AEB0100 		add	r0, r10, r1
 1314 07fc 64F31F62 		bfi	r2, r4, #24, #8
 1315              		.loc 1 361 0
 1316 0800 8C1D     		adds	r4, r1, #6
 1317              		.loc 1 356 0
 1318 0802 4AF80120 		str	r2, [r10, r1]	@ unaligned
 1319              		.loc 1 361 0
 1320 0806 CBF80040 		str	r4, [fp]
 1321              		.loc 1 360 0
 1322 080a 0571     		strb	r5, [r0, #4]
 1323              		.loc 1 361 0
 1324 080c 4371     		strb	r3, [r0, #5]
 1325              		.loc 1 362 0
 1326 080e A8E6     		b	.L47
 1327              	.L66:
 1328              		.loc 1 402 0
 1329 0810 FFF7FEFF 		bl	getBatteryValueRaw
 1330              	.LVL88:
 1331              		.loc 1 403 0
 1332 0814 DBF80030 		ldr	r3, [fp]
 1333              		.loc 1 404 0
 1334 0818 0AEB0302 		add	r2, r10, r3
 1335              		.loc 1 403 0
 1336 081c 0AF80300 		strb	r0, [r10, r3]
 1337              		.loc 1 404 0
 1338 0820 010A     		lsrs	r1, r0, #8
 1339 0822 0233     		adds	r3, r3, #2
 1340 0824 5170     		strb	r1, [r2, #1]
 1341 0826 CBF80030 		str	r3, [fp]
 1342              		.loc 1 405 0
 1343 082a 9AE6     		b	.L47
 1344              	.L715:
 1345              		.align	2
 1346              	.L714:
 1347 082c 00000000 		.word	.LANCHOR17
 1348 0830 00000000 		.word	.LANCHOR16
 1349 0834 00000000 		.word	.LANCHOR21
 1350 0838 00000000 		.word	buffer
 1351 083c 00000000 		.word	.LANCHOR22
 1352 0840 00000000 		.word	.LANCHOR23
 1353 0844 00000000 		.word	.LANCHOR11
 1354 0848 00000000 		.word	.LANCHOR12
 1355 084c 00000000 		.word	.LANCHOR13
 1356 0850 00000000 		.word	.LANCHOR14
 1357              	.LVL89:
 1358              	.L64:
 1359              		.loc 1 597 0
 1360 0854 002F     		cmp	r7, #0
 1361 0856 7FF4E9AD 		bne	.L46
 1362              		.loc 1 598 0
 1363 085a 079B     		ldr	r3, [sp, #28]
 1364 085c EBB1     		cbz	r3, .L133
 1365              	.L134:
 1366              		.loc 1 599 0 discriminator 1
 1367 085e BA48     		ldr	r0, .L716
 1368 0860 FFF7FEFF 		bl	e_getchar_uart1
ARM GAS  C:\Users\mathi\AppData\Local\Temp\ccXNOisu.s 			page 25


 1369              	.LVL90:
 1370 0864 0028     		cmp	r0, #0
 1371 0866 FAD0     		beq	.L134
 1372              		.loc 1 600 0
 1373 0868 B84C     		ldr	r4, .L716+4
 1374              	.L135:
 1375              		.loc 1 600 0 is_stmt 0 discriminator 1
 1376 086a 2046     		mov	r0, r4
 1377 086c FFF7FEFF 		bl	e_getchar_uart1
 1378              	.LVL91:
 1379 0870 0028     		cmp	r0, #0
 1380 0872 FAD0     		beq	.L135
 1381              		.loc 1 601 0 is_stmt 1
 1382 0874 B64C     		ldr	r4, .L716+8
 1383              	.L136:
 1384              		.loc 1 601 0 is_stmt 0 discriminator 1
 1385 0876 2046     		mov	r0, r4
 1386 0878 FFF7FEFF 		bl	e_getchar_uart1
 1387              	.LVL92:
 1388 087c 0028     		cmp	r0, #0
 1389 087e FAD0     		beq	.L136
 1390              	.L137:
 1391              		.loc 1 607 0 is_stmt 1
 1392 0880 FFF7FEFF 		bl	e_i2cp_enable
 1393              	.LVL93:
 1394              		.loc 1 608 0
 1395 0884 B24B     		ldr	r3, .L716+8
 1396 0886 1A78     		ldrb	r2, [r3]	@ zero_extendqisi2
 1397 0888 B04B     		ldr	r3, .L716+4
 1398 088a 1978     		ldrb	r1, [r3]	@ zero_extendqisi2
 1399 088c AE4B     		ldr	r3, .L716
 1400 088e 1878     		ldrb	r0, [r3]	@ zero_extendqisi2
 1401 0890 FFF7FEFF 		bl	e_i2cp_write
 1402              	.LVL94:
 1403              	.L678:
 1404              		.loc 1 609 0
 1405 0894 FFF7FEFF 		bl	e_i2cp_disable
 1406              	.LVL95:
 1407 0898 64E6     		b	.L78
 1408              	.L133:
 1409              		.loc 1 603 0 discriminator 1
 1410 089a AB48     		ldr	r0, .L716
 1411 089c FFF7FEFF 		bl	e_getchar_uart2
 1412              	.LVL96:
 1413 08a0 0028     		cmp	r0, #0
 1414 08a2 FAD0     		beq	.L133
 1415              		.loc 1 604 0
 1416 08a4 A94C     		ldr	r4, .L716+4
 1417              	.L138:
 1418              		.loc 1 604 0 is_stmt 0 discriminator 1
 1419 08a6 2046     		mov	r0, r4
 1420 08a8 FFF7FEFF 		bl	e_getchar_uart2
 1421              	.LVL97:
 1422 08ac 0028     		cmp	r0, #0
 1423 08ae FAD0     		beq	.L138
 1424              		.loc 1 605 0 is_stmt 1
 1425 08b0 A74C     		ldr	r4, .L716+8
ARM GAS  C:\Users\mathi\AppData\Local\Temp\ccXNOisu.s 			page 26


 1426              	.L139:
 1427              		.loc 1 605 0 is_stmt 0 discriminator 1
 1428 08b2 2046     		mov	r0, r4
 1429 08b4 FFF7FEFF 		bl	e_getchar_uart2
 1430              	.LVL98:
 1431 08b8 0028     		cmp	r0, #0
 1432 08ba FAD0     		beq	.L139
 1433 08bc E0E7     		b	.L137
 1434              	.L57:
 1435              		.loc 1 458 0 is_stmt 1
 1436 08be 002F     		cmp	r7, #0
 1437 08c0 7FF4B4AD 		bne	.L46
 1438              		.loc 1 459 0
 1439 08c4 DBF80030 		ldr	r3, [fp]
 1440 08c8 0333     		adds	r3, r3, #3
 1441 08ca 0AEB0300 		add	r0, r10, r3
 1442 08ce FFF7FEFF 		bl	e_poxxxx_launch_capture
 1443              	.LVL99:
 1444              		.loc 1 461 0
 1445 08d2 1299     		ldr	r1, [sp, #72]
 1446 08d4 DBF80030 		ldr	r3, [fp]
 1447              		.loc 1 465 0
 1448 08d8 0E9A     		ldr	r2, [sp, #56]
 1449              		.loc 1 461 0
 1450 08da 0968     		ldr	r1, [r1]
 1451              		.loc 1 462 0
 1452 08dc 1098     		ldr	r0, [sp, #64]
 1453              		.loc 1 461 0
 1454 08de 0AF80310 		strb	r1, [r10, r3]
 1455              		.loc 1 465 0
 1456 08e2 1268     		ldr	r2, [r2]
 1457              		.loc 1 462 0
 1458 08e4 0068     		ldr	r0, [r0]
 1459              		.loc 1 463 0
 1460 08e6 D91C     		adds	r1, r3, #3
 1461              		.loc 1 462 0
 1462 08e8 5344     		add	r3, r3, r10
 1463              		.loc 1 465 0
 1464 08ea 0A44     		add	r2, r2, r1
 1465              		.loc 1 462 0
 1466 08ec 5870     		strb	r0, [r3, #1]
 1467              		.loc 1 463 0
 1468 08ee 1198     		ldr	r0, [sp, #68]
 1469              		.loc 1 465 0
 1470 08f0 CBF80020 		str	r2, [fp]
 1471              		.loc 1 464 0
 1472 08f4 8AB2     		uxth	r2, r1
 1473              		.loc 1 463 0
 1474 08f6 0068     		ldr	r0, [r0]
 1475              		.loc 1 464 0
 1476 08f8 0F92     		str	r2, [sp, #60]
 1477              	.LVL100:
 1478              		.loc 1 460 0
 1479 08fa 964A     		ldr	r2, .L716+12
 1480              	.LVL101:
 1481              		.loc 1 463 0
 1482 08fc 9870     		strb	r0, [r3, #2]
ARM GAS  C:\Users\mathi\AppData\Local\Temp\ccXNOisu.s 			page 27


 1483              		.loc 1 460 0
 1484 08fe 0123     		movs	r3, #1
 1485 0900 1370     		strb	r3, [r2]
 1486 0902 2FE6     		b	.L78
 1487              	.LVL102:
 1488              	.L59:
 1489              		.loc 1 492 0
 1490 0904 002F     		cmp	r7, #0
 1491 0906 7FF491AD 		bne	.L46
 1492              		.loc 1 493 0
 1493 090a FFF7FEFF 		bl	e_i2cp_init
 1494              	.LVL103:
 1495              		.loc 1 494 0
 1496 090e FFF7FEFF 		bl	e_i2cp_enable
 1497              	.LVL104:
 1498              		.loc 1 495 0
 1499 0912 3946     		mov	r1, r7
 1500 0914 C020     		movs	r0, #192
 1501 0916 FFF7FEFF 		bl	e_i2cp_read
 1502              	.LVL105:
 1503              		.loc 1 496 0
 1504 091a C8F80070 		str	r7, [r8]
 1505 091e 3B46     		mov	r3, r7
 1506              	.L107:
 1507 0920 DAB2     		uxtb	r2, r3
 1508 0922 DBF80040 		ldr	r4, [fp]
 1509              		.loc 1 497 0
 1510 0926 DB07     		lsls	r3, r3, #31
 1511 0928 02F10101 		add	r1, r2, #1
 1512              		.loc 1 498 0
 1513 092c 02F1FF32 		add	r2, r2, #-1
 1514              		.loc 1 497 0
 1515 0930 4FF0C000 		mov	r0, #192
 1516 0934 C9B2     		uxtb	r1, r1
 1517              		.loc 1 498 0
 1518 0936 44BF     		itt	mi
 1519 0938 C020     		movmi	r0, #192
 1520 093a D1B2     		uxtbmi	r1, r2
 1521 093c 651C     		adds	r5, r4, #1
 1522 093e CBF80050 		str	r5, [fp]
 1523 0942 FFF7FEFF 		bl	e_i2cp_read
 1524              	.LVL106:
 1525              		.loc 1 496 0
 1526 0946 D8F80030 		ldr	r3, [r8]
 1527              		.loc 1 498 0
 1528 094a 0AF80400 		strb	r0, [r10, r4]
 1529              		.loc 1 496 0
 1530 094e 0133     		adds	r3, r3, #1
 1531 0950 052B     		cmp	r3, #5
 1532 0952 C8F80030 		str	r3, [r8]
 1533 0956 E3DD     		ble	.L107
 1534              		.loc 1 501 0
 1535 0958 0D23     		movs	r3, #13
 1536 095a C8F80030 		str	r3, [r8]
 1537              	.L111:
 1538 095e DAB2     		uxtb	r2, r3
 1539 0960 DBF80040 		ldr	r4, [fp]
ARM GAS  C:\Users\mathi\AppData\Local\Temp\ccXNOisu.s 			page 28


 1540              		.loc 1 502 0
 1541 0964 DB07     		lsls	r3, r3, #31
 1542 0966 02F1FF31 		add	r1, r2, #-1
 1543              		.loc 1 503 0
 1544 096a 02F10102 		add	r2, r2, #1
 1545              		.loc 1 502 0
 1546 096e 4FF0C000 		mov	r0, #192
 1547 0972 C9B2     		uxtb	r1, r1
 1548              		.loc 1 503 0
 1549 0974 44BF     		itt	mi
 1550 0976 C020     		movmi	r0, #192
 1551 0978 D1B2     		uxtbmi	r1, r2
 1552 097a 651C     		adds	r5, r4, #1
 1553 097c CBF80050 		str	r5, [fp]
 1554 0980 FFF7FEFF 		bl	e_i2cp_read
 1555              	.LVL107:
 1556              		.loc 1 501 0
 1557 0984 D8F80030 		ldr	r3, [r8]
 1558              		.loc 1 503 0
 1559 0988 0AF80400 		strb	r0, [r10, r4]
 1560              		.loc 1 501 0
 1561 098c 0133     		adds	r3, r3, #1
 1562 098e 102B     		cmp	r3, #16
 1563 0990 C8F80030 		str	r3, [r8]
 1564 0994 E3DD     		ble	.L111
 1565 0996 7DE7     		b	.L678
 1566              	.L53:
 1567              		.loc 1 336 0
 1568 0998 FFF7FEFF 		bl	isSDCardMounted
 1569              	.LVL108:
 1570              		.loc 1 337 0
 1571 099c DBF80030 		ldr	r3, [fp]
 1572              		.loc 1 336 0
 1573 09a0 0028     		cmp	r0, #0
 1574 09a2 01F08A80 		beq	.L80
 1575              		.loc 1 337 0
 1576 09a6 0121     		movs	r1, #1
 1577 09a8 5A18     		adds	r2, r3, r1
 1578 09aa 0AF80310 		strb	r1, [r10, r3]
 1579 09ae CBF80020 		str	r2, [fp]
 1580 09b2 D6E5     		b	.L47
 1581              	.L60:
 1582              		.loc 1 516 0
 1583 09b4 0020     		movs	r0, #0
 1584 09b6 C8F80000 		str	r0, [r8]
 1585              	.L115:
 1586              		.loc 1 517 0 discriminator 3
 1587 09ba FFF7FEFF 		bl	e_get_calibrated_prox
 1588              	.LVL109:
 1589              		.loc 1 518 0 discriminator 3
 1590 09be DBF80020 		ldr	r2, [fp]
 1591              		.loc 1 516 0 discriminator 3
 1592 09c2 D8F80030 		ldr	r3, [r8]
 1593              		.loc 1 518 0 discriminator 3
 1594 09c6 0AF80200 		strb	r0, [r10, r2]
 1595              		.loc 1 519 0 discriminator 3
 1596 09ca 0AEB0204 		add	r4, r10, r2
ARM GAS  C:\Users\mathi\AppData\Local\Temp\ccXNOisu.s 			page 29


 1597 09ce 0112     		asrs	r1, r0, #8
 1598              		.loc 1 516 0 discriminator 3
 1599 09d0 581C     		adds	r0, r3, #1
 1600              		.loc 1 519 0 discriminator 3
 1601 09d2 0232     		adds	r2, r2, #2
 1602              		.loc 1 516 0 discriminator 3
 1603 09d4 0728     		cmp	r0, #7
 1604              		.loc 1 519 0 discriminator 3
 1605 09d6 6170     		strb	r1, [r4, #1]
 1606 09d8 CBF80020 		str	r2, [fp]
 1607              		.loc 1 516 0 discriminator 3
 1608 09dc C8F80000 		str	r0, [r8]
 1609 09e0 EBDD     		ble	.L115
 1610 09e2 BEE5     		b	.L47
 1611              	.L55:
 1612              		.loc 1 408 0
 1613 09e4 002F     		cmp	r7, #0
 1614 09e6 41F05280 		bne	.L85
 1615              		.loc 1 410 0
 1616 09ea 079B     		ldr	r3, [sp, #28]
 1617              		.loc 1 411 0
 1618 09ec 5A4C     		ldr	r4, .L716+16
 1619              		.loc 1 410 0
 1620 09ee 002B     		cmp	r3, #0
 1621 09f0 2FD0     		beq	.L86
 1622              	.L87:
 1623              		.loc 1 411 0 discriminator 1
 1624 09f2 2046     		mov	r0, r4
 1625 09f4 FFF7FEFF 		bl	e_getchar_uart1
 1626              	.LVL110:
 1627 09f8 0028     		cmp	r0, #0
 1628 09fa FAD0     		beq	.L87
 1629              		.loc 1 412 0
 1630 09fc 574C     		ldr	r4, .L716+20
 1631              	.L88:
 1632              		.loc 1 412 0 is_stmt 0 discriminator 1
 1633 09fe 2046     		mov	r0, r4
 1634 0a00 FFF7FEFF 		bl	e_getchar_uart1
 1635              	.LVL111:
 1636 0a04 0028     		cmp	r0, #0
 1637 0a06 FAD0     		beq	.L88
 1638              		.loc 1 417 0 is_stmt 1
 1639 0a08 544B     		ldr	r3, .L716+20
 1640              		.loc 1 421 0
 1641 0a0a 534C     		ldr	r4, .L716+16
 1642              		.loc 1 417 0
 1643 0a0c 1A78     		ldrb	r2, [r3]	@ zero_extendqisi2
 1644 0a0e 524B     		ldr	r3, .L716+16
 1645 0a10 1B78     		ldrb	r3, [r3]	@ zero_extendqisi2
 1646 0a12 03EB0223 		add	r3, r3, r2, lsl #8
 1647 0a16 524A     		ldr	r2, .L716+24
 1648 0a18 1360     		str	r3, [r2]
 1649              	.L92:
 1650              		.loc 1 421 0 discriminator 1
 1651 0a1a 2046     		mov	r0, r4
 1652 0a1c FFF7FEFF 		bl	e_getchar_uart1
 1653              	.LVL112:
ARM GAS  C:\Users\mathi\AppData\Local\Temp\ccXNOisu.s 			page 30


 1654 0a20 0028     		cmp	r0, #0
 1655 0a22 FAD0     		beq	.L92
 1656              		.loc 1 422 0
 1657 0a24 4D4C     		ldr	r4, .L716+20
 1658              	.L93:
 1659              		.loc 1 422 0 is_stmt 0 discriminator 1
 1660 0a26 2046     		mov	r0, r4
 1661 0a28 FFF7FEFF 		bl	e_getchar_uart1
 1662              	.LVL113:
 1663 0a2c 0028     		cmp	r0, #0
 1664 0a2e FAD0     		beq	.L93
 1665              	.L644:
 1666 0a30 4A4B     		ldr	r3, .L716+20
 1667 0a32 4B49     		ldr	r1, .L716+24
 1668 0a34 1A78     		ldrb	r2, [r3]	@ zero_extendqisi2
 1669 0a36 484B     		ldr	r3, .L716+16
 1670 0a38 0868     		ldr	r0, [r1]
 1671 0a3a 1B78     		ldrb	r3, [r3]	@ zero_extendqisi2
 1672 0a3c 03EB0223 		add	r3, r3, r2, lsl #8
 1673              	.L97:
 1674              		.loc 1 427 0 is_stmt 1
 1675 0a40 484A     		ldr	r2, .L716+28
 1676 0a42 1446     		mov	r4, r2
 1677 0a44 1360     		str	r3, [r2]
 1678              		.loc 1 428 0
 1679 0a46 FFF7FEFF 		bl	e_set_speed_left
 1680              	.LVL114:
 1681              		.loc 1 429 0
 1682 0a4a 2068     		ldr	r0, [r4]
 1683 0a4c FFF7FEFF 		bl	e_set_speed_right
 1684              	.LVL115:
 1685              		.loc 1 430 0
 1686 0a50 87E5     		b	.L47
 1687              	.L86:
 1688              		.loc 1 414 0 discriminator 1
 1689 0a52 2046     		mov	r0, r4
 1690 0a54 FFF7FEFF 		bl	e_getchar_uart2
 1691              	.LVL116:
 1692 0a58 0028     		cmp	r0, #0
 1693 0a5a FAD0     		beq	.L86
 1694              		.loc 1 415 0
 1695 0a5c 3F4C     		ldr	r4, .L716+20
 1696              	.L90:
 1697              		.loc 1 415 0 is_stmt 0 discriminator 1
 1698 0a5e 2046     		mov	r0, r4
 1699 0a60 FFF7FEFF 		bl	e_getchar_uart2
 1700              	.LVL117:
 1701 0a64 0028     		cmp	r0, #0
 1702 0a66 FAD0     		beq	.L90
 1703              		.loc 1 417 0 is_stmt 1
 1704 0a68 3C4B     		ldr	r3, .L716+20
 1705              		.loc 1 424 0
 1706 0a6a 3B4C     		ldr	r4, .L716+16
 1707              		.loc 1 417 0
 1708 0a6c 1A78     		ldrb	r2, [r3]	@ zero_extendqisi2
 1709 0a6e 3A4B     		ldr	r3, .L716+16
 1710 0a70 1B78     		ldrb	r3, [r3]	@ zero_extendqisi2
ARM GAS  C:\Users\mathi\AppData\Local\Temp\ccXNOisu.s 			page 31


 1711 0a72 03EB0223 		add	r3, r3, r2, lsl #8
 1712 0a76 3A4A     		ldr	r2, .L716+24
 1713 0a78 1360     		str	r3, [r2]
 1714              	.L95:
 1715              		.loc 1 424 0 discriminator 1
 1716 0a7a 2046     		mov	r0, r4
 1717 0a7c FFF7FEFF 		bl	e_getchar_uart2
 1718              	.LVL118:
 1719 0a80 0028     		cmp	r0, #0
 1720 0a82 FAD0     		beq	.L95
 1721              		.loc 1 425 0
 1722 0a84 354C     		ldr	r4, .L716+20
 1723              	.L96:
 1724              		.loc 1 425 0 is_stmt 0 discriminator 1
 1725 0a86 2046     		mov	r0, r4
 1726 0a88 FFF7FEFF 		bl	e_getchar_uart2
 1727              	.LVL119:
 1728 0a8c 0028     		cmp	r0, #0
 1729 0a8e FAD0     		beq	.L96
 1730 0a90 CEE7     		b	.L644
 1731              	.L54:
 1732              		.loc 1 365 0 is_stmt 1
 1733 0a92 002F     		cmp	r7, #0
 1734 0a94 01F08880 		beq	.L700
 1735              		.loc 1 370 0
 1736 0a98 0023     		movs	r3, #0
 1737              		.loc 1 368 0
 1738 0a9a 334A     		ldr	r2, .L716+32
 1739              		.loc 1 370 0
 1740 0a9c CDE90C33 		strd	r3, r3, [sp, #48]
 1741 0aa0 CDE90A33 		strd	r3, r3, [sp, #40]
 1742 0aa4 CDE90833 		strd	r3, r3, [sp, #32]
 1743              		.loc 1 368 0
 1744 0aa8 82ED008A 		vstr.32	s16, [r2]
 1745              		.loc 1 369 0
 1746 0aac 82ED028A 		vstr.32	s16, [r2, #8]
 1747              		.loc 1 370 0
 1748 0ab0 82ED018A 		vstr.32	s16, [r2, #4]
 1749 0ab4 9C46     		mov	ip, r3
 1750 0ab6 1C46     		mov	r4, r3
 1751 0ab8 9E46     		mov	lr, r3
 1752 0aba 1D46     		mov	r5, r3
 1753 0abc 1A46     		mov	r2, r3
 1754              	.L84:
 1755              	.LVL120:
 1756              		.loc 1 373 0
 1757 0abe 0020     		movs	r0, #0
 1758              		.loc 1 382 0
 1759 0ac0 0146     		mov	r1, r0
 1760              		.loc 1 373 0
 1761 0ac2 62F30700 		bfi	r0, r2, #0, #8
 1762              		.loc 1 391 0
 1763 0ac6 0A46     		mov	r2, r1
 1764              		.loc 1 382 0
 1765 0ac8 6EF30701 		bfi	r1, lr, #0, #8
 1766 0acc 64F30F21 		bfi	r1, r4, #8, #8
 1767              		.loc 1 391 0
ARM GAS  C:\Users\mathi\AppData\Local\Temp\ccXNOisu.s 			page 32


 1768 0ad0 0C9C     		ldr	r4, [sp, #48]
 1769 0ad2 6CF30702 		bfi	r2, ip, #0, #8
 1770              		.loc 1 373 0
 1771 0ad6 65F30F20 		bfi	r0, r5, #8, #8
 1772              		.loc 1 391 0
 1773 0ada 0D9D     		ldr	r5, [sp, #52]
 1774              		.loc 1 373 0
 1775 0adc DBF800C0 		ldr	ip, [fp]
 1776              	.LVL121:
 1777              		.loc 1 391 0
 1778 0ae0 64F30F22 		bfi	r2, r4, #8, #8
 1779              		.loc 1 373 0
 1780 0ae4 089C     		ldr	r4, [sp, #32]
 1781              		.loc 1 391 0
 1782 0ae6 65F31742 		bfi	r2, r5, #16, #8
 1783              		.loc 1 373 0
 1784 0aea 099D     		ldr	r5, [sp, #36]
 1785 0aec 64F31740 		bfi	r0, r4, #16, #8
 1786              		.loc 1 382 0
 1787 0af0 0A9C     		ldr	r4, [sp, #40]
 1788              		.loc 1 373 0
 1789 0af2 65F31F60 		bfi	r0, r5, #24, #8
 1790              		.loc 1 382 0
 1791 0af6 0B9D     		ldr	r5, [sp, #44]
 1792              		.loc 1 373 0
 1793 0af8 4AF80C00 		str	r0, [r10, ip]	@ unaligned
 1794              		.loc 1 382 0
 1795 0afc 64F31741 		bfi	r1, r4, #16, #8
 1796 0b00 0AEB0C04 		add	r4, r10, ip
 1797 0b04 65F31F61 		bfi	r1, r5, #24, #8
 1798              		.loc 1 391 0
 1799 0b08 63F31F62 		bfi	r2, r3, #24, #8
 1800              		.loc 1 397 0
 1801 0b0c 0CF10C05 		add	r5, ip, #12
 1802 0b10 CBF80050 		str	r5, [fp]
 1803              		.loc 1 373 0
 1804 0b14 6160     		str	r1, [r4, #4]	@ unaligned
 1805 0b16 A260     		str	r2, [r4, #8]	@ unaligned
 1806              		.loc 1 398 0
 1807 0b18 23E5     		b	.L47
 1808              	.LVL122:
 1809              	.L56:
 1810              		.loc 1 432 0
 1811 0b1a 114B     		ldr	r3, .L716+24
 1812 0b1c 1968     		ldr	r1, [r3]
 1813              		.loc 1 434 0
 1814 0b1e 114B     		ldr	r3, .L716+28
 1815 0b20 1A68     		ldr	r2, [r3]
 1816              		.loc 1 432 0
 1817 0b22 0023     		movs	r3, #0
 1818 0b24 61F30703 		bfi	r3, r1, #0, #8
 1819              		.loc 1 433 0
 1820 0b28 0912     		asrs	r1, r1, #8
 1821              		.loc 1 432 0
 1822 0b2a 61F30F23 		bfi	r3, r1, #8, #8
 1823 0b2e DBF80010 		ldr	r1, [fp]
 1824 0b32 62F31743 		bfi	r3, r2, #16, #8
ARM GAS  C:\Users\mathi\AppData\Local\Temp\ccXNOisu.s 			page 33


 1825              		.loc 1 435 0
 1826 0b36 1212     		asrs	r2, r2, #8
 1827              		.loc 1 432 0
 1828 0b38 62F31F63 		bfi	r3, r2, #24, #8
 1829              		.loc 1 435 0
 1830 0b3c 0A1D     		adds	r2, r1, #4
 1831              		.loc 1 432 0
 1832 0b3e 4AF80130 		str	r3, [r10, r1]	@ unaligned
 1833              		.loc 1 435 0
 1834 0b42 CBF80020 		str	r2, [fp]
 1835              		.loc 1 436 0
 1836 0b46 0CE5     		b	.L47
 1837              	.L717:
 1838              		.align	2
 1839              	.L716:
 1840 0b48 00000000 		.word	.LANCHOR24
 1841 0b4c 00000000 		.word	.LANCHOR25
 1842 0b50 00000000 		.word	.LANCHOR26
 1843 0b54 00000000 		.word	.LANCHOR21
 1844 0b58 00000000 		.word	.LANCHOR16
 1845 0b5c 00000000 		.word	.LANCHOR17
 1846 0b60 00000000 		.word	.LANCHOR7
 1847 0b64 00000000 		.word	.LANCHOR6
 1848 0b68 00000000 		.word	.LANCHOR15
 1849              	.L58:
 1850              		.loc 1 469 0
 1851 0b6c 002F     		cmp	r7, #0
 1852 0b6e 7FF4ECAC 		bne	.L99
 1853              		.loc 1 471 0
 1854 0b72 079B     		ldr	r3, [sp, #28]
 1855              		.loc 1 472 0
 1856 0b74 CE4C     		ldr	r4, .L718
 1857              		.loc 1 471 0
 1858 0b76 002B     		cmp	r3, #0
 1859 0b78 3FF4DCAC 		beq	.L100
 1860              	.L101:
 1861              		.loc 1 472 0 discriminator 1
 1862 0b7c 2046     		mov	r0, r4
 1863 0b7e FFF7FEFF 		bl	e_getchar_uart1
 1864              	.LVL123:
 1865 0b82 0028     		cmp	r0, #0
 1866 0b84 FAD0     		beq	.L101
 1867              		.loc 1 473 0
 1868 0b86 CB4C     		ldr	r4, .L718+4
 1869              	.L102:
 1870              		.loc 1 473 0 is_stmt 0 discriminator 1
 1871 0b88 2046     		mov	r0, r4
 1872 0b8a FFF7FEFF 		bl	e_getchar_uart1
 1873              	.LVL124:
 1874 0b8e 0028     		cmp	r0, #0
 1875 0b90 FAD0     		beq	.L102
 1876 0b92 DAE4     		b	.L99
 1877              	.L51:
 1878              		.loc 1 307 0 is_stmt 1
 1879 0b94 0020     		movs	r0, #0
 1880 0b96 FFF7FEFF 		bl	e_get_micro_volume
 1881              	.LVL125:
ARM GAS  C:\Users\mathi\AppData\Local\Temp\ccXNOisu.s 			page 34


 1882              		.loc 1 308 0
 1883 0b9a DBF80030 		ldr	r3, [fp]
 1884              		.loc 1 309 0
 1885 0b9e 0AEB0302 		add	r2, r10, r3
 1886              		.loc 1 308 0
 1887 0ba2 0AF80300 		strb	r0, [r10, r3]
 1888              		.loc 1 309 0
 1889 0ba6 0112     		asrs	r1, r0, #8
 1890 0ba8 0233     		adds	r3, r3, #2
 1891              		.loc 1 311 0
 1892 0baa 0120     		movs	r0, #1
 1893              		.loc 1 309 0
 1894 0bac 5170     		strb	r1, [r2, #1]
 1895 0bae CBF80030 		str	r3, [fp]
 1896              		.loc 1 311 0
 1897 0bb2 FFF7FEFF 		bl	e_get_micro_volume
 1898              	.LVL126:
 1899              		.loc 1 312 0
 1900 0bb6 DBF80030 		ldr	r3, [fp]
 1901              		.loc 1 313 0
 1902 0bba 0AEB0302 		add	r2, r10, r3
 1903              		.loc 1 312 0
 1904 0bbe 0AF80300 		strb	r0, [r10, r3]
 1905              		.loc 1 313 0
 1906 0bc2 0112     		asrs	r1, r0, #8
 1907 0bc4 0233     		adds	r3, r3, #2
 1908              		.loc 1 315 0
 1909 0bc6 0220     		movs	r0, #2
 1910              		.loc 1 313 0
 1911 0bc8 5170     		strb	r1, [r2, #1]
 1912 0bca CBF80030 		str	r3, [fp]
 1913              		.loc 1 315 0
 1914 0bce FFF7FEFF 		bl	e_get_micro_volume
 1915              	.LVL127:
 1916              		.loc 1 316 0
 1917 0bd2 DBF80030 		ldr	r3, [fp]
 1918              		.loc 1 317 0
 1919 0bd6 0AEB0302 		add	r2, r10, r3
 1920              		.loc 1 316 0
 1921 0bda 0AF80300 		strb	r0, [r10, r3]
 1922              		.loc 1 317 0
 1923 0bde 0112     		asrs	r1, r0, #8
 1924 0be0 0233     		adds	r3, r3, #2
 1925              		.loc 1 319 0
 1926 0be2 0320     		movs	r0, #3
 1927              		.loc 1 317 0
 1928 0be4 5170     		strb	r1, [r2, #1]
 1929 0be6 CBF80030 		str	r3, [fp]
 1930              		.loc 1 319 0
 1931 0bea FFF7FEFF 		bl	e_get_micro_volume
 1932              	.LVL128:
 1933 0bee F8E4     		b	.L677
 1934              	.L52:
 1935              		.loc 1 325 0
 1936 0bf0 002F     		cmp	r7, #0
 1937 0bf2 00F0AC87 		beq	.L701
 1938              		.loc 1 330 0
ARM GAS  C:\Users\mathi\AppData\Local\Temp\ccXNOisu.s 			page 35


 1939 0bf6 DBF80020 		ldr	r2, [fp]
 1940              		.loc 1 331 0
 1941 0bfa 0AEB0200 		add	r0, r10, r2
 1942              		.loc 1 330 0
 1943 0bfe 0021     		movs	r1, #0
 1944              		.loc 1 331 0
 1945 0c00 941C     		adds	r4, r2, #2
 1946              		.loc 1 330 0
 1947 0c02 0AF80210 		strb	r1, [r10, r2]
 1948              		.loc 1 331 0
 1949 0c06 CBF80040 		str	r4, [fp]
 1950 0c0a 4170     		strb	r1, [r0, #1]
 1951 0c0c 0EE4     		b	.L46
 1952              	.L50:
 1953              		.loc 1 303 0
 1954 0c0e DBF80040 		ldr	r4, [fp]
 1955 0c12 631C     		adds	r3, r4, #1
 1956 0c14 CBF80030 		str	r3, [fp]
 1957 0c18 FFF7FEFF 		bl	button_get_state
 1958              	.LVL129:
 1959 0c1c 0AF80400 		strb	r0, [r10, r4]
 1960              		.loc 1 304 0
 1961 0c20 9FE4     		b	.L47
 1962              	.L70:
 1963              		.loc 1 613 0
 1964 0c22 002F     		cmp	r7, #0
 1965 0c24 7FF402AC 		bne	.L46
 1966              		.loc 1 614 0
 1967 0c28 FFF7FEFF 		bl	e_i2cp_enable
 1968              	.LVL130:
 1969              		.loc 1 615 0
 1970 0c2c C8F80070 		str	r7, [r8]
 1971 0c30 3846     		mov	r0, r7
 1972 0c32 01E0     		b	.L141
 1973              	.L702:
 1974 0c34 D8F80000 		ldr	r0, [r8]
 1975              	.L141:
 1976              		.loc 1 616 0 discriminator 1
 1977 0c38 5044     		add	r0, r0, r10
 1978 0c3a FFF7FEFF 		bl	e_getchar_uart1
 1979              	.LVL131:
 1980 0c3e 0028     		cmp	r0, #0
 1981 0c40 F8D0     		beq	.L702
 1982              		.loc 1 615 0 discriminator 2
 1983 0c42 D8F80000 		ldr	r0, [r8]
 1984 0c46 0130     		adds	r0, r0, #1
 1985 0c48 1728     		cmp	r0, #23
 1986 0c4a C8F80000 		str	r0, [r8]
 1987 0c4e F3DD     		ble	.L141
 1988              		.loc 1 618 0
 1989 0c50 9220     		movs	r0, #146
 1990 0c52 C8F80000 		str	r0, [r8]
 1991 0c56 01E0     		b	.L144
 1992              	.L703:
 1993 0c58 D8F80000 		ldr	r0, [r8]
 1994              	.L144:
 1995              		.loc 1 619 0 discriminator 1
ARM GAS  C:\Users\mathi\AppData\Local\Temp\ccXNOisu.s 			page 36


 1996 0c5c 7A38     		subs	r0, r0, #122
 1997 0c5e 5044     		add	r0, r0, r10
 1998 0c60 FFF7FEFF 		bl	e_getchar_uart1
 1999              	.LVL132:
 2000 0c64 0028     		cmp	r0, #0
 2001 0c66 F7D0     		beq	.L703
 2002              		.loc 1 618 0 discriminator 2
 2003 0c68 D8F80000 		ldr	r0, [r8]
 2004 0c6c 0130     		adds	r0, r0, #1
 2005 0c6e 9428     		cmp	r0, #148
 2006 0c70 C8F80000 		str	r0, [r8]
 2007 0c74 F2DD     		ble	.L144
 2008              		.loc 1 621 0
 2009 0c76 A420     		movs	r0, #164
 2010 0c78 C8F80000 		str	r0, [r8]
 2011 0c7c 01E0     		b	.L147
 2012              	.L704:
 2013 0c7e D8F80000 		ldr	r0, [r8]
 2014              	.L147:
 2015              		.loc 1 622 0 discriminator 1
 2016 0c82 8938     		subs	r0, r0, #137
 2017 0c84 5044     		add	r0, r0, r10
 2018 0c86 FFF7FEFF 		bl	e_getchar_uart1
 2019              	.LVL133:
 2020 0c8a 0028     		cmp	r0, #0
 2021 0c8c F7D0     		beq	.L704
 2022              		.loc 1 621 0 discriminator 2
 2023 0c8e D8F80000 		ldr	r0, [r8]
 2024 0c92 0130     		adds	r0, r0, #1
 2025 0c94 AB28     		cmp	r0, #171
 2026 0c96 C8F80000 		str	r0, [r8]
 2027 0c9a F2DD     		ble	.L147
 2028              		.loc 1 624 0
 2029 0c9c 0021     		movs	r1, #0
 2030 0c9e C8F80010 		str	r1, [r8]
 2031              	.L149:
 2032              		.loc 1 625 0 discriminator 3
 2033 0ca2 1AF80120 		ldrb	r2, [r10, r1]	@ zero_extendqisi2
 2034 0ca6 B020     		movs	r0, #176
 2035 0ca8 C9B2     		uxtb	r1, r1
 2036 0caa FFF7FEFF 		bl	e_i2cp_write
 2037              	.LVL134:
 2038              		.loc 1 624 0 discriminator 3
 2039 0cae D8F80010 		ldr	r1, [r8]
 2040 0cb2 0131     		adds	r1, r1, #1
 2041 0cb4 1729     		cmp	r1, #23
 2042 0cb6 C8F80010 		str	r1, [r8]
 2043 0cba F2DD     		ble	.L149
 2044              		.loc 1 627 0
 2045 0cbc 9221     		movs	r1, #146
 2046 0cbe C8F80010 		str	r1, [r8]
 2047              	.L150:
 2048              		.loc 1 628 0 discriminator 3
 2049 0cc2 0AEB0103 		add	r3, r10, r1
 2050 0cc6 B020     		movs	r0, #176
 2051 0cc8 C9B2     		uxtb	r1, r1
 2052 0cca 13F87A2C 		ldrb	r2, [r3, #-122]	@ zero_extendqisi2
ARM GAS  C:\Users\mathi\AppData\Local\Temp\ccXNOisu.s 			page 37


 2053 0cce FFF7FEFF 		bl	e_i2cp_write
 2054              	.LVL135:
 2055              		.loc 1 627 0 discriminator 3
 2056 0cd2 D8F80010 		ldr	r1, [r8]
 2057 0cd6 0131     		adds	r1, r1, #1
 2058 0cd8 9429     		cmp	r1, #148
 2059 0cda C8F80010 		str	r1, [r8]
 2060 0cde F0DD     		ble	.L150
 2061              		.loc 1 630 0
 2062 0ce0 A421     		movs	r1, #164
 2063 0ce2 C8F80010 		str	r1, [r8]
 2064              	.L151:
 2065              		.loc 1 631 0 discriminator 3
 2066 0ce6 0AEB0103 		add	r3, r10, r1
 2067 0cea B020     		movs	r0, #176
 2068 0cec C9B2     		uxtb	r1, r1
 2069 0cee 13F8892C 		ldrb	r2, [r3, #-137]	@ zero_extendqisi2
 2070 0cf2 FFF7FEFF 		bl	e_i2cp_write
 2071              	.LVL136:
 2072              		.loc 1 630 0 discriminator 3
 2073 0cf6 D8F80010 		ldr	r1, [r8]
 2074 0cfa 0131     		adds	r1, r1, #1
 2075 0cfc AB29     		cmp	r1, #171
 2076 0cfe C8F80010 		str	r1, [r8]
 2077 0d02 F0DD     		ble	.L151
 2078              		.loc 1 633 0
 2079 0d04 0122     		movs	r2, #1
 2080 0d06 9121     		movs	r1, #145
 2081 0d08 B020     		movs	r0, #176
 2082 0d0a FFF7FEFF 		bl	e_i2cp_write
 2083              	.LVL137:
 2084              		.loc 1 634 0
 2085 0d0e FFF7FEFF 		bl	e_i2cp_disable
 2086              	.LVL138:
 2087 0d12 27E4     		b	.L78
 2088              	.L689:
 2089              	.LVL139:
 2090              	.LBB3:
 2091              		.loc 1 690 0
 2092 0d14 FFF7FEFF 		bl	__locale_ctype_ptr
 2093              	.LVL140:
 2094 0d18 2044     		add	r0, r0, r4
 2095 0d1a 4378     		ldrb	r3, [r0, #1]	@ zero_extendqisi2
 2096 0d1c 03F00303 		and	r3, r3, #3
 2097 0d20 022B     		cmp	r3, #2
 2098 0d22 08BF     		it	eq
 2099 0d24 203C     		subeq	r4, r4, #32
 2100              	.LVL141:
 2101              	.LBE3:
 2102 0d26 E4B2     		uxtb	r4, r4
 2103              		.loc 1 692 0
 2104 0d28 A4F14103 		sub	r3, r4, #65
 2105              		.loc 1 690 0
 2106 0d2c 8AF80040 		strb	r4, [r10]
 2107              		.loc 1 692 0
 2108 0d30 332B     		cmp	r3, #51
 2109 0d32 00F22986 		bhi	.L178
ARM GAS  C:\Users\mathi\AppData\Local\Temp\ccXNOisu.s 			page 38


 2110 0d36 01A2     		adr	r2, .L180
 2111 0d38 52F823F0 		ldr	pc, [r2, r3, lsl #2]
 2112              		.p2align 2
 2113              	.L180:
 2114 0d3c 49150000 		.word	.L179+1
 2115 0d40 C1180000 		.word	.L181+1
 2116 0d44 57160000 		.word	.L182+1
 2117 0d48 D3150000 		.word	.L183+1
 2118 0d4c 9B150000 		.word	.L184+1
 2119 0d50 F5180000 		.word	.L185+1
 2120 0d54 11160000 		.word	.L186+1
 2121 0d58 F1160000 		.word	.L187+1
 2122 0d5c FF140000 		.word	.L188+1
 2123 0d60 7D100000 		.word	.L189+1
 2124 0d64 2D100000 		.word	.L190+1
 2125 0d68 DD120000 		.word	.L191+1
 2126 0d6c 4B0F0000 		.word	.L192+1
 2127 0d70 55130000 		.word	.L193+1
 2128 0d74 25120000 		.word	.L194+1
 2129 0d78 17130000 		.word	.L195+1
 2130 0d7c C90E0000 		.word	.L196+1
 2131 0d80 DD000000 		.word	.L6+1
 2132 0d84 C9140000 		.word	.L197+1
 2133 0d88 A9120000 		.word	.L198+1
 2134 0d8c 7D140000 		.word	.L199+1
 2135 0d90 070F0000 		.word	.L200+1
 2136 0d94 D9130000 		.word	.L201+1
 2137 0d98 89190000 		.word	.L178+1
 2138 0d9c 89110000 		.word	.L202+1
 2139 0da0 430E0000 		.word	.L203+1
 2140 0da4 89190000 		.word	.L178+1
 2141 0da8 89190000 		.word	.L178+1
 2142 0dac 89190000 		.word	.L178+1
 2143 0db0 89190000 		.word	.L178+1
 2144 0db4 89190000 		.word	.L178+1
 2145 0db8 89190000 		.word	.L178+1
 2146 0dbc 89190000 		.word	.L178+1
 2147 0dc0 F3210000 		.word	.L204+1
 2148 0dc4 89190000 		.word	.L178+1
 2149 0dc8 89190000 		.word	.L178+1
 2150 0dcc 89190000 		.word	.L178+1
 2151 0dd0 89190000 		.word	.L178+1
 2152 0dd4 BB010000 		.word	.L176+1
 2153 0dd8 89190000 		.word	.L178+1
 2154 0ddc 89190000 		.word	.L178+1
 2155 0de0 89190000 		.word	.L178+1
 2156 0de4 89190000 		.word	.L178+1
 2157 0de8 89190000 		.word	.L178+1
 2158 0dec 89190000 		.word	.L178+1
 2159 0df0 89190000 		.word	.L178+1
 2160 0df4 89190000 		.word	.L178+1
 2161 0df8 89190000 		.word	.L178+1
 2162 0dfc 89190000 		.word	.L178+1
 2163 0e00 89190000 		.word	.L178+1
 2164 0e04 89190000 		.word	.L178+1
 2165 0e08 0D0E0000 		.word	.L205+1
 2166              		.p2align 1
ARM GAS  C:\Users\mathi\AppData\Local\Temp\ccXNOisu.s 			page 39


 2167              	.L205:
 2168              	.LBB4:
 2169              		.loc 1 1146 0
 2170 0e0c 002F     		cmp	r7, #0
 2171 0e0e 40F02E87 		bne	.L362
 2172              		.loc 1 1147 0
 2173 0e12 FFF7FEFF 		bl	getTemperature
 2174              	.LVL142:
 2175 0e16 2849     		ldr	r1, .L718+8
 2176 0e18 0246     		mov	r2, r0
 2177 0e1a 2848     		ldr	r0, .L718+12
 2178 0e1c FFF7FEFF 		bl	sprintf
 2179              	.LVL143:
 2180              		.loc 1 1153 0
 2181 0e20 079B     		ldr	r3, [sp, #28]
 2182 0e22 002B     		cmp	r3, #0
 2183 0e24 01F01781 		beq	.L705
 2184              		.loc 1 1154 0
 2185 0e28 2448     		ldr	r0, .L718+12
 2186 0e2a FFF7FEFF 		bl	strlen
 2187              	.LVL144:
 2188 0e2e 0146     		mov	r1, r0
 2189 0e30 2248     		ldr	r0, .L718+12
 2190 0e32 FFF7FEFF 		bl	e_send_uart1_char
 2191              	.LVL145:
 2192              	.L365:
 2193              		.loc 1 1154 0 is_stmt 0 discriminator 2
 2194 0e36 FFF7FEFF 		bl	e_uart1_sending
 2195              	.LVL146:
 2196 0e3a 0028     		cmp	r0, #0
 2197 0e3c FBD1     		bne	.L365
 2198 0e3e FFF74EB9 		b	.L650
 2199              	.L203:
 2200              		.loc 1 1222 0 is_stmt 1
 2201 0e42 002F     		cmp	r7, #0
 2202 0e44 7FF44AA9 		bne	.L6
 2203              		.loc 1 1223 0
 2204 0e48 0223     		movs	r3, #2
 2205              		.loc 1 1228 0
 2206 0e4a 1D4D     		ldr	r5, .L718+16
 2207 0e4c 1B4C     		ldr	r4, .L718+12
 2208              		.loc 1 1223 0
 2209 0e4e C8F80030 		str	r3, [r8]
 2210 0e52 079E     		ldr	r6, [sp, #28]
 2211 0e54 07E0     		b	.L393
 2212              	.L389:
 2213 0e56 D8F80030 		ldr	r3, [r8]
 2214 0e5a 0233     		adds	r3, r3, #2
 2215 0e5c FE2B     		cmp	r3, #254
 2216 0e5e C8F80030 		str	r3, [r8]
 2217 0e62 3FF73CA9 		bgt	.L650
 2218              	.L393:
 2219              		.loc 1 1224 0
 2220 0e66 FFF7FEFF 		bl	e_i2cp_enable
 2221              	.LVL147:
 2222              		.loc 1 1225 0
 2223 0e6a 0021     		movs	r1, #0
ARM GAS  C:\Users\mathi\AppData\Local\Temp\ccXNOisu.s 			page 40


 2224 0e6c 98F80000 		ldrb	r0, [r8]	@ zero_extendqisi2
 2225 0e70 FFF7FEFF 		bl	e_i2cp_read
 2226              	.LVL148:
 2227 0e74 134B     		ldr	r3, .L718+20
 2228 0e76 1860     		str	r0, [r3]
 2229              		.loc 1 1226 0
 2230 0e78 FFF7FEFF 		bl	e_i2cp_disable
 2231              	.LVL149:
 2232              		.loc 1 1227 0
 2233 0e7c 114B     		ldr	r3, .L718+20
 2234 0e7e 1B68     		ldr	r3, [r3]
 2235 0e80 002B     		cmp	r3, #0
 2236 0e82 E8DB     		blt	.L389
 2237              		.loc 1 1228 0
 2238 0e84 D8F80020 		ldr	r2, [r8]
 2239 0e88 2946     		mov	r1, r5
 2240 0e8a 2046     		mov	r0, r4
 2241 0e8c FFF7FEFF 		bl	sprintf
 2242              	.LVL150:
 2243              		.loc 1 1230 0
 2244 0e90 2046     		mov	r0, r4
 2245              		.loc 1 1229 0
 2246 0e92 002E     		cmp	r6, #0
 2247 0e94 00F01287 		beq	.L390
 2248              		.loc 1 1230 0
 2249 0e98 FFF7FEFF 		bl	strlen
 2250              	.LVL151:
 2251 0e9c 0146     		mov	r1, r0
 2252 0e9e 2046     		mov	r0, r4
 2253 0ea0 FFF7FEFF 		bl	e_send_uart1_char
 2254              	.LVL152:
 2255              	.L391:
 2256              		.loc 1 1230 0 is_stmt 0 discriminator 2
 2257 0ea4 FFF7FEFF 		bl	e_uart1_sending
 2258              	.LVL153:
 2259 0ea8 0028     		cmp	r0, #0
 2260 0eaa FBD1     		bne	.L391
 2261 0eac D3E7     		b	.L389
 2262              	.L719:
 2263 0eae 00BF     		.align	2
 2264              	.L718:
 2265 0eb0 00000000 		.word	.LANCHOR16
 2266 0eb4 00000000 		.word	.LANCHOR17
 2267 0eb8 B40A0000 		.word	.LC85
 2268 0ebc 00000000 		.word	buffer
 2269 0ec0 2C0B0000 		.word	.LC94
 2270 0ec4 00000000 		.word	.LANCHOR26
 2271              	.L196:
 2272              		.loc 1 1084 0 is_stmt 1
 2273 0ec8 FFF7FEFF 		bl	e_get_steps_left
 2274              	.LVL154:
 2275 0ecc 0446     		mov	r4, r0
 2276 0ece FFF7FEFF 		bl	e_get_steps_right
 2277              	.LVL155:
 2278 0ed2 2246     		mov	r2, r4
 2279 0ed4 0346     		mov	r3, r0
 2280 0ed6 9E49     		ldr	r1, .L720
ARM GAS  C:\Users\mathi\AppData\Local\Temp\ccXNOisu.s 			page 41


 2281 0ed8 9E48     		ldr	r0, .L720+4
 2282 0eda FFF7FEFF 		bl	sprintf
 2283              	.LVL156:
 2284              		.loc 1 1085 0
 2285 0ede 002F     		cmp	r7, #0
 2286 0ee0 7FF4FCA8 		bne	.L6
 2287 0ee4 9B48     		ldr	r0, .L720+4
 2288 0ee6 FFF7FEFF 		bl	strlen
 2289              	.LVL157:
 2290              		.loc 1 1087 0
 2291 0eea 079B     		ldr	r3, [sp, #28]
 2292 0eec 0146     		mov	r1, r0
 2293              		.loc 1 1088 0
 2294 0eee 9948     		ldr	r0, .L720+4
 2295              		.loc 1 1087 0
 2296 0ef0 002B     		cmp	r3, #0
 2297 0ef2 01F09B80 		beq	.L344
 2298              		.loc 1 1088 0
 2299 0ef6 FFF7FEFF 		bl	e_send_uart1_char
 2300              	.LVL158:
 2301              	.L345:
 2302              		.loc 1 1088 0 is_stmt 0 discriminator 2
 2303 0efa FFF7FEFF 		bl	e_uart1_sending
 2304              	.LVL159:
 2305 0efe 0028     		cmp	r0, #0
 2306 0f00 FBD1     		bne	.L345
 2307 0f02 FFF7ECB8 		b	.L650
 2308              	.L200:
 2309              		.loc 1 1171 0 is_stmt 1
 2310 0f06 002F     		cmp	r7, #0
 2311 0f08 40F09E86 		bne	.L370
 2312              		.loc 1 1173 0
 2313 0f0c 079B     		ldr	r3, [sp, #28]
 2314              		.loc 1 1174 0
 2315 0f0e 9248     		ldr	r0, .L720+8
 2316 0f10 2521     		movs	r1, #37
 2317              		.loc 1 1173 0
 2318 0f12 002B     		cmp	r3, #0
 2319 0f14 00F0FD86 		beq	.L371
 2320              		.loc 1 1174 0
 2321 0f18 FFF7FEFF 		bl	e_send_uart1_char
 2322              	.LVL160:
 2323              	.L372:
 2324              		.loc 1 1174 0 is_stmt 0 discriminator 2
 2325 0f1c FFF7FEFF 		bl	e_uart1_sending
 2326              	.LVL161:
 2327 0f20 0028     		cmp	r0, #0
 2328 0f22 FBD1     		bne	.L372
 2329              		.loc 1 1178 0 is_stmt 1
 2330 0f24 8D4B     		ldr	r3, .L720+12
 2331 0f26 8E49     		ldr	r1, .L720+16
 2332 0f28 1A68     		ldr	r2, [r3]
 2333 0f2a 8A48     		ldr	r0, .L720+4
 2334 0f2c FFF7FEFF 		bl	sprintf
 2335              	.LVL162:
 2336              		.loc 1 1182 0
 2337 0f30 8848     		ldr	r0, .L720+4
ARM GAS  C:\Users\mathi\AppData\Local\Temp\ccXNOisu.s 			page 42


 2338 0f32 FFF7FEFF 		bl	strlen
 2339              	.LVL163:
 2340 0f36 0146     		mov	r1, r0
 2341 0f38 8648     		ldr	r0, .L720+4
 2342 0f3a FFF7FEFF 		bl	e_send_uart1_char
 2343              	.LVL164:
 2344              	.L376:
 2345              		.loc 1 1182 0 is_stmt 0 discriminator 2
 2346 0f3e FFF7FEFF 		bl	e_uart1_sending
 2347              	.LVL165:
 2348 0f42 0028     		cmp	r0, #0
 2349 0f44 FBD1     		bne	.L376
 2350 0f46 FFF7CAB8 		b	.L650
 2351              	.L192:
 2352              		.loc 1 996 0 is_stmt 1
 2353 0f4a 002F     		cmp	r7, #0
 2354 0f4c 7FF4C6A8 		bne	.L6
 2355              		.loc 1 997 0
 2356 0f50 FFF7FEFF 		bl	e_i2cp_enable
 2357              	.LVL166:
 2358              		.loc 1 998 0
 2359 0f54 3C46     		mov	r4, r7
 2360 0f56 C8F80070 		str	r7, [r8]
 2361              	.L324:
 2362 0f5a E3B2     		uxtb	r3, r4
 2363              		.loc 1 999 0
 2364 0f5c E207     		lsls	r2, r4, #31
 2365 0f5e 03F10101 		add	r1, r3, #1
 2366              		.loc 1 1000 0
 2367 0f62 03F1FF33 		add	r3, r3, #-1
 2368              		.loc 1 999 0
 2369 0f66 4FF0C000 		mov	r0, #192
 2370 0f6a C9B2     		uxtb	r1, r1
 2371              		.loc 1 1000 0
 2372 0f6c 44BF     		itt	mi
 2373 0f6e C020     		movmi	r0, #192
 2374 0f70 D9B2     		uxtbmi	r1, r3
 2375 0f72 FFF7FEFF 		bl	e_i2cp_read
 2376              	.LVL167:
 2377              		.loc 1 998 0
 2378 0f76 D8F80030 		ldr	r3, [r8]
 2379              		.loc 1 1000 0
 2380 0f7a 0AF80400 		strb	r0, [r10, r4]
 2381              		.loc 1 998 0
 2382 0f7e 5C1C     		adds	r4, r3, #1
 2383 0f80 052C     		cmp	r4, #5
 2384 0f82 C8F80040 		str	r4, [r8]
 2385 0f86 E8DD     		ble	.L324
 2386              		.loc 1 1003 0
 2387 0f88 0D23     		movs	r3, #13
 2388 0f8a C8F80030 		str	r3, [r8]
 2389              	.L328:
 2390 0f8e DAB2     		uxtb	r2, r3
 2391 0f90 DC1F     		subs	r4, r3, #7
 2392              		.loc 1 1004 0
 2393 0f92 511E     		subs	r1, r2, #1
 2394 0f94 DB07     		lsls	r3, r3, #31
ARM GAS  C:\Users\mathi\AppData\Local\Temp\ccXNOisu.s 			page 43


 2395              		.loc 1 1005 0
 2396 0f96 02F10102 		add	r2, r2, #1
 2397              		.loc 1 1004 0
 2398 0f9a 4FF0C000 		mov	r0, #192
 2399 0f9e C9B2     		uxtb	r1, r1
 2400              		.loc 1 1005 0
 2401 0fa0 44BF     		itt	mi
 2402 0fa2 C020     		movmi	r0, #192
 2403 0fa4 D1B2     		uxtbmi	r1, r2
 2404 0fa6 FFF7FEFF 		bl	e_i2cp_read
 2405              	.LVL168:
 2406              		.loc 1 1003 0
 2407 0faa D8F80030 		ldr	r3, [r8]
 2408              		.loc 1 1005 0
 2409 0fae 0AF80400 		strb	r0, [r10, r4]
 2410              		.loc 1 1003 0
 2411 0fb2 0133     		adds	r3, r3, #1
 2412 0fb4 102B     		cmp	r3, #16
 2413 0fb6 C8F80030 		str	r3, [r8]
 2414 0fba E8DD     		ble	.L328
 2415              		.loc 1 1008 0
 2416 0fbc FFF7FEFF 		bl	e_i2cp_disable
 2417              	.LVL169:
 2418              		.loc 1 1021 0
 2419 0fc0 9AF80940 		ldrb	r4, [r10, #9]	@ zero_extendqisi2
 2420              		.loc 1 1019 0
 2421 0fc4 9AF80700 		ldrb	r0, [r10, #7]	@ zero_extendqisi2
 2422              		.loc 1 1020 0
 2423 0fc8 9AF80830 		ldrb	r3, [r10, #8]	@ zero_extendqisi2
 2424              		.loc 1 1018 0
 2425 0fcc 9AF80620 		ldrb	r2, [r10, #6]	@ zero_extendqisi2
 2426              		.loc 1 1017 0
 2427 0fd0 9AF80550 		ldrb	r5, [r10, #5]	@ zero_extendqisi2
 2428              		.loc 1 1016 0
 2429 0fd4 9AF80410 		ldrb	r1, [r10, #4]	@ zero_extendqisi2
 2430              		.loc 1 1011 0
 2431 0fd8 03EB0423 		add	r3, r3, r4, lsl #8
 2432 0fdc 02EB0022 		add	r2, r2, r0, lsl #8
 2433              		.loc 1 1015 0
 2434 0fe0 9AF80340 		ldrb	r4, [r10, #3]	@ zero_extendqisi2
 2435              		.loc 1 1013 0
 2436 0fe4 9AF80100 		ldrb	r0, [r10, #1]	@ zero_extendqisi2
 2437              		.loc 1 1011 0
 2438 0fe8 0293     		str	r3, [sp, #8]
 2439 0fea 0192     		str	r2, [sp, #4]
 2440              		.loc 1 1014 0
 2441 0fec 9AF80230 		ldrb	r3, [r10, #2]	@ zero_extendqisi2
 2442              		.loc 1 1012 0
 2443 0ff0 9AF80020 		ldrb	r2, [r10]	@ zero_extendqisi2
 2444              		.loc 1 1011 0
 2445 0ff4 01EB0521 		add	r1, r1, r5, lsl #8
 2446 0ff8 0091     		str	r1, [sp]
 2447 0ffa 03EB0423 		add	r3, r3, r4, lsl #8
 2448 0ffe 02EB0022 		add	r2, r2, r0, lsl #8
 2449 1002 5849     		ldr	r1, .L720+20
 2450 1004 5348     		ldr	r0, .L720+4
 2451 1006 FFF7FEFF 		bl	sprintf
ARM GAS  C:\Users\mathi\AppData\Local\Temp\ccXNOisu.s 			page 44


 2452              	.LVL170:
 2453              		.loc 1 1031 0
 2454 100a 079B     		ldr	r3, [sp, #28]
 2455              		.loc 1 1032 0
 2456 100c 5148     		ldr	r0, .L720+4
 2457              		.loc 1 1031 0
 2458 100e 002B     		cmp	r3, #0
 2459 1010 01F0B280 		beq	.L332
 2460              		.loc 1 1032 0
 2461 1014 FFF7FEFF 		bl	strlen
 2462              	.LVL171:
 2463 1018 0146     		mov	r1, r0
 2464 101a 4E48     		ldr	r0, .L720+4
 2465 101c FFF7FEFF 		bl	e_send_uart1_char
 2466              	.LVL172:
 2467              	.L333:
 2468              		.loc 1 1032 0 is_stmt 0 discriminator 2
 2469 1020 FFF7FEFF 		bl	e_uart1_sending
 2470              	.LVL173:
 2471 1024 0028     		cmp	r0, #0
 2472 1026 FBD1     		bne	.L333
 2473 1028 FFF759B8 		b	.L650
 2474              	.L190:
 2475              		.loc 1 960 0 is_stmt 1
 2476 102c 002F     		cmp	r7, #0
 2477 102e 40F0FA85 		bne	.L313
 2478              		.loc 1 962 0
 2479 1032 079B     		ldr	r3, [sp, #28]
 2480              		.loc 1 963 0
 2481 1034 4C48     		ldr	r0, .L720+24
 2482 1036 3E21     		movs	r1, #62
 2483              		.loc 1 962 0
 2484 1038 002B     		cmp	r3, #0
 2485 103a 00F04B86 		beq	.L314
 2486              		.loc 1 963 0
 2487 103e FFF7FEFF 		bl	e_send_uart1_char
 2488              	.LVL174:
 2489              	.L315:
 2490              		.loc 1 963 0 is_stmt 0 discriminator 2
 2491 1042 FFF7FEFF 		bl	e_uart1_sending
 2492              	.LVL175:
 2493 1046 0028     		cmp	r0, #0
 2494 1048 FBD1     		bne	.L315
 2495              		.loc 1 968 0 is_stmt 1
 2496 104a 0121     		movs	r1, #1
 2497 104c 0820     		movs	r0, #8
 2498 104e FFF7FEFF 		bl	e_set_led
 2499              	.LVL176:
 2500              		.loc 1 970 0
 2501 1052 4FF4C870 		mov	r0, #400
 2502 1056 FFF7FEFF 		bl	chThdSleep
 2503              	.LVL177:
 2504              		.loc 1 971 0
 2505 105a FFF7FEFF 		bl	e_led_clear
 2506              	.LVL178:
 2507              		.loc 1 973 0
 2508 105e 6420     		movs	r0, #100
ARM GAS  C:\Users\mathi\AppData\Local\Temp\ccXNOisu.s 			page 45


 2509 1060 FFF7FEFF 		bl	chThdSleep
 2510              	.LVL179:
 2511              		.loc 1 974 0
 2512 1064 FFF7FEFF 		bl	e_calibrate_ir
 2513              	.LVL180:
 2514              		.loc 1 978 0
 2515 1068 1921     		movs	r1, #25
 2516 106a 4048     		ldr	r0, .L720+28
 2517 106c FFF7FEFF 		bl	e_send_uart1_char
 2518              	.LVL181:
 2519              	.L319:
 2520              		.loc 1 978 0 is_stmt 0 discriminator 2
 2521 1070 FFF7FEFF 		bl	e_uart1_sending
 2522              	.LVL182:
 2523 1074 0028     		cmp	r0, #0
 2524 1076 FBD1     		bne	.L319
 2525 1078 FFF731B8 		b	.L650
 2526              	.LVL183:
 2527              	.L189:
 2528              		.loc 1 929 0 is_stmt 1
 2529 107c 002F     		cmp	r7, #0
 2530 107e 7FF42DA8 		bne	.L6
 2531              		.loc 1 932 0
 2532 1082 139B     		ldr	r3, [sp, #76]
 2533 1084 3A4D     		ldr	r5, .L720+32
 2534 1086 3B4E     		ldr	r6, .L720+36
 2535 1088 0193     		str	r3, [sp, #4]
 2536              		.loc 1 930 0
 2537 108a 4FF0FF34 		mov	r4, #-1
 2538              		.loc 1 932 0
 2539 108e 119B     		ldr	r3, [sp, #68]
 2540 1090 0093     		str	r3, [sp]
 2541 1092 0395     		str	r5, [sp, #12]
 2542 1094 0296     		str	r6, [sp, #8]
 2543 1096 384B     		ldr	r3, .L720+40
 2544 1098 384A     		ldr	r2, .L720+44
 2545 109a 3949     		ldr	r1, .L720+48
 2546 109c 2D48     		ldr	r0, .L720+4
 2547              		.loc 1 930 0
 2548 109e 3460     		str	r4, [r6]
 2549              		.loc 1 931 0
 2550 10a0 2C60     		str	r4, [r5]
 2551              		.loc 1 932 0
 2552 10a2 FFF7FEFF 		bl	sscanf
 2553              	.LVL184:
 2554              		.loc 1 933 0
 2555 10a6 129A     		ldr	r2, [sp, #72]
 2556 10a8 1368     		ldr	r3, [r2]
 2557 10aa 002B     		cmp	r3, #0
 2558 10ac 41F04880 		bne	.L304
 2559              		.loc 1 934 0
 2560 10b0 109A     		ldr	r2, [sp, #64]
 2561 10b2 119B     		ldr	r3, [sp, #68]
 2562 10b4 1268     		ldr	r2, [r2]
 2563 10b6 1B68     		ldr	r3, [r3]
 2564 10b8 03FB02F3 		mul	r3, r3, r2
 2565              	.L305:
ARM GAS  C:\Users\mathi\AppData\Local\Temp\ccXNOisu.s 			page 46


 2566              		.loc 1 937 0
 2567 10bc 41F22802 		movw	r2, #4136
 2568 10c0 0E99     		ldr	r1, [sp, #56]
 2569 10c2 9342     		cmp	r3, r2
 2570 10c4 0B60     		str	r3, [r1]
 2571 10c6 0ADD     		ble	.L306
 2572              		.loc 1 938 0
 2573 10c8 1298     		ldr	r0, [sp, #72]
 2574 10ca 0122     		movs	r2, #1
 2575 10cc 0260     		str	r2, [r0]
 2576              		.loc 1 939 0
 2577 10ce 1098     		ldr	r0, [sp, #64]
 2578 10d0 2823     		movs	r3, #40
 2579 10d2 0360     		str	r3, [r0]
 2580              		.loc 1 940 0
 2581 10d4 1198     		ldr	r0, [sp, #68]
 2582              		.loc 1 941 0
 2583 10d6 4FF44862 		mov	r2, #3200
 2584              		.loc 1 940 0
 2585 10da 0360     		str	r3, [r0]
 2586              		.loc 1 941 0
 2587 10dc 0A60     		str	r2, [r1]
 2588              	.L306:
 2589              		.loc 1 943 0
 2590 10de FFF7FEFF 		bl	e_poxxxx_init_cam
 2591              	.LVL185:
 2592              		.loc 1 944 0
 2593 10e2 244B     		ldr	r3, .L720+36
 2594 10e4 1868     		ldr	r0, [r3]
 2595              		.loc 1 945 0
 2596 10e6 139B     		ldr	r3, [sp, #76]
 2597 10e8 1D68     		ldr	r5, [r3]
 2598 10ea 109B     		ldr	r3, [sp, #64]
 2599 10ec 1A68     		ldr	r2, [r3]
 2600              		.loc 1 944 0
 2601 10ee 461C     		adds	r6, r0, #1
 2602              		.loc 1 945 0
 2603 10f0 02FB05F2 		mul	r2, r2, r5
 2604              		.loc 1 944 0
 2605 10f4 06D1     		bne	.L308
 2606              		.loc 1 945 0
 2607 10f6 C2F52070 		rsb	r0, r2, #640
 2608 10fa 00EBD070 		add	r0, r0, r0, lsr #31
 2609 10fe 1D4B     		ldr	r3, .L720+36
 2610 1100 4010     		asrs	r0, r0, #1
 2611 1102 1860     		str	r0, [r3]
 2612              	.L308:
 2613              		.loc 1 947 0
 2614 1104 1A49     		ldr	r1, .L720+32
 2615 1106 119B     		ldr	r3, [sp, #68]
 2616 1108 0968     		ldr	r1, [r1]
 2617 110a 1B68     		ldr	r3, [r3]
 2618 110c 4C1C     		adds	r4, r1, #1
 2619 110e 03FB05F3 		mul	r3, r3, r5
 2620 1112 06D1     		bne	.L309
 2621              		.loc 1 948 0
 2622 1114 C3F5F071 		rsb	r1, r3, #480
ARM GAS  C:\Users\mathi\AppData\Local\Temp\ccXNOisu.s 			page 47


 2623 1118 01EBD171 		add	r1, r1, r1, lsr #31
 2624 111c 144C     		ldr	r4, .L720+32
 2625 111e 4910     		asrs	r1, r1, #1
 2626 1120 2160     		str	r1, [r4]
 2627              	.L309:
 2628              		.loc 1 950 0
 2629 1122 129C     		ldr	r4, [sp, #72]
 2630 1124 2468     		ldr	r4, [r4]
 2631 1126 0294     		str	r4, [sp, #8]
 2632 1128 CDE90055 		strd	r5, r5, [sp]
 2633 112c FFF7FEFF 		bl	e_poxxxx_config_cam
 2634              	.LVL186:
 2635              		.loc 1 951 0
 2636 1130 FFF7FEFF 		bl	e_poxxxx_write_cam_registers
 2637              	.LVL187:
 2638              		.loc 1 952 0
 2639 1134 079B     		ldr	r3, [sp, #28]
 2640              		.loc 1 953 0
 2641 1136 1348     		ldr	r0, .L720+52
 2642 1138 0321     		movs	r1, #3
 2643              		.loc 1 952 0
 2644 113a 002B     		cmp	r3, #0
 2645 113c 00F0B887 		beq	.L310
 2646              		.loc 1 953 0
 2647 1140 FFF7FEFF 		bl	e_send_uart1_char
 2648              	.LVL188:
 2649              	.L311:
 2650              		.loc 1 953 0 is_stmt 0 discriminator 2
 2651 1144 FFF7FEFF 		bl	e_uart1_sending
 2652              	.LVL189:
 2653 1148 0028     		cmp	r0, #0
 2654 114a FBD1     		bne	.L311
 2655 114c FEF7C7BF 		b	.L650
 2656              	.L721:
 2657              		.align	2
 2658              	.L720:
 2659 1150 980A0000 		.word	.LC81
 2660 1154 00000000 		.word	buffer
 2661 1158 D40A0000 		.word	.LC88
 2662 115c 00000000 		.word	.LANCHOR0
 2663 1160 500B0000 		.word	.LC96
 2664 1164 3C0A0000 		.word	.LC76
 2665 1168 EC090000 		.word	.LC73
 2666 116c 640B0000 		.word	.LC97
 2667 1170 00000000 		.word	.LANCHOR29
 2668 1174 00000000 		.word	.LANCHOR28
 2669 1178 00000000 		.word	.LANCHOR2
 2670 117c 00000000 		.word	.LANCHOR1
 2671 1180 D0090000 		.word	.LC71
 2672 1184 E8090000 		.word	.LC72
 2673              	.L202:
 2674              		.loc 1 1201 0 is_stmt 1
 2675 1188 002F     		cmp	r7, #0
 2676 118a 7EF4A7AF 		bne	.L6
 2677              		.loc 1 1202 0
 2678 118e A54B     		ldr	r3, .L722
 2679 1190 A54A     		ldr	r2, .L722+4
ARM GAS  C:\Users\mathi\AppData\Local\Temp\ccXNOisu.s 			page 48


 2680 1192 A649     		ldr	r1, .L722+8
 2681 1194 A648     		ldr	r0, .L722+12
 2682 1196 FFF7FEFF 		bl	sscanf
 2683              	.LVL190:
 2684              		.loc 1 1203 0
 2685 119a A24B     		ldr	r3, .L722
 2686 119c A24A     		ldr	r2, .L722+4
 2687 119e 1B68     		ldr	r3, [r3]
 2688 11a0 1268     		ldr	r2, [r2]
 2689 11a2 A449     		ldr	r1, .L722+16
 2690 11a4 A248     		ldr	r0, .L722+12
 2691 11a6 FFF7FEFF 		bl	sprintf
 2692              	.LVL191:
 2693              		.loc 1 1204 0
 2694 11aa 079B     		ldr	r3, [sp, #28]
 2695              		.loc 1 1205 0
 2696 11ac A048     		ldr	r0, .L722+12
 2697              		.loc 1 1204 0
 2698 11ae 002B     		cmp	r3, #0
 2699 11b0 00F0F687 		beq	.L381
 2700              		.loc 1 1205 0
 2701 11b4 FFF7FEFF 		bl	strlen
 2702              	.LVL192:
 2703 11b8 0146     		mov	r1, r0
 2704 11ba 9D48     		ldr	r0, .L722+12
 2705 11bc FFF7FEFF 		bl	e_send_uart1_char
 2706              	.LVL193:
 2707              	.L382:
 2708              		.loc 1 1205 0 is_stmt 0 discriminator 2
 2709 11c0 FFF7FEFF 		bl	e_uart1_sending
 2710              	.LVL194:
 2711 11c4 0028     		cmp	r0, #0
 2712 11c6 FBD1     		bne	.L382
 2713              	.L383:
 2714              		.loc 1 1209 0 is_stmt 1
 2715 11c8 FFF7FEFF 		bl	e_i2cp_enable
 2716              	.LVL195:
 2717              		.loc 1 1210 0
 2718 11cc 954B     		ldr	r3, .L722
 2719 11ce 1978     		ldrb	r1, [r3]	@ zero_extendqisi2
 2720 11d0 954B     		ldr	r3, .L722+4
 2721 11d2 1878     		ldrb	r0, [r3]	@ zero_extendqisi2
 2722 11d4 FFF7FEFF 		bl	e_i2cp_read
 2723              	.LVL196:
 2724 11d8 974B     		ldr	r3, .L722+20
 2725 11da 1C46     		mov	r4, r3
 2726 11dc 1860     		str	r0, [r3]
 2727              		.loc 1 1211 0
 2728 11de FFF7FEFF 		bl	e_i2cp_disable
 2729              	.LVL197:
 2730              		.loc 1 1212 0
 2731 11e2 9649     		ldr	r1, .L722+24
 2732 11e4 2268     		ldr	r2, [r4]
 2733 11e6 9248     		ldr	r0, .L722+12
 2734 11e8 FFF7FEFF 		bl	sprintf
 2735              	.LVL198:
 2736              		.loc 1 1213 0
ARM GAS  C:\Users\mathi\AppData\Local\Temp\ccXNOisu.s 			page 49


 2737 11ec 9048     		ldr	r0, .L722+12
 2738 11ee FFF7FEFF 		bl	strlen
 2739              	.LVL199:
 2740 11f2 0146     		mov	r1, r0
 2741 11f4 8E48     		ldr	r0, .L722+12
 2742 11f6 FFF7FEFF 		bl	e_send_uart1_char
 2743              	.LVL200:
 2744              	.L385:
 2745              		.loc 1 1213 0 is_stmt 0 discriminator 2
 2746 11fa FFF7FEFF 		bl	e_uart1_sending
 2747              	.LVL201:
 2748 11fe 0028     		cmp	r0, #0
 2749 1200 FBD1     		bne	.L385
 2750 1202 8B48     		ldr	r0, .L722+12
 2751 1204 FFF7FEFF 		bl	strlen
 2752              	.LVL202:
 2753              		.loc 1 1214 0 is_stmt 1
 2754 1208 079B     		ldr	r3, [sp, #28]
 2755 120a 0146     		mov	r1, r0
 2756              		.loc 1 1215 0
 2757 120c 8848     		ldr	r0, .L722+12
 2758              		.loc 1 1214 0
 2759 120e 002B     		cmp	r3, #0
 2760 1210 00F0BE87 		beq	.L386
 2761              		.loc 1 1215 0
 2762 1214 FFF7FEFF 		bl	e_send_uart1_char
 2763              	.LVL203:
 2764              	.L387:
 2765              		.loc 1 1215 0 is_stmt 0 discriminator 2
 2766 1218 FFF7FEFF 		bl	e_uart1_sending
 2767              	.LVL204:
 2768 121c 0028     		cmp	r0, #0
 2769 121e FBD1     		bne	.L387
 2770 1220 FEF75DBF 		b	.L650
 2771              	.L194:
 2772              		.loc 1 1060 0 is_stmt 1
 2773 1224 0020     		movs	r0, #0
 2774 1226 FFF7FEFF 		bl	e_get_ambient_light
 2775              	.LVL205:
 2776 122a 0B90     		str	r0, [sp, #44]
 2777 122c 0120     		movs	r0, #1
 2778 122e FFF7FEFF 		bl	e_get_ambient_light
 2779              	.LVL206:
 2780 1232 0446     		mov	r4, r0
 2781 1234 0220     		movs	r0, #2
 2782 1236 FFF7FEFF 		bl	e_get_ambient_light
 2783              	.LVL207:
 2784 123a 0890     		str	r0, [sp, #32]
 2785 123c 0320     		movs	r0, #3
 2786 123e FFF7FEFF 		bl	e_get_ambient_light
 2787              	.LVL208:
 2788 1242 0546     		mov	r5, r0
 2789 1244 0420     		movs	r0, #4
 2790 1246 FFF7FEFF 		bl	e_get_ambient_light
 2791              	.LVL209:
 2792 124a 0646     		mov	r6, r0
 2793 124c 0520     		movs	r0, #5
ARM GAS  C:\Users\mathi\AppData\Local\Temp\ccXNOisu.s 			page 50


 2794 124e FFF7FEFF 		bl	e_get_ambient_light
 2795              	.LVL210:
 2796 1252 0A90     		str	r0, [sp, #40]
 2797 1254 0620     		movs	r0, #6
 2798 1256 FFF7FEFF 		bl	e_get_ambient_light
 2799              	.LVL211:
 2800 125a 0990     		str	r0, [sp, #36]
 2801 125c 0720     		movs	r0, #7
 2802 125e FFF7FEFF 		bl	e_get_ambient_light
 2803              	.LVL212:
 2804 1262 089B     		ldr	r3, [sp, #32]
 2805 1264 0A99     		ldr	r1, [sp, #40]
 2806 1266 0093     		str	r3, [sp]
 2807 1268 099B     		ldr	r3, [sp, #36]
 2808 126a 0590     		str	r0, [sp, #20]
 2809 126c 0493     		str	r3, [sp, #16]
 2810 126e CDE90261 		strd	r6, r1, [sp, #8]
 2811 1272 0195     		str	r5, [sp, #4]
 2812 1274 2346     		mov	r3, r4
 2813 1276 0B9A     		ldr	r2, [sp, #44]
 2814 1278 7149     		ldr	r1, .L722+28
 2815 127a 6D48     		ldr	r0, .L722+12
 2816 127c FFF7FEFF 		bl	sprintf
 2817              	.LVL213:
 2818              		.loc 1 1063 0
 2819 1280 002F     		cmp	r7, #0
 2820 1282 7EF42BAF 		bne	.L6
 2821 1286 6A48     		ldr	r0, .L722+12
 2822 1288 FFF7FEFF 		bl	strlen
 2823              	.LVL214:
 2824              		.loc 1 1065 0
 2825 128c 079B     		ldr	r3, [sp, #28]
 2826 128e 0146     		mov	r1, r0
 2827              		.loc 1 1066 0
 2828 1290 6748     		ldr	r0, .L722+12
 2829              		.loc 1 1065 0
 2830 1292 002B     		cmp	r3, #0
 2831 1294 00F0BA86 		beq	.L338
 2832              		.loc 1 1066 0
 2833 1298 FFF7FEFF 		bl	e_send_uart1_char
 2834              	.LVL215:
 2835              	.L339:
 2836              		.loc 1 1066 0 is_stmt 0 discriminator 2
 2837 129c FFF7FEFF 		bl	e_uart1_sending
 2838              	.LVL216:
 2839 12a0 0028     		cmp	r0, #0
 2840 12a2 FBD1     		bne	.L339
 2841 12a4 FEF71BBF 		b	.L650
 2842              	.L198:
 2843              		.loc 1 1114 0 is_stmt 1
 2844 12a8 664A     		ldr	r2, .L722+32
 2845 12aa 6749     		ldr	r1, .L722+36
 2846 12ac 6048     		ldr	r0, .L722+12
 2847 12ae FFF7FEFF 		bl	sscanf
 2848              	.LVL217:
 2849              		.loc 1 1115 0
 2850 12b2 664B     		ldr	r3, .L722+40
ARM GAS  C:\Users\mathi\AppData\Local\Temp\ccXNOisu.s 			page 51


 2851 12b4 1B78     		ldrb	r3, [r3]	@ zero_extendqisi2
 2852 12b6 23B9     		cbnz	r3, .L350
 2853              		.loc 1 1116 0
 2854 12b8 FFF7FEFF 		bl	e_init_sound
 2855              	.LVL218:
 2856              		.loc 1 1117 0
 2857 12bc 634A     		ldr	r2, .L722+40
 2858 12be 0123     		movs	r3, #1
 2859 12c0 1370     		strb	r3, [r2]
 2860              	.L350:
 2861              		.loc 1 1119 0
 2862 12c2 604B     		ldr	r3, .L722+32
 2863 12c4 1B68     		ldr	r3, [r3]
 2864 12c6 013B     		subs	r3, r3, #1
 2865 12c8 042B     		cmp	r3, #4
 2866 12ca 00F2E186 		bhi	.L351
 2867 12ce DFE813F0 		tbh	[pc, r3, lsl #1]
 2868              	.L353:
 2869 12d2 5503     		.2byte	(.L352-.L353)/2
 2870 12d4 4F03     		.2byte	(.L354-.L353)/2
 2871 12d6 4903     		.2byte	(.L355-.L353)/2
 2872 12d8 4203     		.2byte	(.L356-.L353)/2
 2873 12da 2B03     		.2byte	(.L357-.L353)/2
 2874              		.p2align 1
 2875              	.L191:
 2876              		.loc 1 984 0
 2877 12dc 5C4B     		ldr	r3, .L722+44
 2878 12de 5D49     		ldr	r1, .L722+48
 2879 12e0 5D4A     		ldr	r2, .L722+52
 2880 12e2 5348     		ldr	r0, .L722+12
 2881 12e4 FFF7FEFF 		bl	sscanf
 2882              	.LVL219:
 2883              		.loc 1 985 0
 2884 12e8 594B     		ldr	r3, .L722+44
 2885 12ea 1968     		ldr	r1, [r3]
 2886 12ec 5A4B     		ldr	r3, .L722+52
 2887 12ee 1868     		ldr	r0, [r3]
 2888 12f0 FFF7FEFF 		bl	e_set_led
 2889              	.LVL220:
 2890              		.loc 1 986 0
 2891 12f4 002F     		cmp	r7, #0
 2892 12f6 7EF4F1AE 		bne	.L6
 2893              		.loc 1 988 0
 2894 12fa 079B     		ldr	r3, [sp, #28]
 2895              		.loc 1 989 0
 2896 12fc 5748     		ldr	r0, .L722+56
 2897 12fe 0321     		movs	r1, #3
 2898              		.loc 1 988 0
 2899 1300 002B     		cmp	r3, #0
 2900 1302 00F06386 		beq	.L321
 2901              		.loc 1 989 0
 2902 1306 FFF7FEFF 		bl	e_send_uart1_char
 2903              	.LVL221:
 2904              	.L322:
 2905              		.loc 1 989 0 is_stmt 0 discriminator 2
 2906 130a FFF7FEFF 		bl	e_uart1_sending
 2907              	.LVL222:
ARM GAS  C:\Users\mathi\AppData\Local\Temp\ccXNOisu.s 			page 52


 2908 130e 0028     		cmp	r0, #0
 2909 1310 FBD1     		bne	.L322
 2910 1312 FEF7E4BE 		b	.L650
 2911              	.L195:
 2912              		.loc 1 1072 0 is_stmt 1
 2913 1316 524B     		ldr	r3, .L722+60
 2914 1318 524A     		ldr	r2, .L722+64
 2915 131a 5349     		ldr	r1, .L722+68
 2916 131c 4448     		ldr	r0, .L722+12
 2917 131e FFF7FEFF 		bl	sscanf
 2918              	.LVL223:
 2919              		.loc 1 1073 0
 2920 1322 504B     		ldr	r3, .L722+64
 2921 1324 1868     		ldr	r0, [r3]
 2922 1326 FFF7FEFF 		bl	e_set_steps_left
 2923              	.LVL224:
 2924              		.loc 1 1074 0
 2925 132a 4D4B     		ldr	r3, .L722+60
 2926 132c 1868     		ldr	r0, [r3]
 2927 132e FFF7FEFF 		bl	e_set_steps_right
 2928              	.LVL225:
 2929              		.loc 1 1075 0
 2930 1332 002F     		cmp	r7, #0
 2931 1334 7EF4D2AE 		bne	.L6
 2932              		.loc 1 1077 0
 2933 1338 079B     		ldr	r3, [sp, #28]
 2934              		.loc 1 1078 0
 2935 133a 4C48     		ldr	r0, .L722+72
 2936 133c 0321     		movs	r1, #3
 2937              		.loc 1 1077 0
 2938 133e 002B     		cmp	r3, #0
 2939 1340 00F05486 		beq	.L341
 2940              		.loc 1 1078 0
 2941 1344 FFF7FEFF 		bl	e_send_uart1_char
 2942              	.LVL226:
 2943              	.L342:
 2944              		.loc 1 1078 0 is_stmt 0 discriminator 2
 2945 1348 FFF7FEFF 		bl	e_uart1_sending
 2946              	.LVL227:
 2947 134c 0028     		cmp	r0, #0
 2948 134e FBD1     		bne	.L342
 2949 1350 FEF7C5BE 		b	.L650
 2950              	.L193:
 2951              		.loc 1 1048 0 is_stmt 1
 2952 1354 0020     		movs	r0, #0
 2953 1356 FFF7FEFF 		bl	e_get_calibrated_prox
 2954              	.LVL228:
 2955 135a 0B90     		str	r0, [sp, #44]
 2956 135c 0120     		movs	r0, #1
 2957 135e FFF7FEFF 		bl	e_get_calibrated_prox
 2958              	.LVL229:
 2959 1362 0446     		mov	r4, r0
 2960 1364 0220     		movs	r0, #2
 2961 1366 FFF7FEFF 		bl	e_get_calibrated_prox
 2962              	.LVL230:
 2963 136a 0890     		str	r0, [sp, #32]
 2964 136c 0320     		movs	r0, #3
ARM GAS  C:\Users\mathi\AppData\Local\Temp\ccXNOisu.s 			page 53


 2965 136e FFF7FEFF 		bl	e_get_calibrated_prox
 2966              	.LVL231:
 2967 1372 0546     		mov	r5, r0
 2968 1374 0420     		movs	r0, #4
 2969 1376 FFF7FEFF 		bl	e_get_calibrated_prox
 2970              	.LVL232:
 2971 137a 0646     		mov	r6, r0
 2972 137c 0520     		movs	r0, #5
 2973 137e FFF7FEFF 		bl	e_get_calibrated_prox
 2974              	.LVL233:
 2975 1382 0A90     		str	r0, [sp, #40]
 2976 1384 0620     		movs	r0, #6
 2977 1386 FFF7FEFF 		bl	e_get_calibrated_prox
 2978              	.LVL234:
 2979 138a 0990     		str	r0, [sp, #36]
 2980 138c 0720     		movs	r0, #7
 2981 138e FFF7FEFF 		bl	e_get_calibrated_prox
 2982              	.LVL235:
 2983 1392 089B     		ldr	r3, [sp, #32]
 2984 1394 0A99     		ldr	r1, [sp, #40]
 2985 1396 0093     		str	r3, [sp]
 2986 1398 099B     		ldr	r3, [sp, #36]
 2987 139a 0590     		str	r0, [sp, #20]
 2988 139c 0493     		str	r3, [sp, #16]
 2989 139e CDE90261 		strd	r6, r1, [sp, #8]
 2990 13a2 0195     		str	r5, [sp, #4]
 2991 13a4 2346     		mov	r3, r4
 2992 13a6 0B9A     		ldr	r2, [sp, #44]
 2993 13a8 3149     		ldr	r1, .L722+76
 2994 13aa 2148     		ldr	r0, .L722+12
 2995 13ac FFF7FEFF 		bl	sprintf
 2996              	.LVL236:
 2997              		.loc 1 1051 0
 2998 13b0 002F     		cmp	r7, #0
 2999 13b2 7EF493AE 		bne	.L6
 3000 13b6 1E48     		ldr	r0, .L722+12
 3001 13b8 FFF7FEFF 		bl	strlen
 3002              	.LVL237:
 3003              		.loc 1 1053 0
 3004 13bc 079B     		ldr	r3, [sp, #28]
 3005 13be 0146     		mov	r1, r0
 3006              		.loc 1 1054 0
 3007 13c0 1B48     		ldr	r0, .L722+12
 3008              		.loc 1 1053 0
 3009 13c2 002B     		cmp	r3, #0
 3010 13c4 00F05486 		beq	.L335
 3011              		.loc 1 1054 0
 3012 13c8 FFF7FEFF 		bl	e_send_uart1_char
 3013              	.LVL238:
 3014              	.L336:
 3015              		.loc 1 1054 0 is_stmt 0 discriminator 2
 3016 13cc FFF7FEFF 		bl	e_uart1_sending
 3017              	.LVL239:
 3018 13d0 0028     		cmp	r0, #0
 3019 13d2 FBD1     		bne	.L336
 3020 13d4 FEF783BE 		b	.L650
 3021              	.L201:
ARM GAS  C:\Users\mathi\AppData\Local\Temp\ccXNOisu.s 			page 54


 3022              		.loc 1 1188 0 is_stmt 1
 3023 13d8 002F     		cmp	r7, #0
 3024 13da 7EF47FAE 		bne	.L6
 3025              		.loc 1 1189 0
 3026 13de 164B     		ldr	r3, .L722+20
 3027 13e0 114A     		ldr	r2, .L722+4
 3028 13e2 2449     		ldr	r1, .L722+80
 3029 13e4 0093     		str	r3, [sp]
 3030 13e6 1C46     		mov	r4, r3
 3031 13e8 1148     		ldr	r0, .L722+12
 3032 13ea 0E4B     		ldr	r3, .L722
 3033 13ec FFF7FEFF 		bl	sscanf
 3034              	.LVL240:
 3035              		.loc 1 1190 0
 3036 13f0 FFF7FEFF 		bl	e_i2cp_enable
 3037              	.LVL241:
 3038              		.loc 1 1191 0
 3039 13f4 0B4B     		ldr	r3, .L722
 3040 13f6 2278     		ldrb	r2, [r4]	@ zero_extendqisi2
 3041 13f8 1978     		ldrb	r1, [r3]	@ zero_extendqisi2
 3042 13fa 0B4B     		ldr	r3, .L722+4
 3043 13fc 1878     		ldrb	r0, [r3]	@ zero_extendqisi2
 3044 13fe FFF7FEFF 		bl	e_i2cp_write
 3045              	.LVL242:
 3046              		.loc 1 1192 0
 3047 1402 FFF7FEFF 		bl	e_i2cp_disable
 3048              	.LVL243:
 3049              		.loc 1 1193 0
 3050 1406 079B     		ldr	r3, [sp, #28]
 3051              		.loc 1 1194 0
 3052 1408 1B48     		ldr	r0, .L722+84
 3053 140a 0321     		movs	r1, #3
 3054              		.loc 1 1193 0
 3055 140c 002B     		cmp	r3, #0
 3056 140e 00F04786 		beq	.L378
 3057              		.loc 1 1194 0
 3058 1412 FFF7FEFF 		bl	e_send_uart1_char
 3059              	.LVL244:
 3060              	.L379:
 3061              		.loc 1 1194 0 is_stmt 0 discriminator 2
 3062 1416 FFF7FEFF 		bl	e_uart1_sending
 3063              	.LVL245:
 3064 141a 0028     		cmp	r0, #0
 3065 141c FBD1     		bne	.L379
 3066 141e FEF75EBE 		b	.L650
 3067              	.L723:
 3068 1422 00BF     		.align	2
 3069              	.L722:
 3070 1424 00000000 		.word	.LANCHOR25
 3071 1428 00000000 		.word	.LANCHOR24
 3072 142c 0C0B0000 		.word	.LC91
 3073 1430 00000000 		.word	buffer
 3074 1434 180B0000 		.word	.LC92
 3075 1438 00000000 		.word	.LANCHOR26
 3076 143c 240B0000 		.word	.LC93
 3077 1440 6C0A0000 		.word	.LC78
 3078 1444 00000000 		.word	.LANCHOR31
ARM GAS  C:\Users\mathi\AppData\Local\Temp\ccXNOisu.s 			page 55


 3079 1448 A80A0000 		.word	.LC83
 3080 144c 00000000 		.word	.LANCHOR8
 3081 1450 00000000 		.word	.LANCHOR27
 3082 1454 2C0A0000 		.word	.LC74
 3083 1458 00000000 		.word	.LANCHOR30
 3084 145c 380A0000 		.word	.LC75
 3085 1460 00000000 		.word	.LANCHOR23
 3086 1464 00000000 		.word	.LANCHOR22
 3087 1468 880A0000 		.word	.LC79
 3088 146c 940A0000 		.word	.LC80
 3089 1470 500A0000 		.word	.LC77
 3090 1474 FC0A0000 		.word	.LC89
 3091 1478 080B0000 		.word	.LC90
 3092              	.L199:
 3093              		.loc 1 1161 0 is_stmt 1
 3094 147c 0020     		movs	r0, #0
 3095 147e FFF7FEFF 		bl	e_get_micro_volume
 3096              	.LVL246:
 3097 1482 0446     		mov	r4, r0
 3098 1484 0120     		movs	r0, #1
 3099 1486 FFF7FEFF 		bl	e_get_micro_volume
 3100              	.LVL247:
 3101 148a 0546     		mov	r5, r0
 3102 148c 0220     		movs	r0, #2
 3103 148e FFF7FEFF 		bl	e_get_micro_volume
 3104              	.LVL248:
 3105 1492 2B46     		mov	r3, r5
 3106 1494 0090     		str	r0, [sp]
 3107 1496 2246     		mov	r2, r4
 3108 1498 8649     		ldr	r1, .L724
 3109 149a 8748     		ldr	r0, .L724+4
 3110 149c FFF7FEFF 		bl	sprintf
 3111              	.LVL249:
 3112              		.loc 1 1162 0
 3113 14a0 002F     		cmp	r7, #0
 3114 14a2 7EF41BAE 		bne	.L6
 3115 14a6 8448     		ldr	r0, .L724+4
 3116 14a8 FFF7FEFF 		bl	strlen
 3117              	.LVL250:
 3118              		.loc 1 1164 0
 3119 14ac 079B     		ldr	r3, [sp, #28]
 3120 14ae 0146     		mov	r1, r0
 3121              		.loc 1 1165 0
 3122 14b0 8148     		ldr	r0, .L724+4
 3123              		.loc 1 1164 0
 3124 14b2 002B     		cmp	r3, #0
 3125 14b4 00F0B285 		beq	.L367
 3126              		.loc 1 1165 0
 3127 14b8 FFF7FEFF 		bl	e_send_uart1_char
 3128              	.LVL251:
 3129              	.L368:
 3130              		.loc 1 1165 0 is_stmt 0 discriminator 2
 3131 14bc FFF7FEFF 		bl	e_uart1_sending
 3132              	.LVL252:
 3133 14c0 0028     		cmp	r0, #0
 3134 14c2 FBD1     		bne	.L368
 3135 14c4 FEF70BBE 		b	.L650
ARM GAS  C:\Users\mathi\AppData\Local\Temp\ccXNOisu.s 			page 56


 3136              	.L197:
 3137              		.loc 1 1102 0 is_stmt 1
 3138 14c8 0020     		movs	r0, #0
 3139 14ca FFF7FEFF 		bl	e_set_speed_left
 3140              	.LVL253:
 3141              		.loc 1 1103 0
 3142 14ce 0020     		movs	r0, #0
 3143 14d0 FFF7FEFF 		bl	e_set_speed_right
 3144              	.LVL254:
 3145              		.loc 1 1104 0
 3146 14d4 0021     		movs	r1, #0
 3147 14d6 0820     		movs	r0, #8
 3148 14d8 FFF7FEFF 		bl	e_set_led
 3149              	.LVL255:
 3150              		.loc 1 1105 0
 3151 14dc 002F     		cmp	r7, #0
 3152 14de 7EF4FDAD 		bne	.L6
 3153              		.loc 1 1107 0
 3154 14e2 079B     		ldr	r3, [sp, #28]
 3155              		.loc 1 1108 0
 3156 14e4 7548     		ldr	r0, .L724+8
 3157 14e6 0321     		movs	r1, #3
 3158              		.loc 1 1107 0
 3159 14e8 002B     		cmp	r3, #0
 3160 14ea 00F04F85 		beq	.L347
 3161              		.loc 1 1108 0
 3162 14ee FFF7FEFF 		bl	e_send_uart1_char
 3163              	.LVL256:
 3164              	.L348:
 3165              		.loc 1 1108 0 is_stmt 0 discriminator 2
 3166 14f2 FFF7FEFF 		bl	e_uart1_sending
 3167              	.LVL257:
 3168 14f6 0028     		cmp	r0, #0
 3169 14f8 FBD1     		bne	.L348
 3170 14fa FEF7F0BD 		b	.L650
 3171              	.L188:
 3172              		.loc 1 919 0 is_stmt 1
 3173 14fe 002F     		cmp	r7, #0
 3174 1500 7EF4ECAD 		bne	.L6
 3175              		.loc 1 920 0
 3176 1504 0E99     		ldr	r1, [sp, #56]
 3177 1506 109B     		ldr	r3, [sp, #64]
 3178 1508 0C68     		ldr	r4, [r1]
 3179 150a 1399     		ldr	r1, [sp, #76]
 3180 150c 129A     		ldr	r2, [sp, #72]
 3181 150e 0868     		ldr	r0, [r1]
 3182 1510 1199     		ldr	r1, [sp, #68]
 3183 1512 1B68     		ldr	r3, [r3]
 3184 1514 0968     		ldr	r1, [r1]
 3185 1516 1268     		ldr	r2, [r2]
 3186 1518 0091     		str	r1, [sp]
 3187 151a CDE90104 		strd	r0, r4, [sp, #4]
 3188 151e 6849     		ldr	r1, .L724+12
 3189 1520 6548     		ldr	r0, .L724+4
 3190 1522 FFF7FEFF 		bl	sprintf
 3191              	.LVL258:
 3192              		.loc 1 921 0
ARM GAS  C:\Users\mathi\AppData\Local\Temp\ccXNOisu.s 			page 57


 3193 1526 079B     		ldr	r3, [sp, #28]
 3194              		.loc 1 922 0
 3195 1528 6348     		ldr	r0, .L724+4
 3196              		.loc 1 921 0
 3197 152a 002B     		cmp	r3, #0
 3198 152c 00F0C885 		beq	.L301
 3199              		.loc 1 922 0
 3200 1530 FFF7FEFF 		bl	strlen
 3201              	.LVL259:
 3202 1534 0146     		mov	r1, r0
 3203 1536 6048     		ldr	r0, .L724+4
 3204 1538 FFF7FEFF 		bl	e_send_uart1_char
 3205              	.LVL260:
 3206              	.L302:
 3207              		.loc 1 922 0 is_stmt 0 discriminator 2
 3208 153c FFF7FEFF 		bl	e_uart1_sending
 3209              	.LVL261:
 3210 1540 0028     		cmp	r0, #0
 3211 1542 FBD1     		bne	.L302
 3212 1544 FEF7CBBD 		b	.L650
 3213              	.L179:
 3214              		.loc 1 694 0 is_stmt 1
 3215 1548 002F     		cmp	r7, #0
 3216 154a 40F08583 		bne	.L206
 3217              		.loc 1 695 0
 3218 154e 0121     		movs	r1, #1
 3219 1550 3846     		mov	r0, r7
 3220 1552 FFF7FEFF 		bl	e_get_acc_filtered
 3221              	.LVL262:
 3222 1556 0121     		movs	r1, #1
 3223 1558 0446     		mov	r4, r0
 3224 155a 0846     		mov	r0, r1
 3225 155c FFF7FEFF 		bl	e_get_acc_filtered
 3226              	.LVL263:
 3227 1560 0121     		movs	r1, #1
 3228 1562 0546     		mov	r5, r0
 3229 1564 0220     		movs	r0, #2
 3230 1566 FFF7FEFF 		bl	e_get_acc_filtered
 3231              	.LVL264:
 3232 156a 2B46     		mov	r3, r5
 3233 156c 0090     		str	r0, [sp]
 3234 156e 2246     		mov	r2, r4
 3235 1570 5449     		ldr	r1, .L724+16
 3236 1572 5148     		ldr	r0, .L724+4
 3237 1574 FFF7FEFF 		bl	sprintf
 3238              	.LVL265:
 3239              		.loc 1 701 0
 3240 1578 079B     		ldr	r3, [sp, #28]
 3241 157a 002B     		cmp	r3, #0
 3242 157c 00F05E85 		beq	.L706
 3243              		.loc 1 702 0
 3244 1580 4D48     		ldr	r0, .L724+4
 3245 1582 FFF7FEFF 		bl	strlen
 3246              	.LVL266:
 3247 1586 0146     		mov	r1, r0
 3248 1588 4B48     		ldr	r0, .L724+4
 3249 158a FFF7FEFF 		bl	e_send_uart1_char
ARM GAS  C:\Users\mathi\AppData\Local\Temp\ccXNOisu.s 			page 58


 3250              	.LVL267:
 3251              	.L209:
 3252              		.loc 1 702 0 is_stmt 0 discriminator 2
 3253 158e FFF7FEFF 		bl	e_uart1_sending
 3254              	.LVL268:
 3255 1592 0028     		cmp	r0, #0
 3256 1594 FBD1     		bne	.L209
 3257 1596 FEF7A2BD 		b	.L650
 3258              	.L184:
 3259              		.loc 1 752 0 is_stmt 1
 3260 159a 4B4B     		ldr	r3, .L724+20
 3261 159c 4B4A     		ldr	r2, .L724+24
 3262 159e 1B68     		ldr	r3, [r3]
 3263 15a0 1268     		ldr	r2, [r2]
 3264 15a2 4B49     		ldr	r1, .L724+28
 3265 15a4 4448     		ldr	r0, .L724+4
 3266 15a6 FFF7FEFF 		bl	sprintf
 3267              	.LVL269:
 3268              		.loc 1 753 0
 3269 15aa 002F     		cmp	r7, #0
 3270 15ac 7EF496AD 		bne	.L6
 3271 15b0 4148     		ldr	r0, .L724+4
 3272 15b2 FFF7FEFF 		bl	strlen
 3273              	.LVL270:
 3274              		.loc 1 755 0
 3275 15b6 079B     		ldr	r3, [sp, #28]
 3276 15b8 0146     		mov	r1, r0
 3277              		.loc 1 756 0
 3278 15ba 3F48     		ldr	r0, .L724+4
 3279              		.loc 1 755 0
 3280 15bc 002B     		cmp	r3, #0
 3281 15be 00F0D584 		beq	.L223
 3282              		.loc 1 756 0
 3283 15c2 FFF7FEFF 		bl	e_send_uart1_char
 3284              	.LVL271:
 3285              	.L224:
 3286              		.loc 1 756 0 is_stmt 0 discriminator 2
 3287 15c6 FFF7FEFF 		bl	e_uart1_sending
 3288              	.LVL272:
 3289 15ca 0028     		cmp	r0, #0
 3290 15cc FBD1     		bne	.L224
 3291 15ce FEF786BD 		b	.L650
 3292              	.L183:
 3293              		.loc 1 740 0 is_stmt 1
 3294 15d2 3D4B     		ldr	r3, .L724+20
 3295 15d4 3D4A     		ldr	r2, .L724+24
 3296 15d6 3F49     		ldr	r1, .L724+32
 3297 15d8 3748     		ldr	r0, .L724+4
 3298 15da FFF7FEFF 		bl	sscanf
 3299              	.LVL273:
 3300              		.loc 1 741 0
 3301 15de 3B4B     		ldr	r3, .L724+24
 3302 15e0 1868     		ldr	r0, [r3]
 3303 15e2 FFF7FEFF 		bl	e_set_speed_left
 3304              	.LVL274:
 3305              		.loc 1 742 0
 3306 15e6 384B     		ldr	r3, .L724+20
ARM GAS  C:\Users\mathi\AppData\Local\Temp\ccXNOisu.s 			page 59


 3307 15e8 1868     		ldr	r0, [r3]
 3308 15ea FFF7FEFF 		bl	e_set_speed_right
 3309              	.LVL275:
 3310              		.loc 1 743 0
 3311 15ee 002F     		cmp	r7, #0
 3312 15f0 7EF474AD 		bne	.L6
 3313              		.loc 1 745 0
 3314 15f4 079B     		ldr	r3, [sp, #28]
 3315              		.loc 1 746 0
 3316 15f6 3848     		ldr	r0, .L724+36
 3317 15f8 0321     		movs	r1, #3
 3318              		.loc 1 745 0
 3319 15fa 002B     		cmp	r3, #0
 3320 15fc 00F0D684 		beq	.L220
 3321              		.loc 1 746 0
 3322 1600 FFF7FEFF 		bl	e_send_uart1_char
 3323              	.LVL276:
 3324              	.L221:
 3325              		.loc 1 746 0 is_stmt 0 discriminator 2
 3326 1604 FFF7FEFF 		bl	e_uart1_sending
 3327              	.LVL277:
 3328 1608 0028     		cmp	r0, #0
 3329 160a FBD1     		bne	.L221
 3330 160c FEF767BD 		b	.L650
 3331              	.L186:
 3332              		.loc 1 774 0 is_stmt 1
 3333 1610 FFF7FEFF 		bl	e_get_check
 3334              	.LVL278:
 3335 1614 0446     		mov	r4, r0
 3336 1616 FFF7FEFF 		bl	e_get_address
 3337              	.LVL279:
 3338 161a 0546     		mov	r5, r0
 3339 161c FFF7FEFF 		bl	e_get_data
 3340              	.LVL280:
 3341 1620 2B46     		mov	r3, r5
 3342 1622 0090     		str	r0, [sp]
 3343 1624 2246     		mov	r2, r4
 3344 1626 2D49     		ldr	r1, .L724+40
 3345 1628 2348     		ldr	r0, .L724+4
 3346 162a FFF7FEFF 		bl	sprintf
 3347              	.LVL281:
 3348              		.loc 1 775 0
 3349 162e 002F     		cmp	r7, #0
 3350 1630 7EF454AD 		bne	.L6
 3351 1634 2048     		ldr	r0, .L724+4
 3352 1636 FFF7FEFF 		bl	strlen
 3353              	.LVL282:
 3354              		.loc 1 777 0
 3355 163a 079B     		ldr	r3, [sp, #28]
 3356 163c 0146     		mov	r1, r0
 3357              		.loc 1 778 0
 3358 163e 1E48     		ldr	r0, .L724+4
 3359              		.loc 1 777 0
 3360 1640 002B     		cmp	r3, #0
 3361 1642 00F09B84 		beq	.L229
 3362              		.loc 1 778 0
 3363 1646 FFF7FEFF 		bl	e_send_uart1_char
ARM GAS  C:\Users\mathi\AppData\Local\Temp\ccXNOisu.s 			page 60


 3364              	.LVL283:
 3365              	.L230:
 3366              		.loc 1 778 0 is_stmt 0 discriminator 2
 3367 164a FFF7FEFF 		bl	e_uart1_sending
 3368              	.LVL284:
 3369 164e 0028     		cmp	r0, #0
 3370 1650 FBD1     		bne	.L230
 3371 1652 FEF744BD 		b	.L650
 3372              	.L182:
 3373              		.loc 1 729 0 is_stmt 1
 3374 1656 224A     		ldr	r2, .L724+44
 3375 1658 2249     		ldr	r1, .L724+48
 3376 165a 1369     		ldr	r3, [r2, #16]
 3377 165c 1069     		ldr	r0, [r2, #16]
 3378 165e 0C69     		ldr	r4, [r1, #16]
 3379 1660 1269     		ldr	r2, [r2, #16]
 3380              		.loc 1 730 0
 3381 1662 2149     		ldr	r1, .L724+52
 3382              		.loc 1 729 0
 3383 1664 C4F30014 		ubfx	r4, r4, #4, #1
 3384 1668 C0F3C030 		ubfx	r0, r0, #15, #1
 3385 166c 00EB4400 		add	r0, r0, r4, lsl #1
 3386 1670 C2F38032 		ubfx	r2, r2, #14, #1
 3387 1674 02EB4002 		add	r2, r2, r0, lsl #1
 3388 1678 C3F34033 		ubfx	r3, r3, #13, #1
 3389 167c 03EB4203 		add	r3, r3, r2, lsl #1
 3390 1680 1A4C     		ldr	r4, .L724+56
 3391              		.loc 1 730 0
 3392 1682 0D48     		ldr	r0, .L724+4
 3393              		.loc 1 729 0
 3394 1684 2360     		str	r3, [r4]
 3395              		.loc 1 730 0
 3396 1686 1A46     		mov	r2, r3
 3397 1688 FFF7FEFF 		bl	sprintf
 3398              	.LVL285:
 3399              		.loc 1 731 0
 3400 168c 002F     		cmp	r7, #0
 3401 168e 7EF425AD 		bne	.L6
 3402 1692 0948     		ldr	r0, .L724+4
 3403 1694 FFF7FEFF 		bl	strlen
 3404              	.LVL286:
 3405              		.loc 1 733 0
 3406 1698 079B     		ldr	r3, [sp, #28]
 3407 169a 0146     		mov	r1, r0
 3408              		.loc 1 734 0
 3409 169c 0648     		ldr	r0, .L724+4
 3410              		.loc 1 733 0
 3411 169e 002B     		cmp	r3, #0
 3412 16a0 00F07C84 		beq	.L217
 3413              		.loc 1 734 0
 3414 16a4 FFF7FEFF 		bl	e_send_uart1_char
 3415              	.LVL287:
 3416              	.L218:
 3417              		.loc 1 734 0 is_stmt 0 discriminator 2
 3418 16a8 FFF7FEFF 		bl	e_uart1_sending
 3419              	.LVL288:
 3420 16ac 0028     		cmp	r0, #0
ARM GAS  C:\Users\mathi\AppData\Local\Temp\ccXNOisu.s 			page 61


 3421 16ae FBD1     		bne	.L218
 3422 16b0 FEF715BD 		b	.L650
 3423              	.L725:
 3424              		.align	2
 3425              	.L724:
 3426 16b4 C40A0000 		.word	.LC87
 3427 16b8 00000000 		.word	buffer
 3428 16bc A40A0000 		.word	.LC82
 3429 16c0 BC090000 		.word	.LC70
 3430 16c4 5C000000 		.word	.LC1
 3431 16c8 00000000 		.word	.LANCHOR6
 3432 16cc 00000000 		.word	.LANCHOR7
 3433 16d0 AC000000 		.word	.LC9
 3434 16d4 9C000000 		.word	.LC7
 3435 16d8 A8000000 		.word	.LC8
 3436 16dc C4000000 		.word	.LC12
 3437 16e0 00080240 		.word	1073874944
 3438 16e4 000C0240 		.word	1073875968
 3439 16e8 94000000 		.word	.LC6
 3440 16ec 00000000 		.word	selector
 3441              	.L187:
 3442              		.loc 1 800 0 is_stmt 1
 3443 16f0 002F     		cmp	r7, #0
 3444 16f2 7EF4F3AC 		bne	.L6
 3445              		.loc 1 838 0
 3446 16f6 079B     		ldr	r3, [sp, #28]
 3447              		.loc 1 839 0
 3448 16f8 BC48     		ldr	r0, .L726
 3449 16fa 0121     		movs	r1, #1
 3450              		.loc 1 838 0
 3451 16fc 002B     		cmp	r3, #0
 3452 16fe 00F05B83 		beq	.L237
 3453              		.loc 1 839 0
 3454 1702 FFF7FEFF 		bl	e_send_uart1_char
 3455              	.LVL289:
 3456              	.L238:
 3457              		.loc 1 839 0 is_stmt 0 discriminator 2
 3458 1706 FFF7FEFF 		bl	e_uart1_sending
 3459              	.LVL290:
 3460 170a 0028     		cmp	r0, #0
 3461 170c FBD1     		bne	.L238
 3462              		.loc 1 840 0 is_stmt 1
 3463 170e 2121     		movs	r1, #33
 3464 1710 B748     		ldr	r0, .L726+4
 3465 1712 FFF7FEFF 		bl	e_send_uart1_char
 3466              	.LVL291:
 3467              	.L239:
 3468              		.loc 1 840 0 is_stmt 0 discriminator 2
 3469 1716 FFF7FEFF 		bl	e_uart1_sending
 3470              	.LVL292:
 3471 171a 0028     		cmp	r0, #0
 3472 171c FBD1     		bne	.L239
 3473              		.loc 1 841 0 is_stmt 1
 3474 171e 3121     		movs	r1, #49
 3475 1720 B448     		ldr	r0, .L726+8
 3476 1722 FFF7FEFF 		bl	e_send_uart1_char
 3477              	.LVL293:
ARM GAS  C:\Users\mathi\AppData\Local\Temp\ccXNOisu.s 			page 62


 3478              	.L240:
 3479              		.loc 1 841 0 is_stmt 0 discriminator 2
 3480 1726 FFF7FEFF 		bl	e_uart1_sending
 3481              	.LVL294:
 3482 172a 0028     		cmp	r0, #0
 3483 172c FBD1     		bne	.L240
 3484              		.loc 1 842 0 is_stmt 1
 3485 172e FFF7FEFF 		bl	isEpuckVersion1_3
 3486              	.LVL295:
 3487 1732 0028     		cmp	r0, #0
 3488 1734 00F01685 		beq	.L241
 3489              		.loc 1 843 0
 3490 1738 2121     		movs	r1, #33
 3491 173a AF48     		ldr	r0, .L726+12
 3492 173c FFF7FEFF 		bl	e_send_uart1_char
 3493              	.LVL296:
 3494              	.L242:
 3495              		.loc 1 843 0 is_stmt 0 discriminator 2
 3496 1740 FFF7FEFF 		bl	e_uart1_sending
 3497              	.LVL297:
 3498 1744 0028     		cmp	r0, #0
 3499 1746 FBD1     		bne	.L242
 3500              	.L243:
 3501              		.loc 1 847 0 is_stmt 1
 3502 1748 2521     		movs	r1, #37
 3503 174a AC48     		ldr	r0, .L726+16
 3504 174c FFF7FEFF 		bl	e_send_uart1_char
 3505              	.LVL298:
 3506              	.L245:
 3507              		.loc 1 847 0 is_stmt 0 discriminator 2
 3508 1750 FFF7FEFF 		bl	e_uart1_sending
 3509              	.LVL299:
 3510 1754 0028     		cmp	r0, #0
 3511 1756 FBD1     		bne	.L245
 3512              		.loc 1 848 0 is_stmt 1
 3513 1758 2E21     		movs	r1, #46
 3514 175a A948     		ldr	r0, .L726+20
 3515 175c FFF7FEFF 		bl	e_send_uart1_char
 3516              	.LVL300:
 3517              	.L246:
 3518              		.loc 1 848 0 is_stmt 0 discriminator 2
 3519 1760 FFF7FEFF 		bl	e_uart1_sending
 3520              	.LVL301:
 3521 1764 0028     		cmp	r0, #0
 3522 1766 FBD1     		bne	.L246
 3523              		.loc 1 849 0 is_stmt 1
 3524 1768 2E21     		movs	r1, #46
 3525 176a A648     		ldr	r0, .L726+24
 3526 176c FFF7FEFF 		bl	e_send_uart1_char
 3527              	.LVL302:
 3528              	.L247:
 3529              		.loc 1 849 0 is_stmt 0 discriminator 2
 3530 1770 FFF7FEFF 		bl	e_uart1_sending
 3531              	.LVL303:
 3532 1774 0028     		cmp	r0, #0
 3533 1776 FBD1     		bne	.L247
 3534              		.loc 1 850 0 is_stmt 1
ARM GAS  C:\Users\mathi\AppData\Local\Temp\ccXNOisu.s 			page 63


 3535 1778 3221     		movs	r1, #50
 3536 177a A348     		ldr	r0, .L726+28
 3537 177c FFF7FEFF 		bl	e_send_uart1_char
 3538              	.LVL304:
 3539              	.L248:
 3540              		.loc 1 850 0 is_stmt 0 discriminator 2
 3541 1780 FFF7FEFF 		bl	e_uart1_sending
 3542              	.LVL305:
 3543 1784 0028     		cmp	r0, #0
 3544 1786 FBD1     		bne	.L248
 3545              		.loc 1 852 0 is_stmt 1
 3546 1788 1F21     		movs	r1, #31
 3547 178a A048     		ldr	r0, .L726+32
 3548 178c FFF7FEFF 		bl	e_send_uart1_char
 3549              	.LVL306:
 3550              	.L249:
 3551              		.loc 1 852 0 is_stmt 0 discriminator 2
 3552 1790 FFF7FEFF 		bl	e_uart1_sending
 3553              	.LVL307:
 3554 1794 0028     		cmp	r0, #0
 3555 1796 FBD1     		bne	.L249
 3556              		.loc 1 854 0 is_stmt 1
 3557 1798 FFF7FEFF 		bl	isEpuckVersion1_3
 3558              	.LVL308:
 3559 179c 0028     		cmp	r0, #0
 3560 179e 40F00B85 		bne	.L707
 3561              	.L250:
 3562              		.loc 1 857 0
 3563 17a2 1821     		movs	r1, #24
 3564 17a4 9A48     		ldr	r0, .L726+36
 3565 17a6 FFF7FEFF 		bl	e_send_uart1_char
 3566              	.LVL309:
 3567              	.L252:
 3568              		.loc 1 857 0 is_stmt 0 discriminator 2
 3569 17aa FFF7FEFF 		bl	e_uart1_sending
 3570              	.LVL310:
 3571 17ae 0028     		cmp	r0, #0
 3572 17b0 FBD1     		bne	.L252
 3573              		.loc 1 858 0 is_stmt 1
 3574 17b2 2821     		movs	r1, #40
 3575 17b4 9748     		ldr	r0, .L726+40
 3576 17b6 FFF7FEFF 		bl	e_send_uart1_char
 3577              	.LVL311:
 3578              	.L253:
 3579              		.loc 1 858 0 is_stmt 0 discriminator 2
 3580 17ba FFF7FEFF 		bl	e_uart1_sending
 3581              	.LVL312:
 3582 17be 0028     		cmp	r0, #0
 3583 17c0 FBD1     		bne	.L253
 3584              		.loc 1 859 0 is_stmt 1
 3585 17c2 4F21     		movs	r1, #79
 3586 17c4 9448     		ldr	r0, .L726+44
 3587 17c6 FFF7FEFF 		bl	e_send_uart1_char
 3588              	.LVL313:
 3589              	.L254:
 3590              		.loc 1 859 0 is_stmt 0 discriminator 2
 3591 17ca FFF7FEFF 		bl	e_uart1_sending
ARM GAS  C:\Users\mathi\AppData\Local\Temp\ccXNOisu.s 			page 64


 3592              	.LVL314:
 3593 17ce 0028     		cmp	r0, #0
 3594 17d0 FBD1     		bne	.L254
 3595              		.loc 1 860 0 is_stmt 1
 3596 17d2 2F21     		movs	r1, #47
 3597 17d4 9148     		ldr	r0, .L726+48
 3598 17d6 FFF7FEFF 		bl	e_send_uart1_char
 3599              	.LVL315:
 3600              	.L255:
 3601              		.loc 1 860 0 is_stmt 0 discriminator 2
 3602 17da FFF7FEFF 		bl	e_uart1_sending
 3603              	.LVL316:
 3604 17de 0028     		cmp	r0, #0
 3605 17e0 FBD1     		bne	.L255
 3606              		.loc 1 861 0 is_stmt 1
 3607 17e2 3321     		movs	r1, #51
 3608 17e4 8E48     		ldr	r0, .L726+52
 3609 17e6 FFF7FEFF 		bl	e_send_uart1_char
 3610              	.LVL317:
 3611              	.L256:
 3612              		.loc 1 861 0 is_stmt 0 discriminator 2
 3613 17ea FFF7FEFF 		bl	e_uart1_sending
 3614              	.LVL318:
 3615 17ee 0028     		cmp	r0, #0
 3616 17f0 FBD1     		bne	.L256
 3617              		.loc 1 863 0 is_stmt 1
 3618 17f2 2121     		movs	r1, #33
 3619 17f4 8B48     		ldr	r0, .L726+56
 3620 17f6 FFF7FEFF 		bl	e_send_uart1_char
 3621              	.LVL319:
 3622              	.L257:
 3623              		.loc 1 863 0 is_stmt 0 discriminator 2
 3624 17fa FFF7FEFF 		bl	e_uart1_sending
 3625              	.LVL320:
 3626 17fe 0028     		cmp	r0, #0
 3627 1800 FBD1     		bne	.L257
 3628              		.loc 1 865 0 is_stmt 1
 3629 1802 1D21     		movs	r1, #29
 3630 1804 8848     		ldr	r0, .L726+60
 3631 1806 FFF7FEFF 		bl	e_send_uart1_char
 3632              	.LVL321:
 3633              	.L258:
 3634              		.loc 1 865 0 is_stmt 0 discriminator 2
 3635 180a FFF7FEFF 		bl	e_uart1_sending
 3636              	.LVL322:
 3637 180e 0028     		cmp	r0, #0
 3638 1810 FBD1     		bne	.L258
 3639              		.loc 1 866 0 is_stmt 1
 3640 1812 2121     		movs	r1, #33
 3641 1814 8548     		ldr	r0, .L726+64
 3642 1816 FFF7FEFF 		bl	e_send_uart1_char
 3643              	.LVL323:
 3644              	.L259:
 3645              		.loc 1 866 0 is_stmt 0 discriminator 2
 3646 181a FFF7FEFF 		bl	e_uart1_sending
 3647              	.LVL324:
 3648 181e 0028     		cmp	r0, #0
ARM GAS  C:\Users\mathi\AppData\Local\Temp\ccXNOisu.s 			page 65


 3649 1820 FBD1     		bne	.L259
 3650              		.loc 1 867 0 is_stmt 1
 3651 1822 3121     		movs	r1, #49
 3652 1824 8248     		ldr	r0, .L726+68
 3653 1826 FFF7FEFF 		bl	e_send_uart1_char
 3654              	.LVL325:
 3655              	.L260:
 3656              		.loc 1 867 0 is_stmt 0 discriminator 2
 3657 182a FFF7FEFF 		bl	e_uart1_sending
 3658              	.LVL326:
 3659 182e 0028     		cmp	r0, #0
 3660 1830 FBD1     		bne	.L260
 3661              		.loc 1 868 0 is_stmt 1
 3662 1832 3121     		movs	r1, #49
 3663 1834 7F48     		ldr	r0, .L726+72
 3664 1836 FFF7FEFF 		bl	e_send_uart1_char
 3665              	.LVL327:
 3666              	.L261:
 3667              		.loc 1 868 0 is_stmt 0 discriminator 2
 3668 183a FFF7FEFF 		bl	e_uart1_sending
 3669              	.LVL328:
 3670 183e 0028     		cmp	r0, #0
 3671 1840 FBD1     		bne	.L261
 3672              		.loc 1 869 0 is_stmt 1
 3673 1842 2021     		movs	r1, #32
 3674 1844 7C48     		ldr	r0, .L726+76
 3675 1846 FFF7FEFF 		bl	e_send_uart1_char
 3676              	.LVL329:
 3677              	.L262:
 3678              		.loc 1 869 0 is_stmt 0 discriminator 2
 3679 184a FFF7FEFF 		bl	e_uart1_sending
 3680              	.LVL330:
 3681 184e 0028     		cmp	r0, #0
 3682 1850 FBD1     		bne	.L262
 3683              		.loc 1 870 0 is_stmt 1
 3684 1852 3121     		movs	r1, #49
 3685 1854 7948     		ldr	r0, .L726+80
 3686 1856 FFF7FEFF 		bl	e_send_uart1_char
 3687              	.LVL331:
 3688              	.L263:
 3689              		.loc 1 870 0 is_stmt 0 discriminator 2
 3690 185a FFF7FEFF 		bl	e_uart1_sending
 3691              	.LVL332:
 3692 185e 0028     		cmp	r0, #0
 3693 1860 FBD1     		bne	.L263
 3694              		.loc 1 871 0 is_stmt 1
 3695 1862 3221     		movs	r1, #50
 3696 1864 7648     		ldr	r0, .L726+84
 3697 1866 FFF7FEFF 		bl	e_send_uart1_char
 3698              	.LVL333:
 3699              	.L264:
 3700              		.loc 1 871 0 is_stmt 0 discriminator 2
 3701 186a FFF7FEFF 		bl	e_uart1_sending
 3702              	.LVL334:
 3703 186e 0028     		cmp	r0, #0
 3704 1870 FBD1     		bne	.L264
 3705              		.loc 1 872 0 is_stmt 1
ARM GAS  C:\Users\mathi\AppData\Local\Temp\ccXNOisu.s 			page 66


 3706 1872 FFF7FEFF 		bl	isEpuckVersion1_3
 3707              	.LVL335:
 3708 1876 0028     		cmp	r0, #0
 3709 1878 40F0B184 		bne	.L708
 3710              	.L265:
 3711              		.loc 1 875 0
 3712 187c 2C21     		movs	r1, #44
 3713 187e 7148     		ldr	r0, .L726+88
 3714 1880 FFF7FEFF 		bl	e_send_uart1_char
 3715              	.LVL336:
 3716              	.L267:
 3717              		.loc 1 875 0 is_stmt 0 discriminator 2
 3718 1884 FFF7FEFF 		bl	e_uart1_sending
 3719              	.LVL337:
 3720 1888 0028     		cmp	r0, #0
 3721 188a FBD1     		bne	.L267
 3722              		.loc 1 876 0 is_stmt 1
 3723 188c 2521     		movs	r1, #37
 3724 188e 6E48     		ldr	r0, .L726+92
 3725 1890 FFF7FEFF 		bl	e_send_uart1_char
 3726              	.LVL338:
 3727              	.L268:
 3728              		.loc 1 876 0 is_stmt 0 discriminator 2
 3729 1894 FFF7FEFF 		bl	e_uart1_sending
 3730              	.LVL339:
 3731 1898 0028     		cmp	r0, #0
 3732 189a FBD1     		bne	.L268
 3733              		.loc 1 877 0 is_stmt 1
 3734 189c 2B21     		movs	r1, #43
 3735 189e 6B48     		ldr	r0, .L726+96
 3736 18a0 FFF7FEFF 		bl	e_send_uart1_char
 3737              	.LVL340:
 3738              	.L269:
 3739              		.loc 1 877 0 is_stmt 0 discriminator 2
 3740 18a4 FFF7FEFF 		bl	e_uart1_sending
 3741              	.LVL341:
 3742 18a8 0028     		cmp	r0, #0
 3743 18aa FBD1     		bne	.L269
 3744              		.loc 1 878 0 is_stmt 1
 3745 18ac 2A21     		movs	r1, #42
 3746 18ae 6848     		ldr	r0, .L726+100
 3747 18b0 FFF7FEFF 		bl	e_send_uart1_char
 3748              	.LVL342:
 3749              	.L270:
 3750              		.loc 1 878 0 is_stmt 0 discriminator 2
 3751 18b4 FFF7FEFF 		bl	e_uart1_sending
 3752              	.LVL343:
 3753 18b8 0028     		cmp	r0, #0
 3754 18ba FBD1     		bne	.L270
 3755 18bc FEF70FBC 		b	.L650
 3756              	.L181:
 3757              		.loc 1 718 0 is_stmt 1
 3758 18c0 644A     		ldr	r2, .L726+104
 3759 18c2 6549     		ldr	r1, .L726+108
 3760 18c4 6548     		ldr	r0, .L726+112
 3761 18c6 FFF7FEFF 		bl	sscanf
 3762              	.LVL344:
ARM GAS  C:\Users\mathi\AppData\Local\Temp\ccXNOisu.s 			page 67


 3763              		.loc 1 719 0
 3764 18ca 624B     		ldr	r3, .L726+104
 3765 18cc 1868     		ldr	r0, [r3]
 3766 18ce FFF7FEFF 		bl	e_set_body_led
 3767              	.LVL345:
 3768              		.loc 1 720 0
 3769 18d2 002F     		cmp	r7, #0
 3770 18d4 7EF402AC 		bne	.L6
 3771              		.loc 1 722 0
 3772 18d8 079B     		ldr	r3, [sp, #28]
 3773              		.loc 1 723 0
 3774 18da 6148     		ldr	r0, .L726+116
 3775 18dc 0321     		movs	r1, #3
 3776              		.loc 1 722 0
 3777 18de 002B     		cmp	r3, #0
 3778 18e0 00F06C83 		beq	.L214
 3779              		.loc 1 723 0
 3780 18e4 FFF7FEFF 		bl	e_send_uart1_char
 3781              	.LVL346:
 3782              	.L215:
 3783              		.loc 1 723 0 is_stmt 0 discriminator 2
 3784 18e8 FFF7FEFF 		bl	e_uart1_sending
 3785              	.LVL347:
 3786 18ec 0028     		cmp	r0, #0
 3787 18ee FBD1     		bne	.L215
 3788 18f0 FEF7F5BB 		b	.L650
 3789              	.L185:
 3790              		.loc 1 762 0 is_stmt 1
 3791 18f4 574A     		ldr	r2, .L726+104
 3792 18f6 5B49     		ldr	r1, .L726+120
 3793 18f8 5848     		ldr	r0, .L726+112
 3794 18fa FFF7FEFF 		bl	sscanf
 3795              	.LVL348:
 3796              		.loc 1 763 0
 3797 18fe 554B     		ldr	r3, .L726+104
 3798 1900 1868     		ldr	r0, [r3]
 3799 1902 FFF7FEFF 		bl	e_set_front_led
 3800              	.LVL349:
 3801              		.loc 1 764 0
 3802 1906 002F     		cmp	r7, #0
 3803 1908 7EF4E8AB 		bne	.L6
 3804              		.loc 1 766 0
 3805 190c 079B     		ldr	r3, [sp, #28]
 3806              		.loc 1 767 0
 3807 190e 5648     		ldr	r0, .L726+124
 3808 1910 0321     		movs	r1, #3
 3809              		.loc 1 766 0
 3810 1912 002B     		cmp	r3, #0
 3811 1914 00F06283 		beq	.L226
 3812              		.loc 1 767 0
 3813 1918 FFF7FEFF 		bl	e_send_uart1_char
 3814              	.LVL350:
 3815              	.L227:
 3816              		.loc 1 767 0 is_stmt 0 discriminator 2
 3817 191c FFF7FEFF 		bl	e_uart1_sending
 3818              	.LVL351:
 3819 1920 0028     		cmp	r0, #0
ARM GAS  C:\Users\mathi\AppData\Local\Temp\ccXNOisu.s 			page 68


 3820 1922 FBD1     		bne	.L227
 3821 1924 FEF7DBBB 		b	.L650
 3822              	.L357:
 3823              		.loc 1 1128 0 is_stmt 1
 3824 1928 41F65071 		movw	r1, #8016
 3825 192c 42F61430 		movw	r0, #11028
 3826 1930 FFF7FEFF 		bl	e_play_sound
 3827              	.LVL352:
 3828              	.L358:
 3829              		.loc 1 1136 0
 3830 1934 002F     		cmp	r7, #0
 3831 1936 7EF4D1AB 		bne	.L6
 3832              		.loc 1 1138 0
 3833 193a 079B     		ldr	r3, [sp, #28]
 3834              		.loc 1 1139 0
 3835 193c 4B48     		ldr	r0, .L726+128
 3836 193e 0321     		movs	r1, #3
 3837              		.loc 1 1138 0
 3838 1940 002B     		cmp	r3, #0
 3839 1942 00F00B83 		beq	.L359
 3840              		.loc 1 1139 0
 3841 1946 FFF7FEFF 		bl	e_send_uart1_char
 3842              	.LVL353:
 3843              	.L360:
 3844              		.loc 1 1139 0 is_stmt 0 discriminator 2
 3845 194a FFF7FEFF 		bl	e_uart1_sending
 3846              	.LVL354:
 3847 194e 0028     		cmp	r0, #0
 3848 1950 FBD1     		bne	.L360
 3849 1952 FEF7C4BB 		b	.L650
 3850              	.L356:
 3851              		.loc 1 1126 0 is_stmt 1
 3852 1956 40F69461 		movw	r1, #3732
 3853 195a 41F67E40 		movw	r0, #7294
 3854 195e FFF7FEFF 		bl	e_play_sound
 3855              	.LVL355:
 3856              		.loc 1 1127 0
 3857 1962 E7E7     		b	.L358
 3858              	.L355:
 3859              		.loc 1 1124 0
 3860 1964 0022     		movs	r2, #0
 3861 1966 0221     		movs	r1, #2
 3862 1968 0B20     		movs	r0, #11
 3863 196a FFF7FEFF 		bl	playMelody
 3864              	.LVL356:
 3865              		.loc 1 1125 0
 3866 196e E1E7     		b	.L358
 3867              	.L354:
 3868              		.loc 1 1122 0
 3869 1970 0022     		movs	r2, #0
 3870 1972 0221     		movs	r1, #2
 3871 1974 0420     		movs	r0, #4
 3872 1976 FFF7FEFF 		bl	playMelody
 3873              	.LVL357:
 3874              		.loc 1 1123 0
 3875 197a DBE7     		b	.L358
 3876              	.L352:
ARM GAS  C:\Users\mathi\AppData\Local\Temp\ccXNOisu.s 			page 69


 3877              		.loc 1 1120 0
 3878 197c 0022     		movs	r2, #0
 3879 197e 0221     		movs	r1, #2
 3880 1980 0320     		movs	r0, #3
 3881 1982 FFF7FEFF 		bl	playMelody
 3882              	.LVL358:
 3883              		.loc 1 1121 0
 3884 1986 D5E7     		b	.L358
 3885              	.L178:
 3886              		.loc 1 1239 0
 3887 1988 002F     		cmp	r7, #0
 3888 198a 7EF4A7AB 		bne	.L6
 3889              		.loc 1 1241 0
 3890 198e 079B     		ldr	r3, [sp, #28]
 3891              		.loc 1 1242 0
 3892 1990 3748     		ldr	r0, .L726+132
 3893 1992 1521     		movs	r1, #21
 3894              		.loc 1 1241 0
 3895 1994 002B     		cmp	r3, #0
 3896 1996 00F03183 		beq	.L394
 3897              		.loc 1 1242 0
 3898 199a FFF7FEFF 		bl	e_send_uart1_char
 3899              	.LVL359:
 3900              	.L395:
 3901              		.loc 1 1242 0 is_stmt 0 discriminator 2
 3902 199e FFF7FEFF 		bl	e_uart1_sending
 3903              	.LVL360:
 3904 19a2 0028     		cmp	r0, #0
 3905 19a4 FBD1     		bne	.L395
 3906 19a6 FEF79ABB 		b	.L650
 3907              	.L158:
 3908              	.LBE4:
 3909              		.loc 1 689 0 is_stmt 1
 3910 19aa 1C46     		mov	r4, r3
 3911              		.loc 1 687 0
 3912 19ac 0222     		movs	r2, #2
 3913              		.loc 1 676 0
 3914 19ae 8AF80030 		strb	r3, [r10]
 3915              		.loc 1 689 0
 3916 19b2 622C     		cmp	r4, #98
 3917              		.loc 1 687 0
 3918 19b4 4FF00003 		mov	r3, #0
 3919 19b8 CBF80020 		str	r2, [fp]
 3920 19bc 8AF80130 		strb	r3, [r10, #1]
 3921              		.loc 1 689 0
 3922 19c0 7EF4F8AB 		bne	.L399
 3923              	.LBB5:
 3924              		.loc 1 708 0
 3925 19c4 FFF7FEFF 		bl	getBatteryValueRaw
 3926              	.LVL361:
 3927 19c8 0446     		mov	r4, r0
 3928 19ca FFF7FEFF 		bl	getBatteryValuePercentage
 3929              	.LVL362:
 3930 19ce 2246     		mov	r2, r4
 3931 19d0 0346     		mov	r3, r0
 3932 19d2 2849     		ldr	r1, .L726+136
 3933 19d4 2148     		ldr	r0, .L726+112
ARM GAS  C:\Users\mathi\AppData\Local\Temp\ccXNOisu.s 			page 70


 3934 19d6 FFF7FEFF 		bl	sprintf
 3935              	.LVL363:
 3936 19da FEF77FBB 		b	.L6
 3937              	.LVL364:
 3938              	.L14:
 3939              	.LBE5:
 3940              		.loc 1 208 0
 3941 19de 264A     		ldr	r2, .L726+140
 3942 19e0 0023     		movs	r3, #0
 3943 19e2 1360     		str	r3, [r2]
 3944 19e4 254A     		ldr	r2, .L726+144
 3945 19e6 1360     		str	r3, [r2]
 3946 19e8 FEF759BC 		b	.L26
 3947              	.L727:
 3948              		.align	2
 3949              	.L726:
 3950 19ec 14010000 		.word	.LC15
 3951 19f0 18010000 		.word	.LC16
 3952 19f4 3C010000 		.word	.LC17
 3953 19f8 70010000 		.word	.LC18
 3954 19fc C4010000 		.word	.LC20
 3955 1a00 EC010000 		.word	.LC21
 3956 1a04 1C020000 		.word	.LC22
 3957 1a08 4C020000 		.word	.LC23
 3958 1a0c 80020000 		.word	.LC24
 3959 1a10 BC020000 		.word	.LC26
 3960 1a14 D8020000 		.word	.LC27
 3961 1a18 04030000 		.word	.LC28
 3962 1a1c 54030000 		.word	.LC29
 3963 1a20 84030000 		.word	.LC30
 3964 1a24 B8030000 		.word	.LC31
 3965 1a28 DC030000 		.word	.LC32
 3966 1a2c FC030000 		.word	.LC33
 3967 1a30 20040000 		.word	.LC34
 3968 1a34 54040000 		.word	.LC35
 3969 1a38 88040000 		.word	.LC36
 3970 1a3c AC040000 		.word	.LC37
 3971 1a40 E0040000 		.word	.LC38
 3972 1a44 34050000 		.word	.LC40
 3973 1a48 64050000 		.word	.LC41
 3974 1a4c 8C050000 		.word	.LC42
 3975 1a50 B8050000 		.word	.LC43
 3976 1a54 00000000 		.word	.LANCHOR27
 3977 1a58 88000000 		.word	.LC4
 3978 1a5c 00000000 		.word	buffer
 3979 1a60 90000000 		.word	.LC5
 3980 1a64 B8000000 		.word	.LC10
 3981 1a68 C0000000 		.word	.LC11
 3982 1a6c B00A0000 		.word	.LC84
 3983 1a70 380B0000 		.word	.LC95
 3984 1a74 78000000 		.word	.LC3
 3985 1a78 00000000 		.word	.LANCHOR7
 3986 1a7c 00000000 		.word	.LANCHOR6
 3987              	.LVL365:
 3988              	.L30:
 3989              		.loc 1 270 0
 3990 1a80 B74A     		ldr	r2, .L728
ARM GAS  C:\Users\mathi\AppData\Local\Temp\ccXNOisu.s 			page 71


 3991 1a82 0023     		movs	r3, #0
 3992 1a84 1360     		str	r3, [r2]
 3993 1a86 B74A     		ldr	r2, .L728+4
 3994 1a88 1360     		str	r3, [r2]
 3995 1a8a FEF77EBC 		b	.L42
 3996              	.LVL366:
 3997              	.L85:
 3998              		.loc 1 417 0
 3999 1a8e B64B     		ldr	r3, .L728+8
 4000 1a90 1A78     		ldrb	r2, [r3]	@ zero_extendqisi2
 4001 1a92 B64B     		ldr	r3, .L728+12
 4002 1a94 1B78     		ldrb	r3, [r3]	@ zero_extendqisi2
 4003 1a96 03EB0223 		add	r3, r3, r2, lsl #8
 4004 1a9a B14A     		ldr	r2, .L728
 4005 1a9c 1846     		mov	r0, r3
 4006 1a9e 1360     		str	r3, [r2]
 4007 1aa0 FEF7CEBF 		b	.L97
 4008              	.L118:
 4009              		.loc 1 540 0
 4010 1aa4 B04B     		ldr	r3, .L728+8
 4011 1aa6 1A78     		ldrb	r2, [r3]	@ zero_extendqisi2
 4012 1aa8 B04B     		ldr	r3, .L728+12
 4013 1aaa 1B78     		ldrb	r3, [r3]	@ zero_extendqisi2
 4014 1aac 03EB0223 		add	r3, r3, r2, lsl #8
 4015 1ab0 AF4A     		ldr	r2, .L728+16
 4016 1ab2 1846     		mov	r0, r3
 4017 1ab4 1360     		str	r3, [r2]
 4018 1ab6 FEF7CEBD 		b	.L130
 4019              	.L80:
 4020              		.loc 1 339 0
 4021 1aba 5A1C     		adds	r2, r3, #1
 4022 1abc 0AF80300 		strb	r0, [r10, r3]
 4023 1ac0 CBF80020 		str	r2, [fp]
 4024 1ac4 FEF74DBD 		b	.L47
 4025              	.L697:
 4026              		.loc 1 663 0
 4027 1ac8 AA48     		ldr	r0, .L728+20
 4028 1aca FFF7FEFF 		bl	e_send_uart2_char
 4029              	.LVL367:
 4030              	.L157:
 4031              		.loc 1 664 0 discriminator 1
 4032 1ace FFF7FEFF 		bl	e_uart2_sending
 4033              	.LVL368:
 4034 1ad2 0028     		cmp	r0, #0
 4035 1ad4 FBD1     		bne	.L157
 4036 1ad6 FEF795BB 		b	.L641
 4037              	.L695:
 4038              		.loc 1 486 0
 4039 1ada 0146     		mov	r1, r0
 4040 1adc 1846     		mov	r0, r3
 4041 1ade FFF7FEFF 		bl	e_set_led
 4042              	.LVL369:
 4043              		.loc 1 487 0
 4044 1ae2 FEF73EBD 		b	.L47
 4045              	.L105:
 4046              		.loc 1 480 0
 4047 1ae6 FFF7FEFF 		bl	e_set_body_led
ARM GAS  C:\Users\mathi\AppData\Local\Temp\ccXNOisu.s 			page 72


 4048              	.LVL370:
 4049              		.loc 1 481 0
 4050 1aea FEF73ABD 		b	.L47
 4051              	.L131:
 4052              		.loc 1 567 0
 4053 1aee FFF7FEFF 		bl	getTemperature
 4054              	.LVL371:
 4055 1af2 DBF80020 		ldr	r2, [fp]
 4056 1af6 99F80030 		ldrb	r3, [r9]	@ zero_extendqisi2
 4057 1afa 0AF80200 		strb	r0, [r10, r2]
 4058 1afe 0132     		adds	r2, r2, #1
 4059 1b00 CBF80020 		str	r2, [fp]
 4060              		.loc 1 647 0
 4061 1b04 002B     		cmp	r3, #0
 4062 1b06 7EF490AC 		bne	.L673
 4063 1b0a FEF737BD 		b	.L649
 4064              	.L699:
 4065              		.loc 1 345 0
 4066 1b0e 0121     		movs	r1, #1
 4067 1b10 3846     		mov	r0, r7
 4068 1b12 FFF7FEFF 		bl	e_get_acc_filtered
 4069              	.LVL372:
 4070 1b16 984C     		ldr	r4, .L728+24
 4071              		.loc 1 346 0
 4072 1b18 984D     		ldr	r5, .L728+28
 4073              		.loc 1 345 0
 4074 1b1a 2060     		str	r0, [r4]
 4075              		.loc 1 346 0
 4076 1b1c 0121     		movs	r1, #1
 4077 1b1e 0846     		mov	r0, r1
 4078 1b20 FFF7FEFF 		bl	e_get_acc_filtered
 4079              	.LVL373:
 4080              		.loc 1 347 0
 4081 1b24 0121     		movs	r1, #1
 4082              		.loc 1 346 0
 4083 1b26 2860     		str	r0, [r5]
 4084              		.loc 1 347 0
 4085 1b28 0220     		movs	r0, #2
 4086 1b2a FFF7FEFF 		bl	e_get_acc_filtered
 4087              	.LVL374:
 4088 1b2e 2268     		ldr	r2, [r4]
 4089 1b30 934B     		ldr	r3, .L728+32
 4090 1b32 2C68     		ldr	r4, [r5]
 4091 1b34 1860     		str	r0, [r3]
 4092 1b36 C5B2     		uxtb	r5, r0
 4093 1b38 C0F30723 		ubfx	r3, r0, #8, #8
 4094 1b3c 5FFA84FC 		uxtb	ip, r4
 4095 1b40 D1B2     		uxtb	r1, r2
 4096 1b42 C2F30720 		ubfx	r0, r2, #8, #8
 4097 1b46 C4F30724 		ubfx	r4, r4, #8, #8
 4098 1b4a FEF74CBE 		b	.L82
 4099              	.L701:
 4100              		.loc 1 326 0
 4101 1b4e FFF7FEFF 		bl	VL53L0X_get_dist_mm
 4102              	.LVL375:
 4103              		.loc 1 327 0
 4104 1b52 DBF80030 		ldr	r3, [fp]
ARM GAS  C:\Users\mathi\AppData\Local\Temp\ccXNOisu.s 			page 73


 4105              		.loc 1 328 0
 4106 1b56 0AEB0302 		add	r2, r10, r3
 4107              		.loc 1 327 0
 4108 1b5a 0AF80300 		strb	r0, [r10, r3]
 4109              		.loc 1 328 0
 4110 1b5e 0112     		asrs	r1, r0, #8
 4111 1b60 0233     		adds	r3, r3, #2
 4112 1b62 5170     		strb	r1, [r2, #1]
 4113 1b64 CBF80030 		str	r3, [fp]
 4114 1b68 FEF7FCBC 		b	.L78
 4115              	.L698:
 4116              		.loc 1 440 0
 4117 1b6c 854A     		ldr	r2, .L728+36
 4118 1b6e 8649     		ldr	r1, .L728+40
 4119 1b70 8648     		ldr	r0, .L728+44
 4120 1b72 FFF7FEFF 		bl	getAllAxesGyro
 4121              	.LVL376:
 4122              		.loc 1 441 0
 4123 1b76 854B     		ldr	r3, .L728+44
 4124 1b78 DBF80020 		ldr	r2, [fp]
 4125 1b7c 1968     		ldr	r1, [r3]
 4126              		.loc 1 443 0
 4127 1b7e 824B     		ldr	r3, .L728+40
 4128              		.loc 1 441 0
 4129 1b80 0AF80210 		strb	r1, [r10, r2]
 4130              		.loc 1 443 0
 4131 1b84 1C68     		ldr	r4, [r3]
 4132              		.loc 1 445 0
 4133 1b86 7F4B     		ldr	r3, .L728+36
 4134 1b88 1868     		ldr	r0, [r3]
 4135              		.loc 1 442 0
 4136 1b8a 0AEB0203 		add	r3, r10, r2
 4137 1b8e 0912     		asrs	r1, r1, #8
 4138              		.loc 1 446 0
 4139 1b90 0632     		adds	r2, r2, #6
 4140              		.loc 1 442 0
 4141 1b92 5970     		strb	r1, [r3, #1]
 4142              		.loc 1 446 0
 4143 1b94 CBF80020 		str	r2, [fp]
 4144              		.loc 1 444 0
 4145 1b98 2112     		asrs	r1, r4, #8
 4146              		.loc 1 446 0
 4147 1b9a 0212     		asrs	r2, r0, #8
 4148              		.loc 1 443 0
 4149 1b9c 9C70     		strb	r4, [r3, #2]
 4150              		.loc 1 444 0
 4151 1b9e D970     		strb	r1, [r3, #3]
 4152              		.loc 1 445 0
 4153 1ba0 1871     		strb	r0, [r3, #4]
 4154              		.loc 1 446 0
 4155 1ba2 5A71     		strb	r2, [r3, #5]
 4156 1ba4 FEF7DEBC 		b	.L78
 4157              	.L700:
 4158              		.loc 1 366 0
 4159 1ba8 FFF7FEFF 		bl	e_read_acc_spheric
 4160              	.LVL377:
 4161 1bac 784B     		ldr	r3, .L728+48
ARM GAS  C:\Users\mathi\AppData\Local\Temp\ccXNOisu.s 			page 74


 4162 1bae 83ED000A 		vstr.32	s0, [r3]
 4163 1bb2 9978     		ldrb	r1, [r3, #2]	@ zero_extendqisi2
 4164 1bb4 C3ED010A 		vstr.32	s1, [r3, #4]
 4165 1bb8 0891     		str	r1, [sp, #32]
 4166 1bba D978     		ldrb	r1, [r3, #3]	@ zero_extendqisi2
 4167 1bbc 0991     		str	r1, [sp, #36]
 4168 1bbe 9979     		ldrb	r1, [r3, #6]	@ zero_extendqisi2
 4169 1bc0 83ED021A 		vstr.32	s2, [r3, #8]
 4170 1bc4 0A91     		str	r1, [sp, #40]
 4171 1bc6 D979     		ldrb	r1, [r3, #7]	@ zero_extendqisi2
 4172 1bc8 0B91     		str	r1, [sp, #44]
 4173 1bca 597A     		ldrb	r1, [r3, #9]	@ zero_extendqisi2
 4174 1bcc 0C91     		str	r1, [sp, #48]
 4175 1bce 997A     		ldrb	r1, [r3, #10]	@ zero_extendqisi2
 4176 1bd0 1A78     		ldrb	r2, [r3]	@ zero_extendqisi2
 4177 1bd2 5D78     		ldrb	r5, [r3, #1]	@ zero_extendqisi2
 4178 1bd4 93F804E0 		ldrb	lr, [r3, #4]	@ zero_extendqisi2
 4179 1bd8 5C79     		ldrb	r4, [r3, #5]	@ zero_extendqisi2
 4180 1bda 93F808C0 		ldrb	ip, [r3, #8]	@ zero_extendqisi2
 4181 1bde 0D91     		str	r1, [sp, #52]
 4182 1be0 DB7A     		ldrb	r3, [r3, #11]	@ zero_extendqisi2
 4183 1be2 FEF76CBF 		b	.L84
 4184              	.LVL378:
 4185              	.L693:
 4186              		.loc 1 202 0
 4187 1be6 FFF7FEFF 		bl	e_init_sound
 4188              	.LVL379:
 4189              		.loc 1 203 0
 4190 1bea 6A4A     		ldr	r2, .L728+52
 4191 1bec 0123     		movs	r3, #1
 4192 1bee 1370     		strb	r3, [r2]
 4193 1bf0 FEF7BBBB 		b	.L27
 4194              	.LVL380:
 4195              	.L694:
 4196              		.loc 1 264 0
 4197 1bf4 FFF7FEFF 		bl	e_init_sound
 4198              	.LVL381:
 4199              		.loc 1 265 0
 4200 1bf8 664A     		ldr	r2, .L728+52
 4201 1bfa 0123     		movs	r3, #1
 4202 1bfc 1370     		strb	r3, [r2]
 4203 1bfe FEF705BC 		b	.L43
 4204              	.LVL382:
 4205              	.L696:
 4206              		.loc 1 651 0
 4207 1c02 654B     		ldr	r3, .L728+56
 4208 1c04 1F70     		strb	r7, [r3]
 4209              		.loc 1 652 0
 4210 1c06 FFF7FEFF 		bl	e_poxxxx_wait_img_ready
 4211              	.LVL383:
 4212              		.loc 1 653 0
 4213 1c0a FFF7FEFF 		bl	dcmi_get_last_image_ptr
 4214              	.LVL384:
 4215 1c0e 0E9B     		ldr	r3, [sp, #56]
 4216 1c10 1A68     		ldr	r2, [r3]
 4217 1c12 0F9B     		ldr	r3, [sp, #60]
 4218 1c14 0146     		mov	r1, r0
ARM GAS  C:\Users\mathi\AppData\Local\Temp\ccXNOisu.s 			page 75


 4219 1c16 0AEB0300 		add	r0, r10, r3
 4220 1c1a FFF7FEFF 		bl	memcpy
 4221              	.LVL385:
 4222 1c1e DBF80010 		ldr	r1, [fp]
 4223 1c22 FEF7B8BC 		b	.L155
 4224              	.L313:
 4225              	.LBB6:
 4226              		.loc 1 968 0
 4227 1c26 0121     		movs	r1, #1
 4228 1c28 0820     		movs	r0, #8
 4229 1c2a FFF7FEFF 		bl	e_set_led
 4230              	.LVL386:
 4231              		.loc 1 970 0
 4232 1c2e 4FF4C870 		mov	r0, #400
 4233 1c32 FFF7FEFF 		bl	chThdSleep
 4234              	.LVL387:
 4235              		.loc 1 971 0
 4236 1c36 FFF7FEFF 		bl	e_led_clear
 4237              	.LVL388:
 4238              		.loc 1 973 0
 4239 1c3a 6420     		movs	r0, #100
 4240 1c3c FFF7FEFF 		bl	chThdSleep
 4241              	.LVL389:
 4242              		.loc 1 974 0
 4243 1c40 FFF7FEFF 		bl	e_calibrate_ir
 4244              	.LVL390:
 4245 1c44 FEF74ABA 		b	.L6
 4246              	.LVL391:
 4247              	.L370:
 4248              		.loc 1 1178 0
 4249 1c48 544B     		ldr	r3, .L728+60
 4250 1c4a 5549     		ldr	r1, .L728+64
 4251 1c4c 1A68     		ldr	r2, [r3]
 4252 1c4e 4948     		ldr	r0, .L728+20
 4253 1c50 FFF7FEFF 		bl	sprintf
 4254              	.LVL392:
 4255 1c54 FEF742BA 		b	.L6
 4256              	.L206:
 4257              		.loc 1 697 0
 4258 1c58 524B     		ldr	r3, .L728+68
 4259              	.L668:
 4260              		.loc 1 788 0
 4261 1c5a 03CB     		ldmia	r3!, {r0, r1}
 4262 1c5c 1B88     		ldrh	r3, [r3]	@ unaligned
 4263 1c5e AAF80830 		strh	r3, [r10, #8]	@ unaligned
 4264 1c62 CAF80000 		str	r0, [r10]	@ unaligned
 4265 1c66 CAF80410 		str	r1, [r10, #4]	@ unaligned
 4266 1c6a FEF737BA 		b	.L6
 4267              	.L362:
 4268              		.loc 1 1149 0
 4269 1c6e 4E4B     		ldr	r3, .L728+72
 4270 1c70 1868     		ldr	r0, [r3]
 4271 1c72 9B88     		ldrh	r3, [r3, #4]	@ unaligned
 4272 1c74 CAF80000 		str	r0, [r10]	@ unaligned
 4273 1c78 AAF80430 		strh	r3, [r10, #4]	@ unaligned
 4274 1c7c FEF72EBA 		b	.L6
 4275              	.L232:
ARM GAS  C:\Users\mathi\AppData\Local\Temp\ccXNOisu.s 			page 76


 4276              		.loc 1 788 0
 4277 1c80 4A4B     		ldr	r3, .L728+76
 4278 1c82 EAE7     		b	.L668
 4279              	.L688:
 4280              		.loc 1 708 0
 4281 1c84 FFF7FEFF 		bl	getBatteryValueRaw
 4282              	.LVL393:
 4283 1c88 0446     		mov	r4, r0
 4284 1c8a FFF7FEFF 		bl	getBatteryValuePercentage
 4285              	.LVL394:
 4286 1c8e 2246     		mov	r2, r4
 4287 1c90 0346     		mov	r3, r0
 4288 1c92 4749     		ldr	r1, .L728+80
 4289 1c94 3748     		ldr	r0, .L728+20
 4290 1c96 FFF7FEFF 		bl	sprintf
 4291              	.LVL395:
 4292              	.L401:
 4293 1c9a 3648     		ldr	r0, .L728+20
 4294 1c9c FFF7FEFF 		bl	strlen
 4295              	.LVL396:
 4296              		.loc 1 711 0
 4297 1ca0 079B     		ldr	r3, [sp, #28]
 4298 1ca2 0146     		mov	r1, r0
 4299              		.loc 1 712 0
 4300 1ca4 3348     		ldr	r0, .L728+20
 4301              		.loc 1 711 0
 4302 1ca6 002B     		cmp	r3, #0
 4303 1ca8 00F0EA81 		beq	.L211
 4304              		.loc 1 712 0
 4305 1cac FFF7FEFF 		bl	e_send_uart1_char
 4306              	.LVL397:
 4307              	.L212:
 4308              		.loc 1 712 0 is_stmt 0 discriminator 2
 4309 1cb0 FFF7FEFF 		bl	e_uart1_sending
 4310              	.LVL398:
 4311 1cb4 0028     		cmp	r0, #0
 4312 1cb6 FBD1     		bne	.L212
 4313 1cb8 FEF711BA 		b	.L650
 4314              	.L390:
 4315              		.loc 1 1232 0 is_stmt 1
 4316 1cbc FFF7FEFF 		bl	strlen
 4317              	.LVL399:
 4318 1cc0 0146     		mov	r1, r0
 4319 1cc2 2046     		mov	r0, r4
 4320 1cc4 FFF7FEFF 		bl	e_send_uart2_char
 4321              	.LVL400:
 4322              	.L392:
 4323              		.loc 1 1232 0 is_stmt 0 discriminator 2
 4324 1cc8 FFF7FEFF 		bl	e_uart2_sending
 4325              	.LVL401:
 4326 1ccc 0028     		cmp	r0, #0
 4327 1cce FBD1     		bne	.L392
 4328 1cd0 FFF7C1B8 		b	.L389
 4329              	.L314:
 4330              		.loc 1 965 0 is_stmt 1
 4331 1cd4 FFF7FEFF 		bl	e_send_uart2_char
 4332              	.LVL402:
ARM GAS  C:\Users\mathi\AppData\Local\Temp\ccXNOisu.s 			page 77


 4333              	.L317:
 4334              		.loc 1 965 0 is_stmt 0 discriminator 2
 4335 1cd8 FFF7FEFF 		bl	e_uart2_sending
 4336              	.LVL403:
 4337 1cdc 0028     		cmp	r0, #0
 4338 1cde FBD1     		bne	.L317
 4339              		.loc 1 968 0 is_stmt 1
 4340 1ce0 0121     		movs	r1, #1
 4341 1ce2 0820     		movs	r0, #8
 4342 1ce4 FFF7FEFF 		bl	e_set_led
 4343              	.LVL404:
 4344              		.loc 1 970 0
 4345 1ce8 4FF4C870 		mov	r0, #400
 4346 1cec FFF7FEFF 		bl	chThdSleep
 4347              	.LVL405:
 4348              		.loc 1 971 0
 4349 1cf0 FFF7FEFF 		bl	e_led_clear
 4350              	.LVL406:
 4351              		.loc 1 973 0
 4352 1cf4 6420     		movs	r0, #100
 4353 1cf6 FFF7FEFF 		bl	chThdSleep
 4354              	.LVL407:
 4355              		.loc 1 974 0
 4356 1cfa FFF7FEFF 		bl	e_calibrate_ir
 4357              	.LVL408:
 4358              		.loc 1 980 0
 4359 1cfe 1921     		movs	r1, #25
 4360 1d00 2C48     		ldr	r0, .L728+84
 4361 1d02 FFF7FEFF 		bl	e_send_uart2_char
 4362              	.LVL409:
 4363              	.L320:
 4364              		.loc 1 980 0 is_stmt 0 discriminator 2
 4365 1d06 FFF7FEFF 		bl	e_uart2_sending
 4366              	.LVL410:
 4367 1d0a 0028     		cmp	r0, #0
 4368 1d0c FBD1     		bne	.L320
 4369 1d0e FEF779BA 		b	.L641
 4370              	.LVL411:
 4371              	.L371:
 4372              		.loc 1 1176 0 is_stmt 1
 4373 1d12 FFF7FEFF 		bl	e_send_uart2_char
 4374              	.LVL412:
 4375              	.L374:
 4376              		.loc 1 1176 0 is_stmt 0 discriminator 2
 4377 1d16 FFF7FEFF 		bl	e_uart2_sending
 4378              	.LVL413:
 4379 1d1a 0028     		cmp	r0, #0
 4380 1d1c FBD1     		bne	.L374
 4381              		.loc 1 1178 0 is_stmt 1
 4382 1d1e 1F4B     		ldr	r3, .L728+60
 4383 1d20 1F49     		ldr	r1, .L728+64
 4384 1d22 1A68     		ldr	r2, [r3]
 4385 1d24 1348     		ldr	r0, .L728+20
 4386 1d26 FFF7FEFF 		bl	sprintf
 4387              	.LVL414:
 4388              		.loc 1 1184 0
 4389 1d2a 1248     		ldr	r0, .L728+20
ARM GAS  C:\Users\mathi\AppData\Local\Temp\ccXNOisu.s 			page 78


 4390 1d2c FFF7FEFF 		bl	strlen
 4391              	.LVL415:
 4392 1d30 0146     		mov	r1, r0
 4393 1d32 1048     		ldr	r0, .L728+20
 4394 1d34 FFF7FEFF 		bl	e_send_uart2_char
 4395              	.LVL416:
 4396              	.L377:
 4397              		.loc 1 1184 0 is_stmt 0 discriminator 2
 4398 1d38 FFF7FEFF 		bl	e_uart2_sending
 4399              	.LVL417:
 4400 1d3c 0028     		cmp	r0, #0
 4401 1d3e FBD1     		bne	.L377
 4402 1d40 FEF760BA 		b	.L641
 4403              	.L690:
 4404              		.loc 1 795 0 is_stmt 1
 4405 1d44 0B48     		ldr	r0, .L728+20
 4406 1d46 FFF7FEFF 		bl	strlen
 4407              	.LVL418:
 4408 1d4a 0146     		mov	r1, r0
 4409 1d4c 0948     		ldr	r0, .L728+20
 4410 1d4e FFF7FEFF 		bl	e_send_uart2_char
 4411              	.LVL419:
 4412              	.L236:
 4413              		.loc 1 795 0 is_stmt 0 discriminator 2
 4414 1d52 FFF7FEFF 		bl	e_uart2_sending
 4415              	.LVL420:
 4416 1d56 0028     		cmp	r0, #0
 4417 1d58 FBD1     		bne	.L236
 4418 1d5a FEF753BA 		b	.L641
 4419              	.L729:
 4420 1d5e 00BF     		.align	2
 4421              	.L728:
 4422 1d60 00000000 		.word	.LANCHOR7
 4423 1d64 00000000 		.word	.LANCHOR6
 4424 1d68 00000000 		.word	.LANCHOR17
 4425 1d6c 00000000 		.word	.LANCHOR16
 4426 1d70 00000000 		.word	.LANCHOR22
 4427 1d74 00000000 		.word	buffer
 4428 1d78 00000000 		.word	.LANCHOR12
 4429 1d7c 00000000 		.word	.LANCHOR13
 4430 1d80 00000000 		.word	.LANCHOR14
 4431 1d84 00000000 		.word	.LANCHOR18
 4432 1d88 00000000 		.word	.LANCHOR19
 4433 1d8c 00000000 		.word	.LANCHOR20
 4434 1d90 00000000 		.word	.LANCHOR15
 4435 1d94 00000000 		.word	.LANCHOR8
 4436 1d98 00000000 		.word	.LANCHOR21
 4437 1d9c 00000000 		.word	.LANCHOR0
 4438 1da0 500B0000 		.word	.LC96
 4439 1da4 6C000000 		.word	.LC2
 4440 1da8 BC0A0000 		.word	.LC86
 4441 1dac 08010000 		.word	.LC14
 4442 1db0 78000000 		.word	.LC3
 4443 1db4 640B0000 		.word	.LC97
 4444              	.L237:
 4445              		.loc 1 880 0 is_stmt 1
 4446 1db8 FFF7FEFF 		bl	e_send_uart2_char
ARM GAS  C:\Users\mathi\AppData\Local\Temp\ccXNOisu.s 			page 79


 4447              	.LVL421:
 4448              	.L271:
 4449              		.loc 1 880 0 is_stmt 0 discriminator 2
 4450 1dbc FFF7FEFF 		bl	e_uart2_sending
 4451              	.LVL422:
 4452 1dc0 0028     		cmp	r0, #0
 4453 1dc2 FBD1     		bne	.L271
 4454              		.loc 1 881 0 is_stmt 1
 4455 1dc4 FFF7FEFF 		bl	isEpuckVersion1_3
 4456              	.LVL423:
 4457 1dc8 0028     		cmp	r0, #0
 4458 1dca 00F0FF81 		beq	.L709
 4459              	.L272:
 4460              		.loc 1 884 0
 4461 1dce FFF7FEFF 		bl	isEpuckVersion1_3
 4462              	.LVL424:
 4463 1dd2 0028     		cmp	r0, #0
 4464 1dd4 00F0BD81 		beq	.L274
 4465              		.loc 1 885 0
 4466 1dd8 1921     		movs	r1, #25
 4467 1dda BF48     		ldr	r0, .L730
 4468 1ddc FFF7FEFF 		bl	e_send_uart2_char
 4469              	.LVL425:
 4470              	.L275:
 4471              		.loc 1 885 0 is_stmt 0 discriminator 2
 4472 1de0 FFF7FEFF 		bl	e_uart2_sending
 4473              	.LVL426:
 4474 1de4 0028     		cmp	r0, #0
 4475 1de6 FBD1     		bne	.L275
 4476              	.L276:
 4477              		.loc 1 889 0 is_stmt 1
 4478 1de8 2B21     		movs	r1, #43
 4479 1dea BC48     		ldr	r0, .L730+4
 4480 1dec FFF7FEFF 		bl	e_send_uart2_char
 4481              	.LVL427:
 4482              	.L278:
 4483              		.loc 1 889 0 is_stmt 0 discriminator 2
 4484 1df0 FFF7FEFF 		bl	e_uart2_sending
 4485              	.LVL428:
 4486 1df4 0028     		cmp	r0, #0
 4487 1df6 FBD1     		bne	.L278
 4488              		.loc 1 890 0 is_stmt 1
 4489 1df8 1D21     		movs	r1, #29
 4490 1dfa B948     		ldr	r0, .L730+8
 4491 1dfc FFF7FEFF 		bl	e_send_uart2_char
 4492              	.LVL429:
 4493              	.L279:
 4494              		.loc 1 890 0 is_stmt 0 discriminator 2
 4495 1e00 FFF7FEFF 		bl	e_uart2_sending
 4496              	.LVL430:
 4497 1e04 0028     		cmp	r0, #0
 4498 1e06 FBD1     		bne	.L279
 4499              		.loc 1 891 0 is_stmt 1
 4500 1e08 2621     		movs	r1, #38
 4501 1e0a B648     		ldr	r0, .L730+12
 4502 1e0c FFF7FEFF 		bl	e_send_uart2_char
 4503              	.LVL431:
ARM GAS  C:\Users\mathi\AppData\Local\Temp\ccXNOisu.s 			page 80


 4504              	.L280:
 4505              		.loc 1 891 0 is_stmt 0 discriminator 2
 4506 1e10 FFF7FEFF 		bl	e_uart2_sending
 4507              	.LVL432:
 4508 1e14 0028     		cmp	r0, #0
 4509 1e16 FBD1     		bne	.L280
 4510              		.loc 1 892 0 is_stmt 1
 4511 1e18 2621     		movs	r1, #38
 4512 1e1a B348     		ldr	r0, .L730+16
 4513 1e1c FFF7FEFF 		bl	e_send_uart2_char
 4514              	.LVL433:
 4515              	.L281:
 4516              		.loc 1 892 0 is_stmt 0 discriminator 2
 4517 1e20 FFF7FEFF 		bl	e_uart2_sending
 4518              	.LVL434:
 4519 1e24 0028     		cmp	r0, #0
 4520 1e26 FBD1     		bne	.L281
 4521              		.loc 1 893 0 is_stmt 1
 4522 1e28 2C21     		movs	r1, #44
 4523 1e2a B048     		ldr	r0, .L730+20
 4524 1e2c FFF7FEFF 		bl	e_send_uart2_char
 4525              	.LVL435:
 4526              	.L282:
 4527              		.loc 1 893 0 is_stmt 0 discriminator 2
 4528 1e30 FFF7FEFF 		bl	e_uart2_sending
 4529              	.LVL436:
 4530 1e34 0028     		cmp	r0, #0
 4531 1e36 FBD1     		bne	.L282
 4532              		.loc 1 895 0 is_stmt 1
 4533 1e38 1721     		movs	r1, #23
 4534 1e3a AD48     		ldr	r0, .L730+24
 4535 1e3c FFF7FEFF 		bl	e_send_uart2_char
 4536              	.LVL437:
 4537              	.L283:
 4538              		.loc 1 895 0 is_stmt 0 discriminator 2
 4539 1e40 FFF7FEFF 		bl	e_uart2_sending
 4540              	.LVL438:
 4541 1e44 0028     		cmp	r0, #0
 4542 1e46 FBD1     		bne	.L283
 4543              		.loc 1 897 0 is_stmt 1
 4544 1e48 1021     		movs	r1, #16
 4545 1e4a AA48     		ldr	r0, .L730+28
 4546 1e4c FFF7FEFF 		bl	e_send_uart2_char
 4547              	.LVL439:
 4548              	.L284:
 4549              		.loc 1 897 0 is_stmt 0 discriminator 2
 4550 1e50 FFF7FEFF 		bl	e_uart2_sending
 4551              	.LVL440:
 4552 1e54 0028     		cmp	r0, #0
 4553 1e56 FBD1     		bne	.L284
 4554              		.loc 1 898 0 is_stmt 1
 4555 1e58 2221     		movs	r1, #34
 4556 1e5a A748     		ldr	r0, .L730+32
 4557 1e5c FFF7FEFF 		bl	e_send_uart2_char
 4558              	.LVL441:
 4559              	.L285:
 4560              		.loc 1 898 0 is_stmt 0 discriminator 2
ARM GAS  C:\Users\mathi\AppData\Local\Temp\ccXNOisu.s 			page 81


 4561 1e60 FFF7FEFF 		bl	e_uart2_sending
 4562              	.LVL442:
 4563 1e64 0028     		cmp	r0, #0
 4564 1e66 FBD1     		bne	.L285
 4565              		.loc 1 899 0 is_stmt 1
 4566 1e68 4D21     		movs	r1, #77
 4567 1e6a A448     		ldr	r0, .L730+36
 4568 1e6c FFF7FEFF 		bl	e_send_uart2_char
 4569              	.LVL443:
 4570              	.L286:
 4571              		.loc 1 899 0 is_stmt 0 discriminator 2
 4572 1e70 FFF7FEFF 		bl	e_uart2_sending
 4573              	.LVL444:
 4574 1e74 0028     		cmp	r0, #0
 4575 1e76 FBD1     		bne	.L286
 4576              		.loc 1 900 0 is_stmt 1
 4577 1e78 2721     		movs	r1, #39
 4578 1e7a A148     		ldr	r0, .L730+40
 4579 1e7c FFF7FEFF 		bl	e_send_uart2_char
 4580              	.LVL445:
 4581              	.L287:
 4582              		.loc 1 900 0 is_stmt 0 discriminator 2
 4583 1e80 FFF7FEFF 		bl	e_uart2_sending
 4584              	.LVL446:
 4585 1e84 0028     		cmp	r0, #0
 4586 1e86 FBD1     		bne	.L287
 4587              		.loc 1 901 0 is_stmt 1
 4588 1e88 2B21     		movs	r1, #43
 4589 1e8a 9E48     		ldr	r0, .L730+44
 4590 1e8c FFF7FEFF 		bl	e_send_uart2_char
 4591              	.LVL447:
 4592              	.L288:
 4593              		.loc 1 901 0 is_stmt 0 discriminator 2
 4594 1e90 FFF7FEFF 		bl	e_uart2_sending
 4595              	.LVL448:
 4596 1e94 0028     		cmp	r0, #0
 4597 1e96 FBD1     		bne	.L288
 4598              		.loc 1 903 0 is_stmt 1
 4599 1e98 1921     		movs	r1, #25
 4600 1e9a 9B48     		ldr	r0, .L730+48
 4601 1e9c FFF7FEFF 		bl	e_send_uart2_char
 4602              	.LVL449:
 4603              	.L289:
 4604              		.loc 1 903 0 is_stmt 0 discriminator 2
 4605 1ea0 FFF7FEFF 		bl	e_uart2_sending
 4606              	.LVL450:
 4607 1ea4 0028     		cmp	r0, #0
 4608 1ea6 FBD1     		bne	.L289
 4609              		.loc 1 905 0 is_stmt 1
 4610 1ea8 1521     		movs	r1, #21
 4611 1eaa 9848     		ldr	r0, .L730+52
 4612 1eac FFF7FEFF 		bl	e_send_uart2_char
 4613              	.LVL451:
 4614              	.L290:
 4615              		.loc 1 905 0 is_stmt 0 discriminator 2
 4616 1eb0 FFF7FEFF 		bl	e_uart2_sending
 4617              	.LVL452:
ARM GAS  C:\Users\mathi\AppData\Local\Temp\ccXNOisu.s 			page 82


 4618 1eb4 0028     		cmp	r0, #0
 4619 1eb6 FBD1     		bne	.L290
 4620              		.loc 1 906 0 is_stmt 1
 4621 1eb8 1921     		movs	r1, #25
 4622 1eba 9548     		ldr	r0, .L730+56
 4623 1ebc FFF7FEFF 		bl	e_send_uart2_char
 4624              	.LVL453:
 4625              	.L291:
 4626              		.loc 1 906 0 is_stmt 0 discriminator 2
 4627 1ec0 FFF7FEFF 		bl	e_uart2_sending
 4628              	.LVL454:
 4629 1ec4 0028     		cmp	r0, #0
 4630 1ec6 FBD1     		bne	.L291
 4631              		.loc 1 907 0 is_stmt 1
 4632 1ec8 2921     		movs	r1, #41
 4633 1eca 9248     		ldr	r0, .L730+60
 4634 1ecc FFF7FEFF 		bl	e_send_uart2_char
 4635              	.LVL455:
 4636              	.L292:
 4637              		.loc 1 907 0 is_stmt 0 discriminator 2
 4638 1ed0 FFF7FEFF 		bl	e_uart2_sending
 4639              	.LVL456:
 4640 1ed4 0028     		cmp	r0, #0
 4641 1ed6 FBD1     		bne	.L292
 4642              		.loc 1 908 0 is_stmt 1
 4643 1ed8 2921     		movs	r1, #41
 4644 1eda 8F48     		ldr	r0, .L730+64
 4645 1edc FFF7FEFF 		bl	e_send_uart2_char
 4646              	.LVL457:
 4647              	.L293:
 4648              		.loc 1 908 0 is_stmt 0 discriminator 2
 4649 1ee0 FFF7FEFF 		bl	e_uart2_sending
 4650              	.LVL458:
 4651 1ee4 0028     		cmp	r0, #0
 4652 1ee6 FBD1     		bne	.L293
 4653              		.loc 1 909 0 is_stmt 1
 4654 1ee8 1821     		movs	r1, #24
 4655 1eea 8C48     		ldr	r0, .L730+68
 4656 1eec FFF7FEFF 		bl	e_send_uart2_char
 4657              	.LVL459:
 4658              	.L294:
 4659              		.loc 1 909 0 is_stmt 0 discriminator 2
 4660 1ef0 FFF7FEFF 		bl	e_uart2_sending
 4661              	.LVL460:
 4662 1ef4 0028     		cmp	r0, #0
 4663 1ef6 FBD1     		bne	.L294
 4664              		.loc 1 910 0 is_stmt 1
 4665 1ef8 2921     		movs	r1, #41
 4666 1efa 8948     		ldr	r0, .L730+72
 4667 1efc FFF7FEFF 		bl	e_send_uart2_char
 4668              	.LVL461:
 4669              	.L295:
 4670              		.loc 1 910 0 is_stmt 0 discriminator 2
 4671 1f00 FFF7FEFF 		bl	e_uart2_sending
 4672              	.LVL462:
 4673 1f04 0028     		cmp	r0, #0
 4674 1f06 FBD1     		bne	.L295
ARM GAS  C:\Users\mathi\AppData\Local\Temp\ccXNOisu.s 			page 83


 4675              		.loc 1 911 0 is_stmt 1
 4676 1f08 2C21     		movs	r1, #44
 4677 1f0a 8648     		ldr	r0, .L730+76
 4678 1f0c FFF7FEFF 		bl	e_send_uart2_char
 4679              	.LVL463:
 4680              	.L296:
 4681              		.loc 1 911 0 is_stmt 0 discriminator 2
 4682 1f10 FFF7FEFF 		bl	e_uart2_sending
 4683              	.LVL464:
 4684 1f14 0028     		cmp	r0, #0
 4685 1f16 FBD1     		bne	.L296
 4686              		.loc 1 912 0 is_stmt 1
 4687 1f18 2421     		movs	r1, #36
 4688 1f1a 8348     		ldr	r0, .L730+80
 4689 1f1c FFF7FEFF 		bl	e_send_uart2_char
 4690              	.LVL465:
 4691              	.L297:
 4692              		.loc 1 912 0 is_stmt 0 discriminator 2
 4693 1f20 FFF7FEFF 		bl	e_uart2_sending
 4694              	.LVL466:
 4695 1f24 0028     		cmp	r0, #0
 4696 1f26 FBD1     		bne	.L297
 4697              		.loc 1 913 0 is_stmt 1
 4698 1f28 1D21     		movs	r1, #29
 4699 1f2a 8048     		ldr	r0, .L730+84
 4700 1f2c FFF7FEFF 		bl	e_send_uart2_char
 4701              	.LVL467:
 4702              	.L298:
 4703              		.loc 1 913 0 is_stmt 0 discriminator 2
 4704 1f30 FFF7FEFF 		bl	e_uart2_sending
 4705              	.LVL468:
 4706 1f34 0028     		cmp	r0, #0
 4707 1f36 FBD1     		bne	.L298
 4708              		.loc 1 914 0 is_stmt 1
 4709 1f38 2521     		movs	r1, #37
 4710 1f3a 7D48     		ldr	r0, .L730+88
 4711 1f3c FFF7FEFF 		bl	e_send_uart2_char
 4712              	.LVL469:
 4713              	.L299:
 4714              		.loc 1 914 0 is_stmt 0 discriminator 2
 4715 1f40 FFF7FEFF 		bl	e_uart2_sending
 4716              	.LVL470:
 4717 1f44 0028     		cmp	r0, #0
 4718 1f46 FBD1     		bne	.L299
 4719              		.loc 1 915 0 is_stmt 1
 4720 1f48 2421     		movs	r1, #36
 4721 1f4a 7A48     		ldr	r0, .L730+92
 4722 1f4c FFF7FEFF 		bl	e_send_uart2_char
 4723              	.LVL471:
 4724              	.L300:
 4725              		.loc 1 915 0 is_stmt 0 discriminator 2
 4726 1f50 FFF7FEFF 		bl	e_uart2_sending
 4727              	.LVL472:
 4728 1f54 0028     		cmp	r0, #0
 4729 1f56 FBD1     		bne	.L300
 4730 1f58 FEF754B9 		b	.L641
 4731              	.L359:
ARM GAS  C:\Users\mathi\AppData\Local\Temp\ccXNOisu.s 			page 84


 4732              		.loc 1 1141 0 is_stmt 1
 4733 1f5c FFF7FEFF 		bl	e_send_uart2_char
 4734              	.LVL473:
 4735              	.L361:
 4736              		.loc 1 1141 0 is_stmt 0 discriminator 2
 4737 1f60 FFF7FEFF 		bl	e_uart2_sending
 4738              	.LVL474:
 4739 1f64 0028     		cmp	r0, #0
 4740 1f66 FBD1     		bne	.L361
 4741 1f68 FEF74CB9 		b	.L641
 4742              	.L223:
 4743              		.loc 1 758 0 is_stmt 1
 4744 1f6c FFF7FEFF 		bl	e_send_uart2_char
 4745              	.LVL475:
 4746              	.L225:
 4747              		.loc 1 758 0 is_stmt 0 discriminator 2
 4748 1f70 FFF7FEFF 		bl	e_uart2_sending
 4749              	.LVL476:
 4750 1f74 0028     		cmp	r0, #0
 4751 1f76 FBD1     		bne	.L225
 4752 1f78 FEF744B9 		b	.L641
 4753              	.L229:
 4754              		.loc 1 780 0 is_stmt 1
 4755 1f7c FFF7FEFF 		bl	e_send_uart2_char
 4756              	.LVL477:
 4757              	.L231:
 4758              		.loc 1 780 0 is_stmt 0 discriminator 2
 4759 1f80 FFF7FEFF 		bl	e_uart2_sending
 4760              	.LVL478:
 4761 1f84 0028     		cmp	r0, #0
 4762 1f86 FBD1     		bne	.L231
 4763 1f88 FEF73CB9 		b	.L641
 4764              	.L347:
 4765              		.loc 1 1110 0 is_stmt 1
 4766 1f8c FFF7FEFF 		bl	e_send_uart2_char
 4767              	.LVL479:
 4768              	.L349:
 4769              		.loc 1 1110 0 is_stmt 0 discriminator 2
 4770 1f90 FFF7FEFF 		bl	e_uart2_sending
 4771              	.LVL480:
 4772 1f94 0028     		cmp	r0, #0
 4773 1f96 FBD1     		bne	.L349
 4774 1f98 FEF734B9 		b	.L641
 4775              	.L217:
 4776              		.loc 1 736 0 is_stmt 1
 4777 1f9c FFF7FEFF 		bl	e_send_uart2_char
 4778              	.LVL481:
 4779              	.L219:
 4780              		.loc 1 736 0 is_stmt 0 discriminator 2
 4781 1fa0 FFF7FEFF 		bl	e_uart2_sending
 4782              	.LVL482:
 4783 1fa4 0028     		cmp	r0, #0
 4784 1fa6 FBD1     		bne	.L219
 4785 1fa8 FEF72CB9 		b	.L641
 4786              	.L220:
 4787              		.loc 1 748 0 is_stmt 1
 4788 1fac FFF7FEFF 		bl	e_send_uart2_char
ARM GAS  C:\Users\mathi\AppData\Local\Temp\ccXNOisu.s 			page 85


 4789              	.LVL483:
 4790              	.L222:
 4791              		.loc 1 748 0 is_stmt 0 discriminator 2
 4792 1fb0 FFF7FEFF 		bl	e_uart2_sending
 4793              	.LVL484:
 4794 1fb4 0028     		cmp	r0, #0
 4795 1fb6 FBD1     		bne	.L222
 4796 1fb8 FEF724B9 		b	.L641
 4797              	.L214:
 4798              		.loc 1 725 0 is_stmt 1
 4799 1fbc FFF7FEFF 		bl	e_send_uart2_char
 4800              	.LVL485:
 4801              	.L216:
 4802              		.loc 1 725 0 is_stmt 0 discriminator 2
 4803 1fc0 FFF7FEFF 		bl	e_uart2_sending
 4804              	.LVL486:
 4805 1fc4 0028     		cmp	r0, #0
 4806 1fc6 FBD1     		bne	.L216
 4807 1fc8 FEF71CB9 		b	.L641
 4808              	.L321:
 4809              		.loc 1 991 0 is_stmt 1
 4810 1fcc FFF7FEFF 		bl	e_send_uart2_char
 4811              	.LVL487:
 4812              	.L323:
 4813              		.loc 1 991 0 is_stmt 0 discriminator 2
 4814 1fd0 FFF7FEFF 		bl	e_uart2_sending
 4815              	.LVL488:
 4816 1fd4 0028     		cmp	r0, #0
 4817 1fd6 FBD1     		bne	.L323
 4818 1fd8 FEF714B9 		b	.L641
 4819              	.L226:
 4820              		.loc 1 769 0 is_stmt 1
 4821 1fdc FFF7FEFF 		bl	e_send_uart2_char
 4822              	.LVL489:
 4823              	.L228:
 4824              		.loc 1 769 0 is_stmt 0 discriminator 2
 4825 1fe0 FFF7FEFF 		bl	e_uart2_sending
 4826              	.LVL490:
 4827 1fe4 0028     		cmp	r0, #0
 4828 1fe6 FBD1     		bne	.L228
 4829 1fe8 FEF70CB9 		b	.L641
 4830              	.L341:
 4831              		.loc 1 1080 0 is_stmt 1
 4832 1fec FFF7FEFF 		bl	e_send_uart2_char
 4833              	.LVL491:
 4834              	.L343:
 4835              		.loc 1 1080 0 is_stmt 0 discriminator 2
 4836 1ff0 FFF7FEFF 		bl	e_uart2_sending
 4837              	.LVL492:
 4838 1ff4 0028     		cmp	r0, #0
 4839 1ff6 FBD1     		bne	.L343
 4840 1ff8 FEF704B9 		b	.L641
 4841              	.L394:
 4842              		.loc 1 1244 0 is_stmt 1
 4843 1ffc FFF7FEFF 		bl	e_send_uart2_char
 4844              	.LVL493:
 4845              	.L396:
ARM GAS  C:\Users\mathi\AppData\Local\Temp\ccXNOisu.s 			page 86


 4846              		.loc 1 1244 0 is_stmt 0 discriminator 2
 4847 2000 FFF7FEFF 		bl	e_uart2_sending
 4848              	.LVL494:
 4849 2004 0028     		cmp	r0, #0
 4850 2006 FBD1     		bne	.L396
 4851 2008 FEF7FCB8 		b	.L641
 4852              	.L338:
 4853              		.loc 1 1068 0 is_stmt 1
 4854 200c FFF7FEFF 		bl	e_send_uart2_char
 4855              	.LVL495:
 4856              	.L340:
 4857              		.loc 1 1068 0 is_stmt 0 discriminator 2
 4858 2010 FFF7FEFF 		bl	e_uart2_sending
 4859              	.LVL496:
 4860 2014 0028     		cmp	r0, #0
 4861 2016 FBD1     		bne	.L340
 4862 2018 FEF7F4B8 		b	.L641
 4863              	.L367:
 4864              		.loc 1 1167 0 is_stmt 1
 4865 201c FFF7FEFF 		bl	e_send_uart2_char
 4866              	.LVL497:
 4867              	.L369:
 4868              		.loc 1 1167 0 is_stmt 0 discriminator 2
 4869 2020 FFF7FEFF 		bl	e_uart2_sending
 4870              	.LVL498:
 4871 2024 0028     		cmp	r0, #0
 4872 2026 FBD1     		bne	.L369
 4873 2028 FEF7ECB8 		b	.L641
 4874              	.L344:
 4875              		.loc 1 1090 0 is_stmt 1
 4876 202c FFF7FEFF 		bl	e_send_uart2_char
 4877              	.LVL499:
 4878              	.L346:
 4879              		.loc 1 1090 0 is_stmt 0 discriminator 2
 4880 2030 FFF7FEFF 		bl	e_uart2_sending
 4881              	.LVL500:
 4882 2034 0028     		cmp	r0, #0
 4883 2036 FBD1     		bne	.L346
 4884 2038 FEF7E4B8 		b	.L641
 4885              	.L706:
 4886              		.loc 1 704 0 is_stmt 1
 4887 203c 3E48     		ldr	r0, .L730+96
 4888 203e FFF7FEFF 		bl	strlen
 4889              	.LVL501:
 4890 2042 0146     		mov	r1, r0
 4891 2044 3C48     		ldr	r0, .L730+96
 4892 2046 FFF7FEFF 		bl	e_send_uart2_char
 4893              	.LVL502:
 4894              	.L210:
 4895              		.loc 1 704 0 is_stmt 0 discriminator 2
 4896 204a FFF7FEFF 		bl	e_uart2_sending
 4897              	.LVL503:
 4898 204e 0028     		cmp	r0, #0
 4899 2050 FBD1     		bne	.L210
 4900 2052 FEF7D7B8 		b	.L641
 4901              	.L705:
 4902              		.loc 1 1156 0 is_stmt 1
ARM GAS  C:\Users\mathi\AppData\Local\Temp\ccXNOisu.s 			page 87


 4903 2056 3848     		ldr	r0, .L730+96
 4904 2058 FFF7FEFF 		bl	strlen
 4905              	.LVL504:
 4906 205c 0146     		mov	r1, r0
 4907 205e 3648     		ldr	r0, .L730+96
 4908 2060 FFF7FEFF 		bl	e_send_uart2_char
 4909              	.LVL505:
 4910              	.L366:
 4911              		.loc 1 1156 0 is_stmt 0 discriminator 2
 4912 2064 FFF7FEFF 		bl	e_uart2_sending
 4913              	.LVL506:
 4914 2068 0028     		cmp	r0, #0
 4915 206a FBD1     		bne	.L366
 4916 206c FEF7CAB8 		b	.L641
 4917              	.L335:
 4918              		.loc 1 1056 0 is_stmt 1
 4919 2070 FFF7FEFF 		bl	e_send_uart2_char
 4920              	.LVL507:
 4921              	.L337:
 4922              		.loc 1 1056 0 is_stmt 0 discriminator 2
 4923 2074 FFF7FEFF 		bl	e_uart2_sending
 4924              	.LVL508:
 4925 2078 0028     		cmp	r0, #0
 4926 207a FBD1     		bne	.L337
 4927 207c FEF7C2B8 		b	.L641
 4928              	.L211:
 4929              		.loc 1 714 0 is_stmt 1
 4930 2080 FFF7FEFF 		bl	e_send_uart2_char
 4931              	.LVL509:
 4932              	.L213:
 4933              		.loc 1 714 0 is_stmt 0 discriminator 2
 4934 2084 FFF7FEFF 		bl	e_uart2_sending
 4935              	.LVL510:
 4936 2088 0028     		cmp	r0, #0
 4937 208a FBD1     		bne	.L213
 4938 208c FEF7BAB8 		b	.L641
 4939              	.L351:
 4940              		.loc 1 1131 0 is_stmt 1
 4941 2090 FFF7FEFF 		bl	e_close_sound
 4942              	.LVL511:
 4943              		.loc 1 1132 0
 4944 2094 FFF7FEFF 		bl	stopCurrentMelody
 4945              	.LVL512:
 4946              		.loc 1 1133 0
 4947 2098 284A     		ldr	r2, .L730+100
 4948 209a 0023     		movs	r3, #0
 4949 209c 1370     		strb	r3, [r2]
 4950              		.loc 1 1134 0
 4951 209e 49E4     		b	.L358
 4952              	.L378:
 4953              		.loc 1 1196 0
 4954 20a0 FFF7FEFF 		bl	e_send_uart2_char
 4955              	.LVL513:
 4956              	.L380:
 4957              		.loc 1 1196 0 is_stmt 0 discriminator 2
 4958 20a4 FFF7FEFF 		bl	e_uart2_sending
 4959              	.LVL514:
ARM GAS  C:\Users\mathi\AppData\Local\Temp\ccXNOisu.s 			page 88


 4960 20a8 0028     		cmp	r0, #0
 4961 20aa FBD1     		bne	.L380
 4962 20ac FEF7AAB8 		b	.L641
 4963              	.L310:
 4964              		.loc 1 955 0 is_stmt 1
 4965 20b0 FFF7FEFF 		bl	e_send_uart2_char
 4966              	.LVL515:
 4967              	.L312:
 4968              		.loc 1 955 0 is_stmt 0 discriminator 2
 4969 20b4 FFF7FEFF 		bl	e_uart2_sending
 4970              	.LVL516:
 4971 20b8 0028     		cmp	r0, #0
 4972 20ba FBD1     		bne	.L312
 4973 20bc FEF7A2B8 		b	.L641
 4974              	.L301:
 4975              		.loc 1 924 0 is_stmt 1
 4976 20c0 FFF7FEFF 		bl	strlen
 4977              	.LVL517:
 4978 20c4 0146     		mov	r1, r0
 4979 20c6 1C48     		ldr	r0, .L730+96
 4980 20c8 FFF7FEFF 		bl	e_send_uart2_char
 4981              	.LVL518:
 4982              	.L303:
 4983              		.loc 1 924 0 is_stmt 0 discriminator 2
 4984 20cc FFF7FEFF 		bl	e_uart2_sending
 4985              	.LVL519:
 4986 20d0 0028     		cmp	r0, #0
 4987 20d2 FBD1     		bne	.L303
 4988 20d4 FEF796B8 		b	.L641
 4989              	.L731:
 4990              		.align	2
 4991              	.L730:
 4992 20d8 00060000 		.word	.LC45
 4993 20dc 44060000 		.word	.LC47
 4994 20e0 70060000 		.word	.LC48
 4995 20e4 90060000 		.word	.LC49
 4996 20e8 B8060000 		.word	.LC50
 4997 20ec E0060000 		.word	.LC51
 4998 20f0 10070000 		.word	.LC52
 4999 20f4 28070000 		.word	.LC53
 5000 20f8 3C070000 		.word	.LC54
 5001 20fc 60070000 		.word	.LC55
 5002 2100 B0070000 		.word	.LC56
 5003 2104 D8070000 		.word	.LC57
 5004 2108 04080000 		.word	.LC58
 5005 210c 20080000 		.word	.LC59
 5006 2110 38080000 		.word	.LC60
 5007 2114 54080000 		.word	.LC61
 5008 2118 80080000 		.word	.LC62
 5009 211c AC080000 		.word	.LC63
 5010 2120 C8080000 		.word	.LC64
 5011 2124 F4080000 		.word	.LC65
 5012 2128 24090000 		.word	.LC66
 5013 212c 4C090000 		.word	.LC67
 5014 2130 6C090000 		.word	.LC68
 5015 2134 94090000 		.word	.LC69
 5016 2138 00000000 		.word	buffer
ARM GAS  C:\Users\mathi\AppData\Local\Temp\ccXNOisu.s 			page 89


 5017 213c 00000000 		.word	.LANCHOR8
 5018              	.L304:
 5019              		.loc 1 936 0 is_stmt 1
 5020 2140 109B     		ldr	r3, [sp, #64]
 5021 2142 1A68     		ldr	r2, [r3]
 5022 2144 119B     		ldr	r3, [sp, #68]
 5023 2146 1B68     		ldr	r3, [r3]
 5024 2148 03FB02F3 		mul	r3, r3, r2
 5025 214c 5B00     		lsls	r3, r3, #1
 5026 214e FEF7B5BF 		b	.L305
 5027              	.L274:
 5028              		.loc 1 887 0
 5029 2152 2721     		movs	r1, #39
 5030 2154 4848     		ldr	r0, .L732
 5031 2156 FFF7FEFF 		bl	e_send_uart2_char
 5032              	.LVL520:
 5033              	.L277:
 5034              		.loc 1 887 0 is_stmt 0 discriminator 2
 5035 215a FFF7FEFF 		bl	e_uart2_sending
 5036              	.LVL521:
 5037 215e 0028     		cmp	r0, #0
 5038 2160 FBD1     		bne	.L277
 5039 2162 41E6     		b	.L276
 5040              	.L241:
 5041              		.loc 1 845 0 is_stmt 1
 5042 2164 2F21     		movs	r1, #47
 5043 2166 4548     		ldr	r0, .L732+4
 5044 2168 FFF7FEFF 		bl	e_send_uart1_char
 5045              	.LVL522:
 5046              	.L244:
 5047              		.loc 1 845 0 is_stmt 0 discriminator 2
 5048 216c FFF7FEFF 		bl	e_uart1_sending
 5049              	.LVL523:
 5050 2170 0028     		cmp	r0, #0
 5051 2172 FBD1     		bne	.L244
 5052 2174 FFF7E8BA 		b	.L243
 5053              	.L332:
 5054              		.loc 1 1034 0 is_stmt 1
 5055 2178 FFF7FEFF 		bl	strlen
 5056              	.LVL524:
 5057 217c 0146     		mov	r1, r0
 5058 217e 4048     		ldr	r0, .L732+8
 5059 2180 FFF7FEFF 		bl	e_send_uart2_char
 5060              	.LVL525:
 5061              	.L334:
 5062              		.loc 1 1034 0 is_stmt 0 discriminator 2
 5063 2184 FFF7FEFF 		bl	e_uart2_sending
 5064              	.LVL526:
 5065 2188 0028     		cmp	r0, #0
 5066 218a FBD1     		bne	.L334
 5067 218c FEF73AB8 		b	.L641
 5068              	.L386:
 5069              		.loc 1 1217 0 is_stmt 1
 5070 2190 FFF7FEFF 		bl	e_send_uart2_char
 5071              	.LVL527:
 5072              	.L388:
 5073              		.loc 1 1217 0 is_stmt 0 discriminator 2
ARM GAS  C:\Users\mathi\AppData\Local\Temp\ccXNOisu.s 			page 90


 5074 2194 FFF7FEFF 		bl	e_uart2_sending
 5075              	.LVL528:
 5076 2198 0028     		cmp	r0, #0
 5077 219a FBD1     		bne	.L388
 5078 219c FEF732B8 		b	.L641
 5079              	.L381:
 5080              		.loc 1 1207 0 is_stmt 1
 5081 21a0 FFF7FEFF 		bl	strlen
 5082              	.LVL529:
 5083 21a4 0146     		mov	r1, r0
 5084 21a6 3648     		ldr	r0, .L732+8
 5085 21a8 FFF7FEFF 		bl	e_send_uart2_char
 5086              	.LVL530:
 5087              	.L384:
 5088              		.loc 1 1207 0 is_stmt 0 discriminator 2
 5089 21ac FFF7FEFF 		bl	e_uart2_sending
 5090              	.LVL531:
 5091 21b0 0028     		cmp	r0, #0
 5092 21b2 FBD1     		bne	.L384
 5093 21b4 FFF708B8 		b	.L383
 5094              	.L707:
 5095              		.loc 1 855 0 is_stmt 1
 5096 21b8 1821     		movs	r1, #24
 5097 21ba 3248     		ldr	r0, .L732+12
 5098 21bc FFF7FEFF 		bl	e_send_uart1_char
 5099              	.LVL532:
 5100              	.L251:
 5101              		.loc 1 855 0 is_stmt 0 discriminator 2
 5102 21c0 FFF7FEFF 		bl	e_uart1_sending
 5103              	.LVL533:
 5104 21c4 0028     		cmp	r0, #0
 5105 21c6 FBD1     		bne	.L251
 5106 21c8 FFF7EBBA 		b	.L250
 5107              	.L709:
 5108              		.loc 1 882 0 is_stmt 1
 5109 21cc 1921     		movs	r1, #25
 5110 21ce 2E48     		ldr	r0, .L732+16
 5111 21d0 FFF7FEFF 		bl	e_send_uart2_char
 5112              	.LVL534:
 5113              	.L273:
 5114              		.loc 1 882 0 is_stmt 0 discriminator 2
 5115 21d4 FFF7FEFF 		bl	e_uart2_sending
 5116              	.LVL535:
 5117 21d8 0028     		cmp	r0, #0
 5118 21da FBD1     		bne	.L273
 5119 21dc F7E5     		b	.L272
 5120              	.L708:
 5121              		.loc 1 873 0 is_stmt 1
 5122 21de 1F21     		movs	r1, #31
 5123 21e0 2A48     		ldr	r0, .L732+20
 5124 21e2 FFF7FEFF 		bl	e_send_uart1_char
 5125              	.LVL536:
 5126              	.L266:
 5127              		.loc 1 873 0 is_stmt 0 discriminator 2
 5128 21e6 FFF7FEFF 		bl	e_uart1_sending
 5129              	.LVL537:
 5130 21ea 0028     		cmp	r0, #0
ARM GAS  C:\Users\mathi\AppData\Local\Temp\ccXNOisu.s 			page 91


 5131 21ec FBD1     		bne	.L266
 5132 21ee FFF745BB 		b	.L265
 5133              	.L204:
 5134              		.loc 1 708 0 is_stmt 1
 5135 21f2 FFF7FEFF 		bl	getBatteryValueRaw
 5136              	.LVL538:
 5137 21f6 0446     		mov	r4, r0
 5138 21f8 FFF7FEFF 		bl	getBatteryValuePercentage
 5139              	.LVL539:
 5140 21fc 2246     		mov	r2, r4
 5141 21fe 0346     		mov	r3, r0
 5142 2200 2349     		ldr	r1, .L732+24
 5143 2202 1F48     		ldr	r0, .L732+8
 5144 2204 FFF7FEFF 		bl	sprintf
 5145              	.LVL540:
 5146              		.loc 1 709 0
 5147 2208 002F     		cmp	r7, #0
 5148 220a 3FF446AD 		beq	.L401
 5149 220e FDF765BF 		b	.L6
 5150              	.LVL541:
 5151              	.L685:
 5152              	.LBE6:
 5153              		.loc 1 147 0
 5154 2212 FFF7FEFF 		bl	e_acc_calibr
 5155              	.LVL542:
 5156              		.loc 1 148 0
 5157 2216 5821     		movs	r1, #88
 5158 2218 1E48     		ldr	r0, .L732+28
 5159 221a FFF7FEFF 		bl	e_send_uart2_char
 5160              	.LVL543:
 5161              	.L8:
 5162              		.loc 1 148 0 is_stmt 0 discriminator 2
 5163 221e FFF7FEFF 		bl	e_uart2_sending
 5164              	.LVL544:
 5165 2222 0790     		str	r0, [sp, #28]
 5166 2224 0028     		cmp	r0, #0
 5167 2226 FAD1     		bne	.L8
 5168              		.loc 1 100 0 is_stmt 1
 5169 2228 0746     		mov	r7, r0
 5170 222a FDF74CBF 		b	.L3
 5171              	.LVL545:
 5172              	.L684:
 5173              		.loc 1 103 0
 5174 222e FFF7FEFF 		bl	mountSDCard
 5175              	.LVL546:
 5176              		.loc 1 123 0
 5177 2232 194C     		ldr	r4, .L732+32
 5178              		.loc 1 127 0
 5179 2234 194B     		ldr	r3, .L732+36
 5180              		.loc 1 128 0
 5181 2236 1A49     		ldr	r1, .L732+40
 5182              		.loc 1 125 0
 5183 2238 1A4D     		ldr	r5, .L732+44
 5184              		.loc 1 126 0
 5185 223a 1B4E     		ldr	r6, .L732+48
 5186              		.loc 1 127 0
 5187 223c 1393     		str	r3, [sp, #76]
ARM GAS  C:\Users\mathi\AppData\Local\Temp\ccXNOisu.s 			page 92


 5188              		.loc 1 128 0
 5189 223e 0E91     		str	r1, [sp, #56]
 5190              		.loc 1 123 0
 5191 2240 1294     		str	r4, [sp, #72]
 5192              		.loc 1 125 0
 5193 2242 1095     		str	r5, [sp, #64]
 5194              		.loc 1 126 0
 5195 2244 1196     		str	r6, [sp, #68]
 5196              		.loc 1 112 0
 5197 2246 FFF7FEFF 		bl	e_init_remote_control
 5198              	.LVL547:
 5199              		.loc 1 120 0
 5200 224a 0123     		movs	r3, #1
 5201 224c 174A     		ldr	r2, .L732+52
 5202 224e 4FF6FE71 		movw	r1, #65534
 5203 2252 7F20     		movs	r0, #127
 5204 2254 FFF7FEFF 		bl	ReadEE
 5205              	.LVL548:
 5206              		.loc 1 127 0
 5207 2258 104A     		ldr	r2, .L732+36
 5208 225a 0821     		movs	r1, #8
 5209              		.loc 1 125 0
 5210 225c 2823     		movs	r3, #40
 5211              		.loc 1 127 0
 5212 225e 1160     		str	r1, [r2]
 5213              		.loc 1 128 0
 5214 2260 0F49     		ldr	r1, .L732+40
 5215              		.loc 1 125 0
 5216 2262 2B60     		str	r3, [r5]
 5217              		.loc 1 126 0
 5218 2264 3360     		str	r3, [r6]
 5219              		.loc 1 128 0
 5220 2266 4FF44863 		mov	r3, #3200
 5221              		.loc 1 123 0
 5222 226a 0127     		movs	r7, #1
 5223              		.loc 1 128 0
 5224 226c 0B60     		str	r3, [r1]
 5225              		.loc 1 95 0
 5226 226e 0023     		movs	r3, #0
 5227              		.loc 1 123 0
 5228 2270 2760     		str	r7, [r4]
 5229              		.loc 1 95 0
 5230 2272 0793     		str	r3, [sp, #28]
 5231 2274 FDF727BF 		b	.L3
 5232              	.L733:
 5233              		.align	2
 5234              	.L732:
 5235 2278 1C060000 		.word	.LC46
 5236 227c 94010000 		.word	.LC19
 5237 2280 00000000 		.word	buffer
 5238 2284 A0020000 		.word	.LC25
 5239 2288 E4050000 		.word	.LC44
 5240 228c 14050000 		.word	.LC39
 5241 2290 78000000 		.word	.LC3
 5242 2294 00000000 		.word	.LC0
 5243 2298 00000000 		.word	.LANCHOR1
 5244 229c 00000000 		.word	.LANCHOR4
ARM GAS  C:\Users\mathi\AppData\Local\Temp\ccXNOisu.s 			page 93


 5245 22a0 00000000 		.word	.LANCHOR5
 5246 22a4 00000000 		.word	.LANCHOR2
 5247 22a8 00000000 		.word	.LANCHOR3
 5248 22ac 00000000 		.word	.LANCHOR0
 5249              		.cfi_endproc
 5250              	.LFE260:
 5251              		.size	run_asercom2, .-run_asercom2
 5252              		.section	.bss.LED_action.13542,"aw",%nobits
 5253              		.align	2
 5254              		.set	.LANCHOR27,. + 0
 5255              		.type	LED_action.13542, %object
 5256              		.size	LED_action.13542, 4
 5257              	LED_action.13542:
 5258 0000 00000000 		.space	4
 5259              		.section	.bss.LED_nbr.13541,"aw",%nobits
 5260              		.align	2
 5261              		.set	.LANCHOR30,. + 0
 5262              		.type	LED_nbr.13541, %object
 5263              		.size	LED_nbr.13541, 4
 5264              	LED_nbr.13541:
 5265 0000 00000000 		.space	4
 5266              		.section	.bss.accelero.13566,"aw",%nobits
 5267              		.align	2
 5268              		.set	.LANCHOR15,. + 0
 5269              		.type	accelero.13566, %object
 5270              		.size	accelero.13566, 12
 5271              	accelero.13566:
 5272 0000 00000000 		.space	12
 5272      00000000 
 5272      00000000 
 5273              		.section	.bss.accx.13543,"aw",%nobits
 5274              		.align	2
 5275              		.set	.LANCHOR12,. + 0
 5276              		.type	accx.13543, %object
 5277              		.size	accx.13543, 4
 5278              	accx.13543:
 5279 0000 00000000 		.space	4
 5280              		.section	.bss.accy.13544,"aw",%nobits
 5281              		.align	2
 5282              		.set	.LANCHOR13,. + 0
 5283              		.type	accy.13544, %object
 5284              		.size	accy.13544, 4
 5285              	accy.13544:
 5286 0000 00000000 		.space	4
 5287              		.section	.bss.accz.13545,"aw",%nobits
 5288              		.align	2
 5289              		.set	.LANCHOR14,. + 0
 5290              		.type	accz.13545, %object
 5291              		.size	accz.13545, 4
 5292              	accz.13545:
 5293 0000 00000000 		.space	4
 5294              		.section	.bss.c1.13531,"aw",%nobits
 5295              		.set	.LANCHOR16,. + 0
 5296              		.type	c1.13531, %object
 5297              		.size	c1.13531, 1
 5298              	c1.13531:
 5299 0000 00       		.space	1
ARM GAS  C:\Users\mathi\AppData\Local\Temp\ccXNOisu.s 			page 94


 5300              		.section	.bss.c2.13532,"aw",%nobits
 5301              		.set	.LANCHOR17,. + 0
 5302              		.type	c2.13532, %object
 5303              		.size	c2.13532, 1
 5304              	c2.13532:
 5305 0000 00       		.space	1
 5306              		.section	.bss.cam_heigth.13552,"aw",%nobits
 5307              		.align	2
 5308              		.set	.LANCHOR3,. + 0
 5309              		.type	cam_heigth.13552, %object
 5310              		.size	cam_heigth.13552, 4
 5311              	cam_heigth.13552:
 5312 0000 00000000 		.space	4
 5313              		.section	.bss.cam_mode.13550,"aw",%nobits
 5314              		.align	2
 5315              		.set	.LANCHOR1,. + 0
 5316              		.type	cam_mode.13550, %object
 5317              		.size	cam_mode.13550, 4
 5318              	cam_mode.13550:
 5319 0000 00000000 		.space	4
 5320              		.section	.bss.cam_size.13554,"aw",%nobits
 5321              		.align	2
 5322              		.set	.LANCHOR5,. + 0
 5323              		.type	cam_size.13554, %object
 5324              		.size	cam_size.13554, 4
 5325              	cam_size.13554:
 5326 0000 00000000 		.space	4
 5327              		.section	.bss.cam_width.13551,"aw",%nobits
 5328              		.align	2
 5329              		.set	.LANCHOR2,. + 0
 5330              		.type	cam_width.13551, %object
 5331              		.size	cam_width.13551, 4
 5332              	cam_width.13551:
 5333 0000 00000000 		.space	4
 5334              		.section	.bss.cam_x1.13555,"aw",%nobits
 5335              		.align	2
 5336              		.set	.LANCHOR28,. + 0
 5337              		.type	cam_x1.13555, %object
 5338              		.size	cam_x1.13555, 4
 5339              	cam_x1.13555:
 5340 0000 00000000 		.space	4
 5341              		.section	.bss.cam_y1.13556,"aw",%nobits
 5342              		.align	2
 5343              		.set	.LANCHOR29,. + 0
 5344              		.type	cam_y1.13556, %object
 5345              		.size	cam_y1.13556, 4
 5346              	cam_y1.13556:
 5347 0000 00000000 		.space	4
 5348              		.section	.bss.cam_zoom.13553,"aw",%nobits
 5349              		.align	2
 5350              		.set	.LANCHOR4,. + 0
 5351              		.type	cam_zoom.13553, %object
 5352              		.size	cam_zoom.13553, 4
 5353              	cam_zoom.13553:
 5354 0000 00000000 		.space	4
 5355              		.section	.bss.first.13557,"aw",%nobits
 5356              		.set	.LANCHOR8,. + 0
ARM GAS  C:\Users\mathi\AppData\Local\Temp\ccXNOisu.s 			page 95


 5357              		.type	first.13557, %object
 5358              		.size	first.13557, 1
 5359              	first.13557:
 5360 0000 00       		.space	1
 5361              		.section	.bss.gyrox.13547,"aw",%nobits
 5362              		.align	2
 5363              		.set	.LANCHOR20,. + 0
 5364              		.type	gyrox.13547, %object
 5365              		.size	gyrox.13547, 4
 5366              	gyrox.13547:
 5367 0000 00000000 		.space	4
 5368              		.section	.bss.gyroy.13548,"aw",%nobits
 5369              		.align	2
 5370              		.set	.LANCHOR19,. + 0
 5371              		.type	gyroy.13548, %object
 5372              		.size	gyroy.13548, 4
 5373              	gyroy.13548:
 5374 0000 00000000 		.space	4
 5375              		.section	.bss.gyroz.13549,"aw",%nobits
 5376              		.align	2
 5377              		.set	.LANCHOR18,. + 0
 5378              		.type	gyroz.13549, %object
 5379              		.size	gyroz.13549, 4
 5380              	gyroz.13549:
 5381 0000 00000000 		.space	4
 5382              		.section	.bss.i.13534,"aw",%nobits
 5383              		.align	2
 5384              		.set	.LANCHOR9,. + 0
 5385              		.type	i.13534, %object
 5386              		.size	i.13534, 4
 5387              	i.13534:
 5388 0000 00000000 		.space	4
 5389              		.section	.bss.j.13535,"aw",%nobits
 5390              		.align	2
 5391              		.set	.LANCHOR10,. + 0
 5392              		.type	j.13535, %object
 5393              		.size	j.13535, 4
 5394              	j.13535:
 5395 0000 00000000 		.space	4
 5396              		.section	.bss.mod.13560,"aw",%nobits
 5397              		.align	2
 5398              		.set	.LANCHOR24,. + 0
 5399              		.type	mod.13560, %object
 5400              		.size	mod.13560, 4
 5401              	mod.13560:
 5402 0000 00000000 		.space	4
 5403              		.section	.bss.positionl.13540,"aw",%nobits
 5404              		.align	2
 5405              		.set	.LANCHOR22,. + 0
 5406              		.type	positionl.13540, %object
 5407              		.size	positionl.13540, 4
 5408              	positionl.13540:
 5409 0000 00000000 		.space	4
 5410              		.section	.bss.positionr.13539,"aw",%nobits
 5411              		.align	2
 5412              		.set	.LANCHOR23,. + 0
 5413              		.type	positionr.13539, %object
ARM GAS  C:\Users\mathi\AppData\Local\Temp\ccXNOisu.s 			page 96


 5414              		.size	positionr.13539, 4
 5415              	positionr.13539:
 5416 0000 00000000 		.space	4
 5417              		.section	.bss.reg.13561,"aw",%nobits
 5418              		.align	2
 5419              		.set	.LANCHOR25,. + 0
 5420              		.type	reg.13561, %object
 5421              		.size	reg.13561, 4
 5422              	reg.13561:
 5423 0000 00000000 		.space	4
 5424              		.section	.bss.rgb_value.13558,"aw",%nobits
 5425              		.align	2
 5426              		.set	.LANCHOR11,. + 0
 5427              		.type	rgb_value.13558, %object
 5428              		.size	rgb_value.13558, 12
 5429              	rgb_value.13558:
 5430 0000 00000000 		.space	12
 5430      00000000 
 5430      00000000 
 5431              		.section	.bss.sound.13546,"aw",%nobits
 5432              		.align	2
 5433              		.set	.LANCHOR31,. + 0
 5434              		.type	sound.13546, %object
 5435              		.size	sound.13546, 4
 5436              	sound.13546:
 5437 0000 00000000 		.space	4
 5438              		.section	.bss.speedl.13538,"aw",%nobits
 5439              		.align	2
 5440              		.set	.LANCHOR7,. + 0
 5441              		.type	speedl.13538, %object
 5442              		.size	speedl.13538, 4
 5443              	speedl.13538:
 5444 0000 00000000 		.space	4
 5445              		.section	.bss.speedr.13537,"aw",%nobits
 5446              		.align	2
 5447              		.set	.LANCHOR6,. + 0
 5448              		.type	speedr.13537, %object
 5449              		.size	speedr.13537, 4
 5450              	speedr.13537:
 5451 0000 00000000 		.space	4
 5452              		.section	.bss.val.13562,"aw",%nobits
 5453              		.align	2
 5454              		.set	.LANCHOR26,. + 0
 5455              		.type	val.13562, %object
 5456              		.size	val.13562, 4
 5457              	val.13562:
 5458 0000 00000000 		.space	4
 5459              		.section	.bss.wait_cam.13533,"aw",%nobits
 5460              		.set	.LANCHOR21,. + 0
 5461              		.type	wait_cam.13533, %object
 5462              		.size	wait_cam.13533, 1
 5463              	wait_cam.13533:
 5464 0000 00       		.space	1
 5465              		.section	.data.HWversion.13571,"aw",%progbits
 5466              		.align	2
 5467              		.set	.LANCHOR0,. + 0
 5468              		.type	HWversion.13571, %object
ARM GAS  C:\Users\mathi\AppData\Local\Temp\ccXNOisu.s 			page 97


 5469              		.size	HWversion.13571, 4
 5470              	HWversion.13571:
 5471 0000 FFFF0000 		.word	65535
 5472              		.section	.rodata.run_asercom2.str1.4,"aMS",%progbits,1
 5473              		.align	2
 5474              	.LC0:
 5475 0000 0C075745 		.ascii	"\014\007WELCOME to the SerCom protocol on e-Puck\015"
 5475      4C434F4D 
 5475      4520746F 
 5475      20746865 
 5475      20536572 
 5476 002b 0A746865 		.ascii	"\012the EPFL education robot type \"H\" for help\015"
 5476      20455046 
 5476      4C206564 
 5476      75636174 
 5476      696F6E20 
 5477 0057 0A00     		.ascii	"\012\000"
 5478 0059 000000   		.space	3
 5479              	.LC1:
 5480 005c 612C2564 		.ascii	"a,%d,%d,%d\015\012\000"
 5480      2C25642C 
 5480      25640D0A 
 5480      00
 5481 0069 000000   		.space	3
 5482              	.LC2:
 5483 006c 612C302C 		.ascii	"a,0,0,0\015\012\000"
 5483      302C300D 
 5483      0A00
 5484 0076 0000     		.space	2
 5485              	.LC3:
 5486 0078 622C2564 		.ascii	"b,%d (%d%%)\015\012\000"
 5486      20282564 
 5486      2525290D 
 5486      0A00
 5487 0086 0000     		.space	2
 5488              	.LC4:
 5489 0088 422C2564 		.ascii	"B,%d\015\000"
 5489      0D00
 5490 008e 0000     		.space	2
 5491              	.LC5:
 5492 0090 620D0A00 		.ascii	"b\015\012\000"
 5493              	.LC6:
 5494 0094 632C2564 		.ascii	"c,%d\015\012\000"
 5494      0D0A00
 5495 009b 00       		.space	1
 5496              	.LC7:
 5497 009c 442C2564 		.ascii	"D,%d,%d\015\000"
 5497      2C25640D 
 5497      00
 5498 00a5 000000   		.space	3
 5499              	.LC8:
 5500 00a8 640D0A00 		.ascii	"d\015\012\000"
 5501              	.LC9:
 5502 00ac 652C2564 		.ascii	"e,%d,%d\015\012\000"
 5502      2C25640D 
 5502      0A00
 5503 00b6 0000     		.space	2
ARM GAS  C:\Users\mathi\AppData\Local\Temp\ccXNOisu.s 			page 98


 5504              	.LC10:
 5505 00b8 462C2564 		.ascii	"F,%d\015\000"
 5505      0D00
 5506 00be 0000     		.space	2
 5507              	.LC11:
 5508 00c0 660D0A00 		.ascii	"f\015\012\000"
 5509              	.LC12:
 5510 00c4 67204952 		.ascii	"g IR check : 0x%x, address : 0x%x, data : 0x%x\015\012"
 5510      20636865 
 5510      636B203A 
 5510      20307825 
 5510      782C2061 
 5511 00f4 00       		.ascii	"\000"
 5512 00f5 000000   		.space	3
 5513              	.LC13:
 5514 00f8 672C2564 		.ascii	"g,%d,%d,%d\015\012\000"
 5514      2C25642C 
 5514      25640D0A 
 5514      00
 5515 0105 000000   		.space	3
 5516              	.LC14:
 5517 0108 672C302C 		.ascii	"g,0,0,0\015\012\000"
 5517      302C300D 
 5517      0A00
 5518 0112 0000     		.space	2
 5519              	.LC15:
 5520 0114 0A00     		.ascii	"\012\000"
 5521 0116 0000     		.space	2
 5522              	.LC16:
 5523 0118 22412220 		.ascii	"\"A\"               Accelerometer\015\012\000"
 5523      20202020 
 5523      20202020 
 5523      20202020 
 5523      20204163 
 5524 013a 0000     		.space	2
 5525              	.LC17:
 5526 013c 22422C23 		.ascii	"\"B,#\"             Body led 0=off 1=on 2=inverse\015"
 5526      22202020 
 5526      20202020 
 5526      20202020 
 5526      2020426F 
 5527 016c 0A00     		.ascii	"\012\000"
 5528 016e 0000     		.space	2
 5529              	.LC18:
 5530 0170 22622220 		.ascii	"\"b\"               Battery value\015\012\000"
 5530      20202020 
 5530      20202020 
 5530      20202020 
 5530      20204261 
 5531 0192 0000     		.space	2
 5532              	.LC19:
 5533 0194 22622220 		.ascii	"\"b\"               Battery state (1=ok, 0=low)\015"
 5533      20202020 
 5533      20202020 
 5533      20202020 
 5533      20204261 
 5534 01c2 0A00     		.ascii	"\012\000"
ARM GAS  C:\Users\mathi\AppData\Local\Temp\ccXNOisu.s 			page 99


 5535              	.LC20:
 5536 01c4 22432220 		.ascii	"\"C\"               Selector position\015\012\000"
 5536      20202020 
 5536      20202020 
 5536      20202020 
 5536      20205365 
 5537 01ea 0000     		.space	2
 5538              	.LC21:
 5539 01ec 22442C23 		.ascii	"\"D,#,#\"           Set motor speed left,right\015\012"
 5539      2C232220 
 5539      20202020 
 5539      20202020 
 5539      20205365 
 5540 021a 00       		.ascii	"\000"
 5541 021b 00       		.space	1
 5542              	.LC22:
 5543 021c 22452220 		.ascii	"\"E\"               Get motor speed left,right\015\012"
 5543      20202020 
 5543      20202020 
 5543      20202020 
 5543      20204765 
 5544 024a 00       		.ascii	"\000"
 5545 024b 00       		.space	1
 5546              	.LC23:
 5547 024c 22462C23 		.ascii	"\"F,#\"             Front led 0=off 1=on 2=inverse\015"
 5547      22202020 
 5547      20202020 
 5547      20202020 
 5547      20204672 
 5548 027d 0A00     		.ascii	"\012\000"
 5549 027f 00       		.space	1
 5550              	.LC24:
 5551 0280 22472220 		.ascii	"\"G\"               IR receiver\015\012\000"
 5551      20202020 
 5551      20202020 
 5551      20202020 
 5551      20204952 
 5552              	.LC25:
 5553 02a0 22672220 		.ascii	"\"g\"               Gyro\015\012\000"
 5553      20202020 
 5553      20202020 
 5553      20202020 
 5553      20204779 
 5554 02b9 000000   		.space	3
 5555              	.LC26:
 5556 02bc 22482220 		.ascii	"\"H\"               Help\015\012\000"
 5556      20202020 
 5556      20202020 
 5556      20202020 
 5556      20204865 
 5557 02d5 000000   		.space	3
 5558              	.LC27:
 5559 02d8 22492220 		.ascii	"\"I\"               Get camera parameter\015\012\000"
 5559      20202020 
 5559      20202020 
 5559      20202020 
 5559      20204765 
ARM GAS  C:\Users\mathi\AppData\Local\Temp\ccXNOisu.s 			page 100


 5560 0301 000000   		.space	3
 5561              	.LC28:
 5562 0304 224A2C23 		.ascii	"\"J,#,#,#,#,#,#\"   Set camera parameter mode,width"
 5562      2C232C23 
 5562      2C232C23 
 5562      2C232220 
 5562      20205365 
 5563 0335 2C686569 		.ascii	",heigth,zoom(1,4 or 8),x1,y1\015\012\000"
 5563      6774682C 
 5563      7A6F6F6D 
 5563      28312C34 
 5563      206F7220 
 5564              	.LC29:
 5565 0354 224B2220 		.ascii	"\"K\"               Calibrate proximity sensors\015"
 5565      20202020 
 5565      20202020 
 5565      20202020 
 5565      20204361 
 5566 0382 0A00     		.ascii	"\012\000"
 5567              	.LC30:
 5568 0384 224C2C23 		.ascii	"\"L,#,#\"           Led number,0=off 1=on 2=inverse"
 5568      2C232220 
 5568      20202020 
 5568      20202020 
 5568      20204C65 
 5569 03b5 0D0A00   		.ascii	"\015\012\000"
 5570              	.LC31:
 5571 03b8 224D2220 		.ascii	"\"M\"               Floor sensors\015\012\000"
 5571      20202020 
 5571      20202020 
 5571      20202020 
 5571      2020466C 
 5572 03da 0000     		.space	2
 5573              	.LC32:
 5574 03dc 224E2220 		.ascii	"\"N\"               Proximity\015\012\000"
 5574      20202020 
 5574      20202020 
 5574      20202020 
 5574      20205072 
 5575 03fa 0000     		.space	2
 5576              	.LC33:
 5577 03fc 224F2220 		.ascii	"\"O\"               Light sensors\015\012\000"
 5577      20202020 
 5577      20202020 
 5577      20202020 
 5577      20204C69 
 5578 041e 0000     		.space	2
 5579              	.LC34:
 5580 0420 22502C23 		.ascii	"\"P,#,#\"           Set motor position left,right\015"
 5580      2C232220 
 5580      20202020 
 5580      20202020 
 5580      20205365 
 5581 0450 0A00     		.ascii	"\012\000"
 5582 0452 0000     		.space	2
 5583              	.LC35:
 5584 0454 22512220 		.ascii	"\"Q\"               Get motor position left,right\015"
ARM GAS  C:\Users\mathi\AppData\Local\Temp\ccXNOisu.s 			page 101


 5584      20202020 
 5584      20202020 
 5584      20202020 
 5584      20204765 
 5585 0484 0A00     		.ascii	"\012\000"
 5586 0486 0000     		.space	2
 5587              	.LC36:
 5588 0488 22522220 		.ascii	"\"R\"               Reset e-puck\015\012\000"
 5588      20202020 
 5588      20202020 
 5588      20202020 
 5588      20205265 
 5589 04a9 000000   		.space	3
 5590              	.LC37:
 5591 04ac 22532220 		.ascii	"\"S\"               Stop e-puck and turn off leds\015"
 5591      20202020 
 5591      20202020 
 5591      20202020 
 5591      20205374 
 5592 04dc 0A00     		.ascii	"\012\000"
 5593 04de 0000     		.space	2
 5594              	.LC38:
 5595 04e0 22542C23 		.ascii	"\"T,#\"             Play sound 1-5 else stop sound\015"
 5595      22202020 
 5595      20202020 
 5595      20202020 
 5595      2020506C 
 5596 0511 0A00     		.ascii	"\012\000"
 5597 0513 00       		.space	1
 5598              	.LC39:
 5599 0514 22742220 		.ascii	"\"t\"               Temperature\015\012\000"
 5599      20202020 
 5599      20202020 
 5599      20202020 
 5599      20205465 
 5600              	.LC40:
 5601 0534 22552220 		.ascii	"\"U\"               Get microphone amplitude\015\012"
 5601      20202020 
 5601      20202020 
 5601      20202020 
 5601      20204765 
 5602 0560 00       		.ascii	"\000"
 5603 0561 000000   		.space	3
 5604              	.LC41:
 5605 0564 22562220 		.ascii	"\"V\"               Version of SerCom\015\012\000"
 5605      20202020 
 5605      20202020 
 5605      20202020 
 5605      20205665 
 5606 058a 0000     		.space	2
 5607              	.LC42:
 5608 058c 22572220 		.ascii	"\"W\"               Write I2C (mod,reg,val)\015\012"
 5608      20202020 
 5608      20202020 
 5608      20202020 
 5608      20205772 
 5609 05b7 00       		.ascii	"\000"
ARM GAS  C:\Users\mathi\AppData\Local\Temp\ccXNOisu.s 			page 102


 5610              	.LC43:
 5611 05b8 22592220 		.ascii	"\"Y\"               Read I2C val=(mod,reg)\015\012\000"
 5611      20202020 
 5611      20202020 
 5611      20202020 
 5611      20205265 
 5612 05e3 00       		.space	1
 5613              	.LC44:
 5614 05e4 22412220 		.ascii	"\"A\"       Accelerometer\015\012\000"
 5614      20202020 
 5614      20204163 
 5614      63656C65 
 5614      726F6D65 
 5615 05fe 0000     		.space	2
 5616              	.LC45:
 5617 0600 22622220 		.ascii	"\"b\"       Battery value\015\012\000"
 5617      20202020 
 5617      20204261 
 5617      74746572 
 5617      79207661 
 5618 061a 0000     		.space	2
 5619              	.LC46:
 5620 061c 22622220 		.ascii	"\"b\"       Battery state (1=ok, 0=low)\015\012\000"
 5620      20202020 
 5620      20204261 
 5620      74746572 
 5620      79207374 
 5621              	.LC47:
 5622 0644 22422C23 		.ascii	"\"B,#\"       Body led 0=off 1=on 2=inverse\015\012"
 5622      22202020 
 5622      20202020 
 5622      426F6479 
 5622      206C6564 
 5623 066f 00       		.ascii	"\000"
 5624              	.LC48:
 5625 0670 22432220 		.ascii	"\"C\"       Selector position\015\012\000"
 5625      20202020 
 5625      20205365 
 5625      6C656374 
 5625      6F722070 
 5626 068e 0000     		.space	2
 5627              	.LC49:
 5628 0690 22442C23 		.ascii	"\"D,#,#\"   Set motor speed left,right\015\012\000"
 5628      2C232220 
 5628      20205365 
 5628      74206D6F 
 5628      746F7220 
 5629 06b7 00       		.space	1
 5630              	.LC50:
 5631 06b8 22452220 		.ascii	"\"E\"       Get motor speed left,right\015\012\000"
 5631      20202020 
 5631      20204765 
 5631      74206D6F 
 5631      746F7220 
 5632 06df 00       		.space	1
 5633              	.LC51:
 5634 06e0 22462C23 		.ascii	"\"F,#\"       Front led 0=off 1=on 2=inverse\015\012"
ARM GAS  C:\Users\mathi\AppData\Local\Temp\ccXNOisu.s 			page 103


 5634      22202020 
 5634      20202020 
 5634      46726F6E 
 5634      74206C65 
 5635 070c 00       		.ascii	"\000"
 5636 070d 000000   		.space	3
 5637              	.LC52:
 5638 0710 22472220 		.ascii	"\"G\"       IR receiver\015\012\000"
 5638      20202020 
 5638      20204952 
 5638      20726563 
 5638      65697665 
 5639              	.LC53:
 5640 0728 22482220 		.ascii	"\"H\"       Help\015\012\000"
 5640      20202020 
 5640      20204865 
 5640      6C700D0A 
 5640      00
 5641 0739 000000   		.space	3
 5642              	.LC54:
 5643 073c 22492220 		.ascii	"\"I\"         Get camera parameter\015\012\000"
 5643      20202020 
 5643      20202020 
 5643      47657420 
 5643      63616D65 
 5644 075f 00       		.space	1
 5645              	.LC55:
 5646 0760 224A2C23 		.ascii	"\"J,#,#,#,#,#,#\" Set camera parameter mode,width,h"
 5646      2C232C23 
 5646      2C232C23 
 5646      2C232220 
 5646      53657420 
 5647 0791 65696774 		.ascii	"eigth,zoom(1,4 or 8),x1,y1\015\012\000"
 5647      682C7A6F 
 5647      6F6D2831 
 5647      2C34206F 
 5647      72203829 
 5648 07ae 0000     		.space	2
 5649              	.LC56:
 5650 07b0 224B2220 		.ascii	"\"K\"       Calibrate proximity sensors\015\012\000"
 5650      20202020 
 5650      20204361 
 5650      6C696272 
 5650      61746520 
 5651              	.LC57:
 5652 07d8 224C2C23 		.ascii	"\"L,#,#\"   Led number,0=off 1=on 2=inverse\015\012"
 5652      2C232220 
 5652      20204C65 
 5652      64206E75 
 5652      6D626572 
 5653 0803 00       		.ascii	"\000"
 5654              	.LC58:
 5655 0804 224D2220 		.ascii	"\"M\"       Floor sensors\015\012\000"
 5655      20202020 
 5655      2020466C 
 5655      6F6F7220 
 5655      73656E73 
ARM GAS  C:\Users\mathi\AppData\Local\Temp\ccXNOisu.s 			page 104


 5656 081e 0000     		.space	2
 5657              	.LC59:
 5658 0820 224E2220 		.ascii	"\"N\"       Proximity\015\012\000"
 5658      20202020 
 5658      20205072 
 5658      6F78696D 
 5658      6974790D 
 5659 0836 0000     		.space	2
 5660              	.LC60:
 5661 0838 224F2220 		.ascii	"\"O\"       Light sensors\015\012\000"
 5661      20202020 
 5661      20204C69 
 5661      67687420 
 5661      73656E73 
 5662 0852 0000     		.space	2
 5663              	.LC61:
 5664 0854 22502C23 		.ascii	"\"P,#,#\"   Set motor position left,right\015\012\000"
 5664      2C232220 
 5664      20205365 
 5664      74206D6F 
 5664      746F7220 
 5665 087e 0000     		.space	2
 5666              	.LC62:
 5667 0880 22512220 		.ascii	"\"Q\"       Get motor position left,right\015\012\000"
 5667      20202020 
 5667      20204765 
 5667      74206D6F 
 5667      746F7220 
 5668 08aa 0000     		.space	2
 5669              	.LC63:
 5670 08ac 22522220 		.ascii	"\"R\"       Reset e-puck\015\012\000"
 5670      20202020 
 5670      20205265 
 5670      73657420 
 5670      652D7075 
 5671 08c5 000000   		.space	3
 5672              	.LC64:
 5673 08c8 22532220 		.ascii	"\"S\"       Stop e-puck and turn off leds\015\012\000"
 5673      20202020 
 5673      20205374 
 5673      6F702065 
 5673      2D707563 
 5674 08f2 0000     		.space	2
 5675              	.LC65:
 5676 08f4 22542C23 		.ascii	"\"T,#\"       Play sound 1-5 else stop sound\015\012"
 5676      22202020 
 5676      20202020 
 5676      506C6179 
 5676      20736F75 
 5677 0920 00       		.ascii	"\000"
 5678 0921 000000   		.space	3
 5679              	.LC66:
 5680 0924 22552220 		.ascii	"\"U\"       Get microphone amplitude\015\012\000"
 5680      20202020 
 5680      20204765 
 5680      74206D69 
 5680      63726F70 
ARM GAS  C:\Users\mathi\AppData\Local\Temp\ccXNOisu.s 			page 105


 5681 0949 000000   		.space	3
 5682              	.LC67:
 5683 094c 22562220 		.ascii	"\"V\"       Version of SerCom\015\012\000"
 5683      20202020 
 5683      20205665 
 5683      7273696F 
 5683      6E206F66 
 5684 096a 0000     		.space	2
 5685              	.LC68:
 5686 096c 22572220 		.ascii	"\"W\"         Write I2C (mod,reg,val)\015\012\000"
 5686      20202020 
 5686      20202020 
 5686      57726974 
 5686      65204932 
 5687 0992 0000     		.space	2
 5688              	.LC69:
 5689 0994 22592220 		.ascii	"\"Y\"         Read I2C val=(mod,reg)\015\012\000"
 5689      20202020 
 5689      20202020 
 5689      52656164 
 5689      20493243 
 5690 09b9 000000   		.space	3
 5691              	.LC70:
 5692 09bc 692C2564 		.ascii	"i,%d,%d,%d,%d,%d\015\012\000"
 5692      2C25642C 
 5692      25642C25 
 5692      642C2564 
 5692      0D0A00
 5693 09cf 00       		.space	1
 5694              	.LC71:
 5695 09d0 4A2C2564 		.ascii	"J,%d,%d,%d,%d,%d,%d\015\000"
 5695      2C25642C 
 5695      25642C25 
 5695      642C2564 
 5695      2C25640D 
 5696 09e5 000000   		.space	3
 5697              	.LC72:
 5698 09e8 6A0D0A00 		.ascii	"j\015\012\000"
 5699              	.LC73:
 5700 09ec 6B2C2053 		.ascii	"k, Starting calibration - Remove any object in sens"
 5700      74617274 
 5700      696E6720 
 5700      63616C69 
 5700      62726174 
 5701 0a1f 6F727320 		.ascii	"ors range\015\012\000"
 5701      72616E67 
 5701      650D0A00 
 5702 0a2b 00       		.space	1
 5703              	.LC74:
 5704 0a2c 4C2C2564 		.ascii	"L,%d,%d\015\000"
 5704      2C25640D 
 5704      00
 5705 0a35 000000   		.space	3
 5706              	.LC75:
 5707 0a38 6C0D0A00 		.ascii	"l\015\012\000"
 5708              	.LC76:
 5709 0a3c 6D2C2564 		.ascii	"m,%d,%d,%d,%d,%d\015\012\000"
ARM GAS  C:\Users\mathi\AppData\Local\Temp\ccXNOisu.s 			page 106


 5709      2C25642C 
 5709      25642C25 
 5709      642C2564 
 5709      0D0A00
 5710 0a4f 00       		.space	1
 5711              	.LC77:
 5712 0a50 6E2C2564 		.ascii	"n,%d,%d,%d,%d,%d,%d,%d,%d\015\012\000"
 5712      2C25642C 
 5712      25642C25 
 5712      642C2564 
 5712      2C25642C 
 5713              	.LC78:
 5714 0a6c 6F2C2564 		.ascii	"o,%d,%d,%d,%d,%d,%d,%d,%d\015\012\000"
 5714      2C25642C 
 5714      25642C25 
 5714      642C2564 
 5714      2C25642C 
 5715              	.LC79:
 5716 0a88 502C2564 		.ascii	"P,%d,%d\015\000"
 5716      2C25640D 
 5716      00
 5717 0a91 000000   		.space	3
 5718              	.LC80:
 5719 0a94 700D0A00 		.ascii	"p\015\012\000"
 5720              	.LC81:
 5721 0a98 712C2564 		.ascii	"q,%d,%d\015\012\000"
 5721      2C25640D 
 5721      0A00
 5722 0aa2 0000     		.space	2
 5723              	.LC82:
 5724 0aa4 730D0A00 		.ascii	"s\015\012\000"
 5725              	.LC83:
 5726 0aa8 542C2564 		.ascii	"T,%d\000"
 5726      00
 5727 0aad 000000   		.space	3
 5728              	.LC84:
 5729 0ab0 740D0A00 		.ascii	"t\015\012\000"
 5730              	.LC85:
 5731 0ab4 742C2564 		.ascii	"t,%d\015\012\000"
 5731      0D0A00
 5732 0abb 00       		.space	1
 5733              	.LC86:
 5734 0abc 742C300D 		.ascii	"t,0\015\012\000"
 5734      0A00
 5735 0ac2 0000     		.space	2
 5736              	.LC87:
 5737 0ac4 752C2564 		.ascii	"u,%d,%d,%d\015\012\000"
 5737      2C25642C 
 5737      25640D0A 
 5737      00
 5738 0ad1 000000   		.space	3
 5739              	.LC88:
 5740 0ad4 762C5665 		.ascii	"v,Version 2.0 January 2018 GCtronic\015\012\000"
 5740      7273696F 
 5740      6E20322E 
 5740      30204A61 
 5740      6E756172 
ARM GAS  C:\Users\mathi\AppData\Local\Temp\ccXNOisu.s 			page 107


 5741 0afa 0000     		.space	2
 5742              	.LC89:
 5743 0afc 572C2564 		.ascii	"W,%d,%d,%d\015\000"
 5743      2C25642C 
 5743      25640D00 
 5744              	.LC90:
 5745 0b08 770D0A00 		.ascii	"w\015\012\000"
 5746              	.LC91:
 5747 0b0c 592C2564 		.ascii	"Y,%d,%d\015\000"
 5747      2C25640D 
 5747      00
 5748 0b15 000000   		.space	3
 5749              	.LC92:
 5750 0b18 792C2564 		.ascii	"y,%d,%d\015\012\000"
 5750      2C25640D 
 5750      0A00
 5751 0b22 0000     		.space	2
 5752              	.LC93:
 5753 0b24 792C2564 		.ascii	"y,%d\015\012\000"
 5753      0D0A00
 5754 0b2b 00       		.space	1
 5755              	.LC94:
 5756 0b2c 25643A20 		.ascii	"%d: %d\015\012\000"
 5756      25640D0A 
 5756      00
 5757 0b35 000000   		.space	3
 5758              	.LC95:
 5759 0b38 7A2C436F 		.ascii	"z,Command not found\015\012\000"
 5759      6D6D616E 
 5759      64206E6F 
 5759      7420666F 
 5759      756E640D 
 5760 0b4e 0000     		.space	2
 5761              	.LC96:
 5762 0b50 48572076 		.ascii	"HW version: %X\015\012\000"
 5762      65727369 
 5762      6F6E3A20 
 5762      25580D0A 
 5762      00
 5763 0b61 000000   		.space	3
 5764              	.LC97:
 5765 0b64 6B2C2043 		.ascii	"k, Calibration finished\015\012\000"
 5765      616C6962 
 5765      72617469 
 5765      6F6E2066 
 5765      696E6973 
 5766              		.text
 5767              	.Letext0:
 5768              		.file 2 "c:\\eclipse_e-puck2\\tools\\gcc-arm-none-eabi-7-2017-q4-major-win32\\arm-none-eabi\\inclu
 5769              		.file 3 "c:\\eclipse_e-puck2\\tools\\gcc-arm-none-eabi-7-2017-q4-major-win32\\arm-none-eabi\\inclu
 5770              		.file 4 "c:\\eclipse_e-puck2\\tools\\gcc-arm-none-eabi-7-2017-q4-major-win32\\lib\\gcc\\arm-none-e
 5771              		.file 5 "../../lib/e-puck2_main-processor/ChibiOS//os/rt/ports/ARMCMx/compilers/GCC/chtypes.h"
 5772              		.file 6 "../../lib/e-puck2_main-processor/ChibiOS//os/rt/include/chsystypes.h"
 5773              		.file 7 "../../lib/e-puck2_main-processor/ChibiOS//os/rt/include/chschd.h"
 5774              		.file 8 "../../lib/e-puck2_main-processor/ChibiOS//os/ext/CMSIS/include/core_cm4.h"
 5775              		.file 9 "../../lib/e-puck2_main-processor/ChibiOS//os/ext/CMSIS/ST/system_stm32f4xx.h"
 5776              		.file 10 "../../lib/e-puck2_main-processor/ChibiOS//os/ext/CMSIS/ST/stm32f407xx.h"
ARM GAS  C:\Users\mathi\AppData\Local\Temp\ccXNOisu.s 			page 108


 5777              		.file 11 "../../lib/e-puck2_main-processor/ChibiOS//os/rt/ports/ARMCMx/chcore.h"
 5778              		.file 12 "../../lib/e-puck2_main-processor/ChibiOS//os/rt/ports/ARMCMx/chcore_v7m.h"
 5779              		.file 13 "../../lib/e-puck2_main-processor/ChibiOS//os/rt/include/chdebug.h"
 5780              		.file 14 "../../lib/e-puck2_main-processor/ChibiOS//os/rt/include/chtm.h"
 5781              		.file 15 "../../lib/e-puck2_main-processor/ChibiOS//os/rt/include/chstats.h"
 5782              		.file 16 "../../lib/e-puck2_main-processor/ChibiOS//os/rt/include/chsem.h"
 5783              		.file 17 "../../lib/e-puck2_main-processor/ChibiOS//os/rt/include/chmtx.h"
 5784              		.file 18 "../../lib/e-puck2_main-processor/ChibiOS//os/rt/include/chregistry.h"
 5785              		.file 19 "../../lib/e-puck2_main-processor/ChibiOS//os/rt/include/chevents.h"
 5786              		.file 20 "../../lib/e-puck2_main-processor/ChibiOS//os/rt/include/chqueues.h"
 5787              		.file 21 "../../lib/e-puck2_main-processor/ChibiOS//os/hal/ports/STM32/STM32F4xx/stm32_dma.h"
 5788              		.file 22 "../../lib/e-puck2_main-processor/ChibiOS//os/hal/include/hal_ioblock.h"
 5789              		.file 23 "../../lib/e-puck2_main-processor/ChibiOS//os/hal/ports/STM32/LLD/GPIOv2/pal_lld.h"
 5790              		.file 24 "../../lib/e-puck2_main-processor/ChibiOS//os/hal/include/adc.h"
 5791              		.file 25 "../../lib/e-puck2_main-processor/ChibiOS//os/hal/ports/STM32/STM32F4xx/adc_lld.h"
 5792              		.file 26 "../../lib/e-puck2_main-processor/ChibiOS//os/hal/include/can.h"
 5793              		.file 27 "../../lib/e-puck2_main-processor/ChibiOS//os/hal/ports/STM32/LLD/can_lld.h"
 5794              		.file 28 "../../lib/e-puck2_main-processor/ChibiOS//os/hal/include/dac.h"
 5795              		.file 29 "../../lib/e-puck2_main-processor/ChibiOS//os/hal/ports/STM32/LLD/DACv1/dac_lld.h"
 5796              		.file 30 "../../lib/e-puck2_main-processor/ChibiOS//os/hal/include/ext.h"
 5797              		.file 31 "../../lib/e-puck2_main-processor/ChibiOS//os/hal/ports/STM32/LLD/ext_lld.h"
 5798              		.file 32 "../../lib/e-puck2_main-processor/ChibiOS//os/hal/include/gpt.h"
 5799              		.file 33 "../../lib/e-puck2_main-processor/ChibiOS//os/hal/ports/STM32/LLD/TIMv1/gpt_lld.h"
 5800              		.file 34 "../../lib/e-puck2_main-processor/ChibiOS//os/hal/ports/STM32/LLD/TIMv1/stm32_tim.h"
 5801              		.file 35 "../../lib/e-puck2_main-processor/ChibiOS//os/hal/include/i2c.h"
 5802              		.file 36 "../../lib/e-puck2_main-processor/ChibiOS//os/hal/ports/STM32/LLD/I2Cv1/i2c_lld.h"
 5803              		.file 37 "../../lib/e-puck2_main-processor/ChibiOS//os/hal/include/i2s.h"
 5804              		.file 38 "../../lib/e-puck2_main-processor/ChibiOS//os/hal/ports/STM32/LLD/SPIv1/i2s_lld.h"
 5805              		.file 39 "../../lib/e-puck2_main-processor/ChibiOS//os/hal/include/pwm.h"
 5806              		.file 40 "../../lib/e-puck2_main-processor/ChibiOS//os/hal/ports/STM32/LLD/TIMv1/pwm_lld.h"
 5807              		.file 41 "../../lib/e-puck2_main-processor/ChibiOS//os/hal/include/serial.h"
 5808              		.file 42 "../../lib/e-puck2_main-processor/ChibiOS//os/hal/ports/STM32/LLD/USARTv1/serial_lld.h"
 5809              		.file 43 "../../lib/e-puck2_main-processor/ChibiOS//os/hal/include/sdc.h"
 5810              		.file 44 "../../lib/e-puck2_main-processor/ChibiOS//os/hal/ports/STM32/LLD/sdc_lld.h"
 5811              		.file 45 "../../lib/e-puck2_main-processor/ChibiOS//os/hal/include/spi.h"
 5812              		.file 46 "../../lib/e-puck2_main-processor/ChibiOS//os/hal/ports/STM32/LLD/SPIv1/spi_lld.h"
 5813              		.file 47 "../../lib/e-puck2_main-processor/ChibiOS//os/hal/include/usb.h"
 5814              		.file 48 "../../lib/e-puck2_main-processor/ChibiOS//os/hal/ports/STM32/LLD/OTGv1/usb_lld.h"
 5815              		.file 49 "../../lib/e-puck2_main-processor/ChibiOS//os/hal/ports/STM32/LLD/OTGv1/stm32_otg.h"
 5816              		.file 50 "../../lib/e-puck2_main-processor/ChibiOS_ext/os/hal/include/../ports/STM32/STM32F4xx/dcm
 5817              		.file 51 "c:\\eclipse_e-puck2\\tools\\gcc-arm-none-eabi-7-2017-q4-major-win32\\arm-none-eabi\\incl
 5818              		.file 52 "c:\\eclipse_e-puck2\\tools\\gcc-arm-none-eabi-7-2017-q4-major-win32\\arm-none-eabi\\incl
 5819              		.file 53 "c:\\eclipse_e-puck2\\tools\\gcc-arm-none-eabi-7-2017-q4-major-win32\\arm-none-eabi\\incl
 5820              		.file 54 "../../lib/e-puck2_main-processor/src/msgbus/messagebus.h"
 5821              		.file 55 "c:\\eclipse_e-puck2\\tools\\gcc-arm-none-eabi-7-2017-q4-major-win32\\arm-none-eabi\\incl
 5822              		.file 56 "c:\\eclipse_e-puck2\\tools\\gcc-arm-none-eabi-7-2017-q4-major-win32\\arm-none-eabi\\incl
 5823              		.file 57 "../../lib/e-puck2_main-processor/src/parameter/parameter.h"
 5824              		.file 58 "./main.h"
 5825              		.file 59 "../../lib/e-puck2_main-processor/src/audio/play_melody.h"
 5826              		.file 60 "c:\\eclipse_e-puck2\\tools\\gcc-arm-none-eabi-7-2017-q4-major-win32\\arm-none-eabi\\incl
 5827              		.file 61 "../../lib/e-puck2_main-processor/src/epuck1x/a_d/advance_ad_scan/e_acc.h"
 5828              		.file 62 "../../lib/e-puck2_main-processor/src/epuck1x/acc_gyro/e_lsm330.h"
 5829              		.file 63 "c:\\eclipse_e-puck2\\tools\\gcc-arm-none-eabi-7-2017-q4-major-win32\\arm-none-eabi\\incl
 5830              		.file 64 "c:\\eclipse_e-puck2\\tools\\gcc-arm-none-eabi-7-2017-q4-major-win32\\arm-none-eabi\\incl
 5831              		.file 65 "../../lib/e-puck2_main-processor/src/epuck1x/uart/e_uart_char.h"
 5832              		.file 66 "../../lib/e-puck2_main-processor/src/epuck1x/I2C/e_I2C_protocol.h"
 5833              		.file 67 "../../lib/e-puck2_main-processor/src/epuck1x/motor_led/advance_one_timer/e_motors.h"
ARM GAS  C:\Users\mathi\AppData\Local\Temp\ccXNOisu.s 			page 109


 5834              		.file 68 "../../lib/e-puck2_main-processor/src/epuck1x/motor_led/advance_one_timer/e_led.h"
 5835              		.file 69 "../../lib/e-puck2_main-processor/ChibiOS//os/rt/include/chthreads.h"
 5836              		.file 70 "../../lib/e-puck2_main-processor/src/epuck1x/a_d/advance_ad_scan/e_prox.h"
 5837              		.file 71 "../../lib/e-puck2_main-processor/src/epuck1x/camera/fast_2_timer/e_poxxxx.h"
 5838              		.file 72 "../../lib/e-puck2_main-processor/src/epuck1x/codec/e_sound.h"
 5839              		.file 73 "../../lib/e-puck2_main-processor/src/epuck1x/a_d/advance_ad_scan/e_micro.h"
 5840              		.file 74 "../../lib/e-puck2_main-processor/src/epuck1x/motor_led/advance_one_timer/e_remote_contro
 5841              		.file 75 "../../lib/e-puck2_main-processor/src/epuck1x/motor_led/e_init_port.h"
 5842              		.file 76 "../../lib/e-puck2_main-processor/src/epuck1x/utility/utility.h"
 5843              		.file 77 "../../lib/e-puck2_main-processor/src/fat.h"
 5844              		.file 78 "../../lib/e-puck2_main-processor/src/epuck1x/DataEEPROM.h"
 5845              		.file 79 "../../lib/e-puck2_main-processor/src/leds.h"
 5846              		.file 80 "../../lib/e-puck2_main-processor/src/button.h"
 5847              		.file 81 "../../lib/e-puck2_main-processor/src/sensors/VL53L0X/VL53L0X.h"
 5848              		.file 82 "../../lib/e-puck2_main-processor/src/camera/dcmi_camera.h"
 5849              		.file 83 "<built-in>"
 5850              		.section	.debug_info,"",%progbits
 5851              	.Ldebug_info0:
 5852 0000 BC6B0000 		.4byte	0x6bbc
 5853 0004 0400     		.2byte	0x4
 5854 0006 00000000 		.4byte	.Ldebug_abbrev0
 5855 000a 04       		.byte	0x4
 5856 000b 01       		.uleb128 0x1
 5857 000c 55020000 		.4byte	.LASF1014
 5858 0010 0C       		.byte	0xc
 5859 0011 50110000 		.4byte	.LASF1015
 5860 0015 3B170000 		.4byte	.LASF1016
 5861 0019 28000000 		.4byte	.Ldebug_ranges0+0x28
 5862 001d 00000000 		.4byte	0
 5863 0021 00000000 		.4byte	.Ldebug_line0
 5864 0025 02       		.uleb128 0x2
 5865 0026 B0280000 		.4byte	.LASF0
 5866 002a 02       		.byte	0x2
 5867 002b 29       		.byte	0x29
 5868 002c 30000000 		.4byte	0x30
 5869 0030 03       		.uleb128 0x3
 5870 0031 01       		.byte	0x1
 5871 0032 06       		.byte	0x6
 5872 0033 27180000 		.4byte	.LASF2
 5873 0037 02       		.uleb128 0x2
 5874 0038 3F010000 		.4byte	.LASF1
 5875 003c 02       		.byte	0x2
 5876 003d 2B       		.byte	0x2b
 5877 003e 42000000 		.4byte	0x42
 5878 0042 03       		.uleb128 0x3
 5879 0043 01       		.byte	0x1
 5880 0044 08       		.byte	0x8
 5881 0045 C30B0000 		.4byte	.LASF3
 5882 0049 02       		.uleb128 0x2
 5883 004a 000A0000 		.4byte	.LASF4
 5884 004e 02       		.byte	0x2
 5885 004f 37       		.byte	0x37
 5886 0050 54000000 		.4byte	0x54
 5887 0054 03       		.uleb128 0x3
 5888 0055 02       		.byte	0x2
 5889 0056 05       		.byte	0x5
 5890 0057 8E290000 		.4byte	.LASF5
ARM GAS  C:\Users\mathi\AppData\Local\Temp\ccXNOisu.s 			page 110


 5891 005b 02       		.uleb128 0x2
 5892 005c 0A0A0000 		.4byte	.LASF6
 5893 0060 02       		.byte	0x2
 5894 0061 39       		.byte	0x39
 5895 0062 66000000 		.4byte	0x66
 5896 0066 03       		.uleb128 0x3
 5897 0067 02       		.byte	0x2
 5898 0068 07       		.byte	0x7
 5899 0069 0C180000 		.4byte	.LASF7
 5900 006d 02       		.uleb128 0x2
 5901 006e 07220000 		.4byte	.LASF8
 5902 0072 02       		.byte	0x2
 5903 0073 4D       		.byte	0x4d
 5904 0074 78000000 		.4byte	0x78
 5905 0078 03       		.uleb128 0x3
 5906 0079 04       		.byte	0x4
 5907 007a 05       		.byte	0x5
 5908 007b EB1A0000 		.4byte	.LASF9
 5909 007f 02       		.uleb128 0x2
 5910 0080 21220000 		.4byte	.LASF10
 5911 0084 02       		.byte	0x2
 5912 0085 4F       		.byte	0x4f
 5913 0086 8A000000 		.4byte	0x8a
 5914 008a 03       		.uleb128 0x3
 5915 008b 04       		.byte	0x4
 5916 008c 07       		.byte	0x7
 5917 008d 901C0000 		.4byte	.LASF11
 5918 0091 03       		.uleb128 0x3
 5919 0092 08       		.byte	0x8
 5920 0093 05       		.byte	0x5
 5921 0094 B4260000 		.4byte	.LASF12
 5922 0098 02       		.uleb128 0x2
 5923 0099 85130000 		.4byte	.LASF13
 5924 009d 02       		.byte	0x2
 5925 009e 69       		.byte	0x69
 5926 009f A3000000 		.4byte	0xa3
 5927 00a3 03       		.uleb128 0x3
 5928 00a4 08       		.byte	0x8
 5929 00a5 07       		.byte	0x7
 5930 00a6 50240000 		.4byte	.LASF14
 5931 00aa 04       		.uleb128 0x4
 5932 00ab 04       		.byte	0x4
 5933 00ac 05       		.byte	0x5
 5934 00ad 696E7400 		.ascii	"int\000"
 5935 00b1 03       		.uleb128 0x3
 5936 00b2 04       		.byte	0x4
 5937 00b3 07       		.byte	0x7
 5938 00b4 16290000 		.4byte	.LASF15
 5939 00b8 02       		.uleb128 0x2
 5940 00b9 87160000 		.4byte	.LASF16
 5941 00bd 03       		.byte	0x3
 5942 00be 14       		.byte	0x14
 5943 00bf 25000000 		.4byte	0x25
 5944 00c3 02       		.uleb128 0x2
 5945 00c4 0E100000 		.4byte	.LASF17
 5946 00c8 03       		.byte	0x3
 5947 00c9 18       		.byte	0x18
ARM GAS  C:\Users\mathi\AppData\Local\Temp\ccXNOisu.s 			page 111


 5948 00ca 37000000 		.4byte	0x37
 5949 00ce 05       		.uleb128 0x5
 5950 00cf C3000000 		.4byte	0xc3
 5951 00d3 02       		.uleb128 0x2
 5952 00d4 EF170000 		.4byte	.LASF18
 5953 00d8 03       		.byte	0x3
 5954 00d9 20       		.byte	0x20
 5955 00da 49000000 		.4byte	0x49
 5956 00de 02       		.uleb128 0x2
 5957 00df EB030000 		.4byte	.LASF19
 5958 00e3 03       		.byte	0x3
 5959 00e4 24       		.byte	0x24
 5960 00e5 5B000000 		.4byte	0x5b
 5961 00e9 02       		.uleb128 0x2
 5962 00ea CA050000 		.4byte	.LASF20
 5963 00ee 03       		.byte	0x3
 5964 00ef 2C       		.byte	0x2c
 5965 00f0 6D000000 		.4byte	0x6d
 5966 00f4 06       		.uleb128 0x6
 5967 00f5 E9000000 		.4byte	0xe9
 5968 00f9 02       		.uleb128 0x2
 5969 00fa 011C0000 		.4byte	.LASF21
 5970 00fe 03       		.byte	0x3
 5971 00ff 30       		.byte	0x30
 5972 0100 7F000000 		.4byte	0x7f
 5973 0104 06       		.uleb128 0x6
 5974 0105 F9000000 		.4byte	0xf9
 5975 0109 05       		.uleb128 0x5
 5976 010a 04010000 		.4byte	0x104
 5977 010e 02       		.uleb128 0x2
 5978 010f 3E0D0000 		.4byte	.LASF22
 5979 0113 03       		.byte	0x3
 5980 0114 3C       		.byte	0x3c
 5981 0115 98000000 		.4byte	0x98
 5982 0119 02       		.uleb128 0x2
 5983 011a D20F0000 		.4byte	.LASF23
 5984 011e 04       		.byte	0x4
 5985 011f D8       		.byte	0xd8
 5986 0120 B1000000 		.4byte	0xb1
 5987 0124 03       		.uleb128 0x3
 5988 0125 08       		.byte	0x8
 5989 0126 04       		.byte	0x4
 5990 0127 451C0000 		.4byte	.LASF24
 5991 012b 02       		.uleb128 0x2
 5992 012c 5F0F0000 		.4byte	.LASF25
 5993 0130 05       		.byte	0x5
 5994 0131 45       		.byte	0x45
 5995 0132 F9000000 		.4byte	0xf9
 5996 0136 02       		.uleb128 0x2
 5997 0137 15080000 		.4byte	.LASF26
 5998 013b 05       		.byte	0x5
 5999 013c 46       		.byte	0x46
 6000 013d 0E010000 		.4byte	0x10e
 6001 0141 02       		.uleb128 0x2
 6002 0142 52150000 		.4byte	.LASF27
 6003 0146 05       		.byte	0x5
 6004 0147 48       		.byte	0x48
ARM GAS  C:\Users\mathi\AppData\Local\Temp\ccXNOisu.s 			page 112


 6005 0148 C3000000 		.4byte	0xc3
 6006 014c 02       		.uleb128 0x2
 6007 014d 49250000 		.4byte	.LASF28
 6008 0151 05       		.byte	0x5
 6009 0152 49       		.byte	0x49
 6010 0153 C3000000 		.4byte	0xc3
 6011 0157 02       		.uleb128 0x2
 6012 0158 D9140000 		.4byte	.LASF29
 6013 015c 05       		.byte	0x5
 6014 015d 4A       		.byte	0x4a
 6015 015e C3000000 		.4byte	0xc3
 6016 0162 02       		.uleb128 0x2
 6017 0163 24170000 		.4byte	.LASF30
 6018 0167 05       		.byte	0x5
 6019 0168 4B       		.byte	0x4b
 6020 0169 C3000000 		.4byte	0xc3
 6021 016d 02       		.uleb128 0x2
 6022 016e CD080000 		.4byte	.LASF31
 6023 0172 05       		.byte	0x5
 6024 0173 4C       		.byte	0x4c
 6025 0174 F9000000 		.4byte	0xf9
 6026 0178 02       		.uleb128 0x2
 6027 0179 B1000000 		.4byte	.LASF32
 6028 017d 05       		.byte	0x5
 6029 017e 4D       		.byte	0x4d
 6030 017f E9000000 		.4byte	0xe9
 6031 0183 02       		.uleb128 0x2
 6032 0184 5A1C0000 		.4byte	.LASF33
 6033 0188 05       		.byte	0x5
 6034 0189 4F       		.byte	0x4f
 6035 018a F9000000 		.4byte	0xf9
 6036 018e 02       		.uleb128 0x2
 6037 018f 5E270000 		.4byte	.LASF34
 6038 0193 05       		.byte	0x5
 6039 0194 50       		.byte	0x50
 6040 0195 F9000000 		.4byte	0xf9
 6041 0199 02       		.uleb128 0x2
 6042 019a 851F0000 		.4byte	.LASF35
 6043 019e 05       		.byte	0x5
 6044 019f 51       		.byte	0x51
 6045 01a0 E9000000 		.4byte	0xe9
 6046 01a4 02       		.uleb128 0x2
 6047 01a5 52180000 		.4byte	.LASF36
 6048 01a9 05       		.byte	0x5
 6049 01aa 52       		.byte	0x52
 6050 01ab F9000000 		.4byte	0xf9
 6051 01af 02       		.uleb128 0x2
 6052 01b0 F6050000 		.4byte	.LASF37
 6053 01b4 06       		.byte	0x6
 6054 01b5 33       		.byte	0x33
 6055 01b6 F9000000 		.4byte	0xf9
 6056 01ba 06       		.uleb128 0x6
 6057 01bb AF010000 		.4byte	0x1af
 6058 01bf 02       		.uleb128 0x2
 6059 01c0 82050000 		.4byte	.LASF38
 6060 01c4 06       		.byte	0x6
 6061 01c5 3F       		.byte	0x3f
ARM GAS  C:\Users\mathi\AppData\Local\Temp\ccXNOisu.s 			page 113


 6062 01c6 CA010000 		.4byte	0x1ca
 6063 01ca 07       		.uleb128 0x7
 6064 01cb 080C0000 		.4byte	.LASF62
 6065 01cf 68       		.byte	0x68
 6066 01d0 07       		.byte	0x7
 6067 01d1 C2       		.byte	0xc2
 6068 01d2 E8020000 		.4byte	0x2e8
 6069 01d6 08       		.uleb128 0x8
 6070 01d7 75140000 		.4byte	.LASF39
 6071 01db 07       		.byte	0x7
 6072 01dc C3       		.byte	0xc3
 6073 01dd F3020000 		.4byte	0x2f3
 6074 01e1 00       		.byte	0
 6075 01e2 08       		.uleb128 0x8
 6076 01e3 34100000 		.4byte	.LASF40
 6077 01e7 07       		.byte	0x7
 6078 01e8 C5       		.byte	0xc5
 6079 01e9 F3020000 		.4byte	0x2f3
 6080 01ed 04       		.byte	0x4
 6081 01ee 08       		.uleb128 0x8
 6082 01ef 66130000 		.4byte	.LASF41
 6083 01f3 07       		.byte	0x7
 6084 01f4 C7       		.byte	0xc7
 6085 01f5 6D010000 		.4byte	0x16d
 6086 01f9 08       		.byte	0x8
 6087 01fa 08       		.uleb128 0x8
 6088 01fb C60C0000 		.4byte	.LASF42
 6089 01ff 07       		.byte	0x7
 6090 0200 C8       		.byte	0xc8
 6091 0201 9F0D0000 		.4byte	0xd9f
 6092 0205 0C       		.byte	0xc
 6093 0206 08       		.uleb128 0x8
 6094 0207 92040000 		.4byte	.LASF43
 6095 020b 07       		.byte	0x7
 6096 020c CA       		.byte	0xca
 6097 020d F3020000 		.4byte	0x2f3
 6098 0211 10       		.byte	0x10
 6099 0212 08       		.uleb128 0x8
 6100 0213 E0270000 		.4byte	.LASF44
 6101 0217 07       		.byte	0x7
 6102 0218 CB       		.byte	0xcb
 6103 0219 F3020000 		.4byte	0x2f3
 6104 021d 14       		.byte	0x14
 6105 021e 08       		.uleb128 0x8
 6106 021f D5250000 		.4byte	.LASF45
 6107 0223 07       		.byte	0x7
 6108 0224 D2       		.byte	0xd2
 6109 0225 15110000 		.4byte	0x1115
 6110 0229 18       		.byte	0x18
 6111 022a 08       		.uleb128 0x8
 6112 022b 7A1F0000 		.4byte	.LASF46
 6113 022f 07       		.byte	0x7
 6114 0230 D8       		.byte	0xd8
 6115 0231 2C110000 		.4byte	0x112c
 6116 0235 1C       		.byte	0x1c
 6117 0236 08       		.uleb128 0x8
 6118 0237 522A0000 		.4byte	.LASF47
ARM GAS  C:\Users\mathi\AppData\Local\Temp\ccXNOisu.s 			page 114


 6119 023b 07       		.byte	0x7
 6120 023c DD       		.byte	0xdd
 6121 023d 4C010000 		.4byte	0x14c
 6122 0241 20       		.byte	0x20
 6123 0242 08       		.uleb128 0x8
 6124 0243 EF240000 		.4byte	.LASF48
 6125 0247 07       		.byte	0x7
 6126 0248 E1       		.byte	0xe1
 6127 0249 41010000 		.4byte	0x141
 6128 024d 21       		.byte	0x21
 6129 024e 08       		.uleb128 0x8
 6130 024f CA1A0000 		.4byte	.LASF49
 6131 0253 07       		.byte	0x7
 6132 0254 E6       		.byte	0xe6
 6133 0255 57010000 		.4byte	0x157
 6134 0259 22       		.byte	0x22
 6135 025a 08       		.uleb128 0x8
 6136 025b 48180000 		.4byte	.LASF50
 6137 025f 07       		.byte	0x7
 6138 0260 EC       		.byte	0xec
 6139 0261 62010000 		.4byte	0x162
 6140 0265 23       		.byte	0x23
 6141 0266 08       		.uleb128 0x8
 6142 0267 C31A0000 		.4byte	.LASF51
 6143 026b 07       		.byte	0x7
 6144 026c F3       		.byte	0xf3
 6145 026d BA010000 		.4byte	0x1ba
 6146 0271 24       		.byte	0x24
 6147 0272 09       		.uleb128 0x9
 6148 0273 705F7500 		.ascii	"p_u\000"
 6149 0277 07       		.byte	0x7
 6150 0278 3101     		.2byte	0x131
 6151 027a 44100000 		.4byte	0x1044
 6152 027e 28       		.byte	0x28
 6153 027f 0A       		.uleb128 0xa
 6154 0280 56070000 		.4byte	.LASF52
 6155 0284 07       		.byte	0x7
 6156 0285 3601     		.2byte	0x136
 6157 0287 F9020000 		.4byte	0x2f9
 6158 028b 2C       		.byte	0x2c
 6159 028c 0A       		.uleb128 0xa
 6160 028d E8180000 		.4byte	.LASF53
 6161 0291 07       		.byte	0x7
 6162 0292 3C01     		.2byte	0x13c
 6163 0294 1D030000 		.4byte	0x31d
 6164 0298 30       		.byte	0x30
 6165 0299 0A       		.uleb128 0xa
 6166 029a 2D0A0000 		.4byte	.LASF54
 6167 029e 07       		.byte	0x7
 6168 029f 4001     		.2byte	0x140
 6169 02a1 78010000 		.4byte	0x178
 6170 02a5 38       		.byte	0x38
 6171 02a6 0A       		.uleb128 0xa
 6172 02a7 E2220000 		.4byte	.LASF55
 6173 02ab 07       		.byte	0x7
 6174 02ac 4601     		.2byte	0x146
 6175 02ae 83010000 		.4byte	0x183
ARM GAS  C:\Users\mathi\AppData\Local\Temp\ccXNOisu.s 			page 115


 6176 02b2 3C       		.byte	0x3c
 6177 02b3 0A       		.uleb128 0xa
 6178 02b4 34250000 		.4byte	.LASF56
 6179 02b8 07       		.byte	0x7
 6180 02b9 4D01     		.2byte	0x14d
 6181 02bb 0F110000 		.4byte	0x110f
 6182 02bf 40       		.byte	0x40
 6183 02c0 0A       		.uleb128 0xa
 6184 02c1 1B210000 		.4byte	.LASF57
 6185 02c5 07       		.byte	0x7
 6186 02c6 5101     		.2byte	0x151
 6187 02c8 6D010000 		.4byte	0x16d
 6188 02cc 44       		.byte	0x44
 6189 02cd 0A       		.uleb128 0xa
 6190 02ce E1140000 		.4byte	.LASF58
 6191 02d2 07       		.byte	0x7
 6192 02d3 5801     		.2byte	0x158
 6193 02d5 D0030000 		.4byte	0x3d0
 6194 02d9 48       		.byte	0x48
 6195 02da 0A       		.uleb128 0xa
 6196 02db 932A0000 		.4byte	.LASF59
 6197 02df 07       		.byte	0x7
 6198 02e0 5E01     		.2byte	0x15e
 6199 02e2 F50F0000 		.4byte	0xff5
 6200 02e6 50       		.byte	0x50
 6201 02e7 00       		.byte	0
 6202 02e8 02       		.uleb128 0x2
 6203 02e9 49280000 		.4byte	.LASF60
 6204 02ed 06       		.byte	0x6
 6205 02ee 44       		.byte	0x44
 6206 02ef F3020000 		.4byte	0x2f3
 6207 02f3 0B       		.uleb128 0xb
 6208 02f4 04       		.byte	0x4
 6209 02f5 BF010000 		.4byte	0x1bf
 6210 02f9 02       		.uleb128 0x2
 6211 02fa A0070000 		.4byte	.LASF61
 6212 02fe 06       		.byte	0x6
 6213 02ff 49       		.byte	0x49
 6214 0300 04030000 		.4byte	0x304
 6215 0304 07       		.uleb128 0x7
 6216 0305 6C2A0000 		.4byte	.LASF63
 6217 0309 04       		.byte	0x4
 6218 030a 07       		.byte	0x7
 6219 030b B0       		.byte	0xb0
 6220 030c 1D030000 		.4byte	0x31d
 6221 0310 08       		.uleb128 0x8
 6222 0311 75140000 		.4byte	.LASF39
 6223 0315 07       		.byte	0x7
 6224 0316 B1       		.byte	0xb1
 6225 0317 F3020000 		.4byte	0x2f3
 6226 031b 00       		.byte	0
 6227 031c 00       		.byte	0
 6228 031d 02       		.uleb128 0x2
 6229 031e A81A0000 		.4byte	.LASF64
 6230 0322 06       		.byte	0x6
 6231 0323 50       		.byte	0x50
 6232 0324 28030000 		.4byte	0x328
ARM GAS  C:\Users\mathi\AppData\Local\Temp\ccXNOisu.s 			page 116


 6233 0328 07       		.uleb128 0x7
 6234 0329 77040000 		.4byte	.LASF65
 6235 032d 08       		.byte	0x8
 6236 032e 07       		.byte	0x7
 6237 032f B7       		.byte	0xb7
 6238 0330 4D030000 		.4byte	0x34d
 6239 0334 08       		.uleb128 0x8
 6240 0335 75140000 		.4byte	.LASF39
 6241 0339 07       		.byte	0x7
 6242 033a B8       		.byte	0xb8
 6243 033b F3020000 		.4byte	0x2f3
 6244 033f 00       		.byte	0
 6245 0340 08       		.uleb128 0x8
 6246 0341 34100000 		.4byte	.LASF40
 6247 0345 07       		.byte	0x7
 6248 0346 B9       		.byte	0xb9
 6249 0347 F3020000 		.4byte	0x2f3
 6250 034b 04       		.byte	0x4
 6251 034c 00       		.byte	0
 6252 034d 02       		.uleb128 0x2
 6253 034e FB0B0000 		.4byte	.LASF66
 6254 0352 06       		.byte	0x6
 6255 0353 57       		.byte	0x57
 6256 0354 58030000 		.4byte	0x358
 6257 0358 0C       		.uleb128 0xc
 6258 0359 DD210000 		.4byte	.LASF67
 6259 035d 1C       		.byte	0x1c
 6260 035e 07       		.byte	0x7
 6261 035f 9001     		.2byte	0x190
 6262 0361 B4030000 		.4byte	0x3b4
 6263 0365 0A       		.uleb128 0xa
 6264 0366 6A1D0000 		.4byte	.LASF68
 6265 036a 07       		.byte	0x7
 6266 036b 9101     		.2byte	0x191
 6267 036d 1D030000 		.4byte	0x31d
 6268 0371 00       		.byte	0
 6269 0372 0A       		.uleb128 0xa
 6270 0373 17240000 		.4byte	.LASF69
 6271 0377 07       		.byte	0x7
 6272 0378 9201     		.2byte	0x192
 6273 037a 6D010000 		.4byte	0x16d
 6274 037e 08       		.byte	0x8
 6275 037f 0A       		.uleb128 0xa
 6276 0380 3F0F0000 		.4byte	.LASF70
 6277 0384 07       		.byte	0x7
 6278 0385 9401     		.2byte	0x194
 6279 0387 9F0D0000 		.4byte	0xd9f
 6280 038b 0C       		.byte	0xc
 6281 038c 0A       		.uleb128 0xa
 6282 038d B4160000 		.4byte	.LASF71
 6283 0391 07       		.byte	0x7
 6284 0392 9701     		.2byte	0x197
 6285 0394 F3020000 		.4byte	0x2f3
 6286 0398 10       		.byte	0x10
 6287 0399 0A       		.uleb128 0xa
 6288 039a 2C100000 		.4byte	.LASF72
 6289 039e 07       		.byte	0x7
ARM GAS  C:\Users\mathi\AppData\Local\Temp\ccXNOisu.s 			page 117


 6290 039f 9801     		.2byte	0x198
 6291 03a1 F3020000 		.4byte	0x2f3
 6292 03a5 14       		.byte	0x14
 6293 03a6 0A       		.uleb128 0xa
 6294 03a7 F20C0000 		.4byte	.LASF73
 6295 03ab 07       		.byte	0x7
 6296 03ac 9B01     		.2byte	0x19b
 6297 03ae F3020000 		.4byte	0x2f3
 6298 03b2 18       		.byte	0x18
 6299 03b3 00       		.byte	0
 6300 03b4 02       		.uleb128 0x2
 6301 03b5 AA200000 		.4byte	.LASF74
 6302 03b9 06       		.byte	0x6
 6303 03ba 5C       		.byte	0x5c
 6304 03bb BF030000 		.4byte	0x3bf
 6305 03bf 0B       		.uleb128 0xb
 6306 03c0 04       		.byte	0x4
 6307 03c1 C5030000 		.4byte	0x3c5
 6308 03c5 0D       		.uleb128 0xd
 6309 03c6 D0030000 		.4byte	0x3d0
 6310 03ca 0E       		.uleb128 0xe
 6311 03cb D0030000 		.4byte	0x3d0
 6312 03cf 00       		.byte	0
 6313 03d0 0F       		.uleb128 0xf
 6314 03d1 04       		.byte	0x4
 6315 03d2 02       		.uleb128 0x2
 6316 03d3 170F0000 		.4byte	.LASF75
 6317 03d7 06       		.byte	0x6
 6318 03d8 61       		.byte	0x61
 6319 03d9 DD030000 		.4byte	0x3dd
 6320 03dd 0C       		.uleb128 0xc
 6321 03de DE240000 		.4byte	.LASF76
 6322 03e2 14       		.byte	0x14
 6323 03e3 07       		.byte	0x7
 6324 03e4 6B01     		.2byte	0x16b
 6325 03e6 2C040000 		.4byte	0x42c
 6326 03ea 0A       		.uleb128 0xa
 6327 03eb 450F0000 		.4byte	.LASF77
 6328 03ef 07       		.byte	0x7
 6329 03f0 6C01     		.2byte	0x16c
 6330 03f2 32110000 		.4byte	0x1132
 6331 03f6 00       		.byte	0
 6332 03f7 0A       		.uleb128 0xa
 6333 03f8 A10B0000 		.4byte	.LASF78
 6334 03fc 07       		.byte	0x7
 6335 03fd 6D01     		.2byte	0x16d
 6336 03ff 32110000 		.4byte	0x1132
 6337 0403 04       		.byte	0x4
 6338 0404 0A       		.uleb128 0xa
 6339 0405 B9170000 		.4byte	.LASF79
 6340 0409 07       		.byte	0x7
 6341 040a 6E01     		.2byte	0x16e
 6342 040c AF010000 		.4byte	0x1af
 6343 0410 08       		.byte	0x8
 6344 0411 0A       		.uleb128 0xa
 6345 0412 C9240000 		.4byte	.LASF80
 6346 0416 07       		.byte	0x7
ARM GAS  C:\Users\mathi\AppData\Local\Temp\ccXNOisu.s 			page 118


 6347 0417 6F01     		.2byte	0x16f
 6348 0419 B4030000 		.4byte	0x3b4
 6349 041d 0C       		.byte	0xc
 6350 041e 0A       		.uleb128 0xa
 6351 041f CC0C0000 		.4byte	.LASF81
 6352 0423 07       		.byte	0x7
 6353 0424 7101     		.2byte	0x171
 6354 0426 D0030000 		.4byte	0x3d0
 6355 042a 10       		.byte	0x10
 6356 042b 00       		.byte	0
 6357 042c 02       		.uleb128 0x2
 6358 042d 29260000 		.4byte	.LASF82
 6359 0431 06       		.byte	0x6
 6360 0432 66       		.byte	0x66
 6361 0433 37040000 		.4byte	0x437
 6362 0437 0C       		.uleb128 0xc
 6363 0438 AC050000 		.4byte	.LASF83
 6364 043c 10       		.byte	0x10
 6365 043d 07       		.byte	0x7
 6366 043e 7B01     		.2byte	0x17b
 6367 0440 79040000 		.4byte	0x479
 6368 0444 0A       		.uleb128 0xa
 6369 0445 450F0000 		.4byte	.LASF77
 6370 0449 07       		.byte	0x7
 6371 044a 7C01     		.2byte	0x17c
 6372 044c 32110000 		.4byte	0x1132
 6373 0450 00       		.byte	0
 6374 0451 0A       		.uleb128 0xa
 6375 0452 A10B0000 		.4byte	.LASF78
 6376 0456 07       		.byte	0x7
 6377 0457 7E01     		.2byte	0x17e
 6378 0459 32110000 		.4byte	0x1132
 6379 045d 04       		.byte	0x4
 6380 045e 0A       		.uleb128 0xa
 6381 045f B9170000 		.4byte	.LASF79
 6382 0463 07       		.byte	0x7
 6383 0464 8001     		.2byte	0x180
 6384 0466 AF010000 		.4byte	0x1af
 6385 046a 08       		.byte	0x8
 6386 046b 0A       		.uleb128 0xa
 6387 046c 16020000 		.4byte	.LASF84
 6388 0470 07       		.byte	0x7
 6389 0471 8201     		.2byte	0x182
 6390 0473 BA010000 		.4byte	0x1ba
 6391 0477 0C       		.byte	0xc
 6392 0478 00       		.byte	0
 6393 0479 02       		.uleb128 0x2
 6394 047a 950C0000 		.4byte	.LASF85
 6395 047e 06       		.byte	0x6
 6396 047f 6B       		.byte	0x6b
 6397 0480 84040000 		.4byte	0x484
 6398 0484 10       		.uleb128 0x10
 6399 0485 37220000 		.4byte	.LASF86
 6400 0489 1404     		.2byte	0x414
 6401 048b 07       		.byte	0x7
 6402 048c A201     		.2byte	0x1a2
 6403 048e C7040000 		.4byte	0x4c7
ARM GAS  C:\Users\mathi\AppData\Local\Temp\ccXNOisu.s 			page 119


 6404 0492 0A       		.uleb128 0xa
 6405 0493 96160000 		.4byte	.LASF87
 6406 0497 07       		.byte	0x7
 6407 0498 AA01     		.2byte	0x1aa
 6408 049a 1B110000 		.4byte	0x111b
 6409 049e 00       		.byte	0
 6410 049f 0A       		.uleb128 0xa
 6411 04a0 2F160000 		.4byte	.LASF88
 6412 04a4 07       		.byte	0x7
 6413 04a5 AF01     		.2byte	0x1af
 6414 04a7 99010000 		.4byte	0x199
 6415 04ab 04       		.byte	0x4
 6416 04ac 0A       		.uleb128 0xa
 6417 04ad 6E040000 		.4byte	.LASF89
 6418 04b1 07       		.byte	0x7
 6419 04b2 B301     		.2byte	0x1b3
 6420 04b4 99010000 		.4byte	0x199
 6421 04b8 08       		.byte	0x8
 6422 04b9 0A       		.uleb128 0xa
 6423 04ba FF190000 		.4byte	.LASF90
 6424 04be 07       		.byte	0x7
 6425 04bf B901     		.2byte	0x1b9
 6426 04c1 870F0000 		.4byte	0xf87
 6427 04c5 0C       		.byte	0xc
 6428 04c6 00       		.byte	0
 6429 04c7 02       		.uleb128 0x2
 6430 04c8 33010000 		.4byte	.LASF91
 6431 04cc 06       		.byte	0x6
 6432 04cd 70       		.byte	0x70
 6433 04ce D2040000 		.4byte	0x4d2
 6434 04d2 10       		.uleb128 0x10
 6435 04d3 E8190000 		.4byte	.LASF92
 6436 04d7 7006     		.2byte	0x670
 6437 04d9 07       		.byte	0x7
 6438 04da C201     		.2byte	0x1c2
 6439 04dc 3F050000 		.4byte	0x53f
 6440 04e0 0A       		.uleb128 0xa
 6441 04e1 9A070000 		.4byte	.LASF93
 6442 04e5 07       		.byte	0x7
 6443 04e6 C601     		.2byte	0x1c6
 6444 04e8 4D030000 		.4byte	0x34d
 6445 04ec 00       		.byte	0
 6446 04ed 0A       		.uleb128 0xa
 6447 04ee 40070000 		.4byte	.LASF94
 6448 04f2 07       		.byte	0x7
 6449 04f3 CA01     		.2byte	0x1ca
 6450 04f5 2C040000 		.4byte	0x42c
 6451 04f9 1C       		.byte	0x1c
 6452 04fa 09       		.uleb128 0x9
 6453 04fb 64626700 		.ascii	"dbg\000"
 6454 04ff 07       		.byte	0x7
 6455 0500 CE01     		.2byte	0x1ce
 6456 0502 79040000 		.4byte	0x479
 6457 0506 2C       		.byte	0x2c
 6458 0507 11       		.uleb128 0x11
 6459 0508 F41A0000 		.4byte	.LASF95
 6460 050c 07       		.byte	0x7
ARM GAS  C:\Users\mathi\AppData\Local\Temp\ccXNOisu.s 			page 120


 6461 050d D201     		.2byte	0x1d2
 6462 050f BF010000 		.4byte	0x1bf
 6463 0513 4004     		.2byte	0x440
 6464 0515 12       		.uleb128 0x12
 6465 0516 746D00   		.ascii	"tm\000"
 6466 0519 07       		.byte	0x7
 6467 051a D701     		.2byte	0x1d7
 6468 051c A70F0000 		.4byte	0xfa7
 6469 0520 A804     		.2byte	0x4a8
 6470 0522 11       		.uleb128 0x11
 6471 0523 D90F0000 		.4byte	.LASF96
 6472 0527 07       		.byte	0x7
 6473 0528 DD01     		.2byte	0x1dd
 6474 052a 39100000 		.4byte	0x1039
 6475 052e B004     		.2byte	0x4b0
 6476 0530 11       		.uleb128 0x11
 6477 0531 A6240000 		.4byte	.LASF97
 6478 0535 07       		.byte	0x7
 6479 0536 E301     		.2byte	0x1e3
 6480 0538 38110000 		.4byte	0x1138
 6481 053c E804     		.2byte	0x4e8
 6482 053e 00       		.byte	0
 6483 053f 13       		.uleb128 0x13
 6484 0540 F9000000 		.4byte	0xf9
 6485 0544 4F050000 		.4byte	0x54f
 6486 0548 14       		.uleb128 0x14
 6487 0549 B1000000 		.4byte	0xb1
 6488 054d 01       		.byte	0x1
 6489 054e 00       		.byte	0
 6490 054f 13       		.uleb128 0x13
 6491 0550 F9000000 		.4byte	0xf9
 6492 0554 5F050000 		.4byte	0x55f
 6493 0558 14       		.uleb128 0x14
 6494 0559 B1000000 		.4byte	0xb1
 6495 055d 07       		.byte	0x7
 6496 055e 00       		.byte	0
 6497 055f 15       		.uleb128 0x15
 6498 0560 23240000 		.4byte	.LASF98
 6499 0564 08       		.byte	0x8
 6500 0565 A706     		.2byte	0x6a7
 6501 0567 F4000000 		.4byte	0xf4
 6502 056b 16       		.uleb128 0x16
 6503 056c 2D190000 		.4byte	.LASF99
 6504 0570 09       		.byte	0x9
 6505 0571 4C       		.byte	0x4c
 6506 0572 F9000000 		.4byte	0xf9
 6507 0576 17       		.uleb128 0x17
 6508 0577 50       		.byte	0x50
 6509 0578 0A       		.byte	0xa
 6510 0579 C4       		.byte	0xc4
 6511 057a 6D060000 		.4byte	0x66d
 6512 057e 18       		.uleb128 0x18
 6513 057f 535200   		.ascii	"SR\000"
 6514 0582 0A       		.byte	0xa
 6515 0583 C6       		.byte	0xc6
 6516 0584 04010000 		.4byte	0x104
 6517 0588 00       		.byte	0
ARM GAS  C:\Users\mathi\AppData\Local\Temp\ccXNOisu.s 			page 121


 6518 0589 18       		.uleb128 0x18
 6519 058a 43523100 		.ascii	"CR1\000"
 6520 058e 0A       		.byte	0xa
 6521 058f C7       		.byte	0xc7
 6522 0590 04010000 		.4byte	0x104
 6523 0594 04       		.byte	0x4
 6524 0595 18       		.uleb128 0x18
 6525 0596 43523200 		.ascii	"CR2\000"
 6526 059a 0A       		.byte	0xa
 6527 059b C8       		.byte	0xc8
 6528 059c 04010000 		.4byte	0x104
 6529 05a0 08       		.byte	0x8
 6530 05a1 08       		.uleb128 0x8
 6531 05a2 BC040000 		.4byte	.LASF100
 6532 05a6 0A       		.byte	0xa
 6533 05a7 C9       		.byte	0xc9
 6534 05a8 04010000 		.4byte	0x104
 6535 05ac 0C       		.byte	0xc
 6536 05ad 08       		.uleb128 0x8
 6537 05ae C2040000 		.4byte	.LASF101
 6538 05b2 0A       		.byte	0xa
 6539 05b3 CA       		.byte	0xca
 6540 05b4 04010000 		.4byte	0x104
 6541 05b8 10       		.byte	0x10
 6542 05b9 08       		.uleb128 0x8
 6543 05ba D30C0000 		.4byte	.LASF102
 6544 05be 0A       		.byte	0xa
 6545 05bf CB       		.byte	0xcb
 6546 05c0 04010000 		.4byte	0x104
 6547 05c4 14       		.byte	0x14
 6548 05c5 08       		.uleb128 0x8
 6549 05c6 D90C0000 		.4byte	.LASF103
 6550 05ca 0A       		.byte	0xa
 6551 05cb CC       		.byte	0xcc
 6552 05cc 04010000 		.4byte	0x104
 6553 05d0 18       		.byte	0x18
 6554 05d1 08       		.uleb128 0x8
 6555 05d2 DF0C0000 		.4byte	.LASF104
 6556 05d6 0A       		.byte	0xa
 6557 05d7 CD       		.byte	0xcd
 6558 05d8 04010000 		.4byte	0x104
 6559 05dc 1C       		.byte	0x1c
 6560 05dd 08       		.uleb128 0x8
 6561 05de E50C0000 		.4byte	.LASF105
 6562 05e2 0A       		.byte	0xa
 6563 05e3 CE       		.byte	0xce
 6564 05e4 04010000 		.4byte	0x104
 6565 05e8 20       		.byte	0x20
 6566 05e9 18       		.uleb128 0x18
 6567 05ea 48545200 		.ascii	"HTR\000"
 6568 05ee 0A       		.byte	0xa
 6569 05ef CF       		.byte	0xcf
 6570 05f0 04010000 		.4byte	0x104
 6571 05f4 24       		.byte	0x24
 6572 05f5 18       		.uleb128 0x18
 6573 05f6 4C545200 		.ascii	"LTR\000"
 6574 05fa 0A       		.byte	0xa
ARM GAS  C:\Users\mathi\AppData\Local\Temp\ccXNOisu.s 			page 122


 6575 05fb D0       		.byte	0xd0
 6576 05fc 04010000 		.4byte	0x104
 6577 0600 28       		.byte	0x28
 6578 0601 08       		.uleb128 0x8
 6579 0602 76150000 		.4byte	.LASF106
 6580 0606 0A       		.byte	0xa
 6581 0607 D1       		.byte	0xd1
 6582 0608 04010000 		.4byte	0x104
 6583 060c 2C       		.byte	0x2c
 6584 060d 08       		.uleb128 0x8
 6585 060e 7B150000 		.4byte	.LASF107
 6586 0612 0A       		.byte	0xa
 6587 0613 D2       		.byte	0xd2
 6588 0614 04010000 		.4byte	0x104
 6589 0618 30       		.byte	0x30
 6590 0619 08       		.uleb128 0x8
 6591 061a 80150000 		.4byte	.LASF108
 6592 061e 0A       		.byte	0xa
 6593 061f D3       		.byte	0xd3
 6594 0620 04010000 		.4byte	0x104
 6595 0624 34       		.byte	0x34
 6596 0625 08       		.uleb128 0x8
 6597 0626 E60E0000 		.4byte	.LASF109
 6598 062a 0A       		.byte	0xa
 6599 062b D4       		.byte	0xd4
 6600 062c 04010000 		.4byte	0x104
 6601 0630 38       		.byte	0x38
 6602 0631 08       		.uleb128 0x8
 6603 0632 F4250000 		.4byte	.LASF110
 6604 0636 0A       		.byte	0xa
 6605 0637 D5       		.byte	0xd5
 6606 0638 04010000 		.4byte	0x104
 6607 063c 3C       		.byte	0x3c
 6608 063d 08       		.uleb128 0x8
 6609 063e F9250000 		.4byte	.LASF111
 6610 0642 0A       		.byte	0xa
 6611 0643 D6       		.byte	0xd6
 6612 0644 04010000 		.4byte	0x104
 6613 0648 40       		.byte	0x40
 6614 0649 08       		.uleb128 0x8
 6615 064a FE250000 		.4byte	.LASF112
 6616 064e 0A       		.byte	0xa
 6617 064f D7       		.byte	0xd7
 6618 0650 04010000 		.4byte	0x104
 6619 0654 44       		.byte	0x44
 6620 0655 08       		.uleb128 0x8
 6621 0656 03260000 		.4byte	.LASF113
 6622 065a 0A       		.byte	0xa
 6623 065b D8       		.byte	0xd8
 6624 065c 04010000 		.4byte	0x104
 6625 0660 48       		.byte	0x48
 6626 0661 18       		.uleb128 0x18
 6627 0662 445200   		.ascii	"DR\000"
 6628 0665 0A       		.byte	0xa
 6629 0666 D9       		.byte	0xd9
 6630 0667 04010000 		.4byte	0x104
 6631 066b 4C       		.byte	0x4c
ARM GAS  C:\Users\mathi\AppData\Local\Temp\ccXNOisu.s 			page 123


 6632 066c 00       		.byte	0
 6633 066d 02       		.uleb128 0x2
 6634 066e 00180000 		.4byte	.LASF114
 6635 0672 0A       		.byte	0xa
 6636 0673 DA       		.byte	0xda
 6637 0674 76050000 		.4byte	0x576
 6638 0678 17       		.uleb128 0x17
 6639 0679 10       		.byte	0x10
 6640 067a 0A       		.byte	0xa
 6641 067b E9       		.byte	0xe9
 6642 067c B1060000 		.4byte	0x6b1
 6643 0680 18       		.uleb128 0x18
 6644 0681 54495200 		.ascii	"TIR\000"
 6645 0685 0A       		.byte	0xa
 6646 0686 EB       		.byte	0xeb
 6647 0687 04010000 		.4byte	0x104
 6648 068b 00       		.byte	0
 6649 068c 08       		.uleb128 0x8
 6650 068d 12130000 		.4byte	.LASF115
 6651 0691 0A       		.byte	0xa
 6652 0692 EC       		.byte	0xec
 6653 0693 04010000 		.4byte	0x104
 6654 0697 04       		.byte	0x4
 6655 0698 08       		.uleb128 0x8
 6656 0699 E61A0000 		.4byte	.LASF116
 6657 069d 0A       		.byte	0xa
 6658 069e ED       		.byte	0xed
 6659 069f 04010000 		.4byte	0x104
 6660 06a3 08       		.byte	0x8
 6661 06a4 08       		.uleb128 0x8
 6662 06a5 59180000 		.4byte	.LASF117
 6663 06a9 0A       		.byte	0xa
 6664 06aa EE       		.byte	0xee
 6665 06ab 04010000 		.4byte	0x104
 6666 06af 0C       		.byte	0xc
 6667 06b0 00       		.byte	0
 6668 06b1 02       		.uleb128 0x2
 6669 06b2 84070000 		.4byte	.LASF118
 6670 06b6 0A       		.byte	0xa
 6671 06b7 EF       		.byte	0xef
 6672 06b8 78060000 		.4byte	0x678
 6673 06bc 17       		.uleb128 0x17
 6674 06bd 10       		.byte	0x10
 6675 06be 0A       		.byte	0xa
 6676 06bf F5       		.byte	0xf5
 6677 06c0 F5060000 		.4byte	0x6f5
 6678 06c4 18       		.uleb128 0x18
 6679 06c5 52495200 		.ascii	"RIR\000"
 6680 06c9 0A       		.byte	0xa
 6681 06ca F7       		.byte	0xf7
 6682 06cb 04010000 		.4byte	0x104
 6683 06cf 00       		.byte	0
 6684 06d0 08       		.uleb128 0x8
 6685 06d1 C0210000 		.4byte	.LASF119
 6686 06d5 0A       		.byte	0xa
 6687 06d6 F8       		.byte	0xf8
 6688 06d7 04010000 		.4byte	0x104
ARM GAS  C:\Users\mathi\AppData\Local\Temp\ccXNOisu.s 			page 124


 6689 06db 04       		.byte	0x4
 6690 06dc 08       		.uleb128 0x8
 6691 06dd 291C0000 		.4byte	.LASF120
 6692 06e1 0A       		.byte	0xa
 6693 06e2 F9       		.byte	0xf9
 6694 06e3 04010000 		.4byte	0x104
 6695 06e7 08       		.byte	0x8
 6696 06e8 08       		.uleb128 0x8
 6697 06e9 C9190000 		.4byte	.LASF121
 6698 06ed 0A       		.byte	0xa
 6699 06ee FA       		.byte	0xfa
 6700 06ef 04010000 		.4byte	0x104
 6701 06f3 0C       		.byte	0xc
 6702 06f4 00       		.byte	0
 6703 06f5 02       		.uleb128 0x2
 6704 06f6 B3200000 		.4byte	.LASF122
 6705 06fa 0A       		.byte	0xa
 6706 06fb FB       		.byte	0xfb
 6707 06fc BC060000 		.4byte	0x6bc
 6708 0700 19       		.uleb128 0x19
 6709 0701 08       		.byte	0x8
 6710 0702 0A       		.byte	0xa
 6711 0703 0101     		.2byte	0x101
 6712 0705 24070000 		.4byte	0x724
 6713 0709 09       		.uleb128 0x9
 6714 070a 46523100 		.ascii	"FR1\000"
 6715 070e 0A       		.byte	0xa
 6716 070f 0301     		.2byte	0x103
 6717 0711 04010000 		.4byte	0x104
 6718 0715 00       		.byte	0
 6719 0716 09       		.uleb128 0x9
 6720 0717 46523200 		.ascii	"FR2\000"
 6721 071b 0A       		.byte	0xa
 6722 071c 0401     		.2byte	0x104
 6723 071e 04010000 		.4byte	0x104
 6724 0722 04       		.byte	0x4
 6725 0723 00       		.byte	0
 6726 0724 1A       		.uleb128 0x1a
 6727 0725 17130000 		.4byte	.LASF123
 6728 0729 0A       		.byte	0xa
 6729 072a 0501     		.2byte	0x105
 6730 072c 00070000 		.4byte	0x700
 6731 0730 1B       		.uleb128 0x1b
 6732 0731 2003     		.2byte	0x320
 6733 0733 0A       		.byte	0xa
 6734 0734 0B01     		.2byte	0x10b
 6735 0736 66080000 		.4byte	0x866
 6736 073a 09       		.uleb128 0x9
 6737 073b 4D435200 		.ascii	"MCR\000"
 6738 073f 0A       		.byte	0xa
 6739 0740 0D01     		.2byte	0x10d
 6740 0742 04010000 		.4byte	0x104
 6741 0746 00       		.byte	0
 6742 0747 09       		.uleb128 0x9
 6743 0748 4D535200 		.ascii	"MSR\000"
 6744 074c 0A       		.byte	0xa
 6745 074d 0E01     		.2byte	0x10e
ARM GAS  C:\Users\mathi\AppData\Local\Temp\ccXNOisu.s 			page 125


 6746 074f 04010000 		.4byte	0x104
 6747 0753 04       		.byte	0x4
 6748 0754 09       		.uleb128 0x9
 6749 0755 54535200 		.ascii	"TSR\000"
 6750 0759 0A       		.byte	0xa
 6751 075a 0F01     		.2byte	0x10f
 6752 075c 04010000 		.4byte	0x104
 6753 0760 08       		.byte	0x8
 6754 0761 0A       		.uleb128 0xa
 6755 0762 25110000 		.4byte	.LASF124
 6756 0766 0A       		.byte	0xa
 6757 0767 1001     		.2byte	0x110
 6758 0769 04010000 		.4byte	0x104
 6759 076d 0C       		.byte	0xc
 6760 076e 0A       		.uleb128 0xa
 6761 076f 13120000 		.4byte	.LASF125
 6762 0773 0A       		.byte	0xa
 6763 0774 1101     		.2byte	0x111
 6764 0776 04010000 		.4byte	0x104
 6765 077a 10       		.byte	0x10
 6766 077b 09       		.uleb128 0x9
 6767 077c 49455200 		.ascii	"IER\000"
 6768 0780 0A       		.byte	0xa
 6769 0781 1201     		.2byte	0x112
 6770 0783 04010000 		.4byte	0x104
 6771 0787 14       		.byte	0x14
 6772 0788 09       		.uleb128 0x9
 6773 0789 45535200 		.ascii	"ESR\000"
 6774 078d 0A       		.byte	0xa
 6775 078e 1301     		.2byte	0x113
 6776 0790 04010000 		.4byte	0x104
 6777 0794 18       		.byte	0x18
 6778 0795 09       		.uleb128 0x9
 6779 0796 42545200 		.ascii	"BTR\000"
 6780 079a 0A       		.byte	0xa
 6781 079b 1401     		.2byte	0x114
 6782 079d 04010000 		.4byte	0x104
 6783 07a1 1C       		.byte	0x1c
 6784 07a2 0A       		.uleb128 0xa
 6785 07a3 2A230000 		.4byte	.LASF126
 6786 07a7 0A       		.byte	0xa
 6787 07a8 1501     		.2byte	0x115
 6788 07aa 66080000 		.4byte	0x866
 6789 07ae 20       		.byte	0x20
 6790 07af 11       		.uleb128 0x11
 6791 07b0 47140000 		.4byte	.LASF127
 6792 07b4 0A       		.byte	0xa
 6793 07b5 1601     		.2byte	0x116
 6794 07b7 76080000 		.4byte	0x876
 6795 07bb 8001     		.2byte	0x180
 6796 07bd 11       		.uleb128 0x11
 6797 07be 75270000 		.4byte	.LASF128
 6798 07c2 0A       		.byte	0xa
 6799 07c3 1701     		.2byte	0x117
 6800 07c5 86080000 		.4byte	0x886
 6801 07c9 B001     		.2byte	0x1b0
 6802 07cb 11       		.uleb128 0x11
ARM GAS  C:\Users\mathi\AppData\Local\Temp\ccXNOisu.s 			page 126


 6803 07cc 34230000 		.4byte	.LASF129
 6804 07d0 0A       		.byte	0xa
 6805 07d1 1801     		.2byte	0x118
 6806 07d3 96080000 		.4byte	0x896
 6807 07d7 D001     		.2byte	0x1d0
 6808 07d9 12       		.uleb128 0x12
 6809 07da 464D5200 		.ascii	"FMR\000"
 6810 07de 0A       		.byte	0xa
 6811 07df 1901     		.2byte	0x119
 6812 07e1 04010000 		.4byte	0x104
 6813 07e5 0002     		.2byte	0x200
 6814 07e7 11       		.uleb128 0x11
 6815 07e8 670D0000 		.4byte	.LASF130
 6816 07ec 0A       		.byte	0xa
 6817 07ed 1A01     		.2byte	0x11a
 6818 07ef 04010000 		.4byte	0x104
 6819 07f3 0402     		.2byte	0x204
 6820 07f5 11       		.uleb128 0x11
 6821 07f6 3E230000 		.4byte	.LASF131
 6822 07fa 0A       		.byte	0xa
 6823 07fb 1B01     		.2byte	0x11b
 6824 07fd F9000000 		.4byte	0xf9
 6825 0801 0802     		.2byte	0x208
 6826 0803 11       		.uleb128 0x11
 6827 0804 44250000 		.4byte	.LASF132
 6828 0808 0A       		.byte	0xa
 6829 0809 1C01     		.2byte	0x11c
 6830 080b 04010000 		.4byte	0x104
 6831 080f 0C02     		.2byte	0x20c
 6832 0811 11       		.uleb128 0x11
 6833 0812 48230000 		.4byte	.LASF133
 6834 0816 0A       		.byte	0xa
 6835 0817 1D01     		.2byte	0x11d
 6836 0819 F9000000 		.4byte	0xf9
 6837 081d 1002     		.2byte	0x210
 6838 081f 11       		.uleb128 0x11
 6839 0820 6C1C0000 		.4byte	.LASF134
 6840 0824 0A       		.byte	0xa
 6841 0825 1E01     		.2byte	0x11e
 6842 0827 04010000 		.4byte	0x104
 6843 082b 1402     		.2byte	0x214
 6844 082d 11       		.uleb128 0x11
 6845 082e 52230000 		.4byte	.LASF135
 6846 0832 0A       		.byte	0xa
 6847 0833 1F01     		.2byte	0x11f
 6848 0835 F9000000 		.4byte	0xf9
 6849 0839 1802     		.2byte	0x218
 6850 083b 11       		.uleb128 0x11
 6851 083c 55060000 		.4byte	.LASF136
 6852 0840 0A       		.byte	0xa
 6853 0841 2001     		.2byte	0x120
 6854 0843 04010000 		.4byte	0x104
 6855 0847 1C02     		.2byte	0x21c
 6856 0849 11       		.uleb128 0x11
 6857 084a 5C230000 		.4byte	.LASF137
 6858 084e 0A       		.byte	0xa
 6859 084f 2101     		.2byte	0x121
ARM GAS  C:\Users\mathi\AppData\Local\Temp\ccXNOisu.s 			page 127


 6860 0851 4F050000 		.4byte	0x54f
 6861 0855 2002     		.2byte	0x220
 6862 0857 11       		.uleb128 0x11
 6863 0858 38080000 		.4byte	.LASF138
 6864 085c 0A       		.byte	0xa
 6865 085d 2201     		.2byte	0x122
 6866 085f A6080000 		.4byte	0x8a6
 6867 0863 4002     		.2byte	0x240
 6868 0865 00       		.byte	0
 6869 0866 13       		.uleb128 0x13
 6870 0867 F9000000 		.4byte	0xf9
 6871 086b 76080000 		.4byte	0x876
 6872 086f 14       		.uleb128 0x14
 6873 0870 B1000000 		.4byte	0xb1
 6874 0874 57       		.byte	0x57
 6875 0875 00       		.byte	0
 6876 0876 13       		.uleb128 0x13
 6877 0877 B1060000 		.4byte	0x6b1
 6878 087b 86080000 		.4byte	0x886
 6879 087f 14       		.uleb128 0x14
 6880 0880 B1000000 		.4byte	0xb1
 6881 0884 02       		.byte	0x2
 6882 0885 00       		.byte	0
 6883 0886 13       		.uleb128 0x13
 6884 0887 F5060000 		.4byte	0x6f5
 6885 088b 96080000 		.4byte	0x896
 6886 088f 14       		.uleb128 0x14
 6887 0890 B1000000 		.4byte	0xb1
 6888 0894 01       		.byte	0x1
 6889 0895 00       		.byte	0
 6890 0896 13       		.uleb128 0x13
 6891 0897 F9000000 		.4byte	0xf9
 6892 089b A6080000 		.4byte	0x8a6
 6893 089f 14       		.uleb128 0x14
 6894 08a0 B1000000 		.4byte	0xb1
 6895 08a4 0B       		.byte	0xb
 6896 08a5 00       		.byte	0
 6897 08a6 13       		.uleb128 0x13
 6898 08a7 24070000 		.4byte	0x724
 6899 08ab B6080000 		.4byte	0x8b6
 6900 08af 14       		.uleb128 0x14
 6901 08b0 B1000000 		.4byte	0xb1
 6902 08b4 1B       		.byte	0x1b
 6903 08b5 00       		.byte	0
 6904 08b6 1A       		.uleb128 0x1a
 6905 08b7 A10F0000 		.4byte	.LASF139
 6906 08bb 0A       		.byte	0xa
 6907 08bc 2301     		.2byte	0x123
 6908 08be 30070000 		.4byte	0x730
 6909 08c2 19       		.uleb128 0x19
 6910 08c3 38       		.byte	0x38
 6911 08c4 0A       		.byte	0xa
 6912 08c5 3601     		.2byte	0x136
 6913 08c7 80090000 		.4byte	0x980
 6914 08cb 09       		.uleb128 0x9
 6915 08cc 435200   		.ascii	"CR\000"
 6916 08cf 0A       		.byte	0xa
ARM GAS  C:\Users\mathi\AppData\Local\Temp\ccXNOisu.s 			page 128


 6917 08d0 3801     		.2byte	0x138
 6918 08d2 04010000 		.4byte	0x104
 6919 08d6 00       		.byte	0
 6920 08d7 0A       		.uleb128 0xa
 6921 08d8 A1190000 		.4byte	.LASF140
 6922 08dc 0A       		.byte	0xa
 6923 08dd 3901     		.2byte	0x139
 6924 08df 04010000 		.4byte	0x104
 6925 08e3 04       		.byte	0x4
 6926 08e4 0A       		.uleb128 0xa
 6927 08e5 78230000 		.4byte	.LASF141
 6928 08e9 0A       		.byte	0xa
 6929 08ea 3A01     		.2byte	0x13a
 6930 08ec 04010000 		.4byte	0x104
 6931 08f0 08       		.byte	0x8
 6932 08f1 0A       		.uleb128 0xa
 6933 08f2 F21E0000 		.4byte	.LASF142
 6934 08f6 0A       		.byte	0xa
 6935 08f7 3B01     		.2byte	0x13b
 6936 08f9 04010000 		.4byte	0x104
 6937 08fd 0C       		.byte	0xc
 6938 08fe 0A       		.uleb128 0xa
 6939 08ff A40C0000 		.4byte	.LASF143
 6940 0903 0A       		.byte	0xa
 6941 0904 3C01     		.2byte	0x13c
 6942 0906 04010000 		.4byte	0x104
 6943 090a 10       		.byte	0x10
 6944 090b 0A       		.uleb128 0xa
 6945 090c 80230000 		.4byte	.LASF144
 6946 0910 0A       		.byte	0xa
 6947 0911 3D01     		.2byte	0x13d
 6948 0913 04010000 		.4byte	0x104
 6949 0917 14       		.byte	0x14
 6950 0918 0A       		.uleb128 0xa
 6951 0919 FA1E0000 		.4byte	.LASF145
 6952 091d 0A       		.byte	0xa
 6953 091e 3E01     		.2byte	0x13e
 6954 0920 04010000 		.4byte	0x104
 6955 0924 18       		.byte	0x18
 6956 0925 0A       		.uleb128 0xa
 6957 0926 AB0C0000 		.4byte	.LASF146
 6958 092a 0A       		.byte	0xa
 6959 092b 3F01     		.2byte	0x13f
 6960 092d 04010000 		.4byte	0x104
 6961 0931 1C       		.byte	0x1c
 6962 0932 0A       		.uleb128 0xa
 6963 0933 DA230000 		.4byte	.LASF147
 6964 0937 0A       		.byte	0xa
 6965 0938 4001     		.2byte	0x140
 6966 093a 04010000 		.4byte	0x104
 6967 093e 20       		.byte	0x20
 6968 093f 0A       		.uleb128 0xa
 6969 0940 4C1F0000 		.4byte	.LASF148
 6970 0944 0A       		.byte	0xa
 6971 0945 4101     		.2byte	0x141
 6972 0947 04010000 		.4byte	0x104
 6973 094b 24       		.byte	0x24
ARM GAS  C:\Users\mathi\AppData\Local\Temp\ccXNOisu.s 			page 129


 6974 094c 0A       		.uleb128 0xa
 6975 094d 97270000 		.4byte	.LASF149
 6976 0951 0A       		.byte	0xa
 6977 0952 4201     		.2byte	0x142
 6978 0954 04010000 		.4byte	0x104
 6979 0958 28       		.byte	0x28
 6980 0959 0A       		.uleb128 0xa
 6981 095a 21020000 		.4byte	.LASF150
 6982 095e 0A       		.byte	0xa
 6983 095f 4301     		.2byte	0x143
 6984 0961 04010000 		.4byte	0x104
 6985 0965 2C       		.byte	0x2c
 6986 0966 0A       		.uleb128 0xa
 6987 0967 26020000 		.4byte	.LASF151
 6988 096b 0A       		.byte	0xa
 6989 096c 4401     		.2byte	0x144
 6990 096e 04010000 		.4byte	0x104
 6991 0972 30       		.byte	0x30
 6992 0973 09       		.uleb128 0x9
 6993 0974 535200   		.ascii	"SR\000"
 6994 0977 0A       		.byte	0xa
 6995 0978 4501     		.2byte	0x145
 6996 097a 04010000 		.4byte	0x104
 6997 097e 34       		.byte	0x34
 6998 097f 00       		.byte	0
 6999 0980 1A       		.uleb128 0x1a
 7000 0981 CB200000 		.4byte	.LASF152
 7001 0985 0A       		.byte	0xa
 7002 0986 4601     		.2byte	0x146
 7003 0988 C2080000 		.4byte	0x8c2
 7004 098c 19       		.uleb128 0x19
 7005 098d 2C       		.byte	0x2c
 7006 098e 0A       		.byte	0xa
 7007 098f 5801     		.2byte	0x158
 7008 0991 220A0000 		.4byte	0xa22
 7009 0995 09       		.uleb128 0x9
 7010 0996 435200   		.ascii	"CR\000"
 7011 0999 0A       		.byte	0xa
 7012 099a 5A01     		.2byte	0x15a
 7013 099c 04010000 		.4byte	0x104
 7014 09a0 00       		.byte	0
 7015 09a1 09       		.uleb128 0x9
 7016 09a2 535200   		.ascii	"SR\000"
 7017 09a5 0A       		.byte	0xa
 7018 09a6 5B01     		.2byte	0x15b
 7019 09a8 04010000 		.4byte	0x104
 7020 09ac 04       		.byte	0x4
 7021 09ad 0A       		.uleb128 0xa
 7022 09ae F00B0000 		.4byte	.LASF153
 7023 09b2 0A       		.byte	0xa
 7024 09b3 5C01     		.2byte	0x15c
 7025 09b5 04010000 		.4byte	0x104
 7026 09b9 08       		.byte	0x8
 7027 09ba 09       		.uleb128 0x9
 7028 09bb 49455200 		.ascii	"IER\000"
 7029 09bf 0A       		.byte	0xa
 7030 09c0 5D01     		.2byte	0x15d
ARM GAS  C:\Users\mathi\AppData\Local\Temp\ccXNOisu.s 			page 130


 7031 09c2 04010000 		.4byte	0x104
 7032 09c6 0C       		.byte	0xc
 7033 09c7 0A       		.uleb128 0xa
 7034 09c8 1E240000 		.4byte	.LASF154
 7035 09cc 0A       		.byte	0xa
 7036 09cd 5E01     		.2byte	0x15e
 7037 09cf 04010000 		.4byte	0x104
 7038 09d3 10       		.byte	0x10
 7039 09d4 09       		.uleb128 0x9
 7040 09d5 49435200 		.ascii	"ICR\000"
 7041 09d9 0A       		.byte	0xa
 7042 09da 5F01     		.2byte	0x15f
 7043 09dc 04010000 		.4byte	0x104
 7044 09e0 14       		.byte	0x14
 7045 09e1 0A       		.uleb128 0xa
 7046 09e2 541D0000 		.4byte	.LASF155
 7047 09e6 0A       		.byte	0xa
 7048 09e7 6001     		.2byte	0x160
 7049 09e9 04010000 		.4byte	0x104
 7050 09ed 18       		.byte	0x18
 7051 09ee 0A       		.uleb128 0xa
 7052 09ef 74290000 		.4byte	.LASF156
 7053 09f3 0A       		.byte	0xa
 7054 09f4 6101     		.2byte	0x161
 7055 09f6 04010000 		.4byte	0x104
 7056 09fa 1C       		.byte	0x1c
 7057 09fb 0A       		.uleb128 0xa
 7058 09fc 0C150000 		.4byte	.LASF157
 7059 0a00 0A       		.byte	0xa
 7060 0a01 6201     		.2byte	0x162
 7061 0a03 04010000 		.4byte	0x104
 7062 0a07 20       		.byte	0x20
 7063 0a08 0A       		.uleb128 0xa
 7064 0a09 191E0000 		.4byte	.LASF158
 7065 0a0d 0A       		.byte	0xa
 7066 0a0e 6301     		.2byte	0x163
 7067 0a10 04010000 		.4byte	0x104
 7068 0a14 24       		.byte	0x24
 7069 0a15 09       		.uleb128 0x9
 7070 0a16 445200   		.ascii	"DR\000"
 7071 0a19 0A       		.byte	0xa
 7072 0a1a 6401     		.2byte	0x164
 7073 0a1c 04010000 		.4byte	0x104
 7074 0a20 28       		.byte	0x28
 7075 0a21 00       		.byte	0
 7076 0a22 1A       		.uleb128 0x1a
 7077 0a23 61060000 		.4byte	.LASF159
 7078 0a27 0A       		.byte	0xa
 7079 0a28 6501     		.2byte	0x165
 7080 0a2a 8C090000 		.4byte	0x98c
 7081 0a2e 19       		.uleb128 0x19
 7082 0a2f 18       		.byte	0x18
 7083 0a30 0A       		.byte	0xa
 7084 0a31 6B01     		.2byte	0x16b
 7085 0a33 850A0000 		.4byte	0xa85
 7086 0a37 09       		.uleb128 0x9
 7087 0a38 435200   		.ascii	"CR\000"
ARM GAS  C:\Users\mathi\AppData\Local\Temp\ccXNOisu.s 			page 131


 7088 0a3b 0A       		.byte	0xa
 7089 0a3c 6D01     		.2byte	0x16d
 7090 0a3e 04010000 		.4byte	0x104
 7091 0a42 00       		.byte	0
 7092 0a43 0A       		.uleb128 0xa
 7093 0a44 82240000 		.4byte	.LASF160
 7094 0a48 0A       		.byte	0xa
 7095 0a49 6E01     		.2byte	0x16e
 7096 0a4b 04010000 		.4byte	0x104
 7097 0a4f 04       		.byte	0x4
 7098 0a50 09       		.uleb128 0x9
 7099 0a51 50415200 		.ascii	"PAR\000"
 7100 0a55 0A       		.byte	0xa
 7101 0a56 6F01     		.2byte	0x16f
 7102 0a58 04010000 		.4byte	0x104
 7103 0a5c 08       		.byte	0x8
 7104 0a5d 0A       		.uleb128 0xa
 7105 0a5e 20060000 		.4byte	.LASF161
 7106 0a62 0A       		.byte	0xa
 7107 0a63 7001     		.2byte	0x170
 7108 0a65 04010000 		.4byte	0x104
 7109 0a69 0C       		.byte	0xc
 7110 0a6a 0A       		.uleb128 0xa
 7111 0a6b 740A0000 		.4byte	.LASF162
 7112 0a6f 0A       		.byte	0xa
 7113 0a70 7101     		.2byte	0x171
 7114 0a72 04010000 		.4byte	0x104
 7115 0a76 10       		.byte	0x10
 7116 0a77 09       		.uleb128 0x9
 7117 0a78 46435200 		.ascii	"FCR\000"
 7118 0a7c 0A       		.byte	0xa
 7119 0a7d 7201     		.2byte	0x172
 7120 0a7f 04010000 		.4byte	0x104
 7121 0a83 14       		.byte	0x14
 7122 0a84 00       		.byte	0
 7123 0a85 1A       		.uleb128 0x1a
 7124 0a86 7E0A0000 		.4byte	.LASF163
 7125 0a8a 0A       		.byte	0xa
 7126 0a8b 7301     		.2byte	0x173
 7127 0a8d 2E0A0000 		.4byte	0xa2e
 7128 0a91 13       		.uleb128 0x13
 7129 0a92 04010000 		.4byte	0x104
 7130 0a96 A10A0000 		.4byte	0xaa1
 7131 0a9a 14       		.uleb128 0x14
 7132 0a9b B1000000 		.4byte	0xb1
 7133 0a9f 01       		.byte	0x1
 7134 0aa0 00       		.byte	0
 7135 0aa1 06       		.uleb128 0x6
 7136 0aa2 910A0000 		.4byte	0xa91
 7137 0aa6 13       		.uleb128 0x13
 7138 0aa7 04010000 		.4byte	0x104
 7139 0aab B60A0000 		.4byte	0xab6
 7140 0aaf 14       		.uleb128 0x14
 7141 0ab0 B1000000 		.4byte	0xb1
 7142 0ab4 03       		.byte	0x3
 7143 0ab5 00       		.byte	0
 7144 0ab6 06       		.uleb128 0x6
ARM GAS  C:\Users\mathi\AppData\Local\Temp\ccXNOisu.s 			page 132


 7145 0ab7 A60A0000 		.4byte	0xaa6
 7146 0abb 19       		.uleb128 0x19
 7147 0abc 28       		.byte	0x28
 7148 0abd 0A       		.byte	0xa
 7149 0abe 3F02     		.2byte	0x23f
 7150 0ac0 460B0000 		.4byte	0xb46
 7151 0ac4 09       		.uleb128 0x9
 7152 0ac5 43523100 		.ascii	"CR1\000"
 7153 0ac9 0A       		.byte	0xa
 7154 0aca 4102     		.2byte	0x241
 7155 0acc 04010000 		.4byte	0x104
 7156 0ad0 00       		.byte	0
 7157 0ad1 09       		.uleb128 0x9
 7158 0ad2 43523200 		.ascii	"CR2\000"
 7159 0ad6 0A       		.byte	0xa
 7160 0ad7 4202     		.2byte	0x242
 7161 0ad9 04010000 		.4byte	0x104
 7162 0add 04       		.byte	0x4
 7163 0ade 0A       		.uleb128 0xa
 7164 0adf 892A0000 		.4byte	.LASF164
 7165 0ae3 0A       		.byte	0xa
 7166 0ae4 4302     		.2byte	0x243
 7167 0ae6 04010000 		.4byte	0x104
 7168 0aea 08       		.byte	0x8
 7169 0aeb 0A       		.uleb128 0xa
 7170 0aec 8E2A0000 		.4byte	.LASF165
 7171 0af0 0A       		.byte	0xa
 7172 0af1 4402     		.2byte	0x244
 7173 0af3 04010000 		.4byte	0x104
 7174 0af7 0C       		.byte	0xc
 7175 0af8 09       		.uleb128 0x9
 7176 0af9 445200   		.ascii	"DR\000"
 7177 0afc 0A       		.byte	0xa
 7178 0afd 4502     		.2byte	0x245
 7179 0aff 04010000 		.4byte	0x104
 7180 0b03 10       		.byte	0x10
 7181 0b04 09       		.uleb128 0x9
 7182 0b05 53523100 		.ascii	"SR1\000"
 7183 0b09 0A       		.byte	0xa
 7184 0b0a 4602     		.2byte	0x246
 7185 0b0c 04010000 		.4byte	0x104
 7186 0b10 14       		.byte	0x14
 7187 0b11 09       		.uleb128 0x9
 7188 0b12 53523200 		.ascii	"SR2\000"
 7189 0b16 0A       		.byte	0xa
 7190 0b17 4702     		.2byte	0x247
 7191 0b19 04010000 		.4byte	0x104
 7192 0b1d 18       		.byte	0x18
 7193 0b1e 09       		.uleb128 0x9
 7194 0b1f 43435200 		.ascii	"CCR\000"
 7195 0b23 0A       		.byte	0xa
 7196 0b24 4802     		.2byte	0x248
 7197 0b26 04010000 		.4byte	0x104
 7198 0b2a 1C       		.byte	0x1c
 7199 0b2b 0A       		.uleb128 0xa
 7200 0b2c 47070000 		.4byte	.LASF166
 7201 0b30 0A       		.byte	0xa
ARM GAS  C:\Users\mathi\AppData\Local\Temp\ccXNOisu.s 			page 133


 7202 0b31 4902     		.2byte	0x249
 7203 0b33 04010000 		.4byte	0x104
 7204 0b37 20       		.byte	0x20
 7205 0b38 0A       		.uleb128 0xa
 7206 0b39 FF280000 		.4byte	.LASF167
 7207 0b3d 0A       		.byte	0xa
 7208 0b3e 4A02     		.2byte	0x24a
 7209 0b40 04010000 		.4byte	0x104
 7210 0b44 24       		.byte	0x24
 7211 0b45 00       		.byte	0
 7212 0b46 1A       		.uleb128 0x1a
 7213 0b47 BD190000 		.4byte	.LASF168
 7214 0b4b 0A       		.byte	0xa
 7215 0b4c 4B02     		.2byte	0x24b
 7216 0b4e BB0A0000 		.4byte	0xabb
 7217 0b52 19       		.uleb128 0x19
 7218 0b53 84       		.byte	0x84
 7219 0b54 0A       		.byte	0xa
 7220 0b55 BF02     		.2byte	0x2bf
 7221 0b57 600C0000 		.4byte	0xc60
 7222 0b5b 0A       		.uleb128 0xa
 7223 0b5c F2190000 		.4byte	.LASF169
 7224 0b60 0A       		.byte	0xa
 7225 0b61 C102     		.2byte	0x2c1
 7226 0b63 04010000 		.4byte	0x104
 7227 0b67 00       		.byte	0
 7228 0b68 0A       		.uleb128 0xa
 7229 0b69 C5250000 		.4byte	.LASF170
 7230 0b6d 0A       		.byte	0xa
 7231 0b6e C202     		.2byte	0x2c2
 7232 0b70 04010000 		.4byte	0x104
 7233 0b74 04       		.byte	0x4
 7234 0b75 09       		.uleb128 0x9
 7235 0b76 41524700 		.ascii	"ARG\000"
 7236 0b7a 0A       		.byte	0xa
 7237 0b7b C302     		.2byte	0x2c3
 7238 0b7d 04010000 		.4byte	0x104
 7239 0b81 08       		.byte	0x8
 7240 0b82 09       		.uleb128 0x9
 7241 0b83 434D4400 		.ascii	"CMD\000"
 7242 0b87 0A       		.byte	0xa
 7243 0b88 C402     		.2byte	0x2c4
 7244 0b8a 04010000 		.4byte	0x104
 7245 0b8e 0C       		.byte	0xc
 7246 0b8f 0A       		.uleb128 0xa
 7247 0b90 161D0000 		.4byte	.LASF171
 7248 0b94 0A       		.byte	0xa
 7249 0b95 C502     		.2byte	0x2c5
 7250 0b97 09010000 		.4byte	0x109
 7251 0b9b 10       		.byte	0x10
 7252 0b9c 0A       		.uleb128 0xa
 7253 0b9d 5F080000 		.4byte	.LASF172
 7254 0ba1 0A       		.byte	0xa
 7255 0ba2 C602     		.2byte	0x2c6
 7256 0ba4 09010000 		.4byte	0x109
 7257 0ba8 14       		.byte	0x14
 7258 0ba9 0A       		.uleb128 0xa
ARM GAS  C:\Users\mathi\AppData\Local\Temp\ccXNOisu.s 			page 134


 7259 0baa 65080000 		.4byte	.LASF173
 7260 0bae 0A       		.byte	0xa
 7261 0baf C702     		.2byte	0x2c7
 7262 0bb1 09010000 		.4byte	0x109
 7263 0bb5 18       		.byte	0x18
 7264 0bb6 0A       		.uleb128 0xa
 7265 0bb7 6B080000 		.4byte	.LASF174
 7266 0bbb 0A       		.byte	0xa
 7267 0bbc C802     		.2byte	0x2c8
 7268 0bbe 09010000 		.4byte	0x109
 7269 0bc2 1C       		.byte	0x1c
 7270 0bc3 0A       		.uleb128 0xa
 7271 0bc4 71080000 		.4byte	.LASF175
 7272 0bc8 0A       		.byte	0xa
 7273 0bc9 C902     		.2byte	0x2c9
 7274 0bcb 09010000 		.4byte	0x109
 7275 0bcf 20       		.byte	0x20
 7276 0bd0 0A       		.uleb128 0xa
 7277 0bd1 AD160000 		.4byte	.LASF176
 7278 0bd5 0A       		.byte	0xa
 7279 0bd6 CA02     		.2byte	0x2ca
 7280 0bd8 04010000 		.4byte	0x104
 7281 0bdc 24       		.byte	0x24
 7282 0bdd 0A       		.uleb128 0xa
 7283 0bde 83180000 		.4byte	.LASF177
 7284 0be2 0A       		.byte	0xa
 7285 0be3 CB02     		.2byte	0x2cb
 7286 0be5 04010000 		.4byte	0x104
 7287 0be9 28       		.byte	0x28
 7288 0bea 0A       		.uleb128 0xa
 7289 0beb EB280000 		.4byte	.LASF178
 7290 0bef 0A       		.byte	0xa
 7291 0bf0 CC02     		.2byte	0x2cc
 7292 0bf2 04010000 		.4byte	0x104
 7293 0bf6 2C       		.byte	0x2c
 7294 0bf7 0A       		.uleb128 0xa
 7295 0bf8 822A0000 		.4byte	.LASF179
 7296 0bfc 0A       		.byte	0xa
 7297 0bfd CD02     		.2byte	0x2cd
 7298 0bff 09010000 		.4byte	0x109
 7299 0c03 30       		.byte	0x30
 7300 0c04 09       		.uleb128 0x9
 7301 0c05 53544100 		.ascii	"STA\000"
 7302 0c09 0A       		.byte	0xa
 7303 0c0a CE02     		.2byte	0x2ce
 7304 0c0c 09010000 		.4byte	0x109
 7305 0c10 34       		.byte	0x34
 7306 0c11 09       		.uleb128 0x9
 7307 0c12 49435200 		.ascii	"ICR\000"
 7308 0c16 0A       		.byte	0xa
 7309 0c17 CF02     		.2byte	0x2cf
 7310 0c19 04010000 		.4byte	0x104
 7311 0c1d 38       		.byte	0x38
 7312 0c1e 0A       		.uleb128 0xa
 7313 0c1f A3030000 		.4byte	.LASF180
 7314 0c23 0A       		.byte	0xa
 7315 0c24 D002     		.2byte	0x2d0
ARM GAS  C:\Users\mathi\AppData\Local\Temp\ccXNOisu.s 			page 135


 7316 0c26 04010000 		.4byte	0x104
 7317 0c2a 3C       		.byte	0x3c
 7318 0c2b 0A       		.uleb128 0xa
 7319 0c2c 2A230000 		.4byte	.LASF126
 7320 0c30 0A       		.byte	0xa
 7321 0c31 D102     		.2byte	0x2d1
 7322 0c33 3F050000 		.4byte	0x53f
 7323 0c37 40       		.byte	0x40
 7324 0c38 0A       		.uleb128 0xa
 7325 0c39 99170000 		.4byte	.LASF181
 7326 0c3d 0A       		.byte	0xa
 7327 0c3e D202     		.2byte	0x2d2
 7328 0c40 09010000 		.4byte	0x109
 7329 0c44 48       		.byte	0x48
 7330 0c45 0A       		.uleb128 0xa
 7331 0c46 34230000 		.4byte	.LASF129
 7332 0c4a 0A       		.byte	0xa
 7333 0c4b D302     		.2byte	0x2d3
 7334 0c4d 600C0000 		.4byte	0xc60
 7335 0c51 4C       		.byte	0x4c
 7336 0c52 0A       		.uleb128 0xa
 7337 0c53 D90B0000 		.4byte	.LASF182
 7338 0c57 0A       		.byte	0xa
 7339 0c58 D402     		.2byte	0x2d4
 7340 0c5a 04010000 		.4byte	0x104
 7341 0c5e 80       		.byte	0x80
 7342 0c5f 00       		.byte	0
 7343 0c60 13       		.uleb128 0x13
 7344 0c61 F9000000 		.4byte	0xf9
 7345 0c65 700C0000 		.4byte	0xc70
 7346 0c69 14       		.uleb128 0x14
 7347 0c6a B1000000 		.4byte	0xb1
 7348 0c6e 0C       		.byte	0xc
 7349 0c6f 00       		.byte	0
 7350 0c70 1A       		.uleb128 0x1a
 7351 0c71 67240000 		.4byte	.LASF183
 7352 0c75 0A       		.byte	0xa
 7353 0c76 D502     		.2byte	0x2d5
 7354 0c78 520B0000 		.4byte	0xb52
 7355 0c7c 19       		.uleb128 0x19
 7356 0c7d 24       		.byte	0x24
 7357 0c7e 0A       		.byte	0xa
 7358 0c7f DB02     		.2byte	0x2db
 7359 0c81 F90C0000 		.4byte	0xcf9
 7360 0c85 09       		.uleb128 0x9
 7361 0c86 43523100 		.ascii	"CR1\000"
 7362 0c8a 0A       		.byte	0xa
 7363 0c8b DD02     		.2byte	0x2dd
 7364 0c8d 04010000 		.4byte	0x104
 7365 0c91 00       		.byte	0
 7366 0c92 09       		.uleb128 0x9
 7367 0c93 43523200 		.ascii	"CR2\000"
 7368 0c97 0A       		.byte	0xa
 7369 0c98 DE02     		.2byte	0x2de
 7370 0c9a 04010000 		.4byte	0x104
 7371 0c9e 04       		.byte	0x4
 7372 0c9f 09       		.uleb128 0x9
ARM GAS  C:\Users\mathi\AppData\Local\Temp\ccXNOisu.s 			page 136


 7373 0ca0 535200   		.ascii	"SR\000"
 7374 0ca3 0A       		.byte	0xa
 7375 0ca4 DF02     		.2byte	0x2df
 7376 0ca6 04010000 		.4byte	0x104
 7377 0caa 08       		.byte	0x8
 7378 0cab 09       		.uleb128 0x9
 7379 0cac 445200   		.ascii	"DR\000"
 7380 0caf 0A       		.byte	0xa
 7381 0cb0 E002     		.2byte	0x2e0
 7382 0cb2 04010000 		.4byte	0x104
 7383 0cb6 0C       		.byte	0xc
 7384 0cb7 0A       		.uleb128 0xa
 7385 0cb8 F0090000 		.4byte	.LASF184
 7386 0cbc 0A       		.byte	0xa
 7387 0cbd E102     		.2byte	0x2e1
 7388 0cbf 04010000 		.4byte	0x104
 7389 0cc3 10       		.byte	0x10
 7390 0cc4 0A       		.uleb128 0xa
 7391 0cc5 1D0E0000 		.4byte	.LASF185
 7392 0cc9 0A       		.byte	0xa
 7393 0cca E202     		.2byte	0x2e2
 7394 0ccc 04010000 		.4byte	0x104
 7395 0cd0 14       		.byte	0x14
 7396 0cd1 0A       		.uleb128 0xa
 7397 0cd2 090D0000 		.4byte	.LASF186
 7398 0cd6 0A       		.byte	0xa
 7399 0cd7 E302     		.2byte	0x2e3
 7400 0cd9 04010000 		.4byte	0x104
 7401 0cdd 18       		.byte	0x18
 7402 0cde 0A       		.uleb128 0xa
 7403 0cdf 87260000 		.4byte	.LASF187
 7404 0ce3 0A       		.byte	0xa
 7405 0ce4 E402     		.2byte	0x2e4
 7406 0ce6 04010000 		.4byte	0x104
 7407 0cea 1C       		.byte	0x1c
 7408 0ceb 0A       		.uleb128 0xa
 7409 0cec 93090000 		.4byte	.LASF188
 7410 0cf0 0A       		.byte	0xa
 7411 0cf1 E502     		.2byte	0x2e5
 7412 0cf3 04010000 		.4byte	0x104
 7413 0cf7 20       		.byte	0x20
 7414 0cf8 00       		.byte	0
 7415 0cf9 1A       		.uleb128 0x1a
 7416 0cfa BD240000 		.4byte	.LASF189
 7417 0cfe 0A       		.byte	0xa
 7418 0cff E602     		.2byte	0x2e6
 7419 0d01 7C0C0000 		.4byte	0xc7c
 7420 0d05 19       		.uleb128 0x19
 7421 0d06 1C       		.byte	0x1c
 7422 0d07 0A       		.byte	0xa
 7423 0d08 0903     		.2byte	0x309
 7424 0d0a 680D0000 		.4byte	0xd68
 7425 0d0e 09       		.uleb128 0x9
 7426 0d0f 535200   		.ascii	"SR\000"
 7427 0d12 0A       		.byte	0xa
 7428 0d13 0B03     		.2byte	0x30b
 7429 0d15 04010000 		.4byte	0x104
ARM GAS  C:\Users\mathi\AppData\Local\Temp\ccXNOisu.s 			page 137


 7430 0d19 00       		.byte	0
 7431 0d1a 09       		.uleb128 0x9
 7432 0d1b 445200   		.ascii	"DR\000"
 7433 0d1e 0A       		.byte	0xa
 7434 0d1f 0C03     		.2byte	0x30c
 7435 0d21 04010000 		.4byte	0x104
 7436 0d25 04       		.byte	0x4
 7437 0d26 09       		.uleb128 0x9
 7438 0d27 42525200 		.ascii	"BRR\000"
 7439 0d2b 0A       		.byte	0xa
 7440 0d2c 0D03     		.2byte	0x30d
 7441 0d2e 04010000 		.4byte	0x104
 7442 0d32 08       		.byte	0x8
 7443 0d33 09       		.uleb128 0x9
 7444 0d34 43523100 		.ascii	"CR1\000"
 7445 0d38 0A       		.byte	0xa
 7446 0d39 0E03     		.2byte	0x30e
 7447 0d3b 04010000 		.4byte	0x104
 7448 0d3f 0C       		.byte	0xc
 7449 0d40 09       		.uleb128 0x9
 7450 0d41 43523200 		.ascii	"CR2\000"
 7451 0d45 0A       		.byte	0xa
 7452 0d46 0F03     		.2byte	0x30f
 7453 0d48 04010000 		.4byte	0x104
 7454 0d4c 10       		.byte	0x10
 7455 0d4d 09       		.uleb128 0x9
 7456 0d4e 43523300 		.ascii	"CR3\000"
 7457 0d52 0A       		.byte	0xa
 7458 0d53 1003     		.2byte	0x310
 7459 0d55 04010000 		.4byte	0x104
 7460 0d59 14       		.byte	0x14
 7461 0d5a 0A       		.uleb128 0xa
 7462 0d5b C2280000 		.4byte	.LASF190
 7463 0d5f 0A       		.byte	0xa
 7464 0d60 1103     		.2byte	0x311
 7465 0d62 04010000 		.4byte	0x104
 7466 0d66 18       		.byte	0x18
 7467 0d67 00       		.byte	0
 7468 0d68 1A       		.uleb128 0x1a
 7469 0d69 B4290000 		.4byte	.LASF191
 7470 0d6d 0A       		.byte	0xa
 7471 0d6e 1203     		.2byte	0x312
 7472 0d70 050D0000 		.4byte	0xd05
 7473 0d74 13       		.uleb128 0x13
 7474 0d75 04010000 		.4byte	0x104
 7475 0d79 840D0000 		.4byte	0xd84
 7476 0d7d 14       		.uleb128 0x14
 7477 0d7e B1000000 		.4byte	0xb1
 7478 0d82 0E       		.byte	0xe
 7479 0d83 00       		.byte	0
 7480 0d84 06       		.uleb128 0x6
 7481 0d85 740D0000 		.4byte	0xd74
 7482 0d89 02       		.uleb128 0x2
 7483 0d8a 511C0000 		.4byte	.LASF192
 7484 0d8e 0B       		.byte	0xb
 7485 0d8f 65       		.byte	0x65
 7486 0d90 D0030000 		.4byte	0x3d0
ARM GAS  C:\Users\mathi\AppData\Local\Temp\ccXNOisu.s 			page 138


 7487 0d94 02       		.uleb128 0x2
 7488 0d95 770B0000 		.4byte	.LASF193
 7489 0d99 0B       		.byte	0xb
 7490 0d9a 6D       		.byte	0x6d
 7491 0d9b 0E010000 		.4byte	0x10e
 7492 0d9f 07       		.uleb128 0x7
 7493 0da0 B31B0000 		.4byte	.LASF194
 7494 0da4 04       		.byte	0x4
 7495 0da5 0B       		.byte	0xb
 7496 0da6 89       		.byte	0x89
 7497 0da7 B80D0000 		.4byte	0xdb8
 7498 0dab 18       		.uleb128 0x18
 7499 0dac 72313300 		.ascii	"r13\000"
 7500 0db0 0B       		.byte	0xb
 7501 0db1 8A       		.byte	0x8a
 7502 0db2 F90E0000 		.4byte	0xef9
 7503 0db6 00       		.byte	0
 7504 0db7 00       		.byte	0
 7505 0db8 07       		.uleb128 0x7
 7506 0db9 09000000 		.4byte	.LASF195
 7507 0dbd 64       		.byte	0x64
 7508 0dbe 0C       		.byte	0xc
 7509 0dbf F4       		.byte	0xf4
 7510 0dc0 F90E0000 		.4byte	0xef9
 7511 0dc4 18       		.uleb128 0x18
 7512 0dc5 73313600 		.ascii	"s16\000"
 7513 0dc9 0C       		.byte	0xc
 7514 0dca F6       		.byte	0xf6
 7515 0dcb 890D0000 		.4byte	0xd89
 7516 0dcf 00       		.byte	0
 7517 0dd0 18       		.uleb128 0x18
 7518 0dd1 73313700 		.ascii	"s17\000"
 7519 0dd5 0C       		.byte	0xc
 7520 0dd6 F7       		.byte	0xf7
 7521 0dd7 890D0000 		.4byte	0xd89
 7522 0ddb 04       		.byte	0x4
 7523 0ddc 18       		.uleb128 0x18
 7524 0ddd 73313800 		.ascii	"s18\000"
 7525 0de1 0C       		.byte	0xc
 7526 0de2 F8       		.byte	0xf8
 7527 0de3 890D0000 		.4byte	0xd89
 7528 0de7 08       		.byte	0x8
 7529 0de8 18       		.uleb128 0x18
 7530 0de9 73313900 		.ascii	"s19\000"
 7531 0ded 0C       		.byte	0xc
 7532 0dee F9       		.byte	0xf9
 7533 0def 890D0000 		.4byte	0xd89
 7534 0df3 0C       		.byte	0xc
 7535 0df4 18       		.uleb128 0x18
 7536 0df5 73323000 		.ascii	"s20\000"
 7537 0df9 0C       		.byte	0xc
 7538 0dfa FA       		.byte	0xfa
 7539 0dfb 890D0000 		.4byte	0xd89
 7540 0dff 10       		.byte	0x10
 7541 0e00 18       		.uleb128 0x18
 7542 0e01 73323100 		.ascii	"s21\000"
 7543 0e05 0C       		.byte	0xc
ARM GAS  C:\Users\mathi\AppData\Local\Temp\ccXNOisu.s 			page 139


 7544 0e06 FB       		.byte	0xfb
 7545 0e07 890D0000 		.4byte	0xd89
 7546 0e0b 14       		.byte	0x14
 7547 0e0c 18       		.uleb128 0x18
 7548 0e0d 73323200 		.ascii	"s22\000"
 7549 0e11 0C       		.byte	0xc
 7550 0e12 FC       		.byte	0xfc
 7551 0e13 890D0000 		.4byte	0xd89
 7552 0e17 18       		.byte	0x18
 7553 0e18 18       		.uleb128 0x18
 7554 0e19 73323300 		.ascii	"s23\000"
 7555 0e1d 0C       		.byte	0xc
 7556 0e1e FD       		.byte	0xfd
 7557 0e1f 890D0000 		.4byte	0xd89
 7558 0e23 1C       		.byte	0x1c
 7559 0e24 18       		.uleb128 0x18
 7560 0e25 73323400 		.ascii	"s24\000"
 7561 0e29 0C       		.byte	0xc
 7562 0e2a FE       		.byte	0xfe
 7563 0e2b 890D0000 		.4byte	0xd89
 7564 0e2f 20       		.byte	0x20
 7565 0e30 18       		.uleb128 0x18
 7566 0e31 73323500 		.ascii	"s25\000"
 7567 0e35 0C       		.byte	0xc
 7568 0e36 FF       		.byte	0xff
 7569 0e37 890D0000 		.4byte	0xd89
 7570 0e3b 24       		.byte	0x24
 7571 0e3c 09       		.uleb128 0x9
 7572 0e3d 73323600 		.ascii	"s26\000"
 7573 0e41 0C       		.byte	0xc
 7574 0e42 0001     		.2byte	0x100
 7575 0e44 890D0000 		.4byte	0xd89
 7576 0e48 28       		.byte	0x28
 7577 0e49 09       		.uleb128 0x9
 7578 0e4a 73323700 		.ascii	"s27\000"
 7579 0e4e 0C       		.byte	0xc
 7580 0e4f 0101     		.2byte	0x101
 7581 0e51 890D0000 		.4byte	0xd89
 7582 0e55 2C       		.byte	0x2c
 7583 0e56 09       		.uleb128 0x9
 7584 0e57 73323800 		.ascii	"s28\000"
 7585 0e5b 0C       		.byte	0xc
 7586 0e5c 0201     		.2byte	0x102
 7587 0e5e 890D0000 		.4byte	0xd89
 7588 0e62 30       		.byte	0x30
 7589 0e63 09       		.uleb128 0x9
 7590 0e64 73323900 		.ascii	"s29\000"
 7591 0e68 0C       		.byte	0xc
 7592 0e69 0301     		.2byte	0x103
 7593 0e6b 890D0000 		.4byte	0xd89
 7594 0e6f 34       		.byte	0x34
 7595 0e70 09       		.uleb128 0x9
 7596 0e71 73333000 		.ascii	"s30\000"
 7597 0e75 0C       		.byte	0xc
 7598 0e76 0401     		.2byte	0x104
 7599 0e78 890D0000 		.4byte	0xd89
 7600 0e7c 38       		.byte	0x38
ARM GAS  C:\Users\mathi\AppData\Local\Temp\ccXNOisu.s 			page 140


 7601 0e7d 09       		.uleb128 0x9
 7602 0e7e 73333100 		.ascii	"s31\000"
 7603 0e82 0C       		.byte	0xc
 7604 0e83 0501     		.2byte	0x105
 7605 0e85 890D0000 		.4byte	0xd89
 7606 0e89 3C       		.byte	0x3c
 7607 0e8a 09       		.uleb128 0x9
 7608 0e8b 723400   		.ascii	"r4\000"
 7609 0e8e 0C       		.byte	0xc
 7610 0e8f 0701     		.2byte	0x107
 7611 0e91 890D0000 		.4byte	0xd89
 7612 0e95 40       		.byte	0x40
 7613 0e96 09       		.uleb128 0x9
 7614 0e97 723500   		.ascii	"r5\000"
 7615 0e9a 0C       		.byte	0xc
 7616 0e9b 0801     		.2byte	0x108
 7617 0e9d 890D0000 		.4byte	0xd89
 7618 0ea1 44       		.byte	0x44
 7619 0ea2 09       		.uleb128 0x9
 7620 0ea3 723600   		.ascii	"r6\000"
 7621 0ea6 0C       		.byte	0xc
 7622 0ea7 0901     		.2byte	0x109
 7623 0ea9 890D0000 		.4byte	0xd89
 7624 0ead 48       		.byte	0x48
 7625 0eae 09       		.uleb128 0x9
 7626 0eaf 723700   		.ascii	"r7\000"
 7627 0eb2 0C       		.byte	0xc
 7628 0eb3 0A01     		.2byte	0x10a
 7629 0eb5 890D0000 		.4byte	0xd89
 7630 0eb9 4C       		.byte	0x4c
 7631 0eba 09       		.uleb128 0x9
 7632 0ebb 723800   		.ascii	"r8\000"
 7633 0ebe 0C       		.byte	0xc
 7634 0ebf 0B01     		.2byte	0x10b
 7635 0ec1 890D0000 		.4byte	0xd89
 7636 0ec5 50       		.byte	0x50
 7637 0ec6 09       		.uleb128 0x9
 7638 0ec7 723900   		.ascii	"r9\000"
 7639 0eca 0C       		.byte	0xc
 7640 0ecb 0C01     		.2byte	0x10c
 7641 0ecd 890D0000 		.4byte	0xd89
 7642 0ed1 54       		.byte	0x54
 7643 0ed2 09       		.uleb128 0x9
 7644 0ed3 72313000 		.ascii	"r10\000"
 7645 0ed7 0C       		.byte	0xc
 7646 0ed8 0D01     		.2byte	0x10d
 7647 0eda 890D0000 		.4byte	0xd89
 7648 0ede 58       		.byte	0x58
 7649 0edf 09       		.uleb128 0x9
 7650 0ee0 72313100 		.ascii	"r11\000"
 7651 0ee4 0C       		.byte	0xc
 7652 0ee5 0E01     		.2byte	0x10e
 7653 0ee7 890D0000 		.4byte	0xd89
 7654 0eeb 5C       		.byte	0x5c
 7655 0eec 09       		.uleb128 0x9
 7656 0eed 6C7200   		.ascii	"lr\000"
 7657 0ef0 0C       		.byte	0xc
ARM GAS  C:\Users\mathi\AppData\Local\Temp\ccXNOisu.s 			page 141


 7658 0ef1 0F01     		.2byte	0x10f
 7659 0ef3 890D0000 		.4byte	0xd89
 7660 0ef7 60       		.byte	0x60
 7661 0ef8 00       		.byte	0
 7662 0ef9 0B       		.uleb128 0xb
 7663 0efa 04       		.byte	0x4
 7664 0efb B80D0000 		.4byte	0xdb8
 7665 0eff 17       		.uleb128 0x17
 7666 0f00 10       		.byte	0x10
 7667 0f01 0D       		.byte	0xd
 7668 0f02 51       		.byte	0x51
 7669 0f03 380F0000 		.4byte	0xf38
 7670 0f07 08       		.uleb128 0x8
 7671 0f08 9E230000 		.4byte	.LASF196
 7672 0f0c 0D       		.byte	0xd
 7673 0f0d 55       		.byte	0x55
 7674 0f0e AF010000 		.4byte	0x1af
 7675 0f12 00       		.byte	0
 7676 0f13 08       		.uleb128 0x8
 7677 0f14 E21C0000 		.4byte	.LASF197
 7678 0f18 0D       		.byte	0xd
 7679 0f19 59       		.byte	0x59
 7680 0f1a F3020000 		.4byte	0x2f3
 7681 0f1e 04       		.byte	0x4
 7682 0f1f 08       		.uleb128 0x8
 7683 0f20 DC0E0000 		.4byte	.LASF198
 7684 0f24 0D       		.byte	0xd
 7685 0f25 5D       		.byte	0x5d
 7686 0f26 D0030000 		.4byte	0x3d0
 7687 0f2a 08       		.byte	0x8
 7688 0f2b 08       		.uleb128 0x8
 7689 0f2c 7B0C0000 		.4byte	.LASF199
 7690 0f30 0D       		.byte	0xd
 7691 0f31 61       		.byte	0x61
 7692 0f32 C3000000 		.4byte	0xc3
 7693 0f36 0C       		.byte	0xc
 7694 0f37 00       		.byte	0
 7695 0f38 02       		.uleb128 0x2
 7696 0f39 B40F0000 		.4byte	.LASF200
 7697 0f3d 0D       		.byte	0xd
 7698 0f3e 62       		.byte	0x62
 7699 0f3f FF0E0000 		.4byte	0xeff
 7700 0f43 1C       		.uleb128 0x1c
 7701 0f44 0804     		.2byte	0x408
 7702 0f46 0D       		.byte	0xd
 7703 0f47 67       		.byte	0x67
 7704 0f48 710F0000 		.4byte	0xf71
 7705 0f4c 08       		.uleb128 0x8
 7706 0f4d 97100000 		.4byte	.LASF201
 7707 0f51 0D       		.byte	0xd
 7708 0f52 6B       		.byte	0x6b
 7709 0f53 B1000000 		.4byte	0xb1
 7710 0f57 00       		.byte	0
 7711 0f58 08       		.uleb128 0x8
 7712 0f59 C8170000 		.4byte	.LASF202
 7713 0f5d 0D       		.byte	0xd
 7714 0f5e 6F       		.byte	0x6f
ARM GAS  C:\Users\mathi\AppData\Local\Temp\ccXNOisu.s 			page 142


 7715 0f5f 710F0000 		.4byte	0xf71
 7716 0f63 04       		.byte	0x4
 7717 0f64 08       		.uleb128 0x8
 7718 0f65 DE0B0000 		.4byte	.LASF203
 7719 0f69 0D       		.byte	0xd
 7720 0f6a 73       		.byte	0x73
 7721 0f6b 770F0000 		.4byte	0xf77
 7722 0f6f 08       		.byte	0x8
 7723 0f70 00       		.byte	0
 7724 0f71 0B       		.uleb128 0xb
 7725 0f72 04       		.byte	0x4
 7726 0f73 380F0000 		.4byte	0xf38
 7727 0f77 13       		.uleb128 0x13
 7728 0f78 380F0000 		.4byte	0xf38
 7729 0f7c 870F0000 		.4byte	0xf87
 7730 0f80 14       		.uleb128 0x14
 7731 0f81 B1000000 		.4byte	0xb1
 7732 0f85 3F       		.byte	0x3f
 7733 0f86 00       		.byte	0
 7734 0f87 02       		.uleb128 0x2
 7735 0f88 15000000 		.4byte	.LASF204
 7736 0f8c 0D       		.byte	0xd
 7737 0f8d 74       		.byte	0x74
 7738 0f8e 430F0000 		.4byte	0xf43
 7739 0f92 17       		.uleb128 0x17
 7740 0f93 04       		.byte	0x4
 7741 0f94 0E       		.byte	0xe
 7742 0f95 38       		.byte	0x38
 7743 0f96 A70F0000 		.4byte	0xfa7
 7744 0f9a 08       		.uleb128 0x8
 7745 0f9b 74240000 		.4byte	.LASF205
 7746 0f9f 0E       		.byte	0xe
 7747 0fa0 3C       		.byte	0x3c
 7748 0fa1 2B010000 		.4byte	0x12b
 7749 0fa5 00       		.byte	0
 7750 0fa6 00       		.byte	0
 7751 0fa7 02       		.uleb128 0x2
 7752 0fa8 9F280000 		.4byte	.LASF206
 7753 0fac 0E       		.byte	0xe
 7754 0fad 3D       		.byte	0x3d
 7755 0fae 920F0000 		.4byte	0xf92
 7756 0fb2 17       		.uleb128 0x17
 7757 0fb3 18       		.byte	0x18
 7758 0fb4 0E       		.byte	0xe
 7759 0fb5 48       		.byte	0x48
 7760 0fb6 F50F0000 		.4byte	0xff5
 7761 0fba 08       		.uleb128 0x8
 7762 0fbb A4090000 		.4byte	.LASF207
 7763 0fbf 0E       		.byte	0xe
 7764 0fc0 49       		.byte	0x49
 7765 0fc1 2B010000 		.4byte	0x12b
 7766 0fc5 00       		.byte	0
 7767 0fc6 08       		.uleb128 0x8
 7768 0fc7 10020000 		.4byte	.LASF208
 7769 0fcb 0E       		.byte	0xe
 7770 0fcc 4A       		.byte	0x4a
 7771 0fcd 2B010000 		.4byte	0x12b
ARM GAS  C:\Users\mathi\AppData\Local\Temp\ccXNOisu.s 			page 143


 7772 0fd1 04       		.byte	0x4
 7773 0fd2 08       		.uleb128 0x8
 7774 0fd3 E11B0000 		.4byte	.LASF209
 7775 0fd7 0E       		.byte	0xe
 7776 0fd8 4B       		.byte	0x4b
 7777 0fd9 2B010000 		.4byte	0x12b
 7778 0fdd 08       		.byte	0x8
 7779 0fde 18       		.uleb128 0x18
 7780 0fdf 6E00     		.ascii	"n\000"
 7781 0fe1 0E       		.byte	0xe
 7782 0fe2 4C       		.byte	0x4c
 7783 0fe3 A4010000 		.4byte	0x1a4
 7784 0fe7 0C       		.byte	0xc
 7785 0fe8 08       		.uleb128 0x8
 7786 0fe9 801B0000 		.4byte	.LASF210
 7787 0fed 0E       		.byte	0xe
 7788 0fee 4D       		.byte	0x4d
 7789 0fef 36010000 		.4byte	0x136
 7790 0ff3 10       		.byte	0x10
 7791 0ff4 00       		.byte	0
 7792 0ff5 02       		.uleb128 0x2
 7793 0ff6 1D270000 		.4byte	.LASF211
 7794 0ffa 0E       		.byte	0xe
 7795 0ffb 4E       		.byte	0x4e
 7796 0ffc B20F0000 		.4byte	0xfb2
 7797 1000 17       		.uleb128 0x17
 7798 1001 38       		.byte	0x38
 7799 1002 0F       		.byte	0xf
 7800 1003 38       		.byte	0x38
 7801 1004 39100000 		.4byte	0x1039
 7802 1008 08       		.uleb128 0x8
 7803 1009 D5080000 		.4byte	.LASF212
 7804 100d 0F       		.byte	0xf
 7805 100e 39       		.byte	0x39
 7806 100f A4010000 		.4byte	0x1a4
 7807 1013 00       		.byte	0
 7808 1014 08       		.uleb128 0x8
 7809 1015 470D0000 		.4byte	.LASF213
 7810 1019 0F       		.byte	0xf
 7811 101a 3A       		.byte	0x3a
 7812 101b A4010000 		.4byte	0x1a4
 7813 101f 04       		.byte	0x4
 7814 1020 08       		.uleb128 0x8
 7815 1021 6A260000 		.4byte	.LASF214
 7816 1025 0F       		.byte	0xf
 7817 1026 3B       		.byte	0x3b
 7818 1027 F50F0000 		.4byte	0xff5
 7819 102b 08       		.byte	0x8
 7820 102c 08       		.uleb128 0x8
 7821 102d D0000000 		.4byte	.LASF215
 7822 1031 0F       		.byte	0xf
 7823 1032 3D       		.byte	0x3d
 7824 1033 F50F0000 		.4byte	0xff5
 7825 1037 20       		.byte	0x20
 7826 1038 00       		.byte	0
 7827 1039 02       		.uleb128 0x2
 7828 103a 60070000 		.4byte	.LASF216
ARM GAS  C:\Users\mathi\AppData\Local\Temp\ccXNOisu.s 			page 144


 7829 103e 0F       		.byte	0xf
 7830 103f 3F       		.byte	0x3f
 7831 1040 00100000 		.4byte	0x1000
 7832 1044 1D       		.uleb128 0x1d
 7833 1045 04       		.byte	0x4
 7834 1046 07       		.byte	0x7
 7835 1047 FA       		.byte	0xfa
 7836 1048 A1100000 		.4byte	0x10a1
 7837 104c 1E       		.uleb128 0x1e
 7838 104d F9120000 		.4byte	.LASF217
 7839 1051 07       		.byte	0x7
 7840 1052 0101     		.2byte	0x101
 7841 1054 78010000 		.4byte	0x178
 7842 1058 1E       		.uleb128 0x1e
 7843 1059 6B0A0000 		.4byte	.LASF218
 7844 105d 07       		.byte	0x7
 7845 105e 0801     		.2byte	0x108
 7846 1060 78010000 		.4byte	0x178
 7847 1064 1E       		.uleb128 0x1e
 7848 1065 D7200000 		.4byte	.LASF219
 7849 1069 07       		.byte	0x7
 7850 106a 0F01     		.2byte	0x10f
 7851 106c D0030000 		.4byte	0x3d0
 7852 1070 1E       		.uleb128 0x1e
 7853 1071 A51B0000 		.4byte	.LASF220
 7854 1075 07       		.byte	0x7
 7855 1076 1601     		.2byte	0x116
 7856 1078 A1100000 		.4byte	0x10a1
 7857 107c 1E       		.uleb128 0x1e
 7858 107d 49010000 		.4byte	.LASF221
 7859 1081 07       		.byte	0x7
 7860 1082 1E01     		.2byte	0x11e
 7861 1084 CC100000 		.4byte	0x10cc
 7862 1088 1E       		.uleb128 0x1e
 7863 1089 38210000 		.4byte	.LASF222
 7864 108d 07       		.byte	0x7
 7865 108e 2701     		.2byte	0x127
 7866 1090 0F110000 		.4byte	0x110f
 7867 1094 1E       		.uleb128 0x1e
 7868 1095 11250000 		.4byte	.LASF223
 7869 1099 07       		.byte	0x7
 7870 109a 2F01     		.2byte	0x12f
 7871 109c 83010000 		.4byte	0x183
 7872 10a0 00       		.byte	0
 7873 10a1 0B       		.uleb128 0xb
 7874 10a2 04       		.byte	0x4
 7875 10a3 E8020000 		.4byte	0x2e8
 7876 10a7 07       		.uleb128 0x7
 7877 10a8 501A0000 		.4byte	.LASF224
 7878 10ac 0C       		.byte	0xc
 7879 10ad 10       		.byte	0x10
 7880 10ae 34       		.byte	0x34
 7881 10af CC100000 		.4byte	0x10cc
 7882 10b3 08       		.uleb128 0x8
 7883 10b4 62260000 		.4byte	.LASF225
 7884 10b8 10       		.byte	0x10
 7885 10b9 35       		.byte	0x35
ARM GAS  C:\Users\mathi\AppData\Local\Temp\ccXNOisu.s 			page 145


 7886 10ba 1D030000 		.4byte	0x31d
 7887 10be 00       		.byte	0
 7888 10bf 08       		.uleb128 0x8
 7889 10c0 F50B0000 		.4byte	.LASF226
 7890 10c4 10       		.byte	0x10
 7891 10c5 37       		.byte	0x37
 7892 10c6 99010000 		.4byte	0x199
 7893 10ca 08       		.byte	0x8
 7894 10cb 00       		.byte	0
 7895 10cc 0B       		.uleb128 0xb
 7896 10cd 04       		.byte	0x4
 7897 10ce A7100000 		.4byte	0x10a7
 7898 10d2 07       		.uleb128 0x7
 7899 10d3 4B0E0000 		.4byte	.LASF227
 7900 10d7 14       		.byte	0x14
 7901 10d8 11       		.byte	0x11
 7902 10d9 39       		.byte	0x39
 7903 10da 0F110000 		.4byte	0x110f
 7904 10de 08       		.uleb128 0x8
 7905 10df 141B0000 		.4byte	.LASF228
 7906 10e3 11       		.byte	0x11
 7907 10e4 3A       		.byte	0x3a
 7908 10e5 1D030000 		.4byte	0x31d
 7909 10e9 00       		.byte	0
 7910 10ea 08       		.uleb128 0x8
 7911 10eb 09190000 		.4byte	.LASF229
 7912 10ef 11       		.byte	0x11
 7913 10f0 3C       		.byte	0x3c
 7914 10f1 F3020000 		.4byte	0x2f3
 7915 10f5 08       		.byte	0x8
 7916 10f6 08       		.uleb128 0x8
 7917 10f7 47020000 		.4byte	.LASF230
 7918 10fb 11       		.byte	0x11
 7919 10fc 3E       		.byte	0x3e
 7920 10fd 6A120000 		.4byte	0x126a
 7921 1101 0C       		.byte	0xc
 7922 1102 08       		.uleb128 0x8
 7923 1103 F10A0000 		.4byte	.LASF231
 7924 1107 11       		.byte	0x11
 7925 1108 41       		.byte	0x41
 7926 1109 99010000 		.4byte	0x199
 7927 110d 10       		.byte	0x10
 7928 110e 00       		.byte	0
 7929 110f 0B       		.uleb128 0xb
 7930 1110 04       		.byte	0x4
 7931 1111 D2100000 		.4byte	0x10d2
 7932 1115 0B       		.uleb128 0xb
 7933 1116 04       		.byte	0x4
 7934 1117 27110000 		.4byte	0x1127
 7935 111b 06       		.uleb128 0x6
 7936 111c 15110000 		.4byte	0x1115
 7937 1120 03       		.uleb128 0x3
 7938 1121 01       		.byte	0x1
 7939 1122 08       		.byte	0x8
 7940 1123 3D1D0000 		.4byte	.LASF232
 7941 1127 05       		.uleb128 0x5
 7942 1128 20110000 		.4byte	0x1120
ARM GAS  C:\Users\mathi\AppData\Local\Temp\ccXNOisu.s 			page 146


 7943 112c 0B       		.uleb128 0xb
 7944 112d 04       		.byte	0x4
 7945 112e 940D0000 		.4byte	0xd94
 7946 1132 0B       		.uleb128 0xb
 7947 1133 04       		.byte	0x4
 7948 1134 D2030000 		.4byte	0x3d2
 7949 1138 13       		.uleb128 0x13
 7950 1139 940D0000 		.4byte	0xd94
 7951 113d 48110000 		.4byte	0x1148
 7952 1141 14       		.uleb128 0x14
 7953 1142 B1000000 		.4byte	0xb1
 7954 1146 30       		.byte	0x30
 7955 1147 00       		.byte	0
 7956 1148 1F       		.uleb128 0x1f
 7957 1149 636800   		.ascii	"ch\000"
 7958 114c 07       		.byte	0x7
 7959 114d 0902     		.2byte	0x209
 7960 114f C7040000 		.4byte	0x4c7
 7961 1153 17       		.uleb128 0x17
 7962 1154 16       		.byte	0x16
 7963 1155 12       		.byte	0x12
 7964 1156 34       		.byte	0x34
 7965 1157 34120000 		.4byte	0x1234
 7966 115b 08       		.uleb128 0x8
 7967 115c 96260000 		.4byte	.LASF233
 7968 1160 12       		.byte	0x12
 7969 1161 35       		.byte	0x35
 7970 1162 34120000 		.4byte	0x1234
 7971 1166 00       		.byte	0
 7972 1167 08       		.uleb128 0x8
 7973 1168 D1280000 		.4byte	.LASF234
 7974 116c 12       		.byte	0x12
 7975 116d 36       		.byte	0x36
 7976 116e C3000000 		.4byte	0xc3
 7977 1172 04       		.byte	0x4
 7978 1173 08       		.uleb128 0x8
 7979 1174 10050000 		.4byte	.LASF235
 7980 1178 12       		.byte	0x12
 7981 1179 37       		.byte	0x37
 7982 117a C3000000 		.4byte	0xc3
 7983 117e 05       		.byte	0x5
 7984 117f 08       		.uleb128 0x8
 7985 1180 74190000 		.4byte	.LASF236
 7986 1184 12       		.byte	0x12
 7987 1185 38       		.byte	0x38
 7988 1186 DE000000 		.4byte	0xde
 7989 118a 06       		.byte	0x6
 7990 118b 08       		.uleb128 0x8
 7991 118c 27000000 		.4byte	.LASF237
 7992 1190 12       		.byte	0x12
 7993 1191 39       		.byte	0x39
 7994 1192 C3000000 		.4byte	0xc3
 7995 1196 08       		.byte	0x8
 7996 1197 08       		.uleb128 0x8
 7997 1198 38060000 		.4byte	.LASF238
 7998 119c 12       		.byte	0x12
 7999 119d 3A       		.byte	0x3a
ARM GAS  C:\Users\mathi\AppData\Local\Temp\ccXNOisu.s 			page 147


 8000 119e C3000000 		.4byte	0xc3
 8001 11a2 09       		.byte	0x9
 8002 11a3 08       		.uleb128 0x8
 8003 11a4 F1280000 		.4byte	.LASF239
 8004 11a8 12       		.byte	0x12
 8005 11a9 3B       		.byte	0x3b
 8006 11aa C3000000 		.4byte	0xc3
 8007 11ae 0A       		.byte	0xa
 8008 11af 08       		.uleb128 0x8
 8009 11b0 EF260000 		.4byte	.LASF240
 8010 11b4 12       		.byte	0x12
 8011 11b5 3C       		.byte	0x3c
 8012 11b6 C3000000 		.4byte	0xc3
 8013 11ba 0B       		.byte	0xb
 8014 11bb 08       		.uleb128 0x8
 8015 11bc AF070000 		.4byte	.LASF241
 8016 11c0 12       		.byte	0x12
 8017 11c1 3D       		.byte	0x3d
 8018 11c2 C3000000 		.4byte	0xc3
 8019 11c6 0C       		.byte	0xc
 8020 11c7 08       		.uleb128 0x8
 8021 11c8 9F0E0000 		.4byte	.LASF242
 8022 11cc 12       		.byte	0x12
 8023 11cd 3E       		.byte	0x3e
 8024 11ce C3000000 		.4byte	0xc3
 8025 11d2 0D       		.byte	0xd
 8026 11d3 08       		.uleb128 0x8
 8027 11d4 08080000 		.4byte	.LASF243
 8028 11d8 12       		.byte	0x12
 8029 11d9 3F       		.byte	0x3f
 8030 11da C3000000 		.4byte	0xc3
 8031 11de 0E       		.byte	0xe
 8032 11df 08       		.uleb128 0x8
 8033 11e0 3B100000 		.4byte	.LASF244
 8034 11e4 12       		.byte	0x12
 8035 11e5 40       		.byte	0x40
 8036 11e6 C3000000 		.4byte	0xc3
 8037 11ea 0F       		.byte	0xf
 8038 11eb 08       		.uleb128 0x8
 8039 11ec 10060000 		.4byte	.LASF245
 8040 11f0 12       		.byte	0x12
 8041 11f1 41       		.byte	0x41
 8042 11f2 C3000000 		.4byte	0xc3
 8043 11f6 10       		.byte	0x10
 8044 11f7 08       		.uleb128 0x8
 8045 11f8 010B0000 		.4byte	.LASF246
 8046 11fc 12       		.byte	0x12
 8047 11fd 43       		.byte	0x43
 8048 11fe C3000000 		.4byte	0xc3
 8049 1202 11       		.byte	0x11
 8050 1203 08       		.uleb128 0x8
 8051 1204 C8040000 		.4byte	.LASF247
 8052 1208 12       		.byte	0x12
 8053 1209 44       		.byte	0x44
 8054 120a C3000000 		.4byte	0xc3
 8055 120e 12       		.byte	0x12
 8056 120f 08       		.uleb128 0x8
ARM GAS  C:\Users\mathi\AppData\Local\Temp\ccXNOisu.s 			page 148


 8057 1210 F3180000 		.4byte	.LASF248
 8058 1214 12       		.byte	0x12
 8059 1215 45       		.byte	0x45
 8060 1216 C3000000 		.4byte	0xc3
 8061 121a 13       		.byte	0x13
 8062 121b 08       		.uleb128 0x8
 8063 121c E41F0000 		.4byte	.LASF249
 8064 1220 12       		.byte	0x12
 8065 1221 46       		.byte	0x46
 8066 1222 C3000000 		.4byte	0xc3
 8067 1226 14       		.byte	0x14
 8068 1227 08       		.uleb128 0x8
 8069 1228 27010000 		.4byte	.LASF250
 8070 122c 12       		.byte	0x12
 8071 122d 48       		.byte	0x48
 8072 122e C3000000 		.4byte	0xc3
 8073 1232 15       		.byte	0x15
 8074 1233 00       		.byte	0
 8075 1234 13       		.uleb128 0x13
 8076 1235 20110000 		.4byte	0x1120
 8077 1239 44120000 		.4byte	0x1244
 8078 123d 14       		.uleb128 0x14
 8079 123e B1000000 		.4byte	0xb1
 8080 1242 03       		.byte	0x3
 8081 1243 00       		.byte	0
 8082 1244 02       		.uleb128 0x2
 8083 1245 CE160000 		.4byte	.LASF251
 8084 1249 12       		.byte	0x12
 8085 124a 49       		.byte	0x49
 8086 124b 53110000 		.4byte	0x1153
 8087 124f 05       		.uleb128 0x5
 8088 1250 44120000 		.4byte	0x1244
 8089 1254 16       		.uleb128 0x16
 8090 1255 590D0000 		.4byte	.LASF252
 8091 1259 12       		.byte	0x12
 8092 125a 6E       		.byte	0x6e
 8093 125b 4F120000 		.4byte	0x124f
 8094 125f 02       		.uleb128 0x2
 8095 1260 D5220000 		.4byte	.LASF253
 8096 1264 11       		.byte	0x11
 8097 1265 34       		.byte	0x34
 8098 1266 D2100000 		.4byte	0x10d2
 8099 126a 0B       		.uleb128 0xb
 8100 126b 04       		.byte	0x4
 8101 126c 5F120000 		.4byte	0x125f
 8102 1270 02       		.uleb128 0x2
 8103 1271 B10D0000 		.4byte	.LASF254
 8104 1275 13       		.byte	0x13
 8105 1276 34       		.byte	0x34
 8106 1277 7B120000 		.4byte	0x127b
 8107 127b 07       		.uleb128 0x7
 8108 127c 79290000 		.4byte	.LASF255
 8109 1280 14       		.byte	0x14
 8110 1281 13       		.byte	0x13
 8111 1282 39       		.byte	0x39
 8112 1283 C4120000 		.4byte	0x12c4
 8113 1287 08       		.uleb128 0x8
ARM GAS  C:\Users\mathi\AppData\Local\Temp\ccXNOisu.s 			page 149


 8114 1288 35040000 		.4byte	.LASF256
 8115 128c 13       		.byte	0x13
 8116 128d 3A       		.byte	0x3a
 8117 128e C4120000 		.4byte	0x12c4
 8118 1292 00       		.byte	0
 8119 1293 08       		.uleb128 0x8
 8120 1294 E2230000 		.4byte	.LASF257
 8121 1298 13       		.byte	0x13
 8122 1299 3D       		.byte	0x3d
 8123 129a F3020000 		.4byte	0x2f3
 8124 129e 04       		.byte	0x4
 8125 129f 08       		.uleb128 0x8
 8126 12a0 8B050000 		.4byte	.LASF258
 8127 12a4 13       		.byte	0x13
 8128 12a5 3F       		.byte	0x3f
 8129 12a6 83010000 		.4byte	0x183
 8130 12aa 08       		.byte	0x8
 8131 12ab 08       		.uleb128 0x8
 8132 12ac 18250000 		.4byte	.LASF259
 8133 12b0 13       		.byte	0x13
 8134 12b1 41       		.byte	0x41
 8135 12b2 8E010000 		.4byte	0x18e
 8136 12b6 0C       		.byte	0xc
 8137 12b7 08       		.uleb128 0x8
 8138 12b8 83100000 		.4byte	.LASF260
 8139 12bc 13       		.byte	0x13
 8140 12bd 43       		.byte	0x43
 8141 12be 8E010000 		.4byte	0x18e
 8142 12c2 10       		.byte	0x10
 8143 12c3 00       		.byte	0
 8144 12c4 0B       		.uleb128 0xb
 8145 12c5 04       		.byte	0x4
 8146 12c6 70120000 		.4byte	0x1270
 8147 12ca 07       		.uleb128 0x7
 8148 12cb 27250000 		.4byte	.LASF261
 8149 12cf 04       		.byte	0x4
 8150 12d0 13       		.byte	0x13
 8151 12d1 4A       		.byte	0x4a
 8152 12d2 E3120000 		.4byte	0x12e3
 8153 12d6 08       		.uleb128 0x8
 8154 12d7 87240000 		.4byte	.LASF262
 8155 12db 13       		.byte	0x13
 8156 12dc 4B       		.byte	0x4b
 8157 12dd C4120000 		.4byte	0x12c4
 8158 12e1 00       		.byte	0
 8159 12e2 00       		.byte	0
 8160 12e3 02       		.uleb128 0x2
 8161 12e4 A1170000 		.4byte	.LASF263
 8162 12e8 13       		.byte	0x13
 8163 12e9 4E       		.byte	0x4e
 8164 12ea CA120000 		.4byte	0x12ca
 8165 12ee 02       		.uleb128 0x2
 8166 12ef DB100000 		.4byte	.LASF264
 8167 12f3 14       		.byte	0x14
 8168 12f4 3F       		.byte	0x3f
 8169 12f5 F9120000 		.4byte	0x12f9
 8170 12f9 07       		.uleb128 0x7
ARM GAS  C:\Users\mathi\AppData\Local\Temp\ccXNOisu.s 			page 150


 8171 12fa 75130000 		.4byte	.LASF265
 8172 12fe 24       		.byte	0x24
 8173 12ff 14       		.byte	0x14
 8174 1300 4D       		.byte	0x4d
 8175 1301 66130000 		.4byte	0x1366
 8176 1305 08       		.uleb128 0x8
 8177 1306 7A070000 		.4byte	.LASF266
 8178 130a 14       		.byte	0x14
 8179 130b 4E       		.byte	0x4e
 8180 130c 1D030000 		.4byte	0x31d
 8181 1310 00       		.byte	0
 8182 1311 08       		.uleb128 0x8
 8183 1312 83220000 		.4byte	.LASF267
 8184 1316 14       		.byte	0x14
 8185 1317 4F       		.byte	0x4f
 8186 1318 19010000 		.4byte	0x119
 8187 131c 08       		.byte	0x8
 8188 131d 08       		.uleb128 0x8
 8189 131e 6C140000 		.4byte	.LASF268
 8190 1322 14       		.byte	0x14
 8191 1323 50       		.byte	0x50
 8192 1324 88130000 		.4byte	0x1388
 8193 1328 0C       		.byte	0xc
 8194 1329 08       		.uleb128 0x8
 8195 132a C6060000 		.4byte	.LASF269
 8196 132e 14       		.byte	0x14
 8197 132f 51       		.byte	0x51
 8198 1330 88130000 		.4byte	0x1388
 8199 1334 10       		.byte	0x10
 8200 1335 08       		.uleb128 0x8
 8201 1336 E81C0000 		.4byte	.LASF270
 8202 133a 14       		.byte	0x14
 8203 133b 53       		.byte	0x53
 8204 133c 88130000 		.4byte	0x1388
 8205 1340 14       		.byte	0x14
 8206 1341 08       		.uleb128 0x8
 8207 1342 AB1B0000 		.4byte	.LASF271
 8208 1346 14       		.byte	0x14
 8209 1347 54       		.byte	0x54
 8210 1348 88130000 		.4byte	0x1388
 8211 134c 18       		.byte	0x18
 8212 134d 08       		.uleb128 0x8
 8213 134e 2F210000 		.4byte	.LASF272
 8214 1352 14       		.byte	0x14
 8215 1353 55       		.byte	0x55
 8216 1354 66130000 		.4byte	0x1366
 8217 1358 1C       		.byte	0x1c
 8218 1359 08       		.uleb128 0x8
 8219 135a 2B1E0000 		.4byte	.LASF273
 8220 135e 14       		.byte	0x14
 8221 135f 56       		.byte	0x56
 8222 1360 D0030000 		.4byte	0x3d0
 8223 1364 20       		.byte	0x20
 8224 1365 00       		.byte	0
 8225 1366 02       		.uleb128 0x2
 8226 1367 7B060000 		.4byte	.LASF274
 8227 136b 14       		.byte	0x14
ARM GAS  C:\Users\mathi\AppData\Local\Temp\ccXNOisu.s 			page 151


 8228 136c 42       		.byte	0x42
 8229 136d 71130000 		.4byte	0x1371
 8230 1371 0B       		.uleb128 0xb
 8231 1372 04       		.byte	0x4
 8232 1373 77130000 		.4byte	0x1377
 8233 1377 0D       		.uleb128 0xd
 8234 1378 82130000 		.4byte	0x1382
 8235 137c 0E       		.uleb128 0xe
 8236 137d 82130000 		.4byte	0x1382
 8237 1381 00       		.byte	0
 8238 1382 0B       		.uleb128 0xb
 8239 1383 04       		.byte	0x4
 8240 1384 EE120000 		.4byte	0x12ee
 8241 1388 0B       		.uleb128 0xb
 8242 1389 04       		.byte	0x4
 8243 138a C3000000 		.4byte	0xc3
 8244 138e 02       		.uleb128 0x2
 8245 138f BA070000 		.4byte	.LASF275
 8246 1393 14       		.byte	0x14
 8247 1394 64       		.byte	0x64
 8248 1395 EE120000 		.4byte	0x12ee
 8249 1399 02       		.uleb128 0x2
 8250 139a C2290000 		.4byte	.LASF276
 8251 139e 14       		.byte	0x14
 8252 139f 71       		.byte	0x71
 8253 13a0 EE120000 		.4byte	0x12ee
 8254 13a4 20       		.uleb128 0x20
 8255 13a5 19010000 		.4byte	0x119
 8256 13a9 BD130000 		.4byte	0x13bd
 8257 13ad 0E       		.uleb128 0xe
 8258 13ae D0030000 		.4byte	0x3d0
 8259 13b2 0E       		.uleb128 0xe
 8260 13b3 BD130000 		.4byte	0x13bd
 8261 13b7 0E       		.uleb128 0xe
 8262 13b8 19010000 		.4byte	0x119
 8263 13bc 00       		.byte	0
 8264 13bd 0B       		.uleb128 0xb
 8265 13be 04       		.byte	0x4
 8266 13bf CE000000 		.4byte	0xce
 8267 13c3 0B       		.uleb128 0xb
 8268 13c4 04       		.byte	0x4
 8269 13c5 A4130000 		.4byte	0x13a4
 8270 13c9 20       		.uleb128 0x20
 8271 13ca 19010000 		.4byte	0x119
 8272 13ce E2130000 		.4byte	0x13e2
 8273 13d2 0E       		.uleb128 0xe
 8274 13d3 D0030000 		.4byte	0x3d0
 8275 13d7 0E       		.uleb128 0xe
 8276 13d8 88130000 		.4byte	0x1388
 8277 13dc 0E       		.uleb128 0xe
 8278 13dd 19010000 		.4byte	0x119
 8279 13e1 00       		.byte	0
 8280 13e2 0B       		.uleb128 0xb
 8281 13e3 04       		.byte	0x4
 8282 13e4 C9130000 		.4byte	0x13c9
 8283 13e8 20       		.uleb128 0x20
 8284 13e9 78010000 		.4byte	0x178
ARM GAS  C:\Users\mathi\AppData\Local\Temp\ccXNOisu.s 			page 152


 8285 13ed FC130000 		.4byte	0x13fc
 8286 13f1 0E       		.uleb128 0xe
 8287 13f2 D0030000 		.4byte	0x3d0
 8288 13f6 0E       		.uleb128 0xe
 8289 13f7 C3000000 		.4byte	0xc3
 8290 13fb 00       		.byte	0
 8291 13fc 0B       		.uleb128 0xb
 8292 13fd 04       		.byte	0x4
 8293 13fe E8130000 		.4byte	0x13e8
 8294 1402 20       		.uleb128 0x20
 8295 1403 78010000 		.4byte	0x178
 8296 1407 11140000 		.4byte	0x1411
 8297 140b 0E       		.uleb128 0xe
 8298 140c D0030000 		.4byte	0x3d0
 8299 1410 00       		.byte	0
 8300 1411 0B       		.uleb128 0xb
 8301 1412 04       		.byte	0x4
 8302 1413 02140000 		.4byte	0x1402
 8303 1417 17       		.uleb128 0x17
 8304 1418 0C       		.byte	0xc
 8305 1419 15       		.byte	0x15
 8306 141a DA       		.byte	0xda
 8307 141b 5C140000 		.4byte	0x145c
 8308 141f 08       		.uleb128 0x8
 8309 1420 53290000 		.4byte	.LASF277
 8310 1424 15       		.byte	0x15
 8311 1425 DB       		.byte	0xdb
 8312 1426 5C140000 		.4byte	0x145c
 8313 142a 00       		.byte	0
 8314 142b 08       		.uleb128 0x8
 8315 142c BF120000 		.4byte	.LASF278
 8316 1430 15       		.byte	0x15
 8317 1431 DC       		.byte	0xdc
 8318 1432 62140000 		.4byte	0x1462
 8319 1436 04       		.byte	0x4
 8320 1437 08       		.uleb128 0x8
 8321 1438 A6060000 		.4byte	.LASF279
 8322 143c 15       		.byte	0x15
 8323 143d DD       		.byte	0xdd
 8324 143e C3000000 		.4byte	0xc3
 8325 1442 08       		.byte	0x8
 8326 1443 08       		.uleb128 0x8
 8327 1444 CB220000 		.4byte	.LASF280
 8328 1448 15       		.byte	0x15
 8329 1449 DF       		.byte	0xdf
 8330 144a C3000000 		.4byte	0xc3
 8331 144e 09       		.byte	0x9
 8332 144f 08       		.uleb128 0x8
 8333 1450 C3050000 		.4byte	.LASF281
 8334 1454 15       		.byte	0x15
 8335 1455 E0       		.byte	0xe0
 8336 1456 C3000000 		.4byte	0xc3
 8337 145a 0A       		.byte	0xa
 8338 145b 00       		.byte	0
 8339 145c 0B       		.uleb128 0xb
 8340 145d 04       		.byte	0x4
 8341 145e 850A0000 		.4byte	0xa85
ARM GAS  C:\Users\mathi\AppData\Local\Temp\ccXNOisu.s 			page 153


 8342 1462 0B       		.uleb128 0xb
 8343 1463 04       		.byte	0x4
 8344 1464 04010000 		.4byte	0x104
 8345 1468 02       		.uleb128 0x2
 8346 1469 9A150000 		.4byte	.LASF282
 8347 146d 15       		.byte	0x15
 8348 146e E1       		.byte	0xe1
 8349 146f 17140000 		.4byte	0x1417
 8350 1473 05       		.uleb128 0x5
 8351 1474 68140000 		.4byte	0x1468
 8352 1478 13       		.uleb128 0x13
 8353 1479 73140000 		.4byte	0x1473
 8354 147d 88140000 		.4byte	0x1488
 8355 1481 14       		.uleb128 0x14
 8356 1482 B1000000 		.4byte	0xb1
 8357 1486 0F       		.byte	0xf
 8358 1487 00       		.byte	0
 8359 1488 05       		.uleb128 0x5
 8360 1489 78140000 		.4byte	0x1478
 8361 148d 15       		.uleb128 0x15
 8362 148e DF1E0000 		.4byte	.LASF283
 8363 1492 15       		.byte	0x15
 8364 1493 BB01     		.2byte	0x1bb
 8365 1495 88140000 		.4byte	0x1488
 8366 1499 20       		.uleb128 0x20
 8367 149a 78010000 		.4byte	0x178
 8368 149e B2140000 		.4byte	0x14b2
 8369 14a2 0E       		.uleb128 0xe
 8370 14a3 D0030000 		.4byte	0x3d0
 8371 14a7 0E       		.uleb128 0xe
 8372 14a8 C3000000 		.4byte	0xc3
 8373 14ac 0E       		.uleb128 0xe
 8374 14ad AF010000 		.4byte	0x1af
 8375 14b1 00       		.byte	0
 8376 14b2 0B       		.uleb128 0xb
 8377 14b3 04       		.byte	0x4
 8378 14b4 99140000 		.4byte	0x1499
 8379 14b8 20       		.uleb128 0x20
 8380 14b9 78010000 		.4byte	0x178
 8381 14bd CC140000 		.4byte	0x14cc
 8382 14c1 0E       		.uleb128 0xe
 8383 14c2 D0030000 		.4byte	0x3d0
 8384 14c6 0E       		.uleb128 0xe
 8385 14c7 AF010000 		.4byte	0x1af
 8386 14cb 00       		.byte	0
 8387 14cc 0B       		.uleb128 0xb
 8388 14cd 04       		.byte	0x4
 8389 14ce B8140000 		.4byte	0x14b8
 8390 14d2 20       		.uleb128 0x20
 8391 14d3 19010000 		.4byte	0x119
 8392 14d7 F0140000 		.4byte	0x14f0
 8393 14db 0E       		.uleb128 0xe
 8394 14dc D0030000 		.4byte	0x3d0
 8395 14e0 0E       		.uleb128 0xe
 8396 14e1 BD130000 		.4byte	0x13bd
 8397 14e5 0E       		.uleb128 0xe
 8398 14e6 19010000 		.4byte	0x119
ARM GAS  C:\Users\mathi\AppData\Local\Temp\ccXNOisu.s 			page 154


 8399 14ea 0E       		.uleb128 0xe
 8400 14eb AF010000 		.4byte	0x1af
 8401 14ef 00       		.byte	0
 8402 14f0 0B       		.uleb128 0xb
 8403 14f1 04       		.byte	0x4
 8404 14f2 D2140000 		.4byte	0x14d2
 8405 14f6 20       		.uleb128 0x20
 8406 14f7 19010000 		.4byte	0x119
 8407 14fb 14150000 		.4byte	0x1514
 8408 14ff 0E       		.uleb128 0xe
 8409 1500 D0030000 		.4byte	0x3d0
 8410 1504 0E       		.uleb128 0xe
 8411 1505 88130000 		.4byte	0x1388
 8412 1509 0E       		.uleb128 0xe
 8413 150a 19010000 		.4byte	0x119
 8414 150e 0E       		.uleb128 0xe
 8415 150f AF010000 		.4byte	0x1af
 8416 1513 00       		.byte	0
 8417 1514 0B       		.uleb128 0xb
 8418 1515 04       		.byte	0x4
 8419 1516 F6140000 		.4byte	0x14f6
 8420 151a 21       		.uleb128 0x21
 8421 151b 07       		.byte	0x7
 8422 151c 01       		.byte	0x1
 8423 151d 42000000 		.4byte	0x42
 8424 1521 16       		.byte	0x16
 8425 1522 28       		.byte	0x28
 8426 1523 5E150000 		.4byte	0x155e
 8427 1527 22       		.uleb128 0x22
 8428 1528 E2010000 		.4byte	.LASF284
 8429 152c 00       		.byte	0
 8430 152d 22       		.uleb128 0x22
 8431 152e DD110000 		.4byte	.LASF285
 8432 1532 01       		.byte	0x1
 8433 1533 22       		.uleb128 0x22
 8434 1534 9C0D0000 		.4byte	.LASF286
 8435 1538 02       		.byte	0x2
 8436 1539 22       		.uleb128 0x22
 8437 153a 61200000 		.4byte	.LASF287
 8438 153e 03       		.byte	0x3
 8439 153f 22       		.uleb128 0x22
 8440 1540 28280000 		.4byte	.LASF288
 8441 1544 04       		.byte	0x4
 8442 1545 22       		.uleb128 0x22
 8443 1546 F6090000 		.4byte	.LASF289
 8444 154a 05       		.byte	0x5
 8445 154b 22       		.uleb128 0x22
 8446 154c AB220000 		.4byte	.LASF290
 8447 1550 06       		.byte	0x6
 8448 1551 22       		.uleb128 0x22
 8449 1552 1D1C0000 		.4byte	.LASF291
 8450 1556 07       		.byte	0x7
 8451 1557 22       		.uleb128 0x22
 8452 1558 E8270000 		.4byte	.LASF292
 8453 155c 08       		.byte	0x8
 8454 155d 00       		.byte	0
 8455 155e 02       		.uleb128 0x2
ARM GAS  C:\Users\mathi\AppData\Local\Temp\ccXNOisu.s 			page 155


 8456 155f B81A0000 		.4byte	.LASF293
 8457 1563 16       		.byte	0x16
 8458 1564 32       		.byte	0x32
 8459 1565 1A150000 		.4byte	0x151a
 8460 1569 17       		.uleb128 0x17
 8461 156a 08       		.byte	0x8
 8462 156b 16       		.byte	0x16
 8463 156c 37       		.byte	0x37
 8464 156d 8A150000 		.4byte	0x158a
 8465 1571 08       		.uleb128 0x8
 8466 1572 6D090000 		.4byte	.LASF294
 8467 1576 16       		.byte	0x16
 8468 1577 38       		.byte	0x38
 8469 1578 F9000000 		.4byte	0xf9
 8470 157c 00       		.byte	0
 8471 157d 08       		.uleb128 0x8
 8472 157e C5210000 		.4byte	.LASF295
 8473 1582 16       		.byte	0x16
 8474 1583 39       		.byte	0x39
 8475 1584 F9000000 		.4byte	0xf9
 8476 1588 04       		.byte	0x4
 8477 1589 00       		.byte	0
 8478 158a 02       		.uleb128 0x2
 8479 158b 40240000 		.4byte	.LASF296
 8480 158f 16       		.byte	0x16
 8481 1590 3A       		.byte	0x3a
 8482 1591 69150000 		.4byte	0x1569
 8483 1595 20       		.uleb128 0x20
 8484 1596 A4150000 		.4byte	0x15a4
 8485 159a A4150000 		.4byte	0x15a4
 8486 159e 0E       		.uleb128 0xe
 8487 159f D0030000 		.4byte	0x3d0
 8488 15a3 00       		.byte	0
 8489 15a4 03       		.uleb128 0x3
 8490 15a5 01       		.byte	0x1
 8491 15a6 02       		.byte	0x2
 8492 15a7 5F010000 		.4byte	.LASF297
 8493 15ab 0B       		.uleb128 0xb
 8494 15ac 04       		.byte	0x4
 8495 15ad 95150000 		.4byte	0x1595
 8496 15b1 20       		.uleb128 0x20
 8497 15b2 A4150000 		.4byte	0x15a4
 8498 15b6 CF150000 		.4byte	0x15cf
 8499 15ba 0E       		.uleb128 0xe
 8500 15bb D0030000 		.4byte	0x3d0
 8501 15bf 0E       		.uleb128 0xe
 8502 15c0 F9000000 		.4byte	0xf9
 8503 15c4 0E       		.uleb128 0xe
 8504 15c5 88130000 		.4byte	0x1388
 8505 15c9 0E       		.uleb128 0xe
 8506 15ca F9000000 		.4byte	0xf9
 8507 15ce 00       		.byte	0
 8508 15cf 0B       		.uleb128 0xb
 8509 15d0 04       		.byte	0x4
 8510 15d1 B1150000 		.4byte	0x15b1
 8511 15d5 20       		.uleb128 0x20
 8512 15d6 A4150000 		.4byte	0x15a4
ARM GAS  C:\Users\mathi\AppData\Local\Temp\ccXNOisu.s 			page 156


 8513 15da F3150000 		.4byte	0x15f3
 8514 15de 0E       		.uleb128 0xe
 8515 15df D0030000 		.4byte	0x3d0
 8516 15e3 0E       		.uleb128 0xe
 8517 15e4 F9000000 		.4byte	0xf9
 8518 15e8 0E       		.uleb128 0xe
 8519 15e9 BD130000 		.4byte	0x13bd
 8520 15ed 0E       		.uleb128 0xe
 8521 15ee F9000000 		.4byte	0xf9
 8522 15f2 00       		.byte	0
 8523 15f3 0B       		.uleb128 0xb
 8524 15f4 04       		.byte	0x4
 8525 15f5 D5150000 		.4byte	0x15d5
 8526 15f9 20       		.uleb128 0x20
 8527 15fa A4150000 		.4byte	0x15a4
 8528 15fe 0D160000 		.4byte	0x160d
 8529 1602 0E       		.uleb128 0xe
 8530 1603 D0030000 		.4byte	0x3d0
 8531 1607 0E       		.uleb128 0xe
 8532 1608 0D160000 		.4byte	0x160d
 8533 160c 00       		.byte	0
 8534 160d 0B       		.uleb128 0xb
 8535 160e 04       		.byte	0x4
 8536 160f 8A150000 		.4byte	0x158a
 8537 1613 0B       		.uleb128 0xb
 8538 1614 04       		.byte	0x4
 8539 1615 F9150000 		.4byte	0x15f9
 8540 1619 13       		.uleb128 0x13
 8541 161a F9000000 		.4byte	0xf9
 8542 161e 29160000 		.4byte	0x1629
 8543 1622 14       		.uleb128 0x14
 8544 1623 B1000000 		.4byte	0xb1
 8545 1627 03       		.byte	0x3
 8546 1628 00       		.byte	0
 8547 1629 17       		.uleb128 0x17
 8548 162a 04       		.byte	0x4
 8549 162b 17       		.byte	0x17
 8550 162c B3       		.byte	0xb3
 8551 162d 4A160000 		.4byte	0x164a
 8552 1631 18       		.uleb128 0x18
 8553 1632 73657400 		.ascii	"set\000"
 8554 1636 17       		.byte	0x17
 8555 1637 B4       		.byte	0xb4
 8556 1638 DE000000 		.4byte	0xde
 8557 163c 00       		.byte	0
 8558 163d 08       		.uleb128 0x8
 8559 163e 960F0000 		.4byte	.LASF298
 8560 1642 17       		.byte	0x17
 8561 1643 B5       		.byte	0xb5
 8562 1644 DE000000 		.4byte	0xde
 8563 1648 02       		.byte	0x2
 8564 1649 00       		.byte	0
 8565 164a 1D       		.uleb128 0x1d
 8566 164b 04       		.byte	0x4
 8567 164c 17       		.byte	0x17
 8568 164d B1       		.byte	0xb1
 8569 164e 65160000 		.4byte	0x1665
ARM GAS  C:\Users\mathi\AppData\Local\Temp\ccXNOisu.s 			page 157


 8570 1652 23       		.uleb128 0x23
 8571 1653 5700     		.ascii	"W\000"
 8572 1655 17       		.byte	0x17
 8573 1656 B2       		.byte	0xb2
 8574 1657 F9000000 		.4byte	0xf9
 8575 165b 23       		.uleb128 0x23
 8576 165c 4800     		.ascii	"H\000"
 8577 165e 17       		.byte	0x17
 8578 165f B6       		.byte	0xb6
 8579 1660 29160000 		.4byte	0x1629
 8580 1664 00       		.byte	0
 8581 1665 06       		.uleb128 0x6
 8582 1666 4A160000 		.4byte	0x164a
 8583 166a 17       		.uleb128 0x17
 8584 166b 2C       		.byte	0x2c
 8585 166c 17       		.byte	0x17
 8586 166d A9       		.byte	0xa9
 8587 166e F7160000 		.4byte	0x16f7
 8588 1672 08       		.uleb128 0x8
 8589 1673 FC220000 		.4byte	.LASF299
 8590 1677 17       		.byte	0x17
 8591 1678 AB       		.byte	0xab
 8592 1679 04010000 		.4byte	0x104
 8593 167d 00       		.byte	0
 8594 167e 08       		.uleb128 0x8
 8595 167f 31050000 		.4byte	.LASF300
 8596 1683 17       		.byte	0x17
 8597 1684 AC       		.byte	0xac
 8598 1685 04010000 		.4byte	0x104
 8599 1689 04       		.byte	0x4
 8600 168a 08       		.uleb128 0x8
 8601 168b 99110000 		.4byte	.LASF301
 8602 168f 17       		.byte	0x17
 8603 1690 AD       		.byte	0xad
 8604 1691 04010000 		.4byte	0x104
 8605 1695 08       		.byte	0x8
 8606 1696 08       		.uleb128 0x8
 8607 1697 01220000 		.4byte	.LASF302
 8608 169b 17       		.byte	0x17
 8609 169c AE       		.byte	0xae
 8610 169d 04010000 		.4byte	0x104
 8611 16a1 0C       		.byte	0xc
 8612 16a2 18       		.uleb128 0x18
 8613 16a3 49445200 		.ascii	"IDR\000"
 8614 16a7 17       		.byte	0x17
 8615 16a8 AF       		.byte	0xaf
 8616 16a9 04010000 		.4byte	0x104
 8617 16ad 10       		.byte	0x10
 8618 16ae 18       		.uleb128 0x18
 8619 16af 4F445200 		.ascii	"ODR\000"
 8620 16b3 17       		.byte	0x17
 8621 16b4 B0       		.byte	0xb0
 8622 16b5 04010000 		.4byte	0x104
 8623 16b9 14       		.byte	0x14
 8624 16ba 08       		.uleb128 0x8
 8625 16bb 85150000 		.4byte	.LASF303
 8626 16bf 17       		.byte	0x17
ARM GAS  C:\Users\mathi\AppData\Local\Temp\ccXNOisu.s 			page 158


 8627 16c0 B7       		.byte	0xb7
 8628 16c1 65160000 		.4byte	0x1665
 8629 16c5 18       		.byte	0x18
 8630 16c6 08       		.uleb128 0x8
 8631 16c7 F21B0000 		.4byte	.LASF304
 8632 16cb 17       		.byte	0x17
 8633 16cc B8       		.byte	0xb8
 8634 16cd 04010000 		.4byte	0x104
 8635 16d1 1C       		.byte	0x1c
 8636 16d2 08       		.uleb128 0x8
 8637 16d3 D31F0000 		.4byte	.LASF305
 8638 16d7 17       		.byte	0x17
 8639 16d8 B9       		.byte	0xb9
 8640 16d9 04010000 		.4byte	0x104
 8641 16dd 20       		.byte	0x20
 8642 16de 08       		.uleb128 0x8
 8643 16df C71F0000 		.4byte	.LASF306
 8644 16e3 17       		.byte	0x17
 8645 16e4 BA       		.byte	0xba
 8646 16e5 04010000 		.4byte	0x104
 8647 16e9 24       		.byte	0x24
 8648 16ea 18       		.uleb128 0x18
 8649 16eb 42525200 		.ascii	"BRR\000"
 8650 16ef 17       		.byte	0x17
 8651 16f0 BB       		.byte	0xbb
 8652 16f1 04010000 		.4byte	0x104
 8653 16f5 28       		.byte	0x28
 8654 16f6 00       		.byte	0
 8655 16f7 02       		.uleb128 0x2
 8656 16f8 EC120000 		.4byte	.LASF307
 8657 16fc 17       		.byte	0x17
 8658 16fd BC       		.byte	0xbc
 8659 16fe 6A160000 		.4byte	0x166a
 8660 1702 17       		.uleb128 0x17
 8661 1703 1C       		.byte	0x1c
 8662 1704 17       		.byte	0x17
 8663 1705 C1       		.byte	0xc1
 8664 1706 5F170000 		.4byte	0x175f
 8665 170a 08       		.uleb128 0x8
 8666 170b 5C260000 		.4byte	.LASF308
 8667 170f 17       		.byte	0x17
 8668 1710 C3       		.byte	0xc3
 8669 1711 F9000000 		.4byte	0xf9
 8670 1715 00       		.byte	0
 8671 1716 08       		.uleb128 0x8
 8672 1717 2A050000 		.4byte	.LASF309
 8673 171b 17       		.byte	0x17
 8674 171c C5       		.byte	0xc5
 8675 171d F9000000 		.4byte	0xf9
 8676 1721 04       		.byte	0x4
 8677 1722 08       		.uleb128 0x8
 8678 1723 18040000 		.4byte	.LASF310
 8679 1727 17       		.byte	0x17
 8680 1728 C7       		.byte	0xc7
 8681 1729 F9000000 		.4byte	0xf9
 8682 172d 08       		.byte	0x8
 8683 172e 08       		.uleb128 0x8
ARM GAS  C:\Users\mathi\AppData\Local\Temp\ccXNOisu.s 			page 159


 8684 172f 85250000 		.4byte	.LASF311
 8685 1733 17       		.byte	0x17
 8686 1734 C9       		.byte	0xc9
 8687 1735 F9000000 		.4byte	0xf9
 8688 1739 0C       		.byte	0xc
 8689 173a 18       		.uleb128 0x18
 8690 173b 6F647200 		.ascii	"odr\000"
 8691 173f 17       		.byte	0x17
 8692 1740 CB       		.byte	0xcb
 8693 1741 F9000000 		.4byte	0xf9
 8694 1745 10       		.byte	0x10
 8695 1746 08       		.uleb128 0x8
 8696 1747 B7220000 		.4byte	.LASF312
 8697 174b 17       		.byte	0x17
 8698 174c CD       		.byte	0xcd
 8699 174d F9000000 		.4byte	0xf9
 8700 1751 14       		.byte	0x14
 8701 1752 08       		.uleb128 0x8
 8702 1753 B7000000 		.4byte	.LASF313
 8703 1757 17       		.byte	0x17
 8704 1758 CF       		.byte	0xcf
 8705 1759 F9000000 		.4byte	0xf9
 8706 175d 18       		.byte	0x18
 8707 175e 00       		.byte	0
 8708 175f 02       		.uleb128 0x2
 8709 1760 9A1E0000 		.4byte	.LASF314
 8710 1764 17       		.byte	0x17
 8711 1765 D0       		.byte	0xd0
 8712 1766 02170000 		.4byte	0x1702
 8713 176a 17       		.uleb128 0x17
 8714 176b FC       		.byte	0xfc
 8715 176c 17       		.byte	0x17
 8716 176d D9       		.byte	0xd9
 8717 176e DF170000 		.4byte	0x17df
 8718 1772 08       		.uleb128 0x8
 8719 1773 7E130000 		.4byte	.LASF315
 8720 1777 17       		.byte	0x17
 8721 1778 DC       		.byte	0xdc
 8722 1779 5F170000 		.4byte	0x175f
 8723 177d 00       		.byte	0
 8724 177e 08       		.uleb128 0x8
 8725 177f 09050000 		.4byte	.LASF316
 8726 1783 17       		.byte	0x17
 8727 1784 E0       		.byte	0xe0
 8728 1785 5F170000 		.4byte	0x175f
 8729 1789 1C       		.byte	0x1c
 8730 178a 08       		.uleb128 0x8
 8731 178b 4E020000 		.4byte	.LASF317
 8732 178f 17       		.byte	0x17
 8733 1790 E4       		.byte	0xe4
 8734 1791 5F170000 		.4byte	0x175f
 8735 1795 38       		.byte	0x38
 8736 1796 08       		.uleb128 0x8
 8737 1797 9F100000 		.4byte	.LASF318
 8738 179b 17       		.byte	0x17
 8739 179c E8       		.byte	0xe8
 8740 179d 5F170000 		.4byte	0x175f
ARM GAS  C:\Users\mathi\AppData\Local\Temp\ccXNOisu.s 			page 160


 8741 17a1 54       		.byte	0x54
 8742 17a2 08       		.uleb128 0x8
 8743 17a3 631D0000 		.4byte	.LASF319
 8744 17a7 17       		.byte	0x17
 8745 17a8 EC       		.byte	0xec
 8746 17a9 5F170000 		.4byte	0x175f
 8747 17ad 70       		.byte	0x70
 8748 17ae 08       		.uleb128 0x8
 8749 17af 312A0000 		.4byte	.LASF320
 8750 17b3 17       		.byte	0x17
 8751 17b4 F0       		.byte	0xf0
 8752 17b5 5F170000 		.4byte	0x175f
 8753 17b9 8C       		.byte	0x8c
 8754 17ba 08       		.uleb128 0x8
 8755 17bb 6C0E0000 		.4byte	.LASF321
 8756 17bf 17       		.byte	0x17
 8757 17c0 F4       		.byte	0xf4
 8758 17c1 5F170000 		.4byte	0x175f
 8759 17c5 A8       		.byte	0xa8
 8760 17c6 08       		.uleb128 0x8
 8761 17c7 3C1B0000 		.4byte	.LASF322
 8762 17cb 17       		.byte	0x17
 8763 17cc F8       		.byte	0xf8
 8764 17cd 5F170000 		.4byte	0x175f
 8765 17d1 C4       		.byte	0xc4
 8766 17d2 08       		.uleb128 0x8
 8767 17d3 F4270000 		.4byte	.LASF323
 8768 17d7 17       		.byte	0x17
 8769 17d8 FC       		.byte	0xfc
 8770 17d9 5F170000 		.4byte	0x175f
 8771 17dd E0       		.byte	0xe0
 8772 17de 00       		.byte	0
 8773 17df 02       		.uleb128 0x2
 8774 17e0 750D0000 		.4byte	.LASF324
 8775 17e4 17       		.byte	0x17
 8776 17e5 FE       		.byte	0xfe
 8777 17e6 6A170000 		.4byte	0x176a
 8778 17ea 05       		.uleb128 0x5
 8779 17eb DF170000 		.4byte	0x17df
 8780 17ef 1A       		.uleb128 0x1a
 8781 17f0 431B0000 		.4byte	.LASF325
 8782 17f4 17       		.byte	0x17
 8783 17f5 1B01     		.2byte	0x11b
 8784 17f7 FB170000 		.4byte	0x17fb
 8785 17fb 0B       		.uleb128 0xb
 8786 17fc 04       		.byte	0x4
 8787 17fd F7160000 		.4byte	0x16f7
 8788 1801 15       		.uleb128 0x15
 8789 1802 AF230000 		.4byte	.LASF326
 8790 1806 17       		.byte	0x17
 8791 1807 DA01     		.2byte	0x1da
 8792 1809 EA170000 		.4byte	0x17ea
 8793 180d 21       		.uleb128 0x21
 8794 180e 07       		.byte	0x7
 8795 180f 01       		.byte	0x1
 8796 1810 42000000 		.4byte	0x42
 8797 1814 18       		.byte	0x18
ARM GAS  C:\Users\mathi\AppData\Local\Temp\ccXNOisu.s 			page 161


 8798 1815 46       		.byte	0x46
 8799 1816 3F180000 		.4byte	0x183f
 8800 181a 22       		.uleb128 0x22
 8801 181b BD0A0000 		.4byte	.LASF327
 8802 181f 00       		.byte	0
 8803 1820 22       		.uleb128 0x22
 8804 1821 5E180000 		.4byte	.LASF328
 8805 1825 01       		.byte	0x1
 8806 1826 22       		.uleb128 0x22
 8807 1827 11260000 		.4byte	.LASF329
 8808 182b 02       		.byte	0x2
 8809 182c 22       		.uleb128 0x22
 8810 182d 65150000 		.4byte	.LASF330
 8811 1831 03       		.byte	0x3
 8812 1832 22       		.uleb128 0x22
 8813 1833 A0080000 		.4byte	.LASF331
 8814 1837 04       		.byte	0x4
 8815 1838 22       		.uleb128 0x22
 8816 1839 2B150000 		.4byte	.LASF332
 8817 183d 05       		.byte	0x5
 8818 183e 00       		.byte	0
 8819 183f 02       		.uleb128 0x2
 8820 1840 85060000 		.4byte	.LASF333
 8821 1844 18       		.byte	0x18
 8822 1845 4D       		.byte	0x4d
 8823 1846 0D180000 		.4byte	0x180d
 8824 184a 1A       		.uleb128 0x1a
 8825 184b 52140000 		.4byte	.LASF334
 8826 184f 19       		.byte	0x19
 8827 1850 2701     		.2byte	0x127
 8828 1852 DE000000 		.4byte	0xde
 8829 1856 1A       		.uleb128 0x1a
 8830 1857 97200000 		.4byte	.LASF335
 8831 185b 19       		.byte	0x19
 8832 185c 2C01     		.2byte	0x12c
 8833 185e DE000000 		.4byte	0xde
 8834 1862 24       		.uleb128 0x24
 8835 1863 07       		.byte	0x7
 8836 1864 01       		.byte	0x1
 8837 1865 42000000 		.4byte	0x42
 8838 1869 19       		.byte	0x19
 8839 186a 3301     		.2byte	0x133
 8840 186c 7D180000 		.4byte	0x187d
 8841 1870 22       		.uleb128 0x22
 8842 1871 2A110000 		.4byte	.LASF336
 8843 1875 00       		.byte	0
 8844 1876 22       		.uleb128 0x22
 8845 1877 49040000 		.4byte	.LASF337
 8846 187b 01       		.byte	0x1
 8847 187c 00       		.byte	0
 8848 187d 1A       		.uleb128 0x1a
 8849 187e 39270000 		.4byte	.LASF338
 8850 1882 19       		.byte	0x19
 8851 1883 3601     		.2byte	0x136
 8852 1885 62180000 		.4byte	0x1862
 8853 1889 1A       		.uleb128 0x1a
 8854 188a 18120000 		.4byte	.LASF339
ARM GAS  C:\Users\mathi\AppData\Local\Temp\ccXNOisu.s 			page 162


 8855 188e 19       		.byte	0x19
 8856 188f 3B01     		.2byte	0x13b
 8857 1891 95180000 		.4byte	0x1895
 8858 1895 0C       		.uleb128 0xc
 8859 1896 18120000 		.4byte	.LASF339
 8860 189a 38       		.byte	0x38
 8861 189b 19       		.byte	0x19
 8862 189c 9F01     		.2byte	0x19f
 8863 189e 25190000 		.4byte	0x1925
 8864 18a2 0A       		.uleb128 0xa
 8865 18a3 62190000 		.4byte	.LASF340
 8866 18a7 19       		.byte	0x19
 8867 18a8 A301     		.2byte	0x1a3
 8868 18aa 3F180000 		.4byte	0x183f
 8869 18ae 00       		.byte	0
 8870 18af 0A       		.uleb128 0xa
 8871 18b0 2C200000 		.4byte	.LASF341
 8872 18b4 19       		.byte	0x19
 8873 18b5 A701     		.2byte	0x1a7
 8874 18b7 4C1A0000 		.4byte	0x1a4c
 8875 18bb 04       		.byte	0x4
 8876 18bc 0A       		.uleb128 0xa
 8877 18bd A8030000 		.4byte	.LASF342
 8878 18c1 19       		.byte	0x19
 8879 18c2 AB01     		.2byte	0x1ab
 8880 18c4 52190000 		.4byte	0x1952
 8881 18c8 08       		.byte	0x8
 8882 18c9 0A       		.uleb128 0xa
 8883 18ca 661C0000 		.4byte	.LASF343
 8884 18ce 19       		.byte	0x19
 8885 18cf AF01     		.2byte	0x1af
 8886 18d1 19010000 		.4byte	0x119
 8887 18d5 0C       		.byte	0xc
 8888 18d6 0A       		.uleb128 0xa
 8889 18d7 D5230000 		.4byte	.LASF344
 8890 18db 19       		.byte	0x19
 8891 18dc B301     		.2byte	0x1b3
 8892 18de 521A0000 		.4byte	0x1a52
 8893 18e2 10       		.byte	0x10
 8894 18e3 0A       		.uleb128 0xa
 8895 18e4 38090000 		.4byte	.LASF345
 8896 18e8 19       		.byte	0x19
 8897 18e9 B801     		.2byte	0x1b8
 8898 18eb E8020000 		.4byte	0x2e8
 8899 18ef 14       		.byte	0x14
 8900 18f0 0A       		.uleb128 0xa
 8901 18f1 670F0000 		.4byte	.LASF346
 8902 18f5 19       		.byte	0x19
 8903 18f6 BE01     		.2byte	0x1be
 8904 18f8 5F120000 		.4byte	0x125f
 8905 18fc 18       		.byte	0x18
 8906 18fd 09       		.uleb128 0x9
 8907 18fe 61646300 		.ascii	"adc\000"
 8908 1902 19       		.byte	0x19
 8909 1903 C701     		.2byte	0x1c7
 8910 1905 581A0000 		.4byte	0x1a58
 8911 1909 2C       		.byte	0x2c
ARM GAS  C:\Users\mathi\AppData\Local\Temp\ccXNOisu.s 			page 163


 8912 190a 0A       		.uleb128 0xa
 8913 190b 1D0D0000 		.4byte	.LASF347
 8914 190f 19       		.byte	0x19
 8915 1910 CB01     		.2byte	0x1cb
 8916 1912 5E1A0000 		.4byte	0x1a5e
 8917 1916 30       		.byte	0x30
 8918 1917 0A       		.uleb128 0xa
 8919 1918 781B0000 		.4byte	.LASF348
 8920 191c 19       		.byte	0x19
 8921 191d CF01     		.2byte	0x1cf
 8922 191f F9000000 		.4byte	0xf9
 8923 1923 34       		.byte	0x34
 8924 1924 00       		.byte	0
 8925 1925 1A       		.uleb128 0x1a
 8926 1926 541F0000 		.4byte	.LASF349
 8927 192a 19       		.byte	0x19
 8928 192b 4501     		.2byte	0x145
 8929 192d 31190000 		.4byte	0x1931
 8930 1931 0B       		.uleb128 0xb
 8931 1932 04       		.byte	0x4
 8932 1933 37190000 		.4byte	0x1937
 8933 1937 0D       		.uleb128 0xd
 8934 1938 4C190000 		.4byte	0x194c
 8935 193c 0E       		.uleb128 0xe
 8936 193d 4C190000 		.4byte	0x194c
 8937 1941 0E       		.uleb128 0xe
 8938 1942 52190000 		.4byte	0x1952
 8939 1946 0E       		.uleb128 0xe
 8940 1947 19010000 		.4byte	0x119
 8941 194b 00       		.byte	0
 8942 194c 0B       		.uleb128 0xb
 8943 194d 04       		.byte	0x4
 8944 194e 89180000 		.4byte	0x1889
 8945 1952 0B       		.uleb128 0xb
 8946 1953 04       		.byte	0x4
 8947 1954 4A180000 		.4byte	0x184a
 8948 1958 1A       		.uleb128 0x1a
 8949 1959 3D190000 		.4byte	.LASF350
 8950 195d 19       		.byte	0x19
 8951 195e 4E01     		.2byte	0x14e
 8952 1960 64190000 		.4byte	0x1964
 8953 1964 0B       		.uleb128 0xb
 8954 1965 04       		.byte	0x4
 8955 1966 6A190000 		.4byte	0x196a
 8956 196a 0D       		.uleb128 0xd
 8957 196b 7A190000 		.4byte	0x197a
 8958 196f 0E       		.uleb128 0xe
 8959 1970 4C190000 		.4byte	0x194c
 8960 1974 0E       		.uleb128 0xe
 8961 1975 7D180000 		.4byte	0x187d
 8962 1979 00       		.byte	0
 8963 197a 19       		.uleb128 0x19
 8964 197b 28       		.byte	0x28
 8965 197c 19       		.byte	0x19
 8966 197d 5801     		.2byte	0x158
 8967 197f 131A0000 		.4byte	0x1a13
 8968 1983 0A       		.uleb128 0xa
ARM GAS  C:\Users\mathi\AppData\Local\Temp\ccXNOisu.s 			page 164


 8969 1984 48260000 		.4byte	.LASF351
 8970 1988 19       		.byte	0x19
 8971 1989 5C01     		.2byte	0x15c
 8972 198b A4150000 		.4byte	0x15a4
 8973 198f 00       		.byte	0
 8974 1990 0A       		.uleb128 0xa
 8975 1991 3E130000 		.4byte	.LASF352
 8976 1995 19       		.byte	0x19
 8977 1996 6001     		.2byte	0x160
 8978 1998 56180000 		.4byte	0x1856
 8979 199c 02       		.byte	0x2
 8980 199d 0A       		.uleb128 0xa
 8981 199e B30B0000 		.4byte	.LASF353
 8982 19a2 19       		.byte	0x19
 8983 19a3 6401     		.2byte	0x164
 8984 19a5 25190000 		.4byte	0x1925
 8985 19a9 04       		.byte	0x4
 8986 19aa 0A       		.uleb128 0xa
 8987 19ab 1F280000 		.4byte	.LASF354
 8988 19af 19       		.byte	0x19
 8989 19b0 6801     		.2byte	0x168
 8990 19b2 58190000 		.4byte	0x1958
 8991 19b6 08       		.byte	0x8
 8992 19b7 09       		.uleb128 0x9
 8993 19b8 63723100 		.ascii	"cr1\000"
 8994 19bc 19       		.byte	0x19
 8995 19bd 6F01     		.2byte	0x16f
 8996 19bf F9000000 		.4byte	0xf9
 8997 19c3 0C       		.byte	0xc
 8998 19c4 09       		.uleb128 0x9
 8999 19c5 63723200 		.ascii	"cr2\000"
 9000 19c9 19       		.byte	0x19
 9001 19ca 7601     		.2byte	0x176
 9002 19cc F9000000 		.4byte	0xf9
 9003 19d0 10       		.byte	0x10
 9004 19d1 0A       		.uleb128 0xa
 9005 19d2 9C1A0000 		.4byte	.LASF355
 9006 19d6 19       		.byte	0x19
 9007 19d7 7C01     		.2byte	0x17c
 9008 19d9 F9000000 		.4byte	0xf9
 9009 19dd 14       		.byte	0x14
 9010 19de 0A       		.uleb128 0xa
 9011 19df A21A0000 		.4byte	.LASF356
 9012 19e3 19       		.byte	0x19
 9013 19e4 8201     		.2byte	0x182
 9014 19e6 F9000000 		.4byte	0xf9
 9015 19ea 18       		.byte	0x18
 9016 19eb 0A       		.uleb128 0xa
 9017 19ec D3010000 		.4byte	.LASF357
 9018 19f0 19       		.byte	0x19
 9019 19f1 8701     		.2byte	0x187
 9020 19f3 F9000000 		.4byte	0xf9
 9021 19f7 1C       		.byte	0x1c
 9022 19f8 0A       		.uleb128 0xa
 9023 19f9 23290000 		.4byte	.LASF358
 9024 19fd 19       		.byte	0x19
 9025 19fe 8C01     		.2byte	0x18c
ARM GAS  C:\Users\mathi\AppData\Local\Temp\ccXNOisu.s 			page 165


 9026 1a00 F9000000 		.4byte	0xf9
 9027 1a04 20       		.byte	0x20
 9028 1a05 0A       		.uleb128 0xa
 9029 1a06 28290000 		.4byte	.LASF359
 9030 1a0a 19       		.byte	0x19
 9031 1a0b 9101     		.2byte	0x191
 9032 1a0d F9000000 		.4byte	0xf9
 9033 1a11 24       		.byte	0x24
 9034 1a12 00       		.byte	0
 9035 1a13 1A       		.uleb128 0x1a
 9036 1a14 C8070000 		.4byte	.LASF360
 9037 1a18 19       		.byte	0x19
 9038 1a19 9201     		.2byte	0x192
 9039 1a1b 7A190000 		.4byte	0x197a
 9040 1a1f 05       		.uleb128 0x5
 9041 1a20 131A0000 		.4byte	0x1a13
 9042 1a24 19       		.uleb128 0x19
 9043 1a25 04       		.byte	0x4
 9044 1a26 19       		.byte	0x19
 9045 1a27 9801     		.2byte	0x198
 9046 1a29 3B1A0000 		.4byte	0x1a3b
 9047 1a2d 0A       		.uleb128 0xa
 9048 1a2e 5A290000 		.4byte	.LASF361
 9049 1a32 19       		.byte	0x19
 9050 1a33 9901     		.2byte	0x199
 9051 1a35 F9000000 		.4byte	0xf9
 9052 1a39 00       		.byte	0
 9053 1a3a 00       		.byte	0
 9054 1a3b 1A       		.uleb128 0x1a
 9055 1a3c 30120000 		.4byte	.LASF362
 9056 1a40 19       		.byte	0x19
 9057 1a41 9A01     		.2byte	0x19a
 9058 1a43 241A0000 		.4byte	0x1a24
 9059 1a47 05       		.uleb128 0x5
 9060 1a48 3B1A0000 		.4byte	0x1a3b
 9061 1a4c 0B       		.uleb128 0xb
 9062 1a4d 04       		.byte	0x4
 9063 1a4e 471A0000 		.4byte	0x1a47
 9064 1a52 0B       		.uleb128 0xb
 9065 1a53 04       		.byte	0x4
 9066 1a54 1F1A0000 		.4byte	0x1a1f
 9067 1a58 0B       		.uleb128 0xb
 9068 1a59 04       		.byte	0x4
 9069 1a5a 6D060000 		.4byte	0x66d
 9070 1a5e 0B       		.uleb128 0xb
 9071 1a5f 04       		.byte	0x4
 9072 1a60 73140000 		.4byte	0x1473
 9073 1a64 15       		.uleb128 0x15
 9074 1a65 611B0000 		.4byte	.LASF363
 9075 1a69 19       		.byte	0x19
 9076 1a6a 1402     		.2byte	0x214
 9077 1a6c 89180000 		.4byte	0x1889
 9078 1a70 15       		.uleb128 0x15
 9079 1a71 671B0000 		.4byte	.LASF364
 9080 1a75 19       		.byte	0x19
 9081 1a76 1802     		.2byte	0x218
 9082 1a78 89180000 		.4byte	0x1889
ARM GAS  C:\Users\mathi\AppData\Local\Temp\ccXNOisu.s 			page 166


 9083 1a7c 15       		.uleb128 0x15
 9084 1a7d 6D1B0000 		.4byte	.LASF365
 9085 1a81 19       		.byte	0x19
 9086 1a82 1C02     		.2byte	0x21c
 9087 1a84 89180000 		.4byte	0x1889
 9088 1a88 21       		.uleb128 0x21
 9089 1a89 07       		.byte	0x7
 9090 1a8a 01       		.byte	0x1
 9091 1a8b 42000000 		.4byte	0x42
 9092 1a8f 1A       		.byte	0x1a
 9093 1a90 5F       		.byte	0x5f
 9094 1a91 B41A0000 		.4byte	0x1ab4
 9095 1a95 22       		.uleb128 0x22
 9096 1a96 840C0000 		.4byte	.LASF366
 9097 1a9a 00       		.byte	0
 9098 1a9b 22       		.uleb128 0x22
 9099 1a9c 1E010000 		.4byte	.LASF367
 9100 1aa0 01       		.byte	0x1
 9101 1aa1 22       		.uleb128 0x22
 9102 1aa2 67000000 		.4byte	.LASF368
 9103 1aa6 02       		.byte	0x2
 9104 1aa7 22       		.uleb128 0x22
 9105 1aa8 FE070000 		.4byte	.LASF369
 9106 1aac 03       		.byte	0x3
 9107 1aad 22       		.uleb128 0x22
 9108 1aae 710C0000 		.4byte	.LASF370
 9109 1ab2 04       		.byte	0x4
 9110 1ab3 00       		.byte	0
 9111 1ab4 02       		.uleb128 0x2
 9112 1ab5 2D080000 		.4byte	.LASF371
 9113 1ab9 1A       		.byte	0x1a
 9114 1aba 65       		.byte	0x65
 9115 1abb 881A0000 		.4byte	0x1a88
 9116 1abf 13       		.uleb128 0x13
 9117 1ac0 C3000000 		.4byte	0xc3
 9118 1ac4 CF1A0000 		.4byte	0x1acf
 9119 1ac8 14       		.uleb128 0x14
 9120 1ac9 B1000000 		.4byte	0xb1
 9121 1acd 07       		.byte	0x7
 9122 1ace 00       		.byte	0
 9123 1acf 17       		.uleb128 0x17
 9124 1ad0 08       		.byte	0x8
 9125 1ad1 1B       		.byte	0x1b
 9126 1ad2 F4       		.byte	0xf4
 9127 1ad3 F11A0000 		.4byte	0x1af1
 9128 1ad7 18       		.uleb128 0x18
 9129 1ad8 6D637200 		.ascii	"mcr\000"
 9130 1adc 1B       		.byte	0x1b
 9131 1add FA       		.byte	0xfa
 9132 1ade F9000000 		.4byte	0xf9
 9133 1ae2 00       		.byte	0
 9134 1ae3 09       		.uleb128 0x9
 9135 1ae4 62747200 		.ascii	"btr\000"
 9136 1ae8 1B       		.byte	0x1b
 9137 1ae9 0001     		.2byte	0x100
 9138 1aeb F9000000 		.4byte	0xf9
 9139 1aef 04       		.byte	0x4
ARM GAS  C:\Users\mathi\AppData\Local\Temp\ccXNOisu.s 			page 167


 9140 1af0 00       		.byte	0
 9141 1af1 1A       		.uleb128 0x1a
 9142 1af2 591D0000 		.4byte	.LASF372
 9143 1af6 1B       		.byte	0x1b
 9144 1af7 0101     		.2byte	0x101
 9145 1af9 CF1A0000 		.4byte	0x1acf
 9146 1afd 05       		.uleb128 0x5
 9147 1afe F11A0000 		.4byte	0x1af1
 9148 1b02 19       		.uleb128 0x19
 9149 1b03 30       		.byte	0x30
 9150 1b04 1B       		.byte	0x1b
 9151 1b05 0601     		.2byte	0x106
 9152 1b07 8E1B0000 		.4byte	0x1b8e
 9153 1b0b 0A       		.uleb128 0xa
 9154 1b0c 62190000 		.4byte	.LASF340
 9155 1b10 1B       		.byte	0x1b
 9156 1b11 0A01     		.2byte	0x10a
 9157 1b13 B41A0000 		.4byte	0x1ab4
 9158 1b17 00       		.byte	0
 9159 1b18 0A       		.uleb128 0xa
 9160 1b19 2C200000 		.4byte	.LASF341
 9161 1b1d 1B       		.byte	0x1b
 9162 1b1e 0E01     		.2byte	0x10e
 9163 1b20 8E1B0000 		.4byte	0x1b8e
 9164 1b24 04       		.byte	0x4
 9165 1b25 0A       		.uleb128 0xa
 9166 1b26 E80B0000 		.4byte	.LASF373
 9167 1b2a 1B       		.byte	0x1b
 9168 1b2b 1201     		.2byte	0x112
 9169 1b2d 1D030000 		.4byte	0x31d
 9170 1b31 08       		.byte	0x8
 9171 1b32 0A       		.uleb128 0xa
 9172 1b33 96230000 		.4byte	.LASF374
 9173 1b37 1B       		.byte	0x1b
 9174 1b38 1601     		.2byte	0x116
 9175 1b3a 1D030000 		.4byte	0x31d
 9176 1b3e 10       		.byte	0x10
 9177 1b3f 0A       		.uleb128 0xa
 9178 1b40 1E1D0000 		.4byte	.LASF375
 9179 1b44 1B       		.byte	0x1b
 9180 1b45 2301     		.2byte	0x123
 9181 1b47 E3120000 		.4byte	0x12e3
 9182 1b4b 18       		.byte	0x18
 9183 1b4c 0A       		.uleb128 0xa
 9184 1b4d 540E0000 		.4byte	.LASF376
 9185 1b51 1B       		.byte	0x1b
 9186 1b52 2A01     		.2byte	0x12a
 9187 1b54 E3120000 		.4byte	0x12e3
 9188 1b58 1C       		.byte	0x1c
 9189 1b59 0A       		.uleb128 0xa
 9190 1b5a 32130000 		.4byte	.LASF377
 9191 1b5e 1B       		.byte	0x1b
 9192 1b5f 3001     		.2byte	0x130
 9193 1b61 E3120000 		.4byte	0x12e3
 9194 1b65 20       		.byte	0x20
 9195 1b66 0A       		.uleb128 0xa
 9196 1b67 A0050000 		.4byte	.LASF378
ARM GAS  C:\Users\mathi\AppData\Local\Temp\ccXNOisu.s 			page 168


 9197 1b6b 1B       		.byte	0x1b
 9198 1b6c 3501     		.2byte	0x135
 9199 1b6e E3120000 		.4byte	0x12e3
 9200 1b72 24       		.byte	0x24
 9201 1b73 0A       		.uleb128 0xa
 9202 1b74 940B0000 		.4byte	.LASF379
 9203 1b78 1B       		.byte	0x1b
 9204 1b79 3901     		.2byte	0x139
 9205 1b7b E3120000 		.4byte	0x12e3
 9206 1b7f 28       		.byte	0x28
 9207 1b80 09       		.uleb128 0x9
 9208 1b81 63616E00 		.ascii	"can\000"
 9209 1b85 1B       		.byte	0x1b
 9210 1b86 3F01     		.2byte	0x13f
 9211 1b88 941B0000 		.4byte	0x1b94
 9212 1b8c 2C       		.byte	0x2c
 9213 1b8d 00       		.byte	0
 9214 1b8e 0B       		.uleb128 0xb
 9215 1b8f 04       		.byte	0x4
 9216 1b90 FD1A0000 		.4byte	0x1afd
 9217 1b94 0B       		.uleb128 0xb
 9218 1b95 04       		.byte	0x4
 9219 1b96 B6080000 		.4byte	0x8b6
 9220 1b9a 1A       		.uleb128 0x1a
 9221 1b9b 06060000 		.4byte	.LASF380
 9222 1b9f 1B       		.byte	0x1b
 9223 1ba0 4001     		.2byte	0x140
 9224 1ba2 021B0000 		.4byte	0x1b02
 9225 1ba6 15       		.uleb128 0x15
 9226 1ba7 3E250000 		.4byte	.LASF381
 9227 1bab 1B       		.byte	0x1b
 9228 1bac 4B01     		.2byte	0x14b
 9229 1bae 9A1B0000 		.4byte	0x1b9a
 9230 1bb2 21       		.uleb128 0x21
 9231 1bb3 07       		.byte	0x7
 9232 1bb4 01       		.byte	0x1
 9233 1bb5 42000000 		.4byte	0x42
 9234 1bb9 1C       		.byte	0x1c
 9235 1bba 46       		.byte	0x46
 9236 1bbb E41B0000 		.4byte	0x1be4
 9237 1bbf 22       		.uleb128 0x22
 9238 1bc0 8C200000 		.4byte	.LASF382
 9239 1bc4 00       		.byte	0
 9240 1bc5 22       		.uleb128 0x22
 9241 1bc6 75260000 		.4byte	.LASF383
 9242 1bca 01       		.byte	0x1
 9243 1bcb 22       		.uleb128 0x22
 9244 1bcc A1110000 		.4byte	.LASF384
 9245 1bd0 02       		.byte	0x2
 9246 1bd1 22       		.uleb128 0x22
 9247 1bd2 50190000 		.4byte	.LASF385
 9248 1bd6 03       		.byte	0x3
 9249 1bd7 22       		.uleb128 0x22
 9250 1bd8 FB1F0000 		.4byte	.LASF386
 9251 1bdc 04       		.byte	0x4
 9252 1bdd 22       		.uleb128 0x22
 9253 1bde 79120000 		.4byte	.LASF387
ARM GAS  C:\Users\mathi\AppData\Local\Temp\ccXNOisu.s 			page 169


 9254 1be2 05       		.byte	0x5
 9255 1be3 00       		.byte	0
 9256 1be4 02       		.uleb128 0x2
 9257 1be5 CA1C0000 		.4byte	.LASF388
 9258 1be9 1C       		.byte	0x1c
 9259 1bea 4D       		.byte	0x4d
 9260 1beb B21B0000 		.4byte	0x1bb2
 9261 1bef 17       		.uleb128 0x17
 9262 1bf0 1C       		.byte	0x1c
 9263 1bf1 1D       		.byte	0x1d
 9264 1bf2 F9       		.byte	0xf9
 9265 1bf3 521C0000 		.4byte	0x1c52
 9266 1bf7 18       		.uleb128 0x18
 9267 1bf8 64616300 		.ascii	"dac\000"
 9268 1bfc 1D       		.byte	0x1d
 9269 1bfd FD       		.byte	0xfd
 9270 1bfe 521C0000 		.4byte	0x1c52
 9271 1c02 00       		.byte	0
 9272 1c03 0A       		.uleb128 0xa
 9273 1c04 0A1C0000 		.4byte	.LASF389
 9274 1c08 1D       		.byte	0x1d
 9275 1c09 0101     		.2byte	0x101
 9276 1c0b F9000000 		.4byte	0xf9
 9277 1c0f 04       		.byte	0x4
 9278 1c10 0A       		.uleb128 0xa
 9279 1c11 3F090000 		.4byte	.LASF390
 9280 1c15 1D       		.byte	0x1d
 9281 1c16 0501     		.2byte	0x105
 9282 1c18 F9000000 		.4byte	0xf9
 9283 1c1c 08       		.byte	0x8
 9284 1c1d 0A       		.uleb128 0xa
 9285 1c1e D0030000 		.4byte	.LASF391
 9286 1c22 1D       		.byte	0x1d
 9287 1c23 0901     		.2byte	0x109
 9288 1c25 F9000000 		.4byte	0xf9
 9289 1c29 0C       		.byte	0xc
 9290 1c2a 09       		.uleb128 0x9
 9291 1c2b 646D6100 		.ascii	"dma\000"
 9292 1c2f 1D       		.byte	0x1d
 9293 1c30 0D01     		.2byte	0x10d
 9294 1c32 5E1A0000 		.4byte	0x1a5e
 9295 1c36 10       		.byte	0x10
 9296 1c37 0A       		.uleb128 0xa
 9297 1c38 781B0000 		.4byte	.LASF348
 9298 1c3c 1D       		.byte	0x1d
 9299 1c3d 1101     		.2byte	0x111
 9300 1c3f F9000000 		.4byte	0xf9
 9301 1c43 14       		.byte	0x14
 9302 1c44 0A       		.uleb128 0xa
 9303 1c45 1C1B0000 		.4byte	.LASF392
 9304 1c49 1D       		.byte	0x1d
 9305 1c4a 1501     		.2byte	0x115
 9306 1c4c F9000000 		.4byte	0xf9
 9307 1c50 18       		.byte	0x18
 9308 1c51 00       		.byte	0
 9309 1c52 0B       		.uleb128 0xb
 9310 1c53 04       		.byte	0x4
ARM GAS  C:\Users\mathi\AppData\Local\Temp\ccXNOisu.s 			page 170


 9311 1c54 80090000 		.4byte	0x980
 9312 1c58 1A       		.uleb128 0x1a
 9313 1c59 38050000 		.4byte	.LASF393
 9314 1c5d 1D       		.byte	0x1d
 9315 1c5e 1601     		.2byte	0x116
 9316 1c60 EF1B0000 		.4byte	0x1bef
 9317 1c64 05       		.uleb128 0x5
 9318 1c65 581C0000 		.4byte	0x1c58
 9319 1c69 1A       		.uleb128 0x1a
 9320 1c6a 720F0000 		.4byte	.LASF394
 9321 1c6e 1D       		.byte	0x1d
 9322 1c6f 1B01     		.2byte	0x11b
 9323 1c71 751C0000 		.4byte	0x1c75
 9324 1c75 0C       		.uleb128 0xc
 9325 1c76 720F0000 		.4byte	.LASF394
 9326 1c7a 30       		.byte	0x30
 9327 1c7b 1D       		.byte	0x1d
 9328 1c7c 7B01     		.2byte	0x17b
 9329 1c7e EB1C0000 		.4byte	0x1ceb
 9330 1c82 0A       		.uleb128 0xa
 9331 1c83 62190000 		.4byte	.LASF340
 9332 1c87 1D       		.byte	0x1d
 9333 1c88 7F01     		.2byte	0x17f
 9334 1c8a E41B0000 		.4byte	0x1be4
 9335 1c8e 00       		.byte	0
 9336 1c8f 0A       		.uleb128 0xa
 9337 1c90 D5230000 		.4byte	.LASF344
 9338 1c94 1D       		.byte	0x1d
 9339 1c95 8301     		.2byte	0x183
 9340 1c97 291E0000 		.4byte	0x1e29
 9341 1c9b 04       		.byte	0x4
 9342 1c9c 0A       		.uleb128 0xa
 9343 1c9d A8030000 		.4byte	.LASF342
 9344 1ca1 1D       		.byte	0x1d
 9345 1ca2 8701     		.2byte	0x187
 9346 1ca4 501D0000 		.4byte	0x1d50
 9347 1ca8 08       		.byte	0x8
 9348 1ca9 0A       		.uleb128 0xa
 9349 1caa 661C0000 		.4byte	.LASF343
 9350 1cae 1D       		.byte	0x1d
 9351 1caf 8B01     		.2byte	0x18b
 9352 1cb1 DE000000 		.4byte	0xde
 9353 1cb5 0C       		.byte	0xc
 9354 1cb6 0A       		.uleb128 0xa
 9355 1cb7 2C200000 		.4byte	.LASF341
 9356 1cbb 1D       		.byte	0x1d
 9357 1cbc 8F01     		.2byte	0x18f
 9358 1cbe 2F1E0000 		.4byte	0x1e2f
 9359 1cc2 10       		.byte	0x10
 9360 1cc3 0A       		.uleb128 0xa
 9361 1cc4 38090000 		.4byte	.LASF345
 9362 1cc8 1D       		.byte	0x1d
 9363 1cc9 9401     		.2byte	0x194
 9364 1ccb E8020000 		.4byte	0x2e8
 9365 1ccf 14       		.byte	0x14
 9366 1cd0 0A       		.uleb128 0xa
 9367 1cd1 670F0000 		.4byte	.LASF346
ARM GAS  C:\Users\mathi\AppData\Local\Temp\ccXNOisu.s 			page 171


 9368 1cd5 1D       		.byte	0x1d
 9369 1cd6 9A01     		.2byte	0x19a
 9370 1cd8 5F120000 		.4byte	0x125f
 9371 1cdc 18       		.byte	0x18
 9372 1cdd 0A       		.uleb128 0xa
 9373 1cde BD130000 		.4byte	.LASF395
 9374 1ce2 1D       		.byte	0x1d
 9375 1ce3 A301     		.2byte	0x1a3
 9376 1ce5 351E0000 		.4byte	0x1e35
 9377 1ce9 2C       		.byte	0x2c
 9378 1cea 00       		.byte	0
 9379 1ceb 1A       		.uleb128 0x1a
 9380 1cec F01C0000 		.4byte	.LASF396
 9381 1cf0 1D       		.byte	0x1d
 9382 1cf1 2001     		.2byte	0x120
 9383 1cf3 DE000000 		.4byte	0xde
 9384 1cf7 05       		.uleb128 0x5
 9385 1cf8 EB1C0000 		.4byte	0x1ceb
 9386 1cfc 24       		.uleb128 0x24
 9387 1cfd 07       		.byte	0x7
 9388 1cfe 01       		.byte	0x1
 9389 1cff 42000000 		.4byte	0x42
 9390 1d03 1D       		.byte	0x1d
 9391 1d04 2701     		.2byte	0x127
 9392 1d06 171D0000 		.4byte	0x1d17
 9393 1d0a 22       		.uleb128 0x22
 9394 1d0b DA1D0000 		.4byte	.LASF397
 9395 1d0f 00       		.byte	0
 9396 1d10 22       		.uleb128 0x22
 9397 1d11 820B0000 		.4byte	.LASF398
 9398 1d15 01       		.byte	0x1
 9399 1d16 00       		.byte	0
 9400 1d17 1A       		.uleb128 0x1a
 9401 1d18 3C140000 		.4byte	.LASF399
 9402 1d1c 1D       		.byte	0x1d
 9403 1d1d 2A01     		.2byte	0x12a
 9404 1d1f FC1C0000 		.4byte	0x1cfc
 9405 1d23 1A       		.uleb128 0x1a
 9406 1d24 C5090000 		.4byte	.LASF400
 9407 1d28 1D       		.byte	0x1d
 9408 1d29 3401     		.2byte	0x134
 9409 1d2b 2F1D0000 		.4byte	0x1d2f
 9410 1d2f 0B       		.uleb128 0xb
 9411 1d30 04       		.byte	0x4
 9412 1d31 351D0000 		.4byte	0x1d35
 9413 1d35 0D       		.uleb128 0xd
 9414 1d36 4A1D0000 		.4byte	0x1d4a
 9415 1d3a 0E       		.uleb128 0xe
 9416 1d3b 4A1D0000 		.4byte	0x1d4a
 9417 1d3f 0E       		.uleb128 0xe
 9418 1d40 501D0000 		.4byte	0x1d50
 9419 1d44 0E       		.uleb128 0xe
 9420 1d45 19010000 		.4byte	0x119
 9421 1d49 00       		.byte	0
 9422 1d4a 0B       		.uleb128 0xb
 9423 1d4b 04       		.byte	0x4
 9424 1d4c 691C0000 		.4byte	0x1c69
ARM GAS  C:\Users\mathi\AppData\Local\Temp\ccXNOisu.s 			page 172


 9425 1d50 0B       		.uleb128 0xb
 9426 1d51 04       		.byte	0x4
 9427 1d52 F71C0000 		.4byte	0x1cf7
 9428 1d56 1A       		.uleb128 0x1a
 9429 1d57 8B250000 		.4byte	.LASF401
 9430 1d5b 1D       		.byte	0x1d
 9431 1d5c 3F01     		.2byte	0x13f
 9432 1d5e 621D0000 		.4byte	0x1d62
 9433 1d62 0B       		.uleb128 0xb
 9434 1d63 04       		.byte	0x4
 9435 1d64 681D0000 		.4byte	0x1d68
 9436 1d68 0D       		.uleb128 0xd
 9437 1d69 781D0000 		.4byte	0x1d78
 9438 1d6d 0E       		.uleb128 0xe
 9439 1d6e 4A1D0000 		.4byte	0x1d4a
 9440 1d72 0E       		.uleb128 0xe
 9441 1d73 171D0000 		.4byte	0x1d17
 9442 1d77 00       		.byte	0
 9443 1d78 24       		.uleb128 0x24
 9444 1d79 07       		.byte	0x7
 9445 1d7a 01       		.byte	0x1
 9446 1d7b 42000000 		.4byte	0x42
 9447 1d7f 1D       		.byte	0x1d
 9448 1d80 4401     		.2byte	0x144
 9449 1d82 991D0000 		.4byte	0x1d99
 9450 1d86 22       		.uleb128 0x22
 9451 1d87 E6200000 		.4byte	.LASF402
 9452 1d8b 00       		.byte	0
 9453 1d8c 22       		.uleb128 0x22
 9454 1d8d E2150000 		.4byte	.LASF403
 9455 1d91 01       		.byte	0x1
 9456 1d92 22       		.uleb128 0x22
 9457 1d93 231A0000 		.4byte	.LASF404
 9458 1d97 02       		.byte	0x2
 9459 1d98 00       		.byte	0
 9460 1d99 1A       		.uleb128 0x1a
 9461 1d9a 100D0000 		.4byte	.LASF405
 9462 1d9e 1D       		.byte	0x1d
 9463 1d9f 4D01     		.2byte	0x14d
 9464 1da1 781D0000 		.4byte	0x1d78
 9465 1da5 19       		.uleb128 0x19
 9466 1da6 10       		.byte	0x10
 9467 1da7 1D       		.byte	0x1d
 9468 1da8 5201     		.2byte	0x152
 9469 1daa E31D0000 		.4byte	0x1de3
 9470 1dae 0A       		.uleb128 0xa
 9471 1daf 3E130000 		.4byte	.LASF352
 9472 1db3 1D       		.byte	0x1d
 9473 1db4 5601     		.2byte	0x156
 9474 1db6 F9000000 		.4byte	0xf9
 9475 1dba 00       		.byte	0
 9476 1dbb 0A       		.uleb128 0xa
 9477 1dbc B30B0000 		.4byte	.LASF353
 9478 1dc0 1D       		.byte	0x1d
 9479 1dc1 5A01     		.2byte	0x15a
 9480 1dc3 231D0000 		.4byte	0x1d23
 9481 1dc7 04       		.byte	0x4
ARM GAS  C:\Users\mathi\AppData\Local\Temp\ccXNOisu.s 			page 173


 9482 1dc8 0A       		.uleb128 0xa
 9483 1dc9 1F280000 		.4byte	.LASF354
 9484 1dcd 1D       		.byte	0x1d
 9485 1dce 5E01     		.2byte	0x15e
 9486 1dd0 561D0000 		.4byte	0x1d56
 9487 1dd4 08       		.byte	0x8
 9488 1dd5 0A       		.uleb128 0xa
 9489 1dd6 CF170000 		.4byte	.LASF406
 9490 1dda 1D       		.byte	0x1d
 9491 1ddb 6601     		.2byte	0x166
 9492 1ddd F9000000 		.4byte	0xf9
 9493 1de1 0C       		.byte	0xc
 9494 1de2 00       		.byte	0
 9495 1de3 1A       		.uleb128 0x1a
 9496 1de4 F9140000 		.4byte	.LASF407
 9497 1de8 1D       		.byte	0x1d
 9498 1de9 6701     		.2byte	0x167
 9499 1deb A51D0000 		.4byte	0x1da5
 9500 1def 05       		.uleb128 0x5
 9501 1df0 E31D0000 		.4byte	0x1de3
 9502 1df4 19       		.uleb128 0x19
 9503 1df5 04       		.byte	0x4
 9504 1df6 1D       		.byte	0x1d
 9505 1df7 6C01     		.2byte	0x16c
 9506 1df9 181E0000 		.4byte	0x1e18
 9507 1dfd 0A       		.uleb128 0xa
 9508 1dfe 620D0000 		.4byte	.LASF408
 9509 1e02 1D       		.byte	0x1d
 9510 1e03 7101     		.2byte	0x171
 9511 1e05 EB1C0000 		.4byte	0x1ceb
 9512 1e09 00       		.byte	0
 9513 1e0a 0A       		.uleb128 0xa
 9514 1e0b 65010000 		.4byte	.LASF409
 9515 1e0f 1D       		.byte	0x1d
 9516 1e10 7501     		.2byte	0x175
 9517 1e12 991D0000 		.4byte	0x1d99
 9518 1e16 02       		.byte	0x2
 9519 1e17 00       		.byte	0
 9520 1e18 1A       		.uleb128 0x1a
 9521 1e19 7C0F0000 		.4byte	.LASF410
 9522 1e1d 1D       		.byte	0x1d
 9523 1e1e 7601     		.2byte	0x176
 9524 1e20 F41D0000 		.4byte	0x1df4
 9525 1e24 05       		.uleb128 0x5
 9526 1e25 181E0000 		.4byte	0x1e18
 9527 1e29 0B       		.uleb128 0xb
 9528 1e2a 04       		.byte	0x4
 9529 1e2b EF1D0000 		.4byte	0x1def
 9530 1e2f 0B       		.uleb128 0xb
 9531 1e30 04       		.byte	0x4
 9532 1e31 241E0000 		.4byte	0x1e24
 9533 1e35 0B       		.uleb128 0xb
 9534 1e36 04       		.byte	0x4
 9535 1e37 641C0000 		.4byte	0x1c64
 9536 1e3b 15       		.uleb128 0x15
 9537 1e3c 00060000 		.4byte	.LASF411
 9538 1e40 1D       		.byte	0x1d
ARM GAS  C:\Users\mathi\AppData\Local\Temp\ccXNOisu.s 			page 174


 9539 1e41 B301     		.2byte	0x1b3
 9540 1e43 691C0000 		.4byte	0x1c69
 9541 1e47 21       		.uleb128 0x21
 9542 1e48 07       		.byte	0x7
 9543 1e49 01       		.byte	0x1
 9544 1e4a 42000000 		.4byte	0x42
 9545 1e4e 1E       		.byte	0x1e
 9546 1e4f 3F       		.byte	0x3f
 9547 1e50 671E0000 		.4byte	0x1e67
 9548 1e54 22       		.uleb128 0x22
 9549 1e55 660C0000 		.4byte	.LASF412
 9550 1e59 00       		.byte	0
 9551 1e5a 22       		.uleb128 0x22
 9552 1e5b 382A0000 		.4byte	.LASF413
 9553 1e5f 01       		.byte	0x1
 9554 1e60 22       		.uleb128 0x22
 9555 1e61 01040000 		.4byte	.LASF414
 9556 1e65 02       		.byte	0x2
 9557 1e66 00       		.byte	0
 9558 1e67 02       		.uleb128 0x2
 9559 1e68 8B1F0000 		.4byte	.LASF415
 9560 1e6c 1E       		.byte	0x1e
 9561 1e6d 43       		.byte	0x43
 9562 1e6e 471E0000 		.4byte	0x1e47
 9563 1e72 02       		.uleb128 0x2
 9564 1e73 F70A0000 		.4byte	.LASF416
 9565 1e77 1E       		.byte	0x1e
 9566 1e78 48       		.byte	0x48
 9567 1e79 7D1E0000 		.4byte	0x1e7d
 9568 1e7d 07       		.uleb128 0x7
 9569 1e7e F70A0000 		.4byte	.LASF416
 9570 1e82 08       		.byte	0x8
 9571 1e83 1F       		.byte	0x1f
 9572 1e84 71       		.byte	0x71
 9573 1e85 A21E0000 		.4byte	0x1ea2
 9574 1e89 08       		.uleb128 0x8
 9575 1e8a 62190000 		.4byte	.LASF340
 9576 1e8e 1F       		.byte	0x1f
 9577 1e8f 75       		.byte	0x75
 9578 1e90 671E0000 		.4byte	0x1e67
 9579 1e94 00       		.byte	0
 9580 1e95 08       		.uleb128 0x8
 9581 1e96 2C200000 		.4byte	.LASF341
 9582 1e9a 1F       		.byte	0x1f
 9583 1e9b 79       		.byte	0x79
 9584 1e9c 341F0000 		.4byte	0x1f34
 9585 1ea0 04       		.byte	0x4
 9586 1ea1 00       		.byte	0
 9587 1ea2 02       		.uleb128 0x2
 9588 1ea3 68280000 		.4byte	.LASF417
 9589 1ea7 1F       		.byte	0x1f
 9590 1ea8 47       		.byte	0x47
 9591 1ea9 F9000000 		.4byte	0xf9
 9592 1ead 02       		.uleb128 0x2
 9593 1eae 88230000 		.4byte	.LASF418
 9594 1eb2 1F       		.byte	0x1f
 9595 1eb3 4F       		.byte	0x4f
ARM GAS  C:\Users\mathi\AppData\Local\Temp\ccXNOisu.s 			page 175


 9596 1eb4 B81E0000 		.4byte	0x1eb8
 9597 1eb8 0B       		.uleb128 0xb
 9598 1eb9 04       		.byte	0x4
 9599 1eba BE1E0000 		.4byte	0x1ebe
 9600 1ebe 0D       		.uleb128 0xd
 9601 1ebf CE1E0000 		.4byte	0x1ece
 9602 1ec3 0E       		.uleb128 0xe
 9603 1ec4 CE1E0000 		.4byte	0x1ece
 9604 1ec8 0E       		.uleb128 0xe
 9605 1ec9 A21E0000 		.4byte	0x1ea2
 9606 1ecd 00       		.byte	0
 9607 1ece 0B       		.uleb128 0xb
 9608 1ecf 04       		.byte	0x4
 9609 1ed0 721E0000 		.4byte	0x1e72
 9610 1ed4 17       		.uleb128 0x17
 9611 1ed5 08       		.byte	0x8
 9612 1ed6 1F       		.byte	0x1f
 9613 1ed7 54       		.byte	0x54
 9614 1ed8 F41E0000 		.4byte	0x1ef4
 9615 1edc 08       		.uleb128 0x8
 9616 1edd DC0A0000 		.4byte	.LASF419
 9617 1ee1 1F       		.byte	0x1f
 9618 1ee2 58       		.byte	0x58
 9619 1ee3 F9000000 		.4byte	0xf9
 9620 1ee7 00       		.byte	0
 9621 1ee8 18       		.uleb128 0x18
 9622 1ee9 636200   		.ascii	"cb\000"
 9623 1eec 1F       		.byte	0x1f
 9624 1eed 5F       		.byte	0x5f
 9625 1eee AD1E0000 		.4byte	0x1ead
 9626 1ef2 04       		.byte	0x4
 9627 1ef3 00       		.byte	0
 9628 1ef4 02       		.uleb128 0x2
 9629 1ef5 88110000 		.4byte	.LASF420
 9630 1ef9 1F       		.byte	0x1f
 9631 1efa 60       		.byte	0x60
 9632 1efb D41E0000 		.4byte	0x1ed4
 9633 1eff 17       		.uleb128 0x17
 9634 1f00 B8       		.byte	0xb8
 9635 1f01 1F       		.byte	0x1f
 9636 1f02 66       		.byte	0x66
 9637 1f03 141F0000 		.4byte	0x1f14
 9638 1f07 08       		.uleb128 0x8
 9639 1f08 BC250000 		.4byte	.LASF421
 9640 1f0c 1F       		.byte	0x1f
 9641 1f0d 6A       		.byte	0x6a
 9642 1f0e 141F0000 		.4byte	0x1f14
 9643 1f12 00       		.byte	0
 9644 1f13 00       		.byte	0
 9645 1f14 13       		.uleb128 0x13
 9646 1f15 F41E0000 		.4byte	0x1ef4
 9647 1f19 241F0000 		.4byte	0x1f24
 9648 1f1d 14       		.uleb128 0x14
 9649 1f1e B1000000 		.4byte	0xb1
 9650 1f22 16       		.byte	0x16
 9651 1f23 00       		.byte	0
 9652 1f24 02       		.uleb128 0x2
ARM GAS  C:\Users\mathi\AppData\Local\Temp\ccXNOisu.s 			page 176


 9653 1f25 63220000 		.4byte	.LASF422
 9654 1f29 1F       		.byte	0x1f
 9655 1f2a 6C       		.byte	0x6c
 9656 1f2b FF1E0000 		.4byte	0x1eff
 9657 1f2f 05       		.uleb128 0x5
 9658 1f30 241F0000 		.4byte	0x1f24
 9659 1f34 0B       		.uleb128 0xb
 9660 1f35 04       		.byte	0x4
 9661 1f36 2F1F0000 		.4byte	0x1f2f
 9662 1f3a 16       		.uleb128 0x16
 9663 1f3b 1E080000 		.4byte	.LASF423
 9664 1f3f 1F       		.byte	0x1f
 9665 1f40 86       		.byte	0x86
 9666 1f41 721E0000 		.4byte	0x1e72
 9667 1f45 21       		.uleb128 0x21
 9668 1f46 07       		.byte	0x7
 9669 1f47 01       		.byte	0x1
 9670 1f48 42000000 		.4byte	0x42
 9671 1f4c 20       		.byte	0x20
 9672 1f4d 31       		.byte	0x31
 9673 1f4e 711F0000 		.4byte	0x1f71
 9674 1f52 22       		.uleb128 0x22
 9675 1f53 371A0000 		.4byte	.LASF424
 9676 1f57 00       		.byte	0
 9677 1f58 22       		.uleb128 0x22
 9678 1f59 F7170000 		.4byte	.LASF425
 9679 1f5d 01       		.byte	0x1
 9680 1f5e 22       		.uleb128 0x22
 9681 1f5f C01C0000 		.4byte	.LASF426
 9682 1f63 02       		.byte	0x2
 9683 1f64 22       		.uleb128 0x22
 9684 1f65 150A0000 		.4byte	.LASF427
 9685 1f69 03       		.byte	0x3
 9686 1f6a 22       		.uleb128 0x22
 9687 1f6b BA060000 		.4byte	.LASF428
 9688 1f6f 04       		.byte	0x4
 9689 1f70 00       		.byte	0
 9690 1f71 02       		.uleb128 0x2
 9691 1f72 6C160000 		.4byte	.LASF429
 9692 1f76 20       		.byte	0x20
 9693 1f77 37       		.byte	0x37
 9694 1f78 451F0000 		.4byte	0x1f45
 9695 1f7c 02       		.uleb128 0x2
 9696 1f7d 271B0000 		.4byte	.LASF430
 9697 1f81 20       		.byte	0x20
 9698 1f82 3C       		.byte	0x3c
 9699 1f83 871F0000 		.4byte	0x1f87
 9700 1f87 0C       		.uleb128 0xc
 9701 1f88 271B0000 		.4byte	.LASF430
 9702 1f8c 10       		.byte	0x10
 9703 1f8d 21       		.byte	0x21
 9704 1f8e 9701     		.2byte	0x197
 9705 1f90 C91F0000 		.4byte	0x1fc9
 9706 1f94 0A       		.uleb128 0xa
 9707 1f95 62190000 		.4byte	.LASF340
 9708 1f99 21       		.byte	0x21
 9709 1f9a 9B01     		.2byte	0x19b
ARM GAS  C:\Users\mathi\AppData\Local\Temp\ccXNOisu.s 			page 177


 9710 1f9c 711F0000 		.4byte	0x1f71
 9711 1fa0 00       		.byte	0
 9712 1fa1 0A       		.uleb128 0xa
 9713 1fa2 2C200000 		.4byte	.LASF341
 9714 1fa6 21       		.byte	0x21
 9715 1fa7 9F01     		.2byte	0x19f
 9716 1fa9 5E210000 		.4byte	0x215e
 9717 1fad 04       		.byte	0x4
 9718 1fae 0A       		.uleb128 0xa
 9719 1faf 900F0000 		.4byte	.LASF431
 9720 1fb3 21       		.byte	0x21
 9721 1fb4 A701     		.2byte	0x1a7
 9722 1fb6 F9000000 		.4byte	0xf9
 9723 1fba 08       		.byte	0x8
 9724 1fbb 09       		.uleb128 0x9
 9725 1fbc 74696D00 		.ascii	"tim\000"
 9726 1fc0 21       		.byte	0x21
 9727 1fc1 AB01     		.2byte	0x1ab
 9728 1fc3 64210000 		.4byte	0x2164
 9729 1fc7 0C       		.byte	0xc
 9730 1fc8 00       		.byte	0
 9731 1fc9 02       		.uleb128 0x2
 9732 1fca 5E140000 		.4byte	.LASF432
 9733 1fce 20       		.byte	0x20
 9734 1fcf 43       		.byte	0x43
 9735 1fd0 D41F0000 		.4byte	0x1fd4
 9736 1fd4 0B       		.uleb128 0xb
 9737 1fd5 04       		.byte	0x4
 9738 1fd6 DA1F0000 		.4byte	0x1fda
 9739 1fda 0D       		.uleb128 0xd
 9740 1fdb E51F0000 		.4byte	0x1fe5
 9741 1fdf 0E       		.uleb128 0xe
 9742 1fe0 E51F0000 		.4byte	0x1fe5
 9743 1fe4 00       		.byte	0
 9744 1fe5 0B       		.uleb128 0xb
 9745 1fe6 04       		.byte	0x4
 9746 1fe7 7C1F0000 		.4byte	0x1f7c
 9747 1feb 19       		.uleb128 0x19
 9748 1fec 60       		.byte	0x60
 9749 1fed 22       		.byte	0x22
 9750 1fee 9E01     		.2byte	0x19e
 9751 1ff0 F7200000 		.4byte	0x20f7
 9752 1ff4 09       		.uleb128 0x9
 9753 1ff5 43523100 		.ascii	"CR1\000"
 9754 1ff9 22       		.byte	0x22
 9755 1ffa 9F01     		.2byte	0x19f
 9756 1ffc 04010000 		.4byte	0x104
 9757 2000 00       		.byte	0
 9758 2001 09       		.uleb128 0x9
 9759 2002 43523200 		.ascii	"CR2\000"
 9760 2006 22       		.byte	0x22
 9761 2007 A001     		.2byte	0x1a0
 9762 2009 04010000 		.4byte	0x104
 9763 200d 04       		.byte	0x4
 9764 200e 0A       		.uleb128 0xa
 9765 200f D1240000 		.4byte	.LASF433
 9766 2013 22       		.byte	0x22
ARM GAS  C:\Users\mathi\AppData\Local\Temp\ccXNOisu.s 			page 178


 9767 2014 A101     		.2byte	0x1a1
 9768 2016 04010000 		.4byte	0x104
 9769 201a 08       		.byte	0x8
 9770 201b 0A       		.uleb128 0xa
 9771 201c B20C0000 		.4byte	.LASF434
 9772 2020 22       		.byte	0x22
 9773 2021 A201     		.2byte	0x1a2
 9774 2023 04010000 		.4byte	0x104
 9775 2027 0C       		.byte	0xc
 9776 2028 09       		.uleb128 0x9
 9777 2029 535200   		.ascii	"SR\000"
 9778 202c 22       		.byte	0x22
 9779 202d A301     		.2byte	0x1a3
 9780 202f 04010000 		.4byte	0x104
 9781 2033 10       		.byte	0x10
 9782 2034 09       		.uleb128 0x9
 9783 2035 45475200 		.ascii	"EGR\000"
 9784 2039 22       		.byte	0x22
 9785 203a A401     		.2byte	0x1a4
 9786 203c 04010000 		.4byte	0x104
 9787 2040 14       		.byte	0x14
 9788 2041 0A       		.uleb128 0xa
 9789 2042 04290000 		.4byte	.LASF435
 9790 2046 22       		.byte	0x22
 9791 2047 A501     		.2byte	0x1a5
 9792 2049 04010000 		.4byte	0x104
 9793 204d 18       		.byte	0x18
 9794 204e 0A       		.uleb128 0xa
 9795 204f 0A290000 		.4byte	.LASF436
 9796 2053 22       		.byte	0x22
 9797 2054 A601     		.2byte	0x1a6
 9798 2056 04010000 		.4byte	0x104
 9799 205a 1C       		.byte	0x1c
 9800 205b 0A       		.uleb128 0xa
 9801 205c 8E090000 		.4byte	.LASF437
 9802 2060 22       		.byte	0x22
 9803 2061 A701     		.2byte	0x1a7
 9804 2063 04010000 		.4byte	0x104
 9805 2067 20       		.byte	0x20
 9806 2068 09       		.uleb128 0x9
 9807 2069 434E5400 		.ascii	"CNT\000"
 9808 206d 22       		.byte	0x22
 9809 206e A801     		.2byte	0x1a8
 9810 2070 04010000 		.4byte	0x104
 9811 2074 24       		.byte	0x24
 9812 2075 09       		.uleb128 0x9
 9813 2076 50534300 		.ascii	"PSC\000"
 9814 207a 22       		.byte	0x22
 9815 207b A901     		.2byte	0x1a9
 9816 207d 04010000 		.4byte	0x104
 9817 2081 28       		.byte	0x28
 9818 2082 09       		.uleb128 0x9
 9819 2083 41525200 		.ascii	"ARR\000"
 9820 2087 22       		.byte	0x22
 9821 2088 AA01     		.2byte	0x1aa
 9822 208a 04010000 		.4byte	0x104
 9823 208e 2C       		.byte	0x2c
ARM GAS  C:\Users\mathi\AppData\Local\Temp\ccXNOisu.s 			page 179


 9824 208f 09       		.uleb128 0x9
 9825 2090 52435200 		.ascii	"RCR\000"
 9826 2094 22       		.byte	0x22
 9827 2095 AB01     		.2byte	0x1ab
 9828 2097 04010000 		.4byte	0x104
 9829 209b 30       		.byte	0x30
 9830 209c 09       		.uleb128 0x9
 9831 209d 43435200 		.ascii	"CCR\000"
 9832 20a1 22       		.byte	0x22
 9833 20a2 AC01     		.2byte	0x1ac
 9834 20a4 B60A0000 		.4byte	0xab6
 9835 20a8 34       		.byte	0x34
 9836 20a9 0A       		.uleb128 0xa
 9837 20aa CB030000 		.4byte	.LASF438
 9838 20ae 22       		.byte	0x22
 9839 20af AD01     		.2byte	0x1ad
 9840 20b1 04010000 		.4byte	0x104
 9841 20b5 44       		.byte	0x44
 9842 20b6 09       		.uleb128 0x9
 9843 20b7 44435200 		.ascii	"DCR\000"
 9844 20bb 22       		.byte	0x22
 9845 20bc AE01     		.2byte	0x1ae
 9846 20be 04010000 		.4byte	0x104
 9847 20c2 48       		.byte	0x48
 9848 20c3 0A       		.uleb128 0xa
 9849 20c4 DA190000 		.4byte	.LASF439
 9850 20c8 22       		.byte	0x22
 9851 20c9 AF01     		.2byte	0x1af
 9852 20cb 04010000 		.4byte	0x104
 9853 20cf 4C       		.byte	0x4c
 9854 20d0 09       		.uleb128 0x9
 9855 20d1 4F5200   		.ascii	"OR\000"
 9856 20d4 22       		.byte	0x22
 9857 20d5 B001     		.2byte	0x1b0
 9858 20d7 04010000 		.4byte	0x104
 9859 20db 50       		.byte	0x50
 9860 20dc 0A       		.uleb128 0xa
 9861 20dd 10290000 		.4byte	.LASF440
 9862 20e1 22       		.byte	0x22
 9863 20e2 B101     		.2byte	0x1b1
 9864 20e4 04010000 		.4byte	0x104
 9865 20e8 54       		.byte	0x54
 9866 20e9 0A       		.uleb128 0xa
 9867 20ea 9C0F0000 		.4byte	.LASF441
 9868 20ee 22       		.byte	0x22
 9869 20ef B201     		.2byte	0x1b2
 9870 20f1 A10A0000 		.4byte	0xaa1
 9871 20f5 58       		.byte	0x58
 9872 20f6 00       		.byte	0
 9873 20f7 1A       		.uleb128 0x1a
 9874 20f8 0B240000 		.4byte	.LASF442
 9875 20fc 22       		.byte	0x22
 9876 20fd B301     		.2byte	0x1b3
 9877 20ff EB1F0000 		.4byte	0x1feb
 9878 2103 1A       		.uleb128 0x1a
 9879 2104 340B0000 		.4byte	.LASF443
 9880 2108 21       		.byte	0x21
ARM GAS  C:\Users\mathi\AppData\Local\Temp\ccXNOisu.s 			page 180


 9881 2109 6D01     		.2byte	0x16d
 9882 210b F9000000 		.4byte	0xf9
 9883 210f 19       		.uleb128 0x19
 9884 2110 10       		.byte	0x10
 9885 2111 21       		.byte	0x21
 9886 2112 7801     		.2byte	0x178
 9887 2114 4D210000 		.4byte	0x214d
 9888 2118 0A       		.uleb128 0xa
 9889 2119 95280000 		.4byte	.LASF444
 9890 211d 21       		.byte	0x21
 9891 211e 7E01     		.2byte	0x17e
 9892 2120 03210000 		.4byte	0x2103
 9893 2124 00       		.byte	0
 9894 2125 0A       		.uleb128 0xa
 9895 2126 DF190000 		.4byte	.LASF445
 9896 212a 21       		.byte	0x21
 9897 212b 8501     		.2byte	0x185
 9898 212d C91F0000 		.4byte	0x1fc9
 9899 2131 04       		.byte	0x4
 9900 2132 09       		.uleb128 0x9
 9901 2133 63723200 		.ascii	"cr2\000"
 9902 2137 21       		.byte	0x21
 9903 2138 8B01     		.2byte	0x18b
 9904 213a F9000000 		.4byte	0xf9
 9905 213e 08       		.byte	0x8
 9906 213f 0A       		.uleb128 0xa
 9907 2140 FB0E0000 		.4byte	.LASF446
 9908 2144 21       		.byte	0x21
 9909 2145 9101     		.2byte	0x191
 9910 2147 F9000000 		.4byte	0xf9
 9911 214b 0C       		.byte	0xc
 9912 214c 00       		.byte	0
 9913 214d 1A       		.uleb128 0x1a
 9914 214e AD080000 		.4byte	.LASF447
 9915 2152 21       		.byte	0x21
 9916 2153 9201     		.2byte	0x192
 9917 2155 0F210000 		.4byte	0x210f
 9918 2159 05       		.uleb128 0x5
 9919 215a 4D210000 		.4byte	0x214d
 9920 215e 0B       		.uleb128 0xb
 9921 215f 04       		.byte	0x4
 9922 2160 59210000 		.4byte	0x2159
 9923 2164 0B       		.uleb128 0xb
 9924 2165 04       		.byte	0x4
 9925 2166 F7200000 		.4byte	0x20f7
 9926 216a 15       		.uleb128 0x15
 9927 216b 05280000 		.4byte	.LASF448
 9928 216f 21       		.byte	0x21
 9929 2170 F201     		.2byte	0x1f2
 9930 2172 7C1F0000 		.4byte	0x1f7c
 9931 2176 15       		.uleb128 0x15
 9932 2177 33200000 		.4byte	.LASF449
 9933 217b 21       		.byte	0x21
 9934 217c 0202     		.2byte	0x202
 9935 217e 7C1F0000 		.4byte	0x1f7c
 9936 2182 15       		.uleb128 0x15
 9937 2183 3A200000 		.4byte	.LASF450
ARM GAS  C:\Users\mathi\AppData\Local\Temp\ccXNOisu.s 			page 181


 9938 2187 21       		.byte	0x21
 9939 2188 0602     		.2byte	0x206
 9940 218a 7C1F0000 		.4byte	0x1f7c
 9941 218e 21       		.uleb128 0x21
 9942 218f 07       		.byte	0x7
 9943 2190 01       		.byte	0x1
 9944 2191 42000000 		.4byte	0x42
 9945 2195 23       		.byte	0x23
 9946 2196 4C       		.byte	0x4c
 9947 2197 C0210000 		.4byte	0x21c0
 9948 219b 22       		.uleb128 0x22
 9949 219c 85080000 		.4byte	.LASF451
 9950 21a0 00       		.byte	0
 9951 21a1 22       		.uleb128 0x22
 9952 21a2 09110000 		.4byte	.LASF452
 9953 21a6 01       		.byte	0x1
 9954 21a7 22       		.uleb128 0x22
 9955 21a8 F2080000 		.4byte	.LASF453
 9956 21ac 02       		.byte	0x2
 9957 21ad 22       		.uleb128 0x22
 9958 21ae E9060000 		.4byte	.LASF454
 9959 21b2 03       		.byte	0x3
 9960 21b3 22       		.uleb128 0x22
 9961 21b4 74050000 		.4byte	.LASF455
 9962 21b8 04       		.byte	0x4
 9963 21b9 22       		.uleb128 0x22
 9964 21ba 1D160000 		.4byte	.LASF456
 9965 21be 05       		.byte	0x5
 9966 21bf 00       		.byte	0
 9967 21c0 02       		.uleb128 0x2
 9968 21c1 F7130000 		.4byte	.LASF457
 9969 21c5 23       		.byte	0x23
 9970 21c6 53       		.byte	0x53
 9971 21c7 8E210000 		.4byte	0x218e
 9972 21cb 1A       		.uleb128 0x1a
 9973 21cc 36070000 		.4byte	.LASF458
 9974 21d0 24       		.byte	0x24
 9975 21d1 6A01     		.2byte	0x16a
 9976 21d3 DE000000 		.4byte	0xde
 9977 21d7 1A       		.uleb128 0x1a
 9978 21d8 44060000 		.4byte	.LASF459
 9979 21dc 24       		.byte	0x24
 9980 21dd 6F01     		.2byte	0x16f
 9981 21df F9000000 		.4byte	0xf9
 9982 21e3 24       		.uleb128 0x24
 9983 21e4 07       		.byte	0x7
 9984 21e5 01       		.byte	0x1
 9985 21e6 42000000 		.4byte	0x42
 9986 21ea 24       		.byte	0x24
 9987 21eb 7401     		.2byte	0x174
 9988 21ed 04220000 		.4byte	0x2204
 9989 21f1 22       		.uleb128 0x22
 9990 21f2 FC060000 		.4byte	.LASF460
 9991 21f6 01       		.byte	0x1
 9992 21f7 22       		.uleb128 0x22
 9993 21f8 BC000000 		.4byte	.LASF461
 9994 21fc 02       		.byte	0x2
ARM GAS  C:\Users\mathi\AppData\Local\Temp\ccXNOisu.s 			page 182


 9995 21fd 22       		.uleb128 0x22
 9996 21fe 120C0000 		.4byte	.LASF462
 9997 2202 03       		.byte	0x3
 9998 2203 00       		.byte	0
 9999 2204 1A       		.uleb128 0x1a
 10000 2205 68290000 		.4byte	.LASF463
 10001 2209 24       		.byte	0x24
 10002 220a 7801     		.2byte	0x178
 10003 220c E3210000 		.4byte	0x21e3
 10004 2210 24       		.uleb128 0x24
 10005 2211 07       		.byte	0x7
 10006 2212 01       		.byte	0x1
 10007 2213 42000000 		.4byte	0x42
 10008 2217 24       		.byte	0x24
 10009 2218 7D01     		.2byte	0x17d
 10010 221a 31220000 		.4byte	0x2231
 10011 221e 22       		.uleb128 0x22
 10012 221f EF070000 		.4byte	.LASF464
 10013 2223 01       		.byte	0x1
 10014 2224 22       		.uleb128 0x22
 10015 2225 D9280000 		.4byte	.LASF465
 10016 2229 02       		.byte	0x2
 10017 222a 22       		.uleb128 0x22
 10018 222b 290D0000 		.4byte	.LASF466
 10019 222f 03       		.byte	0x3
 10020 2230 00       		.byte	0
 10021 2231 1A       		.uleb128 0x1a
 10022 2232 05090000 		.4byte	.LASF467
 10023 2236 24       		.byte	0x24
 10024 2237 8101     		.2byte	0x181
 10025 2239 10220000 		.4byte	0x2210
 10026 223d 19       		.uleb128 0x19
 10027 223e 0C       		.byte	0xc
 10028 223f 24       		.byte	0x24
 10029 2240 8601     		.2byte	0x186
 10030 2242 6E220000 		.4byte	0x226e
 10031 2246 0A       		.uleb128 0xa
 10032 2247 1F180000 		.4byte	.LASF468
 10033 224b 24       		.byte	0x24
 10034 224c 8801     		.2byte	0x188
 10035 224e 04220000 		.4byte	0x2204
 10036 2252 00       		.byte	0
 10037 2253 0A       		.uleb128 0xa
 10038 2254 EA050000 		.4byte	.LASF469
 10039 2258 24       		.byte	0x24
 10040 2259 8901     		.2byte	0x189
 10041 225b F9000000 		.4byte	0xf9
 10042 225f 04       		.byte	0x4
 10043 2260 0A       		.uleb128 0xa
 10044 2261 FA290000 		.4byte	.LASF470
 10045 2265 24       		.byte	0x24
 10046 2266 8C01     		.2byte	0x18c
 10047 2268 31220000 		.4byte	0x2231
 10048 226c 08       		.byte	0x8
 10049 226d 00       		.byte	0
 10050 226e 1A       		.uleb128 0x1a
 10051 226f E1030000 		.4byte	.LASF471
ARM GAS  C:\Users\mathi\AppData\Local\Temp\ccXNOisu.s 			page 183


 10052 2273 24       		.byte	0x24
 10053 2274 8E01     		.2byte	0x18e
 10054 2276 3D220000 		.4byte	0x223d
 10055 227a 05       		.uleb128 0x5
 10056 227b 6E220000 		.4byte	0x226e
 10057 227f 1A       		.uleb128 0x1a
 10058 2280 DF060000 		.4byte	.LASF472
 10059 2284 24       		.byte	0x24
 10060 2285 9301     		.2byte	0x193
 10061 2287 8B220000 		.4byte	0x228b
 10062 228b 0C       		.uleb128 0xc
 10063 228c DF060000 		.4byte	.LASF472
 10064 2290 3C       		.byte	0x3c
 10065 2291 24       		.byte	0x24
 10066 2292 9801     		.2byte	0x198
 10067 2294 28230000 		.4byte	0x2328
 10068 2298 0A       		.uleb128 0xa
 10069 2299 62190000 		.4byte	.LASF340
 10070 229d 24       		.byte	0x24
 10071 229e 9C01     		.2byte	0x19c
 10072 22a0 C0210000 		.4byte	0x21c0
 10073 22a4 00       		.byte	0
 10074 22a5 0A       		.uleb128 0xa
 10075 22a6 2C200000 		.4byte	.LASF341
 10076 22aa 24       		.byte	0x24
 10077 22ab A001     		.2byte	0x1a0
 10078 22ad 28230000 		.4byte	0x2328
 10079 22b1 04       		.byte	0x4
 10080 22b2 0A       		.uleb128 0xa
 10081 22b3 F7010000 		.4byte	.LASF473
 10082 22b7 24       		.byte	0x24
 10083 22b8 A401     		.2byte	0x1a4
 10084 22ba D7210000 		.4byte	0x21d7
 10085 22be 08       		.byte	0x8
 10086 22bf 0A       		.uleb128 0xa
 10087 22c0 670F0000 		.4byte	.LASF346
 10088 22c4 24       		.byte	0x24
 10089 22c5 A901     		.2byte	0x1a9
 10090 22c7 5F120000 		.4byte	0x125f
 10091 22cb 0C       		.byte	0xc
 10092 22cc 0A       		.uleb128 0xa
 10093 22cd 38090000 		.4byte	.LASF345
 10094 22d1 24       		.byte	0x24
 10095 22d2 B201     		.2byte	0x1b2
 10096 22d4 E8020000 		.4byte	0x2e8
 10097 22d8 20       		.byte	0x20
 10098 22d9 0A       		.uleb128 0xa
 10099 22da 12110000 		.4byte	.LASF474
 10100 22de 24       		.byte	0x24
 10101 22df B601     		.2byte	0x1b6
 10102 22e1 CB210000 		.4byte	0x21cb
 10103 22e5 24       		.byte	0x24
 10104 22e6 0A       		.uleb128 0xa
 10105 22e7 C80A0000 		.4byte	.LASF475
 10106 22eb 24       		.byte	0x24
 10107 22ec BA01     		.2byte	0x1ba
 10108 22ee F9000000 		.4byte	0xf9
ARM GAS  C:\Users\mathi\AppData\Local\Temp\ccXNOisu.s 			page 184


 10109 22f2 28       		.byte	0x28
 10110 22f3 0A       		.uleb128 0xa
 10111 22f4 220B0000 		.4byte	.LASF476
 10112 22f8 24       		.byte	0x24
 10113 22f9 BE01     		.2byte	0x1be
 10114 22fb F9000000 		.4byte	0xf9
 10115 22ff 2C       		.byte	0x2c
 10116 2300 0A       		.uleb128 0xa
 10117 2301 6E010000 		.4byte	.LASF477
 10118 2305 24       		.byte	0x24
 10119 2306 C201     		.2byte	0x1c2
 10120 2308 5E1A0000 		.4byte	0x1a5e
 10121 230c 30       		.byte	0x30
 10122 230d 0A       		.uleb128 0xa
 10123 230e F4030000 		.4byte	.LASF478
 10124 2312 24       		.byte	0x24
 10125 2313 C601     		.2byte	0x1c6
 10126 2315 5E1A0000 		.4byte	0x1a5e
 10127 2319 34       		.byte	0x34
 10128 231a 09       		.uleb128 0x9
 10129 231b 69326300 		.ascii	"i2c\000"
 10130 231f 24       		.byte	0x24
 10131 2320 CA01     		.2byte	0x1ca
 10132 2322 2E230000 		.4byte	0x232e
 10133 2326 38       		.byte	0x38
 10134 2327 00       		.byte	0
 10135 2328 0B       		.uleb128 0xb
 10136 2329 04       		.byte	0x4
 10137 232a 7A220000 		.4byte	0x227a
 10138 232e 0B       		.uleb128 0xb
 10139 232f 04       		.byte	0x4
 10140 2330 460B0000 		.4byte	0xb46
 10141 2334 15       		.uleb128 0x15
 10142 2335 7C140000 		.4byte	.LASF479
 10143 2339 24       		.byte	0x24
 10144 233a E001     		.2byte	0x1e0
 10145 233c 7F220000 		.4byte	0x227f
 10146 2340 21       		.uleb128 0x21
 10147 2341 07       		.byte	0x7
 10148 2342 01       		.byte	0x1
 10149 2343 42000000 		.4byte	0x42
 10150 2347 25       		.byte	0x25
 10151 2348 39       		.byte	0x39
 10152 2349 6C230000 		.4byte	0x236c
 10153 234d 22       		.uleb128 0x22
 10154 234e D6120000 		.4byte	.LASF480
 10155 2352 00       		.byte	0
 10156 2353 22       		.uleb128 0x22
 10157 2354 4D0F0000 		.4byte	.LASF481
 10158 2358 01       		.byte	0x1
 10159 2359 22       		.uleb128 0x22
 10160 235a 74010000 		.4byte	.LASF482
 10161 235e 02       		.byte	0x2
 10162 235f 22       		.uleb128 0x22
 10163 2360 B51C0000 		.4byte	.LASF483
 10164 2364 03       		.byte	0x3
 10165 2365 22       		.uleb128 0x22
ARM GAS  C:\Users\mathi\AppData\Local\Temp\ccXNOisu.s 			page 185


 10166 2366 02230000 		.4byte	.LASF484
 10167 236a 04       		.byte	0x4
 10168 236b 00       		.byte	0
 10169 236c 02       		.uleb128 0x2
 10170 236d 51260000 		.4byte	.LASF485
 10171 2371 25       		.byte	0x25
 10172 2372 3F       		.byte	0x3f
 10173 2373 40230000 		.4byte	0x2340
 10174 2377 02       		.uleb128 0x2
 10175 2378 F0290000 		.4byte	.LASF486
 10176 237c 26       		.byte	0x26
 10177 237d E2       		.byte	0xe2
 10178 237e 82230000 		.4byte	0x2382
 10179 2382 0C       		.uleb128 0xc
 10180 2383 F0290000 		.4byte	.LASF486
 10181 2387 20       		.byte	0x20
 10182 2388 26       		.byte	0x26
 10183 2389 1B01     		.2byte	0x11b
 10184 238b F8230000 		.4byte	0x23f8
 10185 238f 0A       		.uleb128 0xa
 10186 2390 62190000 		.4byte	.LASF340
 10187 2394 26       		.byte	0x26
 10188 2395 1F01     		.2byte	0x11f
 10189 2397 6C230000 		.4byte	0x236c
 10190 239b 00       		.byte	0
 10191 239c 0A       		.uleb128 0xa
 10192 239d 2C200000 		.4byte	.LASF341
 10193 23a1 26       		.byte	0x26
 10194 23a2 2301     		.2byte	0x123
 10195 23a4 90240000 		.4byte	0x2490
 10196 23a8 04       		.byte	0x4
 10197 23a9 09       		.uleb128 0x9
 10198 23aa 73706900 		.ascii	"spi\000"
 10199 23ae 26       		.byte	0x26
 10200 23af 2801     		.2byte	0x128
 10201 23b1 96240000 		.4byte	0x2496
 10202 23b5 08       		.byte	0x8
 10203 23b6 09       		.uleb128 0x9
 10204 23b7 63666700 		.ascii	"cfg\000"
 10205 23bb 26       		.byte	0x26
 10206 23bc 2C01     		.2byte	0x12c
 10207 23be DE000000 		.4byte	0xde
 10208 23c2 0C       		.byte	0xc
 10209 23c3 0A       		.uleb128 0xa
 10210 23c4 6E010000 		.4byte	.LASF477
 10211 23c8 26       		.byte	0x26
 10212 23c9 3001     		.2byte	0x130
 10213 23cb 5E1A0000 		.4byte	0x1a5e
 10214 23cf 10       		.byte	0x10
 10215 23d0 0A       		.uleb128 0xa
 10216 23d1 F4030000 		.4byte	.LASF478
 10217 23d5 26       		.byte	0x26
 10218 23d6 3401     		.2byte	0x134
 10219 23d8 5E1A0000 		.4byte	0x1a5e
 10220 23dc 14       		.byte	0x14
 10221 23dd 0A       		.uleb128 0xa
 10222 23de C80A0000 		.4byte	.LASF475
ARM GAS  C:\Users\mathi\AppData\Local\Temp\ccXNOisu.s 			page 186


 10223 23e2 26       		.byte	0x26
 10224 23e3 3801     		.2byte	0x138
 10225 23e5 F9000000 		.4byte	0xf9
 10226 23e9 18       		.byte	0x18
 10227 23ea 0A       		.uleb128 0xa
 10228 23eb 220B0000 		.4byte	.LASF476
 10229 23ef 26       		.byte	0x26
 10230 23f0 3C01     		.2byte	0x13c
 10231 23f2 F9000000 		.4byte	0xf9
 10232 23f6 1C       		.byte	0x1c
 10233 23f7 00       		.byte	0
 10234 23f8 02       		.uleb128 0x2
 10235 23f9 0E0B0000 		.4byte	.LASF487
 10236 23fd 26       		.byte	0x26
 10237 23fe EB       		.byte	0xeb
 10238 23ff 03240000 		.4byte	0x2403
 10239 2403 0B       		.uleb128 0xb
 10240 2404 04       		.byte	0x4
 10241 2405 09240000 		.4byte	0x2409
 10242 2409 0D       		.uleb128 0xd
 10243 240a 1E240000 		.4byte	0x241e
 10244 240e 0E       		.uleb128 0xe
 10245 240f 1E240000 		.4byte	0x241e
 10246 2413 0E       		.uleb128 0xe
 10247 2414 19010000 		.4byte	0x119
 10248 2418 0E       		.uleb128 0xe
 10249 2419 19010000 		.4byte	0x119
 10250 241d 00       		.byte	0
 10251 241e 0B       		.uleb128 0xb
 10252 241f 04       		.byte	0x4
 10253 2420 77230000 		.4byte	0x2377
 10254 2424 17       		.uleb128 0x17
 10255 2425 14       		.byte	0x14
 10256 2426 26       		.byte	0x26
 10257 2427 F1       		.byte	0xf1
 10258 2428 78240000 		.4byte	0x2478
 10259 242c 08       		.uleb128 0x8
 10260 242d 2B020000 		.4byte	.LASF488
 10261 2431 26       		.byte	0x26
 10262 2432 F6       		.byte	0xf6
 10263 2433 78240000 		.4byte	0x2478
 10264 2437 00       		.byte	0
 10265 2438 08       		.uleb128 0x8
 10266 2439 ED010000 		.4byte	.LASF489
 10267 243d 26       		.byte	0x26
 10268 243e FB       		.byte	0xfb
 10269 243f D0030000 		.4byte	0x3d0
 10270 2443 04       		.byte	0x4
 10271 2444 08       		.uleb128 0x8
 10272 2445 6D0F0000 		.4byte	.LASF490
 10273 2449 26       		.byte	0x26
 10274 244a FF       		.byte	0xff
 10275 244b 19010000 		.4byte	0x119
 10276 244f 08       		.byte	0x8
 10277 2450 0A       		.uleb128 0xa
 10278 2451 B30B0000 		.4byte	.LASF353
 10279 2455 26       		.byte	0x26
ARM GAS  C:\Users\mathi\AppData\Local\Temp\ccXNOisu.s 			page 187


 10280 2456 0301     		.2byte	0x103
 10281 2458 F8230000 		.4byte	0x23f8
 10282 245c 0C       		.byte	0xc
 10283 245d 0A       		.uleb128 0xa
 10284 245e 0E1D0000 		.4byte	.LASF491
 10285 2462 26       		.byte	0x26
 10286 2463 0F01     		.2byte	0x10f
 10287 2465 D3000000 		.4byte	0xd3
 10288 2469 10       		.byte	0x10
 10289 246a 0A       		.uleb128 0xa
 10290 246b E3080000 		.4byte	.LASF492
 10291 246f 26       		.byte	0x26
 10292 2470 1501     		.2byte	0x115
 10293 2472 D3000000 		.4byte	0xd3
 10294 2476 12       		.byte	0x12
 10295 2477 00       		.byte	0
 10296 2478 0B       		.uleb128 0xb
 10297 2479 04       		.byte	0x4
 10298 247a 7E240000 		.4byte	0x247e
 10299 247e 25       		.uleb128 0x25
 10300 247f 1A       		.uleb128 0x1a
 10301 2480 052A0000 		.4byte	.LASF493
 10302 2484 26       		.byte	0x26
 10303 2485 1601     		.2byte	0x116
 10304 2487 24240000 		.4byte	0x2424
 10305 248b 05       		.uleb128 0x5
 10306 248c 7F240000 		.4byte	0x247f
 10307 2490 0B       		.uleb128 0xb
 10308 2491 04       		.byte	0x4
 10309 2492 8B240000 		.4byte	0x248b
 10310 2496 0B       		.uleb128 0xb
 10311 2497 04       		.byte	0x4
 10312 2498 F90C0000 		.4byte	0xcf9
 10313 249c 15       		.uleb128 0x15
 10314 249d 5A2A0000 		.4byte	.LASF494
 10315 24a1 26       		.byte	0x26
 10316 24a2 4801     		.2byte	0x148
 10317 24a4 77230000 		.4byte	0x2377
 10318 24a8 21       		.uleb128 0x21
 10319 24a9 07       		.byte	0x7
 10320 24aa 01       		.byte	0x1
 10321 24ab 42000000 		.4byte	0x42
 10322 24af 27       		.byte	0x27
 10323 24b0 4A       		.byte	0x4a
 10324 24b1 C8240000 		.4byte	0x24c8
 10325 24b5 22       		.uleb128 0x22
 10326 24b6 99090000 		.4byte	.LASF495
 10327 24ba 00       		.byte	0
 10328 24bb 22       		.uleb128 0x22
 10329 24bc 560F0000 		.4byte	.LASF496
 10330 24c0 01       		.byte	0x1
 10331 24c1 22       		.uleb128 0x22
 10332 24c2 08130000 		.4byte	.LASF497
 10333 24c6 02       		.byte	0x2
 10334 24c7 00       		.byte	0
 10335 24c8 02       		.uleb128 0x2
 10336 24c9 95050000 		.4byte	.LASF498
ARM GAS  C:\Users\mathi\AppData\Local\Temp\ccXNOisu.s 			page 188


 10337 24cd 27       		.byte	0x27
 10338 24ce 4E       		.byte	0x4e
 10339 24cf A8240000 		.4byte	0x24a8
 10340 24d3 02       		.uleb128 0x2
 10341 24d4 620E0000 		.4byte	.LASF499
 10342 24d8 27       		.byte	0x27
 10343 24d9 53       		.byte	0x53
 10344 24da DE240000 		.4byte	0x24de
 10345 24de 0C       		.uleb128 0xc
 10346 24df 620E0000 		.4byte	.LASF499
 10347 24e3 1C       		.byte	0x1c
 10348 24e4 28       		.byte	0x28
 10349 24e5 7901     		.2byte	0x179
 10350 24e7 47250000 		.4byte	0x2547
 10351 24eb 0A       		.uleb128 0xa
 10352 24ec 62190000 		.4byte	.LASF340
 10353 24f0 28       		.byte	0x28
 10354 24f1 7D01     		.2byte	0x17d
 10355 24f3 C8240000 		.4byte	0x24c8
 10356 24f7 00       		.byte	0
 10357 24f8 0A       		.uleb128 0xa
 10358 24f9 2C200000 		.4byte	.LASF341
 10359 24fd 28       		.byte	0x28
 10360 24fe 8101     		.2byte	0x181
 10361 2500 42260000 		.4byte	0x2642
 10362 2504 04       		.byte	0x4
 10363 2505 0A       		.uleb128 0xa
 10364 2506 08160000 		.4byte	.LASF500
 10365 250a 28       		.byte	0x28
 10366 250b 8501     		.2byte	0x185
 10367 250d 8D250000 		.4byte	0x258d
 10368 2511 08       		.byte	0x8
 10369 2512 0A       		.uleb128 0xa
 10370 2513 B51D0000 		.4byte	.LASF501
 10371 2517 28       		.byte	0x28
 10372 2518 8901     		.2byte	0x189
 10373 251a 81250000 		.4byte	0x2581
 10374 251e 0C       		.byte	0xc
 10375 251f 0A       		.uleb128 0xa
 10376 2520 BC250000 		.4byte	.LASF421
 10377 2524 28       		.byte	0x28
 10378 2525 8D01     		.2byte	0x18d
 10379 2527 75250000 		.4byte	0x2575
 10380 252b 10       		.byte	0x10
 10381 252c 0A       		.uleb128 0xa
 10382 252d 900F0000 		.4byte	.LASF431
 10383 2531 28       		.byte	0x28
 10384 2532 9501     		.2byte	0x195
 10385 2534 F9000000 		.4byte	0xf9
 10386 2538 14       		.byte	0x14
 10387 2539 09       		.uleb128 0x9
 10388 253a 74696D00 		.ascii	"tim\000"
 10389 253e 28       		.byte	0x28
 10390 253f 9901     		.2byte	0x199
 10391 2541 64210000 		.4byte	0x2164
 10392 2545 18       		.byte	0x18
 10393 2546 00       		.byte	0
ARM GAS  C:\Users\mathi\AppData\Local\Temp\ccXNOisu.s 			page 189


 10394 2547 02       		.uleb128 0x2
 10395 2548 AF130000 		.4byte	.LASF502
 10396 254c 27       		.byte	0x27
 10397 254d 5A       		.byte	0x5a
 10398 254e 52250000 		.4byte	0x2552
 10399 2552 0B       		.uleb128 0xb
 10400 2553 04       		.byte	0x4
 10401 2554 58250000 		.4byte	0x2558
 10402 2558 0D       		.uleb128 0xd
 10403 2559 63250000 		.4byte	0x2563
 10404 255d 0E       		.uleb128 0xe
 10405 255e 63250000 		.4byte	0x2563
 10406 2562 00       		.byte	0
 10407 2563 0B       		.uleb128 0xb
 10408 2564 04       		.byte	0x4
 10409 2565 D3240000 		.4byte	0x24d3
 10410 2569 1A       		.uleb128 0x1a
 10411 256a 72180000 		.4byte	.LASF503
 10412 256e 28       		.byte	0x28
 10413 256f 2501     		.2byte	0x125
 10414 2571 F9000000 		.4byte	0xf9
 10415 2575 1A       		.uleb128 0x1a
 10416 2576 D91A0000 		.4byte	.LASF504
 10417 257a 28       		.byte	0x28
 10418 257b 2A01     		.2byte	0x12a
 10419 257d C3000000 		.4byte	0xc3
 10420 2581 1A       		.uleb128 0x1a
 10421 2582 EA040000 		.4byte	.LASF505
 10422 2586 28       		.byte	0x28
 10423 2587 2F01     		.2byte	0x12f
 10424 2589 F9000000 		.4byte	0xf9
 10425 258d 1A       		.uleb128 0x1a
 10426 258e 58100000 		.4byte	.LASF506
 10427 2592 28       		.byte	0x28
 10428 2593 3401     		.2byte	0x134
 10429 2595 F9000000 		.4byte	0xf9
 10430 2599 19       		.uleb128 0x19
 10431 259a 08       		.byte	0x8
 10432 259b 28       		.byte	0x28
 10433 259c 3901     		.2byte	0x139
 10434 259e BD250000 		.4byte	0x25bd
 10435 25a2 0A       		.uleb128 0xa
 10436 25a3 DC0A0000 		.4byte	.LASF419
 10437 25a7 28       		.byte	0x28
 10438 25a8 3D01     		.2byte	0x13d
 10439 25aa 69250000 		.4byte	0x2569
 10440 25ae 00       		.byte	0
 10441 25af 0A       		.uleb128 0xa
 10442 25b0 DF190000 		.4byte	.LASF445
 10443 25b4 28       		.byte	0x28
 10444 25b5 4301     		.2byte	0x143
 10445 25b7 47250000 		.4byte	0x2547
 10446 25bb 04       		.byte	0x4
 10447 25bc 00       		.byte	0
 10448 25bd 1A       		.uleb128 0x1a
 10449 25be 47100000 		.4byte	.LASF507
 10450 25c2 28       		.byte	0x28
ARM GAS  C:\Users\mathi\AppData\Local\Temp\ccXNOisu.s 			page 190


 10451 25c3 4501     		.2byte	0x145
 10452 25c5 99250000 		.4byte	0x2599
 10453 25c9 19       		.uleb128 0x19
 10454 25ca 34       		.byte	0x34
 10455 25cb 28       		.byte	0x28
 10456 25cc 4A01     		.2byte	0x14a
 10457 25ce 21260000 		.4byte	0x2621
 10458 25d2 0A       		.uleb128 0xa
 10459 25d3 95280000 		.4byte	.LASF444
 10460 25d7 28       		.byte	0x28
 10461 25d8 5001     		.2byte	0x150
 10462 25da F9000000 		.4byte	0xf9
 10463 25de 00       		.byte	0
 10464 25df 0A       		.uleb128 0xa
 10465 25e0 08160000 		.4byte	.LASF500
 10466 25e4 28       		.byte	0x28
 10467 25e5 5601     		.2byte	0x156
 10468 25e7 8D250000 		.4byte	0x258d
 10469 25eb 04       		.byte	0x4
 10470 25ec 0A       		.uleb128 0xa
 10471 25ed DF190000 		.4byte	.LASF445
 10472 25f1 28       		.byte	0x28
 10473 25f2 5C01     		.2byte	0x15c
 10474 25f4 47250000 		.4byte	0x2547
 10475 25f8 08       		.byte	0x8
 10476 25f9 0A       		.uleb128 0xa
 10477 25fa BC250000 		.4byte	.LASF421
 10478 25fe 28       		.byte	0x28
 10479 25ff 6001     		.2byte	0x160
 10480 2601 21260000 		.4byte	0x2621
 10481 2605 0C       		.byte	0xc
 10482 2606 09       		.uleb128 0x9
 10483 2607 63723200 		.ascii	"cr2\000"
 10484 260b 28       		.byte	0x28
 10485 260c 6601     		.2byte	0x166
 10486 260e F9000000 		.4byte	0xf9
 10487 2612 2C       		.byte	0x2c
 10488 2613 0A       		.uleb128 0xa
 10489 2614 FB0E0000 		.4byte	.LASF446
 10490 2618 28       		.byte	0x28
 10491 2619 7301     		.2byte	0x173
 10492 261b F9000000 		.4byte	0xf9
 10493 261f 30       		.byte	0x30
 10494 2620 00       		.byte	0
 10495 2621 13       		.uleb128 0x13
 10496 2622 BD250000 		.4byte	0x25bd
 10497 2626 31260000 		.4byte	0x2631
 10498 262a 14       		.uleb128 0x14
 10499 262b B1000000 		.4byte	0xb1
 10500 262f 03       		.byte	0x3
 10501 2630 00       		.byte	0
 10502 2631 1A       		.uleb128 0x1a
 10503 2632 730E0000 		.4byte	.LASF508
 10504 2636 28       		.byte	0x28
 10505 2637 7401     		.2byte	0x174
 10506 2639 C9250000 		.4byte	0x25c9
 10507 263d 05       		.uleb128 0x5
ARM GAS  C:\Users\mathi\AppData\Local\Temp\ccXNOisu.s 			page 191


 10508 263e 31260000 		.4byte	0x2631
 10509 2642 0B       		.uleb128 0xb
 10510 2643 04       		.byte	0x4
 10511 2644 3D260000 		.4byte	0x263d
 10512 2648 15       		.uleb128 0x15
 10513 2649 AD140000 		.4byte	.LASF509
 10514 264d 28       		.byte	0x28
 10515 264e BC01     		.2byte	0x1bc
 10516 2650 D3240000 		.4byte	0x24d3
 10517 2654 15       		.uleb128 0x15
 10518 2655 B3140000 		.4byte	.LASF510
 10519 2659 28       		.byte	0x28
 10520 265a C001     		.2byte	0x1c0
 10521 265c D3240000 		.4byte	0x24d3
 10522 2660 15       		.uleb128 0x15
 10523 2661 B9140000 		.4byte	.LASF511
 10524 2665 28       		.byte	0x28
 10525 2666 C401     		.2byte	0x1c4
 10526 2668 D3240000 		.4byte	0x24d3
 10527 266c 15       		.uleb128 0x15
 10528 266d BF140000 		.4byte	.LASF512
 10529 2671 28       		.byte	0x28
 10530 2672 C801     		.2byte	0x1c8
 10531 2674 D3240000 		.4byte	0x24d3
 10532 2678 21       		.uleb128 0x21
 10533 2679 07       		.byte	0x7
 10534 267a 01       		.byte	0x1
 10535 267b 42000000 		.4byte	0x42
 10536 267f 29       		.byte	0x29
 10537 2680 55       		.byte	0x55
 10538 2681 98260000 		.4byte	0x2698
 10539 2685 22       		.uleb128 0x22
 10540 2686 B7080000 		.4byte	.LASF513
 10541 268a 00       		.byte	0
 10542 268b 22       		.uleb128 0x22
 10543 268c C30F0000 		.4byte	.LASF514
 10544 2690 01       		.byte	0x1
 10545 2691 22       		.uleb128 0x22
 10546 2692 5D120000 		.4byte	.LASF515
 10547 2696 02       		.byte	0x2
 10548 2697 00       		.byte	0
 10549 2698 02       		.uleb128 0x2
 10550 2699 F71B0000 		.4byte	.LASF516
 10551 269d 29       		.byte	0x29
 10552 269e 59       		.byte	0x59
 10553 269f 78260000 		.4byte	0x2678
 10554 26a3 02       		.uleb128 0x2
 10555 26a4 E7250000 		.4byte	.LASF517
 10556 26a8 29       		.byte	0x29
 10557 26a9 5E       		.byte	0x5e
 10558 26aa AE260000 		.4byte	0x26ae
 10559 26ae 07       		.uleb128 0x7
 10560 26af E7250000 		.4byte	.LASF517
 10561 26b3 78       		.byte	0x78
 10562 26b4 29       		.byte	0x29
 10563 26b5 78       		.byte	0x78
 10564 26b6 19270000 		.4byte	0x2719
ARM GAS  C:\Users\mathi\AppData\Local\Temp\ccXNOisu.s 			page 192


 10565 26ba 18       		.uleb128 0x18
 10566 26bb 766D7400 		.ascii	"vmt\000"
 10567 26bf 29       		.byte	0x29
 10568 26c0 7A       		.byte	0x7a
 10569 26c1 97270000 		.4byte	0x2797
 10570 26c5 00       		.byte	0
 10571 26c6 08       		.uleb128 0x8
 10572 26c7 47000000 		.4byte	.LASF518
 10573 26cb 29       		.byte	0x29
 10574 26cc 7B       		.byte	0x7b
 10575 26cd E3120000 		.4byte	0x12e3
 10576 26d1 04       		.byte	0x4
 10577 26d2 08       		.uleb128 0x8
 10578 26d3 62190000 		.4byte	.LASF340
 10579 26d7 29       		.byte	0x29
 10580 26d8 7B       		.byte	0x7b
 10581 26d9 98260000 		.4byte	0x2698
 10582 26dd 08       		.byte	0x8
 10583 26de 08       		.uleb128 0x8
 10584 26df CC1B0000 		.4byte	.LASF519
 10585 26e3 29       		.byte	0x29
 10586 26e4 7B       		.byte	0x7b
 10587 26e5 8E130000 		.4byte	0x138e
 10588 26e9 0C       		.byte	0xc
 10589 26ea 08       		.uleb128 0x8
 10590 26eb D2140000 		.4byte	.LASF520
 10591 26ef 29       		.byte	0x29
 10592 26f0 7B       		.byte	0x7b
 10593 26f1 99130000 		.4byte	0x1399
 10594 26f5 30       		.byte	0x30
 10595 26f6 18       		.uleb128 0x18
 10596 26f7 696200   		.ascii	"ib\000"
 10597 26fa 29       		.byte	0x29
 10598 26fb 7B       		.byte	0x7b
 10599 26fc 9D270000 		.4byte	0x279d
 10600 2700 54       		.byte	0x54
 10601 2701 18       		.uleb128 0x18
 10602 2702 6F6200   		.ascii	"ob\000"
 10603 2705 29       		.byte	0x29
 10604 2706 7B       		.byte	0x7b
 10605 2707 9D270000 		.4byte	0x279d
 10606 270b 64       		.byte	0x64
 10607 270c 08       		.uleb128 0x8
 10608 270d 131E0000 		.4byte	.LASF521
 10609 2711 29       		.byte	0x29
 10610 2712 7B       		.byte	0x7b
 10611 2713 AD270000 		.4byte	0x27ad
 10612 2717 74       		.byte	0x74
 10613 2718 00       		.byte	0
 10614 2719 1F       		.uleb128 0x1f
 10615 271a 53443300 		.ascii	"SD3\000"
 10616 271e 2A       		.byte	0x2a
 10617 271f 1501     		.2byte	0x115
 10618 2721 A3260000 		.4byte	0x26a3
 10619 2725 07       		.uleb128 0x7
 10620 2726 E6110000 		.4byte	.LASF522
 10621 272a 20       		.byte	0x20
ARM GAS  C:\Users\mathi\AppData\Local\Temp\ccXNOisu.s 			page 193


 10622 272b 29       		.byte	0x29
 10623 272c 6D       		.byte	0x6d
 10624 272d 92270000 		.4byte	0x2792
 10625 2731 08       		.uleb128 0x8
 10626 2732 BB1B0000 		.4byte	.LASF523
 10627 2736 29       		.byte	0x29
 10628 2737 6E       		.byte	0x6e
 10629 2738 C3130000 		.4byte	0x13c3
 10630 273c 00       		.byte	0
 10631 273d 08       		.uleb128 0x8
 10632 273e F7060000 		.4byte	.LASF524
 10633 2742 29       		.byte	0x29
 10634 2743 6E       		.byte	0x6e
 10635 2744 E2130000 		.4byte	0x13e2
 10636 2748 04       		.byte	0x4
 10637 2749 18       		.uleb128 0x18
 10638 274a 70757400 		.ascii	"put\000"
 10639 274e 29       		.byte	0x29
 10640 274f 6E       		.byte	0x6e
 10641 2750 FC130000 		.4byte	0x13fc
 10642 2754 08       		.byte	0x8
 10643 2755 18       		.uleb128 0x18
 10644 2756 67657400 		.ascii	"get\000"
 10645 275a 29       		.byte	0x29
 10646 275b 6E       		.byte	0x6e
 10647 275c 11140000 		.4byte	0x1411
 10648 2760 0C       		.byte	0xc
 10649 2761 08       		.uleb128 0x8
 10650 2762 1F170000 		.4byte	.LASF525
 10651 2766 29       		.byte	0x29
 10652 2767 6E       		.byte	0x6e
 10653 2768 B2140000 		.4byte	0x14b2
 10654 276c 10       		.byte	0x10
 10655 276d 08       		.uleb128 0x8
 10656 276e 971B0000 		.4byte	.LASF526
 10657 2772 29       		.byte	0x29
 10658 2773 6E       		.byte	0x6e
 10659 2774 CC140000 		.4byte	0x14cc
 10660 2778 14       		.byte	0x14
 10661 2779 08       		.uleb128 0x8
 10662 277a A4260000 		.4byte	.LASF527
 10663 277e 29       		.byte	0x29
 10664 277f 6E       		.byte	0x6e
 10665 2780 F0140000 		.4byte	0x14f0
 10666 2784 18       		.byte	0x18
 10667 2785 08       		.uleb128 0x8
 10668 2786 55160000 		.4byte	.LASF528
 10669 278a 29       		.byte	0x29
 10670 278b 6E       		.byte	0x6e
 10671 278c 14150000 		.4byte	0x1514
 10672 2790 1C       		.byte	0x1c
 10673 2791 00       		.byte	0
 10674 2792 05       		.uleb128 0x5
 10675 2793 25270000 		.4byte	0x2725
 10676 2797 0B       		.uleb128 0xb
 10677 2798 04       		.byte	0x4
 10678 2799 92270000 		.4byte	0x2792
ARM GAS  C:\Users\mathi\AppData\Local\Temp\ccXNOisu.s 			page 194


 10679 279d 13       		.uleb128 0x13
 10680 279e C3000000 		.4byte	0xc3
 10681 27a2 AD270000 		.4byte	0x27ad
 10682 27a6 14       		.uleb128 0x14
 10683 27a7 B1000000 		.4byte	0xb1
 10684 27ab 0F       		.byte	0xf
 10685 27ac 00       		.byte	0
 10686 27ad 0B       		.uleb128 0xb
 10687 27ae 04       		.byte	0x4
 10688 27af 680D0000 		.4byte	0xd68
 10689 27b3 21       		.uleb128 0x21
 10690 27b4 07       		.byte	0x7
 10691 27b5 01       		.byte	0x1
 10692 27b6 42000000 		.4byte	0x42
 10693 27ba 2B       		.byte	0x2b
 10694 27bb 6C       		.byte	0x6c
 10695 27bc D3270000 		.4byte	0x27d3
 10696 27c0 22       		.uleb128 0x22
 10697 27c1 44050000 		.4byte	.LASF529
 10698 27c5 00       		.byte	0
 10699 27c6 22       		.uleb128 0x22
 10700 27c7 94180000 		.4byte	.LASF530
 10701 27cb 01       		.byte	0x1
 10702 27cc 22       		.uleb128 0x22
 10703 27cd CD150000 		.4byte	.LASF531
 10704 27d1 02       		.byte	0x2
 10705 27d2 00       		.byte	0
 10706 27d3 02       		.uleb128 0x2
 10707 27d4 1F1F0000 		.4byte	.LASF532
 10708 27d8 2B       		.byte	0x2b
 10709 27d9 70       		.byte	0x70
 10710 27da B3270000 		.4byte	0x27b3
 10711 27de 02       		.uleb128 0x2
 10712 27df 211E0000 		.4byte	.LASF533
 10713 27e3 2C       		.byte	0x2c
 10714 27e4 BF       		.byte	0xbf
 10715 27e5 F9000000 		.4byte	0xf9
 10716 27e9 02       		.uleb128 0x2
 10717 27ea 311B0000 		.4byte	.LASF534
 10718 27ee 2C       		.byte	0x2c
 10719 27ef C4       		.byte	0xc4
 10720 27f0 F9000000 		.4byte	0xf9
 10721 27f4 02       		.uleb128 0x2
 10722 27f5 CB250000 		.4byte	.LASF535
 10723 27f9 2C       		.byte	0x2c
 10724 27fa C9       		.byte	0xc9
 10725 27fb FF270000 		.4byte	0x27ff
 10726 27ff 07       		.uleb128 0x7
 10727 2800 CB250000 		.4byte	.LASF535
 10728 2804 4C       		.byte	0x4c
 10729 2805 2C       		.byte	0x2c
 10730 2806 F2       		.byte	0xf2
 10731 2807 AE280000 		.4byte	0x28ae
 10732 280b 18       		.uleb128 0x18
 10733 280c 766D7400 		.ascii	"vmt\000"
 10734 2810 2C       		.byte	0x2c
 10735 2811 F6       		.byte	0xf6
ARM GAS  C:\Users\mathi\AppData\Local\Temp\ccXNOisu.s 			page 195


 10736 2812 51290000 		.4byte	0x2951
 10737 2816 00       		.byte	0
 10738 2817 08       		.uleb128 0x8
 10739 2818 62190000 		.4byte	.LASF340
 10740 281c 2C       		.byte	0x2c
 10741 281d F7       		.byte	0xf7
 10742 281e 5E150000 		.4byte	0x155e
 10743 2822 04       		.byte	0x4
 10744 2823 18       		.uleb128 0x18
 10745 2824 63696400 		.ascii	"cid\000"
 10746 2828 2C       		.byte	0x2c
 10747 2829 F7       		.byte	0xf7
 10748 282a 19160000 		.4byte	0x1619
 10749 282e 08       		.byte	0x8
 10750 282f 18       		.uleb128 0x18
 10751 2830 63736400 		.ascii	"csd\000"
 10752 2834 2C       		.byte	0x2c
 10753 2835 F7       		.byte	0xf7
 10754 2836 19160000 		.4byte	0x1619
 10755 283a 18       		.byte	0x18
 10756 283b 08       		.uleb128 0x8
 10757 283c 26210000 		.4byte	.LASF536
 10758 2840 2C       		.byte	0x2c
 10759 2841 F7       		.byte	0xf7
 10760 2842 F9000000 		.4byte	0xf9
 10761 2846 28       		.byte	0x28
 10762 2847 08       		.uleb128 0x8
 10763 2848 2C200000 		.4byte	.LASF341
 10764 284c 2C       		.byte	0x2c
 10765 284d FB       		.byte	0xfb
 10766 284e 57290000 		.4byte	0x2957
 10767 2852 2C       		.byte	0x2c
 10768 2853 08       		.uleb128 0x8
 10769 2854 3F180000 		.4byte	.LASF537
 10770 2858 2C       		.byte	0x2c
 10771 2859 FF       		.byte	0xff
 10772 285a DE270000 		.4byte	0x27de
 10773 285e 30       		.byte	0x30
 10774 285f 0A       		.uleb128 0xa
 10775 2860 F7010000 		.4byte	.LASF473
 10776 2864 2C       		.byte	0x2c
 10777 2865 0301     		.2byte	0x103
 10778 2867 E9270000 		.4byte	0x27e9
 10779 286b 34       		.byte	0x34
 10780 286c 09       		.uleb128 0x9
 10781 286d 72636100 		.ascii	"rca\000"
 10782 2871 2C       		.byte	0x2c
 10783 2872 0701     		.2byte	0x107
 10784 2874 F9000000 		.4byte	0xf9
 10785 2878 38       		.byte	0x38
 10786 2879 0A       		.uleb128 0xa
 10787 287a 38090000 		.4byte	.LASF345
 10788 287e 2C       		.byte	0x2c
 10789 287f 0C01     		.2byte	0x10c
 10790 2881 E8020000 		.4byte	0x2e8
 10791 2885 3C       		.byte	0x3c
 10792 2886 0A       		.uleb128 0xa
ARM GAS  C:\Users\mathi\AppData\Local\Temp\ccXNOisu.s 			page 196


 10793 2887 781B0000 		.4byte	.LASF348
 10794 288b 2C       		.byte	0x2c
 10795 288c 1001     		.2byte	0x110
 10796 288e F9000000 		.4byte	0xf9
 10797 2892 40       		.byte	0x40
 10798 2893 09       		.uleb128 0x9
 10799 2894 646D6100 		.ascii	"dma\000"
 10800 2898 2C       		.byte	0x2c
 10801 2899 1401     		.2byte	0x114
 10802 289b 5E1A0000 		.4byte	0x1a5e
 10803 289f 44       		.byte	0x44
 10804 28a0 0A       		.uleb128 0xa
 10805 28a1 86190000 		.4byte	.LASF538
 10806 28a5 2C       		.byte	0x2c
 10807 28a6 1901     		.2byte	0x119
 10808 28a8 5D290000 		.4byte	0x295d
 10809 28ac 48       		.byte	0x48
 10810 28ad 00       		.byte	0
 10811 28ae 17       		.uleb128 0x17
 10812 28af 08       		.byte	0x8
 10813 28b0 2C       		.byte	0x2c
 10814 28b1 CF       		.byte	0xcf
 10815 28b2 CF280000 		.4byte	0x28cf
 10816 28b6 08       		.uleb128 0x8
 10817 28b7 BE100000 		.4byte	.LASF539
 10818 28bb 2C       		.byte	0x2c
 10819 28bc D8       		.byte	0xd8
 10820 28bd 88130000 		.4byte	0x1388
 10821 28c1 00       		.byte	0
 10822 28c2 08       		.uleb128 0x8
 10823 28c3 82270000 		.4byte	.LASF540
 10824 28c7 2C       		.byte	0x2c
 10825 28c8 DC       		.byte	0xdc
 10826 28c9 D3270000 		.4byte	0x27d3
 10827 28cd 04       		.byte	0x4
 10828 28ce 00       		.byte	0
 10829 28cf 02       		.uleb128 0x2
 10830 28d0 FF180000 		.4byte	.LASF541
 10831 28d4 2C       		.byte	0x2c
 10832 28d5 DE       		.byte	0xde
 10833 28d6 AE280000 		.4byte	0x28ae
 10834 28da 05       		.uleb128 0x5
 10835 28db CF280000 		.4byte	0x28cf
 10836 28df 07       		.uleb128 0x7
 10837 28e0 A3270000 		.4byte	.LASF542
 10838 28e4 20       		.byte	0x20
 10839 28e5 2C       		.byte	0x2c
 10840 28e6 EB       		.byte	0xeb
 10841 28e7 4C290000 		.4byte	0x294c
 10842 28eb 08       		.uleb128 0x8
 10843 28ec 602A0000 		.4byte	.LASF543
 10844 28f0 2C       		.byte	0x2c
 10845 28f1 EC       		.byte	0xec
 10846 28f2 AB150000 		.4byte	0x15ab
 10847 28f6 00       		.byte	0
 10848 28f7 08       		.uleb128 0x8
 10849 28f8 000F0000 		.4byte	.LASF544
ARM GAS  C:\Users\mathi\AppData\Local\Temp\ccXNOisu.s 			page 197


 10850 28fc 2C       		.byte	0x2c
 10851 28fd EC       		.byte	0xec
 10852 28fe AB150000 		.4byte	0x15ab
 10853 2902 04       		.byte	0x4
 10854 2903 08       		.uleb128 0x8
 10855 2904 0B120000 		.4byte	.LASF545
 10856 2908 2C       		.byte	0x2c
 10857 2909 EC       		.byte	0xec
 10858 290a AB150000 		.4byte	0x15ab
 10859 290e 08       		.byte	0x8
 10860 290f 08       		.uleb128 0x8
 10861 2910 0D170000 		.4byte	.LASF546
 10862 2914 2C       		.byte	0x2c
 10863 2915 EC       		.byte	0xec
 10864 2916 AB150000 		.4byte	0x15ab
 10865 291a 0C       		.byte	0xc
 10866 291b 08       		.uleb128 0x8
 10867 291c F7060000 		.4byte	.LASF524
 10868 2920 2C       		.byte	0x2c
 10869 2921 EC       		.byte	0xec
 10870 2922 CF150000 		.4byte	0x15cf
 10871 2926 10       		.byte	0x10
 10872 2927 08       		.uleb128 0x8
 10873 2928 BB1B0000 		.4byte	.LASF523
 10874 292c 2C       		.byte	0x2c
 10875 292d EC       		.byte	0xec
 10876 292e F3150000 		.4byte	0x15f3
 10877 2932 14       		.byte	0x14
 10878 2933 08       		.uleb128 0x8
 10879 2934 0E1E0000 		.4byte	.LASF547
 10880 2938 2C       		.byte	0x2c
 10881 2939 EC       		.byte	0xec
 10882 293a AB150000 		.4byte	0x15ab
 10883 293e 18       		.byte	0x18
 10884 293f 08       		.uleb128 0x8
 10885 2940 30270000 		.4byte	.LASF548
 10886 2944 2C       		.byte	0x2c
 10887 2945 EC       		.byte	0xec
 10888 2946 13160000 		.4byte	0x1613
 10889 294a 1C       		.byte	0x1c
 10890 294b 00       		.byte	0
 10891 294c 05       		.uleb128 0x5
 10892 294d DF280000 		.4byte	0x28df
 10893 2951 0B       		.uleb128 0xb
 10894 2952 04       		.byte	0x4
 10895 2953 4C290000 		.4byte	0x294c
 10896 2957 0B       		.uleb128 0xb
 10897 2958 04       		.byte	0x4
 10898 2959 DA280000 		.4byte	0x28da
 10899 295d 0B       		.uleb128 0xb
 10900 295e 04       		.byte	0x4
 10901 295f 700C0000 		.4byte	0xc70
 10902 2963 15       		.uleb128 0x15
 10903 2964 8F0C0000 		.4byte	.LASF549
 10904 2968 2C       		.byte	0x2c
 10905 2969 2501     		.2byte	0x125
 10906 296b F4270000 		.4byte	0x27f4
ARM GAS  C:\Users\mathi\AppData\Local\Temp\ccXNOisu.s 			page 198


 10907 296f 21       		.uleb128 0x21
 10908 2970 07       		.byte	0x7
 10909 2971 01       		.byte	0x1
 10910 2972 42000000 		.4byte	0x42
 10911 2976 2D       		.byte	0x2d
 10912 2977 46       		.byte	0x46
 10913 2978 9B290000 		.4byte	0x299b
 10914 297c 22       		.uleb128 0x22
 10915 297d 4E090000 		.4byte	.LASF550
 10916 2981 00       		.byte	0
 10917 2982 22       		.uleb128 0x22
 10918 2983 E1040000 		.4byte	.LASF551
 10919 2987 01       		.byte	0x1
 10920 2988 22       		.uleb128 0x22
 10921 2989 6B270000 		.4byte	.LASF552
 10922 298d 02       		.byte	0x2
 10923 298e 22       		.uleb128 0x22
 10924 298f 3D110000 		.4byte	.LASF553
 10925 2993 03       		.byte	0x3
 10926 2994 22       		.uleb128 0x22
 10927 2995 A0160000 		.4byte	.LASF554
 10928 2999 04       		.byte	0x4
 10929 299a 00       		.byte	0
 10930 299b 02       		.uleb128 0x2
 10931 299c F1100000 		.4byte	.LASF555
 10932 29a0 2D       		.byte	0x2d
 10933 29a1 4C       		.byte	0x4c
 10934 29a2 6F290000 		.4byte	0x296f
 10935 29a6 1A       		.uleb128 0x1a
 10936 29a7 52250000 		.4byte	.LASF556
 10937 29ab 2E       		.byte	0x2e
 10938 29ac 9601     		.2byte	0x196
 10939 29ae B2290000 		.4byte	0x29b2
 10940 29b2 0C       		.uleb128 0xc
 10941 29b3 52250000 		.4byte	.LASF556
 10942 29b7 34       		.byte	0x34
 10943 29b8 2E       		.byte	0x2e
 10944 29b9 BA01     		.2byte	0x1ba
 10945 29bb 352A0000 		.4byte	0x2a35
 10946 29bf 0A       		.uleb128 0xa
 10947 29c0 62190000 		.4byte	.LASF340
 10948 29c4 2E       		.byte	0x2e
 10949 29c5 BE01     		.2byte	0x1be
 10950 29c7 9B290000 		.4byte	0x299b
 10951 29cb 00       		.byte	0
 10952 29cc 0A       		.uleb128 0xa
 10953 29cd 2C200000 		.4byte	.LASF341
 10954 29d1 2E       		.byte	0x2e
 10955 29d2 C201     		.2byte	0x1c2
 10956 29d4 A72A0000 		.4byte	0x2aa7
 10957 29d8 04       		.byte	0x4
 10958 29d9 0A       		.uleb128 0xa
 10959 29da 38090000 		.4byte	.LASF345
 10960 29de 2E       		.byte	0x2e
 10961 29df C701     		.2byte	0x1c7
 10962 29e1 E8020000 		.4byte	0x2e8
 10963 29e5 08       		.byte	0x8
ARM GAS  C:\Users\mathi\AppData\Local\Temp\ccXNOisu.s 			page 199


 10964 29e6 0A       		.uleb128 0xa
 10965 29e7 670F0000 		.4byte	.LASF346
 10966 29eb 2E       		.byte	0x2e
 10967 29ec CD01     		.2byte	0x1cd
 10968 29ee 5F120000 		.4byte	0x125f
 10969 29f2 0C       		.byte	0xc
 10970 29f3 09       		.uleb128 0x9
 10971 29f4 73706900 		.ascii	"spi\000"
 10972 29f8 2E       		.byte	0x2e
 10973 29f9 D601     		.2byte	0x1d6
 10974 29fb 96240000 		.4byte	0x2496
 10975 29ff 20       		.byte	0x20
 10976 2a00 0A       		.uleb128 0xa
 10977 2a01 6E010000 		.4byte	.LASF477
 10978 2a05 2E       		.byte	0x2e
 10979 2a06 DA01     		.2byte	0x1da
 10980 2a08 5E1A0000 		.4byte	0x1a5e
 10981 2a0c 24       		.byte	0x24
 10982 2a0d 0A       		.uleb128 0xa
 10983 2a0e F4030000 		.4byte	.LASF478
 10984 2a12 2E       		.byte	0x2e
 10985 2a13 DE01     		.2byte	0x1de
 10986 2a15 5E1A0000 		.4byte	0x1a5e
 10987 2a19 28       		.byte	0x28
 10988 2a1a 0A       		.uleb128 0xa
 10989 2a1b C80A0000 		.4byte	.LASF475
 10990 2a1f 2E       		.byte	0x2e
 10991 2a20 E201     		.2byte	0x1e2
 10992 2a22 F9000000 		.4byte	0xf9
 10993 2a26 2C       		.byte	0x2c
 10994 2a27 0A       		.uleb128 0xa
 10995 2a28 220B0000 		.4byte	.LASF476
 10996 2a2c 2E       		.byte	0x2e
 10997 2a2d E601     		.2byte	0x1e6
 10998 2a2f F9000000 		.4byte	0xf9
 10999 2a33 30       		.byte	0x30
 11000 2a34 00       		.byte	0
 11001 2a35 1A       		.uleb128 0x1a
 11002 2a36 C8180000 		.4byte	.LASF557
 11003 2a3a 2E       		.byte	0x2e
 11004 2a3b 9E01     		.2byte	0x19e
 11005 2a3d 412A0000 		.4byte	0x2a41
 11006 2a41 0B       		.uleb128 0xb
 11007 2a42 04       		.byte	0x4
 11008 2a43 472A0000 		.4byte	0x2a47
 11009 2a47 0D       		.uleb128 0xd
 11010 2a48 522A0000 		.4byte	0x2a52
 11011 2a4c 0E       		.uleb128 0xe
 11012 2a4d 522A0000 		.4byte	0x2a52
 11013 2a51 00       		.byte	0
 11014 2a52 0B       		.uleb128 0xb
 11015 2a53 04       		.byte	0x4
 11016 2a54 A6290000 		.4byte	0x29a6
 11017 2a58 19       		.uleb128 0x19
 11018 2a59 0C       		.byte	0xc
 11019 2a5a 2E       		.byte	0x2e
 11020 2a5b A301     		.2byte	0x1a3
ARM GAS  C:\Users\mathi\AppData\Local\Temp\ccXNOisu.s 			page 200


 11021 2a5d 962A0000 		.4byte	0x2a96
 11022 2a61 0A       		.uleb128 0xa
 11023 2a62 B30B0000 		.4byte	.LASF353
 11024 2a66 2E       		.byte	0x2e
 11025 2a67 A701     		.2byte	0x1a7
 11026 2a69 352A0000 		.4byte	0x2a35
 11027 2a6d 00       		.byte	0
 11028 2a6e 0A       		.uleb128 0xa
 11029 2a6f 3A280000 		.4byte	.LASF558
 11030 2a73 2E       		.byte	0x2e
 11031 2a74 AC01     		.2byte	0x1ac
 11032 2a76 EF170000 		.4byte	0x17ef
 11033 2a7a 04       		.byte	0x4
 11034 2a7b 0A       		.uleb128 0xa
 11035 2a7c 1C0B0000 		.4byte	.LASF559
 11036 2a80 2E       		.byte	0x2e
 11037 2a81 B001     		.2byte	0x1b0
 11038 2a83 DE000000 		.4byte	0xde
 11039 2a87 08       		.byte	0x8
 11040 2a88 09       		.uleb128 0x9
 11041 2a89 63723100 		.ascii	"cr1\000"
 11042 2a8d 2E       		.byte	0x2e
 11043 2a8e B401     		.2byte	0x1b4
 11044 2a90 DE000000 		.4byte	0xde
 11045 2a94 0A       		.byte	0xa
 11046 2a95 00       		.byte	0
 11047 2a96 1A       		.uleb128 0x1a
 11048 2a97 62250000 		.4byte	.LASF560
 11049 2a9b 2E       		.byte	0x2e
 11050 2a9c B501     		.2byte	0x1b5
 11051 2a9e 582A0000 		.4byte	0x2a58
 11052 2aa2 05       		.uleb128 0x5
 11053 2aa3 962A0000 		.4byte	0x2a96
 11054 2aa7 0B       		.uleb128 0xb
 11055 2aa8 04       		.byte	0x4
 11056 2aa9 A22A0000 		.4byte	0x2aa2
 11057 2aad 15       		.uleb128 0x15
 11058 2aae 911B0000 		.4byte	.LASF561
 11059 2ab2 2E       		.byte	0x2e
 11060 2ab3 F201     		.2byte	0x1f2
 11061 2ab5 A6290000 		.4byte	0x29a6
 11062 2ab9 02       		.uleb128 0x2
 11063 2aba 89140000 		.4byte	.LASF562
 11064 2abe 2F       		.byte	0x2f
 11065 2abf FA       		.byte	0xfa
 11066 2ac0 C42A0000 		.4byte	0x2ac4
 11067 2ac4 10       		.uleb128 0x10
 11068 2ac5 89140000 		.4byte	.LASF562
 11069 2ac9 6002     		.2byte	0x260
 11070 2acb 30       		.byte	0x30
 11071 2acc 7701     		.2byte	0x177
 11072 2ace F02B0000 		.4byte	0x2bf0
 11073 2ad2 0A       		.uleb128 0xa
 11074 2ad3 62190000 		.4byte	.LASF340
 11075 2ad7 30       		.byte	0x30
 11076 2ad8 7B01     		.2byte	0x17b
 11077 2ada 282C0000 		.4byte	0x2c28
ARM GAS  C:\Users\mathi\AppData\Local\Temp\ccXNOisu.s 			page 201


 11078 2ade 00       		.byte	0
 11079 2adf 0A       		.uleb128 0xa
 11080 2ae0 2C200000 		.4byte	.LASF341
 11081 2ae4 30       		.byte	0x30
 11082 2ae5 7F01     		.2byte	0x17f
 11083 2ae7 4B350000 		.4byte	0x354b
 11084 2aeb 04       		.byte	0x4
 11085 2aec 0A       		.uleb128 0xa
 11086 2aed A3250000 		.4byte	.LASF563
 11087 2af1 30       		.byte	0x30
 11088 2af2 8301     		.2byte	0x183
 11089 2af4 DE000000 		.4byte	0xde
 11090 2af8 08       		.byte	0x8
 11091 2af9 0A       		.uleb128 0xa
 11092 2afa 75280000 		.4byte	.LASF564
 11093 2afe 30       		.byte	0x30
 11094 2aff 8701     		.2byte	0x187
 11095 2b01 DE000000 		.4byte	0xde
 11096 2b05 0A       		.byte	0xa
 11097 2b06 09       		.uleb128 0x9
 11098 2b07 65706300 		.ascii	"epc\000"
 11099 2b0b 30       		.byte	0x30
 11100 2b0c 8B01     		.2byte	0x18b
 11101 2b0e 51350000 		.4byte	0x3551
 11102 2b12 0C       		.byte	0xc
 11103 2b13 0A       		.uleb128 0xa
 11104 2b14 84090000 		.4byte	.LASF565
 11105 2b18 30       		.byte	0x30
 11106 2b19 9201     		.2byte	0x192
 11107 2b1b 67350000 		.4byte	0x3567
 11108 2b1f 1C       		.byte	0x1c
 11109 2b20 0A       		.uleb128 0xa
 11110 2b21 D10E0000 		.4byte	.LASF566
 11111 2b25 30       		.byte	0x30
 11112 2b26 9901     		.2byte	0x199
 11113 2b28 67350000 		.4byte	0x3567
 11114 2b2c 28       		.byte	0x28
 11115 2b2d 0A       		.uleb128 0xa
 11116 2b2e A2120000 		.4byte	.LASF567
 11117 2b32 30       		.byte	0x30
 11118 2b33 9D01     		.2byte	0x19d
 11119 2b35 6D2C0000 		.4byte	0x2c6d
 11120 2b39 34       		.byte	0x34
 11121 2b3a 0A       		.uleb128 0xa
 11122 2b3b AA1F0000 		.4byte	.LASF568
 11123 2b3f 30       		.byte	0x30
 11124 2b40 A101     		.2byte	0x1a1
 11125 2b42 88130000 		.4byte	0x1388
 11126 2b46 38       		.byte	0x38
 11127 2b47 0A       		.uleb128 0xa
 11128 2b48 061B0000 		.4byte	.LASF569
 11129 2b4c 30       		.byte	0x30
 11130 2b4d A501     		.2byte	0x1a5
 11131 2b4f 19010000 		.4byte	0x119
 11132 2b53 3C       		.byte	0x3c
 11133 2b54 0A       		.uleb128 0xa
 11134 2b55 C2220000 		.4byte	.LASF570
ARM GAS  C:\Users\mathi\AppData\Local\Temp\ccXNOisu.s 			page 202


 11135 2b59 30       		.byte	0x30
 11136 2b5a A901     		.2byte	0x1a9
 11137 2b5c ED2C0000 		.4byte	0x2ced
 11138 2b60 40       		.byte	0x40
 11139 2b61 0A       		.uleb128 0xa
 11140 2b62 48090000 		.4byte	.LASF571
 11141 2b66 30       		.byte	0x30
 11142 2b67 AD01     		.2byte	0x1ad
 11143 2b69 BF1A0000 		.4byte	0x1abf
 11144 2b6d 44       		.byte	0x44
 11145 2b6e 0A       		.uleb128 0xa
 11146 2b6f 7C180000 		.4byte	.LASF572
 11147 2b73 30       		.byte	0x30
 11148 2b74 B101     		.2byte	0x1b1
 11149 2b76 DE000000 		.4byte	0xde
 11150 2b7a 4C       		.byte	0x4c
 11151 2b7b 0A       		.uleb128 0xa
 11152 2b7c E0180000 		.4byte	.LASF573
 11153 2b80 30       		.byte	0x30
 11154 2b81 B501     		.2byte	0x1b5
 11155 2b83 C3000000 		.4byte	0xc3
 11156 2b87 4E       		.byte	0x4e
 11157 2b88 0A       		.uleb128 0xa
 11158 2b89 831E0000 		.4byte	.LASF574
 11159 2b8d 30       		.byte	0x30
 11160 2b8e B901     		.2byte	0x1b9
 11161 2b90 C3000000 		.4byte	0xc3
 11162 2b94 4F       		.byte	0x4f
 11163 2b95 09       		.uleb128 0x9
 11164 2b96 6F746700 		.ascii	"otg\000"
 11165 2b9a 30       		.byte	0x30
 11166 2b9b C101     		.2byte	0x1c1
 11167 2b9d 77350000 		.4byte	0x3577
 11168 2ba1 50       		.byte	0x50
 11169 2ba2 0A       		.uleb128 0xa
 11170 2ba3 8D100000 		.4byte	.LASF575
 11171 2ba7 30       		.byte	0x30
 11172 2ba8 C501     		.2byte	0x1c5
 11173 2baa 7D350000 		.4byte	0x357d
 11174 2bae 54       		.byte	0x54
 11175 2baf 0A       		.uleb128 0xa
 11176 2bb0 A21C0000 		.4byte	.LASF576
 11177 2bb4 30       		.byte	0x30
 11178 2bb5 C901     		.2byte	0x1c9
 11179 2bb7 F9000000 		.4byte	0xf9
 11180 2bbb 58       		.byte	0x58
 11181 2bbc 0A       		.uleb128 0xa
 11182 2bbd 860F0000 		.4byte	.LASF577
 11183 2bc1 30       		.byte	0x30
 11184 2bc2 CD01     		.2byte	0x1cd
 11185 2bc4 F9000000 		.4byte	0xf9
 11186 2bc8 5C       		.byte	0x5c
 11187 2bc9 0A       		.uleb128 0xa
 11188 2bca 790A0000 		.4byte	.LASF578
 11189 2bce 30       		.byte	0x30
 11190 2bcf D101     		.2byte	0x1d1
 11191 2bd1 E8020000 		.4byte	0x2e8
ARM GAS  C:\Users\mathi\AppData\Local\Temp\ccXNOisu.s 			page 203


 11192 2bd5 60       		.byte	0x60
 11193 2bd6 09       		.uleb128 0x9
 11194 2bd7 747200   		.ascii	"tr\000"
 11195 2bda 30       		.byte	0x30
 11196 2bdb D601     		.2byte	0x1d6
 11197 2bdd E8020000 		.4byte	0x2e8
 11198 2be1 64       		.byte	0x64
 11199 2be2 0A       		.uleb128 0xa
 11200 2be3 91170000 		.4byte	.LASF579
 11201 2be7 30       		.byte	0x30
 11202 2be8 DA01     		.2byte	0x1da
 11203 2bea 83350000 		.4byte	0x3583
 11204 2bee 68       		.byte	0x68
 11205 2bef 00       		.byte	0
 11206 2bf0 02       		.uleb128 0x2
 11207 2bf1 3C0C0000 		.4byte	.LASF580
 11208 2bf5 2F       		.byte	0x2f
 11209 2bf6 FF       		.byte	0xff
 11210 2bf7 C3000000 		.4byte	0xc3
 11211 2bfb 24       		.uleb128 0x24
 11212 2bfc 07       		.byte	0x7
 11213 2bfd 01       		.byte	0x1
 11214 2bfe 42000000 		.4byte	0x42
 11215 2c02 2F       		.byte	0x2f
 11216 2c03 0401     		.2byte	0x104
 11217 2c05 282C0000 		.4byte	0x2c28
 11218 2c09 22       		.uleb128 0x22
 11219 2c0a 48290000 		.4byte	.LASF581
 11220 2c0e 00       		.byte	0
 11221 2c0f 22       		.uleb128 0x22
 11222 2c10 00000000 		.4byte	.LASF582
 11223 2c14 01       		.byte	0x1
 11224 2c15 22       		.uleb128 0x22
 11225 2c16 4B160000 		.4byte	.LASF583
 11226 2c1a 02       		.byte	0x2
 11227 2c1b 22       		.uleb128 0x22
 11228 2c1c 721C0000 		.4byte	.LASF584
 11229 2c20 03       		.byte	0x3
 11230 2c21 22       		.uleb128 0x22
 11231 2c22 910A0000 		.4byte	.LASF585
 11232 2c26 04       		.byte	0x4
 11233 2c27 00       		.byte	0
 11234 2c28 1A       		.uleb128 0x1a
 11235 2c29 9B2A0000 		.4byte	.LASF586
 11236 2c2d 2F       		.byte	0x2f
 11237 2c2e 0A01     		.2byte	0x10a
 11238 2c30 FB2B0000 		.4byte	0x2bfb
 11239 2c34 24       		.uleb128 0x24
 11240 2c35 07       		.byte	0x7
 11241 2c36 01       		.byte	0x1
 11242 2c37 42000000 		.4byte	0x42
 11243 2c3b 2F       		.byte	0x2f
 11244 2c3c 1801     		.2byte	0x118
 11245 2c3e 6D2C0000 		.4byte	0x2c6d
 11246 2c42 22       		.uleb128 0x22
 11247 2c43 8D220000 		.4byte	.LASF587
 11248 2c47 00       		.byte	0
ARM GAS  C:\Users\mathi\AppData\Local\Temp\ccXNOisu.s 			page 204


 11249 2c48 22       		.uleb128 0x22
 11250 2c49 97120000 		.4byte	.LASF588
 11251 2c4d 01       		.byte	0x1
 11252 2c4e 22       		.uleb128 0x22
 11253 2c4f 961F0000 		.4byte	.LASF589
 11254 2c53 02       		.byte	0x2
 11255 2c54 22       		.uleb128 0x22
 11256 2c55 A9190000 		.4byte	.LASF590
 11257 2c59 03       		.byte	0x3
 11258 2c5a 22       		.uleb128 0x22
 11259 2c5b 67180000 		.4byte	.LASF591
 11260 2c5f 04       		.byte	0x4
 11261 2c60 22       		.uleb128 0x22
 11262 2c61 C4130000 		.4byte	.LASF592
 11263 2c65 05       		.byte	0x5
 11264 2c66 22       		.uleb128 0x22
 11265 2c67 F6110000 		.4byte	.LASF593
 11266 2c6b 06       		.byte	0x6
 11267 2c6c 00       		.byte	0
 11268 2c6d 1A       		.uleb128 0x1a
 11269 2c6e 2E140000 		.4byte	.LASF594
 11270 2c72 2F       		.byte	0x2f
 11271 2c73 2001     		.2byte	0x120
 11272 2c75 342C0000 		.4byte	0x2c34
 11273 2c79 24       		.uleb128 0x24
 11274 2c7a 07       		.byte	0x7
 11275 2c7b 01       		.byte	0x1
 11276 2c7c 42000000 		.4byte	0x42
 11277 2c80 2F       		.byte	0x2f
 11278 2c81 2501     		.2byte	0x125
 11279 2c83 AC2C0000 		.4byte	0x2cac
 11280 2c87 22       		.uleb128 0x22
 11281 2c88 CD210000 		.4byte	.LASF595
 11282 2c8c 00       		.byte	0
 11283 2c8d 22       		.uleb128 0x22
 11284 2c8e FC1C0000 		.4byte	.LASF596
 11285 2c92 01       		.byte	0x1
 11286 2c93 22       		.uleb128 0x22
 11287 2c94 F8160000 		.4byte	.LASF597
 11288 2c98 02       		.byte	0x2
 11289 2c99 22       		.uleb128 0x22
 11290 2c9a DD170000 		.4byte	.LASF598
 11291 2c9e 03       		.byte	0x3
 11292 2c9f 22       		.uleb128 0x22
 11293 2ca0 BE270000 		.4byte	.LASF599
 11294 2ca4 04       		.byte	0x4
 11295 2ca5 22       		.uleb128 0x22
 11296 2ca6 BC160000 		.4byte	.LASF600
 11297 2caa 05       		.byte	0x5
 11298 2cab 00       		.byte	0
 11299 2cac 1A       		.uleb128 0x1a
 11300 2cad 2B1D0000 		.4byte	.LASF601
 11301 2cb1 2F       		.byte	0x2f
 11302 2cb2 2C01     		.2byte	0x12c
 11303 2cb4 792C0000 		.4byte	0x2c79
 11304 2cb8 19       		.uleb128 0x19
 11305 2cb9 08       		.byte	0x8
ARM GAS  C:\Users\mathi\AppData\Local\Temp\ccXNOisu.s 			page 205


 11306 2cba 2F       		.byte	0x2f
 11307 2cbb 3101     		.2byte	0x131
 11308 2cbd DC2C0000 		.4byte	0x2cdc
 11309 2cc1 0A       		.uleb128 0xa
 11310 2cc2 0F2A0000 		.4byte	.LASF602
 11311 2cc6 2F       		.byte	0x2f
 11312 2cc7 3501     		.2byte	0x135
 11313 2cc9 19010000 		.4byte	0x119
 11314 2ccd 00       		.byte	0
 11315 2cce 0A       		.uleb128 0xa
 11316 2ccf D5060000 		.4byte	.LASF603
 11317 2cd3 2F       		.byte	0x2f
 11318 2cd4 3901     		.2byte	0x139
 11319 2cd6 BD130000 		.4byte	0x13bd
 11320 2cda 04       		.byte	0x4
 11321 2cdb 00       		.byte	0
 11322 2cdc 1A       		.uleb128 0x1a
 11323 2cdd A2180000 		.4byte	.LASF604
 11324 2ce1 2F       		.byte	0x2f
 11325 2ce2 3A01     		.2byte	0x13a
 11326 2ce4 B82C0000 		.4byte	0x2cb8
 11327 2ce8 05       		.uleb128 0x5
 11328 2ce9 DC2C0000 		.4byte	0x2cdc
 11329 2ced 1A       		.uleb128 0x1a
 11330 2cee 98290000 		.4byte	.LASF605
 11331 2cf2 2F       		.byte	0x2f
 11332 2cf3 4201     		.2byte	0x142
 11333 2cf5 F92C0000 		.4byte	0x2cf9
 11334 2cf9 0B       		.uleb128 0xb
 11335 2cfa 04       		.byte	0x4
 11336 2cfb FF2C0000 		.4byte	0x2cff
 11337 2cff 0D       		.uleb128 0xd
 11338 2d00 0A2D0000 		.4byte	0x2d0a
 11339 2d04 0E       		.uleb128 0xe
 11340 2d05 0A2D0000 		.4byte	0x2d0a
 11341 2d09 00       		.byte	0
 11342 2d0a 0B       		.uleb128 0xb
 11343 2d0b 04       		.byte	0x4
 11344 2d0c B92A0000 		.4byte	0x2ab9
 11345 2d10 1A       		.uleb128 0x1a
 11346 2d11 26070000 		.4byte	.LASF606
 11347 2d15 2F       		.byte	0x2f
 11348 2d16 4B01     		.2byte	0x14b
 11349 2d18 1C2D0000 		.4byte	0x2d1c
 11350 2d1c 0B       		.uleb128 0xb
 11351 2d1d 04       		.byte	0x4
 11352 2d1e 222D0000 		.4byte	0x2d22
 11353 2d22 0D       		.uleb128 0xd
 11354 2d23 322D0000 		.4byte	0x2d32
 11355 2d27 0E       		.uleb128 0xe
 11356 2d28 0A2D0000 		.4byte	0x2d0a
 11357 2d2c 0E       		.uleb128 0xe
 11358 2d2d F02B0000 		.4byte	0x2bf0
 11359 2d31 00       		.byte	0
 11360 2d32 1A       		.uleb128 0x1a
 11361 2d33 8F0D0000 		.4byte	.LASF607
 11362 2d37 2F       		.byte	0x2f
ARM GAS  C:\Users\mathi\AppData\Local\Temp\ccXNOisu.s 			page 206


 11363 2d38 5401     		.2byte	0x154
 11364 2d3a 3E2D0000 		.4byte	0x2d3e
 11365 2d3e 0B       		.uleb128 0xb
 11366 2d3f 04       		.byte	0x4
 11367 2d40 442D0000 		.4byte	0x2d44
 11368 2d44 0D       		.uleb128 0xd
 11369 2d45 542D0000 		.4byte	0x2d54
 11370 2d49 0E       		.uleb128 0xe
 11371 2d4a 0A2D0000 		.4byte	0x2d0a
 11372 2d4e 0E       		.uleb128 0xe
 11373 2d4f AC2C0000 		.4byte	0x2cac
 11374 2d53 00       		.byte	0
 11375 2d54 1A       		.uleb128 0x1a
 11376 2d55 90080000 		.4byte	.LASF608
 11377 2d59 2F       		.byte	0x2f
 11378 2d5a 6001     		.2byte	0x160
 11379 2d5c 602D0000 		.4byte	0x2d60
 11380 2d60 0B       		.uleb128 0xb
 11381 2d61 04       		.byte	0x4
 11382 2d62 662D0000 		.4byte	0x2d66
 11383 2d66 20       		.uleb128 0x20
 11384 2d67 A4150000 		.4byte	0x15a4
 11385 2d6b 752D0000 		.4byte	0x2d75
 11386 2d6f 0E       		.uleb128 0xe
 11387 2d70 0A2D0000 		.4byte	0x2d0a
 11388 2d74 00       		.byte	0
 11389 2d75 1A       		.uleb128 0x1a
 11390 2d76 66120000 		.4byte	.LASF609
 11391 2d7a 2F       		.byte	0x2f
 11392 2d7b 6501     		.2byte	0x165
 11393 2d7d 812D0000 		.4byte	0x2d81
 11394 2d81 0B       		.uleb128 0xb
 11395 2d82 04       		.byte	0x4
 11396 2d83 872D0000 		.4byte	0x2d87
 11397 2d87 20       		.uleb128 0x20
 11398 2d88 A52D0000 		.4byte	0x2da5
 11399 2d8c A52D0000 		.4byte	0x2da5
 11400 2d90 0E       		.uleb128 0xe
 11401 2d91 0A2D0000 		.4byte	0x2d0a
 11402 2d95 0E       		.uleb128 0xe
 11403 2d96 C3000000 		.4byte	0xc3
 11404 2d9a 0E       		.uleb128 0xe
 11405 2d9b C3000000 		.4byte	0xc3
 11406 2d9f 0E       		.uleb128 0xe
 11407 2da0 DE000000 		.4byte	0xde
 11408 2da4 00       		.byte	0
 11409 2da5 0B       		.uleb128 0xb
 11410 2da6 04       		.byte	0x4
 11411 2da7 E82C0000 		.4byte	0x2ce8
 11412 2dab 17       		.uleb128 0x17
 11413 2dac 20       		.byte	0x20
 11414 2dad 31       		.byte	0x31
 11415 2dae 35       		.byte	0x35
 11416 2daf 142E0000 		.4byte	0x2e14
 11417 2db3 08       		.uleb128 0x8
 11418 2db4 52050000 		.4byte	.LASF610
 11419 2db8 31       		.byte	0x31
ARM GAS  C:\Users\mathi\AppData\Local\Temp\ccXNOisu.s 			page 207


 11420 2db9 36       		.byte	0x36
 11421 2dba 04010000 		.4byte	0x104
 11422 2dbe 00       		.byte	0
 11423 2dbf 08       		.uleb128 0x8
 11424 2dc0 CB0F0000 		.4byte	.LASF611
 11425 2dc4 31       		.byte	0x31
 11426 2dc5 38       		.byte	0x38
 11427 2dc6 04010000 		.4byte	0x104
 11428 2dca 04       		.byte	0x4
 11429 2dcb 08       		.uleb128 0x8
 11430 2dcc AC040000 		.4byte	.LASF612
 11431 2dd0 31       		.byte	0x31
 11432 2dd1 39       		.byte	0x39
 11433 2dd2 04010000 		.4byte	0x104
 11434 2dd6 08       		.byte	0x8
 11435 2dd7 08       		.uleb128 0x8
 11436 2dd8 10200000 		.4byte	.LASF613
 11437 2ddc 31       		.byte	0x31
 11438 2ddd 3A       		.byte	0x3a
 11439 2dde 04010000 		.4byte	0x104
 11440 2de2 0C       		.byte	0xc
 11441 2de3 08       		.uleb128 0x8
 11442 2de4 F1160000 		.4byte	.LASF614
 11443 2de8 31       		.byte	0x31
 11444 2de9 3C       		.byte	0x3c
 11445 2dea 04010000 		.4byte	0x104
 11446 2dee 10       		.byte	0x10
 11447 2def 08       		.uleb128 0x8
 11448 2df0 1C100000 		.4byte	.LASF615
 11449 2df4 31       		.byte	0x31
 11450 2df5 3E       		.byte	0x3e
 11451 2df6 04010000 		.4byte	0x104
 11452 2dfa 14       		.byte	0x14
 11453 2dfb 08       		.uleb128 0x8
 11454 2dfc 24100000 		.4byte	.LASF616
 11455 2e00 31       		.byte	0x31
 11456 2e01 3F       		.byte	0x3f
 11457 2e02 04010000 		.4byte	0x104
 11458 2e06 18       		.byte	0x18
 11459 2e07 08       		.uleb128 0x8
 11460 2e08 30060000 		.4byte	.LASF617
 11461 2e0c 31       		.byte	0x31
 11462 2e0d 40       		.byte	0x40
 11463 2e0e 04010000 		.4byte	0x104
 11464 2e12 1C       		.byte	0x1c
 11465 2e13 00       		.byte	0
 11466 2e14 02       		.uleb128 0x2
 11467 2e15 B21F0000 		.4byte	.LASF618
 11468 2e19 31       		.byte	0x31
 11469 2e1a 41       		.byte	0x41
 11470 2e1b AB2D0000 		.4byte	0x2dab
 11471 2e1f 17       		.uleb128 0x17
 11472 2e20 20       		.byte	0x20
 11473 2e21 31       		.byte	0x31
 11474 2e22 46       		.byte	0x46
 11475 2e23 882E0000 		.4byte	0x2e88
 11476 2e27 08       		.uleb128 0x8
ARM GAS  C:\Users\mathi\AppData\Local\Temp\ccXNOisu.s 			page 208


 11477 2e28 7B100000 		.4byte	.LASF619
 11478 2e2c 31       		.byte	0x31
 11479 2e2d 47       		.byte	0x47
 11480 2e2e 04010000 		.4byte	0x104
 11481 2e32 00       		.byte	0
 11482 2e33 08       		.uleb128 0x8
 11483 2e34 82140000 		.4byte	.LASF620
 11484 2e38 31       		.byte	0x31
 11485 2e39 49       		.byte	0x49
 11486 2e3a 04010000 		.4byte	0x104
 11487 2e3e 04       		.byte	0x4
 11488 2e3f 08       		.uleb128 0x8
 11489 2e40 B5240000 		.4byte	.LASF621
 11490 2e44 31       		.byte	0x31
 11491 2e45 4A       		.byte	0x4a
 11492 2e46 04010000 		.4byte	0x104
 11493 2e4a 08       		.byte	0x8
 11494 2e4b 08       		.uleb128 0x8
 11495 2e4c A6140000 		.4byte	.LASF622
 11496 2e50 31       		.byte	0x31
 11497 2e51 4C       		.byte	0x4c
 11498 2e52 04010000 		.4byte	0x104
 11499 2e56 0C       		.byte	0xc
 11500 2e57 08       		.uleb128 0x8
 11501 2e58 821A0000 		.4byte	.LASF623
 11502 2e5c 31       		.byte	0x31
 11503 2e5d 4D       		.byte	0x4d
 11504 2e5e 04010000 		.4byte	0x104
 11505 2e62 10       		.byte	0x10
 11506 2e63 08       		.uleb128 0x8
 11507 2e64 1C100000 		.4byte	.LASF615
 11508 2e68 31       		.byte	0x31
 11509 2e69 4F       		.byte	0x4f
 11510 2e6a 04010000 		.4byte	0x104
 11511 2e6e 14       		.byte	0x14
 11512 2e6f 08       		.uleb128 0x8
 11513 2e70 65090000 		.4byte	.LASF624
 11514 2e74 31       		.byte	0x31
 11515 2e75 50       		.byte	0x50
 11516 2e76 04010000 		.4byte	0x104
 11517 2e7a 18       		.byte	0x18
 11518 2e7b 08       		.uleb128 0x8
 11519 2e7c 9E240000 		.4byte	.LASF625
 11520 2e80 31       		.byte	0x31
 11521 2e81 52       		.byte	0x52
 11522 2e82 04010000 		.4byte	0x104
 11523 2e86 1C       		.byte	0x1c
 11524 2e87 00       		.byte	0
 11525 2e88 02       		.uleb128 0x2
 11526 2e89 A50A0000 		.4byte	.LASF626
 11527 2e8d 31       		.byte	0x31
 11528 2e8e 53       		.byte	0x53
 11529 2e8f 1F2E0000 		.4byte	0x2e1f
 11530 2e93 17       		.uleb128 0x17
 11531 2e94 20       		.byte	0x20
 11532 2e95 31       		.byte	0x31
 11533 2e96 58       		.byte	0x58
ARM GAS  C:\Users\mathi\AppData\Local\Temp\ccXNOisu.s 			page 209


 11534 2e97 FC2E0000 		.4byte	0x2efc
 11535 2e9b 08       		.uleb128 0x8
 11536 2e9c 08200000 		.4byte	.LASF627
 11537 2ea0 31       		.byte	0x31
 11538 2ea1 59       		.byte	0x59
 11539 2ea2 04010000 		.4byte	0x104
 11540 2ea6 00       		.byte	0
 11541 2ea7 08       		.uleb128 0x8
 11542 2ea8 82140000 		.4byte	.LASF620
 11543 2eac 31       		.byte	0x31
 11544 2ead 5B       		.byte	0x5b
 11545 2eae 04010000 		.4byte	0x104
 11546 2eb2 04       		.byte	0x4
 11547 2eb3 08       		.uleb128 0x8
 11548 2eb4 D91B0000 		.4byte	.LASF628
 11549 2eb8 31       		.byte	0x31
 11550 2eb9 5C       		.byte	0x5c
 11551 2eba 04010000 		.4byte	0x104
 11552 2ebe 08       		.byte	0x8
 11553 2ebf 08       		.uleb128 0x8
 11554 2ec0 A6140000 		.4byte	.LASF622
 11555 2ec4 31       		.byte	0x31
 11556 2ec5 5E       		.byte	0x5e
 11557 2ec6 04010000 		.4byte	0x104
 11558 2eca 0C       		.byte	0xc
 11559 2ecb 08       		.uleb128 0x8
 11560 2ecc 08260000 		.4byte	.LASF629
 11561 2ed0 31       		.byte	0x31
 11562 2ed1 5F       		.byte	0x5f
 11563 2ed2 04010000 		.4byte	0x104
 11564 2ed6 10       		.byte	0x10
 11565 2ed7 08       		.uleb128 0x8
 11566 2ed8 1C100000 		.4byte	.LASF615
 11567 2edc 31       		.byte	0x31
 11568 2edd 61       		.byte	0x61
 11569 2ede 04010000 		.4byte	0x104
 11570 2ee2 14       		.byte	0x14
 11571 2ee3 08       		.uleb128 0x8
 11572 2ee4 24100000 		.4byte	.LASF616
 11573 2ee8 31       		.byte	0x31
 11574 2ee9 62       		.byte	0x62
 11575 2eea 04010000 		.4byte	0x104
 11576 2eee 18       		.byte	0x18
 11577 2eef 08       		.uleb128 0x8
 11578 2ef0 9E240000 		.4byte	.LASF625
 11579 2ef4 31       		.byte	0x31
 11580 2ef5 63       		.byte	0x63
 11581 2ef6 04010000 		.4byte	0x104
 11582 2efa 1C       		.byte	0x1c
 11583 2efb 00       		.byte	0
 11584 2efc 02       		.uleb128 0x2
 11585 2efd 400A0000 		.4byte	.LASF630
 11586 2f01 31       		.byte	0x31
 11587 2f02 64       		.byte	0x64
 11588 2f03 932E0000 		.4byte	0x2e93
 11589 2f07 26       		.uleb128 0x26
 11590 2f08 00100100 		.4byte	0x11000
ARM GAS  C:\Users\mathi\AppData\Local\Temp\ccXNOisu.s 			page 210


 11591 2f0c 31       		.byte	0x31
 11592 2f0d 69       		.byte	0x69
 11593 2f0e E4310000 		.4byte	0x31e4
 11594 2f12 08       		.uleb128 0x8
 11595 2f13 1E070000 		.4byte	.LASF631
 11596 2f17 31       		.byte	0x31
 11597 2f18 6A       		.byte	0x6a
 11598 2f19 04010000 		.4byte	0x104
 11599 2f1d 00       		.byte	0
 11600 2f1e 08       		.uleb128 0x8
 11601 2f1f B40E0000 		.4byte	.LASF632
 11602 2f23 31       		.byte	0x31
 11603 2f24 6B       		.byte	0x6b
 11604 2f25 04010000 		.4byte	0x104
 11605 2f29 04       		.byte	0x4
 11606 2f2a 08       		.uleb128 0x8
 11607 2f2b BD090000 		.4byte	.LASF633
 11608 2f2f 31       		.byte	0x31
 11609 2f30 6C       		.byte	0x6c
 11610 2f31 04010000 		.4byte	0x104
 11611 2f35 08       		.byte	0x8
 11612 2f36 08       		.uleb128 0x8
 11613 2f37 AC290000 		.4byte	.LASF634
 11614 2f3b 31       		.byte	0x31
 11615 2f3c 6D       		.byte	0x6d
 11616 2f3d 04010000 		.4byte	0x104
 11617 2f41 0C       		.byte	0xc
 11618 2f42 08       		.uleb128 0x8
 11619 2f43 64160000 		.4byte	.LASF635
 11620 2f47 31       		.byte	0x31
 11621 2f48 6E       		.byte	0x6e
 11622 2f49 04010000 		.4byte	0x104
 11623 2f4d 10       		.byte	0x10
 11624 2f4e 08       		.uleb128 0x8
 11625 2f4f 370E0000 		.4byte	.LASF636
 11626 2f53 31       		.byte	0x31
 11627 2f54 6F       		.byte	0x6f
 11628 2f55 04010000 		.4byte	0x104
 11629 2f59 14       		.byte	0x14
 11630 2f5a 08       		.uleb128 0x8
 11631 2f5b 721E0000 		.4byte	.LASF637
 11632 2f5f 31       		.byte	0x31
 11633 2f60 70       		.byte	0x70
 11634 2f61 04010000 		.4byte	0x104
 11635 2f65 18       		.byte	0x18
 11636 2f66 08       		.uleb128 0x8
 11637 2f67 5B0A0000 		.4byte	.LASF638
 11638 2f6b 31       		.byte	0x31
 11639 2f6c 71       		.byte	0x71
 11640 2f6d 04010000 		.4byte	0x104
 11641 2f71 1C       		.byte	0x1c
 11642 2f72 08       		.uleb128 0x8
 11643 2f73 530A0000 		.4byte	.LASF639
 11644 2f77 31       		.byte	0x31
 11645 2f78 73       		.byte	0x73
 11646 2f79 04010000 		.4byte	0x104
 11647 2f7d 20       		.byte	0x20
ARM GAS  C:\Users\mathi\AppData\Local\Temp\ccXNOisu.s 			page 211


 11648 2f7e 08       		.uleb128 0x8
 11649 2f7f ED1D0000 		.4byte	.LASF640
 11650 2f83 31       		.byte	0x31
 11651 2f84 75       		.byte	0x75
 11652 2f85 04010000 		.4byte	0x104
 11653 2f89 24       		.byte	0x24
 11654 2f8a 08       		.uleb128 0x8
 11655 2f8b 0F010000 		.4byte	.LASF641
 11656 2f8f 31       		.byte	0x31
 11657 2f90 76       		.byte	0x76
 11658 2f91 04010000 		.4byte	0x104
 11659 2f95 28       		.byte	0x28
 11660 2f96 08       		.uleb128 0x8
 11661 2f97 7A1E0000 		.4byte	.LASF642
 11662 2f9b 31       		.byte	0x31
 11663 2f9c 78       		.byte	0x78
 11664 2f9d 04010000 		.4byte	0x104
 11665 2fa1 2C       		.byte	0x2c
 11666 2fa2 08       		.uleb128 0x8
 11667 2fa3 AB110000 		.4byte	.LASF643
 11668 2fa7 31       		.byte	0x31
 11669 2fa8 7A       		.byte	0x7a
 11670 2fa9 04010000 		.4byte	0x104
 11671 2fad 30       		.byte	0x30
 11672 2fae 08       		.uleb128 0x8
 11673 2faf BA110000 		.4byte	.LASF644
 11674 2fb3 31       		.byte	0x31
 11675 2fb4 7B       		.byte	0x7b
 11676 2fb5 04010000 		.4byte	0x104
 11677 2fb9 34       		.byte	0x34
 11678 2fba 08       		.uleb128 0x8
 11679 2fbb B0030000 		.4byte	.LASF645
 11680 2fbf 31       		.byte	0x31
 11681 2fc0 7C       		.byte	0x7c
 11682 2fc1 04010000 		.4byte	0x104
 11683 2fc5 38       		.byte	0x38
 11684 2fc6 18       		.uleb128 0x18
 11685 2fc7 43494400 		.ascii	"CID\000"
 11686 2fcb 31       		.byte	0x31
 11687 2fcc 7D       		.byte	0x7d
 11688 2fcd 04010000 		.4byte	0x104
 11689 2fd1 3C       		.byte	0x3c
 11690 2fd2 08       		.uleb128 0x8
 11691 2fd3 4B130000 		.4byte	.LASF646
 11692 2fd7 31       		.byte	0x31
 11693 2fd8 7E       		.byte	0x7e
 11694 2fd9 F4310000 		.4byte	0x31f4
 11695 2fdd 40       		.byte	0x40
 11696 2fde 27       		.uleb128 0x27
 11697 2fdf D1260000 		.4byte	.LASF647
 11698 2fe3 31       		.byte	0x31
 11699 2fe4 7F       		.byte	0x7f
 11700 2fe5 04010000 		.4byte	0x104
 11701 2fe9 0001     		.2byte	0x100
 11702 2feb 27       		.uleb128 0x27
 11703 2fec 2D040000 		.4byte	.LASF648
 11704 2ff0 31       		.byte	0x31
ARM GAS  C:\Users\mathi\AppData\Local\Temp\ccXNOisu.s 			page 212


 11705 2ff1 81       		.byte	0x81
 11706 2ff2 840D0000 		.4byte	0xd84
 11707 2ff6 0401     		.2byte	0x104
 11708 2ff8 27       		.uleb128 0x27
 11709 2ff9 B0170000 		.4byte	.LASF649
 11710 2ffd 31       		.byte	0x31
 11711 2ffe 83       		.byte	0x83
 11712 2fff 09320000 		.4byte	0x3209
 11713 3003 4001     		.2byte	0x140
 11714 3005 27       		.uleb128 0x27
 11715 3006 731B0000 		.4byte	.LASF650
 11716 300a 31       		.byte	0x31
 11717 300b 84       		.byte	0x84
 11718 300c 04010000 		.4byte	0x104
 11719 3010 0004     		.2byte	0x400
 11720 3012 27       		.uleb128 0x27
 11721 3013 38290000 		.4byte	.LASF651
 11722 3017 31       		.byte	0x31
 11723 3018 85       		.byte	0x85
 11724 3019 04010000 		.4byte	0x104
 11725 301d 0404     		.2byte	0x404
 11726 301f 27       		.uleb128 0x27
 11727 3020 6E060000 		.4byte	.LASF652
 11728 3024 31       		.byte	0x31
 11729 3025 86       		.byte	0x86
 11730 3026 04010000 		.4byte	0x104
 11731 302a 0804     		.2byte	0x408
 11732 302c 27       		.uleb128 0x27
 11733 302d 3F260000 		.4byte	.LASF653
 11734 3031 31       		.byte	0x31
 11735 3032 88       		.byte	0x88
 11736 3033 04010000 		.4byte	0x104
 11737 3037 0C04     		.2byte	0x40c
 11738 3039 27       		.uleb128 0x27
 11739 303a 22050000 		.4byte	.LASF654
 11740 303e 31       		.byte	0x31
 11741 303f 89       		.byte	0x89
 11742 3040 04010000 		.4byte	0x104
 11743 3044 1004     		.2byte	0x410
 11744 3046 27       		.uleb128 0x27
 11745 3047 4F060000 		.4byte	.LASF655
 11746 304b 31       		.byte	0x31
 11747 304c 8B       		.byte	0x8b
 11748 304d 04010000 		.4byte	0x104
 11749 3051 1404     		.2byte	0x414
 11750 3053 27       		.uleb128 0x27
 11751 3054 C80E0000 		.4byte	.LASF656
 11752 3058 31       		.byte	0x31
 11753 3059 8D       		.byte	0x8d
 11754 305a 04010000 		.4byte	0x104
 11755 305e 1804     		.2byte	0x418
 11756 3060 27       		.uleb128 0x27
 11757 3061 90210000 		.4byte	.LASF657
 11758 3065 31       		.byte	0x31
 11759 3066 8F       		.byte	0x8f
 11760 3067 1E320000 		.4byte	0x321e
 11761 306b 1C04     		.2byte	0x41c
ARM GAS  C:\Users\mathi\AppData\Local\Temp\ccXNOisu.s 			page 213


 11762 306d 27       		.uleb128 0x27
 11763 306e 9A040000 		.4byte	.LASF658
 11764 3072 31       		.byte	0x31
 11765 3073 90       		.byte	0x90
 11766 3074 04010000 		.4byte	0x104
 11767 3078 4004     		.2byte	0x440
 11768 307a 27       		.uleb128 0x27
 11769 307b A6230000 		.4byte	.LASF659
 11770 307f 31       		.byte	0x31
 11771 3080 92       		.byte	0x92
 11772 3081 33320000 		.4byte	0x3233
 11773 3085 4404     		.2byte	0x444
 11774 3087 28       		.uleb128 0x28
 11775 3088 686300   		.ascii	"hc\000"
 11776 308b 31       		.byte	0x31
 11777 308c 93       		.byte	0x93
 11778 308d 38320000 		.4byte	0x3238
 11779 3091 0005     		.2byte	0x500
 11780 3093 27       		.uleb128 0x27
 11781 3094 7E260000 		.4byte	.LASF660
 11782 3098 31       		.byte	0x31
 11783 3099 94       		.byte	0x94
 11784 309a 58320000 		.4byte	0x3258
 11785 309e 0007     		.2byte	0x700
 11786 30a0 27       		.uleb128 0x27
 11787 30a1 5C1E0000 		.4byte	.LASF661
 11788 30a5 31       		.byte	0x31
 11789 30a6 95       		.byte	0x95
 11790 30a7 04010000 		.4byte	0x104
 11791 30ab 0008     		.2byte	0x800
 11792 30ad 27       		.uleb128 0x27
 11793 30ae 9E270000 		.4byte	.LASF662
 11794 30b2 31       		.byte	0x31
 11795 30b3 96       		.byte	0x96
 11796 30b4 04010000 		.4byte	0x104
 11797 30b8 0408     		.2byte	0x804
 11798 30ba 27       		.uleb128 0x27
 11799 30bb E3070000 		.4byte	.LASF663
 11800 30bf 31       		.byte	0x31
 11801 30c0 97       		.byte	0x97
 11802 30c1 04010000 		.4byte	0x104
 11803 30c5 0808     		.2byte	0x808
 11804 30c7 27       		.uleb128 0x27
 11805 30c8 07070000 		.4byte	.LASF664
 11806 30cc 31       		.byte	0x31
 11807 30cd 98       		.byte	0x98
 11808 30ce 04010000 		.4byte	0x104
 11809 30d2 0C08     		.2byte	0x80c
 11810 30d4 27       		.uleb128 0x27
 11811 30d5 AC0E0000 		.4byte	.LASF665
 11812 30d9 31       		.byte	0x31
 11813 30da 99       		.byte	0x99
 11814 30db 04010000 		.4byte	0x104
 11815 30df 1008     		.2byte	0x810
 11816 30e1 27       		.uleb128 0x27
 11817 30e2 D6240000 		.4byte	.LASF666
 11818 30e6 31       		.byte	0x31
ARM GAS  C:\Users\mathi\AppData\Local\Temp\ccXNOisu.s 			page 214


 11819 30e7 9B       		.byte	0x9b
 11820 30e8 04010000 		.4byte	0x104
 11821 30ec 1408     		.2byte	0x814
 11822 30ee 27       		.uleb128 0x27
 11823 30ef 5C250000 		.4byte	.LASF667
 11824 30f3 31       		.byte	0x31
 11825 30f4 9D       		.byte	0x9d
 11826 30f5 04010000 		.4byte	0x104
 11827 30f9 1808     		.2byte	0x818
 11828 30fb 27       		.uleb128 0x27
 11829 30fc 47220000 		.4byte	.LASF668
 11830 3100 31       		.byte	0x31
 11831 3101 9F       		.byte	0x9f
 11832 3102 04010000 		.4byte	0x104
 11833 3106 1C08     		.2byte	0x81c
 11834 3108 27       		.uleb128 0x27
 11835 3109 56080000 		.4byte	.LASF669
 11836 310d 31       		.byte	0x31
 11837 310e A1       		.byte	0xa1
 11838 310f 04010000 		.4byte	0x104
 11839 3113 2008     		.2byte	0x820
 11840 3115 27       		.uleb128 0x27
 11841 3116 4D070000 		.4byte	.LASF670
 11842 311a 31       		.byte	0x31
 11843 311b A2       		.byte	0xa2
 11844 311c 04010000 		.4byte	0x104
 11845 3120 2408     		.2byte	0x824
 11846 3122 27       		.uleb128 0x27
 11847 3123 691E0000 		.4byte	.LASF671
 11848 3127 31       		.byte	0x31
 11849 3128 A3       		.byte	0xa3
 11850 3129 04010000 		.4byte	0x104
 11851 312d 2808     		.2byte	0x828
 11852 312f 27       		.uleb128 0x27
 11853 3130 C2110000 		.4byte	.LASF672
 11854 3134 31       		.byte	0x31
 11855 3135 A5       		.byte	0xa5
 11856 3136 04010000 		.4byte	0x104
 11857 313a 2C08     		.2byte	0x82c
 11858 313c 27       		.uleb128 0x27
 11859 313d E9080000 		.4byte	.LASF673
 11860 3141 31       		.byte	0x31
 11861 3142 A7       		.byte	0xa7
 11862 3143 04010000 		.4byte	0x104
 11863 3147 3008     		.2byte	0x830
 11864 3149 27       		.uleb128 0x27
 11865 314a 61100000 		.4byte	.LASF674
 11866 314e 31       		.byte	0x31
 11867 314f A8       		.byte	0xa8
 11868 3150 04010000 		.4byte	0x104
 11869 3154 3408     		.2byte	0x834
 11870 3156 27       		.uleb128 0x27
 11871 3157 FC080000 		.4byte	.LASF675
 11872 315b 31       		.byte	0x31
 11873 315c AA       		.byte	0xaa
 11874 315d 04010000 		.4byte	0x104
 11875 3161 3808     		.2byte	0x838
ARM GAS  C:\Users\mathi\AppData\Local\Temp\ccXNOisu.s 			page 215


 11876 3163 27       		.uleb128 0x27
 11877 3164 1B090000 		.4byte	.LASF676
 11878 3168 31       		.byte	0x31
 11879 3169 AB       		.byte	0xab
 11880 316a 04010000 		.4byte	0x104
 11881 316e 3C08     		.2byte	0x83c
 11882 3170 27       		.uleb128 0x27
 11883 3171 DB090000 		.4byte	.LASF677
 11884 3175 31       		.byte	0x31
 11885 3176 AC       		.byte	0xac
 11886 3177 6D320000 		.4byte	0x326d
 11887 317b 4008     		.2byte	0x840
 11888 317d 27       		.uleb128 0x27
 11889 317e E60F0000 		.4byte	.LASF678
 11890 3182 31       		.byte	0x31
 11891 3183 AD       		.byte	0xad
 11892 3184 6D320000 		.4byte	0x326d
 11893 3188 8008     		.2byte	0x880
 11894 318a 27       		.uleb128 0x27
 11895 318b 93140000 		.4byte	.LASF679
 11896 318f 31       		.byte	0x31
 11897 3190 AE       		.byte	0xae
 11898 3191 6D320000 		.4byte	0x326d
 11899 3195 C008     		.2byte	0x8c0
 11900 3197 28       		.uleb128 0x28
 11901 3198 696500   		.ascii	"ie\000"
 11902 319b 31       		.byte	0x31
 11903 319c AF       		.byte	0xaf
 11904 319d 72320000 		.4byte	0x3272
 11905 31a1 0009     		.2byte	0x900
 11906 31a3 28       		.uleb128 0x28
 11907 31a4 6F6500   		.ascii	"oe\000"
 11908 31a7 31       		.byte	0x31
 11909 31a8 B0       		.byte	0xb0
 11910 31a9 82320000 		.4byte	0x3282
 11911 31ad 000B     		.2byte	0xb00
 11912 31af 27       		.uleb128 0x27
 11913 31b0 140E0000 		.4byte	.LASF680
 11914 31b4 31       		.byte	0x31
 11915 31b5 B1       		.byte	0xb1
 11916 31b6 58320000 		.4byte	0x3258
 11917 31ba 000D     		.2byte	0xd00
 11918 31bc 27       		.uleb128 0x27
 11919 31bd B6270000 		.4byte	.LASF681
 11920 31c1 31       		.byte	0x31
 11921 31c2 B2       		.byte	0xb2
 11922 31c3 04010000 		.4byte	0x104
 11923 31c7 000E     		.2byte	0xe00
 11924 31c9 27       		.uleb128 0x27
 11925 31ca 0B1B0000 		.4byte	.LASF682
 11926 31ce 31       		.byte	0x31
 11927 31cf B4       		.byte	0xb4
 11928 31d0 A2320000 		.4byte	0x32a2
 11929 31d4 040E     		.2byte	0xe04
 11930 31d6 27       		.uleb128 0x27
 11931 31d7 D90B0000 		.4byte	.LASF182
 11932 31db 31       		.byte	0x31
ARM GAS  C:\Users\mathi\AppData\Local\Temp\ccXNOisu.s 			page 216


 11933 31dc B5       		.byte	0xb5
 11934 31dd BE320000 		.4byte	0x32be
 11935 31e1 0010     		.2byte	0x1000
 11936 31e3 00       		.byte	0
 11937 31e4 13       		.uleb128 0x13
 11938 31e5 04010000 		.4byte	0x104
 11939 31e9 F4310000 		.4byte	0x31f4
 11940 31ed 14       		.uleb128 0x14
 11941 31ee B1000000 		.4byte	0xb1
 11942 31f2 2F       		.byte	0x2f
 11943 31f3 00       		.byte	0
 11944 31f4 06       		.uleb128 0x6
 11945 31f5 E4310000 		.4byte	0x31e4
 11946 31f9 13       		.uleb128 0x13
 11947 31fa 04010000 		.4byte	0x104
 11948 31fe 09320000 		.4byte	0x3209
 11949 3202 14       		.uleb128 0x14
 11950 3203 B1000000 		.4byte	0xb1
 11951 3207 AF       		.byte	0xaf
 11952 3208 00       		.byte	0
 11953 3209 06       		.uleb128 0x6
 11954 320a F9310000 		.4byte	0x31f9
 11955 320e 13       		.uleb128 0x13
 11956 320f 04010000 		.4byte	0x104
 11957 3213 1E320000 		.4byte	0x321e
 11958 3217 14       		.uleb128 0x14
 11959 3218 B1000000 		.4byte	0xb1
 11960 321c 08       		.byte	0x8
 11961 321d 00       		.byte	0
 11962 321e 06       		.uleb128 0x6
 11963 321f 0E320000 		.4byte	0x320e
 11964 3223 13       		.uleb128 0x13
 11965 3224 04010000 		.4byte	0x104
 11966 3228 33320000 		.4byte	0x3233
 11967 322c 14       		.uleb128 0x14
 11968 322d B1000000 		.4byte	0xb1
 11969 3231 2E       		.byte	0x2e
 11970 3232 00       		.byte	0
 11971 3233 06       		.uleb128 0x6
 11972 3234 23320000 		.4byte	0x3223
 11973 3238 13       		.uleb128 0x13
 11974 3239 142E0000 		.4byte	0x2e14
 11975 323d 48320000 		.4byte	0x3248
 11976 3241 14       		.uleb128 0x14
 11977 3242 B1000000 		.4byte	0xb1
 11978 3246 0F       		.byte	0xf
 11979 3247 00       		.byte	0
 11980 3248 13       		.uleb128 0x13
 11981 3249 04010000 		.4byte	0x104
 11982 324d 58320000 		.4byte	0x3258
 11983 3251 14       		.uleb128 0x14
 11984 3252 B1000000 		.4byte	0xb1
 11985 3256 3F       		.byte	0x3f
 11986 3257 00       		.byte	0
 11987 3258 06       		.uleb128 0x6
 11988 3259 48320000 		.4byte	0x3248
 11989 325d 13       		.uleb128 0x13
ARM GAS  C:\Users\mathi\AppData\Local\Temp\ccXNOisu.s 			page 217


 11990 325e 04010000 		.4byte	0x104
 11991 3262 6D320000 		.4byte	0x326d
 11992 3266 14       		.uleb128 0x14
 11993 3267 B1000000 		.4byte	0xb1
 11994 326b 0F       		.byte	0xf
 11995 326c 00       		.byte	0
 11996 326d 06       		.uleb128 0x6
 11997 326e 5D320000 		.4byte	0x325d
 11998 3272 13       		.uleb128 0x13
 11999 3273 882E0000 		.4byte	0x2e88
 12000 3277 82320000 		.4byte	0x3282
 12001 327b 14       		.uleb128 0x14
 12002 327c B1000000 		.4byte	0xb1
 12003 3280 0F       		.byte	0xf
 12004 3281 00       		.byte	0
 12005 3282 13       		.uleb128 0x13
 12006 3283 FC2E0000 		.4byte	0x2efc
 12007 3287 92320000 		.4byte	0x3292
 12008 328b 14       		.uleb128 0x14
 12009 328c B1000000 		.4byte	0xb1
 12010 3290 0F       		.byte	0xf
 12011 3291 00       		.byte	0
 12012 3292 13       		.uleb128 0x13
 12013 3293 04010000 		.4byte	0x104
 12014 3297 A2320000 		.4byte	0x32a2
 12015 329b 14       		.uleb128 0x14
 12016 329c B1000000 		.4byte	0xb1
 12017 32a0 7E       		.byte	0x7e
 12018 32a1 00       		.byte	0
 12019 32a2 06       		.uleb128 0x6
 12020 32a3 92320000 		.4byte	0x3292
 12021 32a7 13       		.uleb128 0x13
 12022 32a8 04010000 		.4byte	0x104
 12023 32ac BE320000 		.4byte	0x32be
 12024 32b0 14       		.uleb128 0x14
 12025 32b1 B1000000 		.4byte	0xb1
 12026 32b5 0F       		.byte	0xf
 12027 32b6 29       		.uleb128 0x29
 12028 32b7 B1000000 		.4byte	0xb1
 12029 32bb FF03     		.2byte	0x3ff
 12030 32bd 00       		.byte	0
 12031 32be 06       		.uleb128 0x6
 12032 32bf A7320000 		.4byte	0x32a7
 12033 32c3 02       		.uleb128 0x2
 12034 32c4 D9290000 		.4byte	.LASF683
 12035 32c8 31       		.byte	0x31
 12036 32c9 B6       		.byte	0xb6
 12037 32ca 072F0000 		.4byte	0x2f07
 12038 32ce 17       		.uleb128 0x17
 12039 32cf 0C       		.byte	0xc
 12040 32d0 30       		.byte	0x30
 12041 32d1 C6       		.byte	0xc6
 12042 32d2 FB320000 		.4byte	0x32fb
 12043 32d6 08       		.uleb128 0x8
 12044 32d7 6A0B0000 		.4byte	.LASF684
 12045 32db 30       		.byte	0x30
 12046 32dc C7       		.byte	0xc7
ARM GAS  C:\Users\mathi\AppData\Local\Temp\ccXNOisu.s 			page 218


 12047 32dd F9000000 		.4byte	0xf9
 12048 32e1 00       		.byte	0
 12049 32e2 08       		.uleb128 0x8
 12050 32e3 D80D0000 		.4byte	.LASF685
 12051 32e7 30       		.byte	0x30
 12052 32e8 C8       		.byte	0xc8
 12053 32e9 F9000000 		.4byte	0xf9
 12054 32ed 04       		.byte	0x4
 12055 32ee 08       		.uleb128 0x8
 12056 32ef 22120000 		.4byte	.LASF686
 12057 32f3 30       		.byte	0x30
 12058 32f4 C9       		.byte	0xc9
 12059 32f5 F9000000 		.4byte	0xf9
 12060 32f9 08       		.byte	0x8
 12061 32fa 00       		.byte	0
 12062 32fb 02       		.uleb128 0x2
 12063 32fc 010E0000 		.4byte	.LASF687
 12064 3300 30       		.byte	0x30
 12065 3301 CA       		.byte	0xca
 12066 3302 CE320000 		.4byte	0x32ce
 12067 3306 05       		.uleb128 0x5
 12068 3307 FB320000 		.4byte	0x32fb
 12069 330b 17       		.uleb128 0x17
 12070 330c 04       		.byte	0x4
 12071 330d 30       		.byte	0x30
 12072 330e DD       		.byte	0xdd
 12073 330f 20330000 		.4byte	0x3320
 12074 3313 08       		.uleb128 0x8
 12075 3314 B0270000 		.4byte	.LASF688
 12076 3318 30       		.byte	0x30
 12077 3319 E1       		.byte	0xe1
 12078 331a BD130000 		.4byte	0x13bd
 12079 331e 00       		.byte	0
 12080 331f 00       		.byte	0
 12081 3320 17       		.uleb128 0x17
 12082 3321 04       		.byte	0x4
 12083 3322 30       		.byte	0x30
 12084 3323 E3       		.byte	0xe3
 12085 3324 35330000 		.4byte	0x3335
 12086 3328 08       		.uleb128 0x8
 12087 3329 E80B0000 		.4byte	.LASF373
 12088 332d 30       		.byte	0x30
 12089 332e E7       		.byte	0xe7
 12090 332f 35330000 		.4byte	0x3335
 12091 3333 00       		.byte	0
 12092 3334 00       		.byte	0
 12093 3335 0B       		.uleb128 0xb
 12094 3336 04       		.byte	0x4
 12095 3337 99130000 		.4byte	0x1399
 12096 333b 1D       		.uleb128 0x1d
 12097 333c 04       		.byte	0x4
 12098 333d 30       		.byte	0x30
 12099 333e DC       		.byte	0xdc
 12100 333f 5A330000 		.4byte	0x335a
 12101 3343 2A       		.uleb128 0x2a
 12102 3344 EE230000 		.4byte	.LASF689
 12103 3348 30       		.byte	0x30
ARM GAS  C:\Users\mathi\AppData\Local\Temp\ccXNOisu.s 			page 219


 12104 3349 E2       		.byte	0xe2
 12105 334a 0B330000 		.4byte	0x330b
 12106 334e 2A       		.uleb128 0x2a
 12107 334f BC220000 		.4byte	.LASF690
 12108 3353 30       		.byte	0x30
 12109 3354 E8       		.byte	0xe8
 12110 3355 20330000 		.4byte	0x3320
 12111 3359 00       		.byte	0
 12112 335a 17       		.uleb128 0x17
 12113 335b 14       		.byte	0x14
 12114 335c 30       		.byte	0x30
 12115 335d CF       		.byte	0xcf
 12116 335e 9F330000 		.4byte	0x339f
 12117 3362 08       		.uleb128 0x8
 12118 3363 240A0000 		.4byte	.LASF691
 12119 3367 30       		.byte	0x30
 12120 3368 D3       		.byte	0xd3
 12121 3369 A4150000 		.4byte	0x15a4
 12122 336d 00       		.byte	0
 12123 336e 08       		.uleb128 0x8
 12124 336f DB150000 		.4byte	.LASF692
 12125 3373 30       		.byte	0x30
 12126 3374 D7       		.byte	0xd7
 12127 3375 19010000 		.4byte	0x119
 12128 3379 04       		.byte	0x4
 12129 337a 08       		.uleb128 0x8
 12130 337b 7F0D0000 		.4byte	.LASF693
 12131 337f 30       		.byte	0x30
 12132 3380 DB       		.byte	0xdb
 12133 3381 19010000 		.4byte	0x119
 12134 3385 08       		.byte	0x8
 12135 3386 08       		.uleb128 0x8
 12136 3387 DC0A0000 		.4byte	.LASF419
 12137 338b 30       		.byte	0x30
 12138 338c E9       		.byte	0xe9
 12139 338d 3B330000 		.4byte	0x333b
 12140 3391 0C       		.byte	0xc
 12141 3392 08       		.uleb128 0x8
 12142 3393 3A120000 		.4byte	.LASF694
 12143 3397 30       		.byte	0x30
 12144 3398 ED       		.byte	0xed
 12145 3399 19010000 		.4byte	0x119
 12146 339d 10       		.byte	0x10
 12147 339e 00       		.byte	0
 12148 339f 02       		.uleb128 0x2
 12149 33a0 53130000 		.4byte	.LASF695
 12150 33a4 30       		.byte	0x30
 12151 33a5 EE       		.byte	0xee
 12152 33a6 5A330000 		.4byte	0x335a
 12153 33aa 19       		.uleb128 0x19
 12154 33ab 04       		.byte	0x4
 12155 33ac 30       		.byte	0x30
 12156 33ad 0101     		.2byte	0x101
 12157 33af C1330000 		.4byte	0x33c1
 12158 33b3 0A       		.uleb128 0xa
 12159 33b4 240E0000 		.4byte	.LASF696
 12160 33b8 30       		.byte	0x30
ARM GAS  C:\Users\mathi\AppData\Local\Temp\ccXNOisu.s 			page 220


 12161 33b9 0501     		.2byte	0x105
 12162 33bb 88130000 		.4byte	0x1388
 12163 33bf 00       		.byte	0
 12164 33c0 00       		.byte	0
 12165 33c1 19       		.uleb128 0x19
 12166 33c2 04       		.byte	0x4
 12167 33c3 30       		.byte	0x30
 12168 33c4 0701     		.2byte	0x107
 12169 33c6 D8330000 		.4byte	0x33d8
 12170 33ca 0A       		.uleb128 0xa
 12171 33cb 96230000 		.4byte	.LASF374
 12172 33cf 30       		.byte	0x30
 12173 33d0 0B01     		.2byte	0x10b
 12174 33d2 D8330000 		.4byte	0x33d8
 12175 33d6 00       		.byte	0
 12176 33d7 00       		.byte	0
 12177 33d8 0B       		.uleb128 0xb
 12178 33d9 04       		.byte	0x4
 12179 33da 8E130000 		.4byte	0x138e
 12180 33de 2B       		.uleb128 0x2b
 12181 33df 04       		.byte	0x4
 12182 33e0 30       		.byte	0x30
 12183 33e1 0001     		.2byte	0x100
 12184 33e3 00340000 		.4byte	0x3400
 12185 33e7 1E       		.uleb128 0x1e
 12186 33e8 EE230000 		.4byte	.LASF689
 12187 33ec 30       		.byte	0x30
 12188 33ed 0601     		.2byte	0x106
 12189 33ef AA330000 		.4byte	0x33aa
 12190 33f3 1E       		.uleb128 0x1e
 12191 33f4 BC220000 		.4byte	.LASF690
 12192 33f8 30       		.byte	0x30
 12193 33f9 0C01     		.2byte	0x10c
 12194 33fb C1330000 		.4byte	0x33c1
 12195 33ff 00       		.byte	0
 12196 3400 17       		.uleb128 0x17
 12197 3401 14       		.byte	0x14
 12198 3402 30       		.byte	0x30
 12199 3403 F3       		.byte	0xf3
 12200 3404 47340000 		.4byte	0x3447
 12201 3408 08       		.uleb128 0x8
 12202 3409 24080000 		.4byte	.LASF697
 12203 340d 30       		.byte	0x30
 12204 340e F7       		.byte	0xf7
 12205 340f A4150000 		.4byte	0x15a4
 12206 3413 00       		.byte	0
 12207 3414 08       		.uleb128 0x8
 12208 3415 D8160000 		.4byte	.LASF698
 12209 3419 30       		.byte	0x30
 12210 341a FB       		.byte	0xfb
 12211 341b 19010000 		.4byte	0x119
 12212 341f 04       		.byte	0x4
 12213 3420 08       		.uleb128 0x8
 12214 3421 B70A0000 		.4byte	.LASF699
 12215 3425 30       		.byte	0x30
 12216 3426 FF       		.byte	0xff
 12217 3427 19010000 		.4byte	0x119
ARM GAS  C:\Users\mathi\AppData\Local\Temp\ccXNOisu.s 			page 221


 12218 342b 08       		.byte	0x8
 12219 342c 0A       		.uleb128 0xa
 12220 342d DC0A0000 		.4byte	.LASF419
 12221 3431 30       		.byte	0x30
 12222 3432 0D01     		.2byte	0x10d
 12223 3434 DE330000 		.4byte	0x33de
 12224 3438 0C       		.byte	0xc
 12225 3439 0A       		.uleb128 0xa
 12226 343a 3A120000 		.4byte	.LASF694
 12227 343e 30       		.byte	0x30
 12228 343f 1101     		.2byte	0x111
 12229 3441 19010000 		.4byte	0x119
 12230 3445 10       		.byte	0x10
 12231 3446 00       		.byte	0
 12232 3447 1A       		.uleb128 0x1a
 12233 3448 6B210000 		.4byte	.LASF700
 12234 344c 30       		.byte	0x30
 12235 344d 1201     		.2byte	0x112
 12236 344f 00340000 		.4byte	0x3400
 12237 3453 19       		.uleb128 0x19
 12238 3454 24       		.byte	0x24
 12239 3455 30       		.byte	0x30
 12240 3456 1801     		.2byte	0x118
 12241 3458 DF340000 		.4byte	0x34df
 12242 345c 0A       		.uleb128 0xa
 12243 345d D11A0000 		.4byte	.LASF701
 12244 3461 30       		.byte	0x30
 12245 3462 1C01     		.2byte	0x11c
 12246 3464 F9000000 		.4byte	0xf9
 12247 3468 00       		.byte	0
 12248 3469 0A       		.uleb128 0xa
 12249 346a BA0B0000 		.4byte	.LASF702
 12250 346e 30       		.byte	0x30
 12251 346f 2701     		.2byte	0x127
 12252 3471 102D0000 		.4byte	0x2d10
 12253 3475 04       		.byte	0x4
 12254 3476 0A       		.uleb128 0xa
 12255 3477 D31B0000 		.4byte	.LASF703
 12256 347b 30       		.byte	0x30
 12257 347c 2D01     		.2byte	0x12d
 12258 347e 102D0000 		.4byte	0x2d10
 12259 3482 08       		.byte	0x8
 12260 3483 0A       		.uleb128 0xa
 12261 3484 C10E0000 		.4byte	.LASF704
 12262 3488 30       		.byte	0x30
 12263 3489 3301     		.2byte	0x133
 12264 348b 102D0000 		.4byte	0x2d10
 12265 348f 0C       		.byte	0xc
 12266 3490 0A       		.uleb128 0xa
 12267 3491 262A0000 		.4byte	.LASF705
 12268 3495 30       		.byte	0x30
 12269 3496 3901     		.2byte	0x139
 12270 3498 DE000000 		.4byte	0xde
 12271 349c 10       		.byte	0x10
 12272 349d 0A       		.uleb128 0xa
 12273 349e 270F0000 		.4byte	.LASF706
 12274 34a2 30       		.byte	0x30
ARM GAS  C:\Users\mathi\AppData\Local\Temp\ccXNOisu.s 			page 222


 12275 34a3 3F01     		.2byte	0x13f
 12276 34a5 DE000000 		.4byte	0xde
 12277 34a9 12       		.byte	0x12
 12278 34aa 0A       		.uleb128 0xa
 12279 34ab B9280000 		.4byte	.LASF707
 12280 34af 30       		.byte	0x30
 12281 34b0 4401     		.2byte	0x144
 12282 34b2 DF340000 		.4byte	0x34df
 12283 34b6 14       		.byte	0x14
 12284 34b7 0A       		.uleb128 0xa
 12285 34b8 D1100000 		.4byte	.LASF708
 12286 34bc 30       		.byte	0x30
 12287 34bd 4901     		.2byte	0x149
 12288 34bf E5340000 		.4byte	0x34e5
 12289 34c3 18       		.byte	0x18
 12290 34c4 0A       		.uleb128 0xa
 12291 34c5 1D150000 		.4byte	.LASF709
 12292 34c9 30       		.byte	0x30
 12293 34ca 5001     		.2byte	0x150
 12294 34cc DE000000 		.4byte	0xde
 12295 34d0 1C       		.byte	0x1c
 12296 34d1 0A       		.uleb128 0xa
 12297 34d2 FB270000 		.4byte	.LASF710
 12298 34d6 30       		.byte	0x30
 12299 34d7 5601     		.2byte	0x156
 12300 34d9 88130000 		.4byte	0x1388
 12301 34dd 20       		.byte	0x20
 12302 34de 00       		.byte	0
 12303 34df 0B       		.uleb128 0xb
 12304 34e0 04       		.byte	0x4
 12305 34e1 9F330000 		.4byte	0x339f
 12306 34e5 0B       		.uleb128 0xb
 12307 34e6 04       		.byte	0x4
 12308 34e7 47340000 		.4byte	0x3447
 12309 34eb 1A       		.uleb128 0x1a
 12310 34ec 66230000 		.4byte	.LASF711
 12311 34f0 30       		.byte	0x30
 12312 34f1 5701     		.2byte	0x157
 12313 34f3 53340000 		.4byte	0x3453
 12314 34f7 05       		.uleb128 0x5
 12315 34f8 EB340000 		.4byte	0x34eb
 12316 34fc 19       		.uleb128 0x19
 12317 34fd 10       		.byte	0x10
 12318 34fe 30       		.byte	0x30
 12319 34ff 5C01     		.2byte	0x15c
 12320 3501 3A350000 		.4byte	0x353a
 12321 3505 0A       		.uleb128 0xa
 12322 3506 10070000 		.4byte	.LASF712
 12323 350a 30       		.byte	0x30
 12324 350b 6101     		.2byte	0x161
 12325 350d 322D0000 		.4byte	0x2d32
 12326 3511 00       		.byte	0
 12327 3512 0A       		.uleb128 0xa
 12328 3513 44270000 		.4byte	.LASF713
 12329 3517 30       		.byte	0x30
 12330 3518 6601     		.2byte	0x166
 12331 351a 752D0000 		.4byte	0x2d75
ARM GAS  C:\Users\mathi\AppData\Local\Temp\ccXNOisu.s 			page 223


 12332 351e 04       		.byte	0x4
 12333 351f 0A       		.uleb128 0xa
 12334 3520 AD150000 		.4byte	.LASF714
 12335 3524 30       		.byte	0x30
 12336 3525 6C01     		.2byte	0x16c
 12337 3527 542D0000 		.4byte	0x2d54
 12338 352b 08       		.byte	0x8
 12339 352c 0A       		.uleb128 0xa
 12340 352d FA030000 		.4byte	.LASF715
 12341 3531 30       		.byte	0x30
 12342 3532 7001     		.2byte	0x170
 12343 3534 ED2C0000 		.4byte	0x2ced
 12344 3538 0C       		.byte	0xc
 12345 3539 00       		.byte	0
 12346 353a 1A       		.uleb128 0x1a
 12347 353b 9C140000 		.4byte	.LASF716
 12348 353f 30       		.byte	0x30
 12349 3540 7201     		.2byte	0x172
 12350 3542 FC340000 		.4byte	0x34fc
 12351 3546 05       		.uleb128 0x5
 12352 3547 3A350000 		.4byte	0x353a
 12353 354b 0B       		.uleb128 0xb
 12354 354c 04       		.byte	0x4
 12355 354d 46350000 		.4byte	0x3546
 12356 3551 13       		.uleb128 0x13
 12357 3552 61350000 		.4byte	0x3561
 12358 3556 61350000 		.4byte	0x3561
 12359 355a 14       		.uleb128 0x14
 12360 355b B1000000 		.4byte	0xb1
 12361 355f 03       		.byte	0x3
 12362 3560 00       		.byte	0
 12363 3561 0B       		.uleb128 0xb
 12364 3562 04       		.byte	0x4
 12365 3563 F7340000 		.4byte	0x34f7
 12366 3567 13       		.uleb128 0x13
 12367 3568 D0030000 		.4byte	0x3d0
 12368 356c 77350000 		.4byte	0x3577
 12369 3570 14       		.uleb128 0x14
 12370 3571 B1000000 		.4byte	0xb1
 12371 3575 02       		.byte	0x2
 12372 3576 00       		.byte	0
 12373 3577 0B       		.uleb128 0xb
 12374 3578 04       		.byte	0x4
 12375 3579 C3320000 		.4byte	0x32c3
 12376 357d 0B       		.uleb128 0xb
 12377 357e 04       		.byte	0x4
 12378 357f 06330000 		.4byte	0x3306
 12379 3583 13       		.uleb128 0x13
 12380 3584 940D0000 		.4byte	0xd94
 12381 3588 93350000 		.4byte	0x3593
 12382 358c 14       		.uleb128 0x14
 12383 358d B1000000 		.4byte	0xb1
 12384 3591 3E       		.byte	0x3e
 12385 3592 00       		.byte	0
 12386 3593 15       		.uleb128 0x15
 12387 3594 18010000 		.4byte	.LASF717
 12388 3598 30       		.byte	0x30
ARM GAS  C:\Users\mathi\AppData\Local\Temp\ccXNOisu.s 			page 224


 12389 3599 0602     		.2byte	0x206
 12390 359b B92A0000 		.4byte	0x2ab9
 12391 359f 21       		.uleb128 0x21
 12392 35a0 07       		.byte	0x7
 12393 35a1 01       		.byte	0x1
 12394 35a2 42000000 		.4byte	0x42
 12395 35a6 32       		.byte	0x32
 12396 35a7 83       		.byte	0x83
 12397 35a8 B9350000 		.4byte	0x35b9
 12398 35ac 22       		.uleb128 0x22
 12399 35ad 0B280000 		.4byte	.LASF718
 12400 35b1 00       		.byte	0
 12401 35b2 22       		.uleb128 0x22
 12402 35b3 421D0000 		.4byte	.LASF719
 12403 35b7 01       		.byte	0x1
 12404 35b8 00       		.byte	0
 12405 35b9 02       		.uleb128 0x2
 12406 35ba 5C280000 		.4byte	.LASF720
 12407 35be 32       		.byte	0x32
 12408 35bf 86       		.byte	0x86
 12409 35c0 9F350000 		.4byte	0x359f
 12410 35c4 21       		.uleb128 0x21
 12411 35c5 07       		.byte	0x7
 12412 35c6 01       		.byte	0x1
 12413 35c7 42000000 		.4byte	0x42
 12414 35cb 32       		.byte	0x32
 12415 35cc 8B       		.byte	0x8b
 12416 35cd 02360000 		.4byte	0x3602
 12417 35d1 22       		.uleb128 0x22
 12418 35d2 C1080000 		.4byte	.LASF721
 12419 35d6 00       		.byte	0
 12420 35d7 22       		.uleb128 0x22
 12421 35d8 18050000 		.4byte	.LASF722
 12422 35dc 01       		.byte	0x1
 12423 35dd 22       		.uleb128 0x22
 12424 35de F5230000 		.4byte	.LASF723
 12425 35e2 02       		.byte	0x2
 12426 35e3 22       		.uleb128 0x22
 12427 35e4 50220000 		.4byte	.LASF724
 12428 35e8 03       		.byte	0x3
 12429 35e9 22       		.uleb128 0x22
 12430 35ea 9D000000 		.4byte	.LASF725
 12431 35ee 04       		.byte	0x4
 12432 35ef 22       		.uleb128 0x22
 12433 35f0 76090000 		.4byte	.LASF726
 12434 35f4 05       		.byte	0x5
 12435 35f5 22       		.uleb128 0x22
 12436 35f6 5A150000 		.4byte	.LASF727
 12437 35fa 06       		.byte	0x6
 12438 35fb 22       		.uleb128 0x22
 12439 35fc D51C0000 		.4byte	.LASF728
 12440 3600 07       		.byte	0x7
 12441 3601 00       		.byte	0
 12442 3602 02       		.uleb128 0x2
 12443 3603 761A0000 		.4byte	.LASF729
 12444 3607 32       		.byte	0x32
 12445 3608 94       		.byte	0x94
ARM GAS  C:\Users\mathi\AppData\Local\Temp\ccXNOisu.s 			page 225


 12446 3609 C4350000 		.4byte	0x35c4
 12447 360d 02       		.uleb128 0x2
 12448 360e 2D290000 		.4byte	.LASF730
 12449 3612 32       		.byte	0x32
 12450 3613 99       		.byte	0x99
 12451 3614 18360000 		.4byte	0x3618
 12452 3618 07       		.uleb128 0x7
 12453 3619 2D290000 		.4byte	.LASF730
 12454 361d 14       		.byte	0x14
 12455 361e 32       		.byte	0x32
 12456 361f C3       		.byte	0xc3
 12457 3620 61360000 		.4byte	0x3661
 12458 3624 08       		.uleb128 0x8
 12459 3625 62190000 		.4byte	.LASF340
 12460 3629 32       		.byte	0x32
 12461 362a C7       		.byte	0xc7
 12462 362b 02360000 		.4byte	0x3602
 12463 362f 00       		.byte	0
 12464 3630 08       		.uleb128 0x8
 12465 3631 2C200000 		.4byte	.LASF341
 12466 3635 32       		.byte	0x32
 12467 3636 CB       		.byte	0xcb
 12468 3637 EC360000 		.4byte	0x36ec
 12469 363b 04       		.byte	0x4
 12470 363c 08       		.uleb128 0x8
 12471 363d 9E250000 		.4byte	.LASF731
 12472 3641 32       		.byte	0x32
 12473 3642 CF       		.byte	0xcf
 12474 3643 F2360000 		.4byte	0x36f2
 12475 3647 08       		.byte	0x8
 12476 3648 08       		.uleb128 0x8
 12477 3649 1D0D0000 		.4byte	.LASF347
 12478 364d 32       		.byte	0x32
 12479 364e D3       		.byte	0xd3
 12480 364f 5E1A0000 		.4byte	0x1a5e
 12481 3653 0C       		.byte	0xc
 12482 3654 08       		.uleb128 0x8
 12483 3655 781B0000 		.4byte	.LASF348
 12484 3659 32       		.byte	0x32
 12485 365a D7       		.byte	0xd7
 12486 365b F9000000 		.4byte	0xf9
 12487 365f 10       		.byte	0x10
 12488 3660 00       		.byte	0
 12489 3661 02       		.uleb128 0x2
 12490 3662 6C100000 		.4byte	.LASF732
 12491 3666 32       		.byte	0x32
 12492 3667 A0       		.byte	0xa0
 12493 3668 6C360000 		.4byte	0x366c
 12494 366c 0B       		.uleb128 0xb
 12495 366d 04       		.byte	0x4
 12496 366e 72360000 		.4byte	0x3672
 12497 3672 0D       		.uleb128 0xd
 12498 3673 7D360000 		.4byte	0x367d
 12499 3677 0E       		.uleb128 0xe
 12500 3678 7D360000 		.4byte	0x367d
 12501 367c 00       		.byte	0
 12502 367d 0B       		.uleb128 0xb
ARM GAS  C:\Users\mathi\AppData\Local\Temp\ccXNOisu.s 			page 226


 12503 367e 04       		.byte	0x4
 12504 367f 0D360000 		.4byte	0x360d
 12505 3683 02       		.uleb128 0x2
 12506 3684 481E0000 		.4byte	.LASF733
 12507 3688 32       		.byte	0x32
 12508 3689 A8       		.byte	0xa8
 12509 368a 8E360000 		.4byte	0x368e
 12510 368e 0B       		.uleb128 0xb
 12511 368f 04       		.byte	0x4
 12512 3690 94360000 		.4byte	0x3694
 12513 3694 0D       		.uleb128 0xd
 12514 3695 A4360000 		.4byte	0x36a4
 12515 3699 0E       		.uleb128 0xe
 12516 369a 7D360000 		.4byte	0x367d
 12517 369e 0E       		.uleb128 0xe
 12518 369f B9350000 		.4byte	0x35b9
 12519 36a3 00       		.byte	0
 12520 36a4 17       		.uleb128 0x17
 12521 36a5 10       		.byte	0x10
 12522 36a6 32       		.byte	0x32
 12523 36a7 AD       		.byte	0xad
 12524 36a8 DC360000 		.4byte	0x36dc
 12525 36ac 08       		.uleb128 0x8
 12526 36ad 5E210000 		.4byte	.LASF734
 12527 36b1 32       		.byte	0x32
 12528 36b2 B1       		.byte	0xb1
 12529 36b3 61360000 		.4byte	0x3661
 12530 36b7 00       		.byte	0
 12531 36b8 08       		.uleb128 0x8
 12532 36b9 DA260000 		.4byte	.LASF735
 12533 36bd 32       		.byte	0x32
 12534 36be B5       		.byte	0xb5
 12535 36bf 61360000 		.4byte	0x3661
 12536 36c3 04       		.byte	0x4
 12537 36c4 08       		.uleb128 0x8
 12538 36c5 1F280000 		.4byte	.LASF354
 12539 36c9 32       		.byte	0x32
 12540 36ca B9       		.byte	0xb9
 12541 36cb 83360000 		.4byte	0x3683
 12542 36cf 08       		.byte	0x8
 12543 36d0 18       		.uleb128 0x18
 12544 36d1 637200   		.ascii	"cr\000"
 12545 36d4 32       		.byte	0x32
 12546 36d5 BD       		.byte	0xbd
 12547 36d6 F9000000 		.4byte	0xf9
 12548 36da 0C       		.byte	0xc
 12549 36db 00       		.byte	0
 12550 36dc 02       		.uleb128 0x2
 12551 36dd 3D290000 		.4byte	.LASF736
 12552 36e1 32       		.byte	0x32
 12553 36e2 BE       		.byte	0xbe
 12554 36e3 A4360000 		.4byte	0x36a4
 12555 36e7 05       		.uleb128 0x5
 12556 36e8 DC360000 		.4byte	0x36dc
 12557 36ec 0B       		.uleb128 0xb
 12558 36ed 04       		.byte	0x4
 12559 36ee E7360000 		.4byte	0x36e7
ARM GAS  C:\Users\mathi\AppData\Local\Temp\ccXNOisu.s 			page 227


 12560 36f2 0B       		.uleb128 0xb
 12561 36f3 04       		.byte	0x4
 12562 36f4 220A0000 		.4byte	0xa22
 12563 36f8 16       		.uleb128 0x16
 12564 36f9 A0060000 		.4byte	.LASF737
 12565 36fd 32       		.byte	0x32
 12566 36fe E3       		.byte	0xe3
 12567 36ff 0D360000 		.4byte	0x360d
 12568 3703 02       		.uleb128 0x2
 12569 3704 D3090000 		.4byte	.LASF738
 12570 3708 33       		.byte	0x33
 12571 3709 22       		.byte	0x22
 12572 370a 0E370000 		.4byte	0x370e
 12573 370e 0B       		.uleb128 0xb
 12574 370f 04       		.byte	0x4
 12575 3710 14370000 		.4byte	0x3714
 12576 3714 2C       		.uleb128 0x2c
 12577 3715 E8070000 		.4byte	.LASF868
 12578 3719 02       		.uleb128 0x2
 12579 371a AD0F0000 		.4byte	.LASF739
 12580 371e 34       		.byte	0x34
 12581 371f 2C       		.byte	0x2c
 12582 3720 78000000 		.4byte	0x78
 12583 3724 02       		.uleb128 0x2
 12584 3725 DE200000 		.4byte	.LASF740
 12585 3729 34       		.byte	0x34
 12586 372a 72       		.byte	0x72
 12587 372b 78000000 		.4byte	0x78
 12588 372f 1A       		.uleb128 0x1a
 12589 3730 04120000 		.4byte	.LASF741
 12590 3734 04       		.byte	0x4
 12591 3735 6501     		.2byte	0x165
 12592 3737 B1000000 		.4byte	0xb1
 12593 373b 1D       		.uleb128 0x1d
 12594 373c 04       		.byte	0x4
 12595 373d 34       		.byte	0x34
 12596 373e A6       		.byte	0xa6
 12597 373f 5A370000 		.4byte	0x375a
 12598 3743 2A       		.uleb128 0x2a
 12599 3744 421A0000 		.4byte	.LASF742
 12600 3748 34       		.byte	0x34
 12601 3749 A8       		.byte	0xa8
 12602 374a 2F370000 		.4byte	0x372f
 12603 374e 2A       		.uleb128 0x2a
 12604 374f B3110000 		.4byte	.LASF743
 12605 3753 34       		.byte	0x34
 12606 3754 A9       		.byte	0xa9
 12607 3755 5A370000 		.4byte	0x375a
 12608 3759 00       		.byte	0
 12609 375a 13       		.uleb128 0x13
 12610 375b 42000000 		.4byte	0x42
 12611 375f 6A370000 		.4byte	0x376a
 12612 3763 14       		.uleb128 0x14
 12613 3764 B1000000 		.4byte	0xb1
 12614 3768 03       		.byte	0x3
 12615 3769 00       		.byte	0
 12616 376a 17       		.uleb128 0x17
ARM GAS  C:\Users\mathi\AppData\Local\Temp\ccXNOisu.s 			page 228


 12617 376b 08       		.byte	0x8
 12618 376c 34       		.byte	0x34
 12619 376d A3       		.byte	0xa3
 12620 376e 8B370000 		.4byte	0x378b
 12621 3772 08       		.uleb128 0x8
 12622 3773 06100000 		.4byte	.LASF744
 12623 3777 34       		.byte	0x34
 12624 3778 A5       		.byte	0xa5
 12625 3779 AA000000 		.4byte	0xaa
 12626 377d 00       		.byte	0
 12627 377e 08       		.uleb128 0x8
 12628 377f 481A0000 		.4byte	.LASF745
 12629 3783 34       		.byte	0x34
 12630 3784 AA       		.byte	0xaa
 12631 3785 3B370000 		.4byte	0x373b
 12632 3789 04       		.byte	0x4
 12633 378a 00       		.byte	0
 12634 378b 02       		.uleb128 0x2
 12635 378c A1210000 		.4byte	.LASF746
 12636 3790 34       		.byte	0x34
 12637 3791 AB       		.byte	0xab
 12638 3792 6A370000 		.4byte	0x376a
 12639 3796 02       		.uleb128 0x2
 12640 3797 20260000 		.4byte	.LASF747
 12641 379b 34       		.byte	0x34
 12642 379c AF       		.byte	0xaf
 12643 379d 03370000 		.4byte	0x3703
 12644 37a1 0B       		.uleb128 0xb
 12645 37a2 04       		.byte	0x4
 12646 37a3 20110000 		.4byte	0x1120
 12647 37a7 16       		.uleb128 0x16
 12648 37a8 48110000 		.4byte	.LASF748
 12649 37ac 35       		.byte	0x35
 12650 37ad 10       		.byte	0x10
 12651 37ae B2370000 		.4byte	0x37b2
 12652 37b2 0B       		.uleb128 0xb
 12653 37b3 04       		.byte	0x4
 12654 37b4 A1370000 		.4byte	0x37a1
 12655 37b8 16       		.uleb128 0x16
 12656 37b9 14090000 		.4byte	.LASF749
 12657 37bd 35       		.byte	0x35
 12658 37be E8       		.byte	0xe8
 12659 37bf A1370000 		.4byte	0x37a1
 12660 37c3 16       		.uleb128 0x16
 12661 37c4 8F260000 		.4byte	.LASF750
 12662 37c8 35       		.byte	0x35
 12663 37c9 E9       		.byte	0xe9
 12664 37ca AA000000 		.4byte	0xaa
 12665 37ce 16       		.uleb128 0x16
 12666 37cf CE190000 		.4byte	.LASF751
 12667 37d3 35       		.byte	0x35
 12668 37d4 E9       		.byte	0xe9
 12669 37d5 AA000000 		.4byte	0xaa
 12670 37d9 16       		.uleb128 0x16
 12671 37da 18170000 		.4byte	.LASF752
 12672 37de 35       		.byte	0x35
 12673 37df E9       		.byte	0xe9
ARM GAS  C:\Users\mathi\AppData\Local\Temp\ccXNOisu.s 			page 229


 12674 37e0 AA000000 		.4byte	0xaa
 12675 37e4 16       		.uleb128 0x16
 12676 37e5 9C0A0000 		.4byte	.LASF753
 12677 37e9 35       		.byte	0x35
 12678 37ea EB       		.byte	0xeb
 12679 37eb AA000000 		.4byte	0xaa
 12680 37ef 07       		.uleb128 0x7
 12681 37f0 B7120000 		.4byte	.LASF754
 12682 37f4 5C       		.byte	0x5c
 12683 37f5 36       		.byte	0x36
 12684 37f6 0C       		.byte	0xc
 12685 37f7 5C380000 		.4byte	0x385c
 12686 37fb 08       		.uleb128 0x8
 12687 37fc CC1F0000 		.4byte	.LASF755
 12688 3800 36       		.byte	0x36
 12689 3801 0D       		.byte	0xd
 12690 3802 D0030000 		.4byte	0x3d0
 12691 3806 00       		.byte	0
 12692 3807 08       		.uleb128 0x8
 12693 3808 2E1C0000 		.4byte	.LASF756
 12694 380c 36       		.byte	0x36
 12695 380d 0E       		.byte	0xe
 12696 380e 19010000 		.4byte	0x119
 12697 3812 04       		.byte	0x4
 12698 3813 08       		.uleb128 0x8
 12699 3814 240D0000 		.4byte	.LASF757
 12700 3818 36       		.byte	0x36
 12701 3819 0F       		.byte	0xf
 12702 381a D0030000 		.4byte	0x3d0
 12703 381e 08       		.byte	0x8
 12704 381f 08       		.uleb128 0x8
 12705 3820 DB080000 		.4byte	.LASF758
 12706 3824 36       		.byte	0x36
 12707 3825 10       		.byte	0x10
 12708 3826 D0030000 		.4byte	0x3d0
 12709 382a 0C       		.byte	0xc
 12710 382b 08       		.uleb128 0x8
 12711 382c 1B260000 		.4byte	.LASF759
 12712 3830 36       		.byte	0x36
 12713 3831 11       		.byte	0x11
 12714 3832 5C380000 		.4byte	0x385c
 12715 3836 10       		.byte	0x10
 12716 3837 08       		.uleb128 0x8
 12717 3838 D8010000 		.4byte	.LASF760
 12718 383c 36       		.byte	0x36
 12719 383d 12       		.byte	0x12
 12720 383e A4150000 		.4byte	0x15a4
 12721 3842 51       		.byte	0x51
 12722 3843 08       		.uleb128 0x8
 12723 3844 21230000 		.4byte	.LASF761
 12724 3848 36       		.byte	0x36
 12725 3849 13       		.byte	0x13
 12726 384a 91380000 		.4byte	0x3891
 12727 384e 54       		.byte	0x54
 12728 384f 08       		.uleb128 0x8
 12729 3850 13040000 		.4byte	.LASF762
 12730 3854 36       		.byte	0x36
ARM GAS  C:\Users\mathi\AppData\Local\Temp\ccXNOisu.s 			page 230


 12731 3855 14       		.byte	0x14
 12732 3856 97380000 		.4byte	0x3897
 12733 385a 58       		.byte	0x58
 12734 385b 00       		.byte	0
 12735 385c 13       		.uleb128 0x13
 12736 385d 20110000 		.4byte	0x1120
 12737 3861 6C380000 		.4byte	0x386c
 12738 3865 14       		.uleb128 0x14
 12739 3866 B1000000 		.4byte	0xb1
 12740 386a 40       		.byte	0x40
 12741 386b 00       		.byte	0
 12742 386c 07       		.uleb128 0x7
 12743 386d 32000000 		.4byte	.LASF763
 12744 3871 08       		.byte	0x8
 12745 3872 36       		.byte	0x36
 12746 3873 25       		.byte	0x25
 12747 3874 91380000 		.4byte	0x3891
 12748 3878 08       		.uleb128 0x8
 12749 3879 EB210000 		.4byte	.LASF764
 12750 387d 36       		.byte	0x36
 12751 387e 26       		.byte	0x26
 12752 387f 37390000 		.4byte	0x3937
 12753 3883 00       		.byte	0
 12754 3884 08       		.uleb128 0x8
 12755 3885 13040000 		.4byte	.LASF762
 12756 3889 36       		.byte	0x36
 12757 388a 27       		.byte	0x27
 12758 388b 91380000 		.4byte	0x3891
 12759 388f 04       		.byte	0x4
 12760 3890 00       		.byte	0
 12761 3891 0B       		.uleb128 0xb
 12762 3892 04       		.byte	0x4
 12763 3893 6C380000 		.4byte	0x386c
 12764 3897 0B       		.uleb128 0xb
 12765 3898 04       		.byte	0x4
 12766 3899 EF370000 		.4byte	0x37ef
 12767 389d 02       		.uleb128 0x2
 12768 389e 4E1B0000 		.4byte	.LASF765
 12769 38a2 36       		.byte	0x36
 12770 38a3 15       		.byte	0x15
 12771 38a4 EF370000 		.4byte	0x37ef
 12772 38a8 17       		.uleb128 0x17
 12773 38a9 04       		.byte	0x4
 12774 38aa 36       		.byte	0x36
 12775 38ab 18       		.byte	0x18
 12776 38ac BD380000 		.4byte	0x38bd
 12777 38b0 08       		.uleb128 0x8
 12778 38b1 B70C0000 		.4byte	.LASF766
 12779 38b5 36       		.byte	0x36
 12780 38b6 19       		.byte	0x19
 12781 38b7 BD380000 		.4byte	0x38bd
 12782 38bb 00       		.byte	0
 12783 38bc 00       		.byte	0
 12784 38bd 0B       		.uleb128 0xb
 12785 38be 04       		.byte	0x4
 12786 38bf 9D380000 		.4byte	0x389d
 12787 38c3 17       		.uleb128 0x17
ARM GAS  C:\Users\mathi\AppData\Local\Temp\ccXNOisu.s 			page 231


 12788 38c4 0C       		.byte	0xc
 12789 38c5 36       		.byte	0x36
 12790 38c6 17       		.byte	0x17
 12791 38c7 F0380000 		.4byte	0x38f0
 12792 38cb 08       		.uleb128 0x8
 12793 38cc 7B240000 		.4byte	.LASF767
 12794 38d0 36       		.byte	0x36
 12795 38d1 1A       		.byte	0x1a
 12796 38d2 A8380000 		.4byte	0x38a8
 12797 38d6 00       		.byte	0
 12798 38d7 08       		.uleb128 0x8
 12799 38d8 240D0000 		.4byte	.LASF757
 12800 38dc 36       		.byte	0x36
 12801 38dd 1B       		.byte	0x1b
 12802 38de D0030000 		.4byte	0x3d0
 12803 38e2 04       		.byte	0x4
 12804 38e3 08       		.uleb128 0x8
 12805 38e4 DB080000 		.4byte	.LASF758
 12806 38e8 36       		.byte	0x36
 12807 38e9 1C       		.byte	0x1c
 12808 38ea D0030000 		.4byte	0x3d0
 12809 38ee 08       		.byte	0x8
 12810 38ef 00       		.byte	0
 12811 38f0 02       		.uleb128 0x2
 12812 38f1 8A120000 		.4byte	.LASF768
 12813 38f5 36       		.byte	0x36
 12814 38f6 1D       		.byte	0x1d
 12815 38f7 C3380000 		.4byte	0x38c3
 12816 38fb 07       		.uleb128 0x7
 12817 38fc 8B1D0000 		.4byte	.LASF769
 12818 3900 0C       		.byte	0xc
 12819 3901 36       		.byte	0x36
 12820 3902 1F       		.byte	0x1f
 12821 3903 2C390000 		.4byte	0x392c
 12822 3907 08       		.uleb128 0x8
 12823 3908 240D0000 		.4byte	.LASF757
 12824 390c 36       		.byte	0x36
 12825 390d 20       		.byte	0x20
 12826 390e D0030000 		.4byte	0x3d0
 12827 3912 00       		.byte	0
 12828 3913 08       		.uleb128 0x8
 12829 3914 DB080000 		.4byte	.LASF758
 12830 3918 36       		.byte	0x36
 12831 3919 21       		.byte	0x21
 12832 391a D0030000 		.4byte	0x3d0
 12833 391e 04       		.byte	0x4
 12834 391f 08       		.uleb128 0x8
 12835 3920 90060000 		.4byte	.LASF770
 12836 3924 36       		.byte	0x36
 12837 3925 22       		.byte	0x22
 12838 3926 BD380000 		.4byte	0x38bd
 12839 392a 08       		.byte	0x8
 12840 392b 00       		.byte	0
 12841 392c 02       		.uleb128 0x2
 12842 392d 621F0000 		.4byte	.LASF771
 12843 3931 36       		.byte	0x36
 12844 3932 23       		.byte	0x23
ARM GAS  C:\Users\mathi\AppData\Local\Temp\ccXNOisu.s 			page 232


 12845 3933 FB380000 		.4byte	0x38fb
 12846 3937 0B       		.uleb128 0xb
 12847 3938 04       		.byte	0x4
 12848 3939 2C390000 		.4byte	0x392c
 12849 393d 02       		.uleb128 0x2
 12850 393e 8E160000 		.4byte	.LASF772
 12851 3942 37       		.byte	0x37
 12852 3943 16       		.byte	0x16
 12853 3944 8A000000 		.4byte	0x8a
 12854 3948 07       		.uleb128 0x7
 12855 3949 611E0000 		.4byte	.LASF773
 12856 394d 18       		.byte	0x18
 12857 394e 37       		.byte	0x37
 12858 394f 2F       		.byte	0x2f
 12859 3950 9B390000 		.4byte	0x399b
 12860 3954 08       		.uleb128 0x8
 12861 3955 A2130000 		.4byte	.LASF774
 12862 3959 37       		.byte	0x37
 12863 395a 31       		.byte	0x31
 12864 395b 9B390000 		.4byte	0x399b
 12865 395f 00       		.byte	0
 12866 3960 18       		.uleb128 0x18
 12867 3961 5F6B00   		.ascii	"_k\000"
 12868 3964 37       		.byte	0x37
 12869 3965 32       		.byte	0x32
 12870 3966 AA000000 		.4byte	0xaa
 12871 396a 04       		.byte	0x4
 12872 396b 08       		.uleb128 0x8
 12873 396c 151C0000 		.4byte	.LASF775
 12874 3970 37       		.byte	0x37
 12875 3971 32       		.byte	0x32
 12876 3972 AA000000 		.4byte	0xaa
 12877 3976 08       		.byte	0x8
 12878 3977 08       		.uleb128 0x8
 12879 3978 391C0000 		.4byte	.LASF776
 12880 397c 37       		.byte	0x37
 12881 397d 32       		.byte	0x32
 12882 397e AA000000 		.4byte	0xaa
 12883 3982 0C       		.byte	0xc
 12884 3983 08       		.uleb128 0x8
 12885 3984 520C0000 		.4byte	.LASF777
 12886 3988 37       		.byte	0x37
 12887 3989 32       		.byte	0x32
 12888 398a AA000000 		.4byte	0xaa
 12889 398e 10       		.byte	0x10
 12890 398f 18       		.uleb128 0x18
 12891 3990 5F7800   		.ascii	"_x\000"
 12892 3993 37       		.byte	0x37
 12893 3994 33       		.byte	0x33
 12894 3995 A1390000 		.4byte	0x39a1
 12895 3999 14       		.byte	0x14
 12896 399a 00       		.byte	0
 12897 399b 0B       		.uleb128 0xb
 12898 399c 04       		.byte	0x4
 12899 399d 48390000 		.4byte	0x3948
 12900 39a1 13       		.uleb128 0x13
 12901 39a2 3D390000 		.4byte	0x393d
ARM GAS  C:\Users\mathi\AppData\Local\Temp\ccXNOisu.s 			page 233


 12902 39a6 B1390000 		.4byte	0x39b1
 12903 39aa 14       		.uleb128 0x14
 12904 39ab B1000000 		.4byte	0xb1
 12905 39af 00       		.byte	0
 12906 39b0 00       		.byte	0
 12907 39b1 07       		.uleb128 0x7
 12908 39b2 471F0000 		.4byte	.LASF778
 12909 39b6 24       		.byte	0x24
 12910 39b7 37       		.byte	0x37
 12911 39b8 37       		.byte	0x37
 12912 39b9 2A3A0000 		.4byte	0x3a2a
 12913 39bd 08       		.uleb128 0x8
 12914 39be 14150000 		.4byte	.LASF779
 12915 39c2 37       		.byte	0x37
 12916 39c3 39       		.byte	0x39
 12917 39c4 AA000000 		.4byte	0xaa
 12918 39c8 00       		.byte	0
 12919 39c9 08       		.uleb128 0x8
 12920 39ca 6C0D0000 		.4byte	.LASF780
 12921 39ce 37       		.byte	0x37
 12922 39cf 3A       		.byte	0x3a
 12923 39d0 AA000000 		.4byte	0xaa
 12924 39d4 04       		.byte	0x4
 12925 39d5 08       		.uleb128 0x8
 12926 39d6 CD110000 		.4byte	.LASF781
 12927 39da 37       		.byte	0x37
 12928 39db 3B       		.byte	0x3b
 12929 39dc AA000000 		.4byte	0xaa
 12930 39e0 08       		.byte	0x8
 12931 39e1 08       		.uleb128 0x8
 12932 39e2 600B0000 		.4byte	.LASF782
 12933 39e6 37       		.byte	0x37
 12934 39e7 3C       		.byte	0x3c
 12935 39e8 AA000000 		.4byte	0xaa
 12936 39ec 0C       		.byte	0xc
 12937 39ed 08       		.uleb128 0x8
 12938 39ee 35020000 		.4byte	.LASF783
 12939 39f2 37       		.byte	0x37
 12940 39f3 3D       		.byte	0x3d
 12941 39f4 AA000000 		.4byte	0xaa
 12942 39f8 10       		.byte	0x10
 12943 39f9 08       		.uleb128 0x8
 12944 39fa A70D0000 		.4byte	.LASF784
 12945 39fe 37       		.byte	0x37
 12946 39ff 3E       		.byte	0x3e
 12947 3a00 AA000000 		.4byte	0xaa
 12948 3a04 14       		.byte	0x14
 12949 3a05 08       		.uleb128 0x8
 12950 3a06 450B0000 		.4byte	.LASF785
 12951 3a0a 37       		.byte	0x37
 12952 3a0b 3F       		.byte	0x3f
 12953 3a0c AA000000 		.4byte	0xaa
 12954 3a10 18       		.byte	0x18
 12955 3a11 08       		.uleb128 0x8
 12956 3a12 A90B0000 		.4byte	.LASF786
 12957 3a16 37       		.byte	0x37
 12958 3a17 40       		.byte	0x40
ARM GAS  C:\Users\mathi\AppData\Local\Temp\ccXNOisu.s 			page 234


 12959 3a18 AA000000 		.4byte	0xaa
 12960 3a1c 1C       		.byte	0x1c
 12961 3a1d 08       		.uleb128 0x8
 12962 3a1e E5290000 		.4byte	.LASF787
 12963 3a22 37       		.byte	0x37
 12964 3a23 41       		.byte	0x41
 12965 3a24 AA000000 		.4byte	0xaa
 12966 3a28 20       		.byte	0x20
 12967 3a29 00       		.byte	0
 12968 3a2a 2D       		.uleb128 0x2d
 12969 3a2b 35150000 		.4byte	.LASF788
 12970 3a2f 0801     		.2byte	0x108
 12971 3a31 37       		.byte	0x37
 12972 3a32 4A       		.byte	0x4a
 12973 3a33 6A3A0000 		.4byte	0x3a6a
 12974 3a37 08       		.uleb128 0x8
 12975 3a38 00130000 		.4byte	.LASF789
 12976 3a3c 37       		.byte	0x37
 12977 3a3d 4B       		.byte	0x4b
 12978 3a3e 6A3A0000 		.4byte	0x3a6a
 12979 3a42 00       		.byte	0
 12980 3a43 08       		.uleb128 0x8
 12981 3a44 68050000 		.4byte	.LASF790
 12982 3a48 37       		.byte	0x37
 12983 3a49 4C       		.byte	0x4c
 12984 3a4a 6A3A0000 		.4byte	0x3a6a
 12985 3a4e 80       		.byte	0x80
 12986 3a4f 27       		.uleb128 0x27
 12987 3a50 3E020000 		.4byte	.LASF791
 12988 3a54 37       		.byte	0x37
 12989 3a55 4E       		.byte	0x4e
 12990 3a56 3D390000 		.4byte	0x393d
 12991 3a5a 0001     		.2byte	0x100
 12992 3a5c 27       		.uleb128 0x27
 12993 3a5d A3220000 		.4byte	.LASF792
 12994 3a61 37       		.byte	0x37
 12995 3a62 51       		.byte	0x51
 12996 3a63 3D390000 		.4byte	0x393d
 12997 3a67 0401     		.2byte	0x104
 12998 3a69 00       		.byte	0
 12999 3a6a 13       		.uleb128 0x13
 13000 3a6b D0030000 		.4byte	0x3d0
 13001 3a6f 7A3A0000 		.4byte	0x3a7a
 13002 3a73 14       		.uleb128 0x14
 13003 3a74 B1000000 		.4byte	0xb1
 13004 3a78 1F       		.byte	0x1f
 13005 3a79 00       		.byte	0
 13006 3a7a 2D       		.uleb128 0x2d
 13007 3a7b 7E010000 		.4byte	.LASF793
 13008 3a7f 9001     		.2byte	0x190
 13009 3a81 37       		.byte	0x37
 13010 3a82 5D       		.byte	0x5d
 13011 3a83 B83A0000 		.4byte	0x3ab8
 13012 3a87 08       		.uleb128 0x8
 13013 3a88 A2130000 		.4byte	.LASF774
 13014 3a8c 37       		.byte	0x37
 13015 3a8d 5E       		.byte	0x5e
ARM GAS  C:\Users\mathi\AppData\Local\Temp\ccXNOisu.s 			page 235


 13016 3a8e B83A0000 		.4byte	0x3ab8
 13017 3a92 00       		.byte	0
 13018 3a93 08       		.uleb128 0x8
 13019 3a94 9E030000 		.4byte	.LASF794
 13020 3a98 37       		.byte	0x37
 13021 3a99 5F       		.byte	0x5f
 13022 3a9a AA000000 		.4byte	0xaa
 13023 3a9e 04       		.byte	0x4
 13024 3a9f 08       		.uleb128 0x8
 13025 3aa0 59210000 		.4byte	.LASF795
 13026 3aa4 37       		.byte	0x37
 13027 3aa5 61       		.byte	0x61
 13028 3aa6 BE3A0000 		.4byte	0x3abe
 13029 3aaa 08       		.byte	0x8
 13030 3aab 08       		.uleb128 0x8
 13031 3aac 35150000 		.4byte	.LASF788
 13032 3ab0 37       		.byte	0x37
 13033 3ab1 62       		.byte	0x62
 13034 3ab2 2A3A0000 		.4byte	0x3a2a
 13035 3ab6 88       		.byte	0x88
 13036 3ab7 00       		.byte	0
 13037 3ab8 0B       		.uleb128 0xb
 13038 3ab9 04       		.byte	0x4
 13039 3aba 7A3A0000 		.4byte	0x3a7a
 13040 3abe 13       		.uleb128 0x13
 13041 3abf CE3A0000 		.4byte	0x3ace
 13042 3ac3 CE3A0000 		.4byte	0x3ace
 13043 3ac7 14       		.uleb128 0x14
 13044 3ac8 B1000000 		.4byte	0xb1
 13045 3acc 1F       		.byte	0x1f
 13046 3acd 00       		.byte	0
 13047 3ace 0B       		.uleb128 0xb
 13048 3acf 04       		.byte	0x4
 13049 3ad0 D43A0000 		.4byte	0x3ad4
 13050 3ad4 2E       		.uleb128 0x2e
 13051 3ad5 07       		.uleb128 0x7
 13052 3ad6 7F190000 		.4byte	.LASF796
 13053 3ada 08       		.byte	0x8
 13054 3adb 37       		.byte	0x37
 13055 3adc 75       		.byte	0x75
 13056 3add FA3A0000 		.4byte	0x3afa
 13057 3ae1 08       		.uleb128 0x8
 13058 3ae2 70150000 		.4byte	.LASF797
 13059 3ae6 37       		.byte	0x37
 13060 3ae7 76       		.byte	0x76
 13061 3ae8 FA3A0000 		.4byte	0x3afa
 13062 3aec 00       		.byte	0
 13063 3aed 08       		.uleb128 0x8
 13064 3aee FC0C0000 		.4byte	.LASF798
 13065 3af2 37       		.byte	0x37
 13066 3af3 77       		.byte	0x77
 13067 3af4 AA000000 		.4byte	0xaa
 13068 3af8 04       		.byte	0x4
 13069 3af9 00       		.byte	0
 13070 3afa 0B       		.uleb128 0xb
 13071 3afb 04       		.byte	0x4
 13072 3afc 42000000 		.4byte	0x42
ARM GAS  C:\Users\mathi\AppData\Local\Temp\ccXNOisu.s 			page 236


 13073 3b00 07       		.uleb128 0x7
 13074 3b01 3F210000 		.4byte	.LASF799
 13075 3b05 68       		.byte	0x68
 13076 3b06 37       		.byte	0x37
 13077 3b07 B5       		.byte	0xb5
 13078 3b08 2A3C0000 		.4byte	0x3c2a
 13079 3b0c 18       		.uleb128 0x18
 13080 3b0d 5F7000   		.ascii	"_p\000"
 13081 3b10 37       		.byte	0x37
 13082 3b11 B6       		.byte	0xb6
 13083 3b12 FA3A0000 		.4byte	0x3afa
 13084 3b16 00       		.byte	0
 13085 3b17 18       		.uleb128 0x18
 13086 3b18 5F7200   		.ascii	"_r\000"
 13087 3b1b 37       		.byte	0x37
 13088 3b1c B7       		.byte	0xb7
 13089 3b1d AA000000 		.4byte	0xaa
 13090 3b21 04       		.byte	0x4
 13091 3b22 18       		.uleb128 0x18
 13092 3b23 5F7700   		.ascii	"_w\000"
 13093 3b26 37       		.byte	0x37
 13094 3b27 B8       		.byte	0xb8
 13095 3b28 AA000000 		.4byte	0xaa
 13096 3b2c 08       		.byte	0x8
 13097 3b2d 08       		.uleb128 0x8
 13098 3b2e 0C040000 		.4byte	.LASF800
 13099 3b32 37       		.byte	0x37
 13100 3b33 B9       		.byte	0xb9
 13101 3b34 54000000 		.4byte	0x54
 13102 3b38 0C       		.byte	0xc
 13103 3b39 08       		.uleb128 0x8
 13104 3b3a FB200000 		.4byte	.LASF801
 13105 3b3e 37       		.byte	0x37
 13106 3b3f BA       		.byte	0xba
 13107 3b40 54000000 		.4byte	0x54
 13108 3b44 0E       		.byte	0xe
 13109 3b45 18       		.uleb128 0x18
 13110 3b46 5F626600 		.ascii	"_bf\000"
 13111 3b4a 37       		.byte	0x37
 13112 3b4b BB       		.byte	0xbb
 13113 3b4c D53A0000 		.4byte	0x3ad5
 13114 3b50 10       		.byte	0x10
 13115 3b51 08       		.uleb128 0x8
 13116 3b52 CC060000 		.4byte	.LASF802
 13117 3b56 37       		.byte	0x37
 13118 3b57 BC       		.byte	0xbc
 13119 3b58 AA000000 		.4byte	0xaa
 13120 3b5c 18       		.byte	0x18
 13121 3b5d 08       		.uleb128 0x8
 13122 3b5e 02140000 		.4byte	.LASF803
 13123 3b62 37       		.byte	0x37
 13124 3b63 C3       		.byte	0xc3
 13125 3b64 D0030000 		.4byte	0x3d0
 13126 3b68 1C       		.byte	0x1c
 13127 3b69 08       		.uleb128 0x8
 13128 3b6a A6290000 		.4byte	.LASF804
 13129 3b6e 37       		.byte	0x37
ARM GAS  C:\Users\mathi\AppData\Local\Temp\ccXNOisu.s 			page 237


 13130 3b6f C5       		.byte	0xc5
 13131 3b70 853D0000 		.4byte	0x3d85
 13132 3b74 20       		.byte	0x20
 13133 3b75 08       		.uleb128 0x8
 13134 3b76 020D0000 		.4byte	.LASF805
 13135 3b7a 37       		.byte	0x37
 13136 3b7b C7       		.byte	0xc7
 13137 3b7c A93D0000 		.4byte	0x3da9
 13138 3b80 24       		.byte	0x24
 13139 3b81 08       		.uleb128 0x8
 13140 3b82 D7170000 		.4byte	.LASF806
 13141 3b86 37       		.byte	0x37
 13142 3b87 CA       		.byte	0xca
 13143 3b88 CD3D0000 		.4byte	0x3dcd
 13144 3b8c 28       		.byte	0x28
 13145 3b8d 08       		.uleb128 0x8
 13146 3b8e 361D0000 		.4byte	.LASF807
 13147 3b92 37       		.byte	0x37
 13148 3b93 CB       		.byte	0xcb
 13149 3b94 E73D0000 		.4byte	0x3de7
 13150 3b98 2C       		.byte	0x2c
 13151 3b99 18       		.uleb128 0x18
 13152 3b9a 5F756200 		.ascii	"_ub\000"
 13153 3b9e 37       		.byte	0x37
 13154 3b9f CE       		.byte	0xce
 13155 3ba0 D53A0000 		.4byte	0x3ad5
 13156 3ba4 30       		.byte	0x30
 13157 3ba5 18       		.uleb128 0x18
 13158 3ba6 5F757000 		.ascii	"_up\000"
 13159 3baa 37       		.byte	0x37
 13160 3bab CF       		.byte	0xcf
 13161 3bac FA3A0000 		.4byte	0x3afa
 13162 3bb0 38       		.byte	0x38
 13163 3bb1 18       		.uleb128 0x18
 13164 3bb2 5F757200 		.ascii	"_ur\000"
 13165 3bb6 37       		.byte	0x37
 13166 3bb7 D0       		.byte	0xd0
 13167 3bb8 AA000000 		.4byte	0xaa
 13168 3bbc 3C       		.byte	0x3c
 13169 3bbd 08       		.uleb128 0x8
 13170 3bbe 19200000 		.4byte	.LASF808
 13171 3bc2 37       		.byte	0x37
 13172 3bc3 D3       		.byte	0xd3
 13173 3bc4 ED3D0000 		.4byte	0x3ded
 13174 3bc8 40       		.byte	0x40
 13175 3bc9 08       		.uleb128 0x8
 13176 3bca DB040000 		.4byte	.LASF809
 13177 3bce 37       		.byte	0x37
 13178 3bcf D4       		.byte	0xd4
 13179 3bd0 FD3D0000 		.4byte	0x3dfd
 13180 3bd4 43       		.byte	0x43
 13181 3bd5 18       		.uleb128 0x18
 13182 3bd6 5F6C6200 		.ascii	"_lb\000"
 13183 3bda 37       		.byte	0x37
 13184 3bdb D7       		.byte	0xd7
 13185 3bdc D53A0000 		.4byte	0x3ad5
 13186 3be0 44       		.byte	0x44
ARM GAS  C:\Users\mathi\AppData\Local\Temp\ccXNOisu.s 			page 238


 13187 3be1 08       		.uleb128 0x8
 13188 3be2 CF0D0000 		.4byte	.LASF810
 13189 3be6 37       		.byte	0x37
 13190 3be7 DA       		.byte	0xda
 13191 3be8 AA000000 		.4byte	0xaa
 13192 3bec 4C       		.byte	0x4c
 13193 3bed 08       		.uleb128 0x8
 13194 3bee 11190000 		.4byte	.LASF811
 13195 3bf2 37       		.byte	0x37
 13196 3bf3 DB       		.byte	0xdb
 13197 3bf4 19370000 		.4byte	0x3719
 13198 3bf8 50       		.byte	0x50
 13199 3bf9 08       		.uleb128 0x8
 13200 3bfa 21250000 		.4byte	.LASF812
 13201 3bfe 37       		.byte	0x37
 13202 3bff DE       		.byte	0xde
 13203 3c00 483C0000 		.4byte	0x3c48
 13204 3c04 54       		.byte	0x54
 13205 3c05 08       		.uleb128 0x8
 13206 3c06 D5040000 		.4byte	.LASF813
 13207 3c0a 37       		.byte	0x37
 13208 3c0b E2       		.byte	0xe2
 13209 3c0c 96370000 		.4byte	0x3796
 13210 3c10 58       		.byte	0x58
 13211 3c11 08       		.uleb128 0x8
 13212 3c12 5B160000 		.4byte	.LASF814
 13213 3c16 37       		.byte	0x37
 13214 3c17 E4       		.byte	0xe4
 13215 3c18 8B370000 		.4byte	0x378b
 13216 3c1c 5C       		.byte	0x5c
 13217 3c1d 08       		.uleb128 0x8
 13218 3c1e FB260000 		.4byte	.LASF815
 13219 3c22 37       		.byte	0x37
 13220 3c23 E5       		.byte	0xe5
 13221 3c24 AA000000 		.4byte	0xaa
 13222 3c28 64       		.byte	0x64
 13223 3c29 00       		.byte	0
 13224 3c2a 20       		.uleb128 0x20
 13225 3c2b AA000000 		.4byte	0xaa
 13226 3c2f 483C0000 		.4byte	0x3c48
 13227 3c33 0E       		.uleb128 0xe
 13228 3c34 483C0000 		.4byte	0x3c48
 13229 3c38 0E       		.uleb128 0xe
 13230 3c39 D0030000 		.4byte	0x3d0
 13231 3c3d 0E       		.uleb128 0xe
 13232 3c3e A1370000 		.4byte	0x37a1
 13233 3c42 0E       		.uleb128 0xe
 13234 3c43 AA000000 		.4byte	0xaa
 13235 3c47 00       		.byte	0
 13236 3c48 0B       		.uleb128 0xb
 13237 3c49 04       		.byte	0x4
 13238 3c4a 533C0000 		.4byte	0x3c53
 13239 3c4e 05       		.uleb128 0x5
 13240 3c4f 483C0000 		.4byte	0x3c48
 13241 3c53 10       		.uleb128 0x10
 13242 3c54 F8190000 		.4byte	.LASF816
 13243 3c58 2804     		.2byte	0x428
ARM GAS  C:\Users\mathi\AppData\Local\Temp\ccXNOisu.s 			page 239


 13244 3c5a 37       		.byte	0x37
 13245 3c5b 3902     		.2byte	0x239
 13246 3c5d 853D0000 		.4byte	0x3d85
 13247 3c61 0A       		.uleb128 0xa
 13248 3c62 83120000 		.4byte	.LASF817
 13249 3c66 37       		.byte	0x37
 13250 3c67 3B02     		.2byte	0x23b
 13251 3c69 AA000000 		.4byte	0xaa
 13252 3c6d 00       		.byte	0
 13253 3c6e 0A       		.uleb128 0xa
 13254 3c6f EB0E0000 		.4byte	.LASF818
 13255 3c73 37       		.byte	0x37
 13256 3c74 4002     		.2byte	0x240
 13257 3c76 543E0000 		.4byte	0x3e54
 13258 3c7a 04       		.byte	0x4
 13259 3c7b 0A       		.uleb128 0xa
 13260 3c7c D10B0000 		.4byte	.LASF819
 13261 3c80 37       		.byte	0x37
 13262 3c81 4002     		.2byte	0x240
 13263 3c83 543E0000 		.4byte	0x3e54
 13264 3c87 08       		.byte	0x8
 13265 3c88 0A       		.uleb128 0xa
 13266 3c89 E10A0000 		.4byte	.LASF820
 13267 3c8d 37       		.byte	0x37
 13268 3c8e 4002     		.2byte	0x240
 13269 3c90 543E0000 		.4byte	0x3e54
 13270 3c94 0C       		.byte	0xc
 13271 3c95 0A       		.uleb128 0xa
 13272 3c96 99030000 		.4byte	.LASF821
 13273 3c9a 37       		.byte	0x37
 13274 3c9b 4202     		.2byte	0x242
 13275 3c9d AA000000 		.4byte	0xaa
 13276 3ca1 10       		.byte	0x10
 13277 3ca2 0A       		.uleb128 0xa
 13278 3ca3 E6100000 		.4byte	.LASF822
 13279 3ca7 37       		.byte	0x37
 13280 3ca8 4302     		.2byte	0x243
 13281 3caa 36400000 		.4byte	0x4036
 13282 3cae 14       		.byte	0x14
 13283 3caf 0A       		.uleb128 0xa
 13284 3cb0 6C250000 		.4byte	.LASF823
 13285 3cb4 37       		.byte	0x37
 13286 3cb5 4602     		.2byte	0x246
 13287 3cb7 AA000000 		.4byte	0xaa
 13288 3cbb 30       		.byte	0x30
 13289 3cbc 0A       		.uleb128 0xa
 13290 3cbd 56270000 		.4byte	.LASF824
 13291 3cc1 37       		.byte	0x37
 13292 3cc2 4702     		.2byte	0x247
 13293 3cc4 4B400000 		.4byte	0x404b
 13294 3cc8 34       		.byte	0x34
 13295 3cc9 0A       		.uleb128 0xa
 13296 3cca DC250000 		.4byte	.LASF825
 13297 3cce 37       		.byte	0x37
 13298 3ccf 4902     		.2byte	0x249
 13299 3cd1 AA000000 		.4byte	0xaa
 13300 3cd5 38       		.byte	0x38
ARM GAS  C:\Users\mathi\AppData\Local\Temp\ccXNOisu.s 			page 240


 13301 3cd6 0A       		.uleb128 0xa
 13302 3cd7 70200000 		.4byte	.LASF826
 13303 3cdb 37       		.byte	0x37
 13304 3cdc 4B02     		.2byte	0x24b
 13305 3cde 5C400000 		.4byte	0x405c
 13306 3ce2 3C       		.byte	0x3c
 13307 3ce3 0A       		.uleb128 0xa
 13308 3ce4 E90A0000 		.4byte	.LASF827
 13309 3ce8 37       		.byte	0x37
 13310 3ce9 4E02     		.2byte	0x24e
 13311 3ceb 9B390000 		.4byte	0x399b
 13312 3cef 40       		.byte	0x40
 13313 3cf0 0A       		.uleb128 0xa
 13314 3cf1 D20A0000 		.4byte	.LASF828
 13315 3cf5 37       		.byte	0x37
 13316 3cf6 4F02     		.2byte	0x24f
 13317 3cf8 AA000000 		.4byte	0xaa
 13318 3cfc 44       		.byte	0x44
 13319 3cfd 0A       		.uleb128 0xa
 13320 3cfe DD220000 		.4byte	.LASF829
 13321 3d02 37       		.byte	0x37
 13322 3d03 5002     		.2byte	0x250
 13323 3d05 9B390000 		.4byte	0x399b
 13324 3d09 48       		.byte	0x48
 13325 3d0a 0A       		.uleb128 0xa
 13326 3d0b D6180000 		.4byte	.LASF830
 13327 3d0f 37       		.byte	0x37
 13328 3d10 5102     		.2byte	0x251
 13329 3d12 62400000 		.4byte	0x4062
 13330 3d16 4C       		.byte	0x4c
 13331 3d17 0A       		.uleb128 0xa
 13332 3d18 5A040000 		.4byte	.LASF831
 13333 3d1c 37       		.byte	0x37
 13334 3d1d 5402     		.2byte	0x254
 13335 3d1f AA000000 		.4byte	0xaa
 13336 3d23 50       		.byte	0x50
 13337 3d24 0A       		.uleb128 0xa
 13338 3d25 C9100000 		.4byte	.LASF832
 13339 3d29 37       		.byte	0x37
 13340 3d2a 5502     		.2byte	0x255
 13341 3d2c A1370000 		.4byte	0x37a1
 13342 3d30 54       		.byte	0x54
 13343 3d31 0A       		.uleb128 0xa
 13344 3d32 19070000 		.4byte	.LASF833
 13345 3d36 37       		.byte	0x37
 13346 3d37 7802     		.2byte	0x278
 13347 3d39 14400000 		.4byte	0x4014
 13348 3d3d 58       		.byte	0x58
 13349 3d3e 11       		.uleb128 0x11
 13350 3d3f 7E010000 		.4byte	.LASF793
 13351 3d43 37       		.byte	0x37
 13352 3d44 7C02     		.2byte	0x27c
 13353 3d46 B83A0000 		.4byte	0x3ab8
 13354 3d4a 4801     		.2byte	0x148
 13355 3d4c 11       		.uleb128 0x11
 13356 3d4d 911E0000 		.4byte	.LASF834
 13357 3d51 37       		.byte	0x37
ARM GAS  C:\Users\mathi\AppData\Local\Temp\ccXNOisu.s 			page 241


 13358 3d52 7D02     		.2byte	0x27d
 13359 3d54 7A3A0000 		.4byte	0x3a7a
 13360 3d58 4C01     		.2byte	0x14c
 13361 3d5a 11       		.uleb128 0x11
 13362 3d5b 88040000 		.4byte	.LASF835
 13363 3d5f 37       		.byte	0x37
 13364 3d60 8102     		.2byte	0x281
 13365 3d62 73400000 		.4byte	0x4073
 13366 3d66 DC02     		.2byte	0x2dc
 13367 3d68 11       		.uleb128 0x11
 13368 3d69 4E200000 		.4byte	.LASF836
 13369 3d6d 37       		.byte	0x37
 13370 3d6e 8602     		.2byte	0x286
 13371 3d70 193E0000 		.4byte	0x3e19
 13372 3d74 E002     		.2byte	0x2e0
 13373 3d76 11       		.uleb128 0x11
 13374 3d77 48080000 		.4byte	.LASF837
 13375 3d7b 37       		.byte	0x37
 13376 3d7c 8802     		.2byte	0x288
 13377 3d7e 7F400000 		.4byte	0x407f
 13378 3d82 EC02     		.2byte	0x2ec
 13379 3d84 00       		.byte	0
 13380 3d85 0B       		.uleb128 0xb
 13381 3d86 04       		.byte	0x4
 13382 3d87 2A3C0000 		.4byte	0x3c2a
 13383 3d8b 20       		.uleb128 0x20
 13384 3d8c AA000000 		.4byte	0xaa
 13385 3d90 A93D0000 		.4byte	0x3da9
 13386 3d94 0E       		.uleb128 0xe
 13387 3d95 483C0000 		.4byte	0x3c48
 13388 3d99 0E       		.uleb128 0xe
 13389 3d9a D0030000 		.4byte	0x3d0
 13390 3d9e 0E       		.uleb128 0xe
 13391 3d9f 15110000 		.4byte	0x1115
 13392 3da3 0E       		.uleb128 0xe
 13393 3da4 AA000000 		.4byte	0xaa
 13394 3da8 00       		.byte	0
 13395 3da9 0B       		.uleb128 0xb
 13396 3daa 04       		.byte	0x4
 13397 3dab 8B3D0000 		.4byte	0x3d8b
 13398 3daf 20       		.uleb128 0x20
 13399 3db0 24370000 		.4byte	0x3724
 13400 3db4 CD3D0000 		.4byte	0x3dcd
 13401 3db8 0E       		.uleb128 0xe
 13402 3db9 483C0000 		.4byte	0x3c48
 13403 3dbd 0E       		.uleb128 0xe
 13404 3dbe D0030000 		.4byte	0x3d0
 13405 3dc2 0E       		.uleb128 0xe
 13406 3dc3 24370000 		.4byte	0x3724
 13407 3dc7 0E       		.uleb128 0xe
 13408 3dc8 AA000000 		.4byte	0xaa
 13409 3dcc 00       		.byte	0
 13410 3dcd 0B       		.uleb128 0xb
 13411 3dce 04       		.byte	0x4
 13412 3dcf AF3D0000 		.4byte	0x3daf
 13413 3dd3 20       		.uleb128 0x20
 13414 3dd4 AA000000 		.4byte	0xaa
ARM GAS  C:\Users\mathi\AppData\Local\Temp\ccXNOisu.s 			page 242


 13415 3dd8 E73D0000 		.4byte	0x3de7
 13416 3ddc 0E       		.uleb128 0xe
 13417 3ddd 483C0000 		.4byte	0x3c48
 13418 3de1 0E       		.uleb128 0xe
 13419 3de2 D0030000 		.4byte	0x3d0
 13420 3de6 00       		.byte	0
 13421 3de7 0B       		.uleb128 0xb
 13422 3de8 04       		.byte	0x4
 13423 3de9 D33D0000 		.4byte	0x3dd3
 13424 3ded 13       		.uleb128 0x13
 13425 3dee 42000000 		.4byte	0x42
 13426 3df2 FD3D0000 		.4byte	0x3dfd
 13427 3df6 14       		.uleb128 0x14
 13428 3df7 B1000000 		.4byte	0xb1
 13429 3dfb 02       		.byte	0x2
 13430 3dfc 00       		.byte	0
 13431 3dfd 13       		.uleb128 0x13
 13432 3dfe 42000000 		.4byte	0x42
 13433 3e02 0D3E0000 		.4byte	0x3e0d
 13434 3e06 14       		.uleb128 0x14
 13435 3e07 B1000000 		.4byte	0xb1
 13436 3e0b 00       		.byte	0
 13437 3e0c 00       		.byte	0
 13438 3e0d 1A       		.uleb128 0x1a
 13439 3e0e 8E280000 		.4byte	.LASF838
 13440 3e12 37       		.byte	0x37
 13441 3e13 1F01     		.2byte	0x11f
 13442 3e15 003B0000 		.4byte	0x3b00
 13443 3e19 0C       		.uleb128 0xc
 13444 3e1a 721D0000 		.4byte	.LASF839
 13445 3e1e 0C       		.byte	0xc
 13446 3e1f 37       		.byte	0x37
 13447 3e20 2301     		.2byte	0x123
 13448 3e22 4E3E0000 		.4byte	0x3e4e
 13449 3e26 0A       		.uleb128 0xa
 13450 3e27 A2130000 		.4byte	.LASF774
 13451 3e2b 37       		.byte	0x37
 13452 3e2c 2501     		.2byte	0x125
 13453 3e2e 4E3E0000 		.4byte	0x3e4e
 13454 3e32 00       		.byte	0
 13455 3e33 0A       		.uleb128 0xa
 13456 3e34 56120000 		.4byte	.LASF840
 13457 3e38 37       		.byte	0x37
 13458 3e39 2601     		.2byte	0x126
 13459 3e3b AA000000 		.4byte	0xaa
 13460 3e3f 04       		.byte	0x4
 13461 3e40 0A       		.uleb128 0xa
 13462 3e41 8B1B0000 		.4byte	.LASF841
 13463 3e45 37       		.byte	0x37
 13464 3e46 2701     		.2byte	0x127
 13465 3e48 543E0000 		.4byte	0x3e54
 13466 3e4c 08       		.byte	0x8
 13467 3e4d 00       		.byte	0
 13468 3e4e 0B       		.uleb128 0xb
 13469 3e4f 04       		.byte	0x4
 13470 3e50 193E0000 		.4byte	0x3e19
 13471 3e54 0B       		.uleb128 0xb
ARM GAS  C:\Users\mathi\AppData\Local\Temp\ccXNOisu.s 			page 243


 13472 3e55 04       		.byte	0x4
 13473 3e56 0D3E0000 		.4byte	0x3e0d
 13474 3e5a 0C       		.uleb128 0xc
 13475 3e5b D1290000 		.4byte	.LASF842
 13476 3e5f 0E       		.byte	0xe
 13477 3e60 37       		.byte	0x37
 13478 3e61 3F01     		.2byte	0x13f
 13479 3e63 8F3E0000 		.4byte	0x3e8f
 13480 3e67 0A       		.uleb128 0xa
 13481 3e68 C2170000 		.4byte	.LASF843
 13482 3e6c 37       		.byte	0x37
 13483 3e6d 4001     		.2byte	0x140
 13484 3e6f 8F3E0000 		.4byte	0x3e8f
 13485 3e73 00       		.byte	0
 13486 3e74 0A       		.uleb128 0xa
 13487 3e75 88290000 		.4byte	.LASF844
 13488 3e79 37       		.byte	0x37
 13489 3e7a 4101     		.2byte	0x141
 13490 3e7c 8F3E0000 		.4byte	0x3e8f
 13491 3e80 06       		.byte	0x6
 13492 3e81 0A       		.uleb128 0xa
 13493 3e82 D5190000 		.4byte	.LASF845
 13494 3e86 37       		.byte	0x37
 13495 3e87 4201     		.2byte	0x142
 13496 3e89 66000000 		.4byte	0x66
 13497 3e8d 0C       		.byte	0xc
 13498 3e8e 00       		.byte	0
 13499 3e8f 13       		.uleb128 0x13
 13500 3e90 66000000 		.4byte	0x66
 13501 3e94 9F3E0000 		.4byte	0x3e9f
 13502 3e98 14       		.uleb128 0x14
 13503 3e99 B1000000 		.4byte	0xb1
 13504 3e9d 02       		.byte	0x2
 13505 3e9e 00       		.byte	0
 13506 3e9f 19       		.uleb128 0x19
 13507 3ea0 D0       		.byte	0xd0
 13508 3ea1 37       		.byte	0x37
 13509 3ea2 5902     		.2byte	0x259
 13510 3ea4 A03F0000 		.4byte	0x3fa0
 13511 3ea8 0A       		.uleb128 0xa
 13512 3ea9 330A0000 		.4byte	.LASF846
 13513 3ead 37       		.byte	0x37
 13514 3eae 5B02     		.2byte	0x25b
 13515 3eb0 B1000000 		.4byte	0xb1
 13516 3eb4 00       		.byte	0
 13517 3eb5 0A       		.uleb128 0xa
 13518 3eb6 2E170000 		.4byte	.LASF847
 13519 3eba 37       		.byte	0x37
 13520 3ebb 5C02     		.2byte	0x25c
 13521 3ebd A1370000 		.4byte	0x37a1
 13522 3ec1 04       		.byte	0x4
 13523 3ec2 0A       		.uleb128 0xa
 13524 3ec3 161A0000 		.4byte	.LASF848
 13525 3ec7 37       		.byte	0x37
 13526 3ec8 5D02     		.2byte	0x25d
 13527 3eca A03F0000 		.4byte	0x3fa0
 13528 3ece 08       		.byte	0x8
ARM GAS  C:\Users\mathi\AppData\Local\Temp\ccXNOisu.s 			page 244


 13529 3ecf 0A       		.uleb128 0xa
 13530 3ed0 43150000 		.4byte	.LASF849
 13531 3ed4 37       		.byte	0x37
 13532 3ed5 5E02     		.2byte	0x25e
 13533 3ed7 B1390000 		.4byte	0x39b1
 13534 3edb 24       		.byte	0x24
 13535 3edc 0A       		.uleb128 0xa
 13536 3edd 8F240000 		.4byte	.LASF850
 13537 3ee1 37       		.byte	0x37
 13538 3ee2 5F02     		.2byte	0x25f
 13539 3ee4 AA000000 		.4byte	0xaa
 13540 3ee8 48       		.byte	0x48
 13541 3ee9 0A       		.uleb128 0xa
 13542 3eea C11B0000 		.4byte	.LASF851
 13543 3eee 37       		.byte	0x37
 13544 3eef 6002     		.2byte	0x260
 13545 3ef1 A3000000 		.4byte	0xa3
 13546 3ef5 50       		.byte	0x50
 13547 3ef6 0A       		.uleb128 0xa
 13548 3ef7 CF270000 		.4byte	.LASF852
 13549 3efb 37       		.byte	0x37
 13550 3efc 6102     		.2byte	0x261
 13551 3efe 5A3E0000 		.4byte	0x3e5a
 13552 3f02 58       		.byte	0x58
 13553 3f03 0A       		.uleb128 0xa
 13554 3f04 41200000 		.4byte	.LASF853
 13555 3f08 37       		.byte	0x37
 13556 3f09 6202     		.2byte	0x262
 13557 3f0b 8B370000 		.4byte	0x378b
 13558 3f0f 68       		.byte	0x68
 13559 3f10 0A       		.uleb128 0xa
 13560 3f11 77080000 		.4byte	.LASF854
 13561 3f15 37       		.byte	0x37
 13562 3f16 6302     		.2byte	0x263
 13563 3f18 8B370000 		.4byte	0x378b
 13564 3f1c 70       		.byte	0x70
 13565 3f1d 0A       		.uleb128 0xa
 13566 3f1e D2050000 		.4byte	.LASF855
 13567 3f22 37       		.byte	0x37
 13568 3f23 6402     		.2byte	0x264
 13569 3f25 8B370000 		.4byte	0x378b
 13570 3f29 78       		.byte	0x78
 13571 3f2a 0A       		.uleb128 0xa
 13572 3f2b 0C1A0000 		.4byte	.LASF856
 13573 3f2f 37       		.byte	0x37
 13574 3f30 6502     		.2byte	0x265
 13575 3f32 B03F0000 		.4byte	0x3fb0
 13576 3f36 80       		.byte	0x80
 13577 3f37 0A       		.uleb128 0xa
 13578 3f38 D8130000 		.4byte	.LASF857
 13579 3f3c 37       		.byte	0x37
 13580 3f3d 6602     		.2byte	0x266
 13581 3f3f C03F0000 		.4byte	0x3fc0
 13582 3f43 88       		.byte	0x88
 13583 3f44 0A       		.uleb128 0xa
 13584 3f45 021F0000 		.4byte	.LASF858
 13585 3f49 37       		.byte	0x37
ARM GAS  C:\Users\mathi\AppData\Local\Temp\ccXNOisu.s 			page 245


 13586 3f4a 6702     		.2byte	0x267
 13587 3f4c AA000000 		.4byte	0xaa
 13588 3f50 A0       		.byte	0xa0
 13589 3f51 0A       		.uleb128 0xa
 13590 3f52 7D0E0000 		.4byte	.LASF859
 13591 3f56 37       		.byte	0x37
 13592 3f57 6802     		.2byte	0x268
 13593 3f59 8B370000 		.4byte	0x378b
 13594 3f5d A4       		.byte	0xa4
 13595 3f5e 0A       		.uleb128 0xa
 13596 3f5f 4D000000 		.4byte	.LASF860
 13597 3f63 37       		.byte	0x37
 13598 3f64 6902     		.2byte	0x269
 13599 3f66 8B370000 		.4byte	0x378b
 13600 3f6a AC       		.byte	0xac
 13601 3f6b 0A       		.uleb128 0xa
 13602 3f6c 2B0C0000 		.4byte	.LASF861
 13603 3f70 37       		.byte	0x37
 13604 3f71 6A02     		.2byte	0x26a
 13605 3f73 8B370000 		.4byte	0x378b
 13606 3f77 B4       		.byte	0xb4
 13607 3f78 0A       		.uleb128 0xa
 13608 3f79 BE150000 		.4byte	.LASF862
 13609 3f7d 37       		.byte	0x37
 13610 3f7e 6B02     		.2byte	0x26b
 13611 3f80 8B370000 		.4byte	0x378b
 13612 3f84 BC       		.byte	0xbc
 13613 3f85 0A       		.uleb128 0xa
 13614 3f86 651A0000 		.4byte	.LASF863
 13615 3f8a 37       		.byte	0x37
 13616 3f8b 6C02     		.2byte	0x26c
 13617 3f8d 8B370000 		.4byte	0x378b
 13618 3f91 C4       		.byte	0xc4
 13619 3f92 0A       		.uleb128 0xa
 13620 3f93 AC210000 		.4byte	.LASF864
 13621 3f97 37       		.byte	0x37
 13622 3f98 6D02     		.2byte	0x26d
 13623 3f9a AA000000 		.4byte	0xaa
 13624 3f9e CC       		.byte	0xcc
 13625 3f9f 00       		.byte	0
 13626 3fa0 13       		.uleb128 0x13
 13627 3fa1 20110000 		.4byte	0x1120
 13628 3fa5 B03F0000 		.4byte	0x3fb0
 13629 3fa9 14       		.uleb128 0x14
 13630 3faa B1000000 		.4byte	0xb1
 13631 3fae 19       		.byte	0x19
 13632 3faf 00       		.byte	0
 13633 3fb0 13       		.uleb128 0x13
 13634 3fb1 20110000 		.4byte	0x1120
 13635 3fb5 C03F0000 		.4byte	0x3fc0
 13636 3fb9 14       		.uleb128 0x14
 13637 3fba B1000000 		.4byte	0xb1
 13638 3fbe 07       		.byte	0x7
 13639 3fbf 00       		.byte	0
 13640 3fc0 13       		.uleb128 0x13
 13641 3fc1 20110000 		.4byte	0x1120
 13642 3fc5 D03F0000 		.4byte	0x3fd0
ARM GAS  C:\Users\mathi\AppData\Local\Temp\ccXNOisu.s 			page 246


 13643 3fc9 14       		.uleb128 0x14
 13644 3fca B1000000 		.4byte	0xb1
 13645 3fce 17       		.byte	0x17
 13646 3fcf 00       		.byte	0
 13647 3fd0 19       		.uleb128 0x19
 13648 3fd1 F0       		.byte	0xf0
 13649 3fd2 37       		.byte	0x37
 13650 3fd3 7202     		.2byte	0x272
 13651 3fd5 F43F0000 		.4byte	0x3ff4
 13652 3fd9 0A       		.uleb128 0xa
 13653 3fda 16270000 		.4byte	.LASF865
 13654 3fde 37       		.byte	0x37
 13655 3fdf 7502     		.2byte	0x275
 13656 3fe1 F43F0000 		.4byte	0x3ff4
 13657 3fe5 00       		.byte	0
 13658 3fe6 0A       		.uleb128 0xa
 13659 3fe7 F20E0000 		.4byte	.LASF866
 13660 3feb 37       		.byte	0x37
 13661 3fec 7602     		.2byte	0x276
 13662 3fee 04400000 		.4byte	0x4004
 13663 3ff2 78       		.byte	0x78
 13664 3ff3 00       		.byte	0
 13665 3ff4 13       		.uleb128 0x13
 13666 3ff5 FA3A0000 		.4byte	0x3afa
 13667 3ff9 04400000 		.4byte	0x4004
 13668 3ffd 14       		.uleb128 0x14
 13669 3ffe B1000000 		.4byte	0xb1
 13670 4002 1D       		.byte	0x1d
 13671 4003 00       		.byte	0
 13672 4004 13       		.uleb128 0x13
 13673 4005 B1000000 		.4byte	0xb1
 13674 4009 14400000 		.4byte	0x4014
 13675 400d 14       		.uleb128 0x14
 13676 400e B1000000 		.4byte	0xb1
 13677 4012 1D       		.byte	0x1d
 13678 4013 00       		.byte	0
 13679 4014 2B       		.uleb128 0x2b
 13680 4015 F0       		.byte	0xf0
 13681 4016 37       		.byte	0x37
 13682 4017 5702     		.2byte	0x257
 13683 4019 36400000 		.4byte	0x4036
 13684 401d 1E       		.uleb128 0x1e
 13685 401e F8190000 		.4byte	.LASF816
 13686 4022 37       		.byte	0x37
 13687 4023 6E02     		.2byte	0x26e
 13688 4025 9F3E0000 		.4byte	0x3e9f
 13689 4029 1E       		.uleb128 0x1e
 13690 402a F31F0000 		.4byte	.LASF867
 13691 402e 37       		.byte	0x37
 13692 402f 7702     		.2byte	0x277
 13693 4031 D03F0000 		.4byte	0x3fd0
 13694 4035 00       		.byte	0
 13695 4036 13       		.uleb128 0x13
 13696 4037 20110000 		.4byte	0x1120
 13697 403b 46400000 		.4byte	0x4046
 13698 403f 14       		.uleb128 0x14
 13699 4040 B1000000 		.4byte	0xb1
ARM GAS  C:\Users\mathi\AppData\Local\Temp\ccXNOisu.s 			page 247


 13700 4044 18       		.byte	0x18
 13701 4045 00       		.byte	0
 13702 4046 2C       		.uleb128 0x2c
 13703 4047 56200000 		.4byte	.LASF869
 13704 404b 0B       		.uleb128 0xb
 13705 404c 04       		.byte	0x4
 13706 404d 46400000 		.4byte	0x4046
 13707 4051 0D       		.uleb128 0xd
 13708 4052 5C400000 		.4byte	0x405c
 13709 4056 0E       		.uleb128 0xe
 13710 4057 483C0000 		.4byte	0x3c48
 13711 405b 00       		.byte	0
 13712 405c 0B       		.uleb128 0xb
 13713 405d 04       		.byte	0x4
 13714 405e 51400000 		.4byte	0x4051
 13715 4062 0B       		.uleb128 0xb
 13716 4063 04       		.byte	0x4
 13717 4064 9B390000 		.4byte	0x399b
 13718 4068 0D       		.uleb128 0xd
 13719 4069 73400000 		.4byte	0x4073
 13720 406d 0E       		.uleb128 0xe
 13721 406e AA000000 		.4byte	0xaa
 13722 4072 00       		.byte	0
 13723 4073 0B       		.uleb128 0xb
 13724 4074 04       		.byte	0x4
 13725 4075 79400000 		.4byte	0x4079
 13726 4079 0B       		.uleb128 0xb
 13727 407a 04       		.byte	0x4
 13728 407b 68400000 		.4byte	0x4068
 13729 407f 13       		.uleb128 0x13
 13730 4080 0D3E0000 		.4byte	0x3e0d
 13731 4084 8F400000 		.4byte	0x408f
 13732 4088 14       		.uleb128 0x14
 13733 4089 B1000000 		.4byte	0xb1
 13734 408d 02       		.byte	0x2
 13735 408e 00       		.byte	0
 13736 408f 15       		.uleb128 0x15
 13737 4090 D81F0000 		.4byte	.LASF870
 13738 4094 37       		.byte	0x37
 13739 4095 0703     		.2byte	0x307
 13740 4097 483C0000 		.4byte	0x3c48
 13741 409b 15       		.uleb128 0x15
 13742 409c C2230000 		.4byte	.LASF871
 13743 40a0 37       		.byte	0x37
 13744 40a1 0803     		.2byte	0x308
 13745 40a3 4E3C0000 		.4byte	0x3c4e
 13746 40a7 16       		.uleb128 0x16
 13747 40a8 C9010000 		.4byte	.LASF872
 13748 40ac 38       		.byte	0x38
 13749 40ad 63       		.byte	0x63
 13750 40ae A1370000 		.4byte	0x37a1
 13751 40b2 02       		.uleb128 0x2
 13752 40b3 0A140000 		.4byte	.LASF873
 13753 40b7 39       		.byte	0x39
 13754 40b8 08       		.byte	0x8
 13755 40b9 BD400000 		.4byte	0x40bd
 13756 40bd 07       		.uleb128 0x7
ARM GAS  C:\Users\mathi\AppData\Local\Temp\ccXNOisu.s 			page 248


 13757 40be 6D220000 		.4byte	.LASF874
 13758 40c2 18       		.byte	0x18
 13759 40c3 39       		.byte	0x39
 13760 40c4 0B       		.byte	0xb
 13761 40c5 11410000 		.4byte	0x4111
 13762 40c9 18       		.uleb128 0x18
 13763 40ca 696400   		.ascii	"id\000"
 13764 40cd 39       		.byte	0x39
 13765 40ce 0C       		.byte	0xc
 13766 40cf 15110000 		.4byte	0x1115
 13767 40d3 00       		.byte	0
 13768 40d4 08       		.uleb128 0x8
 13769 40d5 BD010000 		.4byte	.LASF875
 13770 40d9 39       		.byte	0x39
 13771 40da 0D       		.byte	0xd
 13772 40db E9000000 		.4byte	0xe9
 13773 40df 04       		.byte	0x4
 13774 40e0 08       		.uleb128 0x8
 13775 40e1 74060000 		.4byte	.LASF876
 13776 40e5 39       		.byte	0x39
 13777 40e6 0E       		.byte	0xe
 13778 40e7 7B410000 		.4byte	0x417b
 13779 40eb 08       		.byte	0x8
 13780 40ec 08       		.uleb128 0x8
 13781 40ed 850D0000 		.4byte	.LASF877
 13782 40f1 39       		.byte	0x39
 13783 40f2 0F       		.byte	0xf
 13784 40f3 7B410000 		.4byte	0x417b
 13785 40f7 0C       		.byte	0xc
 13786 40f8 08       		.uleb128 0x8
 13787 40f9 13040000 		.4byte	.LASF762
 13788 40fd 39       		.byte	0x39
 13789 40fe 10       		.byte	0x10
 13790 40ff 7B410000 		.4byte	0x417b
 13791 4103 10       		.byte	0x10
 13792 4104 08       		.uleb128 0x8
 13793 4105 7F280000 		.4byte	.LASF878
 13794 4109 39       		.byte	0x39
 13795 410a 11       		.byte	0x11
 13796 410b 81410000 		.4byte	0x4181
 13797 410f 14       		.byte	0x14
 13798 4110 00       		.byte	0
 13799 4111 02       		.uleb128 0x2
 13800 4112 33180000 		.4byte	.LASF879
 13801 4116 39       		.byte	0x39
 13802 4117 09       		.byte	0x9
 13803 4118 1C410000 		.4byte	0x411c
 13804 411c 07       		.uleb128 0x7
 13805 411d AB120000 		.4byte	.LASF880
 13806 4121 18       		.byte	0x18
 13807 4122 39       		.byte	0x39
 13808 4123 2E       		.byte	0x2e
 13809 4124 7B410000 		.4byte	0x417b
 13810 4128 18       		.uleb128 0x18
 13811 4129 696400   		.ascii	"id\000"
 13812 412c 39       		.byte	0x39
 13813 412d 2F       		.byte	0x2f
ARM GAS  C:\Users\mathi\AppData\Local\Temp\ccXNOisu.s 			page 249


 13814 412e 15110000 		.4byte	0x1115
 13815 4132 00       		.byte	0
 13816 4133 18       		.uleb128 0x18
 13817 4134 6E7300   		.ascii	"ns\000"
 13818 4137 39       		.byte	0x39
 13819 4138 30       		.byte	0x30
 13820 4139 7B410000 		.4byte	0x417b
 13821 413d 04       		.byte	0x4
 13822 413e 08       		.uleb128 0x8
 13823 413f 13040000 		.4byte	.LASF762
 13824 4143 39       		.byte	0x39
 13825 4144 31       		.byte	0x31
 13826 4145 81410000 		.4byte	0x4181
 13827 4149 08       		.byte	0x8
 13828 414a 08       		.uleb128 0x8
 13829 414b 99210000 		.4byte	.LASF881
 13830 414f 39       		.byte	0x39
 13831 4150 32       		.byte	0x32
 13832 4151 A4150000 		.4byte	0x15a4
 13833 4155 0C       		.byte	0xc
 13834 4156 08       		.uleb128 0x8
 13835 4157 6D130000 		.4byte	.LASF882
 13836 415b 39       		.byte	0x39
 13837 415c 33       		.byte	0x33
 13838 415d A4150000 		.4byte	0x15a4
 13839 4161 0D       		.byte	0xd
 13840 4162 08       		.uleb128 0x8
 13841 4163 A9090000 		.4byte	.LASF883
 13842 4167 39       		.byte	0x39
 13843 4168 34       		.byte	0x34
 13844 4169 C3000000 		.4byte	0xc3
 13845 416d 0E       		.byte	0xe
 13846 416e 08       		.uleb128 0x8
 13847 416f 990E0000 		.4byte	.LASF884
 13848 4173 39       		.byte	0x39
 13849 4174 3C       		.byte	0x3c
 13850 4175 23420000 		.4byte	0x4223
 13851 4179 10       		.byte	0x10
 13852 417a 00       		.byte	0
 13853 417b 0B       		.uleb128 0xb
 13854 417c 04       		.byte	0x4
 13855 417d B2400000 		.4byte	0x40b2
 13856 4181 0B       		.uleb128 0xb
 13857 4182 04       		.byte	0x4
 13858 4183 11410000 		.4byte	0x4111
 13859 4187 07       		.uleb128 0x7
 13860 4188 8B1A0000 		.4byte	.LASF885
 13861 418c 08       		.byte	0x8
 13862 418d 39       		.byte	0x39
 13863 418e 14       		.byte	0x14
 13864 418f B8410000 		.4byte	0x41b8
 13865 4193 18       		.uleb128 0x18
 13866 4194 62756600 		.ascii	"buf\000"
 13867 4198 39       		.byte	0x39
 13868 4199 15       		.byte	0x15
 13869 419a A1370000 		.4byte	0x37a1
 13870 419e 00       		.byte	0
ARM GAS  C:\Users\mathi\AppData\Local\Temp\ccXNOisu.s 			page 250


 13871 419f 08       		.uleb128 0x8
 13872 41a0 41280000 		.4byte	.LASF886
 13873 41a4 39       		.byte	0x39
 13874 41a5 16       		.byte	0x16
 13875 41a6 DE000000 		.4byte	0xde
 13876 41aa 04       		.byte	0x4
 13877 41ab 18       		.uleb128 0x18
 13878 41ac 6C656E00 		.ascii	"len\000"
 13879 41b0 39       		.byte	0x39
 13880 41b1 17       		.byte	0x17
 13881 41b2 DE000000 		.4byte	0xde
 13882 41b6 06       		.byte	0x6
 13883 41b7 00       		.byte	0
 13884 41b8 07       		.uleb128 0x7
 13885 41b9 19190000 		.4byte	.LASF887
 13886 41bd 08       		.byte	0x8
 13887 41be 39       		.byte	0x39
 13888 41bf 1A       		.byte	0x1a
 13889 41c0 E9410000 		.4byte	0x41e9
 13890 41c4 18       		.uleb128 0x18
 13891 41c5 62756600 		.ascii	"buf\000"
 13892 41c9 39       		.byte	0x39
 13893 41ca 1B       		.byte	0x1b
 13894 41cb E9410000 		.4byte	0x41e9
 13895 41cf 00       		.byte	0
 13896 41d0 08       		.uleb128 0x8
 13897 41d1 2C0B0000 		.4byte	.LASF888
 13898 41d5 39       		.byte	0x39
 13899 41d6 1C       		.byte	0x1c
 13900 41d7 DE000000 		.4byte	0xde
 13901 41db 04       		.byte	0x4
 13902 41dc 18       		.uleb128 0x18
 13903 41dd 64696D00 		.ascii	"dim\000"
 13904 41e1 39       		.byte	0x39
 13905 41e2 1D       		.byte	0x1d
 13906 41e3 DE000000 		.4byte	0xde
 13907 41e7 06       		.byte	0x6
 13908 41e8 00       		.byte	0
 13909 41e9 0B       		.uleb128 0xb
 13910 41ea 04       		.byte	0x4
 13911 41eb EF410000 		.4byte	0x41ef
 13912 41ef 03       		.uleb128 0x3
 13913 41f0 04       		.byte	0x4
 13914 41f1 04       		.byte	0x4
 13915 41f2 570C0000 		.4byte	.LASF889
 13916 41f6 07       		.uleb128 0x7
 13917 41f7 42120000 		.4byte	.LASF890
 13918 41fb 08       		.byte	0x8
 13919 41fc 39       		.byte	0x39
 13920 41fd 20       		.byte	0x20
 13921 41fe 23420000 		.4byte	0x4223
 13922 4202 18       		.uleb128 0x18
 13923 4203 62756600 		.ascii	"buf\000"
 13924 4207 39       		.byte	0x39
 13925 4208 21       		.byte	0x21
 13926 4209 E9410000 		.4byte	0x41e9
 13927 420d 00       		.byte	0
ARM GAS  C:\Users\mathi\AppData\Local\Temp\ccXNOisu.s 			page 251


 13928 420e 18       		.uleb128 0x18
 13929 420f 6E00     		.ascii	"n\000"
 13930 4211 39       		.byte	0x39
 13931 4212 22       		.byte	0x22
 13932 4213 DE000000 		.4byte	0xde
 13933 4217 04       		.byte	0x4
 13934 4218 18       		.uleb128 0x18
 13935 4219 6D00     		.ascii	"m\000"
 13936 421b 39       		.byte	0x39
 13937 421c 23       		.byte	0x23
 13938 421d DE000000 		.4byte	0xde
 13939 4221 06       		.byte	0x6
 13940 4222 00       		.byte	0
 13941 4223 1D       		.uleb128 0x1d
 13942 4224 08       		.byte	0x8
 13943 4225 39       		.byte	0x39
 13944 4226 35       		.byte	0x35
 13945 4227 68420000 		.4byte	0x4268
 13946 422b 23       		.uleb128 0x23
 13947 422c 6200     		.ascii	"b\000"
 13948 422e 39       		.byte	0x39
 13949 422f 36       		.byte	0x36
 13950 4230 A4150000 		.4byte	0x15a4
 13951 4234 23       		.uleb128 0x23
 13952 4235 7300     		.ascii	"s\000"
 13953 4237 39       		.byte	0x39
 13954 4238 37       		.byte	0x37
 13955 4239 EF410000 		.4byte	0x41ef
 13956 423d 23       		.uleb128 0x23
 13957 423e 6900     		.ascii	"i\000"
 13958 4240 39       		.byte	0x39
 13959 4241 38       		.byte	0x38
 13960 4242 E9000000 		.4byte	0xe9
 13961 4246 23       		.uleb128 0x23
 13962 4247 73747200 		.ascii	"str\000"
 13963 424b 39       		.byte	0x39
 13964 424c 39       		.byte	0x39
 13965 424d 87410000 		.4byte	0x4187
 13966 4251 2A       		.uleb128 0x2a
 13967 4252 0A010000 		.4byte	.LASF891
 13968 4256 39       		.byte	0x39
 13969 4257 3A       		.byte	0x3a
 13970 4258 B8410000 		.4byte	0x41b8
 13971 425c 23       		.uleb128 0x23
 13972 425d 6D617400 		.ascii	"mat\000"
 13973 4261 39       		.byte	0x39
 13974 4262 3B       		.byte	0x3b
 13975 4263 F6410000 		.4byte	0x41f6
 13976 4267 00       		.byte	0
 13977 4268 2F       		.uleb128 0x2f
 13978 4269 62757300 		.ascii	"bus\000"
 13979 426d 3A       		.byte	0x3a
 13980 426e 0F       		.byte	0xf
 13981 426f F0380000 		.4byte	0x38f0
 13982 4273 16       		.uleb128 0x16
 13983 4274 F70F0000 		.4byte	.LASF892
 13984 4278 3A       		.byte	0x3a
ARM GAS  C:\Users\mathi\AppData\Local\Temp\ccXNOisu.s 			page 252


 13985 4279 11       		.byte	0x11
 13986 427a B2400000 		.4byte	0x40b2
 13987 427e 21       		.uleb128 0x21
 13988 427f 07       		.byte	0x7
 13989 4280 01       		.byte	0x1
 13990 4281 42000000 		.4byte	0x42
 13991 4285 3B       		.byte	0x3b
 13992 4286 70       		.byte	0x70
 13993 4287 EC420000 		.4byte	0x42ec
 13994 428b 22       		.uleb128 0x22
 13995 428c F6040000 		.4byte	.LASF893
 13996 4290 00       		.byte	0
 13997 4291 22       		.uleb128 0x22
 13998 4292 B6030000 		.4byte	.LASF894
 13999 4296 01       		.byte	0x1
 14000 4297 22       		.uleb128 0x22
 14001 4298 EB0C0000 		.4byte	.LASF895
 14002 429c 02       		.byte	0x2
 14003 429d 22       		.uleb128 0x22
 14004 429e 3F1C0000 		.4byte	.LASF896
 14005 42a2 03       		.byte	0x3
 14006 42a3 22       		.uleb128 0x22
 14007 42a4 B5210000 		.4byte	.LASF897
 14008 42a8 04       		.byte	0x4
 14009 42a9 22       		.uleb128 0x22
 14010 42aa E4090000 		.4byte	.LASF898
 14011 42ae 05       		.byte	0x5
 14012 42af 22       		.uleb128 0x22
 14013 42b0 3F0E0000 		.4byte	.LASF899
 14014 42b4 06       		.byte	0x6
 14015 42b5 22       		.uleb128 0x22
 14016 42b6 2C220000 		.4byte	.LASF900
 14017 42ba 07       		.byte	0x7
 14018 42bb 22       		.uleb128 0x22
 14019 42bc EF0F0000 		.4byte	.LASF901
 14020 42c0 08       		.byte	0x8
 14021 42c1 22       		.uleb128 0x22
 14022 42c2 F51D0000 		.4byte	.LASF902
 14023 42c6 09       		.byte	0x9
 14024 42c7 22       		.uleb128 0x22
 14025 42c8 60290000 		.4byte	.LASF903
 14026 42cc 0A       		.byte	0xa
 14027 42cd 22       		.uleb128 0x22
 14028 42ce 5D0C0000 		.4byte	.LASF904
 14029 42d2 0B       		.byte	0xb
 14030 42d3 22       		.uleb128 0x22
 14031 42d4 5C000000 		.4byte	.LASF905
 14032 42d8 0C       		.byte	0xc
 14033 42d9 22       		.uleb128 0x22
 14034 42da C4120000 		.4byte	.LASF906
 14035 42de 0D       		.byte	0xd
 14036 42df 22       		.uleb128 0x22
 14037 42e0 AB260000 		.4byte	.LASF907
 14038 42e4 0E       		.byte	0xe
 14039 42e5 22       		.uleb128 0x22
 14040 42e6 17110000 		.4byte	.LASF908
 14041 42ea 0F       		.byte	0xf
ARM GAS  C:\Users\mathi\AppData\Local\Temp\ccXNOisu.s 			page 253


 14042 42eb 00       		.byte	0
 14043 42ec 21       		.uleb128 0x21
 14044 42ed 07       		.byte	0x7
 14045 42ee 01       		.byte	0x1
 14046 42ef 42000000 		.4byte	0x42
 14047 42f3 3B       		.byte	0x3b
 14048 42f4 86       		.byte	0x86
 14049 42f5 0C430000 		.4byte	0x430c
 14050 42f9 22       		.uleb128 0x22
 14051 42fa 50010000 		.4byte	.LASF909
 14052 42fe 00       		.byte	0
 14053 42ff 22       		.uleb128 0x22
 14054 4300 B41E0000 		.4byte	.LASF910
 14055 4304 01       		.byte	0x1
 14056 4305 22       		.uleb128 0x22
 14057 4306 11220000 		.4byte	.LASF911
 14058 430a 02       		.byte	0x2
 14059 430b 00       		.byte	0
 14060 430c 13       		.uleb128 0x13
 14061 430d 27110000 		.4byte	0x1127
 14062 4311 17430000 		.4byte	0x4317
 14063 4315 30       		.uleb128 0x30
 14064 4316 00       		.byte	0
 14065 4317 05       		.uleb128 0x5
 14066 4318 0C430000 		.4byte	0x430c
 14067 431c 16       		.uleb128 0x16
 14068 431d 5D1A0000 		.4byte	.LASF912
 14069 4321 3C       		.byte	0x3c
 14070 4322 A5       		.byte	0xa5
 14071 4323 17430000 		.4byte	0x4317
 14072 4327 17       		.uleb128 0x17
 14073 4328 0C       		.byte	0xc
 14074 4329 3D       		.byte	0x3d
 14075 432a 16       		.byte	0x16
 14076 432b 54430000 		.4byte	0x4354
 14077 432f 08       		.uleb128 0x8
 14078 4330 FC100000 		.4byte	.LASF913
 14079 4334 3D       		.byte	0x3d
 14080 4335 18       		.byte	0x18
 14081 4336 EF410000 		.4byte	0x41ef
 14082 433a 00       		.byte	0
 14083 433b 08       		.uleb128 0x8
 14084 433c 62040000 		.4byte	.LASF914
 14085 4340 3D       		.byte	0x3d
 14086 4341 1A       		.byte	0x1a
 14087 4342 EF410000 		.4byte	0x41ef
 14088 4346 04       		.byte	0x4
 14089 4347 08       		.uleb128 0x8
 14090 4348 3D040000 		.4byte	.LASF915
 14091 434c 3D       		.byte	0x3d
 14092 434d 24       		.byte	0x24
 14093 434e EF410000 		.4byte	0x41ef
 14094 4352 08       		.byte	0x8
 14095 4353 00       		.byte	0
 14096 4354 02       		.uleb128 0x2
 14097 4355 0C210000 		.4byte	.LASF916
 14098 4359 3D       		.byte	0x3d
ARM GAS  C:\Users\mathi\AppData\Local\Temp\ccXNOisu.s 			page 254


 14099 435a 28       		.byte	0x28
 14100 435b 27430000 		.4byte	0x4327
 14101 435f 13       		.uleb128 0x13
 14102 4360 20110000 		.4byte	0x1120
 14103 4364 70430000 		.4byte	0x4370
 14104 4368 29       		.uleb128 0x29
 14105 4369 B1000000 		.4byte	0xb1
 14106 436d 2A10     		.2byte	0x102a
 14107 436f 00       		.byte	0
 14108 4370 16       		.uleb128 0x16
 14109 4371 CC1F0000 		.4byte	.LASF755
 14110 4375 01       		.byte	0x1
 14111 4376 36       		.byte	0x36
 14112 4377 5F430000 		.4byte	0x435f
 14113 437b 16       		.uleb128 0x16
 14114 437c E50D0000 		.4byte	.LASF917
 14115 4380 01       		.byte	0x1
 14116 4381 39       		.byte	0x39
 14117 4382 AA000000 		.4byte	0xaa
 14118 4386 2F       		.uleb128 0x2f
 14119 4387 6300     		.ascii	"c\000"
 14120 4389 01       		.byte	0x1
 14121 438a 3A       		.byte	0x3a
 14122 438b 20110000 		.4byte	0x1120
 14123 438f 31       		.uleb128 0x31
 14124 4390 C20D0000 		.4byte	.LASF1017
 14125 4394 01       		.byte	0x1
 14126 4395 43       		.byte	0x43
 14127 4396 AA000000 		.4byte	0xaa
 14128 439a 00000000 		.4byte	.LFB260
 14129 439e B0220000 		.4byte	.LFE260-.LFB260
 14130 43a2 01       		.uleb128 0x1
 14131 43a3 9C       		.byte	0x9c
 14132 43a4 E0680000 		.4byte	0x68e0
 14133 43a8 32       		.uleb128 0x32
 14134 43a9 633100   		.ascii	"c1\000"
 14135 43ac 01       		.byte	0x1
 14136 43ad 44       		.byte	0x44
 14137 43ae 20110000 		.4byte	0x1120
 14138 43b2 05       		.uleb128 0x5
 14139 43b3 03       		.byte	0x3
 14140 43b4 00000000 		.4byte	c1.13531
 14141 43b8 32       		.uleb128 0x32
 14142 43b9 633200   		.ascii	"c2\000"
 14143 43bc 01       		.byte	0x1
 14144 43bd 44       		.byte	0x44
 14145 43be 20110000 		.4byte	0x1120
 14146 43c2 05       		.uleb128 0x5
 14147 43c3 03       		.byte	0x3
 14148 43c4 00000000 		.4byte	c2.13532
 14149 43c8 33       		.uleb128 0x33
 14150 43c9 4D080000 		.4byte	.LASF918
 14151 43cd 01       		.byte	0x1
 14152 43ce 44       		.byte	0x44
 14153 43cf 20110000 		.4byte	0x1120
 14154 43d3 05       		.uleb128 0x5
 14155 43d4 03       		.byte	0x3
ARM GAS  C:\Users\mathi\AppData\Local\Temp\ccXNOisu.s 			page 255


 14156 43d5 00000000 		.4byte	wait_cam.13533
 14157 43d9 32       		.uleb128 0x32
 14158 43da 6900     		.ascii	"i\000"
 14159 43dc 01       		.byte	0x1
 14160 43dd 45       		.byte	0x45
 14161 43de AA000000 		.4byte	0xaa
 14162 43e2 05       		.uleb128 0x5
 14163 43e3 03       		.byte	0x3
 14164 43e4 00000000 		.4byte	i.13534
 14165 43e8 32       		.uleb128 0x32
 14166 43e9 6A00     		.ascii	"j\000"
 14167 43eb 01       		.byte	0x1
 14168 43ec 45       		.byte	0x45
 14169 43ed AA000000 		.4byte	0xaa
 14170 43f1 05       		.uleb128 0x5
 14171 43f2 03       		.byte	0x3
 14172 43f3 00000000 		.4byte	j.13535
 14173 43f7 34       		.uleb128 0x34
 14174 43f8 6E00     		.ascii	"n\000"
 14175 43fa 01       		.byte	0x1
 14176 43fb 45       		.byte	0x45
 14177 43fc AA000000 		.4byte	0xaa
 14178 4400 33       		.uleb128 0x33
 14179 4401 44160000 		.4byte	.LASF919
 14180 4405 01       		.byte	0x1
 14181 4406 45       		.byte	0x45
 14182 4407 AA000000 		.4byte	0xaa
 14183 440b 05       		.uleb128 0x5
 14184 440c 03       		.byte	0x3
 14185 440d 00000000 		.4byte	speedr.13537
 14186 4411 33       		.uleb128 0x33
 14187 4412 28160000 		.4byte	.LASF920
 14188 4416 01       		.byte	0x1
 14189 4417 45       		.byte	0x45
 14190 4418 AA000000 		.4byte	0xaa
 14191 441c 05       		.uleb128 0x5
 14192 441d 03       		.byte	0x3
 14193 441e 00000000 		.4byte	speedl.13538
 14194 4422 33       		.uleb128 0x33
 14195 4423 F6000000 		.4byte	.LASF921
 14196 4427 01       		.byte	0x1
 14197 4428 45       		.byte	0x45
 14198 4429 AA000000 		.4byte	0xaa
 14199 442d 05       		.uleb128 0x5
 14200 442e 03       		.byte	0x3
 14201 442f 00000000 		.4byte	positionr.13539
 14202 4433 33       		.uleb128 0x33
 14203 4434 EC000000 		.4byte	.LASF922
 14204 4438 01       		.byte	0x1
 14205 4439 45       		.byte	0x45
 14206 443a AA000000 		.4byte	0xaa
 14207 443e 05       		.uleb128 0x5
 14208 443f 03       		.byte	0x3
 14209 4440 00000000 		.4byte	positionl.13540
 14210 4444 33       		.uleb128 0x33
 14211 4445 74000000 		.4byte	.LASF923
 14212 4449 01       		.byte	0x1
ARM GAS  C:\Users\mathi\AppData\Local\Temp\ccXNOisu.s 			page 256


 14213 444a 45       		.byte	0x45
 14214 444b AA000000 		.4byte	0xaa
 14215 444f 05       		.uleb128 0x5
 14216 4450 03       		.byte	0x3
 14217 4451 00000000 		.4byte	LED_nbr.13541
 14218 4455 33       		.uleb128 0x33
 14219 4456 8C270000 		.4byte	.LASF924
 14220 445a 01       		.byte	0x1
 14221 445b 45       		.byte	0x45
 14222 445c AA000000 		.4byte	0xaa
 14223 4460 05       		.uleb128 0x5
 14224 4461 03       		.byte	0x3
 14225 4462 00000000 		.4byte	LED_action.13542
 14226 4466 33       		.uleb128 0x33
 14227 4467 BC0C0000 		.4byte	.LASF925
 14228 446b 01       		.byte	0x1
 14229 446c 45       		.byte	0x45
 14230 446d AA000000 		.4byte	0xaa
 14231 4471 05       		.uleb128 0x5
 14232 4472 03       		.byte	0x3
 14233 4473 00000000 		.4byte	accx.13543
 14234 4477 33       		.uleb128 0x33
 14235 4478 C10C0000 		.4byte	.LASF926
 14236 447c 01       		.byte	0x1
 14237 447d 45       		.byte	0x45
 14238 447e AA000000 		.4byte	0xaa
 14239 4482 05       		.uleb128 0x5
 14240 4483 03       		.byte	0x3
 14241 4484 00000000 		.4byte	accy.13544
 14242 4488 33       		.uleb128 0x33
 14243 4489 BC0E0000 		.4byte	.LASF927
 14244 448d 01       		.byte	0x1
 14245 448e 45       		.byte	0x45
 14246 448f AA000000 		.4byte	0xaa
 14247 4493 05       		.uleb128 0x5
 14248 4494 03       		.byte	0x3
 14249 4495 00000000 		.4byte	accz.13545
 14250 4499 33       		.uleb128 0x33
 14251 449a 7C2A0000 		.4byte	.LASF928
 14252 449e 01       		.byte	0x1
 14253 449f 45       		.byte	0x45
 14254 44a0 AA000000 		.4byte	0xaa
 14255 44a4 05       		.uleb128 0x5
 14256 44a5 03       		.byte	0x3
 14257 44a6 00000000 		.4byte	sound.13546
 14258 44aa 33       		.uleb128 0x33
 14259 44ab D4270000 		.4byte	.LASF929
 14260 44af 01       		.byte	0x1
 14261 44b0 45       		.byte	0x45
 14262 44b1 AA000000 		.4byte	0xaa
 14263 44b5 05       		.uleb128 0x5
 14264 44b6 03       		.byte	0x3
 14265 44b7 00000000 		.4byte	gyrox.13547
 14266 44bb 33       		.uleb128 0x33
 14267 44bc 16100000 		.4byte	.LASF930
 14268 44c0 01       		.byte	0x1
 14269 44c1 45       		.byte	0x45
ARM GAS  C:\Users\mathi\AppData\Local\Temp\ccXNOisu.s 			page 257


 14270 44c2 AA000000 		.4byte	0xaa
 14271 44c6 05       		.uleb128 0x5
 14272 44c7 03       		.byte	0x3
 14273 44c8 00000000 		.4byte	gyroy.13548
 14274 44cc 33       		.uleb128 0x33
 14275 44cd DA270000 		.4byte	.LASF931
 14276 44d1 01       		.byte	0x1
 14277 44d2 45       		.byte	0x45
 14278 44d3 AA000000 		.4byte	0xaa
 14279 44d7 05       		.uleb128 0x5
 14280 44d8 03       		.byte	0x3
 14281 44d9 00000000 		.4byte	gyroz.13549
 14282 44dd 33       		.uleb128 0x33
 14283 44de 9C1B0000 		.4byte	.LASF932
 14284 44e2 01       		.byte	0x1
 14285 44e3 46       		.byte	0x46
 14286 44e4 AA000000 		.4byte	0xaa
 14287 44e8 05       		.uleb128 0x5
 14288 44e9 03       		.byte	0x3
 14289 44ea 00000000 		.4byte	cam_mode.13550
 14290 44ee 33       		.uleb128 0x33
 14291 44ef 0D0F0000 		.4byte	.LASF933
 14292 44f3 01       		.byte	0x1
 14293 44f4 46       		.byte	0x46
 14294 44f5 AA000000 		.4byte	0xaa
 14295 44f9 05       		.uleb128 0x5
 14296 44fa 03       		.byte	0x3
 14297 44fb 00000000 		.4byte	cam_width.13551
 14298 44ff 33       		.uleb128 0x33
 14299 4500 01210000 		.4byte	.LASF934
 14300 4504 01       		.byte	0x1
 14301 4505 46       		.byte	0x46
 14302 4506 AA000000 		.4byte	0xaa
 14303 450a 05       		.uleb128 0x5
 14304 450b 03       		.byte	0x3
 14305 450c 00000000 		.4byte	cam_heigth.13552
 14306 4510 33       		.uleb128 0x33
 14307 4511 D8030000 		.4byte	.LASF935
 14308 4515 01       		.byte	0x1
 14309 4516 46       		.byte	0x46
 14310 4517 AA000000 		.4byte	0xaa
 14311 451b 05       		.uleb128 0x5
 14312 451c 03       		.byte	0x3
 14313 451d 00000000 		.4byte	cam_zoom.13553
 14314 4521 33       		.uleb128 0x33
 14315 4522 500D0000 		.4byte	.LASF936
 14316 4526 01       		.byte	0x1
 14317 4527 46       		.byte	0x46
 14318 4528 AA000000 		.4byte	0xaa
 14319 452c 05       		.uleb128 0x5
 14320 452d 03       		.byte	0x3
 14321 452e 00000000 		.4byte	cam_size.13554
 14322 4532 33       		.uleb128 0x33
 14323 4533 A8130000 		.4byte	.LASF937
 14324 4537 01       		.byte	0x1
 14325 4538 46       		.byte	0x46
 14326 4539 AA000000 		.4byte	0xaa
ARM GAS  C:\Users\mathi\AppData\Local\Temp\ccXNOisu.s 			page 258


 14327 453d 05       		.uleb128 0x5
 14328 453e 03       		.byte	0x3
 14329 453f 00000000 		.4byte	cam_x1.13555
 14330 4543 33       		.uleb128 0x33
 14331 4544 5B190000 		.4byte	.LASF938
 14332 4548 01       		.byte	0x1
 14333 4549 46       		.byte	0x46
 14334 454a AA000000 		.4byte	0xaa
 14335 454e 05       		.uleb128 0x5
 14336 454f 03       		.byte	0x3
 14337 4550 00000000 		.4byte	cam_y1.13556
 14338 4554 33       		.uleb128 0x33
 14339 4555 D7110000 		.4byte	.LASF939
 14340 4559 01       		.byte	0x1
 14341 455a 47       		.byte	0x47
 14342 455b 20110000 		.4byte	0x1120
 14343 455f 05       		.uleb128 0x5
 14344 4560 03       		.byte	0x3
 14345 4561 00000000 		.4byte	first.13557
 14346 4565 33       		.uleb128 0x33
 14347 4566 B2040000 		.4byte	.LASF940
 14348 456a 01       		.byte	0x1
 14349 456b 48       		.byte	0x48
 14350 456c E0680000 		.4byte	0x68e0
 14351 4570 05       		.uleb128 0x5
 14352 4571 03       		.byte	0x3
 14353 4572 00000000 		.4byte	rgb_value.13558
 14354 4576 35       		.uleb128 0x35
 14355 4577 70747200 		.ascii	"ptr\000"
 14356 457b 01       		.byte	0x1
 14357 457c 49       		.byte	0x49
 14358 457d A1370000 		.4byte	0x37a1
 14359 4581 00000000 		.4byte	.LLST0
 14360 4585 32       		.uleb128 0x32
 14361 4586 6D6F6400 		.ascii	"mod\000"
 14362 458a 01       		.byte	0x1
 14363 458b 4A       		.byte	0x4a
 14364 458c AA000000 		.4byte	0xaa
 14365 4590 05       		.uleb128 0x5
 14366 4591 03       		.byte	0x3
 14367 4592 00000000 		.4byte	mod.13560
 14368 4596 32       		.uleb128 0x32
 14369 4597 72656700 		.ascii	"reg\000"
 14370 459b 01       		.byte	0x1
 14371 459c 4A       		.byte	0x4a
 14372 459d AA000000 		.4byte	0xaa
 14373 45a1 05       		.uleb128 0x5
 14374 45a2 03       		.byte	0x3
 14375 45a3 00000000 		.4byte	reg.13561
 14376 45a7 32       		.uleb128 0x32
 14377 45a8 76616C00 		.ascii	"val\000"
 14378 45ac 01       		.byte	0x1
 14379 45ad 4A       		.byte	0x4a
 14380 45ae AA000000 		.4byte	0xaa
 14381 45b2 05       		.uleb128 0x5
 14382 45b3 03       		.byte	0x3
 14383 45b4 00000000 		.4byte	val.13562
ARM GAS  C:\Users\mathi\AppData\Local\Temp\ccXNOisu.s 			page 259


 14384 45b8 36       		.uleb128 0x36
 14385 45b9 DB070000 		.4byte	.LASF941
 14386 45bd 01       		.byte	0x1
 14387 45be 4C       		.byte	0x4c
 14388 45bf 20110000 		.4byte	0x1120
 14389 45c3 28000000 		.4byte	.LLST1
 14390 45c7 36       		.uleb128 0x36
 14391 45c8 6F070000 		.4byte	.LASF942
 14392 45cc 01       		.byte	0x1
 14393 45cd 4C       		.byte	0x4c
 14394 45ce 20110000 		.4byte	0x1120
 14395 45d2 8B000000 		.4byte	.LLST2
 14396 45d6 36       		.uleb128 0x36
 14397 45d7 C5140000 		.4byte	.LASF943
 14398 45db 01       		.byte	0x1
 14399 45dc 4C       		.byte	0x4c
 14400 45dd 20110000 		.4byte	0x1120
 14401 45e1 1A010000 		.4byte	.LLST3
 14402 45e5 33       		.uleb128 0x33
 14403 45e6 3E1F0000 		.4byte	.LASF944
 14404 45ea 01       		.byte	0x1
 14405 45eb 4E       		.byte	0x4e
 14406 45ec 54430000 		.4byte	0x4354
 14407 45f0 05       		.uleb128 0x5
 14408 45f1 03       		.byte	0x3
 14409 45f2 00000000 		.4byte	accelero.13566
 14410 45f6 36       		.uleb128 0x36
 14411 45f7 3E0B0000 		.4byte	.LASF945
 14412 45fb 01       		.byte	0x1
 14413 45fc 50       		.byte	0x50
 14414 45fd AA000000 		.4byte	0xaa
 14415 4601 90010000 		.4byte	.LLST4
 14416 4605 36       		.uleb128 0x36
 14417 4606 00010000 		.4byte	.LASF946
 14418 460a 01       		.byte	0x1
 14419 460b 51       		.byte	0x51
 14420 460c B1000000 		.4byte	0xb1
 14421 4610 D6010000 		.4byte	.LLST5
 14422 4614 36       		.uleb128 0x36
 14423 4615 FE010000 		.4byte	.LASF947
 14424 4619 01       		.byte	0x1
 14425 461a 52       		.byte	0x52
 14426 461b C3000000 		.4byte	0xc3
 14427 461f 0D020000 		.4byte	.LLST6
 14428 4623 36       		.uleb128 0x36
 14429 4624 0F1F0000 		.4byte	.LASF948
 14430 4628 01       		.byte	0x1
 14431 4629 53       		.byte	0x53
 14432 462a DE000000 		.4byte	0xde
 14433 462e 45020000 		.4byte	.LLST7
 14434 4632 33       		.uleb128 0x33
 14435 4633 C7280000 		.4byte	.LASF949
 14436 4637 01       		.byte	0x1
 14437 4638 77       		.byte	0x77
 14438 4639 AA000000 		.4byte	0xaa
 14439 463d 05       		.uleb128 0x5
 14440 463e 03       		.byte	0x3
ARM GAS  C:\Users\mathi\AppData\Local\Temp\ccXNOisu.s 			page 260


 14441 463f 00000000 		.4byte	HWversion.13571
 14442 4643 37       		.uleb128 0x37
 14443 4644 140D0000 		.4byte	.LBB3
 14444 4648 12000000 		.4byte	.LBE3-.LBB3
 14445 464c 6A460000 		.4byte	0x466a
 14446 4650 38       		.uleb128 0x38
 14447 4651 5F5F7800 		.ascii	"__x\000"
 14448 4655 01       		.byte	0x1
 14449 4656 B202     		.2byte	0x2b2
 14450 4658 20110000 		.4byte	0x1120
 14451 465c CA020000 		.4byte	.LLST9
 14452 4660 39       		.uleb128 0x39
 14453 4661 180D0000 		.4byte	.LVL140
 14454 4665 F0680000 		.4byte	0x68f0
 14455 4669 00       		.byte	0
 14456 466a 3A       		.uleb128 0x3a
 14457 466b 00000000 		.4byte	.Ldebug_ranges0+0
 14458 466f 64600000 		.4byte	0x6064
 14459 4673 38       		.uleb128 0x38
 14460 4674 7400     		.ascii	"t\000"
 14461 4676 01       		.byte	0x1
 14462 4677 C703     		.2byte	0x3c7
 14463 4679 78000000 		.4byte	0x78
 14464 467d DD020000 		.4byte	.LLST8
 14465 4681 39       		.uleb128 0x39
 14466 4682 C4010000 		.4byte	.LVL26
 14467 4686 FB680000 		.4byte	0x68fb
 14468 468a 39       		.uleb128 0x39
 14469 468b CA010000 		.4byte	.LVL27
 14470 468f 06690000 		.4byte	0x6906
 14471 4693 39       		.uleb128 0x39
 14472 4694 D0010000 		.4byte	.LVL28
 14473 4698 11690000 		.4byte	0x6911
 14474 469c 3B       		.uleb128 0x3b
 14475 469d DE010000 		.4byte	.LVL29
 14476 46a1 1C690000 		.4byte	0x691c
 14477 46a5 C5460000 		.4byte	0x46c5
 14478 46a9 3C       		.uleb128 0x3c
 14479 46aa 01       		.uleb128 0x1
 14480 46ab 50       		.byte	0x50
 14481 46ac 02       		.uleb128 0x2
 14482 46ad 7A       		.byte	0x7a
 14483 46ae 00       		.sleb128 0
 14484 46af 3C       		.uleb128 0x3c
 14485 46b0 01       		.uleb128 0x1
 14486 46b1 51       		.byte	0x51
 14487 46b2 05       		.uleb128 0x5
 14488 46b3 03       		.byte	0x3
 14489 46b4 F8000000 		.4byte	.LC13
 14490 46b8 3C       		.uleb128 0x3c
 14491 46b9 01       		.uleb128 0x1
 14492 46ba 52       		.byte	0x52
 14493 46bb 02       		.uleb128 0x2
 14494 46bc 74       		.byte	0x74
 14495 46bd 00       		.sleb128 0
 14496 46be 3C       		.uleb128 0x3c
 14497 46bf 01       		.uleb128 0x1
ARM GAS  C:\Users\mathi\AppData\Local\Temp\ccXNOisu.s 			page 261


 14498 46c0 53       		.byte	0x53
 14499 46c1 02       		.uleb128 0x2
 14500 46c2 75       		.byte	0x75
 14501 46c3 00       		.sleb128 0
 14502 46c4 00       		.byte	0
 14503 46c5 3B       		.uleb128 0x3b
 14504 46c6 EC010000 		.4byte	.LVL30
 14505 46ca 27690000 		.4byte	0x6927
 14506 46ce D9460000 		.4byte	0x46d9
 14507 46d2 3C       		.uleb128 0x3c
 14508 46d3 01       		.uleb128 0x1
 14509 46d4 50       		.byte	0x50
 14510 46d5 02       		.uleb128 0x2
 14511 46d6 7A       		.byte	0x7a
 14512 46d7 00       		.sleb128 0
 14513 46d8 00       		.byte	0
 14514 46d9 3B       		.uleb128 0x3b
 14515 46da F4010000 		.4byte	.LVL31
 14516 46de 32690000 		.4byte	0x6932
 14517 46e2 ED460000 		.4byte	0x46ed
 14518 46e6 3C       		.uleb128 0x3c
 14519 46e7 01       		.uleb128 0x1
 14520 46e8 50       		.byte	0x50
 14521 46e9 02       		.uleb128 0x2
 14522 46ea 7A       		.byte	0x7a
 14523 46eb 00       		.sleb128 0
 14524 46ec 00       		.byte	0
 14525 46ed 39       		.uleb128 0x39
 14526 46ee F8010000 		.4byte	.LVL32
 14527 46f2 3D690000 		.4byte	0x693d
 14528 46f6 39       		.uleb128 0x39
 14529 46f7 160E0000 		.4byte	.LVL142
 14530 46fb 48690000 		.4byte	0x6948
 14531 46ff 3B       		.uleb128 0x3b
 14532 4700 200E0000 		.4byte	.LVL143
 14533 4704 1C690000 		.4byte	0x691c
 14534 4708 1C470000 		.4byte	0x471c
 14535 470c 3C       		.uleb128 0x3c
 14536 470d 01       		.uleb128 0x1
 14537 470e 50       		.byte	0x50
 14538 470f 02       		.uleb128 0x2
 14539 4710 7A       		.byte	0x7a
 14540 4711 00       		.sleb128 0
 14541 4712 3C       		.uleb128 0x3c
 14542 4713 01       		.uleb128 0x1
 14543 4714 51       		.byte	0x51
 14544 4715 05       		.uleb128 0x5
 14545 4716 03       		.byte	0x3
 14546 4717 B40A0000 		.4byte	.LC85
 14547 471b 00       		.byte	0
 14548 471c 3B       		.uleb128 0x3b
 14549 471d 2E0E0000 		.4byte	.LVL144
 14550 4721 27690000 		.4byte	0x6927
 14551 4725 30470000 		.4byte	0x4730
 14552 4729 3C       		.uleb128 0x3c
 14553 472a 01       		.uleb128 0x1
 14554 472b 50       		.byte	0x50
ARM GAS  C:\Users\mathi\AppData\Local\Temp\ccXNOisu.s 			page 262


 14555 472c 02       		.uleb128 0x2
 14556 472d 7A       		.byte	0x7a
 14557 472e 00       		.sleb128 0
 14558 472f 00       		.byte	0
 14559 4730 3B       		.uleb128 0x3b
 14560 4731 360E0000 		.4byte	.LVL145
 14561 4735 32690000 		.4byte	0x6932
 14562 4739 44470000 		.4byte	0x4744
 14563 473d 3C       		.uleb128 0x3c
 14564 473e 01       		.uleb128 0x1
 14565 473f 50       		.byte	0x50
 14566 4740 02       		.uleb128 0x2
 14567 4741 7A       		.byte	0x7a
 14568 4742 00       		.sleb128 0
 14569 4743 00       		.byte	0
 14570 4744 39       		.uleb128 0x39
 14571 4745 3A0E0000 		.4byte	.LVL146
 14572 4749 3D690000 		.4byte	0x693d
 14573 474d 39       		.uleb128 0x39
 14574 474e 6A0E0000 		.4byte	.LVL147
 14575 4752 53690000 		.4byte	0x6953
 14576 4756 3B       		.uleb128 0x3b
 14577 4757 740E0000 		.4byte	.LVL148
 14578 475b 5E690000 		.4byte	0x695e
 14579 475f 69470000 		.4byte	0x4769
 14580 4763 3C       		.uleb128 0x3c
 14581 4764 01       		.uleb128 0x1
 14582 4765 51       		.byte	0x51
 14583 4766 01       		.uleb128 0x1
 14584 4767 30       		.byte	0x30
 14585 4768 00       		.byte	0
 14586 4769 39       		.uleb128 0x39
 14587 476a 7C0E0000 		.4byte	.LVL149
 14588 476e 69690000 		.4byte	0x6969
 14589 4772 3B       		.uleb128 0x3b
 14590 4773 900E0000 		.4byte	.LVL150
 14591 4777 1C690000 		.4byte	0x691c
 14592 477b 8C470000 		.4byte	0x478c
 14593 477f 3C       		.uleb128 0x3c
 14594 4780 01       		.uleb128 0x1
 14595 4781 50       		.byte	0x50
 14596 4782 02       		.uleb128 0x2
 14597 4783 7A       		.byte	0x7a
 14598 4784 00       		.sleb128 0
 14599 4785 3C       		.uleb128 0x3c
 14600 4786 01       		.uleb128 0x1
 14601 4787 51       		.byte	0x51
 14602 4788 02       		.uleb128 0x2
 14603 4789 75       		.byte	0x75
 14604 478a 00       		.sleb128 0
 14605 478b 00       		.byte	0
 14606 478c 3B       		.uleb128 0x3b
 14607 478d 9C0E0000 		.4byte	.LVL151
 14608 4791 27690000 		.4byte	0x6927
 14609 4795 A0470000 		.4byte	0x47a0
 14610 4799 3C       		.uleb128 0x3c
 14611 479a 01       		.uleb128 0x1
ARM GAS  C:\Users\mathi\AppData\Local\Temp\ccXNOisu.s 			page 263


 14612 479b 50       		.byte	0x50
 14613 479c 02       		.uleb128 0x2
 14614 479d 74       		.byte	0x74
 14615 479e 00       		.sleb128 0
 14616 479f 00       		.byte	0
 14617 47a0 3B       		.uleb128 0x3b
 14618 47a1 A40E0000 		.4byte	.LVL152
 14619 47a5 32690000 		.4byte	0x6932
 14620 47a9 B4470000 		.4byte	0x47b4
 14621 47ad 3C       		.uleb128 0x3c
 14622 47ae 01       		.uleb128 0x1
 14623 47af 50       		.byte	0x50
 14624 47b0 02       		.uleb128 0x2
 14625 47b1 74       		.byte	0x74
 14626 47b2 00       		.sleb128 0
 14627 47b3 00       		.byte	0
 14628 47b4 39       		.uleb128 0x39
 14629 47b5 A80E0000 		.4byte	.LVL153
 14630 47b9 3D690000 		.4byte	0x693d
 14631 47bd 39       		.uleb128 0x39
 14632 47be CC0E0000 		.4byte	.LVL154
 14633 47c2 74690000 		.4byte	0x6974
 14634 47c6 39       		.uleb128 0x39
 14635 47c7 D20E0000 		.4byte	.LVL155
 14636 47cb 7F690000 		.4byte	0x697f
 14637 47cf 3B       		.uleb128 0x3b
 14638 47d0 DE0E0000 		.4byte	.LVL156
 14639 47d4 1C690000 		.4byte	0x691c
 14640 47d8 F2470000 		.4byte	0x47f2
 14641 47dc 3C       		.uleb128 0x3c
 14642 47dd 01       		.uleb128 0x1
 14643 47de 50       		.byte	0x50
 14644 47df 02       		.uleb128 0x2
 14645 47e0 7A       		.byte	0x7a
 14646 47e1 00       		.sleb128 0
 14647 47e2 3C       		.uleb128 0x3c
 14648 47e3 01       		.uleb128 0x1
 14649 47e4 51       		.byte	0x51
 14650 47e5 05       		.uleb128 0x5
 14651 47e6 03       		.byte	0x3
 14652 47e7 980A0000 		.4byte	.LC81
 14653 47eb 3C       		.uleb128 0x3c
 14654 47ec 01       		.uleb128 0x1
 14655 47ed 52       		.byte	0x52
 14656 47ee 02       		.uleb128 0x2
 14657 47ef 74       		.byte	0x74
 14658 47f0 00       		.sleb128 0
 14659 47f1 00       		.byte	0
 14660 47f2 3B       		.uleb128 0x3b
 14661 47f3 FA0E0000 		.4byte	.LVL158
 14662 47f7 32690000 		.4byte	0x6932
 14663 47fb 06480000 		.4byte	0x4806
 14664 47ff 3C       		.uleb128 0x3c
 14665 4800 01       		.uleb128 0x1
 14666 4801 50       		.byte	0x50
 14667 4802 02       		.uleb128 0x2
 14668 4803 7A       		.byte	0x7a
ARM GAS  C:\Users\mathi\AppData\Local\Temp\ccXNOisu.s 			page 264


 14669 4804 00       		.sleb128 0
 14670 4805 00       		.byte	0
 14671 4806 39       		.uleb128 0x39
 14672 4807 FE0E0000 		.4byte	.LVL159
 14673 480b 3D690000 		.4byte	0x693d
 14674 480f 3B       		.uleb128 0x3b
 14675 4810 1C0F0000 		.4byte	.LVL160
 14676 4814 32690000 		.4byte	0x6932
 14677 4818 2C480000 		.4byte	0x482c
 14678 481c 3C       		.uleb128 0x3c
 14679 481d 01       		.uleb128 0x1
 14680 481e 50       		.byte	0x50
 14681 481f 05       		.uleb128 0x5
 14682 4820 03       		.byte	0x3
 14683 4821 D40A0000 		.4byte	.LC88
 14684 4825 3C       		.uleb128 0x3c
 14685 4826 01       		.uleb128 0x1
 14686 4827 51       		.byte	0x51
 14687 4828 02       		.uleb128 0x2
 14688 4829 08       		.byte	0x8
 14689 482a 25       		.byte	0x25
 14690 482b 00       		.byte	0
 14691 482c 39       		.uleb128 0x39
 14692 482d 200F0000 		.4byte	.LVL161
 14693 4831 3D690000 		.4byte	0x693d
 14694 4835 3B       		.uleb128 0x3b
 14695 4836 300F0000 		.4byte	.LVL162
 14696 483a 1C690000 		.4byte	0x691c
 14697 483e 52480000 		.4byte	0x4852
 14698 4842 3C       		.uleb128 0x3c
 14699 4843 01       		.uleb128 0x1
 14700 4844 50       		.byte	0x50
 14701 4845 02       		.uleb128 0x2
 14702 4846 7A       		.byte	0x7a
 14703 4847 00       		.sleb128 0
 14704 4848 3C       		.uleb128 0x3c
 14705 4849 01       		.uleb128 0x1
 14706 484a 51       		.byte	0x51
 14707 484b 05       		.uleb128 0x5
 14708 484c 03       		.byte	0x3
 14709 484d 500B0000 		.4byte	.LC96
 14710 4851 00       		.byte	0
 14711 4852 3B       		.uleb128 0x3b
 14712 4853 360F0000 		.4byte	.LVL163
 14713 4857 27690000 		.4byte	0x6927
 14714 485b 66480000 		.4byte	0x4866
 14715 485f 3C       		.uleb128 0x3c
 14716 4860 01       		.uleb128 0x1
 14717 4861 50       		.byte	0x50
 14718 4862 02       		.uleb128 0x2
 14719 4863 7A       		.byte	0x7a
 14720 4864 00       		.sleb128 0
 14721 4865 00       		.byte	0
 14722 4866 3B       		.uleb128 0x3b
 14723 4867 3E0F0000 		.4byte	.LVL164
 14724 486b 32690000 		.4byte	0x6932
 14725 486f 7A480000 		.4byte	0x487a
ARM GAS  C:\Users\mathi\AppData\Local\Temp\ccXNOisu.s 			page 265


 14726 4873 3C       		.uleb128 0x3c
 14727 4874 01       		.uleb128 0x1
 14728 4875 50       		.byte	0x50
 14729 4876 02       		.uleb128 0x2
 14730 4877 7A       		.byte	0x7a
 14731 4878 00       		.sleb128 0
 14732 4879 00       		.byte	0
 14733 487a 39       		.uleb128 0x39
 14734 487b 420F0000 		.4byte	.LVL165
 14735 487f 3D690000 		.4byte	0x693d
 14736 4883 39       		.uleb128 0x39
 14737 4884 540F0000 		.4byte	.LVL166
 14738 4888 53690000 		.4byte	0x6953
 14739 488c 3B       		.uleb128 0x3b
 14740 488d 760F0000 		.4byte	.LVL167
 14741 4891 5E690000 		.4byte	0x695e
 14742 4895 C3480000 		.4byte	0x48c3
 14743 4899 3C       		.uleb128 0x3c
 14744 489a 01       		.uleb128 0x1
 14745 489b 50       		.byte	0x50
 14746 489c 02       		.uleb128 0x2
 14747 489d 09       		.byte	0x9
 14748 489e C0       		.byte	0xc0
 14749 489f 3C       		.uleb128 0x3c
 14750 48a0 01       		.uleb128 0x1
 14751 48a1 51       		.byte	0x51
 14752 48a2 1F       		.uleb128 0x1f
 14753 48a3 74       		.byte	0x74
 14754 48a4 00       		.sleb128 0
 14755 48a5 08       		.byte	0x8
 14756 48a6 FF       		.byte	0xff
 14757 48a7 1A       		.byte	0x1a
 14758 48a8 31       		.byte	0x31
 14759 48a9 1C       		.byte	0x1c
 14760 48aa 08       		.byte	0x8
 14761 48ab FF       		.byte	0xff
 14762 48ac 1A       		.byte	0x1a
 14763 48ad 74       		.byte	0x74
 14764 48ae 00       		.sleb128 0
 14765 48af 08       		.byte	0x8
 14766 48b0 FF       		.byte	0xff
 14767 48b1 1A       		.byte	0x1a
 14768 48b2 23       		.byte	0x23
 14769 48b3 01       		.uleb128 0x1
 14770 48b4 08       		.byte	0x8
 14771 48b5 FF       		.byte	0xff
 14772 48b6 1A       		.byte	0x1a
 14773 48b7 74       		.byte	0x74
 14774 48b8 00       		.sleb128 0
 14775 48b9 4F       		.byte	0x4f
 14776 48ba 24       		.byte	0x24
 14777 48bb 30       		.byte	0x30
 14778 48bc 2D       		.byte	0x2d
 14779 48bd 28       		.byte	0x28
 14780 48be 0100     		.2byte	0x1
 14781 48c0 16       		.byte	0x16
 14782 48c1 13       		.byte	0x13
ARM GAS  C:\Users\mathi\AppData\Local\Temp\ccXNOisu.s 			page 266


 14783 48c2 00       		.byte	0
 14784 48c3 3B       		.uleb128 0x3b
 14785 48c4 AA0F0000 		.4byte	.LVL168
 14786 48c8 5E690000 		.4byte	0x695e
 14787 48cc D7480000 		.4byte	0x48d7
 14788 48d0 3C       		.uleb128 0x3c
 14789 48d1 01       		.uleb128 0x1
 14790 48d2 50       		.byte	0x50
 14791 48d3 02       		.uleb128 0x2
 14792 48d4 09       		.byte	0x9
 14793 48d5 C0       		.byte	0xc0
 14794 48d6 00       		.byte	0
 14795 48d7 39       		.uleb128 0x39
 14796 48d8 C00F0000 		.4byte	.LVL169
 14797 48dc 69690000 		.4byte	0x6969
 14798 48e0 3B       		.uleb128 0x3b
 14799 48e1 0A100000 		.4byte	.LVL170
 14800 48e5 1C690000 		.4byte	0x691c
 14801 48e9 FD480000 		.4byte	0x48fd
 14802 48ed 3C       		.uleb128 0x3c
 14803 48ee 01       		.uleb128 0x1
 14804 48ef 50       		.byte	0x50
 14805 48f0 02       		.uleb128 0x2
 14806 48f1 7A       		.byte	0x7a
 14807 48f2 00       		.sleb128 0
 14808 48f3 3C       		.uleb128 0x3c
 14809 48f4 01       		.uleb128 0x1
 14810 48f5 51       		.byte	0x51
 14811 48f6 05       		.uleb128 0x5
 14812 48f7 03       		.byte	0x3
 14813 48f8 3C0A0000 		.4byte	.LC76
 14814 48fc 00       		.byte	0
 14815 48fd 3B       		.uleb128 0x3b
 14816 48fe 18100000 		.4byte	.LVL171
 14817 4902 27690000 		.4byte	0x6927
 14818 4906 11490000 		.4byte	0x4911
 14819 490a 3C       		.uleb128 0x3c
 14820 490b 01       		.uleb128 0x1
 14821 490c 50       		.byte	0x50
 14822 490d 02       		.uleb128 0x2
 14823 490e 7A       		.byte	0x7a
 14824 490f 00       		.sleb128 0
 14825 4910 00       		.byte	0
 14826 4911 3B       		.uleb128 0x3b
 14827 4912 20100000 		.4byte	.LVL172
 14828 4916 32690000 		.4byte	0x6932
 14829 491a 25490000 		.4byte	0x4925
 14830 491e 3C       		.uleb128 0x3c
 14831 491f 01       		.uleb128 0x1
 14832 4920 50       		.byte	0x50
 14833 4921 02       		.uleb128 0x2
 14834 4922 7A       		.byte	0x7a
 14835 4923 00       		.sleb128 0
 14836 4924 00       		.byte	0
 14837 4925 39       		.uleb128 0x39
 14838 4926 24100000 		.4byte	.LVL173
 14839 492a 3D690000 		.4byte	0x693d
ARM GAS  C:\Users\mathi\AppData\Local\Temp\ccXNOisu.s 			page 267


 14840 492e 3B       		.uleb128 0x3b
 14841 492f 42100000 		.4byte	.LVL174
 14842 4933 32690000 		.4byte	0x6932
 14843 4937 4B490000 		.4byte	0x494b
 14844 493b 3C       		.uleb128 0x3c
 14845 493c 01       		.uleb128 0x1
 14846 493d 50       		.byte	0x50
 14847 493e 05       		.uleb128 0x5
 14848 493f 03       		.byte	0x3
 14849 4940 EC090000 		.4byte	.LC73
 14850 4944 3C       		.uleb128 0x3c
 14851 4945 01       		.uleb128 0x1
 14852 4946 51       		.byte	0x51
 14853 4947 02       		.uleb128 0x2
 14854 4948 08       		.byte	0x8
 14855 4949 3E       		.byte	0x3e
 14856 494a 00       		.byte	0
 14857 494b 39       		.uleb128 0x39
 14858 494c 46100000 		.4byte	.LVL175
 14859 4950 3D690000 		.4byte	0x693d
 14860 4954 3B       		.uleb128 0x3b
 14861 4955 52100000 		.4byte	.LVL176
 14862 4959 8A690000 		.4byte	0x698a
 14863 495d 6C490000 		.4byte	0x496c
 14864 4961 3C       		.uleb128 0x3c
 14865 4962 01       		.uleb128 0x1
 14866 4963 50       		.byte	0x50
 14867 4964 01       		.uleb128 0x1
 14868 4965 38       		.byte	0x38
 14869 4966 3C       		.uleb128 0x3c
 14870 4967 01       		.uleb128 0x1
 14871 4968 51       		.byte	0x51
 14872 4969 01       		.uleb128 0x1
 14873 496a 31       		.byte	0x31
 14874 496b 00       		.byte	0
 14875 496c 3B       		.uleb128 0x3b
 14876 496d 5A100000 		.4byte	.LVL177
 14877 4971 95690000 		.4byte	0x6995
 14878 4975 81490000 		.4byte	0x4981
 14879 4979 3C       		.uleb128 0x3c
 14880 497a 01       		.uleb128 0x1
 14881 497b 50       		.byte	0x50
 14882 497c 03       		.uleb128 0x3
 14883 497d 0A       		.byte	0xa
 14884 497e 9001     		.2byte	0x190
 14885 4980 00       		.byte	0
 14886 4981 39       		.uleb128 0x39
 14887 4982 5E100000 		.4byte	.LVL178
 14888 4986 A0690000 		.4byte	0x69a0
 14889 498a 3B       		.uleb128 0x3b
 14890 498b 64100000 		.4byte	.LVL179
 14891 498f 95690000 		.4byte	0x6995
 14892 4993 9E490000 		.4byte	0x499e
 14893 4997 3C       		.uleb128 0x3c
 14894 4998 01       		.uleb128 0x1
 14895 4999 50       		.byte	0x50
 14896 499a 02       		.uleb128 0x2
ARM GAS  C:\Users\mathi\AppData\Local\Temp\ccXNOisu.s 			page 268


 14897 499b 08       		.byte	0x8
 14898 499c 64       		.byte	0x64
 14899 499d 00       		.byte	0
 14900 499e 39       		.uleb128 0x39
 14901 499f 68100000 		.4byte	.LVL180
 14902 49a3 AB690000 		.4byte	0x69ab
 14903 49a7 3B       		.uleb128 0x3b
 14904 49a8 70100000 		.4byte	.LVL181
 14905 49ac 32690000 		.4byte	0x6932
 14906 49b0 C3490000 		.4byte	0x49c3
 14907 49b4 3C       		.uleb128 0x3c
 14908 49b5 01       		.uleb128 0x1
 14909 49b6 50       		.byte	0x50
 14910 49b7 05       		.uleb128 0x5
 14911 49b8 03       		.byte	0x3
 14912 49b9 640B0000 		.4byte	.LC97
 14913 49bd 3C       		.uleb128 0x3c
 14914 49be 01       		.uleb128 0x1
 14915 49bf 51       		.byte	0x51
 14916 49c0 01       		.uleb128 0x1
 14917 49c1 49       		.byte	0x49
 14918 49c2 00       		.byte	0
 14919 49c3 39       		.uleb128 0x39
 14920 49c4 74100000 		.4byte	.LVL182
 14921 49c8 3D690000 		.4byte	0x693d
 14922 49cc 3B       		.uleb128 0x3b
 14923 49cd A6100000 		.4byte	.LVL184
 14924 49d1 B6690000 		.4byte	0x69b6
 14925 49d5 F8490000 		.4byte	0x49f8
 14926 49d9 3C       		.uleb128 0x3c
 14927 49da 01       		.uleb128 0x1
 14928 49db 50       		.byte	0x50
 14929 49dc 02       		.uleb128 0x2
 14930 49dd 7A       		.byte	0x7a
 14931 49de 00       		.sleb128 0
 14932 49df 3C       		.uleb128 0x3c
 14933 49e0 01       		.uleb128 0x1
 14934 49e1 51       		.byte	0x51
 14935 49e2 05       		.uleb128 0x5
 14936 49e3 03       		.byte	0x3
 14937 49e4 D0090000 		.4byte	.LC71
 14938 49e8 3C       		.uleb128 0x3c
 14939 49e9 01       		.uleb128 0x1
 14940 49ea 52       		.byte	0x52
 14941 49eb 03       		.uleb128 0x3
 14942 49ec 91       		.byte	0x91
 14943 49ed 40       		.sleb128 -64
 14944 49ee 06       		.byte	0x6
 14945 49ef 3C       		.uleb128 0x3c
 14946 49f0 01       		.uleb128 0x1
 14947 49f1 53       		.byte	0x53
 14948 49f2 04       		.uleb128 0x4
 14949 49f3 91       		.byte	0x91
 14950 49f4 B87F     		.sleb128 -72
 14951 49f6 06       		.byte	0x6
 14952 49f7 00       		.byte	0
 14953 49f8 39       		.uleb128 0x39
ARM GAS  C:\Users\mathi\AppData\Local\Temp\ccXNOisu.s 			page 269


 14954 49f9 E2100000 		.4byte	.LVL185
 14955 49fd C1690000 		.4byte	0x69c1
 14956 4a01 3B       		.uleb128 0x3b
 14957 4a02 30110000 		.4byte	.LVL186
 14958 4a06 CC690000 		.4byte	0x69cc
 14959 4a0a 244A0000 		.4byte	0x4a24
 14960 4a0e 3C       		.uleb128 0x3c
 14961 4a0f 02       		.uleb128 0x2
 14962 4a10 7D       		.byte	0x7d
 14963 4a11 00       		.sleb128 0
 14964 4a12 02       		.uleb128 0x2
 14965 4a13 75       		.byte	0x75
 14966 4a14 00       		.sleb128 0
 14967 4a15 3C       		.uleb128 0x3c
 14968 4a16 02       		.uleb128 0x2
 14969 4a17 7D       		.byte	0x7d
 14970 4a18 04       		.sleb128 4
 14971 4a19 02       		.uleb128 0x2
 14972 4a1a 75       		.byte	0x75
 14973 4a1b 00       		.sleb128 0
 14974 4a1c 3C       		.uleb128 0x3c
 14975 4a1d 02       		.uleb128 0x2
 14976 4a1e 7D       		.byte	0x7d
 14977 4a1f 08       		.sleb128 8
 14978 4a20 02       		.uleb128 0x2
 14979 4a21 74       		.byte	0x74
 14980 4a22 00       		.sleb128 0
 14981 4a23 00       		.byte	0
 14982 4a24 39       		.uleb128 0x39
 14983 4a25 34110000 		.4byte	.LVL187
 14984 4a29 D7690000 		.4byte	0x69d7
 14985 4a2d 3B       		.uleb128 0x3b
 14986 4a2e 44110000 		.4byte	.LVL188
 14987 4a32 32690000 		.4byte	0x6932
 14988 4a36 494A0000 		.4byte	0x4a49
 14989 4a3a 3C       		.uleb128 0x3c
 14990 4a3b 01       		.uleb128 0x1
 14991 4a3c 50       		.byte	0x50
 14992 4a3d 05       		.uleb128 0x5
 14993 4a3e 03       		.byte	0x3
 14994 4a3f E8090000 		.4byte	.LC72
 14995 4a43 3C       		.uleb128 0x3c
 14996 4a44 01       		.uleb128 0x1
 14997 4a45 51       		.byte	0x51
 14998 4a46 01       		.uleb128 0x1
 14999 4a47 33       		.byte	0x33
 15000 4a48 00       		.byte	0
 15001 4a49 39       		.uleb128 0x39
 15002 4a4a 48110000 		.4byte	.LVL189
 15003 4a4e 3D690000 		.4byte	0x693d
 15004 4a52 3B       		.uleb128 0x3b
 15005 4a53 9A110000 		.4byte	.LVL190
 15006 4a57 B6690000 		.4byte	0x69b6
 15007 4a5b 814A0000 		.4byte	0x4a81
 15008 4a5f 3C       		.uleb128 0x3c
 15009 4a60 01       		.uleb128 0x1
 15010 4a61 50       		.byte	0x50
ARM GAS  C:\Users\mathi\AppData\Local\Temp\ccXNOisu.s 			page 270


 15011 4a62 02       		.uleb128 0x2
 15012 4a63 7A       		.byte	0x7a
 15013 4a64 00       		.sleb128 0
 15014 4a65 3C       		.uleb128 0x3c
 15015 4a66 01       		.uleb128 0x1
 15016 4a67 51       		.byte	0x51
 15017 4a68 05       		.uleb128 0x5
 15018 4a69 03       		.byte	0x3
 15019 4a6a 0C0B0000 		.4byte	.LC91
 15020 4a6e 3C       		.uleb128 0x3c
 15021 4a6f 01       		.uleb128 0x1
 15022 4a70 52       		.byte	0x52
 15023 4a71 05       		.uleb128 0x5
 15024 4a72 03       		.byte	0x3
 15025 4a73 00000000 		.4byte	.LANCHOR24
 15026 4a77 3C       		.uleb128 0x3c
 15027 4a78 01       		.uleb128 0x1
 15028 4a79 53       		.byte	0x53
 15029 4a7a 05       		.uleb128 0x5
 15030 4a7b 03       		.byte	0x3
 15031 4a7c 00000000 		.4byte	.LANCHOR25
 15032 4a80 00       		.byte	0
 15033 4a81 3B       		.uleb128 0x3b
 15034 4a82 AA110000 		.4byte	.LVL191
 15035 4a86 1C690000 		.4byte	0x691c
 15036 4a8a 9E4A0000 		.4byte	0x4a9e
 15037 4a8e 3C       		.uleb128 0x3c
 15038 4a8f 01       		.uleb128 0x1
 15039 4a90 50       		.byte	0x50
 15040 4a91 02       		.uleb128 0x2
 15041 4a92 7A       		.byte	0x7a
 15042 4a93 00       		.sleb128 0
 15043 4a94 3C       		.uleb128 0x3c
 15044 4a95 01       		.uleb128 0x1
 15045 4a96 51       		.byte	0x51
 15046 4a97 05       		.uleb128 0x5
 15047 4a98 03       		.byte	0x3
 15048 4a99 180B0000 		.4byte	.LC92
 15049 4a9d 00       		.byte	0
 15050 4a9e 3B       		.uleb128 0x3b
 15051 4a9f B8110000 		.4byte	.LVL192
 15052 4aa3 27690000 		.4byte	0x6927
 15053 4aa7 B24A0000 		.4byte	0x4ab2
 15054 4aab 3C       		.uleb128 0x3c
 15055 4aac 01       		.uleb128 0x1
 15056 4aad 50       		.byte	0x50
 15057 4aae 02       		.uleb128 0x2
 15058 4aaf 7A       		.byte	0x7a
 15059 4ab0 00       		.sleb128 0
 15060 4ab1 00       		.byte	0
 15061 4ab2 3B       		.uleb128 0x3b
 15062 4ab3 C0110000 		.4byte	.LVL193
 15063 4ab7 32690000 		.4byte	0x6932
 15064 4abb C64A0000 		.4byte	0x4ac6
 15065 4abf 3C       		.uleb128 0x3c
 15066 4ac0 01       		.uleb128 0x1
 15067 4ac1 50       		.byte	0x50
ARM GAS  C:\Users\mathi\AppData\Local\Temp\ccXNOisu.s 			page 271


 15068 4ac2 02       		.uleb128 0x2
 15069 4ac3 7A       		.byte	0x7a
 15070 4ac4 00       		.sleb128 0
 15071 4ac5 00       		.byte	0
 15072 4ac6 39       		.uleb128 0x39
 15073 4ac7 C4110000 		.4byte	.LVL194
 15074 4acb 3D690000 		.4byte	0x693d
 15075 4acf 39       		.uleb128 0x39
 15076 4ad0 CC110000 		.4byte	.LVL195
 15077 4ad4 53690000 		.4byte	0x6953
 15078 4ad8 39       		.uleb128 0x39
 15079 4ad9 D8110000 		.4byte	.LVL196
 15080 4add 5E690000 		.4byte	0x695e
 15081 4ae1 39       		.uleb128 0x39
 15082 4ae2 E2110000 		.4byte	.LVL197
 15083 4ae6 69690000 		.4byte	0x6969
 15084 4aea 3B       		.uleb128 0x3b
 15085 4aeb EC110000 		.4byte	.LVL198
 15086 4aef 1C690000 		.4byte	0x691c
 15087 4af3 074B0000 		.4byte	0x4b07
 15088 4af7 3C       		.uleb128 0x3c
 15089 4af8 01       		.uleb128 0x1
 15090 4af9 50       		.byte	0x50
 15091 4afa 02       		.uleb128 0x2
 15092 4afb 7A       		.byte	0x7a
 15093 4afc 00       		.sleb128 0
 15094 4afd 3C       		.uleb128 0x3c
 15095 4afe 01       		.uleb128 0x1
 15096 4aff 51       		.byte	0x51
 15097 4b00 05       		.uleb128 0x5
 15098 4b01 03       		.byte	0x3
 15099 4b02 240B0000 		.4byte	.LC93
 15100 4b06 00       		.byte	0
 15101 4b07 3B       		.uleb128 0x3b
 15102 4b08 F2110000 		.4byte	.LVL199
 15103 4b0c 27690000 		.4byte	0x6927
 15104 4b10 1B4B0000 		.4byte	0x4b1b
 15105 4b14 3C       		.uleb128 0x3c
 15106 4b15 01       		.uleb128 0x1
 15107 4b16 50       		.byte	0x50
 15108 4b17 02       		.uleb128 0x2
 15109 4b18 7A       		.byte	0x7a
 15110 4b19 00       		.sleb128 0
 15111 4b1a 00       		.byte	0
 15112 4b1b 3B       		.uleb128 0x3b
 15113 4b1c FA110000 		.4byte	.LVL200
 15114 4b20 32690000 		.4byte	0x6932
 15115 4b24 2F4B0000 		.4byte	0x4b2f
 15116 4b28 3C       		.uleb128 0x3c
 15117 4b29 01       		.uleb128 0x1
 15118 4b2a 50       		.byte	0x50
 15119 4b2b 02       		.uleb128 0x2
 15120 4b2c 7A       		.byte	0x7a
 15121 4b2d 00       		.sleb128 0
 15122 4b2e 00       		.byte	0
 15123 4b2f 39       		.uleb128 0x39
 15124 4b30 FE110000 		.4byte	.LVL201
ARM GAS  C:\Users\mathi\AppData\Local\Temp\ccXNOisu.s 			page 272


 15125 4b34 3D690000 		.4byte	0x693d
 15126 4b38 3B       		.uleb128 0x3b
 15127 4b39 18120000 		.4byte	.LVL203
 15128 4b3d 32690000 		.4byte	0x6932
 15129 4b41 4C4B0000 		.4byte	0x4b4c
 15130 4b45 3C       		.uleb128 0x3c
 15131 4b46 01       		.uleb128 0x1
 15132 4b47 50       		.byte	0x50
 15133 4b48 02       		.uleb128 0x2
 15134 4b49 7A       		.byte	0x7a
 15135 4b4a 00       		.sleb128 0
 15136 4b4b 00       		.byte	0
 15137 4b4c 39       		.uleb128 0x39
 15138 4b4d 1C120000 		.4byte	.LVL204
 15139 4b51 3D690000 		.4byte	0x693d
 15140 4b55 3B       		.uleb128 0x3b
 15141 4b56 2A120000 		.4byte	.LVL205
 15142 4b5a E2690000 		.4byte	0x69e2
 15143 4b5e 684B0000 		.4byte	0x4b68
 15144 4b62 3C       		.uleb128 0x3c
 15145 4b63 01       		.uleb128 0x1
 15146 4b64 50       		.byte	0x50
 15147 4b65 01       		.uleb128 0x1
 15148 4b66 30       		.byte	0x30
 15149 4b67 00       		.byte	0
 15150 4b68 3B       		.uleb128 0x3b
 15151 4b69 32120000 		.4byte	.LVL206
 15152 4b6d E2690000 		.4byte	0x69e2
 15153 4b71 7B4B0000 		.4byte	0x4b7b
 15154 4b75 3C       		.uleb128 0x3c
 15155 4b76 01       		.uleb128 0x1
 15156 4b77 50       		.byte	0x50
 15157 4b78 01       		.uleb128 0x1
 15158 4b79 31       		.byte	0x31
 15159 4b7a 00       		.byte	0
 15160 4b7b 3B       		.uleb128 0x3b
 15161 4b7c 3A120000 		.4byte	.LVL207
 15162 4b80 E2690000 		.4byte	0x69e2
 15163 4b84 8E4B0000 		.4byte	0x4b8e
 15164 4b88 3C       		.uleb128 0x3c
 15165 4b89 01       		.uleb128 0x1
 15166 4b8a 50       		.byte	0x50
 15167 4b8b 01       		.uleb128 0x1
 15168 4b8c 32       		.byte	0x32
 15169 4b8d 00       		.byte	0
 15170 4b8e 3B       		.uleb128 0x3b
 15171 4b8f 42120000 		.4byte	.LVL208
 15172 4b93 E2690000 		.4byte	0x69e2
 15173 4b97 A14B0000 		.4byte	0x4ba1
 15174 4b9b 3C       		.uleb128 0x3c
 15175 4b9c 01       		.uleb128 0x1
 15176 4b9d 50       		.byte	0x50
 15177 4b9e 01       		.uleb128 0x1
 15178 4b9f 33       		.byte	0x33
 15179 4ba0 00       		.byte	0
 15180 4ba1 3B       		.uleb128 0x3b
 15181 4ba2 4A120000 		.4byte	.LVL209
ARM GAS  C:\Users\mathi\AppData\Local\Temp\ccXNOisu.s 			page 273


 15182 4ba6 E2690000 		.4byte	0x69e2
 15183 4baa B44B0000 		.4byte	0x4bb4
 15184 4bae 3C       		.uleb128 0x3c
 15185 4baf 01       		.uleb128 0x1
 15186 4bb0 50       		.byte	0x50
 15187 4bb1 01       		.uleb128 0x1
 15188 4bb2 34       		.byte	0x34
 15189 4bb3 00       		.byte	0
 15190 4bb4 3B       		.uleb128 0x3b
 15191 4bb5 52120000 		.4byte	.LVL210
 15192 4bb9 E2690000 		.4byte	0x69e2
 15193 4bbd C74B0000 		.4byte	0x4bc7
 15194 4bc1 3C       		.uleb128 0x3c
 15195 4bc2 01       		.uleb128 0x1
 15196 4bc3 50       		.byte	0x50
 15197 4bc4 01       		.uleb128 0x1
 15198 4bc5 35       		.byte	0x35
 15199 4bc6 00       		.byte	0
 15200 4bc7 3B       		.uleb128 0x3b
 15201 4bc8 5A120000 		.4byte	.LVL211
 15202 4bcc E2690000 		.4byte	0x69e2
 15203 4bd0 DA4B0000 		.4byte	0x4bda
 15204 4bd4 3C       		.uleb128 0x3c
 15205 4bd5 01       		.uleb128 0x1
 15206 4bd6 50       		.byte	0x50
 15207 4bd7 01       		.uleb128 0x1
 15208 4bd8 36       		.byte	0x36
 15209 4bd9 00       		.byte	0
 15210 4bda 3B       		.uleb128 0x3b
 15211 4bdb 62120000 		.4byte	.LVL212
 15212 4bdf E2690000 		.4byte	0x69e2
 15213 4be3 ED4B0000 		.4byte	0x4bed
 15214 4be7 3C       		.uleb128 0x3c
 15215 4be8 01       		.uleb128 0x1
 15216 4be9 50       		.byte	0x50
 15217 4bea 01       		.uleb128 0x1
 15218 4beb 37       		.byte	0x37
 15219 4bec 00       		.byte	0
 15220 4bed 3B       		.uleb128 0x3b
 15221 4bee 80120000 		.4byte	.LVL213
 15222 4bf2 1C690000 		.4byte	0x691c
 15223 4bf6 414C0000 		.4byte	0x4c41
 15224 4bfa 3C       		.uleb128 0x3c
 15225 4bfb 01       		.uleb128 0x1
 15226 4bfc 50       		.byte	0x50
 15227 4bfd 02       		.uleb128 0x2
 15228 4bfe 7A       		.byte	0x7a
 15229 4bff 00       		.sleb128 0
 15230 4c00 3C       		.uleb128 0x3c
 15231 4c01 01       		.uleb128 0x1
 15232 4c02 51       		.byte	0x51
 15233 4c03 05       		.uleb128 0x5
 15234 4c04 03       		.byte	0x3
 15235 4c05 6C0A0000 		.4byte	.LC78
 15236 4c09 3C       		.uleb128 0x3c
 15237 4c0a 01       		.uleb128 0x1
 15238 4c0b 52       		.byte	0x52
ARM GAS  C:\Users\mathi\AppData\Local\Temp\ccXNOisu.s 			page 274


 15239 4c0c 04       		.uleb128 0x4
 15240 4c0d 91       		.byte	0x91
 15241 4c0e A47F     		.sleb128 -92
 15242 4c10 06       		.byte	0x6
 15243 4c11 3C       		.uleb128 0x3c
 15244 4c12 01       		.uleb128 0x1
 15245 4c13 53       		.byte	0x53
 15246 4c14 02       		.uleb128 0x2
 15247 4c15 74       		.byte	0x74
 15248 4c16 00       		.sleb128 0
 15249 4c17 3C       		.uleb128 0x3c
 15250 4c18 02       		.uleb128 0x2
 15251 4c19 7D       		.byte	0x7d
 15252 4c1a 00       		.sleb128 0
 15253 4c1b 04       		.uleb128 0x4
 15254 4c1c 91       		.byte	0x91
 15255 4c1d 987F     		.sleb128 -104
 15256 4c1f 06       		.byte	0x6
 15257 4c20 3C       		.uleb128 0x3c
 15258 4c21 02       		.uleb128 0x2
 15259 4c22 7D       		.byte	0x7d
 15260 4c23 04       		.sleb128 4
 15261 4c24 02       		.uleb128 0x2
 15262 4c25 75       		.byte	0x75
 15263 4c26 00       		.sleb128 0
 15264 4c27 3C       		.uleb128 0x3c
 15265 4c28 02       		.uleb128 0x2
 15266 4c29 7D       		.byte	0x7d
 15267 4c2a 08       		.sleb128 8
 15268 4c2b 02       		.uleb128 0x2
 15269 4c2c 76       		.byte	0x76
 15270 4c2d 00       		.sleb128 0
 15271 4c2e 3C       		.uleb128 0x3c
 15272 4c2f 02       		.uleb128 0x2
 15273 4c30 7D       		.byte	0x7d
 15274 4c31 0C       		.sleb128 12
 15275 4c32 04       		.uleb128 0x4
 15276 4c33 91       		.byte	0x91
 15277 4c34 A07F     		.sleb128 -96
 15278 4c36 06       		.byte	0x6
 15279 4c37 3C       		.uleb128 0x3c
 15280 4c38 02       		.uleb128 0x2
 15281 4c39 7D       		.byte	0x7d
 15282 4c3a 10       		.sleb128 16
 15283 4c3b 04       		.uleb128 0x4
 15284 4c3c 91       		.byte	0x91
 15285 4c3d 9C7F     		.sleb128 -100
 15286 4c3f 06       		.byte	0x6
 15287 4c40 00       		.byte	0
 15288 4c41 3B       		.uleb128 0x3b
 15289 4c42 9C120000 		.4byte	.LVL215
 15290 4c46 32690000 		.4byte	0x6932
 15291 4c4a 554C0000 		.4byte	0x4c55
 15292 4c4e 3C       		.uleb128 0x3c
 15293 4c4f 01       		.uleb128 0x1
 15294 4c50 50       		.byte	0x50
 15295 4c51 02       		.uleb128 0x2
ARM GAS  C:\Users\mathi\AppData\Local\Temp\ccXNOisu.s 			page 275


 15296 4c52 7A       		.byte	0x7a
 15297 4c53 00       		.sleb128 0
 15298 4c54 00       		.byte	0
 15299 4c55 39       		.uleb128 0x39
 15300 4c56 A0120000 		.4byte	.LVL216
 15301 4c5a 3D690000 		.4byte	0x693d
 15302 4c5e 3B       		.uleb128 0x3b
 15303 4c5f B2120000 		.4byte	.LVL217
 15304 4c63 B6690000 		.4byte	0x69b6
 15305 4c67 844C0000 		.4byte	0x4c84
 15306 4c6b 3C       		.uleb128 0x3c
 15307 4c6c 01       		.uleb128 0x1
 15308 4c6d 50       		.byte	0x50
 15309 4c6e 02       		.uleb128 0x2
 15310 4c6f 7A       		.byte	0x7a
 15311 4c70 00       		.sleb128 0
 15312 4c71 3C       		.uleb128 0x3c
 15313 4c72 01       		.uleb128 0x1
 15314 4c73 51       		.byte	0x51
 15315 4c74 05       		.uleb128 0x5
 15316 4c75 03       		.byte	0x3
 15317 4c76 A80A0000 		.4byte	.LC83
 15318 4c7a 3C       		.uleb128 0x3c
 15319 4c7b 01       		.uleb128 0x1
 15320 4c7c 52       		.byte	0x52
 15321 4c7d 05       		.uleb128 0x5
 15322 4c7e 03       		.byte	0x3
 15323 4c7f 00000000 		.4byte	.LANCHOR31
 15324 4c83 00       		.byte	0
 15325 4c84 39       		.uleb128 0x39
 15326 4c85 BC120000 		.4byte	.LVL218
 15327 4c89 ED690000 		.4byte	0x69ed
 15328 4c8d 3B       		.uleb128 0x3b
 15329 4c8e E8120000 		.4byte	.LVL219
 15330 4c92 B6690000 		.4byte	0x69b6
 15331 4c96 BC4C0000 		.4byte	0x4cbc
 15332 4c9a 3C       		.uleb128 0x3c
 15333 4c9b 01       		.uleb128 0x1
 15334 4c9c 50       		.byte	0x50
 15335 4c9d 02       		.uleb128 0x2
 15336 4c9e 7A       		.byte	0x7a
 15337 4c9f 00       		.sleb128 0
 15338 4ca0 3C       		.uleb128 0x3c
 15339 4ca1 01       		.uleb128 0x1
 15340 4ca2 51       		.byte	0x51
 15341 4ca3 05       		.uleb128 0x5
 15342 4ca4 03       		.byte	0x3
 15343 4ca5 2C0A0000 		.4byte	.LC74
 15344 4ca9 3C       		.uleb128 0x3c
 15345 4caa 01       		.uleb128 0x1
 15346 4cab 52       		.byte	0x52
 15347 4cac 05       		.uleb128 0x5
 15348 4cad 03       		.byte	0x3
 15349 4cae 00000000 		.4byte	.LANCHOR30
 15350 4cb2 3C       		.uleb128 0x3c
 15351 4cb3 01       		.uleb128 0x1
 15352 4cb4 53       		.byte	0x53
ARM GAS  C:\Users\mathi\AppData\Local\Temp\ccXNOisu.s 			page 276


 15353 4cb5 05       		.uleb128 0x5
 15354 4cb6 03       		.byte	0x3
 15355 4cb7 00000000 		.4byte	.LANCHOR27
 15356 4cbb 00       		.byte	0
 15357 4cbc 39       		.uleb128 0x39
 15358 4cbd F4120000 		.4byte	.LVL220
 15359 4cc1 8A690000 		.4byte	0x698a
 15360 4cc5 3B       		.uleb128 0x3b
 15361 4cc6 0A130000 		.4byte	.LVL221
 15362 4cca 32690000 		.4byte	0x6932
 15363 4cce E14C0000 		.4byte	0x4ce1
 15364 4cd2 3C       		.uleb128 0x3c
 15365 4cd3 01       		.uleb128 0x1
 15366 4cd4 50       		.byte	0x50
 15367 4cd5 05       		.uleb128 0x5
 15368 4cd6 03       		.byte	0x3
 15369 4cd7 380A0000 		.4byte	.LC75
 15370 4cdb 3C       		.uleb128 0x3c
 15371 4cdc 01       		.uleb128 0x1
 15372 4cdd 51       		.byte	0x51
 15373 4cde 01       		.uleb128 0x1
 15374 4cdf 33       		.byte	0x33
 15375 4ce0 00       		.byte	0
 15376 4ce1 39       		.uleb128 0x39
 15377 4ce2 0E130000 		.4byte	.LVL222
 15378 4ce6 3D690000 		.4byte	0x693d
 15379 4cea 3B       		.uleb128 0x3b
 15380 4ceb 22130000 		.4byte	.LVL223
 15381 4cef B6690000 		.4byte	0x69b6
 15382 4cf3 194D0000 		.4byte	0x4d19
 15383 4cf7 3C       		.uleb128 0x3c
 15384 4cf8 01       		.uleb128 0x1
 15385 4cf9 50       		.byte	0x50
 15386 4cfa 02       		.uleb128 0x2
 15387 4cfb 7A       		.byte	0x7a
 15388 4cfc 00       		.sleb128 0
 15389 4cfd 3C       		.uleb128 0x3c
 15390 4cfe 01       		.uleb128 0x1
 15391 4cff 51       		.byte	0x51
 15392 4d00 05       		.uleb128 0x5
 15393 4d01 03       		.byte	0x3
 15394 4d02 880A0000 		.4byte	.LC79
 15395 4d06 3C       		.uleb128 0x3c
 15396 4d07 01       		.uleb128 0x1
 15397 4d08 52       		.byte	0x52
 15398 4d09 05       		.uleb128 0x5
 15399 4d0a 03       		.byte	0x3
 15400 4d0b 00000000 		.4byte	.LANCHOR22
 15401 4d0f 3C       		.uleb128 0x3c
 15402 4d10 01       		.uleb128 0x1
 15403 4d11 53       		.byte	0x53
 15404 4d12 05       		.uleb128 0x5
 15405 4d13 03       		.byte	0x3
 15406 4d14 00000000 		.4byte	.LANCHOR23
 15407 4d18 00       		.byte	0
 15408 4d19 39       		.uleb128 0x39
 15409 4d1a 2A130000 		.4byte	.LVL224
ARM GAS  C:\Users\mathi\AppData\Local\Temp\ccXNOisu.s 			page 277


 15410 4d1e F8690000 		.4byte	0x69f8
 15411 4d22 39       		.uleb128 0x39
 15412 4d23 32130000 		.4byte	.LVL225
 15413 4d27 036A0000 		.4byte	0x6a03
 15414 4d2b 3B       		.uleb128 0x3b
 15415 4d2c 48130000 		.4byte	.LVL226
 15416 4d30 32690000 		.4byte	0x6932
 15417 4d34 474D0000 		.4byte	0x4d47
 15418 4d38 3C       		.uleb128 0x3c
 15419 4d39 01       		.uleb128 0x1
 15420 4d3a 50       		.byte	0x50
 15421 4d3b 05       		.uleb128 0x5
 15422 4d3c 03       		.byte	0x3
 15423 4d3d 940A0000 		.4byte	.LC80
 15424 4d41 3C       		.uleb128 0x3c
 15425 4d42 01       		.uleb128 0x1
 15426 4d43 51       		.byte	0x51
 15427 4d44 01       		.uleb128 0x1
 15428 4d45 33       		.byte	0x33
 15429 4d46 00       		.byte	0
 15430 4d47 39       		.uleb128 0x39
 15431 4d48 4C130000 		.4byte	.LVL227
 15432 4d4c 3D690000 		.4byte	0x693d
 15433 4d50 3B       		.uleb128 0x3b
 15434 4d51 5A130000 		.4byte	.LVL228
 15435 4d55 0E6A0000 		.4byte	0x6a0e
 15436 4d59 634D0000 		.4byte	0x4d63
 15437 4d5d 3C       		.uleb128 0x3c
 15438 4d5e 01       		.uleb128 0x1
 15439 4d5f 50       		.byte	0x50
 15440 4d60 01       		.uleb128 0x1
 15441 4d61 30       		.byte	0x30
 15442 4d62 00       		.byte	0
 15443 4d63 3B       		.uleb128 0x3b
 15444 4d64 62130000 		.4byte	.LVL229
 15445 4d68 0E6A0000 		.4byte	0x6a0e
 15446 4d6c 764D0000 		.4byte	0x4d76
 15447 4d70 3C       		.uleb128 0x3c
 15448 4d71 01       		.uleb128 0x1
 15449 4d72 50       		.byte	0x50
 15450 4d73 01       		.uleb128 0x1
 15451 4d74 31       		.byte	0x31
 15452 4d75 00       		.byte	0
 15453 4d76 3B       		.uleb128 0x3b
 15454 4d77 6A130000 		.4byte	.LVL230
 15455 4d7b 0E6A0000 		.4byte	0x6a0e
 15456 4d7f 894D0000 		.4byte	0x4d89
 15457 4d83 3C       		.uleb128 0x3c
 15458 4d84 01       		.uleb128 0x1
 15459 4d85 50       		.byte	0x50
 15460 4d86 01       		.uleb128 0x1
 15461 4d87 32       		.byte	0x32
 15462 4d88 00       		.byte	0
 15463 4d89 3B       		.uleb128 0x3b
 15464 4d8a 72130000 		.4byte	.LVL231
 15465 4d8e 0E6A0000 		.4byte	0x6a0e
 15466 4d92 9C4D0000 		.4byte	0x4d9c
ARM GAS  C:\Users\mathi\AppData\Local\Temp\ccXNOisu.s 			page 278


 15467 4d96 3C       		.uleb128 0x3c
 15468 4d97 01       		.uleb128 0x1
 15469 4d98 50       		.byte	0x50
 15470 4d99 01       		.uleb128 0x1
 15471 4d9a 33       		.byte	0x33
 15472 4d9b 00       		.byte	0
 15473 4d9c 3B       		.uleb128 0x3b
 15474 4d9d 7A130000 		.4byte	.LVL232
 15475 4da1 0E6A0000 		.4byte	0x6a0e
 15476 4da5 AF4D0000 		.4byte	0x4daf
 15477 4da9 3C       		.uleb128 0x3c
 15478 4daa 01       		.uleb128 0x1
 15479 4dab 50       		.byte	0x50
 15480 4dac 01       		.uleb128 0x1
 15481 4dad 34       		.byte	0x34
 15482 4dae 00       		.byte	0
 15483 4daf 3B       		.uleb128 0x3b
 15484 4db0 82130000 		.4byte	.LVL233
 15485 4db4 0E6A0000 		.4byte	0x6a0e
 15486 4db8 C24D0000 		.4byte	0x4dc2
 15487 4dbc 3C       		.uleb128 0x3c
 15488 4dbd 01       		.uleb128 0x1
 15489 4dbe 50       		.byte	0x50
 15490 4dbf 01       		.uleb128 0x1
 15491 4dc0 35       		.byte	0x35
 15492 4dc1 00       		.byte	0
 15493 4dc2 3B       		.uleb128 0x3b
 15494 4dc3 8A130000 		.4byte	.LVL234
 15495 4dc7 0E6A0000 		.4byte	0x6a0e
 15496 4dcb D54D0000 		.4byte	0x4dd5
 15497 4dcf 3C       		.uleb128 0x3c
 15498 4dd0 01       		.uleb128 0x1
 15499 4dd1 50       		.byte	0x50
 15500 4dd2 01       		.uleb128 0x1
 15501 4dd3 36       		.byte	0x36
 15502 4dd4 00       		.byte	0
 15503 4dd5 3B       		.uleb128 0x3b
 15504 4dd6 92130000 		.4byte	.LVL235
 15505 4dda 0E6A0000 		.4byte	0x6a0e
 15506 4dde E84D0000 		.4byte	0x4de8
 15507 4de2 3C       		.uleb128 0x3c
 15508 4de3 01       		.uleb128 0x1
 15509 4de4 50       		.byte	0x50
 15510 4de5 01       		.uleb128 0x1
 15511 4de6 37       		.byte	0x37
 15512 4de7 00       		.byte	0
 15513 4de8 3B       		.uleb128 0x3b
 15514 4de9 B0130000 		.4byte	.LVL236
 15515 4ded 1C690000 		.4byte	0x691c
 15516 4df1 3C4E0000 		.4byte	0x4e3c
 15517 4df5 3C       		.uleb128 0x3c
 15518 4df6 01       		.uleb128 0x1
 15519 4df7 50       		.byte	0x50
 15520 4df8 02       		.uleb128 0x2
 15521 4df9 7A       		.byte	0x7a
 15522 4dfa 00       		.sleb128 0
 15523 4dfb 3C       		.uleb128 0x3c
ARM GAS  C:\Users\mathi\AppData\Local\Temp\ccXNOisu.s 			page 279


 15524 4dfc 01       		.uleb128 0x1
 15525 4dfd 51       		.byte	0x51
 15526 4dfe 05       		.uleb128 0x5
 15527 4dff 03       		.byte	0x3
 15528 4e00 500A0000 		.4byte	.LC77
 15529 4e04 3C       		.uleb128 0x3c
 15530 4e05 01       		.uleb128 0x1
 15531 4e06 52       		.byte	0x52
 15532 4e07 04       		.uleb128 0x4
 15533 4e08 91       		.byte	0x91
 15534 4e09 A47F     		.sleb128 -92
 15535 4e0b 06       		.byte	0x6
 15536 4e0c 3C       		.uleb128 0x3c
 15537 4e0d 01       		.uleb128 0x1
 15538 4e0e 53       		.byte	0x53
 15539 4e0f 02       		.uleb128 0x2
 15540 4e10 74       		.byte	0x74
 15541 4e11 00       		.sleb128 0
 15542 4e12 3C       		.uleb128 0x3c
 15543 4e13 02       		.uleb128 0x2
 15544 4e14 7D       		.byte	0x7d
 15545 4e15 00       		.sleb128 0
 15546 4e16 04       		.uleb128 0x4
 15547 4e17 91       		.byte	0x91
 15548 4e18 987F     		.sleb128 -104
 15549 4e1a 06       		.byte	0x6
 15550 4e1b 3C       		.uleb128 0x3c
 15551 4e1c 02       		.uleb128 0x2
 15552 4e1d 7D       		.byte	0x7d
 15553 4e1e 04       		.sleb128 4
 15554 4e1f 02       		.uleb128 0x2
 15555 4e20 75       		.byte	0x75
 15556 4e21 00       		.sleb128 0
 15557 4e22 3C       		.uleb128 0x3c
 15558 4e23 02       		.uleb128 0x2
 15559 4e24 7D       		.byte	0x7d
 15560 4e25 08       		.sleb128 8
 15561 4e26 02       		.uleb128 0x2
 15562 4e27 76       		.byte	0x76
 15563 4e28 00       		.sleb128 0
 15564 4e29 3C       		.uleb128 0x3c
 15565 4e2a 02       		.uleb128 0x2
 15566 4e2b 7D       		.byte	0x7d
 15567 4e2c 0C       		.sleb128 12
 15568 4e2d 04       		.uleb128 0x4
 15569 4e2e 91       		.byte	0x91
 15570 4e2f A07F     		.sleb128 -96
 15571 4e31 06       		.byte	0x6
 15572 4e32 3C       		.uleb128 0x3c
 15573 4e33 02       		.uleb128 0x2
 15574 4e34 7D       		.byte	0x7d
 15575 4e35 10       		.sleb128 16
 15576 4e36 04       		.uleb128 0x4
 15577 4e37 91       		.byte	0x91
 15578 4e38 9C7F     		.sleb128 -100
 15579 4e3a 06       		.byte	0x6
 15580 4e3b 00       		.byte	0
ARM GAS  C:\Users\mathi\AppData\Local\Temp\ccXNOisu.s 			page 280


 15581 4e3c 3B       		.uleb128 0x3b
 15582 4e3d CC130000 		.4byte	.LVL238
 15583 4e41 32690000 		.4byte	0x6932
 15584 4e45 504E0000 		.4byte	0x4e50
 15585 4e49 3C       		.uleb128 0x3c
 15586 4e4a 01       		.uleb128 0x1
 15587 4e4b 50       		.byte	0x50
 15588 4e4c 02       		.uleb128 0x2
 15589 4e4d 7A       		.byte	0x7a
 15590 4e4e 00       		.sleb128 0
 15591 4e4f 00       		.byte	0
 15592 4e50 39       		.uleb128 0x39
 15593 4e51 D0130000 		.4byte	.LVL239
 15594 4e55 3D690000 		.4byte	0x693d
 15595 4e59 3B       		.uleb128 0x3b
 15596 4e5a F0130000 		.4byte	.LVL240
 15597 4e5e B6690000 		.4byte	0x69b6
 15598 4e62 8F4E0000 		.4byte	0x4e8f
 15599 4e66 3C       		.uleb128 0x3c
 15600 4e67 01       		.uleb128 0x1
 15601 4e68 50       		.byte	0x50
 15602 4e69 02       		.uleb128 0x2
 15603 4e6a 7A       		.byte	0x7a
 15604 4e6b 00       		.sleb128 0
 15605 4e6c 3C       		.uleb128 0x3c
 15606 4e6d 01       		.uleb128 0x1
 15607 4e6e 51       		.byte	0x51
 15608 4e6f 05       		.uleb128 0x5
 15609 4e70 03       		.byte	0x3
 15610 4e71 FC0A0000 		.4byte	.LC89
 15611 4e75 3C       		.uleb128 0x3c
 15612 4e76 01       		.uleb128 0x1
 15613 4e77 52       		.byte	0x52
 15614 4e78 05       		.uleb128 0x5
 15615 4e79 03       		.byte	0x3
 15616 4e7a 00000000 		.4byte	.LANCHOR24
 15617 4e7e 3C       		.uleb128 0x3c
 15618 4e7f 01       		.uleb128 0x1
 15619 4e80 53       		.byte	0x53
 15620 4e81 05       		.uleb128 0x5
 15621 4e82 03       		.byte	0x3
 15622 4e83 00000000 		.4byte	.LANCHOR25
 15623 4e87 3C       		.uleb128 0x3c
 15624 4e88 02       		.uleb128 0x2
 15625 4e89 7D       		.byte	0x7d
 15626 4e8a 00       		.sleb128 0
 15627 4e8b 02       		.uleb128 0x2
 15628 4e8c 74       		.byte	0x74
 15629 4e8d 00       		.sleb128 0
 15630 4e8e 00       		.byte	0
 15631 4e8f 39       		.uleb128 0x39
 15632 4e90 F4130000 		.4byte	.LVL241
 15633 4e94 53690000 		.4byte	0x6953
 15634 4e98 39       		.uleb128 0x39
 15635 4e99 02140000 		.4byte	.LVL242
 15636 4e9d 196A0000 		.4byte	0x6a19
 15637 4ea1 39       		.uleb128 0x39
ARM GAS  C:\Users\mathi\AppData\Local\Temp\ccXNOisu.s 			page 281


 15638 4ea2 06140000 		.4byte	.LVL243
 15639 4ea6 69690000 		.4byte	0x6969
 15640 4eaa 3B       		.uleb128 0x3b
 15641 4eab 16140000 		.4byte	.LVL244
 15642 4eaf 32690000 		.4byte	0x6932
 15643 4eb3 C64E0000 		.4byte	0x4ec6
 15644 4eb7 3C       		.uleb128 0x3c
 15645 4eb8 01       		.uleb128 0x1
 15646 4eb9 50       		.byte	0x50
 15647 4eba 05       		.uleb128 0x5
 15648 4ebb 03       		.byte	0x3
 15649 4ebc 080B0000 		.4byte	.LC90
 15650 4ec0 3C       		.uleb128 0x3c
 15651 4ec1 01       		.uleb128 0x1
 15652 4ec2 51       		.byte	0x51
 15653 4ec3 01       		.uleb128 0x1
 15654 4ec4 33       		.byte	0x33
 15655 4ec5 00       		.byte	0
 15656 4ec6 39       		.uleb128 0x39
 15657 4ec7 1A140000 		.4byte	.LVL245
 15658 4ecb 3D690000 		.4byte	0x693d
 15659 4ecf 3B       		.uleb128 0x3b
 15660 4ed0 82140000 		.4byte	.LVL246
 15661 4ed4 246A0000 		.4byte	0x6a24
 15662 4ed8 E24E0000 		.4byte	0x4ee2
 15663 4edc 3C       		.uleb128 0x3c
 15664 4edd 01       		.uleb128 0x1
 15665 4ede 50       		.byte	0x50
 15666 4edf 01       		.uleb128 0x1
 15667 4ee0 30       		.byte	0x30
 15668 4ee1 00       		.byte	0
 15669 4ee2 3B       		.uleb128 0x3b
 15670 4ee3 8A140000 		.4byte	.LVL247
 15671 4ee7 246A0000 		.4byte	0x6a24
 15672 4eeb F54E0000 		.4byte	0x4ef5
 15673 4eef 3C       		.uleb128 0x3c
 15674 4ef0 01       		.uleb128 0x1
 15675 4ef1 50       		.byte	0x50
 15676 4ef2 01       		.uleb128 0x1
 15677 4ef3 31       		.byte	0x31
 15678 4ef4 00       		.byte	0
 15679 4ef5 3B       		.uleb128 0x3b
 15680 4ef6 92140000 		.4byte	.LVL248
 15681 4efa 246A0000 		.4byte	0x6a24
 15682 4efe 084F0000 		.4byte	0x4f08
 15683 4f02 3C       		.uleb128 0x3c
 15684 4f03 01       		.uleb128 0x1
 15685 4f04 50       		.byte	0x50
 15686 4f05 01       		.uleb128 0x1
 15687 4f06 32       		.byte	0x32
 15688 4f07 00       		.byte	0
 15689 4f08 3B       		.uleb128 0x3b
 15690 4f09 A0140000 		.4byte	.LVL249
 15691 4f0d 1C690000 		.4byte	0x691c
 15692 4f11 314F0000 		.4byte	0x4f31
 15693 4f15 3C       		.uleb128 0x3c
 15694 4f16 01       		.uleb128 0x1
ARM GAS  C:\Users\mathi\AppData\Local\Temp\ccXNOisu.s 			page 282


 15695 4f17 50       		.byte	0x50
 15696 4f18 02       		.uleb128 0x2
 15697 4f19 7A       		.byte	0x7a
 15698 4f1a 00       		.sleb128 0
 15699 4f1b 3C       		.uleb128 0x3c
 15700 4f1c 01       		.uleb128 0x1
 15701 4f1d 51       		.byte	0x51
 15702 4f1e 05       		.uleb128 0x5
 15703 4f1f 03       		.byte	0x3
 15704 4f20 C40A0000 		.4byte	.LC87
 15705 4f24 3C       		.uleb128 0x3c
 15706 4f25 01       		.uleb128 0x1
 15707 4f26 52       		.byte	0x52
 15708 4f27 02       		.uleb128 0x2
 15709 4f28 74       		.byte	0x74
 15710 4f29 00       		.sleb128 0
 15711 4f2a 3C       		.uleb128 0x3c
 15712 4f2b 01       		.uleb128 0x1
 15713 4f2c 53       		.byte	0x53
 15714 4f2d 02       		.uleb128 0x2
 15715 4f2e 75       		.byte	0x75
 15716 4f2f 00       		.sleb128 0
 15717 4f30 00       		.byte	0
 15718 4f31 3B       		.uleb128 0x3b
 15719 4f32 BC140000 		.4byte	.LVL251
 15720 4f36 32690000 		.4byte	0x6932
 15721 4f3a 454F0000 		.4byte	0x4f45
 15722 4f3e 3C       		.uleb128 0x3c
 15723 4f3f 01       		.uleb128 0x1
 15724 4f40 50       		.byte	0x50
 15725 4f41 02       		.uleb128 0x2
 15726 4f42 7A       		.byte	0x7a
 15727 4f43 00       		.sleb128 0
 15728 4f44 00       		.byte	0
 15729 4f45 39       		.uleb128 0x39
 15730 4f46 C0140000 		.4byte	.LVL252
 15731 4f4a 3D690000 		.4byte	0x693d
 15732 4f4e 3B       		.uleb128 0x3b
 15733 4f4f CE140000 		.4byte	.LVL253
 15734 4f53 2F6A0000 		.4byte	0x6a2f
 15735 4f57 614F0000 		.4byte	0x4f61
 15736 4f5b 3C       		.uleb128 0x3c
 15737 4f5c 01       		.uleb128 0x1
 15738 4f5d 50       		.byte	0x50
 15739 4f5e 01       		.uleb128 0x1
 15740 4f5f 30       		.byte	0x30
 15741 4f60 00       		.byte	0
 15742 4f61 3B       		.uleb128 0x3b
 15743 4f62 D4140000 		.4byte	.LVL254
 15744 4f66 3A6A0000 		.4byte	0x6a3a
 15745 4f6a 744F0000 		.4byte	0x4f74
 15746 4f6e 3C       		.uleb128 0x3c
 15747 4f6f 01       		.uleb128 0x1
 15748 4f70 50       		.byte	0x50
 15749 4f71 01       		.uleb128 0x1
 15750 4f72 30       		.byte	0x30
 15751 4f73 00       		.byte	0
ARM GAS  C:\Users\mathi\AppData\Local\Temp\ccXNOisu.s 			page 283


 15752 4f74 3B       		.uleb128 0x3b
 15753 4f75 DC140000 		.4byte	.LVL255
 15754 4f79 8A690000 		.4byte	0x698a
 15755 4f7d 8C4F0000 		.4byte	0x4f8c
 15756 4f81 3C       		.uleb128 0x3c
 15757 4f82 01       		.uleb128 0x1
 15758 4f83 50       		.byte	0x50
 15759 4f84 01       		.uleb128 0x1
 15760 4f85 38       		.byte	0x38
 15761 4f86 3C       		.uleb128 0x3c
 15762 4f87 01       		.uleb128 0x1
 15763 4f88 51       		.byte	0x51
 15764 4f89 01       		.uleb128 0x1
 15765 4f8a 30       		.byte	0x30
 15766 4f8b 00       		.byte	0
 15767 4f8c 3B       		.uleb128 0x3b
 15768 4f8d F2140000 		.4byte	.LVL256
 15769 4f91 32690000 		.4byte	0x6932
 15770 4f95 A84F0000 		.4byte	0x4fa8
 15771 4f99 3C       		.uleb128 0x3c
 15772 4f9a 01       		.uleb128 0x1
 15773 4f9b 50       		.byte	0x50
 15774 4f9c 05       		.uleb128 0x5
 15775 4f9d 03       		.byte	0x3
 15776 4f9e A40A0000 		.4byte	.LC82
 15777 4fa2 3C       		.uleb128 0x3c
 15778 4fa3 01       		.uleb128 0x1
 15779 4fa4 51       		.byte	0x51
 15780 4fa5 01       		.uleb128 0x1
 15781 4fa6 33       		.byte	0x33
 15782 4fa7 00       		.byte	0
 15783 4fa8 39       		.uleb128 0x39
 15784 4fa9 F6140000 		.4byte	.LVL257
 15785 4fad 3D690000 		.4byte	0x693d
 15786 4fb1 3B       		.uleb128 0x3b
 15787 4fb2 26150000 		.4byte	.LVL258
 15788 4fb6 1C690000 		.4byte	0x691c
 15789 4fba D54F0000 		.4byte	0x4fd5
 15790 4fbe 3C       		.uleb128 0x3c
 15791 4fbf 01       		.uleb128 0x1
 15792 4fc0 50       		.byte	0x50
 15793 4fc1 02       		.uleb128 0x2
 15794 4fc2 7A       		.byte	0x7a
 15795 4fc3 00       		.sleb128 0
 15796 4fc4 3C       		.uleb128 0x3c
 15797 4fc5 01       		.uleb128 0x1
 15798 4fc6 51       		.byte	0x51
 15799 4fc7 05       		.uleb128 0x5
 15800 4fc8 03       		.byte	0x3
 15801 4fc9 BC090000 		.4byte	.LC70
 15802 4fcd 3C       		.uleb128 0x3c
 15803 4fce 02       		.uleb128 0x2
 15804 4fcf 7D       		.byte	0x7d
 15805 4fd0 08       		.sleb128 8
 15806 4fd1 02       		.uleb128 0x2
 15807 4fd2 74       		.byte	0x74
 15808 4fd3 00       		.sleb128 0
ARM GAS  C:\Users\mathi\AppData\Local\Temp\ccXNOisu.s 			page 284


 15809 4fd4 00       		.byte	0
 15810 4fd5 3B       		.uleb128 0x3b
 15811 4fd6 34150000 		.4byte	.LVL259
 15812 4fda 27690000 		.4byte	0x6927
 15813 4fde E94F0000 		.4byte	0x4fe9
 15814 4fe2 3C       		.uleb128 0x3c
 15815 4fe3 01       		.uleb128 0x1
 15816 4fe4 50       		.byte	0x50
 15817 4fe5 02       		.uleb128 0x2
 15818 4fe6 7A       		.byte	0x7a
 15819 4fe7 00       		.sleb128 0
 15820 4fe8 00       		.byte	0
 15821 4fe9 3B       		.uleb128 0x3b
 15822 4fea 3C150000 		.4byte	.LVL260
 15823 4fee 32690000 		.4byte	0x6932
 15824 4ff2 FD4F0000 		.4byte	0x4ffd
 15825 4ff6 3C       		.uleb128 0x3c
 15826 4ff7 01       		.uleb128 0x1
 15827 4ff8 50       		.byte	0x50
 15828 4ff9 02       		.uleb128 0x2
 15829 4ffa 7A       		.byte	0x7a
 15830 4ffb 00       		.sleb128 0
 15831 4ffc 00       		.byte	0
 15832 4ffd 39       		.uleb128 0x39
 15833 4ffe 40150000 		.4byte	.LVL261
 15834 5002 3D690000 		.4byte	0x693d
 15835 5006 3B       		.uleb128 0x3b
 15836 5007 56150000 		.4byte	.LVL262
 15837 500b 456A0000 		.4byte	0x6a45
 15838 500f 1F500000 		.4byte	0x501f
 15839 5013 3C       		.uleb128 0x3c
 15840 5014 01       		.uleb128 0x1
 15841 5015 50       		.byte	0x50
 15842 5016 02       		.uleb128 0x2
 15843 5017 77       		.byte	0x77
 15844 5018 00       		.sleb128 0
 15845 5019 3C       		.uleb128 0x3c
 15846 501a 01       		.uleb128 0x1
 15847 501b 51       		.byte	0x51
 15848 501c 01       		.uleb128 0x1
 15849 501d 31       		.byte	0x31
 15850 501e 00       		.byte	0
 15851 501f 3B       		.uleb128 0x3b
 15852 5020 60150000 		.4byte	.LVL263
 15853 5024 456A0000 		.4byte	0x6a45
 15854 5028 37500000 		.4byte	0x5037
 15855 502c 3C       		.uleb128 0x3c
 15856 502d 01       		.uleb128 0x1
 15857 502e 50       		.byte	0x50
 15858 502f 01       		.uleb128 0x1
 15859 5030 31       		.byte	0x31
 15860 5031 3C       		.uleb128 0x3c
 15861 5032 01       		.uleb128 0x1
 15862 5033 51       		.byte	0x51
 15863 5034 01       		.uleb128 0x1
 15864 5035 31       		.byte	0x31
 15865 5036 00       		.byte	0
ARM GAS  C:\Users\mathi\AppData\Local\Temp\ccXNOisu.s 			page 285


 15866 5037 3B       		.uleb128 0x3b
 15867 5038 6A150000 		.4byte	.LVL264
 15868 503c 456A0000 		.4byte	0x6a45
 15869 5040 4F500000 		.4byte	0x504f
 15870 5044 3C       		.uleb128 0x3c
 15871 5045 01       		.uleb128 0x1
 15872 5046 50       		.byte	0x50
 15873 5047 01       		.uleb128 0x1
 15874 5048 32       		.byte	0x32
 15875 5049 3C       		.uleb128 0x3c
 15876 504a 01       		.uleb128 0x1
 15877 504b 51       		.byte	0x51
 15878 504c 01       		.uleb128 0x1
 15879 504d 31       		.byte	0x31
 15880 504e 00       		.byte	0
 15881 504f 3B       		.uleb128 0x3b
 15882 5050 78150000 		.4byte	.LVL265
 15883 5054 1C690000 		.4byte	0x691c
 15884 5058 78500000 		.4byte	0x5078
 15885 505c 3C       		.uleb128 0x3c
 15886 505d 01       		.uleb128 0x1
 15887 505e 50       		.byte	0x50
 15888 505f 02       		.uleb128 0x2
 15889 5060 7A       		.byte	0x7a
 15890 5061 00       		.sleb128 0
 15891 5062 3C       		.uleb128 0x3c
 15892 5063 01       		.uleb128 0x1
 15893 5064 51       		.byte	0x51
 15894 5065 05       		.uleb128 0x5
 15895 5066 03       		.byte	0x3
 15896 5067 5C000000 		.4byte	.LC1
 15897 506b 3C       		.uleb128 0x3c
 15898 506c 01       		.uleb128 0x1
 15899 506d 52       		.byte	0x52
 15900 506e 02       		.uleb128 0x2
 15901 506f 74       		.byte	0x74
 15902 5070 00       		.sleb128 0
 15903 5071 3C       		.uleb128 0x3c
 15904 5072 01       		.uleb128 0x1
 15905 5073 53       		.byte	0x53
 15906 5074 02       		.uleb128 0x2
 15907 5075 75       		.byte	0x75
 15908 5076 00       		.sleb128 0
 15909 5077 00       		.byte	0
 15910 5078 3B       		.uleb128 0x3b
 15911 5079 86150000 		.4byte	.LVL266
 15912 507d 27690000 		.4byte	0x6927
 15913 5081 8C500000 		.4byte	0x508c
 15914 5085 3C       		.uleb128 0x3c
 15915 5086 01       		.uleb128 0x1
 15916 5087 50       		.byte	0x50
 15917 5088 02       		.uleb128 0x2
 15918 5089 7A       		.byte	0x7a
 15919 508a 00       		.sleb128 0
 15920 508b 00       		.byte	0
 15921 508c 3B       		.uleb128 0x3b
 15922 508d 8E150000 		.4byte	.LVL267
ARM GAS  C:\Users\mathi\AppData\Local\Temp\ccXNOisu.s 			page 286


 15923 5091 32690000 		.4byte	0x6932
 15924 5095 A0500000 		.4byte	0x50a0
 15925 5099 3C       		.uleb128 0x3c
 15926 509a 01       		.uleb128 0x1
 15927 509b 50       		.byte	0x50
 15928 509c 02       		.uleb128 0x2
 15929 509d 7A       		.byte	0x7a
 15930 509e 00       		.sleb128 0
 15931 509f 00       		.byte	0
 15932 50a0 39       		.uleb128 0x39
 15933 50a1 92150000 		.4byte	.LVL268
 15934 50a5 3D690000 		.4byte	0x693d
 15935 50a9 3B       		.uleb128 0x3b
 15936 50aa AA150000 		.4byte	.LVL269
 15937 50ae 1C690000 		.4byte	0x691c
 15938 50b2 C6500000 		.4byte	0x50c6
 15939 50b6 3C       		.uleb128 0x3c
 15940 50b7 01       		.uleb128 0x1
 15941 50b8 50       		.byte	0x50
 15942 50b9 02       		.uleb128 0x2
 15943 50ba 7A       		.byte	0x7a
 15944 50bb 00       		.sleb128 0
 15945 50bc 3C       		.uleb128 0x3c
 15946 50bd 01       		.uleb128 0x1
 15947 50be 51       		.byte	0x51
 15948 50bf 05       		.uleb128 0x5
 15949 50c0 03       		.byte	0x3
 15950 50c1 AC000000 		.4byte	.LC9
 15951 50c5 00       		.byte	0
 15952 50c6 3B       		.uleb128 0x3b
 15953 50c7 C6150000 		.4byte	.LVL271
 15954 50cb 32690000 		.4byte	0x6932
 15955 50cf DA500000 		.4byte	0x50da
 15956 50d3 3C       		.uleb128 0x3c
 15957 50d4 01       		.uleb128 0x1
 15958 50d5 50       		.byte	0x50
 15959 50d6 02       		.uleb128 0x2
 15960 50d7 7A       		.byte	0x7a
 15961 50d8 00       		.sleb128 0
 15962 50d9 00       		.byte	0
 15963 50da 39       		.uleb128 0x39
 15964 50db CA150000 		.4byte	.LVL272
 15965 50df 3D690000 		.4byte	0x693d
 15966 50e3 3B       		.uleb128 0x3b
 15967 50e4 DE150000 		.4byte	.LVL273
 15968 50e8 B6690000 		.4byte	0x69b6
 15969 50ec 12510000 		.4byte	0x5112
 15970 50f0 3C       		.uleb128 0x3c
 15971 50f1 01       		.uleb128 0x1
 15972 50f2 50       		.byte	0x50
 15973 50f3 02       		.uleb128 0x2
 15974 50f4 7A       		.byte	0x7a
 15975 50f5 00       		.sleb128 0
 15976 50f6 3C       		.uleb128 0x3c
 15977 50f7 01       		.uleb128 0x1
 15978 50f8 51       		.byte	0x51
 15979 50f9 05       		.uleb128 0x5
ARM GAS  C:\Users\mathi\AppData\Local\Temp\ccXNOisu.s 			page 287


 15980 50fa 03       		.byte	0x3
 15981 50fb 9C000000 		.4byte	.LC7
 15982 50ff 3C       		.uleb128 0x3c
 15983 5100 01       		.uleb128 0x1
 15984 5101 52       		.byte	0x52
 15985 5102 05       		.uleb128 0x5
 15986 5103 03       		.byte	0x3
 15987 5104 00000000 		.4byte	.LANCHOR7
 15988 5108 3C       		.uleb128 0x3c
 15989 5109 01       		.uleb128 0x1
 15990 510a 53       		.byte	0x53
 15991 510b 05       		.uleb128 0x5
 15992 510c 03       		.byte	0x3
 15993 510d 00000000 		.4byte	.LANCHOR6
 15994 5111 00       		.byte	0
 15995 5112 39       		.uleb128 0x39
 15996 5113 E6150000 		.4byte	.LVL274
 15997 5117 2F6A0000 		.4byte	0x6a2f
 15998 511b 39       		.uleb128 0x39
 15999 511c EE150000 		.4byte	.LVL275
 16000 5120 3A6A0000 		.4byte	0x6a3a
 16001 5124 3B       		.uleb128 0x3b
 16002 5125 04160000 		.4byte	.LVL276
 16003 5129 32690000 		.4byte	0x6932
 16004 512d 40510000 		.4byte	0x5140
 16005 5131 3C       		.uleb128 0x3c
 16006 5132 01       		.uleb128 0x1
 16007 5133 50       		.byte	0x50
 16008 5134 05       		.uleb128 0x5
 16009 5135 03       		.byte	0x3
 16010 5136 A8000000 		.4byte	.LC8
 16011 513a 3C       		.uleb128 0x3c
 16012 513b 01       		.uleb128 0x1
 16013 513c 51       		.byte	0x51
 16014 513d 01       		.uleb128 0x1
 16015 513e 33       		.byte	0x33
 16016 513f 00       		.byte	0
 16017 5140 39       		.uleb128 0x39
 16018 5141 08160000 		.4byte	.LVL277
 16019 5145 3D690000 		.4byte	0x693d
 16020 5149 39       		.uleb128 0x39
 16021 514a 14160000 		.4byte	.LVL278
 16022 514e 506A0000 		.4byte	0x6a50
 16023 5152 39       		.uleb128 0x39
 16024 5153 1A160000 		.4byte	.LVL279
 16025 5157 5B6A0000 		.4byte	0x6a5b
 16026 515b 39       		.uleb128 0x39
 16027 515c 20160000 		.4byte	.LVL280
 16028 5160 666A0000 		.4byte	0x6a66
 16029 5164 3B       		.uleb128 0x3b
 16030 5165 2E160000 		.4byte	.LVL281
 16031 5169 1C690000 		.4byte	0x691c
 16032 516d 8D510000 		.4byte	0x518d
 16033 5171 3C       		.uleb128 0x3c
 16034 5172 01       		.uleb128 0x1
 16035 5173 50       		.byte	0x50
 16036 5174 02       		.uleb128 0x2
ARM GAS  C:\Users\mathi\AppData\Local\Temp\ccXNOisu.s 			page 288


 16037 5175 7A       		.byte	0x7a
 16038 5176 00       		.sleb128 0
 16039 5177 3C       		.uleb128 0x3c
 16040 5178 01       		.uleb128 0x1
 16041 5179 51       		.byte	0x51
 16042 517a 05       		.uleb128 0x5
 16043 517b 03       		.byte	0x3
 16044 517c C4000000 		.4byte	.LC12
 16045 5180 3C       		.uleb128 0x3c
 16046 5181 01       		.uleb128 0x1
 16047 5182 52       		.byte	0x52
 16048 5183 02       		.uleb128 0x2
 16049 5184 74       		.byte	0x74
 16050 5185 00       		.sleb128 0
 16051 5186 3C       		.uleb128 0x3c
 16052 5187 01       		.uleb128 0x1
 16053 5188 53       		.byte	0x53
 16054 5189 02       		.uleb128 0x2
 16055 518a 75       		.byte	0x75
 16056 518b 00       		.sleb128 0
 16057 518c 00       		.byte	0
 16058 518d 3B       		.uleb128 0x3b
 16059 518e 4A160000 		.4byte	.LVL283
 16060 5192 32690000 		.4byte	0x6932
 16061 5196 A1510000 		.4byte	0x51a1
 16062 519a 3C       		.uleb128 0x3c
 16063 519b 01       		.uleb128 0x1
 16064 519c 50       		.byte	0x50
 16065 519d 02       		.uleb128 0x2
 16066 519e 7A       		.byte	0x7a
 16067 519f 00       		.sleb128 0
 16068 51a0 00       		.byte	0
 16069 51a1 39       		.uleb128 0x39
 16070 51a2 4E160000 		.4byte	.LVL284
 16071 51a6 3D690000 		.4byte	0x693d
 16072 51aa 3B       		.uleb128 0x3b
 16073 51ab 8C160000 		.4byte	.LVL285
 16074 51af 1C690000 		.4byte	0x691c
 16075 51b3 C7510000 		.4byte	0x51c7
 16076 51b7 3C       		.uleb128 0x3c
 16077 51b8 01       		.uleb128 0x1
 16078 51b9 50       		.byte	0x50
 16079 51ba 02       		.uleb128 0x2
 16080 51bb 7A       		.byte	0x7a
 16081 51bc 00       		.sleb128 0
 16082 51bd 3C       		.uleb128 0x3c
 16083 51be 01       		.uleb128 0x1
 16084 51bf 51       		.byte	0x51
 16085 51c0 05       		.uleb128 0x5
 16086 51c1 03       		.byte	0x3
 16087 51c2 94000000 		.4byte	.LC6
 16088 51c6 00       		.byte	0
 16089 51c7 3B       		.uleb128 0x3b
 16090 51c8 A8160000 		.4byte	.LVL287
 16091 51cc 32690000 		.4byte	0x6932
 16092 51d0 DB510000 		.4byte	0x51db
 16093 51d4 3C       		.uleb128 0x3c
ARM GAS  C:\Users\mathi\AppData\Local\Temp\ccXNOisu.s 			page 289


 16094 51d5 01       		.uleb128 0x1
 16095 51d6 50       		.byte	0x50
 16096 51d7 02       		.uleb128 0x2
 16097 51d8 7A       		.byte	0x7a
 16098 51d9 00       		.sleb128 0
 16099 51da 00       		.byte	0
 16100 51db 39       		.uleb128 0x39
 16101 51dc AC160000 		.4byte	.LVL288
 16102 51e0 3D690000 		.4byte	0x693d
 16103 51e4 3B       		.uleb128 0x3b
 16104 51e5 06170000 		.4byte	.LVL289
 16105 51e9 32690000 		.4byte	0x6932
 16106 51ed 00520000 		.4byte	0x5200
 16107 51f1 3C       		.uleb128 0x3c
 16108 51f2 01       		.uleb128 0x1
 16109 51f3 50       		.byte	0x50
 16110 51f4 05       		.uleb128 0x5
 16111 51f5 03       		.byte	0x3
 16112 51f6 14010000 		.4byte	.LC15
 16113 51fa 3C       		.uleb128 0x3c
 16114 51fb 01       		.uleb128 0x1
 16115 51fc 51       		.byte	0x51
 16116 51fd 01       		.uleb128 0x1
 16117 51fe 31       		.byte	0x31
 16118 51ff 00       		.byte	0
 16119 5200 39       		.uleb128 0x39
 16120 5201 0A170000 		.4byte	.LVL290
 16121 5205 3D690000 		.4byte	0x693d
 16122 5209 3B       		.uleb128 0x3b
 16123 520a 16170000 		.4byte	.LVL291
 16124 520e 32690000 		.4byte	0x6932
 16125 5212 26520000 		.4byte	0x5226
 16126 5216 3C       		.uleb128 0x3c
 16127 5217 01       		.uleb128 0x1
 16128 5218 50       		.byte	0x50
 16129 5219 05       		.uleb128 0x5
 16130 521a 03       		.byte	0x3
 16131 521b 18010000 		.4byte	.LC16
 16132 521f 3C       		.uleb128 0x3c
 16133 5220 01       		.uleb128 0x1
 16134 5221 51       		.byte	0x51
 16135 5222 02       		.uleb128 0x2
 16136 5223 08       		.byte	0x8
 16137 5224 21       		.byte	0x21
 16138 5225 00       		.byte	0
 16139 5226 39       		.uleb128 0x39
 16140 5227 1A170000 		.4byte	.LVL292
 16141 522b 3D690000 		.4byte	0x693d
 16142 522f 3B       		.uleb128 0x3b
 16143 5230 26170000 		.4byte	.LVL293
 16144 5234 32690000 		.4byte	0x6932
 16145 5238 4C520000 		.4byte	0x524c
 16146 523c 3C       		.uleb128 0x3c
 16147 523d 01       		.uleb128 0x1
 16148 523e 50       		.byte	0x50
 16149 523f 05       		.uleb128 0x5
 16150 5240 03       		.byte	0x3
ARM GAS  C:\Users\mathi\AppData\Local\Temp\ccXNOisu.s 			page 290


 16151 5241 3C010000 		.4byte	.LC17
 16152 5245 3C       		.uleb128 0x3c
 16153 5246 01       		.uleb128 0x1
 16154 5247 51       		.byte	0x51
 16155 5248 02       		.uleb128 0x2
 16156 5249 08       		.byte	0x8
 16157 524a 31       		.byte	0x31
 16158 524b 00       		.byte	0
 16159 524c 39       		.uleb128 0x39
 16160 524d 2A170000 		.4byte	.LVL294
 16161 5251 3D690000 		.4byte	0x693d
 16162 5255 39       		.uleb128 0x39
 16163 5256 32170000 		.4byte	.LVL295
 16164 525a 716A0000 		.4byte	0x6a71
 16165 525e 3B       		.uleb128 0x3b
 16166 525f 40170000 		.4byte	.LVL296
 16167 5263 32690000 		.4byte	0x6932
 16168 5267 7B520000 		.4byte	0x527b
 16169 526b 3C       		.uleb128 0x3c
 16170 526c 01       		.uleb128 0x1
 16171 526d 50       		.byte	0x50
 16172 526e 05       		.uleb128 0x5
 16173 526f 03       		.byte	0x3
 16174 5270 70010000 		.4byte	.LC18
 16175 5274 3C       		.uleb128 0x3c
 16176 5275 01       		.uleb128 0x1
 16177 5276 51       		.byte	0x51
 16178 5277 02       		.uleb128 0x2
 16179 5278 08       		.byte	0x8
 16180 5279 21       		.byte	0x21
 16181 527a 00       		.byte	0
 16182 527b 39       		.uleb128 0x39
 16183 527c 44170000 		.4byte	.LVL297
 16184 5280 3D690000 		.4byte	0x693d
 16185 5284 3B       		.uleb128 0x3b
 16186 5285 50170000 		.4byte	.LVL298
 16187 5289 32690000 		.4byte	0x6932
 16188 528d A1520000 		.4byte	0x52a1
 16189 5291 3C       		.uleb128 0x3c
 16190 5292 01       		.uleb128 0x1
 16191 5293 50       		.byte	0x50
 16192 5294 05       		.uleb128 0x5
 16193 5295 03       		.byte	0x3
 16194 5296 C4010000 		.4byte	.LC20
 16195 529a 3C       		.uleb128 0x3c
 16196 529b 01       		.uleb128 0x1
 16197 529c 51       		.byte	0x51
 16198 529d 02       		.uleb128 0x2
 16199 529e 08       		.byte	0x8
 16200 529f 25       		.byte	0x25
 16201 52a0 00       		.byte	0
 16202 52a1 39       		.uleb128 0x39
 16203 52a2 54170000 		.4byte	.LVL299
 16204 52a6 3D690000 		.4byte	0x693d
 16205 52aa 3B       		.uleb128 0x3b
 16206 52ab 60170000 		.4byte	.LVL300
 16207 52af 32690000 		.4byte	0x6932
ARM GAS  C:\Users\mathi\AppData\Local\Temp\ccXNOisu.s 			page 291


 16208 52b3 C7520000 		.4byte	0x52c7
 16209 52b7 3C       		.uleb128 0x3c
 16210 52b8 01       		.uleb128 0x1
 16211 52b9 50       		.byte	0x50
 16212 52ba 05       		.uleb128 0x5
 16213 52bb 03       		.byte	0x3
 16214 52bc EC010000 		.4byte	.LC21
 16215 52c0 3C       		.uleb128 0x3c
 16216 52c1 01       		.uleb128 0x1
 16217 52c2 51       		.byte	0x51
 16218 52c3 02       		.uleb128 0x2
 16219 52c4 08       		.byte	0x8
 16220 52c5 2E       		.byte	0x2e
 16221 52c6 00       		.byte	0
 16222 52c7 39       		.uleb128 0x39
 16223 52c8 64170000 		.4byte	.LVL301
 16224 52cc 3D690000 		.4byte	0x693d
 16225 52d0 3B       		.uleb128 0x3b
 16226 52d1 70170000 		.4byte	.LVL302
 16227 52d5 32690000 		.4byte	0x6932
 16228 52d9 ED520000 		.4byte	0x52ed
 16229 52dd 3C       		.uleb128 0x3c
 16230 52de 01       		.uleb128 0x1
 16231 52df 50       		.byte	0x50
 16232 52e0 05       		.uleb128 0x5
 16233 52e1 03       		.byte	0x3
 16234 52e2 1C020000 		.4byte	.LC22
 16235 52e6 3C       		.uleb128 0x3c
 16236 52e7 01       		.uleb128 0x1
 16237 52e8 51       		.byte	0x51
 16238 52e9 02       		.uleb128 0x2
 16239 52ea 08       		.byte	0x8
 16240 52eb 2E       		.byte	0x2e
 16241 52ec 00       		.byte	0
 16242 52ed 39       		.uleb128 0x39
 16243 52ee 74170000 		.4byte	.LVL303
 16244 52f2 3D690000 		.4byte	0x693d
 16245 52f6 3B       		.uleb128 0x3b
 16246 52f7 80170000 		.4byte	.LVL304
 16247 52fb 32690000 		.4byte	0x6932
 16248 52ff 13530000 		.4byte	0x5313
 16249 5303 3C       		.uleb128 0x3c
 16250 5304 01       		.uleb128 0x1
 16251 5305 50       		.byte	0x50
 16252 5306 05       		.uleb128 0x5
 16253 5307 03       		.byte	0x3
 16254 5308 4C020000 		.4byte	.LC23
 16255 530c 3C       		.uleb128 0x3c
 16256 530d 01       		.uleb128 0x1
 16257 530e 51       		.byte	0x51
 16258 530f 02       		.uleb128 0x2
 16259 5310 08       		.byte	0x8
 16260 5311 32       		.byte	0x32
 16261 5312 00       		.byte	0
 16262 5313 39       		.uleb128 0x39
 16263 5314 84170000 		.4byte	.LVL305
 16264 5318 3D690000 		.4byte	0x693d
ARM GAS  C:\Users\mathi\AppData\Local\Temp\ccXNOisu.s 			page 292


 16265 531c 3B       		.uleb128 0x3b
 16266 531d 90170000 		.4byte	.LVL306
 16267 5321 32690000 		.4byte	0x6932
 16268 5325 38530000 		.4byte	0x5338
 16269 5329 3C       		.uleb128 0x3c
 16270 532a 01       		.uleb128 0x1
 16271 532b 50       		.byte	0x50
 16272 532c 05       		.uleb128 0x5
 16273 532d 03       		.byte	0x3
 16274 532e 80020000 		.4byte	.LC24
 16275 5332 3C       		.uleb128 0x3c
 16276 5333 01       		.uleb128 0x1
 16277 5334 51       		.byte	0x51
 16278 5335 01       		.uleb128 0x1
 16279 5336 4F       		.byte	0x4f
 16280 5337 00       		.byte	0
 16281 5338 39       		.uleb128 0x39
 16282 5339 94170000 		.4byte	.LVL307
 16283 533d 3D690000 		.4byte	0x693d
 16284 5341 39       		.uleb128 0x39
 16285 5342 9C170000 		.4byte	.LVL308
 16286 5346 716A0000 		.4byte	0x6a71
 16287 534a 3B       		.uleb128 0x3b
 16288 534b AA170000 		.4byte	.LVL309
 16289 534f 32690000 		.4byte	0x6932
 16290 5353 66530000 		.4byte	0x5366
 16291 5357 3C       		.uleb128 0x3c
 16292 5358 01       		.uleb128 0x1
 16293 5359 50       		.byte	0x50
 16294 535a 05       		.uleb128 0x5
 16295 535b 03       		.byte	0x3
 16296 535c BC020000 		.4byte	.LC26
 16297 5360 3C       		.uleb128 0x3c
 16298 5361 01       		.uleb128 0x1
 16299 5362 51       		.byte	0x51
 16300 5363 01       		.uleb128 0x1
 16301 5364 48       		.byte	0x48
 16302 5365 00       		.byte	0
 16303 5366 39       		.uleb128 0x39
 16304 5367 AE170000 		.4byte	.LVL310
 16305 536b 3D690000 		.4byte	0x693d
 16306 536f 3B       		.uleb128 0x3b
 16307 5370 BA170000 		.4byte	.LVL311
 16308 5374 32690000 		.4byte	0x6932
 16309 5378 8C530000 		.4byte	0x538c
 16310 537c 3C       		.uleb128 0x3c
 16311 537d 01       		.uleb128 0x1
 16312 537e 50       		.byte	0x50
 16313 537f 05       		.uleb128 0x5
 16314 5380 03       		.byte	0x3
 16315 5381 D8020000 		.4byte	.LC27
 16316 5385 3C       		.uleb128 0x3c
 16317 5386 01       		.uleb128 0x1
 16318 5387 51       		.byte	0x51
 16319 5388 02       		.uleb128 0x2
 16320 5389 08       		.byte	0x8
 16321 538a 28       		.byte	0x28
ARM GAS  C:\Users\mathi\AppData\Local\Temp\ccXNOisu.s 			page 293


 16322 538b 00       		.byte	0
 16323 538c 39       		.uleb128 0x39
 16324 538d BE170000 		.4byte	.LVL312
 16325 5391 3D690000 		.4byte	0x693d
 16326 5395 3B       		.uleb128 0x3b
 16327 5396 CA170000 		.4byte	.LVL313
 16328 539a 32690000 		.4byte	0x6932
 16329 539e B2530000 		.4byte	0x53b2
 16330 53a2 3C       		.uleb128 0x3c
 16331 53a3 01       		.uleb128 0x1
 16332 53a4 50       		.byte	0x50
 16333 53a5 05       		.uleb128 0x5
 16334 53a6 03       		.byte	0x3
 16335 53a7 04030000 		.4byte	.LC28
 16336 53ab 3C       		.uleb128 0x3c
 16337 53ac 01       		.uleb128 0x1
 16338 53ad 51       		.byte	0x51
 16339 53ae 02       		.uleb128 0x2
 16340 53af 08       		.byte	0x8
 16341 53b0 4F       		.byte	0x4f
 16342 53b1 00       		.byte	0
 16343 53b2 39       		.uleb128 0x39
 16344 53b3 CE170000 		.4byte	.LVL314
 16345 53b7 3D690000 		.4byte	0x693d
 16346 53bb 3B       		.uleb128 0x3b
 16347 53bc DA170000 		.4byte	.LVL315
 16348 53c0 32690000 		.4byte	0x6932
 16349 53c4 D8530000 		.4byte	0x53d8
 16350 53c8 3C       		.uleb128 0x3c
 16351 53c9 01       		.uleb128 0x1
 16352 53ca 50       		.byte	0x50
 16353 53cb 05       		.uleb128 0x5
 16354 53cc 03       		.byte	0x3
 16355 53cd 54030000 		.4byte	.LC29
 16356 53d1 3C       		.uleb128 0x3c
 16357 53d2 01       		.uleb128 0x1
 16358 53d3 51       		.byte	0x51
 16359 53d4 02       		.uleb128 0x2
 16360 53d5 08       		.byte	0x8
 16361 53d6 2F       		.byte	0x2f
 16362 53d7 00       		.byte	0
 16363 53d8 39       		.uleb128 0x39
 16364 53d9 DE170000 		.4byte	.LVL316
 16365 53dd 3D690000 		.4byte	0x693d
 16366 53e1 3B       		.uleb128 0x3b
 16367 53e2 EA170000 		.4byte	.LVL317
 16368 53e6 32690000 		.4byte	0x6932
 16369 53ea FE530000 		.4byte	0x53fe
 16370 53ee 3C       		.uleb128 0x3c
 16371 53ef 01       		.uleb128 0x1
 16372 53f0 50       		.byte	0x50
 16373 53f1 05       		.uleb128 0x5
 16374 53f2 03       		.byte	0x3
 16375 53f3 84030000 		.4byte	.LC30
 16376 53f7 3C       		.uleb128 0x3c
 16377 53f8 01       		.uleb128 0x1
 16378 53f9 51       		.byte	0x51
ARM GAS  C:\Users\mathi\AppData\Local\Temp\ccXNOisu.s 			page 294


 16379 53fa 02       		.uleb128 0x2
 16380 53fb 08       		.byte	0x8
 16381 53fc 33       		.byte	0x33
 16382 53fd 00       		.byte	0
 16383 53fe 39       		.uleb128 0x39
 16384 53ff EE170000 		.4byte	.LVL318
 16385 5403 3D690000 		.4byte	0x693d
 16386 5407 3B       		.uleb128 0x3b
 16387 5408 FA170000 		.4byte	.LVL319
 16388 540c 32690000 		.4byte	0x6932
 16389 5410 24540000 		.4byte	0x5424
 16390 5414 3C       		.uleb128 0x3c
 16391 5415 01       		.uleb128 0x1
 16392 5416 50       		.byte	0x50
 16393 5417 05       		.uleb128 0x5
 16394 5418 03       		.byte	0x3
 16395 5419 B8030000 		.4byte	.LC31
 16396 541d 3C       		.uleb128 0x3c
 16397 541e 01       		.uleb128 0x1
 16398 541f 51       		.byte	0x51
 16399 5420 02       		.uleb128 0x2
 16400 5421 08       		.byte	0x8
 16401 5422 21       		.byte	0x21
 16402 5423 00       		.byte	0
 16403 5424 39       		.uleb128 0x39
 16404 5425 FE170000 		.4byte	.LVL320
 16405 5429 3D690000 		.4byte	0x693d
 16406 542d 3B       		.uleb128 0x3b
 16407 542e 0A180000 		.4byte	.LVL321
 16408 5432 32690000 		.4byte	0x6932
 16409 5436 49540000 		.4byte	0x5449
 16410 543a 3C       		.uleb128 0x3c
 16411 543b 01       		.uleb128 0x1
 16412 543c 50       		.byte	0x50
 16413 543d 05       		.uleb128 0x5
 16414 543e 03       		.byte	0x3
 16415 543f DC030000 		.4byte	.LC32
 16416 5443 3C       		.uleb128 0x3c
 16417 5444 01       		.uleb128 0x1
 16418 5445 51       		.byte	0x51
 16419 5446 01       		.uleb128 0x1
 16420 5447 4D       		.byte	0x4d
 16421 5448 00       		.byte	0
 16422 5449 39       		.uleb128 0x39
 16423 544a 0E180000 		.4byte	.LVL322
 16424 544e 3D690000 		.4byte	0x693d
 16425 5452 3B       		.uleb128 0x3b
 16426 5453 1A180000 		.4byte	.LVL323
 16427 5457 32690000 		.4byte	0x6932
 16428 545b 6F540000 		.4byte	0x546f
 16429 545f 3C       		.uleb128 0x3c
 16430 5460 01       		.uleb128 0x1
 16431 5461 50       		.byte	0x50
 16432 5462 05       		.uleb128 0x5
 16433 5463 03       		.byte	0x3
 16434 5464 FC030000 		.4byte	.LC33
 16435 5468 3C       		.uleb128 0x3c
ARM GAS  C:\Users\mathi\AppData\Local\Temp\ccXNOisu.s 			page 295


 16436 5469 01       		.uleb128 0x1
 16437 546a 51       		.byte	0x51
 16438 546b 02       		.uleb128 0x2
 16439 546c 08       		.byte	0x8
 16440 546d 21       		.byte	0x21
 16441 546e 00       		.byte	0
 16442 546f 39       		.uleb128 0x39
 16443 5470 1E180000 		.4byte	.LVL324
 16444 5474 3D690000 		.4byte	0x693d
 16445 5478 3B       		.uleb128 0x3b
 16446 5479 2A180000 		.4byte	.LVL325
 16447 547d 32690000 		.4byte	0x6932
 16448 5481 95540000 		.4byte	0x5495
 16449 5485 3C       		.uleb128 0x3c
 16450 5486 01       		.uleb128 0x1
 16451 5487 50       		.byte	0x50
 16452 5488 05       		.uleb128 0x5
 16453 5489 03       		.byte	0x3
 16454 548a 20040000 		.4byte	.LC34
 16455 548e 3C       		.uleb128 0x3c
 16456 548f 01       		.uleb128 0x1
 16457 5490 51       		.byte	0x51
 16458 5491 02       		.uleb128 0x2
 16459 5492 08       		.byte	0x8
 16460 5493 31       		.byte	0x31
 16461 5494 00       		.byte	0
 16462 5495 39       		.uleb128 0x39
 16463 5496 2E180000 		.4byte	.LVL326
 16464 549a 3D690000 		.4byte	0x693d
 16465 549e 3B       		.uleb128 0x3b
 16466 549f 3A180000 		.4byte	.LVL327
 16467 54a3 32690000 		.4byte	0x6932
 16468 54a7 BB540000 		.4byte	0x54bb
 16469 54ab 3C       		.uleb128 0x3c
 16470 54ac 01       		.uleb128 0x1
 16471 54ad 50       		.byte	0x50
 16472 54ae 05       		.uleb128 0x5
 16473 54af 03       		.byte	0x3
 16474 54b0 54040000 		.4byte	.LC35
 16475 54b4 3C       		.uleb128 0x3c
 16476 54b5 01       		.uleb128 0x1
 16477 54b6 51       		.byte	0x51
 16478 54b7 02       		.uleb128 0x2
 16479 54b8 08       		.byte	0x8
 16480 54b9 31       		.byte	0x31
 16481 54ba 00       		.byte	0
 16482 54bb 39       		.uleb128 0x39
 16483 54bc 3E180000 		.4byte	.LVL328
 16484 54c0 3D690000 		.4byte	0x693d
 16485 54c4 3B       		.uleb128 0x3b
 16486 54c5 4A180000 		.4byte	.LVL329
 16487 54c9 32690000 		.4byte	0x6932
 16488 54cd E1540000 		.4byte	0x54e1
 16489 54d1 3C       		.uleb128 0x3c
 16490 54d2 01       		.uleb128 0x1
 16491 54d3 50       		.byte	0x50
 16492 54d4 05       		.uleb128 0x5
ARM GAS  C:\Users\mathi\AppData\Local\Temp\ccXNOisu.s 			page 296


 16493 54d5 03       		.byte	0x3
 16494 54d6 88040000 		.4byte	.LC36
 16495 54da 3C       		.uleb128 0x3c
 16496 54db 01       		.uleb128 0x1
 16497 54dc 51       		.byte	0x51
 16498 54dd 02       		.uleb128 0x2
 16499 54de 08       		.byte	0x8
 16500 54df 20       		.byte	0x20
 16501 54e0 00       		.byte	0
 16502 54e1 39       		.uleb128 0x39
 16503 54e2 4E180000 		.4byte	.LVL330
 16504 54e6 3D690000 		.4byte	0x693d
 16505 54ea 3B       		.uleb128 0x3b
 16506 54eb 5A180000 		.4byte	.LVL331
 16507 54ef 32690000 		.4byte	0x6932
 16508 54f3 07550000 		.4byte	0x5507
 16509 54f7 3C       		.uleb128 0x3c
 16510 54f8 01       		.uleb128 0x1
 16511 54f9 50       		.byte	0x50
 16512 54fa 05       		.uleb128 0x5
 16513 54fb 03       		.byte	0x3
 16514 54fc AC040000 		.4byte	.LC37
 16515 5500 3C       		.uleb128 0x3c
 16516 5501 01       		.uleb128 0x1
 16517 5502 51       		.byte	0x51
 16518 5503 02       		.uleb128 0x2
 16519 5504 08       		.byte	0x8
 16520 5505 31       		.byte	0x31
 16521 5506 00       		.byte	0
 16522 5507 39       		.uleb128 0x39
 16523 5508 5E180000 		.4byte	.LVL332
 16524 550c 3D690000 		.4byte	0x693d
 16525 5510 3B       		.uleb128 0x3b
 16526 5511 6A180000 		.4byte	.LVL333
 16527 5515 32690000 		.4byte	0x6932
 16528 5519 2D550000 		.4byte	0x552d
 16529 551d 3C       		.uleb128 0x3c
 16530 551e 01       		.uleb128 0x1
 16531 551f 50       		.byte	0x50
 16532 5520 05       		.uleb128 0x5
 16533 5521 03       		.byte	0x3
 16534 5522 E0040000 		.4byte	.LC38
 16535 5526 3C       		.uleb128 0x3c
 16536 5527 01       		.uleb128 0x1
 16537 5528 51       		.byte	0x51
 16538 5529 02       		.uleb128 0x2
 16539 552a 08       		.byte	0x8
 16540 552b 32       		.byte	0x32
 16541 552c 00       		.byte	0
 16542 552d 39       		.uleb128 0x39
 16543 552e 6E180000 		.4byte	.LVL334
 16544 5532 3D690000 		.4byte	0x693d
 16545 5536 39       		.uleb128 0x39
 16546 5537 76180000 		.4byte	.LVL335
 16547 553b 716A0000 		.4byte	0x6a71
 16548 553f 3B       		.uleb128 0x3b
 16549 5540 84180000 		.4byte	.LVL336
ARM GAS  C:\Users\mathi\AppData\Local\Temp\ccXNOisu.s 			page 297


 16550 5544 32690000 		.4byte	0x6932
 16551 5548 5C550000 		.4byte	0x555c
 16552 554c 3C       		.uleb128 0x3c
 16553 554d 01       		.uleb128 0x1
 16554 554e 50       		.byte	0x50
 16555 554f 05       		.uleb128 0x5
 16556 5550 03       		.byte	0x3
 16557 5551 34050000 		.4byte	.LC40
 16558 5555 3C       		.uleb128 0x3c
 16559 5556 01       		.uleb128 0x1
 16560 5557 51       		.byte	0x51
 16561 5558 02       		.uleb128 0x2
 16562 5559 08       		.byte	0x8
 16563 555a 2C       		.byte	0x2c
 16564 555b 00       		.byte	0
 16565 555c 39       		.uleb128 0x39
 16566 555d 88180000 		.4byte	.LVL337
 16567 5561 3D690000 		.4byte	0x693d
 16568 5565 3B       		.uleb128 0x3b
 16569 5566 94180000 		.4byte	.LVL338
 16570 556a 32690000 		.4byte	0x6932
 16571 556e 82550000 		.4byte	0x5582
 16572 5572 3C       		.uleb128 0x3c
 16573 5573 01       		.uleb128 0x1
 16574 5574 50       		.byte	0x50
 16575 5575 05       		.uleb128 0x5
 16576 5576 03       		.byte	0x3
 16577 5577 64050000 		.4byte	.LC41
 16578 557b 3C       		.uleb128 0x3c
 16579 557c 01       		.uleb128 0x1
 16580 557d 51       		.byte	0x51
 16581 557e 02       		.uleb128 0x2
 16582 557f 08       		.byte	0x8
 16583 5580 25       		.byte	0x25
 16584 5581 00       		.byte	0
 16585 5582 39       		.uleb128 0x39
 16586 5583 98180000 		.4byte	.LVL339
 16587 5587 3D690000 		.4byte	0x693d
 16588 558b 3B       		.uleb128 0x3b
 16589 558c A4180000 		.4byte	.LVL340
 16590 5590 32690000 		.4byte	0x6932
 16591 5594 A8550000 		.4byte	0x55a8
 16592 5598 3C       		.uleb128 0x3c
 16593 5599 01       		.uleb128 0x1
 16594 559a 50       		.byte	0x50
 16595 559b 05       		.uleb128 0x5
 16596 559c 03       		.byte	0x3
 16597 559d 8C050000 		.4byte	.LC42
 16598 55a1 3C       		.uleb128 0x3c
 16599 55a2 01       		.uleb128 0x1
 16600 55a3 51       		.byte	0x51
 16601 55a4 02       		.uleb128 0x2
 16602 55a5 08       		.byte	0x8
 16603 55a6 2B       		.byte	0x2b
 16604 55a7 00       		.byte	0
 16605 55a8 39       		.uleb128 0x39
 16606 55a9 A8180000 		.4byte	.LVL341
ARM GAS  C:\Users\mathi\AppData\Local\Temp\ccXNOisu.s 			page 298


 16607 55ad 3D690000 		.4byte	0x693d
 16608 55b1 3B       		.uleb128 0x3b
 16609 55b2 B4180000 		.4byte	.LVL342
 16610 55b6 32690000 		.4byte	0x6932
 16611 55ba CE550000 		.4byte	0x55ce
 16612 55be 3C       		.uleb128 0x3c
 16613 55bf 01       		.uleb128 0x1
 16614 55c0 50       		.byte	0x50
 16615 55c1 05       		.uleb128 0x5
 16616 55c2 03       		.byte	0x3
 16617 55c3 B8050000 		.4byte	.LC43
 16618 55c7 3C       		.uleb128 0x3c
 16619 55c8 01       		.uleb128 0x1
 16620 55c9 51       		.byte	0x51
 16621 55ca 02       		.uleb128 0x2
 16622 55cb 08       		.byte	0x8
 16623 55cc 2A       		.byte	0x2a
 16624 55cd 00       		.byte	0
 16625 55ce 39       		.uleb128 0x39
 16626 55cf B8180000 		.4byte	.LVL343
 16627 55d3 3D690000 		.4byte	0x693d
 16628 55d7 3B       		.uleb128 0x3b
 16629 55d8 CA180000 		.4byte	.LVL344
 16630 55dc B6690000 		.4byte	0x69b6
 16631 55e0 FD550000 		.4byte	0x55fd
 16632 55e4 3C       		.uleb128 0x3c
 16633 55e5 01       		.uleb128 0x1
 16634 55e6 50       		.byte	0x50
 16635 55e7 02       		.uleb128 0x2
 16636 55e8 7A       		.byte	0x7a
 16637 55e9 00       		.sleb128 0
 16638 55ea 3C       		.uleb128 0x3c
 16639 55eb 01       		.uleb128 0x1
 16640 55ec 51       		.byte	0x51
 16641 55ed 05       		.uleb128 0x5
 16642 55ee 03       		.byte	0x3
 16643 55ef 88000000 		.4byte	.LC4
 16644 55f3 3C       		.uleb128 0x3c
 16645 55f4 01       		.uleb128 0x1
 16646 55f5 52       		.byte	0x52
 16647 55f6 05       		.uleb128 0x5
 16648 55f7 03       		.byte	0x3
 16649 55f8 00000000 		.4byte	.LANCHOR27
 16650 55fc 00       		.byte	0
 16651 55fd 39       		.uleb128 0x39
 16652 55fe D2180000 		.4byte	.LVL345
 16653 5602 7C6A0000 		.4byte	0x6a7c
 16654 5606 3B       		.uleb128 0x3b
 16655 5607 E8180000 		.4byte	.LVL346
 16656 560b 32690000 		.4byte	0x6932
 16657 560f 22560000 		.4byte	0x5622
 16658 5613 3C       		.uleb128 0x3c
 16659 5614 01       		.uleb128 0x1
 16660 5615 50       		.byte	0x50
 16661 5616 05       		.uleb128 0x5
 16662 5617 03       		.byte	0x3
 16663 5618 90000000 		.4byte	.LC5
ARM GAS  C:\Users\mathi\AppData\Local\Temp\ccXNOisu.s 			page 299


 16664 561c 3C       		.uleb128 0x3c
 16665 561d 01       		.uleb128 0x1
 16666 561e 51       		.byte	0x51
 16667 561f 01       		.uleb128 0x1
 16668 5620 33       		.byte	0x33
 16669 5621 00       		.byte	0
 16670 5622 39       		.uleb128 0x39
 16671 5623 EC180000 		.4byte	.LVL347
 16672 5627 3D690000 		.4byte	0x693d
 16673 562b 3B       		.uleb128 0x3b
 16674 562c FE180000 		.4byte	.LVL348
 16675 5630 B6690000 		.4byte	0x69b6
 16676 5634 51560000 		.4byte	0x5651
 16677 5638 3C       		.uleb128 0x3c
 16678 5639 01       		.uleb128 0x1
 16679 563a 50       		.byte	0x50
 16680 563b 02       		.uleb128 0x2
 16681 563c 7A       		.byte	0x7a
 16682 563d 00       		.sleb128 0
 16683 563e 3C       		.uleb128 0x3c
 16684 563f 01       		.uleb128 0x1
 16685 5640 51       		.byte	0x51
 16686 5641 05       		.uleb128 0x5
 16687 5642 03       		.byte	0x3
 16688 5643 B8000000 		.4byte	.LC10
 16689 5647 3C       		.uleb128 0x3c
 16690 5648 01       		.uleb128 0x1
 16691 5649 52       		.byte	0x52
 16692 564a 05       		.uleb128 0x5
 16693 564b 03       		.byte	0x3
 16694 564c 00000000 		.4byte	.LANCHOR27
 16695 5650 00       		.byte	0
 16696 5651 39       		.uleb128 0x39
 16697 5652 06190000 		.4byte	.LVL349
 16698 5656 876A0000 		.4byte	0x6a87
 16699 565a 3B       		.uleb128 0x3b
 16700 565b 1C190000 		.4byte	.LVL350
 16701 565f 32690000 		.4byte	0x6932
 16702 5663 76560000 		.4byte	0x5676
 16703 5667 3C       		.uleb128 0x3c
 16704 5668 01       		.uleb128 0x1
 16705 5669 50       		.byte	0x50
 16706 566a 05       		.uleb128 0x5
 16707 566b 03       		.byte	0x3
 16708 566c C0000000 		.4byte	.LC11
 16709 5670 3C       		.uleb128 0x3c
 16710 5671 01       		.uleb128 0x1
 16711 5672 51       		.byte	0x51
 16712 5673 01       		.uleb128 0x1
 16713 5674 33       		.byte	0x33
 16714 5675 00       		.byte	0
 16715 5676 39       		.uleb128 0x39
 16716 5677 20190000 		.4byte	.LVL351
 16717 567b 3D690000 		.4byte	0x693d
 16718 567f 3B       		.uleb128 0x3b
 16719 5680 34190000 		.4byte	.LVL352
 16720 5684 926A0000 		.4byte	0x6a92
ARM GAS  C:\Users\mathi\AppData\Local\Temp\ccXNOisu.s 			page 300


 16721 5688 9B560000 		.4byte	0x569b
 16722 568c 3C       		.uleb128 0x3c
 16723 568d 01       		.uleb128 0x1
 16724 568e 50       		.byte	0x50
 16725 568f 03       		.uleb128 0x3
 16726 5690 0A       		.byte	0xa
 16727 5691 142B     		.2byte	0x2b14
 16728 5693 3C       		.uleb128 0x3c
 16729 5694 01       		.uleb128 0x1
 16730 5695 51       		.byte	0x51
 16731 5696 03       		.uleb128 0x3
 16732 5697 0A       		.byte	0xa
 16733 5698 501F     		.2byte	0x1f50
 16734 569a 00       		.byte	0
 16735 569b 3B       		.uleb128 0x3b
 16736 569c 4A190000 		.4byte	.LVL353
 16737 56a0 32690000 		.4byte	0x6932
 16738 56a4 B7560000 		.4byte	0x56b7
 16739 56a8 3C       		.uleb128 0x3c
 16740 56a9 01       		.uleb128 0x1
 16741 56aa 50       		.byte	0x50
 16742 56ab 05       		.uleb128 0x5
 16743 56ac 03       		.byte	0x3
 16744 56ad B00A0000 		.4byte	.LC84
 16745 56b1 3C       		.uleb128 0x3c
 16746 56b2 01       		.uleb128 0x1
 16747 56b3 51       		.byte	0x51
 16748 56b4 01       		.uleb128 0x1
 16749 56b5 33       		.byte	0x33
 16750 56b6 00       		.byte	0
 16751 56b7 39       		.uleb128 0x39
 16752 56b8 4E190000 		.4byte	.LVL354
 16753 56bc 3D690000 		.4byte	0x693d
 16754 56c0 3B       		.uleb128 0x3b
 16755 56c1 62190000 		.4byte	.LVL355
 16756 56c5 926A0000 		.4byte	0x6a92
 16757 56c9 DC560000 		.4byte	0x56dc
 16758 56cd 3C       		.uleb128 0x3c
 16759 56ce 01       		.uleb128 0x1
 16760 56cf 50       		.byte	0x50
 16761 56d0 03       		.uleb128 0x3
 16762 56d1 0A       		.byte	0xa
 16763 56d2 7E1C     		.2byte	0x1c7e
 16764 56d4 3C       		.uleb128 0x3c
 16765 56d5 01       		.uleb128 0x1
 16766 56d6 51       		.byte	0x51
 16767 56d7 03       		.uleb128 0x3
 16768 56d8 0A       		.byte	0xa
 16769 56d9 940E     		.2byte	0xe94
 16770 56db 00       		.byte	0
 16771 56dc 3B       		.uleb128 0x3b
 16772 56dd 6E190000 		.4byte	.LVL356
 16773 56e1 9D6A0000 		.4byte	0x6a9d
 16774 56e5 F9560000 		.4byte	0x56f9
 16775 56e9 3C       		.uleb128 0x3c
 16776 56ea 01       		.uleb128 0x1
 16777 56eb 50       		.byte	0x50
ARM GAS  C:\Users\mathi\AppData\Local\Temp\ccXNOisu.s 			page 301


 16778 56ec 01       		.uleb128 0x1
 16779 56ed 3B       		.byte	0x3b
 16780 56ee 3C       		.uleb128 0x3c
 16781 56ef 01       		.uleb128 0x1
 16782 56f0 51       		.byte	0x51
 16783 56f1 01       		.uleb128 0x1
 16784 56f2 32       		.byte	0x32
 16785 56f3 3C       		.uleb128 0x3c
 16786 56f4 01       		.uleb128 0x1
 16787 56f5 52       		.byte	0x52
 16788 56f6 01       		.uleb128 0x1
 16789 56f7 30       		.byte	0x30
 16790 56f8 00       		.byte	0
 16791 56f9 3B       		.uleb128 0x3b
 16792 56fa 7A190000 		.4byte	.LVL357
 16793 56fe 9D6A0000 		.4byte	0x6a9d
 16794 5702 16570000 		.4byte	0x5716
 16795 5706 3C       		.uleb128 0x3c
 16796 5707 01       		.uleb128 0x1
 16797 5708 50       		.byte	0x50
 16798 5709 01       		.uleb128 0x1
 16799 570a 34       		.byte	0x34
 16800 570b 3C       		.uleb128 0x3c
 16801 570c 01       		.uleb128 0x1
 16802 570d 51       		.byte	0x51
 16803 570e 01       		.uleb128 0x1
 16804 570f 32       		.byte	0x32
 16805 5710 3C       		.uleb128 0x3c
 16806 5711 01       		.uleb128 0x1
 16807 5712 52       		.byte	0x52
 16808 5713 01       		.uleb128 0x1
 16809 5714 30       		.byte	0x30
 16810 5715 00       		.byte	0
 16811 5716 3B       		.uleb128 0x3b
 16812 5717 86190000 		.4byte	.LVL358
 16813 571b 9D6A0000 		.4byte	0x6a9d
 16814 571f 33570000 		.4byte	0x5733
 16815 5723 3C       		.uleb128 0x3c
 16816 5724 01       		.uleb128 0x1
 16817 5725 50       		.byte	0x50
 16818 5726 01       		.uleb128 0x1
 16819 5727 33       		.byte	0x33
 16820 5728 3C       		.uleb128 0x3c
 16821 5729 01       		.uleb128 0x1
 16822 572a 51       		.byte	0x51
 16823 572b 01       		.uleb128 0x1
 16824 572c 32       		.byte	0x32
 16825 572d 3C       		.uleb128 0x3c
 16826 572e 01       		.uleb128 0x1
 16827 572f 52       		.byte	0x52
 16828 5730 01       		.uleb128 0x1
 16829 5731 30       		.byte	0x30
 16830 5732 00       		.byte	0
 16831 5733 3B       		.uleb128 0x3b
 16832 5734 9E190000 		.4byte	.LVL359
 16833 5738 32690000 		.4byte	0x6932
 16834 573c 4F570000 		.4byte	0x574f
ARM GAS  C:\Users\mathi\AppData\Local\Temp\ccXNOisu.s 			page 302


 16835 5740 3C       		.uleb128 0x3c
 16836 5741 01       		.uleb128 0x1
 16837 5742 50       		.byte	0x50
 16838 5743 05       		.uleb128 0x5
 16839 5744 03       		.byte	0x3
 16840 5745 380B0000 		.4byte	.LC95
 16841 5749 3C       		.uleb128 0x3c
 16842 574a 01       		.uleb128 0x1
 16843 574b 51       		.byte	0x51
 16844 574c 01       		.uleb128 0x1
 16845 574d 45       		.byte	0x45
 16846 574e 00       		.byte	0
 16847 574f 39       		.uleb128 0x39
 16848 5750 A2190000 		.4byte	.LVL360
 16849 5754 3D690000 		.4byte	0x693d
 16850 5758 39       		.uleb128 0x39
 16851 5759 C8190000 		.4byte	.LVL361
 16852 575d A86A0000 		.4byte	0x6aa8
 16853 5761 39       		.uleb128 0x39
 16854 5762 CE190000 		.4byte	.LVL362
 16855 5766 B36A0000 		.4byte	0x6ab3
 16856 576a 3B       		.uleb128 0x3b
 16857 576b DA190000 		.4byte	.LVL363
 16858 576f 1C690000 		.4byte	0x691c
 16859 5773 8D570000 		.4byte	0x578d
 16860 5777 3C       		.uleb128 0x3c
 16861 5778 01       		.uleb128 0x1
 16862 5779 50       		.byte	0x50
 16863 577a 02       		.uleb128 0x2
 16864 577b 7A       		.byte	0x7a
 16865 577c 00       		.sleb128 0
 16866 577d 3C       		.uleb128 0x3c
 16867 577e 01       		.uleb128 0x1
 16868 577f 51       		.byte	0x51
 16869 5780 05       		.uleb128 0x5
 16870 5781 03       		.byte	0x3
 16871 5782 78000000 		.4byte	.LC3
 16872 5786 3C       		.uleb128 0x3c
 16873 5787 01       		.uleb128 0x1
 16874 5788 52       		.byte	0x52
 16875 5789 02       		.uleb128 0x2
 16876 578a 74       		.byte	0x74
 16877 578b 00       		.sleb128 0
 16878 578c 00       		.byte	0
 16879 578d 3B       		.uleb128 0x3b
 16880 578e 2E1C0000 		.4byte	.LVL386
 16881 5792 8A690000 		.4byte	0x698a
 16882 5796 A5570000 		.4byte	0x57a5
 16883 579a 3C       		.uleb128 0x3c
 16884 579b 01       		.uleb128 0x1
 16885 579c 50       		.byte	0x50
 16886 579d 01       		.uleb128 0x1
 16887 579e 38       		.byte	0x38
 16888 579f 3C       		.uleb128 0x3c
 16889 57a0 01       		.uleb128 0x1
 16890 57a1 51       		.byte	0x51
 16891 57a2 01       		.uleb128 0x1
ARM GAS  C:\Users\mathi\AppData\Local\Temp\ccXNOisu.s 			page 303


 16892 57a3 31       		.byte	0x31
 16893 57a4 00       		.byte	0
 16894 57a5 3B       		.uleb128 0x3b
 16895 57a6 361C0000 		.4byte	.LVL387
 16896 57aa 95690000 		.4byte	0x6995
 16897 57ae BA570000 		.4byte	0x57ba
 16898 57b2 3C       		.uleb128 0x3c
 16899 57b3 01       		.uleb128 0x1
 16900 57b4 50       		.byte	0x50
 16901 57b5 03       		.uleb128 0x3
 16902 57b6 0A       		.byte	0xa
 16903 57b7 9001     		.2byte	0x190
 16904 57b9 00       		.byte	0
 16905 57ba 39       		.uleb128 0x39
 16906 57bb 3A1C0000 		.4byte	.LVL388
 16907 57bf A0690000 		.4byte	0x69a0
 16908 57c3 3B       		.uleb128 0x3b
 16909 57c4 401C0000 		.4byte	.LVL389
 16910 57c8 95690000 		.4byte	0x6995
 16911 57cc D7570000 		.4byte	0x57d7
 16912 57d0 3C       		.uleb128 0x3c
 16913 57d1 01       		.uleb128 0x1
 16914 57d2 50       		.byte	0x50
 16915 57d3 02       		.uleb128 0x2
 16916 57d4 08       		.byte	0x8
 16917 57d5 64       		.byte	0x64
 16918 57d6 00       		.byte	0
 16919 57d7 39       		.uleb128 0x39
 16920 57d8 441C0000 		.4byte	.LVL390
 16921 57dc AB690000 		.4byte	0x69ab
 16922 57e0 3B       		.uleb128 0x3b
 16923 57e1 541C0000 		.4byte	.LVL392
 16924 57e5 1C690000 		.4byte	0x691c
 16925 57e9 FD570000 		.4byte	0x57fd
 16926 57ed 3C       		.uleb128 0x3c
 16927 57ee 01       		.uleb128 0x1
 16928 57ef 50       		.byte	0x50
 16929 57f0 02       		.uleb128 0x2
 16930 57f1 7A       		.byte	0x7a
 16931 57f2 00       		.sleb128 0
 16932 57f3 3C       		.uleb128 0x3c
 16933 57f4 01       		.uleb128 0x1
 16934 57f5 51       		.byte	0x51
 16935 57f6 05       		.uleb128 0x5
 16936 57f7 03       		.byte	0x3
 16937 57f8 500B0000 		.4byte	.LC96
 16938 57fc 00       		.byte	0
 16939 57fd 39       		.uleb128 0x39
 16940 57fe 881C0000 		.4byte	.LVL393
 16941 5802 A86A0000 		.4byte	0x6aa8
 16942 5806 39       		.uleb128 0x39
 16943 5807 8E1C0000 		.4byte	.LVL394
 16944 580b B36A0000 		.4byte	0x6ab3
 16945 580f 3B       		.uleb128 0x3b
 16946 5810 9A1C0000 		.4byte	.LVL395
 16947 5814 1C690000 		.4byte	0x691c
 16948 5818 32580000 		.4byte	0x5832
ARM GAS  C:\Users\mathi\AppData\Local\Temp\ccXNOisu.s 			page 304


 16949 581c 3C       		.uleb128 0x3c
 16950 581d 01       		.uleb128 0x1
 16951 581e 50       		.byte	0x50
 16952 581f 02       		.uleb128 0x2
 16953 5820 7A       		.byte	0x7a
 16954 5821 00       		.sleb128 0
 16955 5822 3C       		.uleb128 0x3c
 16956 5823 01       		.uleb128 0x1
 16957 5824 51       		.byte	0x51
 16958 5825 05       		.uleb128 0x5
 16959 5826 03       		.byte	0x3
 16960 5827 78000000 		.4byte	.LC3
 16961 582b 3C       		.uleb128 0x3c
 16962 582c 01       		.uleb128 0x1
 16963 582d 52       		.byte	0x52
 16964 582e 02       		.uleb128 0x2
 16965 582f 74       		.byte	0x74
 16966 5830 00       		.sleb128 0
 16967 5831 00       		.byte	0
 16968 5832 3B       		.uleb128 0x3b
 16969 5833 B01C0000 		.4byte	.LVL397
 16970 5837 32690000 		.4byte	0x6932
 16971 583b 46580000 		.4byte	0x5846
 16972 583f 3C       		.uleb128 0x3c
 16973 5840 01       		.uleb128 0x1
 16974 5841 50       		.byte	0x50
 16975 5842 02       		.uleb128 0x2
 16976 5843 7A       		.byte	0x7a
 16977 5844 00       		.sleb128 0
 16978 5845 00       		.byte	0
 16979 5846 39       		.uleb128 0x39
 16980 5847 B41C0000 		.4byte	.LVL398
 16981 584b 3D690000 		.4byte	0x693d
 16982 584f 39       		.uleb128 0x39
 16983 5850 C01C0000 		.4byte	.LVL399
 16984 5854 27690000 		.4byte	0x6927
 16985 5858 3B       		.uleb128 0x3b
 16986 5859 C81C0000 		.4byte	.LVL400
 16987 585d BE6A0000 		.4byte	0x6abe
 16988 5861 6C580000 		.4byte	0x586c
 16989 5865 3C       		.uleb128 0x3c
 16990 5866 01       		.uleb128 0x1
 16991 5867 50       		.byte	0x50
 16992 5868 02       		.uleb128 0x2
 16993 5869 74       		.byte	0x74
 16994 586a 00       		.sleb128 0
 16995 586b 00       		.byte	0
 16996 586c 39       		.uleb128 0x39
 16997 586d CC1C0000 		.4byte	.LVL401
 16998 5871 C96A0000 		.4byte	0x6ac9
 16999 5875 39       		.uleb128 0x39
 17000 5876 D81C0000 		.4byte	.LVL402
 17001 587a BE6A0000 		.4byte	0x6abe
 17002 587e 39       		.uleb128 0x39
 17003 587f DC1C0000 		.4byte	.LVL403
 17004 5883 C96A0000 		.4byte	0x6ac9
 17005 5887 3B       		.uleb128 0x3b
ARM GAS  C:\Users\mathi\AppData\Local\Temp\ccXNOisu.s 			page 305


 17006 5888 E81C0000 		.4byte	.LVL404
 17007 588c 8A690000 		.4byte	0x698a
 17008 5890 9F580000 		.4byte	0x589f
 17009 5894 3C       		.uleb128 0x3c
 17010 5895 01       		.uleb128 0x1
 17011 5896 50       		.byte	0x50
 17012 5897 01       		.uleb128 0x1
 17013 5898 38       		.byte	0x38
 17014 5899 3C       		.uleb128 0x3c
 17015 589a 01       		.uleb128 0x1
 17016 589b 51       		.byte	0x51
 17017 589c 01       		.uleb128 0x1
 17018 589d 31       		.byte	0x31
 17019 589e 00       		.byte	0
 17020 589f 3B       		.uleb128 0x3b
 17021 58a0 F01C0000 		.4byte	.LVL405
 17022 58a4 95690000 		.4byte	0x6995
 17023 58a8 B4580000 		.4byte	0x58b4
 17024 58ac 3C       		.uleb128 0x3c
 17025 58ad 01       		.uleb128 0x1
 17026 58ae 50       		.byte	0x50
 17027 58af 03       		.uleb128 0x3
 17028 58b0 0A       		.byte	0xa
 17029 58b1 9001     		.2byte	0x190
 17030 58b3 00       		.byte	0
 17031 58b4 39       		.uleb128 0x39
 17032 58b5 F41C0000 		.4byte	.LVL406
 17033 58b9 A0690000 		.4byte	0x69a0
 17034 58bd 3B       		.uleb128 0x3b
 17035 58be FA1C0000 		.4byte	.LVL407
 17036 58c2 95690000 		.4byte	0x6995
 17037 58c6 D1580000 		.4byte	0x58d1
 17038 58ca 3C       		.uleb128 0x3c
 17039 58cb 01       		.uleb128 0x1
 17040 58cc 50       		.byte	0x50
 17041 58cd 02       		.uleb128 0x2
 17042 58ce 08       		.byte	0x8
 17043 58cf 64       		.byte	0x64
 17044 58d0 00       		.byte	0
 17045 58d1 39       		.uleb128 0x39
 17046 58d2 FE1C0000 		.4byte	.LVL408
 17047 58d6 AB690000 		.4byte	0x69ab
 17048 58da 3B       		.uleb128 0x3b
 17049 58db 061D0000 		.4byte	.LVL409
 17050 58df BE6A0000 		.4byte	0x6abe
 17051 58e3 F6580000 		.4byte	0x58f6
 17052 58e7 3C       		.uleb128 0x3c
 17053 58e8 01       		.uleb128 0x1
 17054 58e9 50       		.byte	0x50
 17055 58ea 05       		.uleb128 0x5
 17056 58eb 03       		.byte	0x3
 17057 58ec 640B0000 		.4byte	.LC97
 17058 58f0 3C       		.uleb128 0x3c
 17059 58f1 01       		.uleb128 0x1
 17060 58f2 51       		.byte	0x51
 17061 58f3 01       		.uleb128 0x1
 17062 58f4 49       		.byte	0x49
ARM GAS  C:\Users\mathi\AppData\Local\Temp\ccXNOisu.s 			page 306


 17063 58f5 00       		.byte	0
 17064 58f6 39       		.uleb128 0x39
 17065 58f7 0A1D0000 		.4byte	.LVL410
 17066 58fb C96A0000 		.4byte	0x6ac9
 17067 58ff 39       		.uleb128 0x39
 17068 5900 161D0000 		.4byte	.LVL412
 17069 5904 BE6A0000 		.4byte	0x6abe
 17070 5908 39       		.uleb128 0x39
 17071 5909 1A1D0000 		.4byte	.LVL413
 17072 590d C96A0000 		.4byte	0x6ac9
 17073 5911 3B       		.uleb128 0x3b
 17074 5912 2A1D0000 		.4byte	.LVL414
 17075 5916 1C690000 		.4byte	0x691c
 17076 591a 2E590000 		.4byte	0x592e
 17077 591e 3C       		.uleb128 0x3c
 17078 591f 01       		.uleb128 0x1
 17079 5920 50       		.byte	0x50
 17080 5921 02       		.uleb128 0x2
 17081 5922 7A       		.byte	0x7a
 17082 5923 00       		.sleb128 0
 17083 5924 3C       		.uleb128 0x3c
 17084 5925 01       		.uleb128 0x1
 17085 5926 51       		.byte	0x51
 17086 5927 05       		.uleb128 0x5
 17087 5928 03       		.byte	0x3
 17088 5929 500B0000 		.4byte	.LC96
 17089 592d 00       		.byte	0
 17090 592e 3B       		.uleb128 0x3b
 17091 592f 301D0000 		.4byte	.LVL415
 17092 5933 27690000 		.4byte	0x6927
 17093 5937 42590000 		.4byte	0x5942
 17094 593b 3C       		.uleb128 0x3c
 17095 593c 01       		.uleb128 0x1
 17096 593d 50       		.byte	0x50
 17097 593e 02       		.uleb128 0x2
 17098 593f 7A       		.byte	0x7a
 17099 5940 00       		.sleb128 0
 17100 5941 00       		.byte	0
 17101 5942 3B       		.uleb128 0x3b
 17102 5943 381D0000 		.4byte	.LVL416
 17103 5947 BE6A0000 		.4byte	0x6abe
 17104 594b 56590000 		.4byte	0x5956
 17105 594f 3C       		.uleb128 0x3c
 17106 5950 01       		.uleb128 0x1
 17107 5951 50       		.byte	0x50
 17108 5952 02       		.uleb128 0x2
 17109 5953 7A       		.byte	0x7a
 17110 5954 00       		.sleb128 0
 17111 5955 00       		.byte	0
 17112 5956 39       		.uleb128 0x39
 17113 5957 3C1D0000 		.4byte	.LVL417
 17114 595b C96A0000 		.4byte	0x6ac9
 17115 595f 3B       		.uleb128 0x3b
 17116 5960 4A1D0000 		.4byte	.LVL418
 17117 5964 27690000 		.4byte	0x6927
 17118 5968 73590000 		.4byte	0x5973
 17119 596c 3C       		.uleb128 0x3c
ARM GAS  C:\Users\mathi\AppData\Local\Temp\ccXNOisu.s 			page 307


 17120 596d 01       		.uleb128 0x1
 17121 596e 50       		.byte	0x50
 17122 596f 02       		.uleb128 0x2
 17123 5970 7A       		.byte	0x7a
 17124 5971 00       		.sleb128 0
 17125 5972 00       		.byte	0
 17126 5973 3B       		.uleb128 0x3b
 17127 5974 521D0000 		.4byte	.LVL419
 17128 5978 BE6A0000 		.4byte	0x6abe
 17129 597c 87590000 		.4byte	0x5987
 17130 5980 3C       		.uleb128 0x3c
 17131 5981 01       		.uleb128 0x1
 17132 5982 50       		.byte	0x50
 17133 5983 02       		.uleb128 0x2
 17134 5984 7A       		.byte	0x7a
 17135 5985 00       		.sleb128 0
 17136 5986 00       		.byte	0
 17137 5987 39       		.uleb128 0x39
 17138 5988 561D0000 		.4byte	.LVL420
 17139 598c C96A0000 		.4byte	0x6ac9
 17140 5990 39       		.uleb128 0x39
 17141 5991 BC1D0000 		.4byte	.LVL421
 17142 5995 BE6A0000 		.4byte	0x6abe
 17143 5999 39       		.uleb128 0x39
 17144 599a C01D0000 		.4byte	.LVL422
 17145 599e C96A0000 		.4byte	0x6ac9
 17146 59a2 39       		.uleb128 0x39
 17147 59a3 C81D0000 		.4byte	.LVL423
 17148 59a7 716A0000 		.4byte	0x6a71
 17149 59ab 39       		.uleb128 0x39
 17150 59ac D21D0000 		.4byte	.LVL424
 17151 59b0 716A0000 		.4byte	0x6a71
 17152 59b4 3B       		.uleb128 0x3b
 17153 59b5 E01D0000 		.4byte	.LVL425
 17154 59b9 BE6A0000 		.4byte	0x6abe
 17155 59bd D0590000 		.4byte	0x59d0
 17156 59c1 3C       		.uleb128 0x3c
 17157 59c2 01       		.uleb128 0x1
 17158 59c3 50       		.byte	0x50
 17159 59c4 05       		.uleb128 0x5
 17160 59c5 03       		.byte	0x3
 17161 59c6 00060000 		.4byte	.LC45
 17162 59ca 3C       		.uleb128 0x3c
 17163 59cb 01       		.uleb128 0x1
 17164 59cc 51       		.byte	0x51
 17165 59cd 01       		.uleb128 0x1
 17166 59ce 49       		.byte	0x49
 17167 59cf 00       		.byte	0
 17168 59d0 39       		.uleb128 0x39
 17169 59d1 E41D0000 		.4byte	.LVL426
 17170 59d5 C96A0000 		.4byte	0x6ac9
 17171 59d9 3B       		.uleb128 0x3b
 17172 59da F01D0000 		.4byte	.LVL427
 17173 59de BE6A0000 		.4byte	0x6abe
 17174 59e2 F6590000 		.4byte	0x59f6
 17175 59e6 3C       		.uleb128 0x3c
 17176 59e7 01       		.uleb128 0x1
ARM GAS  C:\Users\mathi\AppData\Local\Temp\ccXNOisu.s 			page 308


 17177 59e8 50       		.byte	0x50
 17178 59e9 05       		.uleb128 0x5
 17179 59ea 03       		.byte	0x3
 17180 59eb 44060000 		.4byte	.LC47
 17181 59ef 3C       		.uleb128 0x3c
 17182 59f0 01       		.uleb128 0x1
 17183 59f1 51       		.byte	0x51
 17184 59f2 02       		.uleb128 0x2
 17185 59f3 08       		.byte	0x8
 17186 59f4 2B       		.byte	0x2b
 17187 59f5 00       		.byte	0
 17188 59f6 39       		.uleb128 0x39
 17189 59f7 F41D0000 		.4byte	.LVL428
 17190 59fb C96A0000 		.4byte	0x6ac9
 17191 59ff 3B       		.uleb128 0x3b
 17192 5a00 001E0000 		.4byte	.LVL429
 17193 5a04 BE6A0000 		.4byte	0x6abe
 17194 5a08 1B5A0000 		.4byte	0x5a1b
 17195 5a0c 3C       		.uleb128 0x3c
 17196 5a0d 01       		.uleb128 0x1
 17197 5a0e 50       		.byte	0x50
 17198 5a0f 05       		.uleb128 0x5
 17199 5a10 03       		.byte	0x3
 17200 5a11 70060000 		.4byte	.LC48
 17201 5a15 3C       		.uleb128 0x3c
 17202 5a16 01       		.uleb128 0x1
 17203 5a17 51       		.byte	0x51
 17204 5a18 01       		.uleb128 0x1
 17205 5a19 4D       		.byte	0x4d
 17206 5a1a 00       		.byte	0
 17207 5a1b 39       		.uleb128 0x39
 17208 5a1c 041E0000 		.4byte	.LVL430
 17209 5a20 C96A0000 		.4byte	0x6ac9
 17210 5a24 3B       		.uleb128 0x3b
 17211 5a25 101E0000 		.4byte	.LVL431
 17212 5a29 BE6A0000 		.4byte	0x6abe
 17213 5a2d 415A0000 		.4byte	0x5a41
 17214 5a31 3C       		.uleb128 0x3c
 17215 5a32 01       		.uleb128 0x1
 17216 5a33 50       		.byte	0x50
 17217 5a34 05       		.uleb128 0x5
 17218 5a35 03       		.byte	0x3
 17219 5a36 90060000 		.4byte	.LC49
 17220 5a3a 3C       		.uleb128 0x3c
 17221 5a3b 01       		.uleb128 0x1
 17222 5a3c 51       		.byte	0x51
 17223 5a3d 02       		.uleb128 0x2
 17224 5a3e 08       		.byte	0x8
 17225 5a3f 26       		.byte	0x26
 17226 5a40 00       		.byte	0
 17227 5a41 39       		.uleb128 0x39
 17228 5a42 141E0000 		.4byte	.LVL432
 17229 5a46 C96A0000 		.4byte	0x6ac9
 17230 5a4a 3B       		.uleb128 0x3b
 17231 5a4b 201E0000 		.4byte	.LVL433
 17232 5a4f BE6A0000 		.4byte	0x6abe
 17233 5a53 675A0000 		.4byte	0x5a67
ARM GAS  C:\Users\mathi\AppData\Local\Temp\ccXNOisu.s 			page 309


 17234 5a57 3C       		.uleb128 0x3c
 17235 5a58 01       		.uleb128 0x1
 17236 5a59 50       		.byte	0x50
 17237 5a5a 05       		.uleb128 0x5
 17238 5a5b 03       		.byte	0x3
 17239 5a5c B8060000 		.4byte	.LC50
 17240 5a60 3C       		.uleb128 0x3c
 17241 5a61 01       		.uleb128 0x1
 17242 5a62 51       		.byte	0x51
 17243 5a63 02       		.uleb128 0x2
 17244 5a64 08       		.byte	0x8
 17245 5a65 26       		.byte	0x26
 17246 5a66 00       		.byte	0
 17247 5a67 39       		.uleb128 0x39
 17248 5a68 241E0000 		.4byte	.LVL434
 17249 5a6c C96A0000 		.4byte	0x6ac9
 17250 5a70 3B       		.uleb128 0x3b
 17251 5a71 301E0000 		.4byte	.LVL435
 17252 5a75 BE6A0000 		.4byte	0x6abe
 17253 5a79 8D5A0000 		.4byte	0x5a8d
 17254 5a7d 3C       		.uleb128 0x3c
 17255 5a7e 01       		.uleb128 0x1
 17256 5a7f 50       		.byte	0x50
 17257 5a80 05       		.uleb128 0x5
 17258 5a81 03       		.byte	0x3
 17259 5a82 E0060000 		.4byte	.LC51
 17260 5a86 3C       		.uleb128 0x3c
 17261 5a87 01       		.uleb128 0x1
 17262 5a88 51       		.byte	0x51
 17263 5a89 02       		.uleb128 0x2
 17264 5a8a 08       		.byte	0x8
 17265 5a8b 2C       		.byte	0x2c
 17266 5a8c 00       		.byte	0
 17267 5a8d 39       		.uleb128 0x39
 17268 5a8e 341E0000 		.4byte	.LVL436
 17269 5a92 C96A0000 		.4byte	0x6ac9
 17270 5a96 3B       		.uleb128 0x3b
 17271 5a97 401E0000 		.4byte	.LVL437
 17272 5a9b BE6A0000 		.4byte	0x6abe
 17273 5a9f B25A0000 		.4byte	0x5ab2
 17274 5aa3 3C       		.uleb128 0x3c
 17275 5aa4 01       		.uleb128 0x1
 17276 5aa5 50       		.byte	0x50
 17277 5aa6 05       		.uleb128 0x5
 17278 5aa7 03       		.byte	0x3
 17279 5aa8 10070000 		.4byte	.LC52
 17280 5aac 3C       		.uleb128 0x3c
 17281 5aad 01       		.uleb128 0x1
 17282 5aae 51       		.byte	0x51
 17283 5aaf 01       		.uleb128 0x1
 17284 5ab0 47       		.byte	0x47
 17285 5ab1 00       		.byte	0
 17286 5ab2 39       		.uleb128 0x39
 17287 5ab3 441E0000 		.4byte	.LVL438
 17288 5ab7 C96A0000 		.4byte	0x6ac9
 17289 5abb 3B       		.uleb128 0x3b
 17290 5abc 501E0000 		.4byte	.LVL439
ARM GAS  C:\Users\mathi\AppData\Local\Temp\ccXNOisu.s 			page 310


 17291 5ac0 BE6A0000 		.4byte	0x6abe
 17292 5ac4 D75A0000 		.4byte	0x5ad7
 17293 5ac8 3C       		.uleb128 0x3c
 17294 5ac9 01       		.uleb128 0x1
 17295 5aca 50       		.byte	0x50
 17296 5acb 05       		.uleb128 0x5
 17297 5acc 03       		.byte	0x3
 17298 5acd 28070000 		.4byte	.LC53
 17299 5ad1 3C       		.uleb128 0x3c
 17300 5ad2 01       		.uleb128 0x1
 17301 5ad3 51       		.byte	0x51
 17302 5ad4 01       		.uleb128 0x1
 17303 5ad5 40       		.byte	0x40
 17304 5ad6 00       		.byte	0
 17305 5ad7 39       		.uleb128 0x39
 17306 5ad8 541E0000 		.4byte	.LVL440
 17307 5adc C96A0000 		.4byte	0x6ac9
 17308 5ae0 3B       		.uleb128 0x3b
 17309 5ae1 601E0000 		.4byte	.LVL441
 17310 5ae5 BE6A0000 		.4byte	0x6abe
 17311 5ae9 FD5A0000 		.4byte	0x5afd
 17312 5aed 3C       		.uleb128 0x3c
 17313 5aee 01       		.uleb128 0x1
 17314 5aef 50       		.byte	0x50
 17315 5af0 05       		.uleb128 0x5
 17316 5af1 03       		.byte	0x3
 17317 5af2 3C070000 		.4byte	.LC54
 17318 5af6 3C       		.uleb128 0x3c
 17319 5af7 01       		.uleb128 0x1
 17320 5af8 51       		.byte	0x51
 17321 5af9 02       		.uleb128 0x2
 17322 5afa 08       		.byte	0x8
 17323 5afb 22       		.byte	0x22
 17324 5afc 00       		.byte	0
 17325 5afd 39       		.uleb128 0x39
 17326 5afe 641E0000 		.4byte	.LVL442
 17327 5b02 C96A0000 		.4byte	0x6ac9
 17328 5b06 3B       		.uleb128 0x3b
 17329 5b07 701E0000 		.4byte	.LVL443
 17330 5b0b BE6A0000 		.4byte	0x6abe
 17331 5b0f 235B0000 		.4byte	0x5b23
 17332 5b13 3C       		.uleb128 0x3c
 17333 5b14 01       		.uleb128 0x1
 17334 5b15 50       		.byte	0x50
 17335 5b16 05       		.uleb128 0x5
 17336 5b17 03       		.byte	0x3
 17337 5b18 60070000 		.4byte	.LC55
 17338 5b1c 3C       		.uleb128 0x3c
 17339 5b1d 01       		.uleb128 0x1
 17340 5b1e 51       		.byte	0x51
 17341 5b1f 02       		.uleb128 0x2
 17342 5b20 08       		.byte	0x8
 17343 5b21 4D       		.byte	0x4d
 17344 5b22 00       		.byte	0
 17345 5b23 39       		.uleb128 0x39
 17346 5b24 741E0000 		.4byte	.LVL444
 17347 5b28 C96A0000 		.4byte	0x6ac9
ARM GAS  C:\Users\mathi\AppData\Local\Temp\ccXNOisu.s 			page 311


 17348 5b2c 3B       		.uleb128 0x3b
 17349 5b2d 801E0000 		.4byte	.LVL445
 17350 5b31 BE6A0000 		.4byte	0x6abe
 17351 5b35 495B0000 		.4byte	0x5b49
 17352 5b39 3C       		.uleb128 0x3c
 17353 5b3a 01       		.uleb128 0x1
 17354 5b3b 50       		.byte	0x50
 17355 5b3c 05       		.uleb128 0x5
 17356 5b3d 03       		.byte	0x3
 17357 5b3e B0070000 		.4byte	.LC56
 17358 5b42 3C       		.uleb128 0x3c
 17359 5b43 01       		.uleb128 0x1
 17360 5b44 51       		.byte	0x51
 17361 5b45 02       		.uleb128 0x2
 17362 5b46 08       		.byte	0x8
 17363 5b47 27       		.byte	0x27
 17364 5b48 00       		.byte	0
 17365 5b49 39       		.uleb128 0x39
 17366 5b4a 841E0000 		.4byte	.LVL446
 17367 5b4e C96A0000 		.4byte	0x6ac9
 17368 5b52 3B       		.uleb128 0x3b
 17369 5b53 901E0000 		.4byte	.LVL447
 17370 5b57 BE6A0000 		.4byte	0x6abe
 17371 5b5b 6F5B0000 		.4byte	0x5b6f
 17372 5b5f 3C       		.uleb128 0x3c
 17373 5b60 01       		.uleb128 0x1
 17374 5b61 50       		.byte	0x50
 17375 5b62 05       		.uleb128 0x5
 17376 5b63 03       		.byte	0x3
 17377 5b64 D8070000 		.4byte	.LC57
 17378 5b68 3C       		.uleb128 0x3c
 17379 5b69 01       		.uleb128 0x1
 17380 5b6a 51       		.byte	0x51
 17381 5b6b 02       		.uleb128 0x2
 17382 5b6c 08       		.byte	0x8
 17383 5b6d 2B       		.byte	0x2b
 17384 5b6e 00       		.byte	0
 17385 5b6f 39       		.uleb128 0x39
 17386 5b70 941E0000 		.4byte	.LVL448
 17387 5b74 C96A0000 		.4byte	0x6ac9
 17388 5b78 3B       		.uleb128 0x3b
 17389 5b79 A01E0000 		.4byte	.LVL449
 17390 5b7d BE6A0000 		.4byte	0x6abe
 17391 5b81 945B0000 		.4byte	0x5b94
 17392 5b85 3C       		.uleb128 0x3c
 17393 5b86 01       		.uleb128 0x1
 17394 5b87 50       		.byte	0x50
 17395 5b88 05       		.uleb128 0x5
 17396 5b89 03       		.byte	0x3
 17397 5b8a 04080000 		.4byte	.LC58
 17398 5b8e 3C       		.uleb128 0x3c
 17399 5b8f 01       		.uleb128 0x1
 17400 5b90 51       		.byte	0x51
 17401 5b91 01       		.uleb128 0x1
 17402 5b92 49       		.byte	0x49
 17403 5b93 00       		.byte	0
 17404 5b94 39       		.uleb128 0x39
ARM GAS  C:\Users\mathi\AppData\Local\Temp\ccXNOisu.s 			page 312


 17405 5b95 A41E0000 		.4byte	.LVL450
 17406 5b99 C96A0000 		.4byte	0x6ac9
 17407 5b9d 3B       		.uleb128 0x3b
 17408 5b9e B01E0000 		.4byte	.LVL451
 17409 5ba2 BE6A0000 		.4byte	0x6abe
 17410 5ba6 B95B0000 		.4byte	0x5bb9
 17411 5baa 3C       		.uleb128 0x3c
 17412 5bab 01       		.uleb128 0x1
 17413 5bac 50       		.byte	0x50
 17414 5bad 05       		.uleb128 0x5
 17415 5bae 03       		.byte	0x3
 17416 5baf 20080000 		.4byte	.LC59
 17417 5bb3 3C       		.uleb128 0x3c
 17418 5bb4 01       		.uleb128 0x1
 17419 5bb5 51       		.byte	0x51
 17420 5bb6 01       		.uleb128 0x1
 17421 5bb7 45       		.byte	0x45
 17422 5bb8 00       		.byte	0
 17423 5bb9 39       		.uleb128 0x39
 17424 5bba B41E0000 		.4byte	.LVL452
 17425 5bbe C96A0000 		.4byte	0x6ac9
 17426 5bc2 3B       		.uleb128 0x3b
 17427 5bc3 C01E0000 		.4byte	.LVL453
 17428 5bc7 BE6A0000 		.4byte	0x6abe
 17429 5bcb DE5B0000 		.4byte	0x5bde
 17430 5bcf 3C       		.uleb128 0x3c
 17431 5bd0 01       		.uleb128 0x1
 17432 5bd1 50       		.byte	0x50
 17433 5bd2 05       		.uleb128 0x5
 17434 5bd3 03       		.byte	0x3
 17435 5bd4 38080000 		.4byte	.LC60
 17436 5bd8 3C       		.uleb128 0x3c
 17437 5bd9 01       		.uleb128 0x1
 17438 5bda 51       		.byte	0x51
 17439 5bdb 01       		.uleb128 0x1
 17440 5bdc 49       		.byte	0x49
 17441 5bdd 00       		.byte	0
 17442 5bde 39       		.uleb128 0x39
 17443 5bdf C41E0000 		.4byte	.LVL454
 17444 5be3 C96A0000 		.4byte	0x6ac9
 17445 5be7 3B       		.uleb128 0x3b
 17446 5be8 D01E0000 		.4byte	.LVL455
 17447 5bec BE6A0000 		.4byte	0x6abe
 17448 5bf0 045C0000 		.4byte	0x5c04
 17449 5bf4 3C       		.uleb128 0x3c
 17450 5bf5 01       		.uleb128 0x1
 17451 5bf6 50       		.byte	0x50
 17452 5bf7 05       		.uleb128 0x5
 17453 5bf8 03       		.byte	0x3
 17454 5bf9 54080000 		.4byte	.LC61
 17455 5bfd 3C       		.uleb128 0x3c
 17456 5bfe 01       		.uleb128 0x1
 17457 5bff 51       		.byte	0x51
 17458 5c00 02       		.uleb128 0x2
 17459 5c01 08       		.byte	0x8
 17460 5c02 29       		.byte	0x29
 17461 5c03 00       		.byte	0
ARM GAS  C:\Users\mathi\AppData\Local\Temp\ccXNOisu.s 			page 313


 17462 5c04 39       		.uleb128 0x39
 17463 5c05 D41E0000 		.4byte	.LVL456
 17464 5c09 C96A0000 		.4byte	0x6ac9
 17465 5c0d 3B       		.uleb128 0x3b
 17466 5c0e E01E0000 		.4byte	.LVL457
 17467 5c12 BE6A0000 		.4byte	0x6abe
 17468 5c16 2A5C0000 		.4byte	0x5c2a
 17469 5c1a 3C       		.uleb128 0x3c
 17470 5c1b 01       		.uleb128 0x1
 17471 5c1c 50       		.byte	0x50
 17472 5c1d 05       		.uleb128 0x5
 17473 5c1e 03       		.byte	0x3
 17474 5c1f 80080000 		.4byte	.LC62
 17475 5c23 3C       		.uleb128 0x3c
 17476 5c24 01       		.uleb128 0x1
 17477 5c25 51       		.byte	0x51
 17478 5c26 02       		.uleb128 0x2
 17479 5c27 08       		.byte	0x8
 17480 5c28 29       		.byte	0x29
 17481 5c29 00       		.byte	0
 17482 5c2a 39       		.uleb128 0x39
 17483 5c2b E41E0000 		.4byte	.LVL458
 17484 5c2f C96A0000 		.4byte	0x6ac9
 17485 5c33 3B       		.uleb128 0x3b
 17486 5c34 F01E0000 		.4byte	.LVL459
 17487 5c38 BE6A0000 		.4byte	0x6abe
 17488 5c3c 4F5C0000 		.4byte	0x5c4f
 17489 5c40 3C       		.uleb128 0x3c
 17490 5c41 01       		.uleb128 0x1
 17491 5c42 50       		.byte	0x50
 17492 5c43 05       		.uleb128 0x5
 17493 5c44 03       		.byte	0x3
 17494 5c45 AC080000 		.4byte	.LC63
 17495 5c49 3C       		.uleb128 0x3c
 17496 5c4a 01       		.uleb128 0x1
 17497 5c4b 51       		.byte	0x51
 17498 5c4c 01       		.uleb128 0x1
 17499 5c4d 48       		.byte	0x48
 17500 5c4e 00       		.byte	0
 17501 5c4f 39       		.uleb128 0x39
 17502 5c50 F41E0000 		.4byte	.LVL460
 17503 5c54 C96A0000 		.4byte	0x6ac9
 17504 5c58 3B       		.uleb128 0x3b
 17505 5c59 001F0000 		.4byte	.LVL461
 17506 5c5d BE6A0000 		.4byte	0x6abe
 17507 5c61 755C0000 		.4byte	0x5c75
 17508 5c65 3C       		.uleb128 0x3c
 17509 5c66 01       		.uleb128 0x1
 17510 5c67 50       		.byte	0x50
 17511 5c68 05       		.uleb128 0x5
 17512 5c69 03       		.byte	0x3
 17513 5c6a C8080000 		.4byte	.LC64
 17514 5c6e 3C       		.uleb128 0x3c
 17515 5c6f 01       		.uleb128 0x1
 17516 5c70 51       		.byte	0x51
 17517 5c71 02       		.uleb128 0x2
 17518 5c72 08       		.byte	0x8
ARM GAS  C:\Users\mathi\AppData\Local\Temp\ccXNOisu.s 			page 314


 17519 5c73 29       		.byte	0x29
 17520 5c74 00       		.byte	0
 17521 5c75 39       		.uleb128 0x39
 17522 5c76 041F0000 		.4byte	.LVL462
 17523 5c7a C96A0000 		.4byte	0x6ac9
 17524 5c7e 3B       		.uleb128 0x3b
 17525 5c7f 101F0000 		.4byte	.LVL463
 17526 5c83 BE6A0000 		.4byte	0x6abe
 17527 5c87 9B5C0000 		.4byte	0x5c9b
 17528 5c8b 3C       		.uleb128 0x3c
 17529 5c8c 01       		.uleb128 0x1
 17530 5c8d 50       		.byte	0x50
 17531 5c8e 05       		.uleb128 0x5
 17532 5c8f 03       		.byte	0x3
 17533 5c90 F4080000 		.4byte	.LC65
 17534 5c94 3C       		.uleb128 0x3c
 17535 5c95 01       		.uleb128 0x1
 17536 5c96 51       		.byte	0x51
 17537 5c97 02       		.uleb128 0x2
 17538 5c98 08       		.byte	0x8
 17539 5c99 2C       		.byte	0x2c
 17540 5c9a 00       		.byte	0
 17541 5c9b 39       		.uleb128 0x39
 17542 5c9c 141F0000 		.4byte	.LVL464
 17543 5ca0 C96A0000 		.4byte	0x6ac9
 17544 5ca4 3B       		.uleb128 0x3b
 17545 5ca5 201F0000 		.4byte	.LVL465
 17546 5ca9 BE6A0000 		.4byte	0x6abe
 17547 5cad C15C0000 		.4byte	0x5cc1
 17548 5cb1 3C       		.uleb128 0x3c
 17549 5cb2 01       		.uleb128 0x1
 17550 5cb3 50       		.byte	0x50
 17551 5cb4 05       		.uleb128 0x5
 17552 5cb5 03       		.byte	0x3
 17553 5cb6 24090000 		.4byte	.LC66
 17554 5cba 3C       		.uleb128 0x3c
 17555 5cbb 01       		.uleb128 0x1
 17556 5cbc 51       		.byte	0x51
 17557 5cbd 02       		.uleb128 0x2
 17558 5cbe 08       		.byte	0x8
 17559 5cbf 24       		.byte	0x24
 17560 5cc0 00       		.byte	0
 17561 5cc1 39       		.uleb128 0x39
 17562 5cc2 241F0000 		.4byte	.LVL466
 17563 5cc6 C96A0000 		.4byte	0x6ac9
 17564 5cca 3B       		.uleb128 0x3b
 17565 5ccb 301F0000 		.4byte	.LVL467
 17566 5ccf BE6A0000 		.4byte	0x6abe
 17567 5cd3 E65C0000 		.4byte	0x5ce6
 17568 5cd7 3C       		.uleb128 0x3c
 17569 5cd8 01       		.uleb128 0x1
 17570 5cd9 50       		.byte	0x50
 17571 5cda 05       		.uleb128 0x5
 17572 5cdb 03       		.byte	0x3
 17573 5cdc 4C090000 		.4byte	.LC67
 17574 5ce0 3C       		.uleb128 0x3c
 17575 5ce1 01       		.uleb128 0x1
ARM GAS  C:\Users\mathi\AppData\Local\Temp\ccXNOisu.s 			page 315


 17576 5ce2 51       		.byte	0x51
 17577 5ce3 01       		.uleb128 0x1
 17578 5ce4 4D       		.byte	0x4d
 17579 5ce5 00       		.byte	0
 17580 5ce6 39       		.uleb128 0x39
 17581 5ce7 341F0000 		.4byte	.LVL468
 17582 5ceb C96A0000 		.4byte	0x6ac9
 17583 5cef 3B       		.uleb128 0x3b
 17584 5cf0 401F0000 		.4byte	.LVL469
 17585 5cf4 BE6A0000 		.4byte	0x6abe
 17586 5cf8 0C5D0000 		.4byte	0x5d0c
 17587 5cfc 3C       		.uleb128 0x3c
 17588 5cfd 01       		.uleb128 0x1
 17589 5cfe 50       		.byte	0x50
 17590 5cff 05       		.uleb128 0x5
 17591 5d00 03       		.byte	0x3
 17592 5d01 6C090000 		.4byte	.LC68
 17593 5d05 3C       		.uleb128 0x3c
 17594 5d06 01       		.uleb128 0x1
 17595 5d07 51       		.byte	0x51
 17596 5d08 02       		.uleb128 0x2
 17597 5d09 08       		.byte	0x8
 17598 5d0a 25       		.byte	0x25
 17599 5d0b 00       		.byte	0
 17600 5d0c 39       		.uleb128 0x39
 17601 5d0d 441F0000 		.4byte	.LVL470
 17602 5d11 C96A0000 		.4byte	0x6ac9
 17603 5d15 3B       		.uleb128 0x3b
 17604 5d16 501F0000 		.4byte	.LVL471
 17605 5d1a BE6A0000 		.4byte	0x6abe
 17606 5d1e 325D0000 		.4byte	0x5d32
 17607 5d22 3C       		.uleb128 0x3c
 17608 5d23 01       		.uleb128 0x1
 17609 5d24 50       		.byte	0x50
 17610 5d25 05       		.uleb128 0x5
 17611 5d26 03       		.byte	0x3
 17612 5d27 94090000 		.4byte	.LC69
 17613 5d2b 3C       		.uleb128 0x3c
 17614 5d2c 01       		.uleb128 0x1
 17615 5d2d 51       		.byte	0x51
 17616 5d2e 02       		.uleb128 0x2
 17617 5d2f 08       		.byte	0x8
 17618 5d30 24       		.byte	0x24
 17619 5d31 00       		.byte	0
 17620 5d32 39       		.uleb128 0x39
 17621 5d33 541F0000 		.4byte	.LVL472
 17622 5d37 C96A0000 		.4byte	0x6ac9
 17623 5d3b 39       		.uleb128 0x39
 17624 5d3c 601F0000 		.4byte	.LVL473
 17625 5d40 BE6A0000 		.4byte	0x6abe
 17626 5d44 39       		.uleb128 0x39
 17627 5d45 641F0000 		.4byte	.LVL474
 17628 5d49 C96A0000 		.4byte	0x6ac9
 17629 5d4d 39       		.uleb128 0x39
 17630 5d4e 701F0000 		.4byte	.LVL475
 17631 5d52 BE6A0000 		.4byte	0x6abe
 17632 5d56 39       		.uleb128 0x39
ARM GAS  C:\Users\mathi\AppData\Local\Temp\ccXNOisu.s 			page 316


 17633 5d57 741F0000 		.4byte	.LVL476
 17634 5d5b C96A0000 		.4byte	0x6ac9
 17635 5d5f 39       		.uleb128 0x39
 17636 5d60 801F0000 		.4byte	.LVL477
 17637 5d64 BE6A0000 		.4byte	0x6abe
 17638 5d68 39       		.uleb128 0x39
 17639 5d69 841F0000 		.4byte	.LVL478
 17640 5d6d C96A0000 		.4byte	0x6ac9
 17641 5d71 39       		.uleb128 0x39
 17642 5d72 901F0000 		.4byte	.LVL479
 17643 5d76 BE6A0000 		.4byte	0x6abe
 17644 5d7a 39       		.uleb128 0x39
 17645 5d7b 941F0000 		.4byte	.LVL480
 17646 5d7f C96A0000 		.4byte	0x6ac9
 17647 5d83 39       		.uleb128 0x39
 17648 5d84 A01F0000 		.4byte	.LVL481
 17649 5d88 BE6A0000 		.4byte	0x6abe
 17650 5d8c 39       		.uleb128 0x39
 17651 5d8d A41F0000 		.4byte	.LVL482
 17652 5d91 C96A0000 		.4byte	0x6ac9
 17653 5d95 39       		.uleb128 0x39
 17654 5d96 B01F0000 		.4byte	.LVL483
 17655 5d9a BE6A0000 		.4byte	0x6abe
 17656 5d9e 39       		.uleb128 0x39
 17657 5d9f B41F0000 		.4byte	.LVL484
 17658 5da3 C96A0000 		.4byte	0x6ac9
 17659 5da7 39       		.uleb128 0x39
 17660 5da8 C01F0000 		.4byte	.LVL485
 17661 5dac BE6A0000 		.4byte	0x6abe
 17662 5db0 39       		.uleb128 0x39
 17663 5db1 C41F0000 		.4byte	.LVL486
 17664 5db5 C96A0000 		.4byte	0x6ac9
 17665 5db9 39       		.uleb128 0x39
 17666 5dba D01F0000 		.4byte	.LVL487
 17667 5dbe BE6A0000 		.4byte	0x6abe
 17668 5dc2 39       		.uleb128 0x39
 17669 5dc3 D41F0000 		.4byte	.LVL488
 17670 5dc7 C96A0000 		.4byte	0x6ac9
 17671 5dcb 39       		.uleb128 0x39
 17672 5dcc E01F0000 		.4byte	.LVL489
 17673 5dd0 BE6A0000 		.4byte	0x6abe
 17674 5dd4 39       		.uleb128 0x39
 17675 5dd5 E41F0000 		.4byte	.LVL490
 17676 5dd9 C96A0000 		.4byte	0x6ac9
 17677 5ddd 39       		.uleb128 0x39
 17678 5dde F01F0000 		.4byte	.LVL491
 17679 5de2 BE6A0000 		.4byte	0x6abe
 17680 5de6 39       		.uleb128 0x39
 17681 5de7 F41F0000 		.4byte	.LVL492
 17682 5deb C96A0000 		.4byte	0x6ac9
 17683 5def 39       		.uleb128 0x39
 17684 5df0 00200000 		.4byte	.LVL493
 17685 5df4 BE6A0000 		.4byte	0x6abe
 17686 5df8 39       		.uleb128 0x39
 17687 5df9 04200000 		.4byte	.LVL494
 17688 5dfd C96A0000 		.4byte	0x6ac9
 17689 5e01 39       		.uleb128 0x39
ARM GAS  C:\Users\mathi\AppData\Local\Temp\ccXNOisu.s 			page 317


 17690 5e02 10200000 		.4byte	.LVL495
 17691 5e06 BE6A0000 		.4byte	0x6abe
 17692 5e0a 39       		.uleb128 0x39
 17693 5e0b 14200000 		.4byte	.LVL496
 17694 5e0f C96A0000 		.4byte	0x6ac9
 17695 5e13 39       		.uleb128 0x39
 17696 5e14 20200000 		.4byte	.LVL497
 17697 5e18 BE6A0000 		.4byte	0x6abe
 17698 5e1c 39       		.uleb128 0x39
 17699 5e1d 24200000 		.4byte	.LVL498
 17700 5e21 C96A0000 		.4byte	0x6ac9
 17701 5e25 39       		.uleb128 0x39
 17702 5e26 30200000 		.4byte	.LVL499
 17703 5e2a BE6A0000 		.4byte	0x6abe
 17704 5e2e 39       		.uleb128 0x39
 17705 5e2f 34200000 		.4byte	.LVL500
 17706 5e33 C96A0000 		.4byte	0x6ac9
 17707 5e37 3B       		.uleb128 0x3b
 17708 5e38 42200000 		.4byte	.LVL501
 17709 5e3c 27690000 		.4byte	0x6927
 17710 5e40 4B5E0000 		.4byte	0x5e4b
 17711 5e44 3C       		.uleb128 0x3c
 17712 5e45 01       		.uleb128 0x1
 17713 5e46 50       		.byte	0x50
 17714 5e47 02       		.uleb128 0x2
 17715 5e48 7A       		.byte	0x7a
 17716 5e49 00       		.sleb128 0
 17717 5e4a 00       		.byte	0
 17718 5e4b 3B       		.uleb128 0x3b
 17719 5e4c 4A200000 		.4byte	.LVL502
 17720 5e50 BE6A0000 		.4byte	0x6abe
 17721 5e54 5F5E0000 		.4byte	0x5e5f
 17722 5e58 3C       		.uleb128 0x3c
 17723 5e59 01       		.uleb128 0x1
 17724 5e5a 50       		.byte	0x50
 17725 5e5b 02       		.uleb128 0x2
 17726 5e5c 7A       		.byte	0x7a
 17727 5e5d 00       		.sleb128 0
 17728 5e5e 00       		.byte	0
 17729 5e5f 39       		.uleb128 0x39
 17730 5e60 4E200000 		.4byte	.LVL503
 17731 5e64 C96A0000 		.4byte	0x6ac9
 17732 5e68 3B       		.uleb128 0x3b
 17733 5e69 5C200000 		.4byte	.LVL504
 17734 5e6d 27690000 		.4byte	0x6927
 17735 5e71 7C5E0000 		.4byte	0x5e7c
 17736 5e75 3C       		.uleb128 0x3c
 17737 5e76 01       		.uleb128 0x1
 17738 5e77 50       		.byte	0x50
 17739 5e78 02       		.uleb128 0x2
 17740 5e79 7A       		.byte	0x7a
 17741 5e7a 00       		.sleb128 0
 17742 5e7b 00       		.byte	0
 17743 5e7c 3B       		.uleb128 0x3b
 17744 5e7d 64200000 		.4byte	.LVL505
 17745 5e81 BE6A0000 		.4byte	0x6abe
 17746 5e85 905E0000 		.4byte	0x5e90
ARM GAS  C:\Users\mathi\AppData\Local\Temp\ccXNOisu.s 			page 318


 17747 5e89 3C       		.uleb128 0x3c
 17748 5e8a 01       		.uleb128 0x1
 17749 5e8b 50       		.byte	0x50
 17750 5e8c 02       		.uleb128 0x2
 17751 5e8d 7A       		.byte	0x7a
 17752 5e8e 00       		.sleb128 0
 17753 5e8f 00       		.byte	0
 17754 5e90 39       		.uleb128 0x39
 17755 5e91 68200000 		.4byte	.LVL506
 17756 5e95 C96A0000 		.4byte	0x6ac9
 17757 5e99 39       		.uleb128 0x39
 17758 5e9a 74200000 		.4byte	.LVL507
 17759 5e9e BE6A0000 		.4byte	0x6abe
 17760 5ea2 39       		.uleb128 0x39
 17761 5ea3 78200000 		.4byte	.LVL508
 17762 5ea7 C96A0000 		.4byte	0x6ac9
 17763 5eab 39       		.uleb128 0x39
 17764 5eac 84200000 		.4byte	.LVL509
 17765 5eb0 BE6A0000 		.4byte	0x6abe
 17766 5eb4 39       		.uleb128 0x39
 17767 5eb5 88200000 		.4byte	.LVL510
 17768 5eb9 C96A0000 		.4byte	0x6ac9
 17769 5ebd 39       		.uleb128 0x39
 17770 5ebe 94200000 		.4byte	.LVL511
 17771 5ec2 D46A0000 		.4byte	0x6ad4
 17772 5ec6 39       		.uleb128 0x39
 17773 5ec7 98200000 		.4byte	.LVL512
 17774 5ecb DF6A0000 		.4byte	0x6adf
 17775 5ecf 39       		.uleb128 0x39
 17776 5ed0 A4200000 		.4byte	.LVL513
 17777 5ed4 BE6A0000 		.4byte	0x6abe
 17778 5ed8 39       		.uleb128 0x39
 17779 5ed9 A8200000 		.4byte	.LVL514
 17780 5edd C96A0000 		.4byte	0x6ac9
 17781 5ee1 39       		.uleb128 0x39
 17782 5ee2 B4200000 		.4byte	.LVL515
 17783 5ee6 BE6A0000 		.4byte	0x6abe
 17784 5eea 39       		.uleb128 0x39
 17785 5eeb B8200000 		.4byte	.LVL516
 17786 5eef C96A0000 		.4byte	0x6ac9
 17787 5ef3 39       		.uleb128 0x39
 17788 5ef4 C4200000 		.4byte	.LVL517
 17789 5ef8 27690000 		.4byte	0x6927
 17790 5efc 3B       		.uleb128 0x3b
 17791 5efd CC200000 		.4byte	.LVL518
 17792 5f01 BE6A0000 		.4byte	0x6abe
 17793 5f05 105F0000 		.4byte	0x5f10
 17794 5f09 3C       		.uleb128 0x3c
 17795 5f0a 01       		.uleb128 0x1
 17796 5f0b 50       		.byte	0x50
 17797 5f0c 02       		.uleb128 0x2
 17798 5f0d 7A       		.byte	0x7a
 17799 5f0e 00       		.sleb128 0
 17800 5f0f 00       		.byte	0
 17801 5f10 39       		.uleb128 0x39
 17802 5f11 D0200000 		.4byte	.LVL519
 17803 5f15 C96A0000 		.4byte	0x6ac9
ARM GAS  C:\Users\mathi\AppData\Local\Temp\ccXNOisu.s 			page 319


 17804 5f19 3B       		.uleb128 0x3b
 17805 5f1a 5A210000 		.4byte	.LVL520
 17806 5f1e BE6A0000 		.4byte	0x6abe
 17807 5f22 365F0000 		.4byte	0x5f36
 17808 5f26 3C       		.uleb128 0x3c
 17809 5f27 01       		.uleb128 0x1
 17810 5f28 50       		.byte	0x50
 17811 5f29 05       		.uleb128 0x5
 17812 5f2a 03       		.byte	0x3
 17813 5f2b 1C060000 		.4byte	.LC46
 17814 5f2f 3C       		.uleb128 0x3c
 17815 5f30 01       		.uleb128 0x1
 17816 5f31 51       		.byte	0x51
 17817 5f32 02       		.uleb128 0x2
 17818 5f33 08       		.byte	0x8
 17819 5f34 27       		.byte	0x27
 17820 5f35 00       		.byte	0
 17821 5f36 39       		.uleb128 0x39
 17822 5f37 5E210000 		.4byte	.LVL521
 17823 5f3b C96A0000 		.4byte	0x6ac9
 17824 5f3f 3B       		.uleb128 0x3b
 17825 5f40 6C210000 		.4byte	.LVL522
 17826 5f44 32690000 		.4byte	0x6932
 17827 5f48 5C5F0000 		.4byte	0x5f5c
 17828 5f4c 3C       		.uleb128 0x3c
 17829 5f4d 01       		.uleb128 0x1
 17830 5f4e 50       		.byte	0x50
 17831 5f4f 05       		.uleb128 0x5
 17832 5f50 03       		.byte	0x3
 17833 5f51 94010000 		.4byte	.LC19
 17834 5f55 3C       		.uleb128 0x3c
 17835 5f56 01       		.uleb128 0x1
 17836 5f57 51       		.byte	0x51
 17837 5f58 02       		.uleb128 0x2
 17838 5f59 08       		.byte	0x8
 17839 5f5a 2F       		.byte	0x2f
 17840 5f5b 00       		.byte	0
 17841 5f5c 39       		.uleb128 0x39
 17842 5f5d 70210000 		.4byte	.LVL523
 17843 5f61 3D690000 		.4byte	0x693d
 17844 5f65 39       		.uleb128 0x39
 17845 5f66 7C210000 		.4byte	.LVL524
 17846 5f6a 27690000 		.4byte	0x6927
 17847 5f6e 3B       		.uleb128 0x3b
 17848 5f6f 84210000 		.4byte	.LVL525
 17849 5f73 BE6A0000 		.4byte	0x6abe
 17850 5f77 825F0000 		.4byte	0x5f82
 17851 5f7b 3C       		.uleb128 0x3c
 17852 5f7c 01       		.uleb128 0x1
 17853 5f7d 50       		.byte	0x50
 17854 5f7e 02       		.uleb128 0x2
 17855 5f7f 7A       		.byte	0x7a
 17856 5f80 00       		.sleb128 0
 17857 5f81 00       		.byte	0
 17858 5f82 39       		.uleb128 0x39
 17859 5f83 88210000 		.4byte	.LVL526
 17860 5f87 C96A0000 		.4byte	0x6ac9
ARM GAS  C:\Users\mathi\AppData\Local\Temp\ccXNOisu.s 			page 320


 17861 5f8b 39       		.uleb128 0x39
 17862 5f8c 94210000 		.4byte	.LVL527
 17863 5f90 BE6A0000 		.4byte	0x6abe
 17864 5f94 39       		.uleb128 0x39
 17865 5f95 98210000 		.4byte	.LVL528
 17866 5f99 C96A0000 		.4byte	0x6ac9
 17867 5f9d 39       		.uleb128 0x39
 17868 5f9e A4210000 		.4byte	.LVL529
 17869 5fa2 27690000 		.4byte	0x6927
 17870 5fa6 3B       		.uleb128 0x3b
 17871 5fa7 AC210000 		.4byte	.LVL530
 17872 5fab BE6A0000 		.4byte	0x6abe
 17873 5faf BA5F0000 		.4byte	0x5fba
 17874 5fb3 3C       		.uleb128 0x3c
 17875 5fb4 01       		.uleb128 0x1
 17876 5fb5 50       		.byte	0x50
 17877 5fb6 02       		.uleb128 0x2
 17878 5fb7 7A       		.byte	0x7a
 17879 5fb8 00       		.sleb128 0
 17880 5fb9 00       		.byte	0
 17881 5fba 39       		.uleb128 0x39
 17882 5fbb B0210000 		.4byte	.LVL531
 17883 5fbf C96A0000 		.4byte	0x6ac9
 17884 5fc3 3B       		.uleb128 0x3b
 17885 5fc4 C0210000 		.4byte	.LVL532
 17886 5fc8 32690000 		.4byte	0x6932
 17887 5fcc DF5F0000 		.4byte	0x5fdf
 17888 5fd0 3C       		.uleb128 0x3c
 17889 5fd1 01       		.uleb128 0x1
 17890 5fd2 50       		.byte	0x50
 17891 5fd3 05       		.uleb128 0x5
 17892 5fd4 03       		.byte	0x3
 17893 5fd5 A0020000 		.4byte	.LC25
 17894 5fd9 3C       		.uleb128 0x3c
 17895 5fda 01       		.uleb128 0x1
 17896 5fdb 51       		.byte	0x51
 17897 5fdc 01       		.uleb128 0x1
 17898 5fdd 48       		.byte	0x48
 17899 5fde 00       		.byte	0
 17900 5fdf 39       		.uleb128 0x39
 17901 5fe0 C4210000 		.4byte	.LVL533
 17902 5fe4 3D690000 		.4byte	0x693d
 17903 5fe8 3B       		.uleb128 0x3b
 17904 5fe9 D4210000 		.4byte	.LVL534
 17905 5fed BE6A0000 		.4byte	0x6abe
 17906 5ff1 04600000 		.4byte	0x6004
 17907 5ff5 3C       		.uleb128 0x3c
 17908 5ff6 01       		.uleb128 0x1
 17909 5ff7 50       		.byte	0x50
 17910 5ff8 05       		.uleb128 0x5
 17911 5ff9 03       		.byte	0x3
 17912 5ffa E4050000 		.4byte	.LC44
 17913 5ffe 3C       		.uleb128 0x3c
 17914 5fff 01       		.uleb128 0x1
 17915 6000 51       		.byte	0x51
 17916 6001 01       		.uleb128 0x1
 17917 6002 49       		.byte	0x49
ARM GAS  C:\Users\mathi\AppData\Local\Temp\ccXNOisu.s 			page 321


 17918 6003 00       		.byte	0
 17919 6004 39       		.uleb128 0x39
 17920 6005 D8210000 		.4byte	.LVL535
 17921 6009 C96A0000 		.4byte	0x6ac9
 17922 600d 3B       		.uleb128 0x3b
 17923 600e E6210000 		.4byte	.LVL536
 17924 6012 32690000 		.4byte	0x6932
 17925 6016 29600000 		.4byte	0x6029
 17926 601a 3C       		.uleb128 0x3c
 17927 601b 01       		.uleb128 0x1
 17928 601c 50       		.byte	0x50
 17929 601d 05       		.uleb128 0x5
 17930 601e 03       		.byte	0x3
 17931 601f 14050000 		.4byte	.LC39
 17932 6023 3C       		.uleb128 0x3c
 17933 6024 01       		.uleb128 0x1
 17934 6025 51       		.byte	0x51
 17935 6026 01       		.uleb128 0x1
 17936 6027 4F       		.byte	0x4f
 17937 6028 00       		.byte	0
 17938 6029 39       		.uleb128 0x39
 17939 602a EA210000 		.4byte	.LVL537
 17940 602e 3D690000 		.4byte	0x693d
 17941 6032 39       		.uleb128 0x39
 17942 6033 F6210000 		.4byte	.LVL538
 17943 6037 A86A0000 		.4byte	0x6aa8
 17944 603b 39       		.uleb128 0x39
 17945 603c FC210000 		.4byte	.LVL539
 17946 6040 B36A0000 		.4byte	0x6ab3
 17947 6044 3D       		.uleb128 0x3d
 17948 6045 08220000 		.4byte	.LVL540
 17949 6049 1C690000 		.4byte	0x691c
 17950 604d 3C       		.uleb128 0x3c
 17951 604e 01       		.uleb128 0x1
 17952 604f 50       		.byte	0x50
 17953 6050 02       		.uleb128 0x2
 17954 6051 7A       		.byte	0x7a
 17955 6052 00       		.sleb128 0
 17956 6053 3C       		.uleb128 0x3c
 17957 6054 01       		.uleb128 0x1
 17958 6055 51       		.byte	0x51
 17959 6056 05       		.uleb128 0x5
 17960 6057 03       		.byte	0x3
 17961 6058 78000000 		.4byte	.LC3
 17962 605c 3C       		.uleb128 0x3c
 17963 605d 01       		.uleb128 0x1
 17964 605e 52       		.byte	0x52
 17965 605f 02       		.uleb128 0x2
 17966 6060 74       		.byte	0x74
 17967 6061 00       		.sleb128 0
 17968 6062 00       		.byte	0
 17969 6063 00       		.byte	0
 17970 6064 39       		.uleb128 0x39
 17971 6065 14000000 		.4byte	.LVL1
 17972 6069 EA6A0000 		.4byte	0x6aea
 17973 606d 39       		.uleb128 0x39
 17974 606e 18000000 		.4byte	.LVL2
ARM GAS  C:\Users\mathi\AppData\Local\Temp\ccXNOisu.s 			page 322


 17975 6072 F56A0000 		.4byte	0x6af5
 17976 6076 39       		.uleb128 0x39
 17977 6077 30000000 		.4byte	.LVL4
 17978 607b 006B0000 		.4byte	0x6b00
 17979 607f 39       		.uleb128 0x39
 17980 6080 48000000 		.4byte	.LVL5
 17981 6084 0B6B0000 		.4byte	0x6b0b
 17982 6088 39       		.uleb128 0x39
 17983 6089 4C000000 		.4byte	.LVL6
 17984 608d 166B0000 		.4byte	0x6b16
 17985 6091 3B       		.uleb128 0x3b
 17986 6092 5A000000 		.4byte	.LVL7
 17987 6096 216B0000 		.4byte	0x6b21
 17988 609a BA600000 		.4byte	0x60ba
 17989 609e 3C       		.uleb128 0x3c
 17990 609f 01       		.uleb128 0x1
 17991 60a0 50       		.byte	0x50
 17992 60a1 02       		.uleb128 0x2
 17993 60a2 08       		.byte	0x8
 17994 60a3 7F       		.byte	0x7f
 17995 60a4 3C       		.uleb128 0x3c
 17996 60a5 01       		.uleb128 0x1
 17997 60a6 51       		.byte	0x51
 17998 60a7 03       		.uleb128 0x3
 17999 60a8 0A       		.byte	0xa
 18000 60a9 FEFF     		.2byte	0xfffe
 18001 60ab 3C       		.uleb128 0x3c
 18002 60ac 01       		.uleb128 0x1
 18003 60ad 52       		.byte	0x52
 18004 60ae 05       		.uleb128 0x5
 18005 60af 03       		.byte	0x3
 18006 60b0 00000000 		.4byte	.LANCHOR0
 18007 60b4 3C       		.uleb128 0x3c
 18008 60b5 01       		.uleb128 0x1
 18009 60b6 53       		.byte	0x53
 18010 60b7 01       		.uleb128 0x1
 18011 60b8 31       		.byte	0x31
 18012 60b9 00       		.byte	0
 18013 60ba 39       		.uleb128 0x39
 18014 60bb 76000000 		.4byte	.LVL8
 18015 60bf C1690000 		.4byte	0x69c1
 18016 60c3 3B       		.uleb128 0x3b
 18017 60c4 A4000000 		.4byte	.LVL9
 18018 60c8 CC690000 		.4byte	0x69cc
 18019 60cc E6600000 		.4byte	0x60e6
 18020 60d0 3C       		.uleb128 0x3c
 18021 60d1 02       		.uleb128 0x2
 18022 60d2 7D       		.byte	0x7d
 18023 60d3 00       		.sleb128 0
 18024 60d4 02       		.uleb128 0x2
 18025 60d5 75       		.byte	0x75
 18026 60d6 00       		.sleb128 0
 18027 60d7 3C       		.uleb128 0x3c
 18028 60d8 02       		.uleb128 0x2
 18029 60d9 7D       		.byte	0x7d
 18030 60da 04       		.sleb128 4
 18031 60db 02       		.uleb128 0x2
ARM GAS  C:\Users\mathi\AppData\Local\Temp\ccXNOisu.s 			page 323


 18032 60dc 75       		.byte	0x75
 18033 60dd 00       		.sleb128 0
 18034 60de 3C       		.uleb128 0x3c
 18035 60df 02       		.uleb128 0x2
 18036 60e0 7D       		.byte	0x7d
 18037 60e1 08       		.sleb128 8
 18038 60e2 02       		.uleb128 0x2
 18039 60e3 74       		.byte	0x74
 18040 60e4 00       		.sleb128 0
 18041 60e5 00       		.byte	0
 18042 60e6 39       		.uleb128 0x39
 18043 60e7 A8000000 		.4byte	.LVL10
 18044 60eb D7690000 		.4byte	0x69d7
 18045 60ef 39       		.uleb128 0x39
 18046 60f0 B4000000 		.4byte	.LVL11
 18047 60f4 2C6B0000 		.4byte	0x6b2c
 18048 60f8 3B       		.uleb128 0x3b
 18049 60f9 BC000000 		.4byte	.LVL12
 18050 60fd 32690000 		.4byte	0x6932
 18051 6101 15610000 		.4byte	0x6115
 18052 6105 3C       		.uleb128 0x3c
 18053 6106 01       		.uleb128 0x1
 18054 6107 50       		.byte	0x50
 18055 6108 05       		.uleb128 0x5
 18056 6109 03       		.byte	0x3
 18057 610a 00000000 		.4byte	.LC0
 18058 610e 3C       		.uleb128 0x3c
 18059 610f 01       		.uleb128 0x1
 18060 6110 51       		.byte	0x51
 18061 6111 02       		.uleb128 0x2
 18062 6112 08       		.byte	0x8
 18063 6113 58       		.byte	0x58
 18064 6114 00       		.byte	0
 18065 6115 39       		.uleb128 0x39
 18066 6116 C0000000 		.4byte	.LVL13
 18067 611a 3D690000 		.4byte	0x693d
 18068 611e 3B       		.uleb128 0x3b
 18069 611f EE000000 		.4byte	.LVL18
 18070 6123 376B0000 		.4byte	0x6b37
 18071 6127 32610000 		.4byte	0x6132
 18072 612b 3C       		.uleb128 0x3c
 18073 612c 01       		.uleb128 0x1
 18074 612d 50       		.byte	0x50
 18075 612e 02       		.uleb128 0x2
 18076 612f 75       		.byte	0x75
 18077 6130 00       		.sleb128 0
 18078 6131 00       		.byte	0
 18079 6132 39       		.uleb128 0x39
 18080 6133 F6000000 		.4byte	.LVL19
 18081 6137 666A0000 		.4byte	0x6a66
 18082 613b 39       		.uleb128 0x39
 18083 613c FC000000 		.4byte	.LVL21
 18084 6140 5B6A0000 		.4byte	0x6a5b
 18085 6144 3B       		.uleb128 0x3b
 18086 6145 52010000 		.4byte	.LVL24
 18087 6149 376B0000 		.4byte	0x6b37
 18088 614d 58610000 		.4byte	0x6158
ARM GAS  C:\Users\mathi\AppData\Local\Temp\ccXNOisu.s 			page 324


 18089 6151 3C       		.uleb128 0x3c
 18090 6152 01       		.uleb128 0x1
 18091 6153 50       		.byte	0x50
 18092 6154 02       		.uleb128 0x2
 18093 6155 74       		.byte	0x74
 18094 6156 00       		.sleb128 0
 18095 6157 00       		.byte	0
 18096 6158 3B       		.uleb128 0x3b
 18097 6159 7E010000 		.4byte	.LVL25
 18098 615d 376B0000 		.4byte	0x6b37
 18099 6161 6C610000 		.4byte	0x616c
 18100 6165 3C       		.uleb128 0x3c
 18101 6166 01       		.uleb128 0x1
 18102 6167 50       		.byte	0x50
 18103 6168 02       		.uleb128 0x2
 18104 6169 74       		.byte	0x74
 18105 616a 00       		.sleb128 0
 18106 616b 00       		.byte	0
 18107 616c 3B       		.uleb128 0x3b
 18108 616d 0C020000 		.4byte	.LVL36
 18109 6171 426B0000 		.4byte	0x6b42
 18110 6175 80610000 		.4byte	0x6180
 18111 6179 3C       		.uleb128 0x3c
 18112 617a 01       		.uleb128 0x1
 18113 617b 50       		.byte	0x50
 18114 617c 02       		.uleb128 0x2
 18115 617d 75       		.byte	0x75
 18116 617e 00       		.sleb128 0
 18117 617f 00       		.byte	0
 18118 6180 39       		.uleb128 0x39
 18119 6181 16020000 		.4byte	.LVL37
 18120 6185 666A0000 		.4byte	0x6a66
 18121 6189 39       		.uleb128 0x39
 18122 618a 1C020000 		.4byte	.LVL39
 18123 618e 5B6A0000 		.4byte	0x6a5b
 18124 6192 3B       		.uleb128 0x3b
 18125 6193 4C020000 		.4byte	.LVL41
 18126 6197 426B0000 		.4byte	0x6b42
 18127 619b A6610000 		.4byte	0x61a6
 18128 619f 3C       		.uleb128 0x3c
 18129 61a0 01       		.uleb128 0x1
 18130 61a1 50       		.byte	0x50
 18131 61a2 02       		.uleb128 0x2
 18132 61a3 74       		.byte	0x74
 18133 61a4 00       		.sleb128 0
 18134 61a5 00       		.byte	0
 18135 61a6 3B       		.uleb128 0x3b
 18136 61a7 78020000 		.4byte	.LVL42
 18137 61ab 426B0000 		.4byte	0x6b42
 18138 61af BA610000 		.4byte	0x61ba
 18139 61b3 3C       		.uleb128 0x3c
 18140 61b4 01       		.uleb128 0x1
 18141 61b5 50       		.byte	0x50
 18142 61b6 02       		.uleb128 0x2
 18143 61b7 74       		.byte	0x74
 18144 61b8 00       		.sleb128 0
 18145 61b9 00       		.byte	0
ARM GAS  C:\Users\mathi\AppData\Local\Temp\ccXNOisu.s 			page 325


 18146 61ba 3B       		.uleb128 0x3b
 18147 61bb A4020000 		.4byte	.LVL45
 18148 61bf 2F6A0000 		.4byte	0x6a2f
 18149 61c3 CE610000 		.4byte	0x61ce
 18150 61c7 3C       		.uleb128 0x3c
 18151 61c8 01       		.uleb128 0x1
 18152 61c9 50       		.byte	0x50
 18153 61ca 02       		.uleb128 0x2
 18154 61cb 74       		.byte	0x74
 18155 61cc 00       		.sleb128 0
 18156 61cd 00       		.byte	0
 18157 61ce 39       		.uleb128 0x39
 18158 61cf AC020000 		.4byte	.LVL46
 18159 61d3 3A6A0000 		.4byte	0x6a3a
 18160 61d7 3B       		.uleb128 0x3b
 18161 61d8 76030000 		.4byte	.LVL49
 18162 61dc 926A0000 		.4byte	0x6a92
 18163 61e0 F3610000 		.4byte	0x61f3
 18164 61e4 3C       		.uleb128 0x3c
 18165 61e5 01       		.uleb128 0x1
 18166 61e6 50       		.byte	0x50
 18167 61e7 03       		.uleb128 0x3
 18168 61e8 0A       		.byte	0xa
 18169 61e9 142B     		.2byte	0x2b14
 18170 61eb 3C       		.uleb128 0x3c
 18171 61ec 01       		.uleb128 0x1
 18172 61ed 51       		.byte	0x51
 18173 61ee 03       		.uleb128 0x3
 18174 61ef 0A       		.byte	0xa
 18175 61f0 501F     		.2byte	0x1f50
 18176 61f2 00       		.byte	0
 18177 61f3 3B       		.uleb128 0x3b
 18178 61f4 90030000 		.4byte	.LVL52
 18179 61f8 2F6A0000 		.4byte	0x6a2f
 18180 61fc 07620000 		.4byte	0x6207
 18181 6200 3C       		.uleb128 0x3c
 18182 6201 01       		.uleb128 0x1
 18183 6202 50       		.byte	0x50
 18184 6203 02       		.uleb128 0x2
 18185 6204 74       		.byte	0x74
 18186 6205 00       		.sleb128 0
 18187 6206 00       		.byte	0
 18188 6207 39       		.uleb128 0x39
 18189 6208 98030000 		.4byte	.LVL53
 18190 620c 3A6A0000 		.4byte	0x6a3a
 18191 6210 3B       		.uleb128 0x3b
 18192 6211 18040000 		.4byte	.LVL56
 18193 6215 926A0000 		.4byte	0x6a92
 18194 6219 2C620000 		.4byte	0x622c
 18195 621d 3C       		.uleb128 0x3c
 18196 621e 01       		.uleb128 0x1
 18197 621f 50       		.byte	0x50
 18198 6220 03       		.uleb128 0x3
 18199 6221 0A       		.byte	0xa
 18200 6222 142B     		.2byte	0x2b14
 18201 6224 3C       		.uleb128 0x3c
 18202 6225 01       		.uleb128 0x1
ARM GAS  C:\Users\mathi\AppData\Local\Temp\ccXNOisu.s 			page 326


 18203 6226 51       		.byte	0x51
 18204 6227 03       		.uleb128 0x3
 18205 6228 0A       		.byte	0xa
 18206 6229 501F     		.2byte	0x1f50
 18207 622b 00       		.byte	0
 18208 622c 3B       		.uleb128 0x3b
 18209 622d 3A050000 		.4byte	.LVL58
 18210 6231 426B0000 		.4byte	0x6b42
 18211 6235 40620000 		.4byte	0x6240
 18212 6239 3C       		.uleb128 0x3c
 18213 623a 01       		.uleb128 0x1
 18214 623b 50       		.byte	0x50
 18215 623c 02       		.uleb128 0x2
 18216 623d 74       		.byte	0x74
 18217 623e 00       		.sleb128 0
 18218 623f 00       		.byte	0
 18219 6240 3B       		.uleb128 0x3b
 18220 6241 46050000 		.4byte	.LVL59
 18221 6245 426B0000 		.4byte	0x6b42
 18222 6249 54620000 		.4byte	0x6254
 18223 624d 3C       		.uleb128 0x3c
 18224 624e 01       		.uleb128 0x1
 18225 624f 50       		.byte	0x50
 18226 6250 02       		.uleb128 0x2
 18227 6251 74       		.byte	0x74
 18228 6252 00       		.sleb128 0
 18229 6253 00       		.byte	0
 18230 6254 39       		.uleb128 0x39
 18231 6255 62050000 		.4byte	.LVL60
 18232 6259 876A0000 		.4byte	0x6a87
 18233 625d 3B       		.uleb128 0x3b
 18234 625e 6E050000 		.4byte	.LVL61
 18235 6262 376B0000 		.4byte	0x6b37
 18236 6266 71620000 		.4byte	0x6271
 18237 626a 3C       		.uleb128 0x3c
 18238 626b 01       		.uleb128 0x1
 18239 626c 50       		.byte	0x50
 18240 626d 02       		.uleb128 0x2
 18241 626e 76       		.byte	0x76
 18242 626f 00       		.sleb128 0
 18243 6270 00       		.byte	0
 18244 6271 3B       		.uleb128 0x3b
 18245 6272 A4050000 		.4byte	.LVL62
 18246 6276 32690000 		.4byte	0x6932
 18247 627a 85620000 		.4byte	0x6285
 18248 627e 3C       		.uleb128 0x3c
 18249 627f 01       		.uleb128 0x1
 18250 6280 50       		.byte	0x50
 18251 6281 02       		.uleb128 0x2
 18252 6282 7A       		.byte	0x7a
 18253 6283 00       		.sleb128 0
 18254 6284 00       		.byte	0
 18255 6285 39       		.uleb128 0x39
 18256 6286 A8050000 		.4byte	.LVL63
 18257 628a 3D690000 		.4byte	0x693d
 18258 628e 3B       		.uleb128 0x3b
 18259 628f B4050000 		.4byte	.LVL64
ARM GAS  C:\Users\mathi\AppData\Local\Temp\ccXNOisu.s 			page 327


 18260 6293 426B0000 		.4byte	0x6b42
 18261 6297 A2620000 		.4byte	0x62a2
 18262 629b 3C       		.uleb128 0x3c
 18263 629c 01       		.uleb128 0x1
 18264 629d 50       		.byte	0x50
 18265 629e 02       		.uleb128 0x2
 18266 629f 76       		.byte	0x76
 18267 62a0 00       		.sleb128 0
 18268 62a1 00       		.byte	0
 18269 62a2 3B       		.uleb128 0x3b
 18270 62a3 BE050000 		.4byte	.LVL65
 18271 62a7 426B0000 		.4byte	0x6b42
 18272 62ab B6620000 		.4byte	0x62b6
 18273 62af 3C       		.uleb128 0x3c
 18274 62b0 01       		.uleb128 0x1
 18275 62b1 50       		.byte	0x50
 18276 62b2 02       		.uleb128 0x2
 18277 62b3 76       		.byte	0x76
 18278 62b4 00       		.sleb128 0
 18279 62b5 00       		.byte	0
 18280 62b6 39       		.uleb128 0x39
 18281 62b7 C8050000 		.4byte	.LVL66
 18282 62bb 74690000 		.4byte	0x6974
 18283 62bf 39       		.uleb128 0x39
 18284 62c0 E2050000 		.4byte	.LVL67
 18285 62c4 7F690000 		.4byte	0x697f
 18286 62c8 3B       		.uleb128 0x3b
 18287 62c9 0E060000 		.4byte	.LVL68
 18288 62cd 376B0000 		.4byte	0x6b37
 18289 62d1 DC620000 		.4byte	0x62dc
 18290 62d5 3C       		.uleb128 0x3c
 18291 62d6 01       		.uleb128 0x1
 18292 62d7 50       		.byte	0x50
 18293 62d8 02       		.uleb128 0x2
 18294 62d9 74       		.byte	0x74
 18295 62da 00       		.sleb128 0
 18296 62db 00       		.byte	0
 18297 62dc 3B       		.uleb128 0x3b
 18298 62dd 1A060000 		.4byte	.LVL69
 18299 62e1 376B0000 		.4byte	0x6b37
 18300 62e5 F0620000 		.4byte	0x62f0
 18301 62e9 3C       		.uleb128 0x3c
 18302 62ea 01       		.uleb128 0x1
 18303 62eb 50       		.byte	0x50
 18304 62ec 02       		.uleb128 0x2
 18305 62ed 74       		.byte	0x74
 18306 62ee 00       		.sleb128 0
 18307 62ef 00       		.byte	0
 18308 62f0 3B       		.uleb128 0x3b
 18309 62f1 36060000 		.4byte	.LVL70
 18310 62f5 376B0000 		.4byte	0x6b37
 18311 62f9 04630000 		.4byte	0x6304
 18312 62fd 3C       		.uleb128 0x3c
 18313 62fe 01       		.uleb128 0x1
 18314 62ff 50       		.byte	0x50
 18315 6300 02       		.uleb128 0x2
 18316 6301 74       		.byte	0x74
ARM GAS  C:\Users\mathi\AppData\Local\Temp\ccXNOisu.s 			page 328


 18317 6302 00       		.sleb128 0
 18318 6303 00       		.byte	0
 18319 6304 3B       		.uleb128 0x3b
 18320 6305 42060000 		.4byte	.LVL71
 18321 6309 376B0000 		.4byte	0x6b37
 18322 630d 18630000 		.4byte	0x6318
 18323 6311 3C       		.uleb128 0x3c
 18324 6312 01       		.uleb128 0x1
 18325 6313 50       		.byte	0x50
 18326 6314 02       		.uleb128 0x2
 18327 6315 74       		.byte	0x74
 18328 6316 00       		.sleb128 0
 18329 6317 00       		.byte	0
 18330 6318 39       		.uleb128 0x39
 18331 6319 60060000 		.4byte	.LVL72
 18332 631d F8690000 		.4byte	0x69f8
 18333 6321 39       		.uleb128 0x39
 18334 6322 66060000 		.4byte	.LVL73
 18335 6326 036A0000 		.4byte	0x6a03
 18336 632a 3B       		.uleb128 0x3b
 18337 632b 6E060000 		.4byte	.LVL74
 18338 632f 426B0000 		.4byte	0x6b42
 18339 6333 3E630000 		.4byte	0x633e
 18340 6337 3C       		.uleb128 0x3c
 18341 6338 01       		.uleb128 0x1
 18342 6339 50       		.byte	0x50
 18343 633a 02       		.uleb128 0x2
 18344 633b 74       		.byte	0x74
 18345 633c 00       		.sleb128 0
 18346 633d 00       		.byte	0
 18347 633e 3B       		.uleb128 0x3b
 18348 633f 7A060000 		.4byte	.LVL75
 18349 6343 426B0000 		.4byte	0x6b42
 18350 6347 52630000 		.4byte	0x6352
 18351 634b 3C       		.uleb128 0x3c
 18352 634c 01       		.uleb128 0x1
 18353 634d 50       		.byte	0x50
 18354 634e 02       		.uleb128 0x2
 18355 634f 74       		.byte	0x74
 18356 6350 00       		.sleb128 0
 18357 6351 00       		.byte	0
 18358 6352 3B       		.uleb128 0x3b
 18359 6353 96060000 		.4byte	.LVL76
 18360 6357 426B0000 		.4byte	0x6b42
 18361 635b 66630000 		.4byte	0x6366
 18362 635f 3C       		.uleb128 0x3c
 18363 6360 01       		.uleb128 0x1
 18364 6361 50       		.byte	0x50
 18365 6362 02       		.uleb128 0x2
 18366 6363 74       		.byte	0x74
 18367 6364 00       		.sleb128 0
 18368 6365 00       		.byte	0
 18369 6366 3B       		.uleb128 0x3b
 18370 6367 A2060000 		.4byte	.LVL77
 18371 636b 426B0000 		.4byte	0x6b42
 18372 636f 7A630000 		.4byte	0x637a
 18373 6373 3C       		.uleb128 0x3c
ARM GAS  C:\Users\mathi\AppData\Local\Temp\ccXNOisu.s 			page 329


 18374 6374 01       		.uleb128 0x1
 18375 6375 50       		.byte	0x50
 18376 6376 02       		.uleb128 0x2
 18377 6377 74       		.byte	0x74
 18378 6378 00       		.sleb128 0
 18379 6379 00       		.byte	0
 18380 637a 39       		.uleb128 0x39
 18381 637b B2060000 		.4byte	.LVL78
 18382 637f E2690000 		.4byte	0x69e2
 18383 6383 39       		.uleb128 0x39
 18384 6384 F2060000 		.4byte	.LVL79
 18385 6388 376B0000 		.4byte	0x6b37
 18386 638c 3B       		.uleb128 0x3b
 18387 638d 18070000 		.4byte	.LVL80
 18388 6391 4D6B0000 		.4byte	0x6b4d
 18389 6395 9F630000 		.4byte	0x639f
 18390 6399 3C       		.uleb128 0x3c
 18391 639a 01       		.uleb128 0x1
 18392 639b 50       		.byte	0x50
 18393 639c 01       		.uleb128 0x1
 18394 639d 30       		.byte	0x30
 18395 639e 00       		.byte	0
 18396 639f 3B       		.uleb128 0x3b
 18397 63a0 24070000 		.4byte	.LVL81
 18398 63a4 4D6B0000 		.4byte	0x6b4d
 18399 63a8 B2630000 		.4byte	0x63b2
 18400 63ac 3C       		.uleb128 0x3c
 18401 63ad 01       		.uleb128 0x1
 18402 63ae 50       		.byte	0x50
 18403 63af 01       		.uleb128 0x1
 18404 63b0 31       		.byte	0x31
 18405 63b1 00       		.byte	0
 18406 63b2 3B       		.uleb128 0x3b
 18407 63b3 30070000 		.4byte	.LVL82
 18408 63b7 4D6B0000 		.4byte	0x6b4d
 18409 63bb C5630000 		.4byte	0x63c5
 18410 63bf 3C       		.uleb128 0x3c
 18411 63c0 01       		.uleb128 0x1
 18412 63c1 50       		.byte	0x50
 18413 63c2 01       		.uleb128 0x1
 18414 63c3 32       		.byte	0x32
 18415 63c4 00       		.byte	0
 18416 63c5 3B       		.uleb128 0x3b
 18417 63c6 3C070000 		.4byte	.LVL83
 18418 63ca 4D6B0000 		.4byte	0x6b4d
 18419 63ce D8630000 		.4byte	0x63d8
 18420 63d2 3C       		.uleb128 0x3c
 18421 63d3 01       		.uleb128 0x1
 18422 63d4 50       		.byte	0x50
 18423 63d5 01       		.uleb128 0x1
 18424 63d6 33       		.byte	0x33
 18425 63d7 00       		.byte	0
 18426 63d8 39       		.uleb128 0x39
 18427 63d9 4A070000 		.4byte	.LVL84
 18428 63dd 426B0000 		.4byte	0x6b42
 18429 63e1 3B       		.uleb128 0x3b
 18430 63e2 56070000 		.4byte	.LVL85
ARM GAS  C:\Users\mathi\AppData\Local\Temp\ccXNOisu.s 			page 330


 18431 63e6 246A0000 		.4byte	0x6a24
 18432 63ea F4630000 		.4byte	0x63f4
 18433 63ee 3C       		.uleb128 0x3c
 18434 63ef 01       		.uleb128 0x1
 18435 63f0 50       		.byte	0x50
 18436 63f1 01       		.uleb128 0x1
 18437 63f2 30       		.byte	0x30
 18438 63f3 00       		.byte	0
 18439 63f4 3B       		.uleb128 0x3b
 18440 63f5 72070000 		.4byte	.LVL86
 18441 63f9 246A0000 		.4byte	0x6a24
 18442 63fd 07640000 		.4byte	0x6407
 18443 6401 3C       		.uleb128 0x3c
 18444 6402 01       		.uleb128 0x1
 18445 6403 50       		.byte	0x50
 18446 6404 01       		.uleb128 0x1
 18447 6405 31       		.byte	0x31
 18448 6406 00       		.byte	0
 18449 6407 3B       		.uleb128 0x3b
 18450 6408 8E070000 		.4byte	.LVL87
 18451 640c 246A0000 		.4byte	0x6a24
 18452 6410 1A640000 		.4byte	0x641a
 18453 6414 3C       		.uleb128 0x3c
 18454 6415 01       		.uleb128 0x1
 18455 6416 50       		.byte	0x50
 18456 6417 01       		.uleb128 0x1
 18457 6418 32       		.byte	0x32
 18458 6419 00       		.byte	0
 18459 641a 39       		.uleb128 0x39
 18460 641b 14080000 		.4byte	.LVL88
 18461 641f A86A0000 		.4byte	0x6aa8
 18462 6423 3B       		.uleb128 0x3b
 18463 6424 64080000 		.4byte	.LVL90
 18464 6428 376B0000 		.4byte	0x6b37
 18465 642c 3A640000 		.4byte	0x643a
 18466 6430 3C       		.uleb128 0x3c
 18467 6431 01       		.uleb128 0x1
 18468 6432 50       		.byte	0x50
 18469 6433 05       		.uleb128 0x5
 18470 6434 03       		.byte	0x3
 18471 6435 00000000 		.4byte	.LANCHOR24
 18472 6439 00       		.byte	0
 18473 643a 3B       		.uleb128 0x3b
 18474 643b 70080000 		.4byte	.LVL91
 18475 643f 376B0000 		.4byte	0x6b37
 18476 6443 4E640000 		.4byte	0x644e
 18477 6447 3C       		.uleb128 0x3c
 18478 6448 01       		.uleb128 0x1
 18479 6449 50       		.byte	0x50
 18480 644a 02       		.uleb128 0x2
 18481 644b 74       		.byte	0x74
 18482 644c 00       		.sleb128 0
 18483 644d 00       		.byte	0
 18484 644e 3B       		.uleb128 0x3b
 18485 644f 7C080000 		.4byte	.LVL92
 18486 6453 376B0000 		.4byte	0x6b37
 18487 6457 62640000 		.4byte	0x6462
ARM GAS  C:\Users\mathi\AppData\Local\Temp\ccXNOisu.s 			page 331


 18488 645b 3C       		.uleb128 0x3c
 18489 645c 01       		.uleb128 0x1
 18490 645d 50       		.byte	0x50
 18491 645e 02       		.uleb128 0x2
 18492 645f 74       		.byte	0x74
 18493 6460 00       		.sleb128 0
 18494 6461 00       		.byte	0
 18495 6462 39       		.uleb128 0x39
 18496 6463 84080000 		.4byte	.LVL93
 18497 6467 53690000 		.4byte	0x6953
 18498 646b 39       		.uleb128 0x39
 18499 646c 94080000 		.4byte	.LVL94
 18500 6470 196A0000 		.4byte	0x6a19
 18501 6474 39       		.uleb128 0x39
 18502 6475 98080000 		.4byte	.LVL95
 18503 6479 69690000 		.4byte	0x6969
 18504 647d 3B       		.uleb128 0x3b
 18505 647e A0080000 		.4byte	.LVL96
 18506 6482 426B0000 		.4byte	0x6b42
 18507 6486 94640000 		.4byte	0x6494
 18508 648a 3C       		.uleb128 0x3c
 18509 648b 01       		.uleb128 0x1
 18510 648c 50       		.byte	0x50
 18511 648d 05       		.uleb128 0x5
 18512 648e 03       		.byte	0x3
 18513 648f 00000000 		.4byte	.LANCHOR24
 18514 6493 00       		.byte	0
 18515 6494 3B       		.uleb128 0x3b
 18516 6495 AC080000 		.4byte	.LVL97
 18517 6499 426B0000 		.4byte	0x6b42
 18518 649d A8640000 		.4byte	0x64a8
 18519 64a1 3C       		.uleb128 0x3c
 18520 64a2 01       		.uleb128 0x1
 18521 64a3 50       		.byte	0x50
 18522 64a4 02       		.uleb128 0x2
 18523 64a5 74       		.byte	0x74
 18524 64a6 00       		.sleb128 0
 18525 64a7 00       		.byte	0
 18526 64a8 3B       		.uleb128 0x3b
 18527 64a9 B8080000 		.4byte	.LVL98
 18528 64ad 426B0000 		.4byte	0x6b42
 18529 64b1 BC640000 		.4byte	0x64bc
 18530 64b5 3C       		.uleb128 0x3c
 18531 64b6 01       		.uleb128 0x1
 18532 64b7 50       		.byte	0x50
 18533 64b8 02       		.uleb128 0x2
 18534 64b9 74       		.byte	0x74
 18535 64ba 00       		.sleb128 0
 18536 64bb 00       		.byte	0
 18537 64bc 39       		.uleb128 0x39
 18538 64bd D2080000 		.4byte	.LVL99
 18539 64c1 586B0000 		.4byte	0x6b58
 18540 64c5 39       		.uleb128 0x39
 18541 64c6 0E090000 		.4byte	.LVL103
 18542 64ca 0B6B0000 		.4byte	0x6b0b
 18543 64ce 39       		.uleb128 0x39
 18544 64cf 12090000 		.4byte	.LVL104
ARM GAS  C:\Users\mathi\AppData\Local\Temp\ccXNOisu.s 			page 332


 18545 64d3 53690000 		.4byte	0x6953
 18546 64d7 3B       		.uleb128 0x3b
 18547 64d8 1A090000 		.4byte	.LVL105
 18548 64dc 5E690000 		.4byte	0x695e
 18549 64e0 F1640000 		.4byte	0x64f1
 18550 64e4 3C       		.uleb128 0x3c
 18551 64e5 01       		.uleb128 0x1
 18552 64e6 50       		.byte	0x50
 18553 64e7 02       		.uleb128 0x2
 18554 64e8 09       		.byte	0x9
 18555 64e9 C0       		.byte	0xc0
 18556 64ea 3C       		.uleb128 0x3c
 18557 64eb 01       		.uleb128 0x1
 18558 64ec 51       		.byte	0x51
 18559 64ed 02       		.uleb128 0x2
 18560 64ee 77       		.byte	0x77
 18561 64ef 00       		.sleb128 0
 18562 64f0 00       		.byte	0
 18563 64f1 39       		.uleb128 0x39
 18564 64f2 46090000 		.4byte	.LVL106
 18565 64f6 5E690000 		.4byte	0x695e
 18566 64fa 39       		.uleb128 0x39
 18567 64fb 84090000 		.4byte	.LVL107
 18568 64ff 5E690000 		.4byte	0x695e
 18569 6503 39       		.uleb128 0x39
 18570 6504 9C090000 		.4byte	.LVL108
 18571 6508 636B0000 		.4byte	0x6b63
 18572 650c 39       		.uleb128 0x39
 18573 650d BE090000 		.4byte	.LVL109
 18574 6511 0E6A0000 		.4byte	0x6a0e
 18575 6515 3B       		.uleb128 0x3b
 18576 6516 F8090000 		.4byte	.LVL110
 18577 651a 376B0000 		.4byte	0x6b37
 18578 651e 29650000 		.4byte	0x6529
 18579 6522 3C       		.uleb128 0x3c
 18580 6523 01       		.uleb128 0x1
 18581 6524 50       		.byte	0x50
 18582 6525 02       		.uleb128 0x2
 18583 6526 74       		.byte	0x74
 18584 6527 00       		.sleb128 0
 18585 6528 00       		.byte	0
 18586 6529 3B       		.uleb128 0x3b
 18587 652a 040A0000 		.4byte	.LVL111
 18588 652e 376B0000 		.4byte	0x6b37
 18589 6532 3D650000 		.4byte	0x653d
 18590 6536 3C       		.uleb128 0x3c
 18591 6537 01       		.uleb128 0x1
 18592 6538 50       		.byte	0x50
 18593 6539 02       		.uleb128 0x2
 18594 653a 74       		.byte	0x74
 18595 653b 00       		.sleb128 0
 18596 653c 00       		.byte	0
 18597 653d 3B       		.uleb128 0x3b
 18598 653e 200A0000 		.4byte	.LVL112
 18599 6542 376B0000 		.4byte	0x6b37
 18600 6546 51650000 		.4byte	0x6551
 18601 654a 3C       		.uleb128 0x3c
ARM GAS  C:\Users\mathi\AppData\Local\Temp\ccXNOisu.s 			page 333


 18602 654b 01       		.uleb128 0x1
 18603 654c 50       		.byte	0x50
 18604 654d 02       		.uleb128 0x2
 18605 654e 74       		.byte	0x74
 18606 654f 00       		.sleb128 0
 18607 6550 00       		.byte	0
 18608 6551 3B       		.uleb128 0x3b
 18609 6552 2C0A0000 		.4byte	.LVL113
 18610 6556 376B0000 		.4byte	0x6b37
 18611 655a 65650000 		.4byte	0x6565
 18612 655e 3C       		.uleb128 0x3c
 18613 655f 01       		.uleb128 0x1
 18614 6560 50       		.byte	0x50
 18615 6561 02       		.uleb128 0x2
 18616 6562 74       		.byte	0x74
 18617 6563 00       		.sleb128 0
 18618 6564 00       		.byte	0
 18619 6565 39       		.uleb128 0x39
 18620 6566 4A0A0000 		.4byte	.LVL114
 18621 656a 2F6A0000 		.4byte	0x6a2f
 18622 656e 39       		.uleb128 0x39
 18623 656f 500A0000 		.4byte	.LVL115
 18624 6573 3A6A0000 		.4byte	0x6a3a
 18625 6577 3B       		.uleb128 0x3b
 18626 6578 580A0000 		.4byte	.LVL116
 18627 657c 426B0000 		.4byte	0x6b42
 18628 6580 8B650000 		.4byte	0x658b
 18629 6584 3C       		.uleb128 0x3c
 18630 6585 01       		.uleb128 0x1
 18631 6586 50       		.byte	0x50
 18632 6587 02       		.uleb128 0x2
 18633 6588 74       		.byte	0x74
 18634 6589 00       		.sleb128 0
 18635 658a 00       		.byte	0
 18636 658b 3B       		.uleb128 0x3b
 18637 658c 640A0000 		.4byte	.LVL117
 18638 6590 426B0000 		.4byte	0x6b42
 18639 6594 9F650000 		.4byte	0x659f
 18640 6598 3C       		.uleb128 0x3c
 18641 6599 01       		.uleb128 0x1
 18642 659a 50       		.byte	0x50
 18643 659b 02       		.uleb128 0x2
 18644 659c 74       		.byte	0x74
 18645 659d 00       		.sleb128 0
 18646 659e 00       		.byte	0
 18647 659f 3B       		.uleb128 0x3b
 18648 65a0 800A0000 		.4byte	.LVL118
 18649 65a4 426B0000 		.4byte	0x6b42
 18650 65a8 B3650000 		.4byte	0x65b3
 18651 65ac 3C       		.uleb128 0x3c
 18652 65ad 01       		.uleb128 0x1
 18653 65ae 50       		.byte	0x50
 18654 65af 02       		.uleb128 0x2
 18655 65b0 74       		.byte	0x74
 18656 65b1 00       		.sleb128 0
 18657 65b2 00       		.byte	0
 18658 65b3 3B       		.uleb128 0x3b
ARM GAS  C:\Users\mathi\AppData\Local\Temp\ccXNOisu.s 			page 334


 18659 65b4 8C0A0000 		.4byte	.LVL119
 18660 65b8 426B0000 		.4byte	0x6b42
 18661 65bc C7650000 		.4byte	0x65c7
 18662 65c0 3C       		.uleb128 0x3c
 18663 65c1 01       		.uleb128 0x1
 18664 65c2 50       		.byte	0x50
 18665 65c3 02       		.uleb128 0x2
 18666 65c4 74       		.byte	0x74
 18667 65c5 00       		.sleb128 0
 18668 65c6 00       		.byte	0
 18669 65c7 3B       		.uleb128 0x3b
 18670 65c8 820B0000 		.4byte	.LVL123
 18671 65cc 376B0000 		.4byte	0x6b37
 18672 65d0 DB650000 		.4byte	0x65db
 18673 65d4 3C       		.uleb128 0x3c
 18674 65d5 01       		.uleb128 0x1
 18675 65d6 50       		.byte	0x50
 18676 65d7 02       		.uleb128 0x2
 18677 65d8 74       		.byte	0x74
 18678 65d9 00       		.sleb128 0
 18679 65da 00       		.byte	0
 18680 65db 3B       		.uleb128 0x3b
 18681 65dc 8E0B0000 		.4byte	.LVL124
 18682 65e0 376B0000 		.4byte	0x6b37
 18683 65e4 EF650000 		.4byte	0x65ef
 18684 65e8 3C       		.uleb128 0x3c
 18685 65e9 01       		.uleb128 0x1
 18686 65ea 50       		.byte	0x50
 18687 65eb 02       		.uleb128 0x2
 18688 65ec 74       		.byte	0x74
 18689 65ed 00       		.sleb128 0
 18690 65ee 00       		.byte	0
 18691 65ef 3B       		.uleb128 0x3b
 18692 65f0 9A0B0000 		.4byte	.LVL125
 18693 65f4 246A0000 		.4byte	0x6a24
 18694 65f8 02660000 		.4byte	0x6602
 18695 65fc 3C       		.uleb128 0x3c
 18696 65fd 01       		.uleb128 0x1
 18697 65fe 50       		.byte	0x50
 18698 65ff 01       		.uleb128 0x1
 18699 6600 30       		.byte	0x30
 18700 6601 00       		.byte	0
 18701 6602 3B       		.uleb128 0x3b
 18702 6603 B60B0000 		.4byte	.LVL126
 18703 6607 246A0000 		.4byte	0x6a24
 18704 660b 15660000 		.4byte	0x6615
 18705 660f 3C       		.uleb128 0x3c
 18706 6610 01       		.uleb128 0x1
 18707 6611 50       		.byte	0x50
 18708 6612 01       		.uleb128 0x1
 18709 6613 31       		.byte	0x31
 18710 6614 00       		.byte	0
 18711 6615 3B       		.uleb128 0x3b
 18712 6616 D20B0000 		.4byte	.LVL127
 18713 661a 246A0000 		.4byte	0x6a24
 18714 661e 28660000 		.4byte	0x6628
 18715 6622 3C       		.uleb128 0x3c
ARM GAS  C:\Users\mathi\AppData\Local\Temp\ccXNOisu.s 			page 335


 18716 6623 01       		.uleb128 0x1
 18717 6624 50       		.byte	0x50
 18718 6625 01       		.uleb128 0x1
 18719 6626 32       		.byte	0x32
 18720 6627 00       		.byte	0
 18721 6628 3B       		.uleb128 0x3b
 18722 6629 EE0B0000 		.4byte	.LVL128
 18723 662d 246A0000 		.4byte	0x6a24
 18724 6631 3B660000 		.4byte	0x663b
 18725 6635 3C       		.uleb128 0x3c
 18726 6636 01       		.uleb128 0x1
 18727 6637 50       		.byte	0x50
 18728 6638 01       		.uleb128 0x1
 18729 6639 33       		.byte	0x33
 18730 663a 00       		.byte	0
 18731 663b 39       		.uleb128 0x39
 18732 663c 1C0C0000 		.4byte	.LVL129
 18733 6640 6E6B0000 		.4byte	0x6b6e
 18734 6644 39       		.uleb128 0x39
 18735 6645 2C0C0000 		.4byte	.LVL130
 18736 6649 53690000 		.4byte	0x6953
 18737 664d 39       		.uleb128 0x39
 18738 664e 3E0C0000 		.4byte	.LVL131
 18739 6652 376B0000 		.4byte	0x6b37
 18740 6656 39       		.uleb128 0x39
 18741 6657 640C0000 		.4byte	.LVL132
 18742 665b 376B0000 		.4byte	0x6b37
 18743 665f 39       		.uleb128 0x39
 18744 6660 8A0C0000 		.4byte	.LVL133
 18745 6664 376B0000 		.4byte	0x6b37
 18746 6668 3B       		.uleb128 0x3b
 18747 6669 AE0C0000 		.4byte	.LVL134
 18748 666d 196A0000 		.4byte	0x6a19
 18749 6671 7C660000 		.4byte	0x667c
 18750 6675 3C       		.uleb128 0x3c
 18751 6676 01       		.uleb128 0x1
 18752 6677 50       		.byte	0x50
 18753 6678 02       		.uleb128 0x2
 18754 6679 09       		.byte	0x9
 18755 667a B0       		.byte	0xb0
 18756 667b 00       		.byte	0
 18757 667c 3B       		.uleb128 0x3b
 18758 667d D20C0000 		.4byte	.LVL135
 18759 6681 196A0000 		.4byte	0x6a19
 18760 6685 90660000 		.4byte	0x6690
 18761 6689 3C       		.uleb128 0x3c
 18762 668a 01       		.uleb128 0x1
 18763 668b 50       		.byte	0x50
 18764 668c 02       		.uleb128 0x2
 18765 668d 09       		.byte	0x9
 18766 668e B0       		.byte	0xb0
 18767 668f 00       		.byte	0
 18768 6690 3B       		.uleb128 0x3b
 18769 6691 F60C0000 		.4byte	.LVL136
 18770 6695 196A0000 		.4byte	0x6a19
 18771 6699 A4660000 		.4byte	0x66a4
 18772 669d 3C       		.uleb128 0x3c
ARM GAS  C:\Users\mathi\AppData\Local\Temp\ccXNOisu.s 			page 336


 18773 669e 01       		.uleb128 0x1
 18774 669f 50       		.byte	0x50
 18775 66a0 02       		.uleb128 0x2
 18776 66a1 09       		.byte	0x9
 18777 66a2 B0       		.byte	0xb0
 18778 66a3 00       		.byte	0
 18779 66a4 3B       		.uleb128 0x3b
 18780 66a5 0E0D0000 		.4byte	.LVL137
 18781 66a9 196A0000 		.4byte	0x6a19
 18782 66ad C3660000 		.4byte	0x66c3
 18783 66b1 3C       		.uleb128 0x3c
 18784 66b2 01       		.uleb128 0x1
 18785 66b3 50       		.byte	0x50
 18786 66b4 02       		.uleb128 0x2
 18787 66b5 09       		.byte	0x9
 18788 66b6 B0       		.byte	0xb0
 18789 66b7 3C       		.uleb128 0x3c
 18790 66b8 01       		.uleb128 0x1
 18791 66b9 51       		.byte	0x51
 18792 66ba 02       		.uleb128 0x2
 18793 66bb 09       		.byte	0x9
 18794 66bc 91       		.byte	0x91
 18795 66bd 3C       		.uleb128 0x3c
 18796 66be 01       		.uleb128 0x1
 18797 66bf 52       		.byte	0x52
 18798 66c0 01       		.uleb128 0x1
 18799 66c1 31       		.byte	0x31
 18800 66c2 00       		.byte	0
 18801 66c3 39       		.uleb128 0x39
 18802 66c4 120D0000 		.4byte	.LVL138
 18803 66c8 69690000 		.4byte	0x6969
 18804 66cc 3B       		.uleb128 0x3b
 18805 66cd EA0E0000 		.4byte	.LVL157
 18806 66d1 27690000 		.4byte	0x6927
 18807 66d5 E0660000 		.4byte	0x66e0
 18808 66d9 3C       		.uleb128 0x3c
 18809 66da 01       		.uleb128 0x1
 18810 66db 50       		.byte	0x50
 18811 66dc 02       		.uleb128 0x2
 18812 66dd 7A       		.byte	0x7a
 18813 66de 00       		.sleb128 0
 18814 66df 00       		.byte	0
 18815 66e0 3B       		.uleb128 0x3b
 18816 66e1 08120000 		.4byte	.LVL202
 18817 66e5 27690000 		.4byte	0x6927
 18818 66e9 F4660000 		.4byte	0x66f4
 18819 66ed 3C       		.uleb128 0x3c
 18820 66ee 01       		.uleb128 0x1
 18821 66ef 50       		.byte	0x50
 18822 66f0 02       		.uleb128 0x2
 18823 66f1 7A       		.byte	0x7a
 18824 66f2 00       		.sleb128 0
 18825 66f3 00       		.byte	0
 18826 66f4 3B       		.uleb128 0x3b
 18827 66f5 8C120000 		.4byte	.LVL214
 18828 66f9 27690000 		.4byte	0x6927
 18829 66fd 08670000 		.4byte	0x6708
ARM GAS  C:\Users\mathi\AppData\Local\Temp\ccXNOisu.s 			page 337


 18830 6701 3C       		.uleb128 0x3c
 18831 6702 01       		.uleb128 0x1
 18832 6703 50       		.byte	0x50
 18833 6704 02       		.uleb128 0x2
 18834 6705 7A       		.byte	0x7a
 18835 6706 00       		.sleb128 0
 18836 6707 00       		.byte	0
 18837 6708 3B       		.uleb128 0x3b
 18838 6709 BC130000 		.4byte	.LVL237
 18839 670d 27690000 		.4byte	0x6927
 18840 6711 1C670000 		.4byte	0x671c
 18841 6715 3C       		.uleb128 0x3c
 18842 6716 01       		.uleb128 0x1
 18843 6717 50       		.byte	0x50
 18844 6718 02       		.uleb128 0x2
 18845 6719 7A       		.byte	0x7a
 18846 671a 00       		.sleb128 0
 18847 671b 00       		.byte	0
 18848 671c 3B       		.uleb128 0x3b
 18849 671d AC140000 		.4byte	.LVL250
 18850 6721 27690000 		.4byte	0x6927
 18851 6725 30670000 		.4byte	0x6730
 18852 6729 3C       		.uleb128 0x3c
 18853 672a 01       		.uleb128 0x1
 18854 672b 50       		.byte	0x50
 18855 672c 02       		.uleb128 0x2
 18856 672d 7A       		.byte	0x7a
 18857 672e 00       		.sleb128 0
 18858 672f 00       		.byte	0
 18859 6730 3B       		.uleb128 0x3b
 18860 6731 B6150000 		.4byte	.LVL270
 18861 6735 27690000 		.4byte	0x6927
 18862 6739 44670000 		.4byte	0x6744
 18863 673d 3C       		.uleb128 0x3c
 18864 673e 01       		.uleb128 0x1
 18865 673f 50       		.byte	0x50
 18866 6740 02       		.uleb128 0x2
 18867 6741 7A       		.byte	0x7a
 18868 6742 00       		.sleb128 0
 18869 6743 00       		.byte	0
 18870 6744 3B       		.uleb128 0x3b
 18871 6745 3A160000 		.4byte	.LVL282
 18872 6749 27690000 		.4byte	0x6927
 18873 674d 58670000 		.4byte	0x6758
 18874 6751 3C       		.uleb128 0x3c
 18875 6752 01       		.uleb128 0x1
 18876 6753 50       		.byte	0x50
 18877 6754 02       		.uleb128 0x2
 18878 6755 7A       		.byte	0x7a
 18879 6756 00       		.sleb128 0
 18880 6757 00       		.byte	0
 18881 6758 3B       		.uleb128 0x3b
 18882 6759 98160000 		.4byte	.LVL286
 18883 675d 27690000 		.4byte	0x6927
 18884 6761 6C670000 		.4byte	0x676c
 18885 6765 3C       		.uleb128 0x3c
 18886 6766 01       		.uleb128 0x1
ARM GAS  C:\Users\mathi\AppData\Local\Temp\ccXNOisu.s 			page 338


 18887 6767 50       		.byte	0x50
 18888 6768 02       		.uleb128 0x2
 18889 6769 7A       		.byte	0x7a
 18890 676a 00       		.sleb128 0
 18891 676b 00       		.byte	0
 18892 676c 3B       		.uleb128 0x3b
 18893 676d CE1A0000 		.4byte	.LVL367
 18894 6771 BE6A0000 		.4byte	0x6abe
 18895 6775 80670000 		.4byte	0x6780
 18896 6779 3C       		.uleb128 0x3c
 18897 677a 01       		.uleb128 0x1
 18898 677b 50       		.byte	0x50
 18899 677c 02       		.uleb128 0x2
 18900 677d 7A       		.byte	0x7a
 18901 677e 00       		.sleb128 0
 18902 677f 00       		.byte	0
 18903 6780 39       		.uleb128 0x39
 18904 6781 D21A0000 		.4byte	.LVL368
 18905 6785 C96A0000 		.4byte	0x6ac9
 18906 6789 39       		.uleb128 0x39
 18907 678a E21A0000 		.4byte	.LVL369
 18908 678e 8A690000 		.4byte	0x698a
 18909 6792 39       		.uleb128 0x39
 18910 6793 EA1A0000 		.4byte	.LVL370
 18911 6797 7C6A0000 		.4byte	0x6a7c
 18912 679b 39       		.uleb128 0x39
 18913 679c F21A0000 		.4byte	.LVL371
 18914 67a0 48690000 		.4byte	0x6948
 18915 67a4 3B       		.uleb128 0x3b
 18916 67a5 161B0000 		.4byte	.LVL372
 18917 67a9 456A0000 		.4byte	0x6a45
 18918 67ad BD670000 		.4byte	0x67bd
 18919 67b1 3C       		.uleb128 0x3c
 18920 67b2 01       		.uleb128 0x1
 18921 67b3 50       		.byte	0x50
 18922 67b4 02       		.uleb128 0x2
 18923 67b5 77       		.byte	0x77
 18924 67b6 00       		.sleb128 0
 18925 67b7 3C       		.uleb128 0x3c
 18926 67b8 01       		.uleb128 0x1
 18927 67b9 51       		.byte	0x51
 18928 67ba 01       		.uleb128 0x1
 18929 67bb 31       		.byte	0x31
 18930 67bc 00       		.byte	0
 18931 67bd 3B       		.uleb128 0x3b
 18932 67be 241B0000 		.4byte	.LVL373
 18933 67c2 456A0000 		.4byte	0x6a45
 18934 67c6 D5670000 		.4byte	0x67d5
 18935 67ca 3C       		.uleb128 0x3c
 18936 67cb 01       		.uleb128 0x1
 18937 67cc 50       		.byte	0x50
 18938 67cd 01       		.uleb128 0x1
 18939 67ce 31       		.byte	0x31
 18940 67cf 3C       		.uleb128 0x3c
 18941 67d0 01       		.uleb128 0x1
 18942 67d1 51       		.byte	0x51
 18943 67d2 01       		.uleb128 0x1
ARM GAS  C:\Users\mathi\AppData\Local\Temp\ccXNOisu.s 			page 339


 18944 67d3 31       		.byte	0x31
 18945 67d4 00       		.byte	0
 18946 67d5 3B       		.uleb128 0x3b
 18947 67d6 2E1B0000 		.4byte	.LVL374
 18948 67da 456A0000 		.4byte	0x6a45
 18949 67de ED670000 		.4byte	0x67ed
 18950 67e2 3C       		.uleb128 0x3c
 18951 67e3 01       		.uleb128 0x1
 18952 67e4 50       		.byte	0x50
 18953 67e5 01       		.uleb128 0x1
 18954 67e6 32       		.byte	0x32
 18955 67e7 3C       		.uleb128 0x3c
 18956 67e8 01       		.uleb128 0x1
 18957 67e9 51       		.byte	0x51
 18958 67ea 01       		.uleb128 0x1
 18959 67eb 31       		.byte	0x31
 18960 67ec 00       		.byte	0
 18961 67ed 39       		.uleb128 0x39
 18962 67ee 521B0000 		.4byte	.LVL375
 18963 67f2 796B0000 		.4byte	0x6b79
 18964 67f6 3B       		.uleb128 0x3b
 18965 67f7 761B0000 		.4byte	.LVL376
 18966 67fb 846B0000 		.4byte	0x6b84
 18967 67ff 1F680000 		.4byte	0x681f
 18968 6803 3C       		.uleb128 0x3c
 18969 6804 01       		.uleb128 0x1
 18970 6805 50       		.byte	0x50
 18971 6806 05       		.uleb128 0x5
 18972 6807 03       		.byte	0x3
 18973 6808 00000000 		.4byte	.LANCHOR20
 18974 680c 3C       		.uleb128 0x3c
 18975 680d 01       		.uleb128 0x1
 18976 680e 51       		.byte	0x51
 18977 680f 05       		.uleb128 0x5
 18978 6810 03       		.byte	0x3
 18979 6811 00000000 		.4byte	.LANCHOR19
 18980 6815 3C       		.uleb128 0x3c
 18981 6816 01       		.uleb128 0x1
 18982 6817 52       		.byte	0x52
 18983 6818 05       		.uleb128 0x5
 18984 6819 03       		.byte	0x3
 18985 681a 00000000 		.4byte	.LANCHOR18
 18986 681e 00       		.byte	0
 18987 681f 39       		.uleb128 0x39
 18988 6820 AC1B0000 		.4byte	.LVL377
 18989 6824 8F6B0000 		.4byte	0x6b8f
 18990 6828 39       		.uleb128 0x39
 18991 6829 EA1B0000 		.4byte	.LVL379
 18992 682d ED690000 		.4byte	0x69ed
 18993 6831 39       		.uleb128 0x39
 18994 6832 F81B0000 		.4byte	.LVL381
 18995 6836 ED690000 		.4byte	0x69ed
 18996 683a 39       		.uleb128 0x39
 18997 683b 0A1C0000 		.4byte	.LVL383
 18998 683f 9A6B0000 		.4byte	0x6b9a
 18999 6843 39       		.uleb128 0x39
 19000 6844 0E1C0000 		.4byte	.LVL384
ARM GAS  C:\Users\mathi\AppData\Local\Temp\ccXNOisu.s 			page 340


 19001 6848 A56B0000 		.4byte	0x6ba5
 19002 684c 3B       		.uleb128 0x3b
 19003 684d 1E1C0000 		.4byte	.LVL385
 19004 6851 B06B0000 		.4byte	0x6bb0
 19005 6855 65680000 		.4byte	0x6865
 19006 6859 3C       		.uleb128 0x3c
 19007 685a 01       		.uleb128 0x1
 19008 685b 50       		.byte	0x50
 19009 685c 07       		.uleb128 0x7
 19010 685d 7A       		.byte	0x7a
 19011 685e 00       		.sleb128 0
 19012 685f 91       		.byte	0x91
 19013 6860 B47F     		.sleb128 -76
 19014 6862 06       		.byte	0x6
 19015 6863 22       		.byte	0x22
 19016 6864 00       		.byte	0
 19017 6865 3B       		.uleb128 0x3b
 19018 6866 A01C0000 		.4byte	.LVL396
 19019 686a 27690000 		.4byte	0x6927
 19020 686e 79680000 		.4byte	0x6879
 19021 6872 3C       		.uleb128 0x3c
 19022 6873 01       		.uleb128 0x1
 19023 6874 50       		.byte	0x50
 19024 6875 02       		.uleb128 0x2
 19025 6876 7A       		.byte	0x7a
 19026 6877 00       		.sleb128 0
 19027 6878 00       		.byte	0
 19028 6879 39       		.uleb128 0x39
 19029 687a 16220000 		.4byte	.LVL542
 19030 687e 2C6B0000 		.4byte	0x6b2c
 19031 6882 3B       		.uleb128 0x3b
 19032 6883 1E220000 		.4byte	.LVL543
 19033 6887 BE6A0000 		.4byte	0x6abe
 19034 688b 9F680000 		.4byte	0x689f
 19035 688f 3C       		.uleb128 0x3c
 19036 6890 01       		.uleb128 0x1
 19037 6891 50       		.byte	0x50
 19038 6892 05       		.uleb128 0x5
 19039 6893 03       		.byte	0x3
 19040 6894 00000000 		.4byte	.LC0
 19041 6898 3C       		.uleb128 0x3c
 19042 6899 01       		.uleb128 0x1
 19043 689a 51       		.byte	0x51
 19044 689b 02       		.uleb128 0x2
 19045 689c 08       		.byte	0x8
 19046 689d 58       		.byte	0x58
 19047 689e 00       		.byte	0
 19048 689f 39       		.uleb128 0x39
 19049 68a0 22220000 		.4byte	.LVL544
 19050 68a4 C96A0000 		.4byte	0x6ac9
 19051 68a8 39       		.uleb128 0x39
 19052 68a9 32220000 		.4byte	.LVL546
 19053 68ad 006B0000 		.4byte	0x6b00
 19054 68b1 39       		.uleb128 0x39
 19055 68b2 4A220000 		.4byte	.LVL547
 19056 68b6 166B0000 		.4byte	0x6b16
 19057 68ba 3D       		.uleb128 0x3d
ARM GAS  C:\Users\mathi\AppData\Local\Temp\ccXNOisu.s 			page 341


 19058 68bb 58220000 		.4byte	.LVL548
 19059 68bf 216B0000 		.4byte	0x6b21
 19060 68c3 3C       		.uleb128 0x3c
 19061 68c4 01       		.uleb128 0x1
 19062 68c5 50       		.byte	0x50
 19063 68c6 02       		.uleb128 0x2
 19064 68c7 08       		.byte	0x8
 19065 68c8 7F       		.byte	0x7f
 19066 68c9 3C       		.uleb128 0x3c
 19067 68ca 01       		.uleb128 0x1
 19068 68cb 51       		.byte	0x51
 19069 68cc 03       		.uleb128 0x3
 19070 68cd 0A       		.byte	0xa
 19071 68ce FEFF     		.2byte	0xfffe
 19072 68d0 3C       		.uleb128 0x3c
 19073 68d1 01       		.uleb128 0x1
 19074 68d2 52       		.byte	0x52
 19075 68d3 05       		.uleb128 0x5
 19076 68d4 03       		.byte	0x3
 19077 68d5 00000000 		.4byte	.LANCHOR0
 19078 68d9 3C       		.uleb128 0x3c
 19079 68da 01       		.uleb128 0x1
 19080 68db 53       		.byte	0x53
 19081 68dc 01       		.uleb128 0x1
 19082 68dd 31       		.byte	0x31
 19083 68de 00       		.byte	0
 19084 68df 00       		.byte	0
 19085 68e0 13       		.uleb128 0x13
 19086 68e1 20110000 		.4byte	0x1120
 19087 68e5 F0680000 		.4byte	0x68f0
 19088 68e9 14       		.uleb128 0x14
 19089 68ea B1000000 		.4byte	0xb1
 19090 68ee 0B       		.byte	0xb
 19091 68ef 00       		.byte	0
 19092 68f0 3E       		.uleb128 0x3e
 19093 68f1 781D0000 		.4byte	.LASF950
 19094 68f5 781D0000 		.4byte	.LASF950
 19095 68f9 3C       		.byte	0x3c
 19096 68fa 45       		.byte	0x45
 19097 68fb 3E       		.uleb128 0x3e
 19098 68fc 2A0E0000 		.4byte	.LASF951
 19099 6900 2A0E0000 		.4byte	.LASF951
 19100 6904 3E       		.byte	0x3e
 19101 6905 17       		.byte	0x17
 19102 6906 3E       		.uleb128 0x3e
 19103 6907 1F200000 		.4byte	.LASF952
 19104 690b 1F200000 		.4byte	.LASF952
 19105 690f 3E       		.byte	0x3e
 19106 6910 19       		.byte	0x19
 19107 6911 3E       		.uleb128 0x3e
 19108 6912 7C000000 		.4byte	.LASF953
 19109 6916 7C000000 		.4byte	.LASF953
 19110 691a 3E       		.byte	0x3e
 19111 691b 1B       		.byte	0x1b
 19112 691c 3E       		.uleb128 0x3e
 19113 691d 630A0000 		.4byte	.LASF954
 19114 6921 630A0000 		.4byte	.LASF954
ARM GAS  C:\Users\mathi\AppData\Local\Temp\ccXNOisu.s 			page 342


 19115 6925 3F       		.byte	0x3f
 19116 6926 F4       		.byte	0xf4
 19117 6927 3E       		.uleb128 0x3e
 19118 6928 AD1E0000 		.4byte	.LASF955
 19119 692c AD1E0000 		.4byte	.LASF955
 19120 6930 40       		.byte	0x40
 19121 6931 29       		.byte	0x29
 19122 6932 3E       		.uleb128 0x3e
 19123 6933 47210000 		.4byte	.LASF956
 19124 6937 47210000 		.4byte	.LASF956
 19125 693b 41       		.byte	0x41
 19126 693c 71       		.byte	0x71
 19127 693d 3E       		.uleb128 0x3e
 19128 693e E9140000 		.4byte	.LASF957
 19129 6942 E9140000 		.4byte	.LASF957
 19130 6946 41       		.byte	0x41
 19131 6947 76       		.byte	0x76
 19132 6948 3E       		.uleb128 0x3e
 19133 6949 C2260000 		.4byte	.LASF958
 19134 694d C2260000 		.4byte	.LASF958
 19135 6951 3E       		.byte	0x3e
 19136 6952 15       		.byte	0x15
 19137 6953 3E       		.uleb128 0x3e
 19138 6954 0F160000 		.4byte	.LASF959
 19139 6958 0F160000 		.4byte	.LASF959
 19140 695c 42       		.byte	0x42
 19141 695d 29       		.byte	0x29
 19142 695e 3E       		.uleb128 0x3e
 19143 695f A91C0000 		.4byte	.LASF960
 19144 6963 A91C0000 		.4byte	.LASF960
 19145 6967 42       		.byte	0x42
 19146 6968 28       		.byte	0x28
 19147 6969 3E       		.uleb128 0x3e
 19148 696a AE090000 		.4byte	.LASF961
 19149 696e AE090000 		.4byte	.LASF961
 19150 6972 42       		.byte	0x42
 19151 6973 2A       		.byte	0x2a
 19152 6974 3E       		.uleb128 0x3e
 19153 6975 DB000000 		.4byte	.LASF962
 19154 6979 DB000000 		.4byte	.LASF962
 19155 697d 43       		.byte	0x43
 19156 697e 40       		.byte	0x40
 19157 697f 3E       		.uleb128 0x3e
 19158 6980 DF160000 		.4byte	.LASF963
 19159 6984 DF160000 		.4byte	.LASF963
 19160 6988 43       		.byte	0x43
 19161 6989 41       		.byte	0x41
 19162 698a 3E       		.uleb128 0x3e
 19163 698b E0050000 		.4byte	.LASF964
 19164 698f E0050000 		.4byte	.LASF964
 19165 6993 44       		.byte	0x44
 19166 6994 3A       		.byte	0x3a
 19167 6995 3E       		.uleb128 0x3e
 19168 6996 00240000 		.4byte	.LASF965
 19169 699a 00240000 		.4byte	.LASF965
 19170 699e 45       		.byte	0x45
 19171 699f 96       		.byte	0x96
ARM GAS  C:\Users\mathi\AppData\Local\Temp\ccXNOisu.s 			page 343


 19172 69a0 3E       		.uleb128 0x3e
 19173 69a1 E61B0000 		.4byte	.LASF966
 19174 69a5 E61B0000 		.4byte	.LASF966
 19175 69a9 44       		.byte	0x44
 19176 69aa 3B       		.byte	0x3b
 19177 69ab 3E       		.uleb128 0x3e
 19178 69ac 59050000 		.4byte	.LASF967
 19179 69b0 59050000 		.4byte	.LASF967
 19180 69b4 46       		.byte	0x46
 19181 69b5 0B       		.byte	0xb
 19182 69b6 3E       		.uleb128 0x3e
 19183 69b7 240C0000 		.4byte	.LASF968
 19184 69bb 240C0000 		.4byte	.LASF968
 19185 69bf 3F       		.byte	0x3f
 19186 69c0 CC       		.byte	0xcc
 19187 69c1 3E       		.uleb128 0x3e
 19188 69c2 0F230000 		.4byte	.LASF969
 19189 69c6 0F230000 		.4byte	.LASF969
 19190 69ca 47       		.byte	0x47
 19191 69cb 22       		.byte	0x22
 19192 69cc 3E       		.uleb128 0x3e
 19193 69cd 24090000 		.4byte	.LASF970
 19194 69d1 24090000 		.4byte	.LASF970
 19195 69d5 47       		.byte	0x47
 19196 69d6 1D       		.byte	0x1d
 19197 69d7 3E       		.uleb128 0x3e
 19198 69d8 BD1D0000 		.4byte	.LASF971
 19199 69dc BD1D0000 		.4byte	.LASF971
 19200 69e0 47       		.byte	0x47
 19201 69e1 25       		.byte	0x25
 19202 69e2 3E       		.uleb128 0x3e
 19203 69e3 A9010000 		.4byte	.LASF972
 19204 69e7 A9010000 		.4byte	.LASF972
 19205 69eb 46       		.byte	0x46
 19206 69ec 30       		.byte	0x30
 19207 69ed 3E       		.uleb128 0x3e
 19208 69ee 9F040000 		.4byte	.LASF973
 19209 69f2 9F040000 		.4byte	.LASF973
 19210 69f6 48       		.byte	0x48
 19211 69f7 67       		.byte	0x67
 19212 69f8 3E       		.uleb128 0x3e
 19213 69f9 412A0000 		.4byte	.LASF974
 19214 69fd 412A0000 		.4byte	.LASF974
 19215 6a01 43       		.byte	0x43
 19216 6a02 3D       		.byte	0x3d
 19217 6a03 3E       		.uleb128 0x3e
 19218 6a04 2C1F0000 		.4byte	.LASF975
 19219 6a08 2C1F0000 		.4byte	.LASF975
 19220 6a0c 43       		.byte	0x43
 19221 6a0d 3E       		.byte	0x3e
 19222 6a0e 3E       		.uleb128 0x3e
 19223 6a0f 8B190000 		.4byte	.LASF976
 19224 6a13 8B190000 		.4byte	.LASF976
 19225 6a17 46       		.byte	0x46
 19226 6a18 27       		.byte	0x27
 19227 6a19 3E       		.uleb128 0x3e
 19228 6a1a AD060000 		.4byte	.LASF977
ARM GAS  C:\Users\mathi\AppData\Local\Temp\ccXNOisu.s 			page 344


 19229 6a1e AD060000 		.4byte	.LASF977
 19230 6a22 42       		.byte	0x42
 19231 6a23 27       		.byte	0x27
 19232 6a24 3E       		.uleb128 0x3e
 19233 6a25 03270000 		.4byte	.LASF978
 19234 6a29 03270000 		.4byte	.LASF978
 19235 6a2d 49       		.byte	0x49
 19236 6a2e 26       		.byte	0x26
 19237 6a2f 3E       		.uleb128 0x3e
 19238 6a30 4F0B0000 		.4byte	.LASF979
 19239 6a34 4F0B0000 		.4byte	.LASF979
 19240 6a38 43       		.byte	0x43
 19241 6a39 39       		.byte	0x39
 19242 6a3a 3E       		.uleb128 0x3e
 19243 6a3b A31D0000 		.4byte	.LASF980
 19244 6a3f A31D0000 		.4byte	.LASF980
 19245 6a43 43       		.byte	0x43
 19246 6a44 3A       		.byte	0x3a
 19247 6a45 3E       		.uleb128 0x3e
 19248 6a46 E4130000 		.4byte	.LASF981
 19249 6a4a E4130000 		.4byte	.LASF981
 19250 6a4e 3D       		.byte	0x3d
 19251 6a4f 42       		.byte	0x42
 19252 6a50 3E       		.uleb128 0x3e
 19253 6a51 68190000 		.4byte	.LASF982
 19254 6a55 68190000 		.4byte	.LASF982
 19255 6a59 4A       		.byte	0x4a
 19256 6a5a 72       		.byte	0x72
 19257 6a5b 3E       		.uleb128 0x3e
 19258 6a5c 8B0E0000 		.4byte	.LASF983
 19259 6a60 8B0E0000 		.4byte	.LASF983
 19260 6a64 4A       		.byte	0x4a
 19261 6a65 73       		.byte	0x73
 19262 6a66 3E       		.uleb128 0x3e
 19263 6a67 25060000 		.4byte	.LASF984
 19264 6a6b 25060000 		.4byte	.LASF984
 19265 6a6f 4A       		.byte	0x4a
 19266 6a70 74       		.byte	0x74
 19267 6a71 3E       		.uleb128 0x3e
 19268 6a72 F6150000 		.4byte	.LASF985
 19269 6a76 F6150000 		.4byte	.LASF985
 19270 6a7a 4B       		.byte	0x4b
 19271 6a7b 23       		.byte	0x23
 19272 6a7c 3E       		.uleb128 0x3e
 19273 6a7d 172A0000 		.4byte	.LASF986
 19274 6a81 172A0000 		.4byte	.LASF986
 19275 6a85 44       		.byte	0x44
 19276 6a86 46       		.byte	0x46
 19277 6a87 3E       		.uleb128 0x3e
 19278 6a88 8A150000 		.4byte	.LASF987
 19279 6a8c 8A150000 		.4byte	.LASF987
 19280 6a90 44       		.byte	0x44
 19281 6a91 47       		.byte	0x47
 19282 6a92 3E       		.uleb128 0x3e
 19283 6a93 37160000 		.4byte	.LASF988
 19284 6a97 37160000 		.4byte	.LASF988
 19285 6a9b 48       		.byte	0x48
ARM GAS  C:\Users\mathi\AppData\Local\Temp\ccXNOisu.s 			page 345


 19286 6a9c 68       		.byte	0x68
 19287 6a9d 3E       		.uleb128 0x3e
 19288 6a9e E1120000 		.4byte	.LASF989
 19289 6aa2 E1120000 		.4byte	.LASF989
 19290 6aa6 3B       		.byte	0x3b
 19291 6aa7 A2       		.byte	0xa2
 19292 6aa8 3E       		.uleb128 0x3e
 19293 6aa9 EE0D0000 		.4byte	.LASF990
 19294 6aad EE0D0000 		.4byte	.LASF990
 19295 6ab1 4C       		.byte	0x4c
 19296 6ab2 0B       		.byte	0xb
 19297 6ab3 3E       		.uleb128 0x3e
 19298 6ab4 F7240000 		.4byte	.LASF991
 19299 6ab8 F7240000 		.4byte	.LASF991
 19300 6abc 4C       		.byte	0x4c
 19301 6abd 0D       		.byte	0xd
 19302 6abe 3E       		.uleb128 0x3e
 19303 6abf 7A200000 		.4byte	.LASF992
 19304 6ac3 7A200000 		.4byte	.LASF992
 19305 6ac7 41       		.byte	0x41
 19306 6ac8 8A       		.byte	0x8a
 19307 6ac9 3E       		.uleb128 0x3e
 19308 6aca 86010000 		.4byte	.LASF993
 19309 6ace 86010000 		.4byte	.LASF993
 19310 6ad2 41       		.byte	0x41
 19311 6ad3 8F       		.byte	0x8f
 19312 6ad4 3E       		.uleb128 0x3e
 19313 6ad5 20140000 		.4byte	.LASF994
 19314 6ad9 20140000 		.4byte	.LASF994
 19315 6add 48       		.byte	0x48
 19316 6ade 69       		.byte	0x69
 19317 6adf 3E       		.uleb128 0x3e
 19318 6ae0 90130000 		.4byte	.LASF995
 19319 6ae4 90130000 		.4byte	.LASF995
 19320 6ae8 3B       		.byte	0x3b
 19321 6ae9 AF       		.byte	0xaf
 19322 6aea 3E       		.uleb128 0x3e
 19323 6aeb 440C0000 		.4byte	.LASF996
 19324 6aef 440C0000 		.4byte	.LASF996
 19325 6af3 43       		.byte	0x43
 19326 6af4 37       		.byte	0x37
 19327 6af5 3E       		.uleb128 0x3e
 19328 6af6 88180000 		.4byte	.LASF997
 19329 6afa 88180000 		.4byte	.LASF997
 19330 6afe 4C       		.byte	0x4c
 19331 6aff 0A       		.byte	0xa
 19332 6b00 3E       		.uleb128 0x3e
 19333 6b01 59090000 		.4byte	.LASF998
 19334 6b05 59090000 		.4byte	.LASF998
 19335 6b09 4D       		.byte	0x4d
 19336 6b0a 24       		.byte	0x24
 19337 6b0b 3E       		.uleb128 0x3e
 19338 6b0c 330F0000 		.4byte	.LASF999
 19339 6b10 330F0000 		.4byte	.LASF999
 19340 6b14 42       		.byte	0x42
 19341 6b15 25       		.byte	0x25
 19342 6b16 3E       		.uleb128 0x3e
ARM GAS  C:\Users\mathi\AppData\Local\Temp\ccXNOisu.s 			page 346


 19343 6b17 321E0000 		.4byte	.LASF1000
 19344 6b1b 321E0000 		.4byte	.LASF1000
 19345 6b1f 4A       		.byte	0x4a
 19346 6b20 6F       		.byte	0x6f
 19347 6b21 3E       		.uleb128 0x3e
 19348 6b22 FF1A0000 		.4byte	.LASF1001
 19349 6b26 FF1A0000 		.4byte	.LASF1001
 19350 6b2a 4E       		.byte	0x4e
 19351 6b2b 12       		.byte	0x12
 19352 6b2c 3E       		.uleb128 0x3e
 19353 6b2d 20040000 		.4byte	.LASF1002
 19354 6b31 20040000 		.4byte	.LASF1002
 19355 6b35 3D       		.byte	0x3d
 19356 6b36 49       		.byte	0x49
 19357 6b37 3E       		.uleb128 0x3e
 19358 6b38 77160000 		.4byte	.LASF1003
 19359 6b3c 77160000 		.4byte	.LASF1003
 19360 6b40 41       		.byte	0x41
 19361 6b41 6B       		.byte	0x6b
 19362 6b42 3E       		.uleb128 0x3e
 19363 6b43 30240000 		.4byte	.LASF1004
 19364 6b47 30240000 		.4byte	.LASF1004
 19365 6b4b 41       		.byte	0x41
 19366 6b4c 84       		.byte	0x84
 19367 6b4d 3E       		.uleb128 0x3e
 19368 6b4e B0250000 		.4byte	.LASF1005
 19369 6b52 B0250000 		.4byte	.LASF1005
 19370 6b56 4F       		.byte	0x4f
 19371 6b57 3E       		.byte	0x3e
 19372 6b58 3E       		.uleb128 0x3e
 19373 6b59 C71E0000 		.4byte	.LASF1006
 19374 6b5d C71E0000 		.4byte	.LASF1006
 19375 6b61 47       		.byte	0x47
 19376 6b62 27       		.byte	0x27
 19377 6b63 3E       		.uleb128 0x3e
 19378 6b64 F1210000 		.4byte	.LASF1007
 19379 6b68 F1210000 		.4byte	.LASF1007
 19380 6b6c 4D       		.byte	0x4d
 19381 6b6d 30       		.byte	0x30
 19382 6b6e 3E       		.uleb128 0x3e
 19383 6b6f 7F1C0000 		.4byte	.LASF1008
 19384 6b73 7F1C0000 		.4byte	.LASF1008
 19385 6b77 50       		.byte	0x50
 19386 6b78 08       		.byte	0x8
 19387 6b79 3E       		.uleb128 0x3e
 19388 6b7a 89000000 		.4byte	.LASF1009
 19389 6b7e 89000000 		.4byte	.LASF1009
 19390 6b82 51       		.byte	0x51
 19391 6b83 51       		.byte	0x51
 19392 6b84 3E       		.uleb128 0x3e
 19393 6b85 ED220000 		.4byte	.LASF1010
 19394 6b89 ED220000 		.4byte	.LASF1010
 19395 6b8d 3E       		.byte	0x3e
 19396 6b8e 12       		.byte	0x12
 19397 6b8f 3E       		.uleb128 0x3e
 19398 6b90 96010000 		.4byte	.LASF1011
 19399 6b94 96010000 		.4byte	.LASF1011
ARM GAS  C:\Users\mathi\AppData\Local\Temp\ccXNOisu.s 			page 347


 19400 6b98 3D       		.byte	0x3d
 19401 6b99 4F       		.byte	0x4f
 19402 6b9a 3E       		.uleb128 0x3e
 19403 6b9b A6100000 		.4byte	.LASF1012
 19404 6b9f A6100000 		.4byte	.LASF1012
 19405 6ba3 47       		.byte	0x47
 19406 6ba4 29       		.byte	0x29
 19407 6ba5 3E       		.uleb128 0x3e
 19408 6ba6 B0180000 		.4byte	.LASF1013
 19409 6baa B0180000 		.4byte	.LASF1013
 19410 6bae 52       		.byte	0x52
 19411 6baf 6E       		.byte	0x6e
 19412 6bb0 3F       		.uleb128 0x3f
 19413 6bb1 5A060000 		.4byte	.LASF1018
 19414 6bb5 7F210000 		.4byte	.LASF1019
 19415 6bb9 53       		.byte	0x53
 19416 6bba 00       		.byte	0
 19417 6bbb 5A060000 		.4byte	.LASF1018
 19418 6bbf 00       		.byte	0
 19419              		.section	.debug_abbrev,"",%progbits
 19420              	.Ldebug_abbrev0:
 19421 0000 01       		.uleb128 0x1
 19422 0001 11       		.uleb128 0x11
 19423 0002 01       		.byte	0x1
 19424 0003 25       		.uleb128 0x25
 19425 0004 0E       		.uleb128 0xe
 19426 0005 13       		.uleb128 0x13
 19427 0006 0B       		.uleb128 0xb
 19428 0007 03       		.uleb128 0x3
 19429 0008 0E       		.uleb128 0xe
 19430 0009 1B       		.uleb128 0x1b
 19431 000a 0E       		.uleb128 0xe
 19432 000b 55       		.uleb128 0x55
 19433 000c 17       		.uleb128 0x17
 19434 000d 11       		.uleb128 0x11
 19435 000e 01       		.uleb128 0x1
 19436 000f 10       		.uleb128 0x10
 19437 0010 17       		.uleb128 0x17
 19438 0011 00       		.byte	0
 19439 0012 00       		.byte	0
 19440 0013 02       		.uleb128 0x2
 19441 0014 16       		.uleb128 0x16
 19442 0015 00       		.byte	0
 19443 0016 03       		.uleb128 0x3
 19444 0017 0E       		.uleb128 0xe
 19445 0018 3A       		.uleb128 0x3a
 19446 0019 0B       		.uleb128 0xb
 19447 001a 3B       		.uleb128 0x3b
 19448 001b 0B       		.uleb128 0xb
 19449 001c 49       		.uleb128 0x49
 19450 001d 13       		.uleb128 0x13
 19451 001e 00       		.byte	0
 19452 001f 00       		.byte	0
 19453 0020 03       		.uleb128 0x3
 19454 0021 24       		.uleb128 0x24
 19455 0022 00       		.byte	0
 19456 0023 0B       		.uleb128 0xb
ARM GAS  C:\Users\mathi\AppData\Local\Temp\ccXNOisu.s 			page 348


 19457 0024 0B       		.uleb128 0xb
 19458 0025 3E       		.uleb128 0x3e
 19459 0026 0B       		.uleb128 0xb
 19460 0027 03       		.uleb128 0x3
 19461 0028 0E       		.uleb128 0xe
 19462 0029 00       		.byte	0
 19463 002a 00       		.byte	0
 19464 002b 04       		.uleb128 0x4
 19465 002c 24       		.uleb128 0x24
 19466 002d 00       		.byte	0
 19467 002e 0B       		.uleb128 0xb
 19468 002f 0B       		.uleb128 0xb
 19469 0030 3E       		.uleb128 0x3e
 19470 0031 0B       		.uleb128 0xb
 19471 0032 03       		.uleb128 0x3
 19472 0033 08       		.uleb128 0x8
 19473 0034 00       		.byte	0
 19474 0035 00       		.byte	0
 19475 0036 05       		.uleb128 0x5
 19476 0037 26       		.uleb128 0x26
 19477 0038 00       		.byte	0
 19478 0039 49       		.uleb128 0x49
 19479 003a 13       		.uleb128 0x13
 19480 003b 00       		.byte	0
 19481 003c 00       		.byte	0
 19482 003d 06       		.uleb128 0x6
 19483 003e 35       		.uleb128 0x35
 19484 003f 00       		.byte	0
 19485 0040 49       		.uleb128 0x49
 19486 0041 13       		.uleb128 0x13
 19487 0042 00       		.byte	0
 19488 0043 00       		.byte	0
 19489 0044 07       		.uleb128 0x7
 19490 0045 13       		.uleb128 0x13
 19491 0046 01       		.byte	0x1
 19492 0047 03       		.uleb128 0x3
 19493 0048 0E       		.uleb128 0xe
 19494 0049 0B       		.uleb128 0xb
 19495 004a 0B       		.uleb128 0xb
 19496 004b 3A       		.uleb128 0x3a
 19497 004c 0B       		.uleb128 0xb
 19498 004d 3B       		.uleb128 0x3b
 19499 004e 0B       		.uleb128 0xb
 19500 004f 01       		.uleb128 0x1
 19501 0050 13       		.uleb128 0x13
 19502 0051 00       		.byte	0
 19503 0052 00       		.byte	0
 19504 0053 08       		.uleb128 0x8
 19505 0054 0D       		.uleb128 0xd
 19506 0055 00       		.byte	0
 19507 0056 03       		.uleb128 0x3
 19508 0057 0E       		.uleb128 0xe
 19509 0058 3A       		.uleb128 0x3a
 19510 0059 0B       		.uleb128 0xb
 19511 005a 3B       		.uleb128 0x3b
 19512 005b 0B       		.uleb128 0xb
 19513 005c 49       		.uleb128 0x49
ARM GAS  C:\Users\mathi\AppData\Local\Temp\ccXNOisu.s 			page 349


 19514 005d 13       		.uleb128 0x13
 19515 005e 38       		.uleb128 0x38
 19516 005f 0B       		.uleb128 0xb
 19517 0060 00       		.byte	0
 19518 0061 00       		.byte	0
 19519 0062 09       		.uleb128 0x9
 19520 0063 0D       		.uleb128 0xd
 19521 0064 00       		.byte	0
 19522 0065 03       		.uleb128 0x3
 19523 0066 08       		.uleb128 0x8
 19524 0067 3A       		.uleb128 0x3a
 19525 0068 0B       		.uleb128 0xb
 19526 0069 3B       		.uleb128 0x3b
 19527 006a 05       		.uleb128 0x5
 19528 006b 49       		.uleb128 0x49
 19529 006c 13       		.uleb128 0x13
 19530 006d 38       		.uleb128 0x38
 19531 006e 0B       		.uleb128 0xb
 19532 006f 00       		.byte	0
 19533 0070 00       		.byte	0
 19534 0071 0A       		.uleb128 0xa
 19535 0072 0D       		.uleb128 0xd
 19536 0073 00       		.byte	0
 19537 0074 03       		.uleb128 0x3
 19538 0075 0E       		.uleb128 0xe
 19539 0076 3A       		.uleb128 0x3a
 19540 0077 0B       		.uleb128 0xb
 19541 0078 3B       		.uleb128 0x3b
 19542 0079 05       		.uleb128 0x5
 19543 007a 49       		.uleb128 0x49
 19544 007b 13       		.uleb128 0x13
 19545 007c 38       		.uleb128 0x38
 19546 007d 0B       		.uleb128 0xb
 19547 007e 00       		.byte	0
 19548 007f 00       		.byte	0
 19549 0080 0B       		.uleb128 0xb
 19550 0081 0F       		.uleb128 0xf
 19551 0082 00       		.byte	0
 19552 0083 0B       		.uleb128 0xb
 19553 0084 0B       		.uleb128 0xb
 19554 0085 49       		.uleb128 0x49
 19555 0086 13       		.uleb128 0x13
 19556 0087 00       		.byte	0
 19557 0088 00       		.byte	0
 19558 0089 0C       		.uleb128 0xc
 19559 008a 13       		.uleb128 0x13
 19560 008b 01       		.byte	0x1
 19561 008c 03       		.uleb128 0x3
 19562 008d 0E       		.uleb128 0xe
 19563 008e 0B       		.uleb128 0xb
 19564 008f 0B       		.uleb128 0xb
 19565 0090 3A       		.uleb128 0x3a
 19566 0091 0B       		.uleb128 0xb
 19567 0092 3B       		.uleb128 0x3b
 19568 0093 05       		.uleb128 0x5
 19569 0094 01       		.uleb128 0x1
 19570 0095 13       		.uleb128 0x13
ARM GAS  C:\Users\mathi\AppData\Local\Temp\ccXNOisu.s 			page 350


 19571 0096 00       		.byte	0
 19572 0097 00       		.byte	0
 19573 0098 0D       		.uleb128 0xd
 19574 0099 15       		.uleb128 0x15
 19575 009a 01       		.byte	0x1
 19576 009b 27       		.uleb128 0x27
 19577 009c 19       		.uleb128 0x19
 19578 009d 01       		.uleb128 0x1
 19579 009e 13       		.uleb128 0x13
 19580 009f 00       		.byte	0
 19581 00a0 00       		.byte	0
 19582 00a1 0E       		.uleb128 0xe
 19583 00a2 05       		.uleb128 0x5
 19584 00a3 00       		.byte	0
 19585 00a4 49       		.uleb128 0x49
 19586 00a5 13       		.uleb128 0x13
 19587 00a6 00       		.byte	0
 19588 00a7 00       		.byte	0
 19589 00a8 0F       		.uleb128 0xf
 19590 00a9 0F       		.uleb128 0xf
 19591 00aa 00       		.byte	0
 19592 00ab 0B       		.uleb128 0xb
 19593 00ac 0B       		.uleb128 0xb
 19594 00ad 00       		.byte	0
 19595 00ae 00       		.byte	0
 19596 00af 10       		.uleb128 0x10
 19597 00b0 13       		.uleb128 0x13
 19598 00b1 01       		.byte	0x1
 19599 00b2 03       		.uleb128 0x3
 19600 00b3 0E       		.uleb128 0xe
 19601 00b4 0B       		.uleb128 0xb
 19602 00b5 05       		.uleb128 0x5
 19603 00b6 3A       		.uleb128 0x3a
 19604 00b7 0B       		.uleb128 0xb
 19605 00b8 3B       		.uleb128 0x3b
 19606 00b9 05       		.uleb128 0x5
 19607 00ba 01       		.uleb128 0x1
 19608 00bb 13       		.uleb128 0x13
 19609 00bc 00       		.byte	0
 19610 00bd 00       		.byte	0
 19611 00be 11       		.uleb128 0x11
 19612 00bf 0D       		.uleb128 0xd
 19613 00c0 00       		.byte	0
 19614 00c1 03       		.uleb128 0x3
 19615 00c2 0E       		.uleb128 0xe
 19616 00c3 3A       		.uleb128 0x3a
 19617 00c4 0B       		.uleb128 0xb
 19618 00c5 3B       		.uleb128 0x3b
 19619 00c6 05       		.uleb128 0x5
 19620 00c7 49       		.uleb128 0x49
 19621 00c8 13       		.uleb128 0x13
 19622 00c9 38       		.uleb128 0x38
 19623 00ca 05       		.uleb128 0x5
 19624 00cb 00       		.byte	0
 19625 00cc 00       		.byte	0
 19626 00cd 12       		.uleb128 0x12
 19627 00ce 0D       		.uleb128 0xd
ARM GAS  C:\Users\mathi\AppData\Local\Temp\ccXNOisu.s 			page 351


 19628 00cf 00       		.byte	0
 19629 00d0 03       		.uleb128 0x3
 19630 00d1 08       		.uleb128 0x8
 19631 00d2 3A       		.uleb128 0x3a
 19632 00d3 0B       		.uleb128 0xb
 19633 00d4 3B       		.uleb128 0x3b
 19634 00d5 05       		.uleb128 0x5
 19635 00d6 49       		.uleb128 0x49
 19636 00d7 13       		.uleb128 0x13
 19637 00d8 38       		.uleb128 0x38
 19638 00d9 05       		.uleb128 0x5
 19639 00da 00       		.byte	0
 19640 00db 00       		.byte	0
 19641 00dc 13       		.uleb128 0x13
 19642 00dd 01       		.uleb128 0x1
 19643 00de 01       		.byte	0x1
 19644 00df 49       		.uleb128 0x49
 19645 00e0 13       		.uleb128 0x13
 19646 00e1 01       		.uleb128 0x1
 19647 00e2 13       		.uleb128 0x13
 19648 00e3 00       		.byte	0
 19649 00e4 00       		.byte	0
 19650 00e5 14       		.uleb128 0x14
 19651 00e6 21       		.uleb128 0x21
 19652 00e7 00       		.byte	0
 19653 00e8 49       		.uleb128 0x49
 19654 00e9 13       		.uleb128 0x13
 19655 00ea 2F       		.uleb128 0x2f
 19656 00eb 0B       		.uleb128 0xb
 19657 00ec 00       		.byte	0
 19658 00ed 00       		.byte	0
 19659 00ee 15       		.uleb128 0x15
 19660 00ef 34       		.uleb128 0x34
 19661 00f0 00       		.byte	0
 19662 00f1 03       		.uleb128 0x3
 19663 00f2 0E       		.uleb128 0xe
 19664 00f3 3A       		.uleb128 0x3a
 19665 00f4 0B       		.uleb128 0xb
 19666 00f5 3B       		.uleb128 0x3b
 19667 00f6 05       		.uleb128 0x5
 19668 00f7 49       		.uleb128 0x49
 19669 00f8 13       		.uleb128 0x13
 19670 00f9 3F       		.uleb128 0x3f
 19671 00fa 19       		.uleb128 0x19
 19672 00fb 3C       		.uleb128 0x3c
 19673 00fc 19       		.uleb128 0x19
 19674 00fd 00       		.byte	0
 19675 00fe 00       		.byte	0
 19676 00ff 16       		.uleb128 0x16
 19677 0100 34       		.uleb128 0x34
 19678 0101 00       		.byte	0
 19679 0102 03       		.uleb128 0x3
 19680 0103 0E       		.uleb128 0xe
 19681 0104 3A       		.uleb128 0x3a
 19682 0105 0B       		.uleb128 0xb
 19683 0106 3B       		.uleb128 0x3b
 19684 0107 0B       		.uleb128 0xb
ARM GAS  C:\Users\mathi\AppData\Local\Temp\ccXNOisu.s 			page 352


 19685 0108 49       		.uleb128 0x49
 19686 0109 13       		.uleb128 0x13
 19687 010a 3F       		.uleb128 0x3f
 19688 010b 19       		.uleb128 0x19
 19689 010c 3C       		.uleb128 0x3c
 19690 010d 19       		.uleb128 0x19
 19691 010e 00       		.byte	0
 19692 010f 00       		.byte	0
 19693 0110 17       		.uleb128 0x17
 19694 0111 13       		.uleb128 0x13
 19695 0112 01       		.byte	0x1
 19696 0113 0B       		.uleb128 0xb
 19697 0114 0B       		.uleb128 0xb
 19698 0115 3A       		.uleb128 0x3a
 19699 0116 0B       		.uleb128 0xb
 19700 0117 3B       		.uleb128 0x3b
 19701 0118 0B       		.uleb128 0xb
 19702 0119 01       		.uleb128 0x1
 19703 011a 13       		.uleb128 0x13
 19704 011b 00       		.byte	0
 19705 011c 00       		.byte	0
 19706 011d 18       		.uleb128 0x18
 19707 011e 0D       		.uleb128 0xd
 19708 011f 00       		.byte	0
 19709 0120 03       		.uleb128 0x3
 19710 0121 08       		.uleb128 0x8
 19711 0122 3A       		.uleb128 0x3a
 19712 0123 0B       		.uleb128 0xb
 19713 0124 3B       		.uleb128 0x3b
 19714 0125 0B       		.uleb128 0xb
 19715 0126 49       		.uleb128 0x49
 19716 0127 13       		.uleb128 0x13
 19717 0128 38       		.uleb128 0x38
 19718 0129 0B       		.uleb128 0xb
 19719 012a 00       		.byte	0
 19720 012b 00       		.byte	0
 19721 012c 19       		.uleb128 0x19
 19722 012d 13       		.uleb128 0x13
 19723 012e 01       		.byte	0x1
 19724 012f 0B       		.uleb128 0xb
 19725 0130 0B       		.uleb128 0xb
 19726 0131 3A       		.uleb128 0x3a
 19727 0132 0B       		.uleb128 0xb
 19728 0133 3B       		.uleb128 0x3b
 19729 0134 05       		.uleb128 0x5
 19730 0135 01       		.uleb128 0x1
 19731 0136 13       		.uleb128 0x13
 19732 0137 00       		.byte	0
 19733 0138 00       		.byte	0
 19734 0139 1A       		.uleb128 0x1a
 19735 013a 16       		.uleb128 0x16
 19736 013b 00       		.byte	0
 19737 013c 03       		.uleb128 0x3
 19738 013d 0E       		.uleb128 0xe
 19739 013e 3A       		.uleb128 0x3a
 19740 013f 0B       		.uleb128 0xb
 19741 0140 3B       		.uleb128 0x3b
ARM GAS  C:\Users\mathi\AppData\Local\Temp\ccXNOisu.s 			page 353


 19742 0141 05       		.uleb128 0x5
 19743 0142 49       		.uleb128 0x49
 19744 0143 13       		.uleb128 0x13
 19745 0144 00       		.byte	0
 19746 0145 00       		.byte	0
 19747 0146 1B       		.uleb128 0x1b
 19748 0147 13       		.uleb128 0x13
 19749 0148 01       		.byte	0x1
 19750 0149 0B       		.uleb128 0xb
 19751 014a 05       		.uleb128 0x5
 19752 014b 3A       		.uleb128 0x3a
 19753 014c 0B       		.uleb128 0xb
 19754 014d 3B       		.uleb128 0x3b
 19755 014e 05       		.uleb128 0x5
 19756 014f 01       		.uleb128 0x1
 19757 0150 13       		.uleb128 0x13
 19758 0151 00       		.byte	0
 19759 0152 00       		.byte	0
 19760 0153 1C       		.uleb128 0x1c
 19761 0154 13       		.uleb128 0x13
 19762 0155 01       		.byte	0x1
 19763 0156 0B       		.uleb128 0xb
 19764 0157 05       		.uleb128 0x5
 19765 0158 3A       		.uleb128 0x3a
 19766 0159 0B       		.uleb128 0xb
 19767 015a 3B       		.uleb128 0x3b
 19768 015b 0B       		.uleb128 0xb
 19769 015c 01       		.uleb128 0x1
 19770 015d 13       		.uleb128 0x13
 19771 015e 00       		.byte	0
 19772 015f 00       		.byte	0
 19773 0160 1D       		.uleb128 0x1d
 19774 0161 17       		.uleb128 0x17
 19775 0162 01       		.byte	0x1
 19776 0163 0B       		.uleb128 0xb
 19777 0164 0B       		.uleb128 0xb
 19778 0165 3A       		.uleb128 0x3a
 19779 0166 0B       		.uleb128 0xb
 19780 0167 3B       		.uleb128 0x3b
 19781 0168 0B       		.uleb128 0xb
 19782 0169 01       		.uleb128 0x1
 19783 016a 13       		.uleb128 0x13
 19784 016b 00       		.byte	0
 19785 016c 00       		.byte	0
 19786 016d 1E       		.uleb128 0x1e
 19787 016e 0D       		.uleb128 0xd
 19788 016f 00       		.byte	0
 19789 0170 03       		.uleb128 0x3
 19790 0171 0E       		.uleb128 0xe
 19791 0172 3A       		.uleb128 0x3a
 19792 0173 0B       		.uleb128 0xb
 19793 0174 3B       		.uleb128 0x3b
 19794 0175 05       		.uleb128 0x5
 19795 0176 49       		.uleb128 0x49
 19796 0177 13       		.uleb128 0x13
 19797 0178 00       		.byte	0
 19798 0179 00       		.byte	0
ARM GAS  C:\Users\mathi\AppData\Local\Temp\ccXNOisu.s 			page 354


 19799 017a 1F       		.uleb128 0x1f
 19800 017b 34       		.uleb128 0x34
 19801 017c 00       		.byte	0
 19802 017d 03       		.uleb128 0x3
 19803 017e 08       		.uleb128 0x8
 19804 017f 3A       		.uleb128 0x3a
 19805 0180 0B       		.uleb128 0xb
 19806 0181 3B       		.uleb128 0x3b
 19807 0182 05       		.uleb128 0x5
 19808 0183 49       		.uleb128 0x49
 19809 0184 13       		.uleb128 0x13
 19810 0185 3F       		.uleb128 0x3f
 19811 0186 19       		.uleb128 0x19
 19812 0187 3C       		.uleb128 0x3c
 19813 0188 19       		.uleb128 0x19
 19814 0189 00       		.byte	0
 19815 018a 00       		.byte	0
 19816 018b 20       		.uleb128 0x20
 19817 018c 15       		.uleb128 0x15
 19818 018d 01       		.byte	0x1
 19819 018e 27       		.uleb128 0x27
 19820 018f 19       		.uleb128 0x19
 19821 0190 49       		.uleb128 0x49
 19822 0191 13       		.uleb128 0x13
 19823 0192 01       		.uleb128 0x1
 19824 0193 13       		.uleb128 0x13
 19825 0194 00       		.byte	0
 19826 0195 00       		.byte	0
 19827 0196 21       		.uleb128 0x21
 19828 0197 04       		.uleb128 0x4
 19829 0198 01       		.byte	0x1
 19830 0199 3E       		.uleb128 0x3e
 19831 019a 0B       		.uleb128 0xb
 19832 019b 0B       		.uleb128 0xb
 19833 019c 0B       		.uleb128 0xb
 19834 019d 49       		.uleb128 0x49
 19835 019e 13       		.uleb128 0x13
 19836 019f 3A       		.uleb128 0x3a
 19837 01a0 0B       		.uleb128 0xb
 19838 01a1 3B       		.uleb128 0x3b
 19839 01a2 0B       		.uleb128 0xb
 19840 01a3 01       		.uleb128 0x1
 19841 01a4 13       		.uleb128 0x13
 19842 01a5 00       		.byte	0
 19843 01a6 00       		.byte	0
 19844 01a7 22       		.uleb128 0x22
 19845 01a8 28       		.uleb128 0x28
 19846 01a9 00       		.byte	0
 19847 01aa 03       		.uleb128 0x3
 19848 01ab 0E       		.uleb128 0xe
 19849 01ac 1C       		.uleb128 0x1c
 19850 01ad 0B       		.uleb128 0xb
 19851 01ae 00       		.byte	0
 19852 01af 00       		.byte	0
 19853 01b0 23       		.uleb128 0x23
 19854 01b1 0D       		.uleb128 0xd
 19855 01b2 00       		.byte	0
ARM GAS  C:\Users\mathi\AppData\Local\Temp\ccXNOisu.s 			page 355


 19856 01b3 03       		.uleb128 0x3
 19857 01b4 08       		.uleb128 0x8
 19858 01b5 3A       		.uleb128 0x3a
 19859 01b6 0B       		.uleb128 0xb
 19860 01b7 3B       		.uleb128 0x3b
 19861 01b8 0B       		.uleb128 0xb
 19862 01b9 49       		.uleb128 0x49
 19863 01ba 13       		.uleb128 0x13
 19864 01bb 00       		.byte	0
 19865 01bc 00       		.byte	0
 19866 01bd 24       		.uleb128 0x24
 19867 01be 04       		.uleb128 0x4
 19868 01bf 01       		.byte	0x1
 19869 01c0 3E       		.uleb128 0x3e
 19870 01c1 0B       		.uleb128 0xb
 19871 01c2 0B       		.uleb128 0xb
 19872 01c3 0B       		.uleb128 0xb
 19873 01c4 49       		.uleb128 0x49
 19874 01c5 13       		.uleb128 0x13
 19875 01c6 3A       		.uleb128 0x3a
 19876 01c7 0B       		.uleb128 0xb
 19877 01c8 3B       		.uleb128 0x3b
 19878 01c9 05       		.uleb128 0x5
 19879 01ca 01       		.uleb128 0x1
 19880 01cb 13       		.uleb128 0x13
 19881 01cc 00       		.byte	0
 19882 01cd 00       		.byte	0
 19883 01ce 25       		.uleb128 0x25
 19884 01cf 26       		.uleb128 0x26
 19885 01d0 00       		.byte	0
 19886 01d1 00       		.byte	0
 19887 01d2 00       		.byte	0
 19888 01d3 26       		.uleb128 0x26
 19889 01d4 13       		.uleb128 0x13
 19890 01d5 01       		.byte	0x1
 19891 01d6 0B       		.uleb128 0xb
 19892 01d7 06       		.uleb128 0x6
 19893 01d8 3A       		.uleb128 0x3a
 19894 01d9 0B       		.uleb128 0xb
 19895 01da 3B       		.uleb128 0x3b
 19896 01db 0B       		.uleb128 0xb
 19897 01dc 01       		.uleb128 0x1
 19898 01dd 13       		.uleb128 0x13
 19899 01de 00       		.byte	0
 19900 01df 00       		.byte	0
 19901 01e0 27       		.uleb128 0x27
 19902 01e1 0D       		.uleb128 0xd
 19903 01e2 00       		.byte	0
 19904 01e3 03       		.uleb128 0x3
 19905 01e4 0E       		.uleb128 0xe
 19906 01e5 3A       		.uleb128 0x3a
 19907 01e6 0B       		.uleb128 0xb
 19908 01e7 3B       		.uleb128 0x3b
 19909 01e8 0B       		.uleb128 0xb
 19910 01e9 49       		.uleb128 0x49
 19911 01ea 13       		.uleb128 0x13
 19912 01eb 38       		.uleb128 0x38
ARM GAS  C:\Users\mathi\AppData\Local\Temp\ccXNOisu.s 			page 356


 19913 01ec 05       		.uleb128 0x5
 19914 01ed 00       		.byte	0
 19915 01ee 00       		.byte	0
 19916 01ef 28       		.uleb128 0x28
 19917 01f0 0D       		.uleb128 0xd
 19918 01f1 00       		.byte	0
 19919 01f2 03       		.uleb128 0x3
 19920 01f3 08       		.uleb128 0x8
 19921 01f4 3A       		.uleb128 0x3a
 19922 01f5 0B       		.uleb128 0xb
 19923 01f6 3B       		.uleb128 0x3b
 19924 01f7 0B       		.uleb128 0xb
 19925 01f8 49       		.uleb128 0x49
 19926 01f9 13       		.uleb128 0x13
 19927 01fa 38       		.uleb128 0x38
 19928 01fb 05       		.uleb128 0x5
 19929 01fc 00       		.byte	0
 19930 01fd 00       		.byte	0
 19931 01fe 29       		.uleb128 0x29
 19932 01ff 21       		.uleb128 0x21
 19933 0200 00       		.byte	0
 19934 0201 49       		.uleb128 0x49
 19935 0202 13       		.uleb128 0x13
 19936 0203 2F       		.uleb128 0x2f
 19937 0204 05       		.uleb128 0x5
 19938 0205 00       		.byte	0
 19939 0206 00       		.byte	0
 19940 0207 2A       		.uleb128 0x2a
 19941 0208 0D       		.uleb128 0xd
 19942 0209 00       		.byte	0
 19943 020a 03       		.uleb128 0x3
 19944 020b 0E       		.uleb128 0xe
 19945 020c 3A       		.uleb128 0x3a
 19946 020d 0B       		.uleb128 0xb
 19947 020e 3B       		.uleb128 0x3b
 19948 020f 0B       		.uleb128 0xb
 19949 0210 49       		.uleb128 0x49
 19950 0211 13       		.uleb128 0x13
 19951 0212 00       		.byte	0
 19952 0213 00       		.byte	0
 19953 0214 2B       		.uleb128 0x2b
 19954 0215 17       		.uleb128 0x17
 19955 0216 01       		.byte	0x1
 19956 0217 0B       		.uleb128 0xb
 19957 0218 0B       		.uleb128 0xb
 19958 0219 3A       		.uleb128 0x3a
 19959 021a 0B       		.uleb128 0xb
 19960 021b 3B       		.uleb128 0x3b
 19961 021c 05       		.uleb128 0x5
 19962 021d 01       		.uleb128 0x1
 19963 021e 13       		.uleb128 0x13
 19964 021f 00       		.byte	0
 19965 0220 00       		.byte	0
 19966 0221 2C       		.uleb128 0x2c
 19967 0222 13       		.uleb128 0x13
 19968 0223 00       		.byte	0
 19969 0224 03       		.uleb128 0x3
ARM GAS  C:\Users\mathi\AppData\Local\Temp\ccXNOisu.s 			page 357


 19970 0225 0E       		.uleb128 0xe
 19971 0226 3C       		.uleb128 0x3c
 19972 0227 19       		.uleb128 0x19
 19973 0228 00       		.byte	0
 19974 0229 00       		.byte	0
 19975 022a 2D       		.uleb128 0x2d
 19976 022b 13       		.uleb128 0x13
 19977 022c 01       		.byte	0x1
 19978 022d 03       		.uleb128 0x3
 19979 022e 0E       		.uleb128 0xe
 19980 022f 0B       		.uleb128 0xb
 19981 0230 05       		.uleb128 0x5
 19982 0231 3A       		.uleb128 0x3a
 19983 0232 0B       		.uleb128 0xb
 19984 0233 3B       		.uleb128 0x3b
 19985 0234 0B       		.uleb128 0xb
 19986 0235 01       		.uleb128 0x1
 19987 0236 13       		.uleb128 0x13
 19988 0237 00       		.byte	0
 19989 0238 00       		.byte	0
 19990 0239 2E       		.uleb128 0x2e
 19991 023a 15       		.uleb128 0x15
 19992 023b 00       		.byte	0
 19993 023c 27       		.uleb128 0x27
 19994 023d 19       		.uleb128 0x19
 19995 023e 00       		.byte	0
 19996 023f 00       		.byte	0
 19997 0240 2F       		.uleb128 0x2f
 19998 0241 34       		.uleb128 0x34
 19999 0242 00       		.byte	0
 20000 0243 03       		.uleb128 0x3
 20001 0244 08       		.uleb128 0x8
 20002 0245 3A       		.uleb128 0x3a
 20003 0246 0B       		.uleb128 0xb
 20004 0247 3B       		.uleb128 0x3b
 20005 0248 0B       		.uleb128 0xb
 20006 0249 49       		.uleb128 0x49
 20007 024a 13       		.uleb128 0x13
 20008 024b 3F       		.uleb128 0x3f
 20009 024c 19       		.uleb128 0x19
 20010 024d 3C       		.uleb128 0x3c
 20011 024e 19       		.uleb128 0x19
 20012 024f 00       		.byte	0
 20013 0250 00       		.byte	0
 20014 0251 30       		.uleb128 0x30
 20015 0252 21       		.uleb128 0x21
 20016 0253 00       		.byte	0
 20017 0254 00       		.byte	0
 20018 0255 00       		.byte	0
 20019 0256 31       		.uleb128 0x31
 20020 0257 2E       		.uleb128 0x2e
 20021 0258 01       		.byte	0x1
 20022 0259 3F       		.uleb128 0x3f
 20023 025a 19       		.uleb128 0x19
 20024 025b 03       		.uleb128 0x3
 20025 025c 0E       		.uleb128 0xe
 20026 025d 3A       		.uleb128 0x3a
ARM GAS  C:\Users\mathi\AppData\Local\Temp\ccXNOisu.s 			page 358


 20027 025e 0B       		.uleb128 0xb
 20028 025f 3B       		.uleb128 0x3b
 20029 0260 0B       		.uleb128 0xb
 20030 0261 27       		.uleb128 0x27
 20031 0262 19       		.uleb128 0x19
 20032 0263 49       		.uleb128 0x49
 20033 0264 13       		.uleb128 0x13
 20034 0265 11       		.uleb128 0x11
 20035 0266 01       		.uleb128 0x1
 20036 0267 12       		.uleb128 0x12
 20037 0268 06       		.uleb128 0x6
 20038 0269 40       		.uleb128 0x40
 20039 026a 18       		.uleb128 0x18
 20040 026b 9742     		.uleb128 0x2117
 20041 026d 19       		.uleb128 0x19
 20042 026e 01       		.uleb128 0x1
 20043 026f 13       		.uleb128 0x13
 20044 0270 00       		.byte	0
 20045 0271 00       		.byte	0
 20046 0272 32       		.uleb128 0x32
 20047 0273 34       		.uleb128 0x34
 20048 0274 00       		.byte	0
 20049 0275 03       		.uleb128 0x3
 20050 0276 08       		.uleb128 0x8
 20051 0277 3A       		.uleb128 0x3a
 20052 0278 0B       		.uleb128 0xb
 20053 0279 3B       		.uleb128 0x3b
 20054 027a 0B       		.uleb128 0xb
 20055 027b 49       		.uleb128 0x49
 20056 027c 13       		.uleb128 0x13
 20057 027d 02       		.uleb128 0x2
 20058 027e 18       		.uleb128 0x18
 20059 027f 00       		.byte	0
 20060 0280 00       		.byte	0
 20061 0281 33       		.uleb128 0x33
 20062 0282 34       		.uleb128 0x34
 20063 0283 00       		.byte	0
 20064 0284 03       		.uleb128 0x3
 20065 0285 0E       		.uleb128 0xe
 20066 0286 3A       		.uleb128 0x3a
 20067 0287 0B       		.uleb128 0xb
 20068 0288 3B       		.uleb128 0x3b
 20069 0289 0B       		.uleb128 0xb
 20070 028a 49       		.uleb128 0x49
 20071 028b 13       		.uleb128 0x13
 20072 028c 02       		.uleb128 0x2
 20073 028d 18       		.uleb128 0x18
 20074 028e 00       		.byte	0
 20075 028f 00       		.byte	0
 20076 0290 34       		.uleb128 0x34
 20077 0291 34       		.uleb128 0x34
 20078 0292 00       		.byte	0
 20079 0293 03       		.uleb128 0x3
 20080 0294 08       		.uleb128 0x8
 20081 0295 3A       		.uleb128 0x3a
 20082 0296 0B       		.uleb128 0xb
 20083 0297 3B       		.uleb128 0x3b
ARM GAS  C:\Users\mathi\AppData\Local\Temp\ccXNOisu.s 			page 359


 20084 0298 0B       		.uleb128 0xb
 20085 0299 49       		.uleb128 0x49
 20086 029a 13       		.uleb128 0x13
 20087 029b 00       		.byte	0
 20088 029c 00       		.byte	0
 20089 029d 35       		.uleb128 0x35
 20090 029e 34       		.uleb128 0x34
 20091 029f 00       		.byte	0
 20092 02a0 03       		.uleb128 0x3
 20093 02a1 08       		.uleb128 0x8
 20094 02a2 3A       		.uleb128 0x3a
 20095 02a3 0B       		.uleb128 0xb
 20096 02a4 3B       		.uleb128 0x3b
 20097 02a5 0B       		.uleb128 0xb
 20098 02a6 49       		.uleb128 0x49
 20099 02a7 13       		.uleb128 0x13
 20100 02a8 02       		.uleb128 0x2
 20101 02a9 17       		.uleb128 0x17
 20102 02aa 00       		.byte	0
 20103 02ab 00       		.byte	0
 20104 02ac 36       		.uleb128 0x36
 20105 02ad 34       		.uleb128 0x34
 20106 02ae 00       		.byte	0
 20107 02af 03       		.uleb128 0x3
 20108 02b0 0E       		.uleb128 0xe
 20109 02b1 3A       		.uleb128 0x3a
 20110 02b2 0B       		.uleb128 0xb
 20111 02b3 3B       		.uleb128 0x3b
 20112 02b4 0B       		.uleb128 0xb
 20113 02b5 49       		.uleb128 0x49
 20114 02b6 13       		.uleb128 0x13
 20115 02b7 02       		.uleb128 0x2
 20116 02b8 17       		.uleb128 0x17
 20117 02b9 00       		.byte	0
 20118 02ba 00       		.byte	0
 20119 02bb 37       		.uleb128 0x37
 20120 02bc 0B       		.uleb128 0xb
 20121 02bd 01       		.byte	0x1
 20122 02be 11       		.uleb128 0x11
 20123 02bf 01       		.uleb128 0x1
 20124 02c0 12       		.uleb128 0x12
 20125 02c1 06       		.uleb128 0x6
 20126 02c2 01       		.uleb128 0x1
 20127 02c3 13       		.uleb128 0x13
 20128 02c4 00       		.byte	0
 20129 02c5 00       		.byte	0
 20130 02c6 38       		.uleb128 0x38
 20131 02c7 34       		.uleb128 0x34
 20132 02c8 00       		.byte	0
 20133 02c9 03       		.uleb128 0x3
 20134 02ca 08       		.uleb128 0x8
 20135 02cb 3A       		.uleb128 0x3a
 20136 02cc 0B       		.uleb128 0xb
 20137 02cd 3B       		.uleb128 0x3b
 20138 02ce 05       		.uleb128 0x5
 20139 02cf 49       		.uleb128 0x49
 20140 02d0 13       		.uleb128 0x13
ARM GAS  C:\Users\mathi\AppData\Local\Temp\ccXNOisu.s 			page 360


 20141 02d1 02       		.uleb128 0x2
 20142 02d2 17       		.uleb128 0x17
 20143 02d3 00       		.byte	0
 20144 02d4 00       		.byte	0
 20145 02d5 39       		.uleb128 0x39
 20146 02d6 898201   		.uleb128 0x4109
 20147 02d9 00       		.byte	0
 20148 02da 11       		.uleb128 0x11
 20149 02db 01       		.uleb128 0x1
 20150 02dc 31       		.uleb128 0x31
 20151 02dd 13       		.uleb128 0x13
 20152 02de 00       		.byte	0
 20153 02df 00       		.byte	0
 20154 02e0 3A       		.uleb128 0x3a
 20155 02e1 0B       		.uleb128 0xb
 20156 02e2 01       		.byte	0x1
 20157 02e3 55       		.uleb128 0x55
 20158 02e4 17       		.uleb128 0x17
 20159 02e5 01       		.uleb128 0x1
 20160 02e6 13       		.uleb128 0x13
 20161 02e7 00       		.byte	0
 20162 02e8 00       		.byte	0
 20163 02e9 3B       		.uleb128 0x3b
 20164 02ea 898201   		.uleb128 0x4109
 20165 02ed 01       		.byte	0x1
 20166 02ee 11       		.uleb128 0x11
 20167 02ef 01       		.uleb128 0x1
 20168 02f0 31       		.uleb128 0x31
 20169 02f1 13       		.uleb128 0x13
 20170 02f2 01       		.uleb128 0x1
 20171 02f3 13       		.uleb128 0x13
 20172 02f4 00       		.byte	0
 20173 02f5 00       		.byte	0
 20174 02f6 3C       		.uleb128 0x3c
 20175 02f7 8A8201   		.uleb128 0x410a
 20176 02fa 00       		.byte	0
 20177 02fb 02       		.uleb128 0x2
 20178 02fc 18       		.uleb128 0x18
 20179 02fd 9142     		.uleb128 0x2111
 20180 02ff 18       		.uleb128 0x18
 20181 0300 00       		.byte	0
 20182 0301 00       		.byte	0
 20183 0302 3D       		.uleb128 0x3d
 20184 0303 898201   		.uleb128 0x4109
 20185 0306 01       		.byte	0x1
 20186 0307 11       		.uleb128 0x11
 20187 0308 01       		.uleb128 0x1
 20188 0309 31       		.uleb128 0x31
 20189 030a 13       		.uleb128 0x13
 20190 030b 00       		.byte	0
 20191 030c 00       		.byte	0
 20192 030d 3E       		.uleb128 0x3e
 20193 030e 2E       		.uleb128 0x2e
 20194 030f 00       		.byte	0
 20195 0310 3F       		.uleb128 0x3f
 20196 0311 19       		.uleb128 0x19
 20197 0312 3C       		.uleb128 0x3c
ARM GAS  C:\Users\mathi\AppData\Local\Temp\ccXNOisu.s 			page 361


 20198 0313 19       		.uleb128 0x19
 20199 0314 6E       		.uleb128 0x6e
 20200 0315 0E       		.uleb128 0xe
 20201 0316 03       		.uleb128 0x3
 20202 0317 0E       		.uleb128 0xe
 20203 0318 3A       		.uleb128 0x3a
 20204 0319 0B       		.uleb128 0xb
 20205 031a 3B       		.uleb128 0x3b
 20206 031b 0B       		.uleb128 0xb
 20207 031c 00       		.byte	0
 20208 031d 00       		.byte	0
 20209 031e 3F       		.uleb128 0x3f
 20210 031f 2E       		.uleb128 0x2e
 20211 0320 00       		.byte	0
 20212 0321 3F       		.uleb128 0x3f
 20213 0322 19       		.uleb128 0x19
 20214 0323 3C       		.uleb128 0x3c
 20215 0324 19       		.uleb128 0x19
 20216 0325 6E       		.uleb128 0x6e
 20217 0326 0E       		.uleb128 0xe
 20218 0327 03       		.uleb128 0x3
 20219 0328 0E       		.uleb128 0xe
 20220 0329 3A       		.uleb128 0x3a
 20221 032a 0B       		.uleb128 0xb
 20222 032b 3B       		.uleb128 0x3b
 20223 032c 0B       		.uleb128 0xb
 20224 032d 6E       		.uleb128 0x6e
 20225 032e 0E       		.uleb128 0xe
 20226 032f 00       		.byte	0
 20227 0330 00       		.byte	0
 20228 0331 00       		.byte	0
 20229              		.section	.debug_loc,"",%progbits
 20230              	.Ldebug_loc0:
 20231              	.LLST0:
 20232 0000 BE0A0000 		.4byte	.LVL120
 20233 0004 E00A0000 		.4byte	.LVL121
 20234 0008 0600     		.2byte	0x6
 20235 000a 03       		.byte	0x3
 20236 000b 00000000 		.4byte	accelero.13566
 20237 000f 9F       		.byte	0x9f
 20238 0010 E00A0000 		.4byte	.LVL121
 20239 0014 1A0B0000 		.4byte	.LVL122
 20240 0018 0600     		.2byte	0x6
 20241 001a 03       		.byte	0x3
 20242 001b 0B000000 		.4byte	accelero.13566+11
 20243 001f 9F       		.byte	0x9f
 20244 0020 00000000 		.4byte	0
 20245 0024 00000000 		.4byte	0
 20246              	.LLST1:
 20247 0028 10000000 		.4byte	.LVL0
 20248 002c DC000000 		.4byte	.LVL15
 20249 0030 0200     		.2byte	0x2
 20250 0032 30       		.byte	0x30
 20251 0033 9F       		.byte	0x9f
 20252 0034 F8000000 		.4byte	.LVL20
 20253 0038 26010000 		.4byte	.LVL22
 20254 003c 0100     		.2byte	0x1
ARM GAS  C:\Users\mathi\AppData\Local\Temp\ccXNOisu.s 			page 362


 20255 003e 56       		.byte	0x56
 20256 003f 26010000 		.4byte	.LVL22
 20257 0043 2C010000 		.4byte	.LVL23
 20258 0047 0200     		.2byte	0x2
 20259 0049 30       		.byte	0x30
 20260 004a 9F       		.byte	0x9f
 20261 004b 18020000 		.4byte	.LVL38
 20262 004f 46020000 		.4byte	.LVL40
 20263 0053 0100     		.2byte	0x1
 20264 0055 56       		.byte	0x56
 20265 0056 90020000 		.4byte	.LVL43
 20266 005a 1E040000 		.4byte	.LVL57
 20267 005e 0100     		.2byte	0x1
 20268 0060 56       		.byte	0x56
 20269 0061 DE190000 		.4byte	.LVL364
 20270 0065 8E1A0000 		.4byte	.LVL366
 20271 0069 0100     		.2byte	0x1
 20272 006b 56       		.byte	0x56
 20273 006c E61B0000 		.4byte	.LVL378
 20274 0070 021C0000 		.4byte	.LVL382
 20275 0074 0100     		.2byte	0x1
 20276 0076 56       		.byte	0x56
 20277 0077 12220000 		.4byte	.LVL541
 20278 007b B0220000 		.4byte	.LFE260
 20279 007f 0200     		.2byte	0x2
 20280 0081 30       		.byte	0x30
 20281 0082 9F       		.byte	0x9f
 20282 0083 00000000 		.4byte	0
 20283 0087 00000000 		.4byte	0
 20284              	.LLST2:
 20285 008b 10000000 		.4byte	.LVL0
 20286 008f DC000000 		.4byte	.LVL15
 20287 0093 0200     		.2byte	0x2
 20288 0095 30       		.byte	0x30
 20289 0096 9F       		.byte	0x9f
 20290 0097 FC000000 		.4byte	.LVL21
 20291 009b 26010000 		.4byte	.LVL22
 20292 009f 0100     		.2byte	0x1
 20293 00a1 50       		.byte	0x50
 20294 00a2 26010000 		.4byte	.LVL22
 20295 00a6 2C010000 		.4byte	.LVL23
 20296 00aa 0200     		.2byte	0x2
 20297 00ac 30       		.byte	0x30
 20298 00ad 9F       		.byte	0x9f
 20299 00ae 1C020000 		.4byte	.LVL39
 20300 00b2 46020000 		.4byte	.LVL40
 20301 00b6 0100     		.2byte	0x1
 20302 00b8 50       		.byte	0x50
 20303 00b9 90020000 		.4byte	.LVL43
 20304 00bd 9E020000 		.4byte	.LVL44
 20305 00c1 0100     		.2byte	0x1
 20306 00c3 50       		.byte	0x50
 20307 00c4 B0020000 		.4byte	.LVL47
 20308 00c8 6A030000 		.4byte	.LVL48
 20309 00cc 0100     		.2byte	0x1
 20310 00ce 50       		.byte	0x50
 20311 00cf 7C030000 		.4byte	.LVL50
ARM GAS  C:\Users\mathi\AppData\Local\Temp\ccXNOisu.s 			page 363


 20312 00d3 8A030000 		.4byte	.LVL51
 20313 00d7 0100     		.2byte	0x1
 20314 00d9 50       		.byte	0x50
 20315 00da 9C030000 		.4byte	.LVL54
 20316 00de 0C040000 		.4byte	.LVL55
 20317 00e2 0100     		.2byte	0x1
 20318 00e4 50       		.byte	0x50
 20319 00e5 DE190000 		.4byte	.LVL364
 20320 00e9 8E1A0000 		.4byte	.LVL366
 20321 00ed 0100     		.2byte	0x1
 20322 00ef 50       		.byte	0x50
 20323 00f0 E61B0000 		.4byte	.LVL378
 20324 00f4 E91B0000 		.4byte	.LVL379-1
 20325 00f8 0100     		.2byte	0x1
 20326 00fa 50       		.byte	0x50
 20327 00fb F41B0000 		.4byte	.LVL380
 20328 00ff F71B0000 		.4byte	.LVL381-1
 20329 0103 0100     		.2byte	0x1
 20330 0105 50       		.byte	0x50
 20331 0106 12220000 		.4byte	.LVL541
 20332 010a B0220000 		.4byte	.LFE260
 20333 010e 0200     		.2byte	0x2
 20334 0110 30       		.byte	0x30
 20335 0111 9F       		.byte	0x9f
 20336 0112 00000000 		.4byte	0
 20337 0116 00000000 		.4byte	0
 20338              	.LLST3:
 20339 011a 10000000 		.4byte	.LVL0
 20340 011e DC000000 		.4byte	.LVL15
 20341 0122 0200     		.2byte	0x2
 20342 0124 30       		.byte	0x30
 20343 0125 9F       		.byte	0x9f
 20344 0126 DC000000 		.4byte	.LVL15
 20345 012a 26010000 		.4byte	.LVL22
 20346 012e 0300     		.2byte	0x3
 20347 0130 91       		.byte	0x91
 20348 0131 907F     		.sleb128 -112
 20349 0133 26010000 		.4byte	.LVL22
 20350 0137 2C010000 		.4byte	.LVL23
 20351 013b 0200     		.2byte	0x2
 20352 013d 30       		.byte	0x30
 20353 013e 9F       		.byte	0x9f
 20354 013f 2C010000 		.4byte	.LVL23
 20355 0143 9E020000 		.4byte	.LVL44
 20356 0147 0300     		.2byte	0x3
 20357 0149 91       		.byte	0x91
 20358 014a 907F     		.sleb128 -112
 20359 014c 9E020000 		.4byte	.LVL44
 20360 0150 B0020000 		.4byte	.LVL47
 20361 0154 0100     		.2byte	0x1
 20362 0156 56       		.byte	0x56
 20363 0157 B0020000 		.4byte	.LVL47
 20364 015b 8A030000 		.4byte	.LVL51
 20365 015f 0300     		.2byte	0x3
 20366 0161 91       		.byte	0x91
 20367 0162 907F     		.sleb128 -112
 20368 0164 8A030000 		.4byte	.LVL51
ARM GAS  C:\Users\mathi\AppData\Local\Temp\ccXNOisu.s 			page 364


 20369 0168 9C030000 		.4byte	.LVL54
 20370 016c 0100     		.2byte	0x1
 20371 016e 56       		.byte	0x56
 20372 016f 9C030000 		.4byte	.LVL54
 20373 0173 12220000 		.4byte	.LVL541
 20374 0177 0300     		.2byte	0x3
 20375 0179 91       		.byte	0x91
 20376 017a 907F     		.sleb128 -112
 20377 017c 12220000 		.4byte	.LVL541
 20378 0180 B0220000 		.4byte	.LFE260
 20379 0184 0200     		.2byte	0x2
 20380 0186 30       		.byte	0x30
 20381 0187 9F       		.byte	0x9f
 20382 0188 00000000 		.4byte	0
 20383 018c 00000000 		.4byte	0
 20384              	.LLST4:
 20385 0190 10000000 		.4byte	.LVL0
 20386 0194 2C000000 		.4byte	.LVL3
 20387 0198 0200     		.2byte	0x2
 20388 019a 30       		.byte	0x30
 20389 019b 9F       		.byte	0x9f
 20390 019c 2C000000 		.4byte	.LVL3
 20391 01a0 C6000000 		.4byte	.LVL14
 20392 01a4 0300     		.2byte	0x3
 20393 01a6 91       		.byte	0x91
 20394 01a7 947F     		.sleb128 -108
 20395 01a9 26010000 		.4byte	.LVL22
 20396 01ad 2C010000 		.4byte	.LVL23
 20397 01b1 0200     		.2byte	0x2
 20398 01b3 30       		.byte	0x30
 20399 01b4 9F       		.byte	0x9f
 20400 01b5 12220000 		.4byte	.LVL541
 20401 01b9 1E220000 		.4byte	.LVL543
 20402 01bd 0300     		.2byte	0x3
 20403 01bf 91       		.byte	0x91
 20404 01c0 947F     		.sleb128 -108
 20405 01c2 2E220000 		.4byte	.LVL545
 20406 01c6 B0220000 		.4byte	.LFE260
 20407 01ca 0200     		.2byte	0x2
 20408 01cc 30       		.byte	0x30
 20409 01cd 9F       		.byte	0x9f
 20410 01ce 00000000 		.4byte	0
 20411 01d2 00000000 		.4byte	0
 20412              	.LLST5:
 20413 01d6 10000000 		.4byte	.LVL0
 20414 01da DC000000 		.4byte	.LVL15
 20415 01de 0200     		.2byte	0x2
 20416 01e0 30       		.byte	0x30
 20417 01e1 9F       		.byte	0x9f
 20418 01e2 26010000 		.4byte	.LVL22
 20419 01e6 2C010000 		.4byte	.LVL23
 20420 01ea 0200     		.2byte	0x2
 20421 01ec 30       		.byte	0x30
 20422 01ed 9F       		.byte	0x9f
 20423 01ee 14080000 		.4byte	.LVL88
 20424 01f2 54080000 		.4byte	.LVL89
 20425 01f6 0100     		.2byte	0x1
ARM GAS  C:\Users\mathi\AppData\Local\Temp\ccXNOisu.s 			page 365


 20426 01f8 50       		.byte	0x50
 20427 01f9 12220000 		.4byte	.LVL541
 20428 01fd B0220000 		.4byte	.LFE260
 20429 0201 0200     		.2byte	0x2
 20430 0203 30       		.byte	0x30
 20431 0204 9F       		.byte	0x9f
 20432 0205 00000000 		.4byte	0
 20433 0209 00000000 		.4byte	0
 20434              	.LLST6:
 20435 020d 10000000 		.4byte	.LVL0
 20436 0211 C6000000 		.4byte	.LVL14
 20437 0215 0200     		.2byte	0x2
 20438 0217 30       		.byte	0x30
 20439 0218 9F       		.byte	0x9f
 20440 0219 26010000 		.4byte	.LVL22
 20441 021d 2C010000 		.4byte	.LVL23
 20442 0221 0200     		.2byte	0x2
 20443 0223 30       		.byte	0x30
 20444 0224 9F       		.byte	0x9f
 20445 0225 12220000 		.4byte	.LVL541
 20446 0229 2E220000 		.4byte	.LVL545
 20447 022d 0200     		.2byte	0x2
 20448 022f 30       		.byte	0x30
 20449 0230 9F       		.byte	0x9f
 20450 0231 2E220000 		.4byte	.LVL545
 20451 0235 B0220000 		.4byte	.LFE260
 20452 0239 0200     		.2byte	0x2
 20453 023b 31       		.byte	0x31
 20454 023c 9F       		.byte	0x9f
 20455 023d 00000000 		.4byte	0
 20456 0241 00000000 		.4byte	0
 20457              	.LLST7:
 20458 0245 10000000 		.4byte	.LVL0
 20459 0249 DC000000 		.4byte	.LVL15
 20460 024d 0200     		.2byte	0x2
 20461 024f 30       		.byte	0x30
 20462 0250 9F       		.byte	0x9f
 20463 0251 DC000000 		.4byte	.LVL15
 20464 0255 26010000 		.4byte	.LVL22
 20465 0259 0300     		.2byte	0x3
 20466 025b 91       		.byte	0x91
 20467 025c B47F     		.sleb128 -76
 20468 025e 26010000 		.4byte	.LVL22
 20469 0262 2C010000 		.4byte	.LVL23
 20470 0266 0200     		.2byte	0x2
 20471 0268 30       		.byte	0x30
 20472 0269 9F       		.byte	0x9f
 20473 026a FC010000 		.4byte	.LVL33
 20474 026e 04020000 		.4byte	.LVL34
 20475 0272 0300     		.2byte	0x3
 20476 0274 91       		.byte	0x91
 20477 0275 B47F     		.sleb128 -76
 20478 0277 90020000 		.4byte	.LVL43
 20479 027b 7C030000 		.4byte	.LVL50
 20480 027f 0300     		.2byte	0x3
 20481 0281 91       		.byte	0x91
 20482 0282 B47F     		.sleb128 -76
ARM GAS  C:\Users\mathi\AppData\Local\Temp\ccXNOisu.s 			page 366


 20483 0284 FA080000 		.4byte	.LVL100
 20484 0288 FC080000 		.4byte	.LVL101
 20485 028c 0100     		.2byte	0x1
 20486 028e 52       		.byte	0x52
 20487 028f FC080000 		.4byte	.LVL101
 20488 0293 04090000 		.4byte	.LVL102
 20489 0297 0300     		.2byte	0x3
 20490 0299 91       		.byte	0x91
 20491 029a B47F     		.sleb128 -76
 20492 029c DE190000 		.4byte	.LVL364
 20493 02a0 801A0000 		.4byte	.LVL365
 20494 02a4 0300     		.2byte	0x3
 20495 02a6 91       		.byte	0x91
 20496 02a7 B47F     		.sleb128 -76
 20497 02a9 E61B0000 		.4byte	.LVL378
 20498 02ad F41B0000 		.4byte	.LVL380
 20499 02b1 0300     		.2byte	0x3
 20500 02b3 91       		.byte	0x91
 20501 02b4 B47F     		.sleb128 -76
 20502 02b6 12220000 		.4byte	.LVL541
 20503 02ba B0220000 		.4byte	.LFE260
 20504 02be 0200     		.2byte	0x2
 20505 02c0 30       		.byte	0x30
 20506 02c1 9F       		.byte	0x9f
 20507 02c2 00000000 		.4byte	0
 20508 02c6 00000000 		.4byte	0
 20509              	.LLST9:
 20510 02ca 140D0000 		.4byte	.LVL139
 20511 02ce 260D0000 		.4byte	.LVL141
 20512 02d2 0100     		.2byte	0x1
 20513 02d4 54       		.byte	0x54
 20514 02d5 00000000 		.4byte	0
 20515 02d9 00000000 		.4byte	0
 20516              	.LLST8:
 20517 02dd 52100000 		.4byte	.LVL176
 20518 02e1 7C100000 		.4byte	.LVL183
 20519 02e5 0200     		.2byte	0x2
 20520 02e7 30       		.byte	0x30
 20521 02e8 9F       		.byte	0x9f
 20522 02e9 2E1C0000 		.4byte	.LVL386
 20523 02ed 481C0000 		.4byte	.LVL391
 20524 02f1 0200     		.2byte	0x2
 20525 02f3 30       		.byte	0x30
 20526 02f4 9F       		.byte	0x9f
 20527 02f5 E81C0000 		.4byte	.LVL404
 20528 02f9 121D0000 		.4byte	.LVL411
 20529 02fd 0200     		.2byte	0x2
 20530 02ff 30       		.byte	0x30
 20531 0300 9F       		.byte	0x9f
 20532 0301 00000000 		.4byte	0
 20533 0305 00000000 		.4byte	0
 20534              		.section	.debug_aranges,"",%progbits
 20535 0000 1C000000 		.4byte	0x1c
 20536 0004 0200     		.2byte	0x2
 20537 0006 00000000 		.4byte	.Ldebug_info0
 20538 000a 04       		.byte	0x4
 20539 000b 00       		.byte	0
ARM GAS  C:\Users\mathi\AppData\Local\Temp\ccXNOisu.s 			page 367


 20540 000c 0000     		.2byte	0
 20541 000e 0000     		.2byte	0
 20542 0010 00000000 		.4byte	.LFB260
 20543 0014 B0220000 		.4byte	.LFE260-.LFB260
 20544 0018 00000000 		.4byte	0
 20545 001c 00000000 		.4byte	0
 20546              		.section	.debug_ranges,"",%progbits
 20547              	.Ldebug_ranges0:
 20548 0000 BA010000 		.4byte	.LBB2
 20549 0004 FC010000 		.4byte	.LBE2
 20550 0008 0C0E0000 		.4byte	.LBB4
 20551 000c AA190000 		.4byte	.LBE4
 20552 0010 C4190000 		.4byte	.LBB5
 20553 0014 DE190000 		.4byte	.LBE5
 20554 0018 261C0000 		.4byte	.LBB6
 20555 001c 12220000 		.4byte	.LBE6
 20556 0020 00000000 		.4byte	0
 20557 0024 00000000 		.4byte	0
 20558 0028 00000000 		.4byte	.LFB260
 20559 002c B0220000 		.4byte	.LFE260
 20560 0030 00000000 		.4byte	0
 20561 0034 00000000 		.4byte	0
 20562              		.section	.debug_line,"",%progbits
 20563              	.Ldebug_line0:
 20564 0000 B4170000 		.section	.debug_str,"MS",%progbits,1
 20564      02004A0D 
 20564      00000201 
 20564      FB0E0D00 
 20564      01010101 
 20565              	.LASF582:
 20566 0000 5553425F 		.ascii	"USB_STOP\000"
 20566      53544F50 
 20566      00
 20567              	.LASF195:
 20568 0009 706F7274 		.ascii	"port_intctx\000"
 20568      5F696E74 
 20568      63747800 
 20569              	.LASF204:
 20570 0015 63685F74 		.ascii	"ch_trace_buffer_t\000"
 20570      72616365 
 20570      5F627566 
 20570      6665725F 
 20570      7400
 20571              	.LASF237:
 20572 0027 63685F70 		.ascii	"ch_ptrsize\000"
 20572      74727369 
 20572      7A6500
 20573              	.LASF763:
 20574 0032 6D657373 		.ascii	"messagebus_watcher_s\000"
 20574      61676562 
 20574      75735F77 
 20574      61746368 
 20574      65725F73 
 20575              	.LASF518:
 20576 0047 6576656E 		.ascii	"event\000"
 20576      7400
 20577              	.LASF860:
ARM GAS  C:\Users\mathi\AppData\Local\Temp\ccXNOisu.s 			page 368


 20578 004d 5F6D6272 		.ascii	"_mbrtowc_state\000"
 20578      746F7763 
 20578      5F737461 
 20578      746500
 20579              	.LASF905:
 20580 005c 53414E44 		.ascii	"SANDSTORMS\000"
 20580      53544F52 
 20580      4D5300
 20581              	.LASF368:
 20582 0067 43414E5F 		.ascii	"CAN_STARTING\000"
 20582      53544152 
 20582      54494E47 
 20582      00
 20583              	.LASF923:
 20584 0074 4C45445F 		.ascii	"LED_nbr\000"
 20584      6E627200 
 20585              	.LASF953:
 20586 007c 6765745A 		.ascii	"getZAxisGyro\000"
 20586      41786973 
 20586      4779726F 
 20586      00
 20587              	.LASF1009:
 20588 0089 564C3533 		.ascii	"VL53L0X_get_dist_mm\000"
 20588      4C30585F 
 20588      6765745F 
 20588      64697374 
 20588      5F6D6D00 
 20589              	.LASF725:
 20590 009d 44434D49 		.ascii	"DCMI_ACTIVE_ONESHOT\000"
 20590      5F414354 
 20590      4956455F 
 20590      4F4E4553 
 20590      484F5400 
 20591              	.LASF32:
 20592 00b1 6D73675F 		.ascii	"msg_t\000"
 20592      7400
 20593              	.LASF313:
 20594 00b7 61667268 		.ascii	"afrh\000"
 20594      00
 20595              	.LASF461:
 20596 00bc 4F504D4F 		.ascii	"OPMODE_SMBUS_DEVICE\000"
 20596      44455F53 
 20596      4D425553 
 20596      5F444556 
 20596      49434500 
 20597              	.LASF215:
 20598 00d0 6D5F6372 		.ascii	"m_crit_isr\000"
 20598      69745F69 
 20598      737200
 20599              	.LASF962:
 20600 00db 655F6765 		.ascii	"e_get_steps_left\000"
 20600      745F7374 
 20600      6570735F 
 20600      6C656674 
 20600      00
 20601              	.LASF922:
 20602 00ec 706F7369 		.ascii	"positionl\000"
ARM GAS  C:\Users\mathi\AppData\Local\Temp\ccXNOisu.s 			page 369


 20602      74696F6E 
 20602      6C00
 20603              	.LASF921:
 20604 00f6 706F7369 		.ascii	"positionr\000"
 20604      74696F6E 
 20604      7200
 20605              	.LASF946:
 20606 0100 62617474 		.ascii	"battValue\000"
 20606      56616C75 
 20606      6500
 20607              	.LASF891:
 20608 010a 76656374 		.ascii	"vect\000"
 20608      00
 20609              	.LASF641:
 20610 010f 44494550 		.ascii	"DIEPTXF0\000"
 20610      54584630 
 20610      00
 20611              	.LASF717:
 20612 0118 55534244 		.ascii	"USBD1\000"
 20612      3100
 20613              	.LASF367:
 20614 011e 43414E5F 		.ascii	"CAN_STOP\000"
 20614      53544F50 
 20614      00
 20615              	.LASF250:
 20616 0127 63665F6F 		.ascii	"cf_off_time\000"
 20616      66665F74 
 20616      696D6500 
 20617              	.LASF91:
 20618 0133 63685F73 		.ascii	"ch_system_t\000"
 20618      79737465 
 20618      6D5F7400 
 20619              	.LASF1:
 20620 013f 5F5F7569 		.ascii	"__uint8_t\000"
 20620      6E74385F 
 20620      7400
 20621              	.LASF221:
 20622 0149 77747365 		.ascii	"wtsemp\000"
 20622      6D7000
 20623              	.LASF909:
 20624 0150 4D4C5F53 		.ascii	"ML_SIMPLE_PLAY\000"
 20624      494D504C 
 20624      455F504C 
 20624      415900
 20625              	.LASF297:
 20626 015f 5F426F6F 		.ascii	"_Bool\000"
 20626      6C00
 20627              	.LASF409:
 20628 0165 64617461 		.ascii	"datamode\000"
 20628      6D6F6465 
 20628      00
 20629              	.LASF477:
 20630 016e 646D6172 		.ascii	"dmarx\000"
 20630      7800
 20631              	.LASF482:
 20632 0174 4932535F 		.ascii	"I2S_READY\000"
 20632      52454144 
ARM GAS  C:\Users\mathi\AppData\Local\Temp\ccXNOisu.s 			page 370


 20632      5900
 20633              	.LASF793:
 20634 017e 5F617465 		.ascii	"_atexit\000"
 20634      78697400 
 20635              	.LASF993:
 20636 0186 655F7561 		.ascii	"e_uart2_sending\000"
 20636      7274325F 
 20636      73656E64 
 20636      696E6700 
 20637              	.LASF1011:
 20638 0196 655F7265 		.ascii	"e_read_acc_spheric\000"
 20638      61645F61 
 20638      63635F73 
 20638      70686572 
 20638      696300
 20639              	.LASF972:
 20640 01a9 655F6765 		.ascii	"e_get_ambient_light\000"
 20640      745F616D 
 20640      6269656E 
 20640      745F6C69 
 20640      67687400 
 20641              	.LASF875:
 20642 01bd 6368616E 		.ascii	"changed_cnt\000"
 20642      6765645F 
 20642      636E7400 
 20643              	.LASF872:
 20644 01c9 7375626F 		.ascii	"suboptarg\000"
 20644      70746172 
 20644      6700
 20645              	.LASF357:
 20646 01d3 73717231 		.ascii	"sqr1\000"
 20646      00
 20647              	.LASF760:
 20648 01d8 7075626C 		.ascii	"published\000"
 20648      69736865 
 20648      6400
 20649              	.LASF284:
 20650 01e2 424C4B5F 		.ascii	"BLK_UNINIT\000"
 20650      554E494E 
 20650      495400
 20651              	.LASF489:
 20652 01ed 72785F62 		.ascii	"rx_buffer\000"
 20652      75666665 
 20652      7200
 20653              	.LASF473:
 20654 01f7 6572726F 		.ascii	"errors\000"
 20654      727300
 20655              	.LASF947:
 20656 01fe 67756D73 		.ascii	"gumstix_connected\000"
 20656      7469785F 
 20656      636F6E6E 
 20656      65637465 
 20656      6400
 20657              	.LASF208:
 20658 0210 776F7273 		.ascii	"worst\000"
 20658      7400
 20659              	.LASF84:
ARM GAS  C:\Users\mathi\AppData\Local\Temp\ccXNOisu.s 			page 371


 20660 0216 76745F73 		.ascii	"vt_systime\000"
 20660      79737469 
 20660      6D6500
 20661              	.LASF150:
 20662 0221 444F5231 		.ascii	"DOR1\000"
 20662      00
 20663              	.LASF151:
 20664 0226 444F5232 		.ascii	"DOR2\000"
 20664      00
 20665              	.LASF488:
 20666 022b 74785F62 		.ascii	"tx_buffer\000"
 20666      75666665 
 20666      7200
 20667              	.LASF783:
 20668 0235 5F5F746D 		.ascii	"__tm_mon\000"
 20668      5F6D6F6E 
 20668      00
 20669              	.LASF791:
 20670 023e 5F666E74 		.ascii	"_fntypes\000"
 20670      79706573 
 20670      00
 20671              	.LASF230:
 20672 0247 6D5F6E65 		.ascii	"m_next\000"
 20672      787400
 20673              	.LASF317:
 20674 024e 50434461 		.ascii	"PCData\000"
 20674      746100
 20675              	.LASF1014:
 20676 0255 474E5520 		.ascii	"GNU C11 7.2.1 20170904 (release) [ARM/embedded-7-br"
 20676      43313120 
 20676      372E322E 
 20676      31203230 
 20676      31373039 
 20677 0288 616E6368 		.ascii	"anch revision 255204] -mcpu=cortex-m4 -mfloat-abi=h"
 20677      20726576 
 20677      6973696F 
 20677      6E203235 
 20677      35323034 
 20678 02bb 61726420 		.ascii	"ard -mfpu=fpv4-sp-d16 -mno-thumb-interwork -mthumb "
 20678      2D6D6670 
 20678      753D6670 
 20678      76342D73 
 20678      702D6431 
 20679 02ee 2D676764 		.ascii	"-ggdb -O3 -fomit-frame-pointer -falign-functions=16"
 20679      62202D4F 
 20679      33202D66 
 20679      6F6D6974 
 20679      2D667261 
 20680 0321 202D666E 		.ascii	" -fno-strict-aliasing -fstack-protector-all -ffunct"
 20680      6F2D7374 
 20680      72696374 
 20680      2D616C69 
 20680      6173696E 
 20681 0354 696F6E2D 		.ascii	"ion-sections -fdata-sections -fno-common -fsingle-p"
 20681      73656374 
 20681      696F6E73 
 20681      202D6664 
ARM GAS  C:\Users\mathi\AppData\Local\Temp\ccXNOisu.s 			page 372


 20681      6174612D 
 20682 0387 72656369 		.ascii	"recision-constant\000"
 20682      73696F6E 
 20682      2D636F6E 
 20682      7374616E 
 20682      7400
 20683              	.LASF821:
 20684 0399 5F696E63 		.ascii	"_inc\000"
 20684      00
 20685              	.LASF794:
 20686 039e 5F696E64 		.ascii	"_ind\000"
 20686      00
 20687              	.LASF180:
 20688 03a3 4D41534B 		.ascii	"MASK\000"
 20688      00
 20689              	.LASF342:
 20690 03a8 73616D70 		.ascii	"samples\000"
 20690      6C657300 
 20691              	.LASF645:
 20692 03b0 47434346 		.ascii	"GCCFG\000"
 20692      4700
 20693              	.LASF894:
 20694 03b6 57455F41 		.ascii	"WE_ARE_THE_CHAMPIONS\000"
 20694      52455F54 
 20694      48455F43 
 20694      48414D50 
 20694      494F4E53 
 20695              	.LASF438:
 20696 03cb 42445452 		.ascii	"BDTR\000"
 20696      00
 20697              	.LASF391:
 20698 03d0 7265676D 		.ascii	"regmask\000"
 20698      61736B00 
 20699              	.LASF935:
 20700 03d8 63616D5F 		.ascii	"cam_zoom\000"
 20700      7A6F6F6D 
 20700      00
 20701              	.LASF471:
 20702 03e1 49324343 		.ascii	"I2CConfig\000"
 20702      6F6E6669 
 20702      6700
 20703              	.LASF19:
 20704 03eb 75696E74 		.ascii	"uint16_t\000"
 20704      31365F74 
 20704      00
 20705              	.LASF478:
 20706 03f4 646D6174 		.ascii	"dmatx\000"
 20706      7800
 20707              	.LASF715:
 20708 03fa 736F665F 		.ascii	"sof_cb\000"
 20708      636200
 20709              	.LASF414:
 20710 0401 4558545F 		.ascii	"EXT_ACTIVE\000"
 20710      41435449 
 20710      564500
 20711              	.LASF800:
 20712 040c 5F666C61 		.ascii	"_flags\000"
ARM GAS  C:\Users\mathi\AppData\Local\Temp\ccXNOisu.s 			page 373


 20712      677300
 20713              	.LASF762:
 20714 0413 6E657874 		.ascii	"next\000"
 20714      00
 20715              	.LASF310:
 20716 0418 6F737065 		.ascii	"ospeedr\000"
 20716      65647200 
 20717              	.LASF1002:
 20718 0420 655F6163 		.ascii	"e_acc_calibr\000"
 20718      635F6361 
 20718      6C696272 
 20718      00
 20719              	.LASF648:
 20720 042d 44494550 		.ascii	"DIEPTXF\000"
 20720      54584600 
 20721              	.LASF256:
 20722 0435 656C5F6E 		.ascii	"el_next\000"
 20722      65787400 
 20723              	.LASF915:
 20724 043d 696E636C 		.ascii	"inclination\000"
 20724      696E6174 
 20724      696F6E00 
 20725              	.LASF337:
 20726 0449 4144435F 		.ascii	"ADC_ERR_OVERFLOW\000"
 20726      4552525F 
 20726      4F564552 
 20726      464C4F57 
 20726      00
 20727              	.LASF831:
 20728 045a 5F637674 		.ascii	"_cvtlen\000"
 20728      6C656E00 
 20729              	.LASF914:
 20730 0462 6F726965 		.ascii	"orientation\000"
 20730      6E746174 
 20730      696F6E00 
 20731              	.LASF89:
 20732 046e 6C6F636B 		.ascii	"lock_cnt\000"
 20732      5F636E74 
 20732      00
 20733              	.LASF65:
 20734 0477 63685F74 		.ascii	"ch_threads_queue\000"
 20734      68726561 
 20734      64735F71 
 20734      75657565 
 20734      00
 20735              	.LASF835:
 20736 0488 5F736967 		.ascii	"_sig_func\000"
 20736      5F66756E 
 20736      6300
 20737              	.LASF43:
 20738 0492 705F6E65 		.ascii	"p_newer\000"
 20738      77657200 
 20739              	.LASF658:
 20740 049a 48505254 		.ascii	"HPRT\000"
 20740      00
 20741              	.LASF973:
 20742 049f 655F696E 		.ascii	"e_init_sound\000"
ARM GAS  C:\Users\mathi\AppData\Local\Temp\ccXNOisu.s 			page 374


 20742      69745F73 
 20742      6F756E64 
 20742      00
 20743              	.LASF612:
 20744 04ac 4843494E 		.ascii	"HCINT\000"
 20744      5400
 20745              	.LASF940:
 20746 04b2 7267625F 		.ascii	"rgb_value\000"
 20746      76616C75 
 20746      6500
 20747              	.LASF100:
 20748 04bc 534D5052 		.ascii	"SMPR1\000"
 20748      3100
 20749              	.LASF101:
 20750 04c2 534D5052 		.ascii	"SMPR2\000"
 20750      3200
 20751              	.LASF247:
 20752 04c8 63665F6F 		.ascii	"cf_off_flags\000"
 20752      66665F66 
 20752      6C616773 
 20752      00
 20753              	.LASF813:
 20754 04d5 5F6C6F63 		.ascii	"_lock\000"
 20754      6B00
 20755              	.LASF809:
 20756 04db 5F6E6275 		.ascii	"_nbuf\000"
 20756      6600
 20757              	.LASF551:
 20758 04e1 5350495F 		.ascii	"SPI_STOP\000"
 20758      53544F50 
 20758      00
 20759              	.LASF505:
 20760 04ea 70776D63 		.ascii	"pwmchnmsk_t\000"
 20760      686E6D73 
 20760      6B5F7400 
 20761              	.LASF893:
 20762 04f6 494D504F 		.ascii	"IMPOSSIBLE_MISSION\000"
 20762      53534942 
 20762      4C455F4D 
 20762      49535349 
 20762      4F4E00
 20763              	.LASF316:
 20764 0509 50424461 		.ascii	"PBData\000"
 20764      746100
 20765              	.LASF235:
 20766 0510 63685F73 		.ascii	"ch_size\000"
 20766      697A6500 
 20767              	.LASF722:
 20768 0518 44434D49 		.ascii	"DCMI_STOP\000"
 20768      5F53544F 
 20768      5000
 20769              	.LASF654:
 20770 0522 48505458 		.ascii	"HPTXSTS\000"
 20770      53545300 
 20771              	.LASF309:
 20772 052a 6F747970 		.ascii	"otyper\000"
 20772      657200
ARM GAS  C:\Users\mathi\AppData\Local\Temp\ccXNOisu.s 			page 375


 20773              	.LASF300:
 20774 0531 4F545950 		.ascii	"OTYPER\000"
 20774      455200
 20775              	.LASF393:
 20776 0538 64616370 		.ascii	"dacparams_t\000"
 20776      6172616D 
 20776      735F7400 
 20777              	.LASF529:
 20778 0544 5344435F 		.ascii	"SDC_MODE_1BIT\000"
 20778      4D4F4445 
 20778      5F314249 
 20778      5400
 20779              	.LASF610:
 20780 0552 48434348 		.ascii	"HCCHAR\000"
 20780      415200
 20781              	.LASF967:
 20782 0559 655F6361 		.ascii	"e_calibrate_ir\000"
 20782      6C696272 
 20782      6174655F 
 20782      697200
 20783              	.LASF790:
 20784 0568 5F64736F 		.ascii	"_dso_handle\000"
 20784      5F68616E 
 20784      646C6500 
 20785              	.LASF455:
 20786 0574 4932435F 		.ascii	"I2C_ACTIVE_RX\000"
 20786      41435449 
 20786      56455F52 
 20786      5800
 20787              	.LASF38:
 20788 0582 74687265 		.ascii	"thread_t\000"
 20788      61645F74 
 20788      00
 20789              	.LASF258:
 20790 058b 656C5F65 		.ascii	"el_events\000"
 20790      76656E74 
 20790      7300
 20791              	.LASF498:
 20792 0595 70776D73 		.ascii	"pwmstate_t\000"
 20792      74617465 
 20792      5F7400
 20793              	.LASF378:
 20794 05a0 736C6565 		.ascii	"sleep_event\000"
 20794      705F6576 
 20794      656E7400 
 20795              	.LASF83:
 20796 05ac 63685F76 		.ascii	"ch_virtual_timers_list\000"
 20796      69727475 
 20796      616C5F74 
 20796      696D6572 
 20796      735F6C69 
 20797              	.LASF281:
 20798 05c3 76656374 		.ascii	"vector\000"
 20798      6F7200
 20799              	.LASF20:
 20800 05ca 696E7433 		.ascii	"int32_t\000"
 20800      325F7400 
ARM GAS  C:\Users\mathi\AppData\Local\Temp\ccXNOisu.s 			page 376


 20801              	.LASF855:
 20802 05d2 5F776374 		.ascii	"_wctomb_state\000"
 20802      6F6D625F 
 20802      73746174 
 20802      6500
 20803              	.LASF964:
 20804 05e0 655F7365 		.ascii	"e_set_led\000"
 20804      745F6C65 
 20804      6400
 20805              	.LASF469:
 20806 05ea 636C6F63 		.ascii	"clock_speed\000"
 20806      6B5F7370 
 20806      65656400 
 20807              	.LASF37:
 20808 05f6 73797374 		.ascii	"systime_t\000"
 20808      696D655F 
 20808      7400
 20809              	.LASF411:
 20810 0600 44414344 		.ascii	"DACD2\000"
 20810      3200
 20811              	.LASF380:
 20812 0606 43414E44 		.ascii	"CANDriver\000"
 20812      72697665 
 20812      7200
 20813              	.LASF245:
 20814 0610 63665F6F 		.ascii	"cf_off_stklimit\000"
 20814      66665F73 
 20814      746B6C69 
 20814      6D697400 
 20815              	.LASF161:
 20816 0620 4D304152 		.ascii	"M0AR\000"
 20816      00
 20817              	.LASF984:
 20818 0625 655F6765 		.ascii	"e_get_data\000"
 20818      745F6461 
 20818      746100
 20819              	.LASF617:
 20820 0630 72657376 		.ascii	"resvd1c\000"
 20820      64316300 
 20821              	.LASF238:
 20822 0638 63685F74 		.ascii	"ch_timesize\000"
 20822      696D6573 
 20822      697A6500 
 20823              	.LASF459:
 20824 0644 69326366 		.ascii	"i2cflags_t\000"
 20824      6C616773 
 20824      5F7400
 20825              	.LASF655:
 20826 064f 4841494E 		.ascii	"HAINT\000"
 20826      5400
 20827              	.LASF136:
 20828 0655 46413152 		.ascii	"FA1R\000"
 20828      00
 20829              	.LASF1018:
 20830 065a 6D656D63 		.ascii	"memcpy\000"
 20830      707900
 20831              	.LASF159:
ARM GAS  C:\Users\mathi\AppData\Local\Temp\ccXNOisu.s 			page 377


 20832 0661 44434D49 		.ascii	"DCMI_TypeDef\000"
 20832      5F547970 
 20832      65446566 
 20832      00
 20833              	.LASF652:
 20834 066e 48464E55 		.ascii	"HFNUM\000"
 20834      4D00
 20835              	.LASF876:
 20836 0674 70617265 		.ascii	"parent\000"
 20836      6E7400
 20837              	.LASF274:
 20838 067b 716E6F74 		.ascii	"qnotify_t\000"
 20838      6966795F 
 20838      7400
 20839              	.LASF333:
 20840 0685 61646373 		.ascii	"adcstate_t\000"
 20840      74617465 
 20840      5F7400
 20841              	.LASF770:
 20842 0690 7075626C 		.ascii	"published_topic\000"
 20842      69736865 
 20842      645F746F 
 20842      70696300 
 20843              	.LASF737:
 20844 06a0 44434D49 		.ascii	"DCMID\000"
 20844      4400
 20845              	.LASF279:
 20846 06a6 69736869 		.ascii	"ishift\000"
 20846      667400
 20847              	.LASF977:
 20848 06ad 655F6932 		.ascii	"e_i2cp_write\000"
 20848      63705F77 
 20848      72697465 
 20848      00
 20849              	.LASF428:
 20850 06ba 4750545F 		.ascii	"GPT_ONESHOT\000"
 20850      4F4E4553 
 20850      484F5400 
 20851              	.LASF269:
 20852 06c6 715F746F 		.ascii	"q_top\000"
 20852      7000
 20853              	.LASF802:
 20854 06cc 5F6C6266 		.ascii	"_lbfsize\000"
 20854      73697A65 
 20854      00
 20855              	.LASF603:
 20856 06d5 75645F73 		.ascii	"ud_string\000"
 20856      7472696E 
 20856      6700
 20857              	.LASF472:
 20858 06df 49324344 		.ascii	"I2CDriver\000"
 20858      72697665 
 20858      7200
 20859              	.LASF454:
 20860 06e9 4932435F 		.ascii	"I2C_ACTIVE_TX\000"
 20860      41435449 
 20860      56455F54 
ARM GAS  C:\Users\mathi\AppData\Local\Temp\ccXNOisu.s 			page 378


 20860      5800
 20861              	.LASF524:
 20862 06f7 72656164 		.ascii	"read\000"
 20862      00
 20863              	.LASF460:
 20864 06fc 4F504D4F 		.ascii	"OPMODE_I2C\000"
 20864      44455F49 
 20864      324300
 20865              	.LASF664:
 20866 0707 72657376 		.ascii	"resvd80C\000"
 20866      64383043 
 20866      00
 20867              	.LASF712:
 20868 0710 6576656E 		.ascii	"event_cb\000"
 20868      745F6362 
 20868      00
 20869              	.LASF833:
 20870 0719 5F6E6577 		.ascii	"_new\000"
 20870      00
 20871              	.LASF631:
 20872 071e 474F5447 		.ascii	"GOTGCTL\000"
 20872      43544C00 
 20873              	.LASF606:
 20874 0726 75736265 		.ascii	"usbepcallback_t\000"
 20874      7063616C 
 20874      6C626163 
 20874      6B5F7400 
 20875              	.LASF458:
 20876 0736 69326361 		.ascii	"i2caddr_t\000"
 20876      6464725F 
 20876      7400
 20877              	.LASF94:
 20878 0740 76746C69 		.ascii	"vtlist\000"
 20878      737400
 20879              	.LASF166:
 20880 0747 54524953 		.ascii	"TRISE\000"
 20880      4500
 20881              	.LASF670:
 20882 074d 72657376 		.ascii	"resvd824\000"
 20882      64383234 
 20882      00
 20883              	.LASF52:
 20884 0756 705F7761 		.ascii	"p_waiting\000"
 20884      6974696E 
 20884      6700
 20885              	.LASF216:
 20886 0760 6B65726E 		.ascii	"kernel_stats_t\000"
 20886      656C5F73 
 20886      74617473 
 20886      5F7400
 20887              	.LASF942:
 20888 076f 69725F61 		.ascii	"ir_address\000"
 20888      64647265 
 20888      737300
 20889              	.LASF266:
 20890 077a 715F7761 		.ascii	"q_waiting\000"
 20890      6974696E 
ARM GAS  C:\Users\mathi\AppData\Local\Temp\ccXNOisu.s 			page 379


 20890      6700
 20891              	.LASF118:
 20892 0784 43414E5F 		.ascii	"CAN_TxMailBox_TypeDef\000"
 20892      54784D61 
 20892      696C426F 
 20892      785F5479 
 20892      70654465 
 20893              	.LASF93:
 20894 079a 726C6973 		.ascii	"rlist\000"
 20894      7400
 20895              	.LASF61:
 20896 07a0 74687265 		.ascii	"threads_list_t\000"
 20896      6164735F 
 20896      6C697374 
 20896      5F7400
 20897              	.LASF241:
 20898 07af 63665F6F 		.ascii	"cf_off_ctx\000"
 20898      66665F63 
 20898      747800
 20899              	.LASF275:
 20900 07ba 696E7075 		.ascii	"input_queue_t\000"
 20900      745F7175 
 20900      6575655F 
 20900      7400
 20901              	.LASF360:
 20902 07c8 41444343 		.ascii	"ADCConversionGroup\000"
 20902      6F6E7665 
 20902      7273696F 
 20902      6E47726F 
 20902      757000
 20903              	.LASF941:
 20904 07db 69725F6D 		.ascii	"ir_move\000"
 20904      6F766500 
 20905              	.LASF663:
 20906 07e3 44535453 		.ascii	"DSTS\000"
 20906      00
 20907              	.LASF868:
 20908 07e8 5F5F6C6F 		.ascii	"__lock\000"
 20908      636B00
 20909              	.LASF464:
 20910 07ef 5354445F 		.ascii	"STD_DUTY_CYCLE\000"
 20910      44555459 
 20910      5F435943 
 20910      4C4500
 20911              	.LASF369:
 20912 07fe 43414E5F 		.ascii	"CAN_READY\000"
 20912      52454144 
 20912      5900
 20913              	.LASF243:
 20914 0808 63665F6F 		.ascii	"cf_off_older\000"
 20914      66665F6F 
 20914      6C646572 
 20914      00
 20915              	.LASF26:
 20916 0815 72747469 		.ascii	"rttime_t\000"
 20916      6D655F74 
 20916      00
ARM GAS  C:\Users\mathi\AppData\Local\Temp\ccXNOisu.s 			page 380


 20917              	.LASF423:
 20918 081e 45585444 		.ascii	"EXTD1\000"
 20918      3100
 20919              	.LASF697:
 20920 0824 72787175 		.ascii	"rxqueued\000"
 20920      65756564 
 20920      00
 20921              	.LASF371:
 20922 082d 63616E73 		.ascii	"canstate_t\000"
 20922      74617465 
 20922      5F7400
 20923              	.LASF138:
 20924 0838 7346696C 		.ascii	"sFilterRegister\000"
 20924      74657252 
 20924      65676973 
 20924      74657200 
 20925              	.LASF837:
 20926 0848 5F5F7366 		.ascii	"__sf\000"
 20926      00
 20927              	.LASF918:
 20928 084d 77616974 		.ascii	"wait_cam\000"
 20928      5F63616D 
 20928      00
 20929              	.LASF669:
 20930 0856 72657376 		.ascii	"resvd820\000"
 20930      64383230 
 20930      00
 20931              	.LASF172:
 20932 085f 52455350 		.ascii	"RESP1\000"
 20932      3100
 20933              	.LASF173:
 20934 0865 52455350 		.ascii	"RESP2\000"
 20934      3200
 20935              	.LASF174:
 20936 086b 52455350 		.ascii	"RESP3\000"
 20936      3300
 20937              	.LASF175:
 20938 0871 52455350 		.ascii	"RESP4\000"
 20938      3400
 20939              	.LASF854:
 20940 0877 5F6D6274 		.ascii	"_mbtowc_state\000"
 20940      6F77635F 
 20940      73746174 
 20940      6500
 20941              	.LASF451:
 20942 0885 4932435F 		.ascii	"I2C_UNINIT\000"
 20942      554E494E 
 20942      495400
 20943              	.LASF608:
 20944 0890 75736272 		.ascii	"usbreqhandler_t\000"
 20944      65716861 
 20944      6E646C65 
 20944      725F7400 
 20945              	.LASF331:
 20946 08a0 4144435F 		.ascii	"ADC_COMPLETE\000"
 20946      434F4D50 
 20946      4C455445 
ARM GAS  C:\Users\mathi\AppData\Local\Temp\ccXNOisu.s 			page 381


 20946      00
 20947              	.LASF447:
 20948 08ad 47505443 		.ascii	"GPTConfig\000"
 20948      6F6E6669 
 20948      6700
 20949              	.LASF513:
 20950 08b7 53445F55 		.ascii	"SD_UNINIT\000"
 20950      4E494E49 
 20950      5400
 20951              	.LASF721:
 20952 08c1 44434D49 		.ascii	"DCMI_UNINIT\000"
 20952      5F554E49 
 20952      4E495400 
 20953              	.LASF31:
 20954 08cd 74707269 		.ascii	"tprio_t\000"
 20954      6F5F7400 
 20955              	.LASF212:
 20956 08d5 6E5F6972 		.ascii	"n_irq\000"
 20956      7100
 20957              	.LASF758:
 20958 08db 636F6E64 		.ascii	"condvar\000"
 20958      76617200 
 20959              	.LASF492:
 20960 08e3 69327370 		.ascii	"i2spr\000"
 20960      7200
 20961              	.LASF673:
 20962 08e9 72657376 		.ascii	"resvd830\000"
 20962      64383330 
 20962      00
 20963              	.LASF453:
 20964 08f2 4932435F 		.ascii	"I2C_READY\000"
 20964      52454144 
 20964      5900
 20965              	.LASF675:
 20966 08fc 72657376 		.ascii	"resvd838\000"
 20966      64383338 
 20966      00
 20967              	.LASF467:
 20968 0905 69326364 		.ascii	"i2cdutycycle_t\000"
 20968      75747963 
 20968      79636C65 
 20968      5F7400
 20969              	.LASF749:
 20970 0914 6F707461 		.ascii	"optarg\000"
 20970      726700
 20971              	.LASF676:
 20972 091b 72657376 		.ascii	"resvd83C\000"
 20972      64383343 
 20972      00
 20973              	.LASF970:
 20974 0924 655F706F 		.ascii	"e_poxxxx_config_cam\000"
 20974      78787878 
 20974      5F636F6E 
 20974      6669675F 
 20974      63616D00 
 20975              	.LASF345:
 20976 0938 74687265 		.ascii	"thread\000"
ARM GAS  C:\Users\mathi\AppData\Local\Temp\ccXNOisu.s 			page 382


 20976      616400
 20977              	.LASF390:
 20978 093f 72656773 		.ascii	"regshift\000"
 20978      68696674 
 20978      00
 20979              	.LASF571:
 20980 0948 73657475 		.ascii	"setup\000"
 20980      7000
 20981              	.LASF550:
 20982 094e 5350495F 		.ascii	"SPI_UNINIT\000"
 20982      554E494E 
 20982      495400
 20983              	.LASF998:
 20984 0959 6D6F756E 		.ascii	"mountSDCard\000"
 20984      74534443 
 20984      61726400 
 20985              	.LASF624:
 20986 0965 44545846 		.ascii	"DTXFSTS\000"
 20986      53545300 
 20987              	.LASF294:
 20988 096d 626C6B5F 		.ascii	"blk_size\000"
 20988      73697A65 
 20988      00
 20989              	.LASF726:
 20990 0976 44434D49 		.ascii	"DCMI_COMPLETE\000"
 20990      5F434F4D 
 20990      504C4554 
 20990      4500
 20991              	.LASF565:
 20992 0984 696E5F70 		.ascii	"in_params\000"
 20992      6172616D 
 20992      7300
 20993              	.LASF437:
 20994 098e 43434552 		.ascii	"CCER\000"
 20994      00
 20995              	.LASF188:
 20996 0993 49325350 		.ascii	"I2SPR\000"
 20996      5200
 20997              	.LASF495:
 20998 0999 50574D5F 		.ascii	"PWM_UNINIT\000"
 20998      554E494E 
 20998      495400
 20999              	.LASF207:
 21000 09a4 62657374 		.ascii	"best\000"
 21000      00
 21001              	.LASF883:
 21002 09a9 74797065 		.ascii	"type\000"
 21002      00
 21003              	.LASF961:
 21004 09ae 655F6932 		.ascii	"e_i2cp_disable\000"
 21004      63705F64 
 21004      69736162 
 21004      6C6500
 21005              	.LASF633:
 21006 09bd 47414842 		.ascii	"GAHBCFG\000"
 21006      43464700 
 21007              	.LASF400:
ARM GAS  C:\Users\mathi\AppData\Local\Temp\ccXNOisu.s 			page 383


 21008 09c5 64616363 		.ascii	"daccallback_t\000"
 21008      616C6C62 
 21008      61636B5F 
 21008      7400
 21009              	.LASF738:
 21010 09d3 5F4C4F43 		.ascii	"_LOCK_T\000"
 21010      4B5F5400 
 21011              	.LASF677:
 21012 09db 72657376 		.ascii	"resvd840\000"
 21012      64383430 
 21012      00
 21013              	.LASF898:
 21014 09e4 4D415249 		.ascii	"MARIO_START\000"
 21014      4F5F5354 
 21014      41525400 
 21015              	.LASF184:
 21016 09f0 43524350 		.ascii	"CRCPR\000"
 21016      5200
 21017              	.LASF289:
 21018 09f6 424C4B5F 		.ascii	"BLK_READY\000"
 21018      52454144 
 21018      5900
 21019              	.LASF4:
 21020 0a00 5F5F696E 		.ascii	"__int16_t\000"
 21020      7431365F 
 21020      7400
 21021              	.LASF6:
 21022 0a0a 5F5F7569 		.ascii	"__uint16_t\000"
 21022      6E743136 
 21022      5F7400
 21023              	.LASF427:
 21024 0a15 4750545F 		.ascii	"GPT_CONTINUOUS\000"
 21024      434F4E54 
 21024      494E554F 
 21024      555300
 21025              	.LASF691:
 21026 0a24 74787175 		.ascii	"txqueued\000"
 21026      65756564 
 21026      00
 21027              	.LASF54:
 21028 0a2d 705F6D73 		.ascii	"p_msg\000"
 21028      6700
 21029              	.LASF846:
 21030 0a33 5F756E75 		.ascii	"_unused_rand\000"
 21030      7365645F 
 21030      72616E64 
 21030      00
 21031              	.LASF630:
 21032 0a40 73746D33 		.ascii	"stm32_otg_out_ep_t\000"
 21032      325F6F74 
 21032      675F6F75 
 21032      745F6570 
 21032      5F7400
 21033              	.LASF639:
 21034 0a53 47525853 		.ascii	"GRXSTSP\000"
 21034      54535000 
 21035              	.LASF638:
ARM GAS  C:\Users\mathi\AppData\Local\Temp\ccXNOisu.s 			page 384


 21036 0a5b 47525853 		.ascii	"GRXSTSR\000"
 21036      54535200 
 21037              	.LASF954:
 21038 0a63 73707269 		.ascii	"sprintf\000"
 21038      6E746600 
 21039              	.LASF218:
 21040 0a6b 65786974 		.ascii	"exitcode\000"
 21040      636F6465 
 21040      00
 21041              	.LASF162:
 21042 0a74 4D314152 		.ascii	"M1AR\000"
 21042      00
 21043              	.LASF578:
 21044 0a79 77616974 		.ascii	"wait\000"
 21044      00
 21045              	.LASF163:
 21046 0a7e 444D415F 		.ascii	"DMA_Stream_TypeDef\000"
 21046      53747265 
 21046      616D5F54 
 21046      79706544 
 21046      656600
 21047              	.LASF585:
 21048 0a91 5553425F 		.ascii	"USB_ACTIVE\000"
 21048      41435449 
 21048      564500
 21049              	.LASF753:
 21050 0a9c 6F707472 		.ascii	"optreset\000"
 21050      65736574 
 21050      00
 21051              	.LASF626:
 21052 0aa5 73746D33 		.ascii	"stm32_otg_in_ep_t\000"
 21052      325F6F74 
 21052      675F696E 
 21052      5F65705F 
 21052      7400
 21053              	.LASF699:
 21054 0ab7 7278636E 		.ascii	"rxcnt\000"
 21054      7400
 21055              	.LASF327:
 21056 0abd 4144435F 		.ascii	"ADC_UNINIT\000"
 21056      554E494E 
 21056      495400
 21057              	.LASF475:
 21058 0ac8 7278646D 		.ascii	"rxdmamode\000"
 21058      616D6F64 
 21058      6500
 21059              	.LASF828:
 21060 0ad2 5F726573 		.ascii	"_result_k\000"
 21060      756C745F 
 21060      6B00
 21061              	.LASF419:
 21062 0adc 6D6F6465 		.ascii	"mode\000"
 21062      00
 21063              	.LASF820:
 21064 0ae1 5F737464 		.ascii	"_stderr\000"
 21064      65727200 
 21065              	.LASF827:
ARM GAS  C:\Users\mathi\AppData\Local\Temp\ccXNOisu.s 			page 385


 21066 0ae9 5F726573 		.ascii	"_result\000"
 21066      756C7400 
 21067              	.LASF231:
 21068 0af1 6D5F636E 		.ascii	"m_cnt\000"
 21068      7400
 21069              	.LASF416:
 21070 0af7 45585444 		.ascii	"EXTDriver\000"
 21070      72697665 
 21070      7200
 21071              	.LASF246:
 21072 0b01 63665F6F 		.ascii	"cf_off_state\000"
 21072      66665F73 
 21072      74617465 
 21072      00
 21073              	.LASF487:
 21074 0b0e 69327363 		.ascii	"i2scallback_t\000"
 21074      616C6C62 
 21074      61636B5F 
 21074      7400
 21075              	.LASF559:
 21076 0b1c 73737061 		.ascii	"sspad\000"
 21076      6400
 21077              	.LASF476:
 21078 0b22 7478646D 		.ascii	"txdmamode\000"
 21078      616D6F64 
 21078      6500
 21079              	.LASF888:
 21080 0b2c 6275665F 		.ascii	"buf_dim\000"
 21080      64696D00 
 21081              	.LASF443:
 21082 0b34 67707466 		.ascii	"gptfreq_t\000"
 21082      7265715F 
 21082      7400
 21083              	.LASF945:
 21084 0b3e 7573655F 		.ascii	"use_bt\000"
 21084      627400
 21085              	.LASF785:
 21086 0b45 5F5F746D 		.ascii	"__tm_wday\000"
 21086      5F776461 
 21086      7900
 21087              	.LASF979:
 21088 0b4f 655F7365 		.ascii	"e_set_speed_left\000"
 21088      745F7370 
 21088      6565645F 
 21088      6C656674 
 21088      00
 21089              	.LASF782:
 21090 0b60 5F5F746D 		.ascii	"__tm_mday\000"
 21090      5F6D6461 
 21090      7900
 21091              	.LASF684:
 21092 0b6a 72785F66 		.ascii	"rx_fifo_size\000"
 21092      69666F5F 
 21092      73697A65 
 21092      00
 21093              	.LASF193:
 21094 0b77 73746B61 		.ascii	"stkalign_t\000"
ARM GAS  C:\Users\mathi\AppData\Local\Temp\ccXNOisu.s 			page 386


 21094      6C69676E 
 21094      5F7400
 21095              	.LASF398:
 21096 0b82 4441435F 		.ascii	"DAC_ERR_UNDERFLOW\000"
 21096      4552525F 
 21096      554E4445 
 21096      52464C4F 
 21096      5700
 21097              	.LASF379:
 21098 0b94 77616B65 		.ascii	"wakeup_event\000"
 21098      75705F65 
 21098      76656E74 
 21098      00
 21099              	.LASF78:
 21100 0ba1 76745F70 		.ascii	"vt_prev\000"
 21100      72657600 
 21101              	.LASF786:
 21102 0ba9 5F5F746D 		.ascii	"__tm_yday\000"
 21102      5F796461 
 21102      7900
 21103              	.LASF353:
 21104 0bb3 656E645F 		.ascii	"end_cb\000"
 21104      636200
 21105              	.LASF702:
 21106 0bba 73657475 		.ascii	"setup_cb\000"
 21106      705F6362 
 21106      00
 21107              	.LASF3:
 21108 0bc3 756E7369 		.ascii	"unsigned char\000"
 21108      676E6564 
 21108      20636861 
 21108      7200
 21109              	.LASF819:
 21110 0bd1 5F737464 		.ascii	"_stdout\000"
 21110      6F757400 
 21111              	.LASF182:
 21112 0bd9 4649464F 		.ascii	"FIFO\000"
 21112      00
 21113              	.LASF203:
 21114 0bde 74625F62 		.ascii	"tb_buffer\000"
 21114      75666665 
 21114      7200
 21115              	.LASF373:
 21116 0be8 74787175 		.ascii	"txqueue\000"
 21116      65756500 
 21117              	.LASF153:
 21118 0bf0 52495352 		.ascii	"RISR\000"
 21118      00
 21119              	.LASF226:
 21120 0bf5 735F636E 		.ascii	"s_cnt\000"
 21120      7400
 21121              	.LASF66:
 21122 0bfb 72656164 		.ascii	"ready_list_t\000"
 21122      795F6C69 
 21122      73745F74 
 21122      00
 21123              	.LASF62:
ARM GAS  C:\Users\mathi\AppData\Local\Temp\ccXNOisu.s 			page 387


 21124 0c08 63685F74 		.ascii	"ch_thread\000"
 21124      68726561 
 21124      6400
 21125              	.LASF462:
 21126 0c12 4F504D4F 		.ascii	"OPMODE_SMBUS_HOST\000"
 21126      44455F53 
 21126      4D425553 
 21126      5F484F53 
 21126      5400
 21127              	.LASF968:
 21128 0c24 73736361 		.ascii	"sscanf\000"
 21128      6E6600
 21129              	.LASF861:
 21130 0c2b 5F6D6273 		.ascii	"_mbsrtowcs_state\000"
 21130      72746F77 
 21130      63735F73 
 21130      74617465 
 21130      00
 21131              	.LASF580:
 21132 0c3c 75736265 		.ascii	"usbep_t\000"
 21132      705F7400 
 21133              	.LASF996:
 21134 0c44 655F696E 		.ascii	"e_init_motors\000"
 21134      69745F6D 
 21134      6F746F72 
 21134      7300
 21135              	.LASF777:
 21136 0c52 5F776473 		.ascii	"_wds\000"
 21136      00
 21137              	.LASF889:
 21138 0c57 666C6F61 		.ascii	"float\000"
 21138      7400
 21139              	.LASF904:
 21140 0c5d 53544152 		.ascii	"STARWARS\000"
 21140      57415253 
 21140      00
 21141              	.LASF412:
 21142 0c66 4558545F 		.ascii	"EXT_UNINIT\000"
 21142      554E494E 
 21142      495400
 21143              	.LASF370:
 21144 0c71 43414E5F 		.ascii	"CAN_SLEEP\000"
 21144      534C4545 
 21144      5000
 21145              	.LASF199:
 21146 0c7b 73655F73 		.ascii	"se_state\000"
 21146      74617465 
 21146      00
 21147              	.LASF366:
 21148 0c84 43414E5F 		.ascii	"CAN_UNINIT\000"
 21148      554E494E 
 21148      495400
 21149              	.LASF549:
 21150 0c8f 53444344 		.ascii	"SDCD1\000"
 21150      3100
 21151              	.LASF85:
 21152 0c95 73797374 		.ascii	"system_debug_t\000"
ARM GAS  C:\Users\mathi\AppData\Local\Temp\ccXNOisu.s 			page 388


 21152      656D5F64 
 21152      65627567 
 21152      5F7400
 21153              	.LASF143:
 21154 0ca4 44485238 		.ascii	"DHR8R1\000"
 21154      523100
 21155              	.LASF146:
 21156 0cab 44485238 		.ascii	"DHR8R2\000"
 21156      523200
 21157              	.LASF434:
 21158 0cb2 44494552 		.ascii	"DIER\000"
 21158      00
 21159              	.LASF766:
 21160 0cb7 68656164 		.ascii	"head\000"
 21160      00
 21161              	.LASF925:
 21162 0cbc 61636378 		.ascii	"accx\000"
 21162      00
 21163              	.LASF926:
 21164 0cc1 61636379 		.ascii	"accy\000"
 21164      00
 21165              	.LASF42:
 21166 0cc6 705F6374 		.ascii	"p_ctx\000"
 21166      7800
 21167              	.LASF81:
 21168 0ccc 76745F70 		.ascii	"vt_par\000"
 21168      617200
 21169              	.LASF102:
 21170 0cd3 4A4F4652 		.ascii	"JOFR1\000"
 21170      3100
 21171              	.LASF103:
 21172 0cd9 4A4F4652 		.ascii	"JOFR2\000"
 21172      3200
 21173              	.LASF104:
 21174 0cdf 4A4F4652 		.ascii	"JOFR3\000"
 21174      3300
 21175              	.LASF105:
 21176 0ce5 4A4F4652 		.ascii	"JOFR4\000"
 21176      3400
 21177              	.LASF895:
 21178 0ceb 52555353 		.ascii	"RUSSIA\000"
 21178      494100
 21179              	.LASF73:
 21180 0cf2 725F6375 		.ascii	"r_current\000"
 21180      7272656E 
 21180      7400
 21181              	.LASF798:
 21182 0cfc 5F73697A 		.ascii	"_size\000"
 21182      6500
 21183              	.LASF805:
 21184 0d02 5F777269 		.ascii	"_write\000"
 21184      746500
 21185              	.LASF186:
 21186 0d09 54584352 		.ascii	"TXCRCR\000"
 21186      435200
 21187              	.LASF405:
 21188 0d10 64616364 		.ascii	"dacdhrmode_t\000"
ARM GAS  C:\Users\mathi\AppData\Local\Temp\ccXNOisu.s 			page 389


 21188      68726D6F 
 21188      64655F74 
 21188      00
 21189              	.LASF347:
 21190 0d1d 646D6173 		.ascii	"dmastp\000"
 21190      747000
 21191              	.LASF757:
 21192 0d24 6C6F636B 		.ascii	"lock\000"
 21192      00
 21193              	.LASF466:
 21194 0d29 46415354 		.ascii	"FAST_DUTY_CYCLE_16_9\000"
 21194      5F445554 
 21194      595F4359 
 21194      434C455F 
 21194      31365F39 
 21195              	.LASF22:
 21196 0d3e 75696E74 		.ascii	"uint64_t\000"
 21196      36345F74 
 21196      00
 21197              	.LASF213:
 21198 0d47 6E5F6374 		.ascii	"n_ctxswc\000"
 21198      78737763 
 21198      00
 21199              	.LASF936:
 21200 0d50 63616D5F 		.ascii	"cam_size\000"
 21200      73697A65 
 21200      00
 21201              	.LASF252:
 21202 0d59 63685F64 		.ascii	"ch_debug\000"
 21202      65627567 
 21202      00
 21203              	.LASF408:
 21204 0d62 696E6974 		.ascii	"init\000"
 21204      00
 21205              	.LASF130:
 21206 0d67 464D3152 		.ascii	"FM1R\000"
 21206      00
 21207              	.LASF780:
 21208 0d6c 5F5F746D 		.ascii	"__tm_min\000"
 21208      5F6D696E 
 21208      00
 21209              	.LASF324:
 21210 0d75 50414C43 		.ascii	"PALConfig\000"
 21210      6F6E6669 
 21210      6700
 21211              	.LASF693:
 21212 0d7f 7478636E 		.ascii	"txcnt\000"
 21212      7400
 21213              	.LASF877:
 21214 0d85 73756273 		.ascii	"subspaces\000"
 21214      70616365 
 21214      7300
 21215              	.LASF607:
 21216 0d8f 75736265 		.ascii	"usbeventcb_t\000"
 21216      76656E74 
 21216      63625F74 
 21216      00
ARM GAS  C:\Users\mathi\AppData\Local\Temp\ccXNOisu.s 			page 390


 21217              	.LASF286:
 21218 0d9c 424C4B5F 		.ascii	"BLK_ACTIVE\000"
 21218      41435449 
 21218      564500
 21219              	.LASF784:
 21220 0da7 5F5F746D 		.ascii	"__tm_year\000"
 21220      5F796561 
 21220      7200
 21221              	.LASF254:
 21222 0db1 6576656E 		.ascii	"event_listener_t\000"
 21222      745F6C69 
 21222      7374656E 
 21222      65725F74 
 21222      00
 21223              	.LASF1017:
 21224 0dc2 72756E5F 		.ascii	"run_asercom2\000"
 21224      61736572 
 21224      636F6D32 
 21224      00
 21225              	.LASF810:
 21226 0dcf 5F626C6B 		.ascii	"_blksize\000"
 21226      73697A65 
 21226      00
 21227              	.LASF685:
 21228 0dd8 6F74675F 		.ascii	"otg_ram_size\000"
 21228      72616D5F 
 21228      73697A65 
 21228      00
 21229              	.LASF917:
 21230 0de5 73656C65 		.ascii	"selector\000"
 21230      63746F72 
 21230      00
 21231              	.LASF990:
 21232 0dee 67657442 		.ascii	"getBatteryValueRaw\000"
 21232      61747465 
 21232      72795661 
 21232      6C756552 
 21232      617700
 21233              	.LASF687:
 21234 0e01 73746D33 		.ascii	"stm32_otg_params_t\000"
 21234      325F6F74 
 21234      675F7061 
 21234      72616D73 
 21234      5F7400
 21235              	.LASF680:
 21236 0e14 72657376 		.ascii	"resvdD00\000"
 21236      64443030 
 21236      00
 21237              	.LASF185:
 21238 0e1d 52584352 		.ascii	"RXCRCR\000"
 21238      435200
 21239              	.LASF696:
 21240 0e24 72786275 		.ascii	"rxbuf\000"
 21240      6600
 21241              	.LASF951:
 21242 0e2a 67657458 		.ascii	"getXAxisGyro\000"
 21242      41786973 
ARM GAS  C:\Users\mathi\AppData\Local\Temp\ccXNOisu.s 			page 391


 21242      4779726F 
 21242      00
 21243              	.LASF636:
 21244 0e37 47494E54 		.ascii	"GINTSTS\000"
 21244      53545300 
 21245              	.LASF899:
 21246 0e3f 4D415249 		.ascii	"MARIO_DEATH\000"
 21246      4F5F4445 
 21246      41544800 
 21247              	.LASF227:
 21248 0e4b 63685F6D 		.ascii	"ch_mutex\000"
 21248      75746578 
 21248      00
 21249              	.LASF376:
 21250 0e54 7478656D 		.ascii	"txempty_event\000"
 21250      7074795F 
 21250      6576656E 
 21250      7400
 21251              	.LASF499:
 21252 0e62 50574D44 		.ascii	"PWMDriver\000"
 21252      72697665 
 21252      7200
 21253              	.LASF321:
 21254 0e6c 50474461 		.ascii	"PGData\000"
 21254      746100
 21255              	.LASF508:
 21256 0e73 50574D43 		.ascii	"PWMConfig\000"
 21256      6F6E6669 
 21256      6700
 21257              	.LASF859:
 21258 0e7d 5F6D6272 		.ascii	"_mbrlen_state\000"
 21258      6C656E5F 
 21258      73746174 
 21258      6500
 21259              	.LASF983:
 21260 0e8b 655F6765 		.ascii	"e_get_address\000"
 21260      745F6164 
 21260      64726573 
 21260      7300
 21261              	.LASF884:
 21262 0e99 76616C75 		.ascii	"value\000"
 21262      6500
 21263              	.LASF242:
 21264 0e9f 63665F6F 		.ascii	"cf_off_newer\000"
 21264      66665F6E 
 21264      65776572 
 21264      00
 21265              	.LASF665:
 21266 0eac 44494550 		.ascii	"DIEPMSK\000"
 21266      4D534B00 
 21267              	.LASF632:
 21268 0eb4 474F5447 		.ascii	"GOTGINT\000"
 21268      494E5400 
 21269              	.LASF927:
 21270 0ebc 6163637A 		.ascii	"accz\000"
 21270      00
 21271              	.LASF704:
ARM GAS  C:\Users\mathi\AppData\Local\Temp\ccXNOisu.s 			page 392


 21272 0ec1 6F75745F 		.ascii	"out_cb\000"
 21272      636200
 21273              	.LASF656:
 21274 0ec8 4841494E 		.ascii	"HAINTMSK\000"
 21274      544D534B 
 21274      00
 21275              	.LASF566:
 21276 0ed1 6F75745F 		.ascii	"out_params\000"
 21276      70617261 
 21276      6D7300
 21277              	.LASF198:
 21278 0edc 73655F77 		.ascii	"se_wtobjp\000"
 21278      746F626A 
 21278      7000
 21279              	.LASF109:
 21280 0ee6 4A535152 		.ascii	"JSQR\000"
 21280      00
 21281              	.LASF818:
 21282 0eeb 5F737464 		.ascii	"_stdin\000"
 21282      696E00
 21283              	.LASF866:
 21284 0ef2 5F6E6D61 		.ascii	"_nmalloc\000"
 21284      6C6C6F63 
 21284      00
 21285              	.LASF446:
 21286 0efb 64696572 		.ascii	"dier\000"
 21286      00
 21287              	.LASF544:
 21288 0f00 69735F70 		.ascii	"is_protected\000"
 21288      726F7465 
 21288      63746564 
 21288      00
 21289              	.LASF933:
 21290 0f0d 63616D5F 		.ascii	"cam_width\000"
 21290      77696474 
 21290      6800
 21291              	.LASF75:
 21292 0f17 76697274 		.ascii	"virtual_timer_t\000"
 21292      75616C5F 
 21292      74696D65 
 21292      725F7400 
 21293              	.LASF706:
 21294 0f27 6F75745F 		.ascii	"out_maxsize\000"
 21294      6D617873 
 21294      697A6500 
 21295              	.LASF999:
 21296 0f33 655F6932 		.ascii	"e_i2cp_init\000"
 21296      63705F69 
 21296      6E697400 
 21297              	.LASF70:
 21298 0f3f 725F6374 		.ascii	"r_ctx\000"
 21298      7800
 21299              	.LASF77:
 21300 0f45 76745F6E 		.ascii	"vt_next\000"
 21300      65787400 
 21301              	.LASF481:
 21302 0f4d 4932535F 		.ascii	"I2S_STOP\000"
ARM GAS  C:\Users\mathi\AppData\Local\Temp\ccXNOisu.s 			page 393


 21302      53544F50 
 21302      00
 21303              	.LASF496:
 21304 0f56 50574D5F 		.ascii	"PWM_STOP\000"
 21304      53544F50 
 21304      00
 21305              	.LASF25:
 21306 0f5f 7274636E 		.ascii	"rtcnt_t\000"
 21306      745F7400 
 21307              	.LASF346:
 21308 0f67 6D757465 		.ascii	"mutex\000"
 21308      7800
 21309              	.LASF490:
 21310 0f6d 73697A65 		.ascii	"size\000"
 21310      00
 21311              	.LASF394:
 21312 0f72 44414344 		.ascii	"DACDriver\000"
 21312      72697665 
 21312      7200
 21313              	.LASF410:
 21314 0f7c 44414343 		.ascii	"DACConfig\000"
 21314      6F6E6669 
 21314      6700
 21315              	.LASF577:
 21316 0f86 74787065 		.ascii	"txpending\000"
 21316      6E64696E 
 21316      6700
 21317              	.LASF431:
 21318 0f90 636C6F63 		.ascii	"clock\000"
 21318      6B00
 21319              	.LASF298:
 21320 0f96 636C6561 		.ascii	"clear\000"
 21320      7200
 21321              	.LASF441:
 21322 0f9c 43435852 		.ascii	"CCXR\000"
 21322      00
 21323              	.LASF139:
 21324 0fa1 43414E5F 		.ascii	"CAN_TypeDef\000"
 21324      54797065 
 21324      44656600 
 21325              	.LASF739:
 21326 0fad 5F6F6666 		.ascii	"_off_t\000"
 21326      5F7400
 21327              	.LASF200:
 21328 0fb4 63685F73 		.ascii	"ch_swc_event_t\000"
 21328      77635F65 
 21328      76656E74 
 21328      5F7400
 21329              	.LASF514:
 21330 0fc3 53445F53 		.ascii	"SD_STOP\000"
 21330      544F5000 
 21331              	.LASF611:
 21332 0fcb 72657376 		.ascii	"resvd8\000"
 21332      643800
 21333              	.LASF23:
 21334 0fd2 73697A65 		.ascii	"size_t\000"
 21334      5F7400
ARM GAS  C:\Users\mathi\AppData\Local\Temp\ccXNOisu.s 			page 394


 21335              	.LASF96:
 21336 0fd9 6B65726E 		.ascii	"kernel_stats\000"
 21336      656C5F73 
 21336      74617473 
 21336      00
 21337              	.LASF678:
 21338 0fe6 72657376 		.ascii	"resvd880\000"
 21338      64383830 
 21338      00
 21339              	.LASF901:
 21340 0fef 57414C4B 		.ascii	"WALKING\000"
 21340      494E4700 
 21341              	.LASF892:
 21342 0ff7 70617261 		.ascii	"parameter_root\000"
 21342      6D657465 
 21342      725F726F 
 21342      6F7400
 21343              	.LASF744:
 21344 1006 5F5F636F 		.ascii	"__count\000"
 21344      756E7400 
 21345              	.LASF17:
 21346 100e 75696E74 		.ascii	"uint8_t\000"
 21346      385F7400 
 21347              	.LASF930:
 21348 1016 6779726F 		.ascii	"gyroy\000"
 21348      7900
 21349              	.LASF615:
 21350 101c 72657376 		.ascii	"resvd14\000"
 21350      64313400 
 21351              	.LASF616:
 21352 1024 72657376 		.ascii	"resvd18\000"
 21352      64313800 
 21353              	.LASF72:
 21354 102c 725F6F6C 		.ascii	"r_older\000"
 21354      64657200 
 21355              	.LASF40:
 21356 1034 705F7072 		.ascii	"p_prev\000"
 21356      657600
 21357              	.LASF244:
 21358 103b 63665F6F 		.ascii	"cf_off_name\000"
 21358      66665F6E 
 21358      616D6500 
 21359              	.LASF507:
 21360 1047 50574D43 		.ascii	"PWMChannelConfig\000"
 21360      68616E6E 
 21360      656C436F 
 21360      6E666967 
 21360      00
 21361              	.LASF506:
 21362 1058 70776D63 		.ascii	"pwmcnt_t\000"
 21362      6E745F74 
 21362      00
 21363              	.LASF674:
 21364 1061 44494550 		.ascii	"DIEPEMPMSK\000"
 21364      454D504D 
 21364      534B00
 21365              	.LASF732:
ARM GAS  C:\Users\mathi\AppData\Local\Temp\ccXNOisu.s 			page 395


 21366 106c 64636D69 		.ascii	"dcmicallback_t\000"
 21366      63616C6C 
 21366      6261636B 
 21366      5F7400
 21367              	.LASF619:
 21368 107b 44494550 		.ascii	"DIEPCTL\000"
 21368      43544C00 
 21369              	.LASF260:
 21370 1083 656C5F77 		.ascii	"el_wflags\000"
 21370      666C6167 
 21370      7300
 21371              	.LASF575:
 21372 108d 6F746770 		.ascii	"otgparams\000"
 21372      6172616D 
 21372      7300
 21373              	.LASF201:
 21374 1097 74625F73 		.ascii	"tb_size\000"
 21374      697A6500 
 21375              	.LASF318:
 21376 109f 50444461 		.ascii	"PDData\000"
 21376      746100
 21377              	.LASF1012:
 21378 10a6 655F706F 		.ascii	"e_poxxxx_wait_img_ready\000"
 21378      78787878 
 21378      5F776169 
 21378      745F696D 
 21378      675F7265 
 21379              	.LASF539:
 21380 10be 73637261 		.ascii	"scratchpad\000"
 21380      74636870 
 21380      616400
 21381              	.LASF832:
 21382 10c9 5F637674 		.ascii	"_cvtbuf\000"
 21382      62756600 
 21383              	.LASF708:
 21384 10d1 6F75745F 		.ascii	"out_state\000"
 21384      73746174 
 21384      6500
 21385              	.LASF264:
 21386 10db 696F5F71 		.ascii	"io_queue_t\000"
 21386      75657565 
 21386      5F7400
 21387              	.LASF822:
 21388 10e6 5F656D65 		.ascii	"_emergency\000"
 21388      7267656E 
 21388      637900
 21389              	.LASF555:
 21390 10f1 73706973 		.ascii	"spistate_t\000"
 21390      74617465 
 21390      5F7400
 21391              	.LASF913:
 21392 10fc 61636365 		.ascii	"acceleration\000"
 21392      6C657261 
 21392      74696F6E 
 21392      00
 21393              	.LASF452:
 21394 1109 4932435F 		.ascii	"I2C_STOP\000"
ARM GAS  C:\Users\mathi\AppData\Local\Temp\ccXNOisu.s 			page 396


 21394      53544F50 
 21394      00
 21395              	.LASF474:
 21396 1112 61646472 		.ascii	"addr\000"
 21396      00
 21397              	.LASF908:
 21398 1117 45585445 		.ascii	"EXTERNAL_SONG\000"
 21398      524E414C 
 21398      5F534F4E 
 21398      4700
 21399              	.LASF124:
 21400 1125 52463052 		.ascii	"RF0R\000"
 21400      00
 21401              	.LASF336:
 21402 112a 4144435F 		.ascii	"ADC_ERR_DMAFAILURE\000"
 21402      4552525F 
 21402      444D4146 
 21402      41494C55 
 21402      524500
 21403              	.LASF553:
 21404 113d 5350495F 		.ascii	"SPI_ACTIVE\000"
 21404      41435449 
 21404      564500
 21405              	.LASF748:
 21406 1148 656E7669 		.ascii	"environ\000"
 21406      726F6E00 
 21407              	.LASF1015:
 21408 1150 2E2E2F2E 		.ascii	"../../lib/e-puck2_main-processor/src/epuck1x/Aserco"
 21408      2E2F6C69 
 21408      622F652D 
 21408      7075636B 
 21408      325F6D61 
 21409 1183 6D322E63 		.ascii	"m2.c\000"
 21409      00
 21410              	.LASF420:
 21411 1188 45585443 		.ascii	"EXTChannelConfig\000"
 21411      68616E6E 
 21411      656C436F 
 21411      6E666967 
 21411      00
 21412              	.LASF301:
 21413 1199 4F535045 		.ascii	"OSPEEDR\000"
 21413      45445200 
 21414              	.LASF384:
 21415 11a1 4441435F 		.ascii	"DAC_READY\000"
 21415      52454144 
 21415      5900
 21416              	.LASF643:
 21417 11ab 72657376 		.ascii	"resvd30\000"
 21417      64333000 
 21418              	.LASF743:
 21419 11b3 5F5F7763 		.ascii	"__wchb\000"
 21419      686200
 21420              	.LASF644:
 21421 11ba 72657376 		.ascii	"resvd34\000"
 21421      64333400 
 21422              	.LASF672:
ARM GAS  C:\Users\mathi\AppData\Local\Temp\ccXNOisu.s 			page 397


 21423 11c2 44564255 		.ascii	"DVBUSPULSE\000"
 21423      5350554C 
 21423      534500
 21424              	.LASF781:
 21425 11cd 5F5F746D 		.ascii	"__tm_hour\000"
 21425      5F686F75 
 21425      7200
 21426              	.LASF939:
 21427 11d7 66697273 		.ascii	"first\000"
 21427      7400
 21428              	.LASF285:
 21429 11dd 424C4B5F 		.ascii	"BLK_STOP\000"
 21429      53544F50 
 21429      00
 21430              	.LASF522:
 21431 11e6 53657269 		.ascii	"SerialDriverVMT\000"
 21431      616C4472 
 21431      69766572 
 21431      564D5400 
 21432              	.LASF593:
 21433 11f6 5553425F 		.ascii	"USB_EP0_ERROR\000"
 21433      4550305F 
 21433      4552524F 
 21433      5200
 21434              	.LASF741:
 21435 1204 77696E74 		.ascii	"wint_t\000"
 21435      5F7400
 21436              	.LASF545:
 21437 120b 636F6E6E 		.ascii	"connect\000"
 21437      65637400 
 21438              	.LASF125:
 21439 1213 52463152 		.ascii	"RF1R\000"
 21439      00
 21440              	.LASF339:
 21441 1218 41444344 		.ascii	"ADCDriver\000"
 21441      72697665 
 21441      7200
 21442              	.LASF686:
 21443 1222 6E756D5F 		.ascii	"num_endpoints\000"
 21443      656E6470 
 21443      6F696E74 
 21443      7300
 21444              	.LASF362:
 21445 1230 41444343 		.ascii	"ADCConfig\000"
 21445      6F6E6669 
 21445      6700
 21446              	.LASF694:
 21447 123a 746F7473 		.ascii	"totsize\000"
 21447      697A6500 
 21448              	.LASF890:
 21449 1242 5F706172 		.ascii	"_param_val_matrix_s\000"
 21449      616D5F76 
 21449      616C5F6D 
 21449      61747269 
 21449      785F7300 
 21450              	.LASF840:
 21451 1256 5F6E696F 		.ascii	"_niobs\000"
ARM GAS  C:\Users\mathi\AppData\Local\Temp\ccXNOisu.s 			page 398


 21451      627300
 21452              	.LASF515:
 21453 125d 53445F52 		.ascii	"SD_READY\000"
 21453      45414459 
 21453      00
 21454              	.LASF609:
 21455 1266 75736267 		.ascii	"usbgetdescriptor_t\000"
 21455      65746465 
 21455      73637269 
 21455      70746F72 
 21455      5F7400
 21456              	.LASF387:
 21457 1279 4441435F 		.ascii	"DAC_ERROR\000"
 21457      4552524F 
 21457      5200
 21458              	.LASF817:
 21459 1283 5F657272 		.ascii	"_errno\000"
 21459      6E6F00
 21460              	.LASF768:
 21461 128a 6D657373 		.ascii	"messagebus_t\000"
 21461      61676562 
 21461      75735F74 
 21461      00
 21462              	.LASF588:
 21463 1297 5553425F 		.ascii	"USB_EP0_TX\000"
 21463      4550305F 
 21463      545800
 21464              	.LASF567:
 21465 12a2 65703073 		.ascii	"ep0state\000"
 21465      74617465 
 21465      00
 21466              	.LASF880:
 21467 12ab 70617261 		.ascii	"parameter_s\000"
 21467      6D657465 
 21467      725F7300 
 21468              	.LASF754:
 21469 12b7 746F7069 		.ascii	"topic_s\000"
 21469      635F7300 
 21470              	.LASF278:
 21471 12bf 69666372 		.ascii	"ifcr\000"
 21471      00
 21472              	.LASF906:
 21473 12c4 53455645 		.ascii	"SEVEN_NATION_ARMY\000"
 21473      4E5F4E41 
 21473      54494F4E 
 21473      5F41524D 
 21473      5900
 21474              	.LASF480:
 21475 12d6 4932535F 		.ascii	"I2S_UNINIT\000"
 21475      554E494E 
 21475      495400
 21476              	.LASF989:
 21477 12e1 706C6179 		.ascii	"playMelody\000"
 21477      4D656C6F 
 21477      647900
 21478              	.LASF307:
 21479 12ec 73746D33 		.ascii	"stm32_gpio_t\000"
ARM GAS  C:\Users\mathi\AppData\Local\Temp\ccXNOisu.s 			page 399


 21479      325F6770 
 21479      696F5F74 
 21479      00
 21480              	.LASF217:
 21481 12f9 7264796D 		.ascii	"rdymsg\000"
 21481      736700
 21482              	.LASF789:
 21483 1300 5F666E61 		.ascii	"_fnargs\000"
 21483      72677300 
 21484              	.LASF497:
 21485 1308 50574D5F 		.ascii	"PWM_READY\000"
 21485      52454144 
 21485      5900
 21486              	.LASF115:
 21487 1312 54445452 		.ascii	"TDTR\000"
 21487      00
 21488              	.LASF123:
 21489 1317 43414E5F 		.ascii	"CAN_FilterRegister_TypeDef\000"
 21489      46696C74 
 21489      65725265 
 21489      67697374 
 21489      65725F54 
 21490              	.LASF377:
 21491 1332 6572726F 		.ascii	"error_event\000"
 21491      725F6576 
 21491      656E7400 
 21492              	.LASF352:
 21493 133e 6E756D5F 		.ascii	"num_channels\000"
 21493      6368616E 
 21493      6E656C73 
 21493      00
 21494              	.LASF646:
 21495 134b 72657376 		.ascii	"resvd58\000"
 21495      64353800 
 21496              	.LASF695:
 21497 1353 55534249 		.ascii	"USBInEndpointState\000"
 21497      6E456E64 
 21497      706F696E 
 21497      74537461 
 21497      746500
 21498              	.LASF41:
 21499 1366 705F7072 		.ascii	"p_prio\000"
 21499      696F00
 21500              	.LASF882:
 21501 136d 64656669 		.ascii	"defined\000"
 21501      6E656400 
 21502              	.LASF265:
 21503 1375 696F5F71 		.ascii	"io_queue\000"
 21503      75657565 
 21503      00
 21504              	.LASF315:
 21505 137e 50414461 		.ascii	"PAData\000"
 21505      746100
 21506              	.LASF13:
 21507 1385 5F5F7569 		.ascii	"__uint64_t\000"
 21507      6E743634 
 21507      5F7400
ARM GAS  C:\Users\mathi\AppData\Local\Temp\ccXNOisu.s 			page 400


 21508              	.LASF995:
 21509 1390 73746F70 		.ascii	"stopCurrentMelody\000"
 21509      43757272 
 21509      656E744D 
 21509      656C6F64 
 21509      7900
 21510              	.LASF774:
 21511 13a2 5F6E6578 		.ascii	"_next\000"
 21511      7400
 21512              	.LASF937:
 21513 13a8 63616D5F 		.ascii	"cam_x1\000"
 21513      783100
 21514              	.LASF502:
 21515 13af 70776D63 		.ascii	"pwmcallback_t\000"
 21515      616C6C62 
 21515      61636B5F 
 21515      7400
 21516              	.LASF395:
 21517 13bd 70617261 		.ascii	"params\000"
 21517      6D7300
 21518              	.LASF592:
 21519 13c4 5553425F 		.ascii	"USB_EP0_SENDING_STS\000"
 21519      4550305F 
 21519      53454E44 
 21519      494E475F 
 21519      53545300 
 21520              	.LASF857:
 21521 13d8 5F736967 		.ascii	"_signal_buf\000"
 21521      6E616C5F 
 21521      62756600 
 21522              	.LASF981:
 21523 13e4 655F6765 		.ascii	"e_get_acc_filtered\000"
 21523      745F6163 
 21523      635F6669 
 21523      6C746572 
 21523      656400
 21524              	.LASF457:
 21525 13f7 69326373 		.ascii	"i2cstate_t\000"
 21525      74617465 
 21525      5F7400
 21526              	.LASF803:
 21527 1402 5F636F6F 		.ascii	"_cookie\000"
 21527      6B696500 
 21528              	.LASF873:
 21529 140a 70617261 		.ascii	"parameter_namespace_t\000"
 21529      6D657465 
 21529      725F6E61 
 21529      6D657370 
 21529      6163655F 
 21530              	.LASF994:
 21531 1420 655F636C 		.ascii	"e_close_sound\000"
 21531      6F73655F 
 21531      736F756E 
 21531      6400
 21532              	.LASF594:
 21533 142e 75736265 		.ascii	"usbep0state_t\000"
 21533      70307374 
ARM GAS  C:\Users\mathi\AppData\Local\Temp\ccXNOisu.s 			page 401


 21533      6174655F 
 21533      7400
 21534              	.LASF399:
 21535 143c 64616365 		.ascii	"dacerror_t\000"
 21535      72726F72 
 21535      5F7400
 21536              	.LASF127:
 21537 1447 7354784D 		.ascii	"sTxMailBox\000"
 21537      61696C42 
 21537      6F7800
 21538              	.LASF334:
 21539 1452 61646373 		.ascii	"adcsample_t\000"
 21539      616D706C 
 21539      655F7400 
 21540              	.LASF432:
 21541 145e 67707463 		.ascii	"gptcallback_t\000"
 21541      616C6C62 
 21541      61636B5F 
 21541      7400
 21542              	.LASF268:
 21543 146c 715F6275 		.ascii	"q_buffer\000"
 21543      66666572 
 21543      00
 21544              	.LASF39:
 21545 1475 705F6E65 		.ascii	"p_next\000"
 21545      787400
 21546              	.LASF479:
 21547 147c 49324344 		.ascii	"I2CD1\000"
 21547      3100
 21548              	.LASF620:
 21549 1482 72657376 		.ascii	"resvd4\000"
 21549      643400
 21550              	.LASF562:
 21551 1489 55534244 		.ascii	"USBDriver\000"
 21551      72697665 
 21551      7200
 21552              	.LASF679:
 21553 1493 72657376 		.ascii	"resvd8C0\000"
 21553      64384330 
 21553      00
 21554              	.LASF716:
 21555 149c 55534243 		.ascii	"USBConfig\000"
 21555      6F6E6669 
 21555      6700
 21556              	.LASF622:
 21557 14a6 72657376 		.ascii	"resvdC\000"
 21557      644300
 21558              	.LASF509:
 21559 14ad 50574D44 		.ascii	"PWMD2\000"
 21559      3200
 21560              	.LASF510:
 21561 14b3 50574D44 		.ascii	"PWMD3\000"
 21561      3300
 21562              	.LASF511:
 21563 14b9 50574D44 		.ascii	"PWMD4\000"
 21563      3400
 21564              	.LASF512:
ARM GAS  C:\Users\mathi\AppData\Local\Temp\ccXNOisu.s 			page 402


 21565 14bf 50574D44 		.ascii	"PWMD5\000"
 21565      3500
 21566              	.LASF943:
 21567 14c5 69725F6C 		.ascii	"ir_last_move\000"
 21567      6173745F 
 21567      6D6F7665 
 21567      00
 21568              	.LASF520:
 21569 14d2 6F717565 		.ascii	"oqueue\000"
 21569      756500
 21570              	.LASF29:
 21571 14d9 74726566 		.ascii	"trefs_t\000"
 21571      735F7400 
 21572              	.LASF58:
 21573 14e1 705F6D70 		.ascii	"p_mpool\000"
 21573      6F6F6C00 
 21574              	.LASF957:
 21575 14e9 655F7561 		.ascii	"e_uart1_sending\000"
 21575      7274315F 
 21575      73656E64 
 21575      696E6700 
 21576              	.LASF407:
 21577 14f9 44414343 		.ascii	"DACConversionGroup\000"
 21577      6F6E7665 
 21577      7273696F 
 21577      6E47726F 
 21577      757000
 21578              	.LASF157:
 21579 150c 43575354 		.ascii	"CWSTRTR\000"
 21579      52545200 
 21580              	.LASF779:
 21581 1514 5F5F746D 		.ascii	"__tm_sec\000"
 21581      5F736563 
 21581      00
 21582              	.LASF709:
 21583 151d 696E5F6D 		.ascii	"in_multiplier\000"
 21583      756C7469 
 21583      706C6965 
 21583      7200
 21584              	.LASF332:
 21585 152b 4144435F 		.ascii	"ADC_ERROR\000"
 21585      4552524F 
 21585      5200
 21586              	.LASF788:
 21587 1535 5F6F6E5F 		.ascii	"_on_exit_args\000"
 21587      65786974 
 21587      5F617267 
 21587      7300
 21588              	.LASF849:
 21589 1543 5F6C6F63 		.ascii	"_localtime_buf\000"
 21589      616C7469 
 21589      6D655F62 
 21589      756600
 21590              	.LASF27:
 21591 1552 746D6F64 		.ascii	"tmode_t\000"
 21591      655F7400 
 21592              	.LASF727:
ARM GAS  C:\Users\mathi\AppData\Local\Temp\ccXNOisu.s 			page 403


 21593 155a 44434D49 		.ascii	"DCMI_ERROR\000"
 21593      5F455252 
 21593      4F5200
 21594              	.LASF330:
 21595 1565 4144435F 		.ascii	"ADC_ACTIVE\000"
 21595      41435449 
 21595      564500
 21596              	.LASF797:
 21597 1570 5F626173 		.ascii	"_base\000"
 21597      6500
 21598              	.LASF106:
 21599 1576 53515231 		.ascii	"SQR1\000"
 21599      00
 21600              	.LASF107:
 21601 157b 53515232 		.ascii	"SQR2\000"
 21601      00
 21602              	.LASF108:
 21603 1580 53515233 		.ascii	"SQR3\000"
 21603      00
 21604              	.LASF303:
 21605 1585 42535252 		.ascii	"BSRR\000"
 21605      00
 21606              	.LASF987:
 21607 158a 655F7365 		.ascii	"e_set_front_led\000"
 21607      745F6672 
 21607      6F6E745F 
 21607      6C656400 
 21608              	.LASF282:
 21609 159a 73746D33 		.ascii	"stm32_dma_stream_t\000"
 21609      325F646D 
 21609      615F7374 
 21609      7265616D 
 21609      5F7400
 21610              	.LASF714:
 21611 15ad 72657175 		.ascii	"requests_hook_cb\000"
 21611      65737473 
 21611      5F686F6F 
 21611      6B5F6362 
 21611      00
 21612              	.LASF862:
 21613 15be 5F776372 		.ascii	"_wcrtomb_state\000"
 21613      746F6D62 
 21613      5F737461 
 21613      746500
 21614              	.LASF531:
 21615 15cd 5344435F 		.ascii	"SDC_MODE_8BIT\000"
 21615      4D4F4445 
 21615      5F384249 
 21615      5400
 21616              	.LASF692:
 21617 15db 74787369 		.ascii	"txsize\000"
 21617      7A6500
 21618              	.LASF403:
 21619 15e2 4441435F 		.ascii	"DAC_DHRM_12BIT_LEFT\000"
 21619      4448524D 
 21619      5F313242 
 21619      49545F4C 
ARM GAS  C:\Users\mathi\AppData\Local\Temp\ccXNOisu.s 			page 404


 21619      45465400 
 21620              	.LASF985:
 21621 15f6 69734570 		.ascii	"isEpuckVersion1_3\000"
 21621      75636B56 
 21621      65727369 
 21621      6F6E315F 
 21621      3300
 21622              	.LASF500:
 21623 1608 70657269 		.ascii	"period\000"
 21623      6F6400
 21624              	.LASF959:
 21625 160f 655F6932 		.ascii	"e_i2cp_enable\000"
 21625      63705F65 
 21625      6E61626C 
 21625      6500
 21626              	.LASF456:
 21627 161d 4932435F 		.ascii	"I2C_LOCKED\000"
 21627      4C4F434B 
 21627      454400
 21628              	.LASF920:
 21629 1628 73706565 		.ascii	"speedl\000"
 21629      646C00
 21630              	.LASF88:
 21631 162f 6973725F 		.ascii	"isr_cnt\000"
 21631      636E7400 
 21632              	.LASF988:
 21633 1637 655F706C 		.ascii	"e_play_sound\000"
 21633      61795F73 
 21633      6F756E64 
 21633      00
 21634              	.LASF919:
 21635 1644 73706565 		.ascii	"speedr\000"
 21635      647200
 21636              	.LASF583:
 21637 164b 5553425F 		.ascii	"USB_READY\000"
 21637      52454144 
 21637      5900
 21638              	.LASF528:
 21639 1655 72656164 		.ascii	"readt\000"
 21639      7400
 21640              	.LASF814:
 21641 165b 5F6D6273 		.ascii	"_mbstate\000"
 21641      74617465 
 21641      00
 21642              	.LASF635:
 21643 1664 47525354 		.ascii	"GRSTCTL\000"
 21643      43544C00 
 21644              	.LASF429:
 21645 166c 67707473 		.ascii	"gptstate_t\000"
 21645      74617465 
 21645      5F7400
 21646              	.LASF1003:
 21647 1677 655F6765 		.ascii	"e_getchar_uart1\000"
 21647      74636861 
 21647      725F7561 
 21647      72743100 
 21648              	.LASF16:
ARM GAS  C:\Users\mathi\AppData\Local\Temp\ccXNOisu.s 			page 405


 21649 1687 696E7438 		.ascii	"int8_t\000"
 21649      5F7400
 21650              	.LASF772:
 21651 168e 5F5F554C 		.ascii	"__ULong\000"
 21651      6F6E6700 
 21652              	.LASF87:
 21653 1696 70616E69 		.ascii	"panic_msg\000"
 21653      635F6D73 
 21653      6700
 21654              	.LASF554:
 21655 16a0 5350495F 		.ascii	"SPI_COMPLETE\000"
 21655      434F4D50 
 21655      4C455445 
 21655      00
 21656              	.LASF176:
 21657 16ad 4454494D 		.ascii	"DTIMER\000"
 21657      455200
 21658              	.LASF71:
 21659 16b4 725F6E65 		.ascii	"r_newer\000"
 21659      77657200 
 21660              	.LASF600:
 21661 16bc 5553425F 		.ascii	"USB_EVENT_STALLED\000"
 21661      4556454E 
 21661      545F5354 
 21661      414C4C45 
 21661      4400
 21662              	.LASF251:
 21663 16ce 63686465 		.ascii	"chdebug_t\000"
 21663      6275675F 
 21663      7400
 21664              	.LASF698:
 21665 16d8 72787369 		.ascii	"rxsize\000"
 21665      7A6500
 21666              	.LASF963:
 21667 16df 655F6765 		.ascii	"e_get_steps_right\000"
 21667      745F7374 
 21667      6570735F 
 21667      72696768 
 21667      7400
 21668              	.LASF614:
 21669 16f1 48435453 		.ascii	"HCTSIZ\000"
 21669      495A00
 21670              	.LASF597:
 21671 16f8 5553425F 		.ascii	"USB_EVENT_CONFIGURED\000"
 21671      4556454E 
 21671      545F434F 
 21671      4E464947 
 21671      55524544 
 21672              	.LASF546:
 21673 170d 64697363 		.ascii	"disconnect\000"
 21673      6F6E6E65 
 21673      637400
 21674              	.LASF752:
 21675 1718 6F70746F 		.ascii	"optopt\000"
 21675      707400
 21676              	.LASF525:
 21677 171f 70757474 		.ascii	"putt\000"
ARM GAS  C:\Users\mathi\AppData\Local\Temp\ccXNOisu.s 			page 406


 21677      00
 21678              	.LASF30:
 21679 1724 74736C69 		.ascii	"tslices_t\000"
 21679      6365735F 
 21679      7400
 21680              	.LASF847:
 21681 172e 5F737472 		.ascii	"_strtok_last\000"
 21681      746F6B5F 
 21681      6C617374 
 21681      00
 21682              	.LASF1016:
 21683 173b 433A5C55 		.ascii	"C:\\Users\\mathi\\Documents\\robotique\\robotics_pr"
 21683      73657273 
 21683      5C6D6174 
 21683      68695C44 
 21683      6F63756D 
 21684 1769 6F6A6563 		.ascii	"oject\\robotics_project\\robotics_project\000"
 21684      745C726F 
 21684      626F7469 
 21684      63735F70 
 21684      726F6A65 
 21685              	.LASF579:
 21686 1791 77615F70 		.ascii	"wa_pump\000"
 21686      756D7000 
 21687              	.LASF181:
 21688 1799 4649464F 		.ascii	"FIFOCNT\000"
 21688      434E5400 
 21689              	.LASF263:
 21690 17a1 6576656E 		.ascii	"event_source_t\000"
 21690      745F736F 
 21690      75726365 
 21690      5F7400
 21691              	.LASF649:
 21692 17b0 72657376 		.ascii	"resvd140\000"
 21692      64313430 
 21692      00
 21693              	.LASF79:
 21694 17b9 76745F64 		.ascii	"vt_delta\000"
 21694      656C7461 
 21694      00
 21695              	.LASF843:
 21696 17c2 5F736565 		.ascii	"_seed\000"
 21696      6400
 21697              	.LASF202:
 21698 17c8 74625F70 		.ascii	"tb_ptr\000"
 21698      747200
 21699              	.LASF406:
 21700 17cf 74726967 		.ascii	"trigger\000"
 21700      67657200 
 21701              	.LASF806:
 21702 17d7 5F736565 		.ascii	"_seek\000"
 21702      6B00
 21703              	.LASF598:
 21704 17dd 5553425F 		.ascii	"USB_EVENT_SUSPEND\000"
 21704      4556454E 
 21704      545F5355 
 21704      5350454E 
ARM GAS  C:\Users\mathi\AppData\Local\Temp\ccXNOisu.s 			page 407


 21704      4400
 21705              	.LASF18:
 21706 17ef 696E7431 		.ascii	"int16_t\000"
 21706      365F7400 
 21707              	.LASF425:
 21708 17f7 4750545F 		.ascii	"GPT_STOP\000"
 21708      53544F50 
 21708      00
 21709              	.LASF114:
 21710 1800 4144435F 		.ascii	"ADC_TypeDef\000"
 21710      54797065 
 21710      44656600 
 21711              	.LASF7:
 21712 180c 73686F72 		.ascii	"short unsigned int\000"
 21712      7420756E 
 21712      7369676E 
 21712      65642069 
 21712      6E7400
 21713              	.LASF468:
 21714 181f 6F705F6D 		.ascii	"op_mode\000"
 21714      6F646500 
 21715              	.LASF2:
 21716 1827 7369676E 		.ascii	"signed char\000"
 21716      65642063 
 21716      68617200 
 21717              	.LASF879:
 21718 1833 70617261 		.ascii	"parameter_t\000"
 21718      6D657465 
 21718      725F7400 
 21719              	.LASF537:
 21720 183f 63617264 		.ascii	"cardmode\000"
 21720      6D6F6465 
 21720      00
 21721              	.LASF50:
 21722 1848 705F7072 		.ascii	"p_preempt\000"
 21722      65656D70 
 21722      7400
 21723              	.LASF36:
 21724 1852 75636E74 		.ascii	"ucnt_t\000"
 21724      5F7400
 21725              	.LASF117:
 21726 1859 54444852 		.ascii	"TDHR\000"
 21726      00
 21727              	.LASF328:
 21728 185e 4144435F 		.ascii	"ADC_STOP\000"
 21728      53544F50 
 21728      00
 21729              	.LASF591:
 21730 1867 5553425F 		.ascii	"USB_EP0_RX\000"
 21730      4550305F 
 21730      525800
 21731              	.LASF503:
 21732 1872 70776D6D 		.ascii	"pwmmode_t\000"
 21732      6F64655F 
 21732      7400
 21733              	.LASF572:
 21734 187c 73746174 		.ascii	"status\000"
ARM GAS  C:\Users\mathi\AppData\Local\Temp\ccXNOisu.s 			page 408


 21734      757300
 21735              	.LASF177:
 21736 1883 444C454E 		.ascii	"DLEN\000"
 21736      00
 21737              	.LASF997:
 21738 1888 67657473 		.ascii	"getselector\000"
 21738      656C6563 
 21738      746F7200 
 21739              	.LASF530:
 21740 1894 5344435F 		.ascii	"SDC_MODE_4BIT\000"
 21740      4D4F4445 
 21740      5F344249 
 21740      5400
 21741              	.LASF604:
 21742 18a2 55534244 		.ascii	"USBDescriptor\000"
 21742      65736372 
 21742      6970746F 
 21742      7200
 21743              	.LASF1013:
 21744 18b0 64636D69 		.ascii	"dcmi_get_last_image_ptr\000"
 21744      5F676574 
 21744      5F6C6173 
 21744      745F696D 
 21744      6167655F 
 21745              	.LASF557:
 21746 18c8 73706963 		.ascii	"spicallback_t\000"
 21746      616C6C62 
 21746      61636B5F 
 21746      7400
 21747              	.LASF830:
 21748 18d6 5F667265 		.ascii	"_freelist\000"
 21748      656C6973 
 21748      7400
 21749              	.LASF573:
 21750 18e0 61646472 		.ascii	"address\000"
 21750      65737300 
 21751              	.LASF53:
 21752 18e8 705F6D73 		.ascii	"p_msgqueue\000"
 21752      67717565 
 21752      756500
 21753              	.LASF248:
 21754 18f3 63665F6F 		.ascii	"cf_off_refs\000"
 21754      66665F72 
 21754      65667300 
 21755              	.LASF541:
 21756 18ff 53444343 		.ascii	"SDCConfig\000"
 21756      6F6E6669 
 21756      6700
 21757              	.LASF229:
 21758 1909 6D5F6F77 		.ascii	"m_owner\000"
 21758      6E657200 
 21759              	.LASF811:
 21760 1911 5F6F6666 		.ascii	"_offset\000"
 21760      73657400 
 21761              	.LASF887:
 21762 1919 5F706172 		.ascii	"_param_val_vector_s\000"
 21762      616D5F76 
ARM GAS  C:\Users\mathi\AppData\Local\Temp\ccXNOisu.s 			page 409


 21762      616C5F76 
 21762      6563746F 
 21762      725F7300 
 21763              	.LASF99:
 21764 192d 53797374 		.ascii	"SystemCoreClock\000"
 21764      656D436F 
 21764      7265436C 
 21764      6F636B00 
 21765              	.LASF350:
 21766 193d 61646365 		.ascii	"adcerrorcallback_t\000"
 21766      72726F72 
 21766      63616C6C 
 21766      6261636B 
 21766      5F7400
 21767              	.LASF385:
 21768 1950 4441435F 		.ascii	"DAC_ACTIVE\000"
 21768      41435449 
 21768      564500
 21769              	.LASF938:
 21770 195b 63616D5F 		.ascii	"cam_y1\000"
 21770      793100
 21771              	.LASF340:
 21772 1962 73746174 		.ascii	"state\000"
 21772      6500
 21773              	.LASF982:
 21774 1968 655F6765 		.ascii	"e_get_check\000"
 21774      745F6368 
 21774      65636B00 
 21775              	.LASF236:
 21776 1974 63685F76 		.ascii	"ch_version\000"
 21776      65727369 
 21776      6F6E00
 21777              	.LASF796:
 21778 197f 5F5F7362 		.ascii	"__sbuf\000"
 21778      756600
 21779              	.LASF538:
 21780 1986 7364696F 		.ascii	"sdio\000"
 21780      00
 21781              	.LASF976:
 21782 198b 655F6765 		.ascii	"e_get_calibrated_prox\000"
 21782      745F6361 
 21782      6C696272 
 21782      61746564 
 21782      5F70726F 
 21783              	.LASF140:
 21784 19a1 53575452 		.ascii	"SWTRIGR\000"
 21784      49475200 
 21785              	.LASF590:
 21786 19a9 5553425F 		.ascii	"USB_EP0_WAITING_STS\000"
 21786      4550305F 
 21786      57414954 
 21786      494E475F 
 21786      53545300 
 21787              	.LASF168:
 21788 19bd 4932435F 		.ascii	"I2C_TypeDef\000"
 21788      54797065 
 21788      44656600 
ARM GAS  C:\Users\mathi\AppData\Local\Temp\ccXNOisu.s 			page 410


 21789              	.LASF121:
 21790 19c9 52444852 		.ascii	"RDHR\000"
 21790      00
 21791              	.LASF751:
 21792 19ce 6F707465 		.ascii	"opterr\000"
 21792      727200
 21793              	.LASF845:
 21794 19d5 5F616464 		.ascii	"_add\000"
 21794      00
 21795              	.LASF439:
 21796 19da 444D4152 		.ascii	"DMAR\000"
 21796      00
 21797              	.LASF445:
 21798 19df 63616C6C 		.ascii	"callback\000"
 21798      6261636B 
 21798      00
 21799              	.LASF92:
 21800 19e8 63685F73 		.ascii	"ch_system\000"
 21800      79737465 
 21800      6D00
 21801              	.LASF169:
 21802 19f2 504F5745 		.ascii	"POWER\000"
 21802      5200
 21803              	.LASF816:
 21804 19f8 5F726565 		.ascii	"_reent\000"
 21804      6E7400
 21805              	.LASF90:
 21806 19ff 74726163 		.ascii	"trace_buffer\000"
 21806      655F6275 
 21806      66666572 
 21806      00
 21807              	.LASF856:
 21808 1a0c 5F6C3634 		.ascii	"_l64a_buf\000"
 21808      615F6275 
 21808      6600
 21809              	.LASF848:
 21810 1a16 5F617363 		.ascii	"_asctime_buf\000"
 21810      74696D65 
 21810      5F627566 
 21810      00
 21811              	.LASF404:
 21812 1a23 4441435F 		.ascii	"DAC_DHRM_8BIT_RIGHT\000"
 21812      4448524D 
 21812      5F384249 
 21812      545F5249 
 21812      47485400 
 21813              	.LASF424:
 21814 1a37 4750545F 		.ascii	"GPT_UNINIT\000"
 21814      554E494E 
 21814      495400
 21815              	.LASF742:
 21816 1a42 5F5F7763 		.ascii	"__wch\000"
 21816      6800
 21817              	.LASF745:
 21818 1a48 5F5F7661 		.ascii	"__value\000"
 21818      6C756500 
 21819              	.LASF224:
ARM GAS  C:\Users\mathi\AppData\Local\Temp\ccXNOisu.s 			page 411


 21820 1a50 63685F73 		.ascii	"ch_semaphore\000"
 21820      656D6170 
 21820      686F7265 
 21820      00
 21821              	.LASF912:
 21822 1a5d 5F637479 		.ascii	"_ctype_\000"
 21822      70655F00 
 21823              	.LASF863:
 21824 1a65 5F776373 		.ascii	"_wcsrtombs_state\000"
 21824      72746F6D 
 21824      62735F73 
 21824      74617465 
 21824      00
 21825              	.LASF729:
 21826 1a76 64636D69 		.ascii	"dcmistate_t\000"
 21826      73746174 
 21826      655F7400 
 21827              	.LASF623:
 21828 1a82 44494550 		.ascii	"DIEPTSIZ\000"
 21828      5453495A 
 21828      00
 21829              	.LASF885:
 21830 1a8b 5F706172 		.ascii	"_param_val_str_s\000"
 21830      616D5F76 
 21830      616C5F73 
 21830      74725F73 
 21830      00
 21831              	.LASF355:
 21832 1a9c 736D7072 		.ascii	"smpr1\000"
 21832      3100
 21833              	.LASF356:
 21834 1aa2 736D7072 		.ascii	"smpr2\000"
 21834      3200
 21835              	.LASF64:
 21836 1aa8 74687265 		.ascii	"threads_queue_t\000"
 21836      6164735F 
 21836      71756575 
 21836      655F7400 
 21837              	.LASF293:
 21838 1ab8 626C6B73 		.ascii	"blkstate_t\000"
 21838      74617465 
 21838      5F7400
 21839              	.LASF51:
 21840 1ac3 705F7469 		.ascii	"p_time\000"
 21840      6D6500
 21841              	.LASF49:
 21842 1aca 705F7265 		.ascii	"p_refs\000"
 21842      667300
 21843              	.LASF701:
 21844 1ad1 65705F6D 		.ascii	"ep_mode\000"
 21844      6F646500 
 21845              	.LASF504:
 21846 1ad9 70776D63 		.ascii	"pwmchannel_t\000"
 21846      68616E6E 
 21846      656C5F74 
 21846      00
 21847              	.LASF116:
ARM GAS  C:\Users\mathi\AppData\Local\Temp\ccXNOisu.s 			page 412


 21848 1ae6 54444C52 		.ascii	"TDLR\000"
 21848      00
 21849              	.LASF9:
 21850 1aeb 6C6F6E67 		.ascii	"long int\000"
 21850      20696E74 
 21850      00
 21851              	.LASF95:
 21852 1af4 6D61696E 		.ascii	"mainthread\000"
 21852      74687265 
 21852      616400
 21853              	.LASF1001:
 21854 1aff 52656164 		.ascii	"ReadEE\000"
 21854      454500
 21855              	.LASF569:
 21856 1b06 6570306E 		.ascii	"ep0n\000"
 21856      00
 21857              	.LASF682:
 21858 1b0b 72657376 		.ascii	"resvdE04\000"
 21858      64453034 
 21858      00
 21859              	.LASF228:
 21860 1b14 6D5F7175 		.ascii	"m_queue\000"
 21860      65756500 
 21861              	.LASF392:
 21862 1b1c 646D6169 		.ascii	"dmairqprio\000"
 21862      72717072 
 21862      696F00
 21863              	.LASF430:
 21864 1b27 47505444 		.ascii	"GPTDriver\000"
 21864      72697665 
 21864      7200
 21865              	.LASF534:
 21866 1b31 73646366 		.ascii	"sdcflags_t\000"
 21866      6C616773 
 21866      5F7400
 21867              	.LASF322:
 21868 1b3c 50484461 		.ascii	"PHData\000"
 21868      746100
 21869              	.LASF325:
 21870 1b43 696F706F 		.ascii	"ioportid_t\000"
 21870      72746964 
 21870      5F7400
 21871              	.LASF765:
 21872 1b4e 6D657373 		.ascii	"messagebus_topic_t\000"
 21872      61676562 
 21872      75735F74 
 21872      6F706963 
 21872      5F7400
 21873              	.LASF363:
 21874 1b61 41444344 		.ascii	"ADCD1\000"
 21874      3100
 21875              	.LASF364:
 21876 1b67 41444344 		.ascii	"ADCD2\000"
 21876      3200
 21877              	.LASF365:
 21878 1b6d 41444344 		.ascii	"ADCD3\000"
 21878      3300
ARM GAS  C:\Users\mathi\AppData\Local\Temp\ccXNOisu.s 			page 413


 21879              	.LASF650:
 21880 1b73 48434647 		.ascii	"HCFG\000"
 21880      00
 21881              	.LASF348:
 21882 1b78 646D616D 		.ascii	"dmamode\000"
 21882      6F646500 
 21883              	.LASF210:
 21884 1b80 63756D75 		.ascii	"cumulative\000"
 21884      6C617469 
 21884      766500
 21885              	.LASF841:
 21886 1b8b 5F696F62 		.ascii	"_iobs\000"
 21886      7300
 21887              	.LASF561:
 21888 1b91 53504944 		.ascii	"SPID1\000"
 21888      3100
 21889              	.LASF526:
 21890 1b97 67657474 		.ascii	"gett\000"
 21890      00
 21891              	.LASF932:
 21892 1b9c 63616D5F 		.ascii	"cam_mode\000"
 21892      6D6F6465 
 21892      00
 21893              	.LASF220:
 21894 1ba5 77747472 		.ascii	"wttrp\000"
 21894      7000
 21895              	.LASF271:
 21896 1bab 715F7264 		.ascii	"q_rdptr\000"
 21896      70747200 
 21897              	.LASF194:
 21898 1bb3 636F6E74 		.ascii	"context\000"
 21898      65787400 
 21899              	.LASF523:
 21900 1bbb 77726974 		.ascii	"write\000"
 21900      6500
 21901              	.LASF851:
 21902 1bc1 5F72616E 		.ascii	"_rand_next\000"
 21902      645F6E65 
 21902      787400
 21903              	.LASF519:
 21904 1bcc 69717565 		.ascii	"iqueue\000"
 21904      756500
 21905              	.LASF703:
 21906 1bd3 696E5F63 		.ascii	"in_cb\000"
 21906      6200
 21907              	.LASF628:
 21908 1bd9 444F4550 		.ascii	"DOEPINT\000"
 21908      494E5400 
 21909              	.LASF209:
 21910 1be1 6C617374 		.ascii	"last\000"
 21910      00
 21911              	.LASF966:
 21912 1be6 655F6C65 		.ascii	"e_led_clear\000"
 21912      645F636C 
 21912      65617200 
 21913              	.LASF304:
 21914 1bf2 4C434B52 		.ascii	"LCKR\000"
ARM GAS  C:\Users\mathi\AppData\Local\Temp\ccXNOisu.s 			page 414


 21914      00
 21915              	.LASF516:
 21916 1bf7 73647374 		.ascii	"sdstate_t\000"
 21916      6174655F 
 21916      7400
 21917              	.LASF21:
 21918 1c01 75696E74 		.ascii	"uint32_t\000"
 21918      33325F74 
 21918      00
 21919              	.LASF389:
 21920 1c0a 64617461 		.ascii	"dataoffset\000"
 21920      6F666673 
 21920      657400
 21921              	.LASF775:
 21922 1c15 5F6D6178 		.ascii	"_maxwds\000"
 21922      77647300 
 21923              	.LASF291:
 21924 1c1d 424C4B5F 		.ascii	"BLK_WRITING\000"
 21924      57524954 
 21924      494E4700 
 21925              	.LASF120:
 21926 1c29 52444C52 		.ascii	"RDLR\000"
 21926      00
 21927              	.LASF756:
 21928 1c2e 62756666 		.ascii	"buffer_len\000"
 21928      65725F6C 
 21928      656E00
 21929              	.LASF776:
 21930 1c39 5F736967 		.ascii	"_sign\000"
 21930      6E00
 21931              	.LASF896:
 21932 1c3f 4D415249 		.ascii	"MARIO\000"
 21932      4F00
 21933              	.LASF24:
 21934 1c45 6C6F6E67 		.ascii	"long double\000"
 21934      20646F75 
 21934      626C6500 
 21935              	.LASF192:
 21936 1c51 72656761 		.ascii	"regarm_t\000"
 21936      726D5F74 
 21936      00
 21937              	.LASF33:
 21938 1c5a 6576656E 		.ascii	"eventmask_t\000"
 21938      746D6173 
 21938      6B5F7400 
 21939              	.LASF343:
 21940 1c66 64657074 		.ascii	"depth\000"
 21940      6800
 21941              	.LASF134:
 21942 1c6c 46464131 		.ascii	"FFA1R\000"
 21942      5200
 21943              	.LASF584:
 21944 1c72 5553425F 		.ascii	"USB_SELECTED\000"
 21944      53454C45 
 21944      43544544 
 21944      00
 21945              	.LASF1008:
ARM GAS  C:\Users\mathi\AppData\Local\Temp\ccXNOisu.s 			page 415


 21946 1c7f 62757474 		.ascii	"button_get_state\000"
 21946      6F6E5F67 
 21946      65745F73 
 21946      74617465 
 21946      00
 21947              	.LASF11:
 21948 1c90 6C6F6E67 		.ascii	"long unsigned int\000"
 21948      20756E73 
 21948      69676E65 
 21948      6420696E 
 21948      7400
 21949              	.LASF576:
 21950 1ca2 706D6E65 		.ascii	"pmnext\000"
 21950      787400
 21951              	.LASF960:
 21952 1ca9 655F6932 		.ascii	"e_i2cp_read\000"
 21952      63705F72 
 21952      65616400 
 21953              	.LASF483:
 21954 1cb5 4932535F 		.ascii	"I2S_ACTIVE\000"
 21954      41435449 
 21954      564500
 21955              	.LASF426:
 21956 1cc0 4750545F 		.ascii	"GPT_READY\000"
 21956      52454144 
 21956      5900
 21957              	.LASF388:
 21958 1cca 64616373 		.ascii	"dacstate_t\000"
 21958      74617465 
 21958      5F7400
 21959              	.LASF728:
 21960 1cd5 44434D49 		.ascii	"DCMI_TIMEOUT\000"
 21960      5F54494D 
 21960      454F5554 
 21960      00
 21961              	.LASF197:
 21962 1ce2 73655F74 		.ascii	"se_tp\000"
 21962      7000
 21963              	.LASF270:
 21964 1ce8 715F7772 		.ascii	"q_wrptr\000"
 21964      70747200 
 21965              	.LASF396:
 21966 1cf0 64616373 		.ascii	"dacsample_t\000"
 21966      616D706C 
 21966      655F7400 
 21967              	.LASF596:
 21968 1cfc 5553425F 		.ascii	"USB_EVENT_ADDRESS\000"
 21968      4556454E 
 21968      545F4144 
 21968      44524553 
 21968      5300
 21969              	.LASF491:
 21970 1d0e 69327363 		.ascii	"i2scfgr\000"
 21970      66677200 
 21971              	.LASF171:
 21972 1d16 52455350 		.ascii	"RESPCMD\000"
 21972      434D4400 
ARM GAS  C:\Users\mathi\AppData\Local\Temp\ccXNOisu.s 			page 416


 21973              	.LASF375:
 21974 1d1e 72786675 		.ascii	"rxfull_event\000"
 21974      6C6C5F65 
 21974      76656E74 
 21974      00
 21975              	.LASF601:
 21976 1d2b 75736265 		.ascii	"usbevent_t\000"
 21976      76656E74 
 21976      5F7400
 21977              	.LASF807:
 21978 1d36 5F636C6F 		.ascii	"_close\000"
 21978      736500
 21979              	.LASF232:
 21980 1d3d 63686172 		.ascii	"char\000"
 21980      00
 21981              	.LASF719:
 21982 1d42 44434D49 		.ascii	"DCMI_ERR_OVERFLOW\000"
 21982      5F455252 
 21982      5F4F5645 
 21982      52464C4F 
 21982      5700
 21983              	.LASF155:
 21984 1d54 45534352 		.ascii	"ESCR\000"
 21984      00
 21985              	.LASF372:
 21986 1d59 43414E43 		.ascii	"CANConfig\000"
 21986      6F6E6669 
 21986      6700
 21987              	.LASF319:
 21988 1d63 50454461 		.ascii	"PEData\000"
 21988      746100
 21989              	.LASF68:
 21990 1d6a 725F7175 		.ascii	"r_queue\000"
 21990      65756500 
 21991              	.LASF839:
 21992 1d72 5F676C75 		.ascii	"_glue\000"
 21992      6500
 21993              	.LASF950:
 21994 1d78 5F5F6C6F 		.ascii	"__locale_ctype_ptr\000"
 21994      63616C65 
 21994      5F637479 
 21994      70655F70 
 21994      747200
 21995              	.LASF769:
 21996 1d8b 6D657373 		.ascii	"messagebus_watchgroup_s\000"
 21996      61676562 
 21996      75735F77 
 21996      61746368 
 21996      67726F75 
 21997              	.LASF980:
 21998 1da3 655F7365 		.ascii	"e_set_speed_right\000"
 21998      745F7370 
 21998      6565645F 
 21998      72696768 
 21998      7400
 21999              	.LASF501:
 22000 1db5 656E6162 		.ascii	"enabled\000"
ARM GAS  C:\Users\mathi\AppData\Local\Temp\ccXNOisu.s 			page 417


 22000      6C656400 
 22001              	.LASF971:
 22002 1dbd 655F706F 		.ascii	"e_poxxxx_write_cam_registers\000"
 22002      78787878 
 22002      5F777269 
 22002      74655F63 
 22002      616D5F72 
 22003              	.LASF397:
 22004 1dda 4441435F 		.ascii	"DAC_ERR_DMAFAILURE\000"
 22004      4552525F 
 22004      444D4146 
 22004      41494C55 
 22004      524500
 22005              	.LASF640:
 22006 1ded 47525846 		.ascii	"GRXFSIZ\000"
 22006      53495A00 
 22007              	.LASF902:
 22008 1df5 50495241 		.ascii	"PIRATES_OF_THE_CARIBBEAN\000"
 22008      5445535F 
 22008      4F465F54 
 22008      48455F43 
 22008      41524942 
 22009              	.LASF547:
 22010 1e0e 73796E63 		.ascii	"sync\000"
 22010      00
 22011              	.LASF521:
 22012 1e13 75736172 		.ascii	"usart\000"
 22012      7400
 22013              	.LASF158:
 22014 1e19 43575349 		.ascii	"CWSIZER\000"
 22014      5A455200 
 22015              	.LASF533:
 22016 1e21 7364636D 		.ascii	"sdcmode_t\000"
 22016      6F64655F 
 22016      7400
 22017              	.LASF273:
 22018 1e2b 715F6C69 		.ascii	"q_link\000"
 22018      6E6B00
 22019              	.LASF1000:
 22020 1e32 655F696E 		.ascii	"e_init_remote_control\000"
 22020      69745F72 
 22020      656D6F74 
 22020      655F636F 
 22020      6E74726F 
 22021              	.LASF733:
 22022 1e48 64636D69 		.ascii	"dcmierrorcallback_t\000"
 22022      6572726F 
 22022      7263616C 
 22022      6C626163 
 22022      6B5F7400 
 22023              	.LASF661:
 22024 1e5c 44434647 		.ascii	"DCFG\000"
 22024      00
 22025              	.LASF773:
 22026 1e61 5F426967 		.ascii	"_Bigint\000"
 22026      696E7400 
 22027              	.LASF671:
ARM GAS  C:\Users\mathi\AppData\Local\Temp\ccXNOisu.s 			page 418


 22028 1e69 44564255 		.ascii	"DVBUSDIS\000"
 22028      53444953 
 22028      00
 22029              	.LASF637:
 22030 1e72 47494E54 		.ascii	"GINTMSK\000"
 22030      4D534B00 
 22031              	.LASF642:
 22032 1e7a 484E5054 		.ascii	"HNPTXSTS\000"
 22032      58535453 
 22032      00
 22033              	.LASF574:
 22034 1e83 636F6E66 		.ascii	"configuration\000"
 22034      69677572 
 22034      6174696F 
 22034      6E00
 22035              	.LASF834:
 22036 1e91 5F617465 		.ascii	"_atexit0\000"
 22036      78697430 
 22036      00
 22037              	.LASF314:
 22038 1e9a 73746D33 		.ascii	"stm32_gpio_setup_t\000"
 22038      325F6770 
 22038      696F5F73 
 22038      65747570 
 22038      5F7400
 22039              	.LASF955:
 22040 1ead 7374726C 		.ascii	"strlen\000"
 22040      656E00
 22041              	.LASF910:
 22042 1eb4 4D4C5F57 		.ascii	"ML_WAIT_AND_CHANGE\000"
 22042      4149545F 
 22042      414E445F 
 22042      4348414E 
 22042      474500
 22043              	.LASF1006:
 22044 1ec7 655F706F 		.ascii	"e_poxxxx_launch_capture\000"
 22044      78787878 
 22044      5F6C6175 
 22044      6E63685F 
 22044      63617074 
 22045              	.LASF283:
 22046 1edf 5F73746D 		.ascii	"_stm32_dma_streams\000"
 22046      33325F64 
 22046      6D615F73 
 22046      74726561 
 22046      6D7300
 22047              	.LASF142:
 22048 1ef2 44485231 		.ascii	"DHR12L1\000"
 22048      324C3100 
 22049              	.LASF145:
 22050 1efa 44485231 		.ascii	"DHR12L2\000"
 22050      324C3200 
 22051              	.LASF858:
 22052 1f02 5F676574 		.ascii	"_getdate_err\000"
 22052      64617465 
 22052      5F657272 
 22052      00
ARM GAS  C:\Users\mathi\AppData\Local\Temp\ccXNOisu.s 			page 419


 22053              	.LASF948:
 22054 1f0f 63616D5F 		.ascii	"cam_start_index\000"
 22054      73746172 
 22054      745F696E 
 22054      64657800 
 22055              	.LASF532:
 22056 1f1f 73646362 		.ascii	"sdcbusmode_t\000"
 22056      75736D6F 
 22056      64655F74 
 22056      00
 22057              	.LASF975:
 22058 1f2c 655F7365 		.ascii	"e_set_steps_right\000"
 22058      745F7374 
 22058      6570735F 
 22058      72696768 
 22058      7400
 22059              	.LASF944:
 22060 1f3e 61636365 		.ascii	"accelero\000"
 22060      6C65726F 
 22060      00
 22061              	.LASF778:
 22062 1f47 5F5F746D 		.ascii	"__tm\000"
 22062      00
 22063              	.LASF148:
 22064 1f4c 44485231 		.ascii	"DHR12LD\000"
 22064      324C4400 
 22065              	.LASF349:
 22066 1f54 61646363 		.ascii	"adccallback_t\000"
 22066      616C6C62 
 22066      61636B5F 
 22066      7400
 22067              	.LASF771:
 22068 1f62 6D657373 		.ascii	"messagebus_watchgroup_t\000"
 22068      61676562 
 22068      75735F77 
 22068      61746368 
 22068      67726F75 
 22069              	.LASF46:
 22070 1f7a 705F7374 		.ascii	"p_stklimit\000"
 22070      6B6C696D 
 22070      697400
 22071              	.LASF35:
 22072 1f85 636E745F 		.ascii	"cnt_t\000"
 22072      7400
 22073              	.LASF415:
 22074 1f8b 65787473 		.ascii	"extstate_t\000"
 22074      74617465 
 22074      5F7400
 22075              	.LASF589:
 22076 1f96 5553425F 		.ascii	"USB_EP0_WAITING_TX0\000"
 22076      4550305F 
 22076      57414954 
 22076      494E475F 
 22076      54583000 
 22077              	.LASF568:
 22078 1faa 6570306E 		.ascii	"ep0next\000"
 22078      65787400 
ARM GAS  C:\Users\mathi\AppData\Local\Temp\ccXNOisu.s 			page 420


 22079              	.LASF618:
 22080 1fb2 73746D33 		.ascii	"stm32_otg_host_chn_t\000"
 22080      325F6F74 
 22080      675F686F 
 22080      73745F63 
 22080      686E5F74 
 22081              	.LASF306:
 22082 1fc7 41465248 		.ascii	"AFRH\000"
 22082      00
 22083              	.LASF755:
 22084 1fcc 62756666 		.ascii	"buffer\000"
 22084      657200
 22085              	.LASF305:
 22086 1fd3 4146524C 		.ascii	"AFRL\000"
 22086      00
 22087              	.LASF870:
 22088 1fd8 5F696D70 		.ascii	"_impure_ptr\000"
 22088      7572655F 
 22088      70747200 
 22089              	.LASF249:
 22090 1fe4 63665F6F 		.ascii	"cf_off_preempt\000"
 22090      66665F70 
 22090      7265656D 
 22090      707400
 22091              	.LASF867:
 22092 1ff3 5F756E75 		.ascii	"_unused\000"
 22092      73656400 
 22093              	.LASF386:
 22094 1ffb 4441435F 		.ascii	"DAC_COMPLETE\000"
 22094      434F4D50 
 22094      4C455445 
 22094      00
 22095              	.LASF627:
 22096 2008 444F4550 		.ascii	"DOEPCTL\000"
 22096      43544C00 
 22097              	.LASF613:
 22098 2010 4843494E 		.ascii	"HCINTMSK\000"
 22098      544D534B 
 22098      00
 22099              	.LASF808:
 22100 2019 5F756275 		.ascii	"_ubuf\000"
 22100      6600
 22101              	.LASF952:
 22102 201f 67657459 		.ascii	"getYAxisGyro\000"
 22102      41786973 
 22102      4779726F 
 22102      00
 22103              	.LASF341:
 22104 202c 636F6E66 		.ascii	"config\000"
 22104      696700
 22105              	.LASF449:
 22106 2033 47505444 		.ascii	"GPTD11\000"
 22106      313100
 22107              	.LASF450:
 22108 203a 47505444 		.ascii	"GPTD12\000"
 22108      313200
 22109              	.LASF853:
ARM GAS  C:\Users\mathi\AppData\Local\Temp\ccXNOisu.s 			page 421


 22110 2041 5F6D626C 		.ascii	"_mblen_state\000"
 22110      656E5F73 
 22110      74617465 
 22110      00
 22111              	.LASF836:
 22112 204e 5F5F7367 		.ascii	"__sglue\000"
 22112      6C756500 
 22113              	.LASF869:
 22114 2056 5F5F6C6F 		.ascii	"__locale_t\000"
 22114      63616C65 
 22114      5F7400
 22115              	.LASF287:
 22116 2061 424C4B5F 		.ascii	"BLK_CONNECTING\000"
 22116      434F4E4E 
 22116      45435449 
 22116      4E4700
 22117              	.LASF826:
 22118 2070 5F5F636C 		.ascii	"__cleanup\000"
 22118      65616E75 
 22118      7000
 22119              	.LASF992:
 22120 207a 655F7365 		.ascii	"e_send_uart2_char\000"
 22120      6E645F75 
 22120      61727432 
 22120      5F636861 
 22120      7200
 22121              	.LASF382:
 22122 208c 4441435F 		.ascii	"DAC_UNINIT\000"
 22122      554E494E 
 22122      495400
 22123              	.LASF335:
 22124 2097 6164635F 		.ascii	"adc_channels_num_t\000"
 22124      6368616E 
 22124      6E656C73 
 22124      5F6E756D 
 22124      5F7400
 22125              	.LASF74:
 22126 20aa 76746675 		.ascii	"vtfunc_t\000"
 22126      6E635F74 
 22126      00
 22127              	.LASF122:
 22128 20b3 43414E5F 		.ascii	"CAN_FIFOMailBox_TypeDef\000"
 22128      4649464F 
 22128      4D61696C 
 22128      426F785F 
 22128      54797065 
 22129              	.LASF152:
 22130 20cb 4441435F 		.ascii	"DAC_TypeDef\000"
 22130      54797065 
 22130      44656600 
 22131              	.LASF219:
 22132 20d7 77746F62 		.ascii	"wtobjp\000"
 22132      6A7000
 22133              	.LASF740:
 22134 20de 5F66706F 		.ascii	"_fpos_t\000"
 22134      735F7400 
 22135              	.LASF402:
ARM GAS  C:\Users\mathi\AppData\Local\Temp\ccXNOisu.s 			page 422


 22136 20e6 4441435F 		.ascii	"DAC_DHRM_12BIT_RIGHT\000"
 22136      4448524D 
 22136      5F313242 
 22136      49545F52 
 22136      49474854 
 22137              	.LASF801:
 22138 20fb 5F66696C 		.ascii	"_file\000"
 22138      6500
 22139              	.LASF934:
 22140 2101 63616D5F 		.ascii	"cam_heigth\000"
 22140      68656967 
 22140      746800
 22141              	.LASF916:
 22142 210c 54797065 		.ascii	"TypeAccSpheric\000"
 22142      41636353 
 22142      70686572 
 22142      696300
 22143              	.LASF57:
 22144 211b 705F7265 		.ascii	"p_realprio\000"
 22144      616C7072 
 22144      696F00
 22145              	.LASF536:
 22146 2126 63617061 		.ascii	"capacity\000"
 22146      63697479 
 22146      00
 22147              	.LASF272:
 22148 212f 715F6E6F 		.ascii	"q_notify\000"
 22148      74696679 
 22148      00
 22149              	.LASF222:
 22150 2138 77746D74 		.ascii	"wtmtxp\000"
 22150      787000
 22151              	.LASF799:
 22152 213f 5F5F7346 		.ascii	"__sFILE\000"
 22152      494C4500 
 22153              	.LASF956:
 22154 2147 655F7365 		.ascii	"e_send_uart1_char\000"
 22154      6E645F75 
 22154      61727431 
 22154      5F636861 
 22154      7200
 22155              	.LASF795:
 22156 2159 5F666E73 		.ascii	"_fns\000"
 22156      00
 22157              	.LASF734:
 22158 215e 6672616D 		.ascii	"frame_end_cb\000"
 22158      655F656E 
 22158      645F6362 
 22158      00
 22159              	.LASF700:
 22160 216b 5553424F 		.ascii	"USBOutEndpointState\000"
 22160      7574456E 
 22160      64706F69 
 22160      6E745374 
 22160      61746500 
 22161              	.LASF1019:
 22162 217f 5F5F6275 		.ascii	"__builtin_memcpy\000"
ARM GAS  C:\Users\mathi\AppData\Local\Temp\ccXNOisu.s 			page 423


 22162      696C7469 
 22162      6E5F6D65 
 22162      6D637079 
 22162      00
 22163              	.LASF657:
 22164 2190 72657376 		.ascii	"resvd41C\000"
 22164      64343143 
 22164      00
 22165              	.LASF881:
 22166 2199 6368616E 		.ascii	"changed\000"
 22166      67656400 
 22167              	.LASF746:
 22168 21a1 5F6D6273 		.ascii	"_mbstate_t\000"
 22168      74617465 
 22168      5F7400
 22169              	.LASF864:
 22170 21ac 5F685F65 		.ascii	"_h_errno\000"
 22170      72726E6F 
 22170      00
 22171              	.LASF897:
 22172 21b5 554E4445 		.ascii	"UNDERWORLD\000"
 22172      52574F52 
 22172      4C4400
 22173              	.LASF119:
 22174 21c0 52445452 		.ascii	"RDTR\000"
 22174      00
 22175              	.LASF295:
 22176 21c5 626C6B5F 		.ascii	"blk_num\000"
 22176      6E756D00 
 22177              	.LASF595:
 22178 21cd 5553425F 		.ascii	"USB_EVENT_RESET\000"
 22178      4556454E 
 22178      545F5245 
 22178      53455400 
 22179              	.LASF67:
 22180 21dd 63685F72 		.ascii	"ch_ready_list\000"
 22180      65616479 
 22180      5F6C6973 
 22180      7400
 22181              	.LASF764:
 22182 21eb 67726F75 		.ascii	"group\000"
 22182      7000
 22183              	.LASF1007:
 22184 21f1 69735344 		.ascii	"isSDCardMounted\000"
 22184      43617264 
 22184      4D6F756E 
 22184      74656400 
 22185              	.LASF302:
 22186 2201 50555044 		.ascii	"PUPDR\000"
 22186      5200
 22187              	.LASF8:
 22188 2207 5F5F696E 		.ascii	"__int32_t\000"
 22188      7433325F 
 22188      7400
 22189              	.LASF911:
 22190 2211 4D4C5F46 		.ascii	"ML_FORCE_CHANGE\000"
 22190      4F524345 
ARM GAS  C:\Users\mathi\AppData\Local\Temp\ccXNOisu.s 			page 424


 22190      5F434841 
 22190      4E474500 
 22191              	.LASF10:
 22192 2221 5F5F7569 		.ascii	"__uint32_t\000"
 22192      6E743332 
 22192      5F7400
 22193              	.LASF900:
 22194 222c 4D415249 		.ascii	"MARIO_FLAG\000"
 22194      4F5F464C 
 22194      414700
 22195              	.LASF86:
 22196 2237 63685F73 		.ascii	"ch_system_debug\000"
 22196      79737465 
 22196      6D5F6465 
 22196      62756700 
 22197              	.LASF668:
 22198 2247 4441494E 		.ascii	"DAINTMSK\000"
 22198      544D534B 
 22198      00
 22199              	.LASF724:
 22200 2250 44434D49 		.ascii	"DCMI_ACTIVE_STREAM\000"
 22200      5F414354 
 22200      4956455F 
 22200      53545245 
 22200      414D00
 22201              	.LASF422:
 22202 2263 45585443 		.ascii	"EXTConfig\000"
 22202      6F6E6669 
 22202      6700
 22203              	.LASF874:
 22204 226d 70617261 		.ascii	"parameter_namespace_s\000"
 22204      6D657465 
 22204      725F6E61 
 22204      6D657370 
 22204      6163655F 
 22205              	.LASF267:
 22206 2283 715F636F 		.ascii	"q_counter\000"
 22206      756E7465 
 22206      7200
 22207              	.LASF587:
 22208 228d 5553425F 		.ascii	"USB_EP0_WAITING_SETUP\000"
 22208      4550305F 
 22208      57414954 
 22208      494E475F 
 22208      53455455 
 22209              	.LASF792:
 22210 22a3 5F69735F 		.ascii	"_is_cxa\000"
 22210      63786100 
 22211              	.LASF290:
 22212 22ab 424C4B5F 		.ascii	"BLK_READING\000"
 22212      52454144 
 22212      494E4700 
 22213              	.LASF312:
 22214 22b7 6166726C 		.ascii	"afrl\000"
 22214      00
 22215              	.LASF690:
 22216 22bc 71756575 		.ascii	"queue\000"
ARM GAS  C:\Users\mathi\AppData\Local\Temp\ccXNOisu.s 			page 425


 22216      6500
 22217              	.LASF570:
 22218 22c2 65703065 		.ascii	"ep0endcb\000"
 22218      6E646362 
 22218      00
 22219              	.LASF280:
 22220 22cb 73656C66 		.ascii	"selfindex\000"
 22220      696E6465 
 22220      7800
 22221              	.LASF253:
 22222 22d5 6D757465 		.ascii	"mutex_t\000"
 22222      785F7400 
 22223              	.LASF829:
 22224 22dd 5F703573 		.ascii	"_p5s\000"
 22224      00
 22225              	.LASF55:
 22226 22e2 705F6570 		.ascii	"p_epending\000"
 22226      656E6469 
 22226      6E6700
 22227              	.LASF1010:
 22228 22ed 67657441 		.ascii	"getAllAxesGyro\000"
 22228      6C6C4178 
 22228      65734779 
 22228      726F00
 22229              	.LASF299:
 22230 22fc 4D4F4445 		.ascii	"MODER\000"
 22230      5200
 22231              	.LASF484:
 22232 2302 4932535F 		.ascii	"I2S_COMPLETE\000"
 22232      434F4D50 
 22232      4C455445 
 22232      00
 22233              	.LASF969:
 22234 230f 655F706F 		.ascii	"e_poxxxx_init_cam\000"
 22234      78787878 
 22234      5F696E69 
 22234      745F6361 
 22234      6D00
 22235              	.LASF761:
 22236 2321 77617463 		.ascii	"watchers\000"
 22236      68657273 
 22236      00
 22237              	.LASF126:
 22238 232a 52455345 		.ascii	"RESERVED0\000"
 22238      52564544 
 22238      3000
 22239              	.LASF129:
 22240 2334 52455345 		.ascii	"RESERVED1\000"
 22240      52564544 
 22240      3100
 22241              	.LASF131:
 22242 233e 52455345 		.ascii	"RESERVED2\000"
 22242      52564544 
 22242      3200
 22243              	.LASF133:
 22244 2348 52455345 		.ascii	"RESERVED3\000"
 22244      52564544 
ARM GAS  C:\Users\mathi\AppData\Local\Temp\ccXNOisu.s 			page 426


 22244      3300
 22245              	.LASF135:
 22246 2352 52455345 		.ascii	"RESERVED4\000"
 22246      52564544 
 22246      3400
 22247              	.LASF137:
 22248 235c 52455345 		.ascii	"RESERVED5\000"
 22248      52564544 
 22248      3500
 22249              	.LASF711:
 22250 2366 55534245 		.ascii	"USBEndpointConfig\000"
 22250      6E64706F 
 22250      696E7443 
 22250      6F6E6669 
 22250      6700
 22251              	.LASF141:
 22252 2378 44485231 		.ascii	"DHR12R1\000"
 22252      32523100 
 22253              	.LASF144:
 22254 2380 44485231 		.ascii	"DHR12R2\000"
 22254      32523200 
 22255              	.LASF418:
 22256 2388 65787463 		.ascii	"extcallback_t\000"
 22256      616C6C62 
 22256      61636B5F 
 22256      7400
 22257              	.LASF374:
 22258 2396 72787175 		.ascii	"rxqueue\000"
 22258      65756500 
 22259              	.LASF196:
 22260 239e 73655F74 		.ascii	"se_time\000"
 22260      696D6500 
 22261              	.LASF659:
 22262 23a6 72657376 		.ascii	"resvd444\000"
 22262      64343434 
 22262      00
 22263              	.LASF326:
 22264 23af 70616C5F 		.ascii	"pal_default_config\000"
 22264      64656661 
 22264      756C745F 
 22264      636F6E66 
 22264      696700
 22265              	.LASF871:
 22266 23c2 5F676C6F 		.ascii	"_global_impure_ptr\000"
 22266      62616C5F 
 22266      696D7075 
 22266      72655F70 
 22266      747200
 22267              	.LASF344:
 22268 23d5 67727070 		.ascii	"grpp\000"
 22268      00
 22269              	.LASF147:
 22270 23da 44485231 		.ascii	"DHR12RD\000"
 22270      32524400 
 22271              	.LASF257:
 22272 23e2 656C5F6C 		.ascii	"el_listener\000"
 22272      69737465 
ARM GAS  C:\Users\mathi\AppData\Local\Temp\ccXNOisu.s 			page 427


 22272      6E657200 
 22273              	.LASF689:
 22274 23ee 6C696E65 		.ascii	"linear\000"
 22274      617200
 22275              	.LASF723:
 22276 23f5 44434D49 		.ascii	"DCMI_READY\000"
 22276      5F524541 
 22276      445900
 22277              	.LASF965:
 22278 2400 63685468 		.ascii	"chThdSleep\000"
 22278      64536C65 
 22278      657000
 22279              	.LASF442:
 22280 240b 73746D33 		.ascii	"stm32_tim_t\000"
 22280      325F7469 
 22280      6D5F7400 
 22281              	.LASF69:
 22282 2417 725F7072 		.ascii	"r_prio\000"
 22282      696F00
 22283              	.LASF154:
 22284 241e 4D495352 		.ascii	"MISR\000"
 22284      00
 22285              	.LASF98:
 22286 2423 49544D5F 		.ascii	"ITM_RxBuffer\000"
 22286      52784275 
 22286      66666572 
 22286      00
 22287              	.LASF1004:
 22288 2430 655F6765 		.ascii	"e_getchar_uart2\000"
 22288      74636861 
 22288      725F7561 
 22288      72743200 
 22289              	.LASF296:
 22290 2440 426C6F63 		.ascii	"BlockDeviceInfo\000"
 22290      6B446576 
 22290      69636549 
 22290      6E666F00 
 22291              	.LASF14:
 22292 2450 6C6F6E67 		.ascii	"long long unsigned int\000"
 22292      206C6F6E 
 22292      6720756E 
 22292      7369676E 
 22292      65642069 
 22293              	.LASF183:
 22294 2467 5344494F 		.ascii	"SDIO_TypeDef\000"
 22294      5F547970 
 22294      65446566 
 22294      00
 22295              	.LASF205:
 22296 2474 6F666673 		.ascii	"offset\000"
 22296      657400
 22297              	.LASF767:
 22298 247b 746F7069 		.ascii	"topics\000"
 22298      637300
 22299              	.LASF160:
 22300 2482 4E445452 		.ascii	"NDTR\000"
 22300      00
ARM GAS  C:\Users\mathi\AppData\Local\Temp\ccXNOisu.s 			page 428


 22301              	.LASF262:
 22302 2487 65735F6E 		.ascii	"es_next\000"
 22302      65787400 
 22303              	.LASF850:
 22304 248f 5F67616D 		.ascii	"_gamma_signgam\000"
 22304      6D615F73 
 22304      69676E67 
 22304      616D00
 22305              	.LASF625:
 22306 249e 72657376 		.ascii	"resvd1C\000"
 22306      64314300 
 22307              	.LASF97:
 22308 24a6 69646C65 		.ascii	"idle_thread_wa\000"
 22308      5F746872 
 22308      6561645F 
 22308      776100
 22309              	.LASF621:
 22310 24b5 44494550 		.ascii	"DIEPINT\000"
 22310      494E5400 
 22311              	.LASF189:
 22312 24bd 5350495F 		.ascii	"SPI_TypeDef\000"
 22312      54797065 
 22312      44656600 
 22313              	.LASF80:
 22314 24c9 76745F66 		.ascii	"vt_func\000"
 22314      756E6300 
 22315              	.LASF433:
 22316 24d1 534D4352 		.ascii	"SMCR\000"
 22316      00
 22317              	.LASF666:
 22318 24d6 444F4550 		.ascii	"DOEPMSK\000"
 22318      4D534B00 
 22319              	.LASF76:
 22320 24de 63685F76 		.ascii	"ch_virtual_timer\000"
 22320      69727475 
 22320      616C5F74 
 22320      696D6572 
 22320      00
 22321              	.LASF48:
 22322 24ef 705F666C 		.ascii	"p_flags\000"
 22322      61677300 
 22323              	.LASF991:
 22324 24f7 67657442 		.ascii	"getBatteryValuePercentage\000"
 22324      61747465 
 22324      72795661 
 22324      6C756550 
 22324      65726365 
 22325              	.LASF223:
 22326 2511 65776D61 		.ascii	"ewmask\000"
 22326      736B00
 22327              	.LASF259:
 22328 2518 656C5F66 		.ascii	"el_flags\000"
 22328      6C616773 
 22328      00
 22329              	.LASF812:
 22330 2521 5F646174 		.ascii	"_data\000"
 22330      6100
ARM GAS  C:\Users\mathi\AppData\Local\Temp\ccXNOisu.s 			page 429


 22331              	.LASF261:
 22332 2527 6576656E 		.ascii	"event_source\000"
 22332      745F736F 
 22332      75726365 
 22332      00
 22333              	.LASF56:
 22334 2534 705F6D74 		.ascii	"p_mtxlist\000"
 22334      786C6973 
 22334      7400
 22335              	.LASF381:
 22336 253e 43414E44 		.ascii	"CAND1\000"
 22336      3100
 22337              	.LASF132:
 22338 2544 46533152 		.ascii	"FS1R\000"
 22338      00
 22339              	.LASF28:
 22340 2549 74737461 		.ascii	"tstate_t\000"
 22340      74655F74 
 22340      00
 22341              	.LASF556:
 22342 2552 53504944 		.ascii	"SPIDriver\000"
 22342      72697665 
 22342      7200
 22343              	.LASF667:
 22344 255c 4441494E 		.ascii	"DAINT\000"
 22344      5400
 22345              	.LASF560:
 22346 2562 53504943 		.ascii	"SPIConfig\000"
 22346      6F6E6669 
 22346      6700
 22347              	.LASF823:
 22348 256c 5F756E73 		.ascii	"_unspecified_locale_info\000"
 22348      70656369 
 22348      66696564 
 22348      5F6C6F63 
 22348      616C655F 
 22349              	.LASF311:
 22350 2585 70757064 		.ascii	"pupdr\000"
 22350      7200
 22351              	.LASF401:
 22352 258b 64616365 		.ascii	"dacerrorcallback_t\000"
 22352      72726F72 
 22352      63616C6C 
 22352      6261636B 
 22352      5F7400
 22353              	.LASF731:
 22354 259e 64636D69 		.ascii	"dcmi\000"
 22354      00
 22355              	.LASF563:
 22356 25a3 7472616E 		.ascii	"transmitting\000"
 22356      736D6974 
 22356      74696E67 
 22356      00
 22357              	.LASF1005:
 22358 25b0 7365745F 		.ascii	"set_rgb_led\000"
 22358      7267625F 
 22358      6C656400 
ARM GAS  C:\Users\mathi\AppData\Local\Temp\ccXNOisu.s 			page 430


 22359              	.LASF421:
 22360 25bc 6368616E 		.ascii	"channels\000"
 22360      6E656C73 
 22360      00
 22361              	.LASF170:
 22362 25c5 434C4B43 		.ascii	"CLKCR\000"
 22362      5200
 22363              	.LASF535:
 22364 25cb 53444344 		.ascii	"SDCDriver\000"
 22364      72697665 
 22364      7200
 22365              	.LASF45:
 22366 25d5 705F6E61 		.ascii	"p_name\000"
 22366      6D6500
 22367              	.LASF825:
 22368 25dc 5F5F7364 		.ascii	"__sdidinit\000"
 22368      6964696E 
 22368      697400
 22369              	.LASF517:
 22370 25e7 53657269 		.ascii	"SerialDriver\000"
 22370      616C4472 
 22370      69766572 
 22370      00
 22371              	.LASF110:
 22372 25f4 4A445231 		.ascii	"JDR1\000"
 22372      00
 22373              	.LASF111:
 22374 25f9 4A445232 		.ascii	"JDR2\000"
 22374      00
 22375              	.LASF112:
 22376 25fe 4A445233 		.ascii	"JDR3\000"
 22376      00
 22377              	.LASF113:
 22378 2603 4A445234 		.ascii	"JDR4\000"
 22378      00
 22379              	.LASF629:
 22380 2608 444F4550 		.ascii	"DOEPTSIZ\000"
 22380      5453495A 
 22380      00
 22381              	.LASF329:
 22382 2611 4144435F 		.ascii	"ADC_READY\000"
 22382      52454144 
 22382      5900
 22383              	.LASF759:
 22384 261b 6E616D65 		.ascii	"name\000"
 22384      00
 22385              	.LASF747:
 22386 2620 5F666C6F 		.ascii	"_flock_t\000"
 22386      636B5F74 
 22386      00
 22387              	.LASF82:
 22388 2629 76697274 		.ascii	"virtual_timers_list_t\000"
 22388      75616C5F 
 22388      74696D65 
 22388      72735F6C 
 22388      6973745F 
 22389              	.LASF653:
ARM GAS  C:\Users\mathi\AppData\Local\Temp\ccXNOisu.s 			page 431


 22390 263f 72657376 		.ascii	"resvd40C\000"
 22390      64343043 
 22390      00
 22391              	.LASF351:
 22392 2648 63697263 		.ascii	"circular\000"
 22392      756C6172 
 22392      00
 22393              	.LASF485:
 22394 2651 69327373 		.ascii	"i2sstate_t\000"
 22394      74617465 
 22394      5F7400
 22395              	.LASF308:
 22396 265c 6D6F6465 		.ascii	"moder\000"
 22396      7200
 22397              	.LASF225:
 22398 2662 735F7175 		.ascii	"s_queue\000"
 22398      65756500 
 22399              	.LASF214:
 22400 266a 6D5F6372 		.ascii	"m_crit_thd\000"
 22400      69745F74 
 22400      686400
 22401              	.LASF383:
 22402 2675 4441435F 		.ascii	"DAC_STOP\000"
 22402      53544F50 
 22402      00
 22403              	.LASF660:
 22404 267e 72657376 		.ascii	"resvd700\000"
 22404      64373030 
 22404      00
 22405              	.LASF187:
 22406 2687 49325343 		.ascii	"I2SCFGR\000"
 22406      46475200 
 22407              	.LASF750:
 22408 268f 6F707469 		.ascii	"optind\000"
 22408      6E6400
 22409              	.LASF233:
 22410 2696 63685F69 		.ascii	"ch_identifier\000"
 22410      64656E74 
 22410      69666965 
 22410      7200
 22411              	.LASF527:
 22412 26a4 77726974 		.ascii	"writet\000"
 22412      657400
 22413              	.LASF907:
 22414 26ab 4E425F53 		.ascii	"NB_SONGS\000"
 22414      4F4E4753 
 22414      00
 22415              	.LASF12:
 22416 26b4 6C6F6E67 		.ascii	"long long int\000"
 22416      206C6F6E 
 22416      6720696E 
 22416      7400
 22417              	.LASF958:
 22418 26c2 67657454 		.ascii	"getTemperature\000"
 22418      656D7065 
 22418      72617475 
 22418      726500
ARM GAS  C:\Users\mathi\AppData\Local\Temp\ccXNOisu.s 			page 432


 22419              	.LASF647:
 22420 26d1 48505458 		.ascii	"HPTXFSIZ\000"
 22420      4653495A 
 22420      00
 22421              	.LASF735:
 22422 26da 7472616E 		.ascii	"transfer_complete_cb\000"
 22422      73666572 
 22422      5F636F6D 
 22422      706C6574 
 22422      655F6362 
 22423              	.LASF240:
 22424 26ef 63665F6F 		.ascii	"cf_off_prio\000"
 22424      66665F70 
 22424      72696F00 
 22425              	.LASF815:
 22426 26fb 5F666C61 		.ascii	"_flags2\000"
 22426      67733200 
 22427              	.LASF978:
 22428 2703 655F6765 		.ascii	"e_get_micro_volume\000"
 22428      745F6D69 
 22428      63726F5F 
 22428      766F6C75 
 22428      6D6500
 22429              	.LASF865:
 22430 2716 5F6E6578 		.ascii	"_nextf\000"
 22430      746600
 22431              	.LASF211:
 22432 271d 74696D65 		.ascii	"time_measurement_t\000"
 22432      5F6D6561 
 22432      73757265 
 22432      6D656E74 
 22432      5F7400
 22433              	.LASF548:
 22434 2730 6765745F 		.ascii	"get_info\000"
 22434      696E666F 
 22434      00
 22435              	.LASF338:
 22436 2739 61646365 		.ascii	"adcerror_t\000"
 22436      72726F72 
 22436      5F7400
 22437              	.LASF713:
 22438 2744 6765745F 		.ascii	"get_descriptor_cb\000"
 22438      64657363 
 22438      72697074 
 22438      6F725F63 
 22438      6200
 22439              	.LASF824:
 22440 2756 5F6C6F63 		.ascii	"_locale\000"
 22440      616C6500 
 22441              	.LASF34:
 22442 275e 6576656E 		.ascii	"eventflags_t\000"
 22442      74666C61 
 22442      67735F74 
 22442      00
 22443              	.LASF552:
 22444 276b 5350495F 		.ascii	"SPI_READY\000"
 22444      52454144 
ARM GAS  C:\Users\mathi\AppData\Local\Temp\ccXNOisu.s 			page 433


 22444      5900
 22445              	.LASF128:
 22446 2775 73464946 		.ascii	"sFIFOMailBox\000"
 22446      4F4D6169 
 22446      6C426F78 
 22446      00
 22447              	.LASF540:
 22448 2782 6275735F 		.ascii	"bus_width\000"
 22448      77696474 
 22448      6800
 22449              	.LASF924:
 22450 278c 4C45445F 		.ascii	"LED_action\000"
 22450      61637469 
 22450      6F6E00
 22451              	.LASF149:
 22452 2797 44485238 		.ascii	"DHR8RD\000"
 22452      524400
 22453              	.LASF662:
 22454 279e 4443544C 		.ascii	"DCTL\000"
 22454      00
 22455              	.LASF542:
 22456 27a3 53444344 		.ascii	"SDCDriverVMT\000"
 22456      72697665 
 22456      72564D54 
 22456      00
 22457              	.LASF688:
 22458 27b0 74786275 		.ascii	"txbuf\000"
 22458      6600
 22459              	.LASF681:
 22460 27b6 50434743 		.ascii	"PCGCCTL\000"
 22460      43544C00 
 22461              	.LASF599:
 22462 27be 5553425F 		.ascii	"USB_EVENT_WAKEUP\000"
 22462      4556454E 
 22462      545F5741 
 22462      4B455550 
 22462      00
 22463              	.LASF852:
 22464 27cf 5F723438 		.ascii	"_r48\000"
 22464      00
 22465              	.LASF929:
 22466 27d4 6779726F 		.ascii	"gyrox\000"
 22466      7800
 22467              	.LASF931:
 22468 27da 6779726F 		.ascii	"gyroz\000"
 22468      7A00
 22469              	.LASF44:
 22470 27e0 705F6F6C 		.ascii	"p_older\000"
 22470      64657200 
 22471              	.LASF292:
 22472 27e8 424C4B5F 		.ascii	"BLK_SYNCING\000"
 22472      53594E43 
 22472      494E4700 
 22473              	.LASF323:
 22474 27f4 50494461 		.ascii	"PIData\000"
 22474      746100
 22475              	.LASF710:
ARM GAS  C:\Users\mathi\AppData\Local\Temp\ccXNOisu.s 			page 434


 22476 27fb 73657475 		.ascii	"setup_buf\000"
 22476      705F6275 
 22476      6600
 22477              	.LASF448:
 22478 2805 47505444 		.ascii	"GPTD6\000"
 22478      3600
 22479              	.LASF718:
 22480 280b 44434D49 		.ascii	"DCMI_ERR_DMAFAILURE\000"
 22480      5F455252 
 22480      5F444D41 
 22480      4641494C 
 22480      55524500 
 22481              	.LASF354:
 22482 281f 6572726F 		.ascii	"error_cb\000"
 22482      725F6362 
 22482      00
 22483              	.LASF288:
 22484 2828 424C4B5F 		.ascii	"BLK_DISCONNECTING\000"
 22484      44495343 
 22484      4F4E4E45 
 22484      4354494E 
 22484      4700
 22485              	.LASF558:
 22486 283a 7373706F 		.ascii	"ssport\000"
 22486      727400
 22487              	.LASF886:
 22488 2841 6275665F 		.ascii	"buf_len\000"
 22488      6C656E00 
 22489              	.LASF60:
 22490 2849 74687265 		.ascii	"thread_reference_t\000"
 22490      61645F72 
 22490      65666572 
 22490      656E6365 
 22490      5F7400
 22491              	.LASF720:
 22492 285c 64636D69 		.ascii	"dcmierror_t\000"
 22492      6572726F 
 22492      725F7400 
 22493              	.LASF417:
 22494 2868 65787063 		.ascii	"expchannel_t\000"
 22494      68616E6E 
 22494      656C5F74 
 22494      00
 22495              	.LASF564:
 22496 2875 72656365 		.ascii	"receiving\000"
 22496      6976696E 
 22496      6700
 22497              	.LASF878:
 22498 287f 70617261 		.ascii	"parameter_list\000"
 22498      6D657465 
 22498      725F6C69 
 22498      737400
 22499              	.LASF838:
 22500 288e 5F5F4649 		.ascii	"__FILE\000"
 22500      4C4500
 22501              	.LASF444:
 22502 2895 66726571 		.ascii	"frequency\000"
ARM GAS  C:\Users\mathi\AppData\Local\Temp\ccXNOisu.s 			page 435


 22502      75656E63 
 22502      7900
 22503              	.LASF206:
 22504 289f 746D5F63 		.ascii	"tm_calibration_t\000"
 22504      616C6962 
 22504      72617469 
 22504      6F6E5F74 
 22504      00
 22505              	.LASF0:
 22506 28b0 5F5F696E 		.ascii	"__int8_t\000"
 22506      74385F74 
 22506      00
 22507              	.LASF707:
 22508 28b9 696E5F73 		.ascii	"in_state\000"
 22508      74617465 
 22508      00
 22509              	.LASF190:
 22510 28c2 47545052 		.ascii	"GTPR\000"
 22510      00
 22511              	.LASF949:
 22512 28c7 48577665 		.ascii	"HWversion\000"
 22512      7273696F 
 22512      6E00
 22513              	.LASF234:
 22514 28d1 63685F7A 		.ascii	"ch_zero\000"
 22514      65726F00 
 22515              	.LASF465:
 22516 28d9 46415354 		.ascii	"FAST_DUTY_CYCLE_2\000"
 22516      5F445554 
 22516      595F4359 
 22516      434C455F 
 22516      3200
 22517              	.LASF178:
 22518 28eb 44435452 		.ascii	"DCTRL\000"
 22518      4C00
 22519              	.LASF239:
 22520 28f1 63685F74 		.ascii	"ch_threadsize\000"
 22520      68726561 
 22520      6473697A 
 22520      6500
 22521              	.LASF167:
 22522 28ff 464C5452 		.ascii	"FLTR\000"
 22522      00
 22523              	.LASF435:
 22524 2904 43434D52 		.ascii	"CCMR1\000"
 22524      3100
 22525              	.LASF436:
 22526 290a 43434D52 		.ascii	"CCMR2\000"
 22526      3200
 22527              	.LASF440:
 22528 2910 43434D52 		.ascii	"CCMR3\000"
 22528      3300
 22529              	.LASF15:
 22530 2916 756E7369 		.ascii	"unsigned int\000"
 22530      676E6564 
 22530      20696E74 
 22530      00
ARM GAS  C:\Users\mathi\AppData\Local\Temp\ccXNOisu.s 			page 436


 22531              	.LASF358:
 22532 2923 73717232 		.ascii	"sqr2\000"
 22532      00
 22533              	.LASF359:
 22534 2928 73717233 		.ascii	"sqr3\000"
 22534      00
 22535              	.LASF730:
 22536 292d 44434D49 		.ascii	"DCMIDriver\000"
 22536      44726976 
 22536      657200
 22537              	.LASF651:
 22538 2938 48464952 		.ascii	"HFIR\000"
 22538      00
 22539              	.LASF736:
 22540 293d 44434D49 		.ascii	"DCMIConfig\000"
 22540      436F6E66 
 22540      696700
 22541              	.LASF581:
 22542 2948 5553425F 		.ascii	"USB_UNINIT\000"
 22542      554E494E 
 22542      495400
 22543              	.LASF277:
 22544 2953 73747265 		.ascii	"stream\000"
 22544      616D00
 22545              	.LASF361:
 22546 295a 64756D6D 		.ascii	"dummy\000"
 22546      7900
 22547              	.LASF903:
 22548 2960 53494D50 		.ascii	"SIMPSON\000"
 22548      534F4E00 
 22549              	.LASF463:
 22550 2968 6932636F 		.ascii	"i2copmode_t\000"
 22550      706D6F64 
 22550      655F7400 
 22551              	.LASF156:
 22552 2974 45535552 		.ascii	"ESUR\000"
 22552      00
 22553              	.LASF255:
 22554 2979 6576656E 		.ascii	"event_listener\000"
 22554      745F6C69 
 22554      7374656E 
 22554      657200
 22555              	.LASF844:
 22556 2988 5F6D756C 		.ascii	"_mult\000"
 22556      7400
 22557              	.LASF5:
 22558 298e 73686F72 		.ascii	"short int\000"
 22558      7420696E 
 22558      7400
 22559              	.LASF605:
 22560 2998 75736263 		.ascii	"usbcallback_t\000"
 22560      616C6C62 
 22560      61636B5F 
 22560      7400
 22561              	.LASF804:
 22562 29a6 5F726561 		.ascii	"_read\000"
 22562      6400
ARM GAS  C:\Users\mathi\AppData\Local\Temp\ccXNOisu.s 			page 437


 22563              	.LASF634:
 22564 29ac 47555342 		.ascii	"GUSBCFG\000"
 22564      43464700 
 22565              	.LASF191:
 22566 29b4 55534152 		.ascii	"USART_TypeDef\000"
 22566      545F5479 
 22566      70654465 
 22566      6600
 22567              	.LASF276:
 22568 29c2 6F757470 		.ascii	"output_queue_t\000"
 22568      75745F71 
 22568      75657565 
 22568      5F7400
 22569              	.LASF842:
 22570 29d1 5F72616E 		.ascii	"_rand48\000"
 22570      64343800 
 22571              	.LASF683:
 22572 29d9 73746D33 		.ascii	"stm32_otg_t\000"
 22572      325F6F74 
 22572      675F7400 
 22573              	.LASF787:
 22574 29e5 5F5F746D 		.ascii	"__tm_isdst\000"
 22574      5F697364 
 22574      737400
 22575              	.LASF486:
 22576 29f0 49325344 		.ascii	"I2SDriver\000"
 22576      72697665 
 22576      7200
 22577              	.LASF470:
 22578 29fa 64757479 		.ascii	"duty_cycle\000"
 22578      5F637963 
 22578      6C6500
 22579              	.LASF493:
 22580 2a05 49325343 		.ascii	"I2SConfig\000"
 22580      6F6E6669 
 22580      6700
 22581              	.LASF602:
 22582 2a0f 75645F73 		.ascii	"ud_size\000"
 22582      697A6500 
 22583              	.LASF986:
 22584 2a17 655F7365 		.ascii	"e_set_body_led\000"
 22584      745F626F 
 22584      64795F6C 
 22584      656400
 22585              	.LASF705:
 22586 2a26 696E5F6D 		.ascii	"in_maxsize\000"
 22586      61787369 
 22586      7A6500
 22587              	.LASF320:
 22588 2a31 50464461 		.ascii	"PFData\000"
 22588      746100
 22589              	.LASF413:
 22590 2a38 4558545F 		.ascii	"EXT_STOP\000"
 22590      53544F50 
 22590      00
 22591              	.LASF974:
 22592 2a41 655F7365 		.ascii	"e_set_steps_left\000"
ARM GAS  C:\Users\mathi\AppData\Local\Temp\ccXNOisu.s 			page 438


 22592      745F7374 
 22592      6570735F 
 22592      6C656674 
 22592      00
 22593              	.LASF47:
 22594 2a52 705F7374 		.ascii	"p_state\000"
 22594      61746500 
 22595              	.LASF494:
 22596 2a5a 49325344 		.ascii	"I2SD2\000"
 22596      3200
 22597              	.LASF543:
 22598 2a60 69735F69 		.ascii	"is_inserted\000"
 22598      6E736572 
 22598      74656400 
 22599              	.LASF63:
 22600 2a6c 63685F74 		.ascii	"ch_threads_list\000"
 22600      68726561 
 22600      64735F6C 
 22600      69737400 
 22601              	.LASF928:
 22602 2a7c 736F756E 		.ascii	"sound\000"
 22602      6400
 22603              	.LASF179:
 22604 2a82 44434F55 		.ascii	"DCOUNT\000"
 22604      4E5400
 22605              	.LASF164:
 22606 2a89 4F415231 		.ascii	"OAR1\000"
 22606      00
 22607              	.LASF165:
 22608 2a8e 4F415232 		.ascii	"OAR2\000"
 22608      00
 22609              	.LASF59:
 22610 2a93 705F7374 		.ascii	"p_stats\000"
 22610      61747300 
 22611              	.LASF586:
 22612 2a9b 75736273 		.ascii	"usbstate_t\000"
 22612      74617465 
 22612      5F7400
 22613              		.ident	"GCC: (GNU Tools for Arm Embedded Processors 7-2017-q4-major) 7.2.1 20170904 (release) [ARM
ARM GAS  C:\Users\mathi\AppData\Local\Temp\ccXNOisu.s 			page 439


DEFINED SYMBOLS
                            *ABS*:00000000 Asercom2.c
C:\Users\mathi\AppData\Local\Temp\ccXNOisu.s:18     .text.run_asercom2:00000000 $t
C:\Users\mathi\AppData\Local\Temp\ccXNOisu.s:26     .text.run_asercom2:00000000 run_asercom2
C:\Users\mathi\AppData\Local\Temp\ccXNOisu.s:227    .text.run_asercom2:00000112 $d
C:\Users\mathi\AppData\Local\Temp\ccXNOisu.s:238    .text.run_asercom2:00000126 $t
C:\Users\mathi\AppData\Local\Temp\ccXNOisu.s:407    .text.run_asercom2:00000232 $d
C:\Users\mathi\AppData\Local\Temp\ccXNOisu.s:418    .text.run_asercom2:00000246 $t
C:\Users\mathi\AppData\Local\Temp\ccXNOisu.s:526    .text.run_asercom2:000002d4 $d
C:\Users\mathi\AppData\Local\Temp\ccXNOisu.s:546    .text.run_asercom2:0000031c $t
C:\Users\mathi\AppData\Local\Temp\ccXNOisu.s:749    .text.run_asercom2:0000043a $d
C:\Users\mathi\AppData\Local\Temp\ccXNOisu.s:859    .text.run_asercom2:00000516 $t
C:\Users\mathi\AppData\Local\Temp\ccXNOisu.s:863    .text.run_asercom2:00000518 $d
C:\Users\mathi\AppData\Local\Temp\ccXNOisu.s:872    .text.run_asercom2:00000534 $t
C:\Users\mathi\AppData\Local\Temp\ccXNOisu.s:1347   .text.run_asercom2:0000082c $d
C:\Users\mathi\AppData\Local\Temp\ccXNOisu.s:1360   .text.run_asercom2:00000854 $t
C:\Users\mathi\AppData\Local\Temp\ccXNOisu.s:1840   .text.run_asercom2:00000b48 $d
C:\Users\mathi\AppData\Local\Temp\ccXNOisu.s:1851   .text.run_asercom2:00000b6c $t
C:\Users\mathi\AppData\Local\Temp\ccXNOisu.s:2114   .text.run_asercom2:00000d3c $d
C:\Users\mathi\AppData\Local\Temp\ccXNOisu.s:2166   .text.run_asercom2:00000e0c $t
C:\Users\mathi\AppData\Local\Temp\ccXNOisu.s:2265   .text.run_asercom2:00000eb0 $d
C:\Users\mathi\AppData\Local\Temp\ccXNOisu.s:2273   .text.run_asercom2:00000ec8 $t
C:\Users\mathi\AppData\Local\Temp\ccXNOisu.s:2659   .text.run_asercom2:00001150 $d
C:\Users\mathi\AppData\Local\Temp\ccXNOisu.s:2675   .text.run_asercom2:00001188 $t
C:\Users\mathi\AppData\Local\Temp\ccXNOisu.s:2869   .text.run_asercom2:000012d2 $d
C:\Users\mathi\AppData\Local\Temp\ccXNOisu.s:2874   .text.run_asercom2:000012dc $t
C:\Users\mathi\AppData\Local\Temp\ccXNOisu.s:3070   .text.run_asercom2:00001424 $d
C:\Users\mathi\AppData\Local\Temp\ccXNOisu.s:3094   .text.run_asercom2:0000147c $t
C:\Users\mathi\AppData\Local\Temp\ccXNOisu.s:3426   .text.run_asercom2:000016b4 $d
C:\Users\mathi\AppData\Local\Temp\ccXNOisu.s:3443   .text.run_asercom2:000016f0 $t
C:\Users\mathi\AppData\Local\Temp\ccXNOisu.s:3950   .text.run_asercom2:000019ec $d
C:\Users\mathi\AppData\Local\Temp\ccXNOisu.s:3990   .text.run_asercom2:00001a80 $t
C:\Users\mathi\AppData\Local\Temp\ccXNOisu.s:4422   .text.run_asercom2:00001d60 $d
C:\Users\mathi\AppData\Local\Temp\ccXNOisu.s:4446   .text.run_asercom2:00001db8 $t
C:\Users\mathi\AppData\Local\Temp\ccXNOisu.s:4992   .text.run_asercom2:000020d8 $d
C:\Users\mathi\AppData\Local\Temp\ccXNOisu.s:5020   .text.run_asercom2:00002140 $t
C:\Users\mathi\AppData\Local\Temp\ccXNOisu.s:5235   .text.run_asercom2:00002278 $d
C:\Users\mathi\AppData\Local\Temp\ccXNOisu.s:5253   .bss.LED_action.13542:00000000 $d
C:\Users\mathi\AppData\Local\Temp\ccXNOisu.s:5257   .bss.LED_action.13542:00000000 LED_action.13542
C:\Users\mathi\AppData\Local\Temp\ccXNOisu.s:5260   .bss.LED_nbr.13541:00000000 $d
C:\Users\mathi\AppData\Local\Temp\ccXNOisu.s:5264   .bss.LED_nbr.13541:00000000 LED_nbr.13541
C:\Users\mathi\AppData\Local\Temp\ccXNOisu.s:5267   .bss.accelero.13566:00000000 $d
C:\Users\mathi\AppData\Local\Temp\ccXNOisu.s:5271   .bss.accelero.13566:00000000 accelero.13566
C:\Users\mathi\AppData\Local\Temp\ccXNOisu.s:5274   .bss.accx.13543:00000000 $d
C:\Users\mathi\AppData\Local\Temp\ccXNOisu.s:5278   .bss.accx.13543:00000000 accx.13543
C:\Users\mathi\AppData\Local\Temp\ccXNOisu.s:5281   .bss.accy.13544:00000000 $d
C:\Users\mathi\AppData\Local\Temp\ccXNOisu.s:5285   .bss.accy.13544:00000000 accy.13544
C:\Users\mathi\AppData\Local\Temp\ccXNOisu.s:5288   .bss.accz.13545:00000000 $d
C:\Users\mathi\AppData\Local\Temp\ccXNOisu.s:5292   .bss.accz.13545:00000000 accz.13545
C:\Users\mathi\AppData\Local\Temp\ccXNOisu.s:5298   .bss.c1.13531:00000000 c1.13531
C:\Users\mathi\AppData\Local\Temp\ccXNOisu.s:5299   .bss.c1.13531:00000000 $d
C:\Users\mathi\AppData\Local\Temp\ccXNOisu.s:5304   .bss.c2.13532:00000000 c2.13532
C:\Users\mathi\AppData\Local\Temp\ccXNOisu.s:5305   .bss.c2.13532:00000000 $d
C:\Users\mathi\AppData\Local\Temp\ccXNOisu.s:5307   .bss.cam_heigth.13552:00000000 $d
C:\Users\mathi\AppData\Local\Temp\ccXNOisu.s:5311   .bss.cam_heigth.13552:00000000 cam_heigth.13552
C:\Users\mathi\AppData\Local\Temp\ccXNOisu.s:5314   .bss.cam_mode.13550:00000000 $d
C:\Users\mathi\AppData\Local\Temp\ccXNOisu.s:5318   .bss.cam_mode.13550:00000000 cam_mode.13550
ARM GAS  C:\Users\mathi\AppData\Local\Temp\ccXNOisu.s 			page 440


C:\Users\mathi\AppData\Local\Temp\ccXNOisu.s:5321   .bss.cam_size.13554:00000000 $d
C:\Users\mathi\AppData\Local\Temp\ccXNOisu.s:5325   .bss.cam_size.13554:00000000 cam_size.13554
C:\Users\mathi\AppData\Local\Temp\ccXNOisu.s:5328   .bss.cam_width.13551:00000000 $d
C:\Users\mathi\AppData\Local\Temp\ccXNOisu.s:5332   .bss.cam_width.13551:00000000 cam_width.13551
C:\Users\mathi\AppData\Local\Temp\ccXNOisu.s:5335   .bss.cam_x1.13555:00000000 $d
C:\Users\mathi\AppData\Local\Temp\ccXNOisu.s:5339   .bss.cam_x1.13555:00000000 cam_x1.13555
C:\Users\mathi\AppData\Local\Temp\ccXNOisu.s:5342   .bss.cam_y1.13556:00000000 $d
C:\Users\mathi\AppData\Local\Temp\ccXNOisu.s:5346   .bss.cam_y1.13556:00000000 cam_y1.13556
C:\Users\mathi\AppData\Local\Temp\ccXNOisu.s:5349   .bss.cam_zoom.13553:00000000 $d
C:\Users\mathi\AppData\Local\Temp\ccXNOisu.s:5353   .bss.cam_zoom.13553:00000000 cam_zoom.13553
C:\Users\mathi\AppData\Local\Temp\ccXNOisu.s:5359   .bss.first.13557:00000000 first.13557
C:\Users\mathi\AppData\Local\Temp\ccXNOisu.s:5360   .bss.first.13557:00000000 $d
C:\Users\mathi\AppData\Local\Temp\ccXNOisu.s:5362   .bss.gyrox.13547:00000000 $d
C:\Users\mathi\AppData\Local\Temp\ccXNOisu.s:5366   .bss.gyrox.13547:00000000 gyrox.13547
C:\Users\mathi\AppData\Local\Temp\ccXNOisu.s:5369   .bss.gyroy.13548:00000000 $d
C:\Users\mathi\AppData\Local\Temp\ccXNOisu.s:5373   .bss.gyroy.13548:00000000 gyroy.13548
C:\Users\mathi\AppData\Local\Temp\ccXNOisu.s:5376   .bss.gyroz.13549:00000000 $d
C:\Users\mathi\AppData\Local\Temp\ccXNOisu.s:5380   .bss.gyroz.13549:00000000 gyroz.13549
C:\Users\mathi\AppData\Local\Temp\ccXNOisu.s:5383   .bss.i.13534:00000000 $d
C:\Users\mathi\AppData\Local\Temp\ccXNOisu.s:5387   .bss.i.13534:00000000 i.13534
C:\Users\mathi\AppData\Local\Temp\ccXNOisu.s:5390   .bss.j.13535:00000000 $d
C:\Users\mathi\AppData\Local\Temp\ccXNOisu.s:5394   .bss.j.13535:00000000 j.13535
C:\Users\mathi\AppData\Local\Temp\ccXNOisu.s:5397   .bss.mod.13560:00000000 $d
C:\Users\mathi\AppData\Local\Temp\ccXNOisu.s:5401   .bss.mod.13560:00000000 mod.13560
C:\Users\mathi\AppData\Local\Temp\ccXNOisu.s:5404   .bss.positionl.13540:00000000 $d
C:\Users\mathi\AppData\Local\Temp\ccXNOisu.s:5408   .bss.positionl.13540:00000000 positionl.13540
C:\Users\mathi\AppData\Local\Temp\ccXNOisu.s:5411   .bss.positionr.13539:00000000 $d
C:\Users\mathi\AppData\Local\Temp\ccXNOisu.s:5415   .bss.positionr.13539:00000000 positionr.13539
C:\Users\mathi\AppData\Local\Temp\ccXNOisu.s:5418   .bss.reg.13561:00000000 $d
C:\Users\mathi\AppData\Local\Temp\ccXNOisu.s:5422   .bss.reg.13561:00000000 reg.13561
C:\Users\mathi\AppData\Local\Temp\ccXNOisu.s:5425   .bss.rgb_value.13558:00000000 $d
C:\Users\mathi\AppData\Local\Temp\ccXNOisu.s:5429   .bss.rgb_value.13558:00000000 rgb_value.13558
C:\Users\mathi\AppData\Local\Temp\ccXNOisu.s:5432   .bss.sound.13546:00000000 $d
C:\Users\mathi\AppData\Local\Temp\ccXNOisu.s:5436   .bss.sound.13546:00000000 sound.13546
C:\Users\mathi\AppData\Local\Temp\ccXNOisu.s:5439   .bss.speedl.13538:00000000 $d
C:\Users\mathi\AppData\Local\Temp\ccXNOisu.s:5443   .bss.speedl.13538:00000000 speedl.13538
C:\Users\mathi\AppData\Local\Temp\ccXNOisu.s:5446   .bss.speedr.13537:00000000 $d
C:\Users\mathi\AppData\Local\Temp\ccXNOisu.s:5450   .bss.speedr.13537:00000000 speedr.13537
C:\Users\mathi\AppData\Local\Temp\ccXNOisu.s:5453   .bss.val.13562:00000000 $d
C:\Users\mathi\AppData\Local\Temp\ccXNOisu.s:5457   .bss.val.13562:00000000 val.13562
C:\Users\mathi\AppData\Local\Temp\ccXNOisu.s:5463   .bss.wait_cam.13533:00000000 wait_cam.13533
C:\Users\mathi\AppData\Local\Temp\ccXNOisu.s:5464   .bss.wait_cam.13533:00000000 $d
C:\Users\mathi\AppData\Local\Temp\ccXNOisu.s:5466   .data.HWversion.13571:00000000 $d
C:\Users\mathi\AppData\Local\Temp\ccXNOisu.s:5470   .data.HWversion.13571:00000000 HWversion.13571
C:\Users\mathi\AppData\Local\Temp\ccXNOisu.s:5473   .rodata.run_asercom2.str1.4:00000000 $d

UNDEFINED SYMBOLS
e_init_motors
getselector
mountSDCard
e_i2cp_init
e_init_remote_control
ReadEE
e_poxxxx_init_cam
e_poxxxx_config_cam
e_poxxxx_write_cam_registers
e_acc_calibr
ARM GAS  C:\Users\mathi\AppData\Local\Temp\ccXNOisu.s 			page 441


e_send_uart1_char
e_uart1_sending
e_getchar_uart1
e_get_data
e_get_address
getXAxisGyro
getYAxisGyro
getZAxisGyro
sprintf
strlen
e_getchar_uart2
e_set_speed_left
e_set_speed_right
__stack_chk_guard
selector
c
buffer
e_play_sound
e_set_front_led
e_get_steps_left
e_get_steps_right
e_set_steps_left
e_set_steps_right
e_get_ambient_light
set_rgb_led
e_get_micro_volume
getBatteryValueRaw
e_i2cp_enable
e_i2cp_write
e_i2cp_disable
e_poxxxx_launch_capture
e_i2cp_read
isSDCardMounted
e_get_calibrated_prox
button_get_state
__locale_ctype_ptr
getTemperature
e_set_led
chThdSleep
e_led_clear
e_calibrate_ir
sscanf
e_init_sound
e_get_acc_filtered
e_get_check
isEpuckVersion1_3
e_set_body_led
playMelody
getBatteryValuePercentage
e_send_uart2_char
e_uart2_sending
VL53L0X_get_dist_mm
getAllAxesGyro
e_read_acc_spheric
e_poxxxx_wait_img_ready
dcmi_get_last_image_ptr
memcpy
ARM GAS  C:\Users\mathi\AppData\Local\Temp\ccXNOisu.s 			page 442


e_close_sound
stopCurrentMelody
