ARM GAS  C:\Users\mathi\AppData\Local\Temp\ccXNOisu.s 			page 1


   1              		.cpu cortex-m4
   2              		.eabi_attribute 27, 1
   3              		.eabi_attribute 28, 1
   4              		.eabi_attribute 20, 1
   5              		.eabi_attribute 21, 1
   6              		.eabi_attribute 23, 3
   7              		.eabi_attribute 24, 1
   8              		.eabi_attribute 25, 1
   9              		.eabi_attribute 26, 1
  10              		.eabi_attribute 30, 2
  11              		.eabi_attribute 34, 1
  12              		.eabi_attribute 18, 4
  13              		.file	"Asercom2.c"
  14              		.text
  15              	.Ltext0:
  16              		.cfi_sections	.debug_frame
  17              		.section	.text.run_asercom2,"ax",%progbits
  18              		.align	1
  19              		.p2align 4,,15
  20              		.global	run_asercom2
  21              		.syntax unified
  22              		.thumb
  23              		.thumb_func
  24              		.fpu fpv4-sp-d16
  25              		.type	run_asercom2, %function
  26              	run_asercom2:
  27              	.LFB260:
  28              		.file 1 "../../lib/e-puck2_main-processor/src/epuck1x/Asercom2.c"
  29              		.loc 1 67 0
  30              		.cfi_startproc
  31              		@ args = 0, pretend = 0, frame = 64
  32              		@ frame_needed = 0, uses_anonymous_args = 0
  33 0000 2DE9F04F 		push	{r4, r5, r6, r7, r8, r9, r10, fp, lr}
  34              		.cfi_def_cfa_offset 36
  35              		.cfi_offset 4, -36
  36              		.cfi_offset 5, -32
  37              		.cfi_offset 6, -28
  38              		.cfi_offset 7, -24
  39              		.cfi_offset 8, -20
  40              		.cfi_offset 9, -16
  41              		.cfi_offset 10, -12
  42              		.cfi_offset 11, -8
  43              		.cfi_offset 14, -4
  44 0004 2DED028B 		vpush.64	{d8}
  45              		.cfi_def_cfa_offset 44
  46              		.cfi_offset 80, -44
  47              		.cfi_offset 81, -40
  48 0008 B24B     		ldr	r3, .L710
  49 000a 97B0     		sub	sp, sp, #92
  50              		.cfi_def_cfa_offset 136
  51              		.loc 1 67 0
  52 000c 1B68     		ldr	r3, [r3]
  53 000e 1593     		str	r3, [sp, #84]
  54              	.LVL0:
  55              		.loc 1 87 0
  56 0010 FFF7FEFF 		bl	e_init_motors
  57              	.LVL1:
ARM GAS  C:\Users\mathi\AppData\Local\Temp\ccXNOisu.s 			page 2


  58              		.loc 1 91 0
  59 0014 FFF7FEFF 		bl	getselector
  60              	.LVL2:
  61 0018 AF4B     		ldr	r3, .L710+4
  62              		.loc 1 92 0
  63 001a 0328     		cmp	r0, #3
  64              		.loc 1 91 0
  65 001c 1860     		str	r0, [r3]
  66              		.loc 1 92 0
  67 001e 00F08280 		beq	.L404
  68              		.loc 1 97 0
  69 0022 0A28     		cmp	r0, #10
  70 0024 02F00381 		beq	.L684
  71              		.loc 1 95 0
  72 0028 0023     		movs	r3, #0
  73 002a 0793     		str	r3, [sp, #28]
  74              	.L2:
  75              	.LVL3:
  76              		.loc 1 103 0
  77 002c FFF7FEFF 		bl	mountSDCard
  78              	.LVL4:
  79              		.loc 1 123 0
  80 0030 AA4C     		ldr	r4, .L710+8
  81              		.loc 1 128 0
  82 0032 AB4B     		ldr	r3, .L710+12
  83              		.loc 1 125 0
  84 0034 AB4E     		ldr	r6, .L710+16
  85              		.loc 1 126 0
  86 0036 AC4F     		ldr	r7, .L710+20
  87              		.loc 1 127 0
  88 0038 AC4D     		ldr	r5, .L710+24
  89              		.loc 1 128 0
  90 003a 0E93     		str	r3, [sp, #56]
  91              		.loc 1 123 0
  92 003c 1294     		str	r4, [sp, #72]
  93              		.loc 1 127 0
  94 003e 1395     		str	r5, [sp, #76]
  95              		.loc 1 125 0
  96 0040 1096     		str	r6, [sp, #64]
  97              		.loc 1 126 0
  98 0042 1197     		str	r7, [sp, #68]
  99              		.loc 1 107 0
 100 0044 FFF7FEFF 		bl	e_i2cp_init
 101              	.LVL5:
 102              		.loc 1 112 0
 103 0048 FFF7FEFF 		bl	e_init_remote_control
 104              	.LVL6:
 105              		.loc 1 120 0
 106 004c 0123     		movs	r3, #1
 107 004e A84A     		ldr	r2, .L710+28
 108 0050 4FF6FE71 		movw	r1, #65534
 109 0054 7F20     		movs	r0, #127
 110 0056 FFF7FEFF 		bl	ReadEE
 111              	.LVL7:
 112              		.loc 1 125 0
 113 005a 2823     		movs	r3, #40
 114              		.loc 1 127 0
ARM GAS  C:\Users\mathi\AppData\Local\Temp\ccXNOisu.s 			page 3


 115 005c 139D     		ldr	r5, [sp, #76]
 116              		.loc 1 125 0
 117 005e 3360     		str	r3, [r6]
 118              		.loc 1 126 0
 119 0060 3B60     		str	r3, [r7]
 120              		.loc 1 128 0
 121 0062 0E9B     		ldr	r3, [sp, #56]
 122              		.loc 1 127 0
 123 0064 0821     		movs	r1, #8
 124              		.loc 1 128 0
 125 0066 4FF44862 		mov	r2, #3200
 126              		.loc 1 123 0
 127 006a 0120     		movs	r0, #1
 128              		.loc 1 127 0
 129 006c 2960     		str	r1, [r5]
 130              		.loc 1 128 0
 131 006e 1A60     		str	r2, [r3]
 132              		.loc 1 123 0
 133 0070 2060     		str	r0, [r4]
 134              		.loc 1 131 0
 135 0072 FFF7FEFF 		bl	e_poxxxx_init_cam
 136              	.LVL8:
 137              		.loc 1 132 0
 138 0076 2D68     		ldr	r5, [r5]
 139 0078 3268     		ldr	r2, [r6]
 140 007a 3B68     		ldr	r3, [r7]
 141 007c 2468     		ldr	r4, [r4]
 142 007e 0294     		str	r4, [sp, #8]
 143 0080 03FB05F3 		mul	r3, r3, r5
 144 0084 02FB05F2 		mul	r2, r2, r5
 145 0088 C3F5F071 		rsb	r1, r3, #480
 146 008c C2F52070 		rsb	r0, r2, #640
 147 0090 01EBD171 		add	r1, r1, r1, lsr #31
 148 0094 00EBD070 		add	r0, r0, r0, lsr #31
 149 0098 4910     		asrs	r1, r1, #1
 150 009a 0195     		str	r5, [sp, #4]
 151 009c 0095     		str	r5, [sp]
 152 009e 4010     		asrs	r0, r0, #1
 153 00a0 FFF7FEFF 		bl	e_poxxxx_config_cam
 154              	.LVL9:
 155              		.loc 1 133 0
 156 00a4 FFF7FEFF 		bl	e_poxxxx_write_cam_registers
 157              	.LVL10:
 158              		.loc 1 141 0
 159 00a8 079B     		ldr	r3, [sp, #28]
 160 00aa 002B     		cmp	r3, #0
 161 00ac 02F0B180 		beq	.L685
 162              		.loc 1 142 0
 163 00b0 FFF7FEFF 		bl	e_acc_calibr
 164              	.LVL11:
 165              		.loc 1 143 0
 166 00b4 5821     		movs	r1, #88
 167 00b6 8F48     		ldr	r0, .L710+32
 168 00b8 FFF7FEFF 		bl	e_send_uart1_char
 169              	.LVL12:
 170              	.L7:
 171              		.loc 1 143 0 is_stmt 0 discriminator 2
ARM GAS  C:\Users\mathi\AppData\Local\Temp\ccXNOisu.s 			page 4


 172 00bc FFF7FEFF 		bl	e_uart1_sending
 173              	.LVL13:
 174 00c0 0028     		cmp	r0, #0
 175 00c2 FBD1     		bne	.L7
 176              		.loc 1 100 0 is_stmt 1
 177 00c4 0746     		mov	r7, r0
 178              	.LVL14:
 179              	.L3:
 180 00c6 0023     		movs	r3, #0
 181 00c8 DFF82C92 		ldr	r9, .L710+36
 182 00cc DFF844B2 		ldr	fp, .L710+64
 183 00d0 DFF84482 		ldr	r8, .L710+68
 184 00d4 DFF828A2 		ldr	r10, .L710+44
 185 00d8 0F93     		str	r3, [sp, #60]
 186 00da 0693     		str	r3, [sp, #24]
 187              	.LVL15:
 188              	.L6:
 189              		.loc 1 154 0
 190 00dc 37BB     		cbnz	r7, .L10
 191              	.LVL16:
 192              	.L650:
 193              		.loc 1 156 0
 194 00de 079B     		ldr	r3, [sp, #28]
 195 00e0 002B     		cmp	r3, #0
 196 00e2 00F08F80 		beq	.L641
 197              	.L691:
 198              		.loc 1 157 0
 199 00e6 844D     		ldr	r5, .L710+36
 200              	.LVL17:
 201              	.L11:
 202 00e8 2846     		mov	r0, r5
 203 00ea FFF7FEFF 		bl	e_getchar_uart1
 204              	.LVL18:
 205 00ee 0446     		mov	r4, r0
 206 00f0 E0B9     		cbnz	r0, .L10
 207              		.loc 1 160 0
 208 00f2 FFF7FEFF 		bl	e_get_data
 209              	.LVL19:
 210 00f6 0646     		mov	r6, r0
 211              	.LVL20:
 212              		.loc 1 161 0
 213 00f8 FFF7FEFF 		bl	e_get_address
 214              	.LVL21:
 215              		.loc 1 162 0
 216 00fc 10F0F70F 		tst	r0, #247
 217 0100 F2D1     		bne	.L11
 218              		.loc 1 162 0 is_stmt 0 discriminator 3
 219 0102 069B     		ldr	r3, [sp, #24]
 220 0104 B342     		cmp	r3, r6
 221 0106 EFD0     		beq	.L11
 222              		.loc 1 163 0 is_stmt 1
 223 0108 092E     		cmp	r6, #9
 224 010a 01F26884 		bhi	.L14
 225 010e DFE816F0 		tbh	[pc, r6, lsl #1]
 226              	.L16:
 227 0112 2701     		.2byte	(.L15-.L16)/2
 228 0114 1E01     		.2byte	(.L17-.L16)/2
ARM GAS  C:\Users\mathi\AppData\Local\Temp\ccXNOisu.s 			page 5


 229 0116 1701     		.2byte	(.L18-.L16)/2
 230 0118 0E01     		.2byte	(.L19-.L16)/2
 231 011a 0B01     		.2byte	(.L20-.L16)/2
 232 011c 0501     		.2byte	(.L21-.L16)/2
 233 011e DD00     		.2byte	(.L22-.L16)/2
 234 0120 D600     		.2byte	(.L23-.L16)/2
 235 0122 CF00     		.2byte	(.L24-.L16)/2
 236 0124 BF00     		.2byte	(.L25-.L16)/2
 237              	.LVL22:
 238              		.p2align 1
 239              	.L404:
 240              		.loc 1 93 0
 241 0126 0123     		movs	r3, #1
 242 0128 0793     		str	r3, [sp, #28]
 243 012a 7FE7     		b	.L2
 244              	.LVL23:
 245              	.L10:
 246              		.loc 1 282 0
 247 012c 99F80030 		ldrb	r3, [r9]	@ zero_extendqisi2
 248 0130 1A06     		lsls	r2, r3, #24
 249 0132 00F17481 		bmi	.L686
 250              		.loc 1 668 0
 251 0136 002B     		cmp	r3, #0
 252 0138 D0D0     		beq	.L6
 253              		.loc 1 669 0
 254 013a 002F     		cmp	r7, #0
 255 013c 41F03584 		bne	.L158
 256              		.loc 1 671 0
 257 0140 079A     		ldr	r2, [sp, #28]
 258              		.loc 1 672 0
 259 0142 6D4C     		ldr	r4, .L710+36
 260              		.loc 1 671 0
 261 0144 002A     		cmp	r2, #0
 262 0146 00F08380 		beq	.L160
 263 014a 04E0     		b	.L159
 264              	.L161:
 265              		.loc 1 672 0 discriminator 4
 266 014c 2046     		mov	r0, r4
 267 014e FFF7FEFF 		bl	e_getchar_uart1
 268              	.LVL24:
 269 0152 99F80030 		ldrb	r3, [r9]	@ zero_extendqisi2
 270              	.L159:
 271              		.loc 1 672 0 is_stmt 0 discriminator 1
 272 0156 0A2B     		cmp	r3, #10
 273 0158 F8D0     		beq	.L161
 274              		.loc 1 672 0 discriminator 3
 275 015a 0D2B     		cmp	r3, #13
 276 015c F6D0     		beq	.L161
 277              		.loc 1 677 0 is_stmt 1
 278 015e 0122     		movs	r2, #1
 279              		.loc 1 676 0
 280 0160 8AF80030 		strb	r3, [r10]
 281              		.loc 1 677 0
 282 0164 CBF80020 		str	r2, [fp]
 283              		.loc 1 681 0
 284 0168 634C     		ldr	r4, .L710+36
 285 016a 05E0     		b	.L169
ARM GAS  C:\Users\mathi\AppData\Local\Temp\ccXNOisu.s 			page 6


 286              	.L687:
 287 016c 99F80030 		ldrb	r3, [r9]	@ zero_extendqisi2
 288              		.loc 1 682 0
 289 0170 0A2B     		cmp	r3, #10
 290 0172 12D0     		beq	.L175
 291              	.L167:
 292              		.loc 1 682 0 is_stmt 0 discriminator 1
 293 0174 0D2B     		cmp	r3, #13
 294 0176 10D0     		beq	.L175
 295              	.L169:
 296              		.loc 1 681 0 is_stmt 1
 297 0178 2046     		mov	r0, r4
 298 017a FFF7FEFF 		bl	e_getchar_uart1
 299              	.LVL25:
 300 017e 0028     		cmp	r0, #0
 301 0180 F4D0     		beq	.L687
 302              		.loc 1 681 0 is_stmt 0 discriminator 1
 303 0182 DBF80020 		ldr	r2, [fp]
 304 0186 99F80030 		ldrb	r3, [r9]	@ zero_extendqisi2
 305 018a 0AF80230 		strb	r3, [r10, r2]
 306              		.loc 1 682 0 is_stmt 1 discriminator 1
 307 018e 0A2B     		cmp	r3, #10
 308              		.loc 1 681 0 discriminator 1
 309 0190 02F10102 		add	r2, r2, #1
 310 0194 CBF80020 		str	r2, [fp]
 311              		.loc 1 682 0 discriminator 1
 312 0198 ECD1     		bne	.L167
 313              	.L175:
 314 019a DBF80030 		ldr	r3, [fp]
 315              		.loc 1 687 0
 316 019e 0022     		movs	r2, #0
 317 01a0 0AF80320 		strb	r2, [r10, r3]
 318              		.loc 1 689 0
 319 01a4 9AF80040 		ldrb	r4, [r10]	@ zero_extendqisi2
 320 01a8 591C     		adds	r1, r3, #1
 321 01aa 622C     		cmp	r4, #98
 322              		.loc 1 687 0
 323 01ac CBF80010 		str	r1, [fp]
 324              		.loc 1 689 0
 325 01b0 01F06885 		beq	.L688
 326              	.L399:
 327              		.loc 1 689 0 is_stmt 0 discriminator 1
 328 01b4 672C     		cmp	r4, #103
 329 01b6 40F0AD85 		bne	.L689
 330              	.L176:
 331              	.LBB2:
 332              		.loc 1 785 0 is_stmt 1
 333 01ba 002F     		cmp	r7, #0
 334 01bc 41F06085 		bne	.L232
 335              		.loc 1 786 0
 336 01c0 FFF7FEFF 		bl	getXAxisGyro
 337              	.LVL26:
 338 01c4 0446     		mov	r4, r0
 339 01c6 FFF7FEFF 		bl	getYAxisGyro
 340              	.LVL27:
 341 01ca 0546     		mov	r5, r0
 342 01cc FFF7FEFF 		bl	getZAxisGyro
ARM GAS  C:\Users\mathi\AppData\Local\Temp\ccXNOisu.s 			page 7


 343              	.LVL28:
 344 01d0 2B46     		mov	r3, r5
 345 01d2 0090     		str	r0, [sp]
 346 01d4 2246     		mov	r2, r4
 347 01d6 4949     		ldr	r1, .L710+40
 348 01d8 4948     		ldr	r0, .L710+44
 349 01da FFF7FEFF 		bl	sprintf
 350              	.LVL29:
 351              		.loc 1 792 0
 352 01de 079B     		ldr	r3, [sp, #28]
 353 01e0 002B     		cmp	r3, #0
 354 01e2 01F0AF85 		beq	.L690
 355              		.loc 1 793 0
 356 01e6 4648     		ldr	r0, .L710+44
 357 01e8 FFF7FEFF 		bl	strlen
 358              	.LVL30:
 359 01ec 0146     		mov	r1, r0
 360 01ee 4448     		ldr	r0, .L710+44
 361 01f0 FFF7FEFF 		bl	e_send_uart1_char
 362              	.LVL31:
 363              	.L235:
 364              		.loc 1 793 0 is_stmt 0 discriminator 2
 365 01f4 FFF7FEFF 		bl	e_uart1_sending
 366              	.LVL32:
 367 01f8 0028     		cmp	r0, #0
 368 01fa FBD1     		bne	.L235
 369              	.LVL33:
 370              	.LBE2:
 371              		.loc 1 156 0 is_stmt 1
 372 01fc 079B     		ldr	r3, [sp, #28]
 373 01fe 002B     		cmp	r3, #0
 374 0200 7FF471AF 		bne	.L691
 375              	.LVL34:
 376              	.L641:
 377              		.loc 1 219 0
 378 0204 3C4D     		ldr	r5, .L710+36
 379              	.LVL35:
 380              	.L12:
 381 0206 2846     		mov	r0, r5
 382 0208 FFF7FEFF 		bl	e_getchar_uart2
 383              	.LVL36:
 384 020c 0446     		mov	r4, r0
 385 020e 0028     		cmp	r0, #0
 386 0210 8CD1     		bne	.L10
 387              		.loc 1 222 0
 388 0212 FFF7FEFF 		bl	e_get_data
 389              	.LVL37:
 390 0216 0646     		mov	r6, r0
 391              	.LVL38:
 392              		.loc 1 223 0
 393 0218 FFF7FEFF 		bl	e_get_address
 394              	.LVL39:
 395              		.loc 1 224 0
 396 021c 10F0F70F 		tst	r0, #247
 397 0220 F1D1     		bne	.L12
 398              		.loc 1 224 0 is_stmt 0 discriminator 3
 399 0222 069B     		ldr	r3, [sp, #24]
ARM GAS  C:\Users\mathi\AppData\Local\Temp\ccXNOisu.s 			page 8


 400 0224 B342     		cmp	r3, r6
 401 0226 EED0     		beq	.L12
 402              		.loc 1 225 0 is_stmt 1
 403 0228 092E     		cmp	r6, #9
 404 022a 01F22984 		bhi	.L30
 405 022e DFE816F0 		tbh	[pc, r6, lsl #1]
 406              	.L32:
 407 0232 E800     		.2byte	(.L31-.L32)/2
 408 0234 DF00     		.2byte	(.L33-.L32)/2
 409 0236 D800     		.2byte	(.L34-.L32)/2
 410 0238 CF00     		.2byte	(.L35-.L32)/2
 411 023a CC00     		.2byte	(.L36-.L32)/2
 412 023c C600     		.2byte	(.L37-.L32)/2
 413 023e C300     		.2byte	(.L38-.L32)/2
 414 0240 BC00     		.2byte	(.L39-.L32)/2
 415 0242 B500     		.2byte	(.L40-.L32)/2
 416 0244 A500     		.2byte	(.L41-.L32)/2
 417              	.LVL40:
 418              		.p2align 1
 419              	.L163:
 420              		.loc 1 674 0 discriminator 4
 421 0246 2046     		mov	r0, r4
 422 0248 FFF7FEFF 		bl	e_getchar_uart2
 423              	.LVL41:
 424 024c 99F80030 		ldrb	r3, [r9]	@ zero_extendqisi2
 425              	.L160:
 426              		.loc 1 674 0 is_stmt 0 discriminator 1
 427 0250 0A2B     		cmp	r3, #10
 428 0252 F8D0     		beq	.L163
 429              		.loc 1 674 0 discriminator 3
 430 0254 0D2B     		cmp	r3, #13
 431 0256 F6D0     		beq	.L163
 432              		.loc 1 677 0 is_stmt 1
 433 0258 0122     		movs	r2, #1
 434              		.loc 1 676 0
 435 025a 8AF80030 		strb	r3, [r10]
 436              		.loc 1 677 0
 437 025e CBF80020 		str	r2, [fp]
 438              		.loc 1 684 0
 439 0262 254C     		ldr	r4, .L710+36
 440 0264 05E0     		b	.L174
 441              	.L692:
 442 0266 99F80030 		ldrb	r3, [r9]	@ zero_extendqisi2
 443              	.L172:
 444              		.loc 1 685 0
 445 026a 0A2B     		cmp	r3, #10
 446 026c 95D0     		beq	.L175
 447              		.loc 1 685 0 is_stmt 0 discriminator 1
 448 026e 0D2B     		cmp	r3, #13
 449 0270 93D0     		beq	.L175
 450              	.L174:
 451              		.loc 1 684 0 is_stmt 1
 452 0272 2046     		mov	r0, r4
 453 0274 FFF7FEFF 		bl	e_getchar_uart2
 454              	.LVL42:
 455 0278 0028     		cmp	r0, #0
 456 027a F4D0     		beq	.L692
ARM GAS  C:\Users\mathi\AppData\Local\Temp\ccXNOisu.s 			page 9


 457              		.loc 1 684 0 is_stmt 0 discriminator 1
 458 027c DBF80020 		ldr	r2, [fp]
 459 0280 99F80030 		ldrb	r3, [r9]	@ zero_extendqisi2
 460 0284 0AF80230 		strb	r3, [r10, r2]
 461 0288 0132     		adds	r2, r2, #1
 462 028a CBF80020 		str	r2, [fp]
 463 028e ECE7     		b	.L172
 464              	.LVL43:
 465              	.L25:
 466              		.loc 1 197 0 is_stmt 1
 467 0290 1C4B     		ldr	r3, .L710+48
 468              	.L669:
 469              		.loc 1 198 0
 470 0292 1D4A     		ldr	r2, .L710+52
 471 0294 1D49     		ldr	r1, .L710+56
 472 0296 1160     		str	r1, [r2]
 473              		.loc 1 197 0
 474 0298 1D4A     		ldr	r2, .L710+60
 475              		.loc 1 199 0
 476 029a 0C46     		mov	r4, r1
 477              		.loc 1 197 0
 478 029c 1360     		str	r3, [r2]
 479              	.LVL44:
 480              	.L26:
 481              		.loc 1 211 0
 482 029e 2046     		mov	r0, r4
 483 02a0 FFF7FEFF 		bl	e_set_speed_left
 484              	.LVL45:
 485              		.loc 1 212 0
 486 02a4 1A4B     		ldr	r3, .L710+60
 487 02a6 1868     		ldr	r0, [r3]
 488 02a8 FFF7FEFF 		bl	e_set_speed_right
 489              	.LVL46:
 490 02ac 0696     		str	r6, [sp, #24]
 491 02ae 1BE7     		b	.L11
 492              	.LVL47:
 493              	.L24:
 494              		.loc 1 193 0
 495 02b0 174A     		ldr	r2, .L710+60
 496 02b2 164B     		ldr	r3, .L710+56
 497 02b4 1360     		str	r3, [r2]
 498              		.loc 1 194 0
 499 02b6 144A     		ldr	r2, .L710+52
 500              		.loc 1 195 0
 501 02b8 1C46     		mov	r4, r3
 502              		.loc 1 194 0
 503 02ba 1360     		str	r3, [r2]
 504              		.loc 1 195 0
 505 02bc EFE7     		b	.L26
 506              	.L23:
 507              		.loc 1 190 0
 508 02be 114C     		ldr	r4, .L710+48
 509              	.L670:
 510              		.loc 1 189 0
 511 02c0 134B     		ldr	r3, .L710+60
 512 02c2 124A     		ldr	r2, .L710+56
 513 02c4 1A60     		str	r2, [r3]
ARM GAS  C:\Users\mathi\AppData\Local\Temp\ccXNOisu.s 			page 10


 514              		.loc 1 190 0
 515 02c6 104B     		ldr	r3, .L710+52
 516 02c8 1C60     		str	r4, [r3]
 517              		.loc 1 191 0
 518 02ca E8E7     		b	.L26
 519              	.L22:
 520              		.loc 1 186 0
 521 02cc 4FF41674 		mov	r4, #600
 522 02d0 F6E7     		b	.L670
 523              	.L711:
 524 02d2 00BF     		.align	2
 525              	.L710:
 526 02d4 00000000 		.word	__stack_chk_guard
 527 02d8 00000000 		.word	selector
 528 02dc 00000000 		.word	.LANCHOR1
 529 02e0 00000000 		.word	.LANCHOR5
 530 02e4 00000000 		.word	.LANCHOR2
 531 02e8 00000000 		.word	.LANCHOR3
 532 02ec 00000000 		.word	.LANCHOR4
 533 02f0 00000000 		.word	.LANCHOR0
 534 02f4 00000000 		.word	.LC0
 535 02f8 00000000 		.word	c
 536 02fc F8000000 		.word	.LC13
 537 0300 00000000 		.word	buffer
 538 0304 D4FEFFFF 		.word	-300
 539 0308 00000000 		.word	.LANCHOR7
 540 030c A8FDFFFF 		.word	-600
 541 0310 00000000 		.word	.LANCHOR6
 542 0314 00000000 		.word	.LANCHOR9
 543 0318 00000000 		.word	.LANCHOR10
 544              	.L21:
 545              		.loc 1 181 0
 546 031c 7E4A     		ldr	r2, .L712
 547 031e 0023     		movs	r3, #0
 548 0320 1360     		str	r3, [r2]
 549              		.loc 1 182 0
 550 0322 7E4A     		ldr	r2, .L712+4
 551 0324 1360     		str	r3, [r2]
 552              		.loc 1 183 0
 553 0326 BAE7     		b	.L26
 554              	.L20:
 555              		.loc 1 177 0
 556 0328 4FF41673 		mov	r3, #600
 557 032c B1E7     		b	.L669
 558              	.L19:
 559              		.loc 1 173 0
 560 032e 7A4A     		ldr	r2, .L712
 561 0330 4FF49673 		mov	r3, #300
 562 0334 1360     		str	r3, [r2]
 563              		.loc 1 174 0
 564 0336 794B     		ldr	r3, .L712+4
 565 0338 4FF41674 		mov	r4, #600
 566 033c 1C60     		str	r4, [r3]
 567              		.loc 1 175 0
 568 033e AEE7     		b	.L26
 569              	.L18:
 570              		.loc 1 169 0
ARM GAS  C:\Users\mathi\AppData\Local\Temp\ccXNOisu.s 			page 11


 571 0340 754B     		ldr	r3, .L712
 572 0342 4FF41674 		mov	r4, #600
 573 0346 1C60     		str	r4, [r3]
 574              		.loc 1 170 0
 575 0348 744B     		ldr	r3, .L712+4
 576 034a 1C60     		str	r4, [r3]
 577              		.loc 1 171 0
 578 034c A7E7     		b	.L26
 579              	.L17:
 580              		.loc 1 165 0
 581 034e 724A     		ldr	r2, .L712
 582 0350 4FF41673 		mov	r3, #600
 583 0354 1360     		str	r3, [r2]
 584              		.loc 1 166 0
 585 0356 714B     		ldr	r3, .L712+4
 586 0358 4FF49674 		mov	r4, #300
 587 035c 1C60     		str	r4, [r3]
 588              		.loc 1 167 0
 589 035e 9EE7     		b	.L26
 590              	.L15:
 591              		.loc 1 201 0
 592 0360 6F4B     		ldr	r3, .L712+8
 593 0362 1B78     		ldrb	r3, [r3]	@ zero_extendqisi2
 594 0364 002B     		cmp	r3, #0
 595 0366 01F03E84 		beq	.L693
 596              	.LVL48:
 597              	.L27:
 598              		.loc 1 205 0
 599 036a 41F65071 		movw	r1, #8016
 600 036e 42F61430 		movw	r0, #11028
 601 0372 FFF7FEFF 		bl	e_play_sound
 602              	.LVL49:
 603 0376 694B     		ldr	r3, .L712+4
 604 0378 1C68     		ldr	r4, [r3]
 605              		.loc 1 206 0
 606 037a 90E7     		b	.L26
 607              	.LVL50:
 608              	.L41:
 609              		.loc 1 259 0
 610 037c 694B     		ldr	r3, .L712+12
 611              	.L671:
 612              		.loc 1 260 0
 613 037e 674A     		ldr	r2, .L712+4
 614 0380 6949     		ldr	r1, .L712+16
 615 0382 1160     		str	r1, [r2]
 616              		.loc 1 259 0
 617 0384 644A     		ldr	r2, .L712
 618              		.loc 1 261 0
 619 0386 0C46     		mov	r4, r1
 620              		.loc 1 259 0
 621 0388 1360     		str	r3, [r2]
 622              	.LVL51:
 623              	.L42:
 624              		.loc 1 273 0
 625 038a 2046     		mov	r0, r4
 626 038c FFF7FEFF 		bl	e_set_speed_left
 627              	.LVL52:
ARM GAS  C:\Users\mathi\AppData\Local\Temp\ccXNOisu.s 			page 12


 628              		.loc 1 274 0
 629 0390 614B     		ldr	r3, .L712
 630 0392 1868     		ldr	r0, [r3]
 631 0394 FFF7FEFF 		bl	e_set_speed_right
 632              	.LVL53:
 633 0398 0696     		str	r6, [sp, #24]
 634 039a 34E7     		b	.L12
 635              	.LVL54:
 636              	.L40:
 637              		.loc 1 255 0
 638 039c 5E4A     		ldr	r2, .L712
 639 039e 624B     		ldr	r3, .L712+16
 640 03a0 1360     		str	r3, [r2]
 641              		.loc 1 256 0
 642 03a2 5E4A     		ldr	r2, .L712+4
 643              		.loc 1 257 0
 644 03a4 1C46     		mov	r4, r3
 645              		.loc 1 256 0
 646 03a6 1360     		str	r3, [r2]
 647              		.loc 1 257 0
 648 03a8 EFE7     		b	.L42
 649              	.L39:
 650              		.loc 1 252 0
 651 03aa 5E4C     		ldr	r4, .L712+12
 652              	.L672:
 653              		.loc 1 251 0
 654 03ac 5A4B     		ldr	r3, .L712
 655 03ae 5E4A     		ldr	r2, .L712+16
 656 03b0 1A60     		str	r2, [r3]
 657              		.loc 1 252 0
 658 03b2 5A4B     		ldr	r3, .L712+4
 659 03b4 1C60     		str	r4, [r3]
 660              		.loc 1 253 0
 661 03b6 E8E7     		b	.L42
 662              	.L38:
 663              		.loc 1 248 0
 664 03b8 4FF41674 		mov	r4, #600
 665 03bc F6E7     		b	.L672
 666              	.L37:
 667              		.loc 1 243 0
 668 03be 564A     		ldr	r2, .L712
 669 03c0 0023     		movs	r3, #0
 670 03c2 1360     		str	r3, [r2]
 671              		.loc 1 244 0
 672 03c4 554A     		ldr	r2, .L712+4
 673 03c6 1360     		str	r3, [r2]
 674              		.loc 1 245 0
 675 03c8 DFE7     		b	.L42
 676              	.L36:
 677              		.loc 1 239 0
 678 03ca 4FF41673 		mov	r3, #600
 679 03ce D6E7     		b	.L671
 680              	.L35:
 681              		.loc 1 235 0
 682 03d0 514A     		ldr	r2, .L712
 683 03d2 4FF49673 		mov	r3, #300
 684 03d6 1360     		str	r3, [r2]
ARM GAS  C:\Users\mathi\AppData\Local\Temp\ccXNOisu.s 			page 13


 685              		.loc 1 236 0
 686 03d8 504B     		ldr	r3, .L712+4
 687 03da 4FF41674 		mov	r4, #600
 688 03de 1C60     		str	r4, [r3]
 689              		.loc 1 237 0
 690 03e0 D3E7     		b	.L42
 691              	.L34:
 692              		.loc 1 231 0
 693 03e2 4D4B     		ldr	r3, .L712
 694 03e4 4FF41674 		mov	r4, #600
 695 03e8 1C60     		str	r4, [r3]
 696              		.loc 1 232 0
 697 03ea 4C4B     		ldr	r3, .L712+4
 698 03ec 1C60     		str	r4, [r3]
 699              		.loc 1 233 0
 700 03ee CCE7     		b	.L42
 701              	.L33:
 702              		.loc 1 227 0
 703 03f0 494A     		ldr	r2, .L712
 704 03f2 4FF41673 		mov	r3, #600
 705 03f6 1360     		str	r3, [r2]
 706              		.loc 1 228 0
 707 03f8 484B     		ldr	r3, .L712+4
 708 03fa 4FF49674 		mov	r4, #300
 709 03fe 1C60     		str	r4, [r3]
 710              		.loc 1 229 0
 711 0400 C3E7     		b	.L42
 712              	.L31:
 713              		.loc 1 263 0
 714 0402 474B     		ldr	r3, .L712+8
 715 0404 1B78     		ldrb	r3, [r3]	@ zero_extendqisi2
 716 0406 002B     		cmp	r3, #0
 717 0408 01F0F483 		beq	.L694
 718              	.LVL55:
 719              	.L43:
 720              		.loc 1 267 0
 721 040c 41F65071 		movw	r1, #8016
 722 0410 42F61430 		movw	r0, #11028
 723 0414 FFF7FEFF 		bl	e_play_sound
 724              	.LVL56:
 725 0418 404B     		ldr	r3, .L712+4
 726 041a 1C68     		ldr	r4, [r3]
 727              		.loc 1 268 0
 728 041c B5E7     		b	.L42
 729              	.LVL57:
 730              	.L686:
 731              		.loc 1 283 0
 732 041e 0022     		movs	r2, #0
 733              		.loc 1 643 0
 734 0420 424E     		ldr	r6, .L712+20
 735              		.loc 1 368 0
 736 0422 9FED438A 		vldr.32	s16, .L712+24
 737              		.loc 1 283 0
 738 0426 CBF80020 		str	r2, [fp]
 739              	.L673:
 740 042a 5B42     		negs	r3, r3
 741              	.L46:
ARM GAS  C:\Users\mathi\AppData\Local\Temp\ccXNOisu.s 			page 14


 742              		.loc 1 285 0
 743 042c DAB2     		uxtb	r2, r3
 744 042e 0A3A     		subs	r2, r2, #10
 745 0430 6D2A     		cmp	r2, #109
 746 0432 00F29680 		bhi	.L47
 747 0436 DFE812F0 		tbh	[pc, r2, lsl #1]
 748              	.L49:
 749 043a 4F01     		.2byte	(.L48-.L49)/2
 750 043c EA03     		.2byte	(.L50-.L49)/2
 751 043e AD03     		.2byte	(.L51-.L49)/2
 752 0440 DB03     		.2byte	(.L52-.L49)/2
 753 0442 AF02     		.2byte	(.L53-.L49)/2
 754 0444 9400     		.2byte	(.L47-.L49)/2
 755 0446 9400     		.2byte	(.L47-.L49)/2
 756 0448 9400     		.2byte	(.L47-.L49)/2
 757 044a 9400     		.2byte	(.L47-.L49)/2
 758 044c 9400     		.2byte	(.L47-.L49)/2
 759 044e 9400     		.2byte	(.L47-.L49)/2
 760 0450 9400     		.2byte	(.L47-.L49)/2
 761 0452 9400     		.2byte	(.L47-.L49)/2
 762 0454 9400     		.2byte	(.L47-.L49)/2
 763 0456 9400     		.2byte	(.L47-.L49)/2
 764 0458 9400     		.2byte	(.L47-.L49)/2
 765 045a 9400     		.2byte	(.L47-.L49)/2
 766 045c 9400     		.2byte	(.L47-.L49)/2
 767 045e 9400     		.2byte	(.L47-.L49)/2
 768 0460 9400     		.2byte	(.L47-.L49)/2
 769 0462 9400     		.2byte	(.L47-.L49)/2
 770 0464 9400     		.2byte	(.L47-.L49)/2
 771 0466 9400     		.2byte	(.L47-.L49)/2
 772 0468 9400     		.2byte	(.L47-.L49)/2
 773 046a 9400     		.2byte	(.L47-.L49)/2
 774 046c 9400     		.2byte	(.L47-.L49)/2
 775 046e 9400     		.2byte	(.L47-.L49)/2
 776 0470 9400     		.2byte	(.L47-.L49)/2
 777 0472 9400     		.2byte	(.L47-.L49)/2
 778 0474 9400     		.2byte	(.L47-.L49)/2
 779 0476 9400     		.2byte	(.L47-.L49)/2
 780 0478 9400     		.2byte	(.L47-.L49)/2
 781 047a 9400     		.2byte	(.L47-.L49)/2
 782 047c 9400     		.2byte	(.L47-.L49)/2
 783 047e 9400     		.2byte	(.L47-.L49)/2
 784 0480 9400     		.2byte	(.L47-.L49)/2
 785 0482 9400     		.2byte	(.L47-.L49)/2
 786 0484 9400     		.2byte	(.L47-.L49)/2
 787 0486 9400     		.2byte	(.L47-.L49)/2
 788 0488 9400     		.2byte	(.L47-.L49)/2
 789 048a 9400     		.2byte	(.L47-.L49)/2
 790 048c 9400     		.2byte	(.L47-.L49)/2
 791 048e 9400     		.2byte	(.L47-.L49)/2
 792 0490 9400     		.2byte	(.L47-.L49)/2
 793 0492 9400     		.2byte	(.L47-.L49)/2
 794 0494 9400     		.2byte	(.L47-.L49)/2
 795 0496 9400     		.2byte	(.L47-.L49)/2
 796 0498 9400     		.2byte	(.L47-.L49)/2
 797 049a 9400     		.2byte	(.L47-.L49)/2
 798 049c 9400     		.2byte	(.L47-.L49)/2
ARM GAS  C:\Users\mathi\AppData\Local\Temp\ccXNOisu.s 			page 15


 799 049e 9400     		.2byte	(.L47-.L49)/2
 800 04a0 9400     		.2byte	(.L47-.L49)/2
 801 04a2 9400     		.2byte	(.L47-.L49)/2
 802 04a4 9400     		.2byte	(.L47-.L49)/2
 803 04a6 9400     		.2byte	(.L47-.L49)/2
 804 04a8 2C03     		.2byte	(.L54-.L49)/2
 805 04aa 9400     		.2byte	(.L47-.L49)/2
 806 04ac 9400     		.2byte	(.L47-.L49)/2
 807 04ae D502     		.2byte	(.L55-.L49)/2
 808 04b0 7003     		.2byte	(.L56-.L49)/2
 809 04b2 9400     		.2byte	(.L47-.L49)/2
 810 04b4 9400     		.2byte	(.L47-.L49)/2
 811 04b6 9400     		.2byte	(.L47-.L49)/2
 812 04b8 4202     		.2byte	(.L57-.L49)/2
 813 04ba 9400     		.2byte	(.L47-.L49)/2
 814 04bc 9400     		.2byte	(.L47-.L49)/2
 815 04be 9903     		.2byte	(.L58-.L49)/2
 816 04c0 6502     		.2byte	(.L59-.L49)/2
 817 04c2 BD02     		.2byte	(.L60-.L49)/2
 818 04c4 3701     		.2byte	(.L61-.L49)/2
 819 04c6 E000     		.2byte	(.L62-.L49)/2
 820 04c8 C500     		.2byte	(.L63-.L49)/2
 821 04ca 9400     		.2byte	(.L47-.L49)/2
 822 04cc 9400     		.2byte	(.L47-.L49)/2
 823 04ce 9400     		.2byte	(.L47-.L49)/2
 824 04d0 9400     		.2byte	(.L47-.L49)/2
 825 04d2 9400     		.2byte	(.L47-.L49)/2
 826 04d4 0D02     		.2byte	(.L64-.L49)/2
 827 04d6 9400     		.2byte	(.L47-.L49)/2
 828 04d8 9400     		.2byte	(.L47-.L49)/2
 829 04da 9400     		.2byte	(.L47-.L49)/2
 830 04dc 9400     		.2byte	(.L47-.L49)/2
 831 04de 9400     		.2byte	(.L47-.L49)/2
 832 04e0 9400     		.2byte	(.L47-.L49)/2
 833 04e2 9400     		.2byte	(.L47-.L49)/2
 834 04e4 9400     		.2byte	(.L47-.L49)/2
 835 04e6 9400     		.2byte	(.L47-.L49)/2
 836 04e8 C601     		.2byte	(.L65-.L49)/2
 837 04ea EB01     		.2byte	(.L66-.L49)/2
 838 04ec 9400     		.2byte	(.L47-.L49)/2
 839 04ee 9400     		.2byte	(.L47-.L49)/2
 840 04f0 9400     		.2byte	(.L47-.L49)/2
 841 04f2 9400     		.2byte	(.L47-.L49)/2
 842 04f4 B601     		.2byte	(.L67-.L49)/2
 843 04f6 9400     		.2byte	(.L47-.L49)/2
 844 04f8 9400     		.2byte	(.L47-.L49)/2
 845 04fa 9400     		.2byte	(.L47-.L49)/2
 846 04fc 9400     		.2byte	(.L47-.L49)/2
 847 04fe 9400     		.2byte	(.L47-.L49)/2
 848 0500 9400     		.2byte	(.L47-.L49)/2
 849 0502 9400     		.2byte	(.L47-.L49)/2
 850 0504 9400     		.2byte	(.L47-.L49)/2
 851 0506 9400     		.2byte	(.L47-.L49)/2
 852 0508 9400     		.2byte	(.L47-.L49)/2
 853 050a 9400     		.2byte	(.L47-.L49)/2
 854 050c 9400     		.2byte	(.L47-.L49)/2
 855 050e AB01     		.2byte	(.L68-.L49)/2
ARM GAS  C:\Users\mathi\AppData\Local\Temp\ccXNOisu.s 			page 16


 856 0510 8B01     		.2byte	(.L69-.L49)/2
 857 0512 9400     		.2byte	(.L47-.L49)/2
 858 0514 F403     		.2byte	(.L70-.L49)/2
 859              		.p2align 1
 860              	.L713:
 861 0516 00BF     		.align	2
 862              	.L712:
 863 0518 00000000 		.word	.LANCHOR6
 864 051c 00000000 		.word	.LANCHOR7
 865 0520 00000000 		.word	.LANCHOR8
 866 0524 D4FEFFFF 		.word	-300
 867 0528 A8FDFFFF 		.word	-600
 868 052c 00000000 		.word	c
 869 0530 00000000 		.word	0
 870              	.L100:
 871              		.loc 1 475 0 discriminator 1
 872 0534 2046     		mov	r0, r4
 873 0536 FFF7FEFF 		bl	e_getchar_uart2
 874              	.LVL58:
 875 053a 0028     		cmp	r0, #0
 876 053c FAD0     		beq	.L100
 877              		.loc 1 476 0
 878 053e BB4C     		ldr	r4, .L714
 879              	.L103:
 880              		.loc 1 476 0 is_stmt 0 discriminator 1
 881 0540 2046     		mov	r0, r4
 882 0542 FFF7FEFF 		bl	e_getchar_uart2
 883              	.LVL59:
 884 0546 0028     		cmp	r0, #0
 885 0548 FAD0     		beq	.L103
 886              	.L99:
 887              		.loc 1 478 0 is_stmt 1
 888 054a B94B     		ldr	r3, .L714+4
 889 054c B74A     		ldr	r2, .L714
 890 054e 1B78     		ldrb	r3, [r3]	@ zero_extendqisi2
 891 0550 1078     		ldrb	r0, [r2]	@ zero_extendqisi2
 892 0552 082B     		cmp	r3, #8
 893 0554 01F0C782 		beq	.L105
 894 0558 092B     		cmp	r3, #9
 895 055a 41F0BE82 		bne	.L695
 896              		.loc 1 483 0
 897 055e FFF7FEFF 		bl	e_set_front_led
 898              	.LVL60:
 899              	.L47:
 900              		.loc 1 640 0
 901 0562 37B9     		cbnz	r7, .L679
 902              	.L78:
 903              		.loc 1 642 0
 904 0564 079B     		ldr	r3, [sp, #28]
 905 0566 13B3     		cbz	r3, .L152
 906              	.L153:
 907              		.loc 1 643 0 discriminator 1
 908 0568 3046     		mov	r0, r6
 909 056a FFF7FEFF 		bl	e_getchar_uart1
 910              	.LVL61:
 911 056e 0028     		cmp	r0, #0
 912 0570 FAD0     		beq	.L153
ARM GAS  C:\Users\mathi\AppData\Local\Temp\ccXNOisu.s 			page 17


 913              	.L679:
 914 0572 99F80030 		ldrb	r3, [r9]	@ zero_extendqisi2
 915              		.loc 1 647 0
 916 0576 002B     		cmp	r3, #0
 917 0578 7FF457AF 		bne	.L673
 918              	.L649:
 919              		.loc 1 648 0
 920 057c DBF80010 		ldr	r1, [fp]
 921 0580 0029     		cmp	r1, #0
 922 0582 3FF4ABAD 		beq	.L6
 923              		.loc 1 649 0
 924 0586 002F     		cmp	r7, #0
 925 0588 7FF4A8AD 		bne	.L6
 926              		.loc 1 650 0
 927 058c A94B     		ldr	r3, .L714+8
 928 058e 1B78     		ldrb	r3, [r3]	@ zero_extendqisi2
 929 0590 002B     		cmp	r3, #0
 930 0592 41F03683 		bne	.L696
 931              	.L155:
 932              		.loc 1 659 0
 933 0596 079B     		ldr	r3, [sp, #28]
 934 0598 002B     		cmp	r3, #0
 935 059a 01F09582 		beq	.L697
 936              		.loc 1 660 0
 937 059e A648     		ldr	r0, .L714+12
 938 05a0 FFF7FEFF 		bl	e_send_uart1_char
 939              	.LVL62:
 940              	.L156:
 941              		.loc 1 661 0 discriminator 1
 942 05a4 FFF7FEFF 		bl	e_uart1_sending
 943              	.LVL63:
 944 05a8 0028     		cmp	r0, #0
 945 05aa FBD1     		bne	.L156
 946 05ac 97E5     		b	.L650
 947              	.L152:
 948              		.loc 1 645 0 discriminator 1
 949 05ae 3046     		mov	r0, r6
 950 05b0 FFF7FEFF 		bl	e_getchar_uart2
 951              	.LVL64:
 952 05b4 0028     		cmp	r0, #0
 953 05b6 DCD1     		bne	.L679
 954              		.loc 1 645 0 is_stmt 0
 955 05b8 3046     		mov	r0, r6
 956 05ba FFF7FEFF 		bl	e_getchar_uart2
 957              	.LVL65:
 958 05be 0028     		cmp	r0, #0
 959 05c0 F5D0     		beq	.L152
 960 05c2 D6E7     		b	.L679
 961              	.L63:
 962              		.loc 1 555 0 is_stmt 1
 963 05c4 FFF7FEFF 		bl	e_get_steps_left
 964              	.LVL66:
 965              		.loc 1 556 0
 966 05c8 DBF80030 		ldr	r3, [fp]
 967              		.loc 1 557 0
 968 05cc 0AEB0302 		add	r2, r10, r3
 969              		.loc 1 556 0
ARM GAS  C:\Users\mathi\AppData\Local\Temp\ccXNOisu.s 			page 18


 970 05d0 0AF80300 		strb	r0, [r10, r3]
 971              		.loc 1 557 0
 972 05d4 0112     		asrs	r1, r0, #8
 973 05d6 0233     		adds	r3, r3, #2
 974 05d8 5170     		strb	r1, [r2, #1]
 975 05da CBF80030 		str	r3, [fp]
 976              		.loc 1 558 0
 977 05de FFF7FEFF 		bl	e_get_steps_right
 978              	.LVL67:
 979              	.L677:
 980              		.loc 1 559 0
 981 05e2 DBF80030 		ldr	r3, [fp]
 982              		.loc 1 560 0
 983 05e6 0AEB0302 		add	r2, r10, r3
 984              		.loc 1 559 0
 985 05ea 0AF80300 		strb	r0, [r10, r3]
 986              		.loc 1 560 0
 987 05ee 0112     		asrs	r1, r0, #8
 988 05f0 0233     		adds	r3, r3, #2
 989 05f2 5170     		strb	r1, [r2, #1]
 990 05f4 CBF80030 		str	r3, [fp]
 991              		.loc 1 561 0
 992 05f8 B3E7     		b	.L47
 993              	.L62:
 994              		.loc 1 531 0
 995 05fa 002F     		cmp	r7, #0
 996 05fc 41F05282 		bne	.L118
 997              		.loc 1 533 0
 998 0600 079B     		ldr	r3, [sp, #28]
 999              		.loc 1 534 0
 1000 0602 8B4C     		ldr	r4, .L714+4
 1001              		.loc 1 533 0
 1002 0604 002B     		cmp	r3, #0
 1003 0606 2FD0     		beq	.L119
 1004              	.L120:
 1005              		.loc 1 534 0 discriminator 1
 1006 0608 2046     		mov	r0, r4
 1007 060a FFF7FEFF 		bl	e_getchar_uart1
 1008              	.LVL68:
 1009 060e 0028     		cmp	r0, #0
 1010 0610 FAD0     		beq	.L120
 1011              		.loc 1 535 0
 1012 0612 864C     		ldr	r4, .L714
 1013              	.L121:
 1014              		.loc 1 535 0 is_stmt 0 discriminator 1
 1015 0614 2046     		mov	r0, r4
 1016 0616 FFF7FEFF 		bl	e_getchar_uart1
 1017              	.LVL69:
 1018 061a 0028     		cmp	r0, #0
 1019 061c FAD0     		beq	.L121
 1020              		.loc 1 540 0 is_stmt 1
 1021 061e 834B     		ldr	r3, .L714
 1022              		.loc 1 544 0
 1023 0620 834C     		ldr	r4, .L714+4
 1024              		.loc 1 540 0
 1025 0622 1A78     		ldrb	r2, [r3]	@ zero_extendqisi2
 1026 0624 824B     		ldr	r3, .L714+4
ARM GAS  C:\Users\mathi\AppData\Local\Temp\ccXNOisu.s 			page 19


 1027 0626 1B78     		ldrb	r3, [r3]	@ zero_extendqisi2
 1028 0628 03EB0223 		add	r3, r3, r2, lsl #8
 1029 062c 834A     		ldr	r2, .L714+16
 1030 062e 1360     		str	r3, [r2]
 1031              	.L125:
 1032              		.loc 1 544 0 discriminator 1
 1033 0630 2046     		mov	r0, r4
 1034 0632 FFF7FEFF 		bl	e_getchar_uart1
 1035              	.LVL70:
 1036 0636 0028     		cmp	r0, #0
 1037 0638 FAD0     		beq	.L125
 1038              		.loc 1 545 0
 1039 063a 7C4C     		ldr	r4, .L714
 1040              	.L126:
 1041              		.loc 1 545 0 is_stmt 0 discriminator 1
 1042 063c 2046     		mov	r0, r4
 1043 063e FFF7FEFF 		bl	e_getchar_uart1
 1044              	.LVL71:
 1045 0642 0028     		cmp	r0, #0
 1046 0644 FAD0     		beq	.L126
 1047              	.L648:
 1048 0646 794B     		ldr	r3, .L714
 1049 0648 7C49     		ldr	r1, .L714+16
 1050 064a 1A78     		ldrb	r2, [r3]	@ zero_extendqisi2
 1051 064c 784B     		ldr	r3, .L714+4
 1052 064e 0868     		ldr	r0, [r1]
 1053 0650 1B78     		ldrb	r3, [r3]	@ zero_extendqisi2
 1054 0652 03EB0223 		add	r3, r3, r2, lsl #8
 1055              	.L130:
 1056              		.loc 1 550 0 is_stmt 1
 1057 0656 7A4A     		ldr	r2, .L714+20
 1058 0658 1446     		mov	r4, r2
 1059 065a 1360     		str	r3, [r2]
 1060              		.loc 1 551 0
 1061 065c FFF7FEFF 		bl	e_set_steps_left
 1062              	.LVL72:
 1063              		.loc 1 552 0
 1064 0660 2068     		ldr	r0, [r4]
 1065 0662 FFF7FEFF 		bl	e_set_steps_right
 1066              	.LVL73:
 1067              		.loc 1 553 0
 1068 0666 7CE7     		b	.L47
 1069              	.L119:
 1070              		.loc 1 537 0 discriminator 1
 1071 0668 2046     		mov	r0, r4
 1072 066a FFF7FEFF 		bl	e_getchar_uart2
 1073              	.LVL74:
 1074 066e 0028     		cmp	r0, #0
 1075 0670 FAD0     		beq	.L119
 1076              		.loc 1 538 0
 1077 0672 6E4C     		ldr	r4, .L714
 1078              	.L123:
 1079              		.loc 1 538 0 is_stmt 0 discriminator 1
 1080 0674 2046     		mov	r0, r4
 1081 0676 FFF7FEFF 		bl	e_getchar_uart2
 1082              	.LVL75:
 1083 067a 0028     		cmp	r0, #0
ARM GAS  C:\Users\mathi\AppData\Local\Temp\ccXNOisu.s 			page 20


 1084 067c FAD0     		beq	.L123
 1085              		.loc 1 540 0 is_stmt 1
 1086 067e 6B4B     		ldr	r3, .L714
 1087              		.loc 1 547 0
 1088 0680 6B4C     		ldr	r4, .L714+4
 1089              		.loc 1 540 0
 1090 0682 1A78     		ldrb	r2, [r3]	@ zero_extendqisi2
 1091 0684 6A4B     		ldr	r3, .L714+4
 1092 0686 1B78     		ldrb	r3, [r3]	@ zero_extendqisi2
 1093 0688 03EB0223 		add	r3, r3, r2, lsl #8
 1094 068c 6B4A     		ldr	r2, .L714+16
 1095 068e 1360     		str	r3, [r2]
 1096              	.L128:
 1097              		.loc 1 547 0 discriminator 1
 1098 0690 2046     		mov	r0, r4
 1099 0692 FFF7FEFF 		bl	e_getchar_uart2
 1100              	.LVL76:
 1101 0696 0028     		cmp	r0, #0
 1102 0698 FAD0     		beq	.L128
 1103              		.loc 1 548 0
 1104 069a 644C     		ldr	r4, .L714
 1105              	.L129:
 1106              		.loc 1 548 0 is_stmt 0 discriminator 1
 1107 069c 2046     		mov	r0, r4
 1108 069e FFF7FEFF 		bl	e_getchar_uart2
 1109              	.LVL77:
 1110 06a2 0028     		cmp	r0, #0
 1111 06a4 FAD0     		beq	.L129
 1112 06a6 CEE7     		b	.L648
 1113              	.L61:
 1114              		.loc 1 523 0 is_stmt 1
 1115 06a8 0020     		movs	r0, #0
 1116 06aa C8F80000 		str	r0, [r8]
 1117              	.L116:
 1118              		.loc 1 524 0 discriminator 3
 1119 06ae FFF7FEFF 		bl	e_get_ambient_light
 1120              	.LVL78:
 1121              		.loc 1 525 0 discriminator 3
 1122 06b2 DBF80020 		ldr	r2, [fp]
 1123              		.loc 1 523 0 discriminator 3
 1124 06b6 D8F80030 		ldr	r3, [r8]
 1125              		.loc 1 525 0 discriminator 3
 1126 06ba 0AF80200 		strb	r0, [r10, r2]
 1127              		.loc 1 526 0 discriminator 3
 1128 06be 0AEB0204 		add	r4, r10, r2
 1129 06c2 0112     		asrs	r1, r0, #8
 1130              		.loc 1 523 0 discriminator 3
 1131 06c4 581C     		adds	r0, r3, #1
 1132              		.loc 1 526 0 discriminator 3
 1133 06c6 0232     		adds	r2, r2, #2
 1134              		.loc 1 523 0 discriminator 3
 1135 06c8 0728     		cmp	r0, #7
 1136              		.loc 1 526 0 discriminator 3
 1137 06ca 6170     		strb	r1, [r4, #1]
 1138 06cc CBF80020 		str	r2, [fp]
 1139              		.loc 1 523 0 discriminator 3
 1140 06d0 C8F80000 		str	r0, [r8]
ARM GAS  C:\Users\mathi\AppData\Local\Temp\ccXNOisu.s 			page 21


 1141 06d4 EBDD     		ble	.L116
 1142 06d6 44E7     		b	.L47
 1143              	.L48:
 1144              		.loc 1 287 0
 1145 06d8 0020     		movs	r0, #0
 1146 06da 079C     		ldr	r4, [sp, #28]
 1147 06dc C8F80000 		str	r0, [r8]
 1148              	.L76:
 1149              		.loc 1 288 0
 1150 06e0 5FB9     		cbnz	r7, .L71
 1151              		.loc 1 290 0
 1152 06e2 74B3     		cbz	r4, .L72
 1153 06e4 01E0     		b	.L74
 1154              	.L73:
 1155 06e6 D8F80000 		ldr	r0, [r8]
 1156              	.L74:
 1157              		.loc 1 291 0 discriminator 1
 1158 06ea 564B     		ldr	r3, .L714+24
 1159 06ec 1844     		add	r0, r0, r3
 1160 06ee FFF7FEFF 		bl	e_getchar_uart1
 1161              	.LVL79:
 1162 06f2 0028     		cmp	r0, #0
 1163 06f4 F7D0     		beq	.L73
 1164              	.L674:
 1165 06f6 D8F80000 		ldr	r0, [r8]
 1166              	.L71:
 1167              		.loc 1 287 0 discriminator 2
 1168 06fa 0130     		adds	r0, r0, #1
 1169 06fc 0B28     		cmp	r0, #11
 1170 06fe C8F80000 		str	r0, [r8]
 1171 0702 EDDD     		ble	.L76
 1172              		.loc 1 296 0
 1173 0704 4F4B     		ldr	r3, .L714+24
 1174 0706 1A46     		mov	r2, r3
 1175 0708 1146     		mov	r1, r2
 1176 070a 0C46     		mov	r4, r1
 1177 070c 9B78     		ldrb	r3, [r3, #2]	@ zero_extendqisi2
 1178 070e 5278     		ldrb	r2, [r2, #1]	@ zero_extendqisi2
 1179 0710 0978     		ldrb	r1, [r1]	@ zero_extendqisi2
 1180 0712 0020     		movs	r0, #0
 1181 0714 FFF7FEFF 		bl	set_rgb_led
 1182              	.LVL80:
 1183              		.loc 1 297 0
 1184 0718 6379     		ldrb	r3, [r4, #5]	@ zero_extendqisi2
 1185 071a 2279     		ldrb	r2, [r4, #4]	@ zero_extendqisi2
 1186 071c E178     		ldrb	r1, [r4, #3]	@ zero_extendqisi2
 1187 071e 0120     		movs	r0, #1
 1188 0720 FFF7FEFF 		bl	set_rgb_led
 1189              	.LVL81:
 1190              		.loc 1 298 0
 1191 0724 237A     		ldrb	r3, [r4, #8]	@ zero_extendqisi2
 1192 0726 E279     		ldrb	r2, [r4, #7]	@ zero_extendqisi2
 1193 0728 A179     		ldrb	r1, [r4, #6]	@ zero_extendqisi2
 1194 072a 0220     		movs	r0, #2
 1195 072c FFF7FEFF 		bl	set_rgb_led
 1196              	.LVL82:
 1197              		.loc 1 299 0
ARM GAS  C:\Users\mathi\AppData\Local\Temp\ccXNOisu.s 			page 22


 1198 0730 E37A     		ldrb	r3, [r4, #11]	@ zero_extendqisi2
 1199 0732 A27A     		ldrb	r2, [r4, #10]	@ zero_extendqisi2
 1200 0734 617A     		ldrb	r1, [r4, #9]	@ zero_extendqisi2
 1201 0736 0320     		movs	r0, #3
 1202 0738 FFF7FEFF 		bl	set_rgb_led
 1203              	.LVL83:
 1204              		.loc 1 300 0
 1205 073c 11E7     		b	.L47
 1206              	.L75:
 1207 073e D8F80000 		ldr	r0, [r8]
 1208              	.L72:
 1209              		.loc 1 293 0 discriminator 1
 1210 0742 404B     		ldr	r3, .L714+24
 1211 0744 1844     		add	r0, r0, r3
 1212 0746 FFF7FEFF 		bl	e_getchar_uart2
 1213              	.LVL84:
 1214 074a 0028     		cmp	r0, #0
 1215 074c F7D0     		beq	.L75
 1216 074e D2E7     		b	.L674
 1217              	.L69:
 1218              		.loc 1 572 0
 1219 0750 0020     		movs	r0, #0
 1220 0752 FFF7FEFF 		bl	e_get_micro_volume
 1221              	.LVL85:
 1222              		.loc 1 573 0
 1223 0756 DBF80030 		ldr	r3, [fp]
 1224              		.loc 1 574 0
 1225 075a 0AEB0302 		add	r2, r10, r3
 1226              		.loc 1 573 0
 1227 075e 0AF80300 		strb	r0, [r10, r3]
 1228              		.loc 1 574 0
 1229 0762 0112     		asrs	r1, r0, #8
 1230 0764 0233     		adds	r3, r3, #2
 1231              		.loc 1 576 0
 1232 0766 0120     		movs	r0, #1
 1233              		.loc 1 574 0
 1234 0768 5170     		strb	r1, [r2, #1]
 1235 076a CBF80030 		str	r3, [fp]
 1236              		.loc 1 576 0
 1237 076e FFF7FEFF 		bl	e_get_micro_volume
 1238              	.LVL86:
 1239              		.loc 1 577 0
 1240 0772 DBF80030 		ldr	r3, [fp]
 1241              		.loc 1 578 0
 1242 0776 0AEB0302 		add	r2, r10, r3
 1243              		.loc 1 577 0
 1244 077a 0AF80300 		strb	r0, [r10, r3]
 1245              		.loc 1 578 0
 1246 077e 0112     		asrs	r1, r0, #8
 1247 0780 0233     		adds	r3, r3, #2
 1248              		.loc 1 580 0
 1249 0782 0220     		movs	r0, #2
 1250              		.loc 1 578 0
 1251 0784 5170     		strb	r1, [r2, #1]
 1252 0786 CBF80030 		str	r3, [fp]
 1253              		.loc 1 580 0
 1254 078a FFF7FEFF 		bl	e_get_micro_volume
ARM GAS  C:\Users\mathi\AppData\Local\Temp\ccXNOisu.s 			page 23


 1255              	.LVL87:
 1256 078e 28E7     		b	.L677
 1257              	.L68:
 1258              		.loc 1 564 0
 1259 0790 002F     		cmp	r7, #0
 1260 0792 41F0AC81 		bne	.L131
 1261              		.loc 1 565 0
 1262 0796 DBF80030 		ldr	r3, [fp]
 1263 079a 5A1C     		adds	r2, r3, #1
 1264 079c 0AF80370 		strb	r7, [r10, r3]
 1265 07a0 CBF80020 		str	r2, [fp]
 1266 07a4 DEE6     		b	.L78
 1267              	.L67:
 1268              		.loc 1 439 0
 1269 07a6 002F     		cmp	r7, #0
 1270 07a8 01F0E081 		beq	.L698
 1271              		.loc 1 448 0
 1272 07ac DBF80010 		ldr	r1, [fp]
 1273 07b0 0AEB0100 		add	r0, r10, r1
 1274 07b4 0022     		movs	r2, #0
 1275              		.loc 1 453 0
 1276 07b6 8C1D     		adds	r4, r1, #6
 1277              		.loc 1 448 0
 1278 07b8 4AF80120 		str	r2, [r10, r1]	@ unaligned
 1279              		.loc 1 453 0
 1280 07bc CBF80040 		str	r4, [fp]
 1281              		.loc 1 452 0
 1282 07c0 0271     		strb	r2, [r0, #4]
 1283              		.loc 1 453 0
 1284 07c2 4271     		strb	r2, [r0, #5]
 1285 07c4 32E6     		b	.L46
 1286              	.L65:
 1287              		.loc 1 344 0
 1288 07c6 002F     		cmp	r7, #0
 1289 07c8 01F0A181 		beq	.L699
 1290              		.loc 1 352 0
 1291 07cc 1E49     		ldr	r1, .L714+28
 1292 07ce 0022     		movs	r2, #0
 1293 07d0 0A60     		str	r2, [r1]
 1294              		.loc 1 353 0
 1295 07d2 1E49     		ldr	r1, .L714+32
 1296 07d4 0A60     		str	r2, [r1]
 1297              		.loc 1 354 0
 1298 07d6 1E49     		ldr	r1, .L714+36
 1299 07d8 1346     		mov	r3, r2
 1300 07da 0A60     		str	r2, [r1]
 1301 07dc 1546     		mov	r5, r2
 1302 07de 1446     		mov	r4, r2
 1303 07e0 9446     		mov	ip, r2
 1304 07e2 1046     		mov	r0, r2
 1305 07e4 1146     		mov	r1, r2
 1306              	.L82:
 1307              		.loc 1 356 0
 1308 07e6 0022     		movs	r2, #0
 1309 07e8 61F30702 		bfi	r2, r1, #0, #8
 1310 07ec DBF80010 		ldr	r1, [fp]
 1311 07f0 60F30F22 		bfi	r2, r0, #8, #8
ARM GAS  C:\Users\mathi\AppData\Local\Temp\ccXNOisu.s 			page 24


 1312 07f4 6CF31742 		bfi	r2, ip, #16, #8
 1313 07f8 0AEB0100 		add	r0, r10, r1
 1314 07fc 64F31F62 		bfi	r2, r4, #24, #8
 1315              		.loc 1 361 0
 1316 0800 8C1D     		adds	r4, r1, #6
 1317              		.loc 1 356 0
 1318 0802 4AF80120 		str	r2, [r10, r1]	@ unaligned
 1319              		.loc 1 361 0
 1320 0806 CBF80040 		str	r4, [fp]
 1321              		.loc 1 360 0
 1322 080a 0571     		strb	r5, [r0, #4]
 1323              		.loc 1 361 0
 1324 080c 4371     		strb	r3, [r0, #5]
 1325              		.loc 1 362 0
 1326 080e A8E6     		b	.L47
 1327              	.L66:
 1328              		.loc 1 402 0
 1329 0810 FFF7FEFF 		bl	getBatteryValueRaw
 1330              	.LVL88:
 1331              		.loc 1 403 0
 1332 0814 DBF80030 		ldr	r3, [fp]
 1333              		.loc 1 404 0
 1334 0818 0AEB0302 		add	r2, r10, r3
 1335              		.loc 1 403 0
 1336 081c 0AF80300 		strb	r0, [r10, r3]
 1337              		.loc 1 404 0
 1338 0820 010A     		lsrs	r1, r0, #8
 1339 0822 0233     		adds	r3, r3, #2
 1340 0824 5170     		strb	r1, [r2, #1]
 1341 0826 CBF80030 		str	r3, [fp]
 1342              		.loc 1 405 0
 1343 082a 9AE6     		b	.L47
 1344              	.L715:
 1345              		.align	2
 1346              	.L714:
 1347 082c 00000000 		.word	.LANCHOR17
 1348 0830 00000000 		.word	.LANCHOR16
 1349 0834 00000000 		.word	.LANCHOR21
 1350 0838 00000000 		.word	buffer
 1351 083c 00000000 		.word	.LANCHOR22
 1352 0840 00000000 		.word	.LANCHOR23
 1353 0844 00000000 		.word	.LANCHOR11
 1354 0848 00000000 		.word	.LANCHOR12
 1355 084c 00000000 		.word	.LANCHOR13
 1356 0850 00000000 		.word	.LANCHOR14
 1357              	.LVL89:
 1358              	.L64:
 1359              		.loc 1 597 0
 1360 0854 002F     		cmp	r7, #0
 1361 0856 7FF4E9AD 		bne	.L46
 1362              		.loc 1 598 0
 1363 085a 079B     		ldr	r3, [sp, #28]
 1364 085c EBB1     		cbz	r3, .L133
 1365              	.L134:
 1366              		.loc 1 599 0 discriminator 1
 1367 085e BA48     		ldr	r0, .L716
 1368 0860 FFF7FEFF 		bl	e_getchar_uart1
ARM GAS  C:\Users\mathi\AppData\Local\Temp\ccXNOisu.s 			page 25


 1369              	.LVL90:
 1370 0864 0028     		cmp	r0, #0
 1371 0866 FAD0     		beq	.L134
 1372              		.loc 1 600 0
 1373 0868 B84C     		ldr	r4, .L716+4
 1374              	.L135:
 1375              		.loc 1 600 0 is_stmt 0 discriminator 1
 1376 086a 2046     		mov	r0, r4
 1377 086c FFF7FEFF 		bl	e_getchar_uart1
 1378              	.LVL91:
 1379 0870 0028     		cmp	r0, #0
 1380 0872 FAD0     		beq	.L135
 1381              		.loc 1 601 0 is_stmt 1
 1382 0874 B64C     		ldr	r4, .L716+8
 1383              	.L136:
 1384              		.loc 1 601 0 is_stmt 0 discriminator 1
 1385 0876 2046     		mov	r0, r4
 1386 0878 FFF7FEFF 		bl	e_getchar_uart1
 1387              	.LVL92:
 1388 087c 0028     		cmp	r0, #0
 1389 087e FAD0     		beq	.L136
 1390              	.L137:
 1391              		.loc 1 607 0 is_stmt 1
 1392 0880 FFF7FEFF 		bl	e_i2cp_enable
 1393              	.LVL93:
 1394              		.loc 1 608 0
 1395 0884 B24B     		ldr	r3, .L716+8
 1396 0886 1A78     		ldrb	r2, [r3]	@ zero_extendqisi2
 1397 0888 B04B     		ldr	r3, .L716+4
 1398 088a 1978     		ldrb	r1, [r3]	@ zero_extendqisi2
 1399 088c AE4B     		ldr	r3, .L716
 1400 088e 1878     		ldrb	r0, [r3]	@ zero_extendqisi2
 1401 0890 FFF7FEFF 		bl	e_i2cp_write
 1402              	.LVL94:
 1403              	.L678:
 1404              		.loc 1 609 0
 1405 0894 FFF7FEFF 		bl	e_i2cp_disable
 1406              	.LVL95:
 1407 0898 64E6     		b	.L78
 1408              	.L133:
 1409              		.loc 1 603 0 discriminator 1
 1410 089a AB48     		ldr	r0, .L716
 1411 089c FFF7FEFF 		bl	e_getchar_uart2
 1412              	.LVL96:
 1413 08a0 0028     		cmp	r0, #0
 1414 08a2 FAD0     		beq	.L133
 1415              		.loc 1 604 0
 1416 08a4 A94C     		ldr	r4, .L716+4
 1417              	.L138:
 1418              		.loc 1 604 0 is_stmt 0 discriminator 1
 1419 08a6 2046     		mov	r0, r4
 1420 08a8 FFF7FEFF 		bl	e_getchar_uart2
 1421              	.LVL97:
 1422 08ac 0028     		cmp	r0, #0
 1423 08ae FAD0     		beq	.L138
 1424              		.loc 1 605 0 is_stmt 1
 1425 08b0 A74C     		ldr	r4, .L716+8
ARM GAS  C:\Users\mathi\AppData\Local\Temp\ccXNOisu.s 			page 26


 1426              	.L139:
 1427              		.loc 1 605 0 is_stmt 0 discriminator 1
 1428 08b2 2046     		mov	r0, r4
 1429 08b4 FFF7FEFF 		bl	e_getchar_uart2
 1430              	.LVL98:
 1431 08b8 0028     		cmp	r0, #0
 1432 08ba FAD0     		beq	.L139
 1433 08bc E0E7     		b	.L137
 1434              	.L57:
 1435              		.loc 1 458 0 is_stmt 1
 1436 08be 002F     		cmp	r7, #0
 1437 08c0 7FF4B4AD 		bne	.L46
 1438              		.loc 1 459 0
 1439 08c4 DBF80030 		ldr	r3, [fp]
 1440 08c8 0333     		adds	r3, r3, #3
 1441 08ca 0AEB0300 		add	r0, r10, r3
 1442 08ce FFF7FEFF 		bl	e_poxxxx_launch_capture
 1443              	.LVL99:
 1444              		.loc 1 461 0
 1445 08d2 1299     		ldr	r1, [sp, #72]
 1446 08d4 DBF80030 		ldr	r3, [fp]
 1447              		.loc 1 465 0
 1448 08d8 0E9A     		ldr	r2, [sp, #56]
 1449              		.loc 1 461 0
 1450 08da 0968     		ldr	r1, [r1]
 1451              		.loc 1 462 0
 1452 08dc 1098     		ldr	r0, [sp, #64]
 1453              		.loc 1 461 0
 1454 08de 0AF80310 		strb	r1, [r10, r3]
 1455              		.loc 1 465 0
 1456 08e2 1268     		ldr	r2, [r2]
 1457              		.loc 1 462 0
 1458 08e4 0068     		ldr	r0, [r0]
 1459              		.loc 1 463 0
 1460 08e6 D91C     		adds	r1, r3, #3
 1461              		.loc 1 462 0
 1462 08e8 5344     		add	r3, r3, r10
 1463              		.loc 1 465 0
 1464 08ea 0A44     		add	r2, r2, r1
 1465              		.loc 1 462 0
 1466 08ec 5870     		strb	r0, [r3, #1]
 1467              		.loc 1 463 0
 1468 08ee 1198     		ldr	r0, [sp, #68]
 1469              		.loc 1 465 0
 1470 08f0 CBF80020 		str	r2, [fp]
 1471              		.loc 1 464 0
 1472 08f4 8AB2     		uxth	r2, r1
 1473              		.loc 1 463 0
 1474 08f6 0068     		ldr	r0, [r0]
 1475              		.loc 1 464 0
 1476 08f8 0F92     		str	r2, [sp, #60]
 1477              	.LVL100:
 1478              		.loc 1 460 0
 1479 08fa 964A     		ldr	r2, .L716+12
 1480              	.LVL101:
 1481              		.loc 1 463 0
 1482 08fc 9870     		strb	r0, [r3, #2]
ARM GAS  C:\Users\mathi\AppData\Local\Temp\ccXNOisu.s 			page 27


 1483              		.loc 1 460 0
 1484 08fe 0123     		movs	r3, #1
 1485 0900 1370     		strb	r3, [r2]
 1486 0902 2FE6     		b	.L78
 1487              	.LVL102:
 1488              	.L59:
 1489              		.loc 1 492 0
 1490 0904 002F     		cmp	r7, #0
 1491 0906 7FF491AD 		bne	.L46
 1492              		.loc 1 493 0
 1493 090a FFF7FEFF 		bl	e_i2cp_init
 1494              	.LVL103:
 1495              		.loc 1 494 0
 1496 090e FFF7FEFF 		bl	e_i2cp_enable
 1497              	.LVL104:
 1498              		.loc 1 495 0
 1499 0912 3946     		mov	r1, r7
 1500 0914 C020     		movs	r0, #192
 1501 0916 FFF7FEFF 		bl	e_i2cp_read
 1502              	.LVL105:
 1503              		.loc 1 496 0
 1504 091a C8F80070 		str	r7, [r8]
 1505 091e 3B46     		mov	r3, r7
 1506              	.L107:
 1507 0920 DAB2     		uxtb	r2, r3
 1508 0922 DBF80040 		ldr	r4, [fp]
 1509              		.loc 1 497 0
 1510 0926 DB07     		lsls	r3, r3, #31
 1511 0928 02F10101 		add	r1, r2, #1
 1512              		.loc 1 498 0
 1513 092c 02F1FF32 		add	r2, r2, #-1
 1514              		.loc 1 497 0
 1515 0930 4FF0C000 		mov	r0, #192
 1516 0934 C9B2     		uxtb	r1, r1
 1517              		.loc 1 498 0
 1518 0936 44BF     		itt	mi
 1519 0938 C020     		movmi	r0, #192
 1520 093a D1B2     		uxtbmi	r1, r2
 1521 093c 651C     		adds	r5, r4, #1
 1522 093e CBF80050 		str	r5, [fp]
 1523 0942 FFF7FEFF 		bl	e_i2cp_read
 1524              	.LVL106:
 1525              		.loc 1 496 0
 1526 0946 D8F80030 		ldr	r3, [r8]
 1527              		.loc 1 498 0
 1528 094a 0AF80400 		strb	r0, [r10, r4]
 1529              		.loc 1 496 0
 1530 094e 0133     		adds	r3, r3, #1
 1531 0950 052B     		cmp	r3, #5
 1532 0952 C8F80030 		str	r3, [r8]
 1533 0956 E3DD     		ble	.L107
 1534              		.loc 1 501 0
 1535 0958 0D23     		movs	r3, #13
 1536 095a C8F80030 		str	r3, [r8]
 1537              	.L111:
 1538 095e DAB2     		uxtb	r2, r3
 1539 0960 DBF80040 		ldr	r4, [fp]
ARM GAS  C:\Users\mathi\AppData\Local\Temp\ccXNOisu.s 			page 28


 1540              		.loc 1 502 0
 1541 0964 DB07     		lsls	r3, r3, #31
 1542 0966 02F1FF31 		add	r1, r2, #-1
 1543              		.loc 1 503 0
 1544 096a 02F10102 		add	r2, r2, #1
 1545              		.loc 1 502 0
 1546 096e 4FF0C000 		mov	r0, #192
 1547 0972 C9B2     		uxtb	r1, r1
 1548              		.loc 1 503 0
 1549 0974 44BF     		itt	mi
 1550 0976 C020     		movmi	r0, #192
 1551 0978 D1B2     		uxtbmi	r1, r2
 1552 097a 651C     		adds	r5, r4, #1
 1553 097c CBF80050 		str	r5, [fp]
 1554 0980 FFF7FEFF 		bl	e_i2cp_read
 1555              	.LVL107:
 1556              		.loc 1 501 0
 1557 0984 D8F80030 		ldr	r3, [r8]
 1558              		.loc 1 503 0
 1559 0988 0AF80400 		strb	r0, [r10, r4]
 1560              		.loc 1 501 0
 1561 098c 0133     		adds	r3, r3, #1
 1562 098e 102B     		cmp	r3, #16
 1563 0990 C8F80030 		str	r3, [r8]
 1564 0994 E3DD     		ble	.L111
 1565 0996 7DE7     		b	.L678
 1566              	.L53:
 1567              		.loc 1 336 0
 1568 0998 FFF7FEFF 		bl	isSDCardMounted
 1569              	.LVL108:
 1570              		.loc 1 337 0
 1571 099c DBF80030 		ldr	r3, [fp]
 1572              		.loc 1 336 0
 1573 09a0 0028     		cmp	r0, #0
 1574 09a2 01F08A80 		beq	.L80
 1575              		.loc 1 337 0
 1576 09a6 0121     		movs	r1, #1
 1577 09a8 5A18     		adds	r2, r3, r1
 1578 09aa 0AF80310 		strb	r1, [r10, r3]
 1579 09ae CBF80020 		str	r2, [fp]
 1580 09b2 D6E5     		b	.L47
 1581              	.L60:
 1582              		.loc 1 516 0
 1583 09b4 0020     		movs	r0, #0
 1584 09b6 C8F80000 		str	r0, [r8]
 1585              	.L115:
 1586              		.loc 1 517 0 discriminator 3
 1587 09ba FFF7FEFF 		bl	e_get_calibrated_prox
 1588              	.LVL109:
 1589              		.loc 1 518 0 discriminator 3
 1590 09be DBF80020 		ldr	r2, [fp]
 1591              		.loc 1 516 0 discriminator 3
 1592 09c2 D8F80030 		ldr	r3, [r8]
 1593              		.loc 1 518 0 discriminator 3
 1594 09c6 0AF80200 		strb	r0, [r10, r2]
 1595              		.loc 1 519 0 discriminator 3
 1596 09ca 0AEB0204 		add	r4, r10, r2
ARM GAS  C:\Users\mathi\AppData\Local\Temp\ccXNOisu.s 			page 29


 1597 09ce 0112     		asrs	r1, r0, #8
 1598              		.loc 1 516 0 discriminator 3
 1599 09d0 581C     		adds	r0, r3, #1
 1600              		.loc 1 519 0 discriminator 3
 1601 09d2 0232     		adds	r2, r2, #2
 1602              		.loc 1 516 0 discriminator 3
 1603 09d4 0728     		cmp	r0, #7
 1604              		.loc 1 519 0 discriminator 3
 1605 09d6 6170     		strb	r1, [r4, #1]
 1606 09d8 CBF80020 		str	r2, [fp]
 1607              		.loc 1 516 0 discriminator 3
 1608 09dc C8F80000 		str	r0, [r8]
 1609 09e0 EBDD     		ble	.L115
 1610 09e2 BEE5     		b	.L47
 1611              	.L55:
 1612              		.loc 1 408 0
 1613 09e4 002F     		cmp	r7, #0
 1614 09e6 41F05280 		bne	.L85
 1615              		.loc 1 410 0
 1616 09ea 079B     		ldr	r3, [sp, #28]
 1617              		.loc 1 411 0
 1618 09ec 5A4C     		ldr	r4, .L716+16
 1619              		.loc 1 410 0
 1620 09ee 002B     		cmp	r3, #0
 1621 09f0 2FD0     		beq	.L86
 1622              	.L87:
 1623              		.loc 1 411 0 discriminator 1
 1624 09f2 2046     		mov	r0, r4
 1625 09f4 FFF7FEFF 		bl	e_getchar_uart1
 1626              	.LVL110:
 1627 09f8 0028     		cmp	r0, #0
 1628 09fa FAD0     		beq	.L87
 1629              		.loc 1 412 0
 1630 09fc 574C     		ldr	r4, .L716+20
 1631              	.L88:
 1632              		.loc 1 412 0 is_stmt 0 discriminator 1
 1633 09fe 2046     		mov	r0, r4
 1634 0a00 FFF7FEFF 		bl	e_getchar_uart1
 1635              	.LVL111:
 1636 0a04 0028     		cmp	r0, #0
 1637 0a06 FAD0     		beq	.L88
 1638              		.loc 1 417 0 is_stmt 1
 1639 0a08 544B     		ldr	r3, .L716+20
 1640              		.loc 1 421 0
 1641 0a0a 534C     		ldr	r4, .L716+16
 1642              		.loc 1 417 0
 1643 0a0c 1A78     		ldrb	r2, [r3]	@ zero_extendqisi2
 1644 0a0e 524B     		ldr	r3, .L716+16
 1645 0a10 1B78     		ldrb	r3, [r3]	@ zero_extendqisi2
 1646 0a12 03EB0223 		add	r3, r3, r2, lsl #8
 1647 0a16 524A     		ldr	r2, .L716+24
 1648 0a18 1360     		str	r3, [r2]
 1649              	.L92:
 1650              		.loc 1 421 0 discriminator 1
 1651 0a1a 2046     		mov	r0, r4
 1652 0a1c FFF7FEFF 		bl	e_getchar_uart1
 1653              	.LVL112:
ARM GAS  C:\Users\mathi\AppData\Local\Temp\ccXNOisu.s 			page 30


 1654 0a20 0028     		cmp	r0, #0
 1655 0a22 FAD0     		beq	.L92
 1656              		.loc 1 422 0
 1657 0a24 4D4C     		ldr	r4, .L716+20
 1658              	.L93:
 1659              		.loc 1 422 0 is_stmt 0 discriminator 1
 1660 0a26 2046     		mov	r0, r4
 1661 0a28 FFF7FEFF 		bl	e_getchar_uart1
 1662              	.LVL113:
 1663 0a2c 0028     		cmp	r0, #0
 1664 0a2e FAD0     		beq	.L93
 1665              	.L644:
 1666 0a30 4A4B     		ldr	r3, .L716+20
 1667 0a32 4B49     		ldr	r1, .L716+24
 1668 0a34 1A78     		ldrb	r2, [r3]	@ zero_extendqisi2
 1669 0a36 484B     		ldr	r3, .L716+16
 1670 0a38 0868     		ldr	r0, [r1]
 1671 0a3a 1B78     		ldrb	r3, [r3]	@ zero_extendqisi2
 1672 0a3c 03EB0223 		add	r3, r3, r2, lsl #8
 1673              	.L97:
 1674              		.loc 1 427 0 is_stmt 1
 1675 0a40 484A     		ldr	r2, .L716+28
 1676 0a42 1446     		mov	r4, r2
 1677 0a44 1360     		str	r3, [r2]
 1678              		.loc 1 428 0
 1679 0a46 FFF7FEFF 		bl	e_set_speed_left
 1680              	.LVL114:
 1681              		.loc 1 429 0
 1682 0a4a 2068     		ldr	r0, [r4]
 1683 0a4c FFF7FEFF 		bl	e_set_speed_right
 1684              	.LVL115:
 1685              		.loc 1 430 0
 1686 0a50 87E5     		b	.L47
 1687              	.L86:
 1688              		.loc 1 414 0 discriminator 1
 1689 0a52 2046     		mov	r0, r4
 1690 0a54 FFF7FEFF 		bl	e_getchar_uart2
 1691              	.LVL116:
 1692 0a58 0028     		cmp	r0, #0
 1693 0a5a FAD0     		beq	.L86
 1694              		.loc 1 415 0
 1695 0a5c 3F4C     		ldr	r4, .L716+20
 1696              	.L90:
 1697              		.loc 1 415 0 is_stmt 0 discriminator 1
 1698 0a5e 2046     		mov	r0, r4
 1699 0a60 FFF7FEFF 		bl	e_getchar_uart2
 1700              	.LVL117:
 1701 0a64 0028     		cmp	r0, #0
 1702 0a66 FAD0     		beq	.L90
 1703              		.loc 1 417 0 is_stmt 1
 1704 0a68 3C4B     		ldr	r3, .L716+20
 1705              		.loc 1 424 0
 1706 0a6a 3B4C     		ldr	r4, .L716+16
 1707              		.loc 1 417 0
 1708 0a6c 1A78     		ldrb	r2, [r3]	@ zero_extendqisi2
 1709 0a6e 3A4B     		ldr	r3, .L716+16
 1710 0a70 1B78     		ldrb	r3, [r3]	@ zero_extendqisi2
ARM GAS  C:\Users\mathi\AppData\Local\Temp\ccXNOisu.s 			page 31


 1711 0a72 03EB0223 		add	r3, r3, r2, lsl #8
 1712 0a76 3A4A     		ldr	r2, .L716+24
 1713 0a78 1360     		str	r3, [r2]
 1714              	.L95:
 1715              		.loc 1 424 0 discriminator 1
 1716 0a7a 2046     		mov	r0, r4
 1717 0a7c FFF7FEFF 		bl	e_getchar_uart2
 1718              	.LVL118:
 1719 0a80 0028     		cmp	r0, #0
 1720 0a82 FAD0     		beq	.L95
 1721              		.loc 1 425 0
 1722 0a84 354C     		ldr	r4, .L716+20
 1723              	.L96:
 1724              		.loc 1 425 0 is_stmt 0 discriminator 1
 1725 0a86 2046     		mov	r0, r4
 1726 0a88 FFF7FEFF 		bl	e_getchar_uart2
 1727              	.LVL119:
 1728 0a8c 0028     		cmp	r0, #0
 1729 0a8e FAD0     		beq	.L96
 1730 0a90 CEE7     		b	.L644
 1731              	.L54:
 1732              		.loc 1 365 0 is_stmt 1
 1733 0a92 002F     		cmp	r7, #0
 1734 0a94 01F08880 		beq	.L700
 1735              		.loc 1 370 0
 1736 0a98 0023     		movs	r3, #0
 1737              		.loc 1 368 0
 1738 0a9a 334A     		ldr	r2, .L716+32
 1739              		.loc 1 370 0
 1740 0a9c CDE90C33 		strd	r3, r3, [sp, #48]
 1741 0aa0 CDE90A33 		strd	r3, r3, [sp, #40]
 1742 0aa4 CDE90833 		strd	r3, r3, [sp, #32]
 1743              		.loc 1 368 0
 1744 0aa8 82ED008A 		vstr.32	s16, [r2]
 1745              		.loc 1 369 0
 1746 0aac 82ED028A 		vstr.32	s16, [r2, #8]
 1747              		.loc 1 370 0
 1748 0ab0 82ED018A 		vstr.32	s16, [r2, #4]
 1749 0ab4 9C46     		mov	ip, r3
 1750 0ab6 1C46     		mov	r4, r3
 1751 0ab8 9E46     		mov	lr, r3
 1752 0aba 1D46     		mov	r5, r3
 1753 0abc 1A46     		mov	r2, r3
 1754              	.L84:
 1755              	.LVL120:
 1756              		.loc 1 373 0
 1757 0abe 0020     		movs	r0, #0
 1758              		.loc 1 382 0
 1759 0ac0 0146     		mov	r1, r0
 1760              		.loc 1 373 0
 1761 0ac2 62F30700 		bfi	r0, r2, #0, #8
 1762              		.loc 1 391 0
 1763 0ac6 0A46     		mov	r2, r1
 1764              		.loc 1 382 0
 1765 0ac8 6EF30701 		bfi	r1, lr, #0, #8
 1766 0acc 64F30F21 		bfi	r1, r4, #8, #8
 1767              		.loc 1 391 0
ARM GAS  C:\Users\mathi\AppData\Local\Temp\ccXNOisu.s 			page 32


 1768 0ad0 0C9C     		ldr	r4, [sp, #48]
 1769 0ad2 6CF30702 		bfi	r2, ip, #0, #8
 1770              		.loc 1 373 0
 1771 0ad6 65F30F20 		bfi	r0, r5, #8, #8
 1772              		.loc 1 391 0
 1773 0ada 0D9D     		ldr	r5, [sp, #52]
 1774              		.loc 1 373 0
 1775 0adc DBF800C0 		ldr	ip, [fp]
 1776              	.LVL121:
 1777              		.loc 1 391 0
 1778 0ae0 64F30F22 		bfi	r2, r4, #8, #8
 1779              		.loc 1 373 0
 1780 0ae4 089C     		ldr	r4, [sp, #32]
 1781              		.loc 1 391 0
 1782 0ae6 65F31742 		bfi	r2, r5, #16, #8
 1783              		.loc 1 373 0
 1784 0aea 099D     		ldr	r5, [sp, #36]
 1785 0aec 64F31740 		bfi	r0, r4, #16, #8
 1786              		.loc 1 382 0
 1787 0af0 0A9C     		ldr	r4, [sp, #40]
 1788              		.loc 1 373 0
 1789 0af2 65F31F60 		bfi	r0, r5, #24, #8
 1790              		.loc 1 382 0
 1791 0af6 0B9D     		ldr	r5, [sp, #44]
 1792              		.loc 1 373 0
 1793 0af8 4AF80C00 		str	r0, [r10, ip]	@ unaligned
 1794              		.loc 1 382 0
 1795 0afc 64F31741 		bfi	r1, r4, #16, #8
 1796 0b00 0AEB0C04 		add	r4, r10, ip
 1797 0b04 65F31F61 		bfi	r1, r5, #24, #8
 1798              		.loc 1 391 0
 1799 0b08 63F31F62 		bfi	r2, r3, #24, #8
 1800              		.loc 1 397 0
 1801 0b0c 0CF10C05 		add	r5, ip, #12
 1802 0b10 CBF80050 		str	r5, [fp]
 1803              		.loc 1 373 0
 1804 0b14 6160     		str	r1, [r4, #4]	@ unaligned
 1805 0b16 A260     		str	r2, [r4, #8]	@ unaligned
 1806              		.loc 1 398 0
 1807 0b18 23E5     		b	.L47
 1808              	.LVL122:
 1809              	.L56:
 1810              		.loc 1 432 0
 1811 0b1a 114B     		ldr	r3, .L716+24
 1812 0b1c 1968     		ldr	r1, [r3]
 1813              		.loc 1 434 0
 1814 0b1e 114B     		ldr	r3, .L716+28
 1815 0b20 1A68     		ldr	r2, [r3]
 1816              		.loc 1 432 0
 1817 0b22 0023     		movs	r3, #0
 1818 0b24 61F30703 		bfi	r3, r1, #0, #8
 1819              		.loc 1 433 0
 1820 0b28 0912     		asrs	r1, r1, #8
 1821              		.loc 1 432 0
 1822 0b2a 61F30F23 		bfi	r3, r1, #8, #8
 1823 0b2e DBF80010 		ldr	r1, [fp]
 1824 0b32 62F31743 		bfi	r3, r2, #16, #8
ARM GAS  C:\Users\mathi\AppData\Local\Temp\ccXNOisu.s 			page 33


 1825              		.loc 1 435 0
 1826 0b36 1212     		asrs	r2, r2, #8
 1827              		.loc 1 432 0
 1828 0b38 62F31F63 		bfi	r3, r2, #24, #8
 1829              		.loc 1 435 0
 1830 0b3c 0A1D     		adds	r2, r1, #4
 1831              		.loc 1 432 0
 1832 0b3e 4AF80130 		str	r3, [r10, r1]	@ unaligned
 1833              		.loc 1 435 0
 1834 0b42 CBF80020 		str	r2, [fp]
 1835              		.loc 1 436 0
 1836 0b46 0CE5     		b	.L47
 1837              	.L717:
 1838              		.align	2
 1839              	.L716:
 1840 0b48 00000000 		.word	.LANCHOR24
 1841 0b4c 00000000 		.word	.LANCHOR25
 1842 0b50 00000000 		.word	.LANCHOR26
 1843 0b54 00000000 		.word	.LANCHOR21
 1844 0b58 00000000 		.word	.LANCHOR16
 1845 0b5c 00000000 		.word	.LANCHOR17
 1846 0b60 00000000 		.word	.LANCHOR7
 1847 0b64 00000000 		.word	.LANCHOR6
 1848 0b68 00000000 		.word	.LANCHOR15
 1849              	.L58:
 1850              		.loc 1 469 0
 1851 0b6c 002F     		cmp	r7, #0
 1852 0b6e 7FF4ECAC 		bne	.L99
 1853              		.loc 1 471 0
 1854 0b72 079B     		ldr	r3, [sp, #28]
 1855              		.loc 1 472 0
 1856 0b74 CE4C     		ldr	r4, .L718
 1857              		.loc 1 471 0
 1858 0b76 002B     		cmp	r3, #0
 1859 0b78 3FF4DCAC 		beq	.L100
 1860              	.L101:
 1861              		.loc 1 472 0 discriminator 1
 1862 0b7c 2046     		mov	r0, r4
 1863 0b7e FFF7FEFF 		bl	e_getchar_uart1
 1864              	.LVL123:
 1865 0b82 0028     		cmp	r0, #0
 1866 0b84 FAD0     		beq	.L101
 1867              		.loc 1 473 0
 1868 0b86 CB4C     		ldr	r4, .L718+4
 1869              	.L102:
 1870              		.loc 1 473 0 is_stmt 0 discriminator 1
 1871 0b88 2046     		mov	r0, r4
 1872 0b8a FFF7FEFF 		bl	e_getchar_uart1
 1873              	.LVL124:
 1874 0b8e 0028     		cmp	r0, #0
 1875 0b90 FAD0     		beq	.L102
 1876 0b92 DAE4     		b	.L99
 1877              	.L51:
 1878              		.loc 1 307 0 is_stmt 1
 1879 0b94 0020     		movs	r0, #0
 1880 0b96 FFF7FEFF 		bl	e_get_micro_volume
 1881              	.LVL125:
ARM GAS  C:\Users\mathi\AppData\Local\Temp\ccXNOisu.s 			page 34


 1882              		.loc 1 308 0
 1883 0b9a DBF80030 		ldr	r3, [fp]
 1884              		.loc 1 309 0
 1885 0b9e 0AEB0302 		add	r2, r10, r3
 1886              		.loc 1 308 0
 1887 0ba2 0AF80300 		strb	r0, [r10, r3]
 1888              		.loc 1 309 0
 1889 0ba6 0112     		asrs	r1, r0, #8
 1890 0ba8 0233     		adds	r3, r3, #2
 1891              		.loc 1 311 0
 1892 0baa 0120     		movs	r0, #1
 1893              		.loc 1 309 0
 1894 0bac 5170     		strb	r1, [r2, #1]
 1895 0bae CBF80030 		str	r3, [fp]
 1896              		.loc 1 311 0
 1897 0bb2 FFF7FEFF 		bl	e_get_micro_volume
 1898              	.LVL126:
 1899              		.loc 1 312 0
 1900 0bb6 DBF80030 		ldr	r3, [fp]
 1901              		.loc 1 313 0
 1902 0bba 0AEB0302 		add	r2, r10, r3
 1903              		.loc 1 312 0
 1904 0bbe 0AF80300 		strb	r0, [r10, r3]
 1905              		.loc 1 313 0
 1906 0bc2 0112     		asrs	r1, r0, #8
 1907 0bc4 0233     		adds	r3, r3, #2
 1908              		.loc 1 315 0
 1909 0bc6 0220     		movs	r0, #2
 1910              		.loc 1 313 0
 1911 0bc8 5170     		strb	r1, [r2, #1]
 1912 0bca CBF80030 		str	r3, [fp]
 1913              		.loc 1 315 0
 1914 0bce FFF7FEFF 		bl	e_get_micro_volume
 1915              	.LVL127:
 1916              		.loc 1 316 0
 1917 0bd2 DBF80030 		ldr	r3, [fp]
 1918              		.loc 1 317 0
 1919 0bd6 0AEB0302 		add	r2, r10, r3
 1920              		.loc 1 316 0
 1921 0bda 0AF80300 		strb	r0, [r10, r3]
 1922              		.loc 1 317 0
 1923 0bde 0112     		asrs	r1, r0, #8
 1924 0be0 0233     		adds	r3, r3, #2
 1925              		.loc 1 319 0
 1926 0be2 0320     		movs	r0, #3
 1927              		.loc 1 317 0
 1928 0be4 5170     		strb	r1, [r2, #1]
 1929 0be6 CBF80030 		str	r3, [fp]
 1930              		.loc 1 319 0
 1931 0bea FFF7FEFF 		bl	e_get_micro_volume
 1932              	.LVL128:
 1933 0bee F8E4     		b	.L677
 1934              	.L52:
 1935              		.loc 1 325 0
 1936 0bf0 002F     		cmp	r7, #0
 1937 0bf2 00F0AC87 		beq	.L701
 1938              		.loc 1 330 0
ARM GAS  C:\Users\mathi\AppData\Local\Temp\ccXNOisu.s 			page 35


 1939 0bf6 DBF80020 		ldr	r2, [fp]
 1940              		.loc 1 331 0
 1941 0bfa 0AEB0200 		add	r0, r10, r2
 1942              		.loc 1 330 0
 1943 0bfe 0021     		movs	r1, #0
 1944              		.loc 1 331 0
 1945 0c00 941C     		adds	r4, r2, #2
 1946              		.loc 1 330 0
 1947 0c02 0AF80210 		strb	r1, [r10, r2]
 1948              		.loc 1 331 0
 1949 0c06 CBF80040 		str	r4, [fp]
 1950 0c0a 4170     		strb	r1, [r0, #1]
 1951 0c0c 0EE4     		b	.L46
 1952              	.L50:
 1953              		.loc 1 303 0
 1954 0c0e DBF80040 		ldr	r4, [fp]
 1955 0c12 631C     		adds	r3, r4, #1
 1956 0c14 CBF80030 		str	r3, [fp]
 1957 0c18 FFF7FEFF 		bl	button_get_state
 1958              	.LVL129:
 1959 0c1c 0AF80400 		strb	r0, [r10, r4]
 1960              		.loc 1 304 0
 1961 0c20 9FE4     		b	.L47
 1962              	.L70:
 1963              		.loc 1 613 0
 1964 0c22 002F     		cmp	r7, #0
 1965 0c24 7FF402AC 		bne	.L46
 1966              		.loc 1 614 0
 1967 0c28 FFF7FEFF 		bl	e_i2cp_enable
 1968              	.LVL130:
 1969              		.loc 1 615 0
 1970 0c2c C8F80070 		str	r7, [r8]
 1971 0c30 3846     		mov	r0, r7
 1972 0c32 01E0     		b	.L141
 1973              	.L702:
 1974 0c34 D8F80000 		ldr	r0, [r8]
 1975              	.L141:
 1976              		.loc 1 616 0 discriminator 1
 1977 0c38 5044     		add	r0, r0, r10
 1978 0c3a FFF7FEFF 		bl	e_getchar_uart1
 1979              	.LVL131:
 1980 0c3e 0028     		cmp	r0, #0
 1981 0c40 F8D0     		beq	.L702
 1982              		.loc 1 615 0 discriminator 2
 1983 0c42 D8F80000 		ldr	r0, [r8]
 1984 0c46 0130     		adds	r0, r0, #1
 1985 0c48 1728     		cmp	r0, #23
 1986 0c4a C8F80000 		str	r0, [r8]
 1987 0c4e F3DD     		ble	.L141
 1988              		.loc 1 618 0
 1989 0c50 9220     		movs	r0, #146
 1990 0c52 C8F80000 		str	r0, [r8]
 1991 0c56 01E0     		b	.L144
 1992              	.L703:
 1993 0c58 D8F80000 		ldr	r0, [r8]
 1994              	.L144:
 1995              		.loc 1 619 0 discriminator 1
ARM GAS  C:\Users\mathi\AppData\Local\Temp\ccXNOisu.s 			page 36


 1996 0c5c 7A38     		subs	r0, r0, #122
 1997 0c5e 5044     		add	r0, r0, r10
 1998 0c60 FFF7FEFF 		bl	e_getchar_uart1
 1999              	.LVL132:
 2000 0c64 0028     		cmp	r0, #0
 2001 0c66 F7D0     		beq	.L703
 2002              		.loc 1 618 0 discriminator 2
 2003 0c68 D8F80000 		ldr	r0, [r8]
 2004 0c6c 0130     		adds	r0, r0, #1
 2005 0c6e 9428     		cmp	r0, #148
 2006 0c70 C8F80000 		str	r0, [r8]
 2007 0c74 F2DD     		ble	.L144
 2008              		.loc 1 621 0
 2009 0c76 A420     		movs	r0, #164
 2010 0c78 C8F80000 		str	r0, [r8]
 2011 0c7c 01E0     		b	.L147
 2012              	.L704:
 2013 0c7e D8F80000 		ldr	r0, [r8]
 2014              	.L147:
 2015              		.loc 1 622 0 discriminator 1
 2016 0c82 8938     		subs	r0, r0, #137
 2017 0c84 5044     		add	r0, r0, r10
 2018 0c86 FFF7FEFF 		bl	e_getchar_uart1
 2019              	.LVL133:
 2020 0c8a 0028     		cmp	r0, #0
 2021 0c8c F7D0     		beq	.L704
 2022              		.loc 1 621 0 discriminator 2
 2023 0c8e D8F80000 		ldr	r0, [r8]
 2024 0c92 0130     		adds	r0, r0, #1
 2025 0c94 AB28     		cmp	r0, #171
 2026 0c96 C8F80000 		str	r0, [r8]
 2027 0c9a F2DD     		ble	.L147
 2028              		.loc 1 624 0
 2029 0c9c 0021     		movs	r1, #0
 2030 0c9e C8F80010 		str	r1, [r8]
 2031              	.L149:
 2032              		.loc 1 625 0 discriminator 3
 2033 0ca2 1AF80120 		ldrb	r2, [r10, r1]	@ zero_extendqisi2
 2034 0ca6 B020     		movs	r0, #176
 2035 0ca8 C9B2     		uxtb	r1, r1
 2036 0caa FFF7FEFF 		bl	e_i2cp_write
 2037              	.LVL134:
 2038              		.loc 1 624 0 discriminator 3
 2039 0cae D8F80010 		ldr	r1, [r8]
 2040 0cb2 0131     		adds	r1, r1, #1
 2041 0cb4 1729     		cmp	r1, #23
 2042 0cb6 C8F80010 		str	r1, [r8]
 2043 0cba F2DD     		ble	.L149
 2044              		.loc 1 627 0
 2045 0cbc 9221     		movs	r1, #146
 2046 0cbe C8F80010 		str	r1, [r8]
 2047              	.L150:
 2048              		.loc 1 628 0 discriminator 3
 2049 0cc2 0AEB0103 		add	r3, r10, r1
 2050 0cc6 B020     		movs	r0, #176
 2051 0cc8 C9B2     		uxtb	r1, r1
 2052 0cca 13F87A2C 		ldrb	r2, [r3, #-122]	@ zero_extendqisi2
ARM GAS  C:\Users\mathi\AppData\Local\Temp\ccXNOisu.s 			page 37


 2053 0cce FFF7FEFF 		bl	e_i2cp_write
 2054              	.LVL135:
 2055              		.loc 1 627 0 discriminator 3
 2056 0cd2 D8F80010 		ldr	r1, [r8]
 2057 0cd6 0131     		adds	r1, r1, #1
 2058 0cd8 9429     		cmp	r1, #148
 2059 0cda C8F80010 		str	r1, [r8]
 2060 0cde F0DD     		ble	.L150
 2061              		.loc 1 630 0
 2062 0ce0 A421     		movs	r1, #164
 2063 0ce2 C8F80010 		str	r1, [r8]
 2064              	.L151:
 2065              		.loc 1 631 0 discriminator 3
 2066 0ce6 0AEB0103 		add	r3, r10, r1
 2067 0cea B020     		movs	r0, #176
 2068 0cec C9B2     		uxtb	r1, r1
 2069 0cee 13F8892C 		ldrb	r2, [r3, #-137]	@ zero_extendqisi2
 2070 0cf2 FFF7FEFF 		bl	e_i2cp_write
 2071              	.LVL136:
 2072              		.loc 1 630 0 discriminator 3
 2073 0cf6 D8F80010 		ldr	r1, [r8]
 2074 0cfa 0131     		adds	r1, r1, #1
 2075 0cfc AB29     		cmp	r1, #171
 2076 0cfe C8F80010 		str	r1, [r8]
 2077 0d02 F0DD     		ble	.L151
 2078              		.loc 1 633 0
 2079 0d04 0122     		movs	r2, #1
 2080 0d06 9121     		movs	r1, #145
 2081 0d08 B020     		movs	r0, #176
 2082 0d0a FFF7FEFF 		bl	e_i2cp_write
 2083              	.LVL137:
 2084              		.loc 1 634 0
 2085 0d0e FFF7FEFF 		bl	e_i2cp_disable
 2086              	.LVL138:
 2087 0d12 27E4     		b	.L78
 2088              	.L689:
 2089              	.LVL139:
 2090              	.LBB3:
 2091              		.loc 1 690 0
 2092 0d14 FFF7FEFF 		bl	__locale_ctype_ptr
 2093              	.LVL140:
 2094 0d18 2044     		add	r0, r0, r4
 2095 0d1a 4378     		ldrb	r3, [r0, #1]	@ zero_extendqisi2
 2096 0d1c 03F00303 		and	r3, r3, #3
 2097 0d20 022B     		cmp	r3, #2
 2098 0d22 08BF     		it	eq
 2099 0d24 203C     		subeq	r4, r4, #32
 2100              	.LVL141:
 2101              	.LBE3:
 2102 0d26 E4B2     		uxtb	r4, r4
 2103              		.loc 1 692 0
 2104 0d28 A4F14103 		sub	r3, r4, #65
 2105              		.loc 1 690 0
 2106 0d2c 8AF80040 		strb	r4, [r10]
 2107              		.loc 1 692 0
 2108 0d30 332B     		cmp	r3, #51
 2109 0d32 00F22986 		bhi	.L178
ARM GAS  C:\Users\mathi\AppData\Local\Temp\ccXNOisu.s 			page 38


 2110 0d36 01A2     		adr	r2, .L180
 2111 0d38 52F823F0 		ldr	pc, [r2, r3, lsl #2]
 2112              		.p2align 2
 2113              	.L180:
 2114 0d3c 49150000 		.word	.L179+1
 2115 0d40 C1180000 		.word	.L181+1
 2116 0d44 57160000 		.word	.L182+1
 2117 0d48 D3150000 		.word	.L183+1
 2118 0d4c 9B150000 		.word	.L184+1
 2119 0d50 F5180000 		.word	.L185+1
 2120 0d54 11160000 		.word	.L186+1
 2121 0d58 F1160000 		.word	.L187+1
 2122 0d5c FF140000 		.word	.L188+1
 2123 0d60 7D100000 		.word	.L189+1
 2124 0d64 2D100000 		.word	.L190+1
 2125 0d68 DD120000 		.word	.L191+1
 2126 0d6c 4B0F0000 		.word	.L192+1
 2127 0d70 55130000 		.word	.L193+1
 2128 0d74 25120000 		.word	.L194+1
 2129 0d78 17130000 		.word	.L195+1
 2130 0d7c C90E0000 		.word	.L196+1
 2131 0d80 DD000000 		.word	.L6+1
 2132 0d84 C9140000 		.word	.L197+1
 2133 0d88 A9120000 		.word	.L198+1
 2134 0d8c 7D140000 		.word	.L199+1
 2135 0d90 070F0000 		.word	.L200+1
 2136 0d94 D9130000 		.word	.L201+1
 2137 0d98 89190000 		.word	.L178+1
 2138 0d9c 89110000 		.word	.L202+1
 2139 0da0 430E0000 		.word	.L203+1
 2140 0da4 89190000 		.word	.L178+1
 2141 0da8 89190000 		.word	.L178+1
 2142 0dac 89190000 		.word	.L178+1
 2143 0db0 89190000 		.word	.L178+1
 2144 0db4 89190000 		.word	.L178+1
 2145 0db8 89190000 		.word	.L178+1
 2146 0dbc 89190000 		.word	.L178+1
 2147 0dc0 F3210000 		.word	.L204+1
 2148 0dc4 89190000 		.word	.L178+1
 2149 0dc8 89190000 		.word	.L178+1
 2150 0dcc 89190000 		.word	.L178+1
 2151 0dd0 89190000 		.word	.L178+1
 2152 0dd4 BB010000 		.word	.L176+1
 2153 0dd8 89190000 		.word	.L178+1
 2154 0ddc 89190000 		.word	.L178+1
 2155 0de0 89190000 		.word	.L178+1
 2156 0de4 89190000 		.word	.L178+1
 2157 0de8 89190000 		.word	.L178+1
 2158 0dec 89190000 		.word	.L178+1
 2159 0df0 89190000 		.word	.L178+1
 2160 0df4 89190000 		.word	.L178+1
 2161 0df8 89190000 		.word	.L178+1
 2162 0dfc 89190000 		.word	.L178+1
 2163 0e00 89190000 		.word	.L178+1
 2164 0e04 89190000 		.word	.L178+1
 2165 0e08 0D0E0000 		.word	.L205+1
 2166              		.p2align 1
ARM GAS  C:\Users\mathi\AppData\Local\Temp\ccXNOisu.s 			page 39


 2167              	.L205:
 2168              	.LBB4:
 2169              		.loc 1 1146 0
 2170 0e0c 002F     		cmp	r7, #0
 2171 0e0e 40F02E87 		bne	.L362
 2172              		.loc 1 1147 0
 2173 0e12 FFF7FEFF 		bl	getTemperature
 2174              	.LVL142:
 2175 0e16 2849     		ldr	r1, .L718+8
 2176 0e18 0246     		mov	r2, r0
 2177 0e1a 2848     		ldr	r0, .L718+12
 2178 0e1c FFF7FEFF 		bl	sprintf
 2179              	.LVL143:
 2180              		.loc 1 1153 0
 2181 0e20 079B     		ldr	r3, [sp, #28]
 2182 0e22 002B     		cmp	r3, #0
 2183 0e24 01F01781 		beq	.L705
 2184              		.loc 1 1154 0
 2185 0e28 2448     		ldr	r0, .L718+12
 2186 0e2a FFF7FEFF 		bl	strlen
 2187              	.LVL144:
 2188 0e2e 0146     		mov	r1, r0
 2189 0e30 2248     		ldr	r0, .L718+12
 2190 0e32 FFF7FEFF 		bl	e_send_uart1_char
 2191              	.LVL145:
 2192              	.L365:
 2193              		.loc 1 1154 0 is_stmt 0 discriminator 2
 2194 0e36 FFF7FEFF 		bl	e_uart1_sending
 2195              	.LVL146:
 2196 0e3a 0028     		cmp	r0, #0
 2197 0e3c FBD1     		bne	.L365
 2198 0e3e FFF74EB9 		b	.L650
 2199              	.L203:
 2200              		.loc 1 1222 0 is_stmt 1
 2201 0e42 002F     		cmp	r7, #0
 2202 0e44 7FF44AA9 		bne	.L6
 2203              		.loc 1 1223 0
 2204 0e48 0223     		movs	r3, #2
 2205              		.loc 1 1228 0
 2206 0e4a 1D4D     		ldr	r5, .L718+16
 2207 0e4c 1B4C     		ldr	r4, .L718+12
 2208              		.loc 1 1223 0
 2209 0e4e C8F80030 		str	r3, [r8]
 2210 0e52 079E     		ldr	r6, [sp, #28]
 2211 0e54 07E0     		b	.L393
 2212              	.L389:
 2213 0e56 D8F80030 		ldr	r3, [r8]
 2214 0e5a 0233     		adds	r3, r3, #2
 2215 0e5c FE2B     		cmp	r3, #254
 2216 0e5e C8F80030 		str	r3, [r8]
 2217 0e62 3FF73CA9 		bgt	.L650
 2218              	.L393:
 2219              		.loc 1 1224 0
 2220 0e66 FFF7FEFF 		bl	e_i2cp_enable
 2221              	.LVL147:
 2222              		.loc 1 1225 0
 2223 0e6a 0021     		movs	r1, #0
ARM GAS  C:\Users\mathi\AppData\Local\Temp\ccXNOisu.s 			page 40


 2224 0e6c 98F80000 		ldrb	r0, [r8]	@ zero_extendqisi2
 2225 0e70 FFF7FEFF 		bl	e_i2cp_read
 2226              	.LVL148:
 2227 0e74 134B     		ldr	r3, .L718+20
 2228 0e76 1860     		str	r0, [r3]
 2229              		.loc 1 1226 0
 2230 0e78 FFF7FEFF 		bl	e_i2cp_disable
 2231              	.LVL149:
 2232              		.loc 1 1227 0
 2233 0e7c 114B     		ldr	r3, .L718+20
 2234 0e7e 1B68     		ldr	r3, [r3]
 2235 0e80 002B     		cmp	r3, #0
 2236 0e82 E8DB     		blt	.L389
 2237              		.loc 1 1228 0
 2238 0e84 D8F80020 		ldr	r2, [r8]
 2239 0e88 2946     		mov	r1, r5
 2240 0e8a 2046     		mov	r0, r4
 2241 0e8c FFF7FEFF 		bl	sprintf
 2242              	.LVL150:
 2243              		.loc 1 1230 0
 2244 0e90 2046     		mov	r0, r4
 2245              		.loc 1 1229 0
 2246 0e92 002E     		cmp	r6, #0
 2247 0e94 00F01287 		beq	.L390
 2248              		.loc 1 1230 0
 2249 0e98 FFF7FEFF 		bl	strlen
 2250              	.LVL151:
 2251 0e9c 0146     		mov	r1, r0
 2252 0e9e 2046     		mov	r0, r4
 2253 0ea0 FFF7FEFF 		bl	e_send_uart1_char
 2254              	.LVL152:
 2255              	.L391:
 2256              		.loc 1 1230 0 is_stmt 0 discriminator 2
 2257 0ea4 FFF7FEFF 		bl	e_uart1_sending
 2258              	.LVL153:
 2259 0ea8 0028     		cmp	r0, #0
 2260 0eaa FBD1     		bne	.L391
 2261 0eac D3E7     		b	.L389
 2262              	.L719:
 2263 0eae 00BF     		.align	2
 2264              	.L718:
 2265 0eb0 00000000 		.word	.LANCHOR16
 2266 0eb4 00000000 		.word	.LANCHOR17
 2267 0eb8 B40A0000 		.word	.LC85
 2268 0ebc 00000000 		.word	buffer
 2269 0ec0 2C0B0000 		.word	.LC94
 2270 0ec4 00000000 		.word	.LANCHOR26
 2271              	.L196:
 2272              		.loc 1 1084 0 is_stmt 1
 2273 0ec8 FFF7FEFF 		bl	e_get_steps_left
 2274              	.LVL154:
 2275 0ecc 0446     		mov	r4, r0
 2276 0ece FFF7FEFF 		bl	e_get_steps_right
 2277              	.LVL155:
 2278 0ed2 2246     		mov	r2, r4
 2279 0ed4 0346     		mov	r3, r0
 2280 0ed6 9E49     		ldr	r1, .L720
ARM GAS  C:\Users\mathi\AppData\Local\Temp\ccXNOisu.s 			page 41


 2281 0ed8 9E48     		ldr	r0, .L720+4
 2282 0eda FFF7FEFF 		bl	sprintf
 2283              	.LVL156:
 2284              		.loc 1 1085 0
 2285 0ede 002F     		cmp	r7, #0
 2286 0ee0 7FF4FCA8 		bne	.L6
 2287 0ee4 9B48     		ldr	r0, .L720+4
 2288 0ee6 FFF7FEFF 		bl	strlen
 2289              	.LVL157:
 2290              		.loc 1 1087 0
 2291 0eea 079B     		ldr	r3, [sp, #28]
 2292 0eec 0146     		mov	r1, r0
 2293              		.loc 1 1088 0
 2294 0eee 9948     		ldr	r0, .L720+4
 2295              		.loc 1 1087 0
 2296 0ef0 002B     		cmp	r3, #0
 2297 0ef2 01F09B80 		beq	.L344
 2298              		.loc 1 1088 0
 2299 0ef6 FFF7FEFF 		bl	e_send_uart1_char
 2300              	.LVL158:
 2301              	.L345:
 2302              		.loc 1 1088 0 is_stmt 0 discriminator 2
 2303 0efa FFF7FEFF 		bl	e_uart1_sending
 2304              	.LVL159:
 2305 0efe 0028     		cmp	r0, #0
 2306 0f00 FBD1     		bne	.L345
 2307 0f02 FFF7ECB8 		b	.L650
 2308              	.L200:
 2309              		.loc 1 1171 0 is_stmt 1
 2310 0f06 002F     		cmp	r7, #0
 2311 0f08 40F09E86 		bne	.L370
 2312              		.loc 1 1173 0
 2313 0f0c 079B     		ldr	r3, [sp, #28]
 2314              		.loc 1 1174 0
 2315 0f0e 9248     		ldr	r0, .L720+8
 2316 0f10 2521     		movs	r1, #37
 2317              		.loc 1 1173 0
 2318 0f12 002B     		cmp	r3, #0
 2319 0f14 00F0FD86 		beq	.L371
 2320              		.loc 1 1174 0
 2321 0f18 FFF7FEFF 		bl	e_send_uart1_char
 2322              	.LVL160:
 2323              	.L372:
 2324              		.loc 1 1174 0 is_stmt 0 discriminator 2
 2325 0f1c FFF7FEFF 		bl	e_uart1_sending
 2326              	.LVL161:
 2327 0f20 0028     		cmp	r0, #0
 2328 0f22 FBD1     		bne	.L372
 2329              		.loc 1 1178 0 is_stmt 1
 2330 0f24 8D4B     		ldr	r3, .L720+12
 2331 0f26 8E49     		ldr	r1, .L720+16
 2332 0f28 1A68     		ldr	r2, [r3]
 2333 0f2a 8A48     		ldr	r0, .L720+4
 2334 0f2c FFF7FEFF 		bl	sprintf
 2335              	.LVL162:
 2336              		.loc 1 1182 0
 2337 0f30 8848     		ldr	r0, .L720+4
ARM GAS  C:\Users\mathi\AppData\Local\Temp\ccXNOisu.s 			page 42


 2338 0f32 FFF7FEFF 		bl	strlen
 2339              	.LVL163:
 2340 0f36 0146     		mov	r1, r0
 2341 0f38 8648     		ldr	r0, .L720+4
 2342 0f3a FFF7FEFF 		bl	e_send_uart1_char
 2343              	.LVL164:
 2344              	.L376:
 2345              		.loc 1 1182 0 is_stmt 0 discriminator 2
 2346 0f3e FFF7FEFF 		bl	e_uart1_sending
 2347              	.LVL165:
 2348 0f42 0028     		cmp	r0, #0
 2349 0f44 FBD1     		bne	.L376
 2350 0f46 FFF7CAB8 		b	.L650
 2351              	.L192:
 2352              		.loc 1 996 0 is_stmt 1
 2353 0f4a 002F     		cmp	r7, #0
 2354 0f4c 7FF4C6A8 		bne	.L6
 2355              		.loc 1 997 0
 2356 0f50 FFF7FEFF 		bl	e_i2cp_enable
 2357              	.LVL166:
 2358              		.loc 1 998 0
 2359 0f54 3C46     		mov	r4, r7
 2360 0f56 C8F80070 		str	r7, [r8]
 2361              	.L324:
 2362 0f5a E3B2     		uxtb	r3, r4
 2363              		.loc 1 999 0
 2364 0f5c E207     		lsls	r2, r4, #31
 2365 0f5e 03F10101 		add	r1, r3, #1
 2366              		.loc 1 1000 0
 2367 0f62 03F1FF33 		add	r3, r3, #-1
 2368              		.loc 1 999 0
 2369 0f66 4FF0C000 		mov	r0, #192
 2370 0f6a C9B2     		uxtb	r1, r1
 2371              		.loc 1 1000 0
 2372 0f6c 44BF     		itt	mi
 2373 0f6e C020     		movmi	r0, #192
 2374 0f70 D9B2     		uxtbmi	r1, r3
 2375 0f72 FFF7FEFF 		bl	e_i2cp_read
 2376              	.LVL167:
 2377              		.loc 1 998 0
 2378 0f76 D8F80030 		ldr	r3, [r8]
 2379              		.loc 1 1000 0
 2380 0f7a 0AF80400 		strb	r0, [r10, r4]
 2381              		.loc 1 998 0
 2382 0f7e 5C1C     		adds	r4, r3, #1
 2383 0f80 052C     		cmp	r4, #5
 2384 0f82 C8F80040 		str	r4, [r8]
 2385 0f86 E8DD     		ble	.L324
 2386              		.loc 1 1003 0
 2387 0f88 0D23     		movs	r3, #13
 2388 0f8a C8F80030 		str	r3, [r8]
 2389              	.L328:
 2390 0f8e DAB2     		uxtb	r2, r3
 2391 0f90 DC1F     		subs	r4, r3, #7
 2392              		.loc 1 1004 0
 2393 0f92 511E     		subs	r1, r2, #1
 2394 0f94 DB07     		lsls	r3, r3, #31
ARM GAS  C:\Users\mathi\AppData\Local\Temp\ccXNOisu.s 			page 43


 2395              		.loc 1 1005 0
 2396 0f96 02F10102 		add	r2, r2, #1
 2397              		.loc 1 1004 0
 2398 0f9a 4FF0C000 		mov	r0, #192
 2399 0f9e C9B2     		uxtb	r1, r1
 2400              		.loc 1 1005 0
 2401 0fa0 44BF     		itt	mi
 2402 0fa2 C020     		movmi	r0, #192
 2403 0fa4 D1B2     		uxtbmi	r1, r2
 2404 0fa6 FFF7FEFF 		bl	e_i2cp_read
 2405              	.LVL168:
 2406              		.loc 1 1003 0
 2407 0faa D8F80030 		ldr	r3, [r8]
 2408              		.loc 1 1005 0
 2409 0fae 0AF80400 		strb	r0, [r10, r4]
 2410              		.loc 1 1003 0
 2411 0fb2 0133     		adds	r3, r3, #1
 2412 0fb4 102B     		cmp	r3, #16
 2413 0fb6 C8F80030 		str	r3, [r8]
 2414 0fba E8DD     		ble	.L328
 2415              		.loc 1 1008 0
 2416 0fbc FFF7FEFF 		bl	e_i2cp_disable
 2417              	.LVL169:
 2418              		.loc 1 1021 0
 2419 0fc0 9AF80940 		ldrb	r4, [r10, #9]	@ zero_extendqisi2
 2420              		.loc 1 1019 0
 2421 0fc4 9AF80700 		ldrb	r0, [r10, #7]	@ zero_extendqisi2
 2422              		.loc 1 1020 0
 2423 0fc8 9AF80830 		ldrb	r3, [r10, #8]	@ zero_extendqisi2
 2424              		.loc 1 1018 0
 2425 0fcc 9AF80620 		ldrb	r2, [r10, #6]	@ zero_extendqisi2
 2426              		.loc 1 1017 0
 2427 0fd0 9AF80550 		ldrb	r5, [r10, #5]	@ zero_extendqisi2
 2428              		.loc 1 1016 0
 2429 0fd4 9AF80410 		ldrb	r1, [r10, #4]	@ zero_extendqisi2
 2430              		.loc 1 1011 0
 2431 0fd8 03EB0423 		add	r3, r3, r4, lsl #8
 2432 0fdc 02EB0022 		add	r2, r2, r0, lsl #8
 2433              		.loc 1 1015 0
 2434 0fe0 9AF80340 		ldrb	r4, [r10, #3]	@ zero_extendqisi2
 2435              		.loc 1 1013 0
 2436 0fe4 9AF80100 		ldrb	r0, [r10, #1]	@ zero_extendqisi2
 2437              		.loc 1 1011 0
 2438 0fe8 0293     		str	r3, [sp, #8]
 2439 0fea 0192     		str	r2, [sp, #4]
 2440              		.loc 1 1014 0
 2441 0fec 9AF80230 		ldrb	r3, [r10, #2]	@ zero_extendqisi2
 2442              		.loc 1 1012 0
 2443 0ff0 9AF80020 		ldrb	r2, [r10]	@ zero_extendqisi2
 2444              		.loc 1 1011 0
 2445 0ff4 01EB0521 		add	r1, r1, r5, lsl #8
 2446 0ff8 0091     		str	r1, [sp]
 2447 0ffa 03EB0423 		add	r3, r3, r4, lsl #8
 2448 0ffe 02EB0022 		add	r2, r2, r0, lsl #8
 2449 1002 5849     		ldr	r1, .L720+20
 2450 1004 5348     		ldr	r0, .L720+4
 2451 1006 FFF7FEFF 		bl	sprintf
ARM GAS  C:\Users\mathi\AppData\Local\Temp\ccXNOisu.s 			page 44


 2452              	.LVL170:
 2453              		.loc 1 1031 0
 2454 100a 079B     		ldr	r3, [sp, #28]
 2455              		.loc 1 1032 0
 2456 100c 5148     		ldr	r0, .L720+4
 2457              		.loc 1 1031 0
 2458 100e 002B     		cmp	r3, #0
 2459 1010 01F0B280 		beq	.L332
 2460              		.loc 1 1032 0
 2461 1014 FFF7FEFF 		bl	strlen
 2462              	.LVL171:
 2463 1018 0146     		mov	r1, r0
 2464 101a 4E48     		ldr	r0, .L720+4
 2465 101c FFF7FEFF 		bl	e_send_uart1_char
 2466              	.LVL172:
 2467              	.L333:
 2468              		.loc 1 1032 0 is_stmt 0 discriminator 2
 2469 1020 FFF7FEFF 		bl	e_uart1_sending
 2470              	.LVL173:
 2471 1024 0028     		cmp	r0, #0
 2472 1026 FBD1     		bne	.L333
 2473 1028 FFF759B8 		b	.L650
 2474              	.L190:
 2475              		.loc 1 960 0 is_stmt 1
 2476 102c 002F     		cmp	r7, #0
 2477 102e 40F0FA85 		bne	.L313
 2478              		.loc 1 962 0
 2479 1032 079B     		ldr	r3, [sp, #28]
 2480              		.loc 1 963 0
 2481 1034 4C48     		ldr	r0, .L720+24
 2482 1036 3E21     		movs	r1, #62
 2483              		.loc 1 962 0
 2484 1038 002B     		cmp	r3, #0
 2485 103a 00F04B86 		beq	.L314
 2486              		.loc 1 963 0
 2487 103e FFF7FEFF 		bl	e_send_uart1_char
 2488              	.LVL174:
 2489              	.L315:
 2490              		.loc 1 963 0 is_stmt 0 discriminator 2
 2491 1042 FFF7FEFF 		bl	e_uart1_sending
 2492              	.LVL175:
 2493 1046 0028     		cmp	r0, #0
 2494 1048 FBD1     		bne	.L315
 2495              		.loc 1 968 0 is_stmt 1
 2496 104a 0121     		movs	r1, #1
 2497 104c 0820     		movs	r0, #8
 2498 104e FFF7FEFF 		bl	e_set_led
 2499              	.LVL176:
 2500              		.loc 1 970 0
 2501 1052 4FF4C870 		mov	r0, #400
 2502 1056 FFF7FEFF 		bl	chThdSleep
 2503              	.LVL177:
 2504              		.loc 1 971 0
 2505 105a FFF7FEFF 		bl	e_led_clear
 2506              	.LVL178:
 2507              		.loc 1 973 0
 2508 105e 6420     		movs	r0, #100
ARM GAS  C:\Users\mathi\AppData\Local\Temp\ccXNOisu.s 			page 45


 2509 1060 FFF7FEFF 		bl	chThdSleep
 2510              	.LVL179:
 2511              		.loc 1 974 0
 2512 1064 FFF7FEFF 		bl	e_calibrate_ir
 2513              	.LVL180:
 2514              		.loc 1 978 0
 2515 1068 1921     		movs	r1, #25
 2516 106a 4048     		ldr	r0, .L720+28
 2517 106c FFF7FEFF 		bl	e_send_uart1_char
 2518              	.LVL181:
 2519              	.L319:
 2520              		.loc 1 978 0 is_stmt 0 discriminator 2
 2521 1070 FFF7FEFF 		bl	e_uart1_sending
 2522              	.LVL182:
 2523 1074 0028     		cmp	r0, #0
 2524 1076 FBD1     		bne	.L319
 2525 1078 FFF731B8 		b	.L650
 2526              	.LVL183:
 2527              	.L189:
 2528              		.loc 1 929 0 is_stmt 1
 2529 107c 002F     		cmp	r7, #0
 2530 107e 7FF42DA8 		bne	.L6
 2531              		.loc 1 932 0
 2532 1082 139B     		ldr	r3, [sp, #76]
 2533 1084 3A4D     		ldr	r5, .L720+32
 2534 1086 3B4E     		ldr	r6, .L720+36
 2535 1088 0193     		str	r3, [sp, #4]
 2536              		.loc 1 930 0
 2537 108a 4FF0FF34 		mov	r4, #-1
 2538              		.loc 1 932 0
 2539 108e 119B     		ldr	r3, [sp, #68]
 2540 1090 0093     		str	r3, [sp]
 2541 1092 0395     		str	r5, [sp, #12]
 2542 1094 0296     		str	r6, [sp, #8]
 2543 1096 384B     		ldr	r3, .L720+40
 2544 1098 384A     		ldr	r2, .L720+44
 2545 109a 3949     		ldr	r1, .L720+48
 2546 109c 2D48     		ldr	r0, .L720+4
 2547              		.loc 1 930 0
 2548 109e 3460     		str	r4, [r6]
 2549              		.loc 1 931 0
 2550 10a0 2C60     		str	r4, [r5]
 2551              		.loc 1 932 0
 2552 10a2 FFF7FEFF 		bl	sscanf
 2553              	.LVL184:
 2554              		.loc 1 933 0
 2555 10a6 129A     		ldr	r2, [sp, #72]
 2556 10a8 1368     		ldr	r3, [r2]
 2557 10aa 002B     		cmp	r3, #0
 2558 10ac 41F04880 		bne	.L304
 2559              		.loc 1 934 0
 2560 10b0 109A     		ldr	r2, [sp, #64]
 2561 10b2 119B     		ldr	r3, [sp, #68]
 2562 10b4 1268     		ldr	r2, [r2]
 2563 10b6 1B68     		ldr	r3, [r3]
 2564 10b8 03FB02F3 		mul	r3, r3, r2
 2565              	.L305:
ARM GAS  C:\Users\mathi\AppData\Local\Temp\ccXNOisu.s 			page 46


 2566              		.loc 1 937 0
 2567 10bc 41F22802 		movw	r2, #4136
 2568 10c0 0E99     		ldr	r1, [sp, #56]
 2569 10c2 9342     		cmp	r3, r2
 2570 10c4 0B60     		str	r3, [r1]
 2571 10c6 0ADD     		ble	.L306
 2572              		.loc 1 938 0
 2573 10c8 1298     		ldr	r0, [sp, #72]
 2574 10ca 0122     		movs	r2, #1
 2575 10cc 0260     		str	r2, [r0]
 2576              		.loc 1 939 0
 2577 10ce 1098     		ldr	r0, [sp, #64]
 2578 10d0 2823     		movs	r3, #40
 2579 10d2 0360     		str	r3, [r0]
 2580              		.loc 1 940 0
 2581 10d4 1198     		ldr	r0, [sp, #68]
 2582              		.loc 1 941 0
 2583 10d6 4FF44862 		mov	r2, #3200
 2584              		.loc 1 940 0
 2585 10da 0360     		str	r3, [r0]
 2586              		.loc 1 941 0
 2587 10dc 0A60     		str	r2, [r1]
 2588              	.L306:
 2589              		.loc 1 943 0
 2590 10de FFF7FEFF 		bl	e_poxxxx_init_cam
 2591              	.LVL185:
 2592              		.loc 1 944 0
 2593 10e2 244B     		ldr	r3, .L720+36
 2594 10e4 1868     		ldr	r0, [r3]
 2595              		.loc 1 945 0
 2596 10e6 139B     		ldr	r3, [sp, #76]
 2597 10e8 1D68     		ldr	r5, [r3]
 2598 10ea 109B     		ldr	r3, [sp, #64]
 2599 10ec 1A68     		ldr	r2, [r3]
 2600              		.loc 1 944 0
 2601 10ee 461C     		adds	r6, r0, #1
 2602              		.loc 1 945 0
 2603 10f0 02FB05F2 		mul	r2, r2, r5
 2604              		.loc 1 944 0
 2605 10f4 06D1     		bne	.L308
 2606              		.loc 1 945 0
 2607 10f6 C2F52070 		rsb	r0, r2, #640
 2608 10fa 00EBD070 		add	r0, r0, r0, lsr #31
 2609 10fe 1D4B     		ldr	r3, .L720+36
 2610 1100 4010     		asrs	r0, r0, #1
 2611 1102 1860     		str	r0, [r3]
 2612              	.L308:
 2613              		.loc 1 947 0
 2614 1104 1A49     		ldr	r1, .L720+32
 2615 1106 119B     		ldr	r3, [sp, #68]
 2616 1108 0968     		ldr	r1, [r1]
 2617 110a 1B68     		ldr	r3, [r3]
 2618 110c 4C1C     		adds	r4, r1, #1
 2619 110e 03FB05F3 		mul	r3, r3, r5
 2620 1112 06D1     		bne	.L309
 2621              		.loc 1 948 0
 2622 1114 C3F5F071 		rsb	r1, r3, #480
ARM GAS  C:\Users\mathi\AppData\Local\Temp\ccXNOisu.s 			page 47


 2623 1118 01EBD171 		add	r1, r1, r1, lsr #31
 2624 111c 144C     		ldr	r4, .L720+32
 2625 111e 4910     		asrs	r1, r1, #1
 2626 1120 2160     		str	r1, [r4]
 2627              	.L309:
 2628              		.loc 1 950 0
 2629 1122 129C     		ldr	r4, [sp, #72]
 2630 1124 2468     		ldr	r4, [r4]
 2631 1126 0294     		str	r4, [sp, #8]
 2632 1128 CDE90055 		strd	r5, r5, [sp]
 2633 112c FFF7FEFF 		bl	e_poxxxx_config_cam
 2634              	.LVL186:
 2635              		.loc 1 951 0
 2636 1130 FFF7FEFF 		bl	e_poxxxx_write_cam_registers
 2637              	.LVL187:
 2638              		.loc 1 952 0
 2639 1134 079B     		ldr	r3, [sp, #28]
 2640              		.loc 1 953 0
 2641 1136 1348     		ldr	r0, .L720+52
 2642 1138 0321     		movs	r1, #3
 2643              		.loc 1 952 0
 2644 113a 002B     		cmp	r3, #0
 2645 113c 00F0B887 		beq	.L310
 2646              		.loc 1 953 0
 2647 1140 FFF7FEFF 		bl	e_send_uart1_char
 2648              	.LVL188:
 2649              	.L311:
 2650              		.loc 1 953 0 is_stmt 0 discriminator 2
 2651 1144 FFF7FEFF 		bl	e_uart1_sending
 2652              	.LVL189:
 2653 1148 0028     		cmp	r0, #0
 2654 114a FBD1     		bne	.L311
 2655 114c FEF7C7BF 		b	.L650
 2656              	.L721:
 2657              		.align	2
 2658              	.L720:
 2659 1150 980A0000 		.word	.LC81
 2660 1154 00000000 		.word	buffer
 2661 1158 D40A0000 		.word	.LC88
 2662 115c 00000000 		.word	.LANCHOR0
 2663 1160 500B0000 		.word	.LC96
 2664 1164 3C0A0000 		.word	.LC76
 2665 1168 EC090000 		.word	.LC73
 2666 116c 640B0000 		.word	.LC97
 2667 1170 00000000 		.word	.LANCHOR29
 2668 1174 00000000 		.word	.LANCHOR28
 2669 1178 00000000 		.word	.LANCHOR2
 2670 117c 00000000 		.word	.LANCHOR1
 2671 1180 D0090000 		.word	.LC71
 2672 1184 E8090000 		.word	.LC72
 2673              	.L202:
 2674              		.loc 1 1201 0 is_stmt 1
 2675 1188 002F     		cmp	r7, #0
 2676 118a 7EF4A7AF 		bne	.L6
 2677              		.loc 1 1202 0
 2678 118e A54B     		ldr	r3, .L722
 2679 1190 A54A     		ldr	r2, .L722+4
ARM GAS  C:\Users\mathi\AppData\Local\Temp\ccXNOisu.s 			page 48


 2680 1192 A649     		ldr	r1, .L722+8
 2681 1194 A648     		ldr	r0, .L722+12
 2682 1196 FFF7FEFF 		bl	sscanf
 2683              	.LVL190:
 2684              		.loc 1 1203 0
 2685 119a A24B     		ldr	r3, .L722
 2686 119c A24A     		ldr	r2, .L722+4
 2687 119e 1B68     		ldr	r3, [r3]
 2688 11a0 1268     		ldr	r2, [r2]
 2689 11a2 A449     		ldr	r1, .L722+16
 2690 11a4 A248     		ldr	r0, .L722+12
 2691 11a6 FFF7FEFF 		bl	sprintf
 2692              	.LVL191:
 2693              		.loc 1 1204 0
 2694 11aa 079B     		ldr	r3, [sp, #28]
 2695              		.loc 1 1205 0
 2696 11ac A048     		ldr	r0, .L722+12
 2697              		.loc 1 1204 0
 2698 11ae 002B     		cmp	r3, #0
 2699 11b0 00F0F687 		beq	.L381
 2700              		.loc 1 1205 0
 2701 11b4 FFF7FEFF 		bl	strlen
 2702              	.LVL192:
 2703 11b8 0146     		mov	r1, r0
 2704 11ba 9D48     		ldr	r0, .L722+12
 2705 11bc FFF7FEFF 		bl	e_send_uart1_char
 2706              	.LVL193:
 2707              	.L382:
 2708              		.loc 1 1205 0 is_stmt 0 discriminator 2
 2709 11c0 FFF7FEFF 		bl	e_uart1_sending
 2710              	.LVL194:
 2711 11c4 0028     		cmp	r0, #0
 2712 11c6 FBD1     		bne	.L382
 2713              	.L383:
 2714              		.loc 1 1209 0 is_stmt 1
 2715 11c8 FFF7FEFF 		bl	e_i2cp_enable
 2716              	.LVL195:
 2717              		.loc 1 1210 0
 2718 11cc 954B     		ldr	r3, .L722
 2719 11ce 1978     		ldrb	r1, [r3]	@ zero_extendqisi2
 2720 11d0 954B     		ldr	r3, .L722+4
 2721 11d2 1878     		ldrb	r0, [r3]	@ zero_extendqisi2
 2722 11d4 FFF7FEFF 		bl	e_i2cp_read
 2723              	.LVL196:
 2724 11d8 974B     		ldr	r3, .L722+20
 2725 11da 1C46     		mov	r4, r3
 2726 11dc 1860     		str	r0, [r3]
 2727              		.loc 1 1211 0
 2728 11de FFF7FEFF 		bl	e_i2cp_disable
 2729              	.LVL197:
 2730              		.loc 1 1212 0
 2731 11e2 9649     		ldr	r1, .L722+24
 2732 11e4 2268     		ldr	r2, [r4]
 2733 11e6 9248     		ldr	r0, .L722+12
 2734 11e8 FFF7FEFF 		bl	sprintf
 2735              	.LVL198:
 2736              		.loc 1 1213 0
ARM GAS  C:\Users\mathi\AppData\Local\Temp\ccXNOisu.s 			page 49


 2737 11ec 9048     		ldr	r0, .L722+12
 2738 11ee FFF7FEFF 		bl	strlen
 2739              	.LVL199:
 2740 11f2 0146     		mov	r1, r0
 2741 11f4 8E48     		ldr	r0, .L722+12
 2742 11f6 FFF7FEFF 		bl	e_send_uart1_char
 2743              	.LVL200:
 2744              	.L385:
 2745              		.loc 1 1213 0 is_stmt 0 discriminator 2
 2746 11fa FFF7FEFF 		bl	e_uart1_sending
 2747              	.LVL201:
 2748 11fe 0028     		cmp	r0, #0
 2749 1200 FBD1     		bne	.L385
 2750 1202 8B48     		ldr	r0, .L722+12
 2751 1204 FFF7FEFF 		bl	strlen
 2752              	.LVL202:
 2753              		.loc 1 1214 0 is_stmt 1
 2754 1208 079B     		ldr	r3, [sp, #28]
 2755 120a 0146     		mov	r1, r0
 2756              		.loc 1 1215 0
 2757 120c 8848     		ldr	r0, .L722+12
 2758              		.loc 1 1214 0
 2759 120e 002B     		cmp	r3, #0
 2760 1210 00F0BE87 		beq	.L386
 2761              		.loc 1 1215 0
 2762 1214 FFF7FEFF 		bl	e_send_uart1_char
 2763              	.LVL203:
 2764              	.L387:
 2765              		.loc 1 1215 0 is_stmt 0 discriminator 2
 2766 1218 FFF7FEFF 		bl	e_uart1_sending
 2767              	.LVL204:
 2768 121c 0028     		cmp	r0, #0
 2769 121e FBD1     		bne	.L387
 2770 1220 FEF75DBF 		b	.L650
 2771              	.L194:
 2772              		.loc 1 1060 0 is_stmt 1
 2773 1224 0020     		movs	r0, #0
 2774 1226 FFF7FEFF 		bl	e_get_ambient_light
 2775              	.LVL205:
 2776 122a 0B90     		str	r0, [sp, #44]
 2777 122c 0120     		movs	r0, #1
 2778 122e FFF7FEFF 		bl	e_get_ambient_light
 2779              	.LVL206:
 2780 1232 0446     		mov	r4, r0
 2781 1234 0220     		movs	r0, #2
 2782 1236 FFF7FEFF 		bl	e_get_ambient_light
 2783              	.LVL207:
 2784 123a 0890     		str	r0, [sp, #32]
 2785 123c 0320     		movs	r0, #3
 2786 123e FFF7FEFF 		bl	e_get_ambient_light
 2787              	.LVL208:
 2788 1242 0546     		mov	r5, r0
 2789 1244 0420     		movs	r0, #4
 2790 1246 FFF7FEFF 		bl	e_get_ambient_light
 2791              	.LVL209:
 2792 124a 0646     		mov	r6, r0
 2793 124c 0520     		movs	r0, #5
ARM GAS  C:\Users\mathi\AppData\Local\Temp\ccXNOisu.s 			page 50


 2794 124e FFF7FEFF 		bl	e_get_ambient_light
 2795              	.LVL210:
 2796 1252 0A90     		str	r0, [sp, #40]
 2797 1254 0620     		movs	r0, #6
 2798 1256 FFF7FEFF 		bl	e_get_ambient_light
 2799              	.LVL211:
 2800 125a 0990     		str	r0, [sp, #36]
 2801 125c 0720     		movs	r0, #7
 2802 125e FFF7FEFF 		bl	e_get_ambient_light
 2803              	.LVL212:
 2804 1262 089B     		ldr	r3, [sp, #32]
 2805 1264 0A99     		ldr	r1, [sp, #40]
 2806 1266 0093     		str	r3, [sp]
 2807 1268 099B     		ldr	r3, [sp, #36]
 2808 126a 0590     		str	r0, [sp, #20]
 2809 126c 0493     		str	r3, [sp, #16]
 2810 126e CDE90261 		strd	r6, r1, [sp, #8]
 2811 1272 0195     		str	r5, [sp, #4]
 2812 1274 2346     		mov	r3, r4
 2813 1276 0B9A     		ldr	r2, [sp, #44]
 2814 1278 7149     		ldr	r1, .L722+28
 2815 127a 6D48     		ldr	r0, .L722+12
 2816 127c FFF7FEFF 		bl	sprintf
 2817              	.LVL213:
 2818              		.loc 1 1063 0
 2819 1280 002F     		cmp	r7, #0
 2820 1282 7EF42BAF 		bne	.L6
 2821 1286 6A48     		ldr	r0, .L722+12
 2822 1288 FFF7FEFF 		bl	strlen
 2823              	.LVL214:
 2824              		.loc 1 1065 0
 2825 128c 079B     		ldr	r3, [sp, #28]
 2826 128e 0146     		mov	r1, r0
 2827              		.loc 1 1066 0
 2828 1290 6748     		ldr	r0, .L722+12
 2829              		.loc 1 1065 0
 2830 1292 002B     		cmp	r3, #0
 2831 1294 00F0BA86 		beq	.L338
 2832              		.loc 1 1066 0
 2833 1298 FFF7FEFF 		bl	e_send_uart1_char
 2834              	.LVL215:
 2835              	.L339:
 2836              		.loc 1 1066 0 is_stmt 0 discriminator 2
 2837 129c FFF7FEFF 		bl	e_uart1_sending
 2838              	.LVL216:
 2839 12a0 0028     		cmp	r0, #0
 2840 12a2 FBD1     		bne	.L339
 2841 12a4 FEF71BBF 		b	.L650
 2842              	.L198:
 2843              		.loc 1 1114 0 is_stmt 1
 2844 12a8 664A     		ldr	r2, .L722+32
 2845 12aa 6749     		ldr	r1, .L722+36
 2846 12ac 6048     		ldr	r0, .L722+12
 2847 12ae FFF7FEFF 		bl	sscanf
 2848              	.LVL217:
 2849              		.loc 1 1115 0
 2850 12b2 664B     		ldr	r3, .L722+40
ARM GAS  C:\Users\mathi\AppData\Local\Temp\ccXNOisu.s 			page 51


 2851 12b4 1B78     		ldrb	r3, [r3]	@ zero_extendqisi2
 2852 12b6 23B9     		cbnz	r3, .L350
 2853              		.loc 1 1116 0
 2854 12b8 FFF7FEFF 		bl	e_init_sound
 2855              	.LVL218:
 2856              		.loc 1 1117 0
 2857 12bc 634A     		ldr	r2, .L722+40
 2858 12be 0123     		movs	r3, #1
 2859 12c0 1370     		strb	r3, [r2]
 2860              	.L350:
 2861              		.loc 1 1119 0
 2862 12c2 604B     		ldr	r3, .L722+32
 2863 12c4 1B68     		ldr	r3, [r3]
 2864 12c6 013B     		subs	r3, r3, #1
 2865 12c8 042B     		cmp	r3, #4
 2866 12ca 00F2E186 		bhi	.L351
 2867 12ce DFE813F0 		tbh	[pc, r3, lsl #1]
 2868              	.L353:
 2869 12d2 5503     		.2byte	(.L352-.L353)/2
 2870 12d4 4F03     		.2byte	(.L354-.L353)/2
 2871 12d6 4903     		.2byte	(.L355-.L353)/2
 2872 12d8 4203     		.2byte	(.L356-.L353)/2
 2873 12da 2B03     		.2byte	(.L357-.L353)/2
 2874              		.p2align 1
 2875              	.L191:
 2876              		.loc 1 984 0
 2877 12dc 5C4B     		ldr	r3, .L722+44
 2878 12de 5D49     		ldr	r1, .L722+48
 2879 12e0 5D4A     		ldr	r2, .L722+52
 2880 12e2 5348     		ldr	r0, .L722+12
 2881 12e4 FFF7FEFF 		bl	sscanf
 2882              	.LVL219:
 2883              		.loc 1 985 0
 2884 12e8 594B     		ldr	r3, .L722+44
 2885 12ea 1968     		ldr	r1, [r3]
 2886 12ec 5A4B     		ldr	r3, .L722+52
 2887 12ee 1868     		ldr	r0, [r3]
 2888 12f0 FFF7FEFF 		bl	e_set_led
 2889              	.LVL220:
 2890              		.loc 1 986 0
 2891 12f4 002F     		cmp	r7, #0
 2892 12f6 7EF4F1AE 		bne	.L6
 2893              		.loc 1 988 0
 2894 12fa 079B     		ldr	r3, [sp, #28]
 2895              		.loc 1 989 0
 2896 12fc 5748     		ldr	r0, .L722+56
 2897 12fe 0321     		movs	r1, #3
 2898              		.loc 1 988 0
 2899 1300 002B     		cmp	r3, #0
 2900 1302 00F06386 		beq	.L321
 2901              		.loc 1 989 0
 2902 1306 FFF7FEFF 		bl	e_send_uart1_char
 2903              	.LVL221:
 2904              	.L322:
 2905              		.loc 1 989 0 is_stmt 0 discriminator 2
 2906 130a FFF7FEFF 		bl	e_uart1_sending
 2907              	.LVL222:
ARM GAS  C:\Users\mathi\AppData\Local\Temp\ccXNOisu.s 			page 52


 2908 130e 0028     		cmp	r0, #0
 2909 1310 FBD1     		bne	.L322
 2910 1312 FEF7E4BE 		b	.L650
 2911              	.L195:
 2912              		.loc 1 1072 0 is_stmt 1
 2913 1316 524B     		ldr	r3, .L722+60
 2914 1318 524A     		ldr	r2, .L722+64
 2915 131a 5349     		ldr	r1, .L722+68
 2916 131c 4448     		ldr	r0, .L722+12
 2917 131e FFF7FEFF 		bl	sscanf
 2918              	.LVL223:
 2919              		.loc 1 1073 0
 2920 1322 504B     		ldr	r3, .L722+64
 2921 1324 1868     		ldr	r0, [r3]
 2922 1326 FFF7FEFF 		bl	e_set_steps_left
 2923              	.LVL224:
 2924              		.loc 1 1074 0
 2925 132a 4D4B     		ldr	r3, .L722+60
 2926 132c 1868     		ldr	r0, [r3]
 2927 132e FFF7FEFF 		bl	e_set_steps_right
 2928              	.LVL225:
 2929              		.loc 1 1075 0
 2930 1332 002F     		cmp	r7, #0
 2931 1334 7EF4D2AE 		bne	.L6
 2932              		.loc 1 1077 0
 2933 1338 079B     		ldr	r3, [sp, #28]
 2934              		.loc 1 1078 0
 2935 133a 4C48     		ldr	r0, .L722+72
 2936 133c 0321     		movs	r1, #3
 2937              		.loc 1 1077 0
 2938 133e 002B     		cmp	r3, #0
 2939 1340 00F05486 		beq	.L341
 2940              		.loc 1 1078 0
 2941 1344 FFF7FEFF 		bl	e_send_uart1_char
 2942              	.LVL226:
 2943              	.L342:
 2944              		.loc 1 1078 0 is_stmt 0 discriminator 2
 2945 1348 FFF7FEFF 		bl	e_uart1_sending
 2946              	.LVL227:
 2947 134c 0028     		cmp	r0, #0
 2948 134e FBD1     		bne	.L342
 2949 1350 FEF7C5BE 		b	.L650
 2950              	.L193:
 2951              		.loc 1 1048 0 is_stmt 1
 2952 1354 0020     		movs	r0, #0
 2953 1356 FFF7FEFF 		bl	e_get_calibrated_prox
 2954              	.LVL228:
 2955 135a 0B90     		str	r0, [sp, #44]
 2956 135c 0120     		movs	r0, #1
 2957 135e FFF7FEFF 		bl	e_get_calibrated_prox
 2958              	.LVL229:
 2959 1362 0446     		mov	r4, r0
 2960 1364 0220     		movs	r0, #2
 2961 1366 FFF7FEFF 		bl	e_get_calibrated_prox
 2962              	.LVL230:
 2963 136a 0890     		str	r0, [sp, #32]
 2964 136c 0320     		movs	r0, #3
ARM GAS  C:\Users\mathi\AppData\Local\Temp\ccXNOisu.s 			page 53


 2965 136e FFF7FEFF 		bl	e_get_calibrated_prox
 2966              	.LVL231:
 2967 1372 0546     		mov	r5, r0
 2968 1374 0420     		movs	r0, #4
 2969 1376 FFF7FEFF 		bl	e_get_calibrated_prox
 2970              	.LVL232:
 2971 137a 0646     		mov	r6, r0
 2972 137c 0520     		movs	r0, #5
 2973 137e FFF7FEFF 		bl	e_get_calibrated_prox
 2974              	.LVL233:
 2975 1382 0A90     		str	r0, [sp, #40]
 2976 1384 0620     		movs	r0, #6
 2977 1386 FFF7FEFF 		bl	e_get_calibrated_prox
 2978              	.LVL234:
 2979 138a 0990     		str	r0, [sp, #36]
 2980 138c 0720     		movs	r0, #7
 2981 138e FFF7FEFF 		bl	e_get_calibrated_prox
 2982              	.LVL235:
 2983 1392 089B     		ldr	r3, [sp, #32]
 2984 1394 0A99     		ldr	r1, [sp, #40]
 2985 1396 0093     		str	r3, [sp]
 2986 1398 099B     		ldr	r3, [sp, #36]
 2987 139a 0590     		str	r0, [sp, #20]
 2988 139c 0493     		str	r3, [sp, #16]
 2989 139e CDE90261 		strd	r6, r1, [sp, #8]
 2990 13a2 0195     		str	r5, [sp, #4]
 2991 13a4 2346     		mov	r3, r4
 2992 13a6 0B9A     		ldr	r2, [sp, #44]
 2993 13a8 3149     		ldr	r1, .L722+76
 2994 13aa 2148     		ldr	r0, .L722+12
 2995 13ac FFF7FEFF 		bl	sprintf
 2996              	.LVL236:
 2997              		.loc 1 1051 0
 2998 13b0 002F     		cmp	r7, #0
 2999 13b2 7EF493AE 		bne	.L6
 3000 13b6 1E48     		ldr	r0, .L722+12
 3001 13b8 FFF7FEFF 		bl	strlen
 3002              	.LVL237:
 3003              		.loc 1 1053 0
 3004 13bc 079B     		ldr	r3, [sp, #28]
 3005 13be 0146     		mov	r1, r0
 3006              		.loc 1 1054 0
 3007 13c0 1B48     		ldr	r0, .L722+12
 3008              		.loc 1 1053 0
 3009 13c2 002B     		cmp	r3, #0
 3010 13c4 00F05486 		beq	.L335
 3011              		.loc 1 1054 0
 3012 13c8 FFF7FEFF 		bl	e_send_uart1_char
 3013              	.LVL238:
 3014              	.L336:
 3015              		.loc 1 1054 0 is_stmt 0 discriminator 2
 3016 13cc FFF7FEFF 		bl	e_uart1_sending
 3017              	.LVL239:
 3018 13d0 0028     		cmp	r0, #0
 3019 13d2 FBD1     		bne	.L336
 3020 13d4 FEF783BE 		b	.L650
 3021              	.L201:
ARM GAS  C:\Users\mathi\AppData\Local\Temp\ccXNOisu.s 			page 54


 3022              		.loc 1 1188 0 is_stmt 1
 3023 13d8 002F     		cmp	r7, #0
 3024 13da 7EF47FAE 		bne	.L6
 3025              		.loc 1 1189 0
 3026 13de 164B     		ldr	r3, .L722+20
 3027 13e0 114A     		ldr	r2, .L722+4
 3028 13e2 2449     		ldr	r1, .L722+80
 3029 13e4 0093     		str	r3, [sp]
 3030 13e6 1C46     		mov	r4, r3
 3031 13e8 1148     		ldr	r0, .L722+12
 3032 13ea 0E4B     		ldr	r3, .L722
 3033 13ec FFF7FEFF 		bl	sscanf
 3034              	.LVL240:
 3035              		.loc 1 1190 0
 3036 13f0 FFF7FEFF 		bl	e_i2cp_enable
 3037              	.LVL241:
 3038              		.loc 1 1191 0
 3039 13f4 0B4B     		ldr	r3, .L722
 3040 13f6 2278     		ldrb	r2, [r4]	@ zero_extendqisi2
 3041 13f8 1978     		ldrb	r1, [r3]	@ zero_extendqisi2
 3042 13fa 0B4B     		ldr	r3, .L722+4
 3043 13fc 1878     		ldrb	r0, [r3]	@ zero_extendqisi2
 3044 13fe FFF7FEFF 		bl	e_i2cp_write
 3045              	.LVL242:
 3046              		.loc 1 1192 0
 3047 1402 FFF7FEFF 		bl	e_i2cp_disable
 3048              	.LVL243:
 3049              		.loc 1 1193 0
 3050 1406 079B     		ldr	r3, [sp, #28]
 3051              		.loc 1 1194 0
 3052 1408 1B48     		ldr	r0, .L722+84
 3053 140a 0321     		movs	r1, #3
 3054              		.loc 1 1193 0
 3055 140c 002B     		cmp	r3, #0
 3056 140e 00F04786 		beq	.L378
 3057              		.loc 1 1194 0
 3058 1412 FFF7FEFF 		bl	e_send_uart1_char
 3059              	.LVL244:
 3060              	.L379:
 3061              		.loc 1 1194 0 is_stmt 0 discriminator 2
 3062 1416 FFF7FEFF 		bl	e_uart1_sending
 3063              	.LVL245:
 3064 141a 0028     		cmp	r0, #0
 3065 141c FBD1     		bne	.L379
 3066 141e FEF75EBE 		b	.L650
 3067              	.L723:
 3068 1422 00BF     		.align	2
 3069              	.L722:
 3070 1424 00000000 		.word	.LANCHOR25
 3071 1428 00000000 		.word	.LANCHOR24
 3072 142c 0C0B0000 		.word	.LC91
 3073 1430 00000000 		.word	buffer
 3074 1434 180B0000 		.word	.LC92
 3075 1438 00000000 		.word	.LANCHOR26
 3076 143c 240B0000 		.word	.LC93
 3077 1440 6C0A0000 		.word	.LC78
 3078 1444 00000000 		.word	.LANCHOR31
ARM GAS  C:\Users\mathi\AppData\Local\Temp\ccXNOisu.s 			page 55


 3079 1448 A80A0000 		.word	.LC83
 3080 144c 00000000 		.word	.LANCHOR8
 3081 1450 00000000 		.word	.LANCHOR27
 3082 1454 2C0A0000 		.word	.LC74
 3083 1458 00000000 		.word	.LANCHOR30
 3084 145c 380A0000 		.word	.LC75
 3085 1460 00000000 		.word	.LANCHOR23
 3086 1464 00000000 		.word	.LANCHOR22
 3087 1468 880A0000 		.word	.LC79
 3088 146c 940A0000 		.word	.LC80
 3089 1470 500A0000 		.word	.LC77
 3090 1474 FC0A0000 		.word	.LC89
 3091 1478 080B0000 		.word	.LC90
 3092              	.L199:
 3093              		.loc 1 1161 0 is_stmt 1
 3094 147c 0020     		movs	r0, #0
 3095 147e FFF7FEFF 		bl	e_get_micro_volume
 3096              	.LVL246:
 3097 1482 0446     		mov	r4, r0
 3098 1484 0120     		movs	r0, #1
 3099 1486 FFF7FEFF 		bl	e_get_micro_volume
 3100              	.LVL247:
 3101 148a 0546     		mov	r5, r0
 3102 148c 0220     		movs	r0, #2
 3103 148e FFF7FEFF 		bl	e_get_micro_volume
 3104              	.LVL248:
 3105 1492 2B46     		mov	r3, r5
 3106 1494 0090     		str	r0, [sp]
 3107 1496 2246     		mov	r2, r4
 3108 1498 8649     		ldr	r1, .L724
 3109 149a 8748     		ldr	r0, .L724+4
 3110 149c FFF7FEFF 		bl	sprintf
 3111              	.LVL249:
 3112              		.loc 1 1162 0
 3113 14a0 002F     		cmp	r7, #0
 3114 14a2 7EF41BAE 		bne	.L6
 3115 14a6 8448     		ldr	r0, .L724+4
 3116 14a8 FFF7FEFF 		bl	strlen
 3117              	.LVL250:
 3118              		.loc 1 1164 0
 3119 14ac 079B     		ldr	r3, [sp, #28]
 3120 14ae 0146     		mov	r1, r0
 3121              		.loc 1 1165 0
 3122 14b0 8148     		ldr	r0, .L724+4
 3123              		.loc 1 1164 0
 3124 14b2 002B     		cmp	r3, #0
 3125 14b4 00F0B285 		beq	.L367
 3126              		.loc 1 1165 0
 3127 14b8 FFF7FEFF 		bl	e_send_uart1_char
 3128              	.LVL251:
 3129              	.L368:
 3130              		.loc 1 1165 0 is_stmt 0 discriminator 2
 3131 14bc FFF7FEFF 		bl	e_uart1_sending
 3132              	.LVL252:
 3133 14c0 0028     		cmp	r0, #0
 3134 14c2 FBD1     		bne	.L368
 3135 14c4 FEF70BBE 		b	.L650
ARM GAS  C:\Users\mathi\AppData\Local\Temp\ccXNOisu.s 			page 56


 3136              	.L197:
 3137              		.loc 1 1102 0 is_stmt 1
 3138 14c8 0020     		movs	r0, #0
 3139 14ca FFF7FEFF 		bl	e_set_speed_left
 3140              	.LVL253:
 3141              		.loc 1 1103 0
 3142 14ce 0020     		movs	r0, #0
 3143 14d0 FFF7FEFF 		bl	e_set_speed_right
 3144              	.LVL254:
 3145              		.loc 1 1104 0
 3146 14d4 0021     		movs	r1, #0
 3147 14d6 0820     		movs	r0, #8
 3148 14d8 FFF7FEFF 		bl	e_set_led
 3149              	.LVL255:
 3150              		.loc 1 1105 0
 3151 14dc 002F     		cmp	r7, #0
 3152 14de 7EF4FDAD 		bne	.L6
 3153              		.loc 1 1107 0
 3154 14e2 079B     		ldr	r3, [sp, #28]
 3155              		.loc 1 1108 0
 3156 14e4 7548     		ldr	r0, .L724+8
 3157 14e6 0321     		movs	r1, #3
 3158              		.loc 1 1107 0
 3159 14e8 002B     		cmp	r3, #0
 3160 14ea 00F04F85 		beq	.L347
 3161              		.loc 1 1108 0
 3162 14ee FFF7FEFF 		bl	e_send_uart1_char
 3163              	.LVL256:
 3164              	.L348:
 3165              		.loc 1 1108 0 is_stmt 0 discriminator 2
 3166 14f2 FFF7FEFF 		bl	e_uart1_sending
 3167              	.LVL257:
 3168 14f6 0028     		cmp	r0, #0
 3169 14f8 FBD1     		bne	.L348
 3170 14fa FEF7F0BD 		b	.L650
 3171              	.L188:
 3172              		.loc 1 919 0 is_stmt 1
 3173 14fe 002F     		cmp	r7, #0
 3174 1500 7EF4ECAD 		bne	.L6
 3175              		.loc 1 920 0
 3176 1504 0E99     		ldr	r1, [sp, #56]
 3177 1506 109B     		ldr	r3, [sp, #64]
 3178 1508 0C68     		ldr	r4, [r1]
 3179 150a 1399     		ldr	r1, [sp, #76]
 3180 150c 129A     		ldr	r2, [sp, #72]
 3181 150e 0868     		ldr	r0, [r1]
 3182 1510 1199     		ldr	r1, [sp, #68]
 3183 1512 1B68     		ldr	r3, [r3]
 3184 1514 0968     		ldr	r1, [r1]
 3185 1516 1268     		ldr	r2, [r2]
 3186 1518 0091     		str	r1, [sp]
 3187 151a CDE90104 		strd	r0, r4, [sp, #4]
 3188 151e 6849     		ldr	r1, .L724+12
 3189 1520 6548     		ldr	r0, .L724+4
 3190 1522 FFF7FEFF 		bl	sprintf
 3191              	.LVL258:
 3192              		.loc 1 921 0
ARM GAS  C:\Users\mathi\AppData\Local\Temp\ccXNOisu.s 			page 57


 3193 1526 079B     		ldr	r3, [sp, #28]
 3194              		.loc 1 922 0
 3195 1528 6348     		ldr	r0, .L724+4
 3196              		.loc 1 921 0
 3197 152a 002B     		cmp	r3, #0
 3198 152c 00F0C885 		beq	.L301
 3199              		.loc 1 922 0
 3200 1530 FFF7FEFF 		bl	strlen
 3201              	.LVL259:
 3202 1534 0146     		mov	r1, r0
 3203 1536 6048     		ldr	r0, .L724+4
 3204 1538 FFF7FEFF 		bl	e_send_uart1_char
 3205              	.LVL260:
 3206              	.L302:
 3207              		.loc 1 922 0 is_stmt 0 discriminator 2
 3208 153c FFF7FEFF 		bl	e_uart1_sending
 3209              	.LVL261:
 3210 1540 0028     		cmp	r0, #0
 3211 1542 FBD1     		bne	.L302
 3212 1544 FEF7CBBD 		b	.L650
 3213              	.L179:
 3214              		.loc 1 694 0 is_stmt 1
 3215 1548 002F     		cmp	r7, #0
 3216 154a 40F08583 		bne	.L206
 3217              		.loc 1 695 0
 3218 154e 0121     		movs	r1, #1
 3219 1550 3846     		mov	r0, r7
 3220 1552 FFF7FEFF 		bl	e_get_acc_filtered
 3221              	.LVL262:
 3222 1556 0121     		movs	r1, #1
 3223 1558 0446     		mov	r4, r0
 3224 155a 0846     		mov	r0, r1
 3225 155c FFF7FEFF 		bl	e_get_acc_filtered
 3226              	.LVL263:
 3227 1560 0121     		movs	r1, #1
 3228 1562 0546     		mov	r5, r0
 3229 1564 0220     		movs	r0, #2
 3230 1566 FFF7FEFF 		bl	e_get_acc_filtered
 3231              	.LVL264:
 3232 156a 2B46     		mov	r3, r5
 3233 156c 0090     		str	r0, [sp]
 3234 156e 2246     		mov	r2, r4
 3235 1570 5449     		ldr	r1, .L724+16
 3236 1572 5148     		ldr	r0, .L724+4
 3237 1574 FFF7FEFF 		bl	sprintf
 3238              	.LVL265:
 3239              		.loc 1 701 0
 3240 1578 079B     		ldr	r3, [sp, #28]
 3241 157a 002B     		cmp	r3, #0
 3242 157c 00F05E85 		beq	.L706
 3243              		.loc 1 702 0
 3244 1580 4D48     		ldr	r0, .L724+4
 3245 1582 FFF7FEFF 		bl	strlen
 3246              	.LVL266:
 3247 1586 0146     		mov	r1, r0
 3248 1588 4B48     		ldr	r0, .L724+4
 3249 158a FFF7FEFF 		bl	e_send_uart1_char
ARM GAS  C:\Users\mathi\AppData\Local\Temp\ccXNOisu.s 			page 58


 3250              	.LVL267:
 3251              	.L209:
 3252              		.loc 1 702 0 is_stmt 0 discriminator 2
 3253 158e FFF7FEFF 		bl	e_uart1_sending
 3254              	.LVL268:
 3255 1592 0028     		cmp	r0, #0
 3256 1594 FBD1     		bne	.L209
 3257 1596 FEF7A2BD 		b	.L650
 3258              	.L184:
 3259              		.loc 1 752 0 is_stmt 1
 3260 159a 4B4B     		ldr	r3, .L724+20
 3261 159c 4B4A     		ldr	r2, .L724+24
 3262 159e 1B68     		ldr	r3, [r3]
 3263 15a0 1268     		ldr	r2, [r2]
 3264 15a2 4B49     		ldr	r1, .L724+28
 3265 15a4 4448     		ldr	r0, .L724+4
 3266 15a6 FFF7FEFF 		bl	sprintf
 3267              	.LVL269:
 3268              		.loc 1 753 0
 3269 15aa 002F     		cmp	r7, #0
 3270 15ac 7EF496AD 		bne	.L6
 3271 15b0 4148     		ldr	r0, .L724+4
 3272 15b2 FFF7FEFF 		bl	strlen
 3273              	.LVL270:
 3274              		.loc 1 755 0
 3275 15b6 079B     		ldr	r3, [sp, #28]
 3276 15b8 0146     		mov	r1, r0
 3277              		.loc 1 756 0
 3278 15ba 3F48     		ldr	r0, .L724+4
 3279              		.loc 1 755 0
 3280 15bc 002B     		cmp	r3, #0
 3281 15be 00F0D584 		beq	.L223
 3282              		.loc 1 756 0
 3283 15c2 FFF7FEFF 		bl	e_send_uart1_char
 3284              	.LVL271:
 3285              	.L224:
 3286              		.loc 1 756 0 is_stmt 0 discriminator 2
 3287 15c6 FFF7FEFF 		bl	e_uart1_sending
 3288              	.LVL272:
 3289 15ca 0028     		cmp	r0, #0
 3290 15cc FBD1     		bne	.L224
 3291 15ce FEF786BD 		b	.L650
 3292              	.L183:
 3293              		.loc 1 740 0 is_stmt 1
 3294 15d2 3D4B     		ldr	r3, .L724+20
 3295 15d4 3D4A     		ldr	r2, .L724+24
 3296 15d6 3F49     		ldr	r1, .L724+32
 3297 15d8 3748     		ldr	r0, .L724+4
 3298 15da FFF7FEFF 		bl	sscanf
 3299              	.LVL273:
 3300              		.loc 1 741 0
 3301 15de 3B4B     		ldr	r3, .L724+24
 3302 15e0 1868     		ldr	r0, [r3]
 3303 15e2 FFF7FEFF 		bl	e_set_speed_left
 3304              	.LVL274:
 3305              		.loc 1 742 0
 3306 15e6 384B     		ldr	r3, .L724+20
ARM GAS  C:\Users\mathi\AppData\Local\Temp\ccXNOisu.s 			page 59


 3307 15e8 1868     		ldr	r0, [r3]
 3308 15ea FFF7FEFF 		bl	e_set_speed_right
 3309              	.LVL275:
 3310              		.loc 1 743 0
 3311 15ee 002F     		cmp	r7, #0
 3312 15f0 7EF474AD 		bne	.L6
 3313              		.loc 1 745 0
 3314 15f4 079B     		ldr	r3, [sp, #28]
 3315              		.loc 1 746 0
 3316 15f6 3848     		ldr	r0, .L724+36
 3317 15f8 0321     		movs	r1, #3
 3318              		.loc 1 745 0
 3319 15fa 002B     		cmp	r3, #0
 3320 15fc 00F0D684 		beq	.L220
 3321              		.loc 1 746 0
 3322 1600 FFF7FEFF 		bl	e_send_uart1_char
 3323              	.LVL276:
 3324              	.L221:
 3325              		.loc 1 746 0 is_stmt 0 discriminator 2
 3326 1604 FFF7FEFF 		bl	e_uart1_sending
 3327              	.LVL277:
 3328 1608 0028     		cmp	r0, #0
 3329 160a FBD1     		bne	.L221
 3330 160c FEF767BD 		b	.L650
 3331              	.L186:
 3332              		.loc 1 774 0 is_stmt 1
 3333 1610 FFF7FEFF 		bl	e_get_check
 3334              	.LVL278:
 3335 1614 0446     		mov	r4, r0
 3336 1616 FFF7FEFF 		bl	e_get_address
 3337              	.LVL279:
 3338 161a 0546     		mov	r5, r0
 3339 161c FFF7FEFF 		bl	e_get_data
 3340              	.LVL280:
 3341 1620 2B46     		mov	r3, r5
 3342 1622 0090     		str	r0, [sp]
 3343 1624 2246     		mov	r2, r4
 3344 1626 2D49     		ldr	r1, .L724+40
 3345 1628 2348     		ldr	r0, .L724+4
 3346 162a FFF7FEFF 		bl	sprintf
 3347              	.LVL281:
 3348              		.loc 1 775 0
 3349 162e 002F     		cmp	r7, #0
 3350 1630 7EF454AD 		bne	.L6
 3351 1634 2048     		ldr	r0, .L724+4
 3352 1636 FFF7FEFF 		bl	strlen
 3353              	.LVL282:
 3354              		.loc 1 777 0
 3355 163a 079B     		ldr	r3, [sp, #28]
 3356 163c 0146     		mov	r1, r0
 3357              		.loc 1 778 0
 3358 163e 1E48     		ldr	r0, .L724+4
 3359              		.loc 1 777 0
 3360 1640 002B     		cmp	r3, #0
 3361 1642 00F09B84 		beq	.L229
 3362              		.loc 1 778 0
 3363 1646 FFF7FEFF 		bl	e_send_uart1_char
ARM GAS  C:\Users\mathi\AppData\Local\Temp\ccXNOisu.s 			page 60


 3364              	.LVL283:
 3365              	.L230:
 3366              		.loc 1 778 0 is_stmt 0 discriminator 2
 3367 164a FFF7FEFF 		bl	e_uart1_sending
 3368              	.LVL284:
 3369 164e 0028     		cmp	r0, #0
 3370 1650 FBD1     		bne	.L230
 3371 1652 FEF744BD 		b	.L650
 3372              	.L182:
 3373              		.loc 1 729 0 is_stmt 1
 3374 1656 224A     		ldr	r2, .L724+44
 3375 1658 2249     		ldr	r1, .L724+48
 3376 165a 1369     		ldr	r3, [r2, #16]
 3377 165c 1069     		ldr	r0, [r2, #16]
 3378 165e 0C69     		ldr	r4, [r1, #16]
 3379 1660 1269     		ldr	r2, [r2, #16]
 3380              		.loc 1 730 0
 3381 1662 2149     		ldr	r1, .L724+52
 3382              		.loc 1 729 0
 3383 1664 C4F30014 		ubfx	r4, r4, #4, #1
 3384 1668 C0F3C030 		ubfx	r0, r0, #15, #1
 3385 166c 00EB4400 		add	r0, r0, r4, lsl #1
 3386 1670 C2F38032 		ubfx	r2, r2, #14, #1
 3387 1674 02EB4002 		add	r2, r2, r0, lsl #1
 3388 1678 C3F34033 		ubfx	r3, r3, #13, #1
 3389 167c 03EB4203 		add	r3, r3, r2, lsl #1
 3390 1680 1A4C     		ldr	r4, .L724+56
 3391              		.loc 1 730 0
 3392 1682 0D48     		ldr	r0, .L724+4
 3393              		.loc 1 729 0
 3394 1684 2360     		str	r3, [r4]
 3395              		.loc 1 730 0
 3396 1686 1A46     		mov	r2, r3
 3397 1688 FFF7FEFF 		bl	sprintf
 3398              	.LVL285:
 3399              		.loc 1 731 0
 3400 168c 002F     		cmp	r7, #0
 3401 168e 7EF425AD 		bne	.L6
 3402 1692 0948     		ldr	r0, .L724+4
 3403 1694 FFF7FEFF 		bl	strlen
 3404              	.LVL286:
 3405              		.loc 1 733 0
 3406 1698 079B     		ldr	r3, [sp, #28]
 3407 169a 0146     		mov	r1, r0
 3408              		.loc 1 734 0
 3409 169c 0648     		ldr	r0, .L724+4
 3410              		.loc 1 733 0
 3411 169e 002B     		cmp	r3, #0
 3412 16a0 00F07C84 		beq	.L217
 3413              		.loc 1 734 0
 3414 16a4 FFF7FEFF 		bl	e_send_uart1_char
 3415              	.LVL287:
 3416              	.L218:
 3417              		.loc 1 734 0 is_stmt 0 discriminator 2
 3418 16a8 FFF7FEFF 		bl	e_uart1_sending
 3419              	.LVL288:
 3420 16ac 0028     		cmp	r0, #0
ARM GAS  C:\Users\mathi\AppData\Local\Temp\ccXNOisu.s 			page 61


 3421 16ae FBD1     		bne	.L218
 3422 16b0 FEF715BD 		b	.L650
 3423              	.L725:
 3424              		.align	2
 3425              	.L724:
 3426 16b4 C40A0000 		.word	.LC87
 3427 16b8 00000000 		.word	buffer
 3428 16bc A40A0000 		.word	.LC82
 3429 16c0 BC090000 		.word	.LC70
 3430 16c4 5C000000 		.word	.LC1
 3431 16c8 00000000 		.word	.LANCHOR6
 3432 16cc 00000000 		.word	.LANCHOR7
 3433 16d0 AC000000 		.word	.LC9
 3434 16d4 9C000000 		.word	.LC7
 3435 16d8 A8000000 		.word	.LC8
 3436 16dc C4000000 		.word	.LC12
 3437 16e0 00080240 		.word	1073874944
 3438 16e4 000C0240 		.word	1073875968
 3439 16e8 94000000 		.word	.LC6
 3440 16ec 00000000 		.word	selector
 3441              	.L187:
 3442              		.loc 1 800 0 is_stmt 1
 3443 16f0 002F     		cmp	r7, #0
 3444 16f2 7EF4F3AC 		bne	.L6
 3445              		.loc 1 838 0
 3446 16f6 079B     		ldr	r3, [sp, #28]
 3447              		.loc 1 839 0
 3448 16f8 BC48     		ldr	r0, .L726
 3449 16fa 0121     		movs	r1, #1
 3450              		.loc 1 838 0
 3451 16fc 002B     		cmp	r3, #0
 3452 16fe 00F05B83 		beq	.L237
 3453              		.loc 1 839 0
 3454 1702 FFF7FEFF 		bl	e_send_uart1_char
 3455              	.LVL289:
 3456              	.L238:
 3457              		.loc 1 839 0 is_stmt 0 discriminator 2
 3458 1706 FFF7FEFF 		bl	e_uart1_sending
 3459              	.LVL290:
 3460 170a 0028     		cmp	r0, #0
 3461 170c FBD1     		bne	.L238
 3462              		.loc 1 840 0 is_stmt 1
 3463 170e 2121     		movs	r1, #33
 3464 1710 B748     		ldr	r0, .L726+4
 3465 1712 FFF7FEFF 		bl	e_send_uart1_char
 3466              	.LVL291:
 3467              	.L239:
 3468              		.loc 1 840 0 is_stmt 0 discriminator 2
 3469 1716 FFF7FEFF 		bl	e_uart1_sending
 3470              	.LVL292:
 3471 171a 0028     		cmp	r0, #0
 3472 171c FBD1     		bne	.L239
 3473              		.loc 1 841 0 is_stmt 1
 3474 171e 3121     		movs	r1, #49
 3475 1720 B448     		ldr	r0, .L726+8
 3476 1722 FFF7FEFF 		bl	e_send_uart1_char
 3477              	.LVL293:
ARM GAS  C:\Users\mathi\AppData\Local\Temp\ccXNOisu.s 			page 62


 3478              	.L240:
 3479              		.loc 1 841 0 is_stmt 0 discriminator 2
 3480 1726 FFF7FEFF 		bl	e_uart1_sending
 3481              	.LVL294:
 3482 172a 0028     		cmp	r0, #0
 3483 172c FBD1     		bne	.L240
 3484              		.loc 1 842 0 is_stmt 1
 3485 172e FFF7FEFF 		bl	isEpuckVersion1_3
 3486              	.LVL295:
 3487 1732 0028     		cmp	r0, #0
 3488 1734 00F01685 		beq	.L241
 3489              		.loc 1 843 0
 3490 1738 2121     		movs	r1, #33
 3491 173a AF48     		ldr	r0, .L726+12
 3492 173c FFF7FEFF 		bl	e_send_uart1_char
 3493              	.LVL296:
 3494              	.L242:
 3495              		.loc 1 843 0 is_stmt 0 discriminator 2
 3496 1740 FFF7FEFF 		bl	e_uart1_sending
 3497              	.LVL297:
 3498 1744 0028     		cmp	r0, #0
 3499 1746 FBD1     		bne	.L242
 3500              	.L243:
 3501              		.loc 1 847 0 is_stmt 1
 3502 1748 2521     		movs	r1, #37
 3503 174a AC48     		ldr	r0, .L726+16
 3504 174c FFF7FEFF 		bl	e_send_uart1_char
 3505              	.LVL298:
 3506              	.L245:
 3507              		.loc 1 847 0 is_stmt 0 discriminator 2
 3508 1750 FFF7FEFF 		bl	e_uart1_sending
 3509              	.LVL299:
 3510 1754 0028     		cmp	r0, #0
 3511 1756 FBD1     		bne	.L245
 3512              		.loc 1 848 0 is_stmt 1
 3513 1758 2E21     		movs	r1, #46
 3514 175a A948     		ldr	r0, .L726+20
 3515 175c FFF7FEFF 		bl	e_send_uart1_char
 3516              	.LVL300:
 3517              	.L246:
 3518              		.loc 1 848 0 is_stmt 0 discriminator 2
 3519 1760 FFF7FEFF 		bl	e_uart1_sending
 3520              	.LVL301:
 3521 1764 0028     		cmp	r0, #0
 3522 1766 FBD1     		bne	.L246
 3523              		.loc 1 849 0 is_stmt 1
 3524 1768 2E21     		movs	r1, #46
 3525 176a A648     		ldr	r0, .L726+24
 3526 176c FFF7FEFF 		bl	e_send_uart1_char
 3527              	.LVL302:
 3528              	.L247:
 3529              		.loc 1 849 0 is_stmt 0 discriminator 2
 3530 1770 FFF7FEFF 		bl	e_uart1_sending
 3531              	.LVL303:
 3532 1774 0028     		cmp	r0, #0
 3533 1776 FBD1     		bne	.L247
 3534              		.loc 1 850 0 is_stmt 1
ARM GAS  C:\Users\mathi\AppData\Local\Temp\ccXNOisu.s 			page 63


 3535 1778 3221     		movs	r1, #50
 3536 177a A348     		ldr	r0, .L726+28
 3537 177c FFF7FEFF 		bl	e_send_uart1_char
 3538              	.LVL304:
 3539              	.L248:
 3540              		.loc 1 850 0 is_stmt 0 discriminator 2
 3541 1780 FFF7FEFF 		bl	e_uart1_sending
 3542              	.LVL305:
 3543 1784 0028     		cmp	r0, #0
 3544 1786 FBD1     		bne	.L248
 3545              		.loc 1 852 0 is_stmt 1
 3546 1788 1F21     		movs	r1, #31
 3547 178a A048     		ldr	r0, .L726+32
 3548 178c FFF7FEFF 		bl	e_send_uart1_char
 3549              	.LVL306:
 3550              	.L249:
 3551              		.loc 1 852 0 is_stmt 0 discriminator 2
 3552 1790 FFF7FEFF 		bl	e_uart1_sending
 3553              	.LVL307:
 3554 1794 0028     		cmp	r0, #0
 3555 1796 FBD1     		bne	.L249
 3556              		.loc 1 854 0 is_stmt 1
 3557 1798 FFF7FEFF 		bl	isEpuckVersion1_3
 3558              	.LVL308:
 3559 179c 0028     		cmp	r0, #0
 3560 179e 40F00B85 		bne	.L707
 3561              	.L250:
 3562              		.loc 1 857 0
 3563 17a2 1821     		movs	r1, #24
 3564 17a4 9A48     		ldr	r0, .L726+36
 3565 17a6 FFF7FEFF 		bl	e_send_uart1_char
 3566              	.LVL309:
 3567              	.L252:
 3568              		.loc 1 857 0 is_stmt 0 discriminator 2
 3569 17aa FFF7FEFF 		bl	e_uart1_sending
 3570              	.LVL310:
 3571 17ae 0028     		cmp	r0, #0
 3572 17b0 FBD1     		bne	.L252
 3573              		.loc 1 858 0 is_stmt 1
 3574 17b2 2821     		movs	r1, #40
 3575 17b4 9748     		ldr	r0, .L726+40
 3576 17b6 FFF7FEFF 		bl	e_send_uart1_char
 3577              	.LVL311:
 3578              	.L253:
 3579              		.loc 1 858 0 is_stmt 0 discriminator 2
 3580 17ba FFF7FEFF 		bl	e_uart1_sending
 3581              	.LVL312:
 3582 17be 0028     		cmp	r0, #0
 3583 17c0 FBD1     		bne	.L253
 3584              		.loc 1 859 0 is_stmt 1
 3585 17c2 4F21     		movs	r1, #79
 3586 17c4 9448     		ldr	r0, .L726+44
 3587 17c6 FFF7FEFF 		bl	e_send_uart1_char
 3588              	.LVL313:
 3589              	.L254:
 3590              		.loc 1 859 0 is_stmt 0 discriminator 2
 3591 17ca FFF7FEFF 		bl	e_uart1_sending
ARM GAS  C:\Users\mathi\AppData\Local\Temp\ccXNOisu.s 			page 64


 3592              	.LVL314:
 3593 17ce 0028     		cmp	r0, #0
 3594 17d0 FBD1     		bne	.L254
 3595              		.loc 1 860 0 is_stmt 1
 3596 17d2 2F21     		movs	r1, #47
 3597 17d4 9148     		ldr	r0, .L726+48
 3598 17d6 FFF7FEFF 		bl	e_send_uart1_char
 3599              	.LVL315:
 3600              	.L255:
 3601              		.loc 1 860 0 is_stmt 0 discriminator 2
 3602 17da FFF7FEFF 		bl	e_uart1_sending
 3603              	.LVL316:
 3604 17de 0028     		cmp	r0, #0
 3605 17e0 FBD1     		bne	.L255
 3606              		.loc 1 861 0 is_stmt 1
 3607 17e2 3321     		movs	r1, #51
 3608 17e4 8E48     		ldr	r0, .L726+52
 3609 17e6 FFF7FEFF 		bl	e_send_uart1_char
 3610              	.LVL317:
 3611              	.L256:
 3612              		.loc 1 861 0 is_stmt 0 discriminator 2
 3613 17ea FFF7FEFF 		bl	e_uart1_sending
 3614              	.LVL318:
 3615 17ee 0028     		cmp	r0, #0
 3616 17f0 FBD1     		bne	.L256
 3617              		.loc 1 863 0 is_stmt 1
 3618 17f2 2121     		movs	r1, #33
 3619 17f4 8B48     		ldr	r0, .L726+56
 3620 17f6 FFF7FEFF 		bl	e_send_uart1_char
 3621              	.LVL319:
 3622              	.L257:
 3623              		.loc 1 863 0 is_stmt 0 discriminator 2
 3624 17fa FFF7FEFF 		bl	e_uart1_sending
 3625              	.LVL320:
 3626 17fe 0028     		cmp	r0, #0
 3627 1800 FBD1     		bne	.L257
 3628              		.loc 1 865 0 is_stmt 1
 3629 1802 1D21     		movs	r1, #29
 3630 1804 8848     		ldr	r0, .L726+60
 3631 1806 FFF7FEFF 		bl	e_send_uart1_char
 3632              	.LVL321:
 3633              	.L258:
 3634              		.loc 1 865 0 is_stmt 0 discriminator 2
 3635 180a FFF7FEFF 		bl	e_uart1_sending
 3636              	.LVL322:
 3637 180e 0028     		cmp	r0, #0
 3638 1810 FBD1     		bne	.L258
 3639              		.loc 1 866 0 is_stmt 1
 3640 1812 2121     		movs	r1, #33
 3641 1814 8548     		ldr	r0, .L726+64
 3642 1816 FFF7FEFF 		bl	e_send_uart1_char
 3643              	.LVL323:
 3644              	.L259:
 3645              		.loc 1 866 0 is_stmt 0 discriminator 2
 3646 181a FFF7FEFF 		bl	e_uart1_sending
 3647              	.LVL324:
 3648 181e 0028     		cmp	r0, #0
ARM GAS  C:\Users\mathi\AppData\Local\Temp\ccXNOisu.s 			page 65


 3649 1820 FBD1     		bne	.L259
 3650              		.loc 1 867 0 is_stmt 1
 3651 1822 3121     		movs	r1, #49
 3652 1824 8248     		ldr	r0, .L726+68
 3653 1826 FFF7FEFF 		bl	e_send_uart1_char
 3654              	.LVL325:
 3655              	.L260:
 3656              		.loc 1 867 0 is_stmt 0 discriminator 2
 3657 182a FFF7FEFF 		bl	e_uart1_sending
 3658              	.LVL326:
 3659 182e 0028     		cmp	r0, #0
 3660 1830 FBD1     		bne	.L260
 3661              		.loc 1 868 0 is_stmt 1
 3662 1832 3121     		movs	r1, #49
 3663 1834 7F48     		ldr	r0, .L726+72
 3664 1836 FFF7FEFF 		bl	e_send_uart1_char
 3665              	.LVL327:
 3666              	.L261:
 3667              		.loc 1 868 0 is_stmt 0 discriminator 2
 3668 183a FFF7FEFF 		bl	e_uart1_sending
 3669              	.LVL328:
 3670 183e 0028     		cmp	r0, #0
 3671 1840 FBD1     		bne	.L261
 3672              		.loc 1 869 0 is_stmt 1
 3673 1842 2021     		movs	r1, #32
 3674 1844 7C48     		ldr	r0, .L726+76
 3675 1846 FFF7FEFF 		bl	e_send_uart1_char
 3676              	.LVL329:
 3677              	.L262:
 3678              		.loc 1 869 0 is_stmt 0 discriminator 2
 3679 184a FFF7FEFF 		bl	e_uart1_sending
 3680              	.LVL330:
 3681 184e 0028     		cmp	r0, #0
 3682 1850 FBD1     		bne	.L262
 3683              		.loc 1 870 0 is_stmt 1
 3684 1852 3121     		movs	r1, #49
 3685 1854 7948     		ldr	r0, .L726+80
 3686 1856 FFF7FEFF 		bl	e_send_uart1_char
 3687              	.LVL331:
 3688              	.L263:
 3689              		.loc 1 870 0 is_stmt 0 discriminator 2
 3690 185a FFF7FEFF 		bl	e_uart1_sending
 3691              	.LVL332:
 3692 185e 0028     		cmp	r0, #0
 3693 1860 FBD1     		bne	.L263
 3694              		.loc 1 871 0 is_stmt 1
 3695 1862 3221     		movs	r1, #50
 3696 1864 7648     		ldr	r0, .L726+84
 3697 1866 FFF7FEFF 		bl	e_send_uart1_char
 3698              	.LVL333:
 3699              	.L264:
 3700              		.loc 1 871 0 is_stmt 0 discriminator 2
 3701 186a FFF7FEFF 		bl	e_uart1_sending
 3702              	.LVL334:
 3703 186e 0028     		cmp	r0, #0
 3704 1870 FBD1     		bne	.L264
 3705              		.loc 1 872 0 is_stmt 1
ARM GAS  C:\Users\mathi\AppData\Local\Temp\ccXNOisu.s 			page 66


 3706 1872 FFF7FEFF 		bl	isEpuckVersion1_3
 3707              	.LVL335:
 3708 1876 0028     		cmp	r0, #0
 3709 1878 40F0B184 		bne	.L708
 3710              	.L265:
 3711              		.loc 1 875 0
 3712 187c 2C21     		movs	r1, #44
 3713 187e 7148     		ldr	r0, .L726+88
 3714 1880 FFF7FEFF 		bl	e_send_uart1_char
 3715              	.LVL336:
 3716              	.L267:
 3717              		.loc 1 875 0 is_stmt 0 discriminator 2
 3718 1884 FFF7FEFF 		bl	e_uart1_sending
 3719              	.LVL337:
 3720 1888 0028     		cmp	r0, #0
 3721 188a FBD1     		bne	.L267
 3722              		.loc 1 876 0 is_stmt 1
 3723 188c 2521     		movs	r1, #37
 3724 188e 6E48     		ldr	r0, .L726+92
 3725 1890 FFF7FEFF 		bl	e_send_uart1_char
 3726              	.LVL338:
 3727              	.L268:
 3728              		.loc 1 876 0 is_stmt 0 discriminator 2
 3729 1894 FFF7FEFF 		bl	e_uart1_sending
 3730              	.LVL339:
 3731 1898 0028     		cmp	r0, #0
 3732 189a FBD1     		bne	.L268
 3733              		.loc 1 877 0 is_stmt 1
 3734 189c 2B21     		movs	r1, #43
 3735 189e 6B48     		ldr	r0, .L726+96
 3736 18a0 FFF7FEFF 		bl	e_send_uart1_char
 3737              	.LVL340:
 3738              	.L269:
 3739              		.loc 1 877 0 is_stmt 0 discriminator 2
 3740 18a4 FFF7FEFF 		bl	e_uart1_sending
 3741              	.LVL341:
 3742 18a8 0028     		cmp	r0, #0
 3743 18aa FBD1     		bne	.L269
 3744              		.loc 1 878 0 is_stmt 1
 3745 18ac 2A21     		movs	r1, #42
 3746 18ae 6848     		ldr	r0, .L726+100
 3747 18b0 FFF7FEFF 		bl	e_send_uart1_char
 3748              	.LVL342:
 3749              	.L270:
 3750              		.loc 1 878 0 is_stmt 0 discriminator 2
 3751 18b4 FFF7FEFF 		bl	e_uart1_sending
 3752              	.LVL343:
 3753 18b8 0028     		cmp	r0, #0
 3754 18ba FBD1     		bne	.L270
 3755 18bc FEF70FBC 		b	.L650
 3756              	.L181:
 3757              		.loc 1 718 0 is_stmt 1
 3758 18c0 644A     		ldr	r2, .L726+104
 3759 18c2 6549     		ldr	r1, .L726+108
 3760 18c4 6548     		ldr	r0, .L726+112
 3761 18c6 FFF7FEFF 		bl	sscanf
 3762              	.LVL344:
ARM GAS  C:\Users\mathi\AppData\Local\Temp\ccXNOisu.s 			page 67


 3763              		.loc 1 719 0
 3764 18ca 624B     		ldr	r3, .L726+104
 3765 18cc 1868     		ldr	r0, [r3]
 3766 18ce FFF7FEFF 		bl	e_set_body_led
 3767              	.LVL345:
 3768              		.loc 1 720 0
 3769 18d2 002F     		cmp	r7, #0
 3770 18d4 7EF402AC 		bne	.L6
 3771              		.loc 1 722 0
 3772 18d8 079B     		ldr	r3, [sp, #28]
 3773              		.loc 1 723 0
 3774 18da 6148     		ldr	r0, .L726+116
 3775 18dc 0321     		movs	r1, #3
 3776              		.loc 1 722 0
 3777 18de 002B     		cmp	r3, #0
 3778 18e0 00F06C83 		beq	.L214
 3779              		.loc 1 723 0
 3780 18e4 FFF7FEFF 		bl	e_send_uart1_char
 3781              	.LVL346:
 3782              	.L215:
 3783              		.loc 1 723 0 is_stmt 0 discriminator 2
 3784 18e8 FFF7FEFF 		bl	e_uart1_sending
 3785              	.LVL347:
 3786 18ec 0028     		cmp	r0, #0
 3787 18ee FBD1     		bne	.L215
 3788 18f0 FEF7F5BB 		b	.L650
 3789              	.L185:
 3790              		.loc 1 762 0 is_stmt 1
 3791 18f4 574A     		ldr	r2, .L726+104
 3792 18f6 5B49     		ldr	r1, .L726+120
 3793 18f8 5848     		ldr	r0, .L726+112
 3794 18fa FFF7FEFF 		bl	sscanf
 3795              	.LVL348:
 3796              		.loc 1 763 0
 3797 18fe 554B     		ldr	r3, .L726+104
 3798 1900 1868     		ldr	r0, [r3]
 3799 1902 FFF7FEFF 		bl	e_set_front_led
 3800              	.LVL349:
 3801              		.loc 1 764 0
 3802 1906 002F     		cmp	r7, #0
 3803 1908 7EF4E8AB 		bne	.L6
 3804              		.loc 1 766 0
 3805 190c 079B     		ldr	r3, [sp, #28]
 3806              		.loc 1 767 0
 3807 190e 5648     		ldr	r0, .L726+124
 3808 1910 0321     		movs	r1, #3
 3809              		.loc 1 766 0
 3810 1912 002B     		cmp	r3, #0
 3811 1914 00F06283 		beq	.L226
 3812              		.loc 1 767 0
 3813 1918 FFF7FEFF 		bl	e_send_uart1_char
 3814              	.LVL350:
 3815              	.L227:
 3816              		.loc 1 767 0 is_stmt 0 discriminator 2
 3817 191c FFF7FEFF 		bl	e_uart1_sending
 3818              	.LVL351:
 3819 1920 0028     		cmp	r0, #0
ARM GAS  C:\Users\mathi\AppData\Local\Temp\ccXNOisu.s 			page 68


 3820 1922 FBD1     		bne	.L227
 3821 1924 FEF7DBBB 		b	.L650
 3822              	.L357:
 3823              		.loc 1 1128 0 is_stmt 1
 3824 1928 41F65071 		movw	r1, #8016
 3825 192c 42F61430 		movw	r0, #11028
 3826 1930 FFF7FEFF 		bl	e_play_sound
 3827              	.LVL352:
 3828              	.L358:
 3829              		.loc 1 1136 0
 3830 1934 002F     		cmp	r7, #0
 3831 1936 7EF4D1AB 		bne	.L6
 3832              		.loc 1 1138 0
 3833 193a 079B     		ldr	r3, [sp, #28]
 3834              		.loc 1 1139 0
 3835 193c 4B48     		ldr	r0, .L726+128
 3836 193e 0321     		movs	r1, #3
 3837              		.loc 1 1138 0
 3838 1940 002B     		cmp	r3, #0
 3839 1942 00F00B83 		beq	.L359
 3840              		.loc 1 1139 0
 3841 1946 FFF7FEFF 		bl	e_send_uart1_char
 3842              	.LVL353:
 3843              	.L360:
 3844              		.loc 1 1139 0 is_stmt 0 discriminator 2
 3845 194a FFF7FEFF 		bl	e_uart1_sending
 3846              	.LVL354:
 3847 194e 0028     		cmp	r0, #0
 3848 1950 FBD1     		bne	.L360
 3849 1952 FEF7C4BB 		b	.L650
 3850              	.L356:
 3851              		.loc 1 1126 0 is_stmt 1
 3852 1956 40F69461 		movw	r1, #3732
 3853 195a 41F67E40 		movw	r0, #7294
 3854 195e FFF7FEFF 		bl	e_play_sound
 3855              	.LVL355:
 3856              		.loc 1 1127 0
 3857 1962 E7E7     		b	.L358
 3858              	.L355:
 3859              		.loc 1 1124 0
 3860 1964 0022     		movs	r2, #0
 3861 1966 0221     		movs	r1, #2
 3862 1968 0B20     		movs	r0, #11
 3863 196a FFF7FEFF 		bl	playMelody
 3864              	.LVL356:
 3865              		.loc 1 1125 0
 3866 196e E1E7     		b	.L358
 3867              	.L354:
 3868              		.loc 1 1122 0
 3869 1970 0022     		movs	r2, #0
 3870 1972 0221     		movs	r1, #2
 3871 1974 0420     		movs	r0, #4
 3872 1976 FFF7FEFF 		bl	playMelody
 3873              	.LVL357:
 3874              		.loc 1 1123 0
 3875 197a DBE7     		b	.L358
 3876              	.L352:
ARM GAS  C:\Users\mathi\AppData\Local\Temp\ccXNOisu.s 			page 69


 3877              		.loc 1 1120 0
 3878 197c 0022     		movs	r2, #0
 3879 197e 0221     		movs	r1, #2
 3880 1980 0320     		movs	r0, #3
 3881 1982 FFF7FEFF 		bl	playMelody
 3882              	.LVL358:
 3883              		.loc 1 1121 0
 3884 1986 D5E7     		b	.L358
 3885              	.L178:
 3886              		.loc 1 1239 0
 3887 1988 002F     		cmp	r7, #0
 3888 198a 7EF4A7AB 		bne	.L6
 3889              		.loc 1 1241 0
 3890 198e 079B     		ldr	r3, [sp, #28]
 3891              		.loc 1 1242 0
 3892 1990 3748     		ldr	r0, .L726+132
 3893 1992 1521     		movs	r1, #21
 3894              		.loc 1 1241 0
 3895 1994 002B     		cmp	r3, #0
 3896 1996 00F03183 		beq	.L394
 3897              		.loc 1 1242 0
 3898 199a FFF7FEFF 		bl	e_send_uart1_char
 3899              	.LVL359:
 3900              	.L395:
 3901              		.loc 1 1242 0 is_stmt 0 discriminator 2
 3902 199e FFF7FEFF 		bl	e_uart1_sending
 3903              	.LVL360:
 3904 19a2 0028     		cmp	r0, #0
 3905 19a4 FBD1     		bne	.L395
 3906 19a6 FEF79ABB 		b	.L650
 3907              	.L158:
 3908              	.LBE4:
 3909              		.loc 1 689 0 is_stmt 1
 3910 19aa 1C46     		mov	r4, r3
 3911              		.loc 1 687 0
 3912 19ac 0222     		movs	r2, #2
 3913              		.loc 1 676 0
 3914 19ae 8AF80030 		strb	r3, [r10]
 3915              		.loc 1 689 0
 3916 19b2 622C     		cmp	r4, #98
 3917              		.loc 1 687 0
 3918 19b4 4FF00003 		mov	r3, #0
 3919 19b8 CBF80020 		str	r2, [fp]
 3920 19bc 8AF80130 		strb	r3, [r10, #1]
 3921              		.loc 1 689 0
 3922 19c0 7EF4F8AB 		bne	.L399
 3923              	.LBB5:
 3924              		.loc 1 708 0
 3925 19c4 FFF7FEFF 		bl	getBatteryValueRaw
 3926              	.LVL361:
 3927 19c8 0446     		mov	r4, r0
 3928 19ca FFF7FEFF 		bl	getBatteryValuePercentage
 3929              	.LVL362:
 3930 19ce 2246     		mov	r2, r4
 3931 19d0 0346     		mov	r3, r0
 3932 19d2 2849     		ldr	r1, .L726+136
 3933 19d4 2148     		ldr	r0, .L726+112
ARM GAS  C:\Users\mathi\AppData\Local\Temp\ccXNOisu.s 			page 70


 3934 19d6 FFF7FEFF 		bl	sprintf
 3935              	.LVL363:
 3936 19da FEF77FBB 		b	.L6
 3937              	.LVL364:
 3938              	.L14:
 3939              	.LBE5:
 3940              		.loc 1 208 0
 3941 19de 264A     		ldr	r2, .L726+140
 3942 19e0 0023     		movs	r3, #0
 3943 19e2 1360     		str	r3, [r2]
 3944 19e4 254A     		ldr	r2, .L726+144
 3945 19e6 1360     		str	r3, [r2]
 3946 19e8 FEF759BC 		b	.L26
 3947              	.L727:
 3948              		.align	2
 3949              	.L726:
 3950 19ec 14010000 		.word	.LC15
 3951 19f0 18010000 		.word	.LC16
 3952 19f4 3C010000 		.word	.LC17
 3953 19f8 70010000 		.word	.LC18
 3954 19fc C4010000 		.word	.LC20
 3955 1a00 EC010000 		.word	.LC21
 3956 1a04 1C020000 		.word	.LC22
 3957 1a08 4C020000 		.word	.LC23
 3958 1a0c 80020000 		.word	.LC24
 3959 1a10 BC020000 		.word	.LC26
 3960 1a14 D8020000 		.word	.LC27
 3961 1a18 04030000 		.word	.LC28
 3962 1a1c 54030000 		.word	.LC29
 3963 1a20 84030000 		.word	.LC30
 3964 1a24 B8030000 		.word	.LC31
 3965 1a28 DC030000 		.word	.LC32
 3966 1a2c FC030000 		.word	.LC33
 3967 1a30 20040000 		.word	.LC34
 3968 1a34 54040000 		.word	.LC35
 3969 1a38 88040000 		.word	.LC36
 3970 1a3c AC040000 		.word	.LC37
 3971 1a40 E0040000 		.word	.LC38
 3972 1a44 34050000 		.word	.LC40
 3973 1a48 64050000 		.word	.LC41
 3974 1a4c 8C050000 		.word	.LC42
 3975 1a50 B8050000 		.word	.LC43
 3976 1a54 00000000 		.word	.LANCHOR27
 3977 1a58 88000000 		.word	.LC4
 3978 1a5c 00000000 		.word	buffer
 3979 1a60 90000000 		.word	.LC5
 3980 1a64 B8000000 		.word	.LC10
 3981 1a68 C0000000 		.word	.LC11
 3982 1a6c B00A0000 		.word	.LC84
 3983 1a70 380B0000 		.word	.LC95
 3984 1a74 78000000 		.word	.LC3
 3985 1a78 00000000 		.word	.LANCHOR7
 3986 1a7c 00000000 		.word	.LANCHOR6
 3987              	.LVL365:
 3988              	.L30:
 3989              		.loc 1 270 0
 3990 1a80 B74A     		ldr	r2, .L728
ARM GAS  C:\Users\mathi\AppData\Local\Temp\ccXNOisu.s 			page 71


 3991 1a82 0023     		movs	r3, #0
 3992 1a84 1360     		str	r3, [r2]
 3993 1a86 B74A     		ldr	r2, .L728+4
 3994 1a88 1360     		str	r3, [r2]
 3995 1a8a FEF77EBC 		b	.L42
 3996              	.LVL366:
 3997              	.L85:
 3998              		.loc 1 417 0
 3999 1a8e B64B     		ldr	r3, .L728+8
 4000 1a90 1A78     		ldrb	r2, [r3]	@ zero_extendqisi2
 4001 1a92 B64B     		ldr	r3, .L728+12
 4002 1a94 1B78     		ldrb	r3, [r3]	@ zero_extendqisi2
 4003 1a96 03EB0223 		add	r3, r3, r2, lsl #8
 4004 1a9a B14A     		ldr	r2, .L728
 4005 1a9c 1846     		mov	r0, r3
 4006 1a9e 1360     		str	r3, [r2]
 4007 1aa0 FEF7CEBF 		b	.L97
 4008              	.L118:
 4009              		.loc 1 540 0
 4010 1aa4 B04B     		ldr	r3, .L728+8
 4011 1aa6 1A78     		ldrb	r2, [r3]	@ zero_extendqisi2
 4012 1aa8 B04B     		ldr	r3, .L728+12
 4013 1aaa 1B78     		ldrb	r3, [r3]	@ zero_extendqisi2
 4014 1aac 03EB0223 		add	r3, r3, r2, lsl #8
 4015 1ab0 AF4A     		ldr	r2, .L728+16
 4016 1ab2 1846     		mov	r0, r3
 4017 1ab4 1360     		str	r3, [r2]
 4018 1ab6 FEF7CEBD 		b	.L130
 4019              	.L80:
 4020              		.loc 1 339 0
 4021 1aba 5A1C     		adds	r2, r3, #1
 4022 1abc 0AF80300 		strb	r0, [r10, r3]
 4023 1ac0 CBF80020 		str	r2, [fp]
 4024 1ac4 FEF74DBD 		b	.L47
 4025              	.L697:
 4026              		.loc 1 663 0
 4027 1ac8 AA48     		ldr	r0, .L728+20
 4028 1aca FFF7FEFF 		bl	e_send_uart2_char
 4029              	.LVL367:
 4030              	.L157:
 4031              		.loc 1 664 0 discriminator 1
 4032 1ace FFF7FEFF 		bl	e_uart2_sending
 4033              	.LVL368:
 4034 1ad2 0028     		cmp	r0, #0
 4035 1ad4 FBD1     		bne	.L157
 4036 1ad6 FEF795BB 		b	.L641
 4037              	.L695:
 4038              		.loc 1 486 0
 4039 1ada 0146     		mov	r1, r0
 4040 1adc 1846     		mov	r0, r3
 4041 1ade FFF7FEFF 		bl	e_set_led
 4042              	.LVL369:
 4043              		.loc 1 487 0
 4044 1ae2 FEF73EBD 		b	.L47
 4045              	.L105:
 4046              		.loc 1 480 0
 4047 1ae6 FFF7FEFF 		bl	e_set_body_led
ARM GAS  C:\Users\mathi\AppData\Local\Temp\ccXNOisu.s 			page 72


 4048              	.LVL370:
 4049              		.loc 1 481 0
 4050 1aea FEF73ABD 		b	.L47
 4051              	.L131:
 4052              		.loc 1 567 0
 4053 1aee FFF7FEFF 		bl	getTemperature
 4054              	.LVL371:
 4055 1af2 DBF80020 		ldr	r2, [fp]
 4056 1af6 99F80030 		ldrb	r3, [r9]	@ zero_extendqisi2
 4057 1afa 0AF80200 		strb	r0, [r10, r2]
 4058 1afe 0132     		adds	r2, r2, #1
 4059 1b00 CBF80020 		str	r2, [fp]
 4060              		.loc 1 647 0
 4061 1b04 002B     		cmp	r3, #0
 4062 1b06 7EF490AC 		bne	.L673
 4063 1b0a FEF737BD 		b	.L649
 4064              	.L699:
 4065              		.loc 1 345 0
 4066 1b0e 0121     		movs	r1, #1
 4067 1b10 3846     		mov	r0, r7
 4068 1b12 FFF7FEFF 		bl	e_get_acc_filtered
 4069              	.LVL372:
 4070 1b16 984C     		ldr	r4, .L728+24
 4071              		.loc 1 346 0
 4072 1b18 984D     		ldr	r5, .L728+28
 4073              		.loc 1 345 0
 4074 1b1a 2060     		str	r0, [r4]
 4075              		.loc 1 346 0
 4076 1b1c 0121     		movs	r1, #1
 4077 1b1e 0846     		mov	r0, r1
 4078 1b20 FFF7FEFF 		bl	e_get_acc_filtered
 4079              	.LVL373:
 4080              		.loc 1 347 0
 4081 1b24 0121     		movs	r1, #1
 4082              		.loc 1 346 0
 4083 1b26 2860     		str	r0, [r5]
 4084              		.loc 1 347 0
 4085 1b28 0220     		movs	r0, #2
 4086 1b2a FFF7FEFF 		bl	e_get_acc_filtered
 4087              	.LVL374:
 4088 1b2e 2268     		ldr	r2, [r4]
 4089 1b30 934B     		ldr	r3, .L728+32
 4090 1b32 2C68     		ldr	r4, [r5]
 4091 1b34 1860     		str	r0, [r3]
 4092 1b36 C5B2     		uxtb	r5, r0
 4093 1b38 C0F30723 		ubfx	r3, r0, #8, #8
 4094 1b3c 5FFA84FC 		uxtb	ip, r4
 4095 1b40 D1B2     		uxtb	r1, r2
 4096 1b42 C2F30720 		ubfx	r0, r2, #8, #8
 4097 1b46 C4F30724 		ubfx	r4, r4, #8, #8
 4098 1b4a FEF74CBE 		b	.L82
 4099              	.L701:
 4100              		.loc 1 326 0
 4101 1b4e FFF7FEFF 		bl	VL53L0X_get_dist_mm
 4102              	.LVL375:
 4103              		.loc 1 327 0
 4104 1b52 DBF80030 		ldr	r3, [fp]
ARM GAS  C:\Users\mathi\AppData\Local\Temp\ccXNOisu.s 			page 73


 4105              		.loc 1 328 0
 4106 1b56 0AEB0302 		add	r2, r10, r3
 4107              		.loc 1 327 0
 4108 1b5a 0AF80300 		strb	r0, [r10, r3]
 4109              		.loc 1 328 0
 4110 1b5e 0112     		asrs	r1, r0, #8
 4111 1b60 0233     		adds	r3, r3, #2
 4112 1b62 5170     		strb	r1, [r2, #1]
 4113 1b64 CBF80030 		str	r3, [fp]
 4114 1b68 FEF7FCBC 		b	.L78
 4115              	.L698:
 4116              		.loc 1 440 0
 4117 1b6c 854A     		ldr	r2, .L728+36
 4118 1b6e 8649     		ldr	r1, .L728+40
 4119 1b70 8648     		ldr	r0, .L728+44
 4120 1b72 FFF7FEFF 		bl	getAllAxesGyro
 4121              	.LVL376:
 4122              		.loc 1 441 0
 4123 1b76 854B     		ldr	r3, .L728+44
 4124 1b78 DBF80020 		ldr	r2, [fp]
 4125 1b7c 1968     		ldr	r1, [r3]
 4126              		.loc 1 443 0
 4127 1b7e 824B     		ldr	r3, .L728+40
 4128              		.loc 1 441 0
 4129 1b80 0AF80210 		strb	r1, [r10, r2]
 4130              		.loc 1 443 0
 4131 1b84 1C68     		ldr	r4, [r3]
 4132              		.loc 1 445 0
 4133 1b86 7F4B     		ldr	r3, .L728+36
 4134 1b88 1868     		ldr	r0, [r3]
 4135              		.loc 1 442 0
 4136 1b8a 0AEB0203 		add	r3, r10, r2
 4137 1b8e 0912     		asrs	r1, r1, #8
 4138              		.loc 1 446 0
 4139 1b90 0632     		adds	r2, r2, #6
 4140              		.loc 1 442 0
 4141 1b92 5970     		strb	r1, [r3, #1]
 4142              		.loc 1 446 0
 4143 1b94 CBF80020 		str	r2, [fp]
 4144              		.loc 1 444 0
 4145 1b98 2112     		asrs	r1, r4, #8
 4146              		.loc 1 446 0
 4147 1b9a 0212     		asrs	r2, r0, #8
 4148              		.loc 1 443 0
 4149 1b9c 9C70     		strb	r4, [r3, #2]
 4150              		.loc 1 444 0
 4151 1b9e D970     		strb	r1, [r3, #3]
 4152              		.loc 1 445 0
 4153 1ba0 1871     		strb	r0, [r3, #4]
 4154              		.loc 1 446 0
 4155 1ba2 5A71     		strb	r2, [r3, #5]
 4156 1ba4 FEF7DEBC 		b	.L78
 4157              	.L700:
 4158              		.loc 1 366 0
 4159 1ba8 FFF7FEFF 		bl	e_read_acc_spheric
 4160              	.LVL377:
 4161 1bac 784B     		ldr	r3, .L728+48
ARM GAS  C:\Users\mathi\AppData\Local\Temp\ccXNOisu.s 			page 74


 4162 1bae 83ED000A 		vstr.32	s0, [r3]
 4163 1bb2 9978     		ldrb	r1, [r3, #2]	@ zero_extendqisi2
 4164 1bb4 C3ED010A 		vstr.32	s1, [r3, #4]
 4165 1bb8 0891     		str	r1, [sp, #32]
 4166 1bba D978     		ldrb	r1, [r3, #3]	@ zero_extendqisi2
 4167 1bbc 0991     		str	r1, [sp, #36]
 4168 1bbe 9979     		ldrb	r1, [r3, #6]	@ zero_extendqisi2
 4169 1bc0 83ED021A 		vstr.32	s2, [r3, #8]
 4170 1bc4 0A91     		str	r1, [sp, #40]
 4171 1bc6 D979     		ldrb	r1, [r3, #7]	@ zero_extendqisi2
 4172 1bc8 0B91     		str	r1, [sp, #44]
 4173 1bca 597A     		ldrb	r1, [r3, #9]	@ zero_extendqisi2
 4174 1bcc 0C91     		str	r1, [sp, #48]
 4175 1bce 997A     		ldrb	r1, [r3, #10]	@ zero_extendqisi2
 4176 1bd0 1A78     		ldrb	r2, [r3]	@ zero_extendqisi2
 4177 1bd2 5D78     		ldrb	r5, [r3, #1]	@ zero_extendqisi2
 4178 1bd4 93F804E0 		ldrb	lr, [r3, #4]	@ zero_extendqisi2
 4179 1bd8 5C79     		ldrb	r4, [r3, #5]	@ zero_extendqisi2
 4180 1bda 93F808C0 		ldrb	ip, [r3, #8]	@ zero_extendqisi2
 4181 1bde 0D91     		str	r1, [sp, #52]
 4182 1be0 DB7A     		ldrb	r3, [r3, #11]	@ zero_extendqisi2
 4183 1be2 FEF76CBF 		b	.L84
 4184              	.LVL378:
 4185              	.L693:
 4186              		.loc 1 202 0
 4187 1be6 FFF7FEFF 		bl	e_init_sound
 4188              	.LVL379:
 4189              		.loc 1 203 0
 4190 1bea 6A4A     		ldr	r2, .L728+52
 4191 1bec 0123     		movs	r3, #1
 4192 1bee 1370     		strb	r3, [r2]
 4193 1bf0 FEF7BBBB 		b	.L27
 4194              	.LVL380:
 4195              	.L694:
 4196              		.loc 1 264 0
 4197 1bf4 FFF7FEFF 		bl	e_init_sound
 4198              	.LVL381:
 4199              		.loc 1 265 0
 4200 1bf8 664A     		ldr	r2, .L728+52
 4201 1bfa 0123     		movs	r3, #1
 4202 1bfc 1370     		strb	r3, [r2]
 4203 1bfe FEF705BC 		b	.L43
 4204              	.LVL382:
 4205              	.L696:
 4206              		.loc 1 651 0
 4207 1c02 654B     		ldr	r3, .L728+56
 4208 1c04 1F70     		strb	r7, [r3]
 4209              		.loc 1 652 0
 4210 1c06 FFF7FEFF 		bl	e_poxxxx_wait_img_ready
 4211              	.LVL383:
 4212              		.loc 1 653 0
 4213 1c0a FFF7FEFF 		bl	dcmi_get_last_image_ptr
 4214              	.LVL384:
 4215 1c0e 0E9B     		ldr	r3, [sp, #56]
 4216 1c10 1A68     		ldr	r2, [r3]
 4217 1c12 0F9B     		ldr	r3, [sp, #60]
 4218 1c14 0146     		mov	r1, r0
ARM GAS  C:\Users\mathi\AppData\Local\Temp\ccXNOisu.s 			page 75


 4219 1c16 0AEB0300 		add	r0, r10, r3
 4220 1c1a FFF7FEFF 		bl	memcpy
 4221              	.LVL385:
 4222 1c1e DBF80010 		ldr	r1, [fp]
 4223 1c22 FEF7B8BC 		b	.L155
 4224              	.L313:
 4225              	.LBB6:
 4226              		.loc 1 968 0
 4227 1c26 0121     		movs	r1, #1
 4228 1c28 0820     		movs	r0, #8
 4229 1c2a FFF7FEFF 		bl	e_set_led
 4230              	.LVL386:
 4231              		.loc 1 970 0
 4232 1c2e 4FF4C870 		mov	r0, #400
 4233 1c32 FFF7FEFF 		bl	chThdSleep
 4234              	.LVL387:
 4235              		.loc 1 971 0
 4236 1c36 FFF7FEFF 		bl	e_led_clear
 4237              	.LVL388:
 4238              		.loc 1 973 0
 4239 1c3a 6420     		movs	r0, #100
 4240 1c3c FFF7FEFF 		bl	chThdSleep
 4241              	.LVL389:
 4242              		.loc 1 974 0
 4243 1c40 FFF7FEFF 		bl	e_calibrate_ir
 4244              	.LVL390:
 4245 1c44 FEF74ABA 		b	.L6
 4246              	.LVL391:
 4247              	.L370:
 4248              		.loc 1 1178 0
 4249 1c48 544B     		ldr	r3, .L728+60
 4250 1c4a 5549     		ldr	r1, .L728+64
 4251 1c4c 1A68     		ldr	r2, [r3]
 4252 1c4e 4948     		ldr	r0, .L728+20
 4253 1c50 FFF7FEFF 		bl	sprintf
 4254              	.LVL392:
 4255 1c54 FEF742BA 		b	.L6
 4256              	.L206:
 4257              		.loc 1 697 0
 4258 1c58 524B     		ldr	r3, .L728+68
 4259              	.L668:
 4260              		.loc 1 788 0
 4261 1c5a 03CB     		ldmia	r3!, {r0, r1}
 4262 1c5c 1B88     		ldrh	r3, [r3]	@ unaligned
 4263 1c5e AAF80830 		strh	r3, [r10, #8]	@ unaligned
 4264 1c62 CAF80000 		str	r0, [r10]	@ unaligned
 4265 1c66 CAF80410 		str	r1, [r10, #4]	@ unaligned
 4266 1c6a FEF737BA 		b	.L6
 4267              	.L362:
 4268              		.loc 1 1149 0
 4269 1c6e 4E4B     		ldr	r3, .L728+72
 4270 1c70 1868     		ldr	r0, [r3]
 4271 1c72 9B88     		ldrh	r3, [r3, #4]	@ unaligned
 4272 1c74 CAF80000 		str	r0, [r10]	@ unaligned
 4273 1c78 AAF80430 		strh	r3, [r10, #4]	@ unaligned
 4274 1c7c FEF72EBA 		b	.L6
 4275              	.L232:
ARM GAS  C:\Users\mathi\AppData\Local\Temp\ccXNOisu.s 			page 76


 4276              		.loc 1 788 0
 4277 1c80 4A4B     		ldr	r3, .L728+76
 4278 1c82 EAE7     		b	.L668
 4279              	.L688:
 4280              		.loc 1 708 0
 4281 1c84 FFF7FEFF 		bl	getBatteryValueRaw
 4282              	.LVL393:
 4283 1c88 0446     		mov	r4, r0
 4284 1c8a FFF7FEFF 		bl	getBatteryValuePercentage
 4285              	.LVL394:
 4286 1c8e 2246     		mov	r2, r4
 4287 1c90 0346     		mov	r3, r0
 4288 1c92 4749     		ldr	r1, .L728+80
 4289 1c94 3748     		ldr	r0, .L728+20
 4290 1c96 FFF7FEFF 		bl	sprintf
 4291              	.LVL395:
 4292              	.L401:
 4293 1c9a 3648     		ldr	r0, .L728+20
 4294 1c9c FFF7FEFF 		bl	strlen
 4295              	.LVL396:
 4296              		.loc 1 711 0
 4297 1ca0 079B     		ldr	r3, [sp, #28]
 4298 1ca2 0146     		mov	r1, r0
 4299              		.loc 1 712 0
 4300 1ca4 3348     		ldr	r0, .L728+20
 4301              		.loc 1 711 0
 4302 1ca6 002B     		cmp	r3, #0
 4303 1ca8 00F0EA81 		beq	.L211
 4304              		.loc 1 712 0
 4305 1cac FFF7FEFF 		bl	e_send_uart1_char
 4306              	.LVL397:
 4307              	.L212:
 4308              		.loc 1 712 0 is_stmt 0 discriminator 2
 4309 1cb0 FFF7FEFF 		bl	e_uart1_sending
 4310              	.LVL398:
 4311 1cb4 0028     		cmp	r0, #0
 4312 1cb6 FBD1     		bne	.L212
 4313 1cb8 FEF711BA 		b	.L650
 4314              	.L390:
 4315              		.loc 1 1232 0 is_stmt 1
 4316 1cbc FFF7FEFF 		bl	strlen
 4317              	.LVL399:
 4318 1cc0 0146     		mov	r1, r0
 4319 1cc2 2046     		mov	r0, r4
 4320 1cc4 FFF7FEFF 		bl	e_send_uart2_char
 4321              	.LVL400:
 4322              	.L392:
 4323              		.loc 1 1232 0 is_stmt 0 discriminator 2
 4324 1cc8 FFF7FEFF 		bl	e_uart2_sending
 4325              	.LVL401:
 4326 1ccc 0028     		cmp	r0, #0
 4327 1cce FBD1     		bne	.L392
 4328 1cd0 FFF7C1B8 		b	.L389
 4329              	.L314:
 4330              		.loc 1 965 0 is_stmt 1
 4331 1cd4 FFF7FEFF 		bl	e_send_uart2_char
 4332              	.LVL402:
ARM GAS  C:\Users\mathi\AppData\Local\Temp\ccXNOisu.s 			page 77


 4333              	.L317:
 4334              		.loc 1 965 0 is_stmt 0 discriminator 2
 4335 1cd8 FFF7FEFF 		bl	e_uart2_sending
 4336              	.LVL403:
 4337 1cdc 0028     		cmp	r0, #0
 4338 1cde FBD1     		bne	.L317
 4339              		.loc 1 968 0 is_stmt 1
 4340 1ce0 0121     		movs	r1, #1
 4341 1ce2 0820     		movs	r0, #8
 4342 1ce4 FFF7FEFF 		bl	e_set_led
 4343              	.LVL404:
 4344              		.loc 1 970 0
 4345 1ce8 4FF4C870 		mov	r0, #400
 4346 1cec FFF7FEFF 		bl	chThdSleep
 4347              	.LVL405:
 4348              		.loc 1 971 0
 4349 1cf0 FFF7FEFF 		bl	e_led_clear
 4350              	.LVL406:
 4351              		.loc 1 973 0
 4352 1cf4 6420     		movs	r0, #100
 4353 1cf6 FFF7FEFF 		bl	chThdSleep
 4354              	.LVL407:
 4355              		.loc 1 974 0
 4356 1cfa FFF7FEFF 		bl	e_calibrate_ir
 4357              	.LVL408:
 4358              		.loc 1 980 0
 4359 1cfe 1921     		movs	r1, #25
 4360 1d00 2C48     		ldr	r0, .L728+84
 4361 1d02 FFF7FEFF 		bl	e_send_uart2_char
 4362              	.LVL409:
 4363              	.L320:
 4364              		.loc 1 980 0 is_stmt 0 discriminator 2
 4365 1d06 FFF7FEFF 		bl	e_uart2_sending
 4366              	.LVL410:
 4367 1d0a 0028     		cmp	r0, #0
 4368 1d0c FBD1     		bne	.L320
 4369 1d0e FEF779BA 		b	.L641
 4370              	.LVL411:
 4371              	.L371:
 4372              		.loc 1 1176 0 is_stmt 1
 4373 1d12 FFF7FEFF 		bl	e_send_uart2_char
 4374              	.LVL412:
 4375              	.L374:
 4376              		.loc 1 1176 0 is_stmt 0 discriminator 2
 4377 1d16 FFF7FEFF 		bl	e_uart2_sending
 4378              	.LVL413:
 4379 1d1a 0028     		cmp	r0, #0
 4380 1d1c FBD1     		bne	.L374
 4381              		.loc 1 1178 0 is_stmt 1
 4382 1d1e 1F4B     		ldr	r3, .L728+60
 4383 1d20 1F49     		ldr	r1, .L728+64
 4384 1d22 1A68     		ldr	r2, [r3]
 4385 1d24 1348     		ldr	r0, .L728+20
 4386 1d26 FFF7FEFF 		bl	sprintf
 4387              	.LVL414:
 4388              		.loc 1 1184 0
 4389 1d2a 1248     		ldr	r0, .L728+20
ARM GAS  C:\Users\mathi\AppData\Local\Temp\ccXNOisu.s 			page 78


 4390 1d2c FFF7FEFF 		bl	strlen
 4391              	.LVL415:
 4392 1d30 0146     		mov	r1, r0
 4393 1d32 1048     		ldr	r0, .L728+20
 4394 1d34 FFF7FEFF 		bl	e_send_uart2_char
 4395              	.LVL416:
 4396              	.L377:
 4397              		.loc 1 1184 0 is_stmt 0 discriminator 2
 4398 1d38 FFF7FEFF 		bl	e_uart2_sending
 4399              	.LVL417:
 4400 1d3c 0028     		cmp	r0, #0
 4401 1d3e FBD1     		bne	.L377
 4402 1d40 FEF760BA 		b	.L641
 4403              	.L690:
 4404              		.loc 1 795 0 is_stmt 1
 4405 1d44 0B48     		ldr	r0, .L728+20
 4406 1d46 FFF7FEFF 		bl	strlen
 4407              	.LVL418:
 4408 1d4a 0146     		mov	r1, r0
 4409 1d4c 0948     		ldr	r0, .L728+20
 4410 1d4e FFF7FEFF 		bl	e_send_uart2_char
 4411              	.LVL419:
 4412              	.L236:
 4413              		.loc 1 795 0 is_stmt 0 discriminator 2
 4414 1d52 FFF7FEFF 		bl	e_uart2_sending
 4415              	.LVL420:
 4416 1d56 0028     		cmp	r0, #0
 4417 1d58 FBD1     		bne	.L236
 4418 1d5a FEF753BA 		b	.L641
 4419              	.L729:
 4420 1d5e 00BF     		.align	2
 4421              	.L728:
 4422 1d60 00000000 		.word	.LANCHOR7
 4423 1d64 00000000 		.word	.LANCHOR6
 4424 1d68 00000000 		.word	.LANCHOR17
 4425 1d6c 00000000 		.word	.LANCHOR16
 4426 1d70 00000000 		.word	.LANCHOR22
 4427 1d74 00000000 		.word	buffer
 4428 1d78 00000000 		.word	.LANCHOR12
 4429 1d7c 00000000 		.word	.LANCHOR13
 4430 1d80 00000000 		.word	.LANCHOR14
 4431 1d84 00000000 		.word	.LANCHOR18
 4432 1d88 00000000 		.word	.LANCHOR19
 4433 1d8c 00000000 		.word	.LANCHOR20
 4434 1d90 00000000 		.word	.LANCHOR15
 4435 1d94 00000000 		.word	.LANCHOR8
 4436 1d98 00000000 		.word	.LANCHOR21
 4437 1d9c 00000000 		.word	.LANCHOR0
 4438 1da0 500B0000 		.word	.LC96
 4439 1da4 6C000000 		.word	.LC2
 4440 1da8 BC0A0000 		.word	.LC86
 4441 1dac 08010000 		.word	.LC14
 4442 1db0 78000000 		.word	.LC3
 4443 1db4 640B0000 		.word	.LC97
 4444              	.L237:
 4445              		.loc 1 880 0 is_stmt 1
 4446 1db8 FFF7FEFF 		bl	e_send_uart2_char
ARM GAS  C:\Users\mathi\AppData\Local\Temp\ccXNOisu.s 			page 79


 4447              	.LVL421:
 4448              	.L271:
 4449              		.loc 1 880 0 is_stmt 0 discriminator 2
 4450 1dbc FFF7FEFF 		bl	e_uart2_sending
 4451              	.LVL422:
 4452 1dc0 0028     		cmp	r0, #0
 4453 1dc2 FBD1     		bne	.L271
 4454              		.loc 1 881 0 is_stmt 1
 4455 1dc4 FFF7FEFF 		bl	isEpuckVersion1_3
 4456              	.LVL423:
 4457 1dc8 0028     		cmp	r0, #0
 4458 1dca 00F0FF81 		beq	.L709
 4459              	.L272:
 4460              		.loc 1 884 0
 4461 1dce FFF7FEFF 		bl	isEpuckVersion1_3
 4462              	.LVL424:
 4463 1dd2 0028     		cmp	r0, #0
 4464 1dd4 00F0BD81 		beq	.L274
 4465              		.loc 1 885 0
 4466 1dd8 1921     		movs	r1, #25
 4467 1dda BF48     		ldr	r0, .L730
 4468 1ddc FFF7FEFF 		bl	e_send_uart2_char
 4469              	.LVL425:
 4470              	.L275:
 4471              		.loc 1 885 0 is_stmt 0 discriminator 2
 4472 1de0 FFF7FEFF 		bl	e_uart2_sending
 4473              	.LVL426:
 4474 1de4 0028     		cmp	r0, #0
 4475 1de6 FBD1     		bne	.L275
 4476              	.L276:
 4477              		.loc 1 889 0 is_stmt 1
 4478 1de8 2B21     		movs	r1, #43
 4479 1dea BC48     		ldr	r0, .L730+4
 4480 1dec FFF7FEFF 		bl	e_send_uart2_char
 4481              	.LVL427:
 4482              	.L278:
 4483              		.loc 1 889 0 is_stmt 0 discriminator 2
 4484 1df0 FFF7FEFF 		bl	e_uart2_sending
 4485              	.LVL428:
 4486 1df4 0028     		cmp	r0, #0
 4487 1df6 FBD1     		bne	.L278
 4488              		.loc 1 890 0 is_stmt 1
 4489 1df8 1D21     		movs	r1, #29
 4490 1dfa B948     		ldr	r0, .L730+8
 4491 1dfc FFF7FEFF 		bl	e_send_uart2_char
 4492              	.LVL429:
 4493              	.L279:
 4494              		.loc 1 890 0 is_stmt 0 discriminator 2
 4495 1e00 FFF7FEFF 		bl	e_uart2_sending
 4496              	.LVL430:
 4497 1e04 0028     		cmp	r0, #0
 4498 1e06 FBD1     		bne	.L279
 4499              		.loc 1 891 0 is_stmt 1
 4500 1e08 2621     		movs	r1, #38
 4501 1e0a B648     		ldr	r0, .L730+12
 4502 1e0c FFF7FEFF 		bl	e_send_uart2_char
 4503              	.LVL431:
ARM GAS  C:\Users\mathi\AppData\Local\Temp\ccXNOisu.s 			page 80


 4504              	.L280:
 4505              		.loc 1 891 0 is_stmt 0 discriminator 2
 4506 1e10 FFF7FEFF 		bl	e_uart2_sending
 4507              	.LVL432:
 4508 1e14 0028     		cmp	r0, #0
 4509 1e16 FBD1     		bne	.L280
 4510              		.loc 1 892 0 is_stmt 1
 4511 1e18 2621     		movs	r1, #38
 4512 1e1a B348     		ldr	r0, .L730+16
 4513 1e1c FFF7FEFF 		bl	e_send_uart2_char
 4514              	.LVL433:
 4515              	.L281:
 4516              		.loc 1 892 0 is_stmt 0 discriminator 2
 4517 1e20 FFF7FEFF 		bl	e_uart2_sending
 4518              	.LVL434:
 4519 1e24 0028     		cmp	r0, #0
 4520 1e26 FBD1     		bne	.L281
 4521              		.loc 1 893 0 is_stmt 1
 4522 1e28 2C21     		movs	r1, #44
 4523 1e2a B048     		ldr	r0, .L730+20
 4524 1e2c FFF7FEFF 		bl	e_send_uart2_char
 4525              	.LVL435:
 4526              	.L282:
 4527              		.loc 1 893 0 is_stmt 0 discriminator 2
 4528 1e30 FFF7FEFF 		bl	e_uart2_sending
 4529              	.LVL436:
 4530 1e34 0028     		cmp	r0, #0
 4531 1e36 FBD1     		bne	.L282
 4532              		.loc 1 895 0 is_stmt 1
 4533 1e38 1721     		movs	r1, #23
 4534 1e3a AD48     		ldr	r0, .L730+24
 4535 1e3c FFF7FEFF 		bl	e_send_uart2_char
 4536              	.LVL437:
 4537              	.L283:
 4538              		.loc 1 895 0 is_stmt 0 discriminator 2
 4539 1e40 FFF7FEFF 		bl	e_uart2_sending
 4540              	.LVL438:
 4541 1e44 0028     		cmp	r0, #0
 4542 1e46 FBD1     		bne	.L283
 4543              		.loc 1 897 0 is_stmt 1
 4544 1e48 1021     		movs	r1, #16
 4545 1e4a AA48     		ldr	r0, .L730+28
 4546 1e4c FFF7FEFF 		bl	e_send_uart2_char
 4547              	.LVL439:
 4548              	.L284:
 4549              		.loc 1 897 0 is_stmt 0 discriminator 2
 4550 1e50 FFF7FEFF 		bl	e_uart2_sending
 4551              	.LVL440:
 4552 1e54 0028     		cmp	r0, #0
 4553 1e56 FBD1     		bne	.L284
 4554              		.loc 1 898 0 is_stmt 1
 4555 1e58 2221     		movs	r1, #34
 4556 1e5a A748     		ldr	r0, .L730+32
 4557 1e5c FFF7FEFF 		bl	e_send_uart2_char
 4558              	.LVL441:
 4559              	.L285:
 4560              		.loc 1 898 0 is_stmt 0 discriminator 2
ARM GAS  C:\Users\mathi\AppData\Local\Temp\ccXNOisu.s 			page 81


 4561 1e60 FFF7FEFF 		bl	e_uart2_sending
 4562              	.LVL442:
 4563 1e64 0028     		cmp	r0, #0
 4564 1e66 FBD1     		bne	.L285
 4565              		.loc 1 899 0 is_stmt 1
 4566 1e68 4D21     		movs	r1, #77
 4567 1e6a A448     		ldr	r0, .L730+36
 4568 1e6c FFF7FEFF 		bl	e_send_uart2_char
 4569              	.LVL443:
 4570              	.L286:
 4571              		.loc 1 899 0 is_stmt 0 discriminator 2
 4572 1e70 FFF7FEFF 		bl	e_uart2_sending
 4573              	.LVL444:
 4574 1e74 0028     		cmp	r0, #0
 4575 1e76 FBD1     		bne	.L286
 4576              		.loc 1 900 0 is_stmt 1
 4577 1e78 2721     		movs	r1, #39
 4578 1e7a A148     		ldr	r0, .L730+40
 4579 1e7c FFF7FEFF 		bl	e_send_uart2_char
 4580              	.LVL445:
 4581              	.L287:
 4582              		.loc 1 900 0 is_stmt 0 discriminator 2
 4583 1e80 FFF7FEFF 		bl	e_uart2_sending
 4584              	.LVL446:
 4585 1e84 0028     		cmp	r0, #0
 4586 1e86 FBD1     		bne	.L287
 4587              		.loc 1 901 0 is_stmt 1
 4588 1e88 2B21     		movs	r1, #43
 4589 1e8a 9E48     		ldr	r0, .L730+44
 4590 1e8c FFF7FEFF 		bl	e_send_uart2_char
 4591              	.LVL447:
 4592              	.L288:
 4593              		.loc 1 901 0 is_stmt 0 discriminator 2
 4594 1e90 FFF7FEFF 		bl	e_uart2_sending
 4595              	.LVL448:
 4596 1e94 0028     		cmp	r0, #0
 4597 1e96 FBD1     		bne	.L288
 4598              		.loc 1 903 0 is_stmt 1
 4599 1e98 1921     		movs	r1, #25
 4600 1e9a 9B48     		ldr	r0, .L730+48
 4601 1e9c FFF7FEFF 		bl	e_send_uart2_char
 4602              	.LVL449:
 4603              	.L289:
 4604              		.loc 1 903 0 is_stmt 0 discriminator 2
 4605 1ea0 FFF7FEFF 		bl	e_uart2_sending
 4606              	.LVL450:
 4607 1ea4 0028     		cmp	r0, #0
 4608 1ea6 FBD1     		bne	.L289
 4609              		.loc 1 905 0 is_stmt 1
 4610 1ea8 1521     		movs	r1, #21
 4611 1eaa 9848     		ldr	r0, .L730+52
 4612 1eac FFF7FEFF 		bl	e_send_uart2_char
 4613              	.LVL451:
 4614              	.L290:
 4615              		.loc 1 905 0 is_stmt 0 discriminator 2
 4616 1eb0 FFF7FEFF 		bl	e_uart2_sending
 4617              	.LVL452:
ARM GAS  C:\Users\mathi\AppData\Local\Temp\ccXNOisu.s 			page 82


 4618 1eb4 0028     		cmp	r0, #0
 4619 1eb6 FBD1     		bne	.L290
 4620              		.loc 1 906 0 is_stmt 1
 4621 1eb8 1921     		movs	r1, #25
 4622 1eba 9548     		ldr	r0, .L730+56
 4623 1ebc FFF7FEFF 		bl	e_send_uart2_char
 4624              	.LVL453:
 4625              	.L291:
 4626              		.loc 1 906 0 is_stmt 0 discriminator 2
 4627 1ec0 FFF7FEFF 		bl	e_uart2_sending
 4628              	.LVL454:
 4629 1ec4 0028     		cmp	r0, #0
 4630 1ec6 FBD1     		bne	.L291
 4631              		.loc 1 907 0 is_stmt 1
 4632 1ec8 2921     		movs	r1, #41
 4633 1eca 9248     		ldr	r0, .L730+60
 4634 1ecc FFF7FEFF 		bl	e_send_uart2_char
 4635              	.LVL455:
 4636              	.L292:
 4637              		.loc 1 907 0 is_stmt 0 discriminator 2
 4638 1ed0 FFF7FEFF 		bl	e_uart2_sending
 4639              	.LVL456:
 4640 1ed4 0028     		cmp	r0, #0
 4641 1ed6 FBD1     		bne	.L292
 4642              		.loc 1 908 0 is_stmt 1
 4643 1ed8 2921     		movs	r1, #41
 4644 1eda 8F48     		ldr	r0, .L730+64
 4645 1edc FFF7FEFF 		bl	e_send_uart2_char
 4646              	.LVL457:
 4647              	.L293:
 4648              		.loc 1 908 0 is_stmt 0 discriminator 2
 4649 1ee0 FFF7FEFF 		bl	e_uart2_sending
 4650              	.LVL458:
 4651 1ee4 0028     		cmp	r0, #0
 4652 1ee6 FBD1     		bne	.L293
 4653              		.loc 1 909 0 is_stmt 1
 4654 1ee8 1821     		movs	r1, #24
 4655 1eea 8C48     		ldr	r0, .L730+68
 4656 1eec FFF7FEFF 		bl	e_send_uart2_char
 4657              	.LVL459:
 4658              	.L294:
 4659              		.loc 1 909 0 is_stmt 0 discriminator 2
 4660 1ef0 FFF7FEFF 		bl	e_uart2_sending
 4661              	.LVL460:
 4662 1ef4 0028     		cmp	r0, #0
 4663 1ef6 FBD1     		bne	.L294
 4664              		.loc 1 910 0 is_stmt 1
 4665 1ef8 2921     		movs	r1, #41
 4666 1efa 8948     		ldr	r0, .L730+72
 4667 1efc FFF7FEFF 		bl	e_send_uart2_char
 4668              	.LVL461:
 4669              	.L295:
 4670              		.loc 1 910 0 is_stmt 0 discriminator 2
 4671 1f00 FFF7FEFF 		bl	e_uart2_sending
 4672              	.LVL462:
 4673 1f04 0028     		cmp	r0, #0
 4674 1f06 FBD1     		bne	.L295
ARM GAS  C:\Users\mathi\AppData\Local\Temp\ccXNOisu.s 			page 83


 4675              		.loc 1 911 0 is_stmt 1
 4676 1f08 2C21     		movs	r1, #44
 4677 1f0a 8648     		ldr	r0, .L730+76
 4678 1f0c FFF7FEFF 		bl	e_send_uart2_char
 4679              	.LVL463:
 4680              	.L296:
 4681              		.loc 1 911 0 is_stmt 0 discriminator 2
 4682 1f10 FFF7FEFF 		bl	e_uart2_sending
 4683              	.LVL464:
 4684 1f14 0028     		cmp	r0, #0
 4685 1f16 FBD1     		bne	.L296
 4686              		.loc 1 912 0 is_stmt 1
 4687 1f18 2421     		movs	r1, #36
 4688 1f1a 8348     		ldr	r0, .L730+80
 4689 1f1c FFF7FEFF 		bl	e_send_uart2_char
 4690              	.LVL465:
 4691              	.L297:
 4692              		.loc 1 912 0 is_stmt 0 discriminator 2
 4693 1f20 FFF7FEFF 		bl	e_uart2_sending
 4694              	.LVL466:
 4695 1f24 0028     		cmp	r0, #0
 4696 1f26 FBD1     		bne	.L297
 4697              		.loc 1 913 0 is_stmt 1
 4698 1f28 1D21     		movs	r1, #29
 4699 1f2a 8048     		ldr	r0, .L730+84
 4700 1f2c FFF7FEFF 		bl	e_send_uart2_char
 4701              	.LVL467:
 4702              	.L298:
 4703              		.loc 1 913 0 is_stmt 0 discriminator 2
 4704 1f30 FFF7FEFF 		bl	e_uart2_sending
 4705              	.LVL468:
 4706 1f34 0028     		cmp	r0, #0
 4707 1f36 FBD1     		bne	.L298
 4708              		.loc 1 914 0 is_stmt 1
 4709 1f38 2521     		movs	r1, #37
 4710 1f3a 7D48     		ldr	r0, .L730+88
 4711 1f3c FFF7FEFF 		bl	e_send_uart2_char
 4712              	.LVL469:
 4713              	.L299:
 4714              		.loc 1 914 0 is_stmt 0 discriminator 2
 4715 1f40 FFF7FEFF 		bl	e_uart2_sending
 4716              	.LVL470:
 4717 1f44 0028     		cmp	r0, #0
 4718 1f46 FBD1     		bne	.L299
 4719              		.loc 1 915 0 is_stmt 1
 4720 1f48 2421     		movs	r1, #36
 4721 1f4a 7A48     		ldr	r0, .L730+92
 4722 1f4c FFF7FEFF 		bl	e_send_uart2_char
 4723              	.LVL471:
 4724              	.L300:
 4725              		.loc 1 915 0 is_stmt 0 discriminator 2
 4726 1f50 FFF7FEFF 		bl	e_uart2_sending
 4727              	.LVL472:
 4728 1f54 0028     		cmp	r0, #0
 4729 1f56 FBD1     		bne	.L300
 4730 1f58 FEF754B9 		b	.L641
 4731              	.L359:
ARM GAS  C:\Users\mathi\AppData\Local\Temp\ccXNOisu.s 			page 84


 4732              		.loc 1 1141 0 is_stmt 1
 4733 1f5c FFF7FEFF 		bl	e_send_uart2_char
 4734              	.LVL473:
 4735              	.L361:
 4736              		.loc 1 1141 0 is_stmt 0 discriminator 2
 4737 1f60 FFF7FEFF 		bl	e_uart2_sending
 4738              	.LVL474:
 4739 1f64 0028     		cmp	r0, #0
 4740 1f66 FBD1     		bne	.L361
 4741 1f68 FEF74CB9 		b	.L641
 4742              	.L223:
 4743              		.loc 1 758 0 is_stmt 1
 4744 1f6c FFF7FEFF 		bl	e_send_uart2_char
 4745              	.LVL475:
 4746              	.L225:
 4747              		.loc 1 758 0 is_stmt 0 discriminator 2
 4748 1f70 FFF7FEFF 		bl	e_uart2_sending
 4749              	.LVL476:
 4750 1f74 0028     		cmp	r0, #0
 4751 1f76 FBD1     		bne	.L225
 4752 1f78 FEF744B9 		b	.L641
 4753              	.L229:
 4754              		.loc 1 780 0 is_stmt 1
 4755 1f7c FFF7FEFF 		bl	e_send_uart2_char
 4756              	.LVL477:
 4757              	.L231:
 4758              		.loc 1 780 0 is_stmt 0 discriminator 2
 4759 1f80 FFF7FEFF 		bl	e_uart2_sending
 4760              	.LVL478:
 4761 1f84 0028     		cmp	r0, #0
 4762 1f86 FBD1     		bne	.L231
 4763 1f88 FEF73CB9 		b	.L641
 4764              	.L347:
 4765              		.loc 1 1110 0 is_stmt 1
 4766 1f8c FFF7FEFF 		bl	e_send_uart2_char
 4767              	.LVL479:
 4768              	.L349:
 4769              		.loc 1 1110 0 is_stmt 0 discriminator 2
 4770 1f90 FFF7FEFF 		bl	e_uart2_sending
 4771              	.LVL480:
 4772 1f94 0028     		cmp	r0, #0
 4773 1f96 FBD1     		bne	.L349
 4774 1f98 FEF734B9 		b	.L641
 4775              	.L217:
 4776              		.loc 1 736 0 is_stmt 1
 4777 1f9c FFF7FEFF 		bl	e_send_uart2_char
 4778              	.LVL481:
 4779              	.L219:
 4780              		.loc 1 736 0 is_stmt 0 discriminator 2
 4781 1fa0 FFF7FEFF 		bl	e_uart2_sending
 4782              	.LVL482:
 4783 1fa4 0028     		cmp	r0, #0
 4784 1fa6 FBD1     		bne	.L219
 4785 1fa8 FEF72CB9 		b	.L641
 4786              	.L220:
 4787              		.loc 1 748 0 is_stmt 1
 4788 1fac FFF7FEFF 		bl	e_send_uart2_char
ARM GAS  C:\Users\mathi\AppData\Local\Temp\ccXNOisu.s 			page 85


 4789              	.LVL483:
 4790              	.L222:
 4791              		.loc 1 748 0 is_stmt 0 discriminator 2
 4792 1fb0 FFF7FEFF 		bl	e_uart2_sending
 4793              	.LVL484:
 4794 1fb4 0028     		cmp	r0, #0
 4795 1fb6 FBD1     		bne	.L222
 4796 1fb8 FEF724B9 		b	.L641
 4797              	.L214:
 4798              		.loc 1 725 0 is_stmt 1
 4799 1fbc FFF7FEFF 		bl	e_send_uart2_char
 4800              	.LVL485:
 4801              	.L216:
 4802              		.loc 1 725 0 is_stmt 0 discriminator 2
 4803 1fc0 FFF7FEFF 		bl	e_uart2_sending
 4804              	.LVL486:
 4805 1fc4 0028     		cmp	r0, #0
 4806 1fc6 FBD1     		bne	.L216
 4807 1fc8 FEF71CB9 		b	.L641
 4808              	.L321:
 4809              		.loc 1 991 0 is_stmt 1
 4810 1fcc FFF7FEFF 		bl	e_send_uart2_char
 4811              	.LVL487:
 4812              	.L323:
 4813              		.loc 1 991 0 is_stmt 0 discriminator 2
 4814 1fd0 FFF7FEFF 		bl	e_uart2_sending
 4815              	.LVL488:
 4816 1fd4 0028     		cmp	r0, #0
 4817 1fd6 FBD1     		bne	.L323
 4818 1fd8 FEF714B9 		b	.L641
 4819              	.L226:
 4820              		.loc 1 769 0 is_stmt 1
 4821 1fdc FFF7FEFF 		bl	e_send_uart2_char
 4822              	.LVL489:
 4823              	.L228:
 4824              		.loc 1 769 0 is_stmt 0 discriminator 2
 4825 1fe0 FFF7FEFF 		bl	e_uart2_sending
 4826              	.LVL490:
 4827 1fe4 0028     		cmp	r0, #0
 4828 1fe6 FBD1     		bne	.L228
 4829 1fe8 FEF70CB9 		b	.L641
 4830              	.L341:
 4831              		.loc 1 1080 0 is_stmt 1
 4832 1fec FFF7FEFF 		bl	e_send_uart2_char
 4833              	.LVL491:
 4834              	.L343:
 4835              		.loc 1 1080 0 is_stmt 0 discriminator 2
 4836 1ff0 FFF7FEFF 		bl	e_uart2_sending
 4837              	.LVL492:
 4838 1ff4 0028     		cmp	r0, #0
 4839 1ff6 FBD1     		bne	.L343
 4840 1ff8 FEF704B9 		b	.L641
 4841              	.L394:
 4842              		.loc 1 1244 0 is_stmt 1
 4843 1ffc FFF7FEFF 		bl	e_send_uart2_char
 4844              	.LVL493:
 4845              	.L396:
ARM GAS  C:\Users\mathi\AppData\Local\Temp\ccXNOisu.s 			page 86


 4846              		.loc 1 1244 0 is_stmt 0 discriminator 2
 4847 2000 FFF7FEFF 		bl	e_uart2_sending
 4848              	.LVL494:
 4849 2004 0028     		cmp	r0, #0
 4850 2006 FBD1     		bne	.L396
 4851 2008 FEF7FCB8 		b	.L641
 4852              	.L338:
 4853              		.loc 1 1068 0 is_stmt 1
 4854 200c FFF7FEFF 		bl	e_send_uart2_char
 4855              	.LVL495:
 4856              	.L340:
 4857              		.loc 1 1068 0 is_stmt 0 discriminator 2
 4858 2010 FFF7FEFF 		bl	e_uart2_sending
 4859              	.LVL496:
 4860 2014 0028     		cmp	r0, #0
 4861 2016 FBD1     		bne	.L340
 4862 2018 FEF7F4B8 		b	.L641
 4863              	.L367:
 4864              		.loc 1 1167 0 is_stmt 1
 4865 201c FFF7FEFF 		bl	e_send_uart2_char
 4866              	.LVL497:
 4867              	.L369:
 4868              		.loc 1 1167 0 is_stmt 0 discriminator 2
 4869 2020 FFF7FEFF 		bl	e_uart2_sending
 4870              	.LVL498:
 4871 2024 0028     		cmp	r0, #0
 4872 2026 FBD1     		bne	.L369
 4873 2028 FEF7ECB8 		b	.L641
 4874              	.L344:
 4875              		.loc 1 1090 0 is_stmt 1
 4876 202c FFF7FEFF 		bl	e_send_uart2_char
 4877              	.LVL499:
 4878              	.L346:
 4879              		.loc 1 1090 0 is_stmt 0 discriminator 2
 4880 2030 FFF7FEFF 		bl	e_uart2_sending
 4881              	.LVL500:
 4882 2034 0028     		cmp	r0, #0
 4883 2036 FBD1     		bne	.L346
 4884 2038 FEF7E4B8 		b	.L641
 4885              	.L706:
 4886              		.loc 1 704 0 is_stmt 1
 4887 203c 3E48     		ldr	r0, .L730+96
 4888 203e FFF7FEFF 		bl	strlen
 4889              	.LVL501:
 4890 2042 0146     		mov	r1, r0
 4891 2044 3C48     		ldr	r0, .L730+96
 4892 2046 FFF7FEFF 		bl	e_send_uart2_char
 4893              	.LVL502:
 4894              	.L210:
 4895              		.loc 1 704 0 is_stmt 0 discriminator 2
 4896 204a FFF7FEFF 		bl	e_uart2_sending
 4897              	.LVL503:
 4898 204e 0028     		cmp	r0, #0
 4899 2050 FBD1     		bne	.L210
 4900 2052 FEF7D7B8 		b	.L641
 4901              	.L705:
 4902              		.loc 1 1156 0 is_stmt 1
ARM GAS  C:\Users\mathi\AppData\Local\Temp\ccXNOisu.s 			page 87


 4903 2056 3848     		ldr	r0, .L730+96
 4904 2058 FFF7FEFF 		bl	strlen
 4905              	.LVL504:
 4906 205c 0146     		mov	r1, r0
 4907 205e 3648     		ldr	r0, .L730+96
 4908 2060 FFF7FEFF 		bl	e_send_uart2_char
 4909              	.LVL505:
 4910              	.L366:
 4911              		.loc 1 1156 0 is_stmt 0 discriminator 2
 4912 2064 FFF7FEFF 		bl	e_uart2_sending
 4913              	.LVL506:
 4914 2068 0028     		cmp	r0, #0
 4915 206a FBD1     		bne	.L366
 4916 206c FEF7CAB8 		b	.L641
 4917              	.L335:
 4918              		.loc 1 1056 0 is_stmt 1
 4919 2070 FFF7FEFF 		bl	e_send_uart2_char
 4920              	.LVL507:
 4921              	.L337:
 4922              		.loc 1 1056 0 is_stmt 0 discriminator 2
 4923 2074 FFF7FEFF 		bl	e_uart2_sending
 4924              	.LVL508:
 4925 2078 0028     		cmp	r0, #0
 4926 207a FBD1     		bne	.L337
 4927 207c FEF7C2B8 		b	.L641
 4928              	.L211:
 4929              		.loc 1 714 0 is_stmt 1
 4930 2080 FFF7FEFF 		bl	e_send_uart2_char
 4931              	.LVL509:
 4932              	.L213:
 4933              		.loc 1 714 0 is_stmt 0 discriminator 2
 4934 2084 FFF7FEFF 		bl	e_uart2_sending
 4935              	.LVL510:
 4936 2088 0028     		cmp	r0, #0
 4937 208a FBD1     		bne	.L213
 4938 208c FEF7BAB8 		b	.L641
 4939              	.L351:
 4940              		.loc 1 1131 0 is_stmt 1
 4941 2090 FFF7FEFF 		bl	e_close_sound
 4942              	.LVL511:
 4943              		.loc 1 1132 0
 4944 2094 FFF7FEFF 		bl	stopCurrentMelody
 4945              	.LVL512:
 4946              		.loc 1 1133 0
 4947 2098 284A     		ldr	r2, .L730+100
 4948 209a 0023     		movs	r3, #0
 4949 209c 1370     		strb	r3, [r2]
 4950              		.loc 1 1134 0
 4951 209e 49E4     		b	.L358
 4952              	.L378:
 4953              		.loc 1 1196 0
 4954 20a0 FFF7FEFF 		bl	e_send_uart2_char
 4955              	.LVL513:
 4956              	.L380:
 4957              		.loc 1 1196 0 is_stmt 0 discriminator 2
 4958 20a4 FFF7FEFF 		bl	e_uart2_sending
 4959              	.LVL514:
ARM GAS  C:\Users\mathi\AppData\Local\Temp\ccXNOisu.s 			page 88


 4960 20a8 0028     		cmp	r0, #0
 4961 20aa FBD1     		bne	.L380
 4962 20ac FEF7AAB8 		b	.L641
 4963              	.L310:
 4964              		.loc 1 955 0 is_stmt 1
 4965 20b0 FFF7FEFF 		bl	e_send_uart2_char
 4966              	.LVL515:
 4967              	.L312:
 4968              		.loc 1 955 0 is_stmt 0 discriminator 2
 4969 20b4 FFF7FEFF 		bl	e_uart2_sending
 4970              	.LVL516:
 4971 20b8 0028     		cmp	r0, #0
 4972 20ba FBD1     		bne	.L312
 4973 20bc FEF7A2B8 		b	.L641
 4974              	.L301:
 4975              		.loc 1 924 0 is_stmt 1
 4976 20c0 FFF7FEFF 		bl	strlen
 4977              	.LVL517:
 4978 20c4 0146     		mov	r1, r0
 4979 20c6 1C48     		ldr	r0, .L730+96
 4980 20c8 FFF7FEFF 		bl	e_send_uart2_char
 4981              	.LVL518:
 4982              	.L303:
 4983              		.loc 1 924 0 is_stmt 0 discriminator 2
 4984 20cc FFF7FEFF 		bl	e_uart2_sending
 4985              	.LVL519:
 4986 20d0 0028     		cmp	r0, #0
 4987 20d2 FBD1     		bne	.L303
 4988 20d4 FEF796B8 		b	.L641
 4989              	.L731:
 4990              		.align	2
 4991              	.L730:
 4992 20d8 00060000 		.word	.LC45
 4993 20dc 44060000 		.word	.LC47
 4994 20e0 70060000 		.word	.LC48
 4995 20e4 90060000 		.word	.LC49
 4996 20e8 B8060000 		.word	.LC50
 4997 20ec E0060000 		.word	.LC51
 4998 20f0 10070000 		.word	.LC52
 4999 20f4 28070000 		.word	.LC53
 5000 20f8 3C070000 		.word	.LC54
 5001 20fc 60070000 		.word	.LC55
 5002 2100 B0070000 		.word	.LC56
 5003 2104 D8070000 		.word	.LC57
 5004 2108 04080000 		.word	.LC58
 5005 210c 20080000 		.word	.LC59
 5006 2110 38080000 		.word	.LC60
 5007 2114 54080000 		.word	.LC61
 5008 2118 80080000 		.word	.LC62
 5009 211c AC080000 		.word	.LC63
 5010 2120 C8080000 		.word	.LC64
 5011 2124 F4080000 		.word	.LC65
 5012 2128 24090000 		.word	.LC66
 5013 212c 4C090000 		.word	.LC67
 5014 2130 6C090000 		.word	.LC68
 5015 2134 94090000 		.word	.LC69
 5016 2138 00000000 		.word	buffer
ARM GAS  C:\Users\mathi\AppData\Local\Temp\ccXNOisu.s 			page 89


 5017 213c 00000000 		.word	.LANCHOR8
 5018              	.L304:
 5019              		.loc 1 936 0 is_stmt 1
 5020 2140 109B     		ldr	r3, [sp, #64]
 5021 2142 1A68     		ldr	r2, [r3]
 5022 2144 119B     		ldr	r3, [sp, #68]
 5023 2146 1B68     		ldr	r3, [r3]
 5024 2148 03FB02F3 		mul	r3, r3, r2
 5025 214c 5B00     		lsls	r3, r3, #1
 5026 214e FEF7B5BF 		b	.L305
 5027              	.L274:
 5028              		.loc 1 887 0
 5029 2152 2721     		movs	r1, #39
 5030 2154 4848     		ldr	r0, .L732
 5031 2156 FFF7FEFF 		bl	e_send_uart2_char
 5032              	.LVL520:
 5033              	.L277:
 5034              		.loc 1 887 0 is_stmt 0 discriminator 2
 5035 215a FFF7FEFF 		bl	e_uart2_sending
 5036              	.LVL521:
 5037 215e 0028     		cmp	r0, #0
 5038 2160 FBD1     		bne	.L277
 5039 2162 41E6     		b	.L276
 5040              	.L241:
 5041              		.loc 1 845 0 is_stmt 1
 5042 2164 2F21     		movs	r1, #47
 5043 2166 4548     		ldr	r0, .L732+4
 5044 2168 FFF7FEFF 		bl	e_send_uart1_char
 5045              	.LVL522:
 5046              	.L244:
 5047              		.loc 1 845 0 is_stmt 0 discriminator 2
 5048 216c FFF7FEFF 		bl	e_uart1_sending
 5049              	.LVL523:
 5050 2170 0028     		cmp	r0, #0
 5051 2172 FBD1     		bne	.L244
 5052 2174 FFF7E8BA 		b	.L243
 5053              	.L332:
 5054              		.loc 1 1034 0 is_stmt 1
 5055 2178 FFF7FEFF 		bl	strlen
 5056              	.LVL524:
 5057 217c 0146     		mov	r1, r0
 5058 217e 4048     		ldr	r0, .L732+8
 5059 2180 FFF7FEFF 		bl	e_send_uart2_char
 5060              	.LVL525:
 5061              	.L334:
 5062              		.loc 1 1034 0 is_stmt 0 discriminator 2
 5063 2184 FFF7FEFF 		bl	e_uart2_sending
 5064              	.LVL526:
 5065 2188 0028     		cmp	r0, #0
 5066 218a FBD1     		bne	.L334
 5067 218c FEF73AB8 		b	.L641
 5068              	.L386:
 5069              		.loc 1 1217 0 is_stmt 1
 5070 2190 FFF7FEFF 		bl	e_send_uart2_char
 5071              	.LVL527:
 5072              	.L388:
 5073              		.loc 1 1217 0 is_stmt 0 discriminator 2
ARM GAS  C:\Users\mathi\AppData\Local\Temp\ccXNOisu.s 			page 90


 5074 2194 FFF7FEFF 		bl	e_uart2_sending
 5075              	.LVL528:
 5076 2198 0028     		cmp	r0, #0
 5077 219a FBD1     		bne	.L388
 5078 219c FEF732B8 		b	.L641
 5079              	.L381:
 5080              		.loc 1 1207 0 is_stmt 1
 5081 21a0 FFF7FEFF 		bl	strlen
 5082              	.LVL529:
 5083 21a4 0146     		mov	r1, r0
 5084 21a6 3648     		ldr	r0, .L732+8
 5085 21a8 FFF7FEFF 		bl	e_send_uart2_char
 5086              	.LVL530:
 5087              	.L384:
 5088              		.loc 1 1207 0 is_stmt 0 discriminator 2
 5089 21ac FFF7FEFF 		bl	e_uart2_sending
 5090              	.LVL531:
 5091 21b0 0028     		cmp	r0, #0
 5092 21b2 FBD1     		bne	.L384
 5093 21b4 FFF708B8 		b	.L383
 5094              	.L707:
 5095              		.loc 1 855 0 is_stmt 1
 5096 21b8 1821     		movs	r1, #24
 5097 21ba 3248     		ldr	r0, .L732+12
 5098 21bc FFF7FEFF 		bl	e_send_uart1_char
 5099              	.LVL532:
 5100              	.L251:
 5101              		.loc 1 855 0 is_stmt 0 discriminator 2
 5102 21c0 FFF7FEFF 		bl	e_uart1_sending
 5103              	.LVL533:
 5104 21c4 0028     		cmp	r0, #0
 5105 21c6 FBD1     		bne	.L251
 5106 21c8 FFF7EBBA 		b	.L250
 5107              	.L709:
 5108              		.loc 1 882 0 is_stmt 1
 5109 21cc 1921     		movs	r1, #25
 5110 21ce 2E48     		ldr	r0, .L732+16
 5111 21d0 FFF7FEFF 		bl	e_send_uart2_char
 5112              	.LVL534:
 5113              	.L273:
 5114              		.loc 1 882 0 is_stmt 0 discriminator 2
 5115 21d4 FFF7FEFF 		bl	e_uart2_sending
 5116              	.LVL535:
 5117 21d8 0028     		cmp	r0, #0
 5118 21da FBD1     		bne	.L273
 5119 21dc F7E5     		b	.L272
 5120              	.L708:
 5121              		.loc 1 873 0 is_stmt 1
 5122 21de 1F21     		movs	r1, #31
 5123 21e0 2A48     		ldr	r0, .L732+20
 5124 21e2 FFF7FEFF 		bl	e_send_uart1_char
 5125              	.LVL536:
 5126              	.L266:
 5127              		.loc 1 873 0 is_stmt 0 discriminator 2
 5128 21e6 FFF7FEFF 		bl	e_uart1_sending
 5129              	.LVL537:
 5130 21ea 0028     		cmp	r0, #0
ARM GAS  C:\Users\mathi\AppData\Local\Temp\ccXNOisu.s 			page 91


 5131 21ec FBD1     		bne	.L266
 5132 21ee FFF745BB 		b	.L265
 5133              	.L204:
 5134              		.loc 1 708 0 is_stmt 1
 5135 21f2 FFF7FEFF 		bl	getBatteryValueRaw
 5136              	.LVL538:
 5137 21f6 0446     		mov	r4, r0
 5138 21f8 FFF7FEFF 		bl	getBatteryValuePercentage
 5139              	.LVL539:
 5140 21fc 2246     		mov	r2, r4
 5141 21fe 0346     		mov	r3, r0
 5142 2200 2349     		ldr	r1, .L732+24
 5143 2202 1F48     		ldr	r0, .L732+8
 5144 2204 FFF7FEFF 		bl	sprintf
 5145              	.LVL540:
 5146              		.loc 1 709 0
 5147 2208 002F     		cmp	r7, #0
 5148 220a 3FF446AD 		beq	.L401
 5149 220e FDF765BF 		b	.L6
 5150              	.LVL541:
 5151              	.L685:
 5152              	.LBE6:
 5153              		.loc 1 147 0
 5154 2212 FFF7FEFF 		bl	e_acc_calibr
 5155              	.LVL542:
 5156              		.loc 1 148 0
 5157 2216 5821     		movs	r1, #88
 5158 2218 1E48     		ldr	r0, .L732+28
 5159 221a FFF7FEFF 		bl	e_send_uart2_char
 5160              	.LVL543:
 5161              	.L8:
 5162              		.loc 1 148 0 is_stmt 0 discriminator 2
 5163 221e FFF7FEFF 		bl	e_uart2_sending
 5164              	.LVL544:
 5165 2222 0790     		str	r0, [sp, #28]
 5166 2224 0028     		cmp	r0, #0
 5167 2226 FAD1     		bne	.L8
 5168              		.loc 1 100 0 is_stmt 1
 5169 2228 0746     		mov	r7, r0
 5170 222a FDF74CBF 		b	.L3
 5171              	.LVL545:
 5172              	.L684:
 5173              		.loc 1 103 0
 5174 222e FFF7FEFF 		bl	mountSDCard
 5175              	.LVL546:
 5176              		.loc 1 123 0
 5177 2232 194C     		ldr	r4, .L732+32
 5178              		.loc 1 127 0
 5179 2234 194B     		ldr	r3, .L732+36
 5180              		.loc 1 128 0
 5181 2236 1A49     		ldr	r1, .L732+40
 5182              		.loc 1 125 0
 5183 2238 1A4D     		ldr	r5, .L732+44
 5184              		.loc 1 126 0
 5185 223a 1B4E     		ldr	r6, .L732+48
 5186              		.loc 1 127 0
 5187 223c 1393     		str	r3, [sp, #76]
ARM GAS  C:\Users\mathi\AppData\Local\Temp\ccXNOisu.s 			page 92


 5188              		.loc 1 128 0
 5189 223e 0E91     		str	r1, [sp, #56]
 5190              		.loc 1 123 0
 5191 2240 1294     		str	r4, [sp, #72]
 5192              		.loc 1 125 0
 5193 2242 1095     		str	r5, [sp, #64]
 5194              		.loc 1 126 0
 5195 2244 1196     		str	r6, [sp, #68]
 5196              		.loc 1 112 0
 5197 2246 FFF7FEFF 		bl	e_init_remote_control
 5198              	.LVL547:
 5199              		.loc 1 120 0
 5200 224a 0123     		movs	r3, #1
 5201 224c 174A     		ldr	r2, .L732+52
 5202 224e 4FF6FE71 		movw	r1, #65534
 5203 2252 7F20     		movs	r0, #127
 5204 2254 FFF7FEFF 		bl	ReadEE
 5205              	.LVL548:
 5206              		.loc 1 127 0
 5207 2258 104A     		ldr	r2, .L732+36
 5208 225a 0821     		movs	r1, #8
 5209              		.loc 1 125 0
 5210 225c 2823     		movs	r3, #40
 5211              		.loc 1 127 0
 5212 225e 1160     		str	r1, [r2]
 5213              		.loc 1 128 0
 5214 2260 0F49     		ldr	r1, .L732+40
 5215              		.loc 1 125 0
 5216 2262 2B60     		str	r3, [r5]
 5217              		.loc 1 126 0
 5218 2264 3360     		str	r3, [r6]
 5219              		.loc 1 128 0
 5220 2266 4FF44863 		mov	r3, #3200
 5221              		.loc 1 123 0
 5222 226a 0127     		movs	r7, #1
 5223              		.loc 1 128 0
 5224 226c 0B60     		str	r3, [r1]
 5225              		.loc 1 95 0
 5226 226e 0023     		movs	r3, #0
 5227              		.loc 1 123 0
 5228 2270 2760     		str	r7, [r4]
 5229              		.loc 1 95 0
 5230 2272 0793     		str	r3, [sp, #28]
 5231 2274 FDF727BF 		b	.L3
 5232              	.L733:
 5233              		.align	2
 5234              	.L732:
 5235 2278 1C060000 		.word	.LC46
 5236 227c 94010000 		.word	.LC19
 5237 2280 00000000 		.word	buffer
 5238 2284 A0020000 		.word	.LC25
 5239 2288 E4050000 		.word	.LC44
 5240 228c 14050000 		.word	.LC39
 5241 2290 78000000 		.word	.LC3
 5242 2294 00000000 		.word	.LC0
 5243 2298 00000000 		.word	.LANCHOR1
 5244 229c 00000000 		.word	.LANCHOR4
ARM GAS  C:\Users\mathi\AppData\Local\Temp\ccXNOisu.s 			page 93


 5245 22a0 00000000 		.word	.LANCHOR5
 5246 22a4 00000000 		.word	.LANCHOR2
 5247 22a8 00000000 		.word	.LANCHOR3
 5248 22ac 00000000 		.word	.LANCHOR0
 5249              		.cfi_endproc
 5250              	.LFE260:
 5251              		.size	run_asercom2, .-run_asercom2
 5252              		.section	.bss.LED_action.13542,"aw",%nobits
 5253              		.align	2
 5254              		.set	.LANCHOR27,. + 0
 5255              		.type	LED_action.13542, %object
 5256              		.size	LED_action.13542, 4
 5257              	LED_action.13542:
 5258 0000 00000000 		.space	4
 5259              		.section	.bss.LED_nbr.13541,"aw",%nobits
 5260              		.align	2
 5261              		.set	.LANCHOR30,. + 0
 5262              		.type	LED_nbr.13541, %object
 5263              		.size	LED_nbr.13541, 4
 5264              	LED_nbr.13541:
 5265 0000 00000000 		.space	4
 5266              		.section	.bss.accelero.13566,"aw",%nobits
 5267              		.align	2
 5268              		.set	.LANCHOR15,. + 0
 5269              		.type	accelero.13566, %object
 5270              		.size	accelero.13566, 12
 5271              	accelero.13566:
 5272 0000 00000000 		.space	12
 5272      00000000 
 5272      00000000 
 5273              		.section	.bss.accx.13543,"aw",%nobits
 5274              		.align	2
 5275              		.set	.LANCHOR12,. + 0
 5276              		.type	accx.13543, %object
 5277              		.size	accx.13543, 4
 5278              	accx.13543:
 5279 0000 00000000 		.space	4
 5280              		.section	.bss.accy.13544,"aw",%nobits
 5281              		.align	2
 5282              		.set	.LANCHOR13,. + 0
 5283              		.type	accy.13544, %object
 5284              		.size	accy.13544, 4
 5285              	accy.13544:
 5286 0000 00000000 		.space	4
 5287              		.section	.bss.accz.13545,"aw",%nobits
 5288              		.align	2
 5289              		.set	.LANCHOR14,. + 0
 5290              		.type	accz.13545, %object
 5291              		.size	accz.13545, 4
 5292              	accz.13545:
 5293 0000 00000000 		.space	4
 5294              		.section	.bss.c1.13531,"aw",%nobits
 5295              		.set	.LANCHOR16,. + 0
 5296              		.type	c1.13531, %object
 5297              		.size	c1.13531, 1
 5298              	c1.13531:
 5299 0000 00       		.space	1
ARM GAS  C:\Users\mathi\AppData\Local\Temp\ccXNOisu.s 			page 94


 5300              		.section	.bss.c2.13532,"aw",%nobits
 5301              		.set	.LANCHOR17,. + 0
 5302              		.type	c2.13532, %object
 5303              		.size	c2.13532, 1
 5304              	c2.13532:
 5305 0000 00       		.space	1
 5306              		.section	.bss.cam_heigth.13552,"aw",%nobits
 5307              		.align	2
 5308              		.set	.LANCHOR3,. + 0
 5309              		.type	cam_heigth.13552, %object
 5310              		.size	cam_heigth.13552, 4
 5311              	cam_heigth.13552:
 5312 0000 00000000 		.space	4
 5313              		.section	.bss.cam_mode.13550,"aw",%nobits
 5314              		.align	2
 5315              		.set	.LANCHOR1,. + 0
 5316              		.type	cam_mode.13550, %object
 5317              		.size	cam_mode.13550, 4
 5318              	cam_mode.13550:
 5319 0000 00000000 		.space	4
 5320              		.section	.bss.cam_size.13554,"aw",%nobits
 5321              		.align	2
 5322              		.set	.LANCHOR5,. + 0
 5323              		.type	cam_size.13554, %object
 5324              		.size	cam_size.13554, 4
 5325              	cam_size.13554:
 5326 0000 00000000 		.space	4
 5327              		.section	.bss.cam_width.13551,"aw",%nobits
 5328              		.align	2
 5329              		.set	.LANCHOR2,. + 0
 5330              		.type	cam_width.13551, %object
 5331              		.size	cam_width.13551, 4
 5332              	cam_width.13551:
 5333 0000 00000000 		.space	4
 5334              		.section	.bss.cam_x1.13555,"aw",%nobits
 5335              		.align	2
 5336              		.set	.LANCHOR28,. + 0
 5337              		.type	cam_x1.13555, %object
 5338              		.size	cam_x1.13555, 4
 5339              	cam_x1.13555:
 5340 0000 00000000 		.space	4
 5341              		.section	.bss.cam_y1.13556,"aw",%nobits
 5342              		.align	2
 5343              		.set	.LANCHOR29,. + 0
 5344              		.type	cam_y1.13556, %object
 5345              		.size	cam_y1.13556, 4
 5346              	cam_y1.13556:
 5347 0000 00000000 		.space	4
 5348              		.section	.bss.cam_zoom.13553,"aw",%nobits
 5349              		.align	2
 5350              		.set	.LANCHOR4,. + 0
 5351              		.type	cam_zoom.13553, %object
 5352              		.size	cam_zoom.13553, 4
 5353              	cam_zoom.13553:
 5354 0000 00000000 		.space	4
 5355              		.section	.bss.first.13557,"aw",%nobits
 5356              		.set	.LANCHOR8,. + 0
ARM GAS  C:\Users\mathi\AppData\Local\Temp\ccXNOisu.s 			page 95


 5357              		.type	first.13557, %object
 5358              		.size	first.13557, 1
 5359              	first.13557:
 5360 0000 00       		.space	1
 5361              		.section	.bss.gyrox.13547,"aw",%nobits
 5362              		.align	2
 5363              		.set	.LANCHOR20,. + 0
 5364              		.type	gyrox.13547, %object
 5365              		.size	gyrox.13547, 4
 5366              	gyrox.13547:
 5367 0000 00000000 		.space	4
 5368              		.section	.bss.gyroy.13548,"aw",%nobits
 5369              		.align	2
 5370              		.set	.LANCHOR19,. + 0
 5371              		.type	gyroy.13548, %object
 5372              		.size	gyroy.13548, 4
 5373              	gyroy.13548:
 5374 0000 00000000 		.space	4
 5375              		.section	.bss.gyroz.13549,"aw",%nobits
 5376              		.align	2
 5377              		.set	.LANCHOR18,. + 0
 5378              		.type	gyroz.13549, %object
 5379              		.size	gyroz.13549, 4
 5380              	gyroz.13549:
 5381 0000 00000000 		.space	4
 5382              		.section	.bss.i.13534,"aw",%nobits
 5383              		.align	2
 5384              		.set	.LANCHOR9,. + 0
 5385              		.type	i.13534, %object
 5386              		.size	i.13534, 4
 5387              	i.13534:
 5388 0000 00000000 		.space	4
 5389              		.section	.bss.j.13535,"aw",%nobits
 5390              		.align	2
 5391              		.set	.LANCHOR10,. + 0
 5392              		.type	j.13535, %object
 5393              		.size	j.13535, 4
 5394              	j.13535:
 5395 0000 00000000 		.space	4
 5396              		.section	.bss.mod.13560,"aw",%nobits
 5397              		.align	2
 5398              		.set	.LANCHOR24,. + 0
 5399              		.type	mod.13560, %object
 5400              		.size	mod.13560, 4
 5401              	mod.13560:
 5402 0000 00000000 		.space	4
 5403              		.section	.bss.positionl.13540,"aw",%nobits
 5404              		.align	2
 5405              		.set	.LANCHOR22,. + 0
 5406              		.type	positionl.13540, %object
 5407              		.size	positionl.13540, 4
 5408              	positionl.13540:
 5409 0000 00000000 		.space	4
 5410              		.section	.bss.positionr.13539,"aw",%nobits
 5411              		.align	2
 5412              		.set	.LANCHOR23,. + 0
 5413              		.type	positionr.13539, %object
ARM GAS  C:\Users\mathi\AppData\Local\Temp\ccXNOisu.s 			page 96


 5414              		.size	positionr.13539, 4
 5415              	positionr.13539:
 5416 0000 00000000 		.space	4
 5417              		.section	.bss.reg.13561,"aw",%nobits
 5418              		.align	2
 5419              		.set	.LANCHOR25,. + 0
 5420              		.type	reg.13561, %object
 5421              		.size	reg.13561, 4
 5422              	reg.13561:
 5423 0000 00000000 		.space	4
 5424              		.section	.bss.rgb_value.13558,"aw",%nobits
 5425              		.align	2
 5426              		.set	.LANCHOR11,. + 0
 5427              		.type	rgb_value.13558, %object
 5428              		.size	rgb_value.13558, 12
 5429              	rgb_value.13558:
 5430 0000 00000000 		.space	12
 5430      00000000 
 5430      00000000 
 5431              		.section	.bss.sound.13546,"aw",%nobits
 5432              		.align	2
 5433              		.set	.LANCHOR31,. + 0
 5434              		.type	sound.13546, %object
 5435              		.size	sound.13546, 4
 5436              	sound.13546:
 5437 0000 00000000 		.space	4
 5438              		.section	.bss.speedl.13538,"aw",%nobits
 5439              		.align	2
 5440              		.set	.LANCHOR7,. + 0
 5441              		.type	speedl.13538, %object
 5442              		.size	speedl.13538, 4
 5443              	speedl.13538:
 5444 0000 00000000 		.space	4
 5445              		.section	.bss.speedr.13537,"aw",%nobits
 5446              		.align	2
 5447              		.set	.LANCHOR6,. + 0
 5448              		.type	speedr.13537, %object
 5449              		.size	speedr.13537, 4
 5450              	speedr.13537:
 5451 0000 00000000 		.space	4
 5452              		.section	.bss.val.13562,"aw",%nobits
 5453              		.align	2
 5454              		.set	.LANCHOR26,. + 0
 5455              		.type	val.13562, %object
 5456              		.size	val.13562, 4
 5457              	val.13562:
 5458 0000 00000000 		.space	4
 5459              		.section	.bss.wait_cam.13533,"aw",%nobits
 5460              		.set	.LANCHOR21,. + 0
 5461              		.type	wait_cam.13533, %object
 5462              		.size	wait_cam.13533, 1
 5463              	wait_cam.13533:
 5464 0000 00       		.space	1
 5465              		.section	.data.HWversion.13571,"aw",%progbits
 5466              		.align	2
 5467              		.set	.LANCHOR0,. + 0
 5468              		.type	HWversion.13571, %object
ARM GAS  C:\Users\mathi\AppData\Local\Temp\ccXNOisu.s 			page 97


 5469              		.size	HWversion.13571, 4
 5470              	HWversion.13571:
 5471 0000 FFFF0000 		.word	65535
 5472              		.section	.rodata.run_asercom2.str1.4,"aMS",%progbits,1
 5473              		.align	2
 5474              	.LC0:
 5475 0000 0C075745 		.ascii	"\014\007WELCOME to the SerCom protocol on e-Puck\015"
 5475      4C434F4D 
 5475      4520746F 
 5475      20746865 
 5475      20536572 
 5476 002b 0A746865 		.ascii	"\012the EPFL education robot type \"H\" for help\015"
 5476      20455046 
 5476      4C206564 
 5476      75636174 
 5476      696F6E20 
 5477 0057 0A00     		.ascii	"\012\000"
 5478 0059 000000   		.space	3
 5479              	.LC1:
 5480 005c 612C2564 		.ascii	"a,%d,%d,%d\015\012\000"
 5480      2C25642C 
 5480      25640D0A 
 5480      00
 5481 0069 000000   		.space	3
 5482              	.LC2:
 5483 006c 612C302C 		.ascii	"a,0,0,0\015\012\000"
 5483      302C300D 
 5483      0A00
 5484 0076 0000     		.space	2
 5485              	.LC3:
 5486 0078 622C2564 		.ascii	"b,%d (%d%%)\015\012\000"
 5486      20282564 
 5486      2525290D 
 5486      0A00
 5487 0086 0000     		.space	2
 5488              	.LC4:
 5489 0088 422C2564 		.ascii	"B,%d\015\000"
 5489      0D00
 5490 008e 0000     		.space	2
 5491              	.LC5:
 5492 0090 620D0A00 		.ascii	"b\015\012\000"
 5493              	.LC6:
 5494 0094 632C2564 		.ascii	"c,%d\015\012\000"
 5494      0D0A00
 5495 009b 00       		.space	1
 5496              	.LC7:
 5497 009c 442C2564 		.ascii	"D,%d,%d\015\000"
 5497      2C25640D 
 5497      00
 5498 00a5 000000   		.space	3
 5499              	.LC8:
 5500 00a8 640D0A00 		.ascii	"d\015\012\000"
 5501              	.LC9:
 5502 00ac 652C2564 		.ascii	"e,%d,%d\015\012\000"
 5502      2C25640D 
 5502      0A00
 5503 00b6 0000     		.space	2
ARM GAS  C:\Users\mathi\AppData\Local\Temp\ccXNOisu.s 			page 98


 5504              	.LC10:
 5505 00b8 462C2564 		.ascii	"F,%d\015\000"
 5505      0D00
 5506 00be 0000     		.space	2
 5507              	.LC11:
 5508 00c0 660D0A00 		.ascii	"f\015\012\000"
 5509              	.LC12:
 5510 00c4 67204952 		.ascii	"g IR check : 0x%x, address : 0x%x, data : 0x%x\015\012"
 5510      20636865 
 5510      636B203A 
 5510      20307825 
 5510      782C2061 
 5511 00f4 00       		.ascii	"\000"
 5512 00f5 000000   		.space	3
 5513              	.LC13:
 5514 00f8 672C2564 		.ascii	"g,%d,%d,%d\015\012\000"
 5514      2C25642C 
 5514      25640D0A 
 5514      00
 5515 0105 000000   		.space	3
 5516              	.LC14:
 5517 0108 672C302C 		.ascii	"g,0,0,0\015\012\000"
 5517      302C300D 
 5517      0A00
 5518 0112 0000     		.space	2
 5519              	.LC15:
 5520 0114 0A00     		.ascii	"\012\000"
 5521 0116 0000     		.space	2
 5522              	.LC16:
 5523 0118 22412220 		.ascii	"\"A\"               Accelerometer\015\012\000"
 5523      20202020 
 5523      20202020 
 5523      20202020 
 5523      20204163 
 5524 013a 0000     		.space	2
 5525              	.LC17:
 5526 013c 22422C23 		.ascii	"\"B,#\"             Body led 0=off 1=on 2=inverse\015"
 5526      22202020 
 5526      20202020 
 5526      20202020 
 5526      2020426F 
 5527 016c 0A00     		.ascii	"\012\000"
 5528 016e 0000     		.space	2
 5529              	.LC18:
 5530 0170 22622220 		.ascii	"\"b\"               Battery value\015\012\000"
 5530      20202020 
 5530      20202020 
 5530      20202020 
 5530      20204261 
 5531 0192 0000     		.space	2
 5532              	.LC19:
 5533 0194 22622220 		.ascii	"\"b\"               Battery state (1=ok, 0=low)\015"
 5533      20202020 
 5533      20202020 
 5533      20202020 
 5533      20204261 
 5534 01c2 0A00     		.ascii	"\012\000"
ARM GAS  C:\Users\mathi\AppData\Local\Temp\ccXNOisu.s 			page 99


 5535              	.LC20:
 5536 01c4 22432220 		.ascii	"\"C\"               Selector position\015\012\000"
 5536      20202020 
 5536      20202020 
 5536      20202020 
 5536      20205365 
 5537 01ea 0000     		.space	2
 5538              	.LC21:
 5539 01ec 22442C23 		.ascii	"\"D,#,#\"           Set motor speed left,right\015\012"
 5539      2C232220 
 5539      20202020 
 5539      20202020 
 5539      20205365 
 5540 021a 00       		.ascii	"\000"
 5541 021b 00       		.space	1
 5542              	.LC22:
 5543 021c 22452220 		.ascii	"\"E\"               Get motor speed left,right\015\012"
 5543      20202020 
 5543      20202020 
 5543      20202020 
 5543      20204765 
 5544 024a 00       		.ascii	"\000"
 5545 024b 00       		.space	1
 5546              	.LC23:
 5547 024c 22462C23 		.ascii	"\"F,#\"             Front led 0=off 1=on 2=inverse\015"
 5547      22202020 
 5547      20202020 
 5547      20202020 
 5547      20204672 
 5548 027d 0A00     		.ascii	"\012\000"
 5549 027f 00       		.space	1
 5550              	.LC24:
 5551 0280 22472220 		.ascii	"\"G\"               IR receiver\015\012\000"
 5551      20202020 
 5551      20202020 
 5551      20202020 
 5551      20204952 
 5552              	.LC25:
 5553 02a0 22672220 		.ascii	"\"g\"               Gyro\015\012\000"
 5553      20202020 
 5553      20202020 
 5553      20202020 
 5553      20204779 
 5554 02b9 000000   		.space	3
 5555              	.LC26:
 5556 02bc 22482220 		.ascii	"\"H\"               Help\015\012\000"
 5556      20202020 
 5556      20202020 
 5556      20202020 
 5556      20204865 
 5557 02d5 000000   		.space	3
 5558              	.LC27:
 5559 02d8 22492220 		.ascii	"\"I\"               Get camera parameter\015\012\000"
 5559      20202020 
 5559      20202020 
 5559      20202020 
 5559      20204765 
ARM GAS  C:\Users\mathi\AppData\Local\Temp\ccXNOisu.s 			page 100


 5560 0301 000000   		.space	3
 5561              	.LC28:
 5562 0304 224A2C23 		.ascii	"\"J,#,#,#,#,#,#\"   Set camera parameter mode,width"
 5562      2C232C23 
 5562      2C232C23 
 5562      2C232220 
 5562      20205365 
 5563 0335 2C686569 		.ascii	",heigth,zoom(1,4 or 8),x1,y1\015\012\000"
 5563      6774682C 
 5563      7A6F6F6D 
 5563      28312C34 
 5563      206F7220 
 5564              	.LC29:
 5565 0354 224B2220 		.ascii	"\"K\"               Calibrate proximity sensors\015"
 5565      20202020 
 5565      20202020 
 5565      20202020 
 5565      20204361 
 5566 0382 0A00     		.ascii	"\012\000"
 5567              	.LC30:
 5568 0384 224C2C23 		.ascii	"\"L,#,#\"           Led number,0=off 1=on 2=inverse"
 5568      2C232220 
 5568      20202020 
 5568      20202020 
 5568      20204C65 
 5569 03b5 0D0A00   		.ascii	"\015\012\000"
 5570              	.LC31:
 5571 03b8 224D2220 		.ascii	"\"M\"               Floor sensors\015\012\000"
 5571      20202020 
 5571      20202020 
 5571      20202020 
 5571      2020466C 
 5572 03da 0000     		.space	2
 5573              	.LC32:
 5574 03dc 224E2220 		.ascii	"\"N\"               Proximity\015\012\000"
 5574      20202020 
 5574      20202020 
 5574      20202020 
 5574      20205072 
 5575 03fa 0000     		.space	2
 5576              	.LC33:
 5577 03fc 224F2220 		.ascii	"\"O\"               Light sensors\015\012\000"
 5577      20202020 
 5577      20202020 
 5577      20202020 
 5577      20204C69 
 5578 041e 0000     		.space	2
 5579              	.LC34:
 5580 0420 22502C23 		.ascii	"\"P,#,#\"           Set motor position left,right\015"
 5580      2C232220 
 5580      20202020 
 5580      20202020 
 5580      20205365 
 5581 0450 0A00     		.ascii	"\012\000"
 5582 0452 0000     		.space	2
 5583              	.LC35:
 5584 0454 22512220 		.ascii	"\"Q\"               Get motor position left,right\015"
ARM GAS  C:\Users\mathi\AppData\Local\Temp\ccXNOisu.s 			page 101


 5584      20202020 
 5584      20202020 
 5584      20202020 
 5584      20204765 
 5585 0484 0A00     		.ascii	"\012\000"
 5586 0486 0000     		.space	2
 5587              	.LC36:
 5588 0488 22522220 		.ascii	"\"R\"               Reset e-puck\015\012\000"
 5588      20202020 
 5588      20202020 
 5588      20202020 
 5588      20205265 
 5589 04a9 000000   		.space	3
 5590              	.LC37:
 5591 04ac 22532220 		.ascii	"\"S\"               Stop e-puck and turn off leds\015"
 5591      20202020 
 5591      20202020 
 5591      20202020 
 5591      20205374 
 5592 04dc 0A00     		.ascii	"\012\000"
 5593 04de 0000     		.space	2
 5594              	.LC38:
 5595 04e0 22542C23 		.ascii	"\"T,#\"             Play sound 1-5 else stop sound\015"
 5595      22202020 
 5595      20202020 
 5595      20202020 
 5595      2020506C 
 5596 0511 0A00     		.ascii	"\012\000"
 5597 0513 00       		.space	1
 5598              	.LC39:
 5599 0514 22742220 		.ascii	"\"t\"               Temperature\015\012\000"
 5599      20202020 
 5599      20202020 
 5599      20202020 
 5599      20205465 
 5600              	.LC40:
 5601 0534 22552220 		.ascii	"\"U\"               Get microphone amplitude\015\012"
 5601      20202020 
 5601      20202020 
 5601      20202020 
 5601      20204765 
 5602 0560 00       		.ascii	"\000"
 5603 0561 000000   		.space	3
 5604              	.LC41:
 5605 0564 22562220 		.ascii	"\"V\"               Version of SerCom\015\012\000"
 5605      20202020 
 5605      20202020 
 5605      20202020 
 5605      20205665 
 5606 058a 0000     		.space	2
 5607              	.LC42:
 5608 058c 22572220 		.ascii	"\"W\"               Write I2C (mod,reg,val)\015\012"
 5608      20202020 
 5608      20202020 
 5608      20202020 
 5608      20205772 
 5609 05b7 00       		.ascii	"\000"
ARM GAS  C:\Users\mathi\AppData\Local\Temp\ccXNOisu.s 			page 102


 5610              	.LC43:
 5611 05b8 22592220 		.ascii	"\"Y\"               Read I2C val=(mod,reg)\015\012\000"
 5611      20202020 
 5611      20202020 
 5611      20202020 
 5611      20205265 
 5612 05e3 00       		.space	1
 5613              	.LC44:
 5614 05e4 22412220 		.ascii	"\"A\"       Accelerometer\015\012\000"
 5614      20202020 
 5614      20204163 
 5614      63656C65 
 5614      726F6D65 
 5615 05fe 0000     		.space	2
 5616              	.LC45:
 5617 0600 22622220 		.ascii	"\"b\"       Battery value\015\012\000"
 5617      20202020 
 5617      20204261 
 5617      74746572 
 5617      79207661 
 5618 061a 0000     		.space	2
 5619              	.LC46:
 5620 061c 22622220 		.ascii	"\"b\"       Battery state (1=ok, 0=low)\015\012\000"
 5620      20202020 
 5620      20204261 
 5620      74746572 
 5620      79207374 
 5621              	.LC47:
 5622 0644 22422C23 		.ascii	"\"B,#\"       Body led 0=off 1=on 2=inverse\015\012"
 5622      22202020 
 5622      20202020 
 5622      426F6479 
 5622      206C6564 
 5623 066f 00       		.ascii	"\000"
 5624              	.LC48:
 5625 0670 22432220 		.ascii	"\"C\"       Selector position\015\012\000"
 5625      20202020 
 5625      20205365 
 5625      6C656374 
 5625      6F722070 
 5626 068e 0000     		.space	2
 5627              	.LC49:
 5628 0690 22442C23 		.ascii	"\"D,#,#\"   Set motor speed left,right\015\012\000"
 5628      2C232220 
 5628      20205365 
 5628      74206D6F 
 5628      746F7220 
 5629 06b7 00       		.space	1
 5630              	.LC50:
 5631 06b8 22452220 		.ascii	"\"E\"       Get motor speed left,right\015\012\000"
 5631      20202020 
 5631      20204765 
 5631      74206D6F 
 5631      746F7220 
 5632 06df 00       		.space	1
 5633              	.LC51:
 5634 06e0 22462C23 		.ascii	"\"F,#\"       Front led 0=off 1=on 2=inverse\015\012"
ARM GAS  C:\Users\mathi\AppData\Local\Temp\ccXNOisu.s 			page 103


 5634      22202020 
 5634      20202020 
 5634      46726F6E 
 5634      74206C65 
 5635 070c 00       		.ascii	"\000"
 5636 070d 000000   		.space	3
 5637              	.LC52:
 5638 0710 22472220 		.ascii	"\"G\"       IR receiver\015\012\000"
 5638      20202020 
 5638      20204952 
 5638      20726563 
 5638      65697665 
 5639              	.LC53:
 5640 0728 22482220 		.ascii	"\"H\"       Help\015\012\000"
 5640      20202020 
 5640      20204865 
 5640      6C700D0A 
 5640      00
 5641 0739 000000   		.space	3
 5642              	.LC54:
 5643 073c 22492220 		.ascii	"\"I\"         Get camera parameter\015\012\000"
 5643      20202020 
 5643      20202020 
 5643      47657420 
 5643      63616D65 
 5644 075f 00       		.space	1
 5645              	.LC55:
 5646 0760 224A2C23 		.ascii	"\"J,#,#,#,#,#,#\" Set camera parameter mode,width,h"
 5646      2C232C23 
 5646      2C232C23 
 5646      2C232220 
 5646      53657420 
 5647 0791 65696774 		.ascii	"eigth,zoom(1,4 or 8),x1,y1\015\012\000"
 5647      682C7A6F 
 5647      6F6D2831 
 5647      2C34206F 
 5647      72203829 
 5648 07ae 0000     		.space	2
 5649              	.LC56:
 5650 07b0 224B2220 		.ascii	"\"K\"       Calibrate proximity sensors\015\012\000"
 5650      20202020 
 5650      20204361 
 5650      6C696272 
 5650      61746520 
 5651              	.LC57:
 5652 07d8 224C2C23 		.ascii	"\"L,#,#\"   Led number,0=off 1=on 2=inverse\015\012"
 5652      2C232220 
 5652      20204C65 
 5652      64206E75 
 5652      6D626572 
 5653 0803 00       		.ascii	"\000"
 5654              	.LC58:
 5655 0804 224D2220 		.ascii	"\"M\"       Floor sensors\015\012\000"
 5655      20202020 
 5655      2020466C 
 5655      6F6F7220 
 5655      73656E73 
ARM GAS  C:\Users\mathi\AppData\Local\Temp\ccXNOisu.s 			page 104


 5656 081e 0000     		.space	2
 5657              	.LC59:
 5658 0820 224E2220 		.ascii	"\"N\"       Proximity\015\012\000"
 5658      20202020 
 5658      20205072 
 5658      6F78696D 
 5658      6974790D 
 5659 0836 0000     		.space	2
 5660              	.LC60:
 5661 0838 224F2220 		.ascii	"\"O\"       Light sensors\015\012\000"
 5661      20202020 
 5661      20204C69 
 5661      67687420 
 5661      73656E73 
 5662 0852 0000     		.space	2
 5663              	.LC61:
 5664 0854 22502C23 		.ascii	"\"P,#,#\"   Set motor position left,right\015\012\000"
 5664      2C232220 
 5664      20205365 
 5664      74206D6F 
 5664      746F7220 
 5665 087e 0000     		.space	2
 5666              	.LC62:
 5667 0880 22512220 		.ascii	"\"Q\"       Get motor position left,right\015\012\000"
 5667      20202020 
 5667      20204765 
 5667      74206D6F 
 5667      746F7220 
 5668 08aa 0000     		.space	2
 5669              	.LC63:
 5670 08ac 22522220 		.ascii	"\"R\"       Reset e-puck\015\012\000"
 5670      20202020 
 5670      20205265 
 5670      73657420 
 5670      652D7075 
 5671 08c5 000000   		.space	3
 5672              	.LC64:
 5673 08c8 22532220 		.ascii	"\"S\"       Stop e-puck and turn off leds\015\012\000"
 5673      20202020 
 5673      20205374 
 5673      6F702065 
 5673      2D707563 
 5674 08f2 0000     		.space	2
 5675              	.LC65:
 5676 08f4 22542C23 		.ascii	"\"T,#\"       Play sound 1-5 else stop sound\015\012"
 5676      22202020 
 5676      20202020 
 5676      506C6179 
 5676      20736F75 
 5677 0920 00       		.ascii	"\000"
 5678 0921 000000   		.space	3
 5679              	.LC66:
 5680 0924 22552220 		.ascii	"\"U\"       Get microphone amplitude\015\012\000"
 5680      20202020 
 5680      20204765 
 5680      74206D69 
 5680      63726F70 
ARM GAS  C:\Users\mathi\AppData\Local\Temp\ccXNOisu.s 			page 105


 5681 0949 000000   		.space	3
 5682              	.LC67:
 5683 094c 22562220 		.ascii	"\"V\"       Version of SerCom\015\012\000"
 5683      20202020 
 5683      20205665 
 5683      7273696F 
 5683      6E206F66 
 5684 096a 0000     		.space	2
 5685              	.LC68:
 5686 096c 22572220 		.ascii	"\"W\"         Write I2C (mod,reg,val)\015\012\000"
 5686      20202020 
 5686      20202020 
 5686      57726974 
 5686      65204932 
 5687 0992 0000     		.space	2
 5688              	.LC69:
 5689 0994 22592220 		.ascii	"\"Y\"         Read I2C val=(mod,reg)\015\012\000"
 5689      20202020 
 5689      20202020 
 5689      52656164 
 5689      20493243 
 5690 09b9 000000   		.space	3
 5691              	.LC70:
 5692 09bc 692C2564 		.ascii	"i,%d,%d,%d,%d,%d\015\012\000"
 5692      2C25642C 
 5692      25642C25 
 5692      642C2564 
 5692      0D0A00
 5693 09cf 00       		.space	1
 5694              	.LC71:
 5695 09d0 4A2C2564 		.ascii	"J,%d,%d,%d,%d,%d,%d\015\000"
 5695      2C25642C 
 5695      25642C25 
 5695      642C2564 
 5695      2C25640D 
 5696 09e5 000000   		.space	3
 5697              	.LC72:
 5698 09e8 6A0D0A00 		.ascii	"j\015\012\000"
 5699              	.LC73:
 5700 09ec 6B2C2053 		.ascii	"k, Starting calibration - Remove any object in sens"
 5700      74617274 
 5700      696E6720 
 5700      63616C69 
 5700      62726174 
 5701 0a1f 6F727320 		.ascii	"ors range\015\012\000"
 5701      72616E67 
 5701      650D0A00 
 5702 0a2b 00       		.space	1
 5703              	.LC74:
 5704 0a2c 4C2C2564 		.ascii	"L,%d,%d\015\000"
 5704      2C25640D 
 5704      00
 5705 0a35 000000   		.space	3
 5706              	.LC75:
 5707 0a38 6C0D0A00 		.ascii	"l\015\012\000"
 5708              	.LC76:
 5709 0a3c 6D2C2564 		.ascii	"m,%d,%d,%d,%d,%d\015\012\000"
ARM GAS  C:\Users\mathi\AppData\Local\Temp\ccXNOisu.s 			page 106


 5709      2C25642C 
 5709      25642C25 
 5709      642C2564 
 5709      0D0A00
 5710 0a4f 00       		.space	1
 5711              	.LC77:
 5712 0a50 6E2C2564 		.ascii	"n,%d,%d,%d,%d,%d,%d,%d,%d\015\012\000"
 5712      2C25642C 
 5712      25642C25 
 5712      642C2564 
 5712      2C25642C 
 5713              	.LC78:
 5714 0a6c 6F2C2564 		.ascii	"o,%d,%d,%d,%d,%d,%d,%d,%d\015\012\000"
 5714      2C25642C 
 5714      25642C25 
 5714      642C2564 
 5714      2C25642C 
 5715              	.LC79:
 5716 0a88 502C2564 		.ascii	"P,%d,%d\015\000"
 5716      2C25640D 
 5716      00
 5717 0a91 000000   		.space	3
 5718              	.LC80:
 5719 0a94 700D0A00 		.ascii	"p\015\012\000"
 5720              	.LC81:
 5721 0a98 712C2564 		.ascii	"q,%d,%d\015\012\000"
 5721      2C25640D 
 5721      0A00
 5722 0aa2 0000     		.space	2
 5723              	.LC82:
 5724 0aa4 730D0A00 		.ascii	"s\015\012\000"
 5725              	.LC83:
 5726 0aa8 542C2564 		.ascii	"T,%d\000"
 5726      00
 5727 0aad 000000   		.space	3
 5728              	.LC84:
 5729 0ab0 740D0A00 		.ascii	"t\015\012\000"
 5730              	.LC85:
 5731 0ab4 742C2564 		.ascii	"t,%d\015\012\000"
 5731      0D0A00
 5732 0abb 00       		.space	1
 5733              	.LC86:
 5734 0abc 742C300D 		.ascii	"t,0\015\012\000"
 5734      0A00
 5735 0ac2 0000     		.space	2
 5736              	.LC87:
 5737 0ac4 752C2564 		.ascii	"u,%d,%d,%d\015\012\000"
 5737      2C25642C 
 5737      25640D0A 
 5737      00
 5738 0ad1 000000   		.space	3
 5739              	.LC88:
 5740 0ad4 762C5665 		.ascii	"v,Version 2.0 January 2018 GCtronic\015\012\000"
 5740      7273696F 
 5740      6E20322E 
 5740      30204A61 
 5740      6E756172 
ARM GAS  C:\Users\mathi\AppData\Local\Temp\ccXNOisu.s 			page 107


 5741 0afa 0000     		.space	2
 5742              	.LC89:
 5743 0afc 572C2564 		.ascii	"W,%d,%d,%d\015\000"
 5743      2C25642C 
 5743      25640D00 
 5744              	.LC90:
 5745 0b08 770D0A00 		.ascii	"w\015\012\000"
 5746              	.LC91:
 5747 0b0c 592C2564 		.ascii	"Y,%d,%d\015\000"
 5747      2C25640D 
 5747      00
 5748 0b15 000000   		.space	3
 5749              	.LC92:
 5750 0b18 792C2564 		.ascii	"y,%d,%d\015\012\000"
 5750      2C25640D 
 5750      0A00
 5751 0b22 0000     		.space	2
 5752              	.LC93:
 5753 0b24 792C2564 		.ascii	"y,%d\015\012\000"
 5753      0D0A00
 5754 0b2b 00       		.space	1
 5755              	.LC94:
 5756 0b2c 25643A20 		.ascii	"%d: %d\015\012\000"
 5756      25640D0A 
 5756      00
 5757 0b35 000000   		.space	3
 5758              	.LC95:
 5759 0b38 7A2C436F 		.ascii	"z,Command not found\015\012\000"
 5759      6D6D616E 
 5759      64206E6F 
 5759      7420666F 
 5759      756E640D 
 5760 0b4e 0000     		.space	2
 5761              	.LC96:
 5762 0b50 48572076 		.ascii	"HW version: %X\015\012\000"
 5762      65727369 
 5762      6F6E3A20 
 5762      25580D0A 
 5762      00
 5763 0b61 000000   		.space	3
 5764              	.LC97:
 5765 0b64 6B2C2043 		.ascii	"k, Calibration finished\015\012\000"
 5765      616C6962 
 5765      72617469 
 5765      6F6E2066 
 5765      696E6973 
 5766              		.text
 5767              	.Letext0:
 5768              		.file 2 "c:\\eclipse_e-puck2\\tools\\gcc-arm-none-eabi-7-2017-q4-major-win32\\arm-none-eabi\\inclu
 5769              		.file 3 "c:\\eclipse_e-puck2\\tools\\gcc-arm-none-eabi-7-2017-q4-major-win32\\arm-none-eabi\\inclu
 5770              		.file 4 "c:\\eclipse_e-puck2\\tools\\gcc-arm-none-eabi-7-2017-q4-major-win32\\lib\\gcc\\arm-none-e
 5771              		.file 5 "../../lib/e-puck2_main-processor/ChibiOS//os/rt/ports/ARMCMx/compilers/GCC/chtypes.h"
 5772              		.file 6 "../../lib/e-puck2_main-processor/ChibiOS//os/rt/include/chsystypes.h"
 5773              		.file 7 "../../lib/e-puck2_main-processor/ChibiOS//os/rt/include/chschd.h"
 5774              		.file 8 "../../lib/e-puck2_main-processor/ChibiOS//os/ext/CMSIS/include/core_cm4.h"
 5775              		.file 9 "../../lib/e-puck2_main-processor/ChibiOS//os/ext/CMSIS/ST/system_stm32f4xx.h"
 5776              		.file 10 "../../lib/e-puck2_main-processor/ChibiOS//os/ext/CMSIS/ST/stm32f407xx.h"
ARM GAS  C:\Users\mathi\AppData\Local\Temp\ccXNOisu.s 			page 108


 5777              		.file 11 "../../lib/e-puck2_main-processor/ChibiOS//os/rt/ports/ARMCMx/chcore.h"
 5778              		.file 12 "../../lib/e-puck2_main-processor/ChibiOS//os/rt/ports/ARMCMx/chcore_v7m.h"
 5779              		.file 13 "../../lib/e-puck2_main-processor/ChibiOS//os/rt/include/chdebug.h"
 5780              		.file 14 "../../lib/e-puck2_main-processor/ChibiOS//os/rt/include/chtm.h"
 5781              		.file 15 "../../lib/e-puck2_main-processor/ChibiOS//os/rt/include/chstats.h"
 5782              		.file 16 "../../lib/e-puck2_main-processor/ChibiOS//os/rt/include/chsem.h"
 5783              		.file 17 "../../lib/e-puck2_main-processor/ChibiOS//os/rt/include/chmtx.h"
 5784              		.file 18 "../../lib/e-puck2_main-processor/ChibiOS//os/rt/include/chregistry.h"
 5785              		.file 19 "../../lib/e-puck2_main-processor/ChibiOS//os/rt/include/chevents.h"
 5786              		.file 20 "../../lib/e-puck2_main-processor/ChibiOS//os/rt/include/chqueues.h"
 5787              		.file 21 "../../lib/e-puck2_main-processor/ChibiOS//os/hal/ports/STM32/STM32F4xx/stm32_dma.h"
 5788              		.file 22 "../../lib/e-puck2_main-processor/ChibiOS//os/hal/include/hal_ioblock.h"
 5789              		.file 23 "../../lib/e-puck2_main-processor/ChibiOS//os/hal/ports/STM32/LLD/GPIOv2/pal_lld.h"
 5790              		.file 24 "../../lib/e-puck2_main-processor/ChibiOS//os/hal/include/adc.h"
 5791              		.file 25 "../../lib/e-puck2_main-processor/ChibiOS//os/hal/ports/STM32/STM32F4xx/adc_lld.h"
 5792              		.file 26 "../../lib/e-puck2_main-processor/ChibiOS//os/hal/include/can.h"
 5793              		.file 27 "../../lib/e-puck2_main-processor/ChibiOS//os/hal/ports/STM32/LLD/can_lld.h"
 5794              		.file 28 "../../lib/e-puck2_main-processor/ChibiOS//os/hal/include/dac.h"
 5795              		.file 29 "../../lib/e-puck2_main-processor/ChibiOS//os/hal/ports/STM32/LLD/DACv1/dac_lld.h"
 5796              		.file 30 "../../lib/e-puck2_main-processor/ChibiOS//os/hal/include/ext.h"
 5797              		.file 31 "../../lib/e-puck2_main-processor/ChibiOS//os/hal/ports/STM32/LLD/ext_lld.h"
 5798              		.file 32 "../../lib/e-puck2_main-processor/ChibiOS//os/hal/include/gpt.h"
 5799              		.file 33 "../../lib/e-puck2_main-processor/ChibiOS//os/hal/ports/STM32/LLD/TIMv1/gpt_lld.h"
 5800              		.file 34 "../../lib/e-puck2_main-processor/ChibiOS//os/hal/ports/STM32/LLD/TIMv1/stm32_tim.h"
 5801              		.file 35 "../../lib/e-puck2_main-processor/ChibiOS//os/hal/include/i2c.h"
 5802              		.file 36 "../../lib/e-puck2_main-processor/ChibiOS//os/hal/ports/STM32/LLD/I2Cv1/i2c_lld.h"
 5803              		.file 37 "../../lib/e-puck2_main-processor/ChibiOS//os/hal/include/i2s.h"
 5804              		.file 38 "../../lib/e-puck2_main-processor/ChibiOS//os/hal/ports/STM32/LLD/SPIv1/i2s_lld.h"
 5805              		.file 39 "../../lib/e-puck2_main-processor/ChibiOS//os/hal/include/pwm.h"
 5806              		.file 40 "../../lib/e-puck2_main-processor/ChibiOS//os/hal/ports/STM32/LLD/TIMv1/pwm_lld.h"
 5807              		.file 41 "../../lib/e-puck2_main-processor/ChibiOS//os/hal/include/serial.h"
 5808              		.file 42 "../../lib/e-puck2_main-processor/ChibiOS//os/hal/ports/STM32/LLD/USARTv1/serial_lld.h"
 5809              		.file 43 "../../lib/e-puck2_main-processor/ChibiOS//os/hal/include/sdc.h"
 5810              		.file 44 "../../lib/e-puck2_main-processor/ChibiOS//os/hal/ports/STM32/LLD/sdc_lld.h"
 5811              		.file 45 "../../lib/e-puck2_main-processor/ChibiOS//os/hal/include/spi.h"
 5812              		.file 46 "../../lib/e-puck2_main-processor/ChibiOS//os/hal/ports/STM32/LLD/SPIv1/spi_lld.h"
 5813              		.file 47 "../../lib/e-puck2_main-processor/ChibiOS//os/hal/include/usb.h"
 5814              		.file 48 "../../lib/e-puck2_main-processor/ChibiOS//os/hal/ports/STM32/LLD/OTGv1/usb_lld.h"
 5815              		.file 49 "../../lib/e-puck2_main-processor/ChibiOS//os/hal/ports/STM32/LLD/OTGv1/stm32_otg.h"
 5816              		.file 50 "../../lib/e-puck2_main-processor/ChibiOS_ext/os/hal/include/../ports/STM32/STM32F4xx/dcm
 5817              		.file 51 "c:\\eclipse_e-puck2\\tools\\gcc-arm-none-eabi-7-2017-q4-major-win32\\arm-none-eabi\\incl
 5818              		.file 52 "c:\\eclipse_e-puck2\\tools\\gcc-arm-none-eabi-7-2017-q4-major-win32\\arm-none-eabi\\incl
 5819              		.file 53 "c:\\eclipse_e-puck2\\tools\\gcc-arm-none-eabi-7-2017-q4-major-win32\\arm-none-eabi\\incl
 5820              		.file 54 "../../lib/e-puck2_main-processor/src/msgbus/messagebus.h"
 5821              		.file 55 "c:\\eclipse_e-puck2\\tools\\gcc-arm-none-eabi-7-2017-q4-major-win32\\arm-none-eabi\\incl
 5822              		.file 56 "c:\\eclipse_e-puck2\\tools\\gcc-arm-none-eabi-7-2017-q4-major-win32\\arm-none-eabi\\incl
 5823              		.file 57 "../../lib/e-puck2_main-processor/src/parameter/parameter.h"
 5824              		.file 58 "./main.h"
 5825              		.file 59 "../../lib/e-puck2_main-processor/src/audio/play_melody.h"
 5826              		.file 60 "c:\\eclipse_e-puck2\\tools\\gcc-arm-none-eabi-7-2017-q4-major-win32\\arm-none-eabi\\incl
 5827              		.file 61 "../../lib/e-puck2_main-processor/src/epuck1x/a_d/advance_ad_scan/e_acc.h"
 5828              		.file 62 "../../lib/e-puck2_main-processor/src/epuck1x/acc_gyro/e_lsm330.h"
 5829              		.file 63 "c:\\eclipse_e-puck2\\tools\\gcc-arm-none-eabi-7-2017-q4-major-win32\\arm-none-eabi\\incl
 5830              		.file 64 "c:\\eclipse_e-puck2\\tools\\gcc-arm-none-eabi-7-2017-q4-major-win32\\arm-none-eabi\\incl
 5831              		.file 65 "../../lib/e-puck2_main-processor/src/epuck1x/uart/e_uart_char.h"
 5832              		.file 66 "../../lib/e-puck2_main-processor/src/epuck1x/I2C/e_I2C_protocol.h"
 5833              		.file 67 "../../lib/e-puck2_main-processor/src/epuck1x/motor_led/advance_one_timer/e_motors.h"
ARM GAS  C:\Users\mathi\AppData\Local\Temp\ccXNOisu.s 			page 109


 5834              		.file 68 "../../lib/e-puck2_main-processor/src/epuck1x/motor_led/advance_one_timer/e_led.h"
 5835              		.file 69 "../../lib/e-puck2_main-processor/ChibiOS//os/rt/include/chthreads.h"
 5836              		.file 70 "../../lib/e-puck2_main-processor/src/epuck1x/a_d/advance_ad_scan/e_prox.h"
 5837              		.file 71 "../../lib/e-puck2_main-processor/src/epuck1x/camera/fast_2_timer/e_poxxxx.h"
 5838              		.file 72 "../../lib/e-puck2_main-processor/src/epuck1x/codec/e_sound.h"
 5839              		.file 73 "../../lib/e-puck2_main-processor/src/epuck1x/a_d/advance_ad_scan/e_micro.h"
 5840              		.file 74 "../../lib/e-puck2_main-processor/src/epuck1x/motor_led/advance_one_timer/e_remote_contro
 5841              		.file 75 "../../lib/e-puck2_main-processor/src/epuck1x/motor_led/e_init_port.h"
 5842              		.file 76 "../../lib/e-puck2_main-processor/src/epuck1x/utility/utility.h"
 5843              		.file 77 "../../lib/e-puck2_main-processor/src/fat.h"
 5844              		.file 78 "../../lib/e-puck2_main-processor/src/epuck1x/DataEEPROM.h"
 5845              		.file 79 "../../lib/e-puck2_main-processor/src/leds.h"
 5846              		.file 80 "../../lib/e-puck2_main-processor/src/button.h"
 5847              		.file 81 "../../lib/e-puck2_main-processor/src/sensors/VL53L0X/VL53L0X.h"
 5848              		.file 82 "../../lib/e-puck2_main-processor/src/camera/dcmi_camera.h"
 5849              		.file 83 "<built-in>"