ARM GAS  C:\Users\mathi\AppData\Local\Temp\cc0ZaFXf.s 			page 1


   1              		.cpu cortex-m4
   2              		.eabi_attribute 27, 1
   3              		.eabi_attribute 28, 1
   4              		.eabi_attribute 20, 1
   5              		.eabi_attribute 21, 1
   6              		.eabi_attribute 23, 3
   7              		.eabi_attribute 24, 1
   8              		.eabi_attribute 25, 1
   9              		.eabi_attribute 26, 1
  10              		.eabi_attribute 30, 2
  11              		.eabi_attribute 34, 1
  12              		.eabi_attribute 18, 4
  13              		.file	"Asercom.c"
  14              		.text
  15              	.Ltext0:
  16              		.cfi_sections	.debug_frame
  17              		.section	.text.run_asercom,"ax",%progbits
  18              		.align	1
  19              		.p2align 4,,15
  20              		.global	run_asercom
  21              		.syntax unified
  22              		.thumb
  23              		.thumb_func
  24              		.fpu fpv4-sp-d16
  25              		.type	run_asercom, %function
  26              	run_asercom:
  27              	.LFB259:
  28              		.file 1 "../../lib/e-puck2_main-processor/src/epuck1x/Asercom.c"
  29              		.loc 1 59 0
  30              		.cfi_startproc
  31              		@ args = 0, pretend = 0, frame = 64
  32              		@ frame_needed = 0, uses_anonymous_args = 0
  33 0000 2DE9F04F 		push	{r4, r5, r6, r7, r8, r9, r10, fp, lr}
  34              		.cfi_def_cfa_offset 36
  35              		.cfi_offset 4, -36
  36              		.cfi_offset 5, -32
  37              		.cfi_offset 6, -28
  38              		.cfi_offset 7, -24
  39              		.cfi_offset 8, -20
  40              		.cfi_offset 9, -16
  41              		.cfi_offset 10, -12
  42              		.cfi_offset 11, -8
  43              		.cfi_offset 14, -4
  44 0004 2DED028B 		vpush.64	{d8}
  45              		.cfi_def_cfa_offset 44
  46              		.cfi_offset 80, -44
  47              		.cfi_offset 81, -40
  48 0008 AD4B     		ldr	r3, .L686
  49 000a 99B0     		sub	sp, sp, #100
  50              		.cfi_def_cfa_offset 144
  51              		.loc 1 59 0
  52 000c 1B68     		ldr	r3, [r3]
  53 000e 1793     		str	r3, [sp, #92]
  54              	.LVL0:
  55              		.loc 1 76 0
  56 0010 FFF7FEFF 		bl	e_init_motors
  57              	.LVL1:
ARM GAS  C:\Users\mathi\AppData\Local\Temp\cc0ZaFXf.s 			page 2


  58              		.loc 1 80 0
  59 0014 FFF7FEFF 		bl	getselector
  60              	.LVL2:
  61 0018 AA4B     		ldr	r3, .L686+4
  62              		.loc 1 81 0
  63 001a 0A28     		cmp	r0, #10
  64              		.loc 1 80 0
  65 001c 1860     		str	r0, [r3]
  66              		.loc 1 81 0
  67 001e 74D0     		beq	.L2
  68              	.LVL3:
  69              		.loc 1 89 0
  70 0020 FFF7FEFF 		bl	e_i2cp_init
  71              	.LVL4:
  72              		.loc 1 105 0
  73 0024 A84C     		ldr	r4, .L686+8
  74              		.loc 1 107 0
  75 0026 A94E     		ldr	r6, .L686+12
  76              		.loc 1 108 0
  77 0028 A94F     		ldr	r7, .L686+16
  78              		.loc 1 110 0
  79 002a AA4B     		ldr	r3, .L686+20
  80              		.loc 1 109 0
  81 002c AA4D     		ldr	r5, .L686+24
  82              		.loc 1 105 0
  83 002e 1494     		str	r4, [sp, #80]
  84              		.loc 1 109 0
  85 0030 1595     		str	r5, [sp, #84]
  86              		.loc 1 110 0
  87 0032 1393     		str	r3, [sp, #76]
  88              		.loc 1 107 0
  89 0034 1196     		str	r6, [sp, #68]
  90              		.loc 1 108 0
  91 0036 1297     		str	r7, [sp, #72]
  92              		.loc 1 94 0
  93 0038 FFF7FEFF 		bl	e_init_remote_control
  94              	.LVL5:
  95              		.loc 1 102 0
  96 003c 0123     		movs	r3, #1
  97 003e A74A     		ldr	r2, .L686+28
  98              		.loc 1 109 0
  99 0040 A54D     		ldr	r5, .L686+24
 100              		.loc 1 102 0
 101 0042 4FF6FE71 		movw	r1, #65534
 102 0046 7F20     		movs	r0, #127
 103 0048 FFF7FEFF 		bl	ReadEE
 104              	.LVL6:
 105              		.loc 1 107 0
 106 004c 2823     		movs	r3, #40
 107 004e 3360     		str	r3, [r6]
 108              		.loc 1 108 0
 109 0050 3B60     		str	r3, [r7]
 110              		.loc 1 110 0
 111 0052 A04B     		ldr	r3, .L686+20
 112              		.loc 1 109 0
 113 0054 0821     		movs	r1, #8
 114              		.loc 1 110 0
ARM GAS  C:\Users\mathi\AppData\Local\Temp\cc0ZaFXf.s 			page 3


 115 0056 4FF44862 		mov	r2, #3200
 116              		.loc 1 105 0
 117 005a 0120     		movs	r0, #1
 118              		.loc 1 109 0
 119 005c 2960     		str	r1, [r5]
 120              		.loc 1 110 0
 121 005e 1A60     		str	r2, [r3]
 122              		.loc 1 105 0
 123 0060 2060     		str	r0, [r4]
 124              		.loc 1 113 0
 125 0062 FFF7FEFF 		bl	e_poxxxx_init_cam
 126              	.LVL7:
 127              		.loc 1 114 0
 128 0066 2D68     		ldr	r5, [r5]
 129 0068 3268     		ldr	r2, [r6]
 130 006a 3B68     		ldr	r3, [r7]
 131 006c 2468     		ldr	r4, [r4]
 132 006e 0294     		str	r4, [sp, #8]
 133 0070 02FB05F2 		mul	r2, r2, r5
 134 0074 03FB05F3 		mul	r3, r3, r5
 135 0078 C3F5F071 		rsb	r1, r3, #480
 136 007c C2F52070 		rsb	r0, r2, #640
 137 0080 01EBD171 		add	r1, r1, r1, lsr #31
 138 0084 00EBD070 		add	r0, r0, r0, lsr #31
 139 0088 4910     		asrs	r1, r1, #1
 140 008a 0195     		str	r5, [sp, #4]
 141 008c 0095     		str	r5, [sp]
 142 008e 4010     		asrs	r0, r0, #1
 143 0090 FFF7FEFF 		bl	e_poxxxx_config_cam
 144              	.LVL8:
 145              		.loc 1 115 0
 146 0094 FFF7FEFF 		bl	e_poxxxx_write_cam_registers
 147              	.LVL9:
 148              		.loc 1 119 0
 149 0098 FFF7FEFF 		bl	e_acc_calibr
 150              	.LVL10:
 151              		.loc 1 120 0
 152 009c 5821     		movs	r1, #88
 153 009e 9048     		ldr	r0, .L686+32
 154 00a0 FFF7FEFF 		bl	e_send_uart1_char
 155              	.LVL11:
 156              	.L3:
 157              		.loc 1 120 0 is_stmt 0 discriminator 2
 158 00a4 FFF7FEFF 		bl	e_uart1_sending
 159              	.LVL12:
 160 00a8 0028     		cmp	r0, #0
 161 00aa FBD1     		bne	.L3
 162              		.loc 1 84 0 is_stmt 1
 163 00ac 0123     		movs	r3, #1
 164 00ae 0993     		str	r3, [sp, #36]
 165              	.LVL13:
 166              	.L6:
 167 00b0 DFF83882 		ldr	r8, .L686+44
 168 00b4 8B4F     		ldr	r7, .L686+36
 169 00b6 DFF84892 		ldr	r9, .L686+64
 170 00ba DFF848A2 		ldr	r10, .L686+68
 171 00be 4FF0000B 		mov	fp, #0
ARM GAS  C:\Users\mathi\AppData\Local\Temp\cc0ZaFXf.s 			page 4


 172              	.LVL14:
 173              	.L4:
 174              		.loc 1 133 0
 175 00c2 099B     		ldr	r3, [sp, #36]
 176 00c4 002B     		cmp	r3, #0
 177 00c6 00F0A980 		beq	.L626
 178              	.L668:
 179              		.loc 1 134 0
 180 00ca 864D     		ldr	r5, .L686+36
 181              	.LVL15:
 182              	.L8:
 183 00cc 2846     		mov	r0, r5
 184 00ce FFF7FEFF 		bl	e_getchar_uart1
 185              	.LVL16:
 186 00d2 0446     		mov	r4, r0
 187 00d4 0028     		cmp	r0, #0
 188 00d6 44D1     		bne	.L26
 189              		.loc 1 137 0
 190 00d8 FFF7FEFF 		bl	e_get_data
 191              	.LVL17:
 192 00dc 0646     		mov	r6, r0
 193              	.LVL18:
 194              		.loc 1 138 0
 195 00de FFF7FEFF 		bl	e_get_address
 196              	.LVL19:
 197              		.loc 1 139 0
 198 00e2 10F0F70F 		tst	r0, #247
 199 00e6 F1D1     		bne	.L8
 200              		.loc 1 139 0 is_stmt 0 discriminator 3
 201 00e8 B345     		cmp	fp, r6
 202 00ea EFD0     		beq	.L8
 203              		.loc 1 140 0 is_stmt 1
 204 00ec 092E     		cmp	r6, #9
 205 00ee 01F28983 		bhi	.L11
 206 00f2 DFE816F0 		tbh	[pc, r6, lsl #1]
 207              	.L13:
 208 00f6 3C01     		.2byte	(.L12-.L13)/2
 209 00f8 3301     		.2byte	(.L14-.L13)/2
 210 00fa 2C01     		.2byte	(.L15-.L13)/2
 211 00fc 2301     		.2byte	(.L16-.L13)/2
 212 00fe 2001     		.2byte	(.L17-.L13)/2
 213 0100 1A01     		.2byte	(.L18-.L13)/2
 214 0102 1701     		.2byte	(.L19-.L13)/2
 215 0104 1001     		.2byte	(.L20-.L13)/2
 216 0106 0901     		.2byte	(.L21-.L13)/2
 217 0108 D500     		.2byte	(.L22-.L13)/2
 218              	.LVL20:
 219              		.p2align 1
 220              	.L2:
 221              		.loc 1 94 0
 222 010a FFF7FEFF 		bl	e_init_remote_control
 223              	.LVL21:
 224              		.loc 1 105 0
 225 010e 6E4C     		ldr	r4, .L686+8
 226              		.loc 1 102 0
 227 0110 724A     		ldr	r2, .L686+28
 228              		.loc 1 107 0
ARM GAS  C:\Users\mathi\AppData\Local\Temp\cc0ZaFXf.s 			page 5


 229 0112 6E4D     		ldr	r5, .L686+12
 230              		.loc 1 108 0
 231 0114 6E4E     		ldr	r6, .L686+16
 232              		.loc 1 109 0
 233 0116 704F     		ldr	r7, .L686+24
 234              		.loc 1 105 0
 235 0118 1494     		str	r4, [sp, #80]
 236              		.loc 1 102 0
 237 011a 0123     		movs	r3, #1
 238 011c 4FF6FE71 		movw	r1, #65534
 239 0120 7F20     		movs	r0, #127
 240              		.loc 1 107 0
 241 0122 1195     		str	r5, [sp, #68]
 242              		.loc 1 108 0
 243 0124 1296     		str	r6, [sp, #72]
 244              		.loc 1 109 0
 245 0126 1597     		str	r7, [sp, #84]
 246              		.loc 1 102 0
 247 0128 FFF7FEFF 		bl	ReadEE
 248              	.LVL22:
 249              		.loc 1 107 0
 250 012c 2823     		movs	r3, #40
 251              		.loc 1 110 0
 252 012e 6949     		ldr	r1, .L686+20
 253              		.loc 1 107 0
 254 0130 2B60     		str	r3, [r5]
 255              		.loc 1 105 0
 256 0132 0122     		movs	r2, #1
 257 0134 2260     		str	r2, [r4]
 258              		.loc 1 108 0
 259 0136 3360     		str	r3, [r6]
 260              		.loc 1 109 0
 261 0138 0822     		movs	r2, #8
 262              		.loc 1 110 0
 263 013a 4FF44863 		mov	r3, #3200
 264 013e 1391     		str	r1, [sp, #76]
 265              		.loc 1 109 0
 266 0140 3A60     		str	r2, [r7]
 267              		.loc 1 110 0
 268 0142 0B60     		str	r3, [r1]
 269              		.loc 1 124 0
 270 0144 FFF7FEFF 		bl	isEpuckVersion1_3
 271              	.LVL23:
 272 0148 08B9     		cbnz	r0, .L356
 273              		.loc 1 125 0
 274 014a FFF7FEFF 		bl	e_acc_calibr
 275              	.LVL24:
 276              	.L356:
 277              		.loc 1 127 0
 278 014e 5821     		movs	r1, #88
 279 0150 6348     		ldr	r0, .L686+32
 280 0152 FFF7FEFF 		bl	e_send_uart2_char
 281              	.LVL25:
 282              	.L5:
 283              		.loc 1 127 0 is_stmt 0 discriminator 2
 284 0156 FFF7FEFF 		bl	e_uart2_sending
 285              	.LVL26:
ARM GAS  C:\Users\mathi\AppData\Local\Temp\cc0ZaFXf.s 			page 6


 286 015a 0990     		str	r0, [sp, #36]
 287 015c 0028     		cmp	r0, #0
 288 015e FAD1     		bne	.L5
 289 0160 A6E7     		b	.L6
 290              	.LVL27:
 291              	.L26:
 292              		.loc 1 259 0 is_stmt 1
 293 0162 3B78     		ldrb	r3, [r7]	@ zero_extendqisi2
 294 0164 1A06     		lsls	r2, r3, #24
 295 0166 00F16181 		bmi	.L664
 296              		.loc 1 598 0
 297 016a 002B     		cmp	r3, #0
 298 016c A9D0     		beq	.L4
 299              		.loc 1 599 0
 300 016e 099A     		ldr	r2, [sp, #36]
 301              		.loc 1 600 0
 302 0170 5C4C     		ldr	r4, .L686+36
 303              		.loc 1 599 0
 304 0172 002A     		cmp	r2, #0
 305 0174 76D0     		beq	.L147
 306 0176 03E0     		b	.L146
 307              	.L148:
 308              		.loc 1 600 0 discriminator 4
 309 0178 2046     		mov	r0, r4
 310 017a FFF7FEFF 		bl	e_getchar_uart1
 311              	.LVL28:
 312 017e 3B78     		ldrb	r3, [r7]	@ zero_extendqisi2
 313              	.L146:
 314              		.loc 1 600 0 is_stmt 0 discriminator 1
 315 0180 0A2B     		cmp	r3, #10
 316 0182 F9D0     		beq	.L148
 317              		.loc 1 600 0 discriminator 3
 318 0184 0D2B     		cmp	r3, #13
 319 0186 F7D0     		beq	.L148
 320              		.loc 1 605 0 is_stmt 1
 321 0188 0122     		movs	r2, #1
 322              		.loc 1 604 0
 323 018a 88F80030 		strb	r3, [r8]
 324              		.loc 1 605 0
 325 018e C9F80020 		str	r2, [r9]
 326              		.loc 1 607 0
 327 0192 544C     		ldr	r4, .L686+36
 328 0194 04E0     		b	.L157
 329              	.L665:
 330 0196 3B78     		ldrb	r3, [r7]	@ zero_extendqisi2
 331              		.loc 1 608 0
 332 0198 0A2B     		cmp	r3, #10
 333 019a 11D0     		beq	.L158
 334              	.L154:
 335              		.loc 1 608 0 is_stmt 0 discriminator 1
 336 019c 0D2B     		cmp	r3, #13
 337 019e 0FD0     		beq	.L158
 338              	.L157:
 339              		.loc 1 607 0 is_stmt 1
 340 01a0 2046     		mov	r0, r4
 341 01a2 FFF7FEFF 		bl	e_getchar_uart1
 342              	.LVL29:
ARM GAS  C:\Users\mathi\AppData\Local\Temp\cc0ZaFXf.s 			page 7


 343 01a6 0028     		cmp	r0, #0
 344 01a8 F5D0     		beq	.L665
 345              		.loc 1 607 0 is_stmt 0 discriminator 1
 346 01aa D9F80020 		ldr	r2, [r9]
 347 01ae 3B78     		ldrb	r3, [r7]	@ zero_extendqisi2
 348 01b0 08F80230 		strb	r3, [r8, r2]
 349              		.loc 1 608 0 is_stmt 1 discriminator 1
 350 01b4 0A2B     		cmp	r3, #10
 351              		.loc 1 607 0 discriminator 1
 352 01b6 02F10102 		add	r2, r2, #1
 353 01ba C9F80020 		str	r2, [r9]
 354              		.loc 1 608 0 discriminator 1
 355 01be EDD1     		bne	.L154
 356              	.L158:
 357              		.loc 1 613 0
 358 01c0 D9F80030 		ldr	r3, [r9]
 359 01c4 0022     		movs	r2, #0
 360 01c6 08F80320 		strb	r2, [r8, r3]
 361              		.loc 1 615 0
 362 01ca 98F80040 		ldrb	r4, [r8]	@ zero_extendqisi2
 363              		.loc 1 613 0
 364 01ce 0133     		adds	r3, r3, #1
 365              		.loc 1 615 0
 366 01d0 622C     		cmp	r4, #98
 367              		.loc 1 613 0
 368 01d2 C9F80030 		str	r3, [r9]
 369              		.loc 1 615 0
 370 01d6 01F03584 		beq	.L156
 371              		.loc 1 615 0 is_stmt 0 discriminator 1
 372 01da 672C     		cmp	r4, #103
 373 01dc 40F0F284 		bne	.L666
 374              	.L162:
 375              	.LBB2:
 376              		.loc 1 701 0 is_stmt 1
 377 01e0 099B     		ldr	r3, [sp, #36]
 378 01e2 002B     		cmp	r3, #0
 379 01e4 01F05584 		beq	.L217
 380              		.loc 1 701 0 is_stmt 0 discriminator 1
 381 01e8 FFF7FEFF 		bl	isEpuckVersion1_3
 382              	.LVL30:
 383 01ec 0028     		cmp	r0, #0
 384 01ee 41F0BA86 		bne	.L667
 385              		.loc 1 704 0 is_stmt 1
 386 01f2 3D4B     		ldr	r3, .L686+40
 387 01f4 93E80700 		ldm	r3, {r0, r1, r2}
 388 01f8 3C4B     		ldr	r3, .L686+44
 389 01fa 03C3     		stmia	r3!, {r0, r1}
 390 01fc 1A80     		strh	r2, [r3]	@ movhi
 391              	.L357:
 392              		.loc 1 707 0
 393 01fe 3B48     		ldr	r0, .L686+44
 394 0200 FFF7FEFF 		bl	strlen
 395              	.LVL31:
 396 0204 0146     		mov	r1, r0
 397 0206 3948     		ldr	r0, .L686+44
 398 0208 FFF7FEFF 		bl	e_send_uart1_char
 399              	.LVL32:
ARM GAS  C:\Users\mathi\AppData\Local\Temp\cc0ZaFXf.s 			page 8


 400              	.L219:
 401              		.loc 1 707 0 is_stmt 0 discriminator 2
 402 020c FFF7FEFF 		bl	e_uart1_sending
 403              	.LVL33:
 404 0210 0028     		cmp	r0, #0
 405 0212 FBD1     		bne	.L219
 406              	.LBE2:
 407              		.loc 1 133 0 is_stmt 1
 408 0214 099B     		ldr	r3, [sp, #36]
 409 0216 002B     		cmp	r3, #0
 410 0218 7FF457AF 		bne	.L668
 411              	.LVL34:
 412              	.L626:
 413              		.loc 1 196 0
 414 021c 314D     		ldr	r5, .L686+36
 415              	.L9:
 416              	.LVL35:
 417 021e 2846     		mov	r0, r5
 418 0220 FFF7FEFF 		bl	e_getchar_uart2
 419              	.LVL36:
 420 0224 0446     		mov	r4, r0
 421 0226 0028     		cmp	r0, #0
 422 0228 9BD1     		bne	.L26
 423              		.loc 1 199 0
 424 022a FFF7FEFF 		bl	e_get_data
 425              	.LVL37:
 426 022e 0646     		mov	r6, r0
 427              	.LVL38:
 428              		.loc 1 200 0
 429 0230 FFF7FEFF 		bl	e_get_address
 430              	.LVL39:
 431              		.loc 1 201 0
 432 0234 10F0F70F 		tst	r0, #247
 433 0238 F1D1     		bne	.L9
 434              		.loc 1 201 0 is_stmt 0 discriminator 3
 435 023a B345     		cmp	fp, r6
 436 023c EFD0     		beq	.L9
 437              		.loc 1 202 0 is_stmt 1
 438 023e 092E     		cmp	r6, #9
 439 0240 01F2D982 		bhi	.L28
 440 0244 DFE816F0 		tbh	[pc, r6, lsl #1]
 441              	.L30:
 442 0248 E400     		.2byte	(.L29-.L30)/2
 443 024a DB00     		.2byte	(.L31-.L30)/2
 444 024c D400     		.2byte	(.L32-.L30)/2
 445 024e CB00     		.2byte	(.L33-.L30)/2
 446 0250 C800     		.2byte	(.L34-.L30)/2
 447 0252 C200     		.2byte	(.L35-.L30)/2
 448 0254 BF00     		.2byte	(.L36-.L30)/2
 449 0256 B800     		.2byte	(.L37-.L30)/2
 450 0258 B100     		.2byte	(.L38-.L30)/2
 451 025a A100     		.2byte	(.L39-.L30)/2
 452              	.LVL40:
 453              		.p2align 1
 454              	.L150:
 455              		.loc 1 602 0 discriminator 4
 456 025c 2046     		mov	r0, r4
ARM GAS  C:\Users\mathi\AppData\Local\Temp\cc0ZaFXf.s 			page 9


 457 025e FFF7FEFF 		bl	e_getchar_uart2
 458              	.LVL41:
 459 0262 3B78     		ldrb	r3, [r7]	@ zero_extendqisi2
 460              	.L147:
 461              		.loc 1 602 0 is_stmt 0 discriminator 1
 462 0264 0A2B     		cmp	r3, #10
 463 0266 F9D0     		beq	.L150
 464              		.loc 1 602 0 discriminator 3
 465 0268 0D2B     		cmp	r3, #13
 466 026a F7D0     		beq	.L150
 467              		.loc 1 605 0 is_stmt 1
 468 026c 0122     		movs	r2, #1
 469              		.loc 1 604 0
 470 026e 88F80030 		strb	r3, [r8]
 471              		.loc 1 605 0
 472 0272 C9F80020 		str	r2, [r9]
 473              		.loc 1 610 0
 474 0276 1B4C     		ldr	r4, .L686+36
 475 0278 04E0     		b	.L161
 476              	.L669:
 477 027a 3B78     		ldrb	r3, [r7]	@ zero_extendqisi2
 478              	.L160:
 479              		.loc 1 611 0
 480 027c 0A2B     		cmp	r3, #10
 481 027e 9FD0     		beq	.L158
 482              		.loc 1 611 0 is_stmt 0 discriminator 1
 483 0280 0D2B     		cmp	r3, #13
 484 0282 9DD0     		beq	.L158
 485              	.L161:
 486              		.loc 1 610 0 is_stmt 1
 487 0284 2046     		mov	r0, r4
 488 0286 FFF7FEFF 		bl	e_getchar_uart2
 489              	.LVL42:
 490 028a 0028     		cmp	r0, #0
 491 028c F5D0     		beq	.L669
 492              		.loc 1 610 0 is_stmt 0 discriminator 1
 493 028e D9F80020 		ldr	r2, [r9]
 494 0292 3B78     		ldrb	r3, [r7]	@ zero_extendqisi2
 495 0294 08F80230 		strb	r3, [r8, r2]
 496 0298 0132     		adds	r2, r2, #1
 497 029a C9F80020 		str	r2, [r9]
 498 029e EDE7     		b	.L160
 499              	.LVL43:
 500              	.L22:
 501              		.loc 1 174 0 is_stmt 1
 502 02a0 134B     		ldr	r3, .L686+48
 503              	.L650:
 504              		.loc 1 175 0
 505 02a2 144A     		ldr	r2, .L686+52
 506 02a4 1449     		ldr	r1, .L686+56
 507 02a6 1160     		str	r1, [r2]
 508              		.loc 1 174 0
 509 02a8 144A     		ldr	r2, .L686+60
 510              		.loc 1 176 0
 511 02aa 0C46     		mov	r4, r1
 512              		.loc 1 174 0
 513 02ac 1360     		str	r3, [r2]
ARM GAS  C:\Users\mathi\AppData\Local\Temp\cc0ZaFXf.s 			page 10


 514              	.LVL44:
 515              	.L23:
 516              		.loc 1 188 0
 517 02ae 2046     		mov	r0, r4
 518 02b0 FFF7FEFF 		bl	e_set_speed_left
 519              	.LVL45:
 520              		.loc 1 189 0
 521 02b4 114B     		ldr	r3, .L686+60
 522 02b6 1868     		ldr	r0, [r3]
 523 02b8 FFF7FEFF 		bl	e_set_speed_right
 524              	.LVL46:
 525 02bc B346     		mov	fp, r6
 526 02be 05E7     		b	.L8
 527              	.L687:
 528              		.align	2
 529              	.L686:
 530 02c0 00000000 		.word	__stack_chk_guard
 531 02c4 00000000 		.word	.LANCHOR0
 532 02c8 00000000 		.word	.LANCHOR2
 533 02cc 00000000 		.word	.LANCHOR3
 534 02d0 00000000 		.word	.LANCHOR4
 535 02d4 00000000 		.word	.LANCHOR6
 536 02d8 00000000 		.word	.LANCHOR5
 537 02dc 00000000 		.word	.LANCHOR1
 538 02e0 00000000 		.word	.LC0
 539 02e4 00000000 		.word	.LANCHOR10
 540 02e8 6C0A0000 		.word	.LC92
 541 02ec 00000000 		.word	buffer
 542 02f0 D4FEFFFF 		.word	-300
 543 02f4 00000000 		.word	.LANCHOR8
 544 02f8 A8FDFFFF 		.word	-600
 545 02fc 00000000 		.word	.LANCHOR7
 546 0300 00000000 		.word	.LANCHOR11
 547 0304 00000000 		.word	.LANCHOR22
 548              	.LVL47:
 549              	.L21:
 550              		.loc 1 170 0
 551 0308 A04A     		ldr	r2, .L688
 552 030a A14B     		ldr	r3, .L688+4
 553 030c 1360     		str	r3, [r2]
 554              		.loc 1 171 0
 555 030e A14A     		ldr	r2, .L688+8
 556              		.loc 1 172 0
 557 0310 1C46     		mov	r4, r3
 558              		.loc 1 171 0
 559 0312 1360     		str	r3, [r2]
 560              		.loc 1 172 0
 561 0314 CBE7     		b	.L23
 562              	.L20:
 563              		.loc 1 167 0
 564 0316 A04C     		ldr	r4, .L688+12
 565              	.L651:
 566              		.loc 1 166 0
 567 0318 9C4B     		ldr	r3, .L688
 568 031a 9D4A     		ldr	r2, .L688+4
 569 031c 1A60     		str	r2, [r3]
 570              		.loc 1 167 0
ARM GAS  C:\Users\mathi\AppData\Local\Temp\cc0ZaFXf.s 			page 11


 571 031e 9D4B     		ldr	r3, .L688+8
 572 0320 1C60     		str	r4, [r3]
 573              		.loc 1 168 0
 574 0322 C4E7     		b	.L23
 575              	.L19:
 576              		.loc 1 163 0
 577 0324 4FF41674 		mov	r4, #600
 578 0328 F6E7     		b	.L651
 579              	.L18:
 580              		.loc 1 158 0
 581 032a 984A     		ldr	r2, .L688
 582 032c 0023     		movs	r3, #0
 583 032e 1360     		str	r3, [r2]
 584              		.loc 1 159 0
 585 0330 984A     		ldr	r2, .L688+8
 586 0332 1360     		str	r3, [r2]
 587              		.loc 1 160 0
 588 0334 BBE7     		b	.L23
 589              	.L17:
 590              		.loc 1 154 0
 591 0336 4FF41673 		mov	r3, #600
 592 033a B2E7     		b	.L650
 593              	.L16:
 594              		.loc 1 150 0
 595 033c 934A     		ldr	r2, .L688
 596 033e 4FF49673 		mov	r3, #300
 597 0342 1360     		str	r3, [r2]
 598              		.loc 1 151 0
 599 0344 934B     		ldr	r3, .L688+8
 600 0346 4FF41674 		mov	r4, #600
 601 034a 1C60     		str	r4, [r3]
 602              		.loc 1 152 0
 603 034c AFE7     		b	.L23
 604              	.L15:
 605              		.loc 1 146 0
 606 034e 8F4B     		ldr	r3, .L688
 607 0350 4FF41674 		mov	r4, #600
 608 0354 1C60     		str	r4, [r3]
 609              		.loc 1 147 0
 610 0356 8F4B     		ldr	r3, .L688+8
 611 0358 1C60     		str	r4, [r3]
 612              		.loc 1 148 0
 613 035a A8E7     		b	.L23
 614              	.L14:
 615              		.loc 1 142 0
 616 035c 8B4A     		ldr	r2, .L688
 617 035e 4FF41673 		mov	r3, #600
 618 0362 1360     		str	r3, [r2]
 619              		.loc 1 143 0
 620 0364 8B4B     		ldr	r3, .L688+8
 621 0366 4FF49674 		mov	r4, #300
 622 036a 1C60     		str	r4, [r3]
 623              		.loc 1 144 0
 624 036c 9FE7     		b	.L23
 625              	.L12:
 626              		.loc 1 178 0
 627 036e 8B4B     		ldr	r3, .L688+16
ARM GAS  C:\Users\mathi\AppData\Local\Temp\cc0ZaFXf.s 			page 12


 628 0370 1B78     		ldrb	r3, [r3]	@ zero_extendqisi2
 629 0372 002B     		cmp	r3, #0
 630 0374 01F0D082 		beq	.L670
 631              	.LVL48:
 632              	.L24:
 633              		.loc 1 182 0
 634 0378 41F65071 		movw	r1, #8016
 635 037c 42F61430 		movw	r0, #11028
 636 0380 FFF7FEFF 		bl	e_play_sound
 637              	.LVL49:
 638 0384 834B     		ldr	r3, .L688+8
 639 0386 1C68     		ldr	r4, [r3]
 640              		.loc 1 183 0
 641 0388 91E7     		b	.L23
 642              	.LVL50:
 643              	.L39:
 644              		.loc 1 236 0
 645 038a 834B     		ldr	r3, .L688+12
 646              	.L652:
 647              		.loc 1 237 0
 648 038c 814A     		ldr	r2, .L688+8
 649 038e 8049     		ldr	r1, .L688+4
 650 0390 1160     		str	r1, [r2]
 651              		.loc 1 236 0
 652 0392 7E4A     		ldr	r2, .L688
 653              		.loc 1 238 0
 654 0394 0C46     		mov	r4, r1
 655              		.loc 1 236 0
 656 0396 1360     		str	r3, [r2]
 657              	.LVL51:
 658              	.L40:
 659              		.loc 1 250 0
 660 0398 2046     		mov	r0, r4
 661 039a FFF7FEFF 		bl	e_set_speed_left
 662              	.LVL52:
 663              		.loc 1 251 0
 664 039e 7B4B     		ldr	r3, .L688
 665 03a0 1868     		ldr	r0, [r3]
 666 03a2 FFF7FEFF 		bl	e_set_speed_right
 667              	.LVL53:
 668 03a6 B346     		mov	fp, r6
 669 03a8 39E7     		b	.L9
 670              	.LVL54:
 671              	.L38:
 672              		.loc 1 232 0
 673 03aa 784A     		ldr	r2, .L688
 674 03ac 784B     		ldr	r3, .L688+4
 675 03ae 1360     		str	r3, [r2]
 676              		.loc 1 233 0
 677 03b0 784A     		ldr	r2, .L688+8
 678              		.loc 1 234 0
 679 03b2 1C46     		mov	r4, r3
 680              		.loc 1 233 0
 681 03b4 1360     		str	r3, [r2]
 682              		.loc 1 234 0
 683 03b6 EFE7     		b	.L40
 684              	.L37:
ARM GAS  C:\Users\mathi\AppData\Local\Temp\cc0ZaFXf.s 			page 13


 685              		.loc 1 229 0
 686 03b8 774C     		ldr	r4, .L688+12
 687              	.L653:
 688              		.loc 1 228 0
 689 03ba 744B     		ldr	r3, .L688
 690 03bc 744A     		ldr	r2, .L688+4
 691 03be 1A60     		str	r2, [r3]
 692              		.loc 1 229 0
 693 03c0 744B     		ldr	r3, .L688+8
 694 03c2 1C60     		str	r4, [r3]
 695              		.loc 1 230 0
 696 03c4 E8E7     		b	.L40
 697              	.L36:
 698              		.loc 1 225 0
 699 03c6 4FF41674 		mov	r4, #600
 700 03ca F6E7     		b	.L653
 701              	.L35:
 702              		.loc 1 220 0
 703 03cc 6F4A     		ldr	r2, .L688
 704 03ce 0023     		movs	r3, #0
 705 03d0 1360     		str	r3, [r2]
 706              		.loc 1 221 0
 707 03d2 704A     		ldr	r2, .L688+8
 708 03d4 1360     		str	r3, [r2]
 709              		.loc 1 222 0
 710 03d6 DFE7     		b	.L40
 711              	.L34:
 712              		.loc 1 216 0
 713 03d8 4FF41673 		mov	r3, #600
 714 03dc D6E7     		b	.L652
 715              	.L33:
 716              		.loc 1 212 0
 717 03de 6B4A     		ldr	r2, .L688
 718 03e0 4FF49673 		mov	r3, #300
 719 03e4 1360     		str	r3, [r2]
 720              		.loc 1 213 0
 721 03e6 6B4B     		ldr	r3, .L688+8
 722 03e8 4FF41674 		mov	r4, #600
 723 03ec 1C60     		str	r4, [r3]
 724              		.loc 1 214 0
 725 03ee D3E7     		b	.L40
 726              	.L32:
 727              		.loc 1 208 0
 728 03f0 664B     		ldr	r3, .L688
 729 03f2 4FF41674 		mov	r4, #600
 730 03f6 1C60     		str	r4, [r3]
 731              		.loc 1 209 0
 732 03f8 664B     		ldr	r3, .L688+8
 733 03fa 1C60     		str	r4, [r3]
 734              		.loc 1 210 0
 735 03fc CCE7     		b	.L40
 736              	.L31:
 737              		.loc 1 204 0
 738 03fe 634A     		ldr	r2, .L688
 739 0400 4FF41673 		mov	r3, #600
 740 0404 1360     		str	r3, [r2]
 741              		.loc 1 205 0
ARM GAS  C:\Users\mathi\AppData\Local\Temp\cc0ZaFXf.s 			page 14


 742 0406 634B     		ldr	r3, .L688+8
 743 0408 4FF49674 		mov	r4, #300
 744 040c 1C60     		str	r4, [r3]
 745              		.loc 1 206 0
 746 040e C3E7     		b	.L40
 747              	.L29:
 748              		.loc 1 240 0
 749 0410 624B     		ldr	r3, .L688+16
 750 0412 1B78     		ldrb	r3, [r3]	@ zero_extendqisi2
 751 0414 002B     		cmp	r3, #0
 752 0416 01F07882 		beq	.L671
 753              	.LVL55:
 754              	.L41:
 755              		.loc 1 244 0
 756 041a 41F65071 		movw	r1, #8016
 757 041e 42F61430 		movw	r0, #11028
 758 0422 FFF7FEFF 		bl	e_play_sound
 759              	.LVL56:
 760 0426 5B4B     		ldr	r3, .L688+8
 761 0428 1C68     		ldr	r4, [r3]
 762              		.loc 1 245 0
 763 042a B5E7     		b	.L40
 764              	.LVL57:
 765              	.L664:
 766              		.loc 1 260 0
 767 042c 0022     		movs	r2, #0
 768 042e CDF828B0 		str	fp, [sp, #40]
 769              		.loc 1 577 0
 770 0432 5B4E     		ldr	r6, .L688+20
 771              		.loc 1 295 0
 772 0434 9FED5B8A 		vldr.32	s16, .L688+24
 773              		.loc 1 260 0
 774 0438 DDF824B0 		ldr	fp, [sp, #36]
 775              	.LVL58:
 776 043c C9F80020 		str	r2, [r9]
 777              	.L139:
 778              		.loc 1 262 0
 779 0440 5B42     		negs	r3, r3
 780 0442 DBB2     		uxtb	r3, r3
 781 0444 413B     		subs	r3, r3, #65
 782 0446 362B     		cmp	r3, #54
 783 0448 6ED8     		bhi	.L44
 784 044a DFE813F0 		tbh	[pc, r3, lsl #1]
 785              	.L46:
 786 044e 7902     		.2byte	(.L45-.L46)/2
 787 0450 6D00     		.2byte	(.L44-.L46)/2
 788 0452 6D00     		.2byte	(.L44-.L46)/2
 789 0454 2502     		.2byte	(.L47-.L46)/2
 790 0456 DE01     		.2byte	(.L48-.L46)/2
 791 0458 6D00     		.2byte	(.L44-.L46)/2
 792 045a 6D00     		.2byte	(.L44-.L46)/2
 793 045c 6D00     		.2byte	(.L44-.L46)/2
 794 045e F501     		.2byte	(.L49-.L46)/2
 795 0460 6D00     		.2byte	(.L44-.L46)/2
 796 0462 6D00     		.2byte	(.L44-.L46)/2
 797 0464 5E01     		.2byte	(.L50-.L46)/2
 798 0466 9301     		.2byte	(.L51-.L46)/2
ARM GAS  C:\Users\mathi\AppData\Local\Temp\cc0ZaFXf.s 			page 15


 799 0468 4201     		.2byte	(.L52-.L46)/2
 800 046a 2601     		.2byte	(.L53-.L46)/2
 801 046c D200     		.2byte	(.L54-.L46)/2
 802 046e B700     		.2byte	(.L55-.L46)/2
 803 0470 6D00     		.2byte	(.L44-.L46)/2
 804 0472 6D00     		.2byte	(.L44-.L46)/2
 805 0474 6D00     		.2byte	(.L44-.L46)/2
 806 0476 6D00     		.2byte	(.L44-.L46)/2
 807 0478 6D00     		.2byte	(.L44-.L46)/2
 808 047a F602     		.2byte	(.L56-.L46)/2
 809 047c 6D00     		.2byte	(.L44-.L46)/2
 810 047e 6D00     		.2byte	(.L44-.L46)/2
 811 0480 6D00     		.2byte	(.L44-.L46)/2
 812 0482 6D00     		.2byte	(.L44-.L46)/2
 813 0484 6D00     		.2byte	(.L44-.L46)/2
 814 0486 6D00     		.2byte	(.L44-.L46)/2
 815 0488 6D00     		.2byte	(.L44-.L46)/2
 816 048a 6D00     		.2byte	(.L44-.L46)/2
 817 048c 6D00     		.2byte	(.L44-.L46)/2
 818 048e 3700     		.2byte	(.L57-.L46)/2
 819 0490 2503     		.2byte	(.L58-.L46)/2
 820 0492 6D00     		.2byte	(.L44-.L46)/2
 821 0494 6D00     		.2byte	(.L44-.L46)/2
 822 0496 6D00     		.2byte	(.L44-.L46)/2
 823 0498 6D00     		.2byte	(.L44-.L46)/2
 824 049a C502     		.2byte	(.L59-.L46)/2
 825 049c 6D00     		.2byte	(.L44-.L46)/2
 826 049e 6D00     		.2byte	(.L44-.L46)/2
 827 04a0 6D00     		.2byte	(.L44-.L46)/2
 828 04a2 6D00     		.2byte	(.L44-.L46)/2
 829 04a4 6D00     		.2byte	(.L44-.L46)/2
 830 04a6 6D00     		.2byte	(.L44-.L46)/2
 831 04a8 6D00     		.2byte	(.L44-.L46)/2
 832 04aa 6D00     		.2byte	(.L44-.L46)/2
 833 04ac 6D00     		.2byte	(.L44-.L46)/2
 834 04ae 6D00     		.2byte	(.L44-.L46)/2
 835 04b0 6D00     		.2byte	(.L44-.L46)/2
 836 04b2 6D00     		.2byte	(.L44-.L46)/2
 837 04b4 1803     		.2byte	(.L60-.L46)/2
 838 04b6 D602     		.2byte	(.L61-.L46)/2
 839 04b8 6D00     		.2byte	(.L44-.L46)/2
 840 04ba 9000     		.2byte	(.L62-.L46)/2
 841              		.p2align 1
 842              	.L57:
 843              		.loc 1 264 0
 844 04bc BBF1000F 		cmp	fp, #0
 845 04c0 01F0CF81 		beq	.L63
 846              		.loc 1 265 0
 847 04c4 0121     		movs	r1, #1
 848 04c6 0020     		movs	r0, #0
 849              	.L654:
 850              		.loc 1 277 0
 851 04c8 FFF7FEFF 		bl	e_get_acc_filtered
 852              	.LVL59:
 853 04cc 364C     		ldr	r4, .L688+28
 854              		.loc 1 278 0
 855 04ce 374D     		ldr	r5, .L688+32
ARM GAS  C:\Users\mathi\AppData\Local\Temp\cc0ZaFXf.s 			page 16


 856              		.loc 1 277 0
 857 04d0 2060     		str	r0, [r4]
 858              		.loc 1 278 0
 859 04d2 0121     		movs	r1, #1
 860 04d4 0846     		mov	r0, r1
 861 04d6 FFF7FEFF 		bl	e_get_acc_filtered
 862              	.LVL60:
 863              		.loc 1 279 0
 864 04da 0121     		movs	r1, #1
 865              		.loc 1 278 0
 866 04dc 2860     		str	r0, [r5]
 867              		.loc 1 279 0
 868 04de 0220     		movs	r0, #2
 869 04e0 FFF7FEFF 		bl	e_get_acc_filtered
 870              	.LVL61:
 871 04e4 2B68     		ldr	r3, [r5]
 872 04e6 2468     		ldr	r4, [r4]
 873 04e8 314A     		ldr	r2, .L688+36
 874 04ea C5B2     		uxtb	r5, r0
 875 04ec 1060     		str	r0, [r2]
 876 04ee E1B2     		uxtb	r1, r4
 877 04f0 C0F30722 		ubfx	r2, r0, #8, #8
 878 04f4 C4F30724 		ubfx	r4, r4, #8, #8
 879 04f8 5FFA83FC 		uxtb	ip, r3
 880 04fc C3F30720 		ubfx	r0, r3, #8, #8
 881              	.L64:
 882              		.loc 1 282 0
 883 0500 0023     		movs	r3, #0
 884 0502 61F30703 		bfi	r3, r1, #0, #8
 885 0506 D9F80010 		ldr	r1, [r9]
 886 050a 64F30F23 		bfi	r3, r4, #8, #8
 887 050e 6CF31743 		bfi	r3, ip, #16, #8
 888 0512 08EB0104 		add	r4, r8, r1
 889 0516 60F31F63 		bfi	r3, r0, #24, #8
 890              		.loc 1 287 0
 891 051a 881D     		adds	r0, r1, #6
 892              		.loc 1 282 0
 893 051c 48F80130 		str	r3, [r8, r1]	@ unaligned
 894              		.loc 1 287 0
 895 0520 C9F80000 		str	r0, [r9]
 896              		.loc 1 286 0
 897 0524 2571     		strb	r5, [r4, #4]
 898              		.loc 1 287 0
 899 0526 6271     		strb	r2, [r4, #5]
 900              	.L44:
 901              		.loc 1 574 0
 902 0528 BBF1000F 		cmp	fp, #0
 903 052c 23D0     		beq	.L138
 904              	.L135:
 905              		.loc 1 575 0 discriminator 1
 906 052e 3046     		mov	r0, r6
 907 0530 FFF7FEFF 		bl	e_getchar_uart1
 908              	.LVL62:
 909 0534 0028     		cmp	r0, #0
 910 0536 FAD0     		beq	.L135
 911              	.L136:
 912              		.loc 1 579 0
ARM GAS  C:\Users\mathi\AppData\Local\Temp\cc0ZaFXf.s 			page 17


 913 0538 3B78     		ldrb	r3, [r7]	@ zero_extendqisi2
 914 053a 002B     		cmp	r3, #0
 915 053c 80D1     		bne	.L139
 916              		.loc 1 580 0
 917 053e D9F80010 		ldr	r1, [r9]
 918 0542 DDF828B0 		ldr	fp, [sp, #40]
 919 0546 0029     		cmp	r1, #0
 920 0548 3FF4BBAD 		beq	.L4
 921              		.loc 1 581 0
 922 054c 099A     		ldr	r2, [sp, #36]
 923 054e 002A     		cmp	r2, #0
 924 0550 01F05F81 		beq	.L141
 925              		.loc 1 582 0
 926 0554 174A     		ldr	r2, .L688+40
 927 0556 1278     		ldrb	r2, [r2]	@ zero_extendqisi2
 928 0558 002A     		cmp	r2, #0
 929 055a 41F05882 		bne	.L672
 930              	.L142:
 931              		.loc 1 590 0
 932 055e 1648     		ldr	r0, .L688+44
 933 0560 FFF7FEFF 		bl	e_send_uart1_char
 934              	.LVL63:
 935              	.L144:
 936              		.loc 1 591 0 discriminator 1
 937 0564 FFF7FEFF 		bl	e_uart1_sending
 938              	.LVL64:
 939 0568 0028     		cmp	r0, #0
 940 056a FBD1     		bne	.L144
 941 056c A9E5     		b	.L4
 942              	.L62:
 943              		.loc 1 547 0
 944 056e BBF1000F 		cmp	fp, #0
 945 0572 40F0A182 		bne	.L673
 946              	.L138:
 947              		.loc 1 577 0 discriminator 1
 948 0576 3046     		mov	r0, r6
 949 0578 FFF7FEFF 		bl	e_getchar_uart2
 950              	.LVL65:
 951 057c 0028     		cmp	r0, #0
 952 057e DBD1     		bne	.L136
 953              	.L662:
 954              		.loc 1 577 0 is_stmt 0
 955 0580 3046     		mov	r0, r6
 956 0582 FFF7FEFF 		bl	e_getchar_uart2
 957              	.LVL66:
 958 0586 0028     		cmp	r0, #0
 959 0588 F5D0     		beq	.L138
 960 058a D5E7     		b	.L136
 961              	.L689:
 962              		.align	2
 963              	.L688:
 964 058c 00000000 		.word	.LANCHOR7
 965 0590 A8FDFFFF 		.word	-600
 966 0594 00000000 		.word	.LANCHOR8
 967 0598 D4FEFFFF 		.word	-300
 968 059c 00000000 		.word	.LANCHOR9
 969 05a0 00000000 		.word	.LANCHOR10
ARM GAS  C:\Users\mathi\AppData\Local\Temp\cc0ZaFXf.s 			page 18


 970 05a4 00000000 		.word	0
 971 05a8 00000000 		.word	.LANCHOR12
 972 05ac 00000000 		.word	.LANCHOR13
 973 05b0 00000000 		.word	.LANCHOR14
 974 05b4 00000000 		.word	.LANCHOR21
 975 05b8 00000000 		.word	buffer
 976              	.L55:
 977              		.loc 1 497 0 is_stmt 1
 978 05bc FFF7FEFF 		bl	e_get_steps_left
 979              	.LVL67:
 980              		.loc 1 498 0
 981 05c0 D9F80030 		ldr	r3, [r9]
 982              		.loc 1 499 0
 983 05c4 08EB0302 		add	r2, r8, r3
 984              		.loc 1 498 0
 985 05c8 08F80300 		strb	r0, [r8, r3]
 986              		.loc 1 499 0
 987 05cc 0112     		asrs	r1, r0, #8
 988 05ce 0233     		adds	r3, r3, #2
 989 05d0 5170     		strb	r1, [r2, #1]
 990 05d2 C9F80030 		str	r3, [r9]
 991              		.loc 1 500 0
 992 05d6 FFF7FEFF 		bl	e_get_steps_right
 993              	.LVL68:
 994              	.L657:
 995              		.loc 1 523 0
 996 05da D9F80030 		ldr	r3, [r9]
 997              		.loc 1 524 0
 998 05de 08EB0302 		add	r2, r8, r3
 999              		.loc 1 523 0
 1000 05e2 08F80300 		strb	r0, [r8, r3]
 1001              		.loc 1 524 0
 1002 05e6 0112     		asrs	r1, r0, #8
 1003 05e8 0233     		adds	r3, r3, #2
 1004 05ea 5170     		strb	r1, [r2, #1]
 1005 05ec C9F80030 		str	r3, [r9]
 1006              		.loc 1 525 0
 1007 05f0 9AE7     		b	.L44
 1008              	.L54:
 1009              		.loc 1 478 0
 1010 05f2 A24C     		ldr	r4, .L690
 1011              		.loc 1 477 0
 1012 05f4 BBF1000F 		cmp	fp, #0
 1013 05f8 2FD0     		beq	.L108
 1014              	.L109:
 1015              		.loc 1 478 0 discriminator 1
 1016 05fa 2046     		mov	r0, r4
 1017 05fc FFF7FEFF 		bl	e_getchar_uart1
 1018              	.LVL69:
 1019 0600 0028     		cmp	r0, #0
 1020 0602 FAD0     		beq	.L109
 1021              		.loc 1 479 0
 1022 0604 9E4C     		ldr	r4, .L690+4
 1023              	.L110:
 1024              		.loc 1 479 0 is_stmt 0 discriminator 1
 1025 0606 2046     		mov	r0, r4
 1026 0608 FFF7FEFF 		bl	e_getchar_uart1
ARM GAS  C:\Users\mathi\AppData\Local\Temp\cc0ZaFXf.s 			page 19


 1027              	.LVL70:
 1028 060c 0028     		cmp	r0, #0
 1029 060e FAD0     		beq	.L110
 1030              		.loc 1 484 0 is_stmt 1
 1031 0610 9B4B     		ldr	r3, .L690+4
 1032              		.loc 1 486 0
 1033 0612 9A4C     		ldr	r4, .L690
 1034              		.loc 1 484 0
 1035 0614 1A78     		ldrb	r2, [r3]	@ zero_extendqisi2
 1036 0616 994B     		ldr	r3, .L690
 1037 0618 1B78     		ldrb	r3, [r3]	@ zero_extendqisi2
 1038 061a 03EB0223 		add	r3, r3, r2, lsl #8
 1039 061e 994A     		ldr	r2, .L690+8
 1040 0620 1360     		str	r3, [r2]
 1041              	.L114:
 1042              		.loc 1 486 0 discriminator 1
 1043 0622 2046     		mov	r0, r4
 1044 0624 FFF7FEFF 		bl	e_getchar_uart1
 1045              	.LVL71:
 1046 0628 0028     		cmp	r0, #0
 1047 062a FAD0     		beq	.L114
 1048              		.loc 1 487 0
 1049 062c 944C     		ldr	r4, .L690+4
 1050              	.L115:
 1051              		.loc 1 487 0 is_stmt 0 discriminator 1
 1052 062e 2046     		mov	r0, r4
 1053 0630 FFF7FEFF 		bl	e_getchar_uart1
 1054              	.LVL72:
 1055 0634 0028     		cmp	r0, #0
 1056 0636 FAD0     		beq	.L115
 1057              	.L116:
 1058              		.loc 1 492 0 is_stmt 1
 1059 0638 914B     		ldr	r3, .L690+4
 1060              		.loc 1 493 0
 1061 063a 9249     		ldr	r1, .L690+8
 1062              		.loc 1 492 0
 1063 063c 1A78     		ldrb	r2, [r3]	@ zero_extendqisi2
 1064 063e 8F4B     		ldr	r3, .L690
 1065              		.loc 1 493 0
 1066 0640 0868     		ldr	r0, [r1]
 1067              		.loc 1 492 0
 1068 0642 1B78     		ldrb	r3, [r3]	@ zero_extendqisi2
 1069 0644 03EB0223 		add	r3, r3, r2, lsl #8
 1070 0648 8F4A     		ldr	r2, .L690+12
 1071 064a 1446     		mov	r4, r2
 1072 064c 1360     		str	r3, [r2]
 1073              		.loc 1 493 0
 1074 064e FFF7FEFF 		bl	e_set_steps_left
 1075              	.LVL73:
 1076              		.loc 1 494 0
 1077 0652 2068     		ldr	r0, [r4]
 1078 0654 FFF7FEFF 		bl	e_set_steps_right
 1079              	.LVL74:
 1080              		.loc 1 495 0
 1081 0658 66E7     		b	.L44
 1082              	.L108:
 1083              		.loc 1 481 0 discriminator 1
ARM GAS  C:\Users\mathi\AppData\Local\Temp\cc0ZaFXf.s 			page 20


 1084 065a 2046     		mov	r0, r4
 1085 065c FFF7FEFF 		bl	e_getchar_uart2
 1086              	.LVL75:
 1087 0660 0028     		cmp	r0, #0
 1088 0662 FAD0     		beq	.L108
 1089              		.loc 1 482 0
 1090 0664 864C     		ldr	r4, .L690+4
 1091              	.L112:
 1092              		.loc 1 482 0 is_stmt 0 discriminator 1
 1093 0666 2046     		mov	r0, r4
 1094 0668 FFF7FEFF 		bl	e_getchar_uart2
 1095              	.LVL76:
 1096 066c 0028     		cmp	r0, #0
 1097 066e FAD0     		beq	.L112
 1098              		.loc 1 484 0 is_stmt 1
 1099 0670 834B     		ldr	r3, .L690+4
 1100              		.loc 1 489 0
 1101 0672 824C     		ldr	r4, .L690
 1102              		.loc 1 484 0
 1103 0674 1A78     		ldrb	r2, [r3]	@ zero_extendqisi2
 1104 0676 814B     		ldr	r3, .L690
 1105 0678 1B78     		ldrb	r3, [r3]	@ zero_extendqisi2
 1106 067a 03EB0223 		add	r3, r3, r2, lsl #8
 1107 067e 814A     		ldr	r2, .L690+8
 1108 0680 1360     		str	r3, [r2]
 1109              	.L117:
 1110              		.loc 1 489 0 discriminator 1
 1111 0682 2046     		mov	r0, r4
 1112 0684 FFF7FEFF 		bl	e_getchar_uart2
 1113              	.LVL77:
 1114 0688 0028     		cmp	r0, #0
 1115 068a FAD0     		beq	.L117
 1116              		.loc 1 490 0
 1117 068c 7C4C     		ldr	r4, .L690+4
 1118              	.L118:
 1119              		.loc 1 490 0 is_stmt 0 discriminator 1
 1120 068e 2046     		mov	r0, r4
 1121 0690 FFF7FEFF 		bl	e_getchar_uart2
 1122              	.LVL78:
 1123 0694 0028     		cmp	r0, #0
 1124 0696 FAD0     		beq	.L118
 1125 0698 CEE7     		b	.L116
 1126              	.L53:
 1127              		.loc 1 460 0 is_stmt 1
 1128 069a BBF1000F 		cmp	fp, #0
 1129 069e 01F01581 		beq	.L104
 1130              		.loc 1 461 0
 1131 06a2 0020     		movs	r0, #0
 1132 06a4 CAF80000 		str	r0, [r10]
 1133              	.L105:
 1134              		.loc 1 463 0 discriminator 3
 1135 06a8 FFF7FEFF 		bl	e_get_ambient_light
 1136              	.LVL79:
 1137              		.loc 1 464 0 discriminator 3
 1138 06ac D9F80020 		ldr	r2, [r9]
 1139              		.loc 1 461 0 discriminator 3
 1140 06b0 DAF80030 		ldr	r3, [r10]
ARM GAS  C:\Users\mathi\AppData\Local\Temp\cc0ZaFXf.s 			page 21


 1141              		.loc 1 464 0 discriminator 3
 1142 06b4 08F80200 		strb	r0, [r8, r2]
 1143              		.loc 1 465 0 discriminator 3
 1144 06b8 08EB0204 		add	r4, r8, r2
 1145 06bc 0112     		asrs	r1, r0, #8
 1146              		.loc 1 461 0 discriminator 3
 1147 06be 581C     		adds	r0, r3, #1
 1148              		.loc 1 465 0 discriminator 3
 1149 06c0 0232     		adds	r2, r2, #2
 1150              		.loc 1 461 0 discriminator 3
 1151 06c2 0728     		cmp	r0, #7
 1152              		.loc 1 465 0 discriminator 3
 1153 06c4 6170     		strb	r1, [r4, #1]
 1154 06c6 C9F80020 		str	r2, [r9]
 1155              		.loc 1 461 0 discriminator 3
 1156 06ca CAF80000 		str	r0, [r10]
 1157 06ce EBDD     		ble	.L105
 1158 06d0 2DE7     		b	.L135
 1159              	.L52:
 1160              		.loc 1 445 0
 1161 06d2 BBF1000F 		cmp	fp, #0
 1162 06d6 01F0DA80 		beq	.L101
 1163              		.loc 1 446 0
 1164 06da 0020     		movs	r0, #0
 1165 06dc CAF80000 		str	r0, [r10]
 1166              	.L102:
 1167              		.loc 1 447 0 discriminator 3
 1168 06e0 FFF7FEFF 		bl	e_get_calibrated_prox
 1169              	.LVL80:
 1170              		.loc 1 448 0 discriminator 3
 1171 06e4 D9F80020 		ldr	r2, [r9]
 1172              		.loc 1 446 0 discriminator 3
 1173 06e8 DAF80030 		ldr	r3, [r10]
 1174              		.loc 1 448 0 discriminator 3
 1175 06ec 08F80200 		strb	r0, [r8, r2]
 1176              		.loc 1 449 0 discriminator 3
 1177 06f0 08EB0204 		add	r4, r8, r2
 1178 06f4 0112     		asrs	r1, r0, #8
 1179              		.loc 1 446 0 discriminator 3
 1180 06f6 581C     		adds	r0, r3, #1
 1181              		.loc 1 449 0 discriminator 3
 1182 06f8 0232     		adds	r2, r2, #2
 1183              		.loc 1 446 0 discriminator 3
 1184 06fa 0728     		cmp	r0, #7
 1185              		.loc 1 449 0 discriminator 3
 1186 06fc 6170     		strb	r1, [r4, #1]
 1187 06fe C9F80020 		str	r2, [r9]
 1188              		.loc 1 446 0 discriminator 3
 1189 0702 CAF80000 		str	r0, [r10]
 1190 0706 EBDD     		ble	.L102
 1191 0708 11E7     		b	.L135
 1192              	.L50:
 1193              		.loc 1 400 0
 1194 070a 5C4C     		ldr	r4, .L690
 1195              		.loc 1 399 0
 1196 070c BBF1000F 		cmp	fp, #0
 1197 0710 17D0     		beq	.L84
ARM GAS  C:\Users\mathi\AppData\Local\Temp\cc0ZaFXf.s 			page 22


 1198              	.L85:
 1199              		.loc 1 400 0 discriminator 1
 1200 0712 2046     		mov	r0, r4
 1201 0714 FFF7FEFF 		bl	e_getchar_uart1
 1202              	.LVL81:
 1203 0718 0028     		cmp	r0, #0
 1204 071a FAD0     		beq	.L85
 1205              		.loc 1 401 0
 1206 071c 584C     		ldr	r4, .L690+4
 1207              	.L86:
 1208              		.loc 1 401 0 is_stmt 0 discriminator 1
 1209 071e 2046     		mov	r0, r4
 1210 0720 FFF7FEFF 		bl	e_getchar_uart1
 1211              	.LVL82:
 1212 0724 0028     		cmp	r0, #0
 1213 0726 FAD0     		beq	.L86
 1214              		.loc 1 406 0 is_stmt 1
 1215 0728 544B     		ldr	r3, .L690
 1216 072a 1878     		ldrb	r0, [r3]	@ zero_extendqisi2
 1217 072c 0828     		cmp	r0, #8
 1218 072e 01F0FA80 		beq	.L421
 1219 0732 0928     		cmp	r0, #9
 1220 0734 01F0A781 		beq	.L674
 1221              	.L92:
 1222              		.loc 1 418 0
 1223 0738 514B     		ldr	r3, .L690+4
 1224 073a 1978     		ldrb	r1, [r3]	@ zero_extendqisi2
 1225 073c FFF7FEFF 		bl	e_set_led
 1226              	.LVL83:
 1227              		.loc 1 419 0
 1228 0740 F2E6     		b	.L44
 1229              	.L84:
 1230              		.loc 1 403 0 discriminator 1
 1231 0742 2046     		mov	r0, r4
 1232 0744 FFF7FEFF 		bl	e_getchar_uart2
 1233              	.LVL84:
 1234 0748 0028     		cmp	r0, #0
 1235 074a FAD0     		beq	.L84
 1236              		.loc 1 404 0
 1237 074c 4C4C     		ldr	r4, .L690+4
 1238              	.L88:
 1239              		.loc 1 404 0 is_stmt 0 discriminator 1
 1240 074e 2046     		mov	r0, r4
 1241 0750 FFF7FEFF 		bl	e_getchar_uart2
 1242              	.LVL85:
 1243 0754 0028     		cmp	r0, #0
 1244 0756 FAD0     		beq	.L88
 1245              		.loc 1 406 0 is_stmt 1
 1246 0758 484B     		ldr	r3, .L690
 1247 075a 1878     		ldrb	r0, [r3]	@ zero_extendqisi2
 1248 075c 0828     		cmp	r0, #8
 1249 075e 3FF40AAF 		beq	.L138
 1250 0762 0928     		cmp	r0, #9
 1251 0764 E8D1     		bne	.L92
 1252              		.loc 1 577 0
 1253 0766 3046     		mov	r0, r6
 1254 0768 FFF7FEFF 		bl	e_getchar_uart2
ARM GAS  C:\Users\mathi\AppData\Local\Temp\cc0ZaFXf.s 			page 23


 1255              	.LVL86:
 1256 076c 0028     		cmp	r0, #0
 1257 076e 3FF407AF 		beq	.L662
 1258 0772 E1E6     		b	.L136
 1259              	.L51:
 1260              		.loc 1 424 0
 1261 0774 BBF1000F 		cmp	fp, #0
 1262 0778 3FF4FDAE 		beq	.L138
 1263              		.loc 1 425 0
 1264 077c FFF7FEFF 		bl	e_i2cp_init
 1265              	.LVL87:
 1266              		.loc 1 426 0
 1267 0780 FFF7FEFF 		bl	e_i2cp_enable
 1268              	.LVL88:
 1269              		.loc 1 427 0
 1270 0784 0021     		movs	r1, #0
 1271 0786 C020     		movs	r0, #192
 1272 0788 FFF7FEFF 		bl	e_i2cp_read
 1273              	.LVL89:
 1274              		.loc 1 428 0
 1275 078c 0023     		movs	r3, #0
 1276 078e CAF80030 		str	r3, [r10]
 1277              	.L93:
 1278 0792 DAB2     		uxtb	r2, r3
 1279 0794 D9F80040 		ldr	r4, [r9]
 1280              		.loc 1 429 0
 1281 0798 DB07     		lsls	r3, r3, #31
 1282 079a 02F10101 		add	r1, r2, #1
 1283              		.loc 1 430 0
 1284 079e 02F1FF32 		add	r2, r2, #-1
 1285              		.loc 1 429 0
 1286 07a2 4FF0C000 		mov	r0, #192
 1287 07a6 C9B2     		uxtb	r1, r1
 1288              		.loc 1 430 0
 1289 07a8 44BF     		itt	mi
 1290 07aa C020     		movmi	r0, #192
 1291 07ac D1B2     		uxtbmi	r1, r2
 1292 07ae 651C     		adds	r5, r4, #1
 1293 07b0 C9F80050 		str	r5, [r9]
 1294 07b4 FFF7FEFF 		bl	e_i2cp_read
 1295              	.LVL90:
 1296              		.loc 1 428 0
 1297 07b8 DAF80030 		ldr	r3, [r10]
 1298              		.loc 1 430 0
 1299 07bc 08F80400 		strb	r0, [r8, r4]
 1300              		.loc 1 428 0
 1301 07c0 0133     		adds	r3, r3, #1
 1302 07c2 052B     		cmp	r3, #5
 1303 07c4 CAF80030 		str	r3, [r10]
 1304 07c8 E3DD     		ble	.L93
 1305              		.loc 1 433 0
 1306 07ca 0D23     		movs	r3, #13
 1307 07cc CAF80030 		str	r3, [r10]
 1308              	.L97:
 1309 07d0 DAB2     		uxtb	r2, r3
 1310 07d2 D9F80040 		ldr	r4, [r9]
 1311              		.loc 1 434 0
ARM GAS  C:\Users\mathi\AppData\Local\Temp\cc0ZaFXf.s 			page 24


 1312 07d6 DB07     		lsls	r3, r3, #31
 1313 07d8 02F1FF31 		add	r1, r2, #-1
 1314              		.loc 1 435 0
 1315 07dc 02F10102 		add	r2, r2, #1
 1316              		.loc 1 434 0
 1317 07e0 4FF0C000 		mov	r0, #192
 1318 07e4 C9B2     		uxtb	r1, r1
 1319              		.loc 1 435 0
 1320 07e6 44BF     		itt	mi
 1321 07e8 C020     		movmi	r0, #192
 1322 07ea D1B2     		uxtbmi	r1, r2
 1323 07ec 651C     		adds	r5, r4, #1
 1324 07ee C9F80050 		str	r5, [r9]
 1325 07f2 FFF7FEFF 		bl	e_i2cp_read
 1326              	.LVL91:
 1327              		.loc 1 433 0
 1328 07f6 DAF80030 		ldr	r3, [r10]
 1329              		.loc 1 435 0
 1330 07fa 08F80400 		strb	r0, [r8, r4]
 1331              		.loc 1 433 0
 1332 07fe 0133     		adds	r3, r3, #1
 1333 0800 102B     		cmp	r3, #16
 1334 0802 CAF80030 		str	r3, [r10]
 1335 0806 E3DD     		ble	.L97
 1336 0808 36E1     		b	.L658
 1337              	.L48:
 1338              		.loc 1 363 0
 1339 080a 204B     		ldr	r3, .L690+16
 1340 080c 1968     		ldr	r1, [r3]
 1341              		.loc 1 365 0
 1342 080e 204B     		ldr	r3, .L690+20
 1343 0810 1A68     		ldr	r2, [r3]
 1344              		.loc 1 363 0
 1345 0812 0023     		movs	r3, #0
 1346 0814 61F30703 		bfi	r3, r1, #0, #8
 1347              		.loc 1 364 0
 1348 0818 0912     		asrs	r1, r1, #8
 1349              		.loc 1 363 0
 1350 081a 61F30F23 		bfi	r3, r1, #8, #8
 1351 081e D9F80010 		ldr	r1, [r9]
 1352 0822 62F31743 		bfi	r3, r2, #16, #8
 1353              		.loc 1 366 0
 1354 0826 1212     		asrs	r2, r2, #8
 1355              		.loc 1 363 0
 1356 0828 62F31F63 		bfi	r3, r2, #24, #8
 1357              		.loc 1 366 0
 1358 082c 0A1D     		adds	r2, r1, #4
 1359              		.loc 1 363 0
 1360 082e 48F80130 		str	r3, [r8, r1]	@ unaligned
 1361              		.loc 1 366 0
 1362 0832 C9F80020 		str	r2, [r9]
 1363              		.loc 1 367 0
 1364 0836 77E6     		b	.L44
 1365              	.L49:
 1366              		.loc 1 389 0
 1367 0838 BBF1000F 		cmp	fp, #0
 1368 083c 3FF49BAE 		beq	.L138
ARM GAS  C:\Users\mathi\AppData\Local\Temp\cc0ZaFXf.s 			page 25


 1369              		.loc 1 390 0
 1370 0840 D9F80030 		ldr	r3, [r9]
 1371 0844 0333     		adds	r3, r3, #3
 1372 0846 08EB0300 		add	r0, r8, r3
 1373 084a FFF7FEFF 		bl	e_poxxxx_launch_capture
 1374              	.LVL92:
 1375              		.loc 1 392 0
 1376 084e 1499     		ldr	r1, [sp, #80]
 1377              		.loc 1 395 0
 1378 0850 139A     		ldr	r2, [sp, #76]
 1379              		.loc 1 392 0
 1380 0852 D9F80030 		ldr	r3, [r9]
 1381 0856 0868     		ldr	r0, [r1]
 1382              		.loc 1 395 0
 1383 0858 1268     		ldr	r2, [r2]
 1384              		.loc 1 392 0
 1385 085a 08F80300 		strb	r0, [r8, r3]
 1386              		.loc 1 394 0
 1387 085e D81C     		adds	r0, r3, #3
 1388              		.loc 1 395 0
 1389 0860 0244     		add	r2, r2, r0
 1390              		.loc 1 393 0
 1391 0862 1199     		ldr	r1, [sp, #68]
 1392              		.loc 1 394 0
 1393 0864 1298     		ldr	r0, [sp, #72]
 1394              		.loc 1 393 0
 1395 0866 0968     		ldr	r1, [r1]
 1396              		.loc 1 394 0
 1397 0868 0068     		ldr	r0, [r0]
 1398              		.loc 1 395 0
 1399 086a C9F80020 		str	r2, [r9]
 1400              		.loc 1 393 0
 1401 086e 4344     		add	r3, r3, r8
 1402              		.loc 1 391 0
 1403 0870 0122     		movs	r2, #1
 1404              		.loc 1 393 0
 1405 0872 5970     		strb	r1, [r3, #1]
 1406              		.loc 1 394 0
 1407 0874 9870     		strb	r0, [r3, #2]
 1408              		.loc 1 391 0
 1409 0876 074B     		ldr	r3, .L690+24
 1410 0878 1A70     		strb	r2, [r3]
 1411 087a 58E6     		b	.L135
 1412              	.L691:
 1413              		.align	2
 1414              	.L690:
 1415 087c 00000000 		.word	.LANCHOR16
 1416 0880 00000000 		.word	.LANCHOR17
 1417 0884 00000000 		.word	.LANCHOR24
 1418 0888 00000000 		.word	.LANCHOR23
 1419 088c 00000000 		.word	.LANCHOR8
 1420 0890 00000000 		.word	.LANCHOR7
 1421 0894 00000000 		.word	.LANCHOR21
 1422              	.L47:
 1423              		.loc 1 344 0
 1424 0898 C24C     		ldr	r4, .L692
 1425              		.loc 1 343 0
ARM GAS  C:\Users\mathi\AppData\Local\Temp\cc0ZaFXf.s 			page 26


 1426 089a BBF1000F 		cmp	fp, #0
 1427 089e 2FD0     		beq	.L70
 1428              	.L71:
 1429              		.loc 1 344 0 discriminator 1
 1430 08a0 2046     		mov	r0, r4
 1431 08a2 FFF7FEFF 		bl	e_getchar_uart1
 1432              	.LVL93:
 1433 08a6 0028     		cmp	r0, #0
 1434 08a8 FAD0     		beq	.L71
 1435              		.loc 1 345 0
 1436 08aa BF4C     		ldr	r4, .L692+4
 1437              	.L72:
 1438              		.loc 1 345 0 is_stmt 0 discriminator 1
 1439 08ac 2046     		mov	r0, r4
 1440 08ae FFF7FEFF 		bl	e_getchar_uart1
 1441              	.LVL94:
 1442 08b2 0028     		cmp	r0, #0
 1443 08b4 FAD0     		beq	.L72
 1444              		.loc 1 350 0 is_stmt 1
 1445 08b6 BC4B     		ldr	r3, .L692+4
 1446              		.loc 1 352 0
 1447 08b8 BA4C     		ldr	r4, .L692
 1448              		.loc 1 350 0
 1449 08ba 1A78     		ldrb	r2, [r3]	@ zero_extendqisi2
 1450 08bc B94B     		ldr	r3, .L692
 1451 08be 1B78     		ldrb	r3, [r3]	@ zero_extendqisi2
 1452 08c0 03EB0223 		add	r3, r3, r2, lsl #8
 1453 08c4 B94A     		ldr	r2, .L692+8
 1454 08c6 1360     		str	r3, [r2]
 1455              	.L76:
 1456              		.loc 1 352 0 discriminator 1
 1457 08c8 2046     		mov	r0, r4
 1458 08ca FFF7FEFF 		bl	e_getchar_uart1
 1459              	.LVL95:
 1460 08ce 0028     		cmp	r0, #0
 1461 08d0 FAD0     		beq	.L76
 1462              		.loc 1 353 0
 1463 08d2 B54C     		ldr	r4, .L692+4
 1464              	.L77:
 1465              		.loc 1 353 0 is_stmt 0 discriminator 1
 1466 08d4 2046     		mov	r0, r4
 1467 08d6 FFF7FEFF 		bl	e_getchar_uart1
 1468              	.LVL96:
 1469 08da 0028     		cmp	r0, #0
 1470 08dc FAD0     		beq	.L77
 1471              	.L78:
 1472              		.loc 1 358 0 is_stmt 1
 1473 08de B24B     		ldr	r3, .L692+4
 1474              		.loc 1 359 0
 1475 08e0 B249     		ldr	r1, .L692+8
 1476              		.loc 1 358 0
 1477 08e2 1A78     		ldrb	r2, [r3]	@ zero_extendqisi2
 1478 08e4 AF4B     		ldr	r3, .L692
 1479              		.loc 1 359 0
 1480 08e6 0868     		ldr	r0, [r1]
 1481              		.loc 1 358 0
 1482 08e8 1B78     		ldrb	r3, [r3]	@ zero_extendqisi2
ARM GAS  C:\Users\mathi\AppData\Local\Temp\cc0ZaFXf.s 			page 27


 1483 08ea 03EB0223 		add	r3, r3, r2, lsl #8
 1484 08ee B04A     		ldr	r2, .L692+12
 1485 08f0 1446     		mov	r4, r2
 1486 08f2 1360     		str	r3, [r2]
 1487              		.loc 1 359 0
 1488 08f4 FFF7FEFF 		bl	e_set_speed_left
 1489              	.LVL97:
 1490              		.loc 1 360 0
 1491 08f8 2068     		ldr	r0, [r4]
 1492 08fa FFF7FEFF 		bl	e_set_speed_right
 1493              	.LVL98:
 1494              		.loc 1 361 0
 1495 08fe 13E6     		b	.L44
 1496              	.L70:
 1497              		.loc 1 347 0 discriminator 1
 1498 0900 2046     		mov	r0, r4
 1499 0902 FFF7FEFF 		bl	e_getchar_uart2
 1500              	.LVL99:
 1501 0906 0028     		cmp	r0, #0
 1502 0908 FAD0     		beq	.L70
 1503              		.loc 1 348 0
 1504 090a A74C     		ldr	r4, .L692+4
 1505              	.L74:
 1506              		.loc 1 348 0 is_stmt 0 discriminator 1
 1507 090c 2046     		mov	r0, r4
 1508 090e FFF7FEFF 		bl	e_getchar_uart2
 1509              	.LVL100:
 1510 0912 0028     		cmp	r0, #0
 1511 0914 FAD0     		beq	.L74
 1512              		.loc 1 350 0 is_stmt 1
 1513 0916 A44B     		ldr	r3, .L692+4
 1514              		.loc 1 355 0
 1515 0918 A24C     		ldr	r4, .L692
 1516              		.loc 1 350 0
 1517 091a 1A78     		ldrb	r2, [r3]	@ zero_extendqisi2
 1518 091c A14B     		ldr	r3, .L692
 1519 091e 1B78     		ldrb	r3, [r3]	@ zero_extendqisi2
 1520 0920 03EB0223 		add	r3, r3, r2, lsl #8
 1521 0924 A14A     		ldr	r2, .L692+8
 1522 0926 1360     		str	r3, [r2]
 1523              	.L79:
 1524              		.loc 1 355 0 discriminator 1
 1525 0928 2046     		mov	r0, r4
 1526 092a FFF7FEFF 		bl	e_getchar_uart2
 1527              	.LVL101:
 1528 092e 0028     		cmp	r0, #0
 1529 0930 FAD0     		beq	.L79
 1530              		.loc 1 356 0
 1531 0932 9D4C     		ldr	r4, .L692+4
 1532              	.L80:
 1533              		.loc 1 356 0 is_stmt 0 discriminator 1
 1534 0934 2046     		mov	r0, r4
 1535 0936 FFF7FEFF 		bl	e_getchar_uart2
 1536              	.LVL102:
 1537 093a 0028     		cmp	r0, #0
 1538 093c FAD0     		beq	.L80
 1539 093e CEE7     		b	.L78
ARM GAS  C:\Users\mathi\AppData\Local\Temp\cc0ZaFXf.s 			page 28


 1540              	.L45:
 1541              		.loc 1 291 0 is_stmt 1
 1542 0940 BBF1000F 		cmp	fp, #0
 1543 0944 40F06E87 		bne	.L68
 1544              		.loc 1 294 0
 1545 0948 FFF7FEFF 		bl	isEpuckVersion1_3
 1546              	.LVL103:
 1547 094c 0028     		cmp	r0, #0
 1548 094e 00F06987 		beq	.L68
 1549              		.loc 1 295 0
 1550 0952 984B     		ldr	r3, .L692+16
 1551 0954 CDF840B0 		str	fp, [sp, #64]
 1552 0958 CDE90EBB 		strd	fp, fp, [sp, #56]
 1553 095c CDE90CBB 		strd	fp, fp, [sp, #48]
 1554 0960 83ED008A 		vstr.32	s16, [r3]
 1555              		.loc 1 296 0
 1556 0964 83ED028A 		vstr.32	s16, [r3, #8]
 1557              		.loc 1 297 0
 1558 0968 83ED018A 		vstr.32	s16, [r3, #4]
 1559 096c 5C46     		mov	r4, fp
 1560 096e 5D46     		mov	r5, fp
 1561 0970 5846     		mov	r0, fp
 1562 0972 DC46     		mov	ip, fp
 1563 0974 5B46     		mov	r3, fp
 1564 0976 DE46     		mov	lr, fp
 1565 0978 5A46     		mov	r2, fp
 1566              	.L67:
 1567              	.LVL104:
 1568              		.loc 1 303 0
 1569 097a D9F80010 		ldr	r1, [r9]
 1570 097e 0B91     		str	r1, [sp, #44]
 1571 0980 0021     		movs	r1, #0
 1572 0982 62F30701 		bfi	r1, r2, #0, #8
 1573              		.loc 1 312 0
 1574 0986 0022     		movs	r2, #0
 1575 0988 63F30702 		bfi	r2, r3, #0, #8
 1576              		.loc 1 321 0
 1577 098c 0023     		movs	r3, #0
 1578 098e 60F30703 		bfi	r3, r0, #0, #8
 1579              		.loc 1 303 0
 1580 0992 0C98     		ldr	r0, [sp, #48]
 1581 0994 6EF30F21 		bfi	r1, lr, #8, #8
 1582 0998 60F31741 		bfi	r1, r0, #16, #8
 1583              		.loc 1 312 0
 1584 099c 0E98     		ldr	r0, [sp, #56]
 1585 099e 6CF30F22 		bfi	r2, ip, #8, #8
 1586 09a2 60F31742 		bfi	r2, r0, #16, #8
 1587              		.loc 1 303 0
 1588 09a6 0D98     		ldr	r0, [sp, #52]
 1589 09a8 60F31F61 		bfi	r1, r0, #24, #8
 1590              		.loc 1 312 0
 1591 09ac 0F98     		ldr	r0, [sp, #60]
 1592              		.loc 1 321 0
 1593 09ae 65F30F23 		bfi	r3, r5, #8, #8
 1594              		.loc 1 312 0
 1595 09b2 60F31F62 		bfi	r2, r0, #24, #8
 1596 09b6 0B9D     		ldr	r5, [sp, #44]
ARM GAS  C:\Users\mathi\AppData\Local\Temp\cc0ZaFXf.s 			page 29


 1597              		.loc 1 321 0
 1598 09b8 1098     		ldr	r0, [sp, #64]
 1599 09ba 64F31743 		bfi	r3, r4, #16, #8
 1600              		.loc 1 327 0
 1601 09be 0B9C     		ldr	r4, [sp, #44]
 1602 09c0 4544     		add	r5, r8, r5
 1603              		.loc 1 321 0
 1604 09c2 60F31F63 		bfi	r3, r0, #24, #8
 1605              		.loc 1 303 0
 1606 09c6 0B98     		ldr	r0, [sp, #44]
 1607              		.loc 1 327 0
 1608 09c8 0C34     		adds	r4, r4, #12
 1609              		.loc 1 303 0
 1610 09ca 48F80010 		str	r1, [r8, r0]	@ unaligned
 1611              		.loc 1 327 0
 1612 09ce C9F80040 		str	r4, [r9]
 1613              		.loc 1 303 0
 1614 09d2 6A60     		str	r2, [r5, #4]	@ unaligned
 1615 09d4 AB60     		str	r3, [r5, #8]	@ unaligned
 1616              		.loc 1 328 0
 1617 09d6 A7E5     		b	.L44
 1618              	.LVL105:
 1619              	.L59:
 1620              		.loc 1 370 0
 1621 09d8 BBF1000F 		cmp	fp, #0
 1622 09dc 40F0E487 		bne	.L675
 1623              	.L81:
 1624              		.loc 1 379 0
 1625 09e0 D9F80020 		ldr	r2, [r9]
 1626 09e4 08EB0201 		add	r1, r8, r2
 1627 09e8 0023     		movs	r3, #0
 1628              		.loc 1 384 0
 1629 09ea 901D     		adds	r0, r2, #6
 1630              		.loc 1 379 0
 1631 09ec 48F80230 		str	r3, [r8, r2]	@ unaligned
 1632              		.loc 1 384 0
 1633 09f0 C9F80000 		str	r0, [r9]
 1634              		.loc 1 383 0
 1635 09f4 0B71     		strb	r3, [r1, #4]
 1636              		.loc 1 384 0
 1637 09f6 4B71     		strb	r3, [r1, #5]
 1638 09f8 96E5     		b	.L44
 1639              	.L61:
 1640              		.loc 1 514 0
 1641 09fa 0020     		movs	r0, #0
 1642 09fc FFF7FEFF 		bl	e_get_micro_volume
 1643              	.LVL106:
 1644              		.loc 1 515 0
 1645 0a00 D9F80030 		ldr	r3, [r9]
 1646              		.loc 1 516 0
 1647 0a04 08EB0302 		add	r2, r8, r3
 1648              		.loc 1 515 0
 1649 0a08 08F80300 		strb	r0, [r8, r3]
 1650              		.loc 1 516 0
 1651 0a0c 0112     		asrs	r1, r0, #8
 1652 0a0e 0233     		adds	r3, r3, #2
 1653              		.loc 1 518 0
ARM GAS  C:\Users\mathi\AppData\Local\Temp\cc0ZaFXf.s 			page 30


 1654 0a10 0120     		movs	r0, #1
 1655              		.loc 1 516 0
 1656 0a12 5170     		strb	r1, [r2, #1]
 1657 0a14 C9F80030 		str	r3, [r9]
 1658              		.loc 1 518 0
 1659 0a18 FFF7FEFF 		bl	e_get_micro_volume
 1660              	.LVL107:
 1661              		.loc 1 519 0
 1662 0a1c D9F80030 		ldr	r3, [r9]
 1663              		.loc 1 520 0
 1664 0a20 08EB0302 		add	r2, r8, r3
 1665              		.loc 1 519 0
 1666 0a24 08F80300 		strb	r0, [r8, r3]
 1667              		.loc 1 520 0
 1668 0a28 0112     		asrs	r1, r0, #8
 1669 0a2a 0233     		adds	r3, r3, #2
 1670              		.loc 1 522 0
 1671 0a2c 0220     		movs	r0, #2
 1672              		.loc 1 520 0
 1673 0a2e 5170     		strb	r1, [r2, #1]
 1674 0a30 C9F80030 		str	r3, [r9]
 1675              		.loc 1 522 0
 1676 0a34 FFF7FEFF 		bl	e_get_micro_volume
 1677              	.LVL108:
 1678 0a38 CFE5     		b	.L657
 1679              	.L56:
 1680              		.loc 1 537 0
 1681 0a3a BBF1000F 		cmp	fp, #0
 1682 0a3e 3FF49AAD 		beq	.L138
 1683              	.L120:
 1684              		.loc 1 538 0 discriminator 1
 1685 0a42 5D48     		ldr	r0, .L692+20
 1686 0a44 FFF7FEFF 		bl	e_getchar_uart1
 1687              	.LVL109:
 1688 0a48 0028     		cmp	r0, #0
 1689 0a4a FAD0     		beq	.L120
 1690              		.loc 1 539 0
 1691 0a4c 5B4C     		ldr	r4, .L692+24
 1692              	.L121:
 1693              		.loc 1 539 0 is_stmt 0 discriminator 1
 1694 0a4e 2046     		mov	r0, r4
 1695 0a50 FFF7FEFF 		bl	e_getchar_uart1
 1696              	.LVL110:
 1697 0a54 0028     		cmp	r0, #0
 1698 0a56 FAD0     		beq	.L121
 1699              		.loc 1 540 0 is_stmt 1
 1700 0a58 594C     		ldr	r4, .L692+28
 1701              	.L122:
 1702              		.loc 1 540 0 is_stmt 0 discriminator 1
 1703 0a5a 2046     		mov	r0, r4
 1704 0a5c FFF7FEFF 		bl	e_getchar_uart1
 1705              	.LVL111:
 1706 0a60 0028     		cmp	r0, #0
 1707 0a62 FAD0     		beq	.L122
 1708              		.loc 1 541 0 is_stmt 1
 1709 0a64 FFF7FEFF 		bl	e_i2cp_enable
 1710              	.LVL112:
ARM GAS  C:\Users\mathi\AppData\Local\Temp\cc0ZaFXf.s 			page 31


 1711              		.loc 1 542 0
 1712 0a68 554B     		ldr	r3, .L692+28
 1713 0a6a 1A78     		ldrb	r2, [r3]	@ zero_extendqisi2
 1714 0a6c 534B     		ldr	r3, .L692+24
 1715 0a6e 1978     		ldrb	r1, [r3]	@ zero_extendqisi2
 1716 0a70 514B     		ldr	r3, .L692+20
 1717 0a72 1878     		ldrb	r0, [r3]	@ zero_extendqisi2
 1718 0a74 FFF7FEFF 		bl	e_i2cp_write
 1719              	.LVL113:
 1720              	.L658:
 1721              		.loc 1 543 0
 1722 0a78 FFF7FEFF 		bl	e_i2cp_disable
 1723              	.LVL114:
 1724 0a7c 57E5     		b	.L135
 1725              	.L60:
 1726              		.loc 1 506 0
 1727 0a7e BBF1000F 		cmp	fp, #0
 1728 0a82 40F0B487 		bne	.L676
 1729              	.L119:
 1730              		.loc 1 509 0
 1731 0a86 D9F80030 		ldr	r3, [r9]
 1732 0a8a 0021     		movs	r1, #0
 1733 0a8c 5A1C     		adds	r2, r3, #1
 1734 0a8e 08F80310 		strb	r1, [r8, r3]
 1735 0a92 C9F80020 		str	r2, [r9]
 1736 0a96 47E5     		b	.L44
 1737              	.L58:
 1738              		.loc 1 331 0
 1739 0a98 FFF7FEFF 		bl	isEpuckVersion1_3
 1740              	.LVL115:
 1741 0a9c 0028     		cmp	r0, #0
 1742 0a9e 40F04C87 		bne	.L677
 1743              		.loc 1 337 0
 1744 0aa2 D9F80030 		ldr	r3, [r9]
 1745              		.loc 1 338 0
 1746 0aa6 08EB0302 		add	r2, r8, r3
 1747 0aaa 991C     		adds	r1, r3, #2
 1748              		.loc 1 337 0
 1749 0aac 08F80300 		strb	r0, [r8, r3]
 1750              		.loc 1 338 0
 1751 0ab0 C9F80010 		str	r1, [r9]
 1752 0ab4 5070     		strb	r0, [r2, #1]
 1753 0ab6 37E5     		b	.L44
 1754              	.L673:
 1755              		.loc 1 548 0
 1756 0ab8 FFF7FEFF 		bl	e_i2cp_enable
 1757              	.LVL116:
 1758              		.loc 1 549 0
 1759 0abc 0020     		movs	r0, #0
 1760 0abe CAF80000 		str	r0, [r10]
 1761 0ac2 01E0     		b	.L124
 1762              	.L678:
 1763 0ac4 DAF80000 		ldr	r0, [r10]
 1764              	.L124:
 1765              		.loc 1 550 0 discriminator 1
 1766 0ac8 4044     		add	r0, r0, r8
 1767 0aca FFF7FEFF 		bl	e_getchar_uart1
ARM GAS  C:\Users\mathi\AppData\Local\Temp\cc0ZaFXf.s 			page 32


 1768              	.LVL117:
 1769 0ace 0028     		cmp	r0, #0
 1770 0ad0 F8D0     		beq	.L678
 1771              		.loc 1 549 0 discriminator 2
 1772 0ad2 DAF80000 		ldr	r0, [r10]
 1773 0ad6 0130     		adds	r0, r0, #1
 1774 0ad8 1728     		cmp	r0, #23
 1775 0ada CAF80000 		str	r0, [r10]
 1776 0ade F3DD     		ble	.L124
 1777              		.loc 1 552 0
 1778 0ae0 9220     		movs	r0, #146
 1779 0ae2 CAF80000 		str	r0, [r10]
 1780 0ae6 01E0     		b	.L127
 1781              	.L679:
 1782 0ae8 DAF80000 		ldr	r0, [r10]
 1783              	.L127:
 1784              		.loc 1 553 0 discriminator 1
 1785 0aec 7A38     		subs	r0, r0, #122
 1786 0aee 4044     		add	r0, r0, r8
 1787 0af0 FFF7FEFF 		bl	e_getchar_uart1
 1788              	.LVL118:
 1789 0af4 0028     		cmp	r0, #0
 1790 0af6 F7D0     		beq	.L679
 1791              		.loc 1 552 0 discriminator 2
 1792 0af8 DAF80000 		ldr	r0, [r10]
 1793 0afc 0130     		adds	r0, r0, #1
 1794 0afe 9428     		cmp	r0, #148
 1795 0b00 CAF80000 		str	r0, [r10]
 1796 0b04 F2DD     		ble	.L127
 1797              		.loc 1 555 0
 1798 0b06 A420     		movs	r0, #164
 1799 0b08 CAF80000 		str	r0, [r10]
 1800 0b0c 01E0     		b	.L130
 1801              	.L680:
 1802 0b0e DAF80000 		ldr	r0, [r10]
 1803              	.L130:
 1804              		.loc 1 556 0 discriminator 1
 1805 0b12 8938     		subs	r0, r0, #137
 1806 0b14 4044     		add	r0, r0, r8
 1807 0b16 FFF7FEFF 		bl	e_getchar_uart1
 1808              	.LVL119:
 1809 0b1a 0028     		cmp	r0, #0
 1810 0b1c F7D0     		beq	.L680
 1811              		.loc 1 555 0 discriminator 2
 1812 0b1e DAF80000 		ldr	r0, [r10]
 1813 0b22 0130     		adds	r0, r0, #1
 1814 0b24 AB28     		cmp	r0, #171
 1815 0b26 CAF80000 		str	r0, [r10]
 1816 0b2a F2DD     		ble	.L130
 1817              		.loc 1 558 0
 1818 0b2c 0021     		movs	r1, #0
 1819 0b2e CAF80010 		str	r1, [r10]
 1820              	.L132:
 1821              		.loc 1 559 0 discriminator 3
 1822 0b32 18F80120 		ldrb	r2, [r8, r1]	@ zero_extendqisi2
 1823 0b36 B020     		movs	r0, #176
 1824 0b38 C9B2     		uxtb	r1, r1
ARM GAS  C:\Users\mathi\AppData\Local\Temp\cc0ZaFXf.s 			page 33


 1825 0b3a FFF7FEFF 		bl	e_i2cp_write
 1826              	.LVL120:
 1827              		.loc 1 558 0 discriminator 3
 1828 0b3e DAF80010 		ldr	r1, [r10]
 1829 0b42 0131     		adds	r1, r1, #1
 1830 0b44 1729     		cmp	r1, #23
 1831 0b46 CAF80010 		str	r1, [r10]
 1832 0b4a F2DD     		ble	.L132
 1833              		.loc 1 561 0
 1834 0b4c 9221     		movs	r1, #146
 1835 0b4e CAF80010 		str	r1, [r10]
 1836              	.L133:
 1837              		.loc 1 562 0 discriminator 3
 1838 0b52 08EB0103 		add	r3, r8, r1
 1839 0b56 B020     		movs	r0, #176
 1840 0b58 C9B2     		uxtb	r1, r1
 1841 0b5a 13F87A2C 		ldrb	r2, [r3, #-122]	@ zero_extendqisi2
 1842 0b5e FFF7FEFF 		bl	e_i2cp_write
 1843              	.LVL121:
 1844              		.loc 1 561 0 discriminator 3
 1845 0b62 DAF80010 		ldr	r1, [r10]
 1846 0b66 0131     		adds	r1, r1, #1
 1847 0b68 9429     		cmp	r1, #148
 1848 0b6a CAF80010 		str	r1, [r10]
 1849 0b6e F0DD     		ble	.L133
 1850              		.loc 1 564 0
 1851 0b70 A421     		movs	r1, #164
 1852 0b72 CAF80010 		str	r1, [r10]
 1853              	.L134:
 1854              		.loc 1 565 0 discriminator 3
 1855 0b76 08EB0103 		add	r3, r8, r1
 1856 0b7a B020     		movs	r0, #176
 1857 0b7c C9B2     		uxtb	r1, r1
 1858 0b7e 13F8892C 		ldrb	r2, [r3, #-137]	@ zero_extendqisi2
 1859 0b82 FFF7FEFF 		bl	e_i2cp_write
 1860              	.LVL122:
 1861              		.loc 1 564 0 discriminator 3
 1862 0b86 DAF80010 		ldr	r1, [r10]
 1863 0b8a 0131     		adds	r1, r1, #1
 1864 0b8c AB29     		cmp	r1, #171
 1865 0b8e CAF80010 		str	r1, [r10]
 1866 0b92 F0DD     		ble	.L134
 1867              		.loc 1 567 0
 1868 0b94 0122     		movs	r2, #1
 1869 0b96 9121     		movs	r1, #145
 1870 0b98 B020     		movs	r0, #176
 1871 0b9a FFF7FEFF 		bl	e_i2cp_write
 1872              	.LVL123:
 1873              		.loc 1 568 0
 1874 0b9e FFF7FEFF 		bl	e_i2cp_disable
 1875              	.LVL124:
 1876 0ba2 C4E4     		b	.L135
 1877              	.L693:
 1878              		.align	2
 1879              	.L692:
 1880 0ba4 00000000 		.word	.LANCHOR16
 1881 0ba8 00000000 		.word	.LANCHOR17
ARM GAS  C:\Users\mathi\AppData\Local\Temp\cc0ZaFXf.s 			page 34


 1882 0bac 00000000 		.word	.LANCHOR8
 1883 0bb0 00000000 		.word	.LANCHOR7
 1884 0bb4 00000000 		.word	.LANCHOR15
 1885 0bb8 00000000 		.word	.LANCHOR25
 1886 0bbc 00000000 		.word	.LANCHOR26
 1887 0bc0 00000000 		.word	.LANCHOR27
 1888              	.LVL125:
 1889              	.L666:
 1890              	.LBB3:
 1891              		.loc 1 616 0
 1892 0bc4 FFF7FEFF 		bl	__locale_ctype_ptr
 1893              	.LVL126:
 1894 0bc8 2044     		add	r0, r0, r4
 1895 0bca 4378     		ldrb	r3, [r0, #1]	@ zero_extendqisi2
 1896 0bcc 03F00303 		and	r3, r3, #3
 1897 0bd0 022B     		cmp	r3, #2
 1898 0bd2 08BF     		it	eq
 1899 0bd4 203C     		subeq	r4, r4, #32
 1900              	.LVL127:
 1901              	.LBE3:
 1902 0bd6 E4B2     		uxtb	r4, r4
 1903              		.loc 1 618 0
 1904 0bd8 A4F14103 		sub	r3, r4, #65
 1905              		.loc 1 616 0
 1906 0bdc 88F80040 		strb	r4, [r8]
 1907              		.loc 1 618 0
 1908 0be0 332B     		cmp	r3, #51
 1909 0be2 00F2D185 		bhi	.L164
 1910 0be6 01A2     		adr	r2, .L166
 1911 0be8 52F823F0 		ldr	pc, [r2, r3, lsl #2]
 1912              		.p2align 2
 1913              	.L166:
 1914 0bec 1D120000 		.word	.L165+1
 1915 0bf0 0B130000 		.word	.L167+1
 1916 0bf4 B3120000 		.word	.L168+1
 1917 0bf8 85130000 		.word	.L169+1
 1918 0bfc A7110000 		.word	.L170+1
 1919 0c00 5B170000 		.word	.L171+1
 1920 0c04 BD130000 		.word	.L172+1
 1921 0c08 31140000 		.word	.L173+1
 1922 0c0c D9110000 		.word	.L174+1
 1923 0c10 8D160000 		.word	.L175+1
 1924 0c14 69120000 		.word	.L176+1
 1925 0c18 FD130000 		.word	.L177+1
 1926 0c1c CB100000 		.word	.L178+1
 1927 0c20 D90F0000 		.word	.L179+1
 1928 0c24 FD0E0000 		.word	.L180+1
 1929 0c28 8F0E0000 		.word	.L181+1
 1930 0c2c 570E0000 		.word	.L182+1
 1931 0c30 C3000000 		.word	.L4+1
 1932 0c34 9B100000 		.word	.L183+1
 1933 0c38 C70E0000 		.word	.L184+1
 1934 0c3c 55100000 		.word	.L185+1
 1935 0c40 190E0000 		.word	.L186+1
 1936 0c44 D50D0000 		.word	.L187+1
 1937 0c48 89170000 		.word	.L164+1
 1938 0c4c 5D0D0000 		.word	.L188+1
ARM GAS  C:\Users\mathi\AppData\Local\Temp\cc0ZaFXf.s 			page 35


 1939 0c50 F70C0000 		.word	.L189+1
 1940 0c54 89170000 		.word	.L164+1
 1941 0c58 89170000 		.word	.L164+1
 1942 0c5c 89170000 		.word	.L164+1
 1943 0c60 89170000 		.word	.L164+1
 1944 0c64 89170000 		.word	.L164+1
 1945 0c68 89170000 		.word	.L164+1
 1946 0c6c 89170000 		.word	.L164+1
 1947 0c70 451A0000 		.word	.L156+1
 1948 0c74 89170000 		.word	.L164+1
 1949 0c78 89170000 		.word	.L164+1
 1950 0c7c 89170000 		.word	.L164+1
 1951 0c80 89170000 		.word	.L164+1
 1952 0c84 E1010000 		.word	.L162+1
 1953 0c88 89170000 		.word	.L164+1
 1954 0c8c 89170000 		.word	.L164+1
 1955 0c90 89170000 		.word	.L164+1
 1956 0c94 89170000 		.word	.L164+1
 1957 0c98 89170000 		.word	.L164+1
 1958 0c9c 89170000 		.word	.L164+1
 1959 0ca0 89170000 		.word	.L164+1
 1960 0ca4 89170000 		.word	.L164+1
 1961 0ca8 89170000 		.word	.L164+1
 1962 0cac 89170000 		.word	.L164+1
 1963 0cb0 89170000 		.word	.L164+1
 1964 0cb4 89170000 		.word	.L164+1
 1965 0cb8 BD0C0000 		.word	.L190+1
 1966              		.p2align 1
 1967              	.L190:
 1968              	.LBB4:
 1969              		.loc 1 998 0
 1970 0cbc 099B     		ldr	r3, [sp, #36]
 1971 0cbe 002B     		cmp	r3, #0
 1972 0cc0 00F0F886 		beq	.L332
 1973              		.loc 1 998 0 is_stmt 0 discriminator 1
 1974 0cc4 FFF7FEFF 		bl	isEpuckVersion1_3
 1975              	.LVL128:
 1976 0cc8 0028     		cmp	r0, #0
 1977 0cca 41F05D81 		bne	.L681
 1978              		.loc 1 1001 0 is_stmt 1
 1979 0cce AA4B     		ldr	r3, .L694
 1980 0cd0 93E80300 		ldm	r3, {r0, r1}
 1981 0cd4 A94B     		ldr	r3, .L694+4
 1982 0cd6 C8F80000 		str	r0, [r8]
 1983 0cda 1980     		strh	r1, [r3]	@ movhi
 1984              	.L358:
 1985              		.loc 1 1004 0
 1986 0cdc A848     		ldr	r0, .L694+8
 1987 0cde FFF7FEFF 		bl	strlen
 1988              	.LVL129:
 1989 0ce2 0146     		mov	r1, r0
 1990 0ce4 A648     		ldr	r0, .L694+8
 1991 0ce6 FFF7FEFF 		bl	e_send_uart1_char
 1992              	.LVL130:
 1993              	.L334:
 1994              		.loc 1 1004 0 is_stmt 0 discriminator 2
 1995 0cea FFF7FEFF 		bl	e_uart1_sending
ARM GAS  C:\Users\mathi\AppData\Local\Temp\cc0ZaFXf.s 			page 36


 1996              	.LVL131:
 1997 0cee 0028     		cmp	r0, #0
 1998 0cf0 FBD1     		bne	.L334
 1999 0cf2 FFF7E6B9 		b	.L4
 2000              	.L189:
 2001              		.loc 1 1058 0 is_stmt 1
 2002 0cf6 099B     		ldr	r3, [sp, #36]
 2003 0cf8 002B     		cmp	r3, #0
 2004 0cfa 3FF48FAA 		beq	.L626
 2005              		.loc 1 1059 0
 2006 0cfe 0223     		movs	r3, #2
 2007              		.loc 1 1064 0
 2008 0d00 A04D     		ldr	r5, .L694+12
 2009 0d02 9F4C     		ldr	r4, .L694+8
 2010              		.loc 1 1059 0
 2011 0d04 CAF80030 		str	r3, [r10]
 2012 0d08 07E0     		b	.L351
 2013              	.L349:
 2014 0d0a DAF80030 		ldr	r3, [r10]
 2015 0d0e 0233     		adds	r3, r3, #2
 2016 0d10 FE2B     		cmp	r3, #254
 2017 0d12 CAF80030 		str	r3, [r10]
 2018 0d16 3FF7D4A9 		bgt	.L4
 2019              	.L351:
 2020              		.loc 1 1060 0
 2021 0d1a FFF7FEFF 		bl	e_i2cp_enable
 2022              	.LVL132:
 2023              		.loc 1 1061 0
 2024 0d1e 0021     		movs	r1, #0
 2025 0d20 9AF80000 		ldrb	r0, [r10]	@ zero_extendqisi2
 2026 0d24 FFF7FEFF 		bl	e_i2cp_read
 2027              	.LVL133:
 2028 0d28 974B     		ldr	r3, .L694+16
 2029 0d2a 1E46     		mov	r6, r3
 2030 0d2c 1860     		str	r0, [r3]
 2031              		.loc 1 1062 0
 2032 0d2e FFF7FEFF 		bl	e_i2cp_disable
 2033              	.LVL134:
 2034              		.loc 1 1063 0
 2035 0d32 3368     		ldr	r3, [r6]
 2036 0d34 002B     		cmp	r3, #0
 2037 0d36 E8DB     		blt	.L349
 2038              		.loc 1 1064 0
 2039 0d38 2946     		mov	r1, r5
 2040 0d3a DAF80020 		ldr	r2, [r10]
 2041 0d3e 2046     		mov	r0, r4
 2042 0d40 FFF7FEFF 		bl	sprintf
 2043              	.LVL135:
 2044              		.loc 1 1065 0
 2045 0d44 2046     		mov	r0, r4
 2046 0d46 FFF7FEFF 		bl	strlen
 2047              	.LVL136:
 2048 0d4a 0146     		mov	r1, r0
 2049 0d4c 2046     		mov	r0, r4
 2050 0d4e FFF7FEFF 		bl	e_send_uart1_char
 2051              	.LVL137:
 2052              	.L350:
ARM GAS  C:\Users\mathi\AppData\Local\Temp\cc0ZaFXf.s 			page 37


 2053              		.loc 1 1065 0 is_stmt 0 discriminator 2
 2054 0d52 FFF7FEFF 		bl	e_uart1_sending
 2055              	.LVL138:
 2056 0d56 0028     		cmp	r0, #0
 2057 0d58 FBD1     		bne	.L350
 2058 0d5a D6E7     		b	.L349
 2059              	.L188:
 2060              		.loc 1 1041 0 is_stmt 1
 2061 0d5c 099B     		ldr	r3, [sp, #36]
 2062 0d5e 002B     		cmp	r3, #0
 2063 0d60 3FF45CAA 		beq	.L626
 2064              		.loc 1 1042 0
 2065 0d64 894B     		ldr	r3, .L694+20
 2066 0d66 8A4A     		ldr	r2, .L694+24
 2067 0d68 8A49     		ldr	r1, .L694+28
 2068 0d6a 8548     		ldr	r0, .L694+8
 2069 0d6c FFF7FEFF 		bl	sscanf
 2070              	.LVL139:
 2071              		.loc 1 1044 0
 2072 0d70 864B     		ldr	r3, .L694+20
 2073 0d72 874A     		ldr	r2, .L694+24
 2074 0d74 8849     		ldr	r1, .L694+32
 2075 0d76 1B68     		ldr	r3, [r3]
 2076 0d78 1268     		ldr	r2, [r2]
 2077 0d7a 8148     		ldr	r0, .L694+8
 2078 0d7c FFF7FEFF 		bl	sprintf
 2079              	.LVL140:
 2080              		.loc 1 1045 0
 2081 0d80 7F48     		ldr	r0, .L694+8
 2082 0d82 FFF7FEFF 		bl	strlen
 2083              	.LVL141:
 2084 0d86 0146     		mov	r1, r0
 2085 0d88 7D48     		ldr	r0, .L694+8
 2086 0d8a FFF7FEFF 		bl	e_send_uart1_char
 2087              	.LVL142:
 2088              	.L347:
 2089              		.loc 1 1045 0 is_stmt 0 discriminator 2
 2090 0d8e FFF7FEFF 		bl	e_uart1_sending
 2091              	.LVL143:
 2092 0d92 0028     		cmp	r0, #0
 2093 0d94 FBD1     		bne	.L347
 2094              		.loc 1 1050 0 is_stmt 1
 2095 0d96 FFF7FEFF 		bl	e_i2cp_enable
 2096              	.LVL144:
 2097              		.loc 1 1051 0
 2098 0d9a 7C4B     		ldr	r3, .L694+20
 2099 0d9c 1978     		ldrb	r1, [r3]	@ zero_extendqisi2
 2100 0d9e 7C4B     		ldr	r3, .L694+24
 2101 0da0 1878     		ldrb	r0, [r3]	@ zero_extendqisi2
 2102 0da2 FFF7FEFF 		bl	e_i2cp_read
 2103              	.LVL145:
 2104 0da6 784B     		ldr	r3, .L694+16
 2105 0da8 1C46     		mov	r4, r3
 2106 0daa 1860     		str	r0, [r3]
 2107              		.loc 1 1052 0
 2108 0dac FFF7FEFF 		bl	e_i2cp_disable
 2109              	.LVL146:
ARM GAS  C:\Users\mathi\AppData\Local\Temp\cc0ZaFXf.s 			page 38


 2110              		.loc 1 1053 0
 2111 0db0 7A49     		ldr	r1, .L694+36
 2112 0db2 2268     		ldr	r2, [r4]
 2113 0db4 7248     		ldr	r0, .L694+8
 2114 0db6 FFF7FEFF 		bl	sprintf
 2115              	.LVL147:
 2116              		.loc 1 1054 0
 2117 0dba 7148     		ldr	r0, .L694+8
 2118 0dbc FFF7FEFF 		bl	strlen
 2119              	.LVL148:
 2120 0dc0 0146     		mov	r1, r0
 2121 0dc2 6F48     		ldr	r0, .L694+8
 2122 0dc4 FFF7FEFF 		bl	e_send_uart1_char
 2123              	.LVL149:
 2124              	.L348:
 2125              		.loc 1 1054 0 is_stmt 0 discriminator 2
 2126 0dc8 FFF7FEFF 		bl	e_uart1_sending
 2127              	.LVL150:
 2128 0dcc 0028     		cmp	r0, #0
 2129 0dce FBD1     		bne	.L348
 2130 0dd0 FFF777B9 		b	.L4
 2131              	.L187:
 2132              		.loc 1 1032 0 is_stmt 1
 2133 0dd4 099B     		ldr	r3, [sp, #36]
 2134 0dd6 002B     		cmp	r3, #0
 2135 0dd8 3FF420AA 		beq	.L626
 2136              		.loc 1 1033 0
 2137 0ddc 6A4B     		ldr	r3, .L694+16
 2138 0dde 6C4A     		ldr	r2, .L694+24
 2139 0de0 6F49     		ldr	r1, .L694+40
 2140 0de2 0093     		str	r3, [sp]
 2141 0de4 1C46     		mov	r4, r3
 2142 0de6 6648     		ldr	r0, .L694+8
 2143 0de8 684B     		ldr	r3, .L694+20
 2144 0dea FFF7FEFF 		bl	sscanf
 2145              	.LVL151:
 2146              		.loc 1 1034 0
 2147 0dee FFF7FEFF 		bl	e_i2cp_enable
 2148              	.LVL152:
 2149              		.loc 1 1035 0
 2150 0df2 664B     		ldr	r3, .L694+20
 2151 0df4 2278     		ldrb	r2, [r4]	@ zero_extendqisi2
 2152 0df6 1978     		ldrb	r1, [r3]	@ zero_extendqisi2
 2153 0df8 654B     		ldr	r3, .L694+24
 2154 0dfa 1878     		ldrb	r0, [r3]	@ zero_extendqisi2
 2155 0dfc FFF7FEFF 		bl	e_i2cp_write
 2156              	.LVL153:
 2157              		.loc 1 1036 0
 2158 0e00 FFF7FEFF 		bl	e_i2cp_disable
 2159              	.LVL154:
 2160              		.loc 1 1037 0
 2161 0e04 0321     		movs	r1, #3
 2162 0e06 6748     		ldr	r0, .L694+44
 2163 0e08 FFF7FEFF 		bl	e_send_uart1_char
 2164              	.LVL155:
 2165              	.L346:
 2166              		.loc 1 1037 0 is_stmt 0 discriminator 2
ARM GAS  C:\Users\mathi\AppData\Local\Temp\cc0ZaFXf.s 			page 39


 2167 0e0c FFF7FEFF 		bl	e_uart1_sending
 2168              	.LVL156:
 2169 0e10 0028     		cmp	r0, #0
 2170 0e12 FBD1     		bne	.L346
 2171 0e14 FFF755B9 		b	.L4
 2172              	.L186:
 2173              		.loc 1 1019 0 is_stmt 1
 2174 0e18 099B     		ldr	r3, [sp, #36]
 2175              		.loc 1 1020 0
 2176 0e1a 6348     		ldr	r0, .L694+48
 2177 0e1c 2621     		movs	r1, #38
 2178              		.loc 1 1019 0
 2179 0e1e 002B     		cmp	r3, #0
 2180 0e20 00F0BE86 		beq	.L339
 2181              		.loc 1 1020 0
 2182 0e24 FFF7FEFF 		bl	e_send_uart1_char
 2183              	.LVL157:
 2184              	.L340:
 2185              		.loc 1 1020 0 is_stmt 0 discriminator 2
 2186 0e28 FFF7FEFF 		bl	e_uart1_sending
 2187              	.LVL158:
 2188 0e2c 0028     		cmp	r0, #0
 2189 0e2e FBD1     		bne	.L340
 2190              		.loc 1 1024 0 is_stmt 1
 2191 0e30 5E4B     		ldr	r3, .L694+52
 2192 0e32 5F49     		ldr	r1, .L694+56
 2193 0e34 1A68     		ldr	r2, [r3]
 2194 0e36 5248     		ldr	r0, .L694+8
 2195 0e38 FFF7FEFF 		bl	sprintf
 2196              	.LVL159:
 2197              		.loc 1 1026 0
 2198 0e3c 5048     		ldr	r0, .L694+8
 2199 0e3e FFF7FEFF 		bl	strlen
 2200              	.LVL160:
 2201 0e42 0146     		mov	r1, r0
 2202 0e44 4E48     		ldr	r0, .L694+8
 2203 0e46 FFF7FEFF 		bl	e_send_uart1_char
 2204              	.LVL161:
 2205              	.L344:
 2206              		.loc 1 1026 0 is_stmt 0 discriminator 2
 2207 0e4a FFF7FEFF 		bl	e_uart1_sending
 2208              	.LVL162:
 2209 0e4e 0028     		cmp	r0, #0
 2210 0e50 FBD1     		bne	.L344
 2211 0e52 FFF736B9 		b	.L4
 2212              	.L182:
 2213              		.loc 1 942 0 is_stmt 1
 2214 0e56 FFF7FEFF 		bl	e_get_steps_left
 2215              	.LVL163:
 2216 0e5a 0446     		mov	r4, r0
 2217 0e5c FFF7FEFF 		bl	e_get_steps_right
 2218              	.LVL164:
 2219 0e60 2246     		mov	r2, r4
 2220 0e62 0346     		mov	r3, r0
 2221 0e64 5349     		ldr	r1, .L694+60
 2222 0e66 4648     		ldr	r0, .L694+8
 2223 0e68 FFF7FEFF 		bl	sprintf
ARM GAS  C:\Users\mathi\AppData\Local\Temp\cc0ZaFXf.s 			page 40


 2224              	.LVL165:
 2225              		.loc 1 943 0
 2226 0e6c 099B     		ldr	r3, [sp, #36]
 2227              		.loc 1 944 0
 2228 0e6e 4448     		ldr	r0, .L694+8
 2229              		.loc 1 943 0
 2230 0e70 002B     		cmp	r3, #0
 2231 0e72 00F0AE86 		beq	.L314
 2232              		.loc 1 944 0
 2233 0e76 FFF7FEFF 		bl	strlen
 2234              	.LVL166:
 2235 0e7a 0146     		mov	r1, r0
 2236 0e7c 4048     		ldr	r0, .L694+8
 2237 0e7e FFF7FEFF 		bl	e_send_uart1_char
 2238              	.LVL167:
 2239              	.L315:
 2240              		.loc 1 944 0 is_stmt 0 discriminator 2
 2241 0e82 FFF7FEFF 		bl	e_uart1_sending
 2242              	.LVL168:
 2243 0e86 0028     		cmp	r0, #0
 2244 0e88 FBD1     		bne	.L315
 2245 0e8a FFF71AB9 		b	.L4
 2246              	.L181:
 2247              		.loc 1 932 0 is_stmt 1
 2248 0e8e 4A49     		ldr	r1, .L694+64
 2249 0e90 4A4A     		ldr	r2, .L694+68
 2250 0e92 4B4B     		ldr	r3, .L694+72
 2251 0e94 3A48     		ldr	r0, .L694+8
 2252 0e96 FFF7FEFF 		bl	sscanf
 2253              	.LVL169:
 2254              		.loc 1 933 0
 2255 0e9a 484B     		ldr	r3, .L694+68
 2256 0e9c 1868     		ldr	r0, [r3]
 2257 0e9e FFF7FEFF 		bl	e_set_steps_left
 2258              	.LVL170:
 2259              		.loc 1 934 0
 2260 0ea2 474B     		ldr	r3, .L694+72
 2261 0ea4 1868     		ldr	r0, [r3]
 2262 0ea6 FFF7FEFF 		bl	e_set_steps_right
 2263              	.LVL171:
 2264              		.loc 1 935 0
 2265 0eaa 099B     		ldr	r3, [sp, #36]
 2266              		.loc 1 936 0
 2267 0eac 4548     		ldr	r0, .L694+76
 2268 0eae 0321     		movs	r1, #3
 2269              		.loc 1 935 0
 2270 0eb0 002B     		cmp	r3, #0
 2271 0eb2 00F0BE86 		beq	.L311
 2272              		.loc 1 936 0
 2273 0eb6 FFF7FEFF 		bl	e_send_uart1_char
 2274              	.LVL172:
 2275              	.L312:
 2276              		.loc 1 936 0 is_stmt 0 discriminator 2
 2277 0eba FFF7FEFF 		bl	e_uart1_sending
 2278              	.LVL173:
 2279 0ebe 0028     		cmp	r0, #0
 2280 0ec0 FBD1     		bne	.L312
ARM GAS  C:\Users\mathi\AppData\Local\Temp\cc0ZaFXf.s 			page 41


 2281 0ec2 FFF7FEB8 		b	.L4
 2282              	.L184:
 2283              		.loc 1 968 0 is_stmt 1
 2284 0ec6 099B     		ldr	r3, [sp, #36]
 2285 0ec8 002B     		cmp	r3, #0
 2286 0eca 00F05187 		beq	.L320
 2287              		.loc 1 969 0
 2288 0ece 3E4A     		ldr	r2, .L694+80
 2289 0ed0 3E49     		ldr	r1, .L694+84
 2290 0ed2 2B48     		ldr	r0, .L694+8
 2291 0ed4 FFF7FEFF 		bl	sscanf
 2292              	.LVL174:
 2293              		.loc 1 970 0
 2294 0ed8 3D4B     		ldr	r3, .L694+88
 2295 0eda 1B78     		ldrb	r3, [r3]	@ zero_extendqisi2
 2296 0edc 002B     		cmp	r3, #0
 2297 0ede 01F03B80 		beq	.L682
 2298              	.L321:
 2299              		.loc 1 974 0
 2300 0ee2 394B     		ldr	r3, .L694+80
 2301 0ee4 1B68     		ldr	r3, [r3]
 2302 0ee6 013B     		subs	r3, r3, #1
 2303 0ee8 042B     		cmp	r3, #4
 2304 0eea 01F27C80 		bhi	.L322
 2305 0eee DFE813F0 		tbh	[pc, r3, lsl #1]
 2306              	.L324:
 2307 0ef2 7C04     		.2byte	(.L323-.L324)/2
 2308 0ef4 7604     		.2byte	(.L325-.L324)/2
 2309 0ef6 7004     		.2byte	(.L326-.L324)/2
 2310 0ef8 6904     		.2byte	(.L327-.L324)/2
 2311 0efa 5904     		.2byte	(.L328-.L324)/2
 2312              		.p2align 1
 2313              	.L180:
 2314              		.loc 1 918 0
 2315 0efc 099B     		ldr	r3, [sp, #36]
 2316 0efe 002B     		cmp	r3, #0
 2317 0f00 00F00886 		beq	.L308
 2318              		.loc 1 919 0
 2319 0f04 0020     		movs	r0, #0
 2320 0f06 FFF7FEFF 		bl	e_get_ambient_light
 2321              	.LVL175:
 2322 0f0a 0D90     		str	r0, [sp, #52]
 2323 0f0c 0120     		movs	r0, #1
 2324 0f0e FFF7FEFF 		bl	e_get_ambient_light
 2325              	.LVL176:
 2326 0f12 0C90     		str	r0, [sp, #48]
 2327 0f14 0220     		movs	r0, #2
 2328 0f16 FFF7FEFF 		bl	e_get_ambient_light
 2329              	.LVL177:
 2330 0f1a 0A90     		str	r0, [sp, #40]
 2331 0f1c 0320     		movs	r0, #3
 2332 0f1e FFF7FEFF 		bl	e_get_ambient_light
 2333              	.LVL178:
 2334 0f22 0446     		mov	r4, r0
 2335 0f24 0420     		movs	r0, #4
 2336 0f26 FFF7FEFF 		bl	e_get_ambient_light
 2337              	.LVL179:
ARM GAS  C:\Users\mathi\AppData\Local\Temp\cc0ZaFXf.s 			page 42


 2338 0f2a 0546     		mov	r5, r0
 2339 0f2c 0520     		movs	r0, #5
 2340 0f2e FFF7FEFF 		bl	e_get_ambient_light
 2341              	.LVL180:
 2342 0f32 0646     		mov	r6, r0
 2343 0f34 0620     		movs	r0, #6
 2344 0f36 FFF7FEFF 		bl	e_get_ambient_light
 2345              	.LVL181:
 2346 0f3a 0B90     		str	r0, [sp, #44]
 2347 0f3c 0720     		movs	r0, #7
 2348 0f3e FFF7FEFF 		bl	e_get_ambient_light
 2349              	.LVL182:
 2350 0f42 0B99     		ldr	r1, [sp, #44]
 2351 0f44 0A9B     		ldr	r3, [sp, #40]
 2352 0f46 0093     		str	r3, [sp]
 2353 0f48 0590     		str	r0, [sp, #20]
 2354 0f4a CDE90361 		strd	r6, r1, [sp, #12]
 2355 0f4e DDE90C32 		ldrd	r3, r2, [sp, #48]
 2356 0f52 2049     		ldr	r1, .L694+92
 2357 0f54 0A48     		ldr	r0, .L694+8
 2358 0f56 CDE90145 		strd	r4, r5, [sp, #4]
 2359 0f5a FFF7FEFF 		bl	sprintf
 2360              	.LVL183:
 2361              		.loc 1 922 0
 2362 0f5e 0848     		ldr	r0, .L694+8
 2363 0f60 FFF7FEFF 		bl	strlen
 2364              	.LVL184:
 2365 0f64 0146     		mov	r1, r0
 2366 0f66 0648     		ldr	r0, .L694+8
 2367 0f68 FFF7FEFF 		bl	e_send_uart1_char
 2368              	.LVL185:
 2369              	.L309:
 2370              		.loc 1 922 0 is_stmt 0 discriminator 2
 2371 0f6c FFF7FEFF 		bl	e_uart1_sending
 2372              	.LVL186:
 2373 0f70 0028     		cmp	r0, #0
 2374 0f72 FBD1     		bne	.L309
 2375 0f74 FFF7A5B8 		b	.L4
 2376              	.L695:
 2377              		.align	2
 2378              	.L694:
 2379 0f78 780A0000 		.word	.LC93
 2380 0f7c 04000000 		.word	buffer+4
 2381 0f80 00000000 		.word	buffer
 2382 0f84 180A0000 		.word	.LC88
 2383 0f88 00000000 		.word	.LANCHOR27
 2384 0f8c 00000000 		.word	.LANCHOR26
 2385 0f90 00000000 		.word	.LANCHOR25
 2386 0f94 F8090000 		.word	.LC85
 2387 0f98 040A0000 		.word	.LC86
 2388 0f9c 100A0000 		.word	.LC87
 2389 0fa0 E8090000 		.word	.LC83
 2390 0fa4 F4090000 		.word	.LC84
 2391 0fa8 C0090000 		.word	.LC82
 2392 0fac 00000000 		.word	.LANCHOR1
 2393 0fb0 580A0000 		.word	.LC91
 2394 0fb4 8C090000 		.word	.LC76
ARM GAS  C:\Users\mathi\AppData\Local\Temp\cc0ZaFXf.s 			page 43


 2395 0fb8 7C090000 		.word	.LC74
 2396 0fbc 00000000 		.word	.LANCHOR24
 2397 0fc0 00000000 		.word	.LANCHOR23
 2398 0fc4 88090000 		.word	.LC75
 2399 0fc8 00000000 		.word	.LANCHOR32
 2400 0fcc 9C090000 		.word	.LC78
 2401 0fd0 00000000 		.word	.LANCHOR9
 2402 0fd4 3C090000 		.word	.LC72
 2403              	.L179:
 2404              		.loc 1 904 0 is_stmt 1
 2405 0fd8 099B     		ldr	r3, [sp, #36]
 2406 0fda 002B     		cmp	r3, #0
 2407 0fdc 00F07486 		beq	.L305
 2408              		.loc 1 905 0
 2409 0fe0 0020     		movs	r0, #0
 2410 0fe2 FFF7FEFF 		bl	e_get_calibrated_prox
 2411              	.LVL187:
 2412 0fe6 0D90     		str	r0, [sp, #52]
 2413 0fe8 0120     		movs	r0, #1
 2414 0fea FFF7FEFF 		bl	e_get_calibrated_prox
 2415              	.LVL188:
 2416 0fee 0C90     		str	r0, [sp, #48]
 2417 0ff0 0220     		movs	r0, #2
 2418 0ff2 FFF7FEFF 		bl	e_get_calibrated_prox
 2419              	.LVL189:
 2420 0ff6 0A90     		str	r0, [sp, #40]
 2421 0ff8 0320     		movs	r0, #3
 2422 0ffa FFF7FEFF 		bl	e_get_calibrated_prox
 2423              	.LVL190:
 2424 0ffe 0446     		mov	r4, r0
 2425 1000 0420     		movs	r0, #4
 2426 1002 FFF7FEFF 		bl	e_get_calibrated_prox
 2427              	.LVL191:
 2428 1006 0546     		mov	r5, r0
 2429 1008 0520     		movs	r0, #5
 2430 100a FFF7FEFF 		bl	e_get_calibrated_prox
 2431              	.LVL192:
 2432 100e 0646     		mov	r6, r0
 2433 1010 0620     		movs	r0, #6
 2434 1012 FFF7FEFF 		bl	e_get_calibrated_prox
 2435              	.LVL193:
 2436 1016 0B90     		str	r0, [sp, #44]
 2437 1018 0720     		movs	r0, #7
 2438 101a FFF7FEFF 		bl	e_get_calibrated_prox
 2439              	.LVL194:
 2440 101e 0B99     		ldr	r1, [sp, #44]
 2441 1020 0A9B     		ldr	r3, [sp, #40]
 2442 1022 0093     		str	r3, [sp]
 2443 1024 0590     		str	r0, [sp, #20]
 2444 1026 CDE90361 		strd	r6, r1, [sp, #12]
 2445 102a DDE90C32 		ldrd	r3, r2, [sp, #48]
 2446 102e C249     		ldr	r1, .L696
 2447 1030 C248     		ldr	r0, .L696+4
 2448 1032 CDE90145 		strd	r4, r5, [sp, #4]
 2449 1036 FFF7FEFF 		bl	sprintf
 2450              	.LVL195:
 2451              		.loc 1 908 0
ARM GAS  C:\Users\mathi\AppData\Local\Temp\cc0ZaFXf.s 			page 44


 2452 103a C048     		ldr	r0, .L696+4
 2453 103c FFF7FEFF 		bl	strlen
 2454              	.LVL196:
 2455 1040 0146     		mov	r1, r0
 2456 1042 BE48     		ldr	r0, .L696+4
 2457 1044 FFF7FEFF 		bl	e_send_uart1_char
 2458              	.LVL197:
 2459              	.L306:
 2460              		.loc 1 908 0 is_stmt 0 discriminator 2
 2461 1048 FFF7FEFF 		bl	e_uart1_sending
 2462              	.LVL198:
 2463 104c 0028     		cmp	r0, #0
 2464 104e FBD1     		bne	.L306
 2465 1050 FFF737B8 		b	.L4
 2466              	.L185:
 2467              		.loc 1 1011 0 is_stmt 1
 2468 1054 0020     		movs	r0, #0
 2469 1056 FFF7FEFF 		bl	e_get_micro_volume
 2470              	.LVL199:
 2471 105a 0446     		mov	r4, r0
 2472 105c 0120     		movs	r0, #1
 2473 105e FFF7FEFF 		bl	e_get_micro_volume
 2474              	.LVL200:
 2475 1062 0546     		mov	r5, r0
 2476 1064 0220     		movs	r0, #2
 2477 1066 FFF7FEFF 		bl	e_get_micro_volume
 2478              	.LVL201:
 2479 106a 2B46     		mov	r3, r5
 2480 106c 0090     		str	r0, [sp]
 2481 106e 2246     		mov	r2, r4
 2482 1070 B349     		ldr	r1, .L696+8
 2483 1072 B248     		ldr	r0, .L696+4
 2484 1074 FFF7FEFF 		bl	sprintf
 2485              	.LVL202:
 2486              		.loc 1 1012 0
 2487 1078 099B     		ldr	r3, [sp, #36]
 2488              		.loc 1 1013 0
 2489 107a B048     		ldr	r0, .L696+4
 2490              		.loc 1 1012 0
 2491 107c 002B     		cmp	r3, #0
 2492 107e 00F0E085 		beq	.L336
 2493              		.loc 1 1013 0
 2494 1082 FFF7FEFF 		bl	strlen
 2495              	.LVL203:
 2496 1086 0146     		mov	r1, r0
 2497 1088 AC48     		ldr	r0, .L696+4
 2498 108a FFF7FEFF 		bl	e_send_uart1_char
 2499              	.LVL204:
 2500              	.L337:
 2501              		.loc 1 1013 0 is_stmt 0 discriminator 2
 2502 108e FFF7FEFF 		bl	e_uart1_sending
 2503              	.LVL205:
 2504 1092 0028     		cmp	r0, #0
 2505 1094 FBD1     		bne	.L337
 2506 1096 FFF714B8 		b	.L4
 2507              	.L183:
 2508              		.loc 1 958 0 is_stmt 1
ARM GAS  C:\Users\mathi\AppData\Local\Temp\cc0ZaFXf.s 			page 45


 2509 109a 0020     		movs	r0, #0
 2510 109c FFF7FEFF 		bl	e_set_speed_left
 2511              	.LVL206:
 2512              		.loc 1 959 0
 2513 10a0 0020     		movs	r0, #0
 2514 10a2 FFF7FEFF 		bl	e_set_speed_right
 2515              	.LVL207:
 2516              		.loc 1 960 0
 2517 10a6 0021     		movs	r1, #0
 2518 10a8 0820     		movs	r0, #8
 2519 10aa FFF7FEFF 		bl	e_set_led
 2520              	.LVL208:
 2521              		.loc 1 961 0
 2522 10ae 099B     		ldr	r3, [sp, #36]
 2523              		.loc 1 962 0
 2524 10b0 A448     		ldr	r0, .L696+12
 2525 10b2 0321     		movs	r1, #3
 2526              		.loc 1 961 0
 2527 10b4 002B     		cmp	r3, #0
 2528 10b6 00F09885 		beq	.L317
 2529              		.loc 1 962 0
 2530 10ba FFF7FEFF 		bl	e_send_uart1_char
 2531              	.LVL209:
 2532              	.L318:
 2533              		.loc 1 962 0 is_stmt 0 discriminator 2
 2534 10be FFF7FEFF 		bl	e_uart1_sending
 2535              	.LVL210:
 2536 10c2 0028     		cmp	r0, #0
 2537 10c4 FBD1     		bne	.L318
 2538 10c6 FEF7FCBF 		b	.L4
 2539              	.L178:
 2540              		.loc 1 858 0 is_stmt 1
 2541 10ca 099B     		ldr	r3, [sp, #36]
 2542 10cc 002B     		cmp	r3, #0
 2543 10ce 3FF4A5A8 		beq	.L626
 2544              		.loc 1 860 0
 2545 10d2 0024     		movs	r4, #0
 2546              		.loc 1 859 0
 2547 10d4 FFF7FEFF 		bl	e_i2cp_enable
 2548              	.LVL211:
 2549              		.loc 1 860 0
 2550 10d8 CAF80040 		str	r4, [r10]
 2551              	.L296:
 2552 10dc E3B2     		uxtb	r3, r4
 2553              		.loc 1 861 0
 2554 10de E207     		lsls	r2, r4, #31
 2555 10e0 03F10101 		add	r1, r3, #1
 2556              		.loc 1 862 0
 2557 10e4 03F1FF33 		add	r3, r3, #-1
 2558              		.loc 1 861 0
 2559 10e8 4FF0C000 		mov	r0, #192
 2560 10ec C9B2     		uxtb	r1, r1
 2561              		.loc 1 862 0
 2562 10ee 44BF     		itt	mi
 2563 10f0 C020     		movmi	r0, #192
 2564 10f2 D9B2     		uxtbmi	r1, r3
 2565 10f4 FFF7FEFF 		bl	e_i2cp_read
ARM GAS  C:\Users\mathi\AppData\Local\Temp\cc0ZaFXf.s 			page 46


 2566              	.LVL212:
 2567              		.loc 1 860 0
 2568 10f8 DAF80030 		ldr	r3, [r10]
 2569              		.loc 1 862 0
 2570 10fc 08F80400 		strb	r0, [r8, r4]
 2571              		.loc 1 860 0
 2572 1100 5C1C     		adds	r4, r3, #1
 2573 1102 052C     		cmp	r4, #5
 2574 1104 CAF80040 		str	r4, [r10]
 2575 1108 E8DD     		ble	.L296
 2576              		.loc 1 865 0
 2577 110a 0D23     		movs	r3, #13
 2578 110c CAF80030 		str	r3, [r10]
 2579              	.L300:
 2580 1110 DAB2     		uxtb	r2, r3
 2581 1112 DC1F     		subs	r4, r3, #7
 2582              		.loc 1 866 0
 2583 1114 511E     		subs	r1, r2, #1
 2584 1116 DB07     		lsls	r3, r3, #31
 2585              		.loc 1 867 0
 2586 1118 02F10102 		add	r2, r2, #1
 2587              		.loc 1 866 0
 2588 111c 4FF0C000 		mov	r0, #192
 2589 1120 C9B2     		uxtb	r1, r1
 2590              		.loc 1 867 0
 2591 1122 44BF     		itt	mi
 2592 1124 C020     		movmi	r0, #192
 2593 1126 D1B2     		uxtbmi	r1, r2
 2594 1128 FFF7FEFF 		bl	e_i2cp_read
 2595              	.LVL213:
 2596              		.loc 1 865 0
 2597 112c DAF80030 		ldr	r3, [r10]
 2598              		.loc 1 867 0
 2599 1130 08F80400 		strb	r0, [r8, r4]
 2600              		.loc 1 865 0
 2601 1134 0133     		adds	r3, r3, #1
 2602 1136 102B     		cmp	r3, #16
 2603 1138 CAF80030 		str	r3, [r10]
 2604 113c E8DD     		ble	.L300
 2605              		.loc 1 870 0
 2606 113e FFF7FEFF 		bl	e_i2cp_disable
 2607              	.LVL214:
 2608              		.loc 1 883 0
 2609 1142 98F80950 		ldrb	r5, [r8, #9]	@ zero_extendqisi2
 2610              		.loc 1 881 0
 2611 1146 98F80730 		ldrb	r3, [r8, #7]	@ zero_extendqisi2
 2612              		.loc 1 882 0
 2613 114a 98F80800 		ldrb	r0, [r8, #8]	@ zero_extendqisi2
 2614              		.loc 1 880 0
 2615 114e 98F80620 		ldrb	r2, [r8, #6]	@ zero_extendqisi2
 2616              		.loc 1 879 0
 2617 1152 98F80540 		ldrb	r4, [r8, #5]	@ zero_extendqisi2
 2618              		.loc 1 878 0
 2619 1156 98F80410 		ldrb	r1, [r8, #4]	@ zero_extendqisi2
 2620              		.loc 1 873 0
 2621 115a 00EB0520 		add	r0, r0, r5, lsl #8
 2622 115e 02EB0322 		add	r2, r2, r3, lsl #8
ARM GAS  C:\Users\mathi\AppData\Local\Temp\cc0ZaFXf.s 			page 47


 2623 1162 0290     		str	r0, [sp, #8]
 2624              		.loc 1 877 0
 2625 1164 98F80330 		ldrb	r3, [r8, #3]	@ zero_extendqisi2
 2626              		.loc 1 875 0
 2627 1168 98F80100 		ldrb	r0, [r8, #1]	@ zero_extendqisi2
 2628              		.loc 1 876 0
 2629 116c 98F80250 		ldrb	r5, [r8, #2]	@ zero_extendqisi2
 2630              		.loc 1 873 0
 2631 1170 0192     		str	r2, [sp, #4]
 2632              		.loc 1 874 0
 2633 1172 98F80020 		ldrb	r2, [r8]	@ zero_extendqisi2
 2634              		.loc 1 873 0
 2635 1176 01EB0421 		add	r1, r1, r4, lsl #8
 2636 117a 02EB0022 		add	r2, r2, r0, lsl #8
 2637 117e 0091     		str	r1, [sp]
 2638 1180 05EB0323 		add	r3, r5, r3, lsl #8
 2639 1184 7049     		ldr	r1, .L696+16
 2640 1186 6D48     		ldr	r0, .L696+4
 2641 1188 FFF7FEFF 		bl	sprintf
 2642              	.LVL215:
 2643              		.loc 1 893 0
 2644 118c 6B48     		ldr	r0, .L696+4
 2645 118e FFF7FEFF 		bl	strlen
 2646              	.LVL216:
 2647 1192 0146     		mov	r1, r0
 2648 1194 6948     		ldr	r0, .L696+4
 2649 1196 FFF7FEFF 		bl	e_send_uart1_char
 2650              	.LVL217:
 2651              	.L304:
 2652              		.loc 1 893 0 is_stmt 0 discriminator 2
 2653 119a FFF7FEFF 		bl	e_uart1_sending
 2654              	.LVL218:
 2655 119e 0028     		cmp	r0, #0
 2656 11a0 FBD1     		bne	.L304
 2657 11a2 FEF78EBF 		b	.L4
 2658              	.L170:
 2659              		.loc 1 676 0 is_stmt 1
 2660 11a6 694B     		ldr	r3, .L696+20
 2661 11a8 694A     		ldr	r2, .L696+24
 2662 11aa 1B68     		ldr	r3, [r3]
 2663 11ac 1268     		ldr	r2, [r2]
 2664 11ae 6949     		ldr	r1, .L696+28
 2665 11b0 6248     		ldr	r0, .L696+4
 2666 11b2 FFF7FEFF 		bl	sprintf
 2667              	.LVL219:
 2668              		.loc 1 677 0
 2669 11b6 099B     		ldr	r3, [sp, #36]
 2670              		.loc 1 678 0
 2671 11b8 6048     		ldr	r0, .L696+4
 2672              		.loc 1 677 0
 2673 11ba 002B     		cmp	r3, #0
 2674 11bc 00F02585 		beq	.L210
 2675              		.loc 1 678 0
 2676 11c0 FFF7FEFF 		bl	strlen
 2677              	.LVL220:
 2678 11c4 0146     		mov	r1, r0
 2679 11c6 5D48     		ldr	r0, .L696+4
ARM GAS  C:\Users\mathi\AppData\Local\Temp\cc0ZaFXf.s 			page 48


 2680 11c8 FFF7FEFF 		bl	e_send_uart1_char
 2681              	.LVL221:
 2682              	.L211:
 2683              		.loc 1 678 0 is_stmt 0 discriminator 2
 2684 11cc FFF7FEFF 		bl	e_uart1_sending
 2685              	.LVL222:
 2686 11d0 0028     		cmp	r0, #0
 2687 11d2 FBD1     		bne	.L211
 2688 11d4 FEF775BF 		b	.L4
 2689              	.L174:
 2690              		.loc 1 795 0 is_stmt 1
 2691 11d8 099B     		ldr	r3, [sp, #36]
 2692 11da 002B     		cmp	r3, #0
 2693 11dc 3FF41EA8 		beq	.L626
 2694              		.loc 1 796 0
 2695 11e0 1399     		ldr	r1, [sp, #76]
 2696 11e2 119B     		ldr	r3, [sp, #68]
 2697 11e4 0C68     		ldr	r4, [r1]
 2698 11e6 1599     		ldr	r1, [sp, #84]
 2699 11e8 149A     		ldr	r2, [sp, #80]
 2700 11ea 0868     		ldr	r0, [r1]
 2701 11ec 1299     		ldr	r1, [sp, #72]
 2702 11ee 1B68     		ldr	r3, [r3]
 2703 11f0 0968     		ldr	r1, [r1]
 2704 11f2 1268     		ldr	r2, [r2]
 2705 11f4 0091     		str	r1, [sp]
 2706 11f6 CDE90104 		strd	r0, r4, [sp, #4]
 2707 11fa 5749     		ldr	r1, .L696+32
 2708 11fc 4F48     		ldr	r0, .L696+4
 2709 11fe FFF7FEFF 		bl	sprintf
 2710              	.LVL223:
 2711              		.loc 1 797 0
 2712 1202 4E48     		ldr	r0, .L696+4
 2713 1204 FFF7FEFF 		bl	strlen
 2714              	.LVL224:
 2715 1208 0146     		mov	r1, r0
 2716 120a 4C48     		ldr	r0, .L696+4
 2717 120c FFF7FEFF 		bl	e_send_uart1_char
 2718              	.LVL225:
 2719              	.L278:
 2720              		.loc 1 797 0 is_stmt 0 discriminator 2
 2721 1210 FFF7FEFF 		bl	e_uart1_sending
 2722              	.LVL226:
 2723 1214 0028     		cmp	r0, #0
 2724 1216 FBD1     		bne	.L278
 2725 1218 FEF753BF 		b	.L4
 2726              	.L165:
 2727              		.loc 1 620 0 is_stmt 1
 2728 121c 099B     		ldr	r3, [sp, #36]
 2729 121e 002B     		cmp	r3, #0
 2730 1220 00F01B85 		beq	.L191
 2731              		.loc 1 621 0
 2732 1224 0121     		movs	r1, #1
 2733 1226 0020     		movs	r0, #0
 2734 1228 FFF7FEFF 		bl	e_get_acc_filtered
 2735              	.LVL227:
 2736 122c 0121     		movs	r1, #1
ARM GAS  C:\Users\mathi\AppData\Local\Temp\cc0ZaFXf.s 			page 49


 2737 122e 0446     		mov	r4, r0
 2738 1230 0846     		mov	r0, r1
 2739 1232 FFF7FEFF 		bl	e_get_acc_filtered
 2740              	.LVL228:
 2741 1236 0121     		movs	r1, #1
 2742 1238 0546     		mov	r5, r0
 2743 123a 0220     		movs	r0, #2
 2744 123c FFF7FEFF 		bl	e_get_acc_filtered
 2745              	.LVL229:
 2746 1240 4649     		ldr	r1, .L696+36
 2747 1242 0090     		str	r0, [sp]
 2748 1244 2B46     		mov	r3, r5
 2749 1246 2246     		mov	r2, r4
 2750 1248 3C48     		ldr	r0, .L696+4
 2751 124a FFF7FEFF 		bl	sprintf
 2752              	.LVL230:
 2753              		.loc 1 630 0
 2754 124e 3B48     		ldr	r0, .L696+4
 2755 1250 FFF7FEFF 		bl	strlen
 2756              	.LVL231:
 2757 1254 0146     		mov	r1, r0
 2758 1256 3948     		ldr	r0, .L696+4
 2759 1258 FFF7FEFF 		bl	e_send_uart1_char
 2760              	.LVL232:
 2761              	.L192:
 2762              		.loc 1 630 0 is_stmt 0 discriminator 2
 2763 125c FFF7FEFF 		bl	e_uart1_sending
 2764              	.LVL233:
 2765 1260 0028     		cmp	r0, #0
 2766 1262 FBD1     		bne	.L192
 2767 1264 FEF72DBF 		b	.L4
 2768              	.L176:
 2769              		.loc 1 828 0 is_stmt 1
 2770 1268 099B     		ldr	r3, [sp, #36]
 2771              		.loc 1 829 0
 2772 126a 3D48     		ldr	r0, .L696+40
 2773 126c 3E21     		movs	r1, #62
 2774              		.loc 1 828 0
 2775 126e 002B     		cmp	r3, #0
 2776 1270 00F03184 		beq	.L286
 2777              		.loc 1 829 0
 2778 1274 FFF7FEFF 		bl	e_send_uart1_char
 2779              	.LVL234:
 2780              	.L287:
 2781              		.loc 1 829 0 is_stmt 0 discriminator 2
 2782 1278 FFF7FEFF 		bl	e_uart1_sending
 2783              	.LVL235:
 2784 127c 0028     		cmp	r0, #0
 2785 127e FBD1     		bne	.L287
 2786              		.loc 1 834 0 is_stmt 1
 2787 1280 0121     		movs	r1, #1
 2788 1282 0820     		movs	r0, #8
 2789 1284 FFF7FEFF 		bl	e_set_led
 2790              	.LVL236:
 2791              		.loc 1 836 0
 2792 1288 4FF4C870 		mov	r0, #400
 2793 128c FFF7FEFF 		bl	chThdSleep
ARM GAS  C:\Users\mathi\AppData\Local\Temp\cc0ZaFXf.s 			page 50


 2794              	.LVL237:
 2795              		.loc 1 837 0
 2796 1290 FFF7FEFF 		bl	e_led_clear
 2797              	.LVL238:
 2798              		.loc 1 839 0
 2799 1294 6420     		movs	r0, #100
 2800 1296 FFF7FEFF 		bl	chThdSleep
 2801              	.LVL239:
 2802              		.loc 1 840 0
 2803 129a FFF7FEFF 		bl	e_calibrate_ir
 2804              	.LVL240:
 2805              		.loc 1 842 0
 2806 129e 1921     		movs	r1, #25
 2807 12a0 3048     		ldr	r0, .L696+44
 2808 12a2 FFF7FEFF 		bl	e_send_uart1_char
 2809              	.LVL241:
 2810              	.L291:
 2811              		.loc 1 842 0 is_stmt 0 discriminator 2
 2812 12a6 FFF7FEFF 		bl	e_uart1_sending
 2813              	.LVL242:
 2814 12aa 0028     		cmp	r0, #0
 2815 12ac FBD1     		bne	.L291
 2816 12ae FEF708BF 		b	.L4
 2817              	.LVL243:
 2818              	.L168:
 2819              		.loc 1 657 0 is_stmt 1
 2820 12b2 2D4A     		ldr	r2, .L696+48
 2821 12b4 2D49     		ldr	r1, .L696+52
 2822 12b6 1369     		ldr	r3, [r2, #16]
 2823 12b8 1069     		ldr	r0, [r2, #16]
 2824 12ba 0C69     		ldr	r4, [r1, #16]
 2825 12bc 1269     		ldr	r2, [r2, #16]
 2826              		.loc 1 658 0
 2827 12be 2C49     		ldr	r1, .L696+56
 2828              		.loc 1 657 0
 2829 12c0 C4F30014 		ubfx	r4, r4, #4, #1
 2830 12c4 C0F3C030 		ubfx	r0, r0, #15, #1
 2831 12c8 00EB4400 		add	r0, r0, r4, lsl #1
 2832 12cc C2F38032 		ubfx	r2, r2, #14, #1
 2833 12d0 02EB4002 		add	r2, r2, r0, lsl #1
 2834 12d4 C3F34033 		ubfx	r3, r3, #13, #1
 2835 12d8 03EB4203 		add	r3, r3, r2, lsl #1
 2836 12dc 254C     		ldr	r4, .L696+60
 2837              		.loc 1 658 0
 2838 12de 1748     		ldr	r0, .L696+4
 2839              		.loc 1 657 0
 2840 12e0 2360     		str	r3, [r4]
 2841              		.loc 1 658 0
 2842 12e2 1A46     		mov	r2, r3
 2843 12e4 FFF7FEFF 		bl	sprintf
 2844              	.LVL244:
 2845              		.loc 1 659 0
 2846 12e8 099B     		ldr	r3, [sp, #36]
 2847              		.loc 1 660 0
 2848 12ea 1448     		ldr	r0, .L696+4
 2849              		.loc 1 659 0
 2850 12ec 002B     		cmp	r3, #0
ARM GAS  C:\Users\mathi\AppData\Local\Temp\cc0ZaFXf.s 			page 51


 2851 12ee 00F0F585 		beq	.L204
 2852              		.loc 1 660 0
 2853 12f2 FFF7FEFF 		bl	strlen
 2854              	.LVL245:
 2855 12f6 0146     		mov	r1, r0
 2856 12f8 1048     		ldr	r0, .L696+4
 2857 12fa FFF7FEFF 		bl	e_send_uart1_char
 2858              	.LVL246:
 2859              	.L205:
 2860              		.loc 1 660 0 is_stmt 0 discriminator 2
 2861 12fe FFF7FEFF 		bl	e_uart1_sending
 2862              	.LVL247:
 2863 1302 0028     		cmp	r0, #0
 2864 1304 FBD1     		bne	.L205
 2865 1306 FEF7DCBE 		b	.L4
 2866              	.L167:
 2867              		.loc 1 648 0 is_stmt 1
 2868 130a 1B4A     		ldr	r2, .L696+64
 2869 130c 1B49     		ldr	r1, .L696+68
 2870 130e 0B48     		ldr	r0, .L696+4
 2871 1310 FFF7FEFF 		bl	sscanf
 2872              	.LVL248:
 2873              		.loc 1 649 0
 2874 1314 099B     		ldr	r3, [sp, #36]
 2875 1316 002B     		cmp	r3, #0
 2876 1318 00F03C85 		beq	.L201
 2877              		.loc 1 650 0
 2878 131c 164B     		ldr	r3, .L696+64
 2879 131e 1868     		ldr	r0, [r3]
 2880 1320 FFF7FEFF 		bl	e_set_body_led
 2881              	.LVL249:
 2882              		.loc 1 651 0
 2883 1324 0321     		movs	r1, #3
 2884 1326 1648     		ldr	r0, .L696+72
 2885 1328 FFF7FEFF 		bl	e_send_uart1_char
 2886              	.LVL250:
 2887              	.L202:
 2888              		.loc 1 651 0 is_stmt 0 discriminator 2
 2889 132c FFF7FEFF 		bl	e_uart1_sending
 2890              	.LVL251:
 2891 1330 0028     		cmp	r0, #0
 2892 1332 FBD1     		bne	.L202
 2893 1334 FEF7C5BE 		b	.L4
 2894              	.L697:
 2895              		.align	2
 2896              	.L696:
 2897 1338 FC080000 		.word	.LC70
 2898 133c 00000000 		.word	buffer
 2899 1340 B0090000 		.word	.LC81
 2900 1344 98090000 		.word	.LC77
 2901 1348 E8080000 		.word	.LC69
 2902 134c 00000000 		.word	.LANCHOR7
 2903 1350 00000000 		.word	.LANCHOR8
 2904 1354 B4000000 		.word	.LC10
 2905 1358 68080000 		.word	.LC63
 2906 135c 5C000000 		.word	.LC1
 2907 1360 98080000 		.word	.LC66
ARM GAS  C:\Users\mathi\AppData\Local\Temp\cc0ZaFXf.s 			page 52


 2908 1364 3C0A0000 		.word	.LC90
 2909 1368 00080240 		.word	1073874944
 2910 136c 000C0240 		.word	1073875968
 2911 1370 9C000000 		.word	.LC7
 2912 1374 00000000 		.word	.LANCHOR0
 2913 1378 00000000 		.word	.LANCHOR28
 2914 137c 90000000 		.word	.LC5
 2915 1380 98000000 		.word	.LC6
 2916              	.L169:
 2917              		.loc 1 666 0 is_stmt 1
 2918 1384 9D49     		ldr	r1, .L698
 2919 1386 9E4A     		ldr	r2, .L698+4
 2920 1388 9E4B     		ldr	r3, .L698+8
 2921 138a 9F48     		ldr	r0, .L698+12
 2922 138c FFF7FEFF 		bl	sscanf
 2923              	.LVL252:
 2924              		.loc 1 667 0
 2925 1390 9B4B     		ldr	r3, .L698+4
 2926 1392 1868     		ldr	r0, [r3]
 2927 1394 FFF7FEFF 		bl	e_set_speed_left
 2928              	.LVL253:
 2929              		.loc 1 668 0
 2930 1398 9A4B     		ldr	r3, .L698+8
 2931 139a 1868     		ldr	r0, [r3]
 2932 139c FFF7FEFF 		bl	e_set_speed_right
 2933              	.LVL254:
 2934              		.loc 1 669 0
 2935 13a0 099B     		ldr	r3, [sp, #36]
 2936              		.loc 1 670 0
 2937 13a2 9A48     		ldr	r0, .L698+16
 2938 13a4 0321     		movs	r1, #3
 2939              		.loc 1 669 0
 2940 13a6 002B     		cmp	r3, #0
 2941 13a8 00F02784 		beq	.L207
 2942              		.loc 1 670 0
 2943 13ac FFF7FEFF 		bl	e_send_uart1_char
 2944              	.LVL255:
 2945              	.L208:
 2946              		.loc 1 670 0 is_stmt 0 discriminator 2
 2947 13b0 FFF7FEFF 		bl	e_uart1_sending
 2948              	.LVL256:
 2949 13b4 0028     		cmp	r0, #0
 2950 13b6 FBD1     		bne	.L208
 2951 13b8 FEF783BE 		b	.L4
 2952              	.L172:
 2953              		.loc 1 694 0 is_stmt 1
 2954 13bc 099B     		ldr	r3, [sp, #36]
 2955 13be 002B     		cmp	r3, #0
 2956 13c0 3EF42CAF 		beq	.L626
 2957              		.loc 1 695 0
 2958 13c4 FFF7FEFF 		bl	e_get_check
 2959              	.LVL257:
 2960 13c8 0446     		mov	r4, r0
 2961 13ca FFF7FEFF 		bl	e_get_address
 2962              	.LVL258:
 2963 13ce 0546     		mov	r5, r0
 2964 13d0 FFF7FEFF 		bl	e_get_data
ARM GAS  C:\Users\mathi\AppData\Local\Temp\cc0ZaFXf.s 			page 53


 2965              	.LVL259:
 2966 13d4 8E49     		ldr	r1, .L698+20
 2967 13d6 0090     		str	r0, [sp]
 2968 13d8 2B46     		mov	r3, r5
 2969 13da 2246     		mov	r2, r4
 2970 13dc 8A48     		ldr	r0, .L698+12
 2971 13de FFF7FEFF 		bl	sprintf
 2972              	.LVL260:
 2973              		.loc 1 696 0
 2974 13e2 8948     		ldr	r0, .L698+12
 2975 13e4 FFF7FEFF 		bl	strlen
 2976              	.LVL261:
 2977 13e8 0146     		mov	r1, r0
 2978 13ea 8748     		ldr	r0, .L698+12
 2979 13ec FFF7FEFF 		bl	e_send_uart1_char
 2980              	.LVL262:
 2981              	.L216:
 2982              		.loc 1 696 0 is_stmt 0 discriminator 2
 2983 13f0 FFF7FEFF 		bl	e_uart1_sending
 2984              	.LVL263:
 2985 13f4 0028     		cmp	r0, #0
 2986 13f6 FBD1     		bne	.L216
 2987 13f8 FEF763BE 		b	.L4
 2988              	.L177:
 2989              		.loc 1 848 0 is_stmt 1
 2990 13fc 854B     		ldr	r3, .L698+24
 2991 13fe 864A     		ldr	r2, .L698+28
 2992 1400 8649     		ldr	r1, .L698+32
 2993 1402 8148     		ldr	r0, .L698+12
 2994 1404 FFF7FEFF 		bl	sscanf
 2995              	.LVL264:
 2996              		.loc 1 849 0
 2997 1408 824B     		ldr	r3, .L698+24
 2998 140a 1968     		ldr	r1, [r3]
 2999 140c 824B     		ldr	r3, .L698+28
 3000 140e 1868     		ldr	r0, [r3]
 3001 1410 FFF7FEFF 		bl	e_set_led
 3002              	.LVL265:
 3003              		.loc 1 850 0
 3004 1414 099B     		ldr	r3, [sp, #36]
 3005              		.loc 1 851 0
 3006 1416 8248     		ldr	r0, .L698+36
 3007 1418 0321     		movs	r1, #3
 3008              		.loc 1 850 0
 3009 141a 002B     		cmp	r3, #0
 3010 141c 00F00184 		beq	.L293
 3011              		.loc 1 851 0
 3012 1420 FFF7FEFF 		bl	e_send_uart1_char
 3013              	.LVL266:
 3014              	.L294:
 3015              		.loc 1 851 0 is_stmt 0 discriminator 2
 3016 1424 FFF7FEFF 		bl	e_uart1_sending
 3017              	.LVL267:
 3018 1428 0028     		cmp	r0, #0
 3019 142a FBD1     		bne	.L294
 3020 142c FEF749BE 		b	.L4
 3021              	.L173:
ARM GAS  C:\Users\mathi\AppData\Local\Temp\cc0ZaFXf.s 			page 54


 3022              		.loc 1 714 0 is_stmt 1
 3023 1430 099B     		ldr	r3, [sp, #36]
 3024              		.loc 1 715 0
 3025 1432 7C48     		ldr	r0, .L698+40
 3026 1434 0121     		movs	r1, #1
 3027              		.loc 1 714 0
 3028 1436 002B     		cmp	r3, #0
 3029 1438 00F0B684 		beq	.L221
 3030              		.loc 1 715 0
 3031 143c FFF7FEFF 		bl	e_send_uart1_char
 3032              	.LVL268:
 3033              	.L222:
 3034              		.loc 1 715 0 is_stmt 0 discriminator 2
 3035 1440 FFF7FEFF 		bl	e_uart1_sending
 3036              	.LVL269:
 3037 1444 0028     		cmp	r0, #0
 3038 1446 FBD1     		bne	.L222
 3039              		.loc 1 716 0 is_stmt 1
 3040 1448 2121     		movs	r1, #33
 3041 144a 7748     		ldr	r0, .L698+44
 3042 144c FFF7FEFF 		bl	e_send_uart1_char
 3043              	.LVL270:
 3044              	.L223:
 3045              		.loc 1 716 0 is_stmt 0 discriminator 2
 3046 1450 FFF7FEFF 		bl	e_uart1_sending
 3047              	.LVL271:
 3048 1454 0028     		cmp	r0, #0
 3049 1456 FBD1     		bne	.L223
 3050              		.loc 1 717 0 is_stmt 1
 3051 1458 3121     		movs	r1, #49
 3052 145a 7448     		ldr	r0, .L698+48
 3053 145c FFF7FEFF 		bl	e_send_uart1_char
 3054              	.LVL272:
 3055              	.L224:
 3056              		.loc 1 717 0 is_stmt 0 discriminator 2
 3057 1460 FFF7FEFF 		bl	e_uart1_sending
 3058              	.LVL273:
 3059 1464 0028     		cmp	r0, #0
 3060 1466 FBD1     		bne	.L224
 3061              		.loc 1 718 0 is_stmt 1
 3062 1468 FFF7FEFF 		bl	isEpuckVersion1_3
 3063              	.LVL274:
 3064 146c 0028     		cmp	r0, #0
 3065 146e 00F06985 		beq	.L225
 3066              		.loc 1 719 0
 3067 1472 2121     		movs	r1, #33
 3068 1474 6E48     		ldr	r0, .L698+52
 3069 1476 FFF7FEFF 		bl	e_send_uart1_char
 3070              	.LVL275:
 3071              	.L226:
 3072              		.loc 1 719 0 is_stmt 0 discriminator 2
 3073 147a FFF7FEFF 		bl	e_uart1_sending
 3074              	.LVL276:
 3075 147e 0028     		cmp	r0, #0
 3076 1480 FBD1     		bne	.L226
 3077              	.L227:
 3078              		.loc 1 723 0 is_stmt 1
ARM GAS  C:\Users\mathi\AppData\Local\Temp\cc0ZaFXf.s 			page 55


 3079 1482 2521     		movs	r1, #37
 3080 1484 6B48     		ldr	r0, .L698+56
 3081 1486 FFF7FEFF 		bl	e_send_uart1_char
 3082              	.LVL277:
 3083              	.L229:
 3084              		.loc 1 723 0 is_stmt 0 discriminator 2
 3085 148a FFF7FEFF 		bl	e_uart1_sending
 3086              	.LVL278:
 3087 148e 0028     		cmp	r0, #0
 3088 1490 FBD1     		bne	.L229
 3089              		.loc 1 724 0 is_stmt 1
 3090 1492 2E21     		movs	r1, #46
 3091 1494 6848     		ldr	r0, .L698+60
 3092 1496 FFF7FEFF 		bl	e_send_uart1_char
 3093              	.LVL279:
 3094              	.L230:
 3095              		.loc 1 724 0 is_stmt 0 discriminator 2
 3096 149a FFF7FEFF 		bl	e_uart1_sending
 3097              	.LVL280:
 3098 149e 0028     		cmp	r0, #0
 3099 14a0 FBD1     		bne	.L230
 3100              		.loc 1 725 0 is_stmt 1
 3101 14a2 2E21     		movs	r1, #46
 3102 14a4 6548     		ldr	r0, .L698+64
 3103 14a6 FFF7FEFF 		bl	e_send_uart1_char
 3104              	.LVL281:
 3105              	.L231:
 3106              		.loc 1 725 0 is_stmt 0 discriminator 2
 3107 14aa FFF7FEFF 		bl	e_uart1_sending
 3108              	.LVL282:
 3109 14ae 0028     		cmp	r0, #0
 3110 14b0 FBD1     		bne	.L231
 3111              		.loc 1 726 0 is_stmt 1
 3112 14b2 3221     		movs	r1, #50
 3113 14b4 6248     		ldr	r0, .L698+68
 3114 14b6 FFF7FEFF 		bl	e_send_uart1_char
 3115              	.LVL283:
 3116              	.L232:
 3117              		.loc 1 726 0 is_stmt 0 discriminator 2
 3118 14ba FFF7FEFF 		bl	e_uart1_sending
 3119              	.LVL284:
 3120 14be 0028     		cmp	r0, #0
 3121 14c0 FBD1     		bne	.L232
 3122              		.loc 1 728 0 is_stmt 1
 3123 14c2 1F21     		movs	r1, #31
 3124 14c4 5F48     		ldr	r0, .L698+72
 3125 14c6 FFF7FEFF 		bl	e_send_uart1_char
 3126              	.LVL285:
 3127              	.L233:
 3128              		.loc 1 728 0 is_stmt 0 discriminator 2
 3129 14ca FFF7FEFF 		bl	e_uart1_sending
 3130              	.LVL286:
 3131 14ce 0028     		cmp	r0, #0
 3132 14d0 FBD1     		bne	.L233
 3133              		.loc 1 730 0 is_stmt 1
 3134 14d2 FFF7FEFF 		bl	isEpuckVersion1_3
 3135              	.LVL287:
ARM GAS  C:\Users\mathi\AppData\Local\Temp\cc0ZaFXf.s 			page 56


 3136 14d6 0028     		cmp	r0, #0
 3137 14d8 40F07B85 		bne	.L683
 3138              	.L234:
 3139              		.loc 1 733 0
 3140 14dc 1821     		movs	r1, #24
 3141 14de 5A48     		ldr	r0, .L698+76
 3142 14e0 FFF7FEFF 		bl	e_send_uart1_char
 3143              	.LVL288:
 3144              	.L236:
 3145              		.loc 1 733 0 is_stmt 0 discriminator 2
 3146 14e4 FFF7FEFF 		bl	e_uart1_sending
 3147              	.LVL289:
 3148 14e8 0028     		cmp	r0, #0
 3149 14ea FBD1     		bne	.L236
 3150              		.loc 1 734 0 is_stmt 1
 3151 14ec 2821     		movs	r1, #40
 3152 14ee 5748     		ldr	r0, .L698+80
 3153 14f0 FFF7FEFF 		bl	e_send_uart1_char
 3154              	.LVL290:
 3155              	.L237:
 3156              		.loc 1 734 0 is_stmt 0 discriminator 2
 3157 14f4 FFF7FEFF 		bl	e_uart1_sending
 3158              	.LVL291:
 3159 14f8 0028     		cmp	r0, #0
 3160 14fa FBD1     		bne	.L237
 3161              		.loc 1 735 0 is_stmt 1
 3162 14fc 4F21     		movs	r1, #79
 3163 14fe 5448     		ldr	r0, .L698+84
 3164 1500 FFF7FEFF 		bl	e_send_uart1_char
 3165              	.LVL292:
 3166              	.L238:
 3167              		.loc 1 735 0 is_stmt 0 discriminator 2
 3168 1504 FFF7FEFF 		bl	e_uart1_sending
 3169              	.LVL293:
 3170 1508 0028     		cmp	r0, #0
 3171 150a FBD1     		bne	.L238
 3172              		.loc 1 736 0 is_stmt 1
 3173 150c 2F21     		movs	r1, #47
 3174 150e 5148     		ldr	r0, .L698+88
 3175 1510 FFF7FEFF 		bl	e_send_uart1_char
 3176              	.LVL294:
 3177              	.L239:
 3178              		.loc 1 736 0 is_stmt 0 discriminator 2
 3179 1514 FFF7FEFF 		bl	e_uart1_sending
 3180              	.LVL295:
 3181 1518 0028     		cmp	r0, #0
 3182 151a FBD1     		bne	.L239
 3183              		.loc 1 737 0 is_stmt 1
 3184 151c 3321     		movs	r1, #51
 3185 151e 4E48     		ldr	r0, .L698+92
 3186 1520 FFF7FEFF 		bl	e_send_uart1_char
 3187              	.LVL296:
 3188              	.L240:
 3189              		.loc 1 737 0 is_stmt 0 discriminator 2
 3190 1524 FFF7FEFF 		bl	e_uart1_sending
 3191              	.LVL297:
 3192 1528 0028     		cmp	r0, #0
ARM GAS  C:\Users\mathi\AppData\Local\Temp\cc0ZaFXf.s 			page 57


 3193 152a FBD1     		bne	.L240
 3194              		.loc 1 739 0 is_stmt 1
 3195 152c 2121     		movs	r1, #33
 3196 152e 4B48     		ldr	r0, .L698+96
 3197 1530 FFF7FEFF 		bl	e_send_uart1_char
 3198              	.LVL298:
 3199              	.L241:
 3200              		.loc 1 739 0 is_stmt 0 discriminator 2
 3201 1534 FFF7FEFF 		bl	e_uart1_sending
 3202              	.LVL299:
 3203 1538 0028     		cmp	r0, #0
 3204 153a FBD1     		bne	.L241
 3205              		.loc 1 741 0 is_stmt 1
 3206 153c 1D21     		movs	r1, #29
 3207 153e 4848     		ldr	r0, .L698+100
 3208 1540 FFF7FEFF 		bl	e_send_uart1_char
 3209              	.LVL300:
 3210              	.L242:
 3211              		.loc 1 741 0 is_stmt 0 discriminator 2
 3212 1544 FFF7FEFF 		bl	e_uart1_sending
 3213              	.LVL301:
 3214 1548 0028     		cmp	r0, #0
 3215 154a FBD1     		bne	.L242
 3216              		.loc 1 742 0 is_stmt 1
 3217 154c 2121     		movs	r1, #33
 3218 154e 4548     		ldr	r0, .L698+104
 3219 1550 FFF7FEFF 		bl	e_send_uart1_char
 3220              	.LVL302:
 3221              	.L243:
 3222              		.loc 1 742 0 is_stmt 0 discriminator 2
 3223 1554 FFF7FEFF 		bl	e_uart1_sending
 3224              	.LVL303:
 3225 1558 0028     		cmp	r0, #0
 3226 155a FBD1     		bne	.L243
 3227              		.loc 1 743 0 is_stmt 1
 3228 155c 3121     		movs	r1, #49
 3229 155e 4248     		ldr	r0, .L698+108
 3230 1560 FFF7FEFF 		bl	e_send_uart1_char
 3231              	.LVL304:
 3232              	.L244:
 3233              		.loc 1 743 0 is_stmt 0 discriminator 2
 3234 1564 FFF7FEFF 		bl	e_uart1_sending
 3235              	.LVL305:
 3236 1568 0028     		cmp	r0, #0
 3237 156a FBD1     		bne	.L244
 3238              		.loc 1 744 0 is_stmt 1
 3239 156c 3121     		movs	r1, #49
 3240 156e 3F48     		ldr	r0, .L698+112
 3241 1570 FFF7FEFF 		bl	e_send_uart1_char
 3242              	.LVL306:
 3243              	.L245:
 3244              		.loc 1 744 0 is_stmt 0 discriminator 2
 3245 1574 FFF7FEFF 		bl	e_uart1_sending
 3246              	.LVL307:
 3247 1578 0028     		cmp	r0, #0
 3248 157a FBD1     		bne	.L245
 3249              		.loc 1 745 0 is_stmt 1
ARM GAS  C:\Users\mathi\AppData\Local\Temp\cc0ZaFXf.s 			page 58


 3250 157c 2021     		movs	r1, #32
 3251 157e 3C48     		ldr	r0, .L698+116
 3252 1580 FFF7FEFF 		bl	e_send_uart1_char
 3253              	.LVL308:
 3254              	.L246:
 3255              		.loc 1 745 0 is_stmt 0 discriminator 2
 3256 1584 FFF7FEFF 		bl	e_uart1_sending
 3257              	.LVL309:
 3258 1588 0028     		cmp	r0, #0
 3259 158a FBD1     		bne	.L246
 3260              		.loc 1 746 0 is_stmt 1
 3261 158c 3121     		movs	r1, #49
 3262 158e 3948     		ldr	r0, .L698+120
 3263 1590 FFF7FEFF 		bl	e_send_uart1_char
 3264              	.LVL310:
 3265              	.L247:
 3266              		.loc 1 746 0 is_stmt 0 discriminator 2
 3267 1594 FFF7FEFF 		bl	e_uart1_sending
 3268              	.LVL311:
 3269 1598 0028     		cmp	r0, #0
 3270 159a FBD1     		bne	.L247
 3271              		.loc 1 747 0 is_stmt 1
 3272 159c 3221     		movs	r1, #50
 3273 159e 3648     		ldr	r0, .L698+124
 3274 15a0 FFF7FEFF 		bl	e_send_uart1_char
 3275              	.LVL312:
 3276              	.L248:
 3277              		.loc 1 747 0 is_stmt 0 discriminator 2
 3278 15a4 FFF7FEFF 		bl	e_uart1_sending
 3279              	.LVL313:
 3280 15a8 0028     		cmp	r0, #0
 3281 15aa FBD1     		bne	.L248
 3282              		.loc 1 748 0 is_stmt 1
 3283 15ac FFF7FEFF 		bl	isEpuckVersion1_3
 3284              	.LVL314:
 3285 15b0 0028     		cmp	r0, #0
 3286 15b2 40F00485 		bne	.L684
 3287              	.L249:
 3288              		.loc 1 751 0
 3289 15b6 2C21     		movs	r1, #44
 3290 15b8 3048     		ldr	r0, .L698+128
 3291 15ba FFF7FEFF 		bl	e_send_uart1_char
 3292              	.LVL315:
 3293              	.L251:
 3294              		.loc 1 751 0 is_stmt 0 discriminator 2
 3295 15be FFF7FEFF 		bl	e_uart1_sending
 3296              	.LVL316:
 3297 15c2 0028     		cmp	r0, #0
 3298 15c4 FBD1     		bne	.L251
 3299              		.loc 1 752 0 is_stmt 1
 3300 15c6 2521     		movs	r1, #37
 3301 15c8 2D48     		ldr	r0, .L698+132
 3302 15ca FFF7FEFF 		bl	e_send_uart1_char
 3303              	.LVL317:
 3304              	.L252:
 3305              		.loc 1 752 0 is_stmt 0 discriminator 2
 3306 15ce FFF7FEFF 		bl	e_uart1_sending
ARM GAS  C:\Users\mathi\AppData\Local\Temp\cc0ZaFXf.s 			page 59


 3307              	.LVL318:
 3308 15d2 0028     		cmp	r0, #0
 3309 15d4 FBD1     		bne	.L252
 3310              		.loc 1 753 0 is_stmt 1
 3311 15d6 2B21     		movs	r1, #43
 3312 15d8 2A48     		ldr	r0, .L698+136
 3313 15da FFF7FEFF 		bl	e_send_uart1_char
 3314              	.LVL319:
 3315              	.L253:
 3316              		.loc 1 753 0 is_stmt 0 discriminator 2
 3317 15de FFF7FEFF 		bl	e_uart1_sending
 3318              	.LVL320:
 3319 15e2 0028     		cmp	r0, #0
 3320 15e4 FBD1     		bne	.L253
 3321              		.loc 1 754 0 is_stmt 1
 3322 15e6 2A21     		movs	r1, #42
 3323 15e8 2748     		ldr	r0, .L698+140
 3324 15ea FFF7FEFF 		bl	e_send_uart1_char
 3325              	.LVL321:
 3326              	.L254:
 3327              		.loc 1 754 0 is_stmt 0 discriminator 2
 3328 15ee FFF7FEFF 		bl	e_uart1_sending
 3329              	.LVL322:
 3330 15f2 0028     		cmp	r0, #0
 3331 15f4 FBD1     		bne	.L254
 3332 15f6 FEF764BD 		b	.L4
 3333              	.L699:
 3334 15fa 00BF     		.align	2
 3335              	.L698:
 3336 15fc A4000000 		.word	.LC8
 3337 1600 00000000 		.word	.LANCHOR8
 3338 1604 00000000 		.word	.LANCHOR7
 3339 1608 00000000 		.word	buffer
 3340 160c B0000000 		.word	.LC9
 3341 1610 CC000000 		.word	.LC13
 3342 1614 00000000 		.word	.LANCHOR28
 3343 1618 00000000 		.word	.LANCHOR31
 3344 161c D8080000 		.word	.LC67
 3345 1620 E4080000 		.word	.LC68
 3346 1624 10010000 		.word	.LC15
 3347 1628 14010000 		.word	.LC16
 3348 162c 38010000 		.word	.LC17
 3349 1630 6C010000 		.word	.LC18
 3350 1634 C0010000 		.word	.LC20
 3351 1638 E8010000 		.word	.LC21
 3352 163c 18020000 		.word	.LC22
 3353 1640 48020000 		.word	.LC23
 3354 1644 7C020000 		.word	.LC24
 3355 1648 B8020000 		.word	.LC26
 3356 164c D4020000 		.word	.LC27
 3357 1650 00030000 		.word	.LC28
 3358 1654 50030000 		.word	.LC29
 3359 1658 80030000 		.word	.LC30
 3360 165c B4030000 		.word	.LC31
 3361 1660 D8030000 		.word	.LC32
 3362 1664 F8030000 		.word	.LC33
 3363 1668 1C040000 		.word	.LC34
ARM GAS  C:\Users\mathi\AppData\Local\Temp\cc0ZaFXf.s 			page 60


 3364 166c 50040000 		.word	.LC35
 3365 1670 84040000 		.word	.LC36
 3366 1674 A8040000 		.word	.LC37
 3367 1678 DC040000 		.word	.LC38
 3368 167c 30050000 		.word	.LC40
 3369 1680 60050000 		.word	.LC41
 3370 1684 88050000 		.word	.LC42
 3371 1688 B4050000 		.word	.LC43
 3372              	.L175:
 3373              		.loc 1 801 0 is_stmt 1
 3374 168c 099B     		ldr	r3, [sp, #36]
 3375 168e 002B     		cmp	r3, #0
 3376 1690 3EF4C4AD 		beq	.L626
 3377              		.loc 1 804 0
 3378 1694 159B     		ldr	r3, [sp, #84]
 3379 1696 B04D     		ldr	r5, .L700
 3380 1698 B04E     		ldr	r6, .L700+4
 3381 169a 0193     		str	r3, [sp, #4]
 3382              		.loc 1 802 0
 3383 169c 4FF0FF34 		mov	r4, #-1
 3384              		.loc 1 804 0
 3385 16a0 129B     		ldr	r3, [sp, #72]
 3386 16a2 0093     		str	r3, [sp]
 3387 16a4 0395     		str	r5, [sp, #12]
 3388 16a6 0296     		str	r6, [sp, #8]
 3389 16a8 AD4B     		ldr	r3, .L700+8
 3390 16aa AE4A     		ldr	r2, .L700+12
 3391 16ac AE49     		ldr	r1, .L700+16
 3392 16ae AF48     		ldr	r0, .L700+20
 3393              		.loc 1 802 0
 3394 16b0 3460     		str	r4, [r6]
 3395              		.loc 1 803 0
 3396 16b2 2C60     		str	r4, [r5]
 3397              		.loc 1 804 0
 3398 16b4 FFF7FEFF 		bl	sscanf
 3399              	.LVL323:
 3400              		.loc 1 805 0
 3401 16b8 149A     		ldr	r2, [sp, #80]
 3402 16ba 1368     		ldr	r3, [r2]
 3403 16bc 002B     		cmp	r3, #0
 3404 16be 40F07584 		bne	.L279
 3405              		.loc 1 806 0
 3406 16c2 119A     		ldr	r2, [sp, #68]
 3407 16c4 129B     		ldr	r3, [sp, #72]
 3408 16c6 1268     		ldr	r2, [r2]
 3409 16c8 1B68     		ldr	r3, [r3]
 3410 16ca 03FB02F3 		mul	r3, r3, r2
 3411              	.L280:
 3412              		.loc 1 809 0
 3413 16ce 41F22B02 		movw	r2, #4139
 3414 16d2 1399     		ldr	r1, [sp, #76]
 3415 16d4 9342     		cmp	r3, r2
 3416 16d6 0B60     		str	r3, [r1]
 3417 16d8 0ADD     		ble	.L281
 3418              		.loc 1 810 0
 3419 16da 1498     		ldr	r0, [sp, #80]
 3420 16dc 0122     		movs	r2, #1
ARM GAS  C:\Users\mathi\AppData\Local\Temp\cc0ZaFXf.s 			page 61


 3421 16de 0260     		str	r2, [r0]
 3422              		.loc 1 811 0
 3423 16e0 1198     		ldr	r0, [sp, #68]
 3424 16e2 2823     		movs	r3, #40
 3425 16e4 0360     		str	r3, [r0]
 3426              		.loc 1 812 0
 3427 16e6 1298     		ldr	r0, [sp, #72]
 3428              		.loc 1 813 0
 3429 16e8 4FF44862 		mov	r2, #3200
 3430              		.loc 1 812 0
 3431 16ec 0360     		str	r3, [r0]
 3432              		.loc 1 813 0
 3433 16ee 0A60     		str	r2, [r1]
 3434              	.L281:
 3435              		.loc 1 815 0
 3436 16f0 FFF7FEFF 		bl	e_poxxxx_init_cam
 3437              	.LVL324:
 3438              		.loc 1 816 0
 3439 16f4 994B     		ldr	r3, .L700+4
 3440 16f6 1868     		ldr	r0, [r3]
 3441              		.loc 1 817 0
 3442 16f8 159B     		ldr	r3, [sp, #84]
 3443 16fa 1D68     		ldr	r5, [r3]
 3444 16fc 119B     		ldr	r3, [sp, #68]
 3445 16fe 1A68     		ldr	r2, [r3]
 3446              		.loc 1 816 0
 3447 1700 461C     		adds	r6, r0, #1
 3448              		.loc 1 817 0
 3449 1702 02FB05F2 		mul	r2, r2, r5
 3450              		.loc 1 816 0
 3451 1706 06D1     		bne	.L283
 3452              		.loc 1 817 0
 3453 1708 C2F52070 		rsb	r0, r2, #640
 3454 170c 00EBD070 		add	r0, r0, r0, lsr #31
 3455 1710 924B     		ldr	r3, .L700+4
 3456 1712 4010     		asrs	r0, r0, #1
 3457 1714 1860     		str	r0, [r3]
 3458              	.L283:
 3459              		.loc 1 819 0
 3460 1716 9049     		ldr	r1, .L700
 3461 1718 129B     		ldr	r3, [sp, #72]
 3462 171a 0968     		ldr	r1, [r1]
 3463 171c 1B68     		ldr	r3, [r3]
 3464 171e 4C1C     		adds	r4, r1, #1
 3465 1720 03FB05F3 		mul	r3, r3, r5
 3466 1724 06D1     		bne	.L284
 3467              		.loc 1 820 0
 3468 1726 C3F5F071 		rsb	r1, r3, #480
 3469 172a 01EBD171 		add	r1, r1, r1, lsr #31
 3470 172e 8A4C     		ldr	r4, .L700
 3471 1730 4910     		asrs	r1, r1, #1
 3472 1732 2160     		str	r1, [r4]
 3473              	.L284:
 3474              		.loc 1 822 0
 3475 1734 149C     		ldr	r4, [sp, #80]
 3476 1736 2468     		ldr	r4, [r4]
 3477 1738 0294     		str	r4, [sp, #8]
ARM GAS  C:\Users\mathi\AppData\Local\Temp\cc0ZaFXf.s 			page 62


 3478 173a CDE90055 		strd	r5, r5, [sp]
 3479 173e FFF7FEFF 		bl	e_poxxxx_config_cam
 3480              	.LVL325:
 3481              		.loc 1 823 0
 3482 1742 FFF7FEFF 		bl	e_poxxxx_write_cam_registers
 3483              	.LVL326:
 3484              		.loc 1 824 0
 3485 1746 0321     		movs	r1, #3
 3486 1748 8948     		ldr	r0, .L700+24
 3487 174a FFF7FEFF 		bl	e_send_uart1_char
 3488              	.LVL327:
 3489              	.L285:
 3490              		.loc 1 824 0 is_stmt 0 discriminator 2
 3491 174e FFF7FEFF 		bl	e_uart1_sending
 3492              	.LVL328:
 3493 1752 0028     		cmp	r0, #0
 3494 1754 FBD1     		bne	.L285
 3495 1756 FEF7B4BC 		b	.L4
 3496              	.L171:
 3497              		.loc 1 684 0 is_stmt 1
 3498 175a 864A     		ldr	r2, .L700+28
 3499 175c 8649     		ldr	r1, .L700+32
 3500 175e 8348     		ldr	r0, .L700+20
 3501 1760 FFF7FEFF 		bl	sscanf
 3502              	.LVL329:
 3503              		.loc 1 685 0
 3504 1764 099B     		ldr	r3, [sp, #36]
 3505 1766 002B     		cmp	r3, #0
 3506 1768 00F0C483 		beq	.L213
 3507              		.loc 1 686 0
 3508 176c 814B     		ldr	r3, .L700+28
 3509 176e 1868     		ldr	r0, [r3]
 3510 1770 FFF7FEFF 		bl	e_set_front_led
 3511              	.LVL330:
 3512              		.loc 1 687 0
 3513 1774 0321     		movs	r1, #3
 3514 1776 8148     		ldr	r0, .L700+36
 3515 1778 FFF7FEFF 		bl	e_send_uart1_char
 3516              	.LVL331:
 3517              	.L214:
 3518              		.loc 1 687 0 is_stmt 0 discriminator 2
 3519 177c FFF7FEFF 		bl	e_uart1_sending
 3520              	.LVL332:
 3521 1780 0028     		cmp	r0, #0
 3522 1782 FBD1     		bne	.L214
 3523 1784 FEF79DBC 		b	.L4
 3524              	.L164:
 3525              		.loc 1 1071 0 is_stmt 1
 3526 1788 099B     		ldr	r3, [sp, #36]
 3527              		.loc 1 1072 0
 3528 178a 7D48     		ldr	r0, .L700+40
 3529 178c 1521     		movs	r1, #21
 3530              		.loc 1 1071 0
 3531 178e 002B     		cmp	r3, #0
 3532 1790 00F0F882 		beq	.L352
 3533              		.loc 1 1072 0
 3534 1794 FFF7FEFF 		bl	e_send_uart1_char
ARM GAS  C:\Users\mathi\AppData\Local\Temp\cc0ZaFXf.s 			page 63


 3535              	.LVL333:
 3536              	.L353:
 3537              		.loc 1 1072 0 is_stmt 0 discriminator 2
 3538 1798 FFF7FEFF 		bl	e_uart1_sending
 3539              	.LVL334:
 3540 179c 0028     		cmp	r0, #0
 3541 179e FBD1     		bne	.L353
 3542 17a0 FEF78FBC 		b	.L4
 3543              	.L328:
 3544              		.loc 1 983 0 is_stmt 1
 3545 17a4 41F65071 		movw	r1, #8016
 3546 17a8 42F61430 		movw	r0, #11028
 3547 17ac FFF7FEFF 		bl	e_play_sound
 3548              	.LVL335:
 3549              	.L329:
 3550              		.loc 1 991 0
 3551 17b0 0321     		movs	r1, #3
 3552 17b2 7448     		ldr	r0, .L700+44
 3553 17b4 FFF7FEFF 		bl	e_send_uart1_char
 3554              	.LVL336:
 3555              	.L330:
 3556              		.loc 1 991 0 is_stmt 0 discriminator 2
 3557 17b8 FFF7FEFF 		bl	e_uart1_sending
 3558              	.LVL337:
 3559 17bc 0028     		cmp	r0, #0
 3560 17be FBD1     		bne	.L330
 3561 17c0 FEF77FBC 		b	.L4
 3562              	.L327:
 3563              		.loc 1 981 0 is_stmt 1
 3564 17c4 40F69461 		movw	r1, #3732
 3565 17c8 41F67E40 		movw	r0, #7294
 3566 17cc FFF7FEFF 		bl	e_play_sound
 3567              	.LVL338:
 3568              		.loc 1 982 0
 3569 17d0 EEE7     		b	.L329
 3570              	.L326:
 3571              		.loc 1 979 0
 3572 17d2 0022     		movs	r2, #0
 3573 17d4 0221     		movs	r1, #2
 3574 17d6 0B20     		movs	r0, #11
 3575 17d8 FFF7FEFF 		bl	playMelody
 3576              	.LVL339:
 3577              		.loc 1 980 0
 3578 17dc E8E7     		b	.L329
 3579              	.L325:
 3580              		.loc 1 977 0
 3581 17de 0022     		movs	r2, #0
 3582 17e0 0221     		movs	r1, #2
 3583 17e2 0420     		movs	r0, #4
 3584 17e4 FFF7FEFF 		bl	playMelody
 3585              	.LVL340:
 3586              		.loc 1 978 0
 3587 17e8 E2E7     		b	.L329
 3588              	.L323:
 3589              		.loc 1 975 0
 3590 17ea 0022     		movs	r2, #0
 3591 17ec 0221     		movs	r1, #2
ARM GAS  C:\Users\mathi\AppData\Local\Temp\cc0ZaFXf.s 			page 64


 3592 17ee 0320     		movs	r0, #3
 3593 17f0 FFF7FEFF 		bl	playMelody
 3594              	.LVL341:
 3595              		.loc 1 976 0
 3596 17f4 DCE7     		b	.L329
 3597              	.LVL342:
 3598              	.L28:
 3599              	.LBE4:
 3600              		.loc 1 247 0
 3601 17f6 644A     		ldr	r2, .L700+48
 3602 17f8 0023     		movs	r3, #0
 3603 17fa 1360     		str	r3, [r2]
 3604 17fc 634A     		ldr	r2, .L700+52
 3605 17fe 1360     		str	r3, [r2]
 3606 1800 FEF7CABD 		b	.L40
 3607              	.L11:
 3608              		.loc 1 185 0
 3609 1804 604A     		ldr	r2, .L700+48
 3610 1806 0023     		movs	r3, #0
 3611 1808 1360     		str	r3, [r2]
 3612 180a 604A     		ldr	r2, .L700+52
 3613 180c 1360     		str	r3, [r2]
 3614 180e FEF74EBD 		b	.L23
 3615              	.LVL343:
 3616              	.L141:
 3617              		.loc 1 593 0
 3618 1812 5648     		ldr	r0, .L700+20
 3619 1814 FFF7FEFF 		bl	e_send_uart2_char
 3620              	.LVL344:
 3621              	.L145:
 3622              		.loc 1 594 0 discriminator 1
 3623 1818 FFF7FEFF 		bl	e_uart2_sending
 3624              	.LVL345:
 3625 181c 0028     		cmp	r0, #0
 3626 181e FBD1     		bne	.L145
 3627 1820 FEF7FCBC 		b	.L626
 3628              	.L68:
 3629              		.loc 1 299 0
 3630 1824 FFF7FEFF 		bl	e_read_acc_spheric
 3631              	.LVL346:
 3632 1828 594B     		ldr	r3, .L700+56
 3633 182a 1946     		mov	r1, r3
 3634 182c 83ED000A 		vstr.32	s0, [r3]
 3635 1830 C3ED010A 		vstr.32	s1, [r3, #4]
 3636 1834 83ED021A 		vstr.32	s2, [r3, #8]
 3637 1838 8879     		ldrb	r0, [r1, #6]	@ zero_extendqisi2
 3638 183a 1A78     		ldrb	r2, [r3]	@ zero_extendqisi2
 3639 183c 93F801E0 		ldrb	lr, [r3, #1]	@ zero_extendqisi2
 3640 1840 9B78     		ldrb	r3, [r3, #2]	@ zero_extendqisi2
 3641 1842 0C93     		str	r3, [sp, #48]
 3642 1844 0E90     		str	r0, [sp, #56]
 3643 1846 CB78     		ldrb	r3, [r1, #3]	@ zero_extendqisi2
 3644 1848 C879     		ldrb	r0, [r1, #7]	@ zero_extendqisi2
 3645 184a 0D93     		str	r3, [sp, #52]
 3646 184c 91F805C0 		ldrb	ip, [r1, #5]	@ zero_extendqisi2
 3647 1850 0B79     		ldrb	r3, [r1, #4]	@ zero_extendqisi2
 3648 1852 0F90     		str	r0, [sp, #60]
ARM GAS  C:\Users\mathi\AppData\Local\Temp\cc0ZaFXf.s 			page 65


 3649 1854 4D7A     		ldrb	r5, [r1, #9]	@ zero_extendqisi2
 3650 1856 087A     		ldrb	r0, [r1, #8]	@ zero_extendqisi2
 3651 1858 8C7A     		ldrb	r4, [r1, #10]	@ zero_extendqisi2
 3652 185a C97A     		ldrb	r1, [r1, #11]	@ zero_extendqisi2
 3653 185c 1091     		str	r1, [sp, #64]
 3654 185e FFF78CB8 		b	.L67
 3655              	.L63:
 3656              		.loc 1 272 0
 3657 1862 FFF7FEFF 		bl	isEpuckVersion1_3
 3658              	.LVL347:
 3659 1866 0028     		cmp	r0, #0
 3660 1868 00F0E980 		beq	.L65
 3661              		.loc 1 273 0
 3662 186c 494B     		ldr	r3, .L700+60
 3663 186e C3F800B0 		str	fp, [r3]
 3664              		.loc 1 274 0
 3665 1872 494B     		ldr	r3, .L700+64
 3666 1874 C3F800B0 		str	fp, [r3]
 3667              		.loc 1 275 0
 3668 1878 484B     		ldr	r3, .L700+68
 3669 187a 5A46     		mov	r2, fp
 3670 187c C3F800B0 		str	fp, [r3]
 3671 1880 5D46     		mov	r5, fp
 3672 1882 5846     		mov	r0, fp
 3673 1884 DC46     		mov	ip, fp
 3674 1886 5C46     		mov	r4, fp
 3675 1888 5946     		mov	r1, fp
 3676 188a FEF739BE 		b	.L64
 3677              	.L101:
 3678              		.loc 1 452 0
 3679 188e CAF800B0 		str	fp, [r10]
 3680 1892 5846     		mov	r0, fp
 3681              	.L103:
 3682              		.loc 1 453 0 discriminator 3
 3683 1894 FFF7FEFF 		bl	e_get_calibrated_prox
 3684              	.LVL348:
 3685              		.loc 1 454 0 discriminator 3
 3686 1898 D9F80020 		ldr	r2, [r9]
 3687              		.loc 1 452 0 discriminator 3
 3688 189c DAF80030 		ldr	r3, [r10]
 3689              		.loc 1 454 0 discriminator 3
 3690 18a0 08F80200 		strb	r0, [r8, r2]
 3691              		.loc 1 455 0 discriminator 3
 3692 18a4 08EB0204 		add	r4, r8, r2
 3693 18a8 0112     		asrs	r1, r0, #8
 3694              		.loc 1 452 0 discriminator 3
 3695 18aa 581C     		adds	r0, r3, #1
 3696              		.loc 1 455 0 discriminator 3
 3697 18ac 0232     		adds	r2, r2, #2
 3698              		.loc 1 452 0 discriminator 3
 3699 18ae 0928     		cmp	r0, #9
 3700              		.loc 1 455 0 discriminator 3
 3701 18b0 6170     		strb	r1, [r4, #1]
 3702 18b2 C9F80020 		str	r2, [r9]
 3703              		.loc 1 452 0 discriminator 3
 3704 18b6 CAF80000 		str	r0, [r10]
 3705 18ba EBDD     		ble	.L103
ARM GAS  C:\Users\mathi\AppData\Local\Temp\cc0ZaFXf.s 			page 66


 3706              		.loc 1 577 0
 3707 18bc 3046     		mov	r0, r6
 3708 18be FFF7FEFF 		bl	e_getchar_uart2
 3709              	.LVL349:
 3710 18c2 0028     		cmp	r0, #0
 3711 18c4 3EF45CAE 		beq	.L662
 3712 18c8 FEF736BE 		b	.L136
 3713              	.L104:
 3714              		.loc 1 468 0
 3715 18cc CAF800B0 		str	fp, [r10]
 3716 18d0 5846     		mov	r0, fp
 3717              	.L107:
 3718              		.loc 1 469 0 discriminator 3
 3719 18d2 FFF7FEFF 		bl	e_get_ambient_light
 3720              	.LVL350:
 3721              		.loc 1 470 0 discriminator 3
 3722 18d6 D9F80020 		ldr	r2, [r9]
 3723              		.loc 1 468 0 discriminator 3
 3724 18da DAF80030 		ldr	r3, [r10]
 3725              		.loc 1 470 0 discriminator 3
 3726 18de 08F80200 		strb	r0, [r8, r2]
 3727              		.loc 1 471 0 discriminator 3
 3728 18e2 08EB0204 		add	r4, r8, r2
 3729 18e6 0112     		asrs	r1, r0, #8
 3730              		.loc 1 468 0 discriminator 3
 3731 18e8 581C     		adds	r0, r3, #1
 3732              		.loc 1 471 0 discriminator 3
 3733 18ea 0232     		adds	r2, r2, #2
 3734              		.loc 1 468 0 discriminator 3
 3735 18ec 0928     		cmp	r0, #9
 3736              		.loc 1 471 0 discriminator 3
 3737 18ee 6170     		strb	r1, [r4, #1]
 3738 18f0 C9F80020 		str	r2, [r9]
 3739              		.loc 1 468 0 discriminator 3
 3740 18f4 CAF80000 		str	r0, [r10]
 3741 18f8 EBDD     		ble	.L107
 3742              		.loc 1 577 0
 3743 18fa 3046     		mov	r0, r6
 3744 18fc FFF7FEFF 		bl	e_getchar_uart2
 3745              	.LVL351:
 3746 1900 0028     		cmp	r0, #0
 3747 1902 3EF43DAE 		beq	.L662
 3748 1906 FEF717BE 		b	.L136
 3749              	.LVL352:
 3750              	.L671:
 3751              		.loc 1 241 0
 3752 190a FFF7FEFF 		bl	e_init_sound
 3753              	.LVL353:
 3754              		.loc 1 242 0
 3755 190e 244A     		ldr	r2, .L700+72
 3756 1910 0123     		movs	r3, #1
 3757 1912 1370     		strb	r3, [r2]
 3758 1914 FEF781BD 		b	.L41
 3759              	.LVL354:
 3760              	.L670:
 3761              		.loc 1 179 0
 3762 1918 FFF7FEFF 		bl	e_init_sound
ARM GAS  C:\Users\mathi\AppData\Local\Temp\cc0ZaFXf.s 			page 67


 3763              	.LVL355:
 3764              		.loc 1 180 0
 3765 191c 204A     		ldr	r2, .L700+72
 3766 191e 0123     		movs	r3, #1
 3767 1920 1370     		strb	r3, [r2]
 3768 1922 FEF729BD 		b	.L24
 3769              	.LVL356:
 3770              	.L421:
 3771              		.loc 1 408 0
 3772 1926 BBF1000F 		cmp	fp, #0
 3773 192a 3EF424AE 		beq	.L138
 3774              		.loc 1 409 0
 3775 192e 1D4B     		ldr	r3, .L700+76
 3776 1930 1878     		ldrb	r0, [r3]	@ zero_extendqisi2
 3777 1932 FFF7FEFF 		bl	e_set_body_led
 3778              	.LVL357:
 3779 1936 FEF7FABD 		b	.L135
 3780              	.L677:
 3781              		.loc 1 333 0
 3782 193a FFF7FEFF 		bl	getBatteryValueRaw
 3783              	.LVL358:
 3784              		.loc 1 334 0
 3785 193e D9F80030 		ldr	r3, [r9]
 3786              		.loc 1 335 0
 3787 1942 08EB0302 		add	r2, r8, r3
 3788              		.loc 1 334 0
 3789 1946 08F80300 		strb	r0, [r8, r3]
 3790              		.loc 1 335 0
 3791 194a 010A     		lsrs	r1, r0, #8
 3792 194c 0233     		adds	r3, r3, #2
 3793 194e 5170     		strb	r1, [r2, #1]
 3794 1950 C9F80030 		str	r3, [r9]
 3795 1954 FEF7E8BD 		b	.L44
 3796              	.L701:
 3797              		.align	2
 3798              	.L700:
 3799 1958 00000000 		.word	.LANCHOR30
 3800 195c 00000000 		.word	.LANCHOR29
 3801 1960 00000000 		.word	.LANCHOR3
 3802 1964 00000000 		.word	.LANCHOR2
 3803 1968 7C080000 		.word	.LC64
 3804 196c 00000000 		.word	buffer
 3805 1970 94080000 		.word	.LC65
 3806 1974 00000000 		.word	.LANCHOR28
 3807 1978 C0000000 		.word	.LC11
 3808 197c C8000000 		.word	.LC12
 3809 1980 240A0000 		.word	.LC89
 3810 1984 A4090000 		.word	.LC79
 3811 1988 00000000 		.word	.LANCHOR8
 3812 198c 00000000 		.word	.LANCHOR7
 3813 1990 00000000 		.word	.LANCHOR15
 3814 1994 00000000 		.word	.LANCHOR12
 3815 1998 00000000 		.word	.LANCHOR13
 3816 199c 00000000 		.word	.LANCHOR14
 3817 19a0 00000000 		.word	.LANCHOR9
 3818 19a4 00000000 		.word	.LANCHOR17
 3819              	.LVL359:
ARM GAS  C:\Users\mathi\AppData\Local\Temp\cc0ZaFXf.s 			page 68


 3820              	.L675:
 3821              		.loc 1 370 0 discriminator 1
 3822 19a8 FFF7FEFF 		bl	isEpuckVersion1_3
 3823              	.LVL360:
 3824 19ac 0028     		cmp	r0, #0
 3825 19ae 3FF417A8 		beq	.L81
 3826              		.loc 1 371 0
 3827 19b2 B64A     		ldr	r2, .L702
 3828 19b4 B649     		ldr	r1, .L702+4
 3829 19b6 B748     		ldr	r0, .L702+8
 3830 19b8 FFF7FEFF 		bl	getAllAxesGyro
 3831              	.LVL361:
 3832              		.loc 1 372 0
 3833 19bc B54B     		ldr	r3, .L702+8
 3834 19be D9F80020 		ldr	r2, [r9]
 3835 19c2 1968     		ldr	r1, [r3]
 3836              		.loc 1 374 0
 3837 19c4 B24B     		ldr	r3, .L702+4
 3838              		.loc 1 372 0
 3839 19c6 08F80210 		strb	r1, [r8, r2]
 3840              		.loc 1 374 0
 3841 19ca 1C68     		ldr	r4, [r3]
 3842              		.loc 1 376 0
 3843 19cc AF4B     		ldr	r3, .L702
 3844 19ce 1868     		ldr	r0, [r3]
 3845              		.loc 1 373 0
 3846 19d0 08EB0203 		add	r3, r8, r2
 3847 19d4 0912     		asrs	r1, r1, #8
 3848              		.loc 1 377 0
 3849 19d6 0632     		adds	r2, r2, #6
 3850              		.loc 1 373 0
 3851 19d8 5970     		strb	r1, [r3, #1]
 3852              		.loc 1 377 0
 3853 19da C9F80020 		str	r2, [r9]
 3854              		.loc 1 375 0
 3855 19de 2112     		asrs	r1, r4, #8
 3856              		.loc 1 377 0
 3857 19e0 0212     		asrs	r2, r0, #8
 3858              		.loc 1 374 0
 3859 19e2 9C70     		strb	r4, [r3, #2]
 3860              		.loc 1 375 0
 3861 19e4 D970     		strb	r1, [r3, #3]
 3862              		.loc 1 376 0
 3863 19e6 1871     		strb	r0, [r3, #4]
 3864              		.loc 1 377 0
 3865 19e8 5A71     		strb	r2, [r3, #5]
 3866 19ea FEF7A0BD 		b	.L135
 3867              	.L676:
 3868              		.loc 1 506 0 discriminator 1
 3869 19ee FFF7FEFF 		bl	isEpuckVersion1_3
 3870              	.LVL362:
 3871 19f2 0028     		cmp	r0, #0
 3872 19f4 3FF447A8 		beq	.L119
 3873              		.loc 1 507 0
 3874 19f8 FFF7FEFF 		bl	getTemperature
 3875              	.LVL363:
 3876 19fc D9F80030 		ldr	r3, [r9]
ARM GAS  C:\Users\mathi\AppData\Local\Temp\cc0ZaFXf.s 			page 69


 3877 1a00 5A1C     		adds	r2, r3, #1
 3878 1a02 08F80300 		strb	r0, [r8, r3]
 3879 1a06 C9F80020 		str	r2, [r9]
 3880 1a0a FEF790BD 		b	.L135
 3881              	.L672:
 3882              		.loc 1 583 0
 3883 1a0e A24A     		ldr	r2, .L702+12
 3884 1a10 1370     		strb	r3, [r2]
 3885              	.L143:
 3886              		.loc 1 584 0 discriminator 1
 3887 1a12 FFF7FEFF 		bl	e_poxxxx_is_img_ready
 3888              	.LVL364:
 3889 1a16 0028     		cmp	r0, #0
 3890 1a18 FBD0     		beq	.L143
 3891              		.loc 1 585 0
 3892 1a1a 139D     		ldr	r5, [sp, #76]
 3893 1a1c D9F80030 		ldr	r3, [r9]
 3894 1a20 2C68     		ldr	r4, [r5]
 3895 1a22 1B1B     		subs	r3, r3, r4
 3896 1a24 08EB0304 		add	r4, r8, r3
 3897 1a28 FFF7FEFF 		bl	dcmi_get_last_image_ptr
 3898              	.LVL365:
 3899 1a2c 2A68     		ldr	r2, [r5]
 3900 1a2e 0146     		mov	r1, r0
 3901 1a30 2046     		mov	r0, r4
 3902 1a32 FFF7FEFF 		bl	memcpy
 3903              	.LVL366:
 3904 1a36 D9F80010 		ldr	r1, [r9]
 3905 1a3a FEF790BD 		b	.L142
 3906              	.L65:
 3907              		.loc 1 277 0
 3908 1a3e 0121     		movs	r1, #1
 3909 1a40 FEF742BD 		b	.L654
 3910              	.LVL367:
 3911              	.L156:
 3912              	.LBB5:
 3913              		.loc 1 636 0
 3914 1a44 FFF7FEFF 		bl	isEpuckVersion1_3
 3915              	.LVL368:
 3916 1a48 0028     		cmp	r0, #0
 3917 1a4a 00F08B81 		beq	.L196
 3918              		.loc 1 637 0
 3919 1a4e FFF7FEFF 		bl	getBatteryValueRaw
 3920              	.LVL369:
 3921 1a52 0446     		mov	r4, r0
 3922 1a54 FFF7FEFF 		bl	getBatteryValuePercentage
 3923              	.LVL370:
 3924 1a58 2246     		mov	r2, r4
 3925 1a5a 0346     		mov	r3, r0
 3926 1a5c 8F49     		ldr	r1, .L702+16
 3927 1a5e 9048     		ldr	r0, .L702+20
 3928 1a60 FFF7FEFF 		bl	sprintf
 3929              	.LVL371:
 3930              	.L197:
 3931 1a64 8E48     		ldr	r0, .L702+20
 3932 1a66 FFF7FEFF 		bl	strlen
 3933              	.LVL372:
ARM GAS  C:\Users\mathi\AppData\Local\Temp\cc0ZaFXf.s 			page 70


 3934              		.loc 1 641 0
 3935 1a6a 099B     		ldr	r3, [sp, #36]
 3936 1a6c 0146     		mov	r1, r0
 3937              		.loc 1 642 0
 3938 1a6e 8C48     		ldr	r0, .L702+20
 3939              		.loc 1 641 0
 3940 1a70 002B     		cmp	r3, #0
 3941 1a72 00F06F81 		beq	.L198
 3942              		.loc 1 642 0
 3943 1a76 FFF7FEFF 		bl	e_send_uart1_char
 3944              	.LVL373:
 3945              	.L199:
 3946              		.loc 1 642 0 is_stmt 0 discriminator 2
 3947 1a7a FFF7FEFF 		bl	e_uart1_sending
 3948              	.LVL374:
 3949 1a7e 0028     		cmp	r0, #0
 3950 1a80 FBD1     		bne	.L199
 3951 1a82 FEF71EBB 		b	.L4
 3952              	.LVL375:
 3953              	.L674:
 3954              	.LBE5:
 3955              		.loc 1 414 0 is_stmt 1
 3956 1a86 874B     		ldr	r3, .L702+24
 3957 1a88 1878     		ldrb	r0, [r3]	@ zero_extendqisi2
 3958 1a8a FFF7FEFF 		bl	e_set_front_led
 3959              	.LVL376:
 3960 1a8e FEF74EBD 		b	.L135
 3961              	.LVL377:
 3962              	.L217:
 3963              	.LBB6:
 3964              		.loc 1 704 0
 3965 1a92 854B     		ldr	r3, .L702+28
 3966 1a94 93E80700 		ldm	r3, {r0, r1, r2}
 3967 1a98 814B     		ldr	r3, .L702+20
 3968 1a9a 03C3     		stmia	r3!, {r0, r1}
 3969 1a9c 1846     		mov	r0, r3
 3970              		.loc 1 709 0
 3971 1a9e 0921     		movs	r1, #9
 3972              		.loc 1 704 0
 3973 1aa0 20F80829 		strh	r2, [r0], #-8	@ movhi
 3974              		.loc 1 709 0
 3975 1aa4 FFF7FEFF 		bl	e_send_uart2_char
 3976              	.LVL378:
 3977              	.L220:
 3978              		.loc 1 709 0 is_stmt 0 discriminator 2
 3979 1aa8 FFF7FEFF 		bl	e_uart2_sending
 3980              	.LVL379:
 3981 1aac 0028     		cmp	r0, #0
 3982 1aae FBD1     		bne	.L220
 3983 1ab0 FEF7B4BB 		b	.L626
 3984              	.L332:
 3985              		.loc 1 1001 0 is_stmt 1
 3986 1ab4 7D4B     		ldr	r3, .L702+32
 3987 1ab6 93E80300 		ldm	r3, {r0, r1}
 3988 1aba 7D4B     		ldr	r3, .L702+36
 3989 1abc C8F80000 		str	r0, [r8]
 3990 1ac0 1980     		strh	r1, [r3]	@ movhi
ARM GAS  C:\Users\mathi\AppData\Local\Temp\cc0ZaFXf.s 			page 71


 3991              		.loc 1 1006 0
 3992 1ac2 181F     		subs	r0, r3, #4
 3993 1ac4 0521     		movs	r1, #5
 3994 1ac6 FFF7FEFF 		bl	e_send_uart2_char
 3995              	.LVL380:
 3996              	.L335:
 3997              		.loc 1 1006 0 is_stmt 0 discriminator 2
 3998 1aca FFF7FEFF 		bl	e_uart2_sending
 3999              	.LVL381:
 4000 1ace 0028     		cmp	r0, #0
 4001 1ad0 FBD1     		bne	.L335
 4002 1ad2 FEF7A3BB 		b	.L626
 4003              	.L286:
 4004              		.loc 1 831 0 is_stmt 1
 4005 1ad6 FFF7FEFF 		bl	e_send_uart2_char
 4006              	.LVL382:
 4007              	.L289:
 4008              		.loc 1 831 0 is_stmt 0 discriminator 2
 4009 1ada FFF7FEFF 		bl	e_uart2_sending
 4010              	.LVL383:
 4011 1ade 0028     		cmp	r0, #0
 4012 1ae0 FBD1     		bne	.L289
 4013              		.loc 1 834 0 is_stmt 1
 4014 1ae2 0121     		movs	r1, #1
 4015 1ae4 0820     		movs	r0, #8
 4016 1ae6 FFF7FEFF 		bl	e_set_led
 4017              	.LVL384:
 4018              		.loc 1 836 0
 4019 1aea 4FF4C870 		mov	r0, #400
 4020 1aee FFF7FEFF 		bl	chThdSleep
 4021              	.LVL385:
 4022              		.loc 1 837 0
 4023 1af2 FFF7FEFF 		bl	e_led_clear
 4024              	.LVL386:
 4025              		.loc 1 839 0
 4026 1af6 6420     		movs	r0, #100
 4027 1af8 FFF7FEFF 		bl	chThdSleep
 4028              	.LVL387:
 4029              		.loc 1 840 0
 4030 1afc FFF7FEFF 		bl	e_calibrate_ir
 4031              	.LVL388:
 4032              		.loc 1 844 0
 4033 1b00 1921     		movs	r1, #25
 4034 1b02 6C48     		ldr	r0, .L702+40
 4035 1b04 FFF7FEFF 		bl	e_send_uart2_char
 4036              	.LVL389:
 4037              	.L292:
 4038              		.loc 1 844 0 is_stmt 0 discriminator 2
 4039 1b08 FFF7FEFF 		bl	e_uart2_sending
 4040              	.LVL390:
 4041 1b0c 0028     		cmp	r0, #0
 4042 1b0e FBD1     		bne	.L292
 4043 1b10 FEF784BB 		b	.L626
 4044              	.LVL391:
 4045              	.L308:
 4046 1b14 1846     		mov	r0, r3
 4047              		.loc 1 924 0 is_stmt 1
ARM GAS  C:\Users\mathi\AppData\Local\Temp\cc0ZaFXf.s 			page 72


 4048 1b16 FFF7FEFF 		bl	e_get_ambient_light
 4049              	.LVL392:
 4050 1b1a 0F90     		str	r0, [sp, #60]
 4051 1b1c 0120     		movs	r0, #1
 4052 1b1e FFF7FEFF 		bl	e_get_ambient_light
 4053              	.LVL393:
 4054 1b22 0E90     		str	r0, [sp, #56]
 4055 1b24 0220     		movs	r0, #2
 4056 1b26 FFF7FEFF 		bl	e_get_ambient_light
 4057              	.LVL394:
 4058 1b2a 0A90     		str	r0, [sp, #40]
 4059 1b2c 0320     		movs	r0, #3
 4060 1b2e FFF7FEFF 		bl	e_get_ambient_light
 4061              	.LVL395:
 4062 1b32 0D90     		str	r0, [sp, #52]
 4063 1b34 0420     		movs	r0, #4
 4064 1b36 FFF7FEFF 		bl	e_get_ambient_light
 4065              	.LVL396:
 4066 1b3a 0B90     		str	r0, [sp, #44]
 4067 1b3c 0520     		movs	r0, #5
 4068 1b3e FFF7FEFF 		bl	e_get_ambient_light
 4069              	.LVL397:
 4070 1b42 0446     		mov	r4, r0
 4071 1b44 0620     		movs	r0, #6
 4072 1b46 FFF7FEFF 		bl	e_get_ambient_light
 4073              	.LVL398:
 4074 1b4a 0546     		mov	r5, r0
 4075 1b4c 0720     		movs	r0, #7
 4076 1b4e FFF7FEFF 		bl	e_get_ambient_light
 4077              	.LVL399:
 4078 1b52 0646     		mov	r6, r0
 4079 1b54 0820     		movs	r0, #8
 4080 1b56 FFF7FEFF 		bl	e_get_ambient_light
 4081              	.LVL400:
 4082 1b5a 0C90     		str	r0, [sp, #48]
 4083 1b5c 0920     		movs	r0, #9
 4084 1b5e FFF7FEFF 		bl	e_get_ambient_light
 4085              	.LVL401:
 4086 1b62 0A9B     		ldr	r3, [sp, #40]
 4087 1b64 0093     		str	r3, [sp]
 4088 1b66 0C9B     		ldr	r3, [sp, #48]
 4089 1b68 0D99     		ldr	r1, [sp, #52]
 4090 1b6a 0790     		str	r0, [sp, #28]
 4091 1b6c CDE90563 		strd	r6, r3, [sp, #20]
 4092 1b70 0B9B     		ldr	r3, [sp, #44]
 4093 1b72 0293     		str	r3, [sp, #8]
 4094 1b74 0191     		str	r1, [sp, #4]
 4095 1b76 DDE90E32 		ldrd	r3, r2, [sp, #56]
 4096 1b7a 4F49     		ldr	r1, .L702+44
 4097 1b7c 4848     		ldr	r0, .L702+20
 4098 1b7e CDE90345 		strd	r4, r5, [sp, #12]
 4099 1b82 FFF7FEFF 		bl	sprintf
 4100              	.LVL402:
 4101              		.loc 1 928 0
 4102 1b86 4648     		ldr	r0, .L702+20
 4103 1b88 FFF7FEFF 		bl	strlen
 4104              	.LVL403:
ARM GAS  C:\Users\mathi\AppData\Local\Temp\cc0ZaFXf.s 			page 73


 4105 1b8c 0146     		mov	r1, r0
 4106 1b8e 4448     		ldr	r0, .L702+20
 4107 1b90 FFF7FEFF 		bl	e_send_uart2_char
 4108              	.LVL404:
 4109              	.L310:
 4110              		.loc 1 928 0 is_stmt 0 discriminator 2
 4111 1b94 FFF7FEFF 		bl	e_uart2_sending
 4112              	.LVL405:
 4113 1b98 0028     		cmp	r0, #0
 4114 1b9a FBD1     		bne	.L310
 4115 1b9c FEF73EBB 		b	.L626
 4116              	.L339:
 4117              		.loc 1 1022 0 is_stmt 1
 4118 1ba0 FFF7FEFF 		bl	e_send_uart2_char
 4119              	.LVL406:
 4120              	.L342:
 4121              		.loc 1 1022 0 is_stmt 0 discriminator 2
 4122 1ba4 FFF7FEFF 		bl	e_uart2_sending
 4123              	.LVL407:
 4124 1ba8 0028     		cmp	r0, #0
 4125 1baa FBD1     		bne	.L342
 4126              		.loc 1 1024 0 is_stmt 1
 4127 1bac 434B     		ldr	r3, .L702+48
 4128 1bae 4449     		ldr	r1, .L702+52
 4129 1bb0 1A68     		ldr	r2, [r3]
 4130 1bb2 3B48     		ldr	r0, .L702+20
 4131 1bb4 FFF7FEFF 		bl	sprintf
 4132              	.LVL408:
 4133              		.loc 1 1028 0
 4134 1bb8 3948     		ldr	r0, .L702+20
 4135 1bba FFF7FEFF 		bl	strlen
 4136              	.LVL409:
 4137 1bbe 0146     		mov	r1, r0
 4138 1bc0 3748     		ldr	r0, .L702+20
 4139 1bc2 FFF7FEFF 		bl	e_send_uart2_char
 4140              	.LVL410:
 4141              	.L345:
 4142              		.loc 1 1028 0 is_stmt 0 discriminator 2
 4143 1bc6 FFF7FEFF 		bl	e_uart2_sending
 4144              	.LVL411:
 4145 1bca 0028     		cmp	r0, #0
 4146 1bcc FBD1     		bne	.L345
 4147 1bce FEF725BB 		b	.L626
 4148              	.L314:
 4149              		.loc 1 946 0 is_stmt 1
 4150 1bd2 FFF7FEFF 		bl	strlen
 4151              	.LVL412:
 4152 1bd6 0146     		mov	r1, r0
 4153 1bd8 3148     		ldr	r0, .L702+20
 4154 1bda FFF7FEFF 		bl	e_send_uart2_char
 4155              	.LVL413:
 4156              	.L316:
 4157              		.loc 1 946 0 is_stmt 0 discriminator 2
 4158 1bde FFF7FEFF 		bl	e_uart2_sending
 4159              	.LVL414:
 4160 1be2 0028     		cmp	r0, #0
 4161 1be4 FBD1     		bne	.L316
ARM GAS  C:\Users\mathi\AppData\Local\Temp\cc0ZaFXf.s 			page 74


 4162 1be6 FEF719BB 		b	.L626
 4163              	.L317:
 4164              		.loc 1 964 0 is_stmt 1
 4165 1bea FFF7FEFF 		bl	e_send_uart2_char
 4166              	.LVL415:
 4167              	.L319:
 4168              		.loc 1 964 0 is_stmt 0 discriminator 2
 4169 1bee FFF7FEFF 		bl	e_uart2_sending
 4170              	.LVL416:
 4171 1bf2 0028     		cmp	r0, #0
 4172 1bf4 FBD1     		bne	.L319
 4173 1bf6 FEF711BB 		b	.L626
 4174              	.L207:
 4175              		.loc 1 672 0 is_stmt 1
 4176 1bfa FFF7FEFF 		bl	e_send_uart2_char
 4177              	.LVL417:
 4178              	.L209:
 4179              		.loc 1 672 0 is_stmt 0 discriminator 2
 4180 1bfe FFF7FEFF 		bl	e_uart2_sending
 4181              	.LVL418:
 4182 1c02 0028     		cmp	r0, #0
 4183 1c04 FBD1     		bne	.L209
 4184 1c06 FEF709BB 		b	.L626
 4185              	.L210:
 4186              		.loc 1 680 0 is_stmt 1
 4187 1c0a FFF7FEFF 		bl	strlen
 4188              	.LVL419:
 4189 1c0e 0146     		mov	r1, r0
 4190 1c10 2348     		ldr	r0, .L702+20
 4191 1c12 FFF7FEFF 		bl	e_send_uart2_char
 4192              	.LVL420:
 4193              	.L212:
 4194              		.loc 1 680 0 is_stmt 0 discriminator 2
 4195 1c16 FFF7FEFF 		bl	e_uart2_sending
 4196              	.LVL421:
 4197 1c1a 0028     		cmp	r0, #0
 4198 1c1c FBD1     		bne	.L212
 4199 1c1e FEF7FDBA 		b	.L626
 4200              	.L293:
 4201              		.loc 1 853 0 is_stmt 1
 4202 1c22 FFF7FEFF 		bl	e_send_uart2_char
 4203              	.LVL422:
 4204              	.L295:
 4205              		.loc 1 853 0 is_stmt 0 discriminator 2
 4206 1c26 FFF7FEFF 		bl	e_uart2_sending
 4207              	.LVL423:
 4208 1c2a 0028     		cmp	r0, #0
 4209 1c2c FBD1     		bne	.L295
 4210 1c2e FEF7F5BA 		b	.L626
 4211              	.L311:
 4212              		.loc 1 938 0 is_stmt 1
 4213 1c32 FFF7FEFF 		bl	e_send_uart2_char
 4214              	.LVL424:
 4215              	.L313:
 4216              		.loc 1 938 0 is_stmt 0 discriminator 2
 4217 1c36 FFF7FEFF 		bl	e_uart2_sending
 4218              	.LVL425:
ARM GAS  C:\Users\mathi\AppData\Local\Temp\cc0ZaFXf.s 			page 75


 4219 1c3a 0028     		cmp	r0, #0
 4220 1c3c FBD1     		bne	.L313
 4221 1c3e FEF7EDBA 		b	.L626
 4222              	.L336:
 4223              		.loc 1 1015 0 is_stmt 1
 4224 1c42 FFF7FEFF 		bl	strlen
 4225              	.LVL426:
 4226 1c46 0146     		mov	r1, r0
 4227 1c48 1548     		ldr	r0, .L702+20
 4228 1c4a FFF7FEFF 		bl	e_send_uart2_char
 4229              	.LVL427:
 4230              	.L338:
 4231              		.loc 1 1015 0 is_stmt 0 discriminator 2
 4232 1c4e FFF7FEFF 		bl	e_uart2_sending
 4233              	.LVL428:
 4234 1c52 0028     		cmp	r0, #0
 4235 1c54 FBD1     		bne	.L338
 4236 1c56 FEF7E1BA 		b	.L626
 4237              	.L191:
 4238              		.loc 1 623 0 is_stmt 1
 4239 1c5a FFF7FEFF 		bl	isEpuckVersion1_3
 4240              	.LVL429:
 4241 1c5e 0028     		cmp	r0, #0
 4242 1c60 00F05281 		beq	.L193
 4243              		.loc 1 624 0
 4244 1c64 174B     		ldr	r3, .L702+56
 4245 1c66 93E80700 		ldm	r3, {r0, r1, r2}
 4246 1c6a 0D4B     		ldr	r3, .L702+20
 4247 1c6c 03C3     		stmia	r3!, {r0, r1}
 4248 1c6e 1A80     		strh	r2, [r3]	@ movhi
 4249              	.L194:
 4250              		.loc 1 632 0
 4251 1c70 0B48     		ldr	r0, .L702+20
 4252 1c72 FFF7FEFF 		bl	strlen
 4253              	.LVL430:
 4254 1c76 0146     		mov	r1, r0
 4255 1c78 0948     		ldr	r0, .L702+20
 4256 1c7a FFF7FEFF 		bl	e_send_uart2_char
 4257              	.LVL431:
 4258              	.L195:
 4259              		.loc 1 632 0 is_stmt 0 discriminator 2
 4260 1c7e FFF7FEFF 		bl	e_uart2_sending
 4261              	.LVL432:
 4262 1c82 0028     		cmp	r0, #0
 4263 1c84 FBD1     		bne	.L195
 4264 1c86 FEF7C9BA 		b	.L626
 4265              	.L703:
 4266 1c8a 00BF     		.align	2
 4267              	.L702:
 4268 1c8c 00000000 		.word	.LANCHOR18
 4269 1c90 00000000 		.word	.LANCHOR19
 4270 1c94 00000000 		.word	.LANCHOR20
 4271 1c98 00000000 		.word	.LANCHOR21
 4272 1c9c 78000000 		.word	.LC3
 4273 1ca0 00000000 		.word	buffer
 4274 1ca4 00000000 		.word	.LANCHOR17
 4275 1ca8 6C0A0000 		.word	.LC92
ARM GAS  C:\Users\mathi\AppData\Local\Temp\cc0ZaFXf.s 			page 76


 4276 1cac 780A0000 		.word	.LC93
 4277 1cb0 04000000 		.word	buffer+4
 4278 1cb4 3C0A0000 		.word	.LC90
 4279 1cb8 58090000 		.word	.LC73
 4280 1cbc 00000000 		.word	.LANCHOR1
 4281 1cc0 580A0000 		.word	.LC91
 4282 1cc4 6C000000 		.word	.LC2
 4283              	.L305:
 4284 1cc8 1846     		mov	r0, r3
 4285              		.loc 1 910 0 is_stmt 1
 4286 1cca FFF7FEFF 		bl	e_get_calibrated_prox
 4287              	.LVL433:
 4288 1cce 0F90     		str	r0, [sp, #60]
 4289 1cd0 0120     		movs	r0, #1
 4290 1cd2 FFF7FEFF 		bl	e_get_calibrated_prox
 4291              	.LVL434:
 4292 1cd6 0E90     		str	r0, [sp, #56]
 4293 1cd8 0220     		movs	r0, #2
 4294 1cda FFF7FEFF 		bl	e_get_calibrated_prox
 4295              	.LVL435:
 4296 1cde 0A90     		str	r0, [sp, #40]
 4297 1ce0 0320     		movs	r0, #3
 4298 1ce2 FFF7FEFF 		bl	e_get_calibrated_prox
 4299              	.LVL436:
 4300 1ce6 0D90     		str	r0, [sp, #52]
 4301 1ce8 0420     		movs	r0, #4
 4302 1cea FFF7FEFF 		bl	e_get_calibrated_prox
 4303              	.LVL437:
 4304 1cee 0B90     		str	r0, [sp, #44]
 4305 1cf0 0520     		movs	r0, #5
 4306 1cf2 FFF7FEFF 		bl	e_get_calibrated_prox
 4307              	.LVL438:
 4308 1cf6 0446     		mov	r4, r0
 4309 1cf8 0620     		movs	r0, #6
 4310 1cfa FFF7FEFF 		bl	e_get_calibrated_prox
 4311              	.LVL439:
 4312 1cfe 0546     		mov	r5, r0
 4313 1d00 0720     		movs	r0, #7
 4314 1d02 FFF7FEFF 		bl	e_get_calibrated_prox
 4315              	.LVL440:
 4316 1d06 0646     		mov	r6, r0
 4317 1d08 0820     		movs	r0, #8
 4318 1d0a FFF7FEFF 		bl	e_get_calibrated_prox
 4319              	.LVL441:
 4320 1d0e 0C90     		str	r0, [sp, #48]
 4321 1d10 0920     		movs	r0, #9
 4322 1d12 FFF7FEFF 		bl	e_get_calibrated_prox
 4323              	.LVL442:
 4324 1d16 0A9B     		ldr	r3, [sp, #40]
 4325 1d18 0093     		str	r3, [sp]
 4326 1d1a 0C9B     		ldr	r3, [sp, #48]
 4327 1d1c 0D99     		ldr	r1, [sp, #52]
 4328 1d1e 0790     		str	r0, [sp, #28]
 4329 1d20 CDE90563 		strd	r6, r3, [sp, #20]
 4330 1d24 0B9B     		ldr	r3, [sp, #44]
 4331 1d26 0293     		str	r3, [sp, #8]
 4332 1d28 0191     		str	r1, [sp, #4]
ARM GAS  C:\Users\mathi\AppData\Local\Temp\cc0ZaFXf.s 			page 77


 4333 1d2a DDE90E32 		ldrd	r3, r2, [sp, #56]
 4334 1d2e B249     		ldr	r1, .L704
 4335 1d30 B248     		ldr	r0, .L704+4
 4336 1d32 CDE90345 		strd	r4, r5, [sp, #12]
 4337 1d36 FFF7FEFF 		bl	sprintf
 4338              	.LVL443:
 4339              		.loc 1 914 0
 4340 1d3a B048     		ldr	r0, .L704+4
 4341 1d3c FFF7FEFF 		bl	strlen
 4342              	.LVL444:
 4343 1d40 0146     		mov	r1, r0
 4344 1d42 AE48     		ldr	r0, .L704+4
 4345 1d44 FFF7FEFF 		bl	e_send_uart2_char
 4346              	.LVL445:
 4347              	.L307:
 4348              		.loc 1 914 0 is_stmt 0 discriminator 2
 4349 1d48 FFF7FEFF 		bl	e_uart2_sending
 4350              	.LVL446:
 4351 1d4c 0028     		cmp	r0, #0
 4352 1d4e FBD1     		bne	.L307
 4353 1d50 FEF764BA 		b	.L626
 4354              	.L198:
 4355              		.loc 1 644 0 is_stmt 1
 4356 1d54 FFF7FEFF 		bl	e_send_uart2_char
 4357              	.LVL447:
 4358              	.L200:
 4359              		.loc 1 644 0 is_stmt 0 discriminator 2
 4360 1d58 FFF7FEFF 		bl	e_uart2_sending
 4361              	.LVL448:
 4362 1d5c 0028     		cmp	r0, #0
 4363 1d5e FBD1     		bne	.L200
 4364 1d60 FEF75CBA 		b	.L626
 4365              	.L196:
 4366              		.loc 1 639 0 is_stmt 1
 4367 1d64 0246     		mov	r2, r0
 4368 1d66 A649     		ldr	r1, .L704+8
 4369 1d68 A448     		ldr	r0, .L704+4
 4370 1d6a FFF7FEFF 		bl	sprintf
 4371              	.LVL449:
 4372 1d6e 79E6     		b	.L197
 4373              	.L320:
 4374              		.loc 1 993 0
 4375 1d70 0321     		movs	r1, #3
 4376 1d72 A448     		ldr	r0, .L704+12
 4377 1d74 FFF7FEFF 		bl	e_send_uart2_char
 4378              	.LVL450:
 4379              	.L331:
 4380              		.loc 1 993 0 is_stmt 0 discriminator 2
 4381 1d78 FFF7FEFF 		bl	e_uart2_sending
 4382              	.LVL451:
 4383 1d7c 0028     		cmp	r0, #0
 4384 1d7e FBD1     		bne	.L331
 4385 1d80 FEF74CBA 		b	.L626
 4386              	.L352:
 4387              		.loc 1 1074 0 is_stmt 1
 4388 1d84 FFF7FEFF 		bl	e_send_uart2_char
 4389              	.LVL452:
ARM GAS  C:\Users\mathi\AppData\Local\Temp\cc0ZaFXf.s 			page 78


 4390              	.L354:
 4391              		.loc 1 1074 0 is_stmt 0 discriminator 2
 4392 1d88 FFF7FEFF 		bl	e_uart2_sending
 4393              	.LVL453:
 4394 1d8c 0028     		cmp	r0, #0
 4395 1d8e FBD1     		bne	.L354
 4396 1d90 FEF744BA 		b	.L626
 4397              	.L201:
 4398              		.loc 1 653 0 is_stmt 1
 4399 1d94 0321     		movs	r1, #3
 4400 1d96 9C48     		ldr	r0, .L704+16
 4401 1d98 FFF7FEFF 		bl	e_send_uart2_char
 4402              	.LVL454:
 4403              	.L203:
 4404              		.loc 1 653 0 is_stmt 0 discriminator 2
 4405 1d9c FFF7FEFF 		bl	e_uart2_sending
 4406              	.LVL455:
 4407 1da0 0028     		cmp	r0, #0
 4408 1da2 FBD1     		bne	.L203
 4409 1da4 FEF73ABA 		b	.L626
 4410              	.L221:
 4411              		.loc 1 756 0 is_stmt 1
 4412 1da8 FFF7FEFF 		bl	e_send_uart2_char
 4413              	.LVL456:
 4414              	.L255:
 4415              		.loc 1 756 0 is_stmt 0 discriminator 2
 4416 1dac FFF7FEFF 		bl	e_uart2_sending
 4417              	.LVL457:
 4418 1db0 0028     		cmp	r0, #0
 4419 1db2 FBD1     		bne	.L255
 4420              		.loc 1 757 0 is_stmt 1
 4421 1db4 FFF7FEFF 		bl	isEpuckVersion1_3
 4422              	.LVL458:
 4423 1db8 0028     		cmp	r0, #0
 4424 1dba 00F0EE80 		beq	.L685
 4425              	.L256:
 4426              		.loc 1 760 0
 4427 1dbe FFF7FEFF 		bl	isEpuckVersion1_3
 4428              	.LVL459:
 4429 1dc2 0028     		cmp	r0, #0
 4430 1dc4 00F0B580 		beq	.L258
 4431              		.loc 1 761 0
 4432 1dc8 1921     		movs	r1, #25
 4433 1dca 9048     		ldr	r0, .L704+20
 4434 1dcc FFF7FEFF 		bl	e_send_uart2_char
 4435              	.LVL460:
 4436              	.L259:
 4437              		.loc 1 761 0 is_stmt 0 discriminator 2
 4438 1dd0 FFF7FEFF 		bl	e_uart2_sending
 4439              	.LVL461:
 4440 1dd4 0028     		cmp	r0, #0
 4441 1dd6 FBD1     		bne	.L259
 4442              	.L260:
 4443              		.loc 1 766 0 is_stmt 1
 4444 1dd8 1D21     		movs	r1, #29
 4445 1dda 8D48     		ldr	r0, .L704+24
 4446 1ddc FFF7FEFF 		bl	e_send_uart2_char
ARM GAS  C:\Users\mathi\AppData\Local\Temp\cc0ZaFXf.s 			page 79


 4447              	.LVL462:
 4448              	.L262:
 4449              		.loc 1 766 0 is_stmt 0 discriminator 2
 4450 1de0 FFF7FEFF 		bl	e_uart2_sending
 4451              	.LVL463:
 4452 1de4 0028     		cmp	r0, #0
 4453 1de6 FBD1     		bne	.L262
 4454              		.loc 1 767 0 is_stmt 1
 4455 1de8 2621     		movs	r1, #38
 4456 1dea 8A48     		ldr	r0, .L704+28
 4457 1dec FFF7FEFF 		bl	e_send_uart2_char
 4458              	.LVL464:
 4459              	.L263:
 4460              		.loc 1 767 0 is_stmt 0 discriminator 2
 4461 1df0 FFF7FEFF 		bl	e_uart2_sending
 4462              	.LVL465:
 4463 1df4 0028     		cmp	r0, #0
 4464 1df6 FBD1     		bne	.L263
 4465              		.loc 1 768 0 is_stmt 1
 4466 1df8 2621     		movs	r1, #38
 4467 1dfa 8748     		ldr	r0, .L704+32
 4468 1dfc FFF7FEFF 		bl	e_send_uart2_char
 4469              	.LVL466:
 4470              	.L264:
 4471              		.loc 1 768 0 is_stmt 0 discriminator 2
 4472 1e00 FFF7FEFF 		bl	e_uart2_sending
 4473              	.LVL467:
 4474 1e04 0028     		cmp	r0, #0
 4475 1e06 FBD1     		bne	.L264
 4476              		.loc 1 771 0 is_stmt 1
 4477 1e08 1721     		movs	r1, #23
 4478 1e0a 8448     		ldr	r0, .L704+36
 4479 1e0c FFF7FEFF 		bl	e_send_uart2_char
 4480              	.LVL468:
 4481              	.L265:
 4482              		.loc 1 771 0 is_stmt 0 discriminator 2
 4483 1e10 FFF7FEFF 		bl	e_uart2_sending
 4484              	.LVL469:
 4485 1e14 0028     		cmp	r0, #0
 4486 1e16 FBD1     		bne	.L265
 4487              		.loc 1 773 0 is_stmt 1
 4488 1e18 1021     		movs	r1, #16
 4489 1e1a 8148     		ldr	r0, .L704+40
 4490 1e1c FFF7FEFF 		bl	e_send_uart2_char
 4491              	.LVL470:
 4492              	.L266:
 4493              		.loc 1 773 0 is_stmt 0 discriminator 2
 4494 1e20 FFF7FEFF 		bl	e_uart2_sending
 4495              	.LVL471:
 4496 1e24 0028     		cmp	r0, #0
 4497 1e26 FBD1     		bne	.L266
 4498              		.loc 1 776 0 is_stmt 1
 4499 1e28 2721     		movs	r1, #39
 4500 1e2a 7E48     		ldr	r0, .L704+44
 4501 1e2c FFF7FEFF 		bl	e_send_uart2_char
 4502              	.LVL472:
 4503              	.L267:
ARM GAS  C:\Users\mathi\AppData\Local\Temp\cc0ZaFXf.s 			page 80


 4504              		.loc 1 776 0 is_stmt 0 discriminator 2
 4505 1e30 FFF7FEFF 		bl	e_uart2_sending
 4506              	.LVL473:
 4507 1e34 0028     		cmp	r0, #0
 4508 1e36 FBD1     		bne	.L267
 4509              		.loc 1 777 0 is_stmt 1
 4510 1e38 2B21     		movs	r1, #43
 4511 1e3a 7B48     		ldr	r0, .L704+48
 4512 1e3c FFF7FEFF 		bl	e_send_uart2_char
 4513              	.LVL474:
 4514              	.L268:
 4515              		.loc 1 777 0 is_stmt 0 discriminator 2
 4516 1e40 FFF7FEFF 		bl	e_uart2_sending
 4517              	.LVL475:
 4518 1e44 0028     		cmp	r0, #0
 4519 1e46 FBD1     		bne	.L268
 4520              		.loc 1 779 0 is_stmt 1
 4521 1e48 1921     		movs	r1, #25
 4522 1e4a 7848     		ldr	r0, .L704+52
 4523 1e4c FFF7FEFF 		bl	e_send_uart2_char
 4524              	.LVL476:
 4525              	.L269:
 4526              		.loc 1 779 0 is_stmt 0 discriminator 2
 4527 1e50 FFF7FEFF 		bl	e_uart2_sending
 4528              	.LVL477:
 4529 1e54 0028     		cmp	r0, #0
 4530 1e56 FBD1     		bne	.L269
 4531              		.loc 1 781 0 is_stmt 1
 4532 1e58 1521     		movs	r1, #21
 4533 1e5a 7548     		ldr	r0, .L704+56
 4534 1e5c FFF7FEFF 		bl	e_send_uart2_char
 4535              	.LVL478:
 4536              	.L270:
 4537              		.loc 1 781 0 is_stmt 0 discriminator 2
 4538 1e60 FFF7FEFF 		bl	e_uart2_sending
 4539              	.LVL479:
 4540 1e64 0028     		cmp	r0, #0
 4541 1e66 FBD1     		bne	.L270
 4542              		.loc 1 782 0 is_stmt 1
 4543 1e68 1921     		movs	r1, #25
 4544 1e6a 7248     		ldr	r0, .L704+60
 4545 1e6c FFF7FEFF 		bl	e_send_uart2_char
 4546              	.LVL480:
 4547              	.L271:
 4548              		.loc 1 782 0 is_stmt 0 discriminator 2
 4549 1e70 FFF7FEFF 		bl	e_uart2_sending
 4550              	.LVL481:
 4551 1e74 0028     		cmp	r0, #0
 4552 1e76 FBD1     		bne	.L271
 4553              		.loc 1 783 0 is_stmt 1
 4554 1e78 2921     		movs	r1, #41
 4555 1e7a 6F48     		ldr	r0, .L704+64
 4556 1e7c FFF7FEFF 		bl	e_send_uart2_char
 4557              	.LVL482:
 4558              	.L272:
 4559              		.loc 1 783 0 is_stmt 0 discriminator 2
 4560 1e80 FFF7FEFF 		bl	e_uart2_sending
ARM GAS  C:\Users\mathi\AppData\Local\Temp\cc0ZaFXf.s 			page 81


 4561              	.LVL483:
 4562 1e84 0028     		cmp	r0, #0
 4563 1e86 FBD1     		bne	.L272
 4564              		.loc 1 784 0 is_stmt 1
 4565 1e88 2921     		movs	r1, #41
 4566 1e8a 6C48     		ldr	r0, .L704+68
 4567 1e8c FFF7FEFF 		bl	e_send_uart2_char
 4568              	.LVL484:
 4569              	.L273:
 4570              		.loc 1 784 0 is_stmt 0 discriminator 2
 4571 1e90 FFF7FEFF 		bl	e_uart2_sending
 4572              	.LVL485:
 4573 1e94 0028     		cmp	r0, #0
 4574 1e96 FBD1     		bne	.L273
 4575              		.loc 1 785 0 is_stmt 1
 4576 1e98 1821     		movs	r1, #24
 4577 1e9a 6948     		ldr	r0, .L704+72
 4578 1e9c FFF7FEFF 		bl	e_send_uart2_char
 4579              	.LVL486:
 4580              	.L274:
 4581              		.loc 1 785 0 is_stmt 0 discriminator 2
 4582 1ea0 FFF7FEFF 		bl	e_uart2_sending
 4583              	.LVL487:
 4584 1ea4 0028     		cmp	r0, #0
 4585 1ea6 FBD1     		bne	.L274
 4586              		.loc 1 786 0 is_stmt 1
 4587 1ea8 2921     		movs	r1, #41
 4588 1eaa 6648     		ldr	r0, .L704+76
 4589 1eac FFF7FEFF 		bl	e_send_uart2_char
 4590              	.LVL488:
 4591              	.L275:
 4592              		.loc 1 786 0 is_stmt 0 discriminator 2
 4593 1eb0 FFF7FEFF 		bl	e_uart2_sending
 4594              	.LVL489:
 4595 1eb4 0028     		cmp	r0, #0
 4596 1eb6 FBD1     		bne	.L275
 4597              		.loc 1 788 0 is_stmt 1
 4598 1eb8 2421     		movs	r1, #36
 4599 1eba 6348     		ldr	r0, .L704+80
 4600 1ebc FFF7FEFF 		bl	e_send_uart2_char
 4601              	.LVL490:
 4602              	.L276:
 4603              		.loc 1 788 0 is_stmt 0 discriminator 2
 4604 1ec0 FFF7FEFF 		bl	e_uart2_sending
 4605              	.LVL491:
 4606 1ec4 0028     		cmp	r0, #0
 4607 1ec6 FBD1     		bne	.L276
 4608              		.loc 1 789 0 is_stmt 1
 4609 1ec8 1D21     		movs	r1, #29
 4610 1eca 6048     		ldr	r0, .L704+84
 4611 1ecc FFF7FEFF 		bl	e_send_uart2_char
 4612              	.LVL492:
 4613              	.L277:
 4614              		.loc 1 789 0 is_stmt 0 discriminator 2
 4615 1ed0 FFF7FEFF 		bl	e_uart2_sending
 4616              	.LVL493:
 4617 1ed4 0028     		cmp	r0, #0
ARM GAS  C:\Users\mathi\AppData\Local\Temp\cc0ZaFXf.s 			page 82


 4618 1ed6 FBD1     		bne	.L277
 4619 1ed8 FEF7A0B9 		b	.L626
 4620              	.L204:
 4621              		.loc 1 662 0 is_stmt 1
 4622 1edc FFF7FEFF 		bl	strlen
 4623              	.LVL494:
 4624 1ee0 0146     		mov	r1, r0
 4625 1ee2 4648     		ldr	r0, .L704+4
 4626 1ee4 FFF7FEFF 		bl	e_send_uart2_char
 4627              	.LVL495:
 4628              	.L206:
 4629              		.loc 1 662 0 is_stmt 0 discriminator 2
 4630 1ee8 FFF7FEFF 		bl	e_uart2_sending
 4631              	.LVL496:
 4632 1eec 0028     		cmp	r0, #0
 4633 1eee FBD1     		bne	.L206
 4634 1ef0 FEF794B9 		b	.L626
 4635              	.L213:
 4636              		.loc 1 689 0 is_stmt 1
 4637 1ef4 0321     		movs	r1, #3
 4638 1ef6 5648     		ldr	r0, .L704+88
 4639 1ef8 FFF7FEFF 		bl	e_send_uart2_char
 4640              	.LVL497:
 4641              	.L215:
 4642              		.loc 1 689 0 is_stmt 0 discriminator 2
 4643 1efc FFF7FEFF 		bl	e_uart2_sending
 4644              	.LVL498:
 4645 1f00 0028     		cmp	r0, #0
 4646 1f02 FBD1     		bne	.L215
 4647 1f04 FEF78AB9 		b	.L626
 4648              	.L193:
 4649              		.loc 1 626 0 is_stmt 1
 4650 1f08 0121     		movs	r1, #1
 4651 1f0a FFF7FEFF 		bl	e_get_acc_filtered
 4652              	.LVL499:
 4653 1f0e 0121     		movs	r1, #1
 4654 1f10 0446     		mov	r4, r0
 4655 1f12 0846     		mov	r0, r1
 4656 1f14 FFF7FEFF 		bl	e_get_acc_filtered
 4657              	.LVL500:
 4658 1f18 0121     		movs	r1, #1
 4659 1f1a 0546     		mov	r5, r0
 4660 1f1c 0220     		movs	r0, #2
 4661 1f1e FFF7FEFF 		bl	e_get_acc_filtered
 4662              	.LVL501:
 4663 1f22 2B46     		mov	r3, r5
 4664 1f24 0090     		str	r0, [sp]
 4665 1f26 2246     		mov	r2, r4
 4666 1f28 4A49     		ldr	r1, .L704+92
 4667 1f2a 3448     		ldr	r0, .L704+4
 4668 1f2c FFF7FEFF 		bl	sprintf
 4669              	.LVL502:
 4670 1f30 9EE6     		b	.L194
 4671              	.L258:
 4672              		.loc 1 763 0
 4673 1f32 2721     		movs	r1, #39
 4674 1f34 4848     		ldr	r0, .L704+96
ARM GAS  C:\Users\mathi\AppData\Local\Temp\cc0ZaFXf.s 			page 83


 4675 1f36 FFF7FEFF 		bl	e_send_uart2_char
 4676              	.LVL503:
 4677              	.L261:
 4678              		.loc 1 763 0 is_stmt 0 discriminator 2
 4679 1f3a FFF7FEFF 		bl	e_uart2_sending
 4680              	.LVL504:
 4681 1f3e 0028     		cmp	r0, #0
 4682 1f40 FBD1     		bne	.L261
 4683 1f42 49E7     		b	.L260
 4684              	.L225:
 4685              		.loc 1 721 0 is_stmt 1
 4686 1f44 2F21     		movs	r1, #47
 4687 1f46 4548     		ldr	r0, .L704+100
 4688 1f48 FFF7FEFF 		bl	e_send_uart1_char
 4689              	.LVL505:
 4690              	.L228:
 4691              		.loc 1 721 0 is_stmt 0 discriminator 2
 4692 1f4c FFF7FEFF 		bl	e_uart1_sending
 4693              	.LVL506:
 4694 1f50 0028     		cmp	r0, #0
 4695 1f52 FBD1     		bne	.L228
 4696 1f54 FFF795BA 		b	.L227
 4697              	.L682:
 4698              		.loc 1 971 0 is_stmt 1
 4699 1f58 FFF7FEFF 		bl	e_init_sound
 4700              	.LVL507:
 4701              		.loc 1 972 0
 4702 1f5c 404A     		ldr	r2, .L704+104
 4703 1f5e 0123     		movs	r3, #1
 4704 1f60 1370     		strb	r3, [r2]
 4705 1f62 FEF7BEBF 		b	.L321
 4706              	.L667:
 4707              		.loc 1 702 0
 4708 1f66 FFF7FEFF 		bl	getXAxisGyro
 4709              	.LVL508:
 4710 1f6a 0446     		mov	r4, r0
 4711 1f6c FFF7FEFF 		bl	getYAxisGyro
 4712              	.LVL509:
 4713 1f70 0546     		mov	r5, r0
 4714 1f72 FFF7FEFF 		bl	getZAxisGyro
 4715              	.LVL510:
 4716 1f76 2B46     		mov	r3, r5
 4717 1f78 0090     		str	r0, [sp]
 4718 1f7a 2246     		mov	r2, r4
 4719 1f7c 3949     		ldr	r1, .L704+108
 4720 1f7e 1F48     		ldr	r0, .L704+4
 4721 1f80 FFF7FEFF 		bl	sprintf
 4722              	.LVL511:
 4723 1f84 FEF73BB9 		b	.L357
 4724              	.L681:
 4725              		.loc 1 999 0
 4726 1f88 FFF7FEFF 		bl	getTemperature
 4727              	.LVL512:
 4728 1f8c 3649     		ldr	r1, .L704+112
 4729 1f8e 0246     		mov	r2, r0
 4730 1f90 1A48     		ldr	r0, .L704+4
 4731 1f92 FFF7FEFF 		bl	sprintf
ARM GAS  C:\Users\mathi\AppData\Local\Temp\cc0ZaFXf.s 			page 84


 4732              	.LVL513:
 4733 1f96 FEF7A1BE 		b	.L358
 4734              	.L685:
 4735              		.loc 1 758 0
 4736 1f9a 1921     		movs	r1, #25
 4737 1f9c 3348     		ldr	r0, .L704+116
 4738 1f9e FFF7FEFF 		bl	e_send_uart2_char
 4739              	.LVL514:
 4740              	.L257:
 4741              		.loc 1 758 0 is_stmt 0 discriminator 2
 4742 1fa2 FFF7FEFF 		bl	e_uart2_sending
 4743              	.LVL515:
 4744 1fa6 0028     		cmp	r0, #0
 4745 1fa8 FBD1     		bne	.L257
 4746 1faa 08E7     		b	.L256
 4747              	.L279:
 4748              		.loc 1 808 0 is_stmt 1
 4749 1fac 119B     		ldr	r3, [sp, #68]
 4750 1fae 1A68     		ldr	r2, [r3]
 4751 1fb0 129B     		ldr	r3, [sp, #72]
 4752 1fb2 1B68     		ldr	r3, [r3]
 4753 1fb4 03FB02F3 		mul	r3, r3, r2
 4754 1fb8 5B00     		lsls	r3, r3, #1
 4755 1fba FFF788BB 		b	.L280
 4756              	.L684:
 4757              		.loc 1 749 0
 4758 1fbe 1F21     		movs	r1, #31
 4759 1fc0 2B48     		ldr	r0, .L704+120
 4760 1fc2 FFF7FEFF 		bl	e_send_uart1_char
 4761              	.LVL516:
 4762              	.L250:
 4763              		.loc 1 749 0 is_stmt 0 discriminator 2
 4764 1fc6 FFF7FEFF 		bl	e_uart1_sending
 4765              	.LVL517:
 4766 1fca 0028     		cmp	r0, #0
 4767 1fcc FBD1     		bne	.L250
 4768 1fce FFF7F2BA 		b	.L249
 4769              	.L683:
 4770              		.loc 1 731 0 is_stmt 1
 4771 1fd2 1821     		movs	r1, #24
 4772 1fd4 2748     		ldr	r0, .L704+124
 4773 1fd6 FFF7FEFF 		bl	e_send_uart1_char
 4774              	.LVL518:
 4775              	.L235:
 4776              		.loc 1 731 0 is_stmt 0 discriminator 2
 4777 1fda FFF7FEFF 		bl	e_uart1_sending
 4778              	.LVL519:
 4779 1fde 0028     		cmp	r0, #0
 4780 1fe0 FBD1     		bne	.L235
 4781 1fe2 FFF77BBA 		b	.L234
 4782              	.L322:
 4783              		.loc 1 986 0 is_stmt 1
 4784 1fe6 FFF7FEFF 		bl	e_close_sound
 4785              	.LVL520:
 4786              		.loc 1 987 0
 4787 1fea FFF7FEFF 		bl	stopCurrentMelody
 4788              	.LVL521:
ARM GAS  C:\Users\mathi\AppData\Local\Temp\cc0ZaFXf.s 			page 85


 4789              		.loc 1 988 0
 4790 1fee 1C4A     		ldr	r2, .L704+104
 4791 1ff0 0023     		movs	r3, #0
 4792 1ff2 1370     		strb	r3, [r2]
 4793              		.loc 1 989 0
 4794 1ff4 FFF7DCBB 		b	.L329
 4795              	.L705:
 4796              		.align	2
 4797              	.L704:
 4798 1ff8 18090000 		.word	.LC71
 4799 1ffc 00000000 		.word	buffer
 4800 2000 88000000 		.word	.LC4
 4801 2004 A4090000 		.word	.LC79
 4802 2008 98000000 		.word	.LC6
 4803 200c FC050000 		.word	.LC45
 4804 2010 40060000 		.word	.LC47
 4805 2014 60060000 		.word	.LC48
 4806 2018 88060000 		.word	.LC49
 4807 201c B0060000 		.word	.LC50
 4808 2020 C8060000 		.word	.LC51
 4809 2024 DC060000 		.word	.LC52
 4810 2028 04070000 		.word	.LC53
 4811 202c 30070000 		.word	.LC54
 4812 2030 4C070000 		.word	.LC55
 4813 2034 64070000 		.word	.LC56
 4814 2038 80070000 		.word	.LC57
 4815 203c AC070000 		.word	.LC58
 4816 2040 D8070000 		.word	.LC59
 4817 2044 F4070000 		.word	.LC60
 4818 2048 20080000 		.word	.LC61
 4819 204c 48080000 		.word	.LC62
 4820 2050 C8000000 		.word	.LC12
 4821 2054 5C000000 		.word	.LC1
 4822 2058 18060000 		.word	.LC46
 4823 205c 90010000 		.word	.LC19
 4824 2060 00000000 		.word	.LANCHOR9
 4825 2064 00010000 		.word	.LC14
 4826 2068 A8090000 		.word	.LC80
 4827 206c E0050000 		.word	.LC44
 4828 2070 10050000 		.word	.LC39
 4829 2074 9C020000 		.word	.LC25
 4830              	.LBE6:
 4831              		.cfi_endproc
 4832              	.LFE259:
 4833              		.size	run_asercom, .-run_asercom
 4834              		.global	e_ambient_and_reflected_ir
 4835              		.global	e_ambient_ir
 4836              		.global	c
 4837              		.global	selector
 4838              		.global	buffer
 4839              		.section	.bss.LED_action.12673,"aw",%nobits
 4840              		.align	2
 4841              		.set	.LANCHOR28,. + 0
 4842              		.type	LED_action.12673, %object
 4843              		.size	LED_action.12673, 4
 4844              	LED_action.12673:
 4845 0000 00000000 		.space	4
ARM GAS  C:\Users\mathi\AppData\Local\Temp\cc0ZaFXf.s 			page 86


 4846              		.section	.bss.LED_nbr.12672,"aw",%nobits
 4847              		.align	2
 4848              		.set	.LANCHOR31,. + 0
 4849              		.type	LED_nbr.12672, %object
 4850              		.size	LED_nbr.12672, 4
 4851              	LED_nbr.12672:
 4852 0000 00000000 		.space	4
 4853              		.section	.bss.accelero.12696,"aw",%nobits
 4854              		.align	2
 4855              		.set	.LANCHOR15,. + 0
 4856              		.type	accelero.12696, %object
 4857              		.size	accelero.12696, 12
 4858              	accelero.12696:
 4859 0000 00000000 		.space	12
 4859      00000000 
 4859      00000000 
 4860              		.section	.bss.accx.12674,"aw",%nobits
 4861              		.align	2
 4862              		.set	.LANCHOR12,. + 0
 4863              		.type	accx.12674, %object
 4864              		.size	accx.12674, 4
 4865              	accx.12674:
 4866 0000 00000000 		.space	4
 4867              		.section	.bss.accy.12675,"aw",%nobits
 4868              		.align	2
 4869              		.set	.LANCHOR13,. + 0
 4870              		.type	accy.12675, %object
 4871              		.size	accy.12675, 4
 4872              	accy.12675:
 4873 0000 00000000 		.space	4
 4874              		.section	.bss.accz.12676,"aw",%nobits
 4875              		.align	2
 4876              		.set	.LANCHOR14,. + 0
 4877              		.type	accz.12676, %object
 4878              		.size	accz.12676, 4
 4879              	accz.12676:
 4880 0000 00000000 		.space	4
 4881              		.section	.bss.buffer,"aw",%nobits
 4882              		.align	2
 4883              		.type	buffer, %object
 4884              		.size	buffer, 4139
 4885              	buffer:
 4886 0000 00000000 		.space	4139
 4886      00000000 
 4886      00000000 
 4886      00000000 
 4886      00000000 
 4887              		.section	.bss.c,"aw",%nobits
 4888              		.set	.LANCHOR10,. + 0
 4889              		.type	c, %object
 4890              		.size	c, 1
 4891              	c:
 4892 0000 00       		.space	1
 4893              		.section	.bss.c1.12662,"aw",%nobits
 4894              		.set	.LANCHOR16,. + 0
 4895              		.type	c1.12662, %object
 4896              		.size	c1.12662, 1
ARM GAS  C:\Users\mathi\AppData\Local\Temp\cc0ZaFXf.s 			page 87


 4897              	c1.12662:
 4898 0000 00       		.space	1
 4899              		.section	.bss.c2.12663,"aw",%nobits
 4900              		.set	.LANCHOR17,. + 0
 4901              		.type	c2.12663, %object
 4902              		.size	c2.12663, 1
 4903              	c2.12663:
 4904 0000 00       		.space	1
 4905              		.section	.bss.cam_heigth.12683,"aw",%nobits
 4906              		.align	2
 4907              		.set	.LANCHOR4,. + 0
 4908              		.type	cam_heigth.12683, %object
 4909              		.size	cam_heigth.12683, 4
 4910              	cam_heigth.12683:
 4911 0000 00000000 		.space	4
 4912              		.section	.bss.cam_mode.12681,"aw",%nobits
 4913              		.align	2
 4914              		.set	.LANCHOR2,. + 0
 4915              		.type	cam_mode.12681, %object
 4916              		.size	cam_mode.12681, 4
 4917              	cam_mode.12681:
 4918 0000 00000000 		.space	4
 4919              		.section	.bss.cam_size.12685,"aw",%nobits
 4920              		.align	2
 4921              		.set	.LANCHOR6,. + 0
 4922              		.type	cam_size.12685, %object
 4923              		.size	cam_size.12685, 4
 4924              	cam_size.12685:
 4925 0000 00000000 		.space	4
 4926              		.section	.bss.cam_width.12682,"aw",%nobits
 4927              		.align	2
 4928              		.set	.LANCHOR3,. + 0
 4929              		.type	cam_width.12682, %object
 4930              		.size	cam_width.12682, 4
 4931              	cam_width.12682:
 4932 0000 00000000 		.space	4
 4933              		.section	.bss.cam_x1.12686,"aw",%nobits
 4934              		.align	2
 4935              		.set	.LANCHOR29,. + 0
 4936              		.type	cam_x1.12686, %object
 4937              		.size	cam_x1.12686, 4
 4938              	cam_x1.12686:
 4939 0000 00000000 		.space	4
 4940              		.section	.bss.cam_y1.12687,"aw",%nobits
 4941              		.align	2
 4942              		.set	.LANCHOR30,. + 0
 4943              		.type	cam_y1.12687, %object
 4944              		.size	cam_y1.12687, 4
 4945              	cam_y1.12687:
 4946 0000 00000000 		.space	4
 4947              		.section	.bss.cam_zoom.12684,"aw",%nobits
 4948              		.align	2
 4949              		.set	.LANCHOR5,. + 0
 4950              		.type	cam_zoom.12684, %object
 4951              		.size	cam_zoom.12684, 4
 4952              	cam_zoom.12684:
 4953 0000 00000000 		.space	4
ARM GAS  C:\Users\mathi\AppData\Local\Temp\cc0ZaFXf.s 			page 88


 4954              		.section	.bss.e_ambient_and_reflected_ir,"aw",%nobits
 4955              		.align	2
 4956              		.type	e_ambient_and_reflected_ir, %object
 4957              		.size	e_ambient_and_reflected_ir, 40
 4958              	e_ambient_and_reflected_ir:
 4959 0000 00000000 		.space	40
 4959      00000000 
 4959      00000000 
 4959      00000000 
 4959      00000000 
 4960              		.section	.bss.e_ambient_ir,"aw",%nobits
 4961              		.align	2
 4962              		.type	e_ambient_ir, %object
 4963              		.size	e_ambient_ir, 40
 4964              	e_ambient_ir:
 4965 0000 00000000 		.space	40
 4965      00000000 
 4965      00000000 
 4965      00000000 
 4965      00000000 
 4966              		.section	.bss.first.12688,"aw",%nobits
 4967              		.set	.LANCHOR9,. + 0
 4968              		.type	first.12688, %object
 4969              		.size	first.12688, 1
 4970              	first.12688:
 4971 0000 00       		.space	1
 4972              		.section	.bss.gyrox.12678,"aw",%nobits
 4973              		.align	2
 4974              		.set	.LANCHOR20,. + 0
 4975              		.type	gyrox.12678, %object
 4976              		.size	gyrox.12678, 4
 4977              	gyrox.12678:
 4978 0000 00000000 		.space	4
 4979              		.section	.bss.gyroy.12679,"aw",%nobits
 4980              		.align	2
 4981              		.set	.LANCHOR19,. + 0
 4982              		.type	gyroy.12679, %object
 4983              		.size	gyroy.12679, 4
 4984              	gyroy.12679:
 4985 0000 00000000 		.space	4
 4986              		.section	.bss.gyroz.12680,"aw",%nobits
 4987              		.align	2
 4988              		.set	.LANCHOR18,. + 0
 4989              		.type	gyroz.12680, %object
 4990              		.size	gyroz.12680, 4
 4991              	gyroz.12680:
 4992 0000 00000000 		.space	4
 4993              		.section	.bss.i.12665,"aw",%nobits
 4994              		.align	2
 4995              		.set	.LANCHOR11,. + 0
 4996              		.type	i.12665, %object
 4997              		.size	i.12665, 4
 4998              	i.12665:
 4999 0000 00000000 		.space	4
 5000              		.section	.bss.j.12666,"aw",%nobits
 5001              		.align	2
 5002              		.set	.LANCHOR22,. + 0
ARM GAS  C:\Users\mathi\AppData\Local\Temp\cc0ZaFXf.s 			page 89


 5003              		.type	j.12666, %object
 5004              		.size	j.12666, 4
 5005              	j.12666:
 5006 0000 00000000 		.space	4
 5007              		.section	.bss.mod.12690,"aw",%nobits
 5008              		.align	2
 5009              		.set	.LANCHOR25,. + 0
 5010              		.type	mod.12690, %object
 5011              		.size	mod.12690, 4
 5012              	mod.12690:
 5013 0000 00000000 		.space	4
 5014              		.section	.bss.positionl.12671,"aw",%nobits
 5015              		.align	2
 5016              		.set	.LANCHOR24,. + 0
 5017              		.type	positionl.12671, %object
 5018              		.size	positionl.12671, 4
 5019              	positionl.12671:
 5020 0000 00000000 		.space	4
 5021              		.section	.bss.positionr.12670,"aw",%nobits
 5022              		.align	2
 5023              		.set	.LANCHOR23,. + 0
 5024              		.type	positionr.12670, %object
 5025              		.size	positionr.12670, 4
 5026              	positionr.12670:
 5027 0000 00000000 		.space	4
 5028              		.section	.bss.reg.12691,"aw",%nobits
 5029              		.align	2
 5030              		.set	.LANCHOR26,. + 0
 5031              		.type	reg.12691, %object
 5032              		.size	reg.12691, 4
 5033              	reg.12691:
 5034 0000 00000000 		.space	4
 5035              		.section	.bss.selector,"aw",%nobits
 5036              		.align	2
 5037              		.set	.LANCHOR0,. + 0
 5038              		.type	selector, %object
 5039              		.size	selector, 4
 5040              	selector:
 5041 0000 00000000 		.space	4
 5042              		.section	.bss.sound.12677,"aw",%nobits
 5043              		.align	2
 5044              		.set	.LANCHOR32,. + 0
 5045              		.type	sound.12677, %object
 5046              		.size	sound.12677, 4
 5047              	sound.12677:
 5048 0000 00000000 		.space	4
 5049              		.section	.bss.speedl.12669,"aw",%nobits
 5050              		.align	2
 5051              		.set	.LANCHOR8,. + 0
 5052              		.type	speedl.12669, %object
 5053              		.size	speedl.12669, 4
 5054              	speedl.12669:
 5055 0000 00000000 		.space	4
 5056              		.section	.bss.speedr.12668,"aw",%nobits
 5057              		.align	2
 5058              		.set	.LANCHOR7,. + 0
 5059              		.type	speedr.12668, %object
ARM GAS  C:\Users\mathi\AppData\Local\Temp\cc0ZaFXf.s 			page 90


 5060              		.size	speedr.12668, 4
 5061              	speedr.12668:
 5062 0000 00000000 		.space	4
 5063              		.section	.bss.val.12692,"aw",%nobits
 5064              		.align	2
 5065              		.set	.LANCHOR27,. + 0
 5066              		.type	val.12692, %object
 5067              		.size	val.12692, 4
 5068              	val.12692:
 5069 0000 00000000 		.space	4
 5070              		.section	.bss.wait_cam.12664,"aw",%nobits
 5071              		.set	.LANCHOR21,. + 0
 5072              		.type	wait_cam.12664, %object
 5073              		.size	wait_cam.12664, 1
 5074              	wait_cam.12664:
 5075 0000 00       		.space	1
 5076              		.section	.data.HWversion.12699,"aw",%progbits
 5077              		.align	2
 5078              		.set	.LANCHOR1,. + 0
 5079              		.type	HWversion.12699, %object
 5080              		.size	HWversion.12699, 4
 5081              	HWversion.12699:
 5082 0000 FFFF0000 		.word	65535
 5083              		.section	.rodata.run_asercom.str1.4,"aMS",%progbits,1
 5084              		.align	2
 5085              	.LC0:
 5086 0000 0C075745 		.ascii	"\014\007WELCOME to the SerCom protocol on e-Puck\015"
 5086      4C434F4D 
 5086      4520746F 
 5086      20746865 
 5086      20536572 
 5087 002b 0A746865 		.ascii	"\012the EPFL education robot type \"H\" for help\015"
 5087      20455046 
 5087      4C206564 
 5087      75636174 
 5087      696F6E20 
 5088 0057 0A00     		.ascii	"\012\000"
 5089 0059 000000   		.space	3
 5090              	.LC1:
 5091 005c 612C2564 		.ascii	"a,%d,%d,%d\015\012\000"
 5091      2C25642C 
 5091      25640D0A 
 5091      00
 5092 0069 000000   		.space	3
 5093              	.LC2:
 5094 006c 612C302C 		.ascii	"a,0,0,0\015\012\000"
 5094      302C300D 
 5094      0A00
 5095 0076 0000     		.space	2
 5096              	.LC3:
 5097 0078 622C2564 		.ascii	"b,%d (%d%%)\015\012\000"
 5097      20282564 
 5097      2525290D 
 5097      0A00
 5098 0086 0000     		.space	2
 5099              	.LC4:
 5100 0088 622C2564 		.ascii	"b,%d\015\012\000"
ARM GAS  C:\Users\mathi\AppData\Local\Temp\cc0ZaFXf.s 			page 91


 5100      0D0A00
 5101 008f 00       		.space	1
 5102              	.LC5:
 5103 0090 422C2564 		.ascii	"B,%d\015\000"
 5103      0D00
 5104 0096 0000     		.space	2
 5105              	.LC6:
 5106 0098 620D0A00 		.ascii	"b\015\012\000"
 5107              	.LC7:
 5108 009c 632C2564 		.ascii	"c,%d\015\012\000"
 5108      0D0A00
 5109 00a3 00       		.space	1
 5110              	.LC8:
 5111 00a4 442C2564 		.ascii	"D,%d,%d\015\000"
 5111      2C25640D 
 5111      00
 5112 00ad 000000   		.space	3
 5113              	.LC9:
 5114 00b0 640D0A00 		.ascii	"d\015\012\000"
 5115              	.LC10:
 5116 00b4 652C2564 		.ascii	"e,%d,%d\015\012\000"
 5116      2C25640D 
 5116      0A00
 5117 00be 0000     		.space	2
 5118              	.LC11:
 5119 00c0 462C2564 		.ascii	"F,%d\015\000"
 5119      0D00
 5120 00c6 0000     		.space	2
 5121              	.LC12:
 5122 00c8 660D0A00 		.ascii	"f\015\012\000"
 5123              	.LC13:
 5124 00cc 67204952 		.ascii	"g IR check : 0x%x, address : 0x%x, data : 0x%x\015\012"
 5124      20636865 
 5124      636B203A 
 5124      20307825 
 5124      782C2061 
 5125 00fc 00       		.ascii	"\000"
 5126 00fd 000000   		.space	3
 5127              	.LC14:
 5128 0100 672C2564 		.ascii	"g,%d,%d,%d\015\012\000"
 5128      2C25642C 
 5128      25640D0A 
 5128      00
 5129 010d 000000   		.space	3
 5130              	.LC15:
 5131 0110 0A00     		.ascii	"\012\000"
 5132 0112 0000     		.space	2
 5133              	.LC16:
 5134 0114 22412220 		.ascii	"\"A\"               Accelerometer\015\012\000"
 5134      20202020 
 5134      20202020 
 5134      20202020 
 5134      20204163 
 5135 0136 0000     		.space	2
 5136              	.LC17:
 5137 0138 22422C23 		.ascii	"\"B,#\"             Body led 0=off 1=on 2=inverse\015"
 5137      22202020 
ARM GAS  C:\Users\mathi\AppData\Local\Temp\cc0ZaFXf.s 			page 92


 5137      20202020 
 5137      20202020 
 5137      2020426F 
 5138 0168 0A00     		.ascii	"\012\000"
 5139 016a 0000     		.space	2
 5140              	.LC18:
 5141 016c 22622220 		.ascii	"\"b\"               Battery value\015\012\000"
 5141      20202020 
 5141      20202020 
 5141      20202020 
 5141      20204261 
 5142 018e 0000     		.space	2
 5143              	.LC19:
 5144 0190 22622220 		.ascii	"\"b\"               Battery state (1=ok, 0=low)\015"
 5144      20202020 
 5144      20202020 
 5144      20202020 
 5144      20204261 
 5145 01be 0A00     		.ascii	"\012\000"
 5146              	.LC20:
 5147 01c0 22432220 		.ascii	"\"C\"               Selector position\015\012\000"
 5147      20202020 
 5147      20202020 
 5147      20202020 
 5147      20205365 
 5148 01e6 0000     		.space	2
 5149              	.LC21:
 5150 01e8 22442C23 		.ascii	"\"D,#,#\"           Set motor speed left,right\015\012"
 5150      2C232220 
 5150      20202020 
 5150      20202020 
 5150      20205365 
 5151 0216 00       		.ascii	"\000"
 5152 0217 00       		.space	1
 5153              	.LC22:
 5154 0218 22452220 		.ascii	"\"E\"               Get motor speed left,right\015\012"
 5154      20202020 
 5154      20202020 
 5154      20202020 
 5154      20204765 
 5155 0246 00       		.ascii	"\000"
 5156 0247 00       		.space	1
 5157              	.LC23:
 5158 0248 22462C23 		.ascii	"\"F,#\"             Front led 0=off 1=on 2=inverse\015"
 5158      22202020 
 5158      20202020 
 5158      20202020 
 5158      20204672 
 5159 0279 0A00     		.ascii	"\012\000"
 5160 027b 00       		.space	1
 5161              	.LC24:
 5162 027c 22472220 		.ascii	"\"G\"               IR receiver\015\012\000"
 5162      20202020 
 5162      20202020 
 5162      20202020 
 5162      20204952 
 5163              	.LC25:
ARM GAS  C:\Users\mathi\AppData\Local\Temp\cc0ZaFXf.s 			page 93


 5164 029c 22672220 		.ascii	"\"g\"               Gyro\015\012\000"
 5164      20202020 
 5164      20202020 
 5164      20202020 
 5164      20204779 
 5165 02b5 000000   		.space	3
 5166              	.LC26:
 5167 02b8 22482220 		.ascii	"\"H\"               Help\015\012\000"
 5167      20202020 
 5167      20202020 
 5167      20202020 
 5167      20204865 
 5168 02d1 000000   		.space	3
 5169              	.LC27:
 5170 02d4 22492220 		.ascii	"\"I\"               Get camera parameter\015\012\000"
 5170      20202020 
 5170      20202020 
 5170      20202020 
 5170      20204765 
 5171 02fd 000000   		.space	3
 5172              	.LC28:
 5173 0300 224A2C23 		.ascii	"\"J,#,#,#,#,#,#\"   Set camera parameter mode,width"
 5173      2C232C23 
 5173      2C232C23 
 5173      2C232220 
 5173      20205365 
 5174 0331 2C686569 		.ascii	",heigth,zoom(1,4 or 8),x1,y1\015\012\000"
 5174      6774682C 
 5174      7A6F6F6D 
 5174      28312C34 
 5174      206F7220 
 5175              	.LC29:
 5176 0350 224B2220 		.ascii	"\"K\"               Calibrate proximity sensors\015"
 5176      20202020 
 5176      20202020 
 5176      20202020 
 5176      20204361 
 5177 037e 0A00     		.ascii	"\012\000"
 5178              	.LC30:
 5179 0380 224C2C23 		.ascii	"\"L,#,#\"           Led number,0=off 1=on 2=inverse"
 5179      2C232220 
 5179      20202020 
 5179      20202020 
 5179      20204C65 
 5180 03b1 0D0A00   		.ascii	"\015\012\000"
 5181              	.LC31:
 5182 03b4 224D2220 		.ascii	"\"M\"               Floor sensors\015\012\000"
 5182      20202020 
 5182      20202020 
 5182      20202020 
 5182      2020466C 
 5183 03d6 0000     		.space	2
 5184              	.LC32:
 5185 03d8 224E2220 		.ascii	"\"N\"               Proximity\015\012\000"
 5185      20202020 
 5185      20202020 
 5185      20202020 
ARM GAS  C:\Users\mathi\AppData\Local\Temp\cc0ZaFXf.s 			page 94


 5185      20205072 
 5186 03f6 0000     		.space	2
 5187              	.LC33:
 5188 03f8 224F2220 		.ascii	"\"O\"               Light sensors\015\012\000"
 5188      20202020 
 5188      20202020 
 5188      20202020 
 5188      20204C69 
 5189 041a 0000     		.space	2
 5190              	.LC34:
 5191 041c 22502C23 		.ascii	"\"P,#,#\"           Set motor position left,right\015"
 5191      2C232220 
 5191      20202020 
 5191      20202020 
 5191      20205365 
 5192 044c 0A00     		.ascii	"\012\000"
 5193 044e 0000     		.space	2
 5194              	.LC35:
 5195 0450 22512220 		.ascii	"\"Q\"               Get motor position left,right\015"
 5195      20202020 
 5195      20202020 
 5195      20202020 
 5195      20204765 
 5196 0480 0A00     		.ascii	"\012\000"
 5197 0482 0000     		.space	2
 5198              	.LC36:
 5199 0484 22522220 		.ascii	"\"R\"               Reset e-puck\015\012\000"
 5199      20202020 
 5199      20202020 
 5199      20202020 
 5199      20205265 
 5200 04a5 000000   		.space	3
 5201              	.LC37:
 5202 04a8 22532220 		.ascii	"\"S\"               Stop e-puck and turn off leds\015"
 5202      20202020 
 5202      20202020 
 5202      20202020 
 5202      20205374 
 5203 04d8 0A00     		.ascii	"\012\000"
 5204 04da 0000     		.space	2
 5205              	.LC38:
 5206 04dc 22542C23 		.ascii	"\"T,#\"             Play sound 1-5 else stop sound\015"
 5206      22202020 
 5206      20202020 
 5206      20202020 
 5206      2020506C 
 5207 050d 0A00     		.ascii	"\012\000"
 5208 050f 00       		.space	1
 5209              	.LC39:
 5210 0510 22742220 		.ascii	"\"t\"               Temperature\015\012\000"
 5210      20202020 
 5210      20202020 
 5210      20202020 
 5210      20205465 
 5211              	.LC40:
 5212 0530 22552220 		.ascii	"\"U\"               Get microphone amplitude\015\012"
 5212      20202020 
ARM GAS  C:\Users\mathi\AppData\Local\Temp\cc0ZaFXf.s 			page 95


 5212      20202020 
 5212      20202020 
 5212      20204765 
 5213 055c 00       		.ascii	"\000"
 5214 055d 000000   		.space	3
 5215              	.LC41:
 5216 0560 22562220 		.ascii	"\"V\"               Version of SerCom\015\012\000"
 5216      20202020 
 5216      20202020 
 5216      20202020 
 5216      20205665 
 5217 0586 0000     		.space	2
 5218              	.LC42:
 5219 0588 22572220 		.ascii	"\"W\"               Write I2C (mod,reg,val)\015\012"
 5219      20202020 
 5219      20202020 
 5219      20202020 
 5219      20205772 
 5220 05b3 00       		.ascii	"\000"
 5221              	.LC43:
 5222 05b4 22592220 		.ascii	"\"Y\"               Read I2C val=(mod,reg)\015\012\000"
 5222      20202020 
 5222      20202020 
 5222      20202020 
 5222      20205265 
 5223 05df 00       		.space	1
 5224              	.LC44:
 5225 05e0 22412220 		.ascii	"\"A\"       Accelerometer\015\012\000"
 5225      20202020 
 5225      20204163 
 5225      63656C65 
 5225      726F6D65 
 5226 05fa 0000     		.space	2
 5227              	.LC45:
 5228 05fc 22622220 		.ascii	"\"b\"       Battery value\015\012\000"
 5228      20202020 
 5228      20204261 
 5228      74746572 
 5228      79207661 
 5229 0616 0000     		.space	2
 5230              	.LC46:
 5231 0618 22622220 		.ascii	"\"b\"       Battery state (1=ok, 0=low)\015\012\000"
 5231      20202020 
 5231      20204261 
 5231      74746572 
 5231      79207374 
 5232              	.LC47:
 5233 0640 22432220 		.ascii	"\"C\"       Selector position\015\012\000"
 5233      20202020 
 5233      20205365 
 5233      6C656374 
 5233      6F722070 
 5234 065e 0000     		.space	2
 5235              	.LC48:
 5236 0660 22442C23 		.ascii	"\"D,#,#\"   Set motor speed left,right\015\012\000"
 5236      2C232220 
 5236      20205365 
ARM GAS  C:\Users\mathi\AppData\Local\Temp\cc0ZaFXf.s 			page 96


 5236      74206D6F 
 5236      746F7220 
 5237 0687 00       		.space	1
 5238              	.LC49:
 5239 0688 22452220 		.ascii	"\"E\"       Get motor speed left,right\015\012\000"
 5239      20202020 
 5239      20204765 
 5239      74206D6F 
 5239      746F7220 
 5240 06af 00       		.space	1
 5241              	.LC50:
 5242 06b0 22472220 		.ascii	"\"G\"       IR receiver\015\012\000"
 5242      20202020 
 5242      20204952 
 5242      20726563 
 5242      65697665 
 5243              	.LC51:
 5244 06c8 22482220 		.ascii	"\"H\"       Help\015\012\000"
 5244      20202020 
 5244      20204865 
 5244      6C700D0A 
 5244      00
 5245 06d9 000000   		.space	3
 5246              	.LC52:
 5247 06dc 224B2220 		.ascii	"\"K\"       Calibrate proximity sensors\015\012\000"
 5247      20202020 
 5247      20204361 
 5247      6C696272 
 5247      61746520 
 5248              	.LC53:
 5249 0704 224C2C23 		.ascii	"\"L,#,#\"   Led number,0=off 1=on 2=inverse\015\012"
 5249      2C232220 
 5249      20204C65 
 5249      64206E75 
 5249      6D626572 
 5250 072f 00       		.ascii	"\000"
 5251              	.LC54:
 5252 0730 224D2220 		.ascii	"\"M\"       Floor sensors\015\012\000"
 5252      20202020 
 5252      2020466C 
 5252      6F6F7220 
 5252      73656E73 
 5253 074a 0000     		.space	2
 5254              	.LC55:
 5255 074c 224E2220 		.ascii	"\"N\"       Proximity\015\012\000"
 5255      20202020 
 5255      20205072 
 5255      6F78696D 
 5255      6974790D 
 5256 0762 0000     		.space	2
 5257              	.LC56:
 5258 0764 224F2220 		.ascii	"\"O\"       Light sensors\015\012\000"
 5258      20202020 
 5258      20204C69 
 5258      67687420 
 5258      73656E73 
 5259 077e 0000     		.space	2
ARM GAS  C:\Users\mathi\AppData\Local\Temp\cc0ZaFXf.s 			page 97


 5260              	.LC57:
 5261 0780 22502C23 		.ascii	"\"P,#,#\"   Set motor position left,right\015\012\000"
 5261      2C232220 
 5261      20205365 
 5261      74206D6F 
 5261      746F7220 
 5262 07aa 0000     		.space	2
 5263              	.LC58:
 5264 07ac 22512220 		.ascii	"\"Q\"       Get motor position left,right\015\012\000"
 5264      20202020 
 5264      20204765 
 5264      74206D6F 
 5264      746F7220 
 5265 07d6 0000     		.space	2
 5266              	.LC59:
 5267 07d8 22522220 		.ascii	"\"R\"       Reset e-puck\015\012\000"
 5267      20202020 
 5267      20205265 
 5267      73657420 
 5267      652D7075 
 5268 07f1 000000   		.space	3
 5269              	.LC60:
 5270 07f4 22532220 		.ascii	"\"S\"       Stop e-puck and turn off leds\015\012\000"
 5270      20202020 
 5270      20205374 
 5270      6F702065 
 5270      2D707563 
 5271 081e 0000     		.space	2
 5272              	.LC61:
 5273 0820 22552220 		.ascii	"\"U\"       Get microphone amplitude\015\012\000"
 5273      20202020 
 5273      20204765 
 5273      74206D69 
 5273      63726F70 
 5274 0845 000000   		.space	3
 5275              	.LC62:
 5276 0848 22562220 		.ascii	"\"V\"       Version of SerCom\015\012\000"
 5276      20202020 
 5276      20205665 
 5276      7273696F 
 5276      6E206F66 
 5277 0866 0000     		.space	2
 5278              	.LC63:
 5279 0868 692C2564 		.ascii	"i,%d,%d,%d,%d,%d\015\012\000"
 5279      2C25642C 
 5279      25642C25 
 5279      642C2564 
 5279      0D0A00
 5280 087b 00       		.space	1
 5281              	.LC64:
 5282 087c 4A2C2564 		.ascii	"J,%d,%d,%d,%d,%d,%d\015\000"
 5282      2C25642C 
 5282      25642C25 
 5282      642C2564 
 5282      2C25640D 
 5283 0891 000000   		.space	3
 5284              	.LC65:
ARM GAS  C:\Users\mathi\AppData\Local\Temp\cc0ZaFXf.s 			page 98


 5285 0894 6A0D0A00 		.ascii	"j\015\012\000"
 5286              	.LC66:
 5287 0898 6B2C2053 		.ascii	"k, Starting calibration - Remove any object in sens"
 5287      74617274 
 5287      696E6720 
 5287      63616C69 
 5287      62726174 
 5288 08cb 6F727320 		.ascii	"ors range\015\012\000"
 5288      72616E67 
 5288      650D0A00 
 5289 08d7 00       		.space	1
 5290              	.LC67:
 5291 08d8 4C2C2564 		.ascii	"L,%d,%d\015\000"
 5291      2C25640D 
 5291      00
 5292 08e1 000000   		.space	3
 5293              	.LC68:
 5294 08e4 6C0D0A00 		.ascii	"l\015\012\000"
 5295              	.LC69:
 5296 08e8 6D2C2564 		.ascii	"m,%d,%d,%d,%d,%d\015\012\000"
 5296      2C25642C 
 5296      25642C25 
 5296      642C2564 
 5296      0D0A00
 5297 08fb 00       		.space	1
 5298              	.LC70:
 5299 08fc 6E2C2564 		.ascii	"n,%d,%d,%d,%d,%d,%d,%d,%d\015\012\000"
 5299      2C25642C 
 5299      25642C25 
 5299      642C2564 
 5299      2C25642C 
 5300              	.LC71:
 5301 0918 6E2C2564 		.ascii	"n,%d,%d,%d,%d,%d,%d,%d,%d,%d,%d\015\012\000"
 5301      2C25642C 
 5301      25642C25 
 5301      642C2564 
 5301      2C25642C 
 5302 093a 0000     		.space	2
 5303              	.LC72:
 5304 093c 6F2C2564 		.ascii	"o,%d,%d,%d,%d,%d,%d,%d,%d\015\012\000"
 5304      2C25642C 
 5304      25642C25 
 5304      642C2564 
 5304      2C25642C 
 5305              	.LC73:
 5306 0958 6F2C2564 		.ascii	"o,%d,%d,%d,%d,%d,%d,%d,%d,%d,%d\015\012\000"
 5306      2C25642C 
 5306      25642C25 
 5306      642C2564 
 5306      2C25642C 
 5307 097a 0000     		.space	2
 5308              	.LC74:
 5309 097c 502C2564 		.ascii	"P,%d,%d\015\000"
 5309      2C25640D 
 5309      00
 5310 0985 000000   		.space	3
 5311              	.LC75:
ARM GAS  C:\Users\mathi\AppData\Local\Temp\cc0ZaFXf.s 			page 99


 5312 0988 700D0A00 		.ascii	"p\015\012\000"
 5313              	.LC76:
 5314 098c 712C2564 		.ascii	"q,%d,%d\015\012\000"
 5314      2C25640D 
 5314      0A00
 5315 0996 0000     		.space	2
 5316              	.LC77:
 5317 0998 730D0A00 		.ascii	"s\015\012\000"
 5318              	.LC78:
 5319 099c 542C2564 		.ascii	"T,%d\000"
 5319      00
 5320 09a1 000000   		.space	3
 5321              	.LC79:
 5322 09a4 740D0A00 		.ascii	"t\015\012\000"
 5323              	.LC80:
 5324 09a8 742C2564 		.ascii	"t,%d\015\012\000"
 5324      0D0A00
 5325 09af 00       		.space	1
 5326              	.LC81:
 5327 09b0 752C2564 		.ascii	"u,%d,%d,%d\015\012\000"
 5327      2C25642C 
 5327      25640D0A 
 5327      00
 5328 09bd 000000   		.space	3
 5329              	.LC82:
 5330 09c0 762C5665 		.ascii	"v,Version 1.2.2 August 2008 GCtronic\015\012\000"
 5330      7273696F 
 5330      6E20312E 
 5330      322E3220 
 5330      41756775 
 5331 09e7 00       		.space	1
 5332              	.LC83:
 5333 09e8 572C2564 		.ascii	"W,%d,%d,%d\015\000"
 5333      2C25642C 
 5333      25640D00 
 5334              	.LC84:
 5335 09f4 770D0A00 		.ascii	"w\015\012\000"
 5336              	.LC85:
 5337 09f8 592C2564 		.ascii	"Y,%d,%d\015\000"
 5337      2C25640D 
 5337      00
 5338 0a01 000000   		.space	3
 5339              	.LC86:
 5340 0a04 792C2564 		.ascii	"y,%d,%d\015\012\000"
 5340      2C25640D 
 5340      0A00
 5341 0a0e 0000     		.space	2
 5342              	.LC87:
 5343 0a10 792C2564 		.ascii	"y,%d\015\012\000"
 5343      0D0A00
 5344 0a17 00       		.space	1
 5345              	.LC88:
 5346 0a18 25643A20 		.ascii	"%d: %d\015\012\000"
 5346      25640D0A 
 5346      00
 5347 0a21 000000   		.space	3
 5348              	.LC89:
ARM GAS  C:\Users\mathi\AppData\Local\Temp\cc0ZaFXf.s 			page 100


 5349 0a24 7A2C436F 		.ascii	"z,Command not found\015\012\000"
 5349      6D6D616E 
 5349      64206E6F 
 5349      7420666F 
 5349      756E640D 
 5350 0a3a 0000     		.space	2
 5351              	.LC90:
 5352 0a3c 6B2C2043 		.ascii	"k, Calibration finished\015\012\000"
 5352      616C6962 
 5352      72617469 
 5352      6F6E2066 
 5352      696E6973 
 5353 0a56 0000     		.space	2
 5354              	.LC91:
 5355 0a58 48572076 		.ascii	"HW version: %X\015\012\000"
 5355      65727369 
 5355      6F6E3A20 
 5355      25580D0A 
 5355      00
 5356 0a69 000000   		.space	3
 5357              	.LC92:
 5358 0a6c 672C302C 		.ascii	"g,0,0,0\015\012\000"
 5358      302C300D 
 5358      0A00
 5359 0a76 0000     		.space	2
 5360              	.LC93:
 5361 0a78 742C300D 		.ascii	"t,0\015\012\000"
 5361      0A00
 5362              		.text
 5363              	.Letext0:
 5364              		.file 2 "c:\\eclipse_e-puck2\\tools\\gcc-arm-none-eabi-7-2017-q4-major-win32\\arm-none-eabi\\inclu
 5365              		.file 3 "c:\\eclipse_e-puck2\\tools\\gcc-arm-none-eabi-7-2017-q4-major-win32\\arm-none-eabi\\inclu
 5366              		.file 4 "c:\\eclipse_e-puck2\\tools\\gcc-arm-none-eabi-7-2017-q4-major-win32\\lib\\gcc\\arm-none-e
 5367              		.file 5 "../../lib/e-puck2_main-processor/ChibiOS//os/rt/ports/ARMCMx/compilers/GCC/chtypes.h"
 5368              		.file 6 "../../lib/e-puck2_main-processor/ChibiOS//os/rt/include/chsystypes.h"
 5369              		.file 7 "../../lib/e-puck2_main-processor/ChibiOS//os/rt/include/chschd.h"
 5370              		.file 8 "../../lib/e-puck2_main-processor/ChibiOS//os/ext/CMSIS/include/core_cm4.h"
 5371              		.file 9 "../../lib/e-puck2_main-processor/ChibiOS//os/ext/CMSIS/ST/system_stm32f4xx.h"
 5372              		.file 10 "../../lib/e-puck2_main-processor/ChibiOS//os/ext/CMSIS/ST/stm32f407xx.h"
 5373              		.file 11 "../../lib/e-puck2_main-processor/ChibiOS//os/rt/ports/ARMCMx/chcore.h"
 5374              		.file 12 "../../lib/e-puck2_main-processor/ChibiOS//os/rt/ports/ARMCMx/chcore_v7m.h"
 5375              		.file 13 "../../lib/e-puck2_main-processor/ChibiOS//os/rt/include/chdebug.h"
 5376              		.file 14 "../../lib/e-puck2_main-processor/ChibiOS//os/rt/include/chtm.h"
 5377              		.file 15 "../../lib/e-puck2_main-processor/ChibiOS//os/rt/include/chstats.h"
 5378              		.file 16 "../../lib/e-puck2_main-processor/ChibiOS//os/rt/include/chsem.h"
 5379              		.file 17 "../../lib/e-puck2_main-processor/ChibiOS//os/rt/include/chmtx.h"
 5380              		.file 18 "../../lib/e-puck2_main-processor/ChibiOS//os/rt/include/chregistry.h"
 5381              		.file 19 "../../lib/e-puck2_main-processor/ChibiOS//os/rt/include/chevents.h"
 5382              		.file 20 "../../lib/e-puck2_main-processor/ChibiOS//os/rt/include/chqueues.h"
 5383              		.file 21 "../../lib/e-puck2_main-processor/ChibiOS//os/hal/ports/STM32/STM32F4xx/stm32_dma.h"
 5384              		.file 22 "../../lib/e-puck2_main-processor/ChibiOS//os/hal/include/hal_ioblock.h"
 5385              		.file 23 "../../lib/e-puck2_main-processor/ChibiOS//os/hal/ports/STM32/LLD/GPIOv2/pal_lld.h"
 5386              		.file 24 "../../lib/e-puck2_main-processor/ChibiOS//os/hal/include/adc.h"
 5387              		.file 25 "../../lib/e-puck2_main-processor/ChibiOS//os/hal/ports/STM32/STM32F4xx/adc_lld.h"
 5388              		.file 26 "../../lib/e-puck2_main-processor/ChibiOS//os/hal/include/can.h"
 5389              		.file 27 "../../lib/e-puck2_main-processor/ChibiOS//os/hal/ports/STM32/LLD/can_lld.h"
 5390              		.file 28 "../../lib/e-puck2_main-processor/ChibiOS//os/hal/include/dac.h"
ARM GAS  C:\Users\mathi\AppData\Local\Temp\cc0ZaFXf.s 			page 101


 5391              		.file 29 "../../lib/e-puck2_main-processor/ChibiOS//os/hal/ports/STM32/LLD/DACv1/dac_lld.h"
 5392              		.file 30 "../../lib/e-puck2_main-processor/ChibiOS//os/hal/include/ext.h"
 5393              		.file 31 "../../lib/e-puck2_main-processor/ChibiOS//os/hal/ports/STM32/LLD/ext_lld.h"
 5394              		.file 32 "../../lib/e-puck2_main-processor/ChibiOS//os/hal/include/gpt.h"
 5395              		.file 33 "../../lib/e-puck2_main-processor/ChibiOS//os/hal/ports/STM32/LLD/TIMv1/gpt_lld.h"
 5396              		.file 34 "../../lib/e-puck2_main-processor/ChibiOS//os/hal/ports/STM32/LLD/TIMv1/stm32_tim.h"
 5397              		.file 35 "../../lib/e-puck2_main-processor/ChibiOS//os/hal/include/i2c.h"
 5398              		.file 36 "../../lib/e-puck2_main-processor/ChibiOS//os/hal/ports/STM32/LLD/I2Cv1/i2c_lld.h"
 5399              		.file 37 "../../lib/e-puck2_main-processor/ChibiOS//os/hal/include/i2s.h"
 5400              		.file 38 "../../lib/e-puck2_main-processor/ChibiOS//os/hal/ports/STM32/LLD/SPIv1/i2s_lld.h"
 5401              		.file 39 "../../lib/e-puck2_main-processor/ChibiOS//os/hal/include/pwm.h"
 5402              		.file 40 "../../lib/e-puck2_main-processor/ChibiOS//os/hal/ports/STM32/LLD/TIMv1/pwm_lld.h"
 5403              		.file 41 "../../lib/e-puck2_main-processor/ChibiOS//os/hal/include/serial.h"
 5404              		.file 42 "../../lib/e-puck2_main-processor/ChibiOS//os/hal/ports/STM32/LLD/USARTv1/serial_lld.h"
 5405              		.file 43 "../../lib/e-puck2_main-processor/ChibiOS//os/hal/include/sdc.h"
 5406              		.file 44 "../../lib/e-puck2_main-processor/ChibiOS//os/hal/ports/STM32/LLD/sdc_lld.h"
 5407              		.file 45 "../../lib/e-puck2_main-processor/ChibiOS//os/hal/include/spi.h"
 5408              		.file 46 "../../lib/e-puck2_main-processor/ChibiOS//os/hal/ports/STM32/LLD/SPIv1/spi_lld.h"
 5409              		.file 47 "../../lib/e-puck2_main-processor/ChibiOS//os/hal/include/usb.h"
 5410              		.file 48 "../../lib/e-puck2_main-processor/ChibiOS//os/hal/ports/STM32/LLD/OTGv1/usb_lld.h"
 5411              		.file 49 "../../lib/e-puck2_main-processor/ChibiOS//os/hal/ports/STM32/LLD/OTGv1/stm32_otg.h"
 5412              		.file 50 "../../lib/e-puck2_main-processor/ChibiOS_ext/os/hal/include/../ports/STM32/STM32F4xx/dcm
 5413              		.file 51 "c:\\eclipse_e-puck2\\tools\\gcc-arm-none-eabi-7-2017-q4-major-win32\\arm-none-eabi\\incl
 5414              		.file 52 "c:\\eclipse_e-puck2\\tools\\gcc-arm-none-eabi-7-2017-q4-major-win32\\arm-none-eabi\\incl
 5415              		.file 53 "c:\\eclipse_e-puck2\\tools\\gcc-arm-none-eabi-7-2017-q4-major-win32\\arm-none-eabi\\incl
 5416              		.file 54 "../../lib/e-puck2_main-processor/src/msgbus/messagebus.h"
 5417              		.file 55 "c:\\eclipse_e-puck2\\tools\\gcc-arm-none-eabi-7-2017-q4-major-win32\\arm-none-eabi\\incl
 5418              		.file 56 "c:\\eclipse_e-puck2\\tools\\gcc-arm-none-eabi-7-2017-q4-major-win32\\arm-none-eabi\\incl
 5419              		.file 57 "../../lib/e-puck2_main-processor/src/parameter/parameter.h"
 5420              		.file 58 "./main.h"
 5421              		.file 59 "../../lib/e-puck2_main-processor/src/audio/play_melody.h"
 5422              		.file 60 "c:\\eclipse_e-puck2\\tools\\gcc-arm-none-eabi-7-2017-q4-major-win32\\arm-none-eabi\\incl
 5423              		.file 61 "../../lib/e-puck2_main-processor/src/epuck1x/a_d/advance_ad_scan/e_acc.h"
 5424              		.file 62 "../../lib/e-puck2_main-processor/src/epuck1x/motor_led/e_init_port.h"
 5425              		.file 63 "c:\\eclipse_e-puck2\\tools\\gcc-arm-none-eabi-7-2017-q4-major-win32\\arm-none-eabi\\incl
 5426              		.file 64 "../../lib/e-puck2_main-processor/src/epuck1x/uart/e_uart_char.h"
 5427              		.file 65 "../../lib/e-puck2_main-processor/src/epuck1x/I2C/e_I2C_protocol.h"
 5428              		.file 66 "c:\\eclipse_e-puck2\\tools\\gcc-arm-none-eabi-7-2017-q4-major-win32\\arm-none-eabi\\incl
 5429              		.file 67 "../../lib/e-puck2_main-processor/src/epuck1x/motor_led/advance_one_timer/e_motors.h"
 5430              		.file 68 "../../lib/e-puck2_main-processor/src/epuck1x/a_d/advance_ad_scan/e_prox.h"
 5431              		.file 69 "../../lib/e-puck2_main-processor/src/epuck1x/a_d/advance_ad_scan/e_micro.h"
 5432              		.file 70 "../../lib/e-puck2_main-processor/src/epuck1x/motor_led/advance_one_timer/e_led.h"
 5433              		.file 71 "../../lib/e-puck2_main-processor/ChibiOS//os/rt/include/chthreads.h"
 5434              		.file 72 "../../lib/e-puck2_main-processor/src/epuck1x/motor_led/advance_one_timer/e_remote_contro
 5435              		.file 73 "../../lib/e-puck2_main-processor/src/epuck1x/camera/fast_2_timer/e_poxxxx.h"
 5436              		.file 74 "../../lib/e-puck2_main-processor/src/epuck1x/codec/e_sound.h"
 5437              		.file 75 "../../lib/e-puck2_main-processor/src/epuck1x/utility/utility.h"
 5438              		.file 76 "../../lib/e-puck2_main-processor/src/epuck1x/acc_gyro/e_lsm330.h"
 5439              		.file 77 "../../lib/e-puck2_main-processor/src/epuck1x/DataEEPROM.h"
 5440              		.file 78 "../../lib/e-puck2_main-processor/src/camera/dcmi_camera.h"
 5441              		.file 79 "<built-in>"