ARM GAS  C:\Users\mathi\AppData\Local\Temp\ccNdMgiQ.s 			page 1


   1              		.cpu cortex-m4
   2              		.eabi_attribute 27, 1
   3              		.eabi_attribute 28, 1
   4              		.eabi_attribute 20, 1
   5              		.eabi_attribute 21, 1
   6              		.eabi_attribute 23, 3
   7              		.eabi_attribute 24, 1
   8              		.eabi_attribute 25, 1
   9              		.eabi_attribute 26, 1
  10              		.eabi_attribute 30, 2
  11              		.eabi_attribute 34, 1
  12              		.eabi_attribute 18, 4
  13              		.file	"audio_thread.c"
  14              		.text
  15              	.Ltext0:
  16              		.cfi_sections	.debug_frame
  17              		.section	.text.error_cb,"ax",%progbits
  18              		.align	1
  19              		.p2align 4,,15
  20              		.syntax unified
  21              		.thumb
  22              		.thumb_func
  23              		.fpu fpv4-sp-d16
  24              		.type	error_cb, %function
  25              	error_cb:
  26              	.LFB256:
  27              		.file 1 "../../lib/e-puck2_main-processor/src/audio/audio_thread.c"
  28              		.loc 1 66 0
  29              		.cfi_startproc
  30              		@ args = 0, pretend = 0, frame = 8
  31              		@ frame_needed = 0, uses_anonymous_args = 0
  32              	.LVL0:
  33 0000 00B5     		push	{lr}
  34              		.cfi_def_cfa_offset 4
  35              		.cfi_offset 14, -4
  36 0002 084B     		ldr	r3, .L7
  37 0004 83B0     		sub	sp, sp, #12
  38              		.cfi_def_cfa_offset 16
  39              		.loc 1 66 0
  40 0006 1A68     		ldr	r2, [r3]
  41 0008 0192     		str	r2, [sp, #4]
  42              		.loc 1 71 0
  43 000a 019A     		ldr	r2, [sp, #4]
  44 000c 1B68     		ldr	r3, [r3]
  45 000e 9A42     		cmp	r2, r3
  46 0010 05D1     		bne	.L6
  47 0012 0548     		ldr	r0, .L7+4
  48              	.LVL1:
  49              		.loc 1 72 0
  50 0014 03B0     		add	sp, sp, #12
  51              		.cfi_remember_state
  52              		.cfi_def_cfa_offset 4
  53              		@ sp needed
  54 0016 5DF804EB 		ldr	lr, [sp], #4
  55              		.cfi_restore 14
  56              		.cfi_def_cfa_offset 0
  57              		.loc 1 71 0
ARM GAS  C:\Users\mathi\AppData\Local\Temp\ccNdMgiQ.s 			page 2


  58 001a FFF7FEBF 		b	chSysHalt
  59              	.LVL2:
  60              	.L6:
  61              		.cfi_restore_state
  62 001e FFF7FEFF 		bl	__stack_chk_fail
  63              	.LVL3:
  64              	.L8:
  65 0022 00BF     		.align	2
  66              	.L7:
  67 0024 00000000 		.word	__stack_chk_guard
  68 0028 00000000 		.word	.LC0
  69              		.cfi_endproc
  70              	.LFE256:
  71              		.size	error_cb, .-error_cb
  72              		.section	.text.dac_start,"ax",%progbits
  73              		.align	1
  74              		.p2align 4,,15
  75              		.global	dac_start
  76              		.syntax unified
  77              		.thumb
  78              		.thumb_func
  79              		.fpu fpv4-sp-d16
  80              		.type	dac_start, %function
  81              	dac_start:
  82              	.LFB257:
  83              		.loc 1 79 0
  84              		.cfi_startproc
  85              		@ args = 0, pretend = 0, frame = 8
  86              		@ frame_needed = 0, uses_anonymous_args = 0
  87 0000 70B5     		push	{r4, r5, r6, lr}
  88              		.cfi_def_cfa_offset 16
  89              		.cfi_offset 4, -16
  90              		.cfi_offset 5, -12
  91              		.cfi_offset 6, -8
  92              		.cfi_offset 14, -4
  93 0002 194D     		ldr	r5, .L13
  94              		.loc 1 86 0
  95 0004 194A     		ldr	r2, .L13+4
  96              		.loc 1 80 0
  97 0006 1A4B     		ldr	r3, .L13+8
  98              		.loc 1 79 0
  99 0008 2968     		ldr	r1, [r5]
 100              		.loc 1 82 0
 101 000a 1A4E     		ldr	r6, .L13+12
 102 000c 9E60     		str	r6, [r3, #8]
 103              		.loc 1 79 0
 104 000e 82B0     		sub	sp, sp, #8
 105              		.cfi_def_cfa_offset 24
 106              		.loc 1 81 0
 107 0010 0024     		movs	r4, #0
 108              		.loc 1 86 0
 109 0012 4FF40060 		mov	r0, #2048
 110 0016 1080     		strh	r0, [r2]	@ movhi
 111              		.loc 1 79 0
 112 0018 0191     		str	r1, [sp, #4]
 113              		.loc 1 87 0
 114 001a 9470     		strb	r4, [r2, #2]
ARM GAS  C:\Users\mathi\AppData\Local\Temp\ccNdMgiQ.s 			page 3


 115              		.loc 1 89 0
 116 001c 1146     		mov	r1, r2
 117 001e 1648     		ldr	r0, .L13+16
 118              		.loc 1 81 0
 119 0020 5C60     		str	r4, [r3, #4]
 120              		.loc 1 80 0
 121 0022 0122     		movs	r2, #1
 122 0024 1A60     		str	r2, [r3]
 123              		.loc 1 83 0
 124 0026 DC60     		str	r4, [r3, #12]
 125              		.loc 1 89 0
 126 0028 FFF7FEFF 		bl	dacStart
 127              	.LVL4:
 128              		.loc 1 93 0
 129 002c 134B     		ldr	r3, .L13+20
 130 002e 1449     		ldr	r1, .L13+24
 131 0030 1960     		str	r1, [r3]
 132              		.loc 1 95 0
 133 0032 2022     		movs	r2, #32
 134              		.loc 1 98 0
 135 0034 1946     		mov	r1, r3
 136 0036 1348     		ldr	r0, .L13+28
 137              		.loc 1 95 0
 138 0038 9A60     		str	r2, [r3, #8]
 139              		.loc 1 94 0
 140 003a 5C60     		str	r4, [r3, #4]
 141              		.loc 1 96 0
 142 003c DC60     		str	r4, [r3, #12]
 143              		.loc 1 98 0
 144 003e FFF7FEFF 		bl	gptStart
 145              	.LVL5:
 146              	.LBB14:
 147              	.LBB15:
 148              	.LBB16:
 149              	.LBB17:
 150              		.loc 1 155 0
 151 0042 114B     		ldr	r3, .L13+32
 152              	.LBE17:
 153              	.LBE16:
 154              		.loc 1 146 0
 155 0044 0F48     		ldr	r0, .L13+28
 156              	.LBB19:
 157              	.LBB18:
 158              		.loc 1 155 0
 159 0046 8022     		movs	r2, #128
 160 0048 1A83     		strh	r2, [r3, #24]	@ movhi
 161              	.LVL6:
 162              	.LBE18:
 163              	.LBE19:
 164              		.loc 1 146 0
 165 004a FFF7FEFF 		bl	gptStopTimer
 166              	.LVL7:
 167              		.loc 1 147 0
 168 004e 0A48     		ldr	r0, .L13+16
 169 0050 FFF7FEFF 		bl	dacStopConversion
 170              	.LVL8:
 171              	.LBE15:
ARM GAS  C:\Users\mathi\AppData\Local\Temp\ccNdMgiQ.s 			page 4


 172              	.LBE14:
 173              		.loc 1 103 0
 174 0054 019A     		ldr	r2, [sp, #4]
 175 0056 2B68     		ldr	r3, [r5]
 176              	.LBB22:
 177              	.LBB20:
 178              		.loc 1 148 0
 179 0058 0C49     		ldr	r1, .L13+36
 180              	.LBE20:
 181              	.LBE22:
 182              		.loc 1 103 0
 183 005a 9A42     		cmp	r2, r3
 184              	.LBB23:
 185              	.LBB21:
 186              		.loc 1 148 0
 187 005c 0C70     		strb	r4, [r1]
 188              	.LBE21:
 189              	.LBE23:
 190              		.loc 1 103 0
 191 005e 01D1     		bne	.L12
 192 0060 02B0     		add	sp, sp, #8
 193              		.cfi_remember_state
 194              		.cfi_def_cfa_offset 16
 195              		@ sp needed
 196 0062 70BD     		pop	{r4, r5, r6, pc}
 197              	.L12:
 198              		.cfi_restore_state
 199 0064 FFF7FEFF 		bl	__stack_chk_fail
 200              	.LVL9:
 201              	.L14:
 202              		.align	2
 203              	.L13:
 204 0068 00000000 		.word	__stack_chk_guard
 205 006c 00000000 		.word	.LANCHOR1
 206 0070 00000000 		.word	.LANCHOR0
 207 0074 00000000 		.word	error_cb
 208 0078 00000000 		.word	DACD2
 209 007c 00000000 		.word	.LANCHOR2
 210 0080 00BD0105 		.word	84000000
 211 0084 00000000 		.word	GPTD6
 212 0088 000C0240 		.word	1073875968
 213 008c 00000000 		.word	.LANCHOR3
 214              		.cfi_endproc
 215              	.LFE257:
 216              		.size	dac_start, .-dac_start
 217              		.section	.text.dac_play,"ax",%progbits
 218              		.align	1
 219              		.p2align 4,,15
 220              		.global	dac_play
 221              		.syntax unified
 222              		.thumb
 223              		.thumb_func
 224              		.fpu fpv4-sp-d16
 225              		.type	dac_play, %function
 226              	dac_play:
 227              	.LFB258:
 228              		.loc 1 105 0
ARM GAS  C:\Users\mathi\AppData\Local\Temp\ccNdMgiQ.s 			page 5


 229              		.cfi_startproc
 230              		@ args = 0, pretend = 0, frame = 8
 231              		@ frame_needed = 0, uses_anonymous_args = 0
 232              	.LVL10:
 233 0000 70B5     		push	{r4, r5, r6, lr}
 234              		.cfi_def_cfa_offset 16
 235              		.cfi_offset 4, -16
 236              		.cfi_offset 5, -12
 237              		.cfi_offset 6, -8
 238              		.cfi_offset 14, -4
 239              		.loc 1 106 0
 240 0002 1849     		ldr	r1, .L23
 241              		.loc 1 105 0
 242 0004 184C     		ldr	r4, .L23+4
 243              		.loc 1 106 0
 244 0006 0A78     		ldrb	r2, [r1]	@ zero_extendqisi2
 245              		.loc 1 105 0
 246 0008 2368     		ldr	r3, [r4]
 247 000a 82B0     		sub	sp, sp, #8
 248              		.cfi_def_cfa_offset 24
 249              		.loc 1 105 0
 250 000c 0193     		str	r3, [sp, #4]
 251 000e 4FF4B473 		mov	r3, #360
 252 0012 03FB00F5 		mul	r5, r3, r0
 253              		.loc 1 106 0
 254 0016 62B1     		cbz	r2, .L22
 255              		.loc 1 112 0
 256 0018 019A     		ldr	r2, [sp, #4]
 257 001a 2368     		ldr	r3, [r4]
 258 001c 9A42     		cmp	r2, r3
 259 001e 1FD1     		bne	.L21
 260 0020 1248     		ldr	r0, .L23+8
 261              	.LVL11:
 262 0022 1349     		ldr	r1, .L23+12
 263 0024 B1FBF5F1 		udiv	r1, r1, r5
 264              		.loc 1 114 0
 265 0028 02B0     		add	sp, sp, #8
 266              		.cfi_remember_state
 267              		.cfi_def_cfa_offset 16
 268              		@ sp needed
 269 002a BDE87040 		pop	{r4, r5, r6, lr}
 270              		.cfi_restore 14
 271              		.cfi_restore 6
 272              		.cfi_restore 5
 273              		.cfi_restore 4
 274              		.cfi_def_cfa_offset 0
 275              		.loc 1 112 0
 276 002e FFF7FEBF 		b	gptChangeInterval
 277              	.LVL12:
 278              	.L22:
 279              		.cfi_restore_state
 280              	.LBB24:
 281              	.LBB25:
 282              		.loc 1 153 0
 283 0032 1048     		ldr	r0, .L23+16
 284              	.LVL13:
 285              	.LBE25:
ARM GAS  C:\Users\mathi\AppData\Local\Temp\ccNdMgiQ.s 			page 6


 286              	.LBE24:
 287              		.loc 1 109 0
 288 0034 104A     		ldr	r2, .L23+20
 289              		.loc 1 107 0
 290 0036 0126     		movs	r6, #1
 291 0038 0E70     		strb	r6, [r1]
 292              	.LVL14:
 293              	.LBB27:
 294              	.LBB26:
 295              		.loc 1 153 0
 296 003a 8021     		movs	r1, #128
 297 003c 4183     		strh	r1, [r0, #26]	@ movhi
 298              	.LVL15:
 299              	.LBE26:
 300              	.LBE27:
 301              		.loc 1 109 0
 302 003e 0F49     		ldr	r1, .L23+24
 303 0040 0F48     		ldr	r0, .L23+28
 304 0042 FFF7FEFF 		bl	dacStartConversion
 305              	.LVL16:
 306              		.loc 1 110 0
 307 0046 019A     		ldr	r2, [sp, #4]
 308 0048 2368     		ldr	r3, [r4]
 309 004a 9A42     		cmp	r2, r3
 310 004c 08D1     		bne	.L21
 311 004e 0748     		ldr	r0, .L23+8
 312 0050 0749     		ldr	r1, .L23+12
 313 0052 B1FBF5F1 		udiv	r1, r1, r5
 314              		.loc 1 114 0
 315 0056 02B0     		add	sp, sp, #8
 316              		.cfi_remember_state
 317              		.cfi_def_cfa_offset 16
 318              		@ sp needed
 319 0058 BDE87040 		pop	{r4, r5, r6, lr}
 320              		.cfi_restore 14
 321              		.cfi_restore 6
 322              		.cfi_restore 5
 323              		.cfi_restore 4
 324              		.cfi_def_cfa_offset 0
 325              		.loc 1 110 0
 326 005c FFF7FEBF 		b	gptStartContinuous
 327              	.LVL17:
 328              	.L21:
 329              		.cfi_restore_state
 330              		.loc 1 112 0
 331 0060 FFF7FEFF 		bl	__stack_chk_fail
 332              	.LVL18:
 333              	.L24:
 334              		.align	2
 335              	.L23:
 336 0064 00000000 		.word	.LANCHOR3
 337 0068 00000000 		.word	__stack_chk_guard
 338 006c 00000000 		.word	GPTD6
 339 0070 00BD0105 		.word	84000000
 340 0074 000C0240 		.word	1073875968
 341 0078 00000000 		.word	.LANCHOR4
 342 007c 00000000 		.word	.LANCHOR0
ARM GAS  C:\Users\mathi\AppData\Local\Temp\ccNdMgiQ.s 			page 7


 343 0080 00000000 		.word	DACD2
 344              		.cfi_endproc
 345              	.LFE258:
 346              		.size	dac_play, .-dac_play
 347              		.section	.text.dac_play_buffer,"ax",%progbits
 348              		.align	1
 349              		.p2align 4,,15
 350              		.global	dac_play_buffer
 351              		.syntax unified
 352              		.thumb
 353              		.thumb_func
 354              		.fpu fpv4-sp-d16
 355              		.type	dac_play_buffer, %function
 356              	dac_play_buffer:
 357              	.LFB259:
 358              		.loc 1 116 0
 359              		.cfi_startproc
 360              		@ args = 0, pretend = 0, frame = 8
 361              		@ frame_needed = 0, uses_anonymous_args = 0
 362              	.LVL19:
 363 0000 F0B5     		push	{r4, r5, r6, r7, lr}
 364              		.cfi_def_cfa_offset 20
 365              		.cfi_offset 4, -20
 366              		.cfi_offset 5, -16
 367              		.cfi_offset 6, -12
 368              		.cfi_offset 7, -8
 369              		.cfi_offset 14, -4
 370              		.loc 1 117 0
 371 0002 1A4D     		ldr	r5, .L33
 372              		.loc 1 116 0
 373 0004 1A4C     		ldr	r4, .L33+4
 374              		.loc 1 117 0
 375 0006 2E78     		ldrb	r6, [r5]	@ zero_extendqisi2
 376              		.loc 1 116 0
 377 0008 2768     		ldr	r7, [r4]
 378 000a 83B0     		sub	sp, sp, #12
 379              		.cfi_def_cfa_offset 32
 380              		.loc 1 116 0
 381 000c 0197     		str	r7, [sp, #4]
 382 000e 1746     		mov	r7, r2
 383              		.loc 1 117 0
 384 0010 66B1     		cbz	r6, .L32
 385              		.loc 1 124 0
 386 0012 019A     		ldr	r2, [sp, #4]
 387              	.LVL20:
 388 0014 2368     		ldr	r3, [r4]
 389              	.LVL21:
 390 0016 9A42     		cmp	r2, r3
 391 0018 26D1     		bne	.L31
 392 001a 1648     		ldr	r0, .L33+8
 393              	.LVL22:
 394 001c 1649     		ldr	r1, .L33+12
 395              	.LVL23:
 396 001e B1FBF7F1 		udiv	r1, r1, r7
 397              		.loc 1 126 0
 398 0022 03B0     		add	sp, sp, #12
 399              		.cfi_remember_state
ARM GAS  C:\Users\mathi\AppData\Local\Temp\ccNdMgiQ.s 			page 8


 400              		.cfi_def_cfa_offset 20
 401              		@ sp needed
 402 0024 BDE8F040 		pop	{r4, r5, r6, r7, lr}
 403              		.cfi_restore 14
 404              		.cfi_restore 7
 405              		.cfi_restore 6
 406              		.cfi_restore 5
 407              		.cfi_restore 4
 408              		.cfi_def_cfa_offset 0
 409              	.LVL24:
 410              		.loc 1 124 0
 411 0028 FFF7FEBF 		b	gptChangeInterval
 412              	.LVL25:
 413              	.L32:
 414              		.cfi_restore_state
 415              		.loc 1 119 0
 416 002c 134E     		ldr	r6, .L33+16
 417              	.LBB28:
 418              	.LBB29:
 419              		.loc 1 153 0
 420 002e DFF854C0 		ldr	ip, .L33+24
 421              	.LBE29:
 422              	.LBE28:
 423              		.loc 1 119 0
 424 0032 7360     		str	r3, [r6, #4]
 425              	.LVL26:
 426              		.loc 1 121 0
 427 0034 0246     		mov	r2, r0
 428              	.LVL27:
 429              		.loc 1 118 0
 430 0036 4FF0010E 		mov	lr, #1
 431              	.LBB32:
 432              	.LBB30:
 433              		.loc 1 153 0
 434 003a 8020     		movs	r0, #128
 435              	.LVL28:
 436              	.LBE30:
 437              	.LBE32:
 438              		.loc 1 121 0
 439 003c 0B46     		mov	r3, r1
 440              	.LVL29:
 441              		.loc 1 118 0
 442 003e 85F800E0 		strb	lr, [r5]
 443              		.loc 1 121 0
 444 0042 3146     		mov	r1, r6
 445              	.LVL30:
 446              	.LBB33:
 447              	.LBB31:
 448              		.loc 1 153 0
 449 0044 ACF81A00 		strh	r0, [ip, #26]	@ movhi
 450              	.LVL31:
 451              	.LBE31:
 452              	.LBE33:
 453              		.loc 1 121 0
 454 0048 0D48     		ldr	r0, .L33+20
 455 004a FFF7FEFF 		bl	dacStartConversion
 456              	.LVL32:
ARM GAS  C:\Users\mathi\AppData\Local\Temp\ccNdMgiQ.s 			page 9


 457              		.loc 1 122 0
 458 004e 019A     		ldr	r2, [sp, #4]
 459 0050 2368     		ldr	r3, [r4]
 460 0052 9A42     		cmp	r2, r3
 461 0054 08D1     		bne	.L31
 462 0056 0748     		ldr	r0, .L33+8
 463 0058 0749     		ldr	r1, .L33+12
 464 005a B1FBF7F1 		udiv	r1, r1, r7
 465              		.loc 1 126 0
 466 005e 03B0     		add	sp, sp, #12
 467              		.cfi_remember_state
 468              		.cfi_def_cfa_offset 20
 469              		@ sp needed
 470 0060 BDE8F040 		pop	{r4, r5, r6, r7, lr}
 471              		.cfi_restore 14
 472              		.cfi_restore 7
 473              		.cfi_restore 6
 474              		.cfi_restore 5
 475              		.cfi_restore 4
 476              		.cfi_def_cfa_offset 0
 477              	.LVL33:
 478              		.loc 1 122 0
 479 0064 FFF7FEBF 		b	gptStartContinuous
 480              	.LVL34:
 481              	.L31:
 482              		.cfi_restore_state
 483              		.loc 1 124 0
 484 0068 FFF7FEFF 		bl	__stack_chk_fail
 485              	.LVL35:
 486              	.L34:
 487              		.align	2
 488              	.L33:
 489 006c 00000000 		.word	.LANCHOR3
 490 0070 00000000 		.word	__stack_chk_guard
 491 0074 00000000 		.word	GPTD6
 492 0078 00BD0105 		.word	84000000
 493 007c 00000000 		.word	.LANCHOR0
 494 0080 00000000 		.word	DACD2
 495 0084 000C0240 		.word	1073875968
 496              		.cfi_endproc
 497              	.LFE259:
 498              		.size	dac_play_buffer, .-dac_play_buffer
 499              		.section	.text.dac_change_bufferI,"ax",%progbits
 500              		.align	1
 501              		.p2align 4,,15
 502              		.global	dac_change_bufferI
 503              		.syntax unified
 504              		.thumb
 505              		.thumb_func
 506              		.fpu fpv4-sp-d16
 507              		.type	dac_change_bufferI, %function
 508              	dac_change_bufferI:
 509              	.LFB260:
 510              		.loc 1 128 0
 511              		.cfi_startproc
 512              		@ args = 0, pretend = 0, frame = 8
 513              		@ frame_needed = 0, uses_anonymous_args = 0
ARM GAS  C:\Users\mathi\AppData\Local\Temp\ccNdMgiQ.s 			page 10


 514              	.LVL36:
 515 0000 F0B5     		push	{r4, r5, r6, r7, lr}
 516              		.cfi_def_cfa_offset 20
 517              		.cfi_offset 4, -20
 518              		.cfi_offset 5, -16
 519              		.cfi_offset 6, -12
 520              		.cfi_offset 7, -8
 521              		.cfi_offset 14, -4
 522 0002 114C     		ldr	r4, .L40
 523 0004 83B0     		sub	sp, sp, #12
 524              		.cfi_def_cfa_offset 32
 525              		.loc 1 128 0
 526 0006 2368     		ldr	r3, [r4]
 527 0008 0193     		str	r3, [sp, #4]
 528 000a 0546     		mov	r5, r0
 529              		.loc 1 129 0
 530 000c 0F48     		ldr	r0, .L40+4
 531              	.LVL37:
 532              		.loc 1 128 0
 533 000e 0E46     		mov	r6, r1
 534 0010 1746     		mov	r7, r2
 535              		.loc 1 129 0
 536 0012 FFF7FEFF 		bl	gptStopTimerI
 537              	.LVL38:
 538              		.loc 1 130 0
 539 0016 0E48     		ldr	r0, .L40+8
 540 0018 FFF7FEFF 		bl	dacStopConversionI
 541              	.LVL39:
 542              		.loc 1 132 0
 543 001c 3346     		mov	r3, r6
 544 001e 2A46     		mov	r2, r5
 545 0020 0C49     		ldr	r1, .L40+12
 546 0022 0B48     		ldr	r0, .L40+8
 547 0024 FFF7FEFF 		bl	dacStartConversionI
 548              	.LVL40:
 549              		.loc 1 133 0
 550 0028 019A     		ldr	r2, [sp, #4]
 551 002a 2368     		ldr	r3, [r4]
 552 002c 9A42     		cmp	r2, r3
 553 002e 08D1     		bne	.L39
 554 0030 0648     		ldr	r0, .L40+4
 555 0032 0949     		ldr	r1, .L40+16
 556 0034 B1FBF7F1 		udiv	r1, r1, r7
 557              		.loc 1 135 0
 558 0038 03B0     		add	sp, sp, #12
 559              		.cfi_remember_state
 560              		.cfi_def_cfa_offset 20
 561              		@ sp needed
 562 003a BDE8F040 		pop	{r4, r5, r6, r7, lr}
 563              		.cfi_restore 14
 564              		.cfi_restore 7
 565              		.cfi_restore 6
 566              		.cfi_restore 5
 567              		.cfi_restore 4
 568              		.cfi_def_cfa_offset 0
 569              	.LVL41:
 570              		.loc 1 133 0
ARM GAS  C:\Users\mathi\AppData\Local\Temp\ccNdMgiQ.s 			page 11


 571 003e FFF7FEBF 		b	gptStartContinuousI
 572              	.LVL42:
 573              	.L39:
 574              		.cfi_restore_state
 575 0042 FFF7FEFF 		bl	__stack_chk_fail
 576              	.LVL43:
 577              	.L41:
 578 0046 00BF     		.align	2
 579              	.L40:
 580 0048 00000000 		.word	__stack_chk_guard
 581 004c 00000000 		.word	GPTD6
 582 0050 00000000 		.word	DACD2
 583 0054 00000000 		.word	.LANCHOR0
 584 0058 00BD0105 		.word	84000000
 585              		.cfi_endproc
 586              	.LFE260:
 587              		.size	dac_change_bufferI, .-dac_change_bufferI
 588              		.section	.text.dac_stopI,"ax",%progbits
 589              		.align	1
 590              		.p2align 4,,15
 591              		.global	dac_stopI
 592              		.syntax unified
 593              		.thumb
 594              		.thumb_func
 595              		.fpu fpv4-sp-d16
 596              		.type	dac_stopI, %function
 597              	dac_stopI:
 598              	.LFB261:
 599              		.loc 1 137 0
 600              		.cfi_startproc
 601              		@ args = 0, pretend = 0, frame = 8
 602              		@ frame_needed = 0, uses_anonymous_args = 0
 603 0000 10B5     		push	{r4, lr}
 604              		.cfi_def_cfa_offset 8
 605              		.cfi_offset 4, -8
 606              		.cfi_offset 14, -4
 607 0002 0C4C     		ldr	r4, .L46
 608              	.LBB34:
 609              	.LBB35:
 610              		.loc 1 155 0
 611 0004 0C4B     		ldr	r3, .L46+4
 612              	.LBE35:
 613              	.LBE34:
 614              		.loc 1 137 0
 615 0006 2268     		ldr	r2, [r4]
 616              		.loc 1 139 0
 617 0008 0C48     		ldr	r0, .L46+8
 618              		.loc 1 137 0
 619 000a 82B0     		sub	sp, sp, #8
 620              		.cfi_def_cfa_offset 16
 621              		.loc 1 137 0
 622 000c 0192     		str	r2, [sp, #4]
 623              	.LVL44:
 624              	.LBB37:
 625              	.LBB36:
 626              		.loc 1 155 0
 627 000e 8022     		movs	r2, #128
ARM GAS  C:\Users\mathi\AppData\Local\Temp\ccNdMgiQ.s 			page 12


 628 0010 1A83     		strh	r2, [r3, #24]	@ movhi
 629              	.LVL45:
 630              	.LBE36:
 631              	.LBE37:
 632              		.loc 1 139 0
 633 0012 FFF7FEFF 		bl	gptStopTimerI
 634              	.LVL46:
 635              		.loc 1 140 0
 636 0016 0A48     		ldr	r0, .L46+12
 637 0018 FFF7FEFF 		bl	dacStopConversionI
 638              	.LVL47:
 639              		.loc 1 142 0
 640 001c 019A     		ldr	r2, [sp, #4]
 641 001e 2368     		ldr	r3, [r4]
 642              		.loc 1 141 0
 643 0020 0849     		ldr	r1, .L46+16
 644 0022 0020     		movs	r0, #0
 645              		.loc 1 142 0
 646 0024 9A42     		cmp	r2, r3
 647              		.loc 1 141 0
 648 0026 0870     		strb	r0, [r1]
 649              		.loc 1 142 0
 650 0028 01D1     		bne	.L45
 651 002a 02B0     		add	sp, sp, #8
 652              		.cfi_remember_state
 653              		.cfi_def_cfa_offset 8
 654              		@ sp needed
 655 002c 10BD     		pop	{r4, pc}
 656              	.L45:
 657              		.cfi_restore_state
 658 002e FFF7FEFF 		bl	__stack_chk_fail
 659              	.LVL48:
 660              	.L47:
 661 0032 00BF     		.align	2
 662              	.L46:
 663 0034 00000000 		.word	__stack_chk_guard
 664 0038 000C0240 		.word	1073875968
 665 003c 00000000 		.word	GPTD6
 666 0040 00000000 		.word	DACD2
 667 0044 00000000 		.word	.LANCHOR3
 668              		.cfi_endproc
 669              	.LFE261:
 670              		.size	dac_stopI, .-dac_stopI
 671              		.section	.text.dac_stop,"ax",%progbits
 672              		.align	1
 673              		.p2align 4,,15
 674              		.global	dac_stop
 675              		.syntax unified
 676              		.thumb
 677              		.thumb_func
 678              		.fpu fpv4-sp-d16
 679              		.type	dac_stop, %function
 680              	dac_stop:
 681              	.LFB262:
 682              		.loc 1 144 0
 683              		.cfi_startproc
 684              		@ args = 0, pretend = 0, frame = 8
ARM GAS  C:\Users\mathi\AppData\Local\Temp\ccNdMgiQ.s 			page 13


 685              		@ frame_needed = 0, uses_anonymous_args = 0
 686 0000 10B5     		push	{r4, lr}
 687              		.cfi_def_cfa_offset 8
 688              		.cfi_offset 4, -8
 689              		.cfi_offset 14, -4
 690 0002 0C4C     		ldr	r4, .L52
 691              	.LBB38:
 692              	.LBB39:
 693              		.loc 1 155 0
 694 0004 0C4B     		ldr	r3, .L52+4
 695              	.LBE39:
 696              	.LBE38:
 697              		.loc 1 144 0
 698 0006 2268     		ldr	r2, [r4]
 699              		.loc 1 146 0
 700 0008 0C48     		ldr	r0, .L52+8
 701              		.loc 1 144 0
 702 000a 82B0     		sub	sp, sp, #8
 703              		.cfi_def_cfa_offset 16
 704              		.loc 1 144 0
 705 000c 0192     		str	r2, [sp, #4]
 706              	.LVL49:
 707              	.LBB41:
 708              	.LBB40:
 709              		.loc 1 155 0
 710 000e 8022     		movs	r2, #128
 711 0010 1A83     		strh	r2, [r3, #24]	@ movhi
 712              	.LVL50:
 713              	.LBE40:
 714              	.LBE41:
 715              		.loc 1 146 0
 716 0012 FFF7FEFF 		bl	gptStopTimer
 717              	.LVL51:
 718              		.loc 1 147 0
 719 0016 0A48     		ldr	r0, .L52+12
 720 0018 FFF7FEFF 		bl	dacStopConversion
 721              	.LVL52:
 722              		.loc 1 149 0
 723 001c 019A     		ldr	r2, [sp, #4]
 724 001e 2368     		ldr	r3, [r4]
 725              		.loc 1 148 0
 726 0020 0849     		ldr	r1, .L52+16
 727 0022 0020     		movs	r0, #0
 728              		.loc 1 149 0
 729 0024 9A42     		cmp	r2, r3
 730              		.loc 1 148 0
 731 0026 0870     		strb	r0, [r1]
 732              		.loc 1 149 0
 733 0028 01D1     		bne	.L51
 734 002a 02B0     		add	sp, sp, #8
 735              		.cfi_remember_state
 736              		.cfi_def_cfa_offset 8
 737              		@ sp needed
 738 002c 10BD     		pop	{r4, pc}
 739              	.L51:
 740              		.cfi_restore_state
 741 002e FFF7FEFF 		bl	__stack_chk_fail
ARM GAS  C:\Users\mathi\AppData\Local\Temp\ccNdMgiQ.s 			page 14


 742              	.LVL53:
 743              	.L53:
 744 0032 00BF     		.align	2
 745              	.L52:
 746 0034 00000000 		.word	__stack_chk_guard
 747 0038 000C0240 		.word	1073875968
 748 003c 00000000 		.word	GPTD6
 749 0040 00000000 		.word	DACD2
 750 0044 00000000 		.word	.LANCHOR3
 751              		.cfi_endproc
 752              	.LFE262:
 753              		.size	dac_stop, .-dac_stop
 754              		.section	.text.dac_power_speaker,"ax",%progbits
 755              		.align	1
 756              		.p2align 4,,15
 757              		.global	dac_power_speaker
 758              		.syntax unified
 759              		.thumb
 760              		.thumb_func
 761              		.fpu fpv4-sp-d16
 762              		.type	dac_power_speaker, %function
 763              	dac_power_speaker:
 764              	.LFB263:
 765              		.loc 1 151 0
 766              		.cfi_startproc
 767              		@ args = 0, pretend = 0, frame = 8
 768              		@ frame_needed = 0, uses_anonymous_args = 0
 769              	.LVL54:
 770 0000 00B5     		push	{lr}
 771              		.cfi_def_cfa_offset 4
 772              		.cfi_offset 14, -4
 773 0002 094B     		ldr	r3, .L61
 774 0004 83B0     		sub	sp, sp, #12
 775              		.cfi_def_cfa_offset 16
 776              		.loc 1 151 0
 777 0006 1A68     		ldr	r2, [r3]
 778 0008 0192     		str	r2, [sp, #4]
 779              		.loc 1 153 0
 780 000a 8021     		movs	r1, #128
 781 000c 074A     		ldr	r2, .L61+4
 782              		.loc 1 152 0
 783 000e 38B9     		cbnz	r0, .L59
 784              		.loc 1 155 0
 785 0010 1183     		strh	r1, [r2, #24]	@ movhi
 786              	.L54:
 787              		.loc 1 157 0
 788 0012 019A     		ldr	r2, [sp, #4]
 789 0014 1B68     		ldr	r3, [r3]
 790 0016 9A42     		cmp	r2, r3
 791 0018 04D1     		bne	.L60
 792 001a 03B0     		add	sp, sp, #12
 793              		.cfi_remember_state
 794              		.cfi_def_cfa_offset 4
 795              		@ sp needed
 796 001c 5DF804FB 		ldr	pc, [sp], #4
 797              	.L59:
 798              		.cfi_restore_state
ARM GAS  C:\Users\mathi\AppData\Local\Temp\ccNdMgiQ.s 			page 15


 799              		.loc 1 153 0
 800 0020 5183     		strh	r1, [r2, #26]	@ movhi
 801 0022 F6E7     		b	.L54
 802              	.L60:
 803              		.loc 1 157 0
 804 0024 FFF7FEFF 		bl	__stack_chk_fail
 805              	.LVL55:
 806              	.L62:
 807              		.align	2
 808              	.L61:
 809 0028 00000000 		.word	__stack_chk_guard
 810 002c 000C0240 		.word	1073875968
 811              		.cfi_endproc
 812              	.LFE263:
 813              		.size	dac_power_speaker, .-dac_power_speaker
 814              		.section	.bss.config.9869,"aw",%nobits
 815              		.align	2
 816              		.set	.LANCHOR2,. + 0
 817              		.type	config.9869, %object
 818              		.size	config.9869, 16
 819              	config.9869:
 820 0000 00000000 		.space	16
 820      00000000 
 820      00000000 
 820      00000000 
 821              		.section	.bss.dac_config.9868,"aw",%nobits
 822              		.align	2
 823              		.set	.LANCHOR1,. + 0
 824              		.type	dac_config.9868, %object
 825              		.size	dac_config.9868, 4
 826              	dac_config.9868:
 827 0000 00000000 		.space	4
 828              		.section	.bss.dac_conversion,"aw",%nobits
 829              		.align	2
 830              		.set	.LANCHOR0,. + 0
 831              		.type	dac_conversion, %object
 832              		.size	dac_conversion, 16
 833              	dac_conversion:
 834 0000 00000000 		.space	16
 834      00000000 
 834      00000000 
 834      00000000 
 835              		.section	.bss.dac_state,"aw",%nobits
 836              		.set	.LANCHOR3,. + 0
 837              		.type	dac_state, %object
 838              		.size	dac_state, 1
 839              	dac_state:
 840 0000 00       		.space	1
 841              		.section	.rodata.error_cb.str1.4,"aMS",%progbits,1
 842              		.align	2
 843              	.LC0:
 844 0000 44414320 		.ascii	"DAC failure\000"
 844      6661696C 
 844      75726500 
 845              		.section	.rodata.sinus_buffer,"a",%progbits
 846              		.align	2
 847              		.set	.LANCHOR4,. + 0
ARM GAS  C:\Users\mathi\AppData\Local\Temp\ccNdMgiQ.s 			page 16


 848              		.type	sinus_buffer, %object
 849              		.size	sinus_buffer, 720
 850              	sinus_buffer:
 851 0000 FF07     		.short	2047
 852 0002 2208     		.short	2082
 853 0004 4608     		.short	2118
 854 0006 6A08     		.short	2154
 855 0008 8D08     		.short	2189
 856 000a B108     		.short	2225
 857 000c D408     		.short	2260
 858 000e F808     		.short	2296
 859 0010 1B09     		.short	2331
 860 0012 3F09     		.short	2367
 861 0014 6209     		.short	2402
 862 0016 8509     		.short	2437
 863 0018 A809     		.short	2472
 864 001a CB09     		.short	2507
 865 001c EE09     		.short	2542
 866 001e 100A     		.short	2576
 867 0020 330A     		.short	2611
 868 0022 550A     		.short	2645
 869 0024 770A     		.short	2679
 870 0026 990A     		.short	2713
 871 0028 BB0A     		.short	2747
 872 002a DC0A     		.short	2780
 873 002c FD0A     		.short	2813
 874 002e 1E0B     		.short	2846
 875 0030 3F0B     		.short	2879
 876 0032 600B     		.short	2912
 877 0034 800B     		.short	2944
 878 0036 A00B     		.short	2976
 879 0038 C00B     		.short	3008
 880 003a DF0B     		.short	3039
 881 003c FE0B     		.short	3070
 882 003e 1D0C     		.short	3101
 883 0040 3B0C     		.short	3131
 884 0042 590C     		.short	3161
 885 0044 770C     		.short	3191
 886 0046 950C     		.short	3221
 887 0048 B20C     		.short	3250
 888 004a CE0C     		.short	3278
 889 004c EB0C     		.short	3307
 890 004e 070D     		.short	3335
 891 0050 220D     		.short	3362
 892 0052 3D0D     		.short	3389
 893 0054 580D     		.short	3416
 894 0056 730D     		.short	3443
 895 0058 8C0D     		.short	3468
 896 005a A60D     		.short	3494
 897 005c BF0D     		.short	3519
 898 005e D80D     		.short	3544
 899 0060 F00D     		.short	3568
 900 0062 070E     		.short	3591
 901 0064 1F0E     		.short	3615
 902 0066 350E     		.short	3637
 903 0068 4C0E     		.short	3660
 904 006a 610E     		.short	3681
ARM GAS  C:\Users\mathi\AppData\Local\Temp\ccNdMgiQ.s 			page 17


 905 006c 770E     		.short	3703
 906 006e 8B0E     		.short	3723
 907 0070 A00E     		.short	3744
 908 0072 B30E     		.short	3763
 909 0074 C60E     		.short	3782
 910 0076 D90E     		.short	3801
 911 0078 EB0E     		.short	3819
 912 007a FD0E     		.short	3837
 913 007c 0E0F     		.short	3854
 914 007e 1E0F     		.short	3870
 915 0080 2E0F     		.short	3886
 916 0082 3E0F     		.short	3902
 917 0084 4D0F     		.short	3917
 918 0086 5B0F     		.short	3931
 919 0088 680F     		.short	3944
 920 008a 760F     		.short	3958
 921 008c 820F     		.short	3970
 922 008e 8E0F     		.short	3982
 923 0090 990F     		.short	3993
 924 0092 A40F     		.short	4004
 925 0094 AE0F     		.short	4014
 926 0096 B80F     		.short	4024
 927 0098 C10F     		.short	4033
 928 009a C90F     		.short	4041
 929 009c D10F     		.short	4049
 930 009e D80F     		.short	4056
 931 00a0 DE0F     		.short	4062
 932 00a2 E40F     		.short	4068
 933 00a4 EA0F     		.short	4074
 934 00a6 EE0F     		.short	4078
 935 00a8 F20F     		.short	4082
 936 00aa F60F     		.short	4086
 937 00ac F90F     		.short	4089
 938 00ae FB0F     		.short	4091
 939 00b0 FC0F     		.short	4092
 940 00b2 FD0F     		.short	4093
 941 00b4 FE0F     		.short	4094
 942 00b6 FD0F     		.short	4093
 943 00b8 FC0F     		.short	4092
 944 00ba FB0F     		.short	4091
 945 00bc F90F     		.short	4089
 946 00be F60F     		.short	4086
 947 00c0 F20F     		.short	4082
 948 00c2 EE0F     		.short	4078
 949 00c4 EA0F     		.short	4074
 950 00c6 E40F     		.short	4068
 951 00c8 DE0F     		.short	4062
 952 00ca D80F     		.short	4056
 953 00cc D10F     		.short	4049
 954 00ce C90F     		.short	4041
 955 00d0 C10F     		.short	4033
 956 00d2 B80F     		.short	4024
 957 00d4 AE0F     		.short	4014
 958 00d6 A40F     		.short	4004
 959 00d8 990F     		.short	3993
 960 00da 8E0F     		.short	3982
 961 00dc 820F     		.short	3970
ARM GAS  C:\Users\mathi\AppData\Local\Temp\ccNdMgiQ.s 			page 18


 962 00de 760F     		.short	3958
 963 00e0 680F     		.short	3944
 964 00e2 5B0F     		.short	3931
 965 00e4 4D0F     		.short	3917
 966 00e6 3E0F     		.short	3902
 967 00e8 2E0F     		.short	3886
 968 00ea 1E0F     		.short	3870
 969 00ec 0E0F     		.short	3854
 970 00ee FD0E     		.short	3837
 971 00f0 EB0E     		.short	3819
 972 00f2 D90E     		.short	3801
 973 00f4 C60E     		.short	3782
 974 00f6 B30E     		.short	3763
 975 00f8 A00E     		.short	3744
 976 00fa 8B0E     		.short	3723
 977 00fc 770E     		.short	3703
 978 00fe 610E     		.short	3681
 979 0100 4C0E     		.short	3660
 980 0102 350E     		.short	3637
 981 0104 1F0E     		.short	3615
 982 0106 070E     		.short	3591
 983 0108 F00D     		.short	3568
 984 010a D80D     		.short	3544
 985 010c BF0D     		.short	3519
 986 010e A60D     		.short	3494
 987 0110 8C0D     		.short	3468
 988 0112 730D     		.short	3443
 989 0114 580D     		.short	3416
 990 0116 3D0D     		.short	3389
 991 0118 220D     		.short	3362
 992 011a 070D     		.short	3335
 993 011c EB0C     		.short	3307
 994 011e CE0C     		.short	3278
 995 0120 B20C     		.short	3250
 996 0122 950C     		.short	3221
 997 0124 770C     		.short	3191
 998 0126 590C     		.short	3161
 999 0128 3B0C     		.short	3131
 1000 012a 1D0C     		.short	3101
 1001 012c FE0B     		.short	3070
 1002 012e DF0B     		.short	3039
 1003 0130 C00B     		.short	3008
 1004 0132 A00B     		.short	2976
 1005 0134 800B     		.short	2944
 1006 0136 600B     		.short	2912
 1007 0138 3F0B     		.short	2879
 1008 013a 1E0B     		.short	2846
 1009 013c FD0A     		.short	2813
 1010 013e DC0A     		.short	2780
 1011 0140 BB0A     		.short	2747
 1012 0142 990A     		.short	2713
 1013 0144 770A     		.short	2679
 1014 0146 550A     		.short	2645
 1015 0148 330A     		.short	2611
 1016 014a 100A     		.short	2576
 1017 014c EE09     		.short	2542
 1018 014e CB09     		.short	2507
ARM GAS  C:\Users\mathi\AppData\Local\Temp\ccNdMgiQ.s 			page 19


 1019 0150 A809     		.short	2472
 1020 0152 8509     		.short	2437
 1021 0154 6209     		.short	2402
 1022 0156 3F09     		.short	2367
 1023 0158 1B09     		.short	2331
 1024 015a F808     		.short	2296
 1025 015c D408     		.short	2260
 1026 015e B108     		.short	2225
 1027 0160 8D08     		.short	2189
 1028 0162 6A08     		.short	2154
 1029 0164 4608     		.short	2118
 1030 0166 2208     		.short	2082
 1031 0168 FF07     		.short	2047
 1032 016a DC07     		.short	2012
 1033 016c B807     		.short	1976
 1034 016e 9407     		.short	1940
 1035 0170 7107     		.short	1905
 1036 0172 4D07     		.short	1869
 1037 0174 2A07     		.short	1834
 1038 0176 0607     		.short	1798
 1039 0178 E306     		.short	1763
 1040 017a BF06     		.short	1727
 1041 017c 9C06     		.short	1692
 1042 017e 7906     		.short	1657
 1043 0180 5606     		.short	1622
 1044 0182 3306     		.short	1587
 1045 0184 1006     		.short	1552
 1046 0186 EE05     		.short	1518
 1047 0188 CB05     		.short	1483
 1048 018a A905     		.short	1449
 1049 018c 8705     		.short	1415
 1050 018e 6505     		.short	1381
 1051 0190 4305     		.short	1347
 1052 0192 2205     		.short	1314
 1053 0194 0105     		.short	1281
 1054 0196 E004     		.short	1248
 1055 0198 BF04     		.short	1215
 1056 019a 9E04     		.short	1182
 1057 019c 7E04     		.short	1150
 1058 019e 5E04     		.short	1118
 1059 01a0 3E04     		.short	1086
 1060 01a2 1F04     		.short	1055
 1061 01a4 0004     		.short	1024
 1062 01a6 E103     		.short	993
 1063 01a8 C303     		.short	963
 1064 01aa A503     		.short	933
 1065 01ac 8703     		.short	903
 1066 01ae 6903     		.short	873
 1067 01b0 4C03     		.short	844
 1068 01b2 3003     		.short	816
 1069 01b4 1303     		.short	787
 1070 01b6 F702     		.short	759
 1071 01b8 DC02     		.short	732
 1072 01ba C102     		.short	705
 1073 01bc A602     		.short	678
 1074 01be 8B02     		.short	651
 1075 01c0 7202     		.short	626
ARM GAS  C:\Users\mathi\AppData\Local\Temp\ccNdMgiQ.s 			page 20


 1076 01c2 5802     		.short	600
 1077 01c4 3F02     		.short	575
 1078 01c6 2602     		.short	550
 1079 01c8 0E02     		.short	526
 1080 01ca F701     		.short	503
 1081 01cc DF01     		.short	479
 1082 01ce C901     		.short	457
 1083 01d0 B201     		.short	434
 1084 01d2 9D01     		.short	413
 1085 01d4 8701     		.short	391
 1086 01d6 7301     		.short	371
 1087 01d8 5E01     		.short	350
 1088 01da 4B01     		.short	331
 1089 01dc 3801     		.short	312
 1090 01de 2501     		.short	293
 1091 01e0 1301     		.short	275
 1092 01e2 0101     		.short	257
 1093 01e4 F000     		.short	240
 1094 01e6 E000     		.short	224
 1095 01e8 D000     		.short	208
 1096 01ea C000     		.short	192
 1097 01ec B100     		.short	177
 1098 01ee A300     		.short	163
 1099 01f0 9600     		.short	150
 1100 01f2 8800     		.short	136
 1101 01f4 7C00     		.short	124
 1102 01f6 7000     		.short	112
 1103 01f8 6500     		.short	101
 1104 01fa 5A00     		.short	90
 1105 01fc 5000     		.short	80
 1106 01fe 4600     		.short	70
 1107 0200 3D00     		.short	61
 1108 0202 3500     		.short	53
 1109 0204 2D00     		.short	45
 1110 0206 2600     		.short	38
 1111 0208 2000     		.short	32
 1112 020a 1A00     		.short	26
 1113 020c 1400     		.short	20
 1114 020e 1000     		.short	16
 1115 0210 0C00     		.short	12
 1116 0212 0800     		.short	8
 1117 0214 0500     		.short	5
 1118 0216 0300     		.short	3
 1119 0218 0200     		.short	2
 1120 021a 0100     		.short	1
 1121 021c 0000     		.short	0
 1122 021e 0100     		.short	1
 1123 0220 0200     		.short	2
 1124 0222 0300     		.short	3
 1125 0224 0500     		.short	5
 1126 0226 0800     		.short	8
 1127 0228 0C00     		.short	12
 1128 022a 1000     		.short	16
 1129 022c 1400     		.short	20
 1130 022e 1A00     		.short	26
 1131 0230 2000     		.short	32
 1132 0232 2600     		.short	38
ARM GAS  C:\Users\mathi\AppData\Local\Temp\ccNdMgiQ.s 			page 21


 1133 0234 2D00     		.short	45
 1134 0236 3500     		.short	53
 1135 0238 3D00     		.short	61
 1136 023a 4600     		.short	70
 1137 023c 5000     		.short	80
 1138 023e 5A00     		.short	90
 1139 0240 6500     		.short	101
 1140 0242 7000     		.short	112
 1141 0244 7C00     		.short	124
 1142 0246 8800     		.short	136
 1143 0248 9600     		.short	150
 1144 024a A300     		.short	163
 1145 024c B100     		.short	177
 1146 024e C000     		.short	192
 1147 0250 D000     		.short	208
 1148 0252 E000     		.short	224
 1149 0254 F000     		.short	240
 1150 0256 0101     		.short	257
 1151 0258 1301     		.short	275
 1152 025a 2501     		.short	293
 1153 025c 3801     		.short	312
 1154 025e 4B01     		.short	331
 1155 0260 5E01     		.short	350
 1156 0262 7301     		.short	371
 1157 0264 8701     		.short	391
 1158 0266 9D01     		.short	413
 1159 0268 B201     		.short	434
 1160 026a C901     		.short	457
 1161 026c DF01     		.short	479
 1162 026e F701     		.short	503
 1163 0270 0E02     		.short	526
 1164 0272 2602     		.short	550
 1165 0274 3F02     		.short	575
 1166 0276 5802     		.short	600
 1167 0278 7202     		.short	626
 1168 027a 8B02     		.short	651
 1169 027c A602     		.short	678
 1170 027e C102     		.short	705
 1171 0280 DC02     		.short	732
 1172 0282 F702     		.short	759
 1173 0284 1303     		.short	787
 1174 0286 3003     		.short	816
 1175 0288 4C03     		.short	844
 1176 028a 6903     		.short	873
 1177 028c 8703     		.short	903
 1178 028e A503     		.short	933
 1179 0290 C303     		.short	963
 1180 0292 E103     		.short	993
 1181 0294 0004     		.short	1024
 1182 0296 1F04     		.short	1055
 1183 0298 3E04     		.short	1086
 1184 029a 5E04     		.short	1118
 1185 029c 7E04     		.short	1150
 1186 029e 9E04     		.short	1182
 1187 02a0 BF04     		.short	1215
 1188 02a2 E004     		.short	1248
 1189 02a4 0105     		.short	1281
ARM GAS  C:\Users\mathi\AppData\Local\Temp\ccNdMgiQ.s 			page 22


 1190 02a6 2205     		.short	1314
 1191 02a8 4305     		.short	1347
 1192 02aa 6505     		.short	1381
 1193 02ac 8705     		.short	1415
 1194 02ae A905     		.short	1449
 1195 02b0 CB05     		.short	1483
 1196 02b2 EE05     		.short	1518
 1197 02b4 1006     		.short	1552
 1198 02b6 3306     		.short	1587
 1199 02b8 5606     		.short	1622
 1200 02ba 7906     		.short	1657
 1201 02bc 9C06     		.short	1692
 1202 02be BF06     		.short	1727
 1203 02c0 E306     		.short	1763
 1204 02c2 0607     		.short	1798
 1205 02c4 2A07     		.short	1834
 1206 02c6 4D07     		.short	1869
 1207 02c8 7107     		.short	1905
 1208 02ca 9407     		.short	1940
 1209 02cc B807     		.short	1976
 1210 02ce DC07     		.short	2012
 1211              		.text
 1212              	.Letext0:
 1213              		.file 2 "c:\\eclipse_e-puck2\\tools\\gcc-arm-none-eabi-7-2017-q4-major-win32\\lib\\gcc\\arm-none-e
 1214              		.file 3 "c:\\eclipse_e-puck2\\tools\\gcc-arm-none-eabi-7-2017-q4-major-win32\\arm-none-eabi\\inclu
 1215              		.file 4 "c:\\eclipse_e-puck2\\tools\\gcc-arm-none-eabi-7-2017-q4-major-win32\\arm-none-eabi\\inclu
 1216              		.file 5 "../../lib/e-puck2_main-processor/ChibiOS//os/rt/ports/ARMCMx/compilers/GCC/chtypes.h"
 1217              		.file 6 "../../lib/e-puck2_main-processor/ChibiOS//os/rt/include/chsystypes.h"
 1218              		.file 7 "../../lib/e-puck2_main-processor/ChibiOS//os/rt/include/chschd.h"
 1219              		.file 8 "../../lib/e-puck2_main-processor/ChibiOS//os/ext/CMSIS/include/core_cm4.h"
 1220              		.file 9 "../../lib/e-puck2_main-processor/ChibiOS//os/ext/CMSIS/ST/system_stm32f4xx.h"
 1221              		.file 10 "../../lib/e-puck2_main-processor/ChibiOS//os/ext/CMSIS/ST/stm32f407xx.h"
 1222              		.file 11 "../../lib/e-puck2_main-processor/ChibiOS//os/rt/ports/ARMCMx/chcore.h"
 1223              		.file 12 "../../lib/e-puck2_main-processor/ChibiOS//os/rt/ports/ARMCMx/chcore_v7m.h"
 1224              		.file 13 "../../lib/e-puck2_main-processor/ChibiOS//os/rt/include/chdebug.h"
 1225              		.file 14 "../../lib/e-puck2_main-processor/ChibiOS//os/rt/include/chtm.h"
 1226              		.file 15 "../../lib/e-puck2_main-processor/ChibiOS//os/rt/include/chstats.h"
 1227              		.file 16 "../../lib/e-puck2_main-processor/ChibiOS//os/rt/include/chsem.h"
 1228              		.file 17 "../../lib/e-puck2_main-processor/ChibiOS//os/rt/include/chmtx.h"
 1229              		.file 18 "../../lib/e-puck2_main-processor/ChibiOS//os/rt/include/chregistry.h"
 1230              		.file 19 "../../lib/e-puck2_main-processor/ChibiOS//os/rt/include/chevents.h"
 1231              		.file 20 "../../lib/e-puck2_main-processor/ChibiOS//os/rt/include/chqueues.h"
 1232              		.file 21 "../../lib/e-puck2_main-processor/ChibiOS//os/hal/ports/STM32/STM32F4xx/stm32_dma.h"
 1233              		.file 22 "../../lib/e-puck2_main-processor/ChibiOS//os/hal/include/hal_ioblock.h"
 1234              		.file 23 "../../lib/e-puck2_main-processor/ChibiOS//os/hal/ports/STM32/LLD/GPIOv2/pal_lld.h"
 1235              		.file 24 "../../lib/e-puck2_main-processor/ChibiOS//os/hal/include/adc.h"
 1236              		.file 25 "../../lib/e-puck2_main-processor/ChibiOS//os/hal/ports/STM32/STM32F4xx/adc_lld.h"
 1237              		.file 26 "../../lib/e-puck2_main-processor/ChibiOS//os/hal/include/can.h"
 1238              		.file 27 "../../lib/e-puck2_main-processor/ChibiOS//os/hal/ports/STM32/LLD/can_lld.h"
 1239              		.file 28 "../../lib/e-puck2_main-processor/ChibiOS//os/hal/include/dac.h"
 1240              		.file 29 "../../lib/e-puck2_main-processor/ChibiOS//os/hal/ports/STM32/LLD/DACv1/dac_lld.h"
 1241              		.file 30 "../../lib/e-puck2_main-processor/ChibiOS//os/hal/include/ext.h"
 1242              		.file 31 "../../lib/e-puck2_main-processor/ChibiOS//os/hal/ports/STM32/LLD/ext_lld.h"
 1243              		.file 32 "../../lib/e-puck2_main-processor/ChibiOS//os/hal/include/gpt.h"
 1244              		.file 33 "../../lib/e-puck2_main-processor/ChibiOS//os/hal/ports/STM32/LLD/TIMv1/gpt_lld.h"
 1245              		.file 34 "../../lib/e-puck2_main-processor/ChibiOS//os/hal/ports/STM32/LLD/TIMv1/stm32_tim.h"
 1246              		.file 35 "../../lib/e-puck2_main-processor/ChibiOS//os/hal/include/i2c.h"
ARM GAS  C:\Users\mathi\AppData\Local\Temp\ccNdMgiQ.s 			page 23


 1247              		.file 36 "../../lib/e-puck2_main-processor/ChibiOS//os/hal/ports/STM32/LLD/I2Cv1/i2c_lld.h"
 1248              		.file 37 "../../lib/e-puck2_main-processor/ChibiOS//os/hal/include/i2s.h"
 1249              		.file 38 "../../lib/e-puck2_main-processor/ChibiOS//os/hal/ports/STM32/LLD/SPIv1/i2s_lld.h"
 1250              		.file 39 "../../lib/e-puck2_main-processor/ChibiOS//os/hal/include/pwm.h"
 1251              		.file 40 "../../lib/e-puck2_main-processor/ChibiOS//os/hal/ports/STM32/LLD/TIMv1/pwm_lld.h"
 1252              		.file 41 "../../lib/e-puck2_main-processor/ChibiOS//os/hal/include/serial.h"
 1253              		.file 42 "../../lib/e-puck2_main-processor/ChibiOS//os/hal/ports/STM32/LLD/USARTv1/serial_lld.h"
 1254              		.file 43 "../../lib/e-puck2_main-processor/ChibiOS//os/hal/include/sdc.h"
 1255              		.file 44 "../../lib/e-puck2_main-processor/ChibiOS//os/hal/ports/STM32/LLD/sdc_lld.h"
 1256              		.file 45 "../../lib/e-puck2_main-processor/ChibiOS//os/hal/include/spi.h"
 1257              		.file 46 "../../lib/e-puck2_main-processor/ChibiOS//os/hal/ports/STM32/LLD/SPIv1/spi_lld.h"
 1258              		.file 47 "../../lib/e-puck2_main-processor/ChibiOS//os/hal/include/usb.h"
 1259              		.file 48 "../../lib/e-puck2_main-processor/ChibiOS//os/hal/ports/STM32/LLD/OTGv1/usb_lld.h"
 1260              		.file 49 "../../lib/e-puck2_main-processor/ChibiOS//os/hal/ports/STM32/LLD/OTGv1/stm32_otg.h"
 1261              		.file 50 "../../lib/e-puck2_main-processor/ChibiOS//os/rt/include/chsys.h"