ARM GAS  C:\Users\mathi\AppData\Local\Temp\cc6FoflA.s 			page 1


   1              		.cpu cortex-m4
   2              		.eabi_attribute 27, 1
   3              		.eabi_attribute 28, 1
   4              		.eabi_attribute 20, 1
   5              		.eabi_attribute 21, 1
   6              		.eabi_attribute 23, 3
   7              		.eabi_attribute 24, 1
   8              		.eabi_attribute 25, 1
   9              		.eabi_attribute 26, 1
  10              		.eabi_attribute 30, 2
  11              		.eabi_attribute 34, 1
  12              		.eabi_attribute 18, 4
  13              		.file	"can_lld.c"
  14              		.text
  15              	.Ltext0:
  16              		.cfi_sections	.debug_frame
  17              		.section	.text.Vector8C,"ax",%progbits
  18              		.align	1
  19              		.p2align 4,,15
  20              		.global	Vector8C
  21              		.syntax unified
  22              		.thumb
  23              		.thumb_func
  24              		.fpu fpv4-sp-d16
  25              		.type	Vector8C, %function
  26              	Vector8C:
  27              	.LFB261:
  28              		.file 1 "../../lib/e-puck2_main-processor/ChibiOS//os/hal/ports/STM32/LLD/can_lld.c"
  29              		.loc 1 292 0
  30              		.cfi_startproc
  31              		@ args = 0, pretend = 0, frame = 8
  32              		@ frame_needed = 0, uses_anonymous_args = 0
  33 0000 30B5     		push	{r4, r5, lr}
  34              		.cfi_def_cfa_offset 12
  35              		.cfi_offset 4, -12
  36              		.cfi_offset 5, -8
  37              		.cfi_offset 14, -4
  38 0002 184D     		ldr	r5, .L7
  39              	.LBB311:
  40              	.LBB312:
  41              		.loc 1 147 0
  42 0004 184C     		ldr	r4, .L7+4
  43              	.LBE312:
  44              	.LBE311:
  45              		.loc 1 292 0
  46 0006 2B68     		ldr	r3, [r5]
  47 0008 83B0     		sub	sp, sp, #12
  48              		.cfi_def_cfa_offset 24
  49              		.loc 1 292 0
  50 000a 0193     		str	r3, [sp, #4]
  51              		.loc 1 294 0
  52 000c FFF7FEFF 		bl	_stats_increase_irq
  53              	.LVL0:
  54 0010 FFF7FEFF 		bl	_dbg_check_enter_isr
  55              	.LVL1:
  56              	.LBB332:
  57              	.LBB331:
ARM GAS  C:\Users\mathi\AppData\Local\Temp\cc6FoflA.s 			page 2


  58              		.loc 1 147 0
  59 0014 E36A     		ldr	r3, [r4, #44]
  60 0016 154A     		ldr	r2, .L7+8
  61 0018 9A60     		str	r2, [r3, #8]
  62              	.LVL2:
  63              	.LBB313:
  64              	.LBB314:
  65              	.LBB315:
  66              	.LBB316:
  67              	.LBB317:
  68              	.LBB318:
  69              	.LBB319:
  70              		.file 2 "../../lib/e-puck2_main-processor/ChibiOS//os/ext/CMSIS/include/core_cmFunc.h"
  71              		.loc 2 546 0
  72 001a 2023     		movs	r3, #32
  73              		.syntax unified
  74              	@ 546 "../../lib/e-puck2_main-processor/ChibiOS//os/ext/CMSIS/include/core_cmFunc.h" 1
  75 001c 83F31188 		MSR basepri, r3
  76              	@ 0 "" 2
  77              	.LVL3:
  78              		.thumb
  79              		.syntax unified
  80              	.LBE319:
  81              	.LBE318:
  82              	.LBE317:
  83              	.LBE316:
  84              		.file 3 "../../lib/e-puck2_main-processor/ChibiOS//os/rt/include/chsys.h"
  85              		.loc 3 389 0
  86 0020 FFF7FEFF 		bl	_stats_start_measure_crit_isr
  87              	.LVL4:
  88              		.loc 3 390 0
  89 0024 FFF7FEFF 		bl	_dbg_check_lock_from_isr
  90              	.LVL5:
  91              	.LBE315:
  92              	.LBE314:
  93              	.LBE313:
  94              	.LBB320:
  95              	.LBB321:
  96              		.file 4 "../../lib/e-puck2_main-processor/ChibiOS//os/hal/osal/rt/osal.h"
  97              		.loc 4 764 0
  98 0028 04F10800 		add	r0, r4, #8
  99 002c 0021     		movs	r1, #0
 100 002e FFF7FEFF 		bl	chThdDequeueAllI
 101              	.LVL6:
 102              	.LBE321:
 103              	.LBE320:
 104              	.LBB322:
 105              	.LBB323:
 106              		.loc 4 798 0
 107 0032 04F11C00 		add	r0, r4, #28
 108 0036 0121     		movs	r1, #1
 109 0038 FFF7FEFF 		bl	chEvtBroadcastFlagsI
 110              	.LVL7:
 111              	.LBE323:
 112              	.LBE322:
 113              	.LBB324:
 114              	.LBB325:
ARM GAS  C:\Users\mathi\AppData\Local\Temp\cc6FoflA.s 			page 3


 115              	.LBB326:
 116              		.loc 3 408 0
 117 003c FFF7FEFF 		bl	_dbg_check_unlock_from_isr
 118              	.LVL8:
 119              		.loc 3 409 0
 120 0040 FFF7FEFF 		bl	_stats_stop_measure_crit_isr
 121              	.LVL9:
 122              	.LBB327:
 123              	.LBB328:
 124              	.LBB329:
 125              	.LBB330:
 126              		.loc 2 546 0
 127 0044 0023     		movs	r3, #0
 128              		.syntax unified
 129              	@ 546 "../../lib/e-puck2_main-processor/ChibiOS//os/ext/CMSIS/include/core_cmFunc.h" 1
 130 0046 83F31188 		MSR basepri, r3
 131              	@ 0 "" 2
 132              	.LVL10:
 133              		.thumb
 134              		.syntax unified
 135              	.LBE330:
 136              	.LBE329:
 137              	.LBE328:
 138              	.LBE327:
 139              	.LBE326:
 140              	.LBE325:
 141              	.LBE324:
 142              	.LBE331:
 143              	.LBE332:
 144              		.loc 1 298 0
 145 004a FFF7FEFF 		bl	_dbg_check_leave_isr
 146              	.LVL11:
 147 004e 019A     		ldr	r2, [sp, #4]
 148 0050 2B68     		ldr	r3, [r5]
 149 0052 9A42     		cmp	r2, r3
 150 0054 04D1     		bne	.L6
 151              		.loc 1 299 0
 152 0056 03B0     		add	sp, sp, #12
 153              		.cfi_remember_state
 154              		.cfi_def_cfa_offset 12
 155              		@ sp needed
 156 0058 BDE83040 		pop	{r4, r5, lr}
 157              		.cfi_restore 14
 158              		.cfi_restore 5
 159              		.cfi_restore 4
 160              		.cfi_def_cfa_offset 0
 161              		.loc 1 298 0
 162 005c FFF7FEBF 		b	_port_irq_epilogue
 163              	.LVL12:
 164              	.L6:
 165              		.cfi_restore_state
 166 0060 FFF7FEFF 		bl	__stack_chk_fail
 167              	.LVL13:
 168              	.L8:
 169              		.align	2
 170              	.L7:
 171 0064 00000000 		.word	__stack_chk_guard
ARM GAS  C:\Users\mathi\AppData\Local\Temp\cc6FoflA.s 			page 4


 172 0068 00000000 		.word	.LANCHOR0
 173 006c 01010100 		.word	65793
 174              		.cfi_endproc
 175              	.LFE261:
 176              		.size	Vector8C, .-Vector8C
 177              		.section	.text.Vector90,"ax",%progbits
 178              		.align	1
 179              		.p2align 4,,15
 180              		.global	Vector90
 181              		.syntax unified
 182              		.thumb
 183              		.thumb_func
 184              		.fpu fpv4-sp-d16
 185              		.type	Vector90, %function
 186              	Vector90:
 187              	.LFB262:
 188              		.loc 1 306 0
 189              		.cfi_startproc
 190              		@ args = 0, pretend = 0, frame = 8
 191              		@ frame_needed = 0, uses_anonymous_args = 0
 192 0000 70B5     		push	{r4, r5, r6, lr}
 193              		.cfi_def_cfa_offset 16
 194              		.cfi_offset 4, -16
 195              		.cfi_offset 5, -12
 196              		.cfi_offset 6, -8
 197              		.cfi_offset 14, -4
 198 0002 274D     		ldr	r5, .L23
 199              	.LBB369:
 200              	.LBB370:
 201              		.loc 1 164 0
 202 0004 274C     		ldr	r4, .L23+4
 203              	.LBE370:
 204              	.LBE369:
 205              		.loc 1 306 0
 206 0006 2B68     		ldr	r3, [r5]
 207 0008 82B0     		sub	sp, sp, #8
 208              		.cfi_def_cfa_offset 24
 209              		.loc 1 306 0
 210 000a 0193     		str	r3, [sp, #4]
 211              		.loc 1 308 0
 212 000c FFF7FEFF 		bl	_stats_increase_irq
 213              	.LVL14:
 214 0010 FFF7FEFF 		bl	_dbg_check_enter_isr
 215              	.LVL15:
 216              	.LBB407:
 217              	.LBB405:
 218              		.loc 1 164 0
 219 0014 E36A     		ldr	r3, [r4, #44]
 220 0016 DE68     		ldr	r6, [r3, #12]
 221              	.LVL16:
 222              		.loc 1 165 0
 223 0018 B207     		lsls	r2, r6, #30
 224 001a 21D1     		bne	.L21
 225              	.L10:
 226              		.loc 1 173 0
 227 001c F306     		lsls	r3, r6, #27
 228 001e 14D5     		bpl	.L11
ARM GAS  C:\Users\mathi\AppData\Local\Temp\cc6FoflA.s 			page 5


 229              		.loc 1 175 0
 230 0020 E36A     		ldr	r3, [r4, #44]
 231 0022 1024     		movs	r4, #16
 232 0024 DC60     		str	r4, [r3, #12]
 233              	.LVL17:
 234              	.LBB371:
 235              	.LBB372:
 236              	.LBB373:
 237              	.LBB374:
 238              	.LBB375:
 239              	.LBB376:
 240              	.LBB377:
 241              		.loc 2 546 0
 242 0026 2023     		movs	r3, #32
 243              		.syntax unified
 244              	@ 546 "../../lib/e-puck2_main-processor/ChibiOS//os/ext/CMSIS/include/core_cmFunc.h" 1
 245 0028 83F31188 		MSR basepri, r3
 246              	@ 0 "" 2
 247              	.LVL18:
 248              		.thumb
 249              		.syntax unified
 250              	.LBE377:
 251              	.LBE376:
 252              	.LBE375:
 253              	.LBE374:
 254              		.loc 3 389 0
 255 002c FFF7FEFF 		bl	_stats_start_measure_crit_isr
 256              	.LVL19:
 257              		.loc 3 390 0
 258 0030 FFF7FEFF 		bl	_dbg_check_lock_from_isr
 259              	.LVL20:
 260              	.LBE373:
 261              	.LBE372:
 262              	.LBE371:
 263              	.LBB378:
 264              	.LBB379:
 265              		.loc 4 798 0
 266 0034 2146     		mov	r1, r4
 267 0036 1C48     		ldr	r0, .L23+8
 268 0038 FFF7FEFF 		bl	chEvtBroadcastFlagsI
 269              	.LVL21:
 270              	.LBE379:
 271              	.LBE378:
 272              	.LBB380:
 273              	.LBB381:
 274              	.LBB382:
 275              		.loc 3 408 0
 276 003c FFF7FEFF 		bl	_dbg_check_unlock_from_isr
 277              	.LVL22:
 278              		.loc 3 409 0
 279 0040 FFF7FEFF 		bl	_stats_stop_measure_crit_isr
 280              	.LVL23:
 281              	.LBB383:
 282              	.LBB384:
 283              	.LBB385:
 284              	.LBB386:
 285              		.loc 2 546 0
ARM GAS  C:\Users\mathi\AppData\Local\Temp\cc6FoflA.s 			page 6


 286 0044 0023     		movs	r3, #0
 287              		.syntax unified
 288              	@ 546 "../../lib/e-puck2_main-processor/ChibiOS//os/ext/CMSIS/include/core_cmFunc.h" 1
 289 0046 83F31188 		MSR basepri, r3
 290              	@ 0 "" 2
 291              	.LVL24:
 292              		.thumb
 293              		.syntax unified
 294              	.L11:
 295              	.LBE386:
 296              	.LBE385:
 297              	.LBE384:
 298              	.LBE383:
 299              	.LBE382:
 300              	.LBE381:
 301              	.LBE380:
 302              	.LBE405:
 303              	.LBE407:
 304              		.loc 1 312 0
 305 004a FFF7FEFF 		bl	_dbg_check_leave_isr
 306              	.LVL25:
 307 004e 019A     		ldr	r2, [sp, #4]
 308 0050 2B68     		ldr	r3, [r5]
 309 0052 9A42     		cmp	r2, r3
 310 0054 21D1     		bne	.L22
 311              		.loc 1 313 0
 312 0056 02B0     		add	sp, sp, #8
 313              		.cfi_remember_state
 314              		.cfi_def_cfa_offset 16
 315              		@ sp needed
 316 0058 BDE87040 		pop	{r4, r5, r6, lr}
 317              		.cfi_restore 14
 318              		.cfi_restore 6
 319              		.cfi_restore 5
 320              		.cfi_restore 4
 321              		.cfi_def_cfa_offset 0
 322              		.loc 1 312 0
 323 005c FFF7FEBF 		b	_port_irq_epilogue
 324              	.LVL26:
 325              	.L21:
 326              		.cfi_restore_state
 327              	.LBB408:
 328              	.LBB406:
 329              		.loc 1 167 0
 330 0060 5A69     		ldr	r2, [r3, #20]
 331 0062 22F00202 		bic	r2, r2, #2
 332 0066 5A61     		str	r2, [r3, #20]
 333              	.LVL27:
 334              	.LBB387:
 335              	.LBB388:
 336              	.LBB389:
 337              	.LBB390:
 338              	.LBB391:
 339              	.LBB392:
 340              	.LBB393:
 341              		.loc 2 546 0
 342 0068 2023     		movs	r3, #32
ARM GAS  C:\Users\mathi\AppData\Local\Temp\cc6FoflA.s 			page 7


 343              		.syntax unified
 344              	@ 546 "../../lib/e-puck2_main-processor/ChibiOS//os/ext/CMSIS/include/core_cmFunc.h" 1
 345 006a 83F31188 		MSR basepri, r3
 346              	@ 0 "" 2
 347              	.LVL28:
 348              		.thumb
 349              		.syntax unified
 350              	.LBE393:
 351              	.LBE392:
 352              	.LBE391:
 353              	.LBE390:
 354              		.loc 3 389 0
 355 006e FFF7FEFF 		bl	_stats_start_measure_crit_isr
 356              	.LVL29:
 357              		.loc 3 390 0
 358 0072 FFF7FEFF 		bl	_dbg_check_lock_from_isr
 359              	.LVL30:
 360              	.LBE389:
 361              	.LBE388:
 362              	.LBE387:
 363              	.LBB394:
 364              	.LBB395:
 365              		.loc 4 764 0
 366 0076 04F11000 		add	r0, r4, #16
 367 007a 0021     		movs	r1, #0
 368 007c FFF7FEFF 		bl	chThdDequeueAllI
 369              	.LVL31:
 370              	.LBE395:
 371              	.LBE394:
 372              	.LBB396:
 373              	.LBB397:
 374              		.loc 4 798 0
 375 0080 04F11800 		add	r0, r4, #24
 376 0084 0121     		movs	r1, #1
 377 0086 FFF7FEFF 		bl	chEvtBroadcastFlagsI
 378              	.LVL32:
 379              	.LBE397:
 380              	.LBE396:
 381              	.LBB398:
 382              	.LBB399:
 383              	.LBB400:
 384              		.loc 3 408 0
 385 008a FFF7FEFF 		bl	_dbg_check_unlock_from_isr
 386              	.LVL33:
 387              		.loc 3 409 0
 388 008e FFF7FEFF 		bl	_stats_stop_measure_crit_isr
 389              	.LVL34:
 390              	.LBB401:
 391              	.LBB402:
 392              	.LBB403:
 393              	.LBB404:
 394              		.loc 2 546 0
 395 0092 0023     		movs	r3, #0
 396              		.syntax unified
 397              	@ 546 "../../lib/e-puck2_main-processor/ChibiOS//os/ext/CMSIS/include/core_cmFunc.h" 1
 398 0094 83F31188 		MSR basepri, r3
 399              	@ 0 "" 2
ARM GAS  C:\Users\mathi\AppData\Local\Temp\cc6FoflA.s 			page 8


 400              	.LVL35:
 401              		.thumb
 402              		.syntax unified
 403 0098 C0E7     		b	.L10
 404              	.LVL36:
 405              	.L22:
 406              	.LBE404:
 407              	.LBE403:
 408              	.LBE402:
 409              	.LBE401:
 410              	.LBE400:
 411              	.LBE399:
 412              	.LBE398:
 413              	.LBE406:
 414              	.LBE408:
 415              		.loc 1 312 0
 416 009a FFF7FEFF 		bl	__stack_chk_fail
 417              	.LVL37:
 418              	.L24:
 419 009e 00BF     		.align	2
 420              	.L23:
 421 00a0 00000000 		.word	__stack_chk_guard
 422 00a4 00000000 		.word	.LANCHOR0
 423 00a8 20000000 		.word	.LANCHOR0+32
 424              		.cfi_endproc
 425              	.LFE262:
 426              		.size	Vector90, .-Vector90
 427              		.section	.text.Vector94,"ax",%progbits
 428              		.align	1
 429              		.p2align 4,,15
 430              		.global	Vector94
 431              		.syntax unified
 432              		.thumb
 433              		.thumb_func
 434              		.fpu fpv4-sp-d16
 435              		.type	Vector94, %function
 436              	Vector94:
 437              	.LFB263:
 438              		.loc 1 320 0
 439              		.cfi_startproc
 440              		@ args = 0, pretend = 0, frame = 8
 441              		@ frame_needed = 0, uses_anonymous_args = 0
 442 0000 70B5     		push	{r4, r5, r6, lr}
 443              		.cfi_def_cfa_offset 16
 444              		.cfi_offset 4, -16
 445              		.cfi_offset 5, -12
 446              		.cfi_offset 6, -8
 447              		.cfi_offset 14, -4
 448 0002 274D     		ldr	r5, .L39
 449              	.LBB445:
 450              	.LBB446:
 451              		.loc 1 192 0
 452 0004 274C     		ldr	r4, .L39+4
 453              	.LBE446:
 454              	.LBE445:
 455              		.loc 1 320 0
 456 0006 2B68     		ldr	r3, [r5]
ARM GAS  C:\Users\mathi\AppData\Local\Temp\cc6FoflA.s 			page 9


 457 0008 82B0     		sub	sp, sp, #8
 458              		.cfi_def_cfa_offset 24
 459              		.loc 1 320 0
 460 000a 0193     		str	r3, [sp, #4]
 461              		.loc 1 322 0
 462 000c FFF7FEFF 		bl	_stats_increase_irq
 463              	.LVL38:
 464 0010 FFF7FEFF 		bl	_dbg_check_enter_isr
 465              	.LVL39:
 466              	.LBB483:
 467              	.LBB481:
 468              		.loc 1 192 0
 469 0014 E36A     		ldr	r3, [r4, #44]
 470 0016 1E69     		ldr	r6, [r3, #16]
 471              	.LVL40:
 472              		.loc 1 193 0
 473 0018 B207     		lsls	r2, r6, #30
 474 001a 21D1     		bne	.L37
 475              	.L26:
 476              		.loc 1 201 0
 477 001c F306     		lsls	r3, r6, #27
 478 001e 14D5     		bpl	.L27
 479              		.loc 1 203 0
 480 0020 E36A     		ldr	r3, [r4, #44]
 481 0022 1024     		movs	r4, #16
 482 0024 1C61     		str	r4, [r3, #16]
 483              	.LVL41:
 484              	.LBB447:
 485              	.LBB448:
 486              	.LBB449:
 487              	.LBB450:
 488              	.LBB451:
 489              	.LBB452:
 490              	.LBB453:
 491              		.loc 2 546 0
 492 0026 2023     		movs	r3, #32
 493              		.syntax unified
 494              	@ 546 "../../lib/e-puck2_main-processor/ChibiOS//os/ext/CMSIS/include/core_cmFunc.h" 1
 495 0028 83F31188 		MSR basepri, r3
 496              	@ 0 "" 2
 497              	.LVL42:
 498              		.thumb
 499              		.syntax unified
 500              	.LBE453:
 501              	.LBE452:
 502              	.LBE451:
 503              	.LBE450:
 504              		.loc 3 389 0
 505 002c FFF7FEFF 		bl	_stats_start_measure_crit_isr
 506              	.LVL43:
 507              		.loc 3 390 0
 508 0030 FFF7FEFF 		bl	_dbg_check_lock_from_isr
 509              	.LVL44:
 510              	.LBE449:
 511              	.LBE448:
 512              	.LBE447:
 513              	.LBB454:
ARM GAS  C:\Users\mathi\AppData\Local\Temp\cc6FoflA.s 			page 10


 514              	.LBB455:
 515              		.loc 4 798 0
 516 0034 2146     		mov	r1, r4
 517 0036 1C48     		ldr	r0, .L39+8
 518 0038 FFF7FEFF 		bl	chEvtBroadcastFlagsI
 519              	.LVL45:
 520              	.LBE455:
 521              	.LBE454:
 522              	.LBB456:
 523              	.LBB457:
 524              	.LBB458:
 525              		.loc 3 408 0
 526 003c FFF7FEFF 		bl	_dbg_check_unlock_from_isr
 527              	.LVL46:
 528              		.loc 3 409 0
 529 0040 FFF7FEFF 		bl	_stats_stop_measure_crit_isr
 530              	.LVL47:
 531              	.LBB459:
 532              	.LBB460:
 533              	.LBB461:
 534              	.LBB462:
 535              		.loc 2 546 0
 536 0044 0023     		movs	r3, #0
 537              		.syntax unified
 538              	@ 546 "../../lib/e-puck2_main-processor/ChibiOS//os/ext/CMSIS/include/core_cmFunc.h" 1
 539 0046 83F31188 		MSR basepri, r3
 540              	@ 0 "" 2
 541              	.LVL48:
 542              		.thumb
 543              		.syntax unified
 544              	.L27:
 545              	.LBE462:
 546              	.LBE461:
 547              	.LBE460:
 548              	.LBE459:
 549              	.LBE458:
 550              	.LBE457:
 551              	.LBE456:
 552              	.LBE481:
 553              	.LBE483:
 554              		.loc 1 326 0
 555 004a FFF7FEFF 		bl	_dbg_check_leave_isr
 556              	.LVL49:
 557 004e 019A     		ldr	r2, [sp, #4]
 558 0050 2B68     		ldr	r3, [r5]
 559 0052 9A42     		cmp	r2, r3
 560 0054 21D1     		bne	.L38
 561              		.loc 1 327 0
 562 0056 02B0     		add	sp, sp, #8
 563              		.cfi_remember_state
 564              		.cfi_def_cfa_offset 16
 565              		@ sp needed
 566 0058 BDE87040 		pop	{r4, r5, r6, lr}
 567              		.cfi_restore 14
 568              		.cfi_restore 6
 569              		.cfi_restore 5
 570              		.cfi_restore 4
ARM GAS  C:\Users\mathi\AppData\Local\Temp\cc6FoflA.s 			page 11


 571              		.cfi_def_cfa_offset 0
 572              		.loc 1 326 0
 573 005c FFF7FEBF 		b	_port_irq_epilogue
 574              	.LVL50:
 575              	.L37:
 576              		.cfi_restore_state
 577              	.LBB484:
 578              	.LBB482:
 579              		.loc 1 195 0
 580 0060 5A69     		ldr	r2, [r3, #20]
 581 0062 22F01002 		bic	r2, r2, #16
 582 0066 5A61     		str	r2, [r3, #20]
 583              	.LVL51:
 584              	.LBB463:
 585              	.LBB464:
 586              	.LBB465:
 587              	.LBB466:
 588              	.LBB467:
 589              	.LBB468:
 590              	.LBB469:
 591              		.loc 2 546 0
 592 0068 2023     		movs	r3, #32
 593              		.syntax unified
 594              	@ 546 "../../lib/e-puck2_main-processor/ChibiOS//os/ext/CMSIS/include/core_cmFunc.h" 1
 595 006a 83F31188 		MSR basepri, r3
 596              	@ 0 "" 2
 597              	.LVL52:
 598              		.thumb
 599              		.syntax unified
 600              	.LBE469:
 601              	.LBE468:
 602              	.LBE467:
 603              	.LBE466:
 604              		.loc 3 389 0
 605 006e FFF7FEFF 		bl	_stats_start_measure_crit_isr
 606              	.LVL53:
 607              		.loc 3 390 0
 608 0072 FFF7FEFF 		bl	_dbg_check_lock_from_isr
 609              	.LVL54:
 610              	.LBE465:
 611              	.LBE464:
 612              	.LBE463:
 613              	.LBB470:
 614              	.LBB471:
 615              		.loc 4 764 0
 616 0076 04F11000 		add	r0, r4, #16
 617 007a 0021     		movs	r1, #0
 618 007c FFF7FEFF 		bl	chThdDequeueAllI
 619              	.LVL55:
 620              	.LBE471:
 621              	.LBE470:
 622              	.LBB472:
 623              	.LBB473:
 624              		.loc 4 798 0
 625 0080 04F11800 		add	r0, r4, #24
 626 0084 0221     		movs	r1, #2
 627 0086 FFF7FEFF 		bl	chEvtBroadcastFlagsI
ARM GAS  C:\Users\mathi\AppData\Local\Temp\cc6FoflA.s 			page 12


 628              	.LVL56:
 629              	.LBE473:
 630              	.LBE472:
 631              	.LBB474:
 632              	.LBB475:
 633              	.LBB476:
 634              		.loc 3 408 0
 635 008a FFF7FEFF 		bl	_dbg_check_unlock_from_isr
 636              	.LVL57:
 637              		.loc 3 409 0
 638 008e FFF7FEFF 		bl	_stats_stop_measure_crit_isr
 639              	.LVL58:
 640              	.LBB477:
 641              	.LBB478:
 642              	.LBB479:
 643              	.LBB480:
 644              		.loc 2 546 0
 645 0092 0023     		movs	r3, #0
 646              		.syntax unified
 647              	@ 546 "../../lib/e-puck2_main-processor/ChibiOS//os/ext/CMSIS/include/core_cmFunc.h" 1
 648 0094 83F31188 		MSR basepri, r3
 649              	@ 0 "" 2
 650              	.LVL59:
 651              		.thumb
 652              		.syntax unified
 653 0098 C0E7     		b	.L26
 654              	.LVL60:
 655              	.L38:
 656              	.LBE480:
 657              	.LBE479:
 658              	.LBE478:
 659              	.LBE477:
 660              	.LBE476:
 661              	.LBE475:
 662              	.LBE474:
 663              	.LBE482:
 664              	.LBE484:
 665              		.loc 1 326 0
 666 009a FFF7FEFF 		bl	__stack_chk_fail
 667              	.LVL61:
 668              	.L40:
 669 009e 00BF     		.align	2
 670              	.L39:
 671 00a0 00000000 		.word	__stack_chk_guard
 672 00a4 00000000 		.word	.LANCHOR0
 673 00a8 20000000 		.word	.LANCHOR0+32
 674              		.cfi_endproc
 675              	.LFE263:
 676              		.size	Vector94, .-Vector94
 677              		.section	.text.Vector98,"ax",%progbits
 678              		.align	1
 679              		.p2align 4,,15
 680              		.global	Vector98
 681              		.syntax unified
 682              		.thumb
 683              		.thumb_func
 684              		.fpu fpv4-sp-d16
ARM GAS  C:\Users\mathi\AppData\Local\Temp\cc6FoflA.s 			page 13


 685              		.type	Vector98, %function
 686              	Vector98:
 687              	.LFB264:
 688              		.loc 1 334 0
 689              		.cfi_startproc
 690              		@ args = 0, pretend = 0, frame = 8
 691              		@ frame_needed = 0, uses_anonymous_args = 0
 692 0000 70B5     		push	{r4, r5, r6, lr}
 693              		.cfi_def_cfa_offset 16
 694              		.cfi_offset 4, -16
 695              		.cfi_offset 5, -12
 696              		.cfi_offset 6, -8
 697              		.cfi_offset 14, -4
 698 0002 2C4D     		ldr	r5, .L59
 699              	.LBB520:
 700              	.LBB521:
 701              		.loc 1 220 0
 702 0004 2C4C     		ldr	r4, .L59+4
 703              	.LBE521:
 704              	.LBE520:
 705              		.loc 1 334 0
 706 0006 2B68     		ldr	r3, [r5]
 707 0008 82B0     		sub	sp, sp, #8
 708              		.cfi_def_cfa_offset 24
 709              		.loc 1 334 0
 710 000a 0193     		str	r3, [sp, #4]
 711              		.loc 1 336 0
 712 000c FFF7FEFF 		bl	_stats_increase_irq
 713              	.LVL62:
 714 0010 FFF7FEFF 		bl	_dbg_check_enter_isr
 715              	.LVL63:
 716              	.LBB557:
 717              	.LBB555:
 718              		.loc 1 220 0
 719 0014 E36A     		ldr	r3, [r4, #44]
 720 0016 5E68     		ldr	r6, [r3, #4]
 721              	.LVL64:
 722              		.loc 1 221 0
 723 0018 1C22     		movs	r2, #28
 724 001a 5A60     		str	r2, [r3, #4]
 725              		.loc 1 224 0
 726 001c 3207     		lsls	r2, r6, #28
 727 001e 2CD4     		bmi	.L57
 728              	.L42:
 729              		.loc 1 233 0
 730 0020 7307     		lsls	r3, r6, #29
 731 0022 1FD5     		bpl	.L43
 732              	.LBB522:
 733              		.loc 1 235 0
 734 0024 E36A     		ldr	r3, [r4, #44]
 735 0026 9C69     		ldr	r4, [r3, #24]
 736              	.LVL65:
 737              		.loc 1 237 0
 738 0028 9A69     		ldr	r2, [r3, #24]
 739              		.loc 1 238 0
 740 002a 04F00706 		and	r6, r4, #7
 741              	.LVL66:
ARM GAS  C:\Users\mathi\AppData\Local\Temp\cc6FoflA.s 			page 14


 742              		.loc 1 237 0
 743 002e 22F07002 		bic	r2, r2, #112
 744              		.loc 1 239 0
 745 0032 14F0700F 		tst	r4, #112
 746              		.loc 1 237 0
 747 0036 9A61     		str	r2, [r3, #24]
 748              		.loc 1 240 0
 749 0038 18BF     		it	ne
 750 003a 46F00806 		orrne	r6, r6, #8
 751              	.LVL67:
 752              	.LBB523:
 753              	.LBB524:
 754              	.LBB525:
 755              	.LBB526:
 756              	.LBB527:
 757              	.LBB528:
 758              	.LBB529:
 759              		.loc 2 546 0
 760 003e 2023     		movs	r3, #32
 761              		.syntax unified
 762              	@ 546 "../../lib/e-puck2_main-processor/ChibiOS//os/ext/CMSIS/include/core_cmFunc.h" 1
 763 0040 83F31188 		MSR basepri, r3
 764              	@ 0 "" 2
 765              	.LVL68:
 766              		.thumb
 767              		.syntax unified
 768              	.LBE529:
 769              	.LBE528:
 770              	.LBE527:
 771              	.LBE526:
 772              		.loc 3 389 0
 773 0044 FFF7FEFF 		bl	_stats_start_measure_crit_isr
 774              	.LVL69:
 775              		.loc 3 390 0
 776 0048 FFF7FEFF 		bl	_dbg_check_lock_from_isr
 777              	.LVL70:
 778              	.LBE525:
 779              	.LBE524:
 780              	.LBE523:
 781              	.LBB530:
 782              	.LBB531:
 783              		.loc 4 798 0
 784 004c 46EA0441 		orr	r1, r6, r4, lsl #16
 785              	.LVL71:
 786 0050 1A48     		ldr	r0, .L59+8
 787 0052 FFF7FEFF 		bl	chEvtBroadcastFlagsI
 788              	.LVL72:
 789              	.LBE531:
 790              	.LBE530:
 791              	.LBB532:
 792              	.LBB533:
 793              	.LBB534:
 794              		.loc 3 408 0
 795 0056 FFF7FEFF 		bl	_dbg_check_unlock_from_isr
 796              	.LVL73:
 797              		.loc 3 409 0
 798 005a FFF7FEFF 		bl	_stats_stop_measure_crit_isr
ARM GAS  C:\Users\mathi\AppData\Local\Temp\cc6FoflA.s 			page 15


 799              	.LVL74:
 800              	.LBB535:
 801              	.LBB536:
 802              	.LBB537:
 803              	.LBB538:
 804              		.loc 2 546 0
 805 005e 0023     		movs	r3, #0
 806              		.syntax unified
 807              	@ 546 "../../lib/e-puck2_main-processor/ChibiOS//os/ext/CMSIS/include/core_cmFunc.h" 1
 808 0060 83F31188 		MSR basepri, r3
 809              	@ 0 "" 2
 810              	.LVL75:
 811              		.thumb
 812              		.syntax unified
 813              	.L43:
 814              	.LBE538:
 815              	.LBE537:
 816              	.LBE536:
 817              	.LBE535:
 818              	.LBE534:
 819              	.LBE533:
 820              	.LBE532:
 821              	.LBE522:
 822              	.LBE555:
 823              	.LBE557:
 824              		.loc 1 340 0
 825 0064 FFF7FEFF 		bl	_dbg_check_leave_isr
 826              	.LVL76:
 827 0068 019A     		ldr	r2, [sp, #4]
 828 006a 2B68     		ldr	r3, [r5]
 829 006c 9A42     		cmp	r2, r3
 830 006e 1FD1     		bne	.L58
 831              		.loc 1 341 0
 832 0070 02B0     		add	sp, sp, #8
 833              		.cfi_remember_state
 834              		.cfi_def_cfa_offset 16
 835              		@ sp needed
 836 0072 BDE87040 		pop	{r4, r5, r6, lr}
 837              		.cfi_restore 14
 838              		.cfi_restore 6
 839              		.cfi_restore 5
 840              		.cfi_restore 4
 841              		.cfi_def_cfa_offset 0
 842              		.loc 1 340 0
 843 0076 FFF7FEBF 		b	_port_irq_epilogue
 844              	.LVL77:
 845              	.L57:
 846              		.cfi_restore_state
 847              	.LBB558:
 848              	.LBB556:
 849              		.loc 1 226 0
 850 007a E26A     		ldr	r2, [r4, #44]
 851              		.loc 1 225 0
 852 007c 0323     		movs	r3, #3
 853 007e 2370     		strb	r3, [r4]
 854              		.loc 1 226 0
 855 0080 1368     		ldr	r3, [r2]
ARM GAS  C:\Users\mathi\AppData\Local\Temp\cc6FoflA.s 			page 16


 856 0082 23F00203 		bic	r3, r3, #2
 857 0086 1360     		str	r3, [r2]
 858              	.LVL78:
 859              	.LBB539:
 860              	.LBB540:
 861              	.LBB541:
 862              	.LBB542:
 863              	.LBB543:
 864              	.LBB544:
 865              	.LBB545:
 866              		.loc 2 546 0
 867 0088 2023     		movs	r3, #32
 868              		.syntax unified
 869              	@ 546 "../../lib/e-puck2_main-processor/ChibiOS//os/ext/CMSIS/include/core_cmFunc.h" 1
 870 008a 83F31188 		MSR basepri, r3
 871              	@ 0 "" 2
 872              	.LVL79:
 873              		.thumb
 874              		.syntax unified
 875              	.LBE545:
 876              	.LBE544:
 877              	.LBE543:
 878              	.LBE542:
 879              		.loc 3 389 0
 880 008e FFF7FEFF 		bl	_stats_start_measure_crit_isr
 881              	.LVL80:
 882              		.loc 3 390 0
 883 0092 FFF7FEFF 		bl	_dbg_check_lock_from_isr
 884              	.LVL81:
 885              	.LBE541:
 886              	.LBE540:
 887              	.LBE539:
 888              	.LBB546:
 889              	.LBB547:
 890              		.loc 4 798 0
 891 0096 04F12800 		add	r0, r4, #40
 892 009a 0021     		movs	r1, #0
 893 009c FFF7FEFF 		bl	chEvtBroadcastFlagsI
 894              	.LVL82:
 895              	.LBE547:
 896              	.LBE546:
 897              	.LBB548:
 898              	.LBB549:
 899              	.LBB550:
 900              		.loc 3 408 0
 901 00a0 FFF7FEFF 		bl	_dbg_check_unlock_from_isr
 902              	.LVL83:
 903              		.loc 3 409 0
 904 00a4 FFF7FEFF 		bl	_stats_stop_measure_crit_isr
 905              	.LVL84:
 906              	.LBB551:
 907              	.LBB552:
 908              	.LBB553:
 909              	.LBB554:
 910              		.loc 2 546 0
 911 00a8 0023     		movs	r3, #0
 912              		.syntax unified
ARM GAS  C:\Users\mathi\AppData\Local\Temp\cc6FoflA.s 			page 17


 913              	@ 546 "../../lib/e-puck2_main-processor/ChibiOS//os/ext/CMSIS/include/core_cmFunc.h" 1
 914 00aa 83F31188 		MSR basepri, r3
 915              	@ 0 "" 2
 916              	.LVL85:
 917              		.thumb
 918              		.syntax unified
 919 00ae B7E7     		b	.L42
 920              	.LVL86:
 921              	.L58:
 922              	.LBE554:
 923              	.LBE553:
 924              	.LBE552:
 925              	.LBE551:
 926              	.LBE550:
 927              	.LBE549:
 928              	.LBE548:
 929              	.LBE556:
 930              	.LBE558:
 931              		.loc 1 340 0
 932 00b0 FFF7FEFF 		bl	__stack_chk_fail
 933              	.LVL87:
 934              	.L60:
 935              		.align	2
 936              	.L59:
 937 00b4 00000000 		.word	__stack_chk_guard
 938 00b8 00000000 		.word	.LANCHOR0
 939 00bc 20000000 		.word	.LANCHOR0+32
 940              		.cfi_endproc
 941              	.LFE264:
 942              		.size	Vector98, .-Vector98
 943              		.section	.text.can_lld_init,"ax",%progbits
 944              		.align	1
 945              		.p2align 4,,15
 946              		.global	can_lld_init
 947              		.syntax unified
 948              		.thumb
 949              		.thumb_func
 950              		.fpu fpv4-sp-d16
 951              		.type	can_lld_init, %function
 952              	can_lld_init:
 953              	.LFB265:
 954              		.loc 1 445 0
 955              		.cfi_startproc
 956              		@ args = 0, pretend = 0, frame = 8
 957              		@ frame_needed = 0, uses_anonymous_args = 0
 958 0000 30B5     		push	{r4, r5, lr}
 959              		.cfi_def_cfa_offset 12
 960              		.cfi_offset 4, -12
 961              		.cfi_offset 5, -8
 962              		.cfi_offset 14, -4
 963              		.loc 1 449 0
 964 0002 1F4D     		ldr	r5, .L65
 965              		.loc 1 445 0
 966 0004 1F4C     		ldr	r4, .L65+4
 967 0006 83B0     		sub	sp, sp, #12
 968              		.cfi_def_cfa_offset 24
 969              		.loc 1 445 0
ARM GAS  C:\Users\mathi\AppData\Local\Temp\cc6FoflA.s 			page 18


 970 0008 2368     		ldr	r3, [r4]
 971 000a 0193     		str	r3, [sp, #4]
 972              		.loc 1 449 0
 973 000c 2846     		mov	r0, r5
 974 000e FFF7FEFF 		bl	canObjectInit
 975              	.LVL88:
 976              	.LBB562:
 977              	.LBB563:
 978              		.loc 1 80 0
 979 0012 1D48     		ldr	r0, .L65+8
 980              	.LBE563:
 981              	.LBE562:
 982              		.loc 1 450 0
 983 0014 1D4B     		ldr	r3, .L65+12
 984              	.LBB566:
 985              	.LBB564:
 986              		.loc 1 80 0
 987 0016 026C     		ldr	r2, [r0, #64]
 988              	.LBE564:
 989              	.LBE566:
 990              		.loc 1 450 0
 991 0018 EB62     		str	r3, [r5, #44]
 992              	.LVL89:
 993              	.LBB567:
 994              	.LBB565:
 995              		.loc 1 80 0
 996 001a 42F00072 		orr	r2, r2, #33554432
 997 001e 0264     		str	r2, [r0, #64]
 998              		.loc 1 83 0
 999 0020 D3F80022 		ldr	r2, [r3, #512]
 1000 0024 120C     		lsrs	r2, r2, #16
 1001 0026 1204     		lsls	r2, r2, #16
 1002 0028 42F46062 		orr	r2, r2, #3584
 1003              		.loc 1 115 0
 1004 002c 0021     		movs	r1, #0
 1005              		.loc 1 83 0
 1006 002e 42F00102 		orr	r2, r2, #1
 1007              		.loc 1 124 0
 1008 0032 44F20105 		movw	r5, #16385
 1009              		.loc 1 83 0
 1010 0036 C3F80022 		str	r2, [r3, #512]
 1011              		.loc 1 115 0
 1012 003a C3F84012 		str	r1, [r3, #576]
 1013              		.loc 1 116 0
 1014 003e C3F84412 		str	r1, [r3, #580]
 1015              		.loc 1 118 0
 1016 0042 C3F8B012 		str	r1, [r3, #688]
 1017              		.loc 1 119 0
 1018 0046 C3F8B412 		str	r1, [r3, #692]
 1019              		.loc 1 121 0
 1020 004a C3F80412 		str	r1, [r3, #516]
 1021              		.loc 1 122 0
 1022 004e C3F81412 		str	r1, [r3, #532]
 1023              		.loc 1 124 0
 1024 0052 C3F80C52 		str	r5, [r3, #524]
 1025              		.loc 1 125 0
 1026 0056 C3F81C52 		str	r5, [r3, #540]
ARM GAS  C:\Users\mathi\AppData\Local\Temp\cc6FoflA.s 			page 19


 1027              		.loc 1 131 0
 1028 005a D3F80022 		ldr	r2, [r3, #512]
 1029 005e 22F00102 		bic	r2, r2, #1
 1030 0062 C3F80022 		str	r2, [r3, #512]
 1031              		.loc 1 134 0
 1032 0066 036C     		ldr	r3, [r0, #64]
 1033 0068 23F00073 		bic	r3, r3, #33554432
 1034 006c 0364     		str	r3, [r0, #64]
 1035              	.LVL90:
 1036              	.LBE565:
 1037              	.LBE567:
 1038              		.loc 1 464 0
 1039 006e 019A     		ldr	r2, [sp, #4]
 1040 0070 2368     		ldr	r3, [r4]
 1041 0072 9A42     		cmp	r2, r3
 1042 0074 01D1     		bne	.L64
 1043 0076 03B0     		add	sp, sp, #12
 1044              		.cfi_remember_state
 1045              		.cfi_def_cfa_offset 12
 1046              		@ sp needed
 1047 0078 30BD     		pop	{r4, r5, pc}
 1048              	.L64:
 1049              		.cfi_restore_state
 1050 007a FFF7FEFF 		bl	__stack_chk_fail
 1051              	.LVL91:
 1052              	.L66:
 1053 007e 00BF     		.align	2
 1054              	.L65:
 1055 0080 00000000 		.word	.LANCHOR0
 1056 0084 00000000 		.word	__stack_chk_guard
 1057 0088 00380240 		.word	1073887232
 1058 008c 00640040 		.word	1073767424
 1059              		.cfi_endproc
 1060              	.LFE265:
 1061              		.size	can_lld_init, .-can_lld_init
 1062              		.section	.text.can_lld_start,"ax",%progbits
 1063              		.align	1
 1064              		.p2align 4,,15
 1065              		.global	can_lld_start
 1066              		.syntax unified
 1067              		.thumb
 1068              		.thumb_func
 1069              		.fpu fpv4-sp-d16
 1070              		.type	can_lld_start, %function
 1071              	can_lld_start:
 1072              	.LFB266:
 1073              		.loc 1 473 0
 1074              		.cfi_startproc
 1075              		@ args = 0, pretend = 0, frame = 8
 1076              		@ frame_needed = 0, uses_anonymous_args = 0
 1077              	.LVL92:
 1078 0000 30B5     		push	{r4, r5, lr}
 1079              		.cfi_def_cfa_offset 12
 1080              		.cfi_offset 4, -12
 1081              		.cfi_offset 5, -8
 1082              		.cfi_offset 14, -4
 1083              		.loc 1 477 0
ARM GAS  C:\Users\mathi\AppData\Local\Temp\cc6FoflA.s 			page 20


 1084 0002 1F4B     		ldr	r3, .L77
 1085              		.loc 1 473 0
 1086 0004 1F4D     		ldr	r5, .L77+4
 1087 0006 83B0     		sub	sp, sp, #12
 1088              		.cfi_def_cfa_offset 24
 1089              		.loc 1 473 0
 1090 0008 2A68     		ldr	r2, [r5]
 1091 000a 0192     		str	r2, [sp, #4]
 1092              		.loc 1 477 0
 1093 000c 9842     		cmp	r0, r3
 1094              		.loc 1 473 0
 1095 000e 0446     		mov	r4, r0
 1096              		.loc 1 477 0
 1097 0010 1ED0     		beq	.L75
 1098              	.LVL93:
 1099              	.L68:
 1100              		.loc 1 507 0
 1101 0012 E36A     		ldr	r3, [r4, #44]
 1102 0014 0122     		movs	r2, #1
 1103 0016 1A60     		str	r2, [r3]
 1104              		.loc 1 508 0
 1105 0018 E36A     		ldr	r3, [r4, #44]
 1106 001a 5A68     		ldr	r2, [r3, #4]
 1107 001c D107     		lsls	r1, r2, #31
 1108 001e 07D4     		bmi	.L69
 1109              	.L70:
 1110              	.LVL94:
 1111              	.LBB572:
 1112              	.LBB573:
 1113              	.LBB574:
 1114              		.file 5 "../../lib/e-puck2_main-processor/ChibiOS//os/rt/include/chthreads.h"
 1115              		.loc 5 268 0
 1116 0020 0121     		movs	r1, #1
 1117 0022 0820     		movs	r0, #8
 1118 0024 FFF7FEFF 		bl	chSchGoSleepTimeoutS
 1119              	.LVL95:
 1120              	.LBE574:
 1121              	.LBE573:
 1122              	.LBE572:
 1123              		.loc 1 508 0
 1124 0028 E36A     		ldr	r3, [r4, #44]
 1125 002a 5A68     		ldr	r2, [r3, #4]
 1126 002c D207     		lsls	r2, r2, #31
 1127 002e F7D5     		bpl	.L70
 1128              	.LVL96:
 1129              	.L69:
 1130              		.loc 1 510 0
 1131 0030 6168     		ldr	r1, [r4, #4]
 1132              		.loc 1 514 0
 1133 0032 154A     		ldr	r2, .L77+8
 1134              		.loc 1 510 0
 1135 0034 4968     		ldr	r1, [r1, #4]
 1136 0036 D961     		str	r1, [r3, #28]
 1137              		.loc 1 511 0
 1138 0038 6168     		ldr	r1, [r4, #4]
 1139 003a E36A     		ldr	r3, [r4, #44]
 1140 003c 0968     		ldr	r1, [r1]
ARM GAS  C:\Users\mathi\AppData\Local\Temp\cc6FoflA.s 			page 21


 1141 003e 1960     		str	r1, [r3]
 1142              		.loc 1 514 0
 1143 0040 E36A     		ldr	r3, [r4, #44]
 1144 0042 5A61     		str	r2, [r3, #20]
 1145              		.loc 1 518 0
 1146 0044 019A     		ldr	r2, [sp, #4]
 1147 0046 2B68     		ldr	r3, [r5]
 1148 0048 9A42     		cmp	r2, r3
 1149 004a 17D1     		bne	.L76
 1150 004c 03B0     		add	sp, sp, #12
 1151              		.cfi_remember_state
 1152              		.cfi_def_cfa_offset 12
 1153              		@ sp needed
 1154 004e 30BD     		pop	{r4, r5, pc}
 1155              	.LVL97:
 1156              	.L75:
 1157              		.cfi_restore_state
 1158              		.loc 1 481 0
 1159 0050 0B21     		movs	r1, #11
 1160 0052 1320     		movs	r0, #19
 1161              	.LVL98:
 1162 0054 FFF7FEFF 		bl	nvicEnableVector
 1163              	.LVL99:
 1164              		.loc 1 482 0
 1165 0058 0B21     		movs	r1, #11
 1166 005a 1420     		movs	r0, #20
 1167 005c FFF7FEFF 		bl	nvicEnableVector
 1168              	.LVL100:
 1169              		.loc 1 483 0
 1170 0060 0B21     		movs	r1, #11
 1171 0062 1520     		movs	r0, #21
 1172 0064 FFF7FEFF 		bl	nvicEnableVector
 1173              	.LVL101:
 1174              		.loc 1 484 0
 1175 0068 0B21     		movs	r1, #11
 1176 006a 1620     		movs	r0, #22
 1177 006c FFF7FEFF 		bl	nvicEnableVector
 1178              	.LVL102:
 1179              		.loc 1 486 0
 1180 0070 064A     		ldr	r2, .L77+12
 1181 0072 136C     		ldr	r3, [r2, #64]
 1182 0074 43F00073 		orr	r3, r3, #33554432
 1183 0078 1364     		str	r3, [r2, #64]
 1184 007a CAE7     		b	.L68
 1185              	.L76:
 1186              		.loc 1 518 0
 1187 007c FFF7FEFF 		bl	__stack_chk_fail
 1188              	.LVL103:
 1189              	.L78:
 1190              		.align	2
 1191              	.L77:
 1192 0080 00000000 		.word	.LANCHOR0
 1193 0084 00000000 		.word	__stack_chk_guard
 1194 0088 5B8F0100 		.word	102235
 1195 008c 00380240 		.word	1073887232
 1196              		.cfi_endproc
 1197              	.LFE266:
ARM GAS  C:\Users\mathi\AppData\Local\Temp\cc6FoflA.s 			page 22


 1198              		.size	can_lld_start, .-can_lld_start
 1199              		.section	.text.can_lld_stop,"ax",%progbits
 1200              		.align	1
 1201              		.p2align 4,,15
 1202              		.global	can_lld_stop
 1203              		.syntax unified
 1204              		.thumb
 1205              		.thumb_func
 1206              		.fpu fpv4-sp-d16
 1207              		.type	can_lld_stop, %function
 1208              	can_lld_stop:
 1209              	.LFB267:
 1210              		.loc 1 527 0
 1211              		.cfi_startproc
 1212              		@ args = 0, pretend = 0, frame = 8
 1213              		@ frame_needed = 0, uses_anonymous_args = 0
 1214              	.LVL104:
 1215 0000 10B5     		push	{r4, lr}
 1216              		.cfi_def_cfa_offset 8
 1217              		.cfi_offset 4, -8
 1218              		.cfi_offset 14, -4
 1219 0002 144C     		ldr	r4, .L85
 1220              		.loc 1 530 0
 1221 0004 0378     		ldrb	r3, [r0]	@ zero_extendqisi2
 1222              		.loc 1 527 0
 1223 0006 2268     		ldr	r2, [r4]
 1224 0008 82B0     		sub	sp, sp, #8
 1225              		.cfi_def_cfa_offset 16
 1226              		.loc 1 530 0
 1227 000a 032B     		cmp	r3, #3
 1228              		.loc 1 527 0
 1229 000c 0192     		str	r2, [sp, #4]
 1230              		.loc 1 530 0
 1231 000e 05D0     		beq	.L83
 1232              	.LVL105:
 1233              	.L79:
 1234              		.loc 1 567 0
 1235 0010 019A     		ldr	r2, [sp, #4]
 1236 0012 2368     		ldr	r3, [r4]
 1237 0014 9A42     		cmp	r2, r3
 1238 0016 1BD1     		bne	.L84
 1239 0018 02B0     		add	sp, sp, #8
 1240              		.cfi_remember_state
 1241              		.cfi_def_cfa_offset 8
 1242              		@ sp needed
 1243 001a 10BD     		pop	{r4, pc}
 1244              	.LVL106:
 1245              	.L83:
 1246              		.cfi_restore_state
 1247              		.loc 1 532 0
 1248 001c 0E4B     		ldr	r3, .L85+4
 1249 001e 9842     		cmp	r0, r3
 1250 0020 F6D1     		bne	.L79
 1251              		.loc 1 538 0
 1252 0022 0E4B     		ldr	r3, .L85+8
 1253 0024 0E4A     		ldr	r2, .L85+12
 1254 0026 1A60     		str	r2, [r3]
ARM GAS  C:\Users\mathi\AppData\Local\Temp\cc6FoflA.s 			page 23


 1255              		.loc 1 539 0
 1256 0028 0022     		movs	r2, #0
 1257 002a 5A61     		str	r2, [r3, #20]
 1258              		.loc 1 543 0
 1259 002c 1320     		movs	r0, #19
 1260              	.LVL107:
 1261 002e FFF7FEFF 		bl	nvicDisableVector
 1262              	.LVL108:
 1263              		.loc 1 544 0
 1264 0032 1420     		movs	r0, #20
 1265 0034 FFF7FEFF 		bl	nvicDisableVector
 1266              	.LVL109:
 1267              		.loc 1 545 0
 1268 0038 1520     		movs	r0, #21
 1269 003a FFF7FEFF 		bl	nvicDisableVector
 1270              	.LVL110:
 1271              		.loc 1 546 0
 1272 003e 1620     		movs	r0, #22
 1273 0040 FFF7FEFF 		bl	nvicDisableVector
 1274              	.LVL111:
 1275              		.loc 1 548 0
 1276 0044 074A     		ldr	r2, .L85+16
 1277 0046 136C     		ldr	r3, [r2, #64]
 1278 0048 23F00073 		bic	r3, r3, #33554432
 1279 004c 1364     		str	r3, [r2, #64]
 1280              		.loc 1 567 0
 1281 004e DFE7     		b	.L79
 1282              	.L84:
 1283 0050 FFF7FEFF 		bl	__stack_chk_fail
 1284              	.LVL112:
 1285              	.L86:
 1286              		.align	2
 1287              	.L85:
 1288 0054 00000000 		.word	__stack_chk_guard
 1289 0058 00000000 		.word	.LANCHOR0
 1290 005c 00640040 		.word	1073767424
 1291 0060 02000100 		.word	65538
 1292 0064 00380240 		.word	1073887232
 1293              		.cfi_endproc
 1294              	.LFE267:
 1295              		.size	can_lld_stop, .-can_lld_stop
 1296              		.section	.text.can_lld_is_tx_empty,"ax",%progbits
 1297              		.align	1
 1298              		.p2align 4,,15
 1299              		.global	can_lld_is_tx_empty
 1300              		.syntax unified
 1301              		.thumb
 1302              		.thumb_func
 1303              		.fpu fpv4-sp-d16
 1304              		.type	can_lld_is_tx_empty, %function
 1305              	can_lld_is_tx_empty:
 1306              	.LFB268:
 1307              		.loc 1 581 0
 1308              		.cfi_startproc
 1309              		@ args = 0, pretend = 0, frame = 8
 1310              		@ frame_needed = 0, uses_anonymous_args = 0
 1311              	.LVL113:
ARM GAS  C:\Users\mathi\AppData\Local\Temp\cc6FoflA.s 			page 24


 1312 0000 00B5     		push	{lr}
 1313              		.cfi_def_cfa_offset 4
 1314              		.cfi_offset 14, -4
 1315 0002 154B     		ldr	r3, .L98
 1316 0004 83B0     		sub	sp, sp, #12
 1317              		.cfi_def_cfa_offset 16
 1318              		.loc 1 581 0
 1319 0006 1A68     		ldr	r2, [r3]
 1320 0008 0192     		str	r2, [sp, #4]
 1321              		.loc 1 583 0
 1322 000a 0329     		cmp	r1, #3
 1323 000c 22D8     		bhi	.L95
 1324 000e DFE801F0 		tbb	[pc, r1]
 1325              	.L90:
 1326 0012 17       		.byte	(.L89-.L90)/2
 1327 0013 12       		.byte	(.L91-.L90)/2
 1328 0014 0D       		.byte	(.L92-.L90)/2
 1329 0015 02       		.byte	(.L93-.L90)/2
 1330              		.p2align 1
 1331              	.L93:
 1332              		.loc 1 591 0
 1333 0016 C26A     		ldr	r2, [r0, #44]
 1334 0018 9068     		ldr	r0, [r2, #8]
 1335              	.LVL114:
 1336 001a C0F30070 		ubfx	r0, r0, #28, #1
 1337              	.L88:
 1338              		.loc 1 595 0
 1339 001e 019A     		ldr	r2, [sp, #4]
 1340 0020 1B68     		ldr	r3, [r3]
 1341 0022 9A42     		cmp	r2, r3
 1342 0024 14D1     		bne	.L97
 1343 0026 03B0     		add	sp, sp, #12
 1344              		.cfi_remember_state
 1345              		.cfi_def_cfa_offset 4
 1346              		@ sp needed
 1347 0028 5DF804FB 		ldr	pc, [sp], #4
 1348              	.LVL115:
 1349              	.L92:
 1350              		.cfi_restore_state
 1351              		.loc 1 589 0
 1352 002c C26A     		ldr	r2, [r0, #44]
 1353 002e 9068     		ldr	r0, [r2, #8]
 1354              	.LVL116:
 1355 0030 C0F3C060 		ubfx	r0, r0, #27, #1
 1356 0034 F3E7     		b	.L88
 1357              	.LVL117:
 1358              	.L91:
 1359              		.loc 1 587 0
 1360 0036 C26A     		ldr	r2, [r0, #44]
 1361 0038 9068     		ldr	r0, [r2, #8]
 1362              	.LVL118:
 1363 003a C0F38060 		ubfx	r0, r0, #26, #1
 1364 003e EEE7     		b	.L88
 1365              	.LVL119:
 1366              	.L89:
 1367              		.loc 1 585 0
 1368 0040 C26A     		ldr	r2, [r0, #44]
ARM GAS  C:\Users\mathi\AppData\Local\Temp\cc6FoflA.s 			page 25


 1369 0042 9268     		ldr	r2, [r2, #8]
 1370 0044 12F0E05F 		tst	r2, #469762048
 1371 0048 14BF     		ite	ne
 1372 004a 0120     		movne	r0, #1
 1373              	.LVL120:
 1374 004c 0020     		moveq	r0, #0
 1375 004e E6E7     		b	.L88
 1376              	.L97:
 1377              		.loc 1 595 0
 1378 0050 FFF7FEFF 		bl	__stack_chk_fail
 1379              	.LVL121:
 1380              	.L95:
 1381              		.loc 1 593 0
 1382 0054 0020     		movs	r0, #0
 1383              	.LVL122:
 1384 0056 E2E7     		b	.L88
 1385              	.L99:
 1386              		.align	2
 1387              	.L98:
 1388 0058 00000000 		.word	__stack_chk_guard
 1389              		.cfi_endproc
 1390              	.LFE268:
 1391              		.size	can_lld_is_tx_empty, .-can_lld_is_tx_empty
 1392              		.section	.text.can_lld_transmit,"ax",%progbits
 1393              		.align	1
 1394              		.p2align 4,,15
 1395              		.global	can_lld_transmit
 1396              		.syntax unified
 1397              		.thumb
 1398              		.thumb_func
 1399              		.fpu fpv4-sp-d16
 1400              		.type	can_lld_transmit, %function
 1401              	can_lld_transmit:
 1402              	.LFB269:
 1403              		.loc 1 608 0
 1404              		.cfi_startproc
 1405              		@ args = 0, pretend = 0, frame = 8
 1406              		@ frame_needed = 0, uses_anonymous_args = 0
 1407              	.LVL123:
 1408 0000 30B5     		push	{r4, r5, lr}
 1409              		.cfi_def_cfa_offset 12
 1410              		.cfi_offset 4, -12
 1411              		.cfi_offset 5, -8
 1412              		.cfi_offset 14, -4
 1413 0002 1F4C     		ldr	r4, .L113
 1414 0004 83B0     		sub	sp, sp, #12
 1415              		.cfi_def_cfa_offset 24
 1416              		.loc 1 608 0
 1417 0006 2368     		ldr	r3, [r4]
 1418 0008 0193     		str	r3, [sp, #4]
 1419              		.loc 1 613 0
 1420 000a 0329     		cmp	r1, #3
 1421 000c 1CD8     		bhi	.L100
 1422 000e DFE801F0 		tbb	[pc, r1]
 1423              	.L103:
 1424 0012 25       		.byte	(.L102-.L103)/2
 1425 0013 2D       		.byte	(.L104-.L103)/2
ARM GAS  C:\Users\mathi\AppData\Local\Temp\cc6FoflA.s 			page 26


 1426 0014 21       		.byte	(.L105-.L103)/2
 1427 0015 02       		.byte	(.L106-.L103)/2
 1428              		.p2align 1
 1429              	.L106:
 1430              		.loc 1 624 0
 1431 0016 C16A     		ldr	r1, [r0, #44]
 1432              	.LVL124:
 1433 0018 01F5D071 		add	r1, r1, #416
 1434              	.LVL125:
 1435              	.L107:
 1436 001c 1078     		ldrb	r0, [r2]	@ zero_extendqisi2
 1437              	.LVL126:
 1438 001e C0F30013 		ubfx	r3, r0, #4, #1
 1439              		.loc 1 631 0
 1440 0022 8506     		lsls	r5, r0, #26
 1441 0024 4FEA4303 		lsl	r3, r3, #1
 1442 0028 24D5     		bpl	.L108
 1443              		.loc 1 632 0
 1444 002a 5568     		ldr	r5, [r2, #4]
 1445 002c 43EAC503 		orr	r3, r3, r5, lsl #3
 1446 0030 43F00403 		orr	r3, r3, #4
 1447              	.LVL127:
 1448              	.L109:
 1449              		.loc 1 636 0
 1450 0034 00F00F00 		and	r0, r0, #15
 1451 0038 4860     		str	r0, [r1, #4]
 1452              		.loc 1 637 0
 1453 003a 9068     		ldr	r0, [r2, #8]
 1454 003c 8860     		str	r0, [r1, #8]
 1455              		.loc 1 638 0
 1456 003e D268     		ldr	r2, [r2, #12]
 1457              	.LVL128:
 1458 0040 CA60     		str	r2, [r1, #12]
 1459              		.loc 1 639 0
 1460 0042 43F00103 		orr	r3, r3, #1
 1461              	.LVL129:
 1462 0046 0B60     		str	r3, [r1]
 1463              	.LVL130:
 1464              	.L100:
 1465              		.loc 1 640 0
 1466 0048 019A     		ldr	r2, [sp, #4]
 1467 004a 2368     		ldr	r3, [r4]
 1468 004c 9A42     		cmp	r2, r3
 1469 004e 15D1     		bne	.L112
 1470 0050 03B0     		add	sp, sp, #12
 1471              		.cfi_remember_state
 1472              		.cfi_def_cfa_offset 12
 1473              		@ sp needed
 1474 0052 30BD     		pop	{r4, r5, pc}
 1475              	.LVL131:
 1476              	.L105:
 1477              		.cfi_restore_state
 1478              		.loc 1 621 0
 1479 0054 C16A     		ldr	r1, [r0, #44]
 1480              	.LVL132:
 1481 0056 01F5C871 		add	r1, r1, #400
 1482              	.LVL133:
ARM GAS  C:\Users\mathi\AppData\Local\Temp\cc6FoflA.s 			page 27


 1483              		.loc 1 622 0
 1484 005a DFE7     		b	.L107
 1485              	.LVL134:
 1486              	.L102:
 1487              		.loc 1 615 0
 1488 005c C16A     		ldr	r1, [r0, #44]
 1489              	.LVL135:
 1490 005e 8B68     		ldr	r3, [r1, #8]
 1491 0060 C3F30163 		ubfx	r3, r3, #24, #2
 1492 0064 1833     		adds	r3, r3, #24
 1493 0066 01EB0311 		add	r1, r1, r3, lsl #4
 1494              	.LVL136:
 1495              		.loc 1 616 0
 1496 006a D7E7     		b	.L107
 1497              	.LVL137:
 1498              	.L104:
 1499              		.loc 1 618 0
 1500 006c C16A     		ldr	r1, [r0, #44]
 1501              	.LVL138:
 1502 006e 01F5C071 		add	r1, r1, #384
 1503              	.LVL139:
 1504              		.loc 1 619 0
 1505 0072 D3E7     		b	.L107
 1506              	.LVL140:
 1507              	.L108:
 1508              		.loc 1 635 0
 1509 0074 9588     		ldrh	r5, [r2, #4]
 1510 0076 43EA4553 		orr	r3, r3, r5, lsl #21
 1511              	.LVL141:
 1512 007a DBE7     		b	.L109
 1513              	.LVL142:
 1514              	.L112:
 1515              		.loc 1 640 0
 1516 007c FFF7FEFF 		bl	__stack_chk_fail
 1517              	.LVL143:
 1518              	.L114:
 1519              		.align	2
 1520              	.L113:
 1521 0080 00000000 		.word	__stack_chk_guard
 1522              		.cfi_endproc
 1523              	.LFE269:
 1524              		.size	can_lld_transmit, .-can_lld_transmit
 1525              		.section	.text.can_lld_is_rx_nonempty,"ax",%progbits
 1526              		.align	1
 1527              		.p2align 4,,15
 1528              		.global	can_lld_is_rx_nonempty
 1529              		.syntax unified
 1530              		.thumb
 1531              		.thumb_func
 1532              		.fpu fpv4-sp-d16
 1533              		.type	can_lld_is_rx_nonempty, %function
 1534              	can_lld_is_rx_nonempty:
 1535              	.LFB270:
 1536              		.loc 1 654 0
 1537              		.cfi_startproc
 1538              		@ args = 0, pretend = 0, frame = 8
 1539              		@ frame_needed = 0, uses_anonymous_args = 0
ARM GAS  C:\Users\mathi\AppData\Local\Temp\cc6FoflA.s 			page 28


 1540              	.LVL144:
 1541 0000 00B5     		push	{lr}
 1542              		.cfi_def_cfa_offset 4
 1543              		.cfi_offset 14, -4
 1544 0002 134B     		ldr	r3, .L128
 1545 0004 83B0     		sub	sp, sp, #12
 1546              		.cfi_def_cfa_offset 16
 1547              		.loc 1 654 0
 1548 0006 1A68     		ldr	r2, [r3]
 1549 0008 0192     		str	r2, [sp, #4]
 1550              		.loc 1 656 0
 1551 000a 0129     		cmp	r1, #1
 1552 000c 17D0     		beq	.L117
 1553 000e 10D3     		bcc	.L118
 1554 0010 0229     		cmp	r1, #2
 1555 0012 07D0     		beq	.L119
 1556              		.loc 1 665 0
 1557 0014 0020     		movs	r0, #0
 1558              	.LVL145:
 1559              	.L116:
 1560              		.loc 1 667 0
 1561 0016 019A     		ldr	r2, [sp, #4]
 1562 0018 1B68     		ldr	r3, [r3]
 1563 001a 9A42     		cmp	r2, r3
 1564 001c 16D1     		bne	.L127
 1565 001e 03B0     		add	sp, sp, #12
 1566              		.cfi_remember_state
 1567              		.cfi_def_cfa_offset 4
 1568              		@ sp needed
 1569 0020 5DF804FB 		ldr	pc, [sp], #4
 1570              	.LVL146:
 1571              	.L119:
 1572              		.cfi_restore_state
 1573              		.loc 1 663 0
 1574 0024 C26A     		ldr	r2, [r0, #44]
 1575              	.LVL147:
 1576              	.L126:
 1577 0026 1069     		ldr	r0, [r2, #16]
 1578              	.LVL148:
 1579 0028 10F00300 		ands	r0, r0, #3
 1580 002c 18BF     		it	ne
 1581 002e 0120     		movne	r0, #1
 1582 0030 F1E7     		b	.L116
 1583              	.LVL149:
 1584              	.L118:
 1585              		.loc 1 658 0
 1586 0032 C26A     		ldr	r2, [r0, #44]
 1587 0034 D168     		ldr	r1, [r2, #12]
 1588              	.LVL150:
 1589 0036 8907     		lsls	r1, r1, #30
 1590 0038 F5D0     		beq	.L126
 1591 003a 0120     		movs	r0, #1
 1592              	.LVL151:
 1593 003c EBE7     		b	.L116
 1594              	.LVL152:
 1595              	.L117:
 1596              		.loc 1 661 0
ARM GAS  C:\Users\mathi\AppData\Local\Temp\cc6FoflA.s 			page 29


 1597 003e C26A     		ldr	r2, [r0, #44]
 1598 0040 D068     		ldr	r0, [r2, #12]
 1599              	.LVL153:
 1600 0042 10F00300 		ands	r0, r0, #3
 1601 0046 18BF     		it	ne
 1602 0048 0120     		movne	r0, #1
 1603 004a E4E7     		b	.L116
 1604              	.LVL154:
 1605              	.L127:
 1606              		.loc 1 667 0
 1607 004c FFF7FEFF 		bl	__stack_chk_fail
 1608              	.LVL155:
 1609              	.L129:
 1610              		.align	2
 1611              	.L128:
 1612 0050 00000000 		.word	__stack_chk_guard
 1613              		.cfi_endproc
 1614              	.LFE270:
 1615              		.size	can_lld_is_rx_nonempty, .-can_lld_is_rx_nonempty
 1616              		.section	.text.can_lld_receive,"ax",%progbits
 1617              		.align	1
 1618              		.p2align 4,,15
 1619              		.global	can_lld_receive
 1620              		.syntax unified
 1621              		.thumb
 1622              		.thumb_func
 1623              		.fpu fpv4-sp-d16
 1624              		.type	can_lld_receive, %function
 1625              	can_lld_receive:
 1626              	.LFB271:
 1627              		.loc 1 680 0
 1628              		.cfi_startproc
 1629              		@ args = 0, pretend = 0, frame = 8
 1630              		@ frame_needed = 0, uses_anonymous_args = 0
 1631              	.LVL156:
 1632 0000 70B5     		push	{r4, r5, r6, lr}
 1633              		.cfi_def_cfa_offset 16
 1634              		.cfi_offset 4, -16
 1635              		.cfi_offset 5, -12
 1636              		.cfi_offset 6, -8
 1637              		.cfi_offset 14, -4
 1638 0002 334D     		ldr	r5, .L144
 1639 0004 82B0     		sub	sp, sp, #8
 1640              		.cfi_def_cfa_offset 24
 1641              		.loc 1 680 0
 1642 0006 2B68     		ldr	r3, [r5]
 1643 0008 0193     		str	r3, [sp, #4]
 1644              		.loc 1 683 0
 1645 000a 0029     		cmp	r1, #0
 1646 000c 36D1     		bne	.L131
 1647              		.loc 1 684 0
 1648 000e C36A     		ldr	r3, [r0, #44]
 1649 0010 D968     		ldr	r1, [r3, #12]
 1650              	.LVL157:
 1651 0012 8C07     		lsls	r4, r1, #30
 1652 0014 4ED0     		beq	.L142
 1653              	.L132:
ARM GAS  C:\Users\mathi\AppData\Local\Temp\cc6FoflA.s 			page 30


 1654              		.loc 1 696 0
 1655 0016 D3F8B041 		ldr	r4, [r3, #432]
 1656              	.LVL158:
 1657              		.loc 1 697 0
 1658 001a D3F8B411 		ldr	r1, [r3, #436]
 1659              	.LVL159:
 1660              		.loc 1 698 0
 1661 001e D3F8B831 		ldr	r3, [r3, #440]
 1662 0022 D360     		str	r3, [r2, #12]
 1663              		.loc 1 699 0
 1664 0024 C36A     		ldr	r3, [r0, #44]
 1665 0026 D3F8BC31 		ldr	r3, [r3, #444]
 1666 002a 1361     		str	r3, [r2, #16]
 1667              		.loc 1 702 0
 1668 002c C36A     		ldr	r3, [r0, #44]
 1669 002e 2026     		movs	r6, #32
 1670 0030 DE60     		str	r6, [r3, #12]
 1671              		.loc 1 706 0
 1672 0032 C36A     		ldr	r3, [r0, #44]
 1673 0034 D868     		ldr	r0, [r3, #12]
 1674              	.LVL160:
 1675 0036 8607     		lsls	r6, r0, #30
 1676 0038 03D1     		bne	.L137
 1677              		.loc 1 707 0
 1678 003a 5869     		ldr	r0, [r3, #20]
 1679 003c 40F00200 		orr	r0, r0, #2
 1680 0040 5861     		str	r0, [r3, #20]
 1681              	.L137:
 1682              		.loc 1 730 0
 1683 0042 1379     		ldrb	r3, [r2, #4]	@ zero_extendqisi2
 1684 0044 6008     		lsrs	r0, r4, #1
 1685 0046 60F30413 		bfi	r3, r0, #4, #1
 1686              		.loc 1 731 0
 1687 004a A008     		lsrs	r0, r4, #2
 1688 004c 60F34513 		bfi	r3, r0, #5, #1
 1689 0050 1371     		strb	r3, [r2, #4]
 1690              		.loc 1 732 0
 1691 0052 9B06     		lsls	r3, r3, #26
 1692 0054 32D5     		bpl	.L138
 1693              		.loc 1 733 0
 1694 0056 9368     		ldr	r3, [r2, #8]
 1695 0058 E408     		lsrs	r4, r4, #3
 1696              	.LVL161:
 1697 005a 64F31C03 		bfi	r3, r4, #0, #29
 1698 005e 9360     		str	r3, [r2, #8]
 1699              	.L139:
 1700              		.loc 1 736 0
 1701 0060 1379     		ldrb	r3, [r2, #4]	@ zero_extendqisi2
 1702              		.loc 1 737 0
 1703 0062 080A     		lsrs	r0, r1, #8
 1704              		.loc 1 736 0
 1705 0064 61F30303 		bfi	r3, r1, #0, #4
 1706              		.loc 1 738 0
 1707 0068 090C     		lsrs	r1, r1, #16
 1708              	.LVL162:
 1709              		.loc 1 736 0
 1710 006a 1371     		strb	r3, [r2, #4]
ARM GAS  C:\Users\mathi\AppData\Local\Temp\cc6FoflA.s 			page 31


 1711              		.loc 1 737 0
 1712 006c 1070     		strb	r0, [r2]
 1713              		.loc 1 738 0
 1714 006e 5180     		strh	r1, [r2, #2]	@ movhi
 1715              	.L130:
 1716              		.loc 1 739 0
 1717 0070 019A     		ldr	r2, [sp, #4]
 1718              	.LVL163:
 1719 0072 2B68     		ldr	r3, [r5]
 1720 0074 9A42     		cmp	r2, r3
 1721 0076 29D1     		bne	.L143
 1722 0078 02B0     		add	sp, sp, #8
 1723              		.cfi_remember_state
 1724              		.cfi_def_cfa_offset 16
 1725              		@ sp needed
 1726 007a 70BD     		pop	{r4, r5, r6, pc}
 1727              	.LVL164:
 1728              	.L131:
 1729              		.cfi_restore_state
 1730              		.loc 1 693 0
 1731 007c 0129     		cmp	r1, #1
 1732 007e 23D0     		beq	.L135
 1733 0080 0229     		cmp	r1, #2
 1734 0082 F5D1     		bne	.L130
 1735 0084 C36A     		ldr	r3, [r0, #44]
 1736              	.LVL165:
 1737              	.L133:
 1738              		.loc 1 711 0
 1739 0086 D3F8C041 		ldr	r4, [r3, #448]
 1740              	.LVL166:
 1741              		.loc 1 712 0
 1742 008a D3F8C411 		ldr	r1, [r3, #452]
 1743              	.LVL167:
 1744              		.loc 1 713 0
 1745 008e D3F8C831 		ldr	r3, [r3, #456]
 1746 0092 D360     		str	r3, [r2, #12]
 1747              		.loc 1 714 0
 1748 0094 C36A     		ldr	r3, [r0, #44]
 1749 0096 D3F8CC31 		ldr	r3, [r3, #460]
 1750 009a 1361     		str	r3, [r2, #16]
 1751              		.loc 1 717 0
 1752 009c C36A     		ldr	r3, [r0, #44]
 1753 009e 2026     		movs	r6, #32
 1754 00a0 1E61     		str	r6, [r3, #16]
 1755              		.loc 1 721 0
 1756 00a2 C36A     		ldr	r3, [r0, #44]
 1757 00a4 1869     		ldr	r0, [r3, #16]
 1758              	.LVL168:
 1759 00a6 8007     		lsls	r0, r0, #30
 1760 00a8 CBD1     		bne	.L137
 1761              		.loc 1 722 0
 1762 00aa 5869     		ldr	r0, [r3, #20]
 1763 00ac 40F01000 		orr	r0, r0, #16
 1764 00b0 5861     		str	r0, [r3, #20]
 1765 00b2 C6E7     		b	.L137
 1766              	.LVL169:
 1767              	.L142:
ARM GAS  C:\Users\mathi\AppData\Local\Temp\cc6FoflA.s 			page 32


 1768              		.loc 1 686 0
 1769 00b4 1969     		ldr	r1, [r3, #16]
 1770 00b6 8907     		lsls	r1, r1, #30
 1771 00b8 E5D1     		bne	.L133
 1772 00ba D9E7     		b	.L130
 1773              	.LVL170:
 1774              	.L138:
 1775              		.loc 1 735 0
 1776 00bc 1389     		ldrh	r3, [r2, #8]
 1777 00be 640D     		lsrs	r4, r4, #21
 1778              	.LVL171:
 1779 00c0 64F30A03 		bfi	r3, r4, #0, #11
 1780 00c4 1381     		strh	r3, [r2, #8]	@ movhi
 1781 00c6 CBE7     		b	.L139
 1782              	.LVL172:
 1783              	.L135:
 1784 00c8 C36A     		ldr	r3, [r0, #44]
 1785 00ca A4E7     		b	.L132
 1786              	.LVL173:
 1787              	.L143:
 1788              		.loc 1 739 0
 1789 00cc FFF7FEFF 		bl	__stack_chk_fail
 1790              	.LVL174:
 1791              	.L145:
 1792              		.align	2
 1793              	.L144:
 1794 00d0 00000000 		.word	__stack_chk_guard
 1795              		.cfi_endproc
 1796              	.LFE271:
 1797              		.size	can_lld_receive, .-can_lld_receive
 1798              		.section	.text.can_lld_sleep,"ax",%progbits
 1799              		.align	1
 1800              		.p2align 4,,15
 1801              		.global	can_lld_sleep
 1802              		.syntax unified
 1803              		.thumb
 1804              		.thumb_func
 1805              		.fpu fpv4-sp-d16
 1806              		.type	can_lld_sleep, %function
 1807              	can_lld_sleep:
 1808              	.LFB272:
 1809              		.loc 1 749 0
 1810              		.cfi_startproc
 1811              		@ args = 0, pretend = 0, frame = 8
 1812              		@ frame_needed = 0, uses_anonymous_args = 0
 1813              	.LVL175:
 1814 0000 00B5     		push	{lr}
 1815              		.cfi_def_cfa_offset 4
 1816              		.cfi_offset 14, -4
 1817 0002 094A     		ldr	r2, .L150
 1818              		.loc 1 751 0
 1819 0004 C16A     		ldr	r1, [r0, #44]
 1820              		.loc 1 749 0
 1821 0006 1368     		ldr	r3, [r2]
 1822 0008 83B0     		sub	sp, sp, #12
 1823              		.cfi_def_cfa_offset 16
 1824              		.loc 1 749 0
ARM GAS  C:\Users\mathi\AppData\Local\Temp\cc6FoflA.s 			page 33


 1825 000a 0193     		str	r3, [sp, #4]
 1826              		.loc 1 751 0
 1827 000c 0B68     		ldr	r3, [r1]
 1828 000e 43F00203 		orr	r3, r3, #2
 1829 0012 0B60     		str	r3, [r1]
 1830              		.loc 1 752 0
 1831 0014 0199     		ldr	r1, [sp, #4]
 1832 0016 1368     		ldr	r3, [r2]
 1833 0018 9942     		cmp	r1, r3
 1834 001a 02D1     		bne	.L149
 1835 001c 03B0     		add	sp, sp, #12
 1836              		.cfi_remember_state
 1837              		.cfi_def_cfa_offset 4
 1838              		@ sp needed
 1839 001e 5DF804FB 		ldr	pc, [sp], #4
 1840              	.L149:
 1841              		.cfi_restore_state
 1842 0022 FFF7FEFF 		bl	__stack_chk_fail
 1843              	.LVL176:
 1844              	.L151:
 1845 0026 00BF     		.align	2
 1846              	.L150:
 1847 0028 00000000 		.word	__stack_chk_guard
 1848              		.cfi_endproc
 1849              	.LFE272:
 1850              		.size	can_lld_sleep, .-can_lld_sleep
 1851              		.section	.text.can_lld_wakeup,"ax",%progbits
 1852              		.align	1
 1853              		.p2align 4,,15
 1854              		.global	can_lld_wakeup
 1855              		.syntax unified
 1856              		.thumb
 1857              		.thumb_func
 1858              		.fpu fpv4-sp-d16
 1859              		.type	can_lld_wakeup, %function
 1860              	can_lld_wakeup:
 1861              	.LFB273:
 1862              		.loc 1 761 0
 1863              		.cfi_startproc
 1864              		@ args = 0, pretend = 0, frame = 8
 1865              		@ frame_needed = 0, uses_anonymous_args = 0
 1866              	.LVL177:
 1867 0000 00B5     		push	{lr}
 1868              		.cfi_def_cfa_offset 4
 1869              		.cfi_offset 14, -4
 1870 0002 094A     		ldr	r2, .L156
 1871              		.loc 1 763 0
 1872 0004 C16A     		ldr	r1, [r0, #44]
 1873              		.loc 1 761 0
 1874 0006 1368     		ldr	r3, [r2]
 1875 0008 83B0     		sub	sp, sp, #12
 1876              		.cfi_def_cfa_offset 16
 1877              		.loc 1 761 0
 1878 000a 0193     		str	r3, [sp, #4]
 1879              		.loc 1 763 0
 1880 000c 0B68     		ldr	r3, [r1]
 1881 000e 23F00203 		bic	r3, r3, #2
ARM GAS  C:\Users\mathi\AppData\Local\Temp\cc6FoflA.s 			page 34


 1882 0012 0B60     		str	r3, [r1]
 1883              		.loc 1 764 0
 1884 0014 0199     		ldr	r1, [sp, #4]
 1885 0016 1368     		ldr	r3, [r2]
 1886 0018 9942     		cmp	r1, r3
 1887 001a 02D1     		bne	.L155
 1888 001c 03B0     		add	sp, sp, #12
 1889              		.cfi_remember_state
 1890              		.cfi_def_cfa_offset 4
 1891              		@ sp needed
 1892 001e 5DF804FB 		ldr	pc, [sp], #4
 1893              	.L155:
 1894              		.cfi_restore_state
 1895 0022 FFF7FEFF 		bl	__stack_chk_fail
 1896              	.LVL178:
 1897              	.L157:
 1898 0026 00BF     		.align	2
 1899              	.L156:
 1900 0028 00000000 		.word	__stack_chk_guard
 1901              		.cfi_endproc
 1902              	.LFE273:
 1903              		.size	can_lld_wakeup, .-can_lld_wakeup
 1904              		.section	.text.canSTM32SetFilters,"ax",%progbits
 1905              		.align	1
 1906              		.p2align 4,,15
 1907              		.global	canSTM32SetFilters
 1908              		.syntax unified
 1909              		.thumb
 1910              		.thumb_func
 1911              		.fpu fpv4-sp-d16
 1912              		.type	canSTM32SetFilters, %function
 1913              	canSTM32SetFilters:
 1914              	.LFB274:
 1915              		.loc 1 779 0
 1916              		.cfi_startproc
 1917              		@ args = 0, pretend = 0, frame = 8
 1918              		@ frame_needed = 0, uses_anonymous_args = 0
 1919              	.LVL179:
 1920 0000 F0B5     		push	{r4, r5, r6, r7, lr}
 1921              		.cfi_def_cfa_offset 20
 1922              		.cfi_offset 4, -20
 1923              		.cfi_offset 5, -16
 1924              		.cfi_offset 6, -12
 1925              		.cfi_offset 7, -8
 1926              		.cfi_offset 14, -4
 1927 0002 584C     		ldr	r4, .L186
 1928 0004 83B0     		sub	sp, sp, #12
 1929              		.cfi_def_cfa_offset 32
 1930              		.loc 1 779 0
 1931 0006 2368     		ldr	r3, [r4]
 1932 0008 0193     		str	r3, [sp, #4]
 1933              		.loc 1 781 0
 1934 000a 431E     		subs	r3, r0, #1
 1935 000c 1A2B     		cmp	r3, #26
 1936              		.loc 1 779 0
 1937 000e 0746     		mov	r7, r0
 1938 0010 0D46     		mov	r5, r1
ARM GAS  C:\Users\mathi\AppData\Local\Temp\cc6FoflA.s 			page 35


 1939 0012 1646     		mov	r6, r2
 1940              		.loc 1 781 0
 1941 0014 00F28580 		bhi	.L159
 1942              		.loc 1 781 0 is_stmt 0 discriminator 3
 1943 0018 1C29     		cmp	r1, #28
 1944 001a 00F28280 		bhi	.L159
 1945              	.LVL180:
 1946              	.L160:
 1947              		.loc 1 785 0 is_stmt 1 discriminator 1
 1948 001e 524B     		ldr	r3, .L186+4
 1949 0020 1B78     		ldrb	r3, [r3]	@ zero_extendqisi2
 1950 0022 012B     		cmp	r3, #1
 1951 0024 02D0     		beq	.L161
 1952              		.loc 1 785 0 is_stmt 0 discriminator 2
 1953 0026 5148     		ldr	r0, .L186+8
 1954 0028 FFF7FEFF 		bl	chSysHalt
 1955              	.LVL181:
 1956              	.L161:
 1957              	.LBB578:
 1958              	.LBB579:
 1959              		.loc 1 80 0 is_stmt 1
 1960 002c 504A     		ldr	r2, .L186+12
 1961              		.loc 1 83 0
 1962 002e 5149     		ldr	r1, .L186+16
 1963              		.loc 1 80 0
 1964 0030 136C     		ldr	r3, [r2, #64]
 1965 0032 43F00073 		orr	r3, r3, #33554432
 1966 0036 1364     		str	r3, [r2, #64]
 1967              		.loc 1 83 0
 1968 0038 D1F80032 		ldr	r3, [r1, #512]
 1969 003c 1B0C     		lsrs	r3, r3, #16
 1970 003e 1B04     		lsls	r3, r3, #16
 1971 0040 43F00103 		orr	r3, r3, #1
 1972 0044 43EA0723 		orr	r3, r3, r7, lsl #8
 1973 0048 C1F80032 		str	r3, [r1, #512]
 1974              		.loc 1 84 0
 1975 004c 002D     		cmp	r5, #0
 1976 004e 6CD0     		beq	.L162
 1977              	.LBB580:
 1978              		.loc 1 88 0
 1979 0050 0023     		movs	r3, #0
 1980 0052 C1F81C32 		str	r3, [r1, #540]
 1981              		.loc 1 92 0
 1982 0056 1A46     		mov	r2, r3
 1983              		.loc 1 89 0
 1984 0058 C1F80432 		str	r3, [r1, #516]
 1985              		.loc 1 93 0
 1986 005c 1846     		mov	r0, r3
 1987              		.loc 1 90 0
 1988 005e C1F80C32 		str	r3, [r1, #524]
 1989              		.loc 1 91 0
 1990 0062 C1F81432 		str	r3, [r1, #532]
 1991              	.LVL182:
 1992              	.L163:
 1993 0066 D300     		lsls	r3, r2, #3
 1994 0068 03F18043 		add	r3, r3, #1073741824
 1995 006c 03F5C843 		add	r3, r3, #25600
ARM GAS  C:\Users\mathi\AppData\Local\Temp\cc6FoflA.s 			page 36


 1996              		.loc 1 92 0
 1997 0070 0132     		adds	r2, r2, #1
 1998              	.LVL183:
 1999 0072 1C2A     		cmp	r2, #28
 2000              		.loc 1 93 0
 2001 0074 C3F84002 		str	r0, [r3, #576]
 2002              		.loc 1 94 0
 2003 0078 C3F84402 		str	r0, [r3, #580]
 2004              		.loc 1 92 0
 2005 007c F3D1     		bne	.L163
 2006              		.loc 1 101 0
 2007 007e 3D48     		ldr	r0, .L186+16
 2008 0080 06F11002 		add	r2, r6, #16
 2009              	.LVL184:
 2010              		.loc 1 99 0
 2011 0084 4FF0010C 		mov	ip, #1
 2012              		.loc 1 98 0
 2013 0088 0026     		movs	r6, #0
 2014              	.LVL185:
 2015              	.L167:
 2016 008a A2F11007 		sub	r7, r2, #16
 2017              	.LVL186:
 2018              		.loc 1 100 0
 2019 008e 3B79     		ldrb	r3, [r7, #4]	@ zero_extendqisi2
 2020              		.loc 1 99 0
 2021 0090 52F8101C 		ldr	r1, [r2, #-16]
 2022              		.loc 1 100 0
 2023 0094 13F0010F 		tst	r3, #1
 2024              		.loc 1 99 0
 2025 0098 0CFA01F1 		lsl	r1, ip, r1
 2026              	.LVL187:
 2027              		.loc 1 100 0
 2028 009c 05D0     		beq	.L164
 2029              		.loc 1 101 0
 2030 009e D0F80432 		ldr	r3, [r0, #516]
 2031 00a2 0B43     		orrs	r3, r3, r1
 2032 00a4 C0F80432 		str	r3, [r0, #516]
 2033 00a8 3B79     		ldrb	r3, [r7, #4]	@ zero_extendqisi2
 2034              	.L164:
 2035              		.loc 1 102 0
 2036 00aa 13F0020F 		tst	r3, #2
 2037 00ae 05D0     		beq	.L165
 2038              		.loc 1 103 0
 2039 00b0 D0F80C32 		ldr	r3, [r0, #524]
 2040 00b4 0B43     		orrs	r3, r3, r1
 2041 00b6 C0F80C32 		str	r3, [r0, #524]
 2042 00ba 3B79     		ldrb	r3, [r7, #4]	@ zero_extendqisi2
 2043              	.L165:
 2044              		.loc 1 104 0
 2045 00bc 5B07     		lsls	r3, r3, #29
 2046 00be 04D5     		bpl	.L166
 2047              		.loc 1 105 0
 2048 00c0 D0F81432 		ldr	r3, [r0, #532]
 2049 00c4 0B43     		orrs	r3, r3, r1
 2050 00c6 C0F81432 		str	r3, [r0, #532]
 2051              	.L166:
 2052              		.loc 1 106 0
ARM GAS  C:\Users\mathi\AppData\Local\Temp\cc6FoflA.s 			page 37


 2053 00ca 52F8103C 		ldr	r3, [r2, #-16]
 2054 00ce 52F8087C 		ldr	r7, [r2, #-8]
 2055              	.LVL188:
 2056 00d2 4833     		adds	r3, r3, #72
 2057              		.loc 1 98 0
 2058 00d4 0136     		adds	r6, r6, #1
 2059              	.LVL189:
 2060              		.loc 1 106 0
 2061 00d6 40F83370 		str	r7, [r0, r3, lsl #3]
 2062              		.loc 1 107 0
 2063 00da 52F8103C 		ldr	r3, [r2, #-16]
 2064 00de 52F8047C 		ldr	r7, [r2, #-4]
 2065 00e2 4833     		adds	r3, r3, #72
 2066 00e4 00EBC303 		add	r3, r0, r3, lsl #3
 2067              		.loc 1 98 0
 2068 00e8 B542     		cmp	r5, r6
 2069              		.loc 1 107 0
 2070 00ea 5F60     		str	r7, [r3, #4]
 2071              		.loc 1 108 0
 2072 00ec D0F81C32 		ldr	r3, [r0, #540]
 2073 00f0 41EA0301 		orr	r1, r1, r3
 2074              	.LVL190:
 2075 00f4 02F11002 		add	r2, r2, #16
 2076              	.LVL191:
 2077 00f8 C0F81C12 		str	r1, [r0, #540]
 2078              	.LVL192:
 2079              		.loc 1 98 0
 2080 00fc C5D1     		bne	.L167
 2081              	.LVL193:
 2082              	.L168:
 2083              	.LBE580:
 2084              		.loc 1 131 0
 2085 00fe 1D49     		ldr	r1, .L186+16
 2086              		.loc 1 134 0
 2087 0100 1B4A     		ldr	r2, .L186+12
 2088              		.loc 1 131 0
 2089 0102 D1F80032 		ldr	r3, [r1, #512]
 2090 0106 23F00103 		bic	r3, r3, #1
 2091 010a C1F80032 		str	r3, [r1, #512]
 2092              		.loc 1 134 0
 2093 010e 136C     		ldr	r3, [r2, #64]
 2094 0110 23F00073 		bic	r3, r3, #33554432
 2095 0114 1364     		str	r3, [r2, #64]
 2096              	.LVL194:
 2097              	.LBE579:
 2098              	.LBE578:
 2099              		.loc 1 792 0
 2100 0116 019A     		ldr	r2, [sp, #4]
 2101 0118 2368     		ldr	r3, [r4]
 2102 011a 9A42     		cmp	r2, r3
 2103 011c 1FD1     		bne	.L185
 2104 011e 03B0     		add	sp, sp, #12
 2105              		.cfi_remember_state
 2106              		.cfi_def_cfa_offset 20
 2107              		@ sp needed
 2108 0120 F0BD     		pop	{r4, r5, r6, r7, pc}
 2109              	.LVL195:
ARM GAS  C:\Users\mathi\AppData\Local\Temp\cc6FoflA.s 			page 38


 2110              	.L159:
 2111              		.cfi_restore_state
 2112              		.loc 1 781 0 discriminator 4
 2113 0122 1248     		ldr	r0, .L186+8
 2114              	.LVL196:
 2115 0124 FFF7FEFF 		bl	chSysHalt
 2116              	.LVL197:
 2117 0128 79E7     		b	.L160
 2118              	.LVL198:
 2119              	.L162:
 2120 012a FA00     		lsls	r2, r7, #3
 2121              	.LBB582:
 2122              	.LBB581:
 2123              		.loc 1 124 0
 2124 012c 0123     		movs	r3, #1
 2125 012e 02F18042 		add	r2, r2, #1073741824
 2126 0132 02F5C842 		add	r2, r2, #25600
 2127 0136 03FA07F7 		lsl	r7, r3, r7
 2128              	.LVL199:
 2129 013a 1F43     		orrs	r7, r7, r3
 2130              		.loc 1 115 0
 2131 013c C1F84052 		str	r5, [r1, #576]
 2132              		.loc 1 116 0
 2133 0140 C1F84452 		str	r5, [r1, #580]
 2134              		.loc 1 118 0
 2135 0144 C2F84052 		str	r5, [r2, #576]
 2136              		.loc 1 119 0
 2137 0148 C2F84452 		str	r5, [r2, #580]
 2138              		.loc 1 121 0
 2139 014c C1F80452 		str	r5, [r1, #516]
 2140              		.loc 1 122 0
 2141 0150 C1F81452 		str	r5, [r1, #532]
 2142              		.loc 1 124 0
 2143 0154 C1F80C72 		str	r7, [r1, #524]
 2144              		.loc 1 125 0
 2145 0158 C1F81C72 		str	r7, [r1, #540]
 2146 015c CFE7     		b	.L168
 2147              	.LVL200:
 2148              	.L185:
 2149              	.LBE581:
 2150              	.LBE582:
 2151              		.loc 1 792 0
 2152 015e FFF7FEFF 		bl	__stack_chk_fail
 2153              	.LVL201:
 2154              	.L187:
 2155 0162 00BF     		.align	2
 2156              	.L186:
 2157 0164 00000000 		.word	__stack_chk_guard
 2158 0168 00000000 		.word	.LANCHOR0
 2159 016c 00000000 		.word	.LANCHOR1
 2160 0170 00380240 		.word	1073887232
 2161 0174 00640040 		.word	1073767424
 2162              		.cfi_endproc
 2163              	.LFE274:
 2164              		.size	canSTM32SetFilters, .-canSTM32SetFilters
 2165              		.global	CAND1
 2166              		.section	.bss.CAND1,"aw",%nobits
ARM GAS  C:\Users\mathi\AppData\Local\Temp\cc6FoflA.s 			page 39


 2167              		.align	2
 2168              		.set	.LANCHOR0,. + 0
 2169              		.type	CAND1, %object
 2170              		.size	CAND1, 48
 2171              	CAND1:
 2172 0000 00000000 		.space	48
 2172      00000000 
 2172      00000000 
 2172      00000000 
 2172      00000000 
 2173              		.section	.rodata.__func__.9946,"a",%progbits
 2174              		.align	2
 2175              		.set	.LANCHOR1,. + 0
 2176              		.type	__func__.9946, %object
 2177              		.size	__func__.9946, 19
 2178              	__func__.9946:
 2179 0000 63616E53 		.ascii	"canSTM32SetFilters\000"
 2179      544D3332 
 2179      53657446 
 2179      696C7465 
 2179      727300
 2180              		.text
 2181              	.Letext0:
 2182              		.file 6 "c:\\eclipse_e-puck2\\tools\\gcc-arm-none-eabi-7-2017-q4-major-win32\\lib\\gcc\\arm-none-e
 2183              		.file 7 "c:\\eclipse_e-puck2\\tools\\gcc-arm-none-eabi-7-2017-q4-major-win32\\arm-none-eabi\\inclu
 2184              		.file 8 "c:\\eclipse_e-puck2\\tools\\gcc-arm-none-eabi-7-2017-q4-major-win32\\arm-none-eabi\\inclu
 2185              		.file 9 "../../lib/e-puck2_main-processor/ChibiOS//os/rt/ports/ARMCMx/compilers/GCC/chtypes.h"
 2186              		.file 10 "../../lib/e-puck2_main-processor/ChibiOS//os/rt/include/chsystypes.h"
 2187              		.file 11 "../../lib/e-puck2_main-processor/ChibiOS//os/rt/include/chschd.h"
 2188              		.file 12 "../../lib/e-puck2_main-processor/ChibiOS//os/ext/CMSIS/include/core_cm4.h"
 2189              		.file 13 "../../lib/e-puck2_main-processor/ChibiOS//os/ext/CMSIS/ST/system_stm32f4xx.h"
 2190              		.file 14 "../../lib/e-puck2_main-processor/ChibiOS//os/ext/CMSIS/ST/stm32f407xx.h"
 2191              		.file 15 "../../lib/e-puck2_main-processor/ChibiOS//os/rt/ports/ARMCMx/chcore.h"
 2192              		.file 16 "../../lib/e-puck2_main-processor/ChibiOS//os/rt/ports/ARMCMx/chcore_v7m.h"
 2193              		.file 17 "../../lib/e-puck2_main-processor/ChibiOS//os/rt/include/chdebug.h"
 2194              		.file 18 "../../lib/e-puck2_main-processor/ChibiOS//os/rt/include/chtm.h"
 2195              		.file 19 "../../lib/e-puck2_main-processor/ChibiOS//os/rt/include/chstats.h"
 2196              		.file 20 "../../lib/e-puck2_main-processor/ChibiOS//os/rt/include/chsem.h"
 2197              		.file 21 "../../lib/e-puck2_main-processor/ChibiOS//os/rt/include/chmtx.h"
 2198              		.file 22 "../../lib/e-puck2_main-processor/ChibiOS//os/rt/include/chregistry.h"
 2199              		.file 23 "../../lib/e-puck2_main-processor/ChibiOS//os/rt/include/chevents.h"
 2200              		.file 24 "../../lib/e-puck2_main-processor/ChibiOS//os/rt/include/chqueues.h"
 2201              		.file 25 "../../lib/e-puck2_main-processor/ChibiOS//os/hal/ports/STM32/STM32F4xx/stm32_dma.h"
 2202              		.file 26 "../../lib/e-puck2_main-processor/ChibiOS//os/hal/include/hal_ioblock.h"
 2203              		.file 27 "../../lib/e-puck2_main-processor/ChibiOS//os/hal/ports/STM32/LLD/GPIOv2/pal_lld.h"
 2204              		.file 28 "../../lib/e-puck2_main-processor/ChibiOS//os/hal/include/adc.h"
 2205              		.file 29 "../../lib/e-puck2_main-processor/ChibiOS//os/hal/ports/STM32/STM32F4xx/adc_lld.h"
 2206              		.file 30 "../../lib/e-puck2_main-processor/ChibiOS//os/hal/include/can.h"
 2207              		.file 31 "../../lib/e-puck2_main-processor/ChibiOS//os/hal/ports/STM32/LLD/can_lld.h"
 2208              		.file 32 "../../lib/e-puck2_main-processor/ChibiOS//os/hal/include/dac.h"
 2209              		.file 33 "../../lib/e-puck2_main-processor/ChibiOS//os/hal/ports/STM32/LLD/DACv1/dac_lld.h"
 2210              		.file 34 "../../lib/e-puck2_main-processor/ChibiOS//os/hal/include/ext.h"
 2211              		.file 35 "../../lib/e-puck2_main-processor/ChibiOS//os/hal/ports/STM32/LLD/ext_lld.h"
 2212              		.file 36 "../../lib/e-puck2_main-processor/ChibiOS//os/hal/include/gpt.h"
 2213              		.file 37 "../../lib/e-puck2_main-processor/ChibiOS//os/hal/ports/STM32/LLD/TIMv1/gpt_lld.h"
 2214              		.file 38 "../../lib/e-puck2_main-processor/ChibiOS//os/hal/ports/STM32/LLD/TIMv1/stm32_tim.h"
 2215              		.file 39 "../../lib/e-puck2_main-processor/ChibiOS//os/hal/include/i2c.h"
ARM GAS  C:\Users\mathi\AppData\Local\Temp\cc6FoflA.s 			page 40


 2216              		.file 40 "../../lib/e-puck2_main-processor/ChibiOS//os/hal/ports/STM32/LLD/I2Cv1/i2c_lld.h"
 2217              		.file 41 "../../lib/e-puck2_main-processor/ChibiOS//os/hal/include/i2s.h"
 2218              		.file 42 "../../lib/e-puck2_main-processor/ChibiOS//os/hal/ports/STM32/LLD/SPIv1/i2s_lld.h"
 2219              		.file 43 "../../lib/e-puck2_main-processor/ChibiOS//os/hal/include/pwm.h"
 2220              		.file 44 "../../lib/e-puck2_main-processor/ChibiOS//os/hal/ports/STM32/LLD/TIMv1/pwm_lld.h"
 2221              		.file 45 "../../lib/e-puck2_main-processor/ChibiOS//os/hal/include/serial.h"
 2222              		.file 46 "../../lib/e-puck2_main-processor/ChibiOS//os/hal/ports/STM32/LLD/USARTv1/serial_lld.h"
 2223              		.file 47 "../../lib/e-puck2_main-processor/ChibiOS//os/hal/include/sdc.h"
 2224              		.file 48 "../../lib/e-puck2_main-processor/ChibiOS//os/hal/ports/STM32/LLD/sdc_lld.h"
 2225              		.file 49 "../../lib/e-puck2_main-processor/ChibiOS//os/hal/include/spi.h"
 2226              		.file 50 "../../lib/e-puck2_main-processor/ChibiOS//os/hal/ports/STM32/LLD/SPIv1/spi_lld.h"
 2227              		.file 51 "../../lib/e-puck2_main-processor/ChibiOS//os/hal/include/usb.h"
 2228              		.file 52 "../../lib/e-puck2_main-processor/ChibiOS//os/hal/ports/STM32/LLD/OTGv1/usb_lld.h"
 2229              		.file 53 "../../lib/e-puck2_main-processor/ChibiOS//os/hal/ports/STM32/LLD/OTGv1/stm32_otg.h"
 2230              		.file 54 "../../lib/e-puck2_main-processor/ChibiOS//os/hal/ports/common/ARMCMx/nvic.h"