ARM GAS  C:\Users\mathi\AppData\Local\Temp\ccDryJmo.s 			page 1


   1              		.cpu cortex-m4
   2              		.eabi_attribute 27, 1
   3              		.eabi_attribute 28, 1
   4              		.eabi_attribute 20, 1
   5              		.eabi_attribute 21, 1
   6              		.eabi_attribute 23, 3
   7              		.eabi_attribute 24, 1
   8              		.eabi_attribute 25, 1
   9              		.eabi_attribute 26, 1
  10              		.eabi_attribute 30, 2
  11              		.eabi_attribute 34, 1
  12              		.eabi_attribute 18, 4
  13              		.file	"chcond.c"
  14              		.text
  15              	.Ltext0:
  16              		.cfi_sections	.debug_frame
  17              		.section	.text.chCondObjectInit,"ax",%progbits
  18              		.align	1
  19              		.p2align 4,,15
  20              		.global	chCondObjectInit
  21              		.syntax unified
  22              		.thumb
  23              		.thumb_func
  24              		.fpu fpv4-sp-d16
  25              		.type	chCondObjectInit, %function
  26              	chCondObjectInit:
  27              	.LFB219:
  28              		.file 1 "../../lib/e-puck2_main-processor/ChibiOS//os/rt/src/chcond.c"
  29              		.loc 1 75 0
  30              		.cfi_startproc
  31              		@ args = 0, pretend = 0, frame = 8
  32              		@ frame_needed = 0, uses_anonymous_args = 0
  33              	.LVL0:
  34 0000 30B5     		push	{r4, r5, lr}
  35              		.cfi_def_cfa_offset 12
  36              		.cfi_offset 4, -12
  37              		.cfi_offset 5, -8
  38              		.cfi_offset 14, -4
  39 0002 0A4D     		ldr	r5, .L8
  40 0004 83B0     		sub	sp, sp, #12
  41              		.cfi_def_cfa_offset 24
  42              		.loc 1 75 0
  43 0006 2B68     		ldr	r3, [r5]
  44 0008 0193     		str	r3, [sp, #4]
  45              		.loc 1 77 0
  46 000a 0446     		mov	r4, r0
  47 000c 38B1     		cbz	r0, .L6
  48              	.LVL1:
  49              	.L2:
  50              	.LBB63:
  51              	.LBB64:
  52              		.file 2 "../../lib/e-puck2_main-processor/ChibiOS//os/rt/include/chschd.h"
  53              		.loc 2 604 0
  54 000e 2460     		str	r4, [r4]
  55              	.LBE64:
  56              	.LBE63:
  57              		.loc 1 80 0
ARM GAS  C:\Users\mathi\AppData\Local\Temp\ccDryJmo.s 			page 2


  58 0010 019A     		ldr	r2, [sp, #4]
  59 0012 2B68     		ldr	r3, [r5]
  60              	.LBB66:
  61              	.LBB65:
  62              		.loc 2 605 0
  63 0014 6460     		str	r4, [r4, #4]
  64              	.LVL2:
  65              	.LBE65:
  66              	.LBE66:
  67              		.loc 1 80 0
  68 0016 9A42     		cmp	r2, r3
  69 0018 05D1     		bne	.L7
  70 001a 03B0     		add	sp, sp, #12
  71              		.cfi_remember_state
  72              		.cfi_def_cfa_offset 12
  73              		@ sp needed
  74 001c 30BD     		pop	{r4, r5, pc}
  75              	.LVL3:
  76              	.L6:
  77              		.cfi_restore_state
  78              		.loc 1 77 0 discriminator 2
  79 001e 0448     		ldr	r0, .L8+4
  80              	.LVL4:
  81 0020 FFF7FEFF 		bl	chSysHalt
  82              	.LVL5:
  83 0024 F3E7     		b	.L2
  84              	.L7:
  85              		.loc 1 80 0
  86 0026 FFF7FEFF 		bl	__stack_chk_fail
  87              	.LVL6:
  88              	.L9:
  89 002a 00BF     		.align	2
  90              	.L8:
  91 002c 00000000 		.word	__stack_chk_guard
  92 0030 00000000 		.word	.LANCHOR0
  93              		.cfi_endproc
  94              	.LFE219:
  95              		.size	chCondObjectInit, .-chCondObjectInit
  96              		.section	.text.chCondSignal,"ax",%progbits
  97              		.align	1
  98              		.p2align 4,,15
  99              		.global	chCondSignal
 100              		.syntax unified
 101              		.thumb
 102              		.thumb_func
 103              		.fpu fpv4-sp-d16
 104              		.type	chCondSignal, %function
 105              	chCondSignal:
 106              	.LFB220:
 107              		.loc 1 89 0
 108              		.cfi_startproc
 109              		@ args = 0, pretend = 0, frame = 8
 110              		@ frame_needed = 0, uses_anonymous_args = 0
 111              	.LVL7:
 112 0000 30B5     		push	{r4, r5, lr}
 113              		.cfi_def_cfa_offset 12
 114              		.cfi_offset 4, -12
ARM GAS  C:\Users\mathi\AppData\Local\Temp\ccDryJmo.s 			page 3


 115              		.cfi_offset 5, -8
 116              		.cfi_offset 14, -4
 117 0002 1B4D     		ldr	r5, .L19
 118 0004 83B0     		sub	sp, sp, #12
 119              		.cfi_def_cfa_offset 24
 120              		.loc 1 89 0
 121 0006 2B68     		ldr	r3, [r5]
 122 0008 0193     		str	r3, [sp, #4]
 123              		.loc 1 91 0
 124 000a 0446     		mov	r4, r0
 125 000c 48B3     		cbz	r0, .L16
 126              	.LVL8:
 127              	.L11:
 128              	.LBB81:
 129              	.LBB82:
 130              	.LBB83:
 131              	.LBB84:
 132              	.LBB85:
 133              		.file 3 "../../lib/e-puck2_main-processor/ChibiOS//os/ext/CMSIS/include/core_cmFunc.h"
 134              		.loc 3 546 0
 135 000e 2023     		movs	r3, #32
 136              		.syntax unified
 137              	@ 546 "../../lib/e-puck2_main-processor/ChibiOS//os/ext/CMSIS/include/core_cmFunc.h" 1
 138 0010 83F31188 		MSR basepri, r3
 139              	@ 0 "" 2
 140              	.LVL9:
 141              		.thumb
 142              		.syntax unified
 143              	.LBE85:
 144              	.LBE84:
 145              	.LBE83:
 146              		.file 4 "../../lib/e-puck2_main-processor/ChibiOS//os/rt/include/chsys.h"
 147              		.loc 4 349 0
 148 0014 FFF7FEFF 		bl	_stats_start_measure_crit_thd
 149              	.LVL10:
 150              		.loc 4 350 0
 151 0018 FFF7FEFF 		bl	_dbg_check_lock
 152              	.LVL11:
 153              	.LBE82:
 154              	.LBE81:
 155              	.LBB86:
 156              	.LBB87:
 157              		.loc 2 631 0
 158 001c 2068     		ldr	r0, [r4]
 159              	.LVL12:
 160              	.LBE87:
 161              	.LBE86:
 162              		.loc 1 94 0
 163 001e 8442     		cmp	r4, r0
 164 0020 05D0     		beq	.L12
 165              	.LVL13:
 166              	.LBB88:
 167              	.LBB89:
 168              		.loc 2 674 0
 169 0022 0368     		ldr	r3, [r0]
 170 0024 2360     		str	r3, [r4]
 171              	.LBE89:
ARM GAS  C:\Users\mathi\AppData\Local\Temp\ccDryJmo.s 			page 4


 172              	.LBE88:
 173              		.loc 1 95 0
 174 0026 0021     		movs	r1, #0
 175              	.LBB91:
 176              	.LBB90:
 177              		.loc 2 675 0
 178 0028 5C60     		str	r4, [r3, #4]
 179              	.LVL14:
 180              	.LBE90:
 181              	.LBE91:
 182              		.loc 1 95 0
 183 002a FFF7FEFF 		bl	chSchWakeupS
 184              	.LVL15:
 185              	.L12:
 186              	.LBB92:
 187              	.LBB93:
 188              		.loc 4 360 0
 189 002e FFF7FEFF 		bl	_dbg_check_unlock
 190              	.LVL16:
 191              		.loc 4 361 0
 192 0032 FFF7FEFF 		bl	_stats_stop_measure_crit_thd
 193              	.LVL17:
 194              		.loc 4 367 0
 195 0036 0F4B     		ldr	r3, .L19+4
 196 0038 1A68     		ldr	r2, [r3]
 197 003a 9A42     		cmp	r2, r3
 198 003c 04D0     		beq	.L13
 199 003e 9969     		ldr	r1, [r3, #24]
 200 0040 9368     		ldr	r3, [r2, #8]
 201 0042 8A68     		ldr	r2, [r1, #8]
 202 0044 9A42     		cmp	r2, r3
 203 0046 08D3     		bcc	.L17
 204              	.L13:
 205              	.LVL18:
 206              	.LBB94:
 207              	.LBB95:
 208              	.LBB96:
 209              		.loc 3 546 0
 210 0048 0023     		movs	r3, #0
 211              		.syntax unified
 212              	@ 546 "../../lib/e-puck2_main-processor/ChibiOS//os/ext/CMSIS/include/core_cmFunc.h" 1
 213 004a 83F31188 		MSR basepri, r3
 214              	@ 0 "" 2
 215              	.LVL19:
 216              		.thumb
 217              		.syntax unified
 218              	.LBE96:
 219              	.LBE95:
 220              	.LBE94:
 221              	.LBE93:
 222              	.LBE92:
 223              		.loc 1 98 0
 224 004e 019A     		ldr	r2, [sp, #4]
 225 0050 2B68     		ldr	r3, [r5]
 226 0052 9A42     		cmp	r2, r3
 227 0054 09D1     		bne	.L18
 228 0056 03B0     		add	sp, sp, #12
ARM GAS  C:\Users\mathi\AppData\Local\Temp\ccDryJmo.s 			page 5


 229              		.cfi_remember_state
 230              		.cfi_def_cfa_offset 12
 231              		@ sp needed
 232 0058 30BD     		pop	{r4, r5, pc}
 233              	.LVL20:
 234              	.L17:
 235              		.cfi_restore_state
 236              	.LBB98:
 237              	.LBB97:
 238              		.loc 4 367 0
 239 005a 0748     		ldr	r0, .L19+8
 240 005c FFF7FEFF 		bl	chSysHalt
 241              	.LVL21:
 242 0060 F2E7     		b	.L13
 243              	.LVL22:
 244              	.L16:
 245              	.LBE97:
 246              	.LBE98:
 247              		.loc 1 91 0 discriminator 2
 248 0062 0648     		ldr	r0, .L19+12
 249              	.LVL23:
 250 0064 FFF7FEFF 		bl	chSysHalt
 251              	.LVL24:
 252 0068 D1E7     		b	.L11
 253              	.L18:
 254              		.loc 1 98 0
 255 006a FFF7FEFF 		bl	__stack_chk_fail
 256              	.LVL25:
 257              	.L20:
 258 006e 00BF     		.align	2
 259              	.L19:
 260 0070 00000000 		.word	__stack_chk_guard
 261 0074 00000000 		.word	ch
 262 0078 00000000 		.word	.LANCHOR2
 263 007c 00000000 		.word	.LANCHOR1
 264              		.cfi_endproc
 265              	.LFE220:
 266              		.size	chCondSignal, .-chCondSignal
 267              		.section	.text.chCondSignalI,"ax",%progbits
 268              		.align	1
 269              		.p2align 4,,15
 270              		.global	chCondSignalI
 271              		.syntax unified
 272              		.thumb
 273              		.thumb_func
 274              		.fpu fpv4-sp-d16
 275              		.type	chCondSignalI, %function
 276              	chCondSignalI:
 277              	.LFB221:
 278              		.loc 1 111 0
 279              		.cfi_startproc
 280              		@ args = 0, pretend = 0, frame = 8
 281              		@ frame_needed = 0, uses_anonymous_args = 0
 282              	.LVL26:
 283 0000 30B5     		push	{r4, r5, lr}
 284              		.cfi_def_cfa_offset 12
 285              		.cfi_offset 4, -12
ARM GAS  C:\Users\mathi\AppData\Local\Temp\ccDryJmo.s 			page 6


 286              		.cfi_offset 5, -8
 287              		.cfi_offset 14, -4
 288 0002 134D     		ldr	r5, .L29
 289 0004 83B0     		sub	sp, sp, #12
 290              		.cfi_def_cfa_offset 24
 291              		.loc 1 111 0
 292 0006 0446     		mov	r4, r0
 293 0008 2B68     		ldr	r3, [r5]
 294 000a 0193     		str	r3, [sp, #4]
 295              		.loc 1 113 0
 296 000c FFF7FEFF 		bl	chDbgCheckClassI
 297              	.LVL27:
 298              		.loc 1 114 0
 299 0010 BCB1     		cbz	r4, .L28
 300              	.L22:
 301              	.LVL28:
 302              	.LBB99:
 303              	.LBB100:
 304              		.loc 2 631 0
 305 0012 2068     		ldr	r0, [r4]
 306              	.LVL29:
 307              	.LBE100:
 308              	.LBE99:
 309              		.loc 1 116 0
 310 0014 8442     		cmp	r4, r0
 311 0016 0ED0     		beq	.L21
 312              	.LVL30:
 313              	.LBB101:
 314              	.LBB102:
 315              	.LBB103:
 316              		.loc 2 674 0
 317 0018 0368     		ldr	r3, [r0]
 318 001a 2360     		str	r3, [r4]
 319              	.LBE103:
 320              	.LBE102:
 321              		.loc 1 119 0
 322 001c 0199     		ldr	r1, [sp, #4]
 323 001e 2A68     		ldr	r2, [r5]
 324              	.LBB105:
 325              	.LBB104:
 326              		.loc 2 675 0
 327 0020 5C60     		str	r4, [r3, #4]
 328              	.LVL31:
 329              	.LBE104:
 330              	.LBE105:
 331              		.loc 1 119 0
 332 0022 9142     		cmp	r1, r2
 333              		.loc 1 118 0
 334 0024 4FF00003 		mov	r3, #0
 335 0028 8362     		str	r3, [r0, #40]
 336              		.loc 1 119 0
 337 002a 0ED1     		bne	.L27
 338              	.LBE101:
 339              		.loc 1 121 0
 340 002c 03B0     		add	sp, sp, #12
 341              		.cfi_remember_state
 342              		.cfi_def_cfa_offset 12
ARM GAS  C:\Users\mathi\AppData\Local\Temp\ccDryJmo.s 			page 7


 343              		@ sp needed
 344 002e BDE83040 		pop	{r4, r5, lr}
 345              		.cfi_restore 14
 346              		.cfi_restore 5
 347              		.cfi_restore 4
 348              		.cfi_def_cfa_offset 0
 349              	.LVL32:
 350              	.LBB106:
 351              		.loc 1 119 0
 352 0032 FFF7FEBF 		b	chSchReadyI
 353              	.LVL33:
 354              	.L21:
 355              		.cfi_restore_state
 356              	.LBE106:
 357              		.loc 1 121 0
 358 0036 019A     		ldr	r2, [sp, #4]
 359 0038 2B68     		ldr	r3, [r5]
 360 003a 9A42     		cmp	r2, r3
 361 003c 05D1     		bne	.L27
 362 003e 03B0     		add	sp, sp, #12
 363              		.cfi_remember_state
 364              		.cfi_def_cfa_offset 12
 365              		@ sp needed
 366 0040 30BD     		pop	{r4, r5, pc}
 367              	.LVL34:
 368              	.L28:
 369              		.cfi_restore_state
 370              		.loc 1 114 0 discriminator 2
 371 0042 0448     		ldr	r0, .L29+4
 372 0044 FFF7FEFF 		bl	chSysHalt
 373              	.LVL35:
 374 0048 E3E7     		b	.L22
 375              	.L27:
 376              		.loc 1 121 0
 377 004a FFF7FEFF 		bl	__stack_chk_fail
 378              	.LVL36:
 379              	.L30:
 380 004e 00BF     		.align	2
 381              	.L29:
 382 0050 00000000 		.word	__stack_chk_guard
 383 0054 00000000 		.word	.LANCHOR3
 384              		.cfi_endproc
 385              	.LFE221:
 386              		.size	chCondSignalI, .-chCondSignalI
 387              		.section	.text.chCondBroadcast,"ax",%progbits
 388              		.align	1
 389              		.p2align 4,,15
 390              		.global	chCondBroadcast
 391              		.syntax unified
 392              		.thumb
 393              		.thumb_func
 394              		.fpu fpv4-sp-d16
 395              		.type	chCondBroadcast, %function
 396              	chCondBroadcast:
 397              	.LFB222:
 398              		.loc 1 130 0
 399              		.cfi_startproc
ARM GAS  C:\Users\mathi\AppData\Local\Temp\ccDryJmo.s 			page 8


 400              		@ args = 0, pretend = 0, frame = 8
 401              		@ frame_needed = 0, uses_anonymous_args = 0
 402              	.LVL37:
 403 0000 70B5     		push	{r4, r5, r6, lr}
 404              		.cfi_def_cfa_offset 16
 405              		.cfi_offset 4, -16
 406              		.cfi_offset 5, -12
 407              		.cfi_offset 6, -8
 408              		.cfi_offset 14, -4
 409 0002 1F4E     		ldr	r6, .L42
 410 0004 82B0     		sub	sp, sp, #8
 411              		.cfi_def_cfa_offset 24
 412              		.loc 1 130 0
 413 0006 3368     		ldr	r3, [r6]
 414 0008 0193     		str	r3, [sp, #4]
 415              	.LVL38:
 416 000a 0446     		mov	r4, r0
 417              	.LBB123:
 418              	.LBB124:
 419              	.LBB125:
 420              	.LBB126:
 421              	.LBB127:
 422              		.loc 3 546 0
 423 000c 2023     		movs	r3, #32
 424              		.syntax unified
 425              	@ 546 "../../lib/e-puck2_main-processor/ChibiOS//os/ext/CMSIS/include/core_cmFunc.h" 1
 426 000e 83F31188 		MSR basepri, r3
 427              	@ 0 "" 2
 428              	.LVL39:
 429              		.thumb
 430              		.syntax unified
 431              	.LBE127:
 432              	.LBE126:
 433              	.LBE125:
 434              		.loc 4 349 0
 435 0012 FFF7FEFF 		bl	_stats_start_measure_crit_thd
 436              	.LVL40:
 437              		.loc 4 350 0
 438 0016 FFF7FEFF 		bl	_dbg_check_lock
 439              	.LVL41:
 440              	.LBE124:
 441              	.LBE123:
 442              	.LBB128:
 443              	.LBB129:
 444              		.loc 1 151 0
 445 001a FFF7FEFF 		bl	chDbgCheckClassI
 446              	.LVL42:
 447              		.loc 1 152 0
 448 001e 4CB3     		cbz	r4, .L39
 449              	.L32:
 450              	.LVL43:
 451              	.LBB130:
 452              	.LBB131:
 453              		.loc 2 631 0
 454 0020 2068     		ldr	r0, [r4]
 455              	.LVL44:
 456              	.LBE131:
ARM GAS  C:\Users\mathi\AppData\Local\Temp\ccDryJmo.s 			page 9


 457              	.LBE130:
 458              		.loc 1 157 0
 459 0022 8442     		cmp	r4, r0
 460 0024 0AD0     		beq	.L33
 461              		.loc 1 158 0
 462 0026 6FF00105 		mvn	r5, #1
 463              	.L34:
 464              	.LVL45:
 465              	.LBB133:
 466              	.LBB134:
 467              		.loc 2 674 0
 468 002a 0368     		ldr	r3, [r0]
 469 002c 2360     		str	r3, [r4]
 470              		.loc 2 675 0
 471 002e 5C60     		str	r4, [r3, #4]
 472              	.LVL46:
 473              	.LBE134:
 474              	.LBE133:
 475              		.loc 1 158 0
 476 0030 FFF7FEFF 		bl	chSchReadyI
 477              	.LVL47:
 478 0034 8562     		str	r5, [r0, #40]
 479              	.LVL48:
 480              	.LBB135:
 481              	.LBB132:
 482              		.loc 2 631 0
 483 0036 2068     		ldr	r0, [r4]
 484              	.LVL49:
 485              	.LBE132:
 486              	.LBE135:
 487              		.loc 1 157 0
 488 0038 A042     		cmp	r0, r4
 489 003a F6D1     		bne	.L34
 490              	.L33:
 491              	.LVL50:
 492              	.LBE129:
 493              	.LBE128:
 494              		.loc 1 134 0
 495 003c FFF7FEFF 		bl	chSchRescheduleS
 496              	.LVL51:
 497              	.LBB137:
 498              	.LBB138:
 499              		.loc 4 360 0
 500 0040 FFF7FEFF 		bl	_dbg_check_unlock
 501              	.LVL52:
 502              		.loc 4 361 0
 503 0044 FFF7FEFF 		bl	_stats_stop_measure_crit_thd
 504              	.LVL53:
 505              		.loc 4 367 0
 506 0048 0E4B     		ldr	r3, .L42+4
 507 004a 1A68     		ldr	r2, [r3]
 508 004c 9A42     		cmp	r2, r3
 509 004e 04D0     		beq	.L35
 510 0050 9969     		ldr	r1, [r3, #24]
 511 0052 9368     		ldr	r3, [r2, #8]
 512 0054 8A68     		ldr	r2, [r1, #8]
 513 0056 9A42     		cmp	r2, r3
ARM GAS  C:\Users\mathi\AppData\Local\Temp\ccDryJmo.s 			page 10


 514 0058 08D3     		bcc	.L40
 515              	.L35:
 516              	.LVL54:
 517              	.LBB139:
 518              	.LBB140:
 519              	.LBB141:
 520              		.loc 3 546 0
 521 005a 0023     		movs	r3, #0
 522              		.syntax unified
 523              	@ 546 "../../lib/e-puck2_main-processor/ChibiOS//os/ext/CMSIS/include/core_cmFunc.h" 1
 524 005c 83F31188 		MSR basepri, r3
 525              	@ 0 "" 2
 526              	.LVL55:
 527              		.thumb
 528              		.syntax unified
 529              	.LBE141:
 530              	.LBE140:
 531              	.LBE139:
 532              	.LBE138:
 533              	.LBE137:
 534              		.loc 1 136 0
 535 0060 019A     		ldr	r2, [sp, #4]
 536 0062 3368     		ldr	r3, [r6]
 537 0064 9A42     		cmp	r2, r3
 538 0066 09D1     		bne	.L41
 539 0068 02B0     		add	sp, sp, #8
 540              		.cfi_remember_state
 541              		.cfi_def_cfa_offset 16
 542              		@ sp needed
 543 006a 70BD     		pop	{r4, r5, r6, pc}
 544              	.LVL56:
 545              	.L40:
 546              		.cfi_restore_state
 547              	.LBB143:
 548              	.LBB142:
 549              		.loc 4 367 0
 550 006c 0648     		ldr	r0, .L42+8
 551 006e FFF7FEFF 		bl	chSysHalt
 552              	.LVL57:
 553 0072 F2E7     		b	.L35
 554              	.LVL58:
 555              	.L39:
 556              	.LBE142:
 557              	.LBE143:
 558              	.LBB144:
 559              	.LBB136:
 560              		.loc 1 152 0
 561 0074 0548     		ldr	r0, .L42+12
 562 0076 FFF7FEFF 		bl	chSysHalt
 563              	.LVL59:
 564 007a D1E7     		b	.L32
 565              	.LVL60:
 566              	.L41:
 567              	.LBE136:
 568              	.LBE144:
 569              		.loc 1 136 0
 570 007c FFF7FEFF 		bl	__stack_chk_fail
ARM GAS  C:\Users\mathi\AppData\Local\Temp\ccDryJmo.s 			page 11


 571              	.LVL61:
 572              	.L43:
 573              		.align	2
 574              	.L42:
 575 0080 00000000 		.word	__stack_chk_guard
 576 0084 00000000 		.word	ch
 577 0088 00000000 		.word	.LANCHOR2
 578 008c 00000000 		.word	.LANCHOR4
 579              		.cfi_endproc
 580              	.LFE222:
 581              		.size	chCondBroadcast, .-chCondBroadcast
 582              		.section	.text.chCondBroadcastI,"ax",%progbits
 583              		.align	1
 584              		.p2align 4,,15
 585              		.global	chCondBroadcastI
 586              		.syntax unified
 587              		.thumb
 588              		.thumb_func
 589              		.fpu fpv4-sp-d16
 590              		.type	chCondBroadcastI, %function
 591              	chCondBroadcastI:
 592              	.LFB223:
 593              		.loc 1 149 0
 594              		.cfi_startproc
 595              		@ args = 0, pretend = 0, frame = 8
 596              		@ frame_needed = 0, uses_anonymous_args = 0
 597              	.LVL62:
 598 0000 70B5     		push	{r4, r5, r6, lr}
 599              		.cfi_def_cfa_offset 16
 600              		.cfi_offset 4, -16
 601              		.cfi_offset 5, -12
 602              		.cfi_offset 6, -8
 603              		.cfi_offset 14, -4
 604 0002 114E     		ldr	r6, .L53
 605 0004 82B0     		sub	sp, sp, #8
 606              		.cfi_def_cfa_offset 24
 607              		.loc 1 149 0
 608 0006 0446     		mov	r4, r0
 609 0008 3368     		ldr	r3, [r6]
 610 000a 0193     		str	r3, [sp, #4]
 611              		.loc 1 151 0
 612 000c FFF7FEFF 		bl	chDbgCheckClassI
 613              	.LVL63:
 614              		.loc 1 152 0
 615 0010 9CB1     		cbz	r4, .L51
 616              	.L45:
 617              	.LVL64:
 618              	.LBB145:
 619              	.LBB146:
 620              		.loc 2 631 0
 621 0012 2068     		ldr	r0, [r4]
 622              	.LVL65:
 623              	.LBE146:
 624              	.LBE145:
 625              		.loc 1 157 0
 626 0014 A042     		cmp	r0, r4
 627 0016 0AD0     		beq	.L44
ARM GAS  C:\Users\mathi\AppData\Local\Temp\ccDryJmo.s 			page 12


 628              		.loc 1 158 0
 629 0018 6FF00105 		mvn	r5, #1
 630              	.L47:
 631              	.LVL66:
 632              	.LBB148:
 633              	.LBB149:
 634              		.loc 2 674 0
 635 001c 0368     		ldr	r3, [r0]
 636 001e 2360     		str	r3, [r4]
 637              		.loc 2 675 0
 638 0020 5C60     		str	r4, [r3, #4]
 639              	.LVL67:
 640              	.LBE149:
 641              	.LBE148:
 642              		.loc 1 158 0
 643 0022 FFF7FEFF 		bl	chSchReadyI
 644              	.LVL68:
 645 0026 8562     		str	r5, [r0, #40]
 646              	.LVL69:
 647              	.LBB150:
 648              	.LBB147:
 649              		.loc 2 631 0
 650 0028 2068     		ldr	r0, [r4]
 651              	.LVL70:
 652              	.LBE147:
 653              	.LBE150:
 654              		.loc 1 157 0
 655 002a A042     		cmp	r0, r4
 656 002c F6D1     		bne	.L47
 657              	.L44:
 658              		.loc 1 160 0
 659 002e 019A     		ldr	r2, [sp, #4]
 660 0030 3368     		ldr	r3, [r6]
 661 0032 9A42     		cmp	r2, r3
 662 0034 05D1     		bne	.L52
 663 0036 02B0     		add	sp, sp, #8
 664              		.cfi_remember_state
 665              		.cfi_def_cfa_offset 16
 666              		@ sp needed
 667 0038 70BD     		pop	{r4, r5, r6, pc}
 668              	.LVL71:
 669              	.L51:
 670              		.cfi_restore_state
 671              		.loc 1 152 0 discriminator 2
 672 003a 0448     		ldr	r0, .L53+4
 673 003c FFF7FEFF 		bl	chSysHalt
 674              	.LVL72:
 675 0040 E7E7     		b	.L45
 676              	.L52:
 677              		.loc 1 160 0
 678 0042 FFF7FEFF 		bl	__stack_chk_fail
 679              	.LVL73:
 680              	.L54:
 681 0046 00BF     		.align	2
 682              	.L53:
 683 0048 00000000 		.word	__stack_chk_guard
 684 004c 00000000 		.word	.LANCHOR4
ARM GAS  C:\Users\mathi\AppData\Local\Temp\ccDryJmo.s 			page 13


 685              		.cfi_endproc
 686              	.LFE223:
 687              		.size	chCondBroadcastI, .-chCondBroadcastI
 688              		.section	.text.chCondWait,"ax",%progbits
 689              		.align	1
 690              		.p2align 4,,15
 691              		.global	chCondWait
 692              		.syntax unified
 693              		.thumb
 694              		.thumb_func
 695              		.fpu fpv4-sp-d16
 696              		.type	chCondWait, %function
 697              	chCondWait:
 698              	.LFB224:
 699              		.loc 1 179 0
 700              		.cfi_startproc
 701              		@ args = 0, pretend = 0, frame = 8
 702              		@ frame_needed = 0, uses_anonymous_args = 0
 703              	.LVL74:
 704 0000 2DE9F041 		push	{r4, r5, r6, r7, r8, lr}
 705              		.cfi_def_cfa_offset 24
 706              		.cfi_offset 4, -24
 707              		.cfi_offset 5, -20
 708              		.cfi_offset 6, -16
 709              		.cfi_offset 7, -12
 710              		.cfi_offset 8, -8
 711              		.cfi_offset 14, -4
 712 0004 2C4F     		ldr	r7, .L70
 713 0006 82B0     		sub	sp, sp, #8
 714              		.cfi_def_cfa_offset 32
 715              		.loc 1 179 0
 716 0008 3B68     		ldr	r3, [r7]
 717 000a 0193     		str	r3, [sp, #4]
 718              	.LVL75:
 719 000c 0546     		mov	r5, r0
 720              	.LBB169:
 721              	.LBB170:
 722              	.LBB171:
 723              	.LBB172:
 724              	.LBB173:
 725              		.loc 3 546 0
 726 000e 2023     		movs	r3, #32
 727              		.syntax unified
 728              	@ 546 "../../lib/e-puck2_main-processor/ChibiOS//os/ext/CMSIS/include/core_cmFunc.h" 1
 729 0010 83F31188 		MSR basepri, r3
 730              	@ 0 "" 2
 731              	.LVL76:
 732              		.thumb
 733              		.syntax unified
 734              	.LBE173:
 735              	.LBE172:
 736              	.LBE171:
 737              	.LBE170:
 738              	.LBE169:
 739              	.LBB175:
 740              	.LBB176:
 741              		.loc 1 206 0
ARM GAS  C:\Users\mathi\AppData\Local\Temp\ccDryJmo.s 			page 14


 742 0014 294E     		ldr	r6, .L70+4
 743              	.LBE176:
 744              	.LBE175:
 745              	.LBB187:
 746              	.LBB174:
 747              		.loc 4 349 0
 748 0016 FFF7FEFF 		bl	_stats_start_measure_crit_thd
 749              	.LVL77:
 750              		.loc 4 350 0
 751 001a FFF7FEFF 		bl	_dbg_check_lock
 752              	.LVL78:
 753              	.LBE174:
 754              	.LBE187:
 755              	.LBB188:
 756              	.LBB185:
 757              		.loc 1 206 0
 758 001e B469     		ldr	r4, [r6, #24]
 759              	.LVL79:
 760              		.loc 1 210 0
 761 0020 FFF7FEFF 		bl	chDbgCheckClassS
 762              	.LVL80:
 763              		.loc 1 211 0
 764 0024 002D     		cmp	r5, #0
 765 0026 40D0     		beq	.L64
 766              	.L56:
 767              		.loc 1 212 0
 768 0028 236C     		ldr	r3, [r4, #64]
 769 002a 002B     		cmp	r3, #0
 770 002c 39D0     		beq	.L65
 771              	.L57:
 772              	.LBB177:
 773              	.LBB178:
 774              		.file 5 "../../lib/e-puck2_main-processor/ChibiOS//os/rt/include/chmtx.h"
 775              		.loc 5 146 0
 776 002e B369     		ldr	r3, [r6, #24]
 777 0030 D3F84080 		ldr	r8, [r3, #64]
 778              	.LBE178:
 779              	.LBE177:
 780              		.loc 1 216 0
 781 0034 4046     		mov	r0, r8
 782 0036 FFF7FEFF 		bl	chMtxUnlockS
 783              	.LVL81:
 784              		.loc 1 220 0
 785 003a A562     		str	r5, [r4, #40]
 786              		.loc 1 221 0
 787 003c 2A46     		mov	r2, r5
 788              	.LVL82:
 789 003e 2B46     		mov	r3, r5
 790 0040 03E0     		b	.L59
 791              	.LVL83:
 792              	.L67:
 793              	.LBB179:
 794              	.LBB180:
 795              		.loc 2 656 0
 796 0042 9968     		ldr	r1, [r3, #8]
 797 0044 A068     		ldr	r0, [r4, #8]
 798 0046 8142     		cmp	r1, r0
ARM GAS  C:\Users\mathi\AppData\Local\Temp\ccDryJmo.s 			page 15


 799 0048 29D3     		bcc	.L66
 800              	.LVL84:
 801              	.L59:
 802              		.loc 2 655 0
 803 004a 1B68     		ldr	r3, [r3]
 804              	.LVL85:
 805              		.loc 2 656 0
 806 004c 9D42     		cmp	r5, r3
 807 004e F8D1     		bne	.L67
 808              	.LVL86:
 809              	.L58:
 810              		.loc 2 657 0
 811 0050 2260     		str	r2, [r4]
 812              		.loc 2 658 0
 813 0052 5368     		ldr	r3, [r2, #4]
 814              	.LVL87:
 815 0054 6360     		str	r3, [r4, #4]
 816              	.LBE180:
 817              	.LBE179:
 818              		.loc 1 222 0
 819 0056 0720     		movs	r0, #7
 820              	.LBB183:
 821              	.LBB181:
 822              		.loc 2 659 0
 823 0058 1C60     		str	r4, [r3]
 824              		.loc 2 660 0
 825 005a 5460     		str	r4, [r2, #4]
 826              	.LVL88:
 827              	.LBE181:
 828              	.LBE183:
 829              		.loc 1 222 0
 830 005c FFF7FEFF 		bl	chSchGoSleepS
 831              	.LVL89:
 832              		.loc 1 224 0
 833 0060 4046     		mov	r0, r8
 834              		.loc 1 223 0
 835 0062 A46A     		ldr	r4, [r4, #40]
 836              	.LVL90:
 837              		.loc 1 224 0
 838 0064 FFF7FEFF 		bl	chMtxLockS
 839              	.LVL91:
 840              	.LBE185:
 841              	.LBE188:
 842              	.LBB189:
 843              	.LBB190:
 844              		.loc 4 360 0
 845 0068 FFF7FEFF 		bl	_dbg_check_unlock
 846              	.LVL92:
 847              		.loc 4 361 0
 848 006c FFF7FEFF 		bl	_stats_stop_measure_crit_thd
 849              	.LVL93:
 850              		.loc 4 367 0
 851 0070 3368     		ldr	r3, [r6]
 852 0072 B342     		cmp	r3, r6
 853 0074 04D0     		beq	.L60
 854 0076 B269     		ldr	r2, [r6, #24]
 855 0078 9B68     		ldr	r3, [r3, #8]
ARM GAS  C:\Users\mathi\AppData\Local\Temp\ccDryJmo.s 			page 16


 856 007a 9268     		ldr	r2, [r2, #8]
 857 007c 9A42     		cmp	r2, r3
 858 007e 0AD3     		bcc	.L68
 859              	.L60:
 860              	.LVL94:
 861              	.LBB191:
 862              	.LBB192:
 863              	.LBB193:
 864              		.loc 3 546 0
 865 0080 0023     		movs	r3, #0
 866              		.syntax unified
 867              	@ 546 "../../lib/e-puck2_main-processor/ChibiOS//os/ext/CMSIS/include/core_cmFunc.h" 1
 868 0082 83F31188 		MSR basepri, r3
 869              	@ 0 "" 2
 870              	.LVL95:
 871              		.thumb
 872              		.syntax unified
 873              	.LBE193:
 874              	.LBE192:
 875              	.LBE191:
 876              	.LBE190:
 877              	.LBE189:
 878              		.loc 1 186 0
 879 0086 019A     		ldr	r2, [sp, #4]
 880 0088 3B68     		ldr	r3, [r7]
 881 008a 9A42     		cmp	r2, r3
 882 008c 2046     		mov	r0, r4
 883 008e 10D1     		bne	.L69
 884 0090 02B0     		add	sp, sp, #8
 885              		.cfi_remember_state
 886              		.cfi_def_cfa_offset 24
 887              		@ sp needed
 888 0092 BDE8F081 		pop	{r4, r5, r6, r7, r8, pc}
 889              	.LVL96:
 890              	.L68:
 891              		.cfi_restore_state
 892              	.LBB195:
 893              	.LBB194:
 894              		.loc 4 367 0
 895 0096 0A48     		ldr	r0, .L70+8
 896 0098 FFF7FEFF 		bl	chSysHalt
 897              	.LVL97:
 898 009c F0E7     		b	.L60
 899              	.LVL98:
 900              	.L66:
 901              	.LBE194:
 902              	.LBE195:
 903              	.LBB196:
 904              	.LBB186:
 905              	.LBB184:
 906              	.LBB182:
 907              		.loc 2 655 0
 908 009e 1A46     		mov	r2, r3
 909              	.LVL99:
 910 00a0 D6E7     		b	.L58
 911              	.LVL100:
 912              	.L65:
ARM GAS  C:\Users\mathi\AppData\Local\Temp\ccDryJmo.s 			page 17


 913              	.LBE182:
 914              	.LBE184:
 915              		.loc 1 212 0
 916 00a2 0848     		ldr	r0, .L70+12
 917 00a4 FFF7FEFF 		bl	chSysHalt
 918              	.LVL101:
 919 00a8 C1E7     		b	.L57
 920              	.L64:
 921              		.loc 1 211 0
 922 00aa 0648     		ldr	r0, .L70+12
 923 00ac FFF7FEFF 		bl	chSysHalt
 924              	.LVL102:
 925 00b0 BAE7     		b	.L56
 926              	.LVL103:
 927              	.L69:
 928              	.LBE186:
 929              	.LBE196:
 930              		.loc 1 186 0
 931 00b2 FFF7FEFF 		bl	__stack_chk_fail
 932              	.LVL104:
 933              	.L71:
 934 00b6 00BF     		.align	2
 935              	.L70:
 936 00b8 00000000 		.word	__stack_chk_guard
 937 00bc 00000000 		.word	ch
 938 00c0 00000000 		.word	.LANCHOR2
 939 00c4 00000000 		.word	.LANCHOR5
 940              		.cfi_endproc
 941              	.LFE224:
 942              		.size	chCondWait, .-chCondWait
 943              		.section	.text.chCondWaitS,"ax",%progbits
 944              		.align	1
 945              		.p2align 4,,15
 946              		.global	chCondWaitS
 947              		.syntax unified
 948              		.thumb
 949              		.thumb_func
 950              		.fpu fpv4-sp-d16
 951              		.type	chCondWaitS, %function
 952              	chCondWaitS:
 953              	.LFB225:
 954              		.loc 1 205 0
 955              		.cfi_startproc
 956              		@ args = 0, pretend = 0, frame = 8
 957              		@ frame_needed = 0, uses_anonymous_args = 0
 958              	.LVL105:
 959 0000 2DE9F041 		push	{r4, r5, r6, r7, r8, lr}
 960              		.cfi_def_cfa_offset 24
 961              		.cfi_offset 4, -24
 962              		.cfi_offset 5, -20
 963              		.cfi_offset 6, -16
 964              		.cfi_offset 7, -12
 965              		.cfi_offset 8, -8
 966              		.cfi_offset 14, -4
 967 0004 1E4F     		ldr	r7, .L85
 968              		.loc 1 206 0
 969 0006 1F4E     		ldr	r6, .L85+4
ARM GAS  C:\Users\mathi\AppData\Local\Temp\ccDryJmo.s 			page 18


 970              		.loc 1 205 0
 971 0008 3B68     		ldr	r3, [r7]
 972              		.loc 1 206 0
 973 000a B469     		ldr	r4, [r6, #24]
 974              	.LVL106:
 975              		.loc 1 205 0
 976 000c 82B0     		sub	sp, sp, #8
 977              		.cfi_def_cfa_offset 32
 978              		.loc 1 205 0
 979 000e 0546     		mov	r5, r0
 980 0010 0193     		str	r3, [sp, #4]
 981              		.loc 1 210 0
 982 0012 FFF7FEFF 		bl	chDbgCheckClassS
 983              	.LVL107:
 984              		.loc 1 211 0
 985 0016 65B3     		cbz	r5, .L80
 986              	.L73:
 987              		.loc 1 212 0 discriminator 1
 988 0018 236C     		ldr	r3, [r4, #64]
 989 001a 33B3     		cbz	r3, .L81
 990              	.L74:
 991              	.LBB197:
 992              	.LBB198:
 993              		.loc 5 146 0
 994 001c B369     		ldr	r3, [r6, #24]
 995 001e D3F84080 		ldr	r8, [r3, #64]
 996              	.LBE198:
 997              	.LBE197:
 998              		.loc 1 216 0
 999 0022 4046     		mov	r0, r8
 1000 0024 FFF7FEFF 		bl	chMtxUnlockS
 1001              	.LVL108:
 1002              		.loc 1 221 0
 1003 0028 2E46     		mov	r6, r5
 1004              	.LVL109:
 1005              		.loc 1 220 0
 1006 002a A562     		str	r5, [r4, #40]
 1007              		.loc 1 221 0
 1008 002c 2B46     		mov	r3, r5
 1009 002e 03E0     		b	.L76
 1010              	.LVL110:
 1011              	.L83:
 1012              	.LBB199:
 1013              	.LBB200:
 1014              		.loc 2 656 0
 1015 0030 9968     		ldr	r1, [r3, #8]
 1016 0032 A268     		ldr	r2, [r4, #8]
 1017 0034 9142     		cmp	r1, r2
 1018 0036 16D3     		bcc	.L82
 1019              	.LVL111:
 1020              	.L76:
 1021              		.loc 2 655 0
 1022 0038 1B68     		ldr	r3, [r3]
 1023              	.LVL112:
 1024              		.loc 2 656 0
 1025 003a 9D42     		cmp	r5, r3
 1026 003c F8D1     		bne	.L83
ARM GAS  C:\Users\mathi\AppData\Local\Temp\ccDryJmo.s 			page 19


 1027              	.L75:
 1028              		.loc 2 657 0
 1029 003e 2660     		str	r6, [r4]
 1030              		.loc 2 658 0
 1031 0040 7368     		ldr	r3, [r6, #4]
 1032              	.LVL113:
 1033 0042 6360     		str	r3, [r4, #4]
 1034              	.LBE200:
 1035              	.LBE199:
 1036              		.loc 1 222 0
 1037 0044 0720     		movs	r0, #7
 1038              	.LBB203:
 1039              	.LBB201:
 1040              		.loc 2 659 0
 1041 0046 1C60     		str	r4, [r3]
 1042              		.loc 2 660 0
 1043 0048 7460     		str	r4, [r6, #4]
 1044              	.LVL114:
 1045              	.LBE201:
 1046              	.LBE203:
 1047              		.loc 1 222 0
 1048 004a FFF7FEFF 		bl	chSchGoSleepS
 1049              	.LVL115:
 1050              		.loc 1 224 0
 1051 004e 4046     		mov	r0, r8
 1052              		.loc 1 223 0
 1053 0050 A46A     		ldr	r4, [r4, #40]
 1054              	.LVL116:
 1055              		.loc 1 224 0
 1056 0052 FFF7FEFF 		bl	chMtxLockS
 1057              	.LVL117:
 1058              		.loc 1 227 0
 1059 0056 019A     		ldr	r2, [sp, #4]
 1060 0058 3B68     		ldr	r3, [r7]
 1061 005a 9A42     		cmp	r2, r3
 1062 005c 2046     		mov	r0, r4
 1063 005e 0CD1     		bne	.L84
 1064 0060 02B0     		add	sp, sp, #8
 1065              		.cfi_remember_state
 1066              		.cfi_def_cfa_offset 24
 1067              		@ sp needed
 1068 0062 BDE8F081 		pop	{r4, r5, r6, r7, r8, pc}
 1069              	.LVL118:
 1070              	.L82:
 1071              		.cfi_restore_state
 1072              	.LBB204:
 1073              	.LBB202:
 1074              		.loc 2 655 0
 1075 0066 1E46     		mov	r6, r3
 1076 0068 E9E7     		b	.L75
 1077              	.LVL119:
 1078              	.L81:
 1079              	.LBE202:
 1080              	.LBE204:
 1081              		.loc 1 212 0 discriminator 2
 1082 006a 0748     		ldr	r0, .L85+8
 1083 006c FFF7FEFF 		bl	chSysHalt
ARM GAS  C:\Users\mathi\AppData\Local\Temp\ccDryJmo.s 			page 20


 1084              	.LVL120:
 1085 0070 D4E7     		b	.L74
 1086              	.L80:
 1087              		.loc 1 211 0 discriminator 2
 1088 0072 0548     		ldr	r0, .L85+8
 1089 0074 FFF7FEFF 		bl	chSysHalt
 1090              	.LVL121:
 1091 0078 CEE7     		b	.L73
 1092              	.LVL122:
 1093              	.L84:
 1094              		.loc 1 227 0
 1095 007a FFF7FEFF 		bl	__stack_chk_fail
 1096              	.LVL123:
 1097              	.L86:
 1098 007e 00BF     		.align	2
 1099              	.L85:
 1100 0080 00000000 		.word	__stack_chk_guard
 1101 0084 00000000 		.word	ch
 1102 0088 00000000 		.word	.LANCHOR5
 1103              		.cfi_endproc
 1104              	.LFE225:
 1105              		.size	chCondWaitS, .-chCondWaitS
 1106              		.section	.text.chCondWaitTimeout,"ax",%progbits
 1107              		.align	1
 1108              		.p2align 4,,15
 1109              		.global	chCondWaitTimeout
 1110              		.syntax unified
 1111              		.thumb
 1112              		.thumb_func
 1113              		.fpu fpv4-sp-d16
 1114              		.type	chCondWaitTimeout, %function
 1115              	chCondWaitTimeout:
 1116              	.LFB226:
 1117              		.loc 1 258 0
 1118              		.cfi_startproc
 1119              		@ args = 0, pretend = 0, frame = 8
 1120              		@ frame_needed = 0, uses_anonymous_args = 0
 1121              	.LVL124:
 1122 0000 2DE9F043 		push	{r4, r5, r6, r7, r8, r9, lr}
 1123              		.cfi_def_cfa_offset 28
 1124              		.cfi_offset 4, -28
 1125              		.cfi_offset 5, -24
 1126              		.cfi_offset 6, -20
 1127              		.cfi_offset 7, -16
 1128              		.cfi_offset 8, -12
 1129              		.cfi_offset 9, -8
 1130              		.cfi_offset 14, -4
 1131 0004 324F     		ldr	r7, .L109
 1132 0006 83B0     		sub	sp, sp, #12
 1133              		.cfi_def_cfa_offset 40
 1134              		.loc 1 258 0
 1135 0008 3B68     		ldr	r3, [r7]
 1136 000a 0193     		str	r3, [sp, #4]
 1137              	.LVL125:
 1138 000c 8146     		mov	r9, r0
 1139 000e 8846     		mov	r8, r1
 1140              	.LBB223:
ARM GAS  C:\Users\mathi\AppData\Local\Temp\ccDryJmo.s 			page 21


 1141              	.LBB224:
 1142              	.LBB225:
 1143              	.LBB226:
 1144              	.LBB227:
 1145              		.loc 3 546 0
 1146 0010 2023     		movs	r3, #32
 1147              		.syntax unified
 1148              	@ 546 "../../lib/e-puck2_main-processor/ChibiOS//os/ext/CMSIS/include/core_cmFunc.h" 1
 1149 0012 83F31188 		MSR basepri, r3
 1150              	@ 0 "" 2
 1151              	.LVL126:
 1152              		.thumb
 1153              		.syntax unified
 1154              	.LBE227:
 1155              	.LBE226:
 1156              	.LBE225:
 1157              		.loc 4 349 0
 1158 0016 FFF7FEFF 		bl	_stats_start_measure_crit_thd
 1159              	.LVL127:
 1160              		.loc 4 350 0
 1161 001a FFF7FEFF 		bl	_dbg_check_lock
 1162              	.LVL128:
 1163              	.LBE224:
 1164              	.LBE223:
 1165              	.LBB228:
 1166              	.LBB229:
 1167              		.loc 1 300 0
 1168 001e FFF7FEFF 		bl	chDbgCheckClassS
 1169              	.LVL129:
 1170              		.loc 1 301 0
 1171 0022 B9F1000F 		cmp	r9, #0
 1172 0026 3DD0     		beq	.L88
 1173 0028 B8F1000F 		cmp	r8, #0
 1174 002c 3AD0     		beq	.L88
 1175              		.loc 1 302 0
 1176 002e 294D     		ldr	r5, .L109+4
 1177 0030 AB69     		ldr	r3, [r5, #24]
 1178 0032 1E6C     		ldr	r6, [r3, #64]
 1179 0034 002E     		cmp	r6, #0
 1180 0036 3DD0     		beq	.L104
 1181              	.L90:
 1182              		.loc 1 306 0
 1183 0038 3046     		mov	r0, r6
 1184 003a FFF7FEFF 		bl	chMtxUnlockS
 1185              	.LVL130:
 1186              		.loc 1 310 0
 1187 003e AC69     		ldr	r4, [r5, #24]
 1188              		.loc 1 311 0
 1189 0040 4A46     		mov	r2, r9
 1190              	.LVL131:
 1191              		.loc 1 310 0
 1192 0042 C4F82890 		str	r9, [r4, #40]
 1193              		.loc 1 311 0
 1194 0046 4B46     		mov	r3, r9
 1195 0048 03E0     		b	.L92
 1196              	.LVL132:
 1197              	.L106:
ARM GAS  C:\Users\mathi\AppData\Local\Temp\ccDryJmo.s 			page 22


 1198              	.LBB230:
 1199              	.LBB231:
 1200              		.loc 2 656 0
 1201 004a 9968     		ldr	r1, [r3, #8]
 1202 004c A068     		ldr	r0, [r4, #8]
 1203 004e 8142     		cmp	r1, r0
 1204 0050 3AD3     		bcc	.L105
 1205              	.LVL133:
 1206              	.L92:
 1207              		.loc 2 655 0
 1208 0052 1B68     		ldr	r3, [r3]
 1209              	.LVL134:
 1210              		.loc 2 656 0
 1211 0054 9945     		cmp	r9, r3
 1212 0056 F8D1     		bne	.L106
 1213              	.LVL135:
 1214              	.L91:
 1215              		.loc 2 657 0
 1216 0058 2260     		str	r2, [r4]
 1217              		.loc 2 658 0
 1218 005a 5368     		ldr	r3, [r2, #4]
 1219              	.LVL136:
 1220 005c 6360     		str	r3, [r4, #4]
 1221              	.LBE231:
 1222              	.LBE230:
 1223              		.loc 1 312 0
 1224 005e 4146     		mov	r1, r8
 1225              	.LBB235:
 1226              	.LBB232:
 1227              		.loc 2 659 0
 1228 0060 1C60     		str	r4, [r3]
 1229              	.LBE232:
 1230              	.LBE235:
 1231              		.loc 1 312 0
 1232 0062 0720     		movs	r0, #7
 1233              	.LBB236:
 1234              	.LBB233:
 1235              		.loc 2 660 0
 1236 0064 5460     		str	r4, [r2, #4]
 1237              	.LVL137:
 1238              	.LBE233:
 1239              	.LBE236:
 1240              		.loc 1 312 0
 1241 0066 FFF7FEFF 		bl	chSchGoSleepTimeoutS
 1242              	.LVL138:
 1243              		.loc 1 313 0
 1244 006a 431C     		adds	r3, r0, #1
 1245              		.loc 1 312 0
 1246 006c 0446     		mov	r4, r0
 1247              	.LVL139:
 1248              		.loc 1 313 0
 1249 006e 02D0     		beq	.L93
 1250              		.loc 1 314 0
 1251 0070 3046     		mov	r0, r6
 1252              	.LVL140:
 1253 0072 FFF7FEFF 		bl	chMtxLockS
 1254              	.LVL141:
ARM GAS  C:\Users\mathi\AppData\Local\Temp\ccDryJmo.s 			page 23


 1255              	.L93:
 1256              	.LBE229:
 1257              	.LBE228:
 1258              	.LBB240:
 1259              	.LBB241:
 1260              		.loc 4 360 0
 1261 0076 FFF7FEFF 		bl	_dbg_check_unlock
 1262              	.LVL142:
 1263              		.loc 4 361 0
 1264 007a FFF7FEFF 		bl	_stats_stop_measure_crit_thd
 1265              	.LVL143:
 1266              		.loc 4 367 0
 1267 007e 2B68     		ldr	r3, [r5]
 1268 0080 AB42     		cmp	r3, r5
 1269 0082 04D0     		beq	.L94
 1270 0084 AA69     		ldr	r2, [r5, #24]
 1271 0086 9B68     		ldr	r3, [r3, #8]
 1272 0088 9268     		ldr	r2, [r2, #8]
 1273 008a 9A42     		cmp	r2, r3
 1274 008c 18D3     		bcc	.L107
 1275              	.L94:
 1276              	.LVL144:
 1277              	.LBB242:
 1278              	.LBB243:
 1279              	.LBB244:
 1280              		.loc 3 546 0
 1281 008e 0023     		movs	r3, #0
 1282              		.syntax unified
 1283              	@ 546 "../../lib/e-puck2_main-processor/ChibiOS//os/ext/CMSIS/include/core_cmFunc.h" 1
 1284 0090 83F31188 		MSR basepri, r3
 1285              	@ 0 "" 2
 1286              	.LVL145:
 1287              		.thumb
 1288              		.syntax unified
 1289              	.LBE244:
 1290              	.LBE243:
 1291              	.LBE242:
 1292              	.LBE241:
 1293              	.LBE240:
 1294              		.loc 1 266 0
 1295 0094 019A     		ldr	r2, [sp, #4]
 1296 0096 3B68     		ldr	r3, [r7]
 1297 0098 9A42     		cmp	r2, r3
 1298 009a 2046     		mov	r0, r4
 1299 009c 16D1     		bne	.L108
 1300 009e 03B0     		add	sp, sp, #12
 1301              		.cfi_remember_state
 1302              		.cfi_def_cfa_offset 28
 1303              		@ sp needed
 1304 00a0 BDE8F083 		pop	{r4, r5, r6, r7, r8, r9, pc}
 1305              	.LVL146:
 1306              	.L88:
 1307              		.cfi_restore_state
 1308              	.LBB246:
 1309              	.LBB238:
 1310              		.loc 1 302 0
 1311 00a4 0B4D     		ldr	r5, .L109+4
ARM GAS  C:\Users\mathi\AppData\Local\Temp\ccDryJmo.s 			page 24


 1312              		.loc 1 301 0
 1313 00a6 0C48     		ldr	r0, .L109+8
 1314 00a8 FFF7FEFF 		bl	chSysHalt
 1315              	.LVL147:
 1316              		.loc 1 302 0
 1317 00ac AB69     		ldr	r3, [r5, #24]
 1318 00ae 1E6C     		ldr	r6, [r3, #64]
 1319 00b0 002E     		cmp	r6, #0
 1320 00b2 C1D1     		bne	.L90
 1321              	.L104:
 1322 00b4 0848     		ldr	r0, .L109+8
 1323 00b6 FFF7FEFF 		bl	chSysHalt
 1324              	.LVL148:
 1325 00ba AB69     		ldr	r3, [r5, #24]
 1326 00bc 1E6C     		ldr	r6, [r3, #64]
 1327 00be BBE7     		b	.L90
 1328              	.LVL149:
 1329              	.L107:
 1330              	.LBE238:
 1331              	.LBE246:
 1332              	.LBB247:
 1333              	.LBB245:
 1334              		.loc 4 367 0
 1335 00c0 0648     		ldr	r0, .L109+12
 1336 00c2 FFF7FEFF 		bl	chSysHalt
 1337              	.LVL150:
 1338 00c6 E2E7     		b	.L94
 1339              	.LVL151:
 1340              	.L105:
 1341              	.LBE245:
 1342              	.LBE247:
 1343              	.LBB248:
 1344              	.LBB239:
 1345              	.LBB237:
 1346              	.LBB234:
 1347              		.loc 2 655 0
 1348 00c8 1A46     		mov	r2, r3
 1349              	.LVL152:
 1350 00ca C5E7     		b	.L91
 1351              	.LVL153:
 1352              	.L108:
 1353              	.LBE234:
 1354              	.LBE237:
 1355              	.LBE239:
 1356              	.LBE248:
 1357              		.loc 1 266 0
 1358 00cc FFF7FEFF 		bl	__stack_chk_fail
 1359              	.LVL154:
 1360              	.L110:
 1361              		.align	2
 1362              	.L109:
 1363 00d0 00000000 		.word	__stack_chk_guard
 1364 00d4 00000000 		.word	ch
 1365 00d8 00000000 		.word	.LANCHOR6
 1366 00dc 00000000 		.word	.LANCHOR2
 1367              		.cfi_endproc
 1368              	.LFE226:
ARM GAS  C:\Users\mathi\AppData\Local\Temp\ccDryJmo.s 			page 25


 1369              		.size	chCondWaitTimeout, .-chCondWaitTimeout
 1370              		.section	.text.chCondWaitTimeoutS,"ax",%progbits
 1371              		.align	1
 1372              		.p2align 4,,15
 1373              		.global	chCondWaitTimeoutS
 1374              		.syntax unified
 1375              		.thumb
 1376              		.thumb_func
 1377              		.fpu fpv4-sp-d16
 1378              		.type	chCondWaitTimeoutS, %function
 1379              	chCondWaitTimeoutS:
 1380              	.LFB227:
 1381              		.loc 1 296 0
 1382              		.cfi_startproc
 1383              		@ args = 0, pretend = 0, frame = 8
 1384              		@ frame_needed = 0, uses_anonymous_args = 0
 1385              	.LVL155:
 1386 0000 2DE9F041 		push	{r4, r5, r6, r7, r8, lr}
 1387              		.cfi_def_cfa_offset 24
 1388              		.cfi_offset 4, -24
 1389              		.cfi_offset 5, -20
 1390              		.cfi_offset 6, -16
 1391              		.cfi_offset 7, -12
 1392              		.cfi_offset 8, -8
 1393              		.cfi_offset 14, -4
 1394 0004 244F     		ldr	r7, .L131
 1395 0006 82B0     		sub	sp, sp, #8
 1396              		.cfi_def_cfa_offset 32
 1397              		.loc 1 296 0
 1398 0008 0546     		mov	r5, r0
 1399 000a 3B68     		ldr	r3, [r7]
 1400 000c 0193     		str	r3, [sp, #4]
 1401 000e 8846     		mov	r8, r1
 1402              		.loc 1 300 0
 1403 0010 FFF7FEFF 		bl	chDbgCheckClassS
 1404              	.LVL156:
 1405              		.loc 1 301 0
 1406 0014 002D     		cmp	r5, #0
 1407 0016 2DD0     		beq	.L112
 1408              		.loc 1 301 0 is_stmt 0 discriminator 3
 1409 0018 B8F1000F 		cmp	r8, #0
 1410 001c 2AD0     		beq	.L112
 1411              		.loc 1 302 0 is_stmt 1 discriminator 1
 1412 001e 1F4C     		ldr	r4, .L131+4
 1413 0020 A369     		ldr	r3, [r4, #24]
 1414 0022 1E6C     		ldr	r6, [r3, #64]
 1415 0024 002E     		cmp	r6, #0
 1416 0026 2DD0     		beq	.L127
 1417              	.L114:
 1418              		.loc 1 306 0
 1419 0028 3046     		mov	r0, r6
 1420 002a FFF7FEFF 		bl	chMtxUnlockS
 1421              	.LVL157:
 1422              		.loc 1 310 0
 1423 002e A469     		ldr	r4, [r4, #24]
 1424              		.loc 1 311 0
 1425 0030 2A46     		mov	r2, r5
ARM GAS  C:\Users\mathi\AppData\Local\Temp\ccDryJmo.s 			page 26


 1426              	.LVL158:
 1427              		.loc 1 310 0
 1428 0032 A562     		str	r5, [r4, #40]
 1429              		.loc 1 311 0
 1430 0034 2B46     		mov	r3, r5
 1431 0036 03E0     		b	.L116
 1432              	.LVL159:
 1433              	.L129:
 1434              	.LBB249:
 1435              	.LBB250:
 1436              		.loc 2 656 0
 1437 0038 9968     		ldr	r1, [r3, #8]
 1438 003a A068     		ldr	r0, [r4, #8]
 1439 003c 8142     		cmp	r1, r0
 1440 003e 27D3     		bcc	.L128
 1441              	.LVL160:
 1442              	.L116:
 1443              		.loc 2 655 0
 1444 0040 1B68     		ldr	r3, [r3]
 1445              	.LVL161:
 1446              		.loc 2 656 0
 1447 0042 9D42     		cmp	r5, r3
 1448 0044 F8D1     		bne	.L129
 1449              	.LVL162:
 1450              	.L115:
 1451              		.loc 2 657 0
 1452 0046 2260     		str	r2, [r4]
 1453              		.loc 2 658 0
 1454 0048 5368     		ldr	r3, [r2, #4]
 1455              	.LVL163:
 1456 004a 6360     		str	r3, [r4, #4]
 1457              	.LBE250:
 1458              	.LBE249:
 1459              		.loc 1 312 0
 1460 004c 4146     		mov	r1, r8
 1461              	.LBB254:
 1462              	.LBB251:
 1463              		.loc 2 659 0
 1464 004e 1C60     		str	r4, [r3]
 1465              	.LBE251:
 1466              	.LBE254:
 1467              		.loc 1 312 0
 1468 0050 0720     		movs	r0, #7
 1469              	.LBB255:
 1470              	.LBB252:
 1471              		.loc 2 660 0
 1472 0052 5460     		str	r4, [r2, #4]
 1473              	.LVL164:
 1474              	.LBE252:
 1475              	.LBE255:
 1476              		.loc 1 312 0
 1477 0054 FFF7FEFF 		bl	chSchGoSleepTimeoutS
 1478              	.LVL165:
 1479              		.loc 1 313 0
 1480 0058 431C     		adds	r3, r0, #1
 1481              		.loc 1 312 0
 1482 005a 0446     		mov	r4, r0
ARM GAS  C:\Users\mathi\AppData\Local\Temp\ccDryJmo.s 			page 27


 1483              	.LVL166:
 1484              		.loc 1 313 0
 1485 005c 02D0     		beq	.L111
 1486              		.loc 1 314 0
 1487 005e 3046     		mov	r0, r6
 1488              	.LVL167:
 1489 0060 FFF7FEFF 		bl	chMtxLockS
 1490              	.LVL168:
 1491              	.L111:
 1492              		.loc 1 318 0
 1493 0064 019A     		ldr	r2, [sp, #4]
 1494 0066 3B68     		ldr	r3, [r7]
 1495 0068 9A42     		cmp	r2, r3
 1496 006a 2046     		mov	r0, r4
 1497 006c 12D1     		bne	.L130
 1498              	.LVL169:
 1499 006e 02B0     		add	sp, sp, #8
 1500              		.cfi_remember_state
 1501              		.cfi_def_cfa_offset 24
 1502              		@ sp needed
 1503 0070 BDE8F081 		pop	{r4, r5, r6, r7, r8, pc}
 1504              	.LVL170:
 1505              	.L112:
 1506              		.cfi_restore_state
 1507              		.loc 1 302 0 discriminator 4
 1508 0074 094C     		ldr	r4, .L131+4
 1509              		.loc 1 301 0 discriminator 4
 1510 0076 0A48     		ldr	r0, .L131+8
 1511 0078 FFF7FEFF 		bl	chSysHalt
 1512              	.LVL171:
 1513              		.loc 1 302 0 discriminator 4
 1514 007c A369     		ldr	r3, [r4, #24]
 1515 007e 1E6C     		ldr	r6, [r3, #64]
 1516 0080 002E     		cmp	r6, #0
 1517 0082 D1D1     		bne	.L114
 1518              	.L127:
 1519              		.loc 1 302 0 is_stmt 0 discriminator 2
 1520 0084 0648     		ldr	r0, .L131+8
 1521 0086 FFF7FEFF 		bl	chSysHalt
 1522              	.LVL172:
 1523 008a A369     		ldr	r3, [r4, #24]
 1524 008c 1E6C     		ldr	r6, [r3, #64]
 1525 008e CBE7     		b	.L114
 1526              	.LVL173:
 1527              	.L128:
 1528              	.LBB256:
 1529              	.LBB253:
 1530              		.loc 2 655 0 is_stmt 1
 1531 0090 1A46     		mov	r2, r3
 1532              	.LVL174:
 1533 0092 D8E7     		b	.L115
 1534              	.LVL175:
 1535              	.L130:
 1536              	.LBE253:
 1537              	.LBE256:
 1538              		.loc 1 318 0
 1539 0094 FFF7FEFF 		bl	__stack_chk_fail
ARM GAS  C:\Users\mathi\AppData\Local\Temp\ccDryJmo.s 			page 28


 1540              	.LVL176:
 1541              	.L132:
 1542              		.align	2
 1543              	.L131:
 1544 0098 00000000 		.word	__stack_chk_guard
 1545 009c 00000000 		.word	ch
 1546 00a0 00000000 		.word	.LANCHOR6
 1547              		.cfi_endproc
 1548              	.LFE227:
 1549              		.size	chCondWaitTimeoutS, .-chCondWaitTimeoutS
 1550              		.section	.rodata.__func__.7153,"a",%progbits
 1551              		.align	2
 1552              		.set	.LANCHOR2,. + 0
 1553              		.type	__func__.7153, %object
 1554              		.size	__func__.7153, 12
 1555              	__func__.7153:
 1556 0000 63685379 		.ascii	"chSysUnlock\000"
 1556      73556E6C 
 1556      6F636B00 
 1557              		.section	.rodata.__func__.7849,"a",%progbits
 1558              		.align	2
 1559              		.set	.LANCHOR0,. + 0
 1560              		.type	__func__.7849, %object
 1561              		.size	__func__.7849, 17
 1562              	__func__.7849:
 1563 0000 6368436F 		.ascii	"chCondObjectInit\000"
 1563      6E644F62 
 1563      6A656374 
 1563      496E6974 
 1563      00
 1564              		.section	.rodata.__func__.7853,"a",%progbits
 1565              		.align	2
 1566              		.set	.LANCHOR1,. + 0
 1567              		.type	__func__.7853, %object
 1568              		.size	__func__.7853, 13
 1569              	__func__.7853:
 1570 0000 6368436F 		.ascii	"chCondSignal\000"
 1570      6E645369 
 1570      676E616C 
 1570      00
 1571              		.section	.rodata.__func__.7857,"a",%progbits
 1572              		.align	2
 1573              		.set	.LANCHOR3,. + 0
 1574              		.type	__func__.7857, %object
 1575              		.size	__func__.7857, 14
 1576              	__func__.7857:
 1577 0000 6368436F 		.ascii	"chCondSignalI\000"
 1577      6E645369 
 1577      676E616C 
 1577      4900
 1578              		.section	.rodata.__func__.7865,"a",%progbits
 1579              		.align	2
 1580              		.set	.LANCHOR4,. + 0
 1581              		.type	__func__.7865, %object
 1582              		.size	__func__.7865, 17
 1583              	__func__.7865:
 1584 0000 6368436F 		.ascii	"chCondBroadcastI\000"
ARM GAS  C:\Users\mathi\AppData\Local\Temp\ccDryJmo.s 			page 29


 1584      6E644272 
 1584      6F616463 
 1584      61737449 
 1584      00
 1585              		.section	.rodata.__func__.7879,"a",%progbits
 1586              		.align	2
 1587              		.set	.LANCHOR5,. + 0
 1588              		.type	__func__.7879, %object
 1589              		.size	__func__.7879, 12
 1590              	__func__.7879:
 1591 0000 6368436F 		.ascii	"chCondWaitS\000"
 1591      6E645761 
 1591      69745300 
 1592              		.section	.rodata.__func__.7891,"a",%progbits
 1593              		.align	2
 1594              		.set	.LANCHOR6,. + 0
 1595              		.type	__func__.7891, %object
 1596              		.size	__func__.7891, 19
 1597              	__func__.7891:
 1598 0000 6368436F 		.ascii	"chCondWaitTimeoutS\000"
 1598      6E645761 
 1598      69745469 
 1598      6D656F75 
 1598      745300
 1599              		.text
 1600              	.Letext0:
 1601              		.file 6 "c:\\eclipse_e-puck2\\tools\\gcc-arm-none-eabi-7-2017-q4-major-win32\\arm-none-eabi\\inclu
 1602              		.file 7 "c:\\eclipse_e-puck2\\tools\\gcc-arm-none-eabi-7-2017-q4-major-win32\\arm-none-eabi\\inclu
 1603              		.file 8 "../../lib/e-puck2_main-processor/ChibiOS//os/rt/ports/ARMCMx/compilers/GCC/chtypes.h"
 1604              		.file 9 "../../lib/e-puck2_main-processor/ChibiOS//os/rt/include/chsystypes.h"
 1605              		.file 10 "../../lib/e-puck2_main-processor/ChibiOS//os/ext/CMSIS/include/core_cm4.h"
 1606              		.file 11 "../../lib/e-puck2_main-processor/ChibiOS//os/ext/CMSIS/ST/system_stm32f4xx.h"
 1607              		.file 12 "../../lib/e-puck2_main-processor/ChibiOS//os/rt/ports/ARMCMx/chcore.h"
 1608              		.file 13 "../../lib/e-puck2_main-processor/ChibiOS//os/rt/ports/ARMCMx/chcore_v7m.h"
 1609              		.file 14 "../../lib/e-puck2_main-processor/ChibiOS//os/rt/include/chdebug.h"
 1610              		.file 15 "../../lib/e-puck2_main-processor/ChibiOS//os/rt/include/chtm.h"
 1611              		.file 16 "../../lib/e-puck2_main-processor/ChibiOS//os/rt/include/chstats.h"
 1612              		.file 17 "../../lib/e-puck2_main-processor/ChibiOS//os/rt/include/chsem.h"
 1613              		.file 18 "../../lib/e-puck2_main-processor/ChibiOS//os/rt/include/chregistry.h"
 1614              		.file 19 "../../lib/e-puck2_main-processor/ChibiOS//os/rt/include/chcond.h"
 1615              		.file 20 "../../lib/e-puck2_main-processor/ChibiOS//os/rt/include/chthreads.h"