ARM GAS  C:\Users\mathi\AppData\Local\Temp\ccDXreIU.s 			page 1


   1              		.cpu cortex-m4
   2              		.eabi_attribute 27, 1
   3              		.eabi_attribute 28, 1
   4              		.eabi_attribute 20, 1
   5              		.eabi_attribute 21, 1
   6              		.eabi_attribute 23, 3
   7              		.eabi_attribute 24, 1
   8              		.eabi_attribute 25, 1
   9              		.eabi_attribute 26, 1
  10              		.eabi_attribute 30, 2
  11              		.eabi_attribute 34, 1
  12              		.eabi_attribute 18, 4
  13              		.file	"chevents.c"
  14              		.text
  15              	.Ltext0:
  16              		.cfi_sections	.debug_frame
  17              		.section	.text.chEvtRegisterMaskWithFlags,"ax",%progbits
  18              		.align	1
  19              		.p2align 4,,15
  20              		.global	chEvtRegisterMaskWithFlags
  21              		.syntax unified
  22              		.thumb
  23              		.thumb_func
  24              		.fpu fpv4-sp-d16
  25              		.type	chEvtRegisterMaskWithFlags, %function
  26              	chEvtRegisterMaskWithFlags:
  27              	.LFB219:
  28              		.file 1 "../../lib/e-puck2_main-processor/ChibiOS//os/rt/src/chevents.c"
  29              		.loc 1 106 0
  30              		.cfi_startproc
  31              		@ args = 0, pretend = 0, frame = 8
  32              		@ frame_needed = 0, uses_anonymous_args = 0
  33              	.LVL0:
  34 0000 2DE9F043 		push	{r4, r5, r6, r7, r8, r9, lr}
  35              		.cfi_def_cfa_offset 28
  36              		.cfi_offset 4, -28
  37              		.cfi_offset 5, -24
  38              		.cfi_offset 6, -20
  39              		.cfi_offset 7, -16
  40              		.cfi_offset 8, -12
  41              		.cfi_offset 9, -8
  42              		.cfi_offset 14, -4
  43 0004 1D4F     		ldr	r7, .L13
  44 0006 83B0     		sub	sp, sp, #12
  45              		.cfi_def_cfa_offset 40
  46              		.loc 1 106 0
  47 0008 3C68     		ldr	r4, [r7]
  48 000a 0194     		str	r4, [sp, #4]
  49 000c 9146     		mov	r9, r2
  50 000e 0C46     		mov	r4, r1
  51 0010 9846     		mov	r8, r3
  52              		.loc 1 108 0
  53 0012 0646     		mov	r6, r0
  54 0014 60B3     		cbz	r0, .L2
  55              		.loc 1 108 0 is_stmt 0 discriminator 3
  56 0016 59B3     		cbz	r1, .L2
  57              	.LVL1:
ARM GAS  C:\Users\mathi\AppData\Local\Temp\ccDXreIU.s 			page 2


  58              	.L3:
  59              	.LBB89:
  60              	.LBB90:
  61              	.LBB91:
  62              	.LBB92:
  63              	.LBB93:
  64              		.file 2 "../../lib/e-puck2_main-processor/ChibiOS//os/ext/CMSIS/include/core_cmFunc.h"
  65              		.loc 2 546 0 is_stmt 1
  66 0018 2023     		movs	r3, #32
  67              		.syntax unified
  68              	@ 546 "../../lib/e-puck2_main-processor/ChibiOS//os/ext/CMSIS/include/core_cmFunc.h" 1
  69 001a 83F31188 		MSR basepri, r3
  70              	@ 0 "" 2
  71              	.LVL2:
  72              		.thumb
  73              		.syntax unified
  74              	.LBE93:
  75              	.LBE92:
  76              	.LBE91:
  77              		.file 3 "../../lib/e-puck2_main-processor/ChibiOS//os/rt/include/chsys.h"
  78              		.loc 3 349 0
  79 001e FFF7FEFF 		bl	_stats_start_measure_crit_thd
  80              	.LVL3:
  81              	.LBE90:
  82              	.LBE89:
  83              		.loc 1 113 0
  84 0022 174D     		ldr	r5, .L13+4
  85              	.LBB95:
  86              	.LBB94:
  87              		.loc 3 350 0
  88 0024 FFF7FEFF 		bl	_dbg_check_lock
  89              	.LVL4:
  90              	.LBE94:
  91              	.LBE95:
  92              		.loc 1 111 0
  93 0028 3368     		ldr	r3, [r6]
  94 002a 2360     		str	r3, [r4]
  95              		.loc 1 112 0
  96 002c 3460     		str	r4, [r6]
  97              		.loc 1 113 0
  98 002e AB69     		ldr	r3, [r5, #24]
  99 0030 6360     		str	r3, [r4, #4]
 100              		.loc 1 115 0
 101 0032 0023     		movs	r3, #0
 102 0034 C4E90338 		strd	r3, r8, [r4, #12]
 103              		.loc 1 114 0
 104 0038 C4F80890 		str	r9, [r4, #8]
 105              	.LBB96:
 106              	.LBB97:
 107              		.loc 3 360 0
 108 003c FFF7FEFF 		bl	_dbg_check_unlock
 109              	.LVL5:
 110              		.loc 3 361 0
 111 0040 FFF7FEFF 		bl	_stats_stop_measure_crit_thd
 112              	.LVL6:
 113              		.loc 3 367 0
 114 0044 2B68     		ldr	r3, [r5]
ARM GAS  C:\Users\mathi\AppData\Local\Temp\ccDXreIU.s 			page 3


 115 0046 AB42     		cmp	r3, r5
 116 0048 04D0     		beq	.L4
 117 004a AA69     		ldr	r2, [r5, #24]
 118 004c 9B68     		ldr	r3, [r3, #8]
 119 004e 9268     		ldr	r2, [r2, #8]
 120 0050 9A42     		cmp	r2, r3
 121 0052 09D3     		bcc	.L11
 122              	.L4:
 123              	.LVL7:
 124              	.LBB98:
 125              	.LBB99:
 126              	.LBB100:
 127              		.loc 2 546 0
 128 0054 0023     		movs	r3, #0
 129              		.syntax unified
 130              	@ 546 "../../lib/e-puck2_main-processor/ChibiOS//os/ext/CMSIS/include/core_cmFunc.h" 1
 131 0056 83F31188 		MSR basepri, r3
 132              	@ 0 "" 2
 133              	.LVL8:
 134              		.thumb
 135              		.syntax unified
 136              	.LBE100:
 137              	.LBE99:
 138              	.LBE98:
 139              	.LBE97:
 140              	.LBE96:
 141              		.loc 1 118 0
 142 005a 019A     		ldr	r2, [sp, #4]
 143 005c 3B68     		ldr	r3, [r7]
 144 005e 9A42     		cmp	r2, r3
 145 0060 0AD1     		bne	.L12
 146 0062 03B0     		add	sp, sp, #12
 147              		.cfi_remember_state
 148              		.cfi_def_cfa_offset 28
 149              		@ sp needed
 150 0064 BDE8F083 		pop	{r4, r5, r6, r7, r8, r9, pc}
 151              	.LVL9:
 152              	.L11:
 153              		.cfi_restore_state
 154              	.LBB102:
 155              	.LBB101:
 156              		.loc 3 367 0
 157 0068 0648     		ldr	r0, .L13+8
 158 006a FFF7FEFF 		bl	chSysHalt
 159              	.LVL10:
 160 006e F1E7     		b	.L4
 161              	.LVL11:
 162              	.L2:
 163              	.LBE101:
 164              	.LBE102:
 165              		.loc 1 108 0 discriminator 4
 166 0070 0548     		ldr	r0, .L13+12
 167              	.LVL12:
 168 0072 FFF7FEFF 		bl	chSysHalt
 169              	.LVL13:
 170 0076 CFE7     		b	.L3
 171              	.L12:
ARM GAS  C:\Users\mathi\AppData\Local\Temp\ccDXreIU.s 			page 4


 172              		.loc 1 118 0
 173 0078 FFF7FEFF 		bl	__stack_chk_fail
 174              	.LVL14:
 175              	.L14:
 176              		.align	2
 177              	.L13:
 178 007c 00000000 		.word	__stack_chk_guard
 179 0080 00000000 		.word	ch
 180 0084 00000000 		.word	.LANCHOR1
 181 0088 00000000 		.word	.LANCHOR0
 182              		.cfi_endproc
 183              	.LFE219:
 184              		.size	chEvtRegisterMaskWithFlags, .-chEvtRegisterMaskWithFlags
 185              		.section	.text.chEvtUnregister,"ax",%progbits
 186              		.align	1
 187              		.p2align 4,,15
 188              		.global	chEvtUnregister
 189              		.syntax unified
 190              		.thumb
 191              		.thumb_func
 192              		.fpu fpv4-sp-d16
 193              		.type	chEvtUnregister, %function
 194              	chEvtUnregister:
 195              	.LFB220:
 196              		.loc 1 133 0
 197              		.cfi_startproc
 198              		@ args = 0, pretend = 0, frame = 8
 199              		@ frame_needed = 0, uses_anonymous_args = 0
 200              	.LVL15:
 201 0000 70B5     		push	{r4, r5, r6, lr}
 202              		.cfi_def_cfa_offset 16
 203              		.cfi_offset 4, -16
 204              		.cfi_offset 5, -12
 205              		.cfi_offset 6, -8
 206              		.cfi_offset 14, -4
 207 0002 1D4E     		ldr	r6, .L31
 208 0004 82B0     		sub	sp, sp, #8
 209              		.cfi_def_cfa_offset 24
 210              		.loc 1 133 0
 211 0006 3368     		ldr	r3, [r6]
 212 0008 0193     		str	r3, [sp, #4]
 213 000a 0D46     		mov	r5, r1
 214              		.loc 1 136 0
 215 000c 0446     		mov	r4, r0
 216 000e 60B3     		cbz	r0, .L16
 217              		.loc 1 136 0 is_stmt 0 discriminator 3
 218 0010 59B3     		cbz	r1, .L16
 219              	.LVL16:
 220              	.L17:
 221              	.LBB113:
 222              	.LBB114:
 223              	.LBB115:
 224              	.LBB116:
 225              	.LBB117:
 226              		.loc 2 546 0 is_stmt 1
 227 0012 2023     		movs	r3, #32
 228              		.syntax unified
ARM GAS  C:\Users\mathi\AppData\Local\Temp\ccDXreIU.s 			page 5


 229              	@ 546 "../../lib/e-puck2_main-processor/ChibiOS//os/ext/CMSIS/include/core_cmFunc.h" 1
 230 0014 83F31188 		MSR basepri, r3
 231              	@ 0 "" 2
 232              	.LVL17:
 233              		.thumb
 234              		.syntax unified
 235              	.LBE117:
 236              	.LBE116:
 237              	.LBE115:
 238              		.loc 3 349 0
 239 0018 FFF7FEFF 		bl	_stats_start_measure_crit_thd
 240              	.LVL18:
 241              		.loc 3 350 0
 242 001c FFF7FEFF 		bl	_dbg_check_lock
 243              	.LVL19:
 244 0020 2246     		mov	r2, r4
 245 0022 02E0     		b	.L18
 246              	.LVL20:
 247              	.L20:
 248              	.LBE114:
 249              	.LBE113:
 250              		.loc 1 145 0
 251 0024 AB42     		cmp	r3, r5
 252 0026 1DD0     		beq	.L28
 253 0028 1A46     		mov	r2, r3
 254              	.LVL21:
 255              	.L18:
 256              		.loc 1 143 0
 257 002a 1368     		ldr	r3, [r2]
 258 002c A342     		cmp	r3, r4
 259 002e F9D1     		bne	.L20
 260              	.L19:
 261              	.LBB118:
 262              	.LBB119:
 263              		.loc 3 360 0
 264 0030 FFF7FEFF 		bl	_dbg_check_unlock
 265              	.LVL22:
 266              		.loc 3 361 0
 267 0034 FFF7FEFF 		bl	_stats_stop_measure_crit_thd
 268              	.LVL23:
 269              		.loc 3 367 0
 270 0038 104B     		ldr	r3, .L31+4
 271 003a 1A68     		ldr	r2, [r3]
 272 003c 9A42     		cmp	r2, r3
 273 003e 04D0     		beq	.L21
 274 0040 9969     		ldr	r1, [r3, #24]
 275 0042 9368     		ldr	r3, [r2, #8]
 276 0044 8A68     		ldr	r2, [r1, #8]
 277 0046 9A42     		cmp	r2, r3
 278 0048 08D3     		bcc	.L29
 279              	.L21:
 280              	.LVL24:
 281              	.LBB120:
 282              	.LBB121:
 283              	.LBB122:
 284              		.loc 2 546 0
 285 004a 0023     		movs	r3, #0
ARM GAS  C:\Users\mathi\AppData\Local\Temp\ccDXreIU.s 			page 6


 286              		.syntax unified
 287              	@ 546 "../../lib/e-puck2_main-processor/ChibiOS//os/ext/CMSIS/include/core_cmFunc.h" 1
 288 004c 83F31188 		MSR basepri, r3
 289              	@ 0 "" 2
 290              	.LVL25:
 291              		.thumb
 292              		.syntax unified
 293              	.LBE122:
 294              	.LBE121:
 295              	.LBE120:
 296              	.LBE119:
 297              	.LBE118:
 298              		.loc 1 152 0
 299 0050 019A     		ldr	r2, [sp, #4]
 300 0052 3368     		ldr	r3, [r6]
 301 0054 9A42     		cmp	r2, r3
 302 0056 0CD1     		bne	.L30
 303 0058 02B0     		add	sp, sp, #8
 304              		.cfi_remember_state
 305              		.cfi_def_cfa_offset 16
 306              		@ sp needed
 307 005a 70BD     		pop	{r4, r5, r6, pc}
 308              	.LVL26:
 309              	.L29:
 310              		.cfi_restore_state
 311              	.LBB124:
 312              	.LBB123:
 313              		.loc 3 367 0
 314 005c 0848     		ldr	r0, .L31+8
 315 005e FFF7FEFF 		bl	chSysHalt
 316              	.LVL27:
 317 0062 F2E7     		b	.L21
 318              	.LVL28:
 319              	.L28:
 320              	.LBE123:
 321              	.LBE124:
 322              		.loc 1 146 0
 323 0064 2B68     		ldr	r3, [r5]
 324 0066 1360     		str	r3, [r2]
 325              		.loc 1 147 0
 326 0068 E2E7     		b	.L19
 327              	.LVL29:
 328              	.L16:
 329              		.loc 1 136 0 discriminator 4
 330 006a 0648     		ldr	r0, .L31+12
 331              	.LVL30:
 332 006c FFF7FEFF 		bl	chSysHalt
 333              	.LVL31:
 334 0070 CFE7     		b	.L17
 335              	.L30:
 336              		.loc 1 152 0
 337 0072 FFF7FEFF 		bl	__stack_chk_fail
 338              	.LVL32:
 339              	.L32:
 340 0076 00BF     		.align	2
 341              	.L31:
 342 0078 00000000 		.word	__stack_chk_guard
ARM GAS  C:\Users\mathi\AppData\Local\Temp\ccDXreIU.s 			page 7


 343 007c 00000000 		.word	ch
 344 0080 00000000 		.word	.LANCHOR1
 345 0084 00000000 		.word	.LANCHOR2
 346              		.cfi_endproc
 347              	.LFE220:
 348              		.size	chEvtUnregister, .-chEvtUnregister
 349              		.section	.text.chEvtGetAndClearEvents,"ax",%progbits
 350              		.align	1
 351              		.p2align 4,,15
 352              		.global	chEvtGetAndClearEvents
 353              		.syntax unified
 354              		.thumb
 355              		.thumb_func
 356              		.fpu fpv4-sp-d16
 357              		.type	chEvtGetAndClearEvents, %function
 358              	chEvtGetAndClearEvents:
 359              	.LFB221:
 360              		.loc 1 162 0
 361              		.cfi_startproc
 362              		@ args = 0, pretend = 0, frame = 8
 363              		@ frame_needed = 0, uses_anonymous_args = 0
 364              	.LVL33:
 365 0000 70B5     		push	{r4, r5, r6, lr}
 366              		.cfi_def_cfa_offset 16
 367              		.cfi_offset 4, -16
 368              		.cfi_offset 5, -12
 369              		.cfi_offset 6, -8
 370              		.cfi_offset 14, -4
 371 0002 174E     		ldr	r6, .L39
 372 0004 82B0     		sub	sp, sp, #8
 373              		.cfi_def_cfa_offset 24
 374              		.loc 1 162 0
 375 0006 3368     		ldr	r3, [r6]
 376 0008 0193     		str	r3, [sp, #4]
 377              	.LVL34:
 378 000a 0546     		mov	r5, r0
 379              	.LBB135:
 380              	.LBB136:
 381              	.LBB137:
 382              	.LBB138:
 383              	.LBB139:
 384              		.loc 2 546 0
 385 000c 2023     		movs	r3, #32
 386              		.syntax unified
 387              	@ 546 "../../lib/e-puck2_main-processor/ChibiOS//os/ext/CMSIS/include/core_cmFunc.h" 1
 388 000e 83F31188 		MSR basepri, r3
 389              	@ 0 "" 2
 390              	.LVL35:
 391              		.thumb
 392              		.syntax unified
 393              	.LBE139:
 394              	.LBE138:
 395              	.LBE137:
 396              	.LBE136:
 397              	.LBE135:
 398              		.loc 1 166 0
 399 0012 144C     		ldr	r4, .L39+4
ARM GAS  C:\Users\mathi\AppData\Local\Temp\ccDXreIU.s 			page 8


 400              	.LBB141:
 401              	.LBB140:
 402              		.loc 3 349 0
 403 0014 FFF7FEFF 		bl	_stats_start_measure_crit_thd
 404              	.LVL36:
 405              		.loc 3 350 0
 406 0018 FFF7FEFF 		bl	_dbg_check_lock
 407              	.LVL37:
 408              	.LBE140:
 409              	.LBE141:
 410              		.loc 1 166 0
 411 001c A369     		ldr	r3, [r4, #24]
 412 001e D86B     		ldr	r0, [r3, #60]
 413              		.loc 1 167 0
 414 0020 20EA0502 		bic	r2, r0, r5
 415 0024 DA63     		str	r2, [r3, #60]
 416              		.loc 1 166 0
 417 0026 0540     		ands	r5, r5, r0
 418              	.LVL38:
 419              	.LBB142:
 420              	.LBB143:
 421              		.loc 3 360 0
 422 0028 FFF7FEFF 		bl	_dbg_check_unlock
 423              	.LVL39:
 424              		.loc 3 361 0
 425 002c FFF7FEFF 		bl	_stats_stop_measure_crit_thd
 426              	.LVL40:
 427              		.loc 3 367 0
 428 0030 2368     		ldr	r3, [r4]
 429 0032 A342     		cmp	r3, r4
 430 0034 04D0     		beq	.L34
 431 0036 A269     		ldr	r2, [r4, #24]
 432 0038 9B68     		ldr	r3, [r3, #8]
 433 003a 9268     		ldr	r2, [r2, #8]
 434 003c 9A42     		cmp	r2, r3
 435 003e 09D3     		bcc	.L37
 436              	.L34:
 437              	.LVL41:
 438              	.LBB144:
 439              	.LBB145:
 440              	.LBB146:
 441              		.loc 2 546 0
 442 0040 0023     		movs	r3, #0
 443              		.syntax unified
 444              	@ 546 "../../lib/e-puck2_main-processor/ChibiOS//os/ext/CMSIS/include/core_cmFunc.h" 1
 445 0042 83F31188 		MSR basepri, r3
 446              	@ 0 "" 2
 447              	.LVL42:
 448              		.thumb
 449              		.syntax unified
 450              	.LBE146:
 451              	.LBE145:
 452              	.LBE144:
 453              	.LBE143:
 454              	.LBE142:
 455              		.loc 1 171 0
 456 0046 019A     		ldr	r2, [sp, #4]
ARM GAS  C:\Users\mathi\AppData\Local\Temp\ccDXreIU.s 			page 9


 457 0048 3368     		ldr	r3, [r6]
 458 004a 9A42     		cmp	r2, r3
 459 004c 2846     		mov	r0, r5
 460 004e 05D1     		bne	.L38
 461              	.LVL43:
 462 0050 02B0     		add	sp, sp, #8
 463              		.cfi_remember_state
 464              		.cfi_def_cfa_offset 16
 465              		@ sp needed
 466 0052 70BD     		pop	{r4, r5, r6, pc}
 467              	.LVL44:
 468              	.L37:
 469              		.cfi_restore_state
 470              	.LBB148:
 471              	.LBB147:
 472              		.loc 3 367 0
 473 0054 0448     		ldr	r0, .L39+8
 474 0056 FFF7FEFF 		bl	chSysHalt
 475              	.LVL45:
 476 005a F1E7     		b	.L34
 477              	.LVL46:
 478              	.L38:
 479              	.LBE147:
 480              	.LBE148:
 481              		.loc 1 171 0
 482 005c FFF7FEFF 		bl	__stack_chk_fail
 483              	.LVL47:
 484              	.L40:
 485              		.align	2
 486              	.L39:
 487 0060 00000000 		.word	__stack_chk_guard
 488 0064 00000000 		.word	ch
 489 0068 00000000 		.word	.LANCHOR1
 490              		.cfi_endproc
 491              	.LFE221:
 492              		.size	chEvtGetAndClearEvents, .-chEvtGetAndClearEvents
 493              		.section	.text.chEvtAddEvents,"ax",%progbits
 494              		.align	1
 495              		.p2align 4,,15
 496              		.global	chEvtAddEvents
 497              		.syntax unified
 498              		.thumb
 499              		.thumb_func
 500              		.fpu fpv4-sp-d16
 501              		.type	chEvtAddEvents, %function
 502              	chEvtAddEvents:
 503              	.LFB222:
 504              		.loc 1 182 0
 505              		.cfi_startproc
 506              		@ args = 0, pretend = 0, frame = 8
 507              		@ frame_needed = 0, uses_anonymous_args = 0
 508              	.LVL48:
 509 0000 70B5     		push	{r4, r5, r6, lr}
 510              		.cfi_def_cfa_offset 16
 511              		.cfi_offset 4, -16
 512              		.cfi_offset 5, -12
 513              		.cfi_offset 6, -8
ARM GAS  C:\Users\mathi\AppData\Local\Temp\ccDXreIU.s 			page 10


 514              		.cfi_offset 14, -4
 515 0002 164E     		ldr	r6, .L47
 516 0004 82B0     		sub	sp, sp, #8
 517              		.cfi_def_cfa_offset 24
 518              		.loc 1 182 0
 519 0006 3368     		ldr	r3, [r6]
 520 0008 0193     		str	r3, [sp, #4]
 521              	.LVL49:
 522 000a 0446     		mov	r4, r0
 523              	.LBB159:
 524              	.LBB160:
 525              	.LBB161:
 526              	.LBB162:
 527              	.LBB163:
 528              		.loc 2 546 0
 529 000c 2023     		movs	r3, #32
 530              		.syntax unified
 531              	@ 546 "../../lib/e-puck2_main-processor/ChibiOS//os/ext/CMSIS/include/core_cmFunc.h" 1
 532 000e 83F31188 		MSR basepri, r3
 533              	@ 0 "" 2
 534              	.LVL50:
 535              		.thumb
 536              		.syntax unified
 537              	.LBE163:
 538              	.LBE162:
 539              	.LBE161:
 540              	.LBE160:
 541              	.LBE159:
 542              		.loc 1 185 0
 543 0012 134D     		ldr	r5, .L47+4
 544              	.LBB165:
 545              	.LBB164:
 546              		.loc 3 349 0
 547 0014 FFF7FEFF 		bl	_stats_start_measure_crit_thd
 548              	.LVL51:
 549              		.loc 3 350 0
 550 0018 FFF7FEFF 		bl	_dbg_check_lock
 551              	.LVL52:
 552              	.LBE164:
 553              	.LBE165:
 554              		.loc 1 185 0
 555 001c AB69     		ldr	r3, [r5, #24]
 556 001e D86B     		ldr	r0, [r3, #60]
 557 0020 0443     		orrs	r4, r4, r0
 558              	.LVL53:
 559 0022 DC63     		str	r4, [r3, #60]
 560              	.LVL54:
 561              	.LBB166:
 562              	.LBB167:
 563              		.loc 3 360 0
 564 0024 FFF7FEFF 		bl	_dbg_check_unlock
 565              	.LVL55:
 566              		.loc 3 361 0
 567 0028 FFF7FEFF 		bl	_stats_stop_measure_crit_thd
 568              	.LVL56:
 569              		.loc 3 367 0
 570 002c 2B68     		ldr	r3, [r5]
ARM GAS  C:\Users\mathi\AppData\Local\Temp\ccDXreIU.s 			page 11


 571 002e AB42     		cmp	r3, r5
 572 0030 04D0     		beq	.L42
 573 0032 AA69     		ldr	r2, [r5, #24]
 574 0034 9B68     		ldr	r3, [r3, #8]
 575 0036 9268     		ldr	r2, [r2, #8]
 576 0038 9A42     		cmp	r2, r3
 577 003a 09D3     		bcc	.L45
 578              	.L42:
 579              	.LVL57:
 580              	.LBB168:
 581              	.LBB169:
 582              	.LBB170:
 583              		.loc 2 546 0
 584 003c 0023     		movs	r3, #0
 585              		.syntax unified
 586              	@ 546 "../../lib/e-puck2_main-processor/ChibiOS//os/ext/CMSIS/include/core_cmFunc.h" 1
 587 003e 83F31188 		MSR basepri, r3
 588              	@ 0 "" 2
 589              	.LVL58:
 590              		.thumb
 591              		.syntax unified
 592              	.LBE170:
 593              	.LBE169:
 594              	.LBE168:
 595              	.LBE167:
 596              	.LBE166:
 597              		.loc 1 190 0
 598 0042 019A     		ldr	r2, [sp, #4]
 599 0044 3368     		ldr	r3, [r6]
 600 0046 9A42     		cmp	r2, r3
 601 0048 2046     		mov	r0, r4
 602 004a 05D1     		bne	.L46
 603              	.LVL59:
 604 004c 02B0     		add	sp, sp, #8
 605              		.cfi_remember_state
 606              		.cfi_def_cfa_offset 16
 607              		@ sp needed
 608 004e 70BD     		pop	{r4, r5, r6, pc}
 609              	.LVL60:
 610              	.L45:
 611              		.cfi_restore_state
 612              	.LBB172:
 613              	.LBB171:
 614              		.loc 3 367 0
 615 0050 0448     		ldr	r0, .L47+8
 616 0052 FFF7FEFF 		bl	chSysHalt
 617              	.LVL61:
 618 0056 F1E7     		b	.L42
 619              	.LVL62:
 620              	.L46:
 621              	.LBE171:
 622              	.LBE172:
 623              		.loc 1 190 0
 624 0058 FFF7FEFF 		bl	__stack_chk_fail
 625              	.LVL63:
 626              	.L48:
 627              		.align	2
ARM GAS  C:\Users\mathi\AppData\Local\Temp\ccDXreIU.s 			page 12


 628              	.L47:
 629 005c 00000000 		.word	__stack_chk_guard
 630 0060 00000000 		.word	ch
 631 0064 00000000 		.word	.LANCHOR1
 632              		.cfi_endproc
 633              	.LFE222:
 634              		.size	chEvtAddEvents, .-chEvtAddEvents
 635              		.section	.text.chEvtBroadcastFlagsI,"ax",%progbits
 636              		.align	1
 637              		.p2align 4,,15
 638              		.global	chEvtBroadcastFlagsI
 639              		.syntax unified
 640              		.thumb
 641              		.thumb_func
 642              		.fpu fpv4-sp-d16
 643              		.type	chEvtBroadcastFlagsI, %function
 644              	chEvtBroadcastFlagsI:
 645              	.LFB223:
 646              		.loc 1 209 0
 647              		.cfi_startproc
 648              		@ args = 0, pretend = 0, frame = 8
 649              		@ frame_needed = 0, uses_anonymous_args = 0
 650              	.LVL64:
 651 0000 2DE9F04F 		push	{r4, r5, r6, r7, r8, r9, r10, fp, lr}
 652              		.cfi_def_cfa_offset 36
 653              		.cfi_offset 4, -36
 654              		.cfi_offset 5, -32
 655              		.cfi_offset 6, -28
 656              		.cfi_offset 7, -24
 657              		.cfi_offset 8, -20
 658              		.cfi_offset 9, -16
 659              		.cfi_offset 10, -12
 660              		.cfi_offset 11, -8
 661              		.cfi_offset 14, -4
 662 0004 3F4F     		ldr	r7, .L80
 663 0006 83B0     		sub	sp, sp, #12
 664              		.cfi_def_cfa_offset 48
 665              		.loc 1 209 0
 666 0008 0546     		mov	r5, r0
 667 000a 3B68     		ldr	r3, [r7]
 668 000c 0193     		str	r3, [sp, #4]
 669 000e 0E46     		mov	r6, r1
 670              		.loc 1 212 0
 671 0010 FFF7FEFF 		bl	chDbgCheckClassI
 672              	.LVL65:
 673              		.loc 1 213 0
 674 0014 002D     		cmp	r5, #0
 675 0016 6FD0     		beq	.L74
 676              	.L50:
 677              		.loc 1 215 0
 678 0018 2C68     		ldr	r4, [r5]
 679              	.LVL66:
 680              		.loc 1 217 0
 681 001a A542     		cmp	r5, r4
 682 001c 2ED0     		beq	.L49
 683 001e 002E     		cmp	r6, #0
 684 0020 42D0     		beq	.L66
ARM GAS  C:\Users\mathi\AppData\Local\Temp\ccDXreIU.s 			page 13


 685              	.LBB175:
 686              	.LBB176:
 687              		.loc 1 285 0
 688 0022 DFF8E890 		ldr	r9, .L80+8
 689              		.loc 1 293 0
 690 0026 4FF00008 		mov	r8, #0
 691 002a 04E0     		b	.L60
 692              	.LVL67:
 693              	.L72:
 694              		.loc 1 290 0
 695 002c 0B2A     		cmp	r2, #11
 696 002e 2CD0     		beq	.L75
 697              	.LVL68:
 698              	.L57:
 699              	.LBE176:
 700              	.LBE175:
 701              		.loc 1 226 0
 702 0030 2468     		ldr	r4, [r4]
 703              	.LVL69:
 704              		.loc 1 217 0
 705 0032 A542     		cmp	r5, r4
 706 0034 22D0     		beq	.L49
 707              	.L60:
 708              		.loc 1 223 0
 709 0036 D4E90332 		ldrd	r3, r2, [r4, #12]
 710              		.loc 1 219 0
 711 003a 3343     		orrs	r3, r3, r6
 712              		.loc 1 222 0
 713 003c 1342     		tst	r3, r2
 714              		.loc 1 219 0
 715 003e E360     		str	r3, [r4, #12]
 716              		.loc 1 222 0
 717 0040 F6D0     		beq	.L57
 718              		.loc 1 224 0
 719 0042 D4E901AB 		ldrd	r10, fp, [r4, #4]
 720              	.LVL70:
 721              	.LBB180:
 722              	.LBB177:
 723              		.loc 1 284 0
 724 0046 FFF7FEFF 		bl	chDbgCheckClassI
 725              	.LVL71:
 726              		.loc 1 285 0
 727 004a BAF1000F 		cmp	r10, #0
 728 004e 27D0     		beq	.L54
 729              	.L59:
 730              		.loc 1 287 0
 731 0050 DAF83C30 		ldr	r3, [r10, #60]
 732              		.loc 1 289 0
 733 0054 9AF82020 		ldrb	r2, [r10, #32]	@ zero_extendqisi2
 734              		.loc 1 287 0
 735 0058 4BEA0303 		orr	r3, fp, r3
 736              		.loc 1 289 0
 737 005c 0A2A     		cmp	r2, #10
 738              		.loc 1 287 0
 739 005e CAF83C30 		str	r3, [r10, #60]
 740              		.loc 1 289 0
 741 0062 E3D1     		bne	.L72
ARM GAS  C:\Users\mathi\AppData\Local\Temp\ccDXreIU.s 			page 14


 742              		.loc 1 290 0
 743 0064 DAF82820 		ldr	r2, [r10, #40]
 744              		.loc 1 289 0
 745 0068 1342     		tst	r3, r2
 746 006a E1D0     		beq	.L57
 747              		.loc 1 293 0
 748 006c CAF82880 		str	r8, [r10, #40]
 749              		.loc 1 294 0
 750 0070 5046     		mov	r0, r10
 751 0072 FFF7FEFF 		bl	chSchReadyI
 752              	.LVL72:
 753              	.L77:
 754              	.LBE177:
 755              	.LBE180:
 756              		.loc 1 226 0
 757 0076 2468     		ldr	r4, [r4]
 758              	.LVL73:
 759              		.loc 1 217 0
 760 0078 A542     		cmp	r5, r4
 761 007a DCD1     		bne	.L60
 762              	.LVL74:
 763              	.L49:
 764              		.loc 1 228 0
 765 007c 019A     		ldr	r2, [sp, #4]
 766 007e 3B68     		ldr	r3, [r7]
 767 0080 9A42     		cmp	r2, r3
 768 0082 3DD1     		bne	.L76
 769 0084 03B0     		add	sp, sp, #12
 770              		.cfi_remember_state
 771              		.cfi_def_cfa_offset 36
 772              		@ sp needed
 773 0086 BDE8F08F 		pop	{r4, r5, r6, r7, r8, r9, r10, fp, pc}
 774              	.LVL75:
 775              	.L75:
 776              		.cfi_restore_state
 777              	.LBB181:
 778              	.LBB178:
 779              		.loc 1 292 0
 780 008a DAF82820 		ldr	r2, [r10, #40]
 781              		.loc 1 291 0
 782 008e 32EA0303 		bics	r3, r2, r3
 783 0092 CDD1     		bne	.L57
 784              		.loc 1 293 0
 785 0094 CAF82880 		str	r8, [r10, #40]
 786              		.loc 1 294 0
 787 0098 5046     		mov	r0, r10
 788 009a FFF7FEFF 		bl	chSchReadyI
 789              	.LVL76:
 790 009e EAE7     		b	.L77
 791              	.L54:
 792              		.loc 1 285 0
 793 00a0 4846     		mov	r0, r9
 794 00a2 FFF7FEFF 		bl	chSysHalt
 795              	.LVL77:
 796 00a6 D3E7     		b	.L59
 797              	.LVL78:
 798              	.L66:
ARM GAS  C:\Users\mathi\AppData\Local\Temp\ccDXreIU.s 			page 15


 799              		.loc 1 293 0
 800 00a8 B146     		mov	r9, r6
 801              		.loc 1 285 0
 802 00aa DFF860A0 		ldr	r10, .L80+8
 803 00ae 04E0     		b	.L52
 804              	.LVL79:
 805              	.L62:
 806              		.loc 1 290 0
 807 00b0 0B2A     		cmp	r2, #11
 808 00b2 18D0     		beq	.L78
 809              	.L64:
 810              	.LBE178:
 811              	.LBE181:
 812              		.loc 1 226 0
 813 00b4 2468     		ldr	r4, [r4]
 814              	.LVL80:
 815              		.loc 1 217 0
 816 00b6 A542     		cmp	r5, r4
 817 00b8 E0D0     		beq	.L49
 818              	.LVL81:
 819              	.L52:
 820              		.loc 1 224 0
 821 00ba D4E90168 		ldrd	r6, r8, [r4, #4]
 822              	.LVL82:
 823              	.LBB182:
 824              	.LBB179:
 825              		.loc 1 284 0
 826 00be FFF7FEFF 		bl	chDbgCheckClassI
 827              	.LVL83:
 828              		.loc 1 285 0
 829 00c2 AEB1     		cbz	r6, .L79
 830              	.L61:
 831              		.loc 1 287 0
 832 00c4 F36B     		ldr	r3, [r6, #60]
 833              		.loc 1 289 0
 834 00c6 96F82020 		ldrb	r2, [r6, #32]	@ zero_extendqisi2
 835              		.loc 1 287 0
 836 00ca 48EA0303 		orr	r3, r8, r3
 837              		.loc 1 289 0
 838 00ce 0A2A     		cmp	r2, #10
 839              		.loc 1 287 0
 840 00d0 F363     		str	r3, [r6, #60]
 841              		.loc 1 289 0
 842 00d2 EDD1     		bne	.L62
 843              		.loc 1 290 0
 844 00d4 B26A     		ldr	r2, [r6, #40]
 845              		.loc 1 289 0
 846 00d6 1342     		tst	r3, r2
 847 00d8 ECD0     		beq	.L64
 848              	.L63:
 849              		.loc 1 293 0
 850 00da C6F82890 		str	r9, [r6, #40]
 851              		.loc 1 294 0
 852 00de 3046     		mov	r0, r6
 853 00e0 FFF7FEFF 		bl	chSchReadyI
 854              	.LVL84:
 855 00e4 E6E7     		b	.L64
ARM GAS  C:\Users\mathi\AppData\Local\Temp\ccDXreIU.s 			page 16


 856              	.L78:
 857              		.loc 1 292 0
 858 00e6 B26A     		ldr	r2, [r6, #40]
 859              		.loc 1 291 0
 860 00e8 32EA0303 		bics	r3, r2, r3
 861 00ec E2D1     		bne	.L64
 862 00ee F4E7     		b	.L63
 863              	.L79:
 864              		.loc 1 285 0
 865 00f0 5046     		mov	r0, r10
 866 00f2 FFF7FEFF 		bl	chSysHalt
 867              	.LVL85:
 868 00f6 E5E7     		b	.L61
 869              	.LVL86:
 870              	.L74:
 871              	.LBE179:
 872              	.LBE182:
 873              		.loc 1 213 0 discriminator 2
 874 00f8 0348     		ldr	r0, .L80+4
 875 00fa FFF7FEFF 		bl	chSysHalt
 876              	.LVL87:
 877 00fe 8BE7     		b	.L50
 878              	.LVL88:
 879              	.L76:
 880              		.loc 1 228 0
 881 0100 FFF7FEFF 		bl	__stack_chk_fail
 882              	.LVL89:
 883              	.L81:
 884              		.align	2
 885              	.L80:
 886 0104 00000000 		.word	__stack_chk_guard
 887 0108 00000000 		.word	.LANCHOR3
 888 010c 00000000 		.word	.LANCHOR4
 889              		.cfi_endproc
 890              	.LFE223:
 891              		.size	chEvtBroadcastFlagsI, .-chEvtBroadcastFlagsI
 892              		.section	.text.chEvtGetAndClearFlags,"ax",%progbits
 893              		.align	1
 894              		.p2align 4,,15
 895              		.global	chEvtGetAndClearFlags
 896              		.syntax unified
 897              		.thumb
 898              		.thumb_func
 899              		.fpu fpv4-sp-d16
 900              		.type	chEvtGetAndClearFlags, %function
 901              	chEvtGetAndClearFlags:
 902              	.LFB224:
 903              		.loc 1 241 0
 904              		.cfi_startproc
 905              		@ args = 0, pretend = 0, frame = 8
 906              		@ frame_needed = 0, uses_anonymous_args = 0
 907              	.LVL90:
 908 0000 70B5     		push	{r4, r5, r6, lr}
 909              		.cfi_def_cfa_offset 16
 910              		.cfi_offset 4, -16
 911              		.cfi_offset 5, -12
 912              		.cfi_offset 6, -8
ARM GAS  C:\Users\mathi\AppData\Local\Temp\ccDXreIU.s 			page 17


 913              		.cfi_offset 14, -4
 914 0002 164C     		ldr	r4, .L88
 915 0004 82B0     		sub	sp, sp, #8
 916              		.cfi_def_cfa_offset 24
 917              		.loc 1 241 0
 918 0006 2368     		ldr	r3, [r4]
 919 0008 0193     		str	r3, [sp, #4]
 920              	.LVL91:
 921 000a 0546     		mov	r5, r0
 922              	.LBB193:
 923              	.LBB194:
 924              	.LBB195:
 925              	.LBB196:
 926              	.LBB197:
 927              		.loc 2 546 0
 928 000c 2023     		movs	r3, #32
 929              		.syntax unified
 930              	@ 546 "../../lib/e-puck2_main-processor/ChibiOS//os/ext/CMSIS/include/core_cmFunc.h" 1
 931 000e 83F31188 		MSR basepri, r3
 932              	@ 0 "" 2
 933              	.LVL92:
 934              		.thumb
 935              		.syntax unified
 936              	.LBE197:
 937              	.LBE196:
 938              	.LBE195:
 939              		.loc 3 349 0
 940 0012 FFF7FEFF 		bl	_stats_start_measure_crit_thd
 941              	.LVL93:
 942              		.loc 3 350 0
 943 0016 FFF7FEFF 		bl	_dbg_check_lock
 944              	.LVL94:
 945              	.LBE194:
 946              	.LBE193:
 947              		.loc 1 246 0
 948 001a 0023     		movs	r3, #0
 949              		.loc 1 245 0
 950 001c EE68     		ldr	r6, [r5, #12]
 951              	.LVL95:
 952              		.loc 1 246 0
 953 001e EB60     		str	r3, [r5, #12]
 954              	.LBB198:
 955              	.LBB199:
 956              		.loc 3 360 0
 957 0020 FFF7FEFF 		bl	_dbg_check_unlock
 958              	.LVL96:
 959              		.loc 3 361 0
 960 0024 FFF7FEFF 		bl	_stats_stop_measure_crit_thd
 961              	.LVL97:
 962              		.loc 3 367 0
 963 0028 0D4B     		ldr	r3, .L88+4
 964 002a 1A68     		ldr	r2, [r3]
 965 002c 9A42     		cmp	r2, r3
 966 002e 04D0     		beq	.L83
 967 0030 9969     		ldr	r1, [r3, #24]
 968 0032 9368     		ldr	r3, [r2, #8]
 969 0034 8A68     		ldr	r2, [r1, #8]
ARM GAS  C:\Users\mathi\AppData\Local\Temp\ccDXreIU.s 			page 18


 970 0036 9A42     		cmp	r2, r3
 971 0038 09D3     		bcc	.L86
 972              	.L83:
 973              	.LVL98:
 974              	.LBB200:
 975              	.LBB201:
 976              	.LBB202:
 977              		.loc 2 546 0
 978 003a 0023     		movs	r3, #0
 979              		.syntax unified
 980              	@ 546 "../../lib/e-puck2_main-processor/ChibiOS//os/ext/CMSIS/include/core_cmFunc.h" 1
 981 003c 83F31188 		MSR basepri, r3
 982              	@ 0 "" 2
 983              	.LVL99:
 984              		.thumb
 985              		.syntax unified
 986              	.LBE202:
 987              	.LBE201:
 988              	.LBE200:
 989              	.LBE199:
 990              	.LBE198:
 991              		.loc 1 250 0
 992 0040 019A     		ldr	r2, [sp, #4]
 993 0042 2368     		ldr	r3, [r4]
 994 0044 9A42     		cmp	r2, r3
 995 0046 3046     		mov	r0, r6
 996 0048 05D1     		bne	.L87
 997              	.LVL100:
 998 004a 02B0     		add	sp, sp, #8
 999              		.cfi_remember_state
 1000              		.cfi_def_cfa_offset 16
 1001              		@ sp needed
 1002 004c 70BD     		pop	{r4, r5, r6, pc}
 1003              	.LVL101:
 1004              	.L86:
 1005              		.cfi_restore_state
 1006              	.LBB204:
 1007              	.LBB203:
 1008              		.loc 3 367 0
 1009 004e 0548     		ldr	r0, .L88+8
 1010 0050 FFF7FEFF 		bl	chSysHalt
 1011              	.LVL102:
 1012 0054 F1E7     		b	.L83
 1013              	.LVL103:
 1014              	.L87:
 1015              	.LBE203:
 1016              	.LBE204:
 1017              		.loc 1 250 0
 1018 0056 FFF7FEFF 		bl	__stack_chk_fail
 1019              	.LVL104:
 1020              	.L89:
 1021 005a 00BF     		.align	2
 1022              	.L88:
 1023 005c 00000000 		.word	__stack_chk_guard
 1024 0060 00000000 		.word	ch
 1025 0064 00000000 		.word	.LANCHOR1
 1026              		.cfi_endproc
ARM GAS  C:\Users\mathi\AppData\Local\Temp\ccDXreIU.s 			page 19


 1027              	.LFE224:
 1028              		.size	chEvtGetAndClearFlags, .-chEvtGetAndClearFlags
 1029              		.section	.text.chEvtSignal,"ax",%progbits
 1030              		.align	1
 1031              		.p2align 4,,15
 1032              		.global	chEvtSignal
 1033              		.syntax unified
 1034              		.thumb
 1035              		.thumb_func
 1036              		.fpu fpv4-sp-d16
 1037              		.type	chEvtSignal, %function
 1038              	chEvtSignal:
 1039              	.LFB225:
 1040              		.loc 1 260 0
 1041              		.cfi_startproc
 1042              		@ args = 0, pretend = 0, frame = 8
 1043              		@ frame_needed = 0, uses_anonymous_args = 0
 1044              	.LVL105:
 1045 0000 70B5     		push	{r4, r5, r6, lr}
 1046              		.cfi_def_cfa_offset 16
 1047              		.cfi_offset 4, -16
 1048              		.cfi_offset 5, -12
 1049              		.cfi_offset 6, -8
 1050              		.cfi_offset 14, -4
 1051 0002 2A4E     		ldr	r6, .L106
 1052 0004 82B0     		sub	sp, sp, #8
 1053              		.cfi_def_cfa_offset 24
 1054              		.loc 1 260 0
 1055 0006 3368     		ldr	r3, [r6]
 1056 0008 0193     		str	r3, [sp, #4]
 1057 000a 0D46     		mov	r5, r1
 1058              		.loc 1 262 0
 1059 000c 0446     		mov	r4, r0
 1060 000e 0028     		cmp	r0, #0
 1061 0010 41D0     		beq	.L100
 1062              	.LVL106:
 1063              	.L91:
 1064              	.LBB217:
 1065              	.LBB218:
 1066              	.LBB219:
 1067              	.LBB220:
 1068              	.LBB221:
 1069              		.loc 2 546 0
 1070 0012 2023     		movs	r3, #32
 1071              		.syntax unified
 1072              	@ 546 "../../lib/e-puck2_main-processor/ChibiOS//os/ext/CMSIS/include/core_cmFunc.h" 1
 1073 0014 83F31188 		MSR basepri, r3
 1074              	@ 0 "" 2
 1075              	.LVL107:
 1076              		.thumb
 1077              		.syntax unified
 1078              	.LBE221:
 1079              	.LBE220:
 1080              	.LBE219:
 1081              		.loc 3 349 0
 1082 0018 FFF7FEFF 		bl	_stats_start_measure_crit_thd
 1083              	.LVL108:
ARM GAS  C:\Users\mathi\AppData\Local\Temp\ccDXreIU.s 			page 20


 1084              		.loc 3 350 0
 1085 001c FFF7FEFF 		bl	_dbg_check_lock
 1086              	.LVL109:
 1087              	.LBE218:
 1088              	.LBE217:
 1089              	.LBB222:
 1090              	.LBB223:
 1091              		.loc 1 284 0
 1092 0020 FFF7FEFF 		bl	chDbgCheckClassI
 1093              	.LVL110:
 1094              		.loc 1 285 0
 1095 0024 002C     		cmp	r4, #0
 1096 0026 3AD0     		beq	.L101
 1097              	.L92:
 1098              		.loc 1 287 0
 1099 0028 E16B     		ldr	r1, [r4, #60]
 1100              		.loc 1 289 0
 1101 002a 94F82030 		ldrb	r3, [r4, #32]	@ zero_extendqisi2
 1102              		.loc 1 287 0
 1103 002e 2943     		orrs	r1, r1, r5
 1104              		.loc 1 289 0
 1105 0030 0A2B     		cmp	r3, #10
 1106              		.loc 1 287 0
 1107 0032 E163     		str	r1, [r4, #60]
 1108              		.loc 1 289 0
 1109 0034 26D0     		beq	.L102
 1110              		.loc 1 290 0
 1111 0036 0B2B     		cmp	r3, #11
 1112 0038 17D0     		beq	.L103
 1113              	.L95:
 1114              	.LVL111:
 1115              	.LBE223:
 1116              	.LBE222:
 1117              		.loc 1 266 0
 1118 003a FFF7FEFF 		bl	chSchRescheduleS
 1119              	.LVL112:
 1120              	.LBB227:
 1121              	.LBB228:
 1122              		.loc 3 360 0
 1123 003e FFF7FEFF 		bl	_dbg_check_unlock
 1124              	.LVL113:
 1125              		.loc 3 361 0
 1126 0042 FFF7FEFF 		bl	_stats_stop_measure_crit_thd
 1127              	.LVL114:
 1128              		.loc 3 367 0
 1129 0046 1A4B     		ldr	r3, .L106+4
 1130 0048 1A68     		ldr	r2, [r3]
 1131 004a 9A42     		cmp	r2, r3
 1132 004c 04D0     		beq	.L96
 1133 004e 9969     		ldr	r1, [r3, #24]
 1134 0050 9368     		ldr	r3, [r2, #8]
 1135 0052 8A68     		ldr	r2, [r1, #8]
 1136 0054 9A42     		cmp	r2, r3
 1137 0056 11D3     		bcc	.L104
 1138              	.L96:
 1139              	.LVL115:
 1140              	.LBB229:
ARM GAS  C:\Users\mathi\AppData\Local\Temp\ccDXreIU.s 			page 21


 1141              	.LBB230:
 1142              	.LBB231:
 1143              		.loc 2 546 0
 1144 0058 0023     		movs	r3, #0
 1145              		.syntax unified
 1146              	@ 546 "../../lib/e-puck2_main-processor/ChibiOS//os/ext/CMSIS/include/core_cmFunc.h" 1
 1147 005a 83F31188 		MSR basepri, r3
 1148              	@ 0 "" 2
 1149              	.LVL116:
 1150              		.thumb
 1151              		.syntax unified
 1152              	.LBE231:
 1153              	.LBE230:
 1154              	.LBE229:
 1155              	.LBE228:
 1156              	.LBE227:
 1157              		.loc 1 268 0
 1158 005e 019A     		ldr	r2, [sp, #4]
 1159 0060 3368     		ldr	r3, [r6]
 1160 0062 9A42     		cmp	r2, r3
 1161 0064 1FD1     		bne	.L105
 1162 0066 02B0     		add	sp, sp, #8
 1163              		.cfi_remember_state
 1164              		.cfi_def_cfa_offset 16
 1165              		@ sp needed
 1166 0068 70BD     		pop	{r4, r5, r6, pc}
 1167              	.LVL117:
 1168              	.L103:
 1169              		.cfi_restore_state
 1170              	.LBB233:
 1171              	.LBB224:
 1172              		.loc 1 292 0
 1173 006a A36A     		ldr	r3, [r4, #40]
 1174              		.loc 1 291 0
 1175 006c 8B43     		bics	r3, r3, r1
 1176 006e E4D1     		bne	.L95
 1177              		.loc 1 293 0
 1178 0070 0023     		movs	r3, #0
 1179 0072 A362     		str	r3, [r4, #40]
 1180              		.loc 1 294 0
 1181 0074 2046     		mov	r0, r4
 1182 0076 FFF7FEFF 		bl	chSchReadyI
 1183              	.LVL118:
 1184 007a DEE7     		b	.L95
 1185              	.LVL119:
 1186              	.L104:
 1187              	.LBE224:
 1188              	.LBE233:
 1189              	.LBB234:
 1190              	.LBB232:
 1191              		.loc 3 367 0
 1192 007c 0D48     		ldr	r0, .L106+8
 1193 007e FFF7FEFF 		bl	chSysHalt
 1194              	.LVL120:
 1195 0082 E9E7     		b	.L96
 1196              	.LVL121:
 1197              	.L102:
ARM GAS  C:\Users\mathi\AppData\Local\Temp\ccDXreIU.s 			page 22


 1198              	.LBE232:
 1199              	.LBE234:
 1200              	.LBB235:
 1201              	.LBB225:
 1202              		.loc 1 290 0
 1203 0084 A36A     		ldr	r3, [r4, #40]
 1204              		.loc 1 289 0
 1205 0086 1942     		tst	r1, r3
 1206 0088 D7D0     		beq	.L95
 1207              		.loc 1 293 0
 1208 008a 0023     		movs	r3, #0
 1209 008c A362     		str	r3, [r4, #40]
 1210              		.loc 1 294 0
 1211 008e 2046     		mov	r0, r4
 1212 0090 FFF7FEFF 		bl	chSchReadyI
 1213              	.LVL122:
 1214 0094 D1E7     		b	.L95
 1215              	.LVL123:
 1216              	.L100:
 1217              	.LBE225:
 1218              	.LBE235:
 1219              		.loc 1 262 0 discriminator 2
 1220 0096 0848     		ldr	r0, .L106+12
 1221              	.LVL124:
 1222 0098 FFF7FEFF 		bl	chSysHalt
 1223              	.LVL125:
 1224 009c B9E7     		b	.L91
 1225              	.LVL126:
 1226              	.L101:
 1227              	.LBB236:
 1228              	.LBB226:
 1229              		.loc 1 285 0
 1230 009e 0748     		ldr	r0, .L106+16
 1231 00a0 FFF7FEFF 		bl	chSysHalt
 1232              	.LVL127:
 1233 00a4 C0E7     		b	.L92
 1234              	.LVL128:
 1235              	.L105:
 1236              	.LBE226:
 1237              	.LBE236:
 1238              		.loc 1 268 0
 1239 00a6 FFF7FEFF 		bl	__stack_chk_fail
 1240              	.LVL129:
 1241              	.L107:
 1242 00aa 00BF     		.align	2
 1243              	.L106:
 1244 00ac 00000000 		.word	__stack_chk_guard
 1245 00b0 00000000 		.word	ch
 1246 00b4 00000000 		.word	.LANCHOR1
 1247 00b8 00000000 		.word	.LANCHOR5
 1248 00bc 00000000 		.word	.LANCHOR4
 1249              		.cfi_endproc
 1250              	.LFE225:
 1251              		.size	chEvtSignal, .-chEvtSignal
 1252              		.section	.text.chEvtSignalI,"ax",%progbits
 1253              		.align	1
 1254              		.p2align 4,,15
ARM GAS  C:\Users\mathi\AppData\Local\Temp\ccDXreIU.s 			page 23


 1255              		.global	chEvtSignalI
 1256              		.syntax unified
 1257              		.thumb
 1258              		.thumb_func
 1259              		.fpu fpv4-sp-d16
 1260              		.type	chEvtSignalI, %function
 1261              	chEvtSignalI:
 1262              	.LFB226:
 1263              		.loc 1 282 0
 1264              		.cfi_startproc
 1265              		@ args = 0, pretend = 0, frame = 8
 1266              		@ frame_needed = 0, uses_anonymous_args = 0
 1267              	.LVL130:
 1268 0000 70B5     		push	{r4, r5, r6, lr}
 1269              		.cfi_def_cfa_offset 16
 1270              		.cfi_offset 4, -16
 1271              		.cfi_offset 5, -12
 1272              		.cfi_offset 6, -8
 1273              		.cfi_offset 14, -4
 1274 0002 184E     		ldr	r6, .L120
 1275 0004 82B0     		sub	sp, sp, #8
 1276              		.cfi_def_cfa_offset 24
 1277              		.loc 1 282 0
 1278 0006 0446     		mov	r4, r0
 1279 0008 3368     		ldr	r3, [r6]
 1280 000a 0193     		str	r3, [sp, #4]
 1281 000c 0D46     		mov	r5, r1
 1282              		.loc 1 284 0
 1283 000e FFF7FEFF 		bl	chDbgCheckClassI
 1284              	.LVL131:
 1285              		.loc 1 285 0
 1286 0012 0CB3     		cbz	r4, .L117
 1287              	.L109:
 1288              		.loc 1 287 0
 1289 0014 E16B     		ldr	r1, [r4, #60]
 1290              		.loc 1 289 0
 1291 0016 94F82030 		ldrb	r3, [r4, #32]	@ zero_extendqisi2
 1292              		.loc 1 287 0
 1293 001a 2943     		orrs	r1, r1, r5
 1294              		.loc 1 289 0
 1295 001c 0A2B     		cmp	r3, #10
 1296              		.loc 1 287 0
 1297 001e E163     		str	r1, [r4, #60]
 1298              		.loc 1 289 0
 1299 0020 16D0     		beq	.L118
 1300              		.loc 1 290 0
 1301 0022 0B2B     		cmp	r3, #11
 1302 0024 05D0     		beq	.L119
 1303              	.L108:
 1304              		.loc 1 296 0
 1305 0026 019A     		ldr	r2, [sp, #4]
 1306 0028 3368     		ldr	r3, [r6]
 1307 002a 9A42     		cmp	r2, r3
 1308 002c 18D1     		bne	.L116
 1309 002e 02B0     		add	sp, sp, #8
 1310              		.cfi_remember_state
 1311              		.cfi_def_cfa_offset 16
ARM GAS  C:\Users\mathi\AppData\Local\Temp\ccDXreIU.s 			page 24


 1312              		@ sp needed
 1313 0030 70BD     		pop	{r4, r5, r6, pc}
 1314              	.LVL132:
 1315              	.L119:
 1316              		.cfi_restore_state
 1317              		.loc 1 292 0
 1318 0032 A36A     		ldr	r3, [r4, #40]
 1319              		.loc 1 291 0
 1320 0034 8B43     		bics	r3, r3, r1
 1321 0036 F6D1     		bne	.L108
 1322              	.L111:
 1323              		.loc 1 294 0
 1324 0038 019A     		ldr	r2, [sp, #4]
 1325 003a 3368     		ldr	r3, [r6]
 1326              		.loc 1 293 0
 1327 003c 0021     		movs	r1, #0
 1328              		.loc 1 294 0
 1329 003e 9A42     		cmp	r2, r3
 1330              		.loc 1 293 0
 1331 0040 A162     		str	r1, [r4, #40]
 1332              		.loc 1 294 0
 1333 0042 0DD1     		bne	.L116
 1334 0044 2046     		mov	r0, r4
 1335              		.loc 1 296 0
 1336 0046 02B0     		add	sp, sp, #8
 1337              		.cfi_remember_state
 1338              		.cfi_def_cfa_offset 16
 1339              		@ sp needed
 1340 0048 BDE87040 		pop	{r4, r5, r6, lr}
 1341              		.cfi_restore 14
 1342              		.cfi_restore 6
 1343              		.cfi_restore 5
 1344              		.cfi_restore 4
 1345              		.cfi_def_cfa_offset 0
 1346              	.LVL133:
 1347              		.loc 1 294 0
 1348 004c FFF7FEBF 		b	chSchReadyI
 1349              	.LVL134:
 1350              	.L118:
 1351              		.cfi_restore_state
 1352              		.loc 1 290 0 discriminator 1
 1353 0050 A36A     		ldr	r3, [r4, #40]
 1354              		.loc 1 289 0 discriminator 1
 1355 0052 1942     		tst	r1, r3
 1356 0054 F0D1     		bne	.L111
 1357 0056 E6E7     		b	.L108
 1358              	.L117:
 1359              		.loc 1 285 0 discriminator 2
 1360 0058 0348     		ldr	r0, .L120+4
 1361 005a FFF7FEFF 		bl	chSysHalt
 1362              	.LVL135:
 1363 005e D9E7     		b	.L109
 1364              	.L116:
 1365              		.loc 1 296 0
 1366 0060 FFF7FEFF 		bl	__stack_chk_fail
 1367              	.LVL136:
 1368              	.L121:
ARM GAS  C:\Users\mathi\AppData\Local\Temp\ccDXreIU.s 			page 25


 1369              		.align	2
 1370              	.L120:
 1371 0064 00000000 		.word	__stack_chk_guard
 1372 0068 00000000 		.word	.LANCHOR4
 1373              		.cfi_endproc
 1374              	.LFE226:
 1375              		.size	chEvtSignalI, .-chEvtSignalI
 1376              		.section	.text.chEvtBroadcastFlags,"ax",%progbits
 1377              		.align	1
 1378              		.p2align 4,,15
 1379              		.global	chEvtBroadcastFlags
 1380              		.syntax unified
 1381              		.thumb
 1382              		.thumb_func
 1383              		.fpu fpv4-sp-d16
 1384              		.type	chEvtBroadcastFlags, %function
 1385              	chEvtBroadcastFlags:
 1386              	.LFB227:
 1387              		.loc 1 311 0
 1388              		.cfi_startproc
 1389              		@ args = 0, pretend = 0, frame = 8
 1390              		@ frame_needed = 0, uses_anonymous_args = 0
 1391              	.LVL137:
 1392 0000 2DE9F04F 		push	{r4, r5, r6, r7, r8, r9, r10, fp, lr}
 1393              		.cfi_def_cfa_offset 36
 1394              		.cfi_offset 4, -36
 1395              		.cfi_offset 5, -32
 1396              		.cfi_offset 6, -28
 1397              		.cfi_offset 7, -24
 1398              		.cfi_offset 8, -20
 1399              		.cfi_offset 9, -16
 1400              		.cfi_offset 10, -12
 1401              		.cfi_offset 11, -8
 1402              		.cfi_offset 14, -4
 1403 0004 4E4F     		ldr	r7, .L155
 1404 0006 83B0     		sub	sp, sp, #12
 1405              		.cfi_def_cfa_offset 48
 1406              		.loc 1 311 0
 1407 0008 3B68     		ldr	r3, [r7]
 1408 000a 0193     		str	r3, [sp, #4]
 1409              	.LVL138:
 1410 000c 0546     		mov	r5, r0
 1411 000e 0E46     		mov	r6, r1
 1412              	.LBB251:
 1413              	.LBB252:
 1414              	.LBB253:
 1415              	.LBB254:
 1416              	.LBB255:
 1417              		.loc 2 546 0
 1418 0010 2023     		movs	r3, #32
 1419              		.syntax unified
 1420              	@ 546 "../../lib/e-puck2_main-processor/ChibiOS//os/ext/CMSIS/include/core_cmFunc.h" 1
 1421 0012 83F31188 		MSR basepri, r3
 1422              	@ 0 "" 2
 1423              	.LVL139:
 1424              		.thumb
 1425              		.syntax unified
ARM GAS  C:\Users\mathi\AppData\Local\Temp\ccDXreIU.s 			page 26


 1426              	.LBE255:
 1427              	.LBE254:
 1428              	.LBE253:
 1429              		.loc 3 349 0
 1430 0016 FFF7FEFF 		bl	_stats_start_measure_crit_thd
 1431              	.LVL140:
 1432              		.loc 3 350 0
 1433 001a FFF7FEFF 		bl	_dbg_check_lock
 1434              	.LVL141:
 1435              	.LBE252:
 1436              	.LBE251:
 1437              	.LBB256:
 1438              	.LBB257:
 1439              		.loc 1 212 0
 1440 001e FFF7FEFF 		bl	chDbgCheckClassI
 1441              	.LVL142:
 1442              		.loc 1 213 0
 1443 0022 002D     		cmp	r5, #0
 1444 0024 00F08680 		beq	.L148
 1445              	.L123:
 1446              		.loc 1 215 0
 1447 0028 2C68     		ldr	r4, [r5]
 1448              	.LVL143:
 1449              		.loc 1 217 0
 1450 002a A542     		cmp	r5, r4
 1451 002c 2ED0     		beq	.L124
 1452 002e 002E     		cmp	r6, #0
 1453 0030 58D0     		beq	.L140
 1454              	.LBB258:
 1455              	.LBB259:
 1456              		.loc 1 285 0
 1457 0032 DFF81C91 		ldr	r9, .L155+16
 1458              		.loc 1 293 0
 1459 0036 4FF00008 		mov	r8, #0
 1460 003a 04E0     		b	.L133
 1461              	.LVL144:
 1462              	.L146:
 1463              		.loc 1 290 0
 1464 003c 0B2A     		cmp	r2, #11
 1465 003e 3ED0     		beq	.L149
 1466              	.LVL145:
 1467              	.L130:
 1468              	.LBE259:
 1469              	.LBE258:
 1470              		.loc 1 226 0
 1471 0040 2468     		ldr	r4, [r4]
 1472              	.LVL146:
 1473              		.loc 1 217 0
 1474 0042 A542     		cmp	r5, r4
 1475 0044 22D0     		beq	.L124
 1476              	.L133:
 1477              		.loc 1 223 0
 1478 0046 D4E90332 		ldrd	r3, r2, [r4, #12]
 1479              		.loc 1 219 0
 1480 004a 3343     		orrs	r3, r3, r6
 1481              		.loc 1 222 0
 1482 004c 1342     		tst	r3, r2
ARM GAS  C:\Users\mathi\AppData\Local\Temp\ccDXreIU.s 			page 27


 1483              		.loc 1 219 0
 1484 004e E360     		str	r3, [r4, #12]
 1485              		.loc 1 222 0
 1486 0050 F6D0     		beq	.L130
 1487              		.loc 1 224 0
 1488 0052 D4E901AB 		ldrd	r10, fp, [r4, #4]
 1489              	.LVL147:
 1490              	.LBB264:
 1491              	.LBB260:
 1492              		.loc 1 284 0
 1493 0056 FFF7FEFF 		bl	chDbgCheckClassI
 1494              	.LVL148:
 1495              		.loc 1 285 0
 1496 005a BAF1000F 		cmp	r10, #0
 1497 005e 3DD0     		beq	.L127
 1498              	.L132:
 1499              		.loc 1 287 0
 1500 0060 DAF83C30 		ldr	r3, [r10, #60]
 1501              		.loc 1 289 0
 1502 0064 9AF82020 		ldrb	r2, [r10, #32]	@ zero_extendqisi2
 1503              		.loc 1 287 0
 1504 0068 4BEA0303 		orr	r3, fp, r3
 1505              		.loc 1 289 0
 1506 006c 0A2A     		cmp	r2, #10
 1507              		.loc 1 287 0
 1508 006e CAF83C30 		str	r3, [r10, #60]
 1509              		.loc 1 289 0
 1510 0072 E3D1     		bne	.L146
 1511              		.loc 1 290 0
 1512 0074 DAF82820 		ldr	r2, [r10, #40]
 1513              		.loc 1 289 0
 1514 0078 1342     		tst	r3, r2
 1515 007a E1D0     		beq	.L130
 1516              		.loc 1 293 0
 1517 007c CAF82880 		str	r8, [r10, #40]
 1518              		.loc 1 294 0
 1519 0080 5046     		mov	r0, r10
 1520 0082 FFF7FEFF 		bl	chSchReadyI
 1521              	.LVL149:
 1522              	.L152:
 1523              	.LBE260:
 1524              	.LBE264:
 1525              		.loc 1 226 0
 1526 0086 2468     		ldr	r4, [r4]
 1527              	.LVL150:
 1528              		.loc 1 217 0
 1529 0088 A542     		cmp	r5, r4
 1530 008a DCD1     		bne	.L133
 1531              	.LVL151:
 1532              	.L124:
 1533              	.LBE257:
 1534              	.LBE256:
 1535              		.loc 1 315 0
 1536 008c FFF7FEFF 		bl	chSchRescheduleS
 1537              	.LVL152:
 1538              	.LBB270:
 1539              	.LBB271:
ARM GAS  C:\Users\mathi\AppData\Local\Temp\ccDXreIU.s 			page 28


 1540              		.loc 3 360 0
 1541 0090 FFF7FEFF 		bl	_dbg_check_unlock
 1542              	.LVL153:
 1543              		.loc 3 361 0
 1544 0094 FFF7FEFF 		bl	_stats_stop_measure_crit_thd
 1545              	.LVL154:
 1546              		.loc 3 367 0
 1547 0098 2A4B     		ldr	r3, .L155+4
 1548 009a 1A68     		ldr	r2, [r3]
 1549 009c 9A42     		cmp	r2, r3
 1550 009e 04D0     		beq	.L138
 1551 00a0 9969     		ldr	r1, [r3, #24]
 1552 00a2 9368     		ldr	r3, [r2, #8]
 1553 00a4 8A68     		ldr	r2, [r1, #8]
 1554 00a6 9A42     		cmp	r2, r3
 1555 00a8 14D3     		bcc	.L150
 1556              	.L138:
 1557              	.LVL155:
 1558              	.LBB272:
 1559              	.LBB273:
 1560              	.LBB274:
 1561              		.loc 2 546 0
 1562 00aa 0023     		movs	r3, #0
 1563              		.syntax unified
 1564              	@ 546 "../../lib/e-puck2_main-processor/ChibiOS//os/ext/CMSIS/include/core_cmFunc.h" 1
 1565 00ac 83F31188 		MSR basepri, r3
 1566              	@ 0 "" 2
 1567              	.LVL156:
 1568              		.thumb
 1569              		.syntax unified
 1570              	.LBE274:
 1571              	.LBE273:
 1572              	.LBE272:
 1573              	.LBE271:
 1574              	.LBE270:
 1575              		.loc 1 317 0
 1576 00b0 019A     		ldr	r2, [sp, #4]
 1577 00b2 3B68     		ldr	r3, [r7]
 1578 00b4 9A42     		cmp	r2, r3
 1579 00b6 41D1     		bne	.L151
 1580 00b8 03B0     		add	sp, sp, #12
 1581              		.cfi_remember_state
 1582              		.cfi_def_cfa_offset 36
 1583              		@ sp needed
 1584 00ba BDE8F08F 		pop	{r4, r5, r6, r7, r8, r9, r10, fp, pc}
 1585              	.LVL157:
 1586              	.L149:
 1587              		.cfi_restore_state
 1588              	.LBB276:
 1589              	.LBB268:
 1590              	.LBB265:
 1591              	.LBB261:
 1592              		.loc 1 292 0
 1593 00be DAF82820 		ldr	r2, [r10, #40]
 1594              		.loc 1 291 0
 1595 00c2 32EA0303 		bics	r3, r2, r3
 1596 00c6 BBD1     		bne	.L130
ARM GAS  C:\Users\mathi\AppData\Local\Temp\ccDXreIU.s 			page 29


 1597              		.loc 1 293 0
 1598 00c8 CAF82880 		str	r8, [r10, #40]
 1599              		.loc 1 294 0
 1600 00cc 5046     		mov	r0, r10
 1601 00ce FFF7FEFF 		bl	chSchReadyI
 1602              	.LVL158:
 1603 00d2 D8E7     		b	.L152
 1604              	.LVL159:
 1605              	.L150:
 1606              	.LBE261:
 1607              	.LBE265:
 1608              	.LBE268:
 1609              	.LBE276:
 1610              	.LBB277:
 1611              	.LBB275:
 1612              		.loc 3 367 0
 1613 00d4 1C48     		ldr	r0, .L155+8
 1614 00d6 FFF7FEFF 		bl	chSysHalt
 1615              	.LVL160:
 1616 00da E6E7     		b	.L138
 1617              	.LVL161:
 1618              	.L127:
 1619              	.LBE275:
 1620              	.LBE277:
 1621              	.LBB278:
 1622              	.LBB269:
 1623              	.LBB266:
 1624              	.LBB262:
 1625              		.loc 1 285 0
 1626 00dc 4846     		mov	r0, r9
 1627 00de FFF7FEFF 		bl	chSysHalt
 1628              	.LVL162:
 1629 00e2 BDE7     		b	.L132
 1630              	.LVL163:
 1631              	.L140:
 1632              		.loc 1 293 0
 1633 00e4 B146     		mov	r9, r6
 1634              		.loc 1 285 0
 1635 00e6 DFF868A0 		ldr	r10, .L155+16
 1636 00ea 04E0     		b	.L125
 1637              	.LVL164:
 1638              	.L135:
 1639              		.loc 1 290 0
 1640 00ec 0B2A     		cmp	r2, #11
 1641 00ee 18D0     		beq	.L153
 1642              	.L137:
 1643              	.LBE262:
 1644              	.LBE266:
 1645              		.loc 1 226 0
 1646 00f0 2468     		ldr	r4, [r4]
 1647              	.LVL165:
 1648              		.loc 1 217 0
 1649 00f2 A542     		cmp	r5, r4
 1650 00f4 CAD0     		beq	.L124
 1651              	.LVL166:
 1652              	.L125:
 1653              		.loc 1 224 0
ARM GAS  C:\Users\mathi\AppData\Local\Temp\ccDXreIU.s 			page 30


 1654 00f6 D4E90168 		ldrd	r6, r8, [r4, #4]
 1655              	.LVL167:
 1656              	.LBB267:
 1657              	.LBB263:
 1658              		.loc 1 284 0
 1659 00fa FFF7FEFF 		bl	chDbgCheckClassI
 1660              	.LVL168:
 1661              		.loc 1 285 0
 1662 00fe AEB1     		cbz	r6, .L154
 1663              	.L134:
 1664              		.loc 1 287 0
 1665 0100 F36B     		ldr	r3, [r6, #60]
 1666              		.loc 1 289 0
 1667 0102 96F82020 		ldrb	r2, [r6, #32]	@ zero_extendqisi2
 1668              		.loc 1 287 0
 1669 0106 48EA0303 		orr	r3, r8, r3
 1670              		.loc 1 289 0
 1671 010a 0A2A     		cmp	r2, #10
 1672              		.loc 1 287 0
 1673 010c F363     		str	r3, [r6, #60]
 1674              		.loc 1 289 0
 1675 010e EDD1     		bne	.L135
 1676              		.loc 1 290 0
 1677 0110 B26A     		ldr	r2, [r6, #40]
 1678              		.loc 1 289 0
 1679 0112 1342     		tst	r3, r2
 1680 0114 ECD0     		beq	.L137
 1681              	.L136:
 1682              		.loc 1 293 0
 1683 0116 C6F82890 		str	r9, [r6, #40]
 1684              		.loc 1 294 0
 1685 011a 3046     		mov	r0, r6
 1686 011c FFF7FEFF 		bl	chSchReadyI
 1687              	.LVL169:
 1688 0120 E6E7     		b	.L137
 1689              	.L153:
 1690              		.loc 1 292 0
 1691 0122 B26A     		ldr	r2, [r6, #40]
 1692              		.loc 1 291 0
 1693 0124 32EA0303 		bics	r3, r2, r3
 1694 0128 E2D1     		bne	.L137
 1695 012a F4E7     		b	.L136
 1696              	.L154:
 1697              		.loc 1 285 0
 1698 012c 5046     		mov	r0, r10
 1699 012e FFF7FEFF 		bl	chSysHalt
 1700              	.LVL170:
 1701 0132 E5E7     		b	.L134
 1702              	.LVL171:
 1703              	.L148:
 1704              	.LBE263:
 1705              	.LBE267:
 1706              		.loc 1 213 0
 1707 0134 0548     		ldr	r0, .L155+12
 1708 0136 FFF7FEFF 		bl	chSysHalt
 1709              	.LVL172:
 1710 013a 75E7     		b	.L123
ARM GAS  C:\Users\mathi\AppData\Local\Temp\ccDXreIU.s 			page 31


 1711              	.LVL173:
 1712              	.L151:
 1713              	.LBE269:
 1714              	.LBE278:
 1715              		.loc 1 317 0
 1716 013c FFF7FEFF 		bl	__stack_chk_fail
 1717              	.LVL174:
 1718              	.L156:
 1719              		.align	2
 1720              	.L155:
 1721 0140 00000000 		.word	__stack_chk_guard
 1722 0144 00000000 		.word	ch
 1723 0148 00000000 		.word	.LANCHOR1
 1724 014c 00000000 		.word	.LANCHOR3
 1725 0150 00000000 		.word	.LANCHOR4
 1726              		.cfi_endproc
 1727              	.LFE227:
 1728              		.size	chEvtBroadcastFlags, .-chEvtBroadcastFlags
 1729              		.section	.text.chEvtGetAndClearFlagsI,"ax",%progbits
 1730              		.align	1
 1731              		.p2align 4,,15
 1732              		.global	chEvtGetAndClearFlagsI
 1733              		.syntax unified
 1734              		.thumb
 1735              		.thumb_func
 1736              		.fpu fpv4-sp-d16
 1737              		.type	chEvtGetAndClearFlagsI, %function
 1738              	chEvtGetAndClearFlagsI:
 1739              	.LFB228:
 1740              		.loc 1 330 0
 1741              		.cfi_startproc
 1742              		@ args = 0, pretend = 0, frame = 8
 1743              		@ frame_needed = 0, uses_anonymous_args = 0
 1744              	.LVL175:
 1745 0000 10B5     		push	{r4, lr}
 1746              		.cfi_def_cfa_offset 8
 1747              		.cfi_offset 4, -8
 1748              		.cfi_offset 14, -4
 1749 0002 084A     		ldr	r2, .L161
 1750 0004 82B0     		sub	sp, sp, #8
 1751              		.cfi_def_cfa_offset 16
 1752              		.loc 1 330 0
 1753 0006 1168     		ldr	r1, [r2]
 1754 0008 0191     		str	r1, [sp, #4]
 1755              		.loc 1 337 0
 1756 000a 0199     		ldr	r1, [sp, #4]
 1757 000c 1268     		ldr	r2, [r2]
 1758              		.loc 1 330 0
 1759 000e 0346     		mov	r3, r0
 1760              		.loc 1 334 0
 1761 0010 0024     		movs	r4, #0
 1762              		.loc 1 337 0
 1763 0012 9142     		cmp	r1, r2
 1764              		.loc 1 333 0
 1765 0014 C068     		ldr	r0, [r0, #12]
 1766              	.LVL176:
 1767              		.loc 1 334 0
ARM GAS  C:\Users\mathi\AppData\Local\Temp\ccDXreIU.s 			page 32


 1768 0016 DC60     		str	r4, [r3, #12]
 1769              		.loc 1 337 0
 1770 0018 01D1     		bne	.L160
 1771 001a 02B0     		add	sp, sp, #8
 1772              		.cfi_remember_state
 1773              		.cfi_def_cfa_offset 8
 1774              		@ sp needed
 1775 001c 10BD     		pop	{r4, pc}
 1776              	.L160:
 1777              		.cfi_restore_state
 1778 001e FFF7FEFF 		bl	__stack_chk_fail
 1779              	.LVL177:
 1780              	.L162:
 1781 0022 00BF     		.align	2
 1782              	.L161:
 1783 0024 00000000 		.word	__stack_chk_guard
 1784              		.cfi_endproc
 1785              	.LFE228:
 1786              		.size	chEvtGetAndClearFlagsI, .-chEvtGetAndClearFlagsI
 1787              		.section	.text.chEvtDispatch,"ax",%progbits
 1788              		.align	1
 1789              		.p2align 4,,15
 1790              		.global	chEvtDispatch
 1791              		.syntax unified
 1792              		.thumb
 1793              		.thumb_func
 1794              		.fpu fpv4-sp-d16
 1795              		.type	chEvtDispatch, %function
 1796              	chEvtDispatch:
 1797              	.LFB229:
 1798              		.loc 1 348 0
 1799              		.cfi_startproc
 1800              		@ args = 0, pretend = 0, frame = 8
 1801              		@ frame_needed = 0, uses_anonymous_args = 0
 1802              	.LVL178:
 1803 0000 2DE9F043 		push	{r4, r5, r6, r7, r8, r9, lr}
 1804              		.cfi_def_cfa_offset 28
 1805              		.cfi_offset 4, -28
 1806              		.cfi_offset 5, -24
 1807              		.cfi_offset 6, -20
 1808              		.cfi_offset 7, -16
 1809              		.cfi_offset 8, -12
 1810              		.cfi_offset 9, -8
 1811              		.cfi_offset 14, -4
 1812 0004 DFF86880 		ldr	r8, .L176+4
 1813 0008 83B0     		sub	sp, sp, #12
 1814              		.cfi_def_cfa_offset 40
 1815              		.loc 1 348 0
 1816 000a D8F80030 		ldr	r3, [r8]
 1817 000e 0193     		str	r3, [sp, #4]
 1818 0010 0D46     		mov	r5, r1
 1819              		.loc 1 351 0
 1820 0012 0646     		mov	r6, r0
 1821 0014 20B3     		cbz	r0, .L173
 1822              	.LVL179:
 1823              	.L164:
 1824              		.loc 1 354 0
ARM GAS  C:\Users\mathi\AppData\Local\Temp\ccDXreIU.s 			page 33


 1825 0016 9DB1     		cbz	r5, .L163
 1826              		.loc 1 356 0
 1827 0018 DFF85090 		ldr	r9, .L176
 1828              		.loc 1 354 0
 1829 001c 0024     		movs	r4, #0
 1830              		.loc 1 357 0
 1831 001e 0127     		movs	r7, #1
 1832              	.LVL180:
 1833              	.L165:
 1834              		.loc 1 355 0
 1835 0020 25FA04F3 		lsr	r3, r5, r4
 1836 0024 DB07     		lsls	r3, r3, #31
 1837 0026 13D5     		bpl	.L167
 1838              		.loc 1 356 0 discriminator 1
 1839 0028 56F82430 		ldr	r3, [r6, r4, lsl #2]
 1840 002c 93B1     		cbz	r3, .L174
 1841              	.L168:
 1842              		.loc 1 357 0
 1843 002e 07FA04F2 		lsl	r2, r7, r4
 1844              		.loc 1 358 0
 1845 0032 2046     		mov	r0, r4
 1846              		.loc 1 357 0
 1847 0034 25EA0205 		bic	r5, r5, r2
 1848              	.LVL181:
 1849              		.loc 1 360 0
 1850 0038 0134     		adds	r4, r4, #1
 1851              	.LVL182:
 1852              		.loc 1 358 0
 1853 003a 9847     		blx	r3
 1854              	.LVL183:
 1855              		.loc 1 354 0
 1856 003c 002D     		cmp	r5, #0
 1857 003e EFD1     		bne	.L165
 1858              	.LVL184:
 1859              	.L163:
 1860              		.loc 1 362 0
 1861 0040 019A     		ldr	r2, [sp, #4]
 1862 0042 D8F80030 		ldr	r3, [r8]
 1863 0046 9A42     		cmp	r2, r3
 1864 0048 0ED1     		bne	.L175
 1865 004a 03B0     		add	sp, sp, #12
 1866              		.cfi_remember_state
 1867              		.cfi_def_cfa_offset 28
 1868              		@ sp needed
 1869 004c BDE8F083 		pop	{r4, r5, r6, r7, r8, r9, pc}
 1870              	.LVL185:
 1871              	.L167:
 1872              		.cfi_restore_state
 1873              		.loc 1 360 0
 1874 0050 0134     		adds	r4, r4, #1
 1875              	.LVL186:
 1876 0052 E5E7     		b	.L165
 1877              	.L174:
 1878              		.loc 1 356 0 discriminator 2
 1879 0054 4846     		mov	r0, r9
 1880 0056 FFF7FEFF 		bl	chSysHalt
 1881              	.LVL187:
ARM GAS  C:\Users\mathi\AppData\Local\Temp\ccDXreIU.s 			page 34


 1882 005a 56F82430 		ldr	r3, [r6, r4, lsl #2]
 1883 005e E6E7     		b	.L168
 1884              	.LVL188:
 1885              	.L173:
 1886              		.loc 1 351 0 discriminator 2
 1887 0060 0248     		ldr	r0, .L176
 1888              	.LVL189:
 1889 0062 FFF7FEFF 		bl	chSysHalt
 1890              	.LVL190:
 1891 0066 D6E7     		b	.L164
 1892              	.L175:
 1893              		.loc 1 362 0
 1894 0068 FFF7FEFF 		bl	__stack_chk_fail
 1895              	.LVL191:
 1896              	.L177:
 1897              		.align	2
 1898              	.L176:
 1899 006c 00000000 		.word	.LANCHOR6
 1900 0070 00000000 		.word	__stack_chk_guard
 1901              		.cfi_endproc
 1902              	.LFE229:
 1903              		.size	chEvtDispatch, .-chEvtDispatch
 1904              		.section	.text.chEvtWaitOne,"ax",%progbits
 1905              		.align	1
 1906              		.p2align 4,,15
 1907              		.global	chEvtWaitOne
 1908              		.syntax unified
 1909              		.thumb
 1910              		.thumb_func
 1911              		.fpu fpv4-sp-d16
 1912              		.type	chEvtWaitOne, %function
 1913              	chEvtWaitOne:
 1914              	.LFB230:
 1915              		.loc 1 383 0
 1916              		.cfi_startproc
 1917              		@ args = 0, pretend = 0, frame = 8
 1918              		@ frame_needed = 0, uses_anonymous_args = 0
 1919              	.LVL192:
 1920 0000 2DE9F041 		push	{r4, r5, r6, r7, r8, lr}
 1921              		.cfi_def_cfa_offset 24
 1922              		.cfi_offset 4, -24
 1923              		.cfi_offset 5, -20
 1924              		.cfi_offset 6, -16
 1925              		.cfi_offset 7, -12
 1926              		.cfi_offset 8, -8
 1927              		.cfi_offset 14, -4
 1928 0004 1F4F     		ldr	r7, .L185
 1929              		.loc 1 384 0
 1930 0006 DFF88480 		ldr	r8, .L185+8
 1931              		.loc 1 383 0
 1932 000a 3B68     		ldr	r3, [r7]
 1933              		.loc 1 384 0
 1934 000c D8F81850 		ldr	r5, [r8, #24]
 1935              	.LVL193:
 1936              		.loc 1 383 0
 1937 0010 82B0     		sub	sp, sp, #8
 1938              		.cfi_def_cfa_offset 32
ARM GAS  C:\Users\mathi\AppData\Local\Temp\ccDXreIU.s 			page 35


 1939              		.loc 1 383 0
 1940 0012 0646     		mov	r6, r0
 1941 0014 0193     		str	r3, [sp, #4]
 1942              	.LBB289:
 1943              	.LBB290:
 1944              	.LBB291:
 1945              	.LBB292:
 1946              	.LBB293:
 1947              		.loc 2 546 0
 1948 0016 2023     		movs	r3, #32
 1949              		.syntax unified
 1950              	@ 546 "../../lib/e-puck2_main-processor/ChibiOS//os/ext/CMSIS/include/core_cmFunc.h" 1
 1951 0018 83F31188 		MSR basepri, r3
 1952              	@ 0 "" 2
 1953              	.LVL194:
 1954              		.thumb
 1955              		.syntax unified
 1956              	.LBE293:
 1957              	.LBE292:
 1958              	.LBE291:
 1959              		.loc 3 349 0
 1960 001c FFF7FEFF 		bl	_stats_start_measure_crit_thd
 1961              	.LVL195:
 1962              		.loc 3 350 0
 1963 0020 FFF7FEFF 		bl	_dbg_check_lock
 1964              	.LVL196:
 1965              	.LBE290:
 1966              	.LBE289:
 1967              		.loc 1 388 0
 1968 0024 EB6B     		ldr	r3, [r5, #60]
 1969              	.LVL197:
 1970              		.loc 1 389 0
 1971 0026 13EA0602 		ands	r2, r3, r6
 1972              	.LVL198:
 1973 002a 06D1     		bne	.L179
 1974              		.loc 1 390 0
 1975 002c AE62     		str	r6, [r5, #40]
 1976              		.loc 1 391 0
 1977 002e 0A20     		movs	r0, #10
 1978 0030 FFF7FEFF 		bl	chSchGoSleepS
 1979              	.LVL199:
 1980              		.loc 1 392 0
 1981 0034 EB6B     		ldr	r3, [r5, #60]
 1982 0036 03EA0602 		and	r2, r3, r6
 1983              	.LVL200:
 1984              	.L179:
 1985              		.loc 1 394 0
 1986 003a 5442     		negs	r4, r2
 1987 003c 1440     		ands	r4, r4, r2
 1988              	.LVL201:
 1989              		.loc 1 395 0
 1990 003e 23EA0403 		bic	r3, r3, r4
 1991 0042 EB63     		str	r3, [r5, #60]
 1992              	.LBB294:
 1993              	.LBB295:
 1994              		.loc 3 360 0
 1995 0044 FFF7FEFF 		bl	_dbg_check_unlock
ARM GAS  C:\Users\mathi\AppData\Local\Temp\ccDXreIU.s 			page 36


 1996              	.LVL202:
 1997              		.loc 3 361 0
 1998 0048 FFF7FEFF 		bl	_stats_stop_measure_crit_thd
 1999              	.LVL203:
 2000              		.loc 3 367 0
 2001 004c D8F80030 		ldr	r3, [r8]
 2002 0050 4345     		cmp	r3, r8
 2003 0052 05D0     		beq	.L180
 2004 0054 D8F81820 		ldr	r2, [r8, #24]
 2005 0058 9B68     		ldr	r3, [r3, #8]
 2006 005a 9268     		ldr	r2, [r2, #8]
 2007 005c 9A42     		cmp	r2, r3
 2008 005e 0AD3     		bcc	.L183
 2009              	.L180:
 2010              	.LVL204:
 2011              	.LBB296:
 2012              	.LBB297:
 2013              	.LBB298:
 2014              		.loc 2 546 0
 2015 0060 0023     		movs	r3, #0
 2016              		.syntax unified
 2017              	@ 546 "../../lib/e-puck2_main-processor/ChibiOS//os/ext/CMSIS/include/core_cmFunc.h" 1
 2018 0062 83F31188 		MSR basepri, r3
 2019              	@ 0 "" 2
 2020              	.LVL205:
 2021              		.thumb
 2022              		.syntax unified
 2023              	.LBE298:
 2024              	.LBE297:
 2025              	.LBE296:
 2026              	.LBE295:
 2027              	.LBE294:
 2028              		.loc 1 399 0
 2029 0066 019A     		ldr	r2, [sp, #4]
 2030 0068 3B68     		ldr	r3, [r7]
 2031 006a 9A42     		cmp	r2, r3
 2032 006c 2046     		mov	r0, r4
 2033 006e 06D1     		bne	.L184
 2034              	.LVL206:
 2035 0070 02B0     		add	sp, sp, #8
 2036              		.cfi_remember_state
 2037              		.cfi_def_cfa_offset 24
 2038              		@ sp needed
 2039 0072 BDE8F081 		pop	{r4, r5, r6, r7, r8, pc}
 2040              	.LVL207:
 2041              	.L183:
 2042              		.cfi_restore_state
 2043              	.LBB300:
 2044              	.LBB299:
 2045              		.loc 3 367 0
 2046 0076 0448     		ldr	r0, .L185+4
 2047 0078 FFF7FEFF 		bl	chSysHalt
 2048              	.LVL208:
 2049 007c F0E7     		b	.L180
 2050              	.LVL209:
 2051              	.L184:
 2052              	.LBE299:
ARM GAS  C:\Users\mathi\AppData\Local\Temp\ccDXreIU.s 			page 37


 2053              	.LBE300:
 2054              		.loc 1 399 0
 2055 007e FFF7FEFF 		bl	__stack_chk_fail
 2056              	.LVL210:
 2057              	.L186:
 2058 0082 00BF     		.align	2
 2059              	.L185:
 2060 0084 00000000 		.word	__stack_chk_guard
 2061 0088 00000000 		.word	.LANCHOR1
 2062 008c 00000000 		.word	ch
 2063              		.cfi_endproc
 2064              	.LFE230:
 2065              		.size	chEvtWaitOne, .-chEvtWaitOne
 2066              		.section	.text.chEvtWaitAny,"ax",%progbits
 2067              		.align	1
 2068              		.p2align 4,,15
 2069              		.global	chEvtWaitAny
 2070              		.syntax unified
 2071              		.thumb
 2072              		.thumb_func
 2073              		.fpu fpv4-sp-d16
 2074              		.type	chEvtWaitAny, %function
 2075              	chEvtWaitAny:
 2076              	.LFB231:
 2077              		.loc 1 413 0
 2078              		.cfi_startproc
 2079              		@ args = 0, pretend = 0, frame = 8
 2080              		@ frame_needed = 0, uses_anonymous_args = 0
 2081              	.LVL211:
 2082 0000 2DE9F041 		push	{r4, r5, r6, r7, r8, lr}
 2083              		.cfi_def_cfa_offset 24
 2084              		.cfi_offset 4, -24
 2085              		.cfi_offset 5, -20
 2086              		.cfi_offset 6, -16
 2087              		.cfi_offset 7, -12
 2088              		.cfi_offset 8, -8
 2089              		.cfi_offset 14, -4
 2090 0004 DFF87C80 		ldr	r8, .L194+8
 2091              		.loc 1 414 0
 2092 0008 1C4C     		ldr	r4, .L194
 2093              		.loc 1 413 0
 2094 000a D8F80030 		ldr	r3, [r8]
 2095              		.loc 1 414 0
 2096 000e A569     		ldr	r5, [r4, #24]
 2097              	.LVL212:
 2098              		.loc 1 413 0
 2099 0010 82B0     		sub	sp, sp, #8
 2100              		.cfi_def_cfa_offset 32
 2101              		.loc 1 413 0
 2102 0012 0646     		mov	r6, r0
 2103 0014 0193     		str	r3, [sp, #4]
 2104              	.LBB311:
 2105              	.LBB312:
 2106              	.LBB313:
 2107              	.LBB314:
 2108              	.LBB315:
 2109              		.loc 2 546 0
ARM GAS  C:\Users\mathi\AppData\Local\Temp\ccDXreIU.s 			page 38


 2110 0016 2023     		movs	r3, #32
 2111              		.syntax unified
 2112              	@ 546 "../../lib/e-puck2_main-processor/ChibiOS//os/ext/CMSIS/include/core_cmFunc.h" 1
 2113 0018 83F31188 		MSR basepri, r3
 2114              	@ 0 "" 2
 2115              	.LVL213:
 2116              		.thumb
 2117              		.syntax unified
 2118              	.LBE315:
 2119              	.LBE314:
 2120              	.LBE313:
 2121              		.loc 3 349 0
 2122 001c FFF7FEFF 		bl	_stats_start_measure_crit_thd
 2123              	.LVL214:
 2124              		.loc 3 350 0
 2125 0020 FFF7FEFF 		bl	_dbg_check_lock
 2126              	.LVL215:
 2127              	.LBE312:
 2128              	.LBE311:
 2129              		.loc 1 418 0
 2130 0024 EB6B     		ldr	r3, [r5, #60]
 2131              	.LVL216:
 2132              		.loc 1 419 0
 2133 0026 13EA0607 		ands	r7, r3, r6
 2134              	.LVL217:
 2135 002a 06D1     		bne	.L188
 2136              		.loc 1 420 0
 2137 002c AE62     		str	r6, [r5, #40]
 2138              		.loc 1 421 0
 2139 002e 0A20     		movs	r0, #10
 2140 0030 FFF7FEFF 		bl	chSchGoSleepS
 2141              	.LVL218:
 2142              		.loc 1 422 0
 2143 0034 EB6B     		ldr	r3, [r5, #60]
 2144 0036 03EA0607 		and	r7, r3, r6
 2145              	.LVL219:
 2146              	.L188:
 2147              		.loc 1 424 0
 2148 003a 23EA0703 		bic	r3, r3, r7
 2149 003e EB63     		str	r3, [r5, #60]
 2150              	.LBB316:
 2151              	.LBB317:
 2152              		.loc 3 360 0
 2153 0040 FFF7FEFF 		bl	_dbg_check_unlock
 2154              	.LVL220:
 2155              		.loc 3 361 0
 2156 0044 FFF7FEFF 		bl	_stats_stop_measure_crit_thd
 2157              	.LVL221:
 2158              		.loc 3 367 0
 2159 0048 2368     		ldr	r3, [r4]
 2160 004a A342     		cmp	r3, r4
 2161 004c 04D0     		beq	.L189
 2162 004e A269     		ldr	r2, [r4, #24]
 2163 0050 9B68     		ldr	r3, [r3, #8]
 2164 0052 9268     		ldr	r2, [r2, #8]
 2165 0054 9A42     		cmp	r2, r3
 2166 0056 0BD3     		bcc	.L192
ARM GAS  C:\Users\mathi\AppData\Local\Temp\ccDXreIU.s 			page 39


 2167              	.L189:
 2168              	.LVL222:
 2169              	.LBB318:
 2170              	.LBB319:
 2171              	.LBB320:
 2172              		.loc 2 546 0
 2173 0058 0023     		movs	r3, #0
 2174              		.syntax unified
 2175              	@ 546 "../../lib/e-puck2_main-processor/ChibiOS//os/ext/CMSIS/include/core_cmFunc.h" 1
 2176 005a 83F31188 		MSR basepri, r3
 2177              	@ 0 "" 2
 2178              	.LVL223:
 2179              		.thumb
 2180              		.syntax unified
 2181              	.LBE320:
 2182              	.LBE319:
 2183              	.LBE318:
 2184              	.LBE317:
 2185              	.LBE316:
 2186              		.loc 1 428 0
 2187 005e 019A     		ldr	r2, [sp, #4]
 2188 0060 D8F80030 		ldr	r3, [r8]
 2189 0064 9A42     		cmp	r2, r3
 2190 0066 3846     		mov	r0, r7
 2191 0068 06D1     		bne	.L193
 2192              	.LVL224:
 2193 006a 02B0     		add	sp, sp, #8
 2194              		.cfi_remember_state
 2195              		.cfi_def_cfa_offset 24
 2196              		@ sp needed
 2197 006c BDE8F081 		pop	{r4, r5, r6, r7, r8, pc}
 2198              	.LVL225:
 2199              	.L192:
 2200              		.cfi_restore_state
 2201              	.LBB322:
 2202              	.LBB321:
 2203              		.loc 3 367 0
 2204 0070 0348     		ldr	r0, .L194+4
 2205 0072 FFF7FEFF 		bl	chSysHalt
 2206              	.LVL226:
 2207 0076 EFE7     		b	.L189
 2208              	.LVL227:
 2209              	.L193:
 2210              	.LBE321:
 2211              	.LBE322:
 2212              		.loc 1 428 0
 2213 0078 FFF7FEFF 		bl	__stack_chk_fail
 2214              	.LVL228:
 2215              	.L195:
 2216              		.align	2
 2217              	.L194:
 2218 007c 00000000 		.word	ch
 2219 0080 00000000 		.word	.LANCHOR1
 2220 0084 00000000 		.word	__stack_chk_guard
 2221              		.cfi_endproc
 2222              	.LFE231:
 2223              		.size	chEvtWaitAny, .-chEvtWaitAny
ARM GAS  C:\Users\mathi\AppData\Local\Temp\ccDXreIU.s 			page 40


 2224              		.section	.text.chEvtWaitAll,"ax",%progbits
 2225              		.align	1
 2226              		.p2align 4,,15
 2227              		.global	chEvtWaitAll
 2228              		.syntax unified
 2229              		.thumb
 2230              		.thumb_func
 2231              		.fpu fpv4-sp-d16
 2232              		.type	chEvtWaitAll, %function
 2233              	chEvtWaitAll:
 2234              	.LFB232:
 2235              		.loc 1 441 0
 2236              		.cfi_startproc
 2237              		@ args = 0, pretend = 0, frame = 8
 2238              		@ frame_needed = 0, uses_anonymous_args = 0
 2239              	.LVL229:
 2240 0000 F0B5     		push	{r4, r5, r6, r7, lr}
 2241              		.cfi_def_cfa_offset 20
 2242              		.cfi_offset 4, -20
 2243              		.cfi_offset 5, -16
 2244              		.cfi_offset 6, -12
 2245              		.cfi_offset 7, -8
 2246              		.cfi_offset 14, -4
 2247 0002 1B4F     		ldr	r7, .L203
 2248              		.loc 1 442 0
 2249 0004 1B4C     		ldr	r4, .L203+4
 2250              		.loc 1 441 0
 2251 0006 3B68     		ldr	r3, [r7]
 2252              		.loc 1 442 0
 2253 0008 A669     		ldr	r6, [r4, #24]
 2254              	.LVL230:
 2255              		.loc 1 441 0
 2256 000a 83B0     		sub	sp, sp, #12
 2257              		.cfi_def_cfa_offset 32
 2258              		.loc 1 441 0
 2259 000c 0546     		mov	r5, r0
 2260 000e 0193     		str	r3, [sp, #4]
 2261              	.LBB333:
 2262              	.LBB334:
 2263              	.LBB335:
 2264              	.LBB336:
 2265              	.LBB337:
 2266              		.loc 2 546 0
 2267 0010 2023     		movs	r3, #32
 2268              		.syntax unified
 2269              	@ 546 "../../lib/e-puck2_main-processor/ChibiOS//os/ext/CMSIS/include/core_cmFunc.h" 1
 2270 0012 83F31188 		MSR basepri, r3
 2271              	@ 0 "" 2
 2272              	.LVL231:
 2273              		.thumb
 2274              		.syntax unified
 2275              	.LBE337:
 2276              	.LBE336:
 2277              	.LBE335:
 2278              		.loc 3 349 0
 2279 0016 FFF7FEFF 		bl	_stats_start_measure_crit_thd
 2280              	.LVL232:
ARM GAS  C:\Users\mathi\AppData\Local\Temp\ccDXreIU.s 			page 41


 2281              		.loc 3 350 0
 2282 001a FFF7FEFF 		bl	_dbg_check_lock
 2283              	.LVL233:
 2284              	.LBE334:
 2285              	.LBE333:
 2286              		.loc 1 445 0
 2287 001e F36B     		ldr	r3, [r6, #60]
 2288 0020 35EA0302 		bics	r2, r5, r3
 2289 0024 04D0     		beq	.L197
 2290              		.loc 1 446 0
 2291 0026 B562     		str	r5, [r6, #40]
 2292              		.loc 1 447 0
 2293 0028 0B20     		movs	r0, #11
 2294 002a FFF7FEFF 		bl	chSchGoSleepS
 2295              	.LVL234:
 2296 002e F36B     		ldr	r3, [r6, #60]
 2297              	.L197:
 2298              		.loc 1 449 0
 2299 0030 23EA0503 		bic	r3, r3, r5
 2300 0034 F363     		str	r3, [r6, #60]
 2301              	.LBB338:
 2302              	.LBB339:
 2303              		.loc 3 360 0
 2304 0036 FFF7FEFF 		bl	_dbg_check_unlock
 2305              	.LVL235:
 2306              		.loc 3 361 0
 2307 003a FFF7FEFF 		bl	_stats_stop_measure_crit_thd
 2308              	.LVL236:
 2309              		.loc 3 367 0
 2310 003e 2368     		ldr	r3, [r4]
 2311 0040 A342     		cmp	r3, r4
 2312 0042 04D0     		beq	.L198
 2313 0044 A269     		ldr	r2, [r4, #24]
 2314 0046 9B68     		ldr	r3, [r3, #8]
 2315 0048 9268     		ldr	r2, [r2, #8]
 2316 004a 9A42     		cmp	r2, r3
 2317 004c 09D3     		bcc	.L201
 2318              	.L198:
 2319              	.LVL237:
 2320              	.LBB340:
 2321              	.LBB341:
 2322              	.LBB342:
 2323              		.loc 2 546 0
 2324 004e 0023     		movs	r3, #0
 2325              		.syntax unified
 2326              	@ 546 "../../lib/e-puck2_main-processor/ChibiOS//os/ext/CMSIS/include/core_cmFunc.h" 1
 2327 0050 83F31188 		MSR basepri, r3
 2328              	@ 0 "" 2
 2329              	.LVL238:
 2330              		.thumb
 2331              		.syntax unified
 2332              	.LBE342:
 2333              	.LBE341:
 2334              	.LBE340:
 2335              	.LBE339:
 2336              	.LBE338:
 2337              		.loc 1 453 0
ARM GAS  C:\Users\mathi\AppData\Local\Temp\ccDXreIU.s 			page 42


 2338 0054 019A     		ldr	r2, [sp, #4]
 2339 0056 3B68     		ldr	r3, [r7]
 2340 0058 9A42     		cmp	r2, r3
 2341 005a 2846     		mov	r0, r5
 2342 005c 05D1     		bne	.L202
 2343              	.LVL239:
 2344 005e 03B0     		add	sp, sp, #12
 2345              		.cfi_remember_state
 2346              		.cfi_def_cfa_offset 20
 2347              		@ sp needed
 2348 0060 F0BD     		pop	{r4, r5, r6, r7, pc}
 2349              	.LVL240:
 2350              	.L201:
 2351              		.cfi_restore_state
 2352              	.LBB344:
 2353              	.LBB343:
 2354              		.loc 3 367 0
 2355 0062 0548     		ldr	r0, .L203+8
 2356 0064 FFF7FEFF 		bl	chSysHalt
 2357              	.LVL241:
 2358 0068 F1E7     		b	.L198
 2359              	.LVL242:
 2360              	.L202:
 2361              	.LBE343:
 2362              	.LBE344:
 2363              		.loc 1 453 0
 2364 006a FFF7FEFF 		bl	__stack_chk_fail
 2365              	.LVL243:
 2366              	.L204:
 2367 006e 00BF     		.align	2
 2368              	.L203:
 2369 0070 00000000 		.word	__stack_chk_guard
 2370 0074 00000000 		.word	ch
 2371 0078 00000000 		.word	.LANCHOR1
 2372              		.cfi_endproc
 2373              	.LFE232:
 2374              		.size	chEvtWaitAll, .-chEvtWaitAll
 2375              		.section	.text.chEvtWaitOneTimeout,"ax",%progbits
 2376              		.align	1
 2377              		.p2align 4,,15
 2378              		.global	chEvtWaitOneTimeout
 2379              		.syntax unified
 2380              		.thumb
 2381              		.thumb_func
 2382              		.fpu fpv4-sp-d16
 2383              		.type	chEvtWaitOneTimeout, %function
 2384              	chEvtWaitOneTimeout:
 2385              	.LFB233:
 2386              		.loc 1 479 0
 2387              		.cfi_startproc
 2388              		@ args = 0, pretend = 0, frame = 8
 2389              		@ frame_needed = 0, uses_anonymous_args = 0
 2390              	.LVL244:
 2391 0000 2DE9F043 		push	{r4, r5, r6, r7, r8, r9, lr}
 2392              		.cfi_def_cfa_offset 28
 2393              		.cfi_offset 4, -28
 2394              		.cfi_offset 5, -24
ARM GAS  C:\Users\mathi\AppData\Local\Temp\ccDXreIU.s 			page 43


 2395              		.cfi_offset 6, -20
 2396              		.cfi_offset 7, -16
 2397              		.cfi_offset 8, -12
 2398              		.cfi_offset 9, -8
 2399              		.cfi_offset 14, -4
 2400 0004 DFF89080 		ldr	r8, .L224+8
 2401              		.loc 1 480 0
 2402 0008 214D     		ldr	r5, .L224
 2403              		.loc 1 479 0
 2404 000a D8F80030 		ldr	r3, [r8]
 2405              		.loc 1 480 0
 2406 000e AF69     		ldr	r7, [r5, #24]
 2407              	.LVL245:
 2408              		.loc 1 479 0
 2409 0010 83B0     		sub	sp, sp, #12
 2410              		.cfi_def_cfa_offset 40
 2411              		.loc 1 479 0
 2412 0012 0646     		mov	r6, r0
 2413 0014 0193     		str	r3, [sp, #4]
 2414 0016 8946     		mov	r9, r1
 2415              	.LBB365:
 2416              	.LBB366:
 2417              	.LBB367:
 2418              	.LBB368:
 2419              	.LBB369:
 2420              		.loc 2 546 0
 2421 0018 2023     		movs	r3, #32
 2422              		.syntax unified
 2423              	@ 546 "../../lib/e-puck2_main-processor/ChibiOS//os/ext/CMSIS/include/core_cmFunc.h" 1
 2424 001a 83F31188 		MSR basepri, r3
 2425              	@ 0 "" 2
 2426              	.LVL246:
 2427              		.thumb
 2428              		.syntax unified
 2429              	.LBE369:
 2430              	.LBE368:
 2431              	.LBE367:
 2432              		.loc 3 349 0
 2433 001e FFF7FEFF 		bl	_stats_start_measure_crit_thd
 2434              	.LVL247:
 2435              		.loc 3 350 0
 2436 0022 FFF7FEFF 		bl	_dbg_check_lock
 2437              	.LVL248:
 2438              	.LBE366:
 2439              	.LBE365:
 2440              		.loc 1 484 0
 2441 0026 FB6B     		ldr	r3, [r7, #60]
 2442              	.LVL249:
 2443              		.loc 1 485 0
 2444 0028 13EA0604 		ands	r4, r3, r6
 2445              	.LVL250:
 2446 002c 0CD1     		bne	.L206
 2447              		.loc 1 486 0
 2448 002e B9F1000F 		cmp	r9, #0
 2449 0032 0ED0     		beq	.L220
 2450              		.loc 1 490 0
 2451 0034 BE62     		str	r6, [r7, #40]
ARM GAS  C:\Users\mathi\AppData\Local\Temp\ccDXreIU.s 			page 44


 2452              		.loc 1 491 0
 2453 0036 4946     		mov	r1, r9
 2454 0038 0A20     		movs	r0, #10
 2455 003a FFF7FEFF 		bl	chSchGoSleepTimeoutS
 2456              	.LVL251:
 2457 003e 0028     		cmp	r0, #0
 2458 0040 07DB     		blt	.L220
 2459              		.loc 1 495 0
 2460 0042 FB6B     		ldr	r3, [r7, #60]
 2461 0044 03EA0604 		and	r4, r3, r6
 2462              	.LVL252:
 2463              	.L206:
 2464              		.loc 1 497 0
 2465 0048 6242     		negs	r2, r4
 2466 004a 1440     		ands	r4, r4, r2
 2467              	.LVL253:
 2468              		.loc 1 498 0
 2469 004c 23EA0403 		bic	r3, r3, r4
 2470 0050 FB63     		str	r3, [r7, #60]
 2471              	.LVL254:
 2472              	.L220:
 2473              	.LBB370:
 2474              	.LBB371:
 2475              		.loc 3 360 0
 2476 0052 FFF7FEFF 		bl	_dbg_check_unlock
 2477              	.LVL255:
 2478              		.loc 3 361 0
 2479 0056 FFF7FEFF 		bl	_stats_stop_measure_crit_thd
 2480              	.LVL256:
 2481              		.loc 3 367 0
 2482 005a 2B68     		ldr	r3, [r5]
 2483 005c AB42     		cmp	r3, r5
 2484 005e 04D0     		beq	.L212
 2485 0060 AA69     		ldr	r2, [r5, #24]
 2486 0062 9B68     		ldr	r3, [r3, #8]
 2487 0064 9268     		ldr	r2, [r2, #8]
 2488 0066 9A42     		cmp	r2, r3
 2489 0068 0BD3     		bcc	.L222
 2490              	.L212:
 2491              	.LVL257:
 2492              	.LBB372:
 2493              	.LBB373:
 2494              	.LBB374:
 2495              		.loc 2 546 0
 2496 006a 0023     		movs	r3, #0
 2497              		.syntax unified
 2498              	@ 546 "../../lib/e-puck2_main-processor/ChibiOS//os/ext/CMSIS/include/core_cmFunc.h" 1
 2499 006c 83F31188 		MSR basepri, r3
 2500              	@ 0 "" 2
 2501              	.LVL258:
 2502              		.thumb
 2503              		.syntax unified
 2504              	.LBE374:
 2505              	.LBE373:
 2506              	.LBE372:
 2507              	.LBE371:
 2508              	.LBE370:
ARM GAS  C:\Users\mathi\AppData\Local\Temp\ccDXreIU.s 			page 45


 2509              		.loc 1 502 0
 2510 0070 019A     		ldr	r2, [sp, #4]
 2511 0072 D8F80030 		ldr	r3, [r8]
 2512 0076 9A42     		cmp	r2, r3
 2513 0078 2046     		mov	r0, r4
 2514 007a 06D1     		bne	.L223
 2515 007c 03B0     		add	sp, sp, #12
 2516              		.cfi_remember_state
 2517              		.cfi_def_cfa_offset 28
 2518              		@ sp needed
 2519 007e BDE8F083 		pop	{r4, r5, r6, r7, r8, r9, pc}
 2520              	.LVL259:
 2521              	.L222:
 2522              		.cfi_restore_state
 2523              	.LBB376:
 2524              	.LBB375:
 2525              		.loc 3 367 0
 2526 0082 0448     		ldr	r0, .L224+4
 2527 0084 FFF7FEFF 		bl	chSysHalt
 2528              	.LVL260:
 2529 0088 EFE7     		b	.L212
 2530              	.L223:
 2531              	.LBE375:
 2532              	.LBE376:
 2533              		.loc 1 502 0
 2534 008a FFF7FEFF 		bl	__stack_chk_fail
 2535              	.LVL261:
 2536              	.L225:
 2537 008e 00BF     		.align	2
 2538              	.L224:
 2539 0090 00000000 		.word	ch
 2540 0094 00000000 		.word	.LANCHOR1
 2541 0098 00000000 		.word	__stack_chk_guard
 2542              		.cfi_endproc
 2543              	.LFE233:
 2544              		.size	chEvtWaitOneTimeout, .-chEvtWaitOneTimeout
 2545              		.section	.text.chEvtWaitAnyTimeout,"ax",%progbits
 2546              		.align	1
 2547              		.p2align 4,,15
 2548              		.global	chEvtWaitAnyTimeout
 2549              		.syntax unified
 2550              		.thumb
 2551              		.thumb_func
 2552              		.fpu fpv4-sp-d16
 2553              		.type	chEvtWaitAnyTimeout, %function
 2554              	chEvtWaitAnyTimeout:
 2555              	.LFB234:
 2556              		.loc 1 522 0
 2557              		.cfi_startproc
 2558              		@ args = 0, pretend = 0, frame = 8
 2559              		@ frame_needed = 0, uses_anonymous_args = 0
 2560              	.LVL262:
 2561 0000 2DE9F043 		push	{r4, r5, r6, r7, r8, r9, lr}
 2562              		.cfi_def_cfa_offset 28
 2563              		.cfi_offset 4, -28
 2564              		.cfi_offset 5, -24
 2565              		.cfi_offset 6, -20
ARM GAS  C:\Users\mathi\AppData\Local\Temp\ccDXreIU.s 			page 46


 2566              		.cfi_offset 7, -16
 2567              		.cfi_offset 8, -12
 2568              		.cfi_offset 9, -8
 2569              		.cfi_offset 14, -4
 2570 0004 1F4F     		ldr	r7, .L245
 2571              		.loc 1 523 0
 2572 0006 204C     		ldr	r4, .L245+4
 2573              		.loc 1 522 0
 2574 0008 3B68     		ldr	r3, [r7]
 2575              		.loc 1 523 0
 2576 000a A669     		ldr	r6, [r4, #24]
 2577              	.LVL263:
 2578              		.loc 1 522 0
 2579 000c 83B0     		sub	sp, sp, #12
 2580              		.cfi_def_cfa_offset 40
 2581              		.loc 1 522 0
 2582 000e 0546     		mov	r5, r0
 2583 0010 0193     		str	r3, [sp, #4]
 2584 0012 8946     		mov	r9, r1
 2585              	.LBB397:
 2586              	.LBB398:
 2587              	.LBB399:
 2588              	.LBB400:
 2589              	.LBB401:
 2590              		.loc 2 546 0
 2591 0014 2023     		movs	r3, #32
 2592              		.syntax unified
 2593              	@ 546 "../../lib/e-puck2_main-processor/ChibiOS//os/ext/CMSIS/include/core_cmFunc.h" 1
 2594 0016 83F31188 		MSR basepri, r3
 2595              	@ 0 "" 2
 2596              	.LVL264:
 2597              		.thumb
 2598              		.syntax unified
 2599              	.LBE401:
 2600              	.LBE400:
 2601              	.LBE399:
 2602              		.loc 3 349 0
 2603 001a FFF7FEFF 		bl	_stats_start_measure_crit_thd
 2604              	.LVL265:
 2605              		.loc 3 350 0
 2606 001e FFF7FEFF 		bl	_dbg_check_lock
 2607              	.LVL266:
 2608              	.LBE398:
 2609              	.LBE397:
 2610              		.loc 1 527 0
 2611 0022 F36B     		ldr	r3, [r6, #60]
 2612              	.LVL267:
 2613              		.loc 1 528 0
 2614 0024 13EA0508 		ands	r8, r3, r5
 2615              	.LVL268:
 2616 0028 0CD1     		bne	.L227
 2617              		.loc 1 529 0
 2618 002a B9F1000F 		cmp	r9, #0
 2619 002e 0CD0     		beq	.L241
 2620              		.loc 1 533 0
 2621 0030 B562     		str	r5, [r6, #40]
 2622              		.loc 1 534 0
ARM GAS  C:\Users\mathi\AppData\Local\Temp\ccDXreIU.s 			page 47


 2623 0032 4946     		mov	r1, r9
 2624 0034 0A20     		movs	r0, #10
 2625 0036 FFF7FEFF 		bl	chSchGoSleepTimeoutS
 2626              	.LVL269:
 2627 003a 0028     		cmp	r0, #0
 2628 003c 05DB     		blt	.L241
 2629              		.loc 1 538 0
 2630 003e F36B     		ldr	r3, [r6, #60]
 2631 0040 03EA0508 		and	r8, r3, r5
 2632              	.LVL270:
 2633              	.L227:
 2634              		.loc 1 540 0
 2635 0044 23EA0803 		bic	r3, r3, r8
 2636 0048 F363     		str	r3, [r6, #60]
 2637              	.LVL271:
 2638              	.L241:
 2639              	.LBB402:
 2640              	.LBB403:
 2641              		.loc 3 360 0
 2642 004a FFF7FEFF 		bl	_dbg_check_unlock
 2643              	.LVL272:
 2644              		.loc 3 361 0
 2645 004e FFF7FEFF 		bl	_stats_stop_measure_crit_thd
 2646              	.LVL273:
 2647              		.loc 3 367 0
 2648 0052 2368     		ldr	r3, [r4]
 2649 0054 A342     		cmp	r3, r4
 2650 0056 04D0     		beq	.L233
 2651 0058 A269     		ldr	r2, [r4, #24]
 2652 005a 9B68     		ldr	r3, [r3, #8]
 2653 005c 9268     		ldr	r2, [r2, #8]
 2654 005e 9A42     		cmp	r2, r3
 2655 0060 0AD3     		bcc	.L243
 2656              	.L233:
 2657              	.LVL274:
 2658              	.LBB404:
 2659              	.LBB405:
 2660              	.LBB406:
 2661              		.loc 2 546 0
 2662 0062 0023     		movs	r3, #0
 2663              		.syntax unified
 2664              	@ 546 "../../lib/e-puck2_main-processor/ChibiOS//os/ext/CMSIS/include/core_cmFunc.h" 1
 2665 0064 83F31188 		MSR basepri, r3
 2666              	@ 0 "" 2
 2667              	.LVL275:
 2668              		.thumb
 2669              		.syntax unified
 2670              	.LBE406:
 2671              	.LBE405:
 2672              	.LBE404:
 2673              	.LBE403:
 2674              	.LBE402:
 2675              		.loc 1 544 0
 2676 0068 019A     		ldr	r2, [sp, #4]
 2677 006a 3B68     		ldr	r3, [r7]
 2678 006c 9A42     		cmp	r2, r3
 2679 006e 4046     		mov	r0, r8
ARM GAS  C:\Users\mathi\AppData\Local\Temp\ccDXreIU.s 			page 48


 2680 0070 06D1     		bne	.L244
 2681 0072 03B0     		add	sp, sp, #12
 2682              		.cfi_remember_state
 2683              		.cfi_def_cfa_offset 28
 2684              		@ sp needed
 2685 0074 BDE8F083 		pop	{r4, r5, r6, r7, r8, r9, pc}
 2686              	.LVL276:
 2687              	.L243:
 2688              		.cfi_restore_state
 2689              	.LBB408:
 2690              	.LBB407:
 2691              		.loc 3 367 0
 2692 0078 0448     		ldr	r0, .L245+8
 2693 007a FFF7FEFF 		bl	chSysHalt
 2694              	.LVL277:
 2695 007e F0E7     		b	.L233
 2696              	.L244:
 2697              	.LBE407:
 2698              	.LBE408:
 2699              		.loc 1 544 0
 2700 0080 FFF7FEFF 		bl	__stack_chk_fail
 2701              	.LVL278:
 2702              	.L246:
 2703              		.align	2
 2704              	.L245:
 2705 0084 00000000 		.word	__stack_chk_guard
 2706 0088 00000000 		.word	ch
 2707 008c 00000000 		.word	.LANCHOR1
 2708              		.cfi_endproc
 2709              	.LFE234:
 2710              		.size	chEvtWaitAnyTimeout, .-chEvtWaitAnyTimeout
 2711              		.section	.text.chEvtWaitAllTimeout,"ax",%progbits
 2712              		.align	1
 2713              		.p2align 4,,15
 2714              		.global	chEvtWaitAllTimeout
 2715              		.syntax unified
 2716              		.thumb
 2717              		.thumb_func
 2718              		.fpu fpv4-sp-d16
 2719              		.type	chEvtWaitAllTimeout, %function
 2720              	chEvtWaitAllTimeout:
 2721              	.LFB235:
 2722              		.loc 1 563 0
 2723              		.cfi_startproc
 2724              		@ args = 0, pretend = 0, frame = 8
 2725              		@ frame_needed = 0, uses_anonymous_args = 0
 2726              	.LVL279:
 2727 0000 2DE9F041 		push	{r4, r5, r6, r7, r8, lr}
 2728              		.cfi_def_cfa_offset 24
 2729              		.cfi_offset 4, -24
 2730              		.cfi_offset 5, -20
 2731              		.cfi_offset 6, -16
 2732              		.cfi_offset 7, -12
 2733              		.cfi_offset 8, -8
 2734              		.cfi_offset 14, -4
 2735 0004 284E     		ldr	r6, .L263
 2736              		.loc 1 564 0
ARM GAS  C:\Users\mathi\AppData\Local\Temp\ccDXreIU.s 			page 49


 2737 0006 294D     		ldr	r5, .L263+4
 2738              		.loc 1 563 0
 2739 0008 3368     		ldr	r3, [r6]
 2740              		.loc 1 564 0
 2741 000a AF69     		ldr	r7, [r5, #24]
 2742              	.LVL280:
 2743              		.loc 1 563 0
 2744 000c 82B0     		sub	sp, sp, #8
 2745              		.cfi_def_cfa_offset 32
 2746              		.loc 1 563 0
 2747 000e 0446     		mov	r4, r0
 2748 0010 0193     		str	r3, [sp, #4]
 2749 0012 8846     		mov	r8, r1
 2750              	.LBB429:
 2751              	.LBB430:
 2752              	.LBB431:
 2753              	.LBB432:
 2754              	.LBB433:
 2755              		.loc 2 546 0
 2756 0014 2023     		movs	r3, #32
 2757              		.syntax unified
 2758              	@ 546 "../../lib/e-puck2_main-processor/ChibiOS//os/ext/CMSIS/include/core_cmFunc.h" 1
 2759 0016 83F31188 		MSR basepri, r3
 2760              	@ 0 "" 2
 2761              	.LVL281:
 2762              		.thumb
 2763              		.syntax unified
 2764              	.LBE433:
 2765              	.LBE432:
 2766              	.LBE431:
 2767              		.loc 3 349 0
 2768 001a FFF7FEFF 		bl	_stats_start_measure_crit_thd
 2769              	.LVL282:
 2770              		.loc 3 350 0
 2771 001e FFF7FEFF 		bl	_dbg_check_lock
 2772              	.LVL283:
 2773              	.LBE430:
 2774              	.LBE429:
 2775              		.loc 1 567 0
 2776 0022 FB6B     		ldr	r3, [r7, #60]
 2777 0024 34EA0302 		bics	r2, r4, r3
 2778 0028 0AD0     		beq	.L248
 2779              		.loc 1 568 0
 2780 002a B8F1000F 		cmp	r8, #0
 2781 002e 21D0     		beq	.L252
 2782              		.loc 1 572 0
 2783 0030 BC62     		str	r4, [r7, #40]
 2784              		.loc 1 573 0
 2785 0032 4146     		mov	r1, r8
 2786 0034 0B20     		movs	r0, #11
 2787 0036 FFF7FEFF 		bl	chSchGoSleepTimeoutS
 2788              	.LVL284:
 2789 003a 0028     		cmp	r0, #0
 2790 003c 1ADB     		blt	.L252
 2791 003e FB6B     		ldr	r3, [r7, #60]
 2792              	.L248:
 2793              		.loc 1 578 0
ARM GAS  C:\Users\mathi\AppData\Local\Temp\ccDXreIU.s 			page 50


 2794 0040 23EA0403 		bic	r3, r3, r4
 2795 0044 FB63     		str	r3, [r7, #60]
 2796              	.LBB434:
 2797              	.LBB435:
 2798              		.loc 3 360 0
 2799 0046 FFF7FEFF 		bl	_dbg_check_unlock
 2800              	.LVL285:
 2801              		.loc 3 361 0
 2802 004a FFF7FEFF 		bl	_stats_stop_measure_crit_thd
 2803              	.LVL286:
 2804              		.loc 3 367 0
 2805 004e 2B68     		ldr	r3, [r5]
 2806 0050 AB42     		cmp	r3, r5
 2807 0052 04D0     		beq	.L254
 2808 0054 AA69     		ldr	r2, [r5, #24]
 2809 0056 9B68     		ldr	r3, [r3, #8]
 2810 0058 9268     		ldr	r2, [r2, #8]
 2811 005a 9A42     		cmp	r2, r3
 2812 005c 1DD3     		bcc	.L261
 2813              	.L254:
 2814              	.LVL287:
 2815              	.LBB436:
 2816              	.LBB437:
 2817              	.LBB438:
 2818              		.loc 2 546 0
 2819 005e 0023     		movs	r3, #0
 2820              		.syntax unified
 2821              	@ 546 "../../lib/e-puck2_main-processor/ChibiOS//os/ext/CMSIS/include/core_cmFunc.h" 1
 2822 0060 83F31188 		MSR basepri, r3
 2823              	@ 0 "" 2
 2824              	.LVL288:
 2825              		.thumb
 2826              		.syntax unified
 2827 0064 2046     		mov	r0, r4
 2828              	.L247:
 2829              	.LBE438:
 2830              	.LBE437:
 2831              	.LBE436:
 2832              	.LBE435:
 2833              	.LBE434:
 2834              		.loc 1 582 0
 2835 0066 019A     		ldr	r2, [sp, #4]
 2836 0068 3368     		ldr	r3, [r6]
 2837 006a 9A42     		cmp	r2, r3
 2838 006c 19D1     		bne	.L262
 2839 006e 02B0     		add	sp, sp, #8
 2840              		.cfi_remember_state
 2841              		.cfi_def_cfa_offset 24
 2842              		@ sp needed
 2843 0070 BDE8F081 		pop	{r4, r5, r6, r7, r8, pc}
 2844              	.LVL289:
 2845              	.L252:
 2846              		.cfi_restore_state
 2847              	.LBB440:
 2848              	.LBB441:
 2849              		.loc 3 360 0
 2850 0074 FFF7FEFF 		bl	_dbg_check_unlock
ARM GAS  C:\Users\mathi\AppData\Local\Temp\ccDXreIU.s 			page 51


 2851              	.LVL290:
 2852              		.loc 3 361 0
 2853 0078 FFF7FEFF 		bl	_stats_stop_measure_crit_thd
 2854              	.LVL291:
 2855              		.loc 3 367 0
 2856 007c 2B68     		ldr	r3, [r5]
 2857 007e AB42     		cmp	r3, r5
 2858 0080 07D0     		beq	.L253
 2859 0082 AA69     		ldr	r2, [r5, #24]
 2860 0084 9B68     		ldr	r3, [r3, #8]
 2861 0086 9268     		ldr	r2, [r2, #8]
 2862 0088 9A42     		cmp	r2, r3
 2863 008a 02D2     		bcs	.L253
 2864 008c 0848     		ldr	r0, .L263+8
 2865 008e FFF7FEFF 		bl	chSysHalt
 2866              	.LVL292:
 2867              	.L253:
 2868              	.LBB442:
 2869              	.LBB443:
 2870              	.LBB444:
 2871              		.loc 2 546 0
 2872 0092 0020     		movs	r0, #0
 2873              		.syntax unified
 2874              	@ 546 "../../lib/e-puck2_main-processor/ChibiOS//os/ext/CMSIS/include/core_cmFunc.h" 1
 2875 0094 80F31188 		MSR basepri, r0
 2876              	@ 0 "" 2
 2877              	.LVL293:
 2878              		.thumb
 2879              		.syntax unified
 2880 0098 E5E7     		b	.L247
 2881              	.L261:
 2882              	.LBE444:
 2883              	.LBE443:
 2884              	.LBE442:
 2885              	.LBE441:
 2886              	.LBE440:
 2887              	.LBB445:
 2888              	.LBB439:
 2889              		.loc 3 367 0
 2890 009a 0548     		ldr	r0, .L263+8
 2891 009c FFF7FEFF 		bl	chSysHalt
 2892              	.LVL294:
 2893 00a0 DDE7     		b	.L254
 2894              	.L262:
 2895              	.LBE439:
 2896              	.LBE445:
 2897              		.loc 1 582 0
 2898 00a2 FFF7FEFF 		bl	__stack_chk_fail
 2899              	.LVL295:
 2900              	.L264:
 2901 00a6 00BF     		.align	2
 2902              	.L263:
 2903 00a8 00000000 		.word	__stack_chk_guard
 2904 00ac 00000000 		.word	ch
 2905 00b0 00000000 		.word	.LANCHOR1
 2906              		.cfi_endproc
 2907              	.LFE235:
ARM GAS  C:\Users\mathi\AppData\Local\Temp\ccDXreIU.s 			page 52


 2908              		.size	chEvtWaitAllTimeout, .-chEvtWaitAllTimeout
 2909              		.section	.rodata.__func__.7153,"a",%progbits
 2910              		.align	2
 2911              		.set	.LANCHOR1,. + 0
 2912              		.type	__func__.7153, %object
 2913              		.size	__func__.7153, 12
 2914              	__func__.7153:
 2915 0000 63685379 		.ascii	"chSysUnlock\000"
 2915      73556E6C 
 2915      6F636B00 
 2916              		.section	.rodata.__func__.7852,"a",%progbits
 2917              		.align	2
 2918              		.set	.LANCHOR0,. + 0
 2919              		.type	__func__.7852, %object
 2920              		.size	__func__.7852, 27
 2921              	__func__.7852:
 2922 0000 63684576 		.ascii	"chEvtRegisterMaskWithFlags\000"
 2922      74526567 
 2922      69737465 
 2922      724D6173 
 2922      6B576974 
 2923              		.section	.rodata.__func__.7858,"a",%progbits
 2924              		.align	2
 2925              		.set	.LANCHOR2,. + 0
 2926              		.type	__func__.7858, %object
 2927              		.size	__func__.7858, 16
 2928              	__func__.7858:
 2929 0000 63684576 		.ascii	"chEvtUnregister\000"
 2929      74556E72 
 2929      65676973 
 2929      74657200 
 2930              		.section	.rodata.__func__.7874,"a",%progbits
 2931              		.align	2
 2932              		.set	.LANCHOR3,. + 0
 2933              		.type	__func__.7874, %object
 2934              		.size	__func__.7874, 21
 2935              	__func__.7874:
 2936 0000 63684576 		.ascii	"chEvtBroadcastFlagsI\000"
 2936      7442726F 
 2936      61646361 
 2936      7374466C 
 2936      61677349 
 2937              		.section	.rodata.__func__.7886,"a",%progbits
 2938              		.align	2
 2939              		.set	.LANCHOR5,. + 0
 2940              		.type	__func__.7886, %object
 2941              		.size	__func__.7886, 12
 2942              	__func__.7886:
 2943 0000 63684576 		.ascii	"chEvtSignal\000"
 2943      74536967 
 2943      6E616C00 
 2944              		.section	.rodata.__func__.7891,"a",%progbits
 2945              		.align	2
 2946              		.set	.LANCHOR4,. + 0
 2947              		.type	__func__.7891, %object
 2948              		.size	__func__.7891, 13
 2949              	__func__.7891:
ARM GAS  C:\Users\mathi\AppData\Local\Temp\ccDXreIU.s 			page 53


 2950 0000 63684576 		.ascii	"chEvtSignalI\000"
 2950      74536967 
 2950      6E616C49 
 2950      00
 2951              		.section	.rodata.__func__.7905,"a",%progbits
 2952              		.align	2
 2953              		.set	.LANCHOR6,. + 0
 2954              		.type	__func__.7905, %object
 2955              		.size	__func__.7905, 14
 2956              	__func__.7905:
 2957 0000 63684576 		.ascii	"chEvtDispatch\000"
 2957      74446973 
 2957      70617463 
 2957      6800
 2958              		.text
 2959              	.Letext0:
 2960              		.file 4 "c:\\eclipse_e-puck2\\tools\\gcc-arm-none-eabi-7-2017-q4-major-win32\\arm-none-eabi\\inclu
 2961              		.file 5 "c:\\eclipse_e-puck2\\tools\\gcc-arm-none-eabi-7-2017-q4-major-win32\\arm-none-eabi\\inclu
 2962              		.file 6 "../../lib/e-puck2_main-processor/ChibiOS//os/rt/ports/ARMCMx/compilers/GCC/chtypes.h"
 2963              		.file 7 "../../lib/e-puck2_main-processor/ChibiOS//os/rt/include/chsystypes.h"
 2964              		.file 8 "../../lib/e-puck2_main-processor/ChibiOS//os/rt/include/chschd.h"
 2965              		.file 9 "../../lib/e-puck2_main-processor/ChibiOS//os/ext/CMSIS/include/core_cm4.h"
 2966              		.file 10 "../../lib/e-puck2_main-processor/ChibiOS//os/ext/CMSIS/ST/system_stm32f4xx.h"
 2967              		.file 11 "../../lib/e-puck2_main-processor/ChibiOS//os/rt/ports/ARMCMx/chcore.h"
 2968              		.file 12 "../../lib/e-puck2_main-processor/ChibiOS//os/rt/ports/ARMCMx/chcore_v7m.h"
 2969              		.file 13 "../../lib/e-puck2_main-processor/ChibiOS//os/rt/include/chdebug.h"
 2970              		.file 14 "../../lib/e-puck2_main-processor/ChibiOS//os/rt/include/chtm.h"
 2971              		.file 15 "../../lib/e-puck2_main-processor/ChibiOS//os/rt/include/chstats.h"
 2972              		.file 16 "../../lib/e-puck2_main-processor/ChibiOS//os/rt/include/chsem.h"
 2973              		.file 17 "../../lib/e-puck2_main-processor/ChibiOS//os/rt/include/chmtx.h"
 2974              		.file 18 "../../lib/e-puck2_main-processor/ChibiOS//os/rt/include/chregistry.h"
 2975              		.file 19 "../../lib/e-puck2_main-processor/ChibiOS//os/rt/include/chevents.h"