ARM GAS  C:\Users\mathi\AppData\Local\Temp\ccBnzMKY.s 			page 1


   1              		.cpu cortex-m4
   2              		.eabi_attribute 27, 1
   3              		.eabi_attribute 28, 1
   4              		.eabi_attribute 20, 1
   5              		.eabi_attribute 21, 1
   6              		.eabi_attribute 23, 3
   7              		.eabi_attribute 24, 1
   8              		.eabi_attribute 25, 1
   9              		.eabi_attribute 26, 1
  10              		.eabi_attribute 30, 2
  11              		.eabi_attribute 34, 1
  12              		.eabi_attribute 18, 4
  13              		.file	"chheap.c"
  14              		.text
  15              	.Ltext0:
  16              		.cfi_sections	.debug_frame
  17              		.section	.text._heap_init,"ax",%progbits
  18              		.align	1
  19              		.p2align 4,,15
  20              		.global	_heap_init
  21              		.syntax unified
  22              		.thumb
  23              		.thumb_func
  24              		.fpu fpv4-sp-d16
  25              		.type	_heap_init, %function
  26              	_heap_init:
  27              	.LFB219:
  28              		.file 1 "../../lib/e-puck2_main-processor/ChibiOS//os/rt/src/chheap.c"
  29              		.loc 1 91 0
  30              		.cfi_startproc
  31              		@ args = 0, pretend = 0, frame = 8
  32              		@ frame_needed = 0, uses_anonymous_args = 0
  33 0000 00B5     		push	{lr}
  34              		.cfi_def_cfa_offset 4
  35              		.cfi_offset 14, -4
  36 0002 0B4B     		ldr	r3, .L7
  37              		.loc 1 93 0
  38 0004 0B48     		ldr	r0, .L7+4
  39              		.loc 1 91 0
  40 0006 1A68     		ldr	r2, [r3]
  41 0008 83B0     		sub	sp, sp, #12
  42              		.cfi_def_cfa_offset 16
  43              		.loc 1 91 0
  44 000a 0192     		str	r2, [sp, #4]
  45              		.loc 1 97 0
  46 000c 0199     		ldr	r1, [sp, #4]
  47 000e 1A68     		ldr	r2, [r3]
  48              		.loc 1 93 0
  49 0010 094B     		ldr	r3, .L7+8
  50 0012 0360     		str	r3, [r0]
  51              		.loc 1 97 0
  52 0014 9142     		cmp	r1, r2
  53              		.loc 1 94 0
  54 0016 4FF00003 		mov	r3, #0
  55              		.loc 1 95 0
  56 001a C0E90233 		strd	r3, r3, [r0, #8]
  57              		.loc 1 97 0
ARM GAS  C:\Users\mathi\AppData\Local\Temp\ccBnzMKY.s 			page 2


  58 001e 05D1     		bne	.L6
  59 0020 1030     		adds	r0, r0, #16
  60              		.loc 1 101 0
  61 0022 03B0     		add	sp, sp, #12
  62              		.cfi_remember_state
  63              		.cfi_def_cfa_offset 4
  64              		@ sp needed
  65 0024 5DF804EB 		ldr	lr, [sp], #4
  66              		.cfi_restore 14
  67              		.cfi_def_cfa_offset 0
  68              		.loc 1 97 0
  69 0028 FFF7FEBF 		b	chMtxObjectInit
  70              	.LVL0:
  71              	.L6:
  72              		.cfi_restore_state
  73 002c FFF7FEFF 		bl	__stack_chk_fail
  74              	.LVL1:
  75              	.L8:
  76              		.align	2
  77              	.L7:
  78 0030 00000000 		.word	__stack_chk_guard
  79 0034 00000000 		.word	.LANCHOR0
  80 0038 00000000 		.word	chCoreAlloc
  81              		.cfi_endproc
  82              	.LFE219:
  83              		.size	_heap_init, .-_heap_init
  84              		.section	.text.chHeapObjectInit,"ax",%progbits
  85              		.align	1
  86              		.p2align 4,,15
  87              		.global	chHeapObjectInit
  88              		.syntax unified
  89              		.thumb
  90              		.thumb_func
  91              		.fpu fpv4-sp-d16
  92              		.type	chHeapObjectInit, %function
  93              	chHeapObjectInit:
  94              	.LFB220:
  95              		.loc 1 114 0
  96              		.cfi_startproc
  97              		@ args = 0, pretend = 0, frame = 8
  98              		@ frame_needed = 0, uses_anonymous_args = 0
  99              	.LVL2:
 100 0000 F0B5     		push	{r4, r5, r6, r7, lr}
 101              		.cfi_def_cfa_offset 20
 102              		.cfi_offset 4, -20
 103              		.cfi_offset 5, -16
 104              		.cfi_offset 6, -12
 105              		.cfi_offset 7, -8
 106              		.cfi_offset 14, -4
 107 0002 114F     		ldr	r7, .L18
 108 0004 83B0     		sub	sp, sp, #12
 109              		.cfi_def_cfa_offset 32
 110              		.loc 1 114 0
 111 0006 3B68     		ldr	r3, [r7]
 112 0008 0193     		str	r3, [sp, #4]
 113              	.LVL3:
 114              		.loc 1 117 0
ARM GAS  C:\Users\mathi\AppData\Local\Temp\ccBnzMKY.s 			page 3


 115 000a 41EA0203 		orr	r3, r1, r2
 116 000e 5B07     		lsls	r3, r3, #29
 117              		.loc 1 114 0
 118 0010 0C46     		mov	r4, r1
 119 0012 1546     		mov	r5, r2
 120 0014 0646     		mov	r6, r0
 121              		.loc 1 117 0
 122 0016 02D0     		beq	.L10
 123              		.loc 1 117 0 is_stmt 0 discriminator 4
 124 0018 0C48     		ldr	r0, .L18+4
 125              	.LVL4:
 126 001a FFF7FEFF 		bl	chSysHalt
 127              	.LVL5:
 128              	.L10:
 129              		.loc 1 119 0 is_stmt 1
 130 001e 0023     		movs	r3, #0
 131 0020 3360     		str	r3, [r6]
 132              		.loc 1 121 0
 133 0022 F360     		str	r3, [r6, #12]
 134              		.loc 1 120 0
 135 0024 B460     		str	r4, [r6, #8]
 136              		.loc 1 122 0
 137 0026 2360     		str	r3, [r4]
 138              		.loc 1 125 0
 139 0028 019A     		ldr	r2, [sp, #4]
 140 002a 3B68     		ldr	r3, [r7]
 141              		.loc 1 123 0
 142 002c 083D     		subs	r5, r5, #8
 143              	.LVL6:
 144              		.loc 1 125 0
 145 002e 9A42     		cmp	r2, r3
 146              		.loc 1 123 0
 147 0030 6560     		str	r5, [r4, #4]
 148              		.loc 1 125 0
 149 0032 06D1     		bne	.L17
 150 0034 06F11000 		add	r0, r6, #16
 151              		.loc 1 129 0
 152 0038 03B0     		add	sp, sp, #12
 153              		.cfi_remember_state
 154              		.cfi_def_cfa_offset 20
 155              		@ sp needed
 156 003a BDE8F040 		pop	{r4, r5, r6, r7, lr}
 157              		.cfi_restore 14
 158              		.cfi_restore 7
 159              		.cfi_restore 6
 160              		.cfi_restore 5
 161              		.cfi_restore 4
 162              		.cfi_def_cfa_offset 0
 163              	.LVL7:
 164              		.loc 1 125 0
 165 003e FFF7FEBF 		b	chMtxObjectInit
 166              	.LVL8:
 167              	.L17:
 168              		.cfi_restore_state
 169 0042 FFF7FEFF 		bl	__stack_chk_fail
 170              	.LVL9:
 171              	.L19:
ARM GAS  C:\Users\mathi\AppData\Local\Temp\ccBnzMKY.s 			page 4


 172 0046 00BF     		.align	2
 173              	.L18:
 174 0048 00000000 		.word	__stack_chk_guard
 175 004c 00000000 		.word	.LANCHOR1
 176              		.cfi_endproc
 177              	.LFE220:
 178              		.size	chHeapObjectInit, .-chHeapObjectInit
 179              		.section	.text.chHeapAlloc,"ax",%progbits
 180              		.align	1
 181              		.p2align 4,,15
 182              		.global	chHeapAlloc
 183              		.syntax unified
 184              		.thumb
 185              		.thumb_func
 186              		.fpu fpv4-sp-d16
 187              		.type	chHeapAlloc, %function
 188              	chHeapAlloc:
 189              	.LFB221:
 190              		.loc 1 147 0
 191              		.cfi_startproc
 192              		@ args = 0, pretend = 0, frame = 8
 193              		@ frame_needed = 0, uses_anonymous_args = 0
 194              	.LVL10:
 195 0000 2DE9F041 		push	{r4, r5, r6, r7, r8, lr}
 196              		.cfi_def_cfa_offset 24
 197              		.cfi_offset 4, -24
 198              		.cfi_offset 5, -20
 199              		.cfi_offset 6, -16
 200              		.cfi_offset 7, -12
 201              		.cfi_offset 8, -8
 202              		.cfi_offset 14, -4
 203              		.loc 1 151 0
 204 0004 254E     		ldr	r6, .L38
 205              		.loc 1 147 0
 206 0006 264F     		ldr	r7, .L38+4
 207              		.loc 1 151 0
 208 0008 0028     		cmp	r0, #0
 209 000a 18BF     		it	ne
 210 000c 0646     		movne	r6, r0
 211              	.LVL11:
 212              		.loc 1 147 0
 213 000e 82B0     		sub	sp, sp, #8
 214              		.cfi_def_cfa_offset 32
 215              		.loc 1 157 0
 216 0010 06F11008 		add	r8, r6, #16
 217              		.loc 1 154 0
 218 0014 0731     		adds	r1, r1, #7
 219              	.LVL12:
 220              		.loc 1 147 0
 221 0016 3B68     		ldr	r3, [r7]
 222 0018 0193     		str	r3, [sp, #4]
 223              		.loc 1 157 0
 224 001a 4046     		mov	r0, r8
 225              		.loc 1 154 0
 226 001c 21F00705 		bic	r5, r1, #7
 227              	.LVL13:
 228              		.loc 1 155 0
ARM GAS  C:\Users\mathi\AppData\Local\Temp\ccBnzMKY.s 			page 5


 229 0020 06F10804 		add	r4, r6, #8
 230              	.LVL14:
 231              		.loc 1 157 0
 232 0024 FFF7FEFF 		bl	chMtxLock
 233              	.LVL15:
 234              		.loc 1 158 0
 235 0028 03E0     		b	.L22
 236              	.L26:
 237              	.LVL16:
 238              		.loc 1 160 0
 239 002a 4368     		ldr	r3, [r0, #4]
 240 002c AB42     		cmp	r3, r5
 241 002e 18D2     		bcs	.L36
 242 0030 0446     		mov	r4, r0
 243              	.LVL17:
 244              	.L22:
 245              		.loc 1 158 0
 246 0032 2068     		ldr	r0, [r4]
 247 0034 0028     		cmp	r0, #0
 248 0036 F8D1     		bne	.L26
 249              		.loc 1 186 0
 250 0038 4046     		mov	r0, r8
 251 003a FFF7FEFF 		bl	chMtxUnlock
 252              	.LVL18:
 253              		.loc 1 190 0
 254 003e 3368     		ldr	r3, [r6]
 255 0040 3BB3     		cbz	r3, .L28
 256              		.loc 1 191 0
 257 0042 05F10800 		add	r0, r5, #8
 258 0046 9847     		blx	r3
 259              	.LVL19:
 260              		.loc 1 192 0
 261 0048 18B3     		cbz	r0, .L28
 262              		.loc 1 194 0
 263 004a C0E90065 		strd	r6, r5, [r0]
 264              		.loc 1 195 0
 265 004e 00F10804 		add	r4, r0, #8
 266              	.LVL20:
 267              	.L20:
 268              		.loc 1 204 0
 269 0052 019A     		ldr	r2, [sp, #4]
 270 0054 3B68     		ldr	r3, [r7]
 271 0056 9A42     		cmp	r2, r3
 272 0058 2046     		mov	r0, r4
 273 005a 1CD1     		bne	.L37
 274 005c 02B0     		add	sp, sp, #8
 275              		.cfi_remember_state
 276              		.cfi_def_cfa_offset 24
 277              		@ sp needed
 278 005e BDE8F081 		pop	{r4, r5, r6, r7, r8, pc}
 279              	.LVL21:
 280              	.L36:
 281              		.cfi_restore_state
 282              		.loc 1 161 0
 283 0062 05F10802 		add	r2, r5, #8
 284 0066 9342     		cmp	r3, r2
 285 0068 0168     		ldr	r1, [r0]
ARM GAS  C:\Users\mathi\AppData\Local\Temp\ccBnzMKY.s 			page 6


 286 006a 07D2     		bcs	.L23
 287              		.loc 1 165 0
 288 006c 2160     		str	r1, [r4]
 289              	.L24:
 290              		.loc 1 177 0
 291 006e 0446     		mov	r4, r0
 292              	.LVL22:
 293              		.loc 1 178 0
 294 0070 4046     		mov	r0, r8
 295              	.LVL23:
 296              		.loc 1 177 0
 297 0072 44F8086B 		str	r6, [r4], #8
 298              	.LVL24:
 299              		.loc 1 178 0
 300 0076 FFF7FEFF 		bl	chMtxUnlock
 301              	.LVL25:
 302              		.loc 1 181 0
 303 007a EAE7     		b	.L20
 304              	.LVL26:
 305              	.L23:
 306              		.loc 1 172 0
 307 007c 8150     		str	r1, [r0, r2]
 308              		.loc 1 173 0
 309 007e 6FF00701 		mvn	r1, #7
 310 0082 4368     		ldr	r3, [r0, #4]
 311              		.loc 1 170 0
 312 0084 0244     		add	r2, r2, r0
 313              	.LVL27:
 314              		.loc 1 173 0
 315 0086 491B     		subs	r1, r1, r5
 316 0088 0B44     		add	r3, r3, r1
 317 008a 5360     		str	r3, [r2, #4]
 318              		.loc 1 174 0
 319 008c 2260     		str	r2, [r4]
 320              		.loc 1 175 0
 321 008e 4560     		str	r5, [r0, #4]
 322 0090 EDE7     		b	.L24
 323              	.LVL28:
 324              	.L28:
 325              		.loc 1 203 0
 326 0092 0024     		movs	r4, #0
 327              	.LVL29:
 328 0094 DDE7     		b	.L20
 329              	.L37:
 330              		.loc 1 204 0
 331 0096 FFF7FEFF 		bl	__stack_chk_fail
 332              	.LVL30:
 333              	.L39:
 334 009a 00BF     		.align	2
 335              	.L38:
 336 009c 00000000 		.word	.LANCHOR0
 337 00a0 00000000 		.word	__stack_chk_guard
 338              		.cfi_endproc
 339              	.LFE221:
 340              		.size	chHeapAlloc, .-chHeapAlloc
 341              		.section	.text.chHeapFree,"ax",%progbits
 342              		.align	1
ARM GAS  C:\Users\mathi\AppData\Local\Temp\ccBnzMKY.s 			page 7


 343              		.p2align 4,,15
 344              		.global	chHeapFree
 345              		.syntax unified
 346              		.thumb
 347              		.thumb_func
 348              		.fpu fpv4-sp-d16
 349              		.type	chHeapFree, %function
 350              	chHeapFree:
 351              	.LFB222:
 352              		.loc 1 213 0
 353              		.cfi_startproc
 354              		@ args = 0, pretend = 0, frame = 8
 355              		@ frame_needed = 0, uses_anonymous_args = 0
 356              	.LVL31:
 357 0000 2DE9F047 		push	{r4, r5, r6, r7, r8, r9, r10, lr}
 358              		.cfi_def_cfa_offset 32
 359              		.cfi_offset 4, -32
 360              		.cfi_offset 5, -28
 361              		.cfi_offset 6, -24
 362              		.cfi_offset 7, -20
 363              		.cfi_offset 8, -16
 364              		.cfi_offset 9, -12
 365              		.cfi_offset 10, -8
 366              		.cfi_offset 14, -4
 367 0004 2D4F     		ldr	r7, .L60
 368 0006 82B0     		sub	sp, sp, #8
 369              		.cfi_def_cfa_offset 40
 370              		.loc 1 213 0
 371 0008 3B68     		ldr	r3, [r7]
 372 000a 0193     		str	r3, [sp, #4]
 373              		.loc 1 217 0
 374 000c 8246     		mov	r10, r0
 375 000e 0028     		cmp	r0, #0
 376 0010 4ED0     		beq	.L55
 377              	.LVL32:
 378              	.L41:
 379              		.loc 1 222 0
 380 0012 5AF8083C 		ldr	r3, [r10, #-8]
 381              		.loc 1 227 0
 382 0016 DFF8A880 		ldr	r8, .L60+4
 383              		.loc 1 225 0
 384 001a 03F11006 		add	r6, r3, #16
 385 001e 3046     		mov	r0, r6
 386              		.loc 1 223 0
 387 0020 03F10809 		add	r9, r3, #8
 388              		.loc 1 225 0
 389 0024 FFF7FEFF 		bl	chMtxLock
 390              	.LVL33:
 391              		.loc 1 223 0
 392 0028 4C46     		mov	r4, r9
 393              		.loc 1 220 0
 394 002a AAF10805 		sub	r5, r10, #8
 395              	.LVL34:
 396              	.L42:
 397              		.loc 1 227 0 discriminator 1
 398 002e AC42     		cmp	r4, r5
 399 0030 04D8     		bhi	.L43
ARM GAS  C:\Users\mathi\AppData\Local\Temp\ccBnzMKY.s 			page 8


 400              		.loc 1 227 0 is_stmt 0 discriminator 2
 401 0032 6368     		ldr	r3, [r4, #4]
 402 0034 0833     		adds	r3, r3, #8
 403 0036 2344     		add	r3, r3, r4
 404 0038 9D42     		cmp	r5, r3
 405 003a 21D3     		bcc	.L56
 406              	.L43:
 407              		.loc 1 229 0 is_stmt 1
 408 003c 4C45     		cmp	r4, r9
 409 003e 2368     		ldr	r3, [r4]
 410 0040 01D0     		beq	.L44
 411              		.loc 1 229 0 is_stmt 0 discriminator 2
 412 0042 AC42     		cmp	r4, r5
 413 0044 02D2     		bcs	.L45
 414              	.L44:
 415              		.loc 1 229 0 discriminator 3
 416 0046 1BB1     		cbz	r3, .L46
 417              		.loc 1 230 0 is_stmt 1
 418 0048 9D42     		cmp	r5, r3
 419 004a 01D3     		bcc	.L46
 420              	.L45:
 421              		.loc 1 213 0 discriminator 1
 422 004c 1C46     		mov	r4, r3
 423              	.LVL35:
 424 004e EEE7     		b	.L42
 425              	.LVL36:
 426              	.L46:
 427              		.loc 1 232 0
 428 0050 4AF8083C 		str	r3, [r10, #-8]
 429              		.loc 1 233 0
 430 0054 2560     		str	r5, [r4]
 431              		.loc 1 235 0
 432 0056 5AE90232 		ldrd	r3, r2, [r10, #-8]
 433 005a 0AEB0200 		add	r0, r10, r2
 434 005e 9842     		cmp	r0, r3
 435 0060 12D0     		beq	.L57
 436              		.loc 1 240 0
 437 0062 6368     		ldr	r3, [r4, #4]
 438 0064 0833     		adds	r3, r3, #8
 439 0066 E118     		adds	r1, r4, r3
 440 0068 8D42     		cmp	r5, r1
 441 006a 1BD0     		beq	.L58
 442              	.L48:
 443              		.loc 1 249 0
 444 006c 019A     		ldr	r2, [sp, #4]
 445 006e 3B68     		ldr	r3, [r7]
 446 0070 9A42     		cmp	r2, r3
 447 0072 21D1     		bne	.L59
 448 0074 3046     		mov	r0, r6
 449              		.loc 1 252 0
 450 0076 02B0     		add	sp, sp, #8
 451              		.cfi_remember_state
 452              		.cfi_def_cfa_offset 32
 453              		@ sp needed
 454 0078 BDE8F047 		pop	{r4, r5, r6, r7, r8, r9, r10, lr}
 455              		.cfi_restore 14
 456              		.cfi_restore 10
ARM GAS  C:\Users\mathi\AppData\Local\Temp\ccBnzMKY.s 			page 9


 457              		.cfi_restore 9
 458              		.cfi_restore 8
 459              		.cfi_restore 7
 460              		.cfi_restore 6
 461              		.cfi_restore 5
 462              		.cfi_restore 4
 463              		.cfi_def_cfa_offset 0
 464              	.LVL37:
 465              		.loc 1 249 0
 466 007c FFF7FEBF 		b	chMtxUnlock
 467              	.LVL38:
 468              	.L56:
 469              		.cfi_restore_state
 470              		.loc 1 227 0 discriminator 3
 471 0080 4046     		mov	r0, r8
 472 0082 FFF7FEFF 		bl	chSysHalt
 473              	.LVL39:
 474 0086 D9E7     		b	.L43
 475              	.L57:
 476              		.loc 1 237 0
 477 0088 4168     		ldr	r1, [r0, #4]
 478 008a 02F10803 		add	r3, r2, #8
 479 008e 5A18     		adds	r2, r3, r1
 480 0090 4AF8042C 		str	r2, [r10, #-4]
 481              		.loc 1 238 0
 482 0094 0368     		ldr	r3, [r0]
 483 0096 4AF8083C 		str	r3, [r10, #-8]
 484              		.loc 1 240 0
 485 009a 6368     		ldr	r3, [r4, #4]
 486 009c 0833     		adds	r3, r3, #8
 487 009e E118     		adds	r1, r4, r3
 488 00a0 8D42     		cmp	r5, r1
 489 00a2 E3D1     		bne	.L48
 490              	.L58:
 491              		.loc 1 242 0
 492 00a4 1344     		add	r3, r3, r2
 493 00a6 6360     		str	r3, [r4, #4]
 494              		.loc 1 243 0
 495 00a8 5AF8083C 		ldr	r3, [r10, #-8]
 496 00ac 2360     		str	r3, [r4]
 497 00ae DDE7     		b	.L48
 498              	.LVL40:
 499              	.L55:
 500              		.loc 1 217 0 discriminator 2
 501 00b0 0348     		ldr	r0, .L60+4
 502              	.LVL41:
 503 00b2 FFF7FEFF 		bl	chSysHalt
 504              	.LVL42:
 505 00b6 ACE7     		b	.L41
 506              	.LVL43:
 507              	.L59:
 508              		.loc 1 249 0
 509 00b8 FFF7FEFF 		bl	__stack_chk_fail
 510              	.LVL44:
 511              	.L61:
 512              		.align	2
 513              	.L60:
ARM GAS  C:\Users\mathi\AppData\Local\Temp\ccBnzMKY.s 			page 10


 514 00bc 00000000 		.word	__stack_chk_guard
 515 00c0 00000000 		.word	.LANCHOR2
 516              		.cfi_endproc
 517              	.LFE222:
 518              		.size	chHeapFree, .-chHeapFree
 519              		.section	.text.chHeapStatus,"ax",%progbits
 520              		.align	1
 521              		.p2align 4,,15
 522              		.global	chHeapStatus
 523              		.syntax unified
 524              		.thumb
 525              		.thumb_func
 526              		.fpu fpv4-sp-d16
 527              		.type	chHeapStatus, %function
 528              	chHeapStatus:
 529              	.LFB223:
 530              		.loc 1 267 0
 531              		.cfi_startproc
 532              		@ args = 0, pretend = 0, frame = 8
 533              		@ frame_needed = 0, uses_anonymous_args = 0
 534              	.LVL45:
 535 0000 F0B5     		push	{r4, r5, r6, r7, lr}
 536              		.cfi_def_cfa_offset 20
 537              		.cfi_offset 4, -20
 538              		.cfi_offset 5, -16
 539              		.cfi_offset 6, -12
 540              		.cfi_offset 7, -8
 541              		.cfi_offset 14, -4
 542              		.loc 1 272 0
 543 0002 144C     		ldr	r4, .L75
 544              		.loc 1 267 0
 545 0004 144D     		ldr	r5, .L75+4
 546              		.loc 1 272 0
 547 0006 0028     		cmp	r0, #0
 548 0008 18BF     		it	ne
 549 000a 0446     		movne	r4, r0
 550              	.LVL46:
 551              		.loc 1 267 0
 552 000c 83B0     		sub	sp, sp, #12
 553              		.cfi_def_cfa_offset 32
 554              		.loc 1 275 0
 555 000e 04F11006 		add	r6, r4, #16
 556              		.loc 1 267 0
 557 0012 2B68     		ldr	r3, [r5]
 558 0014 0193     		str	r3, [sp, #4]
 559              		.loc 1 275 0
 560 0016 3046     		mov	r0, r6
 561              		.loc 1 267 0
 562 0018 0F46     		mov	r7, r1
 563              		.loc 1 275 0
 564 001a FFF7FEFF 		bl	chMtxLock
 565              	.LVL47:
 566              		.loc 1 279 0
 567 001e A368     		ldr	r3, [r4, #8]
 568 0020 9BB1     		cbz	r3, .L68
 569              		.loc 1 276 0
 570 0022 0022     		movs	r2, #0
ARM GAS  C:\Users\mathi\AppData\Local\Temp\ccBnzMKY.s 			page 11


 571              		.loc 1 277 0
 572 0024 1446     		mov	r4, r2
 573              	.LVL48:
 574              	.L65:
 575              		.loc 1 279 0
 576 0026 D3E90030 		ldrd	r3, r0, [r3]
 577              		.loc 1 281 0
 578 002a 0134     		adds	r4, r4, #1
 579              	.LVL49:
 580              		.loc 1 280 0
 581 002c 0244     		add	r2, r2, r0
 582              	.LVL50:
 583              		.loc 1 279 0
 584 002e 002B     		cmp	r3, #0
 585 0030 F9D1     		bne	.L65
 586              	.LVL51:
 587              	.L64:
 588              		.loc 1 284 0
 589 0032 07B1     		cbz	r7, .L66
 590              		.loc 1 285 0
 591 0034 3A60     		str	r2, [r7]
 592              	.L66:
 593              		.loc 1 287 0
 594 0036 3046     		mov	r0, r6
 595 0038 FFF7FEFF 		bl	chMtxUnlock
 596              	.LVL52:
 597              		.loc 1 290 0
 598 003c 019A     		ldr	r2, [sp, #4]
 599 003e 2B68     		ldr	r3, [r5]
 600 0040 9A42     		cmp	r2, r3
 601 0042 2046     		mov	r0, r4
 602 0044 04D1     		bne	.L74
 603 0046 03B0     		add	sp, sp, #12
 604              		.cfi_remember_state
 605              		.cfi_def_cfa_offset 20
 606              		@ sp needed
 607 0048 F0BD     		pop	{r4, r5, r6, r7, pc}
 608              	.LVL53:
 609              	.L68:
 610              		.cfi_restore_state
 611              		.loc 1 276 0
 612 004a 1A46     		mov	r2, r3
 613              		.loc 1 277 0
 614 004c 1C46     		mov	r4, r3
 615              	.LVL54:
 616 004e F0E7     		b	.L64
 617              	.LVL55:
 618              	.L74:
 619              		.loc 1 290 0
 620 0050 FFF7FEFF 		bl	__stack_chk_fail
 621              	.LVL56:
 622              	.L76:
 623              		.align	2
 624              	.L75:
 625 0054 00000000 		.word	.LANCHOR0
 626 0058 00000000 		.word	__stack_chk_guard
 627              		.cfi_endproc
ARM GAS  C:\Users\mathi\AppData\Local\Temp\ccBnzMKY.s 			page 12


 628              	.LFE223:
 629              		.size	chHeapStatus, .-chHeapStatus
 630              		.section	.bss.default_heap,"aw",%nobits
 631              		.align	3
 632              		.set	.LANCHOR0,. + 0
 633              		.type	default_heap, %object
 634              		.size	default_heap, 40
 635              	default_heap:
 636 0000 00000000 		.space	40
 636      00000000 
 636      00000000 
 636      00000000 
 636      00000000 
 637              		.section	.rodata.__func__.7856,"a",%progbits
 638              		.align	2
 639              		.set	.LANCHOR1,. + 0
 640              		.type	__func__.7856, %object
 641              		.size	__func__.7856, 17
 642              	__func__.7856:
 643 0000 63684865 		.ascii	"chHeapObjectInit\000"
 643      61704F62 
 643      6A656374 
 643      496E6974 
 643      00
 644              		.section	.rodata.__func__.7873,"a",%progbits
 645              		.align	2
 646              		.set	.LANCHOR2,. + 0
 647              		.type	__func__.7873, %object
 648              		.size	__func__.7873, 11
 649              	__func__.7873:
 650 0000 63684865 		.ascii	"chHeapFree\000"
 650      61704672 
 650      656500
 651              		.text
 652              	.Letext0:
 653              		.file 2 "c:\\eclipse_e-puck2\\tools\\gcc-arm-none-eabi-7-2017-q4-major-win32\\lib\\gcc\\arm-none-e
 654              		.file 3 "c:\\eclipse_e-puck2\\tools\\gcc-arm-none-eabi-7-2017-q4-major-win32\\arm-none-eabi\\inclu
 655              		.file 4 "c:\\eclipse_e-puck2\\tools\\gcc-arm-none-eabi-7-2017-q4-major-win32\\arm-none-eabi\\inclu
 656              		.file 5 "../../lib/e-puck2_main-processor/ChibiOS//os/rt/ports/ARMCMx/compilers/GCC/chtypes.h"
 657              		.file 6 "../../lib/e-puck2_main-processor/ChibiOS//os/rt/include/chsystypes.h"
 658              		.file 7 "../../lib/e-puck2_main-processor/ChibiOS//os/rt/include/chschd.h"
 659              		.file 8 "../../lib/e-puck2_main-processor/ChibiOS//os/ext/CMSIS/include/core_cm4.h"
 660              		.file 9 "../../lib/e-puck2_main-processor/ChibiOS//os/ext/CMSIS/ST/system_stm32f4xx.h"
 661              		.file 10 "../../lib/e-puck2_main-processor/ChibiOS//os/rt/ports/ARMCMx/chcore.h"
 662              		.file 11 "../../lib/e-puck2_main-processor/ChibiOS//os/rt/ports/ARMCMx/chcore_v7m.h"
 663              		.file 12 "../../lib/e-puck2_main-processor/ChibiOS//os/rt/include/chdebug.h"
 664              		.file 13 "../../lib/e-puck2_main-processor/ChibiOS//os/rt/include/chtm.h"
 665              		.file 14 "../../lib/e-puck2_main-processor/ChibiOS//os/rt/include/chstats.h"
 666              		.file 15 "../../lib/e-puck2_main-processor/ChibiOS//os/rt/include/chsem.h"
 667              		.file 16 "../../lib/e-puck2_main-processor/ChibiOS//os/rt/include/chmtx.h"
 668              		.file 17 "../../lib/e-puck2_main-processor/ChibiOS//os/rt/include/chregistry.h"
 669              		.file 18 "../../lib/e-puck2_main-processor/ChibiOS//os/rt/include/chmemcore.h"
 670              		.file 19 "../../lib/e-puck2_main-processor/ChibiOS//os/rt/include/chheap.h"
 671              		.file 20 "../../lib/e-puck2_main-processor/ChibiOS//os/rt/include/chsys.h"
 672              		.section	.debug_info,"",%progbits
 673              	.Ldebug_info0:
 674 0000 FC0D0000 		.4byte	0xdfc
ARM GAS  C:\Users\mathi\AppData\Local\Temp\ccBnzMKY.s 			page 13


 675 0004 0400     		.2byte	0x4
 676 0006 00000000 		.4byte	.Ldebug_abbrev0
 677 000a 04       		.byte	0x4
 678 000b 01       		.uleb128 0x1
 679 000c A8040000 		.4byte	.LASF180
 680 0010 0C       		.byte	0xc
 681 0011 12080000 		.4byte	.LASF181
 682 0015 AF020000 		.4byte	.LASF182
 683 0019 00000000 		.4byte	.Ldebug_ranges0+0
 684 001d 00000000 		.4byte	0
 685 0021 00000000 		.4byte	.Ldebug_line0
 686 0025 02       		.uleb128 0x2
 687 0026 04       		.byte	0x4
 688 0027 05       		.byte	0x5
 689 0028 696E7400 		.ascii	"int\000"
 690 002c 03       		.uleb128 0x3
 691 002d 24000000 		.4byte	.LASF4
 692 0031 02       		.byte	0x2
 693 0032 D8       		.byte	0xd8
 694 0033 37000000 		.4byte	0x37
 695 0037 04       		.uleb128 0x4
 696 0038 04       		.byte	0x4
 697 0039 07       		.byte	0x7
 698 003a 66020000 		.4byte	.LASF0
 699 003e 04       		.uleb128 0x4
 700 003f 08       		.byte	0x8
 701 0040 05       		.byte	0x5
 702 0041 2F020000 		.4byte	.LASF1
 703 0045 04       		.uleb128 0x4
 704 0046 08       		.byte	0x8
 705 0047 04       		.byte	0x4
 706 0048 0E040000 		.4byte	.LASF2
 707 004c 04       		.uleb128 0x4
 708 004d 01       		.byte	0x1
 709 004e 06       		.byte	0x6
 710 004f 43010000 		.4byte	.LASF3
 711 0053 03       		.uleb128 0x3
 712 0054 4D000000 		.4byte	.LASF5
 713 0058 03       		.byte	0x3
 714 0059 2B       		.byte	0x2b
 715 005a 5E000000 		.4byte	0x5e
 716 005e 04       		.uleb128 0x4
 717 005f 01       		.byte	0x1
 718 0060 08       		.byte	0x8
 719 0061 49060000 		.4byte	.LASF6
 720 0065 04       		.uleb128 0x4
 721 0066 02       		.byte	0x2
 722 0067 05       		.byte	0x5
 723 0068 6D060000 		.4byte	.LASF7
 724 006c 03       		.uleb128 0x3
 725 006d 8B070000 		.4byte	.LASF8
 726 0071 03       		.byte	0x3
 727 0072 39       		.byte	0x39
 728 0073 77000000 		.4byte	0x77
 729 0077 04       		.uleb128 0x4
 730 0078 02       		.byte	0x2
 731 0079 07       		.byte	0x7
ARM GAS  C:\Users\mathi\AppData\Local\Temp\ccBnzMKY.s 			page 14


 732 007a 25030000 		.4byte	.LASF9
 733 007e 03       		.uleb128 0x3
 734 007f AB030000 		.4byte	.LASF10
 735 0083 03       		.byte	0x3
 736 0084 4D       		.byte	0x4d
 737 0085 89000000 		.4byte	0x89
 738 0089 04       		.uleb128 0x4
 739 008a 04       		.byte	0x4
 740 008b 05       		.byte	0x5
 741 008c AE010000 		.4byte	.LASF11
 742 0090 03       		.uleb128 0x3
 743 0091 C9070000 		.4byte	.LASF12
 744 0095 03       		.byte	0x3
 745 0096 4F       		.byte	0x4f
 746 0097 9B000000 		.4byte	0x9b
 747 009b 04       		.uleb128 0x4
 748 009c 04       		.byte	0x4
 749 009d 07       		.byte	0x7
 750 009e 5A070000 		.4byte	.LASF13
 751 00a2 03       		.uleb128 0x3
 752 00a3 92040000 		.4byte	.LASF14
 753 00a7 03       		.byte	0x3
 754 00a8 69       		.byte	0x69
 755 00a9 AD000000 		.4byte	0xad
 756 00ad 04       		.uleb128 0x4
 757 00ae 08       		.byte	0x8
 758 00af 07       		.byte	0x7
 759 00b0 9C000000 		.4byte	.LASF15
 760 00b4 03       		.uleb128 0x3
 761 00b5 8E080000 		.4byte	.LASF16
 762 00b9 04       		.byte	0x4
 763 00ba 18       		.byte	0x18
 764 00bb 53000000 		.4byte	0x53
 765 00bf 03       		.uleb128 0x3
 766 00c0 7B020000 		.4byte	.LASF17
 767 00c4 04       		.byte	0x4
 768 00c5 24       		.byte	0x24
 769 00c6 6C000000 		.4byte	0x6c
 770 00ca 03       		.uleb128 0x3
 771 00cb 41060000 		.4byte	.LASF18
 772 00cf 04       		.byte	0x4
 773 00d0 2C       		.byte	0x2c
 774 00d1 7E000000 		.4byte	0x7e
 775 00d5 05       		.uleb128 0x5
 776 00d6 CA000000 		.4byte	0xca
 777 00da 03       		.uleb128 0x3
 778 00db 20070000 		.4byte	.LASF19
 779 00df 04       		.byte	0x4
 780 00e0 30       		.byte	0x30
 781 00e1 90000000 		.4byte	0x90
 782 00e5 03       		.uleb128 0x3
 783 00e6 37000000 		.4byte	.LASF20
 784 00ea 04       		.byte	0x4
 785 00eb 3C       		.byte	0x3c
 786 00ec A2000000 		.4byte	0xa2
 787 00f0 03       		.uleb128 0x3
 788 00f1 EF030000 		.4byte	.LASF21
ARM GAS  C:\Users\mathi\AppData\Local\Temp\ccBnzMKY.s 			page 15


 789 00f5 05       		.byte	0x5
 790 00f6 45       		.byte	0x45
 791 00f7 DA000000 		.4byte	0xda
 792 00fb 03       		.uleb128 0x3
 793 00fc 12010000 		.4byte	.LASF22
 794 0100 05       		.byte	0x5
 795 0101 46       		.byte	0x46
 796 0102 E5000000 		.4byte	0xe5
 797 0106 03       		.uleb128 0x3
 798 0107 9E060000 		.4byte	.LASF23
 799 010b 05       		.byte	0x5
 800 010c 48       		.byte	0x48
 801 010d B4000000 		.4byte	0xb4
 802 0111 03       		.uleb128 0x3
 803 0112 B7010000 		.4byte	.LASF24
 804 0116 05       		.byte	0x5
 805 0117 49       		.byte	0x49
 806 0118 B4000000 		.4byte	0xb4
 807 011c 03       		.uleb128 0x3
 808 011d EC050000 		.4byte	.LASF25
 809 0121 05       		.byte	0x5
 810 0122 4A       		.byte	0x4a
 811 0123 B4000000 		.4byte	0xb4
 812 0127 03       		.uleb128 0x3
 813 0128 94010000 		.4byte	.LASF26
 814 012c 05       		.byte	0x5
 815 012d 4B       		.byte	0x4b
 816 012e B4000000 		.4byte	0xb4
 817 0132 03       		.uleb128 0x3
 818 0133 20060000 		.4byte	.LASF27
 819 0137 05       		.byte	0x5
 820 0138 4C       		.byte	0x4c
 821 0139 DA000000 		.4byte	0xda
 822 013d 03       		.uleb128 0x3
 823 013e 5C030000 		.4byte	.LASF28
 824 0142 05       		.byte	0x5
 825 0143 4D       		.byte	0x4d
 826 0144 CA000000 		.4byte	0xca
 827 0148 03       		.uleb128 0x3
 828 0149 9F030000 		.4byte	.LASF29
 829 014d 05       		.byte	0x5
 830 014e 4F       		.byte	0x4f
 831 014f DA000000 		.4byte	0xda
 832 0153 03       		.uleb128 0x3
 833 0154 55020000 		.4byte	.LASF30
 834 0158 05       		.byte	0x5
 835 0159 51       		.byte	0x51
 836 015a CA000000 		.4byte	0xca
 837 015e 03       		.uleb128 0x3
 838 015f 67030000 		.4byte	.LASF31
 839 0163 05       		.byte	0x5
 840 0164 52       		.byte	0x52
 841 0165 DA000000 		.4byte	0xda
 842 0169 03       		.uleb128 0x3
 843 016a AB070000 		.4byte	.LASF32
 844 016e 06       		.byte	0x6
 845 016f 33       		.byte	0x33
ARM GAS  C:\Users\mathi\AppData\Local\Temp\ccBnzMKY.s 			page 16


 846 0170 DA000000 		.4byte	0xda
 847 0174 05       		.uleb128 0x5
 848 0175 69010000 		.4byte	0x169
 849 0179 03       		.uleb128 0x3
 850 017a 96070000 		.4byte	.LASF33
 851 017e 06       		.byte	0x6
 852 017f 3F       		.byte	0x3f
 853 0180 84010000 		.4byte	0x184
 854 0184 06       		.uleb128 0x6
 855 0185 47030000 		.4byte	.LASF57
 856 0189 68       		.byte	0x68
 857 018a 07       		.byte	0x7
 858 018b C2       		.byte	0xc2
 859 018c A2020000 		.4byte	0x2a2
 860 0190 07       		.uleb128 0x7
 861 0191 97060000 		.4byte	.LASF34
 862 0195 07       		.byte	0x7
 863 0196 C3       		.byte	0xc3
 864 0197 AD020000 		.4byte	0x2ad
 865 019b 00       		.byte	0
 866 019c 07       		.uleb128 0x7
 867 019d 19060000 		.4byte	.LASF35
 868 01a1 07       		.byte	0x7
 869 01a2 C5       		.byte	0xc5
 870 01a3 AD020000 		.4byte	0x2ad
 871 01a7 04       		.byte	0x4
 872 01a8 07       		.uleb128 0x7
 873 01a9 1B010000 		.4byte	.LASF36
 874 01ad 07       		.byte	0x7
 875 01ae C7       		.byte	0xc7
 876 01af 32010000 		.4byte	0x132
 877 01b3 08       		.byte	0x8
 878 01b4 07       		.uleb128 0x7
 879 01b5 60040000 		.4byte	.LASF37
 880 01b9 07       		.byte	0x7
 881 01ba C8       		.byte	0xc8
 882 01bb 26050000 		.4byte	0x526
 883 01bf 0C       		.byte	0xc
 884 01c0 07       		.uleb128 0x7
 885 01c1 DE010000 		.4byte	.LASF38
 886 01c5 07       		.byte	0x7
 887 01c6 CA       		.byte	0xca
 888 01c7 AD020000 		.4byte	0x2ad
 889 01cb 10       		.byte	0x10
 890 01cc 07       		.uleb128 0x7
 891 01cd 52040000 		.4byte	.LASF39
 892 01d1 07       		.byte	0x7
 893 01d2 CB       		.byte	0xcb
 894 01d3 AD020000 		.4byte	0x2ad
 895 01d7 14       		.byte	0x14
 896 01d8 07       		.uleb128 0x7
 897 01d9 C1080000 		.4byte	.LASF40
 898 01dd 07       		.byte	0x7
 899 01de D2       		.byte	0xd2
 900 01df 9C080000 		.4byte	0x89c
 901 01e3 18       		.byte	0x18
 902 01e4 07       		.uleb128 0x7
ARM GAS  C:\Users\mathi\AppData\Local\Temp\ccBnzMKY.s 			page 17


 903 01e5 5B020000 		.4byte	.LASF41
 904 01e9 07       		.byte	0x7
 905 01ea D8       		.byte	0xd8
 906 01eb B3080000 		.4byte	0x8b3
 907 01ef 1C       		.byte	0x1c
 908 01f0 07       		.uleb128 0x7
 909 01f1 77060000 		.4byte	.LASF42
 910 01f5 07       		.byte	0x7
 911 01f6 DD       		.byte	0xdd
 912 01f7 11010000 		.4byte	0x111
 913 01fb 20       		.byte	0x20
 914 01fc 07       		.uleb128 0x7
 915 01fd B5060000 		.4byte	.LASF43
 916 0201 07       		.byte	0x7
 917 0202 E1       		.byte	0xe1
 918 0203 06010000 		.4byte	0x106
 919 0207 21       		.byte	0x21
 920 0208 07       		.uleb128 0x7
 921 0209 70080000 		.4byte	.LASF44
 922 020d 07       		.byte	0x7
 923 020e E6       		.byte	0xe6
 924 020f 1C010000 		.4byte	0x11c
 925 0213 22       		.byte	0x22
 926 0214 07       		.uleb128 0x7
 927 0215 7F060000 		.4byte	.LASF45
 928 0219 07       		.byte	0x7
 929 021a EC       		.byte	0xec
 930 021b 27010000 		.4byte	0x127
 931 021f 23       		.byte	0x23
 932 0220 07       		.uleb128 0x7
 933 0221 94020000 		.4byte	.LASF46
 934 0225 07       		.byte	0x7
 935 0226 F3       		.byte	0xf3
 936 0227 74010000 		.4byte	0x174
 937 022b 24       		.byte	0x24
 938 022c 08       		.uleb128 0x8
 939 022d 705F7500 		.ascii	"p_u\000"
 940 0231 07       		.byte	0x7
 941 0232 3101     		.2byte	0x131
 942 0234 CB070000 		.4byte	0x7cb
 943 0238 28       		.byte	0x28
 944 0239 09       		.uleb128 0x9
 945 023a E5030000 		.4byte	.LASF47
 946 023e 07       		.byte	0x7
 947 023f 3601     		.2byte	0x136
 948 0241 B3020000 		.4byte	0x2b3
 949 0245 2C       		.byte	0x2c
 950 0246 09       		.uleb128 0x9
 951 0247 05030000 		.4byte	.LASF48
 952 024b 07       		.byte	0x7
 953 024c 3C01     		.2byte	0x13c
 954 024e D7020000 		.4byte	0x2d7
 955 0252 30       		.byte	0x30
 956 0253 09       		.uleb128 0x9
 957 0254 85070000 		.4byte	.LASF49
 958 0258 07       		.byte	0x7
 959 0259 4001     		.2byte	0x140
ARM GAS  C:\Users\mathi\AppData\Local\Temp\ccBnzMKY.s 			page 18


 960 025b 3D010000 		.4byte	0x13d
 961 025f 38       		.byte	0x38
 962 0260 09       		.uleb128 0x9
 963 0261 15070000 		.4byte	.LASF50
 964 0265 07       		.byte	0x7
 965 0266 4601     		.2byte	0x146
 966 0268 48010000 		.4byte	0x148
 967 026c 3C       		.byte	0x3c
 968 026d 09       		.uleb128 0x9
 969 026e 63060000 		.4byte	.LASF51
 970 0272 07       		.byte	0x7
 971 0273 4D01     		.2byte	0x14d
 972 0275 96080000 		.4byte	0x896
 973 0279 40       		.byte	0x40
 974 027a 09       		.uleb128 0x9
 975 027b B5070000 		.4byte	.LASF52
 976 027f 07       		.byte	0x7
 977 0280 5101     		.2byte	0x151
 978 0282 32010000 		.4byte	0x132
 979 0286 44       		.byte	0x44
 980 0287 09       		.uleb128 0x9
 981 0288 72010000 		.4byte	.LASF53
 982 028c 07       		.byte	0x7
 983 028d 5801     		.2byte	0x158
 984 028f 8A030000 		.4byte	0x38a
 985 0293 48       		.byte	0x48
 986 0294 09       		.uleb128 0x9
 987 0295 C6060000 		.4byte	.LASF54
 988 0299 07       		.byte	0x7
 989 029a 5E01     		.2byte	0x15e
 990 029c 7C070000 		.4byte	0x77c
 991 02a0 50       		.byte	0x50
 992 02a1 00       		.byte	0
 993 02a2 03       		.uleb128 0x3
 994 02a3 A1080000 		.4byte	.LASF55
 995 02a7 06       		.byte	0x6
 996 02a8 44       		.byte	0x44
 997 02a9 AD020000 		.4byte	0x2ad
 998 02ad 0A       		.uleb128 0xa
 999 02ae 04       		.byte	0x4
 1000 02af 79010000 		.4byte	0x179
 1001 02b3 03       		.uleb128 0x3
 1002 02b4 00000000 		.4byte	.LASF56
 1003 02b8 06       		.byte	0x6
 1004 02b9 49       		.byte	0x49
 1005 02ba BE020000 		.4byte	0x2be
 1006 02be 06       		.uleb128 0x6
 1007 02bf 3D070000 		.4byte	.LASF58
 1008 02c3 04       		.byte	0x4
 1009 02c4 07       		.byte	0x7
 1010 02c5 B0       		.byte	0xb0
 1011 02c6 D7020000 		.4byte	0x2d7
 1012 02ca 07       		.uleb128 0x7
 1013 02cb 97060000 		.4byte	.LASF34
 1014 02cf 07       		.byte	0x7
 1015 02d0 B1       		.byte	0xb1
 1016 02d1 AD020000 		.4byte	0x2ad
ARM GAS  C:\Users\mathi\AppData\Local\Temp\ccBnzMKY.s 			page 19


 1017 02d5 00       		.byte	0
 1018 02d6 00       		.byte	0
 1019 02d7 03       		.uleb128 0x3
 1020 02d8 CE060000 		.4byte	.LASF59
 1021 02dc 06       		.byte	0x6
 1022 02dd 50       		.byte	0x50
 1023 02de E2020000 		.4byte	0x2e2
 1024 02e2 06       		.uleb128 0x6
 1025 02e3 63000000 		.4byte	.LASF60
 1026 02e7 08       		.byte	0x8
 1027 02e8 07       		.byte	0x7
 1028 02e9 B7       		.byte	0xb7
 1029 02ea 07030000 		.4byte	0x307
 1030 02ee 07       		.uleb128 0x7
 1031 02ef 97060000 		.4byte	.LASF34
 1032 02f3 07       		.byte	0x7
 1033 02f4 B8       		.byte	0xb8
 1034 02f5 AD020000 		.4byte	0x2ad
 1035 02f9 00       		.byte	0
 1036 02fa 07       		.uleb128 0x7
 1037 02fb 19060000 		.4byte	.LASF35
 1038 02ff 07       		.byte	0x7
 1039 0300 B9       		.byte	0xb9
 1040 0301 AD020000 		.4byte	0x2ad
 1041 0305 04       		.byte	0x4
 1042 0306 00       		.byte	0
 1043 0307 03       		.uleb128 0x3
 1044 0308 0F000000 		.4byte	.LASF61
 1045 030c 06       		.byte	0x6
 1046 030d 57       		.byte	0x57
 1047 030e 12030000 		.4byte	0x312
 1048 0312 0B       		.uleb128 0xb
 1049 0313 91030000 		.4byte	.LASF62
 1050 0317 1C       		.byte	0x1c
 1051 0318 07       		.byte	0x7
 1052 0319 9001     		.2byte	0x190
 1053 031b 6E030000 		.4byte	0x36e
 1054 031f 09       		.uleb128 0x9
 1055 0320 35070000 		.4byte	.LASF63
 1056 0324 07       		.byte	0x7
 1057 0325 9101     		.2byte	0x191
 1058 0327 D7020000 		.4byte	0x2d7
 1059 032b 00       		.byte	0
 1060 032c 09       		.uleb128 0x9
 1061 032d 89060000 		.4byte	.LASF64
 1062 0331 07       		.byte	0x7
 1063 0332 9201     		.2byte	0x192
 1064 0334 32010000 		.4byte	0x132
 1065 0338 08       		.byte	0x8
 1066 0339 09       		.uleb128 0x9
 1067 033a 5A040000 		.4byte	.LASF65
 1068 033e 07       		.byte	0x7
 1069 033f 9401     		.2byte	0x194
 1070 0341 26050000 		.4byte	0x526
 1071 0345 0C       		.byte	0xc
 1072 0346 09       		.uleb128 0x9
 1073 0347 F6010000 		.4byte	.LASF66
ARM GAS  C:\Users\mathi\AppData\Local\Temp\ccBnzMKY.s 			page 20


 1074 034b 07       		.byte	0x7
 1075 034c 9701     		.2byte	0x197
 1076 034e AD020000 		.4byte	0x2ad
 1077 0352 10       		.byte	0x10
 1078 0353 09       		.uleb128 0x9
 1079 0354 8A040000 		.4byte	.LASF67
 1080 0358 07       		.byte	0x7
 1081 0359 9801     		.2byte	0x198
 1082 035b AD020000 		.4byte	0x2ad
 1083 035f 14       		.byte	0x14
 1084 0360 09       		.uleb128 0x9
 1085 0361 80040000 		.4byte	.LASF68
 1086 0365 07       		.byte	0x7
 1087 0366 9B01     		.2byte	0x19b
 1088 0368 AD020000 		.4byte	0x2ad
 1089 036c 18       		.byte	0x18
 1090 036d 00       		.byte	0
 1091 036e 03       		.uleb128 0x3
 1092 036f C0070000 		.4byte	.LASF69
 1093 0373 06       		.byte	0x6
 1094 0374 5C       		.byte	0x5c
 1095 0375 79030000 		.4byte	0x379
 1096 0379 0A       		.uleb128 0xa
 1097 037a 04       		.byte	0x4
 1098 037b 7F030000 		.4byte	0x37f
 1099 037f 0C       		.uleb128 0xc
 1100 0380 8A030000 		.4byte	0x38a
 1101 0384 0D       		.uleb128 0xd
 1102 0385 8A030000 		.4byte	0x38a
 1103 0389 00       		.byte	0
 1104 038a 0E       		.uleb128 0xe
 1105 038b 04       		.byte	0x4
 1106 038c 03       		.uleb128 0x3
 1107 038d 09060000 		.4byte	.LASF70
 1108 0391 06       		.byte	0x6
 1109 0392 61       		.byte	0x61
 1110 0393 97030000 		.4byte	0x397
 1111 0397 0B       		.uleb128 0xb
 1112 0398 ED070000 		.4byte	.LASF71
 1113 039c 14       		.byte	0x14
 1114 039d 07       		.byte	0x7
 1115 039e 6B01     		.2byte	0x16b
 1116 03a0 E6030000 		.4byte	0x3e6
 1117 03a4 09       		.uleb128 0x9
 1118 03a5 73020000 		.4byte	.LASF72
 1119 03a9 07       		.byte	0x7
 1120 03aa 6C01     		.2byte	0x16c
 1121 03ac B9080000 		.4byte	0x8b9
 1122 03b0 00       		.byte	0
 1123 03b1 09       		.uleb128 0x9
 1124 03b2 07020000 		.4byte	.LASF73
 1125 03b6 07       		.byte	0x7
 1126 03b7 6D01     		.2byte	0x16d
 1127 03b9 B9080000 		.4byte	0x8b9
 1128 03bd 04       		.byte	0x4
 1129 03be 09       		.uleb128 0x9
 1130 03bf 66040000 		.4byte	.LASF74
ARM GAS  C:\Users\mathi\AppData\Local\Temp\ccBnzMKY.s 			page 21


 1131 03c3 07       		.byte	0x7
 1132 03c4 6E01     		.2byte	0x16e
 1133 03c6 69010000 		.4byte	0x169
 1134 03ca 08       		.byte	0x8
 1135 03cb 09       		.uleb128 0x9
 1136 03cc 26090000 		.4byte	.LASF75
 1137 03d0 07       		.byte	0x7
 1138 03d1 6F01     		.2byte	0x16f
 1139 03d3 6E030000 		.4byte	0x36e
 1140 03d7 0C       		.byte	0xc
 1141 03d8 09       		.uleb128 0x9
 1142 03d9 0B080000 		.4byte	.LASF76
 1143 03dd 07       		.byte	0x7
 1144 03de 7101     		.2byte	0x171
 1145 03e0 8A030000 		.4byte	0x38a
 1146 03e4 10       		.byte	0x10
 1147 03e5 00       		.byte	0
 1148 03e6 03       		.uleb128 0x3
 1149 03e7 E3000000 		.4byte	.LASF77
 1150 03eb 06       		.byte	0x6
 1151 03ec 66       		.byte	0x66
 1152 03ed F1030000 		.4byte	0x3f1
 1153 03f1 0B       		.uleb128 0xb
 1154 03f2 F7030000 		.4byte	.LASF78
 1155 03f6 10       		.byte	0x10
 1156 03f7 07       		.byte	0x7
 1157 03f8 7B01     		.2byte	0x17b
 1158 03fa 33040000 		.4byte	0x433
 1159 03fe 09       		.uleb128 0x9
 1160 03ff 73020000 		.4byte	.LASF72
 1161 0403 07       		.byte	0x7
 1162 0404 7C01     		.2byte	0x17c
 1163 0406 B9080000 		.4byte	0x8b9
 1164 040a 00       		.byte	0
 1165 040b 09       		.uleb128 0x9
 1166 040c 07020000 		.4byte	.LASF73
 1167 0410 07       		.byte	0x7
 1168 0411 7E01     		.2byte	0x17e
 1169 0413 B9080000 		.4byte	0x8b9
 1170 0417 04       		.byte	0x4
 1171 0418 09       		.uleb128 0x9
 1172 0419 66040000 		.4byte	.LASF74
 1173 041d 07       		.byte	0x7
 1174 041e 8001     		.2byte	0x180
 1175 0420 69010000 		.4byte	0x169
 1176 0424 08       		.byte	0x8
 1177 0425 09       		.uleb128 0x9
 1178 0426 CD080000 		.4byte	.LASF79
 1179 042a 07       		.byte	0x7
 1180 042b 8201     		.2byte	0x182
 1181 042d 74010000 		.4byte	0x174
 1182 0431 0C       		.byte	0xc
 1183 0432 00       		.byte	0
 1184 0433 03       		.uleb128 0x3
 1185 0434 74000000 		.4byte	.LASF80
 1186 0438 06       		.byte	0x6
 1187 0439 6B       		.byte	0x6b
ARM GAS  C:\Users\mathi\AppData\Local\Temp\ccBnzMKY.s 			page 22


 1188 043a 3E040000 		.4byte	0x43e
 1189 043e 0F       		.uleb128 0xf
 1190 043f 19020000 		.4byte	.LASF81
 1191 0443 1404     		.2byte	0x414
 1192 0445 07       		.byte	0x7
 1193 0446 A201     		.2byte	0x1a2
 1194 0448 81040000 		.4byte	0x481
 1195 044c 09       		.uleb128 0x9
 1196 044d D4070000 		.4byte	.LASF82
 1197 0451 07       		.byte	0x7
 1198 0452 AA01     		.2byte	0x1aa
 1199 0454 A2080000 		.4byte	0x8a2
 1200 0458 00       		.byte	0
 1201 0459 09       		.uleb128 0x9
 1202 045a 77080000 		.4byte	.LASF83
 1203 045e 07       		.byte	0x7
 1204 045f AF01     		.2byte	0x1af
 1205 0461 53010000 		.4byte	0x153
 1206 0465 04       		.byte	0x4
 1207 0466 09       		.uleb128 0x9
 1208 0467 3D020000 		.4byte	.LASF84
 1209 046b 07       		.byte	0x7
 1210 046c B301     		.2byte	0x1b3
 1211 046e 53010000 		.4byte	0x153
 1212 0472 08       		.byte	0x8
 1213 0473 09       		.uleb128 0x9
 1214 0474 D8080000 		.4byte	.LASF85
 1215 0478 07       		.byte	0x7
 1216 0479 B901     		.2byte	0x1b9
 1217 047b 0E070000 		.4byte	0x70e
 1218 047f 0C       		.byte	0xc
 1219 0480 00       		.byte	0
 1220 0481 03       		.uleb128 0x3
 1221 0482 6E030000 		.4byte	.LASF86
 1222 0486 06       		.byte	0x6
 1223 0487 70       		.byte	0x70
 1224 0488 8C040000 		.4byte	0x48c
 1225 048c 0F       		.uleb128 0xf
 1226 048d A4010000 		.4byte	.LASF87
 1227 0491 7006     		.2byte	0x670
 1228 0493 07       		.byte	0x7
 1229 0494 C201     		.2byte	0x1c2
 1230 0496 F9040000 		.4byte	0x4f9
 1231 049a 09       		.uleb128 0x9
 1232 049b 88080000 		.4byte	.LASF88
 1233 049f 07       		.byte	0x7
 1234 04a0 C601     		.2byte	0x1c6
 1235 04a2 07030000 		.4byte	0x307
 1236 04a6 00       		.byte	0
 1237 04a7 09       		.uleb128 0x9
 1238 04a8 8D010000 		.4byte	.LASF89
 1239 04ac 07       		.byte	0x7
 1240 04ad CA01     		.2byte	0x1ca
 1241 04af E6030000 		.4byte	0x3e6
 1242 04b3 1C       		.byte	0x1c
 1243 04b4 08       		.uleb128 0x8
 1244 04b5 64626700 		.ascii	"dbg\000"
ARM GAS  C:\Users\mathi\AppData\Local\Temp\ccBnzMKY.s 			page 23


 1245 04b9 07       		.byte	0x7
 1246 04ba CE01     		.2byte	0x1ce
 1247 04bc 33040000 		.4byte	0x433
 1248 04c0 2C       		.byte	0x2c
 1249 04c1 10       		.uleb128 0x10
 1250 04c2 51030000 		.4byte	.LASF90
 1251 04c6 07       		.byte	0x7
 1252 04c7 D201     		.2byte	0x1d2
 1253 04c9 79010000 		.4byte	0x179
 1254 04cd 4004     		.2byte	0x440
 1255 04cf 11       		.uleb128 0x11
 1256 04d0 746D00   		.ascii	"tm\000"
 1257 04d3 07       		.byte	0x7
 1258 04d4 D701     		.2byte	0x1d7
 1259 04d6 2E070000 		.4byte	0x72e
 1260 04da A804     		.2byte	0x4a8
 1261 04dc 10       		.uleb128 0x10
 1262 04dd 40000000 		.4byte	.LASF91
 1263 04e1 07       		.byte	0x7
 1264 04e2 DD01     		.2byte	0x1dd
 1265 04e4 C0070000 		.4byte	0x7c0
 1266 04e8 B004     		.2byte	0x4b0
 1267 04ea 10       		.uleb128 0x10
 1268 04eb 46020000 		.4byte	.LASF92
 1269 04ef 07       		.byte	0x7
 1270 04f0 E301     		.2byte	0x1e3
 1271 04f2 BF080000 		.4byte	0x8bf
 1272 04f6 E804     		.2byte	0x4e8
 1273 04f8 00       		.byte	0
 1274 04f9 12       		.uleb128 0x12
 1275 04fa F9000000 		.4byte	.LASF93
 1276 04fe 08       		.byte	0x8
 1277 04ff A706     		.2byte	0x6a7
 1278 0501 D5000000 		.4byte	0xd5
 1279 0505 13       		.uleb128 0x13
 1280 0506 84020000 		.4byte	.LASF94
 1281 050a 09       		.byte	0x9
 1282 050b 4C       		.byte	0x4c
 1283 050c DA000000 		.4byte	0xda
 1284 0510 03       		.uleb128 0x3
 1285 0511 FE010000 		.4byte	.LASF95
 1286 0515 0A       		.byte	0xa
 1287 0516 65       		.byte	0x65
 1288 0517 8A030000 		.4byte	0x38a
 1289 051b 03       		.uleb128 0x3
 1290 051c B5030000 		.4byte	.LASF96
 1291 0520 0A       		.byte	0xa
 1292 0521 6D       		.byte	0x6d
 1293 0522 E5000000 		.4byte	0xe5
 1294 0526 06       		.uleb128 0x6
 1295 0527 E5070000 		.4byte	.LASF97
 1296 052b 04       		.byte	0x4
 1297 052c 0A       		.byte	0xa
 1298 052d 89       		.byte	0x89
 1299 052e 3F050000 		.4byte	0x53f
 1300 0532 14       		.uleb128 0x14
 1301 0533 72313300 		.ascii	"r13\000"
ARM GAS  C:\Users\mathi\AppData\Local\Temp\ccBnzMKY.s 			page 24


 1302 0537 0A       		.byte	0xa
 1303 0538 8A       		.byte	0x8a
 1304 0539 80060000 		.4byte	0x680
 1305 053d 00       		.byte	0
 1306 053e 00       		.byte	0
 1307 053f 06       		.uleb128 0x6
 1308 0540 57000000 		.4byte	.LASF98
 1309 0544 64       		.byte	0x64
 1310 0545 0B       		.byte	0xb
 1311 0546 F4       		.byte	0xf4
 1312 0547 80060000 		.4byte	0x680
 1313 054b 14       		.uleb128 0x14
 1314 054c 73313600 		.ascii	"s16\000"
 1315 0550 0B       		.byte	0xb
 1316 0551 F6       		.byte	0xf6
 1317 0552 10050000 		.4byte	0x510
 1318 0556 00       		.byte	0
 1319 0557 14       		.uleb128 0x14
 1320 0558 73313700 		.ascii	"s17\000"
 1321 055c 0B       		.byte	0xb
 1322 055d F7       		.byte	0xf7
 1323 055e 10050000 		.4byte	0x510
 1324 0562 04       		.byte	0x4
 1325 0563 14       		.uleb128 0x14
 1326 0564 73313800 		.ascii	"s18\000"
 1327 0568 0B       		.byte	0xb
 1328 0569 F8       		.byte	0xf8
 1329 056a 10050000 		.4byte	0x510
 1330 056e 08       		.byte	0x8
 1331 056f 14       		.uleb128 0x14
 1332 0570 73313900 		.ascii	"s19\000"
 1333 0574 0B       		.byte	0xb
 1334 0575 F9       		.byte	0xf9
 1335 0576 10050000 		.4byte	0x510
 1336 057a 0C       		.byte	0xc
 1337 057b 14       		.uleb128 0x14
 1338 057c 73323000 		.ascii	"s20\000"
 1339 0580 0B       		.byte	0xb
 1340 0581 FA       		.byte	0xfa
 1341 0582 10050000 		.4byte	0x510
 1342 0586 10       		.byte	0x10
 1343 0587 14       		.uleb128 0x14
 1344 0588 73323100 		.ascii	"s21\000"
 1345 058c 0B       		.byte	0xb
 1346 058d FB       		.byte	0xfb
 1347 058e 10050000 		.4byte	0x510
 1348 0592 14       		.byte	0x14
 1349 0593 14       		.uleb128 0x14
 1350 0594 73323200 		.ascii	"s22\000"
 1351 0598 0B       		.byte	0xb
 1352 0599 FC       		.byte	0xfc
 1353 059a 10050000 		.4byte	0x510
 1354 059e 18       		.byte	0x18
 1355 059f 14       		.uleb128 0x14
 1356 05a0 73323300 		.ascii	"s23\000"
 1357 05a4 0B       		.byte	0xb
 1358 05a5 FD       		.byte	0xfd
ARM GAS  C:\Users\mathi\AppData\Local\Temp\ccBnzMKY.s 			page 25


 1359 05a6 10050000 		.4byte	0x510
 1360 05aa 1C       		.byte	0x1c
 1361 05ab 14       		.uleb128 0x14
 1362 05ac 73323400 		.ascii	"s24\000"
 1363 05b0 0B       		.byte	0xb
 1364 05b1 FE       		.byte	0xfe
 1365 05b2 10050000 		.4byte	0x510
 1366 05b6 20       		.byte	0x20
 1367 05b7 14       		.uleb128 0x14
 1368 05b8 73323500 		.ascii	"s25\000"
 1369 05bc 0B       		.byte	0xb
 1370 05bd FF       		.byte	0xff
 1371 05be 10050000 		.4byte	0x510
 1372 05c2 24       		.byte	0x24
 1373 05c3 08       		.uleb128 0x8
 1374 05c4 73323600 		.ascii	"s26\000"
 1375 05c8 0B       		.byte	0xb
 1376 05c9 0001     		.2byte	0x100
 1377 05cb 10050000 		.4byte	0x510
 1378 05cf 28       		.byte	0x28
 1379 05d0 08       		.uleb128 0x8
 1380 05d1 73323700 		.ascii	"s27\000"
 1381 05d5 0B       		.byte	0xb
 1382 05d6 0101     		.2byte	0x101
 1383 05d8 10050000 		.4byte	0x510
 1384 05dc 2C       		.byte	0x2c
 1385 05dd 08       		.uleb128 0x8
 1386 05de 73323800 		.ascii	"s28\000"
 1387 05e2 0B       		.byte	0xb
 1388 05e3 0201     		.2byte	0x102
 1389 05e5 10050000 		.4byte	0x510
 1390 05e9 30       		.byte	0x30
 1391 05ea 08       		.uleb128 0x8
 1392 05eb 73323900 		.ascii	"s29\000"
 1393 05ef 0B       		.byte	0xb
 1394 05f0 0301     		.2byte	0x103
 1395 05f2 10050000 		.4byte	0x510
 1396 05f6 34       		.byte	0x34
 1397 05f7 08       		.uleb128 0x8
 1398 05f8 73333000 		.ascii	"s30\000"
 1399 05fc 0B       		.byte	0xb
 1400 05fd 0401     		.2byte	0x104
 1401 05ff 10050000 		.4byte	0x510
 1402 0603 38       		.byte	0x38
 1403 0604 08       		.uleb128 0x8
 1404 0605 73333100 		.ascii	"s31\000"
 1405 0609 0B       		.byte	0xb
 1406 060a 0501     		.2byte	0x105
 1407 060c 10050000 		.4byte	0x510
 1408 0610 3C       		.byte	0x3c
 1409 0611 08       		.uleb128 0x8
 1410 0612 723400   		.ascii	"r4\000"
 1411 0615 0B       		.byte	0xb
 1412 0616 0701     		.2byte	0x107
 1413 0618 10050000 		.4byte	0x510
 1414 061c 40       		.byte	0x40
 1415 061d 08       		.uleb128 0x8
ARM GAS  C:\Users\mathi\AppData\Local\Temp\ccBnzMKY.s 			page 26


 1416 061e 723500   		.ascii	"r5\000"
 1417 0621 0B       		.byte	0xb
 1418 0622 0801     		.2byte	0x108
 1419 0624 10050000 		.4byte	0x510
 1420 0628 44       		.byte	0x44
 1421 0629 08       		.uleb128 0x8
 1422 062a 723600   		.ascii	"r6\000"
 1423 062d 0B       		.byte	0xb
 1424 062e 0901     		.2byte	0x109
 1425 0630 10050000 		.4byte	0x510
 1426 0634 48       		.byte	0x48
 1427 0635 08       		.uleb128 0x8
 1428 0636 723700   		.ascii	"r7\000"
 1429 0639 0B       		.byte	0xb
 1430 063a 0A01     		.2byte	0x10a
 1431 063c 10050000 		.4byte	0x510
 1432 0640 4C       		.byte	0x4c
 1433 0641 08       		.uleb128 0x8
 1434 0642 723800   		.ascii	"r8\000"
 1435 0645 0B       		.byte	0xb
 1436 0646 0B01     		.2byte	0x10b
 1437 0648 10050000 		.4byte	0x510
 1438 064c 50       		.byte	0x50
 1439 064d 08       		.uleb128 0x8
 1440 064e 723900   		.ascii	"r9\000"
 1441 0651 0B       		.byte	0xb
 1442 0652 0C01     		.2byte	0x10c
 1443 0654 10050000 		.4byte	0x510
 1444 0658 54       		.byte	0x54
 1445 0659 08       		.uleb128 0x8
 1446 065a 72313000 		.ascii	"r10\000"
 1447 065e 0B       		.byte	0xb
 1448 065f 0D01     		.2byte	0x10d
 1449 0661 10050000 		.4byte	0x510
 1450 0665 58       		.byte	0x58
 1451 0666 08       		.uleb128 0x8
 1452 0667 72313100 		.ascii	"r11\000"
 1453 066b 0B       		.byte	0xb
 1454 066c 0E01     		.2byte	0x10e
 1455 066e 10050000 		.4byte	0x510
 1456 0672 5C       		.byte	0x5c
 1457 0673 08       		.uleb128 0x8
 1458 0674 6C7200   		.ascii	"lr\000"
 1459 0677 0B       		.byte	0xb
 1460 0678 0F01     		.2byte	0x10f
 1461 067a 10050000 		.4byte	0x510
 1462 067e 60       		.byte	0x60
 1463 067f 00       		.byte	0
 1464 0680 0A       		.uleb128 0xa
 1465 0681 04       		.byte	0x4
 1466 0682 3F050000 		.4byte	0x53f
 1467 0686 15       		.uleb128 0x15
 1468 0687 10       		.byte	0x10
 1469 0688 0C       		.byte	0xc
 1470 0689 51       		.byte	0x51
 1471 068a BF060000 		.4byte	0x6bf
 1472 068e 07       		.uleb128 0x7
ARM GAS  C:\Users\mathi\AppData\Local\Temp\ccBnzMKY.s 			page 27


 1473 068f 1C000000 		.4byte	.LASF99
 1474 0693 0C       		.byte	0xc
 1475 0694 55       		.byte	0x55
 1476 0695 69010000 		.4byte	0x169
 1477 0699 00       		.byte	0
 1478 069a 07       		.uleb128 0x7
 1479 069b CE010000 		.4byte	.LASF100
 1480 069f 0C       		.byte	0xc
 1481 06a0 59       		.byte	0x59
 1482 06a1 AD020000 		.4byte	0x2ad
 1483 06a5 04       		.byte	0x4
 1484 06a6 07       		.uleb128 0x7
 1485 06a7 0E090000 		.4byte	.LASF101
 1486 06ab 0C       		.byte	0xc
 1487 06ac 5D       		.byte	0x5d
 1488 06ad 8A030000 		.4byte	0x38a
 1489 06b1 08       		.byte	0x8
 1490 06b2 07       		.uleb128 0x7
 1491 06b3 7F080000 		.4byte	.LASF102
 1492 06b7 0C       		.byte	0xc
 1493 06b8 61       		.byte	0x61
 1494 06b9 B4000000 		.4byte	0xb4
 1495 06bd 0C       		.byte	0xc
 1496 06be 00       		.byte	0
 1497 06bf 03       		.uleb128 0x3
 1498 06c0 2D040000 		.4byte	.LASF103
 1499 06c4 0C       		.byte	0xc
 1500 06c5 62       		.byte	0x62
 1501 06c6 86060000 		.4byte	0x686
 1502 06ca 16       		.uleb128 0x16
 1503 06cb 0804     		.2byte	0x408
 1504 06cd 0C       		.byte	0xc
 1505 06ce 67       		.byte	0x67
 1506 06cf F8060000 		.4byte	0x6f8
 1507 06d3 07       		.uleb128 0x7
 1508 06d4 EE010000 		.4byte	.LASF104
 1509 06d8 0C       		.byte	0xc
 1510 06d9 6B       		.byte	0x6b
 1511 06da 37000000 		.4byte	0x37
 1512 06de 00       		.byte	0
 1513 06df 07       		.uleb128 0x7
 1514 06e0 26040000 		.4byte	.LASF105
 1515 06e4 0C       		.byte	0xc
 1516 06e5 6F       		.byte	0x6f
 1517 06e6 F8060000 		.4byte	0x6f8
 1518 06ea 04       		.byte	0x4
 1519 06eb 07       		.uleb128 0x7
 1520 06ec F4050000 		.4byte	.LASF106
 1521 06f0 0C       		.byte	0xc
 1522 06f1 73       		.byte	0x73
 1523 06f2 FE060000 		.4byte	0x6fe
 1524 06f6 08       		.byte	0x8
 1525 06f7 00       		.byte	0
 1526 06f8 0A       		.uleb128 0xa
 1527 06f9 04       		.byte	0x4
 1528 06fa BF060000 		.4byte	0x6bf
 1529 06fe 17       		.uleb128 0x17
ARM GAS  C:\Users\mathi\AppData\Local\Temp\ccBnzMKY.s 			page 28


 1530 06ff BF060000 		.4byte	0x6bf
 1531 0703 0E070000 		.4byte	0x70e
 1532 0707 18       		.uleb128 0x18
 1533 0708 37000000 		.4byte	0x37
 1534 070c 3F       		.byte	0x3f
 1535 070d 00       		.byte	0
 1536 070e 03       		.uleb128 0x3
 1537 070f B3000000 		.4byte	.LASF107
 1538 0713 0C       		.byte	0xc
 1539 0714 74       		.byte	0x74
 1540 0715 CA060000 		.4byte	0x6ca
 1541 0719 15       		.uleb128 0x15
 1542 071a 04       		.byte	0x4
 1543 071b 0D       		.byte	0xd
 1544 071c 38       		.byte	0x38
 1545 071d 2E070000 		.4byte	0x72e
 1546 0721 07       		.uleb128 0x7
 1547 0722 DE070000 		.4byte	.LASF108
 1548 0726 0D       		.byte	0xd
 1549 0727 3C       		.byte	0x3c
 1550 0728 F0000000 		.4byte	0xf0
 1551 072c 00       		.byte	0
 1552 072d 00       		.byte	0
 1553 072e 03       		.uleb128 0x3
 1554 072f 6F040000 		.4byte	.LASF109
 1555 0733 0D       		.byte	0xd
 1556 0734 3D       		.byte	0x3d
 1557 0735 19070000 		.4byte	0x719
 1558 0739 15       		.uleb128 0x15
 1559 073a 18       		.byte	0x18
 1560 073b 0D       		.byte	0xd
 1561 073c 48       		.byte	0x48
 1562 073d 7C070000 		.4byte	0x77c
 1563 0741 07       		.uleb128 0x7
 1564 0742 9F070000 		.4byte	.LASF110
 1565 0746 0D       		.byte	0xd
 1566 0747 49       		.byte	0x49
 1567 0748 F0000000 		.4byte	0xf0
 1568 074c 00       		.byte	0
 1569 074d 07       		.uleb128 0x7
 1570 074e 83000000 		.4byte	.LASF111
 1571 0752 0D       		.byte	0xd
 1572 0753 4A       		.byte	0x4a
 1573 0754 F0000000 		.4byte	0xf0
 1574 0758 04       		.byte	0x4
 1575 0759 07       		.uleb128 0x7
 1576 075a 62030000 		.4byte	.LASF112
 1577 075e 0D       		.byte	0xd
 1578 075f 4B       		.byte	0x4b
 1579 0760 F0000000 		.4byte	0xf0
 1580 0764 08       		.byte	0x8
 1581 0765 14       		.uleb128 0x14
 1582 0766 6E00     		.ascii	"n\000"
 1583 0768 0D       		.byte	0xd
 1584 0769 4C       		.byte	0x4c
 1585 076a 5E010000 		.4byte	0x15e
 1586 076e 0C       		.byte	0xc
ARM GAS  C:\Users\mathi\AppData\Local\Temp\ccBnzMKY.s 			page 29


 1587 076f 07       		.uleb128 0x7
 1588 0770 9D040000 		.4byte	.LASF113
 1589 0774 0D       		.byte	0xd
 1590 0775 4D       		.byte	0x4d
 1591 0776 FB000000 		.4byte	0xfb
 1592 077a 10       		.byte	0x10
 1593 077b 00       		.byte	0
 1594 077c 03       		.uleb128 0x3
 1595 077d 89000000 		.4byte	.LASF114
 1596 0781 0D       		.byte	0xd
 1597 0782 4E       		.byte	0x4e
 1598 0783 39070000 		.4byte	0x739
 1599 0787 15       		.uleb128 0x15
 1600 0788 38       		.byte	0x38
 1601 0789 0E       		.byte	0xe
 1602 078a 38       		.byte	0x38
 1603 078b C0070000 		.4byte	0x7c0
 1604 078f 07       		.uleb128 0x7
 1605 0790 19030000 		.4byte	.LASF115
 1606 0794 0E       		.byte	0xe
 1607 0795 39       		.byte	0x39
 1608 0796 5E010000 		.4byte	0x15e
 1609 079a 00       		.byte	0
 1610 079b 07       		.uleb128 0x7
 1611 079c 38060000 		.4byte	.LASF116
 1612 07a0 0E       		.byte	0xe
 1613 07a1 3A       		.byte	0x3a
 1614 07a2 5E010000 		.4byte	0x15e
 1615 07a6 04       		.byte	0x4
 1616 07a7 07       		.uleb128 0x7
 1617 07a8 FB080000 		.4byte	.LASF117
 1618 07ac 0E       		.byte	0xe
 1619 07ad 3B       		.byte	0x3b
 1620 07ae 7C070000 		.4byte	0x77c
 1621 07b2 08       		.byte	0x8
 1622 07b3 07       		.uleb128 0x7
 1623 07b4 86030000 		.4byte	.LASF118
 1624 07b8 0E       		.byte	0xe
 1625 07b9 3D       		.byte	0x3d
 1626 07ba 7C070000 		.4byte	0x77c
 1627 07be 20       		.byte	0x20
 1628 07bf 00       		.byte	0
 1629 07c0 03       		.uleb128 0x3
 1630 07c1 38030000 		.4byte	.LASF119
 1631 07c5 0E       		.byte	0xe
 1632 07c6 3F       		.byte	0x3f
 1633 07c7 87070000 		.4byte	0x787
 1634 07cb 19       		.uleb128 0x19
 1635 07cc 04       		.byte	0x4
 1636 07cd 07       		.byte	0x7
 1637 07ce FA       		.byte	0xfa
 1638 07cf 28080000 		.4byte	0x828
 1639 07d3 1A       		.uleb128 0x1a
 1640 07d4 30000000 		.4byte	.LASF120
 1641 07d8 07       		.byte	0x7
 1642 07d9 0101     		.2byte	0x101
 1643 07db 3D010000 		.4byte	0x13d
ARM GAS  C:\Users\mathi\AppData\Local\Temp\ccBnzMKY.s 			page 30


 1644 07df 1A       		.uleb128 0x1a
 1645 07e0 D3000000 		.4byte	.LASF121
 1646 07e4 07       		.byte	0x7
 1647 07e5 0801     		.2byte	0x108
 1648 07e7 3D010000 		.4byte	0x13d
 1649 07eb 1A       		.uleb128 0x1a
 1650 07ec B4080000 		.4byte	.LASF122
 1651 07f0 07       		.byte	0x7
 1652 07f1 0F01     		.2byte	0x10f
 1653 07f3 8A030000 		.4byte	0x38a
 1654 07f7 1A       		.uleb128 0x1a
 1655 07f8 9E010000 		.4byte	.LASF123
 1656 07fc 07       		.byte	0x7
 1657 07fd 1601     		.2byte	0x116
 1658 07ff 28080000 		.4byte	0x828
 1659 0803 1A       		.uleb128 0x1a
 1660 0804 9B020000 		.4byte	.LASF124
 1661 0808 07       		.byte	0x7
 1662 0809 1E01     		.2byte	0x11e
 1663 080b 53080000 		.4byte	0x853
 1664 080f 1A       		.uleb128 0x1a
 1665 0810 7E070000 		.4byte	.LASF125
 1666 0814 07       		.byte	0x7
 1667 0815 2701     		.2byte	0x127
 1668 0817 96080000 		.4byte	0x896
 1669 081b 1A       		.uleb128 0x1a
 1670 081c 90060000 		.4byte	.LASF126
 1671 0820 07       		.byte	0x7
 1672 0821 2F01     		.2byte	0x12f
 1673 0823 48010000 		.4byte	0x148
 1674 0827 00       		.byte	0
 1675 0828 0A       		.uleb128 0xa
 1676 0829 04       		.byte	0x4
 1677 082a A2020000 		.4byte	0x2a2
 1678 082e 06       		.uleb128 0x6
 1679 082f 08070000 		.4byte	.LASF127
 1680 0833 0C       		.byte	0xc
 1681 0834 0F       		.byte	0xf
 1682 0835 34       		.byte	0x34
 1683 0836 53080000 		.4byte	0x853
 1684 083a 07       		.uleb128 0x7
 1685 083b E6010000 		.4byte	.LASF128
 1686 083f 0F       		.byte	0xf
 1687 0840 35       		.byte	0x35
 1688 0841 D7020000 		.4byte	0x2d7
 1689 0845 00       		.byte	0
 1690 0846 07       		.uleb128 0x7
 1691 0847 1F030000 		.4byte	.LASF129
 1692 084b 0F       		.byte	0xf
 1693 084c 37       		.byte	0x37
 1694 084d 53010000 		.4byte	0x153
 1695 0851 08       		.byte	0x8
 1696 0852 00       		.byte	0
 1697 0853 0A       		.uleb128 0xa
 1698 0854 04       		.byte	0x4
 1699 0855 2E080000 		.4byte	0x82e
 1700 0859 06       		.uleb128 0x6
ARM GAS  C:\Users\mathi\AppData\Local\Temp\ccBnzMKY.s 			page 31


 1701 085a 67080000 		.4byte	.LASF130
 1702 085e 14       		.byte	0x14
 1703 085f 10       		.byte	0x10
 1704 0860 39       		.byte	0x39
 1705 0861 96080000 		.4byte	0x896
 1706 0865 07       		.uleb128 0x7
 1707 0866 7A010000 		.4byte	.LASF131
 1708 086a 10       		.byte	0x10
 1709 086b 3A       		.byte	0x3a
 1710 086c D7020000 		.4byte	0x2d7
 1711 0870 00       		.byte	0
 1712 0871 07       		.uleb128 0x7
 1713 0872 06090000 		.4byte	.LASF132
 1714 0876 10       		.byte	0x10
 1715 0877 3C       		.byte	0x3c
 1716 0878 AD020000 		.4byte	0x2ad
 1717 087c 08       		.byte	0x8
 1718 087d 07       		.uleb128 0x7
 1719 087e A4070000 		.4byte	.LASF133
 1720 0882 10       		.byte	0x10
 1721 0883 3E       		.byte	0x3e
 1722 0884 F1090000 		.4byte	0x9f1
 1723 0888 0C       		.byte	0xc
 1724 0889 07       		.uleb128 0x7
 1725 088a 29020000 		.4byte	.LASF134
 1726 088e 10       		.byte	0x10
 1727 088f 41       		.byte	0x41
 1728 0890 53010000 		.4byte	0x153
 1729 0894 10       		.byte	0x10
 1730 0895 00       		.byte	0
 1731 0896 0A       		.uleb128 0xa
 1732 0897 04       		.byte	0x4
 1733 0898 59080000 		.4byte	0x859
 1734 089c 0A       		.uleb128 0xa
 1735 089d 04       		.byte	0x4
 1736 089e AE080000 		.4byte	0x8ae
 1737 08a2 05       		.uleb128 0x5
 1738 08a3 9C080000 		.4byte	0x89c
 1739 08a7 04       		.uleb128 0x4
 1740 08a8 01       		.byte	0x1
 1741 08a9 08       		.byte	0x8
 1742 08aa 79070000 		.4byte	.LASF135
 1743 08ae 1B       		.uleb128 0x1b
 1744 08af A7080000 		.4byte	0x8a7
 1745 08b3 0A       		.uleb128 0xa
 1746 08b4 04       		.byte	0x4
 1747 08b5 1B050000 		.4byte	0x51b
 1748 08b9 0A       		.uleb128 0xa
 1749 08ba 04       		.byte	0x4
 1750 08bb 8C030000 		.4byte	0x38c
 1751 08bf 17       		.uleb128 0x17
 1752 08c0 1B050000 		.4byte	0x51b
 1753 08c4 CF080000 		.4byte	0x8cf
 1754 08c8 18       		.uleb128 0x18
 1755 08c9 37000000 		.4byte	0x37
 1756 08cd 30       		.byte	0x30
 1757 08ce 00       		.byte	0
ARM GAS  C:\Users\mathi\AppData\Local\Temp\ccBnzMKY.s 			page 32


 1758 08cf 1C       		.uleb128 0x1c
 1759 08d0 636800   		.ascii	"ch\000"
 1760 08d3 07       		.byte	0x7
 1761 08d4 0902     		.2byte	0x209
 1762 08d6 81040000 		.4byte	0x481
 1763 08da 15       		.uleb128 0x15
 1764 08db 16       		.byte	0x16
 1765 08dc 11       		.byte	0x11
 1766 08dd 34       		.byte	0x34
 1767 08de BB090000 		.4byte	0x9bb
 1768 08e2 07       		.uleb128 0x7
 1769 08e3 18090000 		.4byte	.LASF136
 1770 08e7 11       		.byte	0x11
 1771 08e8 35       		.byte	0x35
 1772 08e9 BB090000 		.4byte	0x9bb
 1773 08ed 00       		.byte	0
 1774 08ee 07       		.uleb128 0x7
 1775 08ef D1030000 		.4byte	.LASF137
 1776 08f3 11       		.byte	0x11
 1777 08f4 36       		.byte	0x36
 1778 08f5 B4000000 		.4byte	0xb4
 1779 08f9 04       		.byte	0x4
 1780 08fa 07       		.uleb128 0x7
 1781 08fb 4D070000 		.4byte	.LASF138
 1782 08ff 11       		.byte	0x11
 1783 0900 37       		.byte	0x37
 1784 0901 B4000000 		.4byte	0xb4
 1785 0905 05       		.byte	0x5
 1786 0906 07       		.uleb128 0x7
 1787 0907 F0080000 		.4byte	.LASF139
 1788 090b 11       		.byte	0x11
 1789 090c 38       		.byte	0x38
 1790 090d BF000000 		.4byte	0xbf
 1791 0911 06       		.byte	0x6
 1792 0912 07       		.uleb128 0x7
 1793 0913 FE050000 		.4byte	.LASF140
 1794 0917 11       		.byte	0x11
 1795 0918 39       		.byte	0x39
 1796 0919 B4000000 		.4byte	0xb4
 1797 091d 08       		.byte	0x8
 1798 091e 07       		.uleb128 0x7
 1799 091f 1A040000 		.4byte	.LASF141
 1800 0923 11       		.byte	0x11
 1801 0924 3A       		.byte	0x3a
 1802 0925 B4000000 		.4byte	0xb4
 1803 0929 09       		.byte	0x9
 1804 092a 07       		.uleb128 0x7
 1805 092b C5000000 		.4byte	.LASF142
 1806 092f 11       		.byte	0x11
 1807 0930 3B       		.byte	0x3b
 1808 0931 B4000000 		.4byte	0xb4
 1809 0935 0A       		.byte	0xa
 1810 0936 07       		.uleb128 0x7
 1811 0937 29070000 		.4byte	.LASF143
 1812 093b 11       		.byte	0x11
 1813 093c 3C       		.byte	0x3c
 1814 093d B4000000 		.4byte	0xb4
ARM GAS  C:\Users\mathi\AppData\Local\Temp\ccBnzMKY.s 			page 33


 1815 0941 0B       		.byte	0xb
 1816 0942 07       		.uleb128 0x7
 1817 0943 5C080000 		.4byte	.LASF144
 1818 0947 11       		.byte	0x11
 1819 0948 3D       		.byte	0x3d
 1820 0949 B4000000 		.4byte	0xb4
 1821 094d 0C       		.byte	0xc
 1822 094e 07       		.uleb128 0x7
 1823 094f EA060000 		.4byte	.LASF145
 1824 0953 11       		.byte	0x11
 1825 0954 3E       		.byte	0x3e
 1826 0955 B4000000 		.4byte	0xb4
 1827 0959 0D       		.byte	0xd
 1828 095a 07       		.uleb128 0x7
 1829 095b A2020000 		.4byte	.LASF146
 1830 095f 11       		.byte	0x11
 1831 0960 3F       		.byte	0x3f
 1832 0961 B4000000 		.4byte	0xb4
 1833 0965 0E       		.byte	0xe
 1834 0966 07       		.uleb128 0x7
 1835 0967 3C040000 		.4byte	.LASF147
 1836 096b 11       		.byte	0x11
 1837 096c 40       		.byte	0x40
 1838 096d B4000000 		.4byte	0xb4
 1839 0971 0F       		.byte	0xf
 1840 0972 07       		.uleb128 0x7
 1841 0973 55010000 		.4byte	.LASF148
 1842 0977 11       		.byte	0x11
 1843 0978 41       		.byte	0x41
 1844 0979 B4000000 		.4byte	0xb4
 1845 097d 10       		.byte	0x10
 1846 097e 07       		.uleb128 0x7
 1847 097f 22010000 		.4byte	.LASF149
 1848 0983 11       		.byte	0x11
 1849 0984 43       		.byte	0x43
 1850 0985 B4000000 		.4byte	0xb4
 1851 0989 11       		.byte	0x11
 1852 098a 07       		.uleb128 0x7
 1853 098b 65010000 		.4byte	.LASF150
 1854 098f 11       		.byte	0x11
 1855 0990 44       		.byte	0x44
 1856 0991 B4000000 		.4byte	0xb4
 1857 0995 12       		.byte	0x12
 1858 0996 07       		.uleb128 0x7
 1859 0997 D9030000 		.4byte	.LASF151
 1860 099b 11       		.byte	0x11
 1861 099c 45       		.byte	0x45
 1862 099d B4000000 		.4byte	0xb4
 1863 09a1 13       		.byte	0x13
 1864 09a2 07       		.uleb128 0x7
 1865 09a3 A6060000 		.4byte	.LASF152
 1866 09a7 11       		.byte	0x11
 1867 09a8 46       		.byte	0x46
 1868 09a9 B4000000 		.4byte	0xb4
 1869 09ad 14       		.byte	0x14
 1870 09ae 07       		.uleb128 0x7
 1871 09af 7A030000 		.4byte	.LASF153
ARM GAS  C:\Users\mathi\AppData\Local\Temp\ccBnzMKY.s 			page 34


 1872 09b3 11       		.byte	0x11
 1873 09b4 48       		.byte	0x48
 1874 09b5 B4000000 		.4byte	0xb4
 1875 09b9 15       		.byte	0x15
 1876 09ba 00       		.byte	0
 1877 09bb 17       		.uleb128 0x17
 1878 09bc A7080000 		.4byte	0x8a7
 1879 09c0 CB090000 		.4byte	0x9cb
 1880 09c4 18       		.uleb128 0x18
 1881 09c5 37000000 		.4byte	0x37
 1882 09c9 03       		.byte	0x3
 1883 09ca 00       		.byte	0
 1884 09cb 03       		.uleb128 0x3
 1885 09cc D4010000 		.4byte	.LASF154
 1886 09d0 11       		.byte	0x11
 1887 09d1 49       		.byte	0x49
 1888 09d2 DA080000 		.4byte	0x8da
 1889 09d6 1B       		.uleb128 0x1b
 1890 09d7 CB090000 		.4byte	0x9cb
 1891 09db 13       		.uleb128 0x13
 1892 09dc 10030000 		.4byte	.LASF155
 1893 09e0 11       		.byte	0x11
 1894 09e1 6E       		.byte	0x6e
 1895 09e2 D6090000 		.4byte	0x9d6
 1896 09e6 03       		.uleb128 0x3
 1897 09e7 2F010000 		.4byte	.LASF156
 1898 09eb 10       		.byte	0x10
 1899 09ec 34       		.byte	0x34
 1900 09ed 59080000 		.4byte	0x859
 1901 09f1 0A       		.uleb128 0xa
 1902 09f2 04       		.byte	0x4
 1903 09f3 E6090000 		.4byte	0x9e6
 1904 09f7 03       		.uleb128 0x3
 1905 09f8 FE070000 		.4byte	.LASF157
 1906 09fc 12       		.byte	0x12
 1907 09fd 36       		.byte	0x36
 1908 09fe 020A0000 		.4byte	0xa02
 1909 0a02 0A       		.uleb128 0xa
 1910 0a03 04       		.byte	0x4
 1911 0a04 080A0000 		.4byte	0xa08
 1912 0a08 1D       		.uleb128 0x1d
 1913 0a09 8A030000 		.4byte	0x38a
 1914 0a0d 170A0000 		.4byte	0xa17
 1915 0a11 0D       		.uleb128 0xd
 1916 0a12 2C000000 		.4byte	0x2c
 1917 0a16 00       		.byte	0
 1918 0a17 03       		.uleb128 0x3
 1919 0a18 C0010000 		.4byte	.LASF158
 1920 0a1c 13       		.byte	0x13
 1921 0a1d 3C       		.byte	0x3c
 1922 0a1e 220A0000 		.4byte	0xa22
 1923 0a22 06       		.uleb128 0x6
 1924 0a23 2E090000 		.4byte	.LASF159
 1925 0a27 28       		.byte	0x28
 1926 0a28 13       		.byte	0x13
 1927 0a29 4F       		.byte	0x4f
 1928 0a2a 530A0000 		.4byte	0xa53
ARM GAS  C:\Users\mathi\AppData\Local\Temp\ccBnzMKY.s 			page 35


 1929 0a2e 07       		.uleb128 0x7
 1930 0a2f 96080000 		.4byte	.LASF160
 1931 0a33 13       		.byte	0x13
 1932 0a34 50       		.byte	0x50
 1933 0a35 F7090000 		.4byte	0x9f7
 1934 0a39 00       		.byte	0
 1935 0a3a 07       		.uleb128 0x7
 1936 0a3b DC000000 		.4byte	.LASF161
 1937 0a3f 13       		.byte	0x13
 1938 0a40 52       		.byte	0x52
 1939 0a41 720A0000 		.4byte	0xa72
 1940 0a45 08       		.byte	0x8
 1941 0a46 07       		.uleb128 0x7
 1942 0a47 4F010000 		.4byte	.LASF162
 1943 0a4b 13       		.byte	0x13
 1944 0a4c 54       		.byte	0x54
 1945 0a4d E6090000 		.4byte	0x9e6
 1946 0a51 10       		.byte	0x10
 1947 0a52 00       		.byte	0
 1948 0a53 19       		.uleb128 0x19
 1949 0a54 04       		.byte	0x4
 1950 0a55 13       		.byte	0x13
 1951 0a56 44       		.byte	0x44
 1952 0a57 720A0000 		.4byte	0xa72
 1953 0a5b 1E       		.uleb128 0x1e
 1954 0a5c 2B000000 		.4byte	.LASF163
 1955 0a60 13       		.byte	0x13
 1956 0a61 45       		.byte	0x45
 1957 0a62 930A0000 		.4byte	0xa93
 1958 0a66 1E       		.uleb128 0x1e
 1959 0a67 55070000 		.4byte	.LASF164
 1960 0a6b 13       		.byte	0x13
 1961 0a6c 46       		.byte	0x46
 1962 0a6d 990A0000 		.4byte	0xa99
 1963 0a71 00       		.byte	0
 1964 0a72 1F       		.uleb128 0x1f
 1965 0a73 57060000 		.4byte	.LASF183
 1966 0a77 08       		.byte	0x8
 1967 0a78 13       		.byte	0x13
 1968 0a79 41       		.byte	0x41
 1969 0a7a 930A0000 		.4byte	0xa93
 1970 0a7e 1E       		.uleb128 0x1e
 1971 0a7f 0C010000 		.4byte	.LASF165
 1972 0a83 13       		.byte	0x13
 1973 0a84 42       		.byte	0x42
 1974 0a85 1B050000 		.4byte	0x51b
 1975 0a89 20       		.uleb128 0x20
 1976 0a8a 6800     		.ascii	"h\000"
 1977 0a8c 13       		.byte	0x13
 1978 0a8d 49       		.byte	0x49
 1979 0a8e 9F0A0000 		.4byte	0xa9f
 1980 0a92 00       		.byte	0
 1981 0a93 0A       		.uleb128 0xa
 1982 0a94 04       		.byte	0x4
 1983 0a95 720A0000 		.4byte	0xa72
 1984 0a99 0A       		.uleb128 0xa
 1985 0a9a 04       		.byte	0x4
ARM GAS  C:\Users\mathi\AppData\Local\Temp\ccBnzMKY.s 			page 36


 1986 0a9b 170A0000 		.4byte	0xa17
 1987 0a9f 15       		.uleb128 0x15
 1988 0aa0 08       		.byte	0x8
 1989 0aa1 13       		.byte	0x13
 1990 0aa2 43       		.byte	0x43
 1991 0aa3 BE0A0000 		.4byte	0xabe
 1992 0aa7 14       		.uleb128 0x14
 1993 0aa8 7500     		.ascii	"u\000"
 1994 0aaa 13       		.byte	0x13
 1995 0aab 47       		.byte	0x47
 1996 0aac 530A0000 		.4byte	0xa53
 1997 0ab0 00       		.byte	0
 1998 0ab1 07       		.uleb128 0x7
 1999 0ab2 C8080000 		.4byte	.LASF166
 2000 0ab6 13       		.byte	0x13
 2001 0ab7 48       		.byte	0x48
 2002 0ab8 2C000000 		.4byte	0x2c
 2003 0abc 04       		.byte	0x4
 2004 0abd 00       		.byte	0
 2005 0abe 21       		.uleb128 0x21
 2006 0abf 6C070000 		.4byte	.LASF169
 2007 0ac3 01       		.byte	0x1
 2008 0ac4 4C       		.byte	0x4c
 2009 0ac5 170A0000 		.4byte	0xa17
 2010 0ac9 05       		.uleb128 0x5
 2011 0aca 03       		.byte	0x3
 2012 0acb 00000000 		.4byte	default_heap
 2013 0acf 22       		.uleb128 0x22
 2014 0ad0 4F080000 		.4byte	.LASF170
 2015 0ad4 01       		.byte	0x1
 2016 0ad5 0B01     		.2byte	0x10b
 2017 0ad7 2C000000 		.4byte	0x2c
 2018 0adb 00000000 		.4byte	.LFB223
 2019 0adf 5C000000 		.4byte	.LFE223-.LFB223
 2020 0ae3 01       		.uleb128 0x1
 2021 0ae4 9C       		.byte	0x9c
 2022 0ae5 670B0000 		.4byte	0xb67
 2023 0ae9 23       		.uleb128 0x23
 2024 0aea 06010000 		.4byte	.LASF167
 2025 0aee 01       		.byte	0x1
 2026 0aef 0B01     		.2byte	0x10b
 2027 0af1 990A0000 		.4byte	0xa99
 2028 0af5 00000000 		.4byte	.LLST13
 2029 0af9 23       		.uleb128 0x23
 2030 0afa BB080000 		.4byte	.LASF168
 2031 0afe 01       		.byte	0x1
 2032 0aff 0B01     		.2byte	0x10b
 2033 0b01 670B0000 		.4byte	0xb67
 2034 0b05 43000000 		.4byte	.LLST14
 2035 0b09 24       		.uleb128 0x24
 2036 0b0a 717000   		.ascii	"qp\000"
 2037 0b0d 01       		.byte	0x1
 2038 0b0e 0C01     		.2byte	0x10c
 2039 0b10 930A0000 		.4byte	0xa93
 2040 0b14 61000000 		.4byte	.LLST15
 2041 0b18 24       		.uleb128 0x24
 2042 0b19 6E00     		.ascii	"n\000"
ARM GAS  C:\Users\mathi\AppData\Local\Temp\ccBnzMKY.s 			page 37


 2043 0b1b 01       		.byte	0x1
 2044 0b1c 0D01     		.2byte	0x10d
 2045 0b1e 2C000000 		.4byte	0x2c
 2046 0b22 9D000000 		.4byte	.LLST16
 2047 0b26 24       		.uleb128 0x24
 2048 0b27 737A00   		.ascii	"sz\000"
 2049 0b2a 01       		.byte	0x1
 2050 0b2b 0D01     		.2byte	0x10d
 2051 0b2d 2C000000 		.4byte	0x2c
 2052 0b31 E0000000 		.4byte	.LLST17
 2053 0b35 25       		.uleb128 0x25
 2054 0b36 1E000000 		.4byte	.LVL47
 2055 0b3a C90D0000 		.4byte	0xdc9
 2056 0b3e 490B0000 		.4byte	0xb49
 2057 0b42 26       		.uleb128 0x26
 2058 0b43 01       		.uleb128 0x1
 2059 0b44 50       		.byte	0x50
 2060 0b45 02       		.uleb128 0x2
 2061 0b46 76       		.byte	0x76
 2062 0b47 00       		.sleb128 0
 2063 0b48 00       		.byte	0
 2064 0b49 25       		.uleb128 0x25
 2065 0b4a 3C000000 		.4byte	.LVL52
 2066 0b4e D40D0000 		.4byte	0xdd4
 2067 0b52 5D0B0000 		.4byte	0xb5d
 2068 0b56 26       		.uleb128 0x26
 2069 0b57 01       		.uleb128 0x1
 2070 0b58 50       		.byte	0x50
 2071 0b59 02       		.uleb128 0x2
 2072 0b5a 76       		.byte	0x76
 2073 0b5b 00       		.sleb128 0
 2074 0b5c 00       		.byte	0
 2075 0b5d 27       		.uleb128 0x27
 2076 0b5e 54000000 		.4byte	.LVL56
 2077 0b62 DF0D0000 		.4byte	0xddf
 2078 0b66 00       		.byte	0
 2079 0b67 0A       		.uleb128 0xa
 2080 0b68 04       		.byte	0x4
 2081 0b69 2C000000 		.4byte	0x2c
 2082 0b6d 28       		.uleb128 0x28
 2083 0b6e 82010000 		.4byte	.LASF172
 2084 0b72 01       		.byte	0x1
 2085 0b73 D5       		.byte	0xd5
 2086 0b74 00000000 		.4byte	.LFB222
 2087 0b78 C4000000 		.4byte	.LFE222-.LFB222
 2088 0b7c 01       		.uleb128 0x1
 2089 0b7d 9C       		.byte	0x9c
 2090 0b7e 1B0C0000 		.4byte	0xc1b
 2091 0b82 29       		.uleb128 0x29
 2092 0b83 7000     		.ascii	"p\000"
 2093 0b85 01       		.byte	0x1
 2094 0b86 D5       		.byte	0xd5
 2095 0b87 8A030000 		.4byte	0x38a
 2096 0b8b 0B010000 		.4byte	.LLST9
 2097 0b8f 2A       		.uleb128 0x2a
 2098 0b90 717000   		.ascii	"qp\000"
 2099 0b93 01       		.byte	0x1
ARM GAS  C:\Users\mathi\AppData\Local\Temp\ccBnzMKY.s 			page 38


 2100 0b94 D6       		.byte	0xd6
 2101 0b95 930A0000 		.4byte	0xa93
 2102 0b99 58010000 		.4byte	.LLST10
 2103 0b9d 2A       		.uleb128 0x2a
 2104 0b9e 687000   		.ascii	"hp\000"
 2105 0ba1 01       		.byte	0x1
 2106 0ba2 D6       		.byte	0xd6
 2107 0ba3 930A0000 		.4byte	0xa93
 2108 0ba7 8C010000 		.4byte	.LLST11
 2109 0bab 2B       		.uleb128 0x2b
 2110 0bac 06010000 		.4byte	.LASF167
 2111 0bb0 01       		.byte	0x1
 2112 0bb1 D7       		.byte	0xd7
 2113 0bb2 990A0000 		.4byte	0xa99
 2114 0bb6 C5010000 		.4byte	.LLST12
 2115 0bba 2C       		.uleb128 0x2c
 2116 0bbb BD060000 		.4byte	.LASF174
 2117 0bbf 2B0C0000 		.4byte	0xc2b
 2118 0bc3 05       		.uleb128 0x5
 2119 0bc4 03       		.byte	0x3
 2120 0bc5 00000000 		.4byte	__func__.7873
 2121 0bc9 25       		.uleb128 0x25
 2122 0bca 28000000 		.4byte	.LVL33
 2123 0bce C90D0000 		.4byte	0xdc9
 2124 0bd2 DD0B0000 		.4byte	0xbdd
 2125 0bd6 26       		.uleb128 0x26
 2126 0bd7 01       		.uleb128 0x1
 2127 0bd8 50       		.byte	0x50
 2128 0bd9 02       		.uleb128 0x2
 2129 0bda 76       		.byte	0x76
 2130 0bdb 00       		.sleb128 0
 2131 0bdc 00       		.byte	0
 2132 0bdd 2D       		.uleb128 0x2d
 2133 0bde 80000000 		.4byte	.LVL38
 2134 0be2 D40D0000 		.4byte	0xdd4
 2135 0be6 25       		.uleb128 0x25
 2136 0be7 86000000 		.4byte	.LVL39
 2137 0beb E80D0000 		.4byte	0xde8
 2138 0bef FA0B0000 		.4byte	0xbfa
 2139 0bf3 26       		.uleb128 0x26
 2140 0bf4 01       		.uleb128 0x1
 2141 0bf5 50       		.byte	0x50
 2142 0bf6 02       		.uleb128 0x2
 2143 0bf7 78       		.byte	0x78
 2144 0bf8 00       		.sleb128 0
 2145 0bf9 00       		.byte	0
 2146 0bfa 25       		.uleb128 0x25
 2147 0bfb B6000000 		.4byte	.LVL42
 2148 0bff E80D0000 		.4byte	0xde8
 2149 0c03 110C0000 		.4byte	0xc11
 2150 0c07 26       		.uleb128 0x26
 2151 0c08 01       		.uleb128 0x1
 2152 0c09 50       		.byte	0x50
 2153 0c0a 05       		.uleb128 0x5
 2154 0c0b 03       		.byte	0x3
 2155 0c0c 00000000 		.4byte	.LANCHOR2
 2156 0c10 00       		.byte	0
ARM GAS  C:\Users\mathi\AppData\Local\Temp\ccBnzMKY.s 			page 39


 2157 0c11 27       		.uleb128 0x27
 2158 0c12 BC000000 		.4byte	.LVL44
 2159 0c16 DF0D0000 		.4byte	0xddf
 2160 0c1a 00       		.byte	0
 2161 0c1b 17       		.uleb128 0x17
 2162 0c1c AE080000 		.4byte	0x8ae
 2163 0c20 2B0C0000 		.4byte	0xc2b
 2164 0c24 18       		.uleb128 0x18
 2165 0c25 37000000 		.4byte	0x37
 2166 0c29 0A       		.byte	0xa
 2167 0c2a 00       		.byte	0
 2168 0c2b 1B       		.uleb128 0x1b
 2169 0c2c 1B0C0000 		.4byte	0xc1b
 2170 0c30 2E       		.uleb128 0x2e
 2171 0c31 DE060000 		.4byte	.LASF171
 2172 0c35 01       		.byte	0x1
 2173 0c36 93       		.byte	0x93
 2174 0c37 8A030000 		.4byte	0x38a
 2175 0c3b 00000000 		.4byte	.LFB221
 2176 0c3f A4000000 		.4byte	.LFE221-.LFB221
 2177 0c43 01       		.uleb128 0x1
 2178 0c44 9C       		.byte	0x9c
 2179 0c45 E70C0000 		.4byte	0xce7
 2180 0c49 2F       		.uleb128 0x2f
 2181 0c4a 06010000 		.4byte	.LASF167
 2182 0c4e 01       		.byte	0x1
 2183 0c4f 93       		.byte	0x93
 2184 0c50 990A0000 		.4byte	0xa99
 2185 0c54 01020000 		.4byte	.LLST4
 2186 0c58 2F       		.uleb128 0x2f
 2187 0c59 C8080000 		.4byte	.LASF166
 2188 0c5d 01       		.byte	0x1
 2189 0c5e 93       		.byte	0x93
 2190 0c5f 2C000000 		.4byte	0x2c
 2191 0c63 1F020000 		.4byte	.LLST5
 2192 0c67 2A       		.uleb128 0x2a
 2193 0c68 717000   		.ascii	"qp\000"
 2194 0c6b 01       		.byte	0x1
 2195 0c6c 94       		.byte	0x94
 2196 0c6d 930A0000 		.4byte	0xa93
 2197 0c71 4A020000 		.4byte	.LLST6
 2198 0c75 2A       		.uleb128 0x2a
 2199 0c76 687000   		.ascii	"hp\000"
 2200 0c79 01       		.byte	0x1
 2201 0c7a 94       		.byte	0x94
 2202 0c7b 930A0000 		.4byte	0xa93
 2203 0c7f 73020000 		.4byte	.LLST7
 2204 0c83 2A       		.uleb128 0x2a
 2205 0c84 667000   		.ascii	"fp\000"
 2206 0c87 01       		.byte	0x1
 2207 0c88 94       		.byte	0x94
 2208 0c89 930A0000 		.4byte	0xa93
 2209 0c8d BF020000 		.4byte	.LLST8
 2210 0c91 25       		.uleb128 0x25
 2211 0c92 28000000 		.4byte	.LVL15
 2212 0c96 C90D0000 		.4byte	0xdc9
 2213 0c9a A50C0000 		.4byte	0xca5
ARM GAS  C:\Users\mathi\AppData\Local\Temp\ccBnzMKY.s 			page 40


 2214 0c9e 26       		.uleb128 0x26
 2215 0c9f 01       		.uleb128 0x1
 2216 0ca0 50       		.byte	0x50
 2217 0ca1 02       		.uleb128 0x2
 2218 0ca2 78       		.byte	0x78
 2219 0ca3 00       		.sleb128 0
 2220 0ca4 00       		.byte	0
 2221 0ca5 25       		.uleb128 0x25
 2222 0ca6 3E000000 		.4byte	.LVL18
 2223 0caa D40D0000 		.4byte	0xdd4
 2224 0cae B90C0000 		.4byte	0xcb9
 2225 0cb2 26       		.uleb128 0x26
 2226 0cb3 01       		.uleb128 0x1
 2227 0cb4 50       		.byte	0x50
 2228 0cb5 02       		.uleb128 0x2
 2229 0cb6 78       		.byte	0x78
 2230 0cb7 00       		.sleb128 0
 2231 0cb8 00       		.byte	0
 2232 0cb9 30       		.uleb128 0x30
 2233 0cba 48000000 		.4byte	.LVL19
 2234 0cbe C90C0000 		.4byte	0xcc9
 2235 0cc2 26       		.uleb128 0x26
 2236 0cc3 01       		.uleb128 0x1
 2237 0cc4 50       		.byte	0x50
 2238 0cc5 02       		.uleb128 0x2
 2239 0cc6 75       		.byte	0x75
 2240 0cc7 08       		.sleb128 8
 2241 0cc8 00       		.byte	0
 2242 0cc9 25       		.uleb128 0x25
 2243 0cca 7A000000 		.4byte	.LVL25
 2244 0cce D40D0000 		.4byte	0xdd4
 2245 0cd2 DD0C0000 		.4byte	0xcdd
 2246 0cd6 26       		.uleb128 0x26
 2247 0cd7 01       		.uleb128 0x1
 2248 0cd8 50       		.byte	0x50
 2249 0cd9 02       		.uleb128 0x2
 2250 0cda 78       		.byte	0x78
 2251 0cdb 00       		.sleb128 0
 2252 0cdc 00       		.byte	0
 2253 0cdd 27       		.uleb128 0x27
 2254 0cde 9A000000 		.4byte	.LVL30
 2255 0ce2 DF0D0000 		.4byte	0xddf
 2256 0ce6 00       		.byte	0
 2257 0ce7 28       		.uleb128 0x28
 2258 0ce8 C0030000 		.4byte	.LASF173
 2259 0cec 01       		.byte	0x1
 2260 0ced 72       		.byte	0x72
 2261 0cee 00000000 		.4byte	.LFB220
 2262 0cf2 50000000 		.4byte	.LFE220-.LFB220
 2263 0cf6 01       		.uleb128 0x1
 2264 0cf7 9C       		.byte	0x9c
 2265 0cf8 7E0D0000 		.4byte	0xd7e
 2266 0cfc 2F       		.uleb128 0x2f
 2267 0cfd 06010000 		.4byte	.LASF167
 2268 0d01 01       		.byte	0x1
 2269 0d02 72       		.byte	0x72
 2270 0d03 990A0000 		.4byte	0xa99
ARM GAS  C:\Users\mathi\AppData\Local\Temp\ccBnzMKY.s 			page 41


 2271 0d07 D2020000 		.4byte	.LLST0
 2272 0d0b 29       		.uleb128 0x29
 2273 0d0c 62756600 		.ascii	"buf\000"
 2274 0d10 01       		.byte	0x1
 2275 0d11 72       		.byte	0x72
 2276 0d12 8A030000 		.4byte	0x38a
 2277 0d16 16030000 		.4byte	.LLST1
 2278 0d1a 2F       		.uleb128 0x2f
 2279 0d1b C8080000 		.4byte	.LASF166
 2280 0d1f 01       		.byte	0x1
 2281 0d20 72       		.byte	0x72
 2282 0d21 2C000000 		.4byte	0x2c
 2283 0d25 4D030000 		.4byte	.LLST2
 2284 0d29 2A       		.uleb128 0x2a
 2285 0d2a 687000   		.ascii	"hp\000"
 2286 0d2d 01       		.byte	0x1
 2287 0d2e 73       		.byte	0x73
 2288 0d2f 930A0000 		.4byte	0xa93
 2289 0d33 99030000 		.4byte	.LLST3
 2290 0d37 2C       		.uleb128 0x2c
 2291 0d38 BD060000 		.4byte	.LASF174
 2292 0d3c 8E0D0000 		.4byte	0xd8e
 2293 0d40 05       		.uleb128 0x5
 2294 0d41 03       		.byte	0x3
 2295 0d42 00000000 		.4byte	__func__.7856
 2296 0d46 25       		.uleb128 0x25
 2297 0d47 1E000000 		.4byte	.LVL5
 2298 0d4b E80D0000 		.4byte	0xde8
 2299 0d4f 5D0D0000 		.4byte	0xd5d
 2300 0d53 26       		.uleb128 0x26
 2301 0d54 01       		.uleb128 0x1
 2302 0d55 50       		.byte	0x50
 2303 0d56 05       		.uleb128 0x5
 2304 0d57 03       		.byte	0x3
 2305 0d58 00000000 		.4byte	.LANCHOR1
 2306 0d5c 00       		.byte	0
 2307 0d5d 31       		.uleb128 0x31
 2308 0d5e 42000000 		.4byte	.LVL8
 2309 0d62 F40D0000 		.4byte	0xdf4
 2310 0d66 740D0000 		.4byte	0xd74
 2311 0d6a 26       		.uleb128 0x26
 2312 0d6b 01       		.uleb128 0x1
 2313 0d6c 50       		.byte	0x50
 2314 0d6d 05       		.uleb128 0x5
 2315 0d6e F3       		.byte	0xf3
 2316 0d6f 01       		.uleb128 0x1
 2317 0d70 50       		.byte	0x50
 2318 0d71 23       		.byte	0x23
 2319 0d72 10       		.uleb128 0x10
 2320 0d73 00       		.byte	0
 2321 0d74 27       		.uleb128 0x27
 2322 0d75 46000000 		.4byte	.LVL9
 2323 0d79 DF0D0000 		.4byte	0xddf
 2324 0d7d 00       		.byte	0
 2325 0d7e 17       		.uleb128 0x17
 2326 0d7f AE080000 		.4byte	0x8ae
 2327 0d83 8E0D0000 		.4byte	0xd8e
ARM GAS  C:\Users\mathi\AppData\Local\Temp\ccBnzMKY.s 			page 42


 2328 0d87 18       		.uleb128 0x18
 2329 0d88 37000000 		.4byte	0x37
 2330 0d8c 10       		.byte	0x10
 2331 0d8d 00       		.byte	0
 2332 0d8e 1B       		.uleb128 0x1b
 2333 0d8f 7E0D0000 		.4byte	0xd7e
 2334 0d93 28       		.uleb128 0x28
 2335 0d94 E5080000 		.4byte	.LASF175
 2336 0d98 01       		.byte	0x1
 2337 0d99 5B       		.byte	0x5b
 2338 0d9a 00000000 		.4byte	.LFB219
 2339 0d9e 3C000000 		.4byte	.LFE219-.LFB219
 2340 0da2 01       		.uleb128 0x1
 2341 0da3 9C       		.byte	0x9c
 2342 0da4 C90D0000 		.4byte	0xdc9
 2343 0da8 31       		.uleb128 0x31
 2344 0da9 2C000000 		.4byte	.LVL0
 2345 0dad F40D0000 		.4byte	0xdf4
 2346 0db1 BF0D0000 		.4byte	0xdbf
 2347 0db5 26       		.uleb128 0x26
 2348 0db6 01       		.uleb128 0x1
 2349 0db7 50       		.byte	0x50
 2350 0db8 05       		.uleb128 0x5
 2351 0db9 03       		.byte	0x3
 2352 0dba 10000000 		.4byte	.LANCHOR0+16
 2353 0dbe 00       		.byte	0
 2354 0dbf 27       		.uleb128 0x27
 2355 0dc0 30000000 		.4byte	.LVL1
 2356 0dc4 DF0D0000 		.4byte	0xddf
 2357 0dc8 00       		.byte	0
 2358 0dc9 32       		.uleb128 0x32
 2359 0dca 48040000 		.4byte	.LASF176
 2360 0dce 48040000 		.4byte	.LASF176
 2361 0dd2 10       		.byte	0x10
 2362 0dd3 68       		.byte	0x68
 2363 0dd4 32       		.uleb128 0x32
 2364 0dd5 37010000 		.4byte	.LASF177
 2365 0dd9 37010000 		.4byte	.LASF177
 2366 0ddd 10       		.byte	0x10
 2367 0dde 6C       		.byte	0x6c
 2368 0ddf 33       		.uleb128 0x33
 2369 0de0 F7060000 		.4byte	.LASF184
 2370 0de4 F7060000 		.4byte	.LASF184
 2371 0de8 34       		.uleb128 0x34
 2372 0de9 0F020000 		.4byte	.LASF178
 2373 0ded 0F020000 		.4byte	.LASF178
 2374 0df1 14       		.byte	0x14
 2375 0df2 1601     		.2byte	0x116
 2376 0df4 32       		.uleb128 0x32
 2377 0df5 28060000 		.4byte	.LASF179
 2378 0df9 28060000 		.4byte	.LASF179
 2379 0dfd 10       		.byte	0x10
 2380 0dfe 67       		.byte	0x67
 2381 0dff 00       		.byte	0
 2382              		.section	.debug_abbrev,"",%progbits
 2383              	.Ldebug_abbrev0:
 2384 0000 01       		.uleb128 0x1
ARM GAS  C:\Users\mathi\AppData\Local\Temp\ccBnzMKY.s 			page 43


 2385 0001 11       		.uleb128 0x11
 2386 0002 01       		.byte	0x1
 2387 0003 25       		.uleb128 0x25
 2388 0004 0E       		.uleb128 0xe
 2389 0005 13       		.uleb128 0x13
 2390 0006 0B       		.uleb128 0xb
 2391 0007 03       		.uleb128 0x3
 2392 0008 0E       		.uleb128 0xe
 2393 0009 1B       		.uleb128 0x1b
 2394 000a 0E       		.uleb128 0xe
 2395 000b 55       		.uleb128 0x55
 2396 000c 17       		.uleb128 0x17
 2397 000d 11       		.uleb128 0x11
 2398 000e 01       		.uleb128 0x1
 2399 000f 10       		.uleb128 0x10
 2400 0010 17       		.uleb128 0x17
 2401 0011 00       		.byte	0
 2402 0012 00       		.byte	0
 2403 0013 02       		.uleb128 0x2
 2404 0014 24       		.uleb128 0x24
 2405 0015 00       		.byte	0
 2406 0016 0B       		.uleb128 0xb
 2407 0017 0B       		.uleb128 0xb
 2408 0018 3E       		.uleb128 0x3e
 2409 0019 0B       		.uleb128 0xb
 2410 001a 03       		.uleb128 0x3
 2411 001b 08       		.uleb128 0x8
 2412 001c 00       		.byte	0
 2413 001d 00       		.byte	0
 2414 001e 03       		.uleb128 0x3
 2415 001f 16       		.uleb128 0x16
 2416 0020 00       		.byte	0
 2417 0021 03       		.uleb128 0x3
 2418 0022 0E       		.uleb128 0xe
 2419 0023 3A       		.uleb128 0x3a
 2420 0024 0B       		.uleb128 0xb
 2421 0025 3B       		.uleb128 0x3b
 2422 0026 0B       		.uleb128 0xb
 2423 0027 49       		.uleb128 0x49
 2424 0028 13       		.uleb128 0x13
 2425 0029 00       		.byte	0
 2426 002a 00       		.byte	0
 2427 002b 04       		.uleb128 0x4
 2428 002c 24       		.uleb128 0x24
 2429 002d 00       		.byte	0
 2430 002e 0B       		.uleb128 0xb
 2431 002f 0B       		.uleb128 0xb
 2432 0030 3E       		.uleb128 0x3e
 2433 0031 0B       		.uleb128 0xb
 2434 0032 03       		.uleb128 0x3
 2435 0033 0E       		.uleb128 0xe
 2436 0034 00       		.byte	0
 2437 0035 00       		.byte	0
 2438 0036 05       		.uleb128 0x5
 2439 0037 35       		.uleb128 0x35
 2440 0038 00       		.byte	0
 2441 0039 49       		.uleb128 0x49
ARM GAS  C:\Users\mathi\AppData\Local\Temp\ccBnzMKY.s 			page 44


 2442 003a 13       		.uleb128 0x13
 2443 003b 00       		.byte	0
 2444 003c 00       		.byte	0
 2445 003d 06       		.uleb128 0x6
 2446 003e 13       		.uleb128 0x13
 2447 003f 01       		.byte	0x1
 2448 0040 03       		.uleb128 0x3
 2449 0041 0E       		.uleb128 0xe
 2450 0042 0B       		.uleb128 0xb
 2451 0043 0B       		.uleb128 0xb
 2452 0044 3A       		.uleb128 0x3a
 2453 0045 0B       		.uleb128 0xb
 2454 0046 3B       		.uleb128 0x3b
 2455 0047 0B       		.uleb128 0xb
 2456 0048 01       		.uleb128 0x1
 2457 0049 13       		.uleb128 0x13
 2458 004a 00       		.byte	0
 2459 004b 00       		.byte	0
 2460 004c 07       		.uleb128 0x7
 2461 004d 0D       		.uleb128 0xd
 2462 004e 00       		.byte	0
 2463 004f 03       		.uleb128 0x3
 2464 0050 0E       		.uleb128 0xe
 2465 0051 3A       		.uleb128 0x3a
 2466 0052 0B       		.uleb128 0xb
 2467 0053 3B       		.uleb128 0x3b
 2468 0054 0B       		.uleb128 0xb
 2469 0055 49       		.uleb128 0x49
 2470 0056 13       		.uleb128 0x13
 2471 0057 38       		.uleb128 0x38
 2472 0058 0B       		.uleb128 0xb
 2473 0059 00       		.byte	0
 2474 005a 00       		.byte	0
 2475 005b 08       		.uleb128 0x8
 2476 005c 0D       		.uleb128 0xd
 2477 005d 00       		.byte	0
 2478 005e 03       		.uleb128 0x3
 2479 005f 08       		.uleb128 0x8
 2480 0060 3A       		.uleb128 0x3a
 2481 0061 0B       		.uleb128 0xb
 2482 0062 3B       		.uleb128 0x3b
 2483 0063 05       		.uleb128 0x5
 2484 0064 49       		.uleb128 0x49
 2485 0065 13       		.uleb128 0x13
 2486 0066 38       		.uleb128 0x38
 2487 0067 0B       		.uleb128 0xb
 2488 0068 00       		.byte	0
 2489 0069 00       		.byte	0
 2490 006a 09       		.uleb128 0x9
 2491 006b 0D       		.uleb128 0xd
 2492 006c 00       		.byte	0
 2493 006d 03       		.uleb128 0x3
 2494 006e 0E       		.uleb128 0xe
 2495 006f 3A       		.uleb128 0x3a
 2496 0070 0B       		.uleb128 0xb
 2497 0071 3B       		.uleb128 0x3b
 2498 0072 05       		.uleb128 0x5
ARM GAS  C:\Users\mathi\AppData\Local\Temp\ccBnzMKY.s 			page 45


 2499 0073 49       		.uleb128 0x49
 2500 0074 13       		.uleb128 0x13
 2501 0075 38       		.uleb128 0x38
 2502 0076 0B       		.uleb128 0xb
 2503 0077 00       		.byte	0
 2504 0078 00       		.byte	0
 2505 0079 0A       		.uleb128 0xa
 2506 007a 0F       		.uleb128 0xf
 2507 007b 00       		.byte	0
 2508 007c 0B       		.uleb128 0xb
 2509 007d 0B       		.uleb128 0xb
 2510 007e 49       		.uleb128 0x49
 2511 007f 13       		.uleb128 0x13
 2512 0080 00       		.byte	0
 2513 0081 00       		.byte	0
 2514 0082 0B       		.uleb128 0xb
 2515 0083 13       		.uleb128 0x13
 2516 0084 01       		.byte	0x1
 2517 0085 03       		.uleb128 0x3
 2518 0086 0E       		.uleb128 0xe
 2519 0087 0B       		.uleb128 0xb
 2520 0088 0B       		.uleb128 0xb
 2521 0089 3A       		.uleb128 0x3a
 2522 008a 0B       		.uleb128 0xb
 2523 008b 3B       		.uleb128 0x3b
 2524 008c 05       		.uleb128 0x5
 2525 008d 01       		.uleb128 0x1
 2526 008e 13       		.uleb128 0x13
 2527 008f 00       		.byte	0
 2528 0090 00       		.byte	0
 2529 0091 0C       		.uleb128 0xc
 2530 0092 15       		.uleb128 0x15
 2531 0093 01       		.byte	0x1
 2532 0094 27       		.uleb128 0x27
 2533 0095 19       		.uleb128 0x19
 2534 0096 01       		.uleb128 0x1
 2535 0097 13       		.uleb128 0x13
 2536 0098 00       		.byte	0
 2537 0099 00       		.byte	0
 2538 009a 0D       		.uleb128 0xd
 2539 009b 05       		.uleb128 0x5
 2540 009c 00       		.byte	0
 2541 009d 49       		.uleb128 0x49
 2542 009e 13       		.uleb128 0x13
 2543 009f 00       		.byte	0
 2544 00a0 00       		.byte	0
 2545 00a1 0E       		.uleb128 0xe
 2546 00a2 0F       		.uleb128 0xf
 2547 00a3 00       		.byte	0
 2548 00a4 0B       		.uleb128 0xb
 2549 00a5 0B       		.uleb128 0xb
 2550 00a6 00       		.byte	0
 2551 00a7 00       		.byte	0
 2552 00a8 0F       		.uleb128 0xf
 2553 00a9 13       		.uleb128 0x13
 2554 00aa 01       		.byte	0x1
 2555 00ab 03       		.uleb128 0x3
ARM GAS  C:\Users\mathi\AppData\Local\Temp\ccBnzMKY.s 			page 46


 2556 00ac 0E       		.uleb128 0xe
 2557 00ad 0B       		.uleb128 0xb
 2558 00ae 05       		.uleb128 0x5
 2559 00af 3A       		.uleb128 0x3a
 2560 00b0 0B       		.uleb128 0xb
 2561 00b1 3B       		.uleb128 0x3b
 2562 00b2 05       		.uleb128 0x5
 2563 00b3 01       		.uleb128 0x1
 2564 00b4 13       		.uleb128 0x13
 2565 00b5 00       		.byte	0
 2566 00b6 00       		.byte	0
 2567 00b7 10       		.uleb128 0x10
 2568 00b8 0D       		.uleb128 0xd
 2569 00b9 00       		.byte	0
 2570 00ba 03       		.uleb128 0x3
 2571 00bb 0E       		.uleb128 0xe
 2572 00bc 3A       		.uleb128 0x3a
 2573 00bd 0B       		.uleb128 0xb
 2574 00be 3B       		.uleb128 0x3b
 2575 00bf 05       		.uleb128 0x5
 2576 00c0 49       		.uleb128 0x49
 2577 00c1 13       		.uleb128 0x13
 2578 00c2 38       		.uleb128 0x38
 2579 00c3 05       		.uleb128 0x5
 2580 00c4 00       		.byte	0
 2581 00c5 00       		.byte	0
 2582 00c6 11       		.uleb128 0x11
 2583 00c7 0D       		.uleb128 0xd
 2584 00c8 00       		.byte	0
 2585 00c9 03       		.uleb128 0x3
 2586 00ca 08       		.uleb128 0x8
 2587 00cb 3A       		.uleb128 0x3a
 2588 00cc 0B       		.uleb128 0xb
 2589 00cd 3B       		.uleb128 0x3b
 2590 00ce 05       		.uleb128 0x5
 2591 00cf 49       		.uleb128 0x49
 2592 00d0 13       		.uleb128 0x13
 2593 00d1 38       		.uleb128 0x38
 2594 00d2 05       		.uleb128 0x5
 2595 00d3 00       		.byte	0
 2596 00d4 00       		.byte	0
 2597 00d5 12       		.uleb128 0x12
 2598 00d6 34       		.uleb128 0x34
 2599 00d7 00       		.byte	0
 2600 00d8 03       		.uleb128 0x3
 2601 00d9 0E       		.uleb128 0xe
 2602 00da 3A       		.uleb128 0x3a
 2603 00db 0B       		.uleb128 0xb
 2604 00dc 3B       		.uleb128 0x3b
 2605 00dd 05       		.uleb128 0x5
 2606 00de 49       		.uleb128 0x49
 2607 00df 13       		.uleb128 0x13
 2608 00e0 3F       		.uleb128 0x3f
 2609 00e1 19       		.uleb128 0x19
 2610 00e2 3C       		.uleb128 0x3c
 2611 00e3 19       		.uleb128 0x19
 2612 00e4 00       		.byte	0
ARM GAS  C:\Users\mathi\AppData\Local\Temp\ccBnzMKY.s 			page 47


 2613 00e5 00       		.byte	0
 2614 00e6 13       		.uleb128 0x13
 2615 00e7 34       		.uleb128 0x34
 2616 00e8 00       		.byte	0
 2617 00e9 03       		.uleb128 0x3
 2618 00ea 0E       		.uleb128 0xe
 2619 00eb 3A       		.uleb128 0x3a
 2620 00ec 0B       		.uleb128 0xb
 2621 00ed 3B       		.uleb128 0x3b
 2622 00ee 0B       		.uleb128 0xb
 2623 00ef 49       		.uleb128 0x49
 2624 00f0 13       		.uleb128 0x13
 2625 00f1 3F       		.uleb128 0x3f
 2626 00f2 19       		.uleb128 0x19
 2627 00f3 3C       		.uleb128 0x3c
 2628 00f4 19       		.uleb128 0x19
 2629 00f5 00       		.byte	0
 2630 00f6 00       		.byte	0
 2631 00f7 14       		.uleb128 0x14
 2632 00f8 0D       		.uleb128 0xd
 2633 00f9 00       		.byte	0
 2634 00fa 03       		.uleb128 0x3
 2635 00fb 08       		.uleb128 0x8
 2636 00fc 3A       		.uleb128 0x3a
 2637 00fd 0B       		.uleb128 0xb
 2638 00fe 3B       		.uleb128 0x3b
 2639 00ff 0B       		.uleb128 0xb
 2640 0100 49       		.uleb128 0x49
 2641 0101 13       		.uleb128 0x13
 2642 0102 38       		.uleb128 0x38
 2643 0103 0B       		.uleb128 0xb
 2644 0104 00       		.byte	0
 2645 0105 00       		.byte	0
 2646 0106 15       		.uleb128 0x15
 2647 0107 13       		.uleb128 0x13
 2648 0108 01       		.byte	0x1
 2649 0109 0B       		.uleb128 0xb
 2650 010a 0B       		.uleb128 0xb
 2651 010b 3A       		.uleb128 0x3a
 2652 010c 0B       		.uleb128 0xb
 2653 010d 3B       		.uleb128 0x3b
 2654 010e 0B       		.uleb128 0xb
 2655 010f 01       		.uleb128 0x1
 2656 0110 13       		.uleb128 0x13
 2657 0111 00       		.byte	0
 2658 0112 00       		.byte	0
 2659 0113 16       		.uleb128 0x16
 2660 0114 13       		.uleb128 0x13
 2661 0115 01       		.byte	0x1
 2662 0116 0B       		.uleb128 0xb
 2663 0117 05       		.uleb128 0x5
 2664 0118 3A       		.uleb128 0x3a
 2665 0119 0B       		.uleb128 0xb
 2666 011a 3B       		.uleb128 0x3b
 2667 011b 0B       		.uleb128 0xb
 2668 011c 01       		.uleb128 0x1
 2669 011d 13       		.uleb128 0x13
ARM GAS  C:\Users\mathi\AppData\Local\Temp\ccBnzMKY.s 			page 48


 2670 011e 00       		.byte	0
 2671 011f 00       		.byte	0
 2672 0120 17       		.uleb128 0x17
 2673 0121 01       		.uleb128 0x1
 2674 0122 01       		.byte	0x1
 2675 0123 49       		.uleb128 0x49
 2676 0124 13       		.uleb128 0x13
 2677 0125 01       		.uleb128 0x1
 2678 0126 13       		.uleb128 0x13
 2679 0127 00       		.byte	0
 2680 0128 00       		.byte	0
 2681 0129 18       		.uleb128 0x18
 2682 012a 21       		.uleb128 0x21
 2683 012b 00       		.byte	0
 2684 012c 49       		.uleb128 0x49
 2685 012d 13       		.uleb128 0x13
 2686 012e 2F       		.uleb128 0x2f
 2687 012f 0B       		.uleb128 0xb
 2688 0130 00       		.byte	0
 2689 0131 00       		.byte	0
 2690 0132 19       		.uleb128 0x19
 2691 0133 17       		.uleb128 0x17
 2692 0134 01       		.byte	0x1
 2693 0135 0B       		.uleb128 0xb
 2694 0136 0B       		.uleb128 0xb
 2695 0137 3A       		.uleb128 0x3a
 2696 0138 0B       		.uleb128 0xb
 2697 0139 3B       		.uleb128 0x3b
 2698 013a 0B       		.uleb128 0xb
 2699 013b 01       		.uleb128 0x1
 2700 013c 13       		.uleb128 0x13
 2701 013d 00       		.byte	0
 2702 013e 00       		.byte	0
 2703 013f 1A       		.uleb128 0x1a
 2704 0140 0D       		.uleb128 0xd
 2705 0141 00       		.byte	0
 2706 0142 03       		.uleb128 0x3
 2707 0143 0E       		.uleb128 0xe
 2708 0144 3A       		.uleb128 0x3a
 2709 0145 0B       		.uleb128 0xb
 2710 0146 3B       		.uleb128 0x3b
 2711 0147 05       		.uleb128 0x5
 2712 0148 49       		.uleb128 0x49
 2713 0149 13       		.uleb128 0x13
 2714 014a 00       		.byte	0
 2715 014b 00       		.byte	0
 2716 014c 1B       		.uleb128 0x1b
 2717 014d 26       		.uleb128 0x26
 2718 014e 00       		.byte	0
 2719 014f 49       		.uleb128 0x49
 2720 0150 13       		.uleb128 0x13
 2721 0151 00       		.byte	0
 2722 0152 00       		.byte	0
 2723 0153 1C       		.uleb128 0x1c
 2724 0154 34       		.uleb128 0x34
 2725 0155 00       		.byte	0
 2726 0156 03       		.uleb128 0x3
ARM GAS  C:\Users\mathi\AppData\Local\Temp\ccBnzMKY.s 			page 49


 2727 0157 08       		.uleb128 0x8
 2728 0158 3A       		.uleb128 0x3a
 2729 0159 0B       		.uleb128 0xb
 2730 015a 3B       		.uleb128 0x3b
 2731 015b 05       		.uleb128 0x5
 2732 015c 49       		.uleb128 0x49
 2733 015d 13       		.uleb128 0x13
 2734 015e 3F       		.uleb128 0x3f
 2735 015f 19       		.uleb128 0x19
 2736 0160 3C       		.uleb128 0x3c
 2737 0161 19       		.uleb128 0x19
 2738 0162 00       		.byte	0
 2739 0163 00       		.byte	0
 2740 0164 1D       		.uleb128 0x1d
 2741 0165 15       		.uleb128 0x15
 2742 0166 01       		.byte	0x1
 2743 0167 27       		.uleb128 0x27
 2744 0168 19       		.uleb128 0x19
 2745 0169 49       		.uleb128 0x49
 2746 016a 13       		.uleb128 0x13
 2747 016b 01       		.uleb128 0x1
 2748 016c 13       		.uleb128 0x13
 2749 016d 00       		.byte	0
 2750 016e 00       		.byte	0
 2751 016f 1E       		.uleb128 0x1e
 2752 0170 0D       		.uleb128 0xd
 2753 0171 00       		.byte	0
 2754 0172 03       		.uleb128 0x3
 2755 0173 0E       		.uleb128 0xe
 2756 0174 3A       		.uleb128 0x3a
 2757 0175 0B       		.uleb128 0xb
 2758 0176 3B       		.uleb128 0x3b
 2759 0177 0B       		.uleb128 0xb
 2760 0178 49       		.uleb128 0x49
 2761 0179 13       		.uleb128 0x13
 2762 017a 00       		.byte	0
 2763 017b 00       		.byte	0
 2764 017c 1F       		.uleb128 0x1f
 2765 017d 17       		.uleb128 0x17
 2766 017e 01       		.byte	0x1
 2767 017f 03       		.uleb128 0x3
 2768 0180 0E       		.uleb128 0xe
 2769 0181 0B       		.uleb128 0xb
 2770 0182 0B       		.uleb128 0xb
 2771 0183 3A       		.uleb128 0x3a
 2772 0184 0B       		.uleb128 0xb
 2773 0185 3B       		.uleb128 0x3b
 2774 0186 0B       		.uleb128 0xb
 2775 0187 01       		.uleb128 0x1
 2776 0188 13       		.uleb128 0x13
 2777 0189 00       		.byte	0
 2778 018a 00       		.byte	0
 2779 018b 20       		.uleb128 0x20
 2780 018c 0D       		.uleb128 0xd
 2781 018d 00       		.byte	0
 2782 018e 03       		.uleb128 0x3
 2783 018f 08       		.uleb128 0x8
ARM GAS  C:\Users\mathi\AppData\Local\Temp\ccBnzMKY.s 			page 50


 2784 0190 3A       		.uleb128 0x3a
 2785 0191 0B       		.uleb128 0xb
 2786 0192 3B       		.uleb128 0x3b
 2787 0193 0B       		.uleb128 0xb
 2788 0194 49       		.uleb128 0x49
 2789 0195 13       		.uleb128 0x13
 2790 0196 00       		.byte	0
 2791 0197 00       		.byte	0
 2792 0198 21       		.uleb128 0x21
 2793 0199 34       		.uleb128 0x34
 2794 019a 00       		.byte	0
 2795 019b 03       		.uleb128 0x3
 2796 019c 0E       		.uleb128 0xe
 2797 019d 3A       		.uleb128 0x3a
 2798 019e 0B       		.uleb128 0xb
 2799 019f 3B       		.uleb128 0x3b
 2800 01a0 0B       		.uleb128 0xb
 2801 01a1 49       		.uleb128 0x49
 2802 01a2 13       		.uleb128 0x13
 2803 01a3 02       		.uleb128 0x2
 2804 01a4 18       		.uleb128 0x18
 2805 01a5 00       		.byte	0
 2806 01a6 00       		.byte	0
 2807 01a7 22       		.uleb128 0x22
 2808 01a8 2E       		.uleb128 0x2e
 2809 01a9 01       		.byte	0x1
 2810 01aa 3F       		.uleb128 0x3f
 2811 01ab 19       		.uleb128 0x19
 2812 01ac 03       		.uleb128 0x3
 2813 01ad 0E       		.uleb128 0xe
 2814 01ae 3A       		.uleb128 0x3a
 2815 01af 0B       		.uleb128 0xb
 2816 01b0 3B       		.uleb128 0x3b
 2817 01b1 05       		.uleb128 0x5
 2818 01b2 27       		.uleb128 0x27
 2819 01b3 19       		.uleb128 0x19
 2820 01b4 49       		.uleb128 0x49
 2821 01b5 13       		.uleb128 0x13
 2822 01b6 11       		.uleb128 0x11
 2823 01b7 01       		.uleb128 0x1
 2824 01b8 12       		.uleb128 0x12
 2825 01b9 06       		.uleb128 0x6
 2826 01ba 40       		.uleb128 0x40
 2827 01bb 18       		.uleb128 0x18
 2828 01bc 9742     		.uleb128 0x2117
 2829 01be 19       		.uleb128 0x19
 2830 01bf 01       		.uleb128 0x1
 2831 01c0 13       		.uleb128 0x13
 2832 01c1 00       		.byte	0
 2833 01c2 00       		.byte	0
 2834 01c3 23       		.uleb128 0x23
 2835 01c4 05       		.uleb128 0x5
 2836 01c5 00       		.byte	0
 2837 01c6 03       		.uleb128 0x3
 2838 01c7 0E       		.uleb128 0xe
 2839 01c8 3A       		.uleb128 0x3a
 2840 01c9 0B       		.uleb128 0xb
ARM GAS  C:\Users\mathi\AppData\Local\Temp\ccBnzMKY.s 			page 51


 2841 01ca 3B       		.uleb128 0x3b
 2842 01cb 05       		.uleb128 0x5
 2843 01cc 49       		.uleb128 0x49
 2844 01cd 13       		.uleb128 0x13
 2845 01ce 02       		.uleb128 0x2
 2846 01cf 17       		.uleb128 0x17
 2847 01d0 00       		.byte	0
 2848 01d1 00       		.byte	0
 2849 01d2 24       		.uleb128 0x24
 2850 01d3 34       		.uleb128 0x34
 2851 01d4 00       		.byte	0
 2852 01d5 03       		.uleb128 0x3
 2853 01d6 08       		.uleb128 0x8
 2854 01d7 3A       		.uleb128 0x3a
 2855 01d8 0B       		.uleb128 0xb
 2856 01d9 3B       		.uleb128 0x3b
 2857 01da 05       		.uleb128 0x5
 2858 01db 49       		.uleb128 0x49
 2859 01dc 13       		.uleb128 0x13
 2860 01dd 02       		.uleb128 0x2
 2861 01de 17       		.uleb128 0x17
 2862 01df 00       		.byte	0
 2863 01e0 00       		.byte	0
 2864 01e1 25       		.uleb128 0x25
 2865 01e2 898201   		.uleb128 0x4109
 2866 01e5 01       		.byte	0x1
 2867 01e6 11       		.uleb128 0x11
 2868 01e7 01       		.uleb128 0x1
 2869 01e8 31       		.uleb128 0x31
 2870 01e9 13       		.uleb128 0x13
 2871 01ea 01       		.uleb128 0x1
 2872 01eb 13       		.uleb128 0x13
 2873 01ec 00       		.byte	0
 2874 01ed 00       		.byte	0
 2875 01ee 26       		.uleb128 0x26
 2876 01ef 8A8201   		.uleb128 0x410a
 2877 01f2 00       		.byte	0
 2878 01f3 02       		.uleb128 0x2
 2879 01f4 18       		.uleb128 0x18
 2880 01f5 9142     		.uleb128 0x2111
 2881 01f7 18       		.uleb128 0x18
 2882 01f8 00       		.byte	0
 2883 01f9 00       		.byte	0
 2884 01fa 27       		.uleb128 0x27
 2885 01fb 898201   		.uleb128 0x4109
 2886 01fe 00       		.byte	0
 2887 01ff 11       		.uleb128 0x11
 2888 0200 01       		.uleb128 0x1
 2889 0201 31       		.uleb128 0x31
 2890 0202 13       		.uleb128 0x13
 2891 0203 00       		.byte	0
 2892 0204 00       		.byte	0
 2893 0205 28       		.uleb128 0x28
 2894 0206 2E       		.uleb128 0x2e
 2895 0207 01       		.byte	0x1
 2896 0208 3F       		.uleb128 0x3f
 2897 0209 19       		.uleb128 0x19
ARM GAS  C:\Users\mathi\AppData\Local\Temp\ccBnzMKY.s 			page 52


 2898 020a 03       		.uleb128 0x3
 2899 020b 0E       		.uleb128 0xe
 2900 020c 3A       		.uleb128 0x3a
 2901 020d 0B       		.uleb128 0xb
 2902 020e 3B       		.uleb128 0x3b
 2903 020f 0B       		.uleb128 0xb
 2904 0210 27       		.uleb128 0x27
 2905 0211 19       		.uleb128 0x19
 2906 0212 11       		.uleb128 0x11
 2907 0213 01       		.uleb128 0x1
 2908 0214 12       		.uleb128 0x12
 2909 0215 06       		.uleb128 0x6
 2910 0216 40       		.uleb128 0x40
 2911 0217 18       		.uleb128 0x18
 2912 0218 9742     		.uleb128 0x2117
 2913 021a 19       		.uleb128 0x19
 2914 021b 01       		.uleb128 0x1
 2915 021c 13       		.uleb128 0x13
 2916 021d 00       		.byte	0
 2917 021e 00       		.byte	0
 2918 021f 29       		.uleb128 0x29
 2919 0220 05       		.uleb128 0x5
 2920 0221 00       		.byte	0
 2921 0222 03       		.uleb128 0x3
 2922 0223 08       		.uleb128 0x8
 2923 0224 3A       		.uleb128 0x3a
 2924 0225 0B       		.uleb128 0xb
 2925 0226 3B       		.uleb128 0x3b
 2926 0227 0B       		.uleb128 0xb
 2927 0228 49       		.uleb128 0x49
 2928 0229 13       		.uleb128 0x13
 2929 022a 02       		.uleb128 0x2
 2930 022b 17       		.uleb128 0x17
 2931 022c 00       		.byte	0
 2932 022d 00       		.byte	0
 2933 022e 2A       		.uleb128 0x2a
 2934 022f 34       		.uleb128 0x34
 2935 0230 00       		.byte	0
 2936 0231 03       		.uleb128 0x3
 2937 0232 08       		.uleb128 0x8
 2938 0233 3A       		.uleb128 0x3a
 2939 0234 0B       		.uleb128 0xb
 2940 0235 3B       		.uleb128 0x3b
 2941 0236 0B       		.uleb128 0xb
 2942 0237 49       		.uleb128 0x49
 2943 0238 13       		.uleb128 0x13
 2944 0239 02       		.uleb128 0x2
 2945 023a 17       		.uleb128 0x17
 2946 023b 00       		.byte	0
 2947 023c 00       		.byte	0
 2948 023d 2B       		.uleb128 0x2b
 2949 023e 34       		.uleb128 0x34
 2950 023f 00       		.byte	0
 2951 0240 03       		.uleb128 0x3
 2952 0241 0E       		.uleb128 0xe
 2953 0242 3A       		.uleb128 0x3a
 2954 0243 0B       		.uleb128 0xb
ARM GAS  C:\Users\mathi\AppData\Local\Temp\ccBnzMKY.s 			page 53


 2955 0244 3B       		.uleb128 0x3b
 2956 0245 0B       		.uleb128 0xb
 2957 0246 49       		.uleb128 0x49
 2958 0247 13       		.uleb128 0x13
 2959 0248 02       		.uleb128 0x2
 2960 0249 17       		.uleb128 0x17
 2961 024a 00       		.byte	0
 2962 024b 00       		.byte	0
 2963 024c 2C       		.uleb128 0x2c
 2964 024d 34       		.uleb128 0x34
 2965 024e 00       		.byte	0
 2966 024f 03       		.uleb128 0x3
 2967 0250 0E       		.uleb128 0xe
 2968 0251 49       		.uleb128 0x49
 2969 0252 13       		.uleb128 0x13
 2970 0253 34       		.uleb128 0x34
 2971 0254 19       		.uleb128 0x19
 2972 0255 02       		.uleb128 0x2
 2973 0256 18       		.uleb128 0x18
 2974 0257 00       		.byte	0
 2975 0258 00       		.byte	0
 2976 0259 2D       		.uleb128 0x2d
 2977 025a 898201   		.uleb128 0x4109
 2978 025d 00       		.byte	0
 2979 025e 11       		.uleb128 0x11
 2980 025f 01       		.uleb128 0x1
 2981 0260 9542     		.uleb128 0x2115
 2982 0262 19       		.uleb128 0x19
 2983 0263 31       		.uleb128 0x31
 2984 0264 13       		.uleb128 0x13
 2985 0265 00       		.byte	0
 2986 0266 00       		.byte	0
 2987 0267 2E       		.uleb128 0x2e
 2988 0268 2E       		.uleb128 0x2e
 2989 0269 01       		.byte	0x1
 2990 026a 3F       		.uleb128 0x3f
 2991 026b 19       		.uleb128 0x19
 2992 026c 03       		.uleb128 0x3
 2993 026d 0E       		.uleb128 0xe
 2994 026e 3A       		.uleb128 0x3a
 2995 026f 0B       		.uleb128 0xb
 2996 0270 3B       		.uleb128 0x3b
 2997 0271 0B       		.uleb128 0xb
 2998 0272 27       		.uleb128 0x27
 2999 0273 19       		.uleb128 0x19
 3000 0274 49       		.uleb128 0x49
 3001 0275 13       		.uleb128 0x13
 3002 0276 11       		.uleb128 0x11
 3003 0277 01       		.uleb128 0x1
 3004 0278 12       		.uleb128 0x12
 3005 0279 06       		.uleb128 0x6
 3006 027a 40       		.uleb128 0x40
 3007 027b 18       		.uleb128 0x18
 3008 027c 9742     		.uleb128 0x2117
 3009 027e 19       		.uleb128 0x19
 3010 027f 01       		.uleb128 0x1
 3011 0280 13       		.uleb128 0x13
ARM GAS  C:\Users\mathi\AppData\Local\Temp\ccBnzMKY.s 			page 54


 3012 0281 00       		.byte	0
 3013 0282 00       		.byte	0
 3014 0283 2F       		.uleb128 0x2f
 3015 0284 05       		.uleb128 0x5
 3016 0285 00       		.byte	0
 3017 0286 03       		.uleb128 0x3
 3018 0287 0E       		.uleb128 0xe
 3019 0288 3A       		.uleb128 0x3a
 3020 0289 0B       		.uleb128 0xb
 3021 028a 3B       		.uleb128 0x3b
 3022 028b 0B       		.uleb128 0xb
 3023 028c 49       		.uleb128 0x49
 3024 028d 13       		.uleb128 0x13
 3025 028e 02       		.uleb128 0x2
 3026 028f 17       		.uleb128 0x17
 3027 0290 00       		.byte	0
 3028 0291 00       		.byte	0
 3029 0292 30       		.uleb128 0x30
 3030 0293 898201   		.uleb128 0x4109
 3031 0296 01       		.byte	0x1
 3032 0297 11       		.uleb128 0x11
 3033 0298 01       		.uleb128 0x1
 3034 0299 01       		.uleb128 0x1
 3035 029a 13       		.uleb128 0x13
 3036 029b 00       		.byte	0
 3037 029c 00       		.byte	0
 3038 029d 31       		.uleb128 0x31
 3039 029e 898201   		.uleb128 0x4109
 3040 02a1 01       		.byte	0x1
 3041 02a2 11       		.uleb128 0x11
 3042 02a3 01       		.uleb128 0x1
 3043 02a4 9542     		.uleb128 0x2115
 3044 02a6 19       		.uleb128 0x19
 3045 02a7 31       		.uleb128 0x31
 3046 02a8 13       		.uleb128 0x13
 3047 02a9 01       		.uleb128 0x1
 3048 02aa 13       		.uleb128 0x13
 3049 02ab 00       		.byte	0
 3050 02ac 00       		.byte	0
 3051 02ad 32       		.uleb128 0x32
 3052 02ae 2E       		.uleb128 0x2e
 3053 02af 00       		.byte	0
 3054 02b0 3F       		.uleb128 0x3f
 3055 02b1 19       		.uleb128 0x19
 3056 02b2 3C       		.uleb128 0x3c
 3057 02b3 19       		.uleb128 0x19
 3058 02b4 6E       		.uleb128 0x6e
 3059 02b5 0E       		.uleb128 0xe
 3060 02b6 03       		.uleb128 0x3
 3061 02b7 0E       		.uleb128 0xe
 3062 02b8 3A       		.uleb128 0x3a
 3063 02b9 0B       		.uleb128 0xb
 3064 02ba 3B       		.uleb128 0x3b
 3065 02bb 0B       		.uleb128 0xb
 3066 02bc 00       		.byte	0
 3067 02bd 00       		.byte	0
 3068 02be 33       		.uleb128 0x33
ARM GAS  C:\Users\mathi\AppData\Local\Temp\ccBnzMKY.s 			page 55


 3069 02bf 2E       		.uleb128 0x2e
 3070 02c0 00       		.byte	0
 3071 02c1 3F       		.uleb128 0x3f
 3072 02c2 19       		.uleb128 0x19
 3073 02c3 3C       		.uleb128 0x3c
 3074 02c4 19       		.uleb128 0x19
 3075 02c5 6E       		.uleb128 0x6e
 3076 02c6 0E       		.uleb128 0xe
 3077 02c7 03       		.uleb128 0x3
 3078 02c8 0E       		.uleb128 0xe
 3079 02c9 00       		.byte	0
 3080 02ca 00       		.byte	0
 3081 02cb 34       		.uleb128 0x34
 3082 02cc 2E       		.uleb128 0x2e
 3083 02cd 00       		.byte	0
 3084 02ce 3F       		.uleb128 0x3f
 3085 02cf 19       		.uleb128 0x19
 3086 02d0 3C       		.uleb128 0x3c
 3087 02d1 19       		.uleb128 0x19
 3088 02d2 6E       		.uleb128 0x6e
 3089 02d3 0E       		.uleb128 0xe
 3090 02d4 03       		.uleb128 0x3
 3091 02d5 0E       		.uleb128 0xe
 3092 02d6 3A       		.uleb128 0x3a
 3093 02d7 0B       		.uleb128 0xb
 3094 02d8 3B       		.uleb128 0x3b
 3095 02d9 05       		.uleb128 0x5
 3096 02da 00       		.byte	0
 3097 02db 00       		.byte	0
 3098 02dc 00       		.byte	0
 3099              		.section	.debug_loc,"",%progbits
 3100              	.Ldebug_loc0:
 3101              	.LLST13:
 3102 0000 00000000 		.4byte	.LVL45
 3103 0004 0C000000 		.4byte	.LVL46
 3104 0008 0100     		.2byte	0x1
 3105 000a 50       		.byte	0x50
 3106 000b 0C000000 		.4byte	.LVL46
 3107 000f 26000000 		.4byte	.LVL48
 3108 0013 0100     		.2byte	0x1
 3109 0015 54       		.byte	0x54
 3110 0016 26000000 		.4byte	.LVL48
 3111 001a 4A000000 		.4byte	.LVL53
 3112 001e 0300     		.2byte	0x3
 3113 0020 76       		.byte	0x76
 3114 0021 70       		.sleb128 -16
 3115 0022 9F       		.byte	0x9f
 3116 0023 4A000000 		.4byte	.LVL53
 3117 0027 4E000000 		.4byte	.LVL54
 3118 002b 0100     		.2byte	0x1
 3119 002d 54       		.byte	0x54
 3120 002e 4E000000 		.4byte	.LVL54
 3121 0032 5C000000 		.4byte	.LFE223
 3122 0036 0300     		.2byte	0x3
 3123 0038 76       		.byte	0x76
 3124 0039 70       		.sleb128 -16
 3125 003a 9F       		.byte	0x9f
ARM GAS  C:\Users\mathi\AppData\Local\Temp\ccBnzMKY.s 			page 56


 3126 003b 00000000 		.4byte	0
 3127 003f 00000000 		.4byte	0
 3128              	.LLST14:
 3129 0043 00000000 		.4byte	.LVL45
 3130 0047 1D000000 		.4byte	.LVL47-1
 3131 004b 0100     		.2byte	0x1
 3132 004d 51       		.byte	0x51
 3133 004e 1D000000 		.4byte	.LVL47-1
 3134 0052 5C000000 		.4byte	.LFE223
 3135 0056 0100     		.2byte	0x1
 3136 0058 57       		.byte	0x57
 3137 0059 00000000 		.4byte	0
 3138 005d 00000000 		.4byte	0
 3139              	.LLST15:
 3140 0061 1E000000 		.4byte	.LVL47
 3141 0065 26000000 		.4byte	.LVL48
 3142 0069 0300     		.2byte	0x3
 3143 006b 74       		.byte	0x74
 3144 006c 08       		.sleb128 8
 3145 006d 9F       		.byte	0x9f
 3146 006e 26000000 		.4byte	.LVL48
 3147 0072 2E000000 		.4byte	.LVL50
 3148 0076 0300     		.2byte	0x3
 3149 0078 76       		.byte	0x76
 3150 0079 78       		.sleb128 -8
 3151 007a 9F       		.byte	0x9f
 3152 007b 4A000000 		.4byte	.LVL53
 3153 007f 4E000000 		.4byte	.LVL54
 3154 0083 0300     		.2byte	0x3
 3155 0085 74       		.byte	0x74
 3156 0086 08       		.sleb128 8
 3157 0087 9F       		.byte	0x9f
 3158 0088 4E000000 		.4byte	.LVL54
 3159 008c 50000000 		.4byte	.LVL55
 3160 0090 0300     		.2byte	0x3
 3161 0092 76       		.byte	0x76
 3162 0093 78       		.sleb128 -8
 3163 0094 9F       		.byte	0x9f
 3164 0095 00000000 		.4byte	0
 3165 0099 00000000 		.4byte	0
 3166              	.LLST16:
 3167 009d 1E000000 		.4byte	.LVL47
 3168 00a1 26000000 		.4byte	.LVL48
 3169 00a5 0200     		.2byte	0x2
 3170 00a7 30       		.byte	0x30
 3171 00a8 9F       		.byte	0x9f
 3172 00a9 26000000 		.4byte	.LVL48
 3173 00ad 2C000000 		.4byte	.LVL49
 3174 00b1 0100     		.2byte	0x1
 3175 00b3 54       		.byte	0x54
 3176 00b4 2C000000 		.4byte	.LVL49
 3177 00b8 2E000000 		.4byte	.LVL50
 3178 00bc 0300     		.2byte	0x3
 3179 00be 74       		.byte	0x74
 3180 00bf 7F       		.sleb128 -1
 3181 00c0 9F       		.byte	0x9f
 3182 00c1 2E000000 		.4byte	.LVL50
ARM GAS  C:\Users\mathi\AppData\Local\Temp\ccBnzMKY.s 			page 57


 3183 00c5 32000000 		.4byte	.LVL51
 3184 00c9 0100     		.2byte	0x1
 3185 00cb 54       		.byte	0x54
 3186 00cc 4A000000 		.4byte	.LVL53
 3187 00d0 50000000 		.4byte	.LVL55
 3188 00d4 0200     		.2byte	0x2
 3189 00d6 30       		.byte	0x30
 3190 00d7 9F       		.byte	0x9f
 3191 00d8 00000000 		.4byte	0
 3192 00dc 00000000 		.4byte	0
 3193              	.LLST17:
 3194 00e0 1E000000 		.4byte	.LVL47
 3195 00e4 26000000 		.4byte	.LVL48
 3196 00e8 0200     		.2byte	0x2
 3197 00ea 30       		.byte	0x30
 3198 00eb 9F       		.byte	0x9f
 3199 00ec 26000000 		.4byte	.LVL48
 3200 00f0 32000000 		.4byte	.LVL51
 3201 00f4 0100     		.2byte	0x1
 3202 00f6 52       		.byte	0x52
 3203 00f7 4A000000 		.4byte	.LVL53
 3204 00fb 50000000 		.4byte	.LVL55
 3205 00ff 0200     		.2byte	0x2
 3206 0101 30       		.byte	0x30
 3207 0102 9F       		.byte	0x9f
 3208 0103 00000000 		.4byte	0
 3209 0107 00000000 		.4byte	0
 3210              	.LLST9:
 3211 010b 00000000 		.4byte	.LVL31
 3212 010f 12000000 		.4byte	.LVL32
 3213 0113 0100     		.2byte	0x1
 3214 0115 50       		.byte	0x50
 3215 0116 12000000 		.4byte	.LVL32
 3216 011a 7C000000 		.4byte	.LVL37
 3217 011e 0100     		.2byte	0x1
 3218 0120 5A       		.byte	0x5a
 3219 0121 7C000000 		.4byte	.LVL37
 3220 0125 80000000 		.4byte	.LVL38
 3221 0129 0400     		.2byte	0x4
 3222 012b F3       		.byte	0xf3
 3223 012c 01       		.uleb128 0x1
 3224 012d 50       		.byte	0x50
 3225 012e 9F       		.byte	0x9f
 3226 012f 80000000 		.4byte	.LVL38
 3227 0133 B0000000 		.4byte	.LVL40
 3228 0137 0100     		.2byte	0x1
 3229 0139 5A       		.byte	0x5a
 3230 013a B0000000 		.4byte	.LVL40
 3231 013e B2000000 		.4byte	.LVL41
 3232 0142 0100     		.2byte	0x1
 3233 0144 50       		.byte	0x50
 3234 0145 B2000000 		.4byte	.LVL41
 3235 0149 C4000000 		.4byte	.LFE222
 3236 014d 0100     		.2byte	0x1
 3237 014f 5A       		.byte	0x5a
 3238 0150 00000000 		.4byte	0
 3239 0154 00000000 		.4byte	0
ARM GAS  C:\Users\mathi\AppData\Local\Temp\ccBnzMKY.s 			page 58


 3240              	.LLST10:
 3241 0158 2E000000 		.4byte	.LVL34
 3242 015c 4E000000 		.4byte	.LVL35
 3243 0160 0100     		.2byte	0x1
 3244 0162 54       		.byte	0x54
 3245 0163 50000000 		.4byte	.LVL36
 3246 0167 7C000000 		.4byte	.LVL37
 3247 016b 0100     		.2byte	0x1
 3248 016d 54       		.byte	0x54
 3249 016e 80000000 		.4byte	.LVL38
 3250 0172 B0000000 		.4byte	.LVL40
 3251 0176 0100     		.2byte	0x1
 3252 0178 54       		.byte	0x54
 3253 0179 B8000000 		.4byte	.LVL43
 3254 017d C4000000 		.4byte	.LFE222
 3255 0181 0100     		.2byte	0x1
 3256 0183 54       		.byte	0x54
 3257 0184 00000000 		.4byte	0
 3258 0188 00000000 		.4byte	0
 3259              	.LLST11:
 3260 018c 2E000000 		.4byte	.LVL34
 3261 0190 7C000000 		.4byte	.LVL37
 3262 0194 0100     		.2byte	0x1
 3263 0196 55       		.byte	0x55
 3264 0197 7C000000 		.4byte	.LVL37
 3265 019b 80000000 		.4byte	.LVL38
 3266 019f 0600     		.2byte	0x6
 3267 01a1 F3       		.byte	0xf3
 3268 01a2 01       		.uleb128 0x1
 3269 01a3 50       		.byte	0x50
 3270 01a4 38       		.byte	0x38
 3271 01a5 1C       		.byte	0x1c
 3272 01a6 9F       		.byte	0x9f
 3273 01a7 80000000 		.4byte	.LVL38
 3274 01ab B0000000 		.4byte	.LVL40
 3275 01af 0100     		.2byte	0x1
 3276 01b1 55       		.byte	0x55
 3277 01b2 B8000000 		.4byte	.LVL43
 3278 01b6 C4000000 		.4byte	.LFE222
 3279 01ba 0100     		.2byte	0x1
 3280 01bc 55       		.byte	0x55
 3281 01bd 00000000 		.4byte	0
 3282 01c1 00000000 		.4byte	0
 3283              	.LLST12:
 3284 01c5 2E000000 		.4byte	.LVL34
 3285 01c9 7C000000 		.4byte	.LVL37
 3286 01cd 0300     		.2byte	0x3
 3287 01cf 79       		.byte	0x79
 3288 01d0 78       		.sleb128 -8
 3289 01d1 9F       		.byte	0x9f
 3290 01d2 7C000000 		.4byte	.LVL37
 3291 01d6 7F000000 		.4byte	.LVL38-1
 3292 01da 0300     		.2byte	0x3
 3293 01dc 70       		.byte	0x70
 3294 01dd 70       		.sleb128 -16
 3295 01de 9F       		.byte	0x9f
 3296 01df 80000000 		.4byte	.LVL38
ARM GAS  C:\Users\mathi\AppData\Local\Temp\ccBnzMKY.s 			page 59


 3297 01e3 B0000000 		.4byte	.LVL40
 3298 01e7 0300     		.2byte	0x3
 3299 01e9 79       		.byte	0x79
 3300 01ea 78       		.sleb128 -8
 3301 01eb 9F       		.byte	0x9f
 3302 01ec B8000000 		.4byte	.LVL43
 3303 01f0 C4000000 		.4byte	.LFE222
 3304 01f4 0300     		.2byte	0x3
 3305 01f6 79       		.byte	0x79
 3306 01f7 78       		.sleb128 -8
 3307 01f8 9F       		.byte	0x9f
 3308 01f9 00000000 		.4byte	0
 3309 01fd 00000000 		.4byte	0
 3310              	.LLST4:
 3311 0201 00000000 		.4byte	.LVL10
 3312 0205 0E000000 		.4byte	.LVL11
 3313 0209 0100     		.2byte	0x1
 3314 020b 50       		.byte	0x50
 3315 020c 0E000000 		.4byte	.LVL11
 3316 0210 A4000000 		.4byte	.LFE221
 3317 0214 0100     		.2byte	0x1
 3318 0216 56       		.byte	0x56
 3319 0217 00000000 		.4byte	0
 3320 021b 00000000 		.4byte	0
 3321              	.LLST5:
 3322 021f 00000000 		.4byte	.LVL10
 3323 0223 16000000 		.4byte	.LVL12
 3324 0227 0100     		.2byte	0x1
 3325 0229 51       		.byte	0x51
 3326 022a 16000000 		.4byte	.LVL12
 3327 022e 20000000 		.4byte	.LVL13
 3328 0232 0300     		.2byte	0x3
 3329 0234 71       		.byte	0x71
 3330 0235 79       		.sleb128 -7
 3331 0236 9F       		.byte	0x9f
 3332 0237 20000000 		.4byte	.LVL13
 3333 023b A4000000 		.4byte	.LFE221
 3334 023f 0100     		.2byte	0x1
 3335 0241 55       		.byte	0x55
 3336 0242 00000000 		.4byte	0
 3337 0246 00000000 		.4byte	0
 3338              	.LLST6:
 3339 024a 24000000 		.4byte	.LVL14
 3340 024e 52000000 		.4byte	.LVL20
 3341 0252 0100     		.2byte	0x1
 3342 0254 54       		.byte	0x54
 3343 0255 62000000 		.4byte	.LVL21
 3344 0259 70000000 		.4byte	.LVL22
 3345 025d 0100     		.2byte	0x1
 3346 025f 54       		.byte	0x54
 3347 0260 7C000000 		.4byte	.LVL26
 3348 0264 94000000 		.4byte	.LVL29
 3349 0268 0100     		.2byte	0x1
 3350 026a 54       		.byte	0x54
 3351 026b 00000000 		.4byte	0
 3352 026f 00000000 		.4byte	0
 3353              	.LLST7:
ARM GAS  C:\Users\mathi\AppData\Local\Temp\ccBnzMKY.s 			page 60


 3354 0273 2A000000 		.4byte	.LVL16
 3355 0277 32000000 		.4byte	.LVL17
 3356 027b 0100     		.2byte	0x1
 3357 027d 50       		.byte	0x50
 3358 027e 48000000 		.4byte	.LVL19
 3359 0282 52000000 		.4byte	.LVL20
 3360 0286 0100     		.2byte	0x1
 3361 0288 50       		.byte	0x50
 3362 0289 62000000 		.4byte	.LVL21
 3363 028d 72000000 		.4byte	.LVL23
 3364 0291 0100     		.2byte	0x1
 3365 0293 50       		.byte	0x50
 3366 0294 72000000 		.4byte	.LVL23
 3367 0298 76000000 		.4byte	.LVL24
 3368 029c 0100     		.2byte	0x1
 3369 029e 54       		.byte	0x54
 3370 029f 76000000 		.4byte	.LVL24
 3371 02a3 7C000000 		.4byte	.LVL26
 3372 02a7 0300     		.2byte	0x3
 3373 02a9 74       		.byte	0x74
 3374 02aa 78       		.sleb128 -8
 3375 02ab 9F       		.byte	0x9f
 3376 02ac 7C000000 		.4byte	.LVL26
 3377 02b0 92000000 		.4byte	.LVL28
 3378 02b4 0100     		.2byte	0x1
 3379 02b6 50       		.byte	0x50
 3380 02b7 00000000 		.4byte	0
 3381 02bb 00000000 		.4byte	0
 3382              	.LLST8:
 3383 02bf 86000000 		.4byte	.LVL27
 3384 02c3 92000000 		.4byte	.LVL28
 3385 02c7 0100     		.2byte	0x1
 3386 02c9 52       		.byte	0x52
 3387 02ca 00000000 		.4byte	0
 3388 02ce 00000000 		.4byte	0
 3389              	.LLST0:
 3390 02d2 00000000 		.4byte	.LVL2
 3391 02d6 1A000000 		.4byte	.LVL4
 3392 02da 0100     		.2byte	0x1
 3393 02dc 50       		.byte	0x50
 3394 02dd 1A000000 		.4byte	.LVL4
 3395 02e1 3E000000 		.4byte	.LVL7
 3396 02e5 0100     		.2byte	0x1
 3397 02e7 56       		.byte	0x56
 3398 02e8 3E000000 		.4byte	.LVL7
 3399 02ec 41000000 		.4byte	.LVL8-1
 3400 02f0 0300     		.2byte	0x3
 3401 02f2 70       		.byte	0x70
 3402 02f3 70       		.sleb128 -16
 3403 02f4 9F       		.byte	0x9f
 3404 02f5 41000000 		.4byte	.LVL8-1
 3405 02f9 42000000 		.4byte	.LVL8
 3406 02fd 0400     		.2byte	0x4
 3407 02ff F3       		.byte	0xf3
 3408 0300 01       		.uleb128 0x1
 3409 0301 50       		.byte	0x50
 3410 0302 9F       		.byte	0x9f
ARM GAS  C:\Users\mathi\AppData\Local\Temp\ccBnzMKY.s 			page 61


 3411 0303 42000000 		.4byte	.LVL8
 3412 0307 50000000 		.4byte	.LFE220
 3413 030b 0100     		.2byte	0x1
 3414 030d 56       		.byte	0x56
 3415 030e 00000000 		.4byte	0
 3416 0312 00000000 		.4byte	0
 3417              	.LLST1:
 3418 0316 00000000 		.4byte	.LVL2
 3419 031a 1D000000 		.4byte	.LVL5-1
 3420 031e 0100     		.2byte	0x1
 3421 0320 51       		.byte	0x51
 3422 0321 1D000000 		.4byte	.LVL5-1
 3423 0325 3E000000 		.4byte	.LVL7
 3424 0329 0100     		.2byte	0x1
 3425 032b 54       		.byte	0x54
 3426 032c 3E000000 		.4byte	.LVL7
 3427 0330 42000000 		.4byte	.LVL8
 3428 0334 0400     		.2byte	0x4
 3429 0336 F3       		.byte	0xf3
 3430 0337 01       		.uleb128 0x1
 3431 0338 51       		.byte	0x51
 3432 0339 9F       		.byte	0x9f
 3433 033a 42000000 		.4byte	.LVL8
 3434 033e 50000000 		.4byte	.LFE220
 3435 0342 0100     		.2byte	0x1
 3436 0344 54       		.byte	0x54
 3437 0345 00000000 		.4byte	0
 3438 0349 00000000 		.4byte	0
 3439              	.LLST2:
 3440 034d 00000000 		.4byte	.LVL2
 3441 0351 1D000000 		.4byte	.LVL5-1
 3442 0355 0100     		.2byte	0x1
 3443 0357 52       		.byte	0x52
 3444 0358 1D000000 		.4byte	.LVL5-1
 3445 035c 2E000000 		.4byte	.LVL6
 3446 0360 0100     		.2byte	0x1
 3447 0362 55       		.byte	0x55
 3448 0363 2E000000 		.4byte	.LVL6
 3449 0367 3E000000 		.4byte	.LVL7
 3450 036b 0300     		.2byte	0x3
 3451 036d 75       		.byte	0x75
 3452 036e 08       		.sleb128 8
 3453 036f 9F       		.byte	0x9f
 3454 0370 3E000000 		.4byte	.LVL7
 3455 0374 41000000 		.4byte	.LVL8-1
 3456 0378 0900     		.2byte	0x9
 3457 037a F3       		.byte	0xf3
 3458 037b 01       		.uleb128 0x1
 3459 037c 51       		.byte	0x51
 3460 037d 23       		.byte	0x23
 3461 037e 04       		.uleb128 0x4
 3462 037f 06       		.byte	0x6
 3463 0380 23       		.byte	0x23
 3464 0381 08       		.uleb128 0x8
 3465 0382 9F       		.byte	0x9f
 3466 0383 41000000 		.4byte	.LVL8-1
 3467 0387 50000000 		.4byte	.LFE220
ARM GAS  C:\Users\mathi\AppData\Local\Temp\ccBnzMKY.s 			page 62


 3468 038b 0400     		.2byte	0x4
 3469 038d F3       		.byte	0xf3
 3470 038e 01       		.uleb128 0x1
 3471 038f 52       		.byte	0x52
 3472 0390 9F       		.byte	0x9f
 3473 0391 00000000 		.4byte	0
 3474 0395 00000000 		.4byte	0
 3475              	.LLST3:
 3476 0399 0A000000 		.4byte	.LVL3
 3477 039d 1D000000 		.4byte	.LVL5-1
 3478 03a1 0100     		.2byte	0x1
 3479 03a3 51       		.byte	0x51
 3480 03a4 1D000000 		.4byte	.LVL5-1
 3481 03a8 3E000000 		.4byte	.LVL7
 3482 03ac 0100     		.2byte	0x1
 3483 03ae 54       		.byte	0x54
 3484 03af 3E000000 		.4byte	.LVL7
 3485 03b3 42000000 		.4byte	.LVL8
 3486 03b7 0400     		.2byte	0x4
 3487 03b9 F3       		.byte	0xf3
 3488 03ba 01       		.uleb128 0x1
 3489 03bb 51       		.byte	0x51
 3490 03bc 9F       		.byte	0x9f
 3491 03bd 42000000 		.4byte	.LVL8
 3492 03c1 50000000 		.4byte	.LFE220
 3493 03c5 0100     		.2byte	0x1
 3494 03c7 54       		.byte	0x54
 3495 03c8 00000000 		.4byte	0
 3496 03cc 00000000 		.4byte	0
 3497              		.section	.debug_aranges,"",%progbits
 3498 0000 3C000000 		.4byte	0x3c
 3499 0004 0200     		.2byte	0x2
 3500 0006 00000000 		.4byte	.Ldebug_info0
 3501 000a 04       		.byte	0x4
 3502 000b 00       		.byte	0
 3503 000c 0000     		.2byte	0
 3504 000e 0000     		.2byte	0
 3505 0010 00000000 		.4byte	.LFB219
 3506 0014 3C000000 		.4byte	.LFE219-.LFB219
 3507 0018 00000000 		.4byte	.LFB220
 3508 001c 50000000 		.4byte	.LFE220-.LFB220
 3509 0020 00000000 		.4byte	.LFB221
 3510 0024 A4000000 		.4byte	.LFE221-.LFB221
 3511 0028 00000000 		.4byte	.LFB222
 3512 002c C4000000 		.4byte	.LFE222-.LFB222
 3513 0030 00000000 		.4byte	.LFB223
 3514 0034 5C000000 		.4byte	.LFE223-.LFB223
 3515 0038 00000000 		.4byte	0
 3516 003c 00000000 		.4byte	0
 3517              		.section	.debug_ranges,"",%progbits
 3518              	.Ldebug_ranges0:
 3519 0000 00000000 		.4byte	.LFB219
 3520 0004 3C000000 		.4byte	.LFE219
 3521 0008 00000000 		.4byte	.LFB220
 3522 000c 50000000 		.4byte	.LFE220
 3523 0010 00000000 		.4byte	.LFB221
 3524 0014 A4000000 		.4byte	.LFE221
ARM GAS  C:\Users\mathi\AppData\Local\Temp\ccBnzMKY.s 			page 63


 3525 0018 00000000 		.4byte	.LFB222
 3526 001c C4000000 		.4byte	.LFE222
 3527 0020 00000000 		.4byte	.LFB223
 3528 0024 5C000000 		.4byte	.LFE223
 3529 0028 00000000 		.4byte	0
 3530 002c 00000000 		.4byte	0
 3531              		.section	.debug_line,"",%progbits
 3532              	.Ldebug_line0:
 3533 0000 CA040000 		.section	.debug_str,"MS",%progbits,1
 3533      0200B103 
 3533      00000201 
 3533      FB0E0D00 
 3533      01010101 
 3534              	.LASF56:
 3535 0000 74687265 		.ascii	"threads_list_t\000"
 3535      6164735F 
 3535      6C697374 
 3535      5F7400
 3536              	.LASF61:
 3537 000f 72656164 		.ascii	"ready_list_t\000"
 3537      795F6C69 
 3537      73745F74 
 3537      00
 3538              	.LASF99:
 3539 001c 73655F74 		.ascii	"se_time\000"
 3539      696D6500 
 3540              	.LASF4:
 3541 0024 73697A65 		.ascii	"size_t\000"
 3541      5F7400
 3542              	.LASF163:
 3543 002b 6E657874 		.ascii	"next\000"
 3543      00
 3544              	.LASF120:
 3545 0030 7264796D 		.ascii	"rdymsg\000"
 3545      736700
 3546              	.LASF20:
 3547 0037 75696E74 		.ascii	"uint64_t\000"
 3547      36345F74 
 3547      00
 3548              	.LASF91:
 3549 0040 6B65726E 		.ascii	"kernel_stats\000"
 3549      656C5F73 
 3549      74617473 
 3549      00
 3550              	.LASF5:
 3551 004d 5F5F7569 		.ascii	"__uint8_t\000"
 3551      6E74385F 
 3551      7400
 3552              	.LASF98:
 3553 0057 706F7274 		.ascii	"port_intctx\000"
 3553      5F696E74 
 3553      63747800 
 3554              	.LASF60:
 3555 0063 63685F74 		.ascii	"ch_threads_queue\000"
 3555      68726561 
 3555      64735F71 
 3555      75657565 
ARM GAS  C:\Users\mathi\AppData\Local\Temp\ccBnzMKY.s 			page 64


 3555      00
 3556              	.LASF80:
 3557 0074 73797374 		.ascii	"system_debug_t\000"
 3557      656D5F64 
 3557      65627567 
 3557      5F7400
 3558              	.LASF111:
 3559 0083 776F7273 		.ascii	"worst\000"
 3559      7400
 3560              	.LASF114:
 3561 0089 74696D65 		.ascii	"time_measurement_t\000"
 3561      5F6D6561 
 3561      73757265 
 3561      6D656E74 
 3561      5F7400
 3562              	.LASF15:
 3563 009c 6C6F6E67 		.ascii	"long long unsigned int\000"
 3563      206C6F6E 
 3563      6720756E 
 3563      7369676E 
 3563      65642069 
 3564              	.LASF107:
 3565 00b3 63685F74 		.ascii	"ch_trace_buffer_t\000"
 3565      72616365 
 3565      5F627566 
 3565      6665725F 
 3565      7400
 3566              	.LASF142:
 3567 00c5 63685F74 		.ascii	"ch_threadsize\000"
 3567      68726561 
 3567      6473697A 
 3567      6500
 3568              	.LASF121:
 3569 00d3 65786974 		.ascii	"exitcode\000"
 3569      636F6465 
 3569      00
 3570              	.LASF161:
 3571 00dc 685F6672 		.ascii	"h_free\000"
 3571      656500
 3572              	.LASF77:
 3573 00e3 76697274 		.ascii	"virtual_timers_list_t\000"
 3573      75616C5F 
 3573      74696D65 
 3573      72735F6C 
 3573      6973745F 
 3574              	.LASF93:
 3575 00f9 49544D5F 		.ascii	"ITM_RxBuffer\000"
 3575      52784275 
 3575      66666572 
 3575      00
 3576              	.LASF167:
 3577 0106 68656170 		.ascii	"heapp\000"
 3577      7000
 3578              	.LASF165:
 3579 010c 616C6967 		.ascii	"align\000"
 3579      6E00
 3580              	.LASF22:
ARM GAS  C:\Users\mathi\AppData\Local\Temp\ccBnzMKY.s 			page 65


 3581 0112 72747469 		.ascii	"rttime_t\000"
 3581      6D655F74 
 3581      00
 3582              	.LASF36:
 3583 011b 705F7072 		.ascii	"p_prio\000"
 3583      696F00
 3584              	.LASF149:
 3585 0122 63665F6F 		.ascii	"cf_off_state\000"
 3585      66665F73 
 3585      74617465 
 3585      00
 3586              	.LASF156:
 3587 012f 6D757465 		.ascii	"mutex_t\000"
 3587      785F7400 
 3588              	.LASF177:
 3589 0137 63684D74 		.ascii	"chMtxUnlock\000"
 3589      78556E6C 
 3589      6F636B00 
 3590              	.LASF3:
 3591 0143 7369676E 		.ascii	"signed char\000"
 3591      65642063 
 3591      68617200 
 3592              	.LASF162:
 3593 014f 685F6D74 		.ascii	"h_mtx\000"
 3593      7800
 3594              	.LASF148:
 3595 0155 63665F6F 		.ascii	"cf_off_stklimit\000"
 3595      66665F73 
 3595      746B6C69 
 3595      6D697400 
 3596              	.LASF150:
 3597 0165 63665F6F 		.ascii	"cf_off_flags\000"
 3597      66665F66 
 3597      6C616773 
 3597      00
 3598              	.LASF53:
 3599 0172 705F6D70 		.ascii	"p_mpool\000"
 3599      6F6F6C00 
 3600              	.LASF131:
 3601 017a 6D5F7175 		.ascii	"m_queue\000"
 3601      65756500 
 3602              	.LASF172:
 3603 0182 63684865 		.ascii	"chHeapFree\000"
 3603      61704672 
 3603      656500
 3604              	.LASF89:
 3605 018d 76746C69 		.ascii	"vtlist\000"
 3605      737400
 3606              	.LASF26:
 3607 0194 74736C69 		.ascii	"tslices_t\000"
 3607      6365735F 
 3607      7400
 3608              	.LASF123:
 3609 019e 77747472 		.ascii	"wttrp\000"
 3609      7000
 3610              	.LASF87:
 3611 01a4 63685F73 		.ascii	"ch_system\000"
ARM GAS  C:\Users\mathi\AppData\Local\Temp\ccBnzMKY.s 			page 66


 3611      79737465 
 3611      6D00
 3612              	.LASF11:
 3613 01ae 6C6F6E67 		.ascii	"long int\000"
 3613      20696E74 
 3613      00
 3614              	.LASF24:
 3615 01b7 74737461 		.ascii	"tstate_t\000"
 3615      74655F74 
 3615      00
 3616              	.LASF158:
 3617 01c0 6D656D6F 		.ascii	"memory_heap_t\000"
 3617      72795F68 
 3617      6561705F 
 3617      7400
 3618              	.LASF100:
 3619 01ce 73655F74 		.ascii	"se_tp\000"
 3619      7000
 3620              	.LASF154:
 3621 01d4 63686465 		.ascii	"chdebug_t\000"
 3621      6275675F 
 3621      7400
 3622              	.LASF38:
 3623 01de 705F6E65 		.ascii	"p_newer\000"
 3623      77657200 
 3624              	.LASF128:
 3625 01e6 735F7175 		.ascii	"s_queue\000"
 3625      65756500 
 3626              	.LASF104:
 3627 01ee 74625F73 		.ascii	"tb_size\000"
 3627      697A6500 
 3628              	.LASF66:
 3629 01f6 725F6E65 		.ascii	"r_newer\000"
 3629      77657200 
 3630              	.LASF95:
 3631 01fe 72656761 		.ascii	"regarm_t\000"
 3631      726D5F74 
 3631      00
 3632              	.LASF73:
 3633 0207 76745F70 		.ascii	"vt_prev\000"
 3633      72657600 
 3634              	.LASF178:
 3635 020f 63685379 		.ascii	"chSysHalt\000"
 3635      7348616C 
 3635      7400
 3636              	.LASF81:
 3637 0219 63685F73 		.ascii	"ch_system_debug\000"
 3637      79737465 
 3637      6D5F6465 
 3637      62756700 
 3638              	.LASF134:
 3639 0229 6D5F636E 		.ascii	"m_cnt\000"
 3639      7400
 3640              	.LASF1:
 3641 022f 6C6F6E67 		.ascii	"long long int\000"
 3641      206C6F6E 
 3641      6720696E 
ARM GAS  C:\Users\mathi\AppData\Local\Temp\ccBnzMKY.s 			page 67


 3641      7400
 3642              	.LASF84:
 3643 023d 6C6F636B 		.ascii	"lock_cnt\000"
 3643      5F636E74 
 3643      00
 3644              	.LASF92:
 3645 0246 69646C65 		.ascii	"idle_thread_wa\000"
 3645      5F746872 
 3645      6561645F 
 3645      776100
 3646              	.LASF30:
 3647 0255 636E745F 		.ascii	"cnt_t\000"
 3647      7400
 3648              	.LASF41:
 3649 025b 705F7374 		.ascii	"p_stklimit\000"
 3649      6B6C696D 
 3649      697400
 3650              	.LASF0:
 3651 0266 756E7369 		.ascii	"unsigned int\000"
 3651      676E6564 
 3651      20696E74 
 3651      00
 3652              	.LASF72:
 3653 0273 76745F6E 		.ascii	"vt_next\000"
 3653      65787400 
 3654              	.LASF17:
 3655 027b 75696E74 		.ascii	"uint16_t\000"
 3655      31365F74 
 3655      00
 3656              	.LASF94:
 3657 0284 53797374 		.ascii	"SystemCoreClock\000"
 3657      656D436F 
 3657      7265436C 
 3657      6F636B00 
 3658              	.LASF46:
 3659 0294 705F7469 		.ascii	"p_time\000"
 3659      6D6500
 3660              	.LASF124:
 3661 029b 77747365 		.ascii	"wtsemp\000"
 3661      6D7000
 3662              	.LASF146:
 3663 02a2 63665F6F 		.ascii	"cf_off_older\000"
 3663      66665F6F 
 3663      6C646572 
 3663      00
 3664              	.LASF182:
 3665 02af 433A5C55 		.ascii	"C:\\Users\\mathi\\Documents\\robotique\\robotics_pr"
 3665      73657273 
 3665      5C6D6174 
 3665      68695C44 
 3665      6F63756D 
 3666 02dd 6F6A6563 		.ascii	"oject\\robotics_project\\robotics_project\000"
 3666      745C726F 
 3666      626F7469 
 3666      63735F70 
 3666      726F6A65 
 3667              	.LASF48:
ARM GAS  C:\Users\mathi\AppData\Local\Temp\ccBnzMKY.s 			page 68


 3668 0305 705F6D73 		.ascii	"p_msgqueue\000"
 3668      67717565 
 3668      756500
 3669              	.LASF155:
 3670 0310 63685F64 		.ascii	"ch_debug\000"
 3670      65627567 
 3670      00
 3671              	.LASF115:
 3672 0319 6E5F6972 		.ascii	"n_irq\000"
 3672      7100
 3673              	.LASF129:
 3674 031f 735F636E 		.ascii	"s_cnt\000"
 3674      7400
 3675              	.LASF9:
 3676 0325 73686F72 		.ascii	"short unsigned int\000"
 3676      7420756E 
 3676      7369676E 
 3676      65642069 
 3676      6E7400
 3677              	.LASF119:
 3678 0338 6B65726E 		.ascii	"kernel_stats_t\000"
 3678      656C5F73 
 3678      74617473 
 3678      5F7400
 3679              	.LASF57:
 3680 0347 63685F74 		.ascii	"ch_thread\000"
 3680      68726561 
 3680      6400
 3681              	.LASF90:
 3682 0351 6D61696E 		.ascii	"mainthread\000"
 3682      74687265 
 3682      616400
 3683              	.LASF28:
 3684 035c 6D73675F 		.ascii	"msg_t\000"
 3684      7400
 3685              	.LASF112:
 3686 0362 6C617374 		.ascii	"last\000"
 3686      00
 3687              	.LASF31:
 3688 0367 75636E74 		.ascii	"ucnt_t\000"
 3688      5F7400
 3689              	.LASF86:
 3690 036e 63685F73 		.ascii	"ch_system_t\000"
 3690      79737465 
 3690      6D5F7400 
 3691              	.LASF153:
 3692 037a 63665F6F 		.ascii	"cf_off_time\000"
 3692      66665F74 
 3692      696D6500 
 3693              	.LASF118:
 3694 0386 6D5F6372 		.ascii	"m_crit_isr\000"
 3694      69745F69 
 3694      737200
 3695              	.LASF62:
 3696 0391 63685F72 		.ascii	"ch_ready_list\000"
 3696      65616479 
 3696      5F6C6973 
ARM GAS  C:\Users\mathi\AppData\Local\Temp\ccBnzMKY.s 			page 69


 3696      7400
 3697              	.LASF29:
 3698 039f 6576656E 		.ascii	"eventmask_t\000"
 3698      746D6173 
 3698      6B5F7400 
 3699              	.LASF10:
 3700 03ab 5F5F696E 		.ascii	"__int32_t\000"
 3700      7433325F 
 3700      7400
 3701              	.LASF96:
 3702 03b5 73746B61 		.ascii	"stkalign_t\000"
 3702      6C69676E 
 3702      5F7400
 3703              	.LASF173:
 3704 03c0 63684865 		.ascii	"chHeapObjectInit\000"
 3704      61704F62 
 3704      6A656374 
 3704      496E6974 
 3704      00
 3705              	.LASF137:
 3706 03d1 63685F7A 		.ascii	"ch_zero\000"
 3706      65726F00 
 3707              	.LASF151:
 3708 03d9 63665F6F 		.ascii	"cf_off_refs\000"
 3708      66665F72 
 3708      65667300 
 3709              	.LASF47:
 3710 03e5 705F7761 		.ascii	"p_waiting\000"
 3710      6974696E 
 3710      6700
 3711              	.LASF21:
 3712 03ef 7274636E 		.ascii	"rtcnt_t\000"
 3712      745F7400 
 3713              	.LASF78:
 3714 03f7 63685F76 		.ascii	"ch_virtual_timers_list\000"
 3714      69727475 
 3714      616C5F74 
 3714      696D6572 
 3714      735F6C69 
 3715              	.LASF2:
 3716 040e 6C6F6E67 		.ascii	"long double\000"
 3716      20646F75 
 3716      626C6500 
 3717              	.LASF141:
 3718 041a 63685F74 		.ascii	"ch_timesize\000"
 3718      696D6573 
 3718      697A6500 
 3719              	.LASF105:
 3720 0426 74625F70 		.ascii	"tb_ptr\000"
 3720      747200
 3721              	.LASF103:
 3722 042d 63685F73 		.ascii	"ch_swc_event_t\000"
 3722      77635F65 
 3722      76656E74 
 3722      5F7400
 3723              	.LASF147:
 3724 043c 63665F6F 		.ascii	"cf_off_name\000"
ARM GAS  C:\Users\mathi\AppData\Local\Temp\ccBnzMKY.s 			page 70


 3724      66665F6E 
 3724      616D6500 
 3725              	.LASF176:
 3726 0448 63684D74 		.ascii	"chMtxLock\000"
 3726      784C6F63 
 3726      6B00
 3727              	.LASF39:
 3728 0452 705F6F6C 		.ascii	"p_older\000"
 3728      64657200 
 3729              	.LASF65:
 3730 045a 725F6374 		.ascii	"r_ctx\000"
 3730      7800
 3731              	.LASF37:
 3732 0460 705F6374 		.ascii	"p_ctx\000"
 3732      7800
 3733              	.LASF74:
 3734 0466 76745F64 		.ascii	"vt_delta\000"
 3734      656C7461 
 3734      00
 3735              	.LASF109:
 3736 046f 746D5F63 		.ascii	"tm_calibration_t\000"
 3736      616C6962 
 3736      72617469 
 3736      6F6E5F74 
 3736      00
 3737              	.LASF68:
 3738 0480 725F6375 		.ascii	"r_current\000"
 3738      7272656E 
 3738      7400
 3739              	.LASF67:
 3740 048a 725F6F6C 		.ascii	"r_older\000"
 3740      64657200 
 3741              	.LASF14:
 3742 0492 5F5F7569 		.ascii	"__uint64_t\000"
 3742      6E743634 
 3742      5F7400
 3743              	.LASF113:
 3744 049d 63756D75 		.ascii	"cumulative\000"
 3744      6C617469 
 3744      766500
 3745              	.LASF180:
 3746 04a8 474E5520 		.ascii	"GNU C11 7.2.1 20170904 (release) [ARM/embedded-7-br"
 3746      43313120 
 3746      372E322E 
 3746      31203230 
 3746      31373039 
 3747 04db 616E6368 		.ascii	"anch revision 255204] -mcpu=cortex-m4 -mfloat-abi=h"
 3747      20726576 
 3747      6973696F 
 3747      6E203235 
 3747      35323034 
 3748 050e 61726420 		.ascii	"ard -mfpu=fpv4-sp-d16 -mno-thumb-interwork -mthumb "
 3748      2D6D6670 
 3748      753D6670 
 3748      76342D73 
 3748      702D6431 
 3749 0541 2D676764 		.ascii	"-ggdb -O3 -fomit-frame-pointer -falign-functions=16"
ARM GAS  C:\Users\mathi\AppData\Local\Temp\ccBnzMKY.s 			page 71


 3749      62202D4F 
 3749      33202D66 
 3749      6F6D6974 
 3749      2D667261 
 3750 0574 202D666E 		.ascii	" -fno-strict-aliasing -fstack-protector-all -ffunct"
 3750      6F2D7374 
 3750      72696374 
 3750      2D616C69 
 3750      6173696E 
 3751 05a7 696F6E2D 		.ascii	"ion-sections -fdata-sections -fno-common -fsingle-p"
 3751      73656374 
 3751      696F6E73 
 3751      202D6664 
 3751      6174612D 
 3752 05da 72656369 		.ascii	"recision-constant\000"
 3752      73696F6E 
 3752      2D636F6E 
 3752      7374616E 
 3752      7400
 3753              	.LASF25:
 3754 05ec 74726566 		.ascii	"trefs_t\000"
 3754      735F7400 
 3755              	.LASF106:
 3756 05f4 74625F62 		.ascii	"tb_buffer\000"
 3756      75666665 
 3756      7200
 3757              	.LASF140:
 3758 05fe 63685F70 		.ascii	"ch_ptrsize\000"
 3758      74727369 
 3758      7A6500
 3759              	.LASF70:
 3760 0609 76697274 		.ascii	"virtual_timer_t\000"
 3760      75616C5F 
 3760      74696D65 
 3760      725F7400 
 3761              	.LASF35:
 3762 0619 705F7072 		.ascii	"p_prev\000"
 3762      657600
 3763              	.LASF27:
 3764 0620 74707269 		.ascii	"tprio_t\000"
 3764      6F5F7400 
 3765              	.LASF179:
 3766 0628 63684D74 		.ascii	"chMtxObjectInit\000"
 3766      784F626A 
 3766      65637449 
 3766      6E697400 
 3767              	.LASF116:
 3768 0638 6E5F6374 		.ascii	"n_ctxswc\000"
 3768      78737763 
 3768      00
 3769              	.LASF18:
 3770 0641 696E7433 		.ascii	"int32_t\000"
 3770      325F7400 
 3771              	.LASF6:
 3772 0649 756E7369 		.ascii	"unsigned char\000"
 3772      676E6564 
 3772      20636861 
ARM GAS  C:\Users\mathi\AppData\Local\Temp\ccBnzMKY.s 			page 72


 3772      7200
 3773              	.LASF183:
 3774 0657 68656170 		.ascii	"heap_header\000"
 3774      5F686561 
 3774      64657200 
 3775              	.LASF51:
 3776 0663 705F6D74 		.ascii	"p_mtxlist\000"
 3776      786C6973 
 3776      7400
 3777              	.LASF7:
 3778 066d 73686F72 		.ascii	"short int\000"
 3778      7420696E 
 3778      7400
 3779              	.LASF42:
 3780 0677 705F7374 		.ascii	"p_state\000"
 3780      61746500 
 3781              	.LASF45:
 3782 067f 705F7072 		.ascii	"p_preempt\000"
 3782      65656D70 
 3782      7400
 3783              	.LASF64:
 3784 0689 725F7072 		.ascii	"r_prio\000"
 3784      696F00
 3785              	.LASF126:
 3786 0690 65776D61 		.ascii	"ewmask\000"
 3786      736B00
 3787              	.LASF34:
 3788 0697 705F6E65 		.ascii	"p_next\000"
 3788      787400
 3789              	.LASF23:
 3790 069e 746D6F64 		.ascii	"tmode_t\000"
 3790      655F7400 
 3791              	.LASF152:
 3792 06a6 63665F6F 		.ascii	"cf_off_preempt\000"
 3792      66665F70 
 3792      7265656D 
 3792      707400
 3793              	.LASF43:
 3794 06b5 705F666C 		.ascii	"p_flags\000"
 3794      61677300 
 3795              	.LASF174:
 3796 06bd 5F5F6675 		.ascii	"__func__\000"
 3796      6E635F5F 
 3796      00
 3797              	.LASF54:
 3798 06c6 705F7374 		.ascii	"p_stats\000"
 3798      61747300 
 3799              	.LASF59:
 3800 06ce 74687265 		.ascii	"threads_queue_t\000"
 3800      6164735F 
 3800      71756575 
 3800      655F7400 
 3801              	.LASF171:
 3802 06de 63684865 		.ascii	"chHeapAlloc\000"
 3802      6170416C 
 3802      6C6F6300 
 3803              	.LASF145:
ARM GAS  C:\Users\mathi\AppData\Local\Temp\ccBnzMKY.s 			page 73


 3804 06ea 63665F6F 		.ascii	"cf_off_newer\000"
 3804      66665F6E 
 3804      65776572 
 3804      00
 3805              	.LASF184:
 3806 06f7 5F5F7374 		.ascii	"__stack_chk_fail\000"
 3806      61636B5F 
 3806      63686B5F 
 3806      6661696C 
 3806      00
 3807              	.LASF127:
 3808 0708 63685F73 		.ascii	"ch_semaphore\000"
 3808      656D6170 
 3808      686F7265 
 3808      00
 3809              	.LASF50:
 3810 0715 705F6570 		.ascii	"p_epending\000"
 3810      656E6469 
 3810      6E6700
 3811              	.LASF19:
 3812 0720 75696E74 		.ascii	"uint32_t\000"
 3812      33325F74 
 3812      00
 3813              	.LASF143:
 3814 0729 63665F6F 		.ascii	"cf_off_prio\000"
 3814      66665F70 
 3814      72696F00 
 3815              	.LASF63:
 3816 0735 725F7175 		.ascii	"r_queue\000"
 3816      65756500 
 3817              	.LASF58:
 3818 073d 63685F74 		.ascii	"ch_threads_list\000"
 3818      68726561 
 3818      64735F6C 
 3818      69737400 
 3819              	.LASF138:
 3820 074d 63685F73 		.ascii	"ch_size\000"
 3820      697A6500 
 3821              	.LASF164:
 3822 0755 68656170 		.ascii	"heap\000"
 3822      00
 3823              	.LASF13:
 3824 075a 6C6F6E67 		.ascii	"long unsigned int\000"
 3824      20756E73 
 3824      69676E65 
 3824      6420696E 
 3824      7400
 3825              	.LASF169:
 3826 076c 64656661 		.ascii	"default_heap\000"
 3826      756C745F 
 3826      68656170 
 3826      00
 3827              	.LASF135:
 3828 0779 63686172 		.ascii	"char\000"
 3828      00
 3829              	.LASF125:
 3830 077e 77746D74 		.ascii	"wtmtxp\000"
ARM GAS  C:\Users\mathi\AppData\Local\Temp\ccBnzMKY.s 			page 74


 3830      787000
 3831              	.LASF49:
 3832 0785 705F6D73 		.ascii	"p_msg\000"
 3832      6700
 3833              	.LASF8:
 3834 078b 5F5F7569 		.ascii	"__uint16_t\000"
 3834      6E743136 
 3834      5F7400
 3835              	.LASF33:
 3836 0796 74687265 		.ascii	"thread_t\000"
 3836      61645F74 
 3836      00
 3837              	.LASF110:
 3838 079f 62657374 		.ascii	"best\000"
 3838      00
 3839              	.LASF133:
 3840 07a4 6D5F6E65 		.ascii	"m_next\000"
 3840      787400
 3841              	.LASF32:
 3842 07ab 73797374 		.ascii	"systime_t\000"
 3842      696D655F 
 3842      7400
 3843              	.LASF52:
 3844 07b5 705F7265 		.ascii	"p_realprio\000"
 3844      616C7072 
 3844      696F00
 3845              	.LASF69:
 3846 07c0 76746675 		.ascii	"vtfunc_t\000"
 3846      6E635F74 
 3846      00
 3847              	.LASF12:
 3848 07c9 5F5F7569 		.ascii	"__uint32_t\000"
 3848      6E743332 
 3848      5F7400
 3849              	.LASF82:
 3850 07d4 70616E69 		.ascii	"panic_msg\000"
 3850      635F6D73 
 3850      6700
 3851              	.LASF108:
 3852 07de 6F666673 		.ascii	"offset\000"
 3852      657400
 3853              	.LASF97:
 3854 07e5 636F6E74 		.ascii	"context\000"
 3854      65787400 
 3855              	.LASF71:
 3856 07ed 63685F76 		.ascii	"ch_virtual_timer\000"
 3856      69727475 
 3856      616C5F74 
 3856      696D6572 
 3856      00
 3857              	.LASF157:
 3858 07fe 6D656D67 		.ascii	"memgetfunc_t\000"
 3858      65746675 
 3858      6E635F74 
 3858      00
 3859              	.LASF76:
 3860 080b 76745F70 		.ascii	"vt_par\000"
ARM GAS  C:\Users\mathi\AppData\Local\Temp\ccBnzMKY.s 			page 75


 3860      617200
 3861              	.LASF181:
 3862 0812 2E2E2F2E 		.ascii	"../../lib/e-puck2_main-processor/ChibiOS//os/rt/src"
 3862      2E2F6C69 
 3862      622F652D 
 3862      7075636B 
 3862      325F6D61 
 3863 0845 2F636868 		.ascii	"/chheap.c\000"
 3863      6561702E 
 3863      6300
 3864              	.LASF170:
 3865 084f 63684865 		.ascii	"chHeapStatus\000"
 3865      61705374 
 3865      61747573 
 3865      00
 3866              	.LASF144:
 3867 085c 63665F6F 		.ascii	"cf_off_ctx\000"
 3867      66665F63 
 3867      747800
 3868              	.LASF130:
 3869 0867 63685F6D 		.ascii	"ch_mutex\000"
 3869      75746578 
 3869      00
 3870              	.LASF44:
 3871 0870 705F7265 		.ascii	"p_refs\000"
 3871      667300
 3872              	.LASF83:
 3873 0877 6973725F 		.ascii	"isr_cnt\000"
 3873      636E7400 
 3874              	.LASF102:
 3875 087f 73655F73 		.ascii	"se_state\000"
 3875      74617465 
 3875      00
 3876              	.LASF88:
 3877 0888 726C6973 		.ascii	"rlist\000"
 3877      7400
 3878              	.LASF16:
 3879 088e 75696E74 		.ascii	"uint8_t\000"
 3879      385F7400 
 3880              	.LASF160:
 3881 0896 685F7072 		.ascii	"h_provider\000"
 3881      6F766964 
 3881      657200
 3882              	.LASF55:
 3883 08a1 74687265 		.ascii	"thread_reference_t\000"
 3883      61645F72 
 3883      65666572 
 3883      656E6365 
 3883      5F7400
 3884              	.LASF122:
 3885 08b4 77746F62 		.ascii	"wtobjp\000"
 3885      6A7000
 3886              	.LASF168:
 3887 08bb 73697A65 		.ascii	"sizep\000"
 3887      7000
 3888              	.LASF40:
 3889 08c1 705F6E61 		.ascii	"p_name\000"
ARM GAS  C:\Users\mathi\AppData\Local\Temp\ccBnzMKY.s 			page 76


 3889      6D6500
 3890              	.LASF166:
 3891 08c8 73697A65 		.ascii	"size\000"
 3891      00
 3892              	.LASF79:
 3893 08cd 76745F73 		.ascii	"vt_systime\000"
 3893      79737469 
 3893      6D6500
 3894              	.LASF85:
 3895 08d8 74726163 		.ascii	"trace_buffer\000"
 3895      655F6275 
 3895      66666572 
 3895      00
 3896              	.LASF175:
 3897 08e5 5F686561 		.ascii	"_heap_init\000"
 3897      705F696E 
 3897      697400
 3898              	.LASF139:
 3899 08f0 63685F76 		.ascii	"ch_version\000"
 3899      65727369 
 3899      6F6E00
 3900              	.LASF117:
 3901 08fb 6D5F6372 		.ascii	"m_crit_thd\000"
 3901      69745F74 
 3901      686400
 3902              	.LASF132:
 3903 0906 6D5F6F77 		.ascii	"m_owner\000"
 3903      6E657200 
 3904              	.LASF101:
 3905 090e 73655F77 		.ascii	"se_wtobjp\000"
 3905      746F626A 
 3905      7000
 3906              	.LASF136:
 3907 0918 63685F69 		.ascii	"ch_identifier\000"
 3907      64656E74 
 3907      69666965 
 3907      7200
 3908              	.LASF75:
 3909 0926 76745F66 		.ascii	"vt_func\000"
 3909      756E6300 
 3910              	.LASF159:
 3911 092e 6D656D6F 		.ascii	"memory_heap\000"
 3911      72795F68 
 3911      65617000 
 3912              		.ident	"GCC: (GNU Tools for Arm Embedded Processors 7-2017-q4-major) 7.2.1 20170904 (release) [ARM
ARM GAS  C:\Users\mathi\AppData\Local\Temp\ccBnzMKY.s 			page 77


DEFINED SYMBOLS
                            *ABS*:00000000 chheap.c
C:\Users\mathi\AppData\Local\Temp\ccBnzMKY.s:18     .text._heap_init:00000000 $t
C:\Users\mathi\AppData\Local\Temp\ccBnzMKY.s:26     .text._heap_init:00000000 _heap_init
C:\Users\mathi\AppData\Local\Temp\ccBnzMKY.s:78     .text._heap_init:00000030 $d
C:\Users\mathi\AppData\Local\Temp\ccBnzMKY.s:85     .text.chHeapObjectInit:00000000 $t
C:\Users\mathi\AppData\Local\Temp\ccBnzMKY.s:93     .text.chHeapObjectInit:00000000 chHeapObjectInit
C:\Users\mathi\AppData\Local\Temp\ccBnzMKY.s:174    .text.chHeapObjectInit:00000048 $d
C:\Users\mathi\AppData\Local\Temp\ccBnzMKY.s:180    .text.chHeapAlloc:00000000 $t
C:\Users\mathi\AppData\Local\Temp\ccBnzMKY.s:188    .text.chHeapAlloc:00000000 chHeapAlloc
C:\Users\mathi\AppData\Local\Temp\ccBnzMKY.s:336    .text.chHeapAlloc:0000009c $d
C:\Users\mathi\AppData\Local\Temp\ccBnzMKY.s:342    .text.chHeapFree:00000000 $t
C:\Users\mathi\AppData\Local\Temp\ccBnzMKY.s:350    .text.chHeapFree:00000000 chHeapFree
C:\Users\mathi\AppData\Local\Temp\ccBnzMKY.s:514    .text.chHeapFree:000000bc $d
C:\Users\mathi\AppData\Local\Temp\ccBnzMKY.s:520    .text.chHeapStatus:00000000 $t
C:\Users\mathi\AppData\Local\Temp\ccBnzMKY.s:528    .text.chHeapStatus:00000000 chHeapStatus
C:\Users\mathi\AppData\Local\Temp\ccBnzMKY.s:625    .text.chHeapStatus:00000054 $d
C:\Users\mathi\AppData\Local\Temp\ccBnzMKY.s:631    .bss.default_heap:00000000 $d
C:\Users\mathi\AppData\Local\Temp\ccBnzMKY.s:635    .bss.default_heap:00000000 default_heap
C:\Users\mathi\AppData\Local\Temp\ccBnzMKY.s:638    .rodata.__func__.7856:00000000 $d
C:\Users\mathi\AppData\Local\Temp\ccBnzMKY.s:642    .rodata.__func__.7856:00000000 __func__.7856
C:\Users\mathi\AppData\Local\Temp\ccBnzMKY.s:645    .rodata.__func__.7873:00000000 $d
C:\Users\mathi\AppData\Local\Temp\ccBnzMKY.s:649    .rodata.__func__.7873:00000000 __func__.7873

UNDEFINED SYMBOLS
chMtxObjectInit
__stack_chk_fail
__stack_chk_guard
chCoreAlloc
chSysHalt
chMtxLock
chMtxUnlock
