ARM GAS  C:\Users\mathi\AppData\Local\Temp\ccBnzMKY.s 			page 1


   1              		.cpu cortex-m4
   2              		.eabi_attribute 27, 1
   3              		.eabi_attribute 28, 1
   4              		.eabi_attribute 20, 1
   5              		.eabi_attribute 21, 1
   6              		.eabi_attribute 23, 3
   7              		.eabi_attribute 24, 1
   8              		.eabi_attribute 25, 1
   9              		.eabi_attribute 26, 1
  10              		.eabi_attribute 30, 2
  11              		.eabi_attribute 34, 1
  12              		.eabi_attribute 18, 4
  13              		.file	"chheap.c"
  14              		.text
  15              	.Ltext0:
  16              		.cfi_sections	.debug_frame
  17              		.section	.text._heap_init,"ax",%progbits
  18              		.align	1
  19              		.p2align 4,,15
  20              		.global	_heap_init
  21              		.syntax unified
  22              		.thumb
  23              		.thumb_func
  24              		.fpu fpv4-sp-d16
  25              		.type	_heap_init, %function
  26              	_heap_init:
  27              	.LFB219:
  28              		.file 1 "../../lib/e-puck2_main-processor/ChibiOS//os/rt/src/chheap.c"
  29              		.loc 1 91 0
  30              		.cfi_startproc
  31              		@ args = 0, pretend = 0, frame = 8
  32              		@ frame_needed = 0, uses_anonymous_args = 0
  33 0000 00B5     		push	{lr}
  34              		.cfi_def_cfa_offset 4
  35              		.cfi_offset 14, -4
  36 0002 0B4B     		ldr	r3, .L7
  37              		.loc 1 93 0
  38 0004 0B48     		ldr	r0, .L7+4
  39              		.loc 1 91 0
  40 0006 1A68     		ldr	r2, [r3]
  41 0008 83B0     		sub	sp, sp, #12
  42              		.cfi_def_cfa_offset 16
  43              		.loc 1 91 0
  44 000a 0192     		str	r2, [sp, #4]
  45              		.loc 1 97 0
  46 000c 0199     		ldr	r1, [sp, #4]
  47 000e 1A68     		ldr	r2, [r3]
  48              		.loc 1 93 0
  49 0010 094B     		ldr	r3, .L7+8
  50 0012 0360     		str	r3, [r0]
  51              		.loc 1 97 0
  52 0014 9142     		cmp	r1, r2
  53              		.loc 1 94 0
  54 0016 4FF00003 		mov	r3, #0
  55              		.loc 1 95 0
  56 001a C0E90233 		strd	r3, r3, [r0, #8]
  57              		.loc 1 97 0
ARM GAS  C:\Users\mathi\AppData\Local\Temp\ccBnzMKY.s 			page 2


  58 001e 05D1     		bne	.L6
  59 0020 1030     		adds	r0, r0, #16
  60              		.loc 1 101 0
  61 0022 03B0     		add	sp, sp, #12
  62              		.cfi_remember_state
  63              		.cfi_def_cfa_offset 4
  64              		@ sp needed
  65 0024 5DF804EB 		ldr	lr, [sp], #4
  66              		.cfi_restore 14
  67              		.cfi_def_cfa_offset 0
  68              		.loc 1 97 0
  69 0028 FFF7FEBF 		b	chMtxObjectInit
  70              	.LVL0:
  71              	.L6:
  72              		.cfi_restore_state
  73 002c FFF7FEFF 		bl	__stack_chk_fail
  74              	.LVL1:
  75              	.L8:
  76              		.align	2
  77              	.L7:
  78 0030 00000000 		.word	__stack_chk_guard
  79 0034 00000000 		.word	.LANCHOR0
  80 0038 00000000 		.word	chCoreAlloc
  81              		.cfi_endproc
  82              	.LFE219:
  83              		.size	_heap_init, .-_heap_init
  84              		.section	.text.chHeapObjectInit,"ax",%progbits
  85              		.align	1
  86              		.p2align 4,,15
  87              		.global	chHeapObjectInit
  88              		.syntax unified
  89              		.thumb
  90              		.thumb_func
  91              		.fpu fpv4-sp-d16
  92              		.type	chHeapObjectInit, %function
  93              	chHeapObjectInit:
  94              	.LFB220:
  95              		.loc 1 114 0
  96              		.cfi_startproc
  97              		@ args = 0, pretend = 0, frame = 8
  98              		@ frame_needed = 0, uses_anonymous_args = 0
  99              	.LVL2:
 100 0000 F0B5     		push	{r4, r5, r6, r7, lr}
 101              		.cfi_def_cfa_offset 20
 102              		.cfi_offset 4, -20
 103              		.cfi_offset 5, -16
 104              		.cfi_offset 6, -12
 105              		.cfi_offset 7, -8
 106              		.cfi_offset 14, -4
 107 0002 114F     		ldr	r7, .L18
 108 0004 83B0     		sub	sp, sp, #12
 109              		.cfi_def_cfa_offset 32
 110              		.loc 1 114 0
 111 0006 3B68     		ldr	r3, [r7]
 112 0008 0193     		str	r3, [sp, #4]
 113              	.LVL3:
 114              		.loc 1 117 0
ARM GAS  C:\Users\mathi\AppData\Local\Temp\ccBnzMKY.s 			page 3


 115 000a 41EA0203 		orr	r3, r1, r2
 116 000e 5B07     		lsls	r3, r3, #29
 117              		.loc 1 114 0
 118 0010 0C46     		mov	r4, r1
 119 0012 1546     		mov	r5, r2
 120 0014 0646     		mov	r6, r0
 121              		.loc 1 117 0
 122 0016 02D0     		beq	.L10
 123              		.loc 1 117 0 is_stmt 0 discriminator 4
 124 0018 0C48     		ldr	r0, .L18+4
 125              	.LVL4:
 126 001a FFF7FEFF 		bl	chSysHalt
 127              	.LVL5:
 128              	.L10:
 129              		.loc 1 119 0 is_stmt 1
 130 001e 0023     		movs	r3, #0
 131 0020 3360     		str	r3, [r6]
 132              		.loc 1 121 0
 133 0022 F360     		str	r3, [r6, #12]
 134              		.loc 1 120 0
 135 0024 B460     		str	r4, [r6, #8]
 136              		.loc 1 122 0
 137 0026 2360     		str	r3, [r4]
 138              		.loc 1 125 0
 139 0028 019A     		ldr	r2, [sp, #4]
 140 002a 3B68     		ldr	r3, [r7]
 141              		.loc 1 123 0
 142 002c 083D     		subs	r5, r5, #8
 143              	.LVL6:
 144              		.loc 1 125 0
 145 002e 9A42     		cmp	r2, r3
 146              		.loc 1 123 0
 147 0030 6560     		str	r5, [r4, #4]
 148              		.loc 1 125 0
 149 0032 06D1     		bne	.L17
 150 0034 06F11000 		add	r0, r6, #16
 151              		.loc 1 129 0
 152 0038 03B0     		add	sp, sp, #12
 153              		.cfi_remember_state
 154              		.cfi_def_cfa_offset 20
 155              		@ sp needed
 156 003a BDE8F040 		pop	{r4, r5, r6, r7, lr}
 157              		.cfi_restore 14
 158              		.cfi_restore 7
 159              		.cfi_restore 6
 160              		.cfi_restore 5
 161              		.cfi_restore 4
 162              		.cfi_def_cfa_offset 0
 163              	.LVL7:
 164              		.loc 1 125 0
 165 003e FFF7FEBF 		b	chMtxObjectInit
 166              	.LVL8:
 167              	.L17:
 168              		.cfi_restore_state
 169 0042 FFF7FEFF 		bl	__stack_chk_fail
 170              	.LVL9:
 171              	.L19:
ARM GAS  C:\Users\mathi\AppData\Local\Temp\ccBnzMKY.s 			page 4


 172 0046 00BF     		.align	2
 173              	.L18:
 174 0048 00000000 		.word	__stack_chk_guard
 175 004c 00000000 		.word	.LANCHOR1
 176              		.cfi_endproc
 177              	.LFE220:
 178              		.size	chHeapObjectInit, .-chHeapObjectInit
 179              		.section	.text.chHeapAlloc,"ax",%progbits
 180              		.align	1
 181              		.p2align 4,,15
 182              		.global	chHeapAlloc
 183              		.syntax unified
 184              		.thumb
 185              		.thumb_func
 186              		.fpu fpv4-sp-d16
 187              		.type	chHeapAlloc, %function
 188              	chHeapAlloc:
 189              	.LFB221:
 190              		.loc 1 147 0
 191              		.cfi_startproc
 192              		@ args = 0, pretend = 0, frame = 8
 193              		@ frame_needed = 0, uses_anonymous_args = 0
 194              	.LVL10:
 195 0000 2DE9F041 		push	{r4, r5, r6, r7, r8, lr}
 196              		.cfi_def_cfa_offset 24
 197              		.cfi_offset 4, -24
 198              		.cfi_offset 5, -20
 199              		.cfi_offset 6, -16
 200              		.cfi_offset 7, -12
 201              		.cfi_offset 8, -8
 202              		.cfi_offset 14, -4
 203              		.loc 1 151 0
 204 0004 254E     		ldr	r6, .L38
 205              		.loc 1 147 0
 206 0006 264F     		ldr	r7, .L38+4
 207              		.loc 1 151 0
 208 0008 0028     		cmp	r0, #0
 209 000a 18BF     		it	ne
 210 000c 0646     		movne	r6, r0
 211              	.LVL11:
 212              		.loc 1 147 0
 213 000e 82B0     		sub	sp, sp, #8
 214              		.cfi_def_cfa_offset 32
 215              		.loc 1 157 0
 216 0010 06F11008 		add	r8, r6, #16
 217              		.loc 1 154 0
 218 0014 0731     		adds	r1, r1, #7
 219              	.LVL12:
 220              		.loc 1 147 0
 221 0016 3B68     		ldr	r3, [r7]
 222 0018 0193     		str	r3, [sp, #4]
 223              		.loc 1 157 0
 224 001a 4046     		mov	r0, r8
 225              		.loc 1 154 0
 226 001c 21F00705 		bic	r5, r1, #7
 227              	.LVL13:
 228              		.loc 1 155 0
ARM GAS  C:\Users\mathi\AppData\Local\Temp\ccBnzMKY.s 			page 5


 229 0020 06F10804 		add	r4, r6, #8
 230              	.LVL14:
 231              		.loc 1 157 0
 232 0024 FFF7FEFF 		bl	chMtxLock
 233              	.LVL15:
 234              		.loc 1 158 0
 235 0028 03E0     		b	.L22
 236              	.L26:
 237              	.LVL16:
 238              		.loc 1 160 0
 239 002a 4368     		ldr	r3, [r0, #4]
 240 002c AB42     		cmp	r3, r5
 241 002e 18D2     		bcs	.L36
 242 0030 0446     		mov	r4, r0
 243              	.LVL17:
 244              	.L22:
 245              		.loc 1 158 0
 246 0032 2068     		ldr	r0, [r4]
 247 0034 0028     		cmp	r0, #0
 248 0036 F8D1     		bne	.L26
 249              		.loc 1 186 0
 250 0038 4046     		mov	r0, r8
 251 003a FFF7FEFF 		bl	chMtxUnlock
 252              	.LVL18:
 253              		.loc 1 190 0
 254 003e 3368     		ldr	r3, [r6]
 255 0040 3BB3     		cbz	r3, .L28
 256              		.loc 1 191 0
 257 0042 05F10800 		add	r0, r5, #8
 258 0046 9847     		blx	r3
 259              	.LVL19:
 260              		.loc 1 192 0
 261 0048 18B3     		cbz	r0, .L28
 262              		.loc 1 194 0
 263 004a C0E90065 		strd	r6, r5, [r0]
 264              		.loc 1 195 0
 265 004e 00F10804 		add	r4, r0, #8
 266              	.LVL20:
 267              	.L20:
 268              		.loc 1 204 0
 269 0052 019A     		ldr	r2, [sp, #4]
 270 0054 3B68     		ldr	r3, [r7]
 271 0056 9A42     		cmp	r2, r3
 272 0058 2046     		mov	r0, r4
 273 005a 1CD1     		bne	.L37
 274 005c 02B0     		add	sp, sp, #8
 275              		.cfi_remember_state
 276              		.cfi_def_cfa_offset 24
 277              		@ sp needed
 278 005e BDE8F081 		pop	{r4, r5, r6, r7, r8, pc}
 279              	.LVL21:
 280              	.L36:
 281              		.cfi_restore_state
 282              		.loc 1 161 0
 283 0062 05F10802 		add	r2, r5, #8
 284 0066 9342     		cmp	r3, r2
 285 0068 0168     		ldr	r1, [r0]
ARM GAS  C:\Users\mathi\AppData\Local\Temp\ccBnzMKY.s 			page 6


 286 006a 07D2     		bcs	.L23
 287              		.loc 1 165 0
 288 006c 2160     		str	r1, [r4]
 289              	.L24:
 290              		.loc 1 177 0
 291 006e 0446     		mov	r4, r0
 292              	.LVL22:
 293              		.loc 1 178 0
 294 0070 4046     		mov	r0, r8
 295              	.LVL23:
 296              		.loc 1 177 0
 297 0072 44F8086B 		str	r6, [r4], #8
 298              	.LVL24:
 299              		.loc 1 178 0
 300 0076 FFF7FEFF 		bl	chMtxUnlock
 301              	.LVL25:
 302              		.loc 1 181 0
 303 007a EAE7     		b	.L20
 304              	.LVL26:
 305              	.L23:
 306              		.loc 1 172 0
 307 007c 8150     		str	r1, [r0, r2]
 308              		.loc 1 173 0
 309 007e 6FF00701 		mvn	r1, #7
 310 0082 4368     		ldr	r3, [r0, #4]
 311              		.loc 1 170 0
 312 0084 0244     		add	r2, r2, r0
 313              	.LVL27:
 314              		.loc 1 173 0
 315 0086 491B     		subs	r1, r1, r5
 316 0088 0B44     		add	r3, r3, r1
 317 008a 5360     		str	r3, [r2, #4]
 318              		.loc 1 174 0
 319 008c 2260     		str	r2, [r4]
 320              		.loc 1 175 0
 321 008e 4560     		str	r5, [r0, #4]
 322 0090 EDE7     		b	.L24
 323              	.LVL28:
 324              	.L28:
 325              		.loc 1 203 0
 326 0092 0024     		movs	r4, #0
 327              	.LVL29:
 328 0094 DDE7     		b	.L20
 329              	.L37:
 330              		.loc 1 204 0
 331 0096 FFF7FEFF 		bl	__stack_chk_fail
 332              	.LVL30:
 333              	.L39:
 334 009a 00BF     		.align	2
 335              	.L38:
 336 009c 00000000 		.word	.LANCHOR0
 337 00a0 00000000 		.word	__stack_chk_guard
 338              		.cfi_endproc
 339              	.LFE221:
 340              		.size	chHeapAlloc, .-chHeapAlloc
 341              		.section	.text.chHeapFree,"ax",%progbits
 342              		.align	1
ARM GAS  C:\Users\mathi\AppData\Local\Temp\ccBnzMKY.s 			page 7


 343              		.p2align 4,,15
 344              		.global	chHeapFree
 345              		.syntax unified
 346              		.thumb
 347              		.thumb_func
 348              		.fpu fpv4-sp-d16
 349              		.type	chHeapFree, %function
 350              	chHeapFree:
 351              	.LFB222:
 352              		.loc 1 213 0
 353              		.cfi_startproc
 354              		@ args = 0, pretend = 0, frame = 8
 355              		@ frame_needed = 0, uses_anonymous_args = 0
 356              	.LVL31:
 357 0000 2DE9F047 		push	{r4, r5, r6, r7, r8, r9, r10, lr}
 358              		.cfi_def_cfa_offset 32
 359              		.cfi_offset 4, -32
 360              		.cfi_offset 5, -28
 361              		.cfi_offset 6, -24
 362              		.cfi_offset 7, -20
 363              		.cfi_offset 8, -16
 364              		.cfi_offset 9, -12
 365              		.cfi_offset 10, -8
 366              		.cfi_offset 14, -4
 367 0004 2D4F     		ldr	r7, .L60
 368 0006 82B0     		sub	sp, sp, #8
 369              		.cfi_def_cfa_offset 40
 370              		.loc 1 213 0
 371 0008 3B68     		ldr	r3, [r7]
 372 000a 0193     		str	r3, [sp, #4]
 373              		.loc 1 217 0
 374 000c 8246     		mov	r10, r0
 375 000e 0028     		cmp	r0, #0
 376 0010 4ED0     		beq	.L55
 377              	.LVL32:
 378              	.L41:
 379              		.loc 1 222 0
 380 0012 5AF8083C 		ldr	r3, [r10, #-8]
 381              		.loc 1 227 0
 382 0016 DFF8A880 		ldr	r8, .L60+4
 383              		.loc 1 225 0
 384 001a 03F11006 		add	r6, r3, #16
 385 001e 3046     		mov	r0, r6
 386              		.loc 1 223 0
 387 0020 03F10809 		add	r9, r3, #8
 388              		.loc 1 225 0
 389 0024 FFF7FEFF 		bl	chMtxLock
 390              	.LVL33:
 391              		.loc 1 223 0
 392 0028 4C46     		mov	r4, r9
 393              		.loc 1 220 0
 394 002a AAF10805 		sub	r5, r10, #8
 395              	.LVL34:
 396              	.L42:
 397              		.loc 1 227 0 discriminator 1
 398 002e AC42     		cmp	r4, r5
 399 0030 04D8     		bhi	.L43
ARM GAS  C:\Users\mathi\AppData\Local\Temp\ccBnzMKY.s 			page 8


 400              		.loc 1 227 0 is_stmt 0 discriminator 2
 401 0032 6368     		ldr	r3, [r4, #4]
 402 0034 0833     		adds	r3, r3, #8
 403 0036 2344     		add	r3, r3, r4
 404 0038 9D42     		cmp	r5, r3
 405 003a 21D3     		bcc	.L56
 406              	.L43:
 407              		.loc 1 229 0 is_stmt 1
 408 003c 4C45     		cmp	r4, r9
 409 003e 2368     		ldr	r3, [r4]
 410 0040 01D0     		beq	.L44
 411              		.loc 1 229 0 is_stmt 0 discriminator 2
 412 0042 AC42     		cmp	r4, r5
 413 0044 02D2     		bcs	.L45
 414              	.L44:
 415              		.loc 1 229 0 discriminator 3
 416 0046 1BB1     		cbz	r3, .L46
 417              		.loc 1 230 0 is_stmt 1
 418 0048 9D42     		cmp	r5, r3
 419 004a 01D3     		bcc	.L46
 420              	.L45:
 421              		.loc 1 213 0 discriminator 1
 422 004c 1C46     		mov	r4, r3
 423              	.LVL35:
 424 004e EEE7     		b	.L42
 425              	.LVL36:
 426              	.L46:
 427              		.loc 1 232 0
 428 0050 4AF8083C 		str	r3, [r10, #-8]
 429              		.loc 1 233 0
 430 0054 2560     		str	r5, [r4]
 431              		.loc 1 235 0
 432 0056 5AE90232 		ldrd	r3, r2, [r10, #-8]
 433 005a 0AEB0200 		add	r0, r10, r2
 434 005e 9842     		cmp	r0, r3
 435 0060 12D0     		beq	.L57
 436              		.loc 1 240 0
 437 0062 6368     		ldr	r3, [r4, #4]
 438 0064 0833     		adds	r3, r3, #8
 439 0066 E118     		adds	r1, r4, r3
 440 0068 8D42     		cmp	r5, r1
 441 006a 1BD0     		beq	.L58
 442              	.L48:
 443              		.loc 1 249 0
 444 006c 019A     		ldr	r2, [sp, #4]
 445 006e 3B68     		ldr	r3, [r7]
 446 0070 9A42     		cmp	r2, r3
 447 0072 21D1     		bne	.L59
 448 0074 3046     		mov	r0, r6
 449              		.loc 1 252 0
 450 0076 02B0     		add	sp, sp, #8
 451              		.cfi_remember_state
 452              		.cfi_def_cfa_offset 32
 453              		@ sp needed
 454 0078 BDE8F047 		pop	{r4, r5, r6, r7, r8, r9, r10, lr}
 455              		.cfi_restore 14
 456              		.cfi_restore 10
ARM GAS  C:\Users\mathi\AppData\Local\Temp\ccBnzMKY.s 			page 9


 457              		.cfi_restore 9
 458              		.cfi_restore 8
 459              		.cfi_restore 7
 460              		.cfi_restore 6
 461              		.cfi_restore 5
 462              		.cfi_restore 4
 463              		.cfi_def_cfa_offset 0
 464              	.LVL37:
 465              		.loc 1 249 0
 466 007c FFF7FEBF 		b	chMtxUnlock
 467              	.LVL38:
 468              	.L56:
 469              		.cfi_restore_state
 470              		.loc 1 227 0 discriminator 3
 471 0080 4046     		mov	r0, r8
 472 0082 FFF7FEFF 		bl	chSysHalt
 473              	.LVL39:
 474 0086 D9E7     		b	.L43
 475              	.L57:
 476              		.loc 1 237 0
 477 0088 4168     		ldr	r1, [r0, #4]
 478 008a 02F10803 		add	r3, r2, #8
 479 008e 5A18     		adds	r2, r3, r1
 480 0090 4AF8042C 		str	r2, [r10, #-4]
 481              		.loc 1 238 0
 482 0094 0368     		ldr	r3, [r0]
 483 0096 4AF8083C 		str	r3, [r10, #-8]
 484              		.loc 1 240 0
 485 009a 6368     		ldr	r3, [r4, #4]
 486 009c 0833     		adds	r3, r3, #8
 487 009e E118     		adds	r1, r4, r3
 488 00a0 8D42     		cmp	r5, r1
 489 00a2 E3D1     		bne	.L48
 490              	.L58:
 491              		.loc 1 242 0
 492 00a4 1344     		add	r3, r3, r2
 493 00a6 6360     		str	r3, [r4, #4]
 494              		.loc 1 243 0
 495 00a8 5AF8083C 		ldr	r3, [r10, #-8]
 496 00ac 2360     		str	r3, [r4]
 497 00ae DDE7     		b	.L48
 498              	.LVL40:
 499              	.L55:
 500              		.loc 1 217 0 discriminator 2
 501 00b0 0348     		ldr	r0, .L60+4
 502              	.LVL41:
 503 00b2 FFF7FEFF 		bl	chSysHalt
 504              	.LVL42:
 505 00b6 ACE7     		b	.L41
 506              	.LVL43:
 507              	.L59:
 508              		.loc 1 249 0
 509 00b8 FFF7FEFF 		bl	__stack_chk_fail
 510              	.LVL44:
 511              	.L61:
 512              		.align	2
 513              	.L60:
ARM GAS  C:\Users\mathi\AppData\Local\Temp\ccBnzMKY.s 			page 10


 514 00bc 00000000 		.word	__stack_chk_guard
 515 00c0 00000000 		.word	.LANCHOR2
 516              		.cfi_endproc
 517              	.LFE222:
 518              		.size	chHeapFree, .-chHeapFree
 519              		.section	.text.chHeapStatus,"ax",%progbits
 520              		.align	1
 521              		.p2align 4,,15
 522              		.global	chHeapStatus
 523              		.syntax unified
 524              		.thumb
 525              		.thumb_func
 526              		.fpu fpv4-sp-d16
 527              		.type	chHeapStatus, %function
 528              	chHeapStatus:
 529              	.LFB223:
 530              		.loc 1 267 0
 531              		.cfi_startproc
 532              		@ args = 0, pretend = 0, frame = 8
 533              		@ frame_needed = 0, uses_anonymous_args = 0
 534              	.LVL45:
 535 0000 F0B5     		push	{r4, r5, r6, r7, lr}
 536              		.cfi_def_cfa_offset 20
 537              		.cfi_offset 4, -20
 538              		.cfi_offset 5, -16
 539              		.cfi_offset 6, -12
 540              		.cfi_offset 7, -8
 541              		.cfi_offset 14, -4
 542              		.loc 1 272 0
 543 0002 144C     		ldr	r4, .L75
 544              		.loc 1 267 0
 545 0004 144D     		ldr	r5, .L75+4
 546              		.loc 1 272 0
 547 0006 0028     		cmp	r0, #0
 548 0008 18BF     		it	ne
 549 000a 0446     		movne	r4, r0
 550              	.LVL46:
 551              		.loc 1 267 0
 552 000c 83B0     		sub	sp, sp, #12
 553              		.cfi_def_cfa_offset 32
 554              		.loc 1 275 0
 555 000e 04F11006 		add	r6, r4, #16
 556              		.loc 1 267 0
 557 0012 2B68     		ldr	r3, [r5]
 558 0014 0193     		str	r3, [sp, #4]
 559              		.loc 1 275 0
 560 0016 3046     		mov	r0, r6
 561              		.loc 1 267 0
 562 0018 0F46     		mov	r7, r1
 563              		.loc 1 275 0
 564 001a FFF7FEFF 		bl	chMtxLock
 565              	.LVL47:
 566              		.loc 1 279 0
 567 001e A368     		ldr	r3, [r4, #8]
 568 0020 9BB1     		cbz	r3, .L68
 569              		.loc 1 276 0
 570 0022 0022     		movs	r2, #0
ARM GAS  C:\Users\mathi\AppData\Local\Temp\ccBnzMKY.s 			page 11


 571              		.loc 1 277 0
 572 0024 1446     		mov	r4, r2
 573              	.LVL48:
 574              	.L65:
 575              		.loc 1 279 0
 576 0026 D3E90030 		ldrd	r3, r0, [r3]
 577              		.loc 1 281 0
 578 002a 0134     		adds	r4, r4, #1
 579              	.LVL49:
 580              		.loc 1 280 0
 581 002c 0244     		add	r2, r2, r0
 582              	.LVL50:
 583              		.loc 1 279 0
 584 002e 002B     		cmp	r3, #0
 585 0030 F9D1     		bne	.L65
 586              	.LVL51:
 587              	.L64:
 588              		.loc 1 284 0
 589 0032 07B1     		cbz	r7, .L66
 590              		.loc 1 285 0
 591 0034 3A60     		str	r2, [r7]
 592              	.L66:
 593              		.loc 1 287 0
 594 0036 3046     		mov	r0, r6
 595 0038 FFF7FEFF 		bl	chMtxUnlock
 596              	.LVL52:
 597              		.loc 1 290 0
 598 003c 019A     		ldr	r2, [sp, #4]
 599 003e 2B68     		ldr	r3, [r5]
 600 0040 9A42     		cmp	r2, r3
 601 0042 2046     		mov	r0, r4
 602 0044 04D1     		bne	.L74
 603 0046 03B0     		add	sp, sp, #12
 604              		.cfi_remember_state
 605              		.cfi_def_cfa_offset 20
 606              		@ sp needed
 607 0048 F0BD     		pop	{r4, r5, r6, r7, pc}
 608              	.LVL53:
 609              	.L68:
 610              		.cfi_restore_state
 611              		.loc 1 276 0
 612 004a 1A46     		mov	r2, r3
 613              		.loc 1 277 0
 614 004c 1C46     		mov	r4, r3
 615              	.LVL54:
 616 004e F0E7     		b	.L64
 617              	.LVL55:
 618              	.L74:
 619              		.loc 1 290 0
 620 0050 FFF7FEFF 		bl	__stack_chk_fail
 621              	.LVL56:
 622              	.L76:
 623              		.align	2
 624              	.L75:
 625 0054 00000000 		.word	.LANCHOR0
 626 0058 00000000 		.word	__stack_chk_guard
 627              		.cfi_endproc
ARM GAS  C:\Users\mathi\AppData\Local\Temp\ccBnzMKY.s 			page 12


 628              	.LFE223:
 629              		.size	chHeapStatus, .-chHeapStatus
 630              		.section	.bss.default_heap,"aw",%nobits
 631              		.align	3
 632              		.set	.LANCHOR0,. + 0
 633              		.type	default_heap, %object
 634              		.size	default_heap, 40
 635              	default_heap:
 636 0000 00000000 		.space	40
 636      00000000 
 636      00000000 
 636      00000000 
 636      00000000 
 637              		.section	.rodata.__func__.7856,"a",%progbits
 638              		.align	2
 639              		.set	.LANCHOR1,. + 0
 640              		.type	__func__.7856, %object
 641              		.size	__func__.7856, 17
 642              	__func__.7856:
 643 0000 63684865 		.ascii	"chHeapObjectInit\000"
 643      61704F62 
 643      6A656374 
 643      496E6974 
 643      00
 644              		.section	.rodata.__func__.7873,"a",%progbits
 645              		.align	2
 646              		.set	.LANCHOR2,. + 0
 647              		.type	__func__.7873, %object
 648              		.size	__func__.7873, 11
 649              	__func__.7873:
 650 0000 63684865 		.ascii	"chHeapFree\000"
 650      61704672 
 650      656500
 651              		.text
 652              	.Letext0:
 653              		.file 2 "c:\\eclipse_e-puck2\\tools\\gcc-arm-none-eabi-7-2017-q4-major-win32\\lib\\gcc\\arm-none-e
 654              		.file 3 "c:\\eclipse_e-puck2\\tools\\gcc-arm-none-eabi-7-2017-q4-major-win32\\arm-none-eabi\\inclu
 655              		.file 4 "c:\\eclipse_e-puck2\\tools\\gcc-arm-none-eabi-7-2017-q4-major-win32\\arm-none-eabi\\inclu
 656              		.file 5 "../../lib/e-puck2_main-processor/ChibiOS//os/rt/ports/ARMCMx/compilers/GCC/chtypes.h"
 657              		.file 6 "../../lib/e-puck2_main-processor/ChibiOS//os/rt/include/chsystypes.h"
 658              		.file 7 "../../lib/e-puck2_main-processor/ChibiOS//os/rt/include/chschd.h"
 659              		.file 8 "../../lib/e-puck2_main-processor/ChibiOS//os/ext/CMSIS/include/core_cm4.h"
 660              		.file 9 "../../lib/e-puck2_main-processor/ChibiOS//os/ext/CMSIS/ST/system_stm32f4xx.h"
 661              		.file 10 "../../lib/e-puck2_main-processor/ChibiOS//os/rt/ports/ARMCMx/chcore.h"
 662              		.file 11 "../../lib/e-puck2_main-processor/ChibiOS//os/rt/ports/ARMCMx/chcore_v7m.h"
 663              		.file 12 "../../lib/e-puck2_main-processor/ChibiOS//os/rt/include/chdebug.h"
 664              		.file 13 "../../lib/e-puck2_main-processor/ChibiOS//os/rt/include/chtm.h"
 665              		.file 14 "../../lib/e-puck2_main-processor/ChibiOS//os/rt/include/chstats.h"
 666              		.file 15 "../../lib/e-puck2_main-processor/ChibiOS//os/rt/include/chsem.h"
 667              		.file 16 "../../lib/e-puck2_main-processor/ChibiOS//os/rt/include/chmtx.h"
 668              		.file 17 "../../lib/e-puck2_main-processor/ChibiOS//os/rt/include/chregistry.h"
 669              		.file 18 "../../lib/e-puck2_main-processor/ChibiOS//os/rt/include/chmemcore.h"
 670              		.file 19 "../../lib/e-puck2_main-processor/ChibiOS//os/rt/include/chheap.h"
 671              		.file 20 "../../lib/e-puck2_main-processor/ChibiOS//os/rt/include/chsys.h"