ARM GAS  C:\Users\mathi\AppData\Local\Temp\ccQfoKxG.s 			page 1


   1              		.cpu cortex-m4
   2              		.eabi_attribute 27, 1
   3              		.eabi_attribute 28, 1
   4              		.eabi_attribute 20, 1
   5              		.eabi_attribute 21, 1
   6              		.eabi_attribute 23, 3
   7              		.eabi_attribute 24, 1
   8              		.eabi_attribute 25, 1
   9              		.eabi_attribute 26, 1
  10              		.eabi_attribute 30, 2
  11              		.eabi_attribute 34, 1
  12              		.eabi_attribute 18, 4
  13              		.file	"chmboxes.c"
  14              		.text
  15              	.Ltext0:
  16              		.cfi_sections	.debug_frame
  17              		.section	.text.chMBObjectInit,"ax",%progbits
  18              		.align	1
  19              		.p2align 4,,15
  20              		.global	chMBObjectInit
  21              		.syntax unified
  22              		.thumb
  23              		.thumb_func
  24              		.fpu fpv4-sp-d16
  25              		.type	chMBObjectInit, %function
  26              	chMBObjectInit:
  27              	.LFB219:
  28              		.file 1 "../../lib/e-puck2_main-processor/ChibiOS//os/rt/src/chmboxes.c"
  29              		.loc 1 86 0
  30              		.cfi_startproc
  31              		@ args = 0, pretend = 0, frame = 8
  32              		@ frame_needed = 0, uses_anonymous_args = 0
  33              	.LVL0:
  34 0000 F0B5     		push	{r4, r5, r6, r7, lr}
  35              		.cfi_def_cfa_offset 20
  36              		.cfi_offset 4, -20
  37              		.cfi_offset 5, -16
  38              		.cfi_offset 6, -12
  39              		.cfi_offset 7, -8
  40              		.cfi_offset 14, -4
  41 0002 144F     		ldr	r7, .L15
  42 0004 83B0     		sub	sp, sp, #12
  43              		.cfi_def_cfa_offset 32
  44              		.loc 1 86 0
  45 0006 3B68     		ldr	r3, [r7]
  46 0008 0193     		str	r3, [sp, #4]
  47 000a 0D46     		mov	r5, r1
  48 000c 1646     		mov	r6, r2
  49              		.loc 1 88 0
  50 000e 0446     		mov	r4, r0
  51 0010 C8B1     		cbz	r0, .L2
  52              		.loc 1 88 0 is_stmt 0 discriminator 3
  53 0012 C1B1     		cbz	r1, .L2
  54              		.loc 1 88 0 discriminator 5
  55 0014 002A     		cmp	r2, #0
  56 0016 16DD     		ble	.L2
  57              	.LVL1:
ARM GAS  C:\Users\mathi\AppData\Local\Temp\ccQfoKxG.s 			page 2


  58              	.L3:
  59              		.loc 1 93 0 is_stmt 1
  60 0018 05EB8603 		add	r3, r5, r6, lsl #2
  61 001c 6360     		str	r3, [r4, #4]
  62              		.loc 1 90 0
  63 001e 2560     		str	r5, [r4]
  64              		.loc 1 92 0
  65 0020 C4E90255 		strd	r5, r5, [r4, #8]
  66              		.loc 1 94 0
  67 0024 3146     		mov	r1, r6
  68 0026 04F11C00 		add	r0, r4, #28
  69 002a FFF7FEFF 		bl	chSemObjectInit
  70              	.LVL2:
  71              		.loc 1 95 0
  72 002e 019A     		ldr	r2, [sp, #4]
  73 0030 3B68     		ldr	r3, [r7]
  74 0032 9A42     		cmp	r2, r3
  75 0034 0BD1     		bne	.L14
  76 0036 04F11000 		add	r0, r4, #16
  77 003a 0021     		movs	r1, #0
  78              		.loc 1 96 0
  79 003c 03B0     		add	sp, sp, #12
  80              		.cfi_remember_state
  81              		.cfi_def_cfa_offset 20
  82              		@ sp needed
  83 003e BDE8F040 		pop	{r4, r5, r6, r7, lr}
  84              		.cfi_restore 14
  85              		.cfi_restore 7
  86              		.cfi_restore 6
  87              		.cfi_restore 5
  88              		.cfi_restore 4
  89              		.cfi_def_cfa_offset 0
  90              	.LVL3:
  91              		.loc 1 95 0
  92 0042 FFF7FEBF 		b	chSemObjectInit
  93              	.LVL4:
  94              	.L2:
  95              		.cfi_restore_state
  96              		.loc 1 88 0 discriminator 6
  97 0046 0448     		ldr	r0, .L15+4
  98              	.LVL5:
  99 0048 FFF7FEFF 		bl	chSysHalt
 100              	.LVL6:
 101 004c E4E7     		b	.L3
 102              	.L14:
 103              		.loc 1 95 0
 104 004e FFF7FEFF 		bl	__stack_chk_fail
 105              	.LVL7:
 106              	.L16:
 107 0052 00BF     		.align	2
 108              	.L15:
 109 0054 00000000 		.word	__stack_chk_guard
 110 0058 00000000 		.word	.LANCHOR0
 111              		.cfi_endproc
 112              	.LFE219:
 113              		.size	chMBObjectInit, .-chMBObjectInit
 114              		.section	.text.chMBReset,"ax",%progbits
ARM GAS  C:\Users\mathi\AppData\Local\Temp\ccQfoKxG.s 			page 3


 115              		.align	1
 116              		.p2align 4,,15
 117              		.global	chMBReset
 118              		.syntax unified
 119              		.thumb
 120              		.thumb_func
 121              		.fpu fpv4-sp-d16
 122              		.type	chMBReset, %function
 123              	chMBReset:
 124              	.LFB220:
 125              		.loc 1 107 0
 126              		.cfi_startproc
 127              		@ args = 0, pretend = 0, frame = 8
 128              		@ frame_needed = 0, uses_anonymous_args = 0
 129              	.LVL8:
 130 0000 30B5     		push	{r4, r5, lr}
 131              		.cfi_def_cfa_offset 12
 132              		.cfi_offset 4, -12
 133              		.cfi_offset 5, -8
 134              		.cfi_offset 14, -4
 135 0002 204D     		ldr	r5, .L25
 136 0004 83B0     		sub	sp, sp, #12
 137              		.cfi_def_cfa_offset 24
 138              		.loc 1 107 0
 139 0006 2B68     		ldr	r3, [r5]
 140 0008 0193     		str	r3, [sp, #4]
 141              	.LVL9:
 142 000a 0446     		mov	r4, r0
 143              	.LBB58:
 144              	.LBB59:
 145              	.LBB60:
 146              	.LBB61:
 147              	.LBB62:
 148              		.file 2 "../../lib/e-puck2_main-processor/ChibiOS//os/ext/CMSIS/include/core_cmFunc.h"
 149              		.loc 2 546 0
 150 000c 2023     		movs	r3, #32
 151              		.syntax unified
 152              	@ 546 "../../lib/e-puck2_main-processor/ChibiOS//os/ext/CMSIS/include/core_cmFunc.h" 1
 153 000e 83F31188 		MSR basepri, r3
 154              	@ 0 "" 2
 155              	.LVL10:
 156              		.thumb
 157              		.syntax unified
 158              	.LBE62:
 159              	.LBE61:
 160              	.LBE60:
 161              		.file 3 "../../lib/e-puck2_main-processor/ChibiOS//os/rt/include/chsys.h"
 162              		.loc 3 349 0
 163 0012 FFF7FEFF 		bl	_stats_start_measure_crit_thd
 164              	.LVL11:
 165              		.loc 3 350 0
 166 0016 FFF7FEFF 		bl	_dbg_check_lock
 167              	.LVL12:
 168              	.LBE59:
 169              	.LBE58:
 170              	.LBB63:
 171              	.LBB64:
ARM GAS  C:\Users\mathi\AppData\Local\Temp\ccQfoKxG.s 			page 4


 172              		.loc 1 126 0
 173 001a FFF7FEFF 		bl	chDbgCheckClassI
 174              	.LVL13:
 175              		.loc 1 127 0
 176 001e 54B3     		cbz	r4, .L22
 177              	.L18:
 178              		.loc 1 131 0
 179 0020 D4E90031 		ldrd	r3, r1, [r4]
 180 0024 C91A     		subs	r1, r1, r3
 181              		.loc 1 129 0
 182 0026 A360     		str	r3, [r4, #8]
 183              		.loc 1 130 0
 184 0028 E360     		str	r3, [r4, #12]
 185              		.loc 1 131 0
 186 002a 8910     		asrs	r1, r1, #2
 187 002c 04F11C00 		add	r0, r4, #28
 188 0030 FFF7FEFF 		bl	chSemResetI
 189              	.LVL14:
 190              		.loc 1 132 0
 191 0034 04F11000 		add	r0, r4, #16
 192 0038 0021     		movs	r1, #0
 193 003a FFF7FEFF 		bl	chSemResetI
 194              	.LVL15:
 195              	.LBE64:
 196              	.LBE63:
 197              		.loc 1 111 0
 198 003e FFF7FEFF 		bl	chSchRescheduleS
 199              	.LVL16:
 200              	.LBB66:
 201              	.LBB67:
 202              		.loc 3 360 0
 203 0042 FFF7FEFF 		bl	_dbg_check_unlock
 204              	.LVL17:
 205              		.loc 3 361 0
 206 0046 FFF7FEFF 		bl	_stats_stop_measure_crit_thd
 207              	.LVL18:
 208              		.loc 3 367 0
 209 004a 0F4B     		ldr	r3, .L25+4
 210 004c 1A68     		ldr	r2, [r3]
 211 004e 9A42     		cmp	r2, r3
 212 0050 04D0     		beq	.L19
 213 0052 9969     		ldr	r1, [r3, #24]
 214 0054 9368     		ldr	r3, [r2, #8]
 215 0056 8A68     		ldr	r2, [r1, #8]
 216 0058 9A42     		cmp	r2, r3
 217 005a 08D3     		bcc	.L23
 218              	.L19:
 219              	.LVL19:
 220              	.LBB68:
 221              	.LBB69:
 222              	.LBB70:
 223              		.loc 2 546 0
 224 005c 0023     		movs	r3, #0
 225              		.syntax unified
 226              	@ 546 "../../lib/e-puck2_main-processor/ChibiOS//os/ext/CMSIS/include/core_cmFunc.h" 1
 227 005e 83F31188 		MSR basepri, r3
 228              	@ 0 "" 2
ARM GAS  C:\Users\mathi\AppData\Local\Temp\ccQfoKxG.s 			page 5


 229              	.LVL20:
 230              		.thumb
 231              		.syntax unified
 232              	.LBE70:
 233              	.LBE69:
 234              	.LBE68:
 235              	.LBE67:
 236              	.LBE66:
 237              		.loc 1 113 0
 238 0062 019A     		ldr	r2, [sp, #4]
 239 0064 2B68     		ldr	r3, [r5]
 240 0066 9A42     		cmp	r2, r3
 241 0068 09D1     		bne	.L24
 242 006a 03B0     		add	sp, sp, #12
 243              		.cfi_remember_state
 244              		.cfi_def_cfa_offset 12
 245              		@ sp needed
 246 006c 30BD     		pop	{r4, r5, pc}
 247              	.LVL21:
 248              	.L23:
 249              		.cfi_restore_state
 250              	.LBB72:
 251              	.LBB71:
 252              		.loc 3 367 0
 253 006e 0748     		ldr	r0, .L25+8
 254 0070 FFF7FEFF 		bl	chSysHalt
 255              	.LVL22:
 256 0074 F2E7     		b	.L19
 257              	.LVL23:
 258              	.L22:
 259              	.LBE71:
 260              	.LBE72:
 261              	.LBB73:
 262              	.LBB65:
 263              		.loc 1 127 0
 264 0076 0648     		ldr	r0, .L25+12
 265 0078 FFF7FEFF 		bl	chSysHalt
 266              	.LVL24:
 267 007c D0E7     		b	.L18
 268              	.LVL25:
 269              	.L24:
 270              	.LBE65:
 271              	.LBE73:
 272              		.loc 1 113 0
 273 007e FFF7FEFF 		bl	__stack_chk_fail
 274              	.LVL26:
 275              	.L26:
 276 0082 00BF     		.align	2
 277              	.L25:
 278 0084 00000000 		.word	__stack_chk_guard
 279 0088 00000000 		.word	ch
 280 008c 00000000 		.word	.LANCHOR2
 281 0090 00000000 		.word	.LANCHOR1
 282              		.cfi_endproc
 283              	.LFE220:
 284              		.size	chMBReset, .-chMBReset
 285              		.section	.text.chMBResetI,"ax",%progbits
ARM GAS  C:\Users\mathi\AppData\Local\Temp\ccQfoKxG.s 			page 6


 286              		.align	1
 287              		.p2align 4,,15
 288              		.global	chMBResetI
 289              		.syntax unified
 290              		.thumb
 291              		.thumb_func
 292              		.fpu fpv4-sp-d16
 293              		.type	chMBResetI, %function
 294              	chMBResetI:
 295              	.LFB221:
 296              		.loc 1 124 0
 297              		.cfi_startproc
 298              		@ args = 0, pretend = 0, frame = 8
 299              		@ frame_needed = 0, uses_anonymous_args = 0
 300              	.LVL27:
 301 0000 30B5     		push	{r4, r5, lr}
 302              		.cfi_def_cfa_offset 12
 303              		.cfi_offset 4, -12
 304              		.cfi_offset 5, -8
 305              		.cfi_offset 14, -4
 306 0002 124D     		ldr	r5, .L34
 307 0004 83B0     		sub	sp, sp, #12
 308              		.cfi_def_cfa_offset 24
 309              		.loc 1 124 0
 310 0006 0446     		mov	r4, r0
 311 0008 2B68     		ldr	r3, [r5]
 312 000a 0193     		str	r3, [sp, #4]
 313              		.loc 1 126 0
 314 000c FFF7FEFF 		bl	chDbgCheckClassI
 315              	.LVL28:
 316              		.loc 1 127 0
 317 0010 ACB1     		cbz	r4, .L32
 318              	.L28:
 319              		.loc 1 131 0
 320 0012 D4E90031 		ldrd	r3, r1, [r4]
 321 0016 C91A     		subs	r1, r1, r3
 322              		.loc 1 129 0
 323 0018 A360     		str	r3, [r4, #8]
 324              		.loc 1 130 0
 325 001a E360     		str	r3, [r4, #12]
 326              		.loc 1 131 0
 327 001c 8910     		asrs	r1, r1, #2
 328 001e 04F11C00 		add	r0, r4, #28
 329 0022 FFF7FEFF 		bl	chSemResetI
 330              	.LVL29:
 331              		.loc 1 132 0
 332 0026 019A     		ldr	r2, [sp, #4]
 333 0028 2B68     		ldr	r3, [r5]
 334 002a 9A42     		cmp	r2, r3
 335 002c 0BD1     		bne	.L33
 336 002e 04F11000 		add	r0, r4, #16
 337 0032 0021     		movs	r1, #0
 338              		.loc 1 133 0
 339 0034 03B0     		add	sp, sp, #12
 340              		.cfi_remember_state
 341              		.cfi_def_cfa_offset 12
 342              		@ sp needed
ARM GAS  C:\Users\mathi\AppData\Local\Temp\ccQfoKxG.s 			page 7


 343 0036 BDE83040 		pop	{r4, r5, lr}
 344              		.cfi_restore 14
 345              		.cfi_restore 5
 346              		.cfi_restore 4
 347              		.cfi_def_cfa_offset 0
 348              	.LVL30:
 349              		.loc 1 132 0
 350 003a FFF7FEBF 		b	chSemResetI
 351              	.LVL31:
 352              	.L32:
 353              		.cfi_restore_state
 354              		.loc 1 127 0 discriminator 2
 355 003e 0448     		ldr	r0, .L34+4
 356 0040 FFF7FEFF 		bl	chSysHalt
 357              	.LVL32:
 358 0044 E5E7     		b	.L28
 359              	.L33:
 360              		.loc 1 132 0
 361 0046 FFF7FEFF 		bl	__stack_chk_fail
 362              	.LVL33:
 363              	.L35:
 364 004a 00BF     		.align	2
 365              	.L34:
 366 004c 00000000 		.word	__stack_chk_guard
 367 0050 00000000 		.word	.LANCHOR1
 368              		.cfi_endproc
 369              	.LFE221:
 370              		.size	chMBResetI, .-chMBResetI
 371              		.section	.text.chMBPost,"ax",%progbits
 372              		.align	1
 373              		.p2align 4,,15
 374              		.global	chMBPost
 375              		.syntax unified
 376              		.thumb
 377              		.thumb_func
 378              		.fpu fpv4-sp-d16
 379              		.type	chMBPost, %function
 380              	chMBPost:
 381              	.LFB222:
 382              		.loc 1 154 0
 383              		.cfi_startproc
 384              		@ args = 0, pretend = 0, frame = 8
 385              		@ frame_needed = 0, uses_anonymous_args = 0
 386              	.LVL34:
 387 0000 F0B5     		push	{r4, r5, r6, r7, lr}
 388              		.cfi_def_cfa_offset 20
 389              		.cfi_offset 4, -20
 390              		.cfi_offset 5, -16
 391              		.cfi_offset 6, -12
 392              		.cfi_offset 7, -8
 393              		.cfi_offset 14, -4
 394 0002 254E     		ldr	r6, .L46
 395 0004 83B0     		sub	sp, sp, #12
 396              		.cfi_def_cfa_offset 32
 397              		.loc 1 154 0
 398 0006 3368     		ldr	r3, [r6]
 399 0008 0193     		str	r3, [sp, #4]
ARM GAS  C:\Users\mathi\AppData\Local\Temp\ccQfoKxG.s 			page 8


 400 000a 0446     		mov	r4, r0
 401 000c 0F46     		mov	r7, r1
 402              	.LVL35:
 403 000e 1546     		mov	r5, r2
 404              	.LBB88:
 405              	.LBB89:
 406              	.LBB90:
 407              	.LBB91:
 408              	.LBB92:
 409              		.loc 2 546 0
 410 0010 2023     		movs	r3, #32
 411              		.syntax unified
 412              	@ 546 "../../lib/e-puck2_main-processor/ChibiOS//os/ext/CMSIS/include/core_cmFunc.h" 1
 413 0012 83F31188 		MSR basepri, r3
 414              	@ 0 "" 2
 415              	.LVL36:
 416              		.thumb
 417              		.syntax unified
 418              	.LBE92:
 419              	.LBE91:
 420              	.LBE90:
 421              		.loc 3 349 0
 422 0016 FFF7FEFF 		bl	_stats_start_measure_crit_thd
 423              	.LVL37:
 424              		.loc 3 350 0
 425 001a FFF7FEFF 		bl	_dbg_check_lock
 426              	.LVL38:
 427              	.LBE89:
 428              	.LBE88:
 429              	.LBB93:
 430              	.LBB94:
 431              		.loc 1 186 0
 432 001e FFF7FEFF 		bl	chDbgCheckClassS
 433              	.LVL39:
 434              		.loc 1 187 0
 435 0022 002C     		cmp	r4, #0
 436 0024 31D0     		beq	.L43
 437              	.L37:
 438              		.loc 1 189 0
 439 0026 2946     		mov	r1, r5
 440 0028 04F11C00 		add	r0, r4, #28
 441 002c FFF7FEFF 		bl	chSemWaitTimeoutS
 442              	.LVL40:
 443              		.loc 1 190 0
 444 0030 0546     		mov	r5, r0
 445              	.LVL41:
 446 0032 78B9     		cbnz	r0, .L38
 447              	.LVL42:
 448              	.LBB95:
 449              	.LBB96:
 450              		.loc 1 191 0
 451 0034 A368     		ldr	r3, [r4, #8]
 452 0036 1A1D     		adds	r2, r3, #4
 453 0038 A260     		str	r2, [r4, #8]
 454 003a 1F60     		str	r7, [r3]
 455              		.loc 1 192 0
 456 003c D4E90132 		ldrd	r3, r2, [r4, #4]
ARM GAS  C:\Users\mathi\AppData\Local\Temp\ccQfoKxG.s 			page 9


 457 0040 9A42     		cmp	r2, r3
 458              		.loc 1 193 0
 459 0042 24BF     		itt	cs
 460 0044 2368     		ldrcs	r3, [r4]
 461 0046 A360     		strcs	r3, [r4, #8]
 462              		.loc 1 195 0
 463 0048 04F11000 		add	r0, r4, #16
 464              	.LVL43:
 465 004c FFF7FEFF 		bl	chSemSignalI
 466              	.LVL44:
 467              		.loc 1 196 0
 468 0050 FFF7FEFF 		bl	chSchRescheduleS
 469              	.LVL45:
 470              	.L38:
 471              	.LBE96:
 472              	.LBE95:
 473              	.LBE94:
 474              	.LBE93:
 475              	.LBB98:
 476              	.LBB99:
 477              		.loc 3 360 0
 478 0054 FFF7FEFF 		bl	_dbg_check_unlock
 479              	.LVL46:
 480              		.loc 3 361 0
 481 0058 FFF7FEFF 		bl	_stats_stop_measure_crit_thd
 482              	.LVL47:
 483              		.loc 3 367 0
 484 005c 0F4B     		ldr	r3, .L46+4
 485 005e 1A68     		ldr	r2, [r3]
 486 0060 9A42     		cmp	r2, r3
 487 0062 04D0     		beq	.L40
 488 0064 9969     		ldr	r1, [r3, #24]
 489 0066 9368     		ldr	r3, [r2, #8]
 490 0068 8A68     		ldr	r2, [r1, #8]
 491 006a 9A42     		cmp	r2, r3
 492 006c 09D3     		bcc	.L44
 493              	.L40:
 494              	.LVL48:
 495              	.LBB100:
 496              	.LBB101:
 497              	.LBB102:
 498              		.loc 2 546 0
 499 006e 0023     		movs	r3, #0
 500              		.syntax unified
 501              	@ 546 "../../lib/e-puck2_main-processor/ChibiOS//os/ext/CMSIS/include/core_cmFunc.h" 1
 502 0070 83F31188 		MSR basepri, r3
 503              	@ 0 "" 2
 504              	.LVL49:
 505              		.thumb
 506              		.syntax unified
 507              	.LBE102:
 508              	.LBE101:
 509              	.LBE100:
 510              	.LBE99:
 511              	.LBE98:
 512              		.loc 1 162 0
 513 0074 019A     		ldr	r2, [sp, #4]
ARM GAS  C:\Users\mathi\AppData\Local\Temp\ccQfoKxG.s 			page 10


 514 0076 3368     		ldr	r3, [r6]
 515 0078 9A42     		cmp	r2, r3
 516 007a 2846     		mov	r0, r5
 517 007c 09D1     		bne	.L45
 518 007e 03B0     		add	sp, sp, #12
 519              		.cfi_remember_state
 520              		.cfi_def_cfa_offset 20
 521              		@ sp needed
 522 0080 F0BD     		pop	{r4, r5, r6, r7, pc}
 523              	.LVL50:
 524              	.L44:
 525              		.cfi_restore_state
 526              	.LBB104:
 527              	.LBB103:
 528              		.loc 3 367 0
 529 0082 0748     		ldr	r0, .L46+8
 530 0084 FFF7FEFF 		bl	chSysHalt
 531              	.LVL51:
 532 0088 F1E7     		b	.L40
 533              	.LVL52:
 534              	.L43:
 535              	.LBE103:
 536              	.LBE104:
 537              	.LBB105:
 538              	.LBB97:
 539              		.loc 1 187 0
 540 008a 0648     		ldr	r0, .L46+12
 541 008c FFF7FEFF 		bl	chSysHalt
 542              	.LVL53:
 543 0090 C9E7     		b	.L37
 544              	.LVL54:
 545              	.L45:
 546              	.LBE97:
 547              	.LBE105:
 548              		.loc 1 162 0
 549 0092 FFF7FEFF 		bl	__stack_chk_fail
 550              	.LVL55:
 551              	.L47:
 552 0096 00BF     		.align	2
 553              	.L46:
 554 0098 00000000 		.word	__stack_chk_guard
 555 009c 00000000 		.word	ch
 556 00a0 00000000 		.word	.LANCHOR2
 557 00a4 00000000 		.word	.LANCHOR3
 558              		.cfi_endproc
 559              	.LFE222:
 560              		.size	chMBPost, .-chMBPost
 561              		.section	.text.chMBPostS,"ax",%progbits
 562              		.align	1
 563              		.p2align 4,,15
 564              		.global	chMBPostS
 565              		.syntax unified
 566              		.thumb
 567              		.thumb_func
 568              		.fpu fpv4-sp-d16
 569              		.type	chMBPostS, %function
 570              	chMBPostS:
ARM GAS  C:\Users\mathi\AppData\Local\Temp\ccQfoKxG.s 			page 11


 571              	.LFB223:
 572              		.loc 1 183 0
 573              		.cfi_startproc
 574              		@ args = 0, pretend = 0, frame = 8
 575              		@ frame_needed = 0, uses_anonymous_args = 0
 576              	.LVL56:
 577 0000 F0B5     		push	{r4, r5, r6, r7, lr}
 578              		.cfi_def_cfa_offset 20
 579              		.cfi_offset 4, -20
 580              		.cfi_offset 5, -16
 581              		.cfi_offset 6, -12
 582              		.cfi_offset 7, -8
 583              		.cfi_offset 14, -4
 584 0002 174E     		ldr	r6, .L56
 585 0004 83B0     		sub	sp, sp, #12
 586              		.cfi_def_cfa_offset 32
 587              		.loc 1 183 0
 588 0006 0446     		mov	r4, r0
 589 0008 3368     		ldr	r3, [r6]
 590 000a 0193     		str	r3, [sp, #4]
 591 000c 0F46     		mov	r7, r1
 592 000e 1546     		mov	r5, r2
 593              		.loc 1 186 0
 594 0010 FFF7FEFF 		bl	chDbgCheckClassS
 595              	.LVL57:
 596              		.loc 1 187 0
 597 0014 ECB1     		cbz	r4, .L54
 598              	.L49:
 599              		.loc 1 189 0
 600 0016 2946     		mov	r1, r5
 601 0018 04F11C00 		add	r0, r4, #28
 602 001c FFF7FEFF 		bl	chSemWaitTimeoutS
 603              	.LVL58:
 604              		.loc 1 190 0
 605 0020 0546     		mov	r5, r0
 606              	.LVL59:
 607 0022 78B9     		cbnz	r0, .L48
 608              	.LVL60:
 609              	.LBB108:
 610              	.LBB109:
 611              		.loc 1 191 0
 612 0024 A368     		ldr	r3, [r4, #8]
 613 0026 1A1D     		adds	r2, r3, #4
 614 0028 A260     		str	r2, [r4, #8]
 615 002a 1F60     		str	r7, [r3]
 616              		.loc 1 192 0
 617 002c D4E90132 		ldrd	r3, r2, [r4, #4]
 618 0030 9A42     		cmp	r2, r3
 619              		.loc 1 193 0
 620 0032 24BF     		itt	cs
 621 0034 2368     		ldrcs	r3, [r4]
 622 0036 A360     		strcs	r3, [r4, #8]
 623              		.loc 1 195 0
 624 0038 04F11000 		add	r0, r4, #16
 625              	.LVL61:
 626 003c FFF7FEFF 		bl	chSemSignalI
 627              	.LVL62:
ARM GAS  C:\Users\mathi\AppData\Local\Temp\ccQfoKxG.s 			page 12


 628              		.loc 1 196 0
 629 0040 FFF7FEFF 		bl	chSchRescheduleS
 630              	.LVL63:
 631              	.L48:
 632              	.LBE109:
 633              	.LBE108:
 634              		.loc 1 200 0
 635 0044 019A     		ldr	r2, [sp, #4]
 636 0046 3368     		ldr	r3, [r6]
 637 0048 9A42     		cmp	r2, r3
 638 004a 2846     		mov	r0, r5
 639 004c 05D1     		bne	.L55
 640              	.LVL64:
 641 004e 03B0     		add	sp, sp, #12
 642              		.cfi_remember_state
 643              		.cfi_def_cfa_offset 20
 644              		@ sp needed
 645 0050 F0BD     		pop	{r4, r5, r6, r7, pc}
 646              	.LVL65:
 647              	.L54:
 648              		.cfi_restore_state
 649              		.loc 1 187 0 discriminator 2
 650 0052 0448     		ldr	r0, .L56+4
 651 0054 FFF7FEFF 		bl	chSysHalt
 652              	.LVL66:
 653 0058 DDE7     		b	.L49
 654              	.LVL67:
 655              	.L55:
 656              		.loc 1 200 0
 657 005a FFF7FEFF 		bl	__stack_chk_fail
 658              	.LVL68:
 659              	.L57:
 660 005e 00BF     		.align	2
 661              	.L56:
 662 0060 00000000 		.word	__stack_chk_guard
 663 0064 00000000 		.word	.LANCHOR3
 664              		.cfi_endproc
 665              	.LFE223:
 666              		.size	chMBPostS, .-chMBPostS
 667              		.section	.text.chMBPostI,"ax",%progbits
 668              		.align	1
 669              		.p2align 4,,15
 670              		.global	chMBPostI
 671              		.syntax unified
 672              		.thumb
 673              		.thumb_func
 674              		.fpu fpv4-sp-d16
 675              		.type	chMBPostI, %function
 676              	chMBPostI:
 677              	.LFB224:
 678              		.loc 1 216 0
 679              		.cfi_startproc
 680              		@ args = 0, pretend = 0, frame = 8
 681              		@ frame_needed = 0, uses_anonymous_args = 0
 682              	.LVL69:
 683 0000 70B5     		push	{r4, r5, r6, lr}
 684              		.cfi_def_cfa_offset 16
ARM GAS  C:\Users\mathi\AppData\Local\Temp\ccQfoKxG.s 			page 13


 685              		.cfi_offset 4, -16
 686              		.cfi_offset 5, -12
 687              		.cfi_offset 6, -8
 688              		.cfi_offset 14, -4
 689 0002 184D     		ldr	r5, .L67
 690 0004 82B0     		sub	sp, sp, #8
 691              		.cfi_def_cfa_offset 24
 692              		.loc 1 216 0
 693 0006 0446     		mov	r4, r0
 694 0008 2B68     		ldr	r3, [r5]
 695 000a 0193     		str	r3, [sp, #4]
 696 000c 0E46     		mov	r6, r1
 697              		.loc 1 218 0
 698 000e FFF7FEFF 		bl	chDbgCheckClassI
 699              	.LVL70:
 700              		.loc 1 219 0
 701 0012 F4B1     		cbz	r4, .L65
 702              	.L59:
 703              	.LVL71:
 704              	.LBB110:
 705              	.LBB111:
 706              		.file 4 "../../lib/e-puck2_main-processor/ChibiOS//os/rt/include/chsem.h"
 707              		.loc 4 151 0
 708 0014 FFF7FEFF 		bl	chDbgCheckClassI
 709              	.LVL72:
 710              	.LBE111:
 711              	.LBE110:
 712              		.loc 1 221 0
 713 0018 636A     		ldr	r3, [r4, #36]
 714 001a 002B     		cmp	r3, #0
 715 001c 1DDD     		ble	.L63
 716              	.LVL73:
 717              	.LBB112:
 718              	.LBB113:
 719              		.loc 4 120 0
 720 001e FFF7FEFF 		bl	chDbgCheckClassI
 721              	.LVL74:
 722              	.LBE113:
 723              	.LBE112:
 724              		.loc 1 226 0
 725 0022 A268     		ldr	r2, [r4, #8]
 726              	.LBB117:
 727              	.LBB114:
 728              		.loc 4 122 0
 729 0024 636A     		ldr	r3, [r4, #36]
 730              	.LBE114:
 731              	.LBE117:
 732              		.loc 1 226 0
 733 0026 111D     		adds	r1, r2, #4
 734              	.LBB118:
 735              	.LBB115:
 736              		.loc 4 122 0
 737 0028 013B     		subs	r3, r3, #1
 738              	.LBE115:
 739              	.LBE118:
 740              		.loc 1 226 0
 741 002a A160     		str	r1, [r4, #8]
ARM GAS  C:\Users\mathi\AppData\Local\Temp\ccQfoKxG.s 			page 14


 742              	.LBB119:
 743              	.LBB116:
 744              		.loc 4 122 0
 745 002c 6362     		str	r3, [r4, #36]
 746              	.LBE116:
 747              	.LBE119:
 748              		.loc 1 226 0
 749 002e 1660     		str	r6, [r2]
 750              		.loc 1 227 0
 751 0030 D4E90132 		ldrd	r3, r2, [r4, #4]
 752 0034 9A42     		cmp	r2, r3
 753              		.loc 1 228 0
 754 0036 24BF     		itt	cs
 755 0038 2368     		ldrcs	r3, [r4]
 756 003a A360     		strcs	r3, [r4, #8]
 757              		.loc 1 230 0
 758 003c 04F11000 		add	r0, r4, #16
 759 0040 FFF7FEFF 		bl	chSemSignalI
 760              	.LVL75:
 761              		.loc 1 232 0
 762 0044 0020     		movs	r0, #0
 763              	.LVL76:
 764              	.L58:
 765              		.loc 1 233 0
 766 0046 019A     		ldr	r2, [sp, #4]
 767 0048 2B68     		ldr	r3, [r5]
 768 004a 9A42     		cmp	r2, r3
 769 004c 08D1     		bne	.L66
 770 004e 02B0     		add	sp, sp, #8
 771              		.cfi_remember_state
 772              		.cfi_def_cfa_offset 16
 773              		@ sp needed
 774 0050 70BD     		pop	{r4, r5, r6, pc}
 775              	.LVL77:
 776              	.L65:
 777              		.cfi_restore_state
 778              		.loc 1 219 0 discriminator 2
 779 0052 0548     		ldr	r0, .L67+4
 780 0054 FFF7FEFF 		bl	chSysHalt
 781              	.LVL78:
 782 0058 DCE7     		b	.L59
 783              	.LVL79:
 784              	.L63:
 785              		.loc 1 222 0
 786 005a 4FF0FF30 		mov	r0, #-1
 787 005e F2E7     		b	.L58
 788              	.L66:
 789              		.loc 1 233 0
 790 0060 FFF7FEFF 		bl	__stack_chk_fail
 791              	.LVL80:
 792              	.L68:
 793              		.align	2
 794              	.L67:
 795 0064 00000000 		.word	__stack_chk_guard
 796 0068 00000000 		.word	.LANCHOR4
 797              		.cfi_endproc
 798              	.LFE224:
ARM GAS  C:\Users\mathi\AppData\Local\Temp\ccQfoKxG.s 			page 15


 799              		.size	chMBPostI, .-chMBPostI
 800              		.section	.text.chMBPostAhead,"ax",%progbits
 801              		.align	1
 802              		.p2align 4,,15
 803              		.global	chMBPostAhead
 804              		.syntax unified
 805              		.thumb
 806              		.thumb_func
 807              		.fpu fpv4-sp-d16
 808              		.type	chMBPostAhead, %function
 809              	chMBPostAhead:
 810              	.LFB225:
 811              		.loc 1 254 0
 812              		.cfi_startproc
 813              		@ args = 0, pretend = 0, frame = 8
 814              		@ frame_needed = 0, uses_anonymous_args = 0
 815              	.LVL81:
 816 0000 F0B5     		push	{r4, r5, r6, r7, lr}
 817              		.cfi_def_cfa_offset 20
 818              		.cfi_offset 4, -20
 819              		.cfi_offset 5, -16
 820              		.cfi_offset 6, -12
 821              		.cfi_offset 7, -8
 822              		.cfi_offset 14, -4
 823 0002 254E     		ldr	r6, .L80
 824 0004 83B0     		sub	sp, sp, #12
 825              		.cfi_def_cfa_offset 32
 826              		.loc 1 254 0
 827 0006 3368     		ldr	r3, [r6]
 828 0008 0193     		str	r3, [sp, #4]
 829 000a 0446     		mov	r4, r0
 830 000c 0F46     		mov	r7, r1
 831              	.LVL82:
 832 000e 1546     		mov	r5, r2
 833              	.LBB134:
 834              	.LBB135:
 835              	.LBB136:
 836              	.LBB137:
 837              	.LBB138:
 838              		.loc 2 546 0
 839 0010 2023     		movs	r3, #32
 840              		.syntax unified
 841              	@ 546 "../../lib/e-puck2_main-processor/ChibiOS//os/ext/CMSIS/include/core_cmFunc.h" 1
 842 0012 83F31188 		MSR basepri, r3
 843              	@ 0 "" 2
 844              	.LVL83:
 845              		.thumb
 846              		.syntax unified
 847              	.LBE138:
 848              	.LBE137:
 849              	.LBE136:
 850              		.loc 3 349 0
 851 0016 FFF7FEFF 		bl	_stats_start_measure_crit_thd
 852              	.LVL84:
 853              		.loc 3 350 0
 854 001a FFF7FEFF 		bl	_dbg_check_lock
 855              	.LVL85:
ARM GAS  C:\Users\mathi\AppData\Local\Temp\ccQfoKxG.s 			page 16


 856              	.LBE135:
 857              	.LBE134:
 858              	.LBB139:
 859              	.LBB140:
 860              		.loc 1 286 0
 861 001e FFF7FEFF 		bl	chDbgCheckClassS
 862              	.LVL86:
 863              		.loc 1 287 0
 864 0022 002C     		cmp	r4, #0
 865 0024 32D0     		beq	.L76
 866              	.L70:
 867              		.loc 1 289 0
 868 0026 2946     		mov	r1, r5
 869 0028 04F11C00 		add	r0, r4, #28
 870 002c FFF7FEFF 		bl	chSemWaitTimeoutS
 871              	.LVL87:
 872              		.loc 1 290 0
 873 0030 0546     		mov	r5, r0
 874              	.LVL88:
 875 0032 60B9     		cbnz	r0, .L71
 876              	.LVL89:
 877              	.LBB141:
 878              	.LBB142:
 879              		.loc 1 291 0
 880 0034 E368     		ldr	r3, [r4, #12]
 881 0036 2268     		ldr	r2, [r4]
 882 0038 043B     		subs	r3, r3, #4
 883 003a 9342     		cmp	r3, r2
 884 003c E360     		str	r3, [r4, #12]
 885 003e 1DD3     		bcc	.L77
 886              	.L72:
 887              		.loc 1 294 0
 888 0040 1F60     		str	r7, [r3]
 889              		.loc 1 295 0
 890 0042 04F11000 		add	r0, r4, #16
 891              	.LVL90:
 892 0046 FFF7FEFF 		bl	chSemSignalI
 893              	.LVL91:
 894              		.loc 1 296 0
 895 004a FFF7FEFF 		bl	chSchRescheduleS
 896              	.LVL92:
 897              	.L71:
 898              	.LBE142:
 899              	.LBE141:
 900              	.LBE140:
 901              	.LBE139:
 902              	.LBB147:
 903              	.LBB148:
 904              		.loc 3 360 0
 905 004e FFF7FEFF 		bl	_dbg_check_unlock
 906              	.LVL93:
 907              		.loc 3 361 0
 908 0052 FFF7FEFF 		bl	_stats_stop_measure_crit_thd
 909              	.LVL94:
 910              		.loc 3 367 0
 911 0056 114B     		ldr	r3, .L80+4
 912 0058 1A68     		ldr	r2, [r3]
ARM GAS  C:\Users\mathi\AppData\Local\Temp\ccQfoKxG.s 			page 17


 913 005a 9A42     		cmp	r2, r3
 914 005c 04D0     		beq	.L73
 915 005e 9969     		ldr	r1, [r3, #24]
 916 0060 9368     		ldr	r3, [r2, #8]
 917 0062 8A68     		ldr	r2, [r1, #8]
 918 0064 9A42     		cmp	r2, r3
 919 0066 0DD3     		bcc	.L78
 920              	.L73:
 921              	.LVL95:
 922              	.LBB149:
 923              	.LBB150:
 924              	.LBB151:
 925              		.loc 2 546 0
 926 0068 0023     		movs	r3, #0
 927              		.syntax unified
 928              	@ 546 "../../lib/e-puck2_main-processor/ChibiOS//os/ext/CMSIS/include/core_cmFunc.h" 1
 929 006a 83F31188 		MSR basepri, r3
 930              	@ 0 "" 2
 931              	.LVL96:
 932              		.thumb
 933              		.syntax unified
 934              	.LBE151:
 935              	.LBE150:
 936              	.LBE149:
 937              	.LBE148:
 938              	.LBE147:
 939              		.loc 1 262 0
 940 006e 019A     		ldr	r2, [sp, #4]
 941 0070 3368     		ldr	r3, [r6]
 942 0072 9A42     		cmp	r2, r3
 943 0074 2846     		mov	r0, r5
 944 0076 0DD1     		bne	.L79
 945 0078 03B0     		add	sp, sp, #12
 946              		.cfi_remember_state
 947              		.cfi_def_cfa_offset 20
 948              		@ sp needed
 949 007a F0BD     		pop	{r4, r5, r6, r7, pc}
 950              	.LVL97:
 951              	.L77:
 952              		.cfi_restore_state
 953              	.LBB153:
 954              	.LBB145:
 955              	.LBB144:
 956              	.LBB143:
 957              		.loc 1 292 0
 958 007c 6368     		ldr	r3, [r4, #4]
 959 007e 043B     		subs	r3, r3, #4
 960 0080 E360     		str	r3, [r4, #12]
 961 0082 DDE7     		b	.L72
 962              	.LVL98:
 963              	.L78:
 964              	.LBE143:
 965              	.LBE144:
 966              	.LBE145:
 967              	.LBE153:
 968              	.LBB154:
 969              	.LBB152:
ARM GAS  C:\Users\mathi\AppData\Local\Temp\ccQfoKxG.s 			page 18


 970              		.loc 3 367 0
 971 0084 0648     		ldr	r0, .L80+8
 972 0086 FFF7FEFF 		bl	chSysHalt
 973              	.LVL99:
 974 008a EDE7     		b	.L73
 975              	.LVL100:
 976              	.L76:
 977              	.LBE152:
 978              	.LBE154:
 979              	.LBB155:
 980              	.LBB146:
 981              		.loc 1 287 0
 982 008c 0548     		ldr	r0, .L80+12
 983 008e FFF7FEFF 		bl	chSysHalt
 984              	.LVL101:
 985 0092 C8E7     		b	.L70
 986              	.LVL102:
 987              	.L79:
 988              	.LBE146:
 989              	.LBE155:
 990              		.loc 1 262 0
 991 0094 FFF7FEFF 		bl	__stack_chk_fail
 992              	.LVL103:
 993              	.L81:
 994              		.align	2
 995              	.L80:
 996 0098 00000000 		.word	__stack_chk_guard
 997 009c 00000000 		.word	ch
 998 00a0 00000000 		.word	.LANCHOR2
 999 00a4 00000000 		.word	.LANCHOR5
 1000              		.cfi_endproc
 1001              	.LFE225:
 1002              		.size	chMBPostAhead, .-chMBPostAhead
 1003              		.section	.text.chMBPostAheadS,"ax",%progbits
 1004              		.align	1
 1005              		.p2align 4,,15
 1006              		.global	chMBPostAheadS
 1007              		.syntax unified
 1008              		.thumb
 1009              		.thumb_func
 1010              		.fpu fpv4-sp-d16
 1011              		.type	chMBPostAheadS, %function
 1012              	chMBPostAheadS:
 1013              	.LFB226:
 1014              		.loc 1 283 0
 1015              		.cfi_startproc
 1016              		@ args = 0, pretend = 0, frame = 8
 1017              		@ frame_needed = 0, uses_anonymous_args = 0
 1018              	.LVL104:
 1019 0000 F0B5     		push	{r4, r5, r6, r7, lr}
 1020              		.cfi_def_cfa_offset 20
 1021              		.cfi_offset 4, -20
 1022              		.cfi_offset 5, -16
 1023              		.cfi_offset 6, -12
 1024              		.cfi_offset 7, -8
 1025              		.cfi_offset 14, -4
 1026 0002 174E     		ldr	r6, .L91
ARM GAS  C:\Users\mathi\AppData\Local\Temp\ccQfoKxG.s 			page 19


 1027 0004 83B0     		sub	sp, sp, #12
 1028              		.cfi_def_cfa_offset 32
 1029              		.loc 1 283 0
 1030 0006 0446     		mov	r4, r0
 1031 0008 3368     		ldr	r3, [r6]
 1032 000a 0193     		str	r3, [sp, #4]
 1033 000c 0F46     		mov	r7, r1
 1034 000e 1546     		mov	r5, r2
 1035              		.loc 1 286 0
 1036 0010 FFF7FEFF 		bl	chDbgCheckClassS
 1037              	.LVL105:
 1038              		.loc 1 287 0
 1039 0014 F4B1     		cbz	r4, .L88
 1040              	.L83:
 1041              		.loc 1 289 0
 1042 0016 2946     		mov	r1, r5
 1043 0018 04F11C00 		add	r0, r4, #28
 1044 001c FFF7FEFF 		bl	chSemWaitTimeoutS
 1045              	.LVL106:
 1046              		.loc 1 290 0
 1047 0020 0546     		mov	r5, r0
 1048              	.LVL107:
 1049 0022 60B9     		cbnz	r0, .L82
 1050              	.LVL108:
 1051              	.LBB158:
 1052              	.LBB159:
 1053              		.loc 1 291 0
 1054 0024 E368     		ldr	r3, [r4, #12]
 1055 0026 2268     		ldr	r2, [r4]
 1056 0028 043B     		subs	r3, r3, #4
 1057 002a 9342     		cmp	r3, r2
 1058 002c E360     		str	r3, [r4, #12]
 1059 002e 0DD3     		bcc	.L89
 1060              	.L85:
 1061              		.loc 1 294 0
 1062 0030 1F60     		str	r7, [r3]
 1063              		.loc 1 295 0
 1064 0032 04F11000 		add	r0, r4, #16
 1065              	.LVL109:
 1066 0036 FFF7FEFF 		bl	chSemSignalI
 1067              	.LVL110:
 1068              		.loc 1 296 0
 1069 003a FFF7FEFF 		bl	chSchRescheduleS
 1070              	.LVL111:
 1071              	.L82:
 1072              	.LBE159:
 1073              	.LBE158:
 1074              		.loc 1 300 0
 1075 003e 019A     		ldr	r2, [sp, #4]
 1076 0040 3368     		ldr	r3, [r6]
 1077 0042 9A42     		cmp	r2, r3
 1078 0044 2846     		mov	r0, r5
 1079 0046 09D1     		bne	.L90
 1080              	.LVL112:
 1081 0048 03B0     		add	sp, sp, #12
 1082              		.cfi_remember_state
 1083              		.cfi_def_cfa_offset 20
ARM GAS  C:\Users\mathi\AppData\Local\Temp\ccQfoKxG.s 			page 20


 1084              		@ sp needed
 1085 004a F0BD     		pop	{r4, r5, r6, r7, pc}
 1086              	.LVL113:
 1087              	.L89:
 1088              		.cfi_restore_state
 1089              	.LBB161:
 1090              	.LBB160:
 1091              		.loc 1 292 0
 1092 004c 6368     		ldr	r3, [r4, #4]
 1093 004e 043B     		subs	r3, r3, #4
 1094 0050 E360     		str	r3, [r4, #12]
 1095 0052 EDE7     		b	.L85
 1096              	.LVL114:
 1097              	.L88:
 1098              	.LBE160:
 1099              	.LBE161:
 1100              		.loc 1 287 0 discriminator 2
 1101 0054 0348     		ldr	r0, .L91+4
 1102 0056 FFF7FEFF 		bl	chSysHalt
 1103              	.LVL115:
 1104 005a DCE7     		b	.L83
 1105              	.LVL116:
 1106              	.L90:
 1107              		.loc 1 300 0
 1108 005c FFF7FEFF 		bl	__stack_chk_fail
 1109              	.LVL117:
 1110              	.L92:
 1111              		.align	2
 1112              	.L91:
 1113 0060 00000000 		.word	__stack_chk_guard
 1114 0064 00000000 		.word	.LANCHOR5
 1115              		.cfi_endproc
 1116              	.LFE226:
 1117              		.size	chMBPostAheadS, .-chMBPostAheadS
 1118              		.section	.text.chMBPostAheadI,"ax",%progbits
 1119              		.align	1
 1120              		.p2align 4,,15
 1121              		.global	chMBPostAheadI
 1122              		.syntax unified
 1123              		.thumb
 1124              		.thumb_func
 1125              		.fpu fpv4-sp-d16
 1126              		.type	chMBPostAheadI, %function
 1127              	chMBPostAheadI:
 1128              	.LFB227:
 1129              		.loc 1 316 0
 1130              		.cfi_startproc
 1131              		@ args = 0, pretend = 0, frame = 8
 1132              		@ frame_needed = 0, uses_anonymous_args = 0
 1133              	.LVL118:
 1134 0000 70B5     		push	{r4, r5, r6, lr}
 1135              		.cfi_def_cfa_offset 16
 1136              		.cfi_offset 4, -16
 1137              		.cfi_offset 5, -12
 1138              		.cfi_offset 6, -8
 1139              		.cfi_offset 14, -4
 1140 0002 194D     		ldr	r5, .L103
ARM GAS  C:\Users\mathi\AppData\Local\Temp\ccQfoKxG.s 			page 21


 1141 0004 82B0     		sub	sp, sp, #8
 1142              		.cfi_def_cfa_offset 24
 1143              		.loc 1 316 0
 1144 0006 0446     		mov	r4, r0
 1145 0008 2B68     		ldr	r3, [r5]
 1146 000a 0193     		str	r3, [sp, #4]
 1147 000c 0E46     		mov	r6, r1
 1148              		.loc 1 318 0
 1149 000e FFF7FEFF 		bl	chDbgCheckClassI
 1150              	.LVL119:
 1151              		.loc 1 319 0
 1152 0012 FCB1     		cbz	r4, .L100
 1153              	.L94:
 1154              	.LVL120:
 1155              	.LBB162:
 1156              	.LBB163:
 1157              		.loc 4 151 0
 1158 0014 FFF7FEFF 		bl	chDbgCheckClassI
 1159              	.LVL121:
 1160              	.LBE163:
 1161              	.LBE162:
 1162              		.loc 1 321 0
 1163 0018 636A     		ldr	r3, [r4, #36]
 1164 001a 002B     		cmp	r3, #0
 1165 001c 1EDD     		ble	.L98
 1166              	.LVL122:
 1167              	.LBB164:
 1168              	.LBB165:
 1169              		.loc 4 120 0
 1170 001e FFF7FEFF 		bl	chDbgCheckClassI
 1171              	.LVL123:
 1172              	.LBE165:
 1173              	.LBE164:
 1174              		.loc 1 325 0
 1175 0022 E368     		ldr	r3, [r4, #12]
 1176              	.LBB169:
 1177              	.LBB166:
 1178              		.loc 4 122 0
 1179 0024 626A     		ldr	r2, [r4, #36]
 1180              	.LBE166:
 1181              	.LBE169:
 1182              		.loc 1 325 0
 1183 0026 2168     		ldr	r1, [r4]
 1184 0028 043B     		subs	r3, r3, #4
 1185              	.LBB170:
 1186              	.LBB167:
 1187              		.loc 4 122 0
 1188 002a 013A     		subs	r2, r2, #1
 1189              	.LBE167:
 1190              	.LBE170:
 1191              		.loc 1 325 0
 1192 002c 8B42     		cmp	r3, r1
 1193              	.LBB171:
 1194              	.LBB168:
 1195              		.loc 4 122 0
 1196 002e 6262     		str	r2, [r4, #36]
 1197              	.LBE168:
ARM GAS  C:\Users\mathi\AppData\Local\Temp\ccQfoKxG.s 			page 22


 1198              	.LBE171:
 1199              		.loc 1 325 0
 1200 0030 E360     		str	r3, [r4, #12]
 1201 0032 0BD3     		bcc	.L101
 1202              	.L96:
 1203              		.loc 1 329 0
 1204 0034 04F11000 		add	r0, r4, #16
 1205              		.loc 1 328 0
 1206 0038 1E60     		str	r6, [r3]
 1207              		.loc 1 329 0
 1208 003a FFF7FEFF 		bl	chSemSignalI
 1209              	.LVL124:
 1210              		.loc 1 331 0
 1211 003e 0020     		movs	r0, #0
 1212              	.LVL125:
 1213              	.L93:
 1214              		.loc 1 332 0
 1215 0040 019A     		ldr	r2, [sp, #4]
 1216 0042 2B68     		ldr	r3, [r5]
 1217 0044 9A42     		cmp	r2, r3
 1218 0046 0CD1     		bne	.L102
 1219 0048 02B0     		add	sp, sp, #8
 1220              		.cfi_remember_state
 1221              		.cfi_def_cfa_offset 16
 1222              		@ sp needed
 1223 004a 70BD     		pop	{r4, r5, r6, pc}
 1224              	.LVL126:
 1225              	.L101:
 1226              		.cfi_restore_state
 1227              		.loc 1 326 0
 1228 004c 6368     		ldr	r3, [r4, #4]
 1229 004e 043B     		subs	r3, r3, #4
 1230 0050 E360     		str	r3, [r4, #12]
 1231 0052 EFE7     		b	.L96
 1232              	.LVL127:
 1233              	.L100:
 1234              		.loc 1 319 0 discriminator 2
 1235 0054 0548     		ldr	r0, .L103+4
 1236 0056 FFF7FEFF 		bl	chSysHalt
 1237              	.LVL128:
 1238 005a DBE7     		b	.L94
 1239              	.LVL129:
 1240              	.L98:
 1241              		.loc 1 322 0
 1242 005c 4FF0FF30 		mov	r0, #-1
 1243 0060 EEE7     		b	.L93
 1244              	.L102:
 1245              		.loc 1 332 0
 1246 0062 FFF7FEFF 		bl	__stack_chk_fail
 1247              	.LVL130:
 1248              	.L104:
 1249 0066 00BF     		.align	2
 1250              	.L103:
 1251 0068 00000000 		.word	__stack_chk_guard
 1252 006c 00000000 		.word	.LANCHOR6
 1253              		.cfi_endproc
 1254              	.LFE227:
ARM GAS  C:\Users\mathi\AppData\Local\Temp\ccQfoKxG.s 			page 23


 1255              		.size	chMBPostAheadI, .-chMBPostAheadI
 1256              		.section	.text.chMBFetch,"ax",%progbits
 1257              		.align	1
 1258              		.p2align 4,,15
 1259              		.global	chMBFetch
 1260              		.syntax unified
 1261              		.thumb
 1262              		.thumb_func
 1263              		.fpu fpv4-sp-d16
 1264              		.type	chMBFetch, %function
 1265              	chMBFetch:
 1266              	.LFB228:
 1267              		.loc 1 353 0
 1268              		.cfi_startproc
 1269              		@ args = 0, pretend = 0, frame = 8
 1270              		@ frame_needed = 0, uses_anonymous_args = 0
 1271              	.LVL131:
 1272 0000 F0B5     		push	{r4, r5, r6, r7, lr}
 1273              		.cfi_def_cfa_offset 20
 1274              		.cfi_offset 4, -20
 1275              		.cfi_offset 5, -16
 1276              		.cfi_offset 6, -12
 1277              		.cfi_offset 7, -8
 1278              		.cfi_offset 14, -4
 1279 0002 264E     		ldr	r6, .L118
 1280 0004 83B0     		sub	sp, sp, #12
 1281              		.cfi_def_cfa_offset 32
 1282              		.loc 1 353 0
 1283 0006 3368     		ldr	r3, [r6]
 1284 0008 0193     		str	r3, [sp, #4]
 1285 000a 0446     		mov	r4, r0
 1286 000c 0F46     		mov	r7, r1
 1287              	.LVL132:
 1288 000e 1546     		mov	r5, r2
 1289              	.LBB186:
 1290              	.LBB187:
 1291              	.LBB188:
 1292              	.LBB189:
 1293              	.LBB190:
 1294              		.loc 2 546 0
 1295 0010 2023     		movs	r3, #32
 1296              		.syntax unified
 1297              	@ 546 "../../lib/e-puck2_main-processor/ChibiOS//os/ext/CMSIS/include/core_cmFunc.h" 1
 1298 0012 83F31188 		MSR basepri, r3
 1299              	@ 0 "" 2
 1300              	.LVL133:
 1301              		.thumb
 1302              		.syntax unified
 1303              	.LBE190:
 1304              	.LBE189:
 1305              	.LBE188:
 1306              		.loc 3 349 0
 1307 0016 FFF7FEFF 		bl	_stats_start_measure_crit_thd
 1308              	.LVL134:
 1309              		.loc 3 350 0
 1310 001a FFF7FEFF 		bl	_dbg_check_lock
 1311              	.LVL135:
ARM GAS  C:\Users\mathi\AppData\Local\Temp\ccQfoKxG.s 			page 24


 1312              	.LBE187:
 1313              	.LBE186:
 1314              	.LBB191:
 1315              	.LBB192:
 1316              		.loc 1 385 0
 1317 001e FFF7FEFF 		bl	chDbgCheckClassS
 1318              	.LVL136:
 1319              		.loc 1 386 0
 1320 0022 002C     		cmp	r4, #0
 1321 0024 34D0     		beq	.L106
 1322 0026 002F     		cmp	r7, #0
 1323 0028 32D0     		beq	.L106
 1324              	.L107:
 1325              		.loc 1 388 0
 1326 002a 2946     		mov	r1, r5
 1327 002c 04F11000 		add	r0, r4, #16
 1328 0030 FFF7FEFF 		bl	chSemWaitTimeoutS
 1329              	.LVL137:
 1330              		.loc 1 389 0
 1331 0034 0546     		mov	r5, r0
 1332              	.LVL138:
 1333 0036 80B9     		cbnz	r0, .L108
 1334              	.LVL139:
 1335              	.LBB193:
 1336              	.LBB194:
 1337              		.loc 1 390 0
 1338 0038 E368     		ldr	r3, [r4, #12]
 1339 003a 1A1D     		adds	r2, r3, #4
 1340 003c E260     		str	r2, [r4, #12]
 1341 003e 1B68     		ldr	r3, [r3]
 1342 0040 3B60     		str	r3, [r7]
 1343              		.loc 1 391 0
 1344 0042 6368     		ldr	r3, [r4, #4]
 1345 0044 E268     		ldr	r2, [r4, #12]
 1346 0046 9A42     		cmp	r2, r3
 1347              		.loc 1 392 0
 1348 0048 24BF     		itt	cs
 1349 004a 2368     		ldrcs	r3, [r4]
 1350 004c E360     		strcs	r3, [r4, #12]
 1351              		.loc 1 394 0
 1352 004e 04F11C00 		add	r0, r4, #28
 1353              	.LVL140:
 1354 0052 FFF7FEFF 		bl	chSemSignalI
 1355              	.LVL141:
 1356              		.loc 1 395 0
 1357 0056 FFF7FEFF 		bl	chSchRescheduleS
 1358              	.LVL142:
 1359              	.L108:
 1360              	.LBE194:
 1361              	.LBE193:
 1362              	.LBE192:
 1363              	.LBE191:
 1364              	.LBB196:
 1365              	.LBB197:
 1366              		.loc 3 360 0
 1367 005a FFF7FEFF 		bl	_dbg_check_unlock
 1368              	.LVL143:
ARM GAS  C:\Users\mathi\AppData\Local\Temp\ccQfoKxG.s 			page 25


 1369              		.loc 3 361 0
 1370 005e FFF7FEFF 		bl	_stats_stop_measure_crit_thd
 1371              	.LVL144:
 1372              		.loc 3 367 0
 1373 0062 0F4B     		ldr	r3, .L118+4
 1374 0064 1A68     		ldr	r2, [r3]
 1375 0066 9A42     		cmp	r2, r3
 1376 0068 04D0     		beq	.L110
 1377 006a 9969     		ldr	r1, [r3, #24]
 1378 006c 9368     		ldr	r3, [r2, #8]
 1379 006e 8A68     		ldr	r2, [r1, #8]
 1380 0070 9A42     		cmp	r2, r3
 1381 0072 09D3     		bcc	.L116
 1382              	.L110:
 1383              	.LVL145:
 1384              	.LBB198:
 1385              	.LBB199:
 1386              	.LBB200:
 1387              		.loc 2 546 0
 1388 0074 0023     		movs	r3, #0
 1389              		.syntax unified
 1390              	@ 546 "../../lib/e-puck2_main-processor/ChibiOS//os/ext/CMSIS/include/core_cmFunc.h" 1
 1391 0076 83F31188 		MSR basepri, r3
 1392              	@ 0 "" 2
 1393              	.LVL146:
 1394              		.thumb
 1395              		.syntax unified
 1396              	.LBE200:
 1397              	.LBE199:
 1398              	.LBE198:
 1399              	.LBE197:
 1400              	.LBE196:
 1401              		.loc 1 361 0
 1402 007a 019A     		ldr	r2, [sp, #4]
 1403 007c 3368     		ldr	r3, [r6]
 1404 007e 9A42     		cmp	r2, r3
 1405 0080 2846     		mov	r0, r5
 1406 0082 09D1     		bne	.L117
 1407 0084 03B0     		add	sp, sp, #12
 1408              		.cfi_remember_state
 1409              		.cfi_def_cfa_offset 20
 1410              		@ sp needed
 1411 0086 F0BD     		pop	{r4, r5, r6, r7, pc}
 1412              	.LVL147:
 1413              	.L116:
 1414              		.cfi_restore_state
 1415              	.LBB202:
 1416              	.LBB201:
 1417              		.loc 3 367 0
 1418 0088 0648     		ldr	r0, .L118+8
 1419 008a FFF7FEFF 		bl	chSysHalt
 1420              	.LVL148:
 1421 008e F1E7     		b	.L110
 1422              	.LVL149:
 1423              	.L106:
 1424              	.LBE201:
 1425              	.LBE202:
ARM GAS  C:\Users\mathi\AppData\Local\Temp\ccQfoKxG.s 			page 26


 1426              	.LBB203:
 1427              	.LBB195:
 1428              		.loc 1 386 0
 1429 0090 0548     		ldr	r0, .L118+12
 1430 0092 FFF7FEFF 		bl	chSysHalt
 1431              	.LVL150:
 1432 0096 C8E7     		b	.L107
 1433              	.LVL151:
 1434              	.L117:
 1435              	.LBE195:
 1436              	.LBE203:
 1437              		.loc 1 361 0
 1438 0098 FFF7FEFF 		bl	__stack_chk_fail
 1439              	.LVL152:
 1440              	.L119:
 1441              		.align	2
 1442              	.L118:
 1443 009c 00000000 		.word	__stack_chk_guard
 1444 00a0 00000000 		.word	ch
 1445 00a4 00000000 		.word	.LANCHOR2
 1446 00a8 00000000 		.word	.LANCHOR7
 1447              		.cfi_endproc
 1448              	.LFE228:
 1449              		.size	chMBFetch, .-chMBFetch
 1450              		.section	.text.chMBFetchS,"ax",%progbits
 1451              		.align	1
 1452              		.p2align 4,,15
 1453              		.global	chMBFetchS
 1454              		.syntax unified
 1455              		.thumb
 1456              		.thumb_func
 1457              		.fpu fpv4-sp-d16
 1458              		.type	chMBFetchS, %function
 1459              	chMBFetchS:
 1460              	.LFB229:
 1461              		.loc 1 382 0
 1462              		.cfi_startproc
 1463              		@ args = 0, pretend = 0, frame = 8
 1464              		@ frame_needed = 0, uses_anonymous_args = 0
 1465              	.LVL153:
 1466 0000 F0B5     		push	{r4, r5, r6, r7, lr}
 1467              		.cfi_def_cfa_offset 20
 1468              		.cfi_offset 4, -20
 1469              		.cfi_offset 5, -16
 1470              		.cfi_offset 6, -12
 1471              		.cfi_offset 7, -8
 1472              		.cfi_offset 14, -4
 1473 0002 184E     		ldr	r6, .L131
 1474 0004 83B0     		sub	sp, sp, #12
 1475              		.cfi_def_cfa_offset 32
 1476              		.loc 1 382 0
 1477 0006 0446     		mov	r4, r0
 1478 0008 3368     		ldr	r3, [r6]
 1479 000a 0193     		str	r3, [sp, #4]
 1480 000c 0F46     		mov	r7, r1
 1481 000e 1546     		mov	r5, r2
 1482              		.loc 1 385 0
ARM GAS  C:\Users\mathi\AppData\Local\Temp\ccQfoKxG.s 			page 27


 1483 0010 FFF7FEFF 		bl	chDbgCheckClassS
 1484              	.LVL154:
 1485              		.loc 1 386 0
 1486 0014 FCB1     		cbz	r4, .L121
 1487              		.loc 1 386 0 is_stmt 0 discriminator 3
 1488 0016 F7B1     		cbz	r7, .L121
 1489              	.L122:
 1490              		.loc 1 388 0 is_stmt 1
 1491 0018 2946     		mov	r1, r5
 1492 001a 04F11000 		add	r0, r4, #16
 1493 001e FFF7FEFF 		bl	chSemWaitTimeoutS
 1494              	.LVL155:
 1495              		.loc 1 389 0
 1496 0022 0546     		mov	r5, r0
 1497              	.LVL156:
 1498 0024 80B9     		cbnz	r0, .L120
 1499              	.LVL157:
 1500              	.LBB206:
 1501              	.LBB207:
 1502              		.loc 1 390 0
 1503 0026 E368     		ldr	r3, [r4, #12]
 1504 0028 1A1D     		adds	r2, r3, #4
 1505 002a E260     		str	r2, [r4, #12]
 1506 002c 1B68     		ldr	r3, [r3]
 1507 002e 3B60     		str	r3, [r7]
 1508              		.loc 1 391 0
 1509 0030 6368     		ldr	r3, [r4, #4]
 1510 0032 E268     		ldr	r2, [r4, #12]
 1511 0034 9A42     		cmp	r2, r3
 1512              		.loc 1 392 0
 1513 0036 24BF     		itt	cs
 1514 0038 2368     		ldrcs	r3, [r4]
 1515 003a E360     		strcs	r3, [r4, #12]
 1516              		.loc 1 394 0
 1517 003c 04F11C00 		add	r0, r4, #28
 1518              	.LVL158:
 1519 0040 FFF7FEFF 		bl	chSemSignalI
 1520              	.LVL159:
 1521              		.loc 1 395 0
 1522 0044 FFF7FEFF 		bl	chSchRescheduleS
 1523              	.LVL160:
 1524              	.L120:
 1525              	.LBE207:
 1526              	.LBE206:
 1527              		.loc 1 399 0
 1528 0048 019A     		ldr	r2, [sp, #4]
 1529 004a 3368     		ldr	r3, [r6]
 1530 004c 9A42     		cmp	r2, r3
 1531 004e 2846     		mov	r0, r5
 1532 0050 05D1     		bne	.L130
 1533              	.LVL161:
 1534 0052 03B0     		add	sp, sp, #12
 1535              		.cfi_remember_state
 1536              		.cfi_def_cfa_offset 20
 1537              		@ sp needed
 1538 0054 F0BD     		pop	{r4, r5, r6, r7, pc}
 1539              	.LVL162:
ARM GAS  C:\Users\mathi\AppData\Local\Temp\ccQfoKxG.s 			page 28


 1540              	.L121:
 1541              		.cfi_restore_state
 1542              		.loc 1 386 0 discriminator 4
 1543 0056 0448     		ldr	r0, .L131+4
 1544 0058 FFF7FEFF 		bl	chSysHalt
 1545              	.LVL163:
 1546 005c DCE7     		b	.L122
 1547              	.LVL164:
 1548              	.L130:
 1549              		.loc 1 399 0
 1550 005e FFF7FEFF 		bl	__stack_chk_fail
 1551              	.LVL165:
 1552              	.L132:
 1553 0062 00BF     		.align	2
 1554              	.L131:
 1555 0064 00000000 		.word	__stack_chk_guard
 1556 0068 00000000 		.word	.LANCHOR7
 1557              		.cfi_endproc
 1558              	.LFE229:
 1559              		.size	chMBFetchS, .-chMBFetchS
 1560              		.section	.text.chMBFetchI,"ax",%progbits
 1561              		.align	1
 1562              		.p2align 4,,15
 1563              		.global	chMBFetchI
 1564              		.syntax unified
 1565              		.thumb
 1566              		.thumb_func
 1567              		.fpu fpv4-sp-d16
 1568              		.type	chMBFetchI, %function
 1569              	chMBFetchI:
 1570              	.LFB230:
 1571              		.loc 1 415 0
 1572              		.cfi_startproc
 1573              		@ args = 0, pretend = 0, frame = 8
 1574              		@ frame_needed = 0, uses_anonymous_args = 0
 1575              	.LVL166:
 1576 0000 70B5     		push	{r4, r5, r6, lr}
 1577              		.cfi_def_cfa_offset 16
 1578              		.cfi_offset 4, -16
 1579              		.cfi_offset 5, -12
 1580              		.cfi_offset 6, -8
 1581              		.cfi_offset 14, -4
 1582 0002 194D     		ldr	r5, .L145
 1583 0004 82B0     		sub	sp, sp, #8
 1584              		.cfi_def_cfa_offset 24
 1585              		.loc 1 415 0
 1586 0006 0446     		mov	r4, r0
 1587 0008 2B68     		ldr	r3, [r5]
 1588 000a 0193     		str	r3, [sp, #4]
 1589 000c 0E46     		mov	r6, r1
 1590              		.loc 1 417 0
 1591 000e FFF7FEFF 		bl	chDbgCheckClassI
 1592              	.LVL167:
 1593              		.loc 1 418 0
 1594 0012 04B3     		cbz	r4, .L134
 1595              		.loc 1 418 0 is_stmt 0 discriminator 3
 1596 0014 FEB1     		cbz	r6, .L134
ARM GAS  C:\Users\mathi\AppData\Local\Temp\ccQfoKxG.s 			page 29


 1597              	.L135:
 1598              	.LVL168:
 1599              	.LBB208:
 1600              	.LBB209:
 1601              		.loc 4 151 0 is_stmt 1
 1602 0016 FFF7FEFF 		bl	chDbgCheckClassI
 1603              	.LVL169:
 1604              	.LBE209:
 1605              	.LBE208:
 1606              		.loc 1 420 0
 1607 001a A369     		ldr	r3, [r4, #24]
 1608 001c 002B     		cmp	r3, #0
 1609 001e 1EDD     		ble	.L139
 1610              	.LVL170:
 1611              	.LBB210:
 1612              	.LBB211:
 1613              		.loc 4 120 0
 1614 0020 FFF7FEFF 		bl	chDbgCheckClassI
 1615              	.LVL171:
 1616              	.LBE211:
 1617              	.LBE210:
 1618              		.loc 1 424 0
 1619 0024 E268     		ldr	r2, [r4, #12]
 1620              	.LBB215:
 1621              	.LBB212:
 1622              		.loc 4 122 0
 1623 0026 A369     		ldr	r3, [r4, #24]
 1624              	.LBE212:
 1625              	.LBE215:
 1626              		.loc 1 424 0
 1627 0028 111D     		adds	r1, r2, #4
 1628              	.LBB216:
 1629              	.LBB213:
 1630              		.loc 4 122 0
 1631 002a 013B     		subs	r3, r3, #1
 1632              	.LBE213:
 1633              	.LBE216:
 1634              		.loc 1 424 0
 1635 002c E160     		str	r1, [r4, #12]
 1636              	.LBB217:
 1637              	.LBB214:
 1638              		.loc 4 122 0
 1639 002e A361     		str	r3, [r4, #24]
 1640              	.LBE214:
 1641              	.LBE217:
 1642              		.loc 1 424 0
 1643 0030 1368     		ldr	r3, [r2]
 1644 0032 3360     		str	r3, [r6]
 1645              		.loc 1 425 0
 1646 0034 6368     		ldr	r3, [r4, #4]
 1647 0036 E268     		ldr	r2, [r4, #12]
 1648 0038 9A42     		cmp	r2, r3
 1649              		.loc 1 426 0
 1650 003a 24BF     		itt	cs
 1651 003c 2368     		ldrcs	r3, [r4]
 1652 003e E360     		strcs	r3, [r4, #12]
 1653              		.loc 1 428 0
ARM GAS  C:\Users\mathi\AppData\Local\Temp\ccQfoKxG.s 			page 30


 1654 0040 04F11C00 		add	r0, r4, #28
 1655 0044 FFF7FEFF 		bl	chSemSignalI
 1656              	.LVL172:
 1657              		.loc 1 430 0
 1658 0048 0020     		movs	r0, #0
 1659              	.LVL173:
 1660              	.L133:
 1661              		.loc 1 431 0
 1662 004a 019A     		ldr	r2, [sp, #4]
 1663 004c 2B68     		ldr	r3, [r5]
 1664 004e 9A42     		cmp	r2, r3
 1665 0050 08D1     		bne	.L144
 1666 0052 02B0     		add	sp, sp, #8
 1667              		.cfi_remember_state
 1668              		.cfi_def_cfa_offset 16
 1669              		@ sp needed
 1670 0054 70BD     		pop	{r4, r5, r6, pc}
 1671              	.LVL174:
 1672              	.L134:
 1673              		.cfi_restore_state
 1674              		.loc 1 418 0 discriminator 4
 1675 0056 0548     		ldr	r0, .L145+4
 1676 0058 FFF7FEFF 		bl	chSysHalt
 1677              	.LVL175:
 1678 005c DBE7     		b	.L135
 1679              	.LVL176:
 1680              	.L139:
 1681              		.loc 1 421 0
 1682 005e 4FF0FF30 		mov	r0, #-1
 1683 0062 F2E7     		b	.L133
 1684              	.L144:
 1685              		.loc 1 431 0
 1686 0064 FFF7FEFF 		bl	__stack_chk_fail
 1687              	.LVL177:
 1688              	.L146:
 1689              		.align	2
 1690              	.L145:
 1691 0068 00000000 		.word	__stack_chk_guard
 1692 006c 00000000 		.word	.LANCHOR8
 1693              		.cfi_endproc
 1694              	.LFE230:
 1695              		.size	chMBFetchI, .-chMBFetchI
 1696              		.section	.rodata.__func__.7153,"a",%progbits
 1697              		.align	2
 1698              		.set	.LANCHOR2,. + 0
 1699              		.type	__func__.7153, %object
 1700              		.size	__func__.7153, 12
 1701              	__func__.7153:
 1702 0000 63685379 		.ascii	"chSysUnlock\000"
 1702      73556E6C 
 1702      6F636B00 
 1703              		.section	.rodata.__func__.7851,"a",%progbits
 1704              		.align	2
 1705              		.set	.LANCHOR0,. + 0
 1706              		.type	__func__.7851, %object
 1707              		.size	__func__.7851, 15
 1708              	__func__.7851:
ARM GAS  C:\Users\mathi\AppData\Local\Temp\ccQfoKxG.s 			page 31


 1709 0000 63684D42 		.ascii	"chMBObjectInit\000"
 1709      4F626A65 
 1709      6374496E 
 1709      697400
 1710              		.section	.rodata.__func__.7858,"a",%progbits
 1711              		.align	2
 1712              		.set	.LANCHOR1,. + 0
 1713              		.type	__func__.7858, %object
 1714              		.size	__func__.7858, 11
 1715              	__func__.7858:
 1716 0000 63684D42 		.ascii	"chMBResetI\000"
 1716      52657365 
 1716      744900
 1717              		.section	.rodata.__func__.7871,"a",%progbits
 1718              		.align	2
 1719              		.set	.LANCHOR3,. + 0
 1720              		.type	__func__.7871, %object
 1721              		.size	__func__.7871, 10
 1722              	__func__.7871:
 1723 0000 63684D42 		.ascii	"chMBPostS\000"
 1723      506F7374 
 1723      5300
 1724              		.section	.rodata.__func__.7876,"a",%progbits
 1725              		.align	2
 1726              		.set	.LANCHOR4,. + 0
 1727              		.type	__func__.7876, %object
 1728              		.size	__func__.7876, 10
 1729              	__func__.7876:
 1730 0000 63684D42 		.ascii	"chMBPostI\000"
 1730      506F7374 
 1730      4900
 1731              		.section	.rodata.__func__.7889,"a",%progbits
 1732              		.align	2
 1733              		.set	.LANCHOR5,. + 0
 1734              		.type	__func__.7889, %object
 1735              		.size	__func__.7889, 15
 1736              	__func__.7889:
 1737 0000 63684D42 		.ascii	"chMBPostAheadS\000"
 1737      506F7374 
 1737      41686561 
 1737      645300
 1738              		.section	.rodata.__func__.7894,"a",%progbits
 1739              		.align	2
 1740              		.set	.LANCHOR6,. + 0
 1741              		.type	__func__.7894, %object
 1742              		.size	__func__.7894, 15
 1743              	__func__.7894:
 1744 0000 63684D42 		.ascii	"chMBPostAheadI\000"
 1744      506F7374 
 1744      41686561 
 1744      644900
 1745              		.section	.rodata.__func__.7907,"a",%progbits
 1746              		.align	2
 1747              		.set	.LANCHOR7,. + 0
 1748              		.type	__func__.7907, %object
 1749              		.size	__func__.7907, 11
 1750              	__func__.7907:
ARM GAS  C:\Users\mathi\AppData\Local\Temp\ccQfoKxG.s 			page 32


 1751 0000 63684D42 		.ascii	"chMBFetchS\000"
 1751      46657463 
 1751      685300
 1752              		.section	.rodata.__func__.7912,"a",%progbits
 1753              		.align	2
 1754              		.set	.LANCHOR8,. + 0
 1755              		.type	__func__.7912, %object
 1756              		.size	__func__.7912, 11
 1757              	__func__.7912:
 1758 0000 63684D42 		.ascii	"chMBFetchI\000"
 1758      46657463 
 1758      684900
 1759              		.text
 1760              	.Letext0:
 1761              		.file 5 "c:\\eclipse_e-puck2\\tools\\gcc-arm-none-eabi-7-2017-q4-major-win32\\arm-none-eabi\\inclu
 1762              		.file 6 "c:\\eclipse_e-puck2\\tools\\gcc-arm-none-eabi-7-2017-q4-major-win32\\arm-none-eabi\\inclu
 1763              		.file 7 "../../lib/e-puck2_main-processor/ChibiOS//os/rt/ports/ARMCMx/compilers/GCC/chtypes.h"
 1764              		.file 8 "../../lib/e-puck2_main-processor/ChibiOS//os/rt/include/chsystypes.h"
 1765              		.file 9 "../../lib/e-puck2_main-processor/ChibiOS//os/rt/include/chschd.h"
 1766              		.file 10 "../../lib/e-puck2_main-processor/ChibiOS//os/ext/CMSIS/include/core_cm4.h"
 1767              		.file 11 "../../lib/e-puck2_main-processor/ChibiOS//os/ext/CMSIS/ST/system_stm32f4xx.h"
 1768              		.file 12 "../../lib/e-puck2_main-processor/ChibiOS//os/rt/ports/ARMCMx/chcore.h"
 1769              		.file 13 "../../lib/e-puck2_main-processor/ChibiOS//os/rt/ports/ARMCMx/chcore_v7m.h"
 1770              		.file 14 "../../lib/e-puck2_main-processor/ChibiOS//os/rt/include/chdebug.h"
 1771              		.file 15 "../../lib/e-puck2_main-processor/ChibiOS//os/rt/include/chtm.h"
 1772              		.file 16 "../../lib/e-puck2_main-processor/ChibiOS//os/rt/include/chstats.h"
 1773              		.file 17 "../../lib/e-puck2_main-processor/ChibiOS//os/rt/include/chmtx.h"
 1774              		.file 18 "../../lib/e-puck2_main-processor/ChibiOS//os/rt/include/chregistry.h"
 1775              		.file 19 "../../lib/e-puck2_main-processor/ChibiOS//os/rt/include/chmboxes.h"