ARM GAS  C:\Users\mathi\AppData\Local\Temp\ccyVFtl3.s 			page 1


   1              		.cpu cortex-m4
   2              		.eabi_attribute 27, 1
   3              		.eabi_attribute 28, 1
   4              		.eabi_attribute 20, 1
   5              		.eabi_attribute 21, 1
   6              		.eabi_attribute 23, 3
   7              		.eabi_attribute 24, 1
   8              		.eabi_attribute 25, 1
   9              		.eabi_attribute 26, 1
  10              		.eabi_attribute 30, 2
  11              		.eabi_attribute 34, 1
  12              		.eabi_attribute 18, 4
  13              		.file	"chmtx.c"
  14              		.text
  15              	.Ltext0:
  16              		.cfi_sections	.debug_frame
  17              		.section	.text.chMtxObjectInit,"ax",%progbits
  18              		.align	1
  19              		.p2align 4,,15
  20              		.global	chMtxObjectInit
  21              		.syntax unified
  22              		.thumb
  23              		.thumb_func
  24              		.fpu fpv4-sp-d16
  25              		.type	chMtxObjectInit, %function
  26              	chMtxObjectInit:
  27              	.LFB219:
  28              		.file 1 "../../lib/e-puck2_main-processor/ChibiOS//os/rt/src/chmtx.c"
  29              		.loc 1 103 0
  30              		.cfi_startproc
  31              		@ args = 0, pretend = 0, frame = 8
  32              		@ frame_needed = 0, uses_anonymous_args = 0
  33              	.LVL0:
  34 0000 30B5     		push	{r4, r5, lr}
  35              		.cfi_def_cfa_offset 12
  36              		.cfi_offset 4, -12
  37              		.cfi_offset 5, -8
  38              		.cfi_offset 14, -4
  39 0002 0B4D     		ldr	r5, .L8
  40 0004 83B0     		sub	sp, sp, #12
  41              		.cfi_def_cfa_offset 24
  42              		.loc 1 103 0
  43 0006 2B68     		ldr	r3, [r5]
  44 0008 0193     		str	r3, [sp, #4]
  45              		.loc 1 105 0
  46 000a 0446     		mov	r4, r0
  47 000c 50B1     		cbz	r0, .L6
  48              	.LVL1:
  49              	.L2:
  50              	.LBB81:
  51              	.LBB82:
  52              		.file 2 "../../lib/e-puck2_main-processor/ChibiOS//os/rt/include/chschd.h"
  53              		.loc 2 604 0
  54 000e 2460     		str	r4, [r4]
  55              	.LBE82:
  56              	.LBE81:
  57              		.loc 1 112 0
ARM GAS  C:\Users\mathi\AppData\Local\Temp\ccyVFtl3.s 			page 2


  58 0010 0199     		ldr	r1, [sp, #4]
  59 0012 2A68     		ldr	r2, [r5]
  60              	.LBB84:
  61              	.LBB83:
  62              		.loc 2 605 0
  63 0014 6460     		str	r4, [r4, #4]
  64              	.LVL2:
  65              	.LBE83:
  66              	.LBE84:
  67              		.loc 1 108 0
  68 0016 0023     		movs	r3, #0
  69              		.loc 1 112 0
  70 0018 9142     		cmp	r1, r2
  71              		.loc 1 108 0
  72 001a A360     		str	r3, [r4, #8]
  73              		.loc 1 110 0
  74 001c 2361     		str	r3, [r4, #16]
  75              		.loc 1 112 0
  76 001e 05D1     		bne	.L7
  77 0020 03B0     		add	sp, sp, #12
  78              		.cfi_remember_state
  79              		.cfi_def_cfa_offset 12
  80              		@ sp needed
  81 0022 30BD     		pop	{r4, r5, pc}
  82              	.LVL3:
  83              	.L6:
  84              		.cfi_restore_state
  85              		.loc 1 105 0 discriminator 2
  86 0024 0348     		ldr	r0, .L8+4
  87              	.LVL4:
  88 0026 FFF7FEFF 		bl	chSysHalt
  89              	.LVL5:
  90 002a F0E7     		b	.L2
  91              	.L7:
  92              		.loc 1 112 0
  93 002c FFF7FEFF 		bl	__stack_chk_fail
  94              	.LVL6:
  95              	.L9:
  96              		.align	2
  97              	.L8:
  98 0030 00000000 		.word	__stack_chk_guard
  99 0034 00000000 		.word	.LANCHOR0
 100              		.cfi_endproc
 101              	.LFE219:
 102              		.size	chMtxObjectInit, .-chMtxObjectInit
 103              		.section	.text.chMtxLock,"ax",%progbits
 104              		.align	1
 105              		.p2align 4,,15
 106              		.global	chMtxLock
 107              		.syntax unified
 108              		.thumb
 109              		.thumb_func
 110              		.fpu fpv4-sp-d16
 111              		.type	chMtxLock, %function
 112              	chMtxLock:
 113              	.LFB220:
 114              		.loc 1 123 0
ARM GAS  C:\Users\mathi\AppData\Local\Temp\ccyVFtl3.s 			page 3


 115              		.cfi_startproc
 116              		@ args = 0, pretend = 0, frame = 8
 117              		@ frame_needed = 0, uses_anonymous_args = 0
 118              	.LVL7:
 119 0000 2DE9F041 		push	{r4, r5, r6, r7, r8, lr}
 120              		.cfi_def_cfa_offset 24
 121              		.cfi_offset 4, -24
 122              		.cfi_offset 5, -20
 123              		.cfi_offset 6, -16
 124              		.cfi_offset 7, -12
 125              		.cfi_offset 8, -8
 126              		.cfi_offset 14, -4
 127 0004 DFF8B081 		ldr	r8, .L61+12
 128 0008 82B0     		sub	sp, sp, #8
 129              		.cfi_def_cfa_offset 32
 130              		.loc 1 123 0
 131 000a D8F80030 		ldr	r3, [r8]
 132 000e 0193     		str	r3, [sp, #4]
 133              	.LVL8:
 134 0010 0446     		mov	r4, r0
 135              	.LBB110:
 136              	.LBB111:
 137              	.LBB112:
 138              	.LBB113:
 139              	.LBB114:
 140              		.file 3 "../../lib/e-puck2_main-processor/ChibiOS//os/ext/CMSIS/include/core_cmFunc.h"
 141              		.loc 3 546 0
 142 0012 2023     		movs	r3, #32
 143              		.syntax unified
 144              	@ 546 "../../lib/e-puck2_main-processor/ChibiOS//os/ext/CMSIS/include/core_cmFunc.h" 1
 145 0014 83F31188 		MSR basepri, r3
 146              	@ 0 "" 2
 147              	.LVL9:
 148              		.thumb
 149              		.syntax unified
 150              	.LBE114:
 151              	.LBE113:
 152              	.LBE112:
 153              	.LBE111:
 154              	.LBE110:
 155              	.LBB116:
 156              	.LBB117:
 157              		.loc 1 140 0
 158 0018 644E     		ldr	r6, .L61
 159              	.LBE117:
 160              	.LBE116:
 161              	.LBB147:
 162              	.LBB115:
 163              		.file 4 "../../lib/e-puck2_main-processor/ChibiOS//os/rt/include/chsys.h"
 164              		.loc 4 349 0
 165 001a FFF7FEFF 		bl	_stats_start_measure_crit_thd
 166              	.LVL10:
 167              		.loc 4 350 0
 168 001e FFF7FEFF 		bl	_dbg_check_lock
 169              	.LVL11:
 170              	.LBE115:
 171              	.LBE147:
ARM GAS  C:\Users\mathi\AppData\Local\Temp\ccyVFtl3.s 			page 4


 172              	.LBB148:
 173              	.LBB145:
 174              		.loc 1 140 0
 175 0022 B569     		ldr	r5, [r6, #24]
 176              	.LVL12:
 177              		.loc 1 142 0
 178 0024 FFF7FEFF 		bl	chDbgCheckClassS
 179              	.LVL13:
 180              		.loc 1 143 0
 181 0028 002C     		cmp	r4, #0
 182 002a 00F09580 		beq	.L46
 183              	.L11:
 184              		.loc 1 146 0
 185 002e A068     		ldr	r0, [r4, #8]
 186 0030 2369     		ldr	r3, [r4, #16]
 187 0032 0028     		cmp	r0, #0
 188 0034 54D0     		beq	.L12
 189              		.loc 1 149 0
 190 0036 002B     		cmp	r3, #0
 191 0038 40F3A880 		ble	.L47
 192              	.L13:
 193              		.loc 1 153 0
 194 003c 8542     		cmp	r5, r0
 195 003e 00F08780 		beq	.L48
 196              	.LVL14:
 197              	.LBB118:
 198              		.loc 1 165 0
 199 0042 AA68     		ldr	r2, [r5, #8]
 200 0044 8368     		ldr	r3, [r0, #8]
 201 0046 9342     		cmp	r3, r2
 202 0048 09D2     		bcs	.L16
 203              	.LVL15:
 204              		.loc 1 170 0
 205 004a 90F82030 		ldrb	r3, [r0, #32]	@ zero_extendqisi2
 206              		.loc 1 167 0
 207 004e 8260     		str	r2, [r0, #8]
 208              		.loc 1 170 0
 209 0050 062B     		cmp	r3, #6
 210 0052 50D0     		beq	.L17
 211              	.L58:
 212 0054 072B     		cmp	r3, #7
 213 0056 00F08380 		beq	.L18
 214 005a 002B     		cmp	r3, #0
 215 005c 6CD0     		beq	.L49
 216              	.LVL16:
 217              	.L16:
 218              		.loc 1 212 0
 219 005e 2246     		mov	r2, r4
 220              	.LVL17:
 221 0060 2346     		mov	r3, r4
 222 0062 03E0     		b	.L27
 223              	.LVL18:
 224              	.L51:
 225              	.LBB119:
 226              	.LBB120:
 227              		.loc 2 656 0
 228 0064 9968     		ldr	r1, [r3, #8]
ARM GAS  C:\Users\mathi\AppData\Local\Temp\ccyVFtl3.s 			page 5


 229 0066 A868     		ldr	r0, [r5, #8]
 230 0068 8142     		cmp	r1, r0
 231 006a 42D3     		bcc	.L50
 232              	.L27:
 233              		.loc 2 655 0
 234 006c 1B68     		ldr	r3, [r3]
 235              	.LVL19:
 236              		.loc 2 656 0
 237 006e 9C42     		cmp	r4, r3
 238 0070 F8D1     		bne	.L51
 239              	.LVL20:
 240              	.L26:
 241              		.loc 2 657 0
 242 0072 2A60     		str	r2, [r5]
 243              		.loc 2 658 0
 244 0074 5368     		ldr	r3, [r2, #4]
 245              	.LVL21:
 246 0076 6B60     		str	r3, [r5, #4]
 247              	.LBE120:
 248              	.LBE119:
 249              		.loc 1 214 0
 250 0078 0620     		movs	r0, #6
 251              	.LBB123:
 252              	.LBB121:
 253              		.loc 2 659 0
 254 007a 1D60     		str	r5, [r3]
 255              		.loc 2 660 0
 256 007c 5560     		str	r5, [r2, #4]
 257              	.LVL22:
 258              	.LBE121:
 259              	.LBE123:
 260              		.loc 1 213 0
 261 007e AC62     		str	r4, [r5, #40]
 262              		.loc 1 214 0
 263 0080 FFF7FEFF 		bl	chSchGoSleepS
 264              	.LVL23:
 265              		.loc 1 218 0
 266 0084 A368     		ldr	r3, [r4, #8]
 267 0086 9D42     		cmp	r5, r3
 268 0088 02D0     		beq	.L28
 269 008a 4948     		ldr	r0, .L61+4
 270 008c FFF7FEFF 		bl	chSysHalt
 271              	.LVL24:
 272              	.L28:
 273              		.loc 1 219 0
 274 0090 2B6C     		ldr	r3, [r5, #64]
 275 0092 9C42     		cmp	r4, r3
 276 0094 02D0     		beq	.L29
 277 0096 4648     		ldr	r0, .L61+4
 278 0098 FFF7FEFF 		bl	chSysHalt
 279              	.LVL25:
 280              	.L29:
 281              		.loc 1 221 0
 282 009c 2369     		ldr	r3, [r4, #16]
 283 009e 012B     		cmp	r3, #1
 284 00a0 1AD1     		bne	.L52
 285              	.L15:
ARM GAS  C:\Users\mathi\AppData\Local\Temp\ccyVFtl3.s 			page 6


 286              	.LVL26:
 287              	.LBE118:
 288              	.LBE145:
 289              	.LBE148:
 290              	.LBB149:
 291              	.LBB150:
 292              		.loc 4 360 0
 293 00a2 FFF7FEFF 		bl	_dbg_check_unlock
 294              	.LVL27:
 295              		.loc 4 361 0
 296 00a6 FFF7FEFF 		bl	_stats_stop_measure_crit_thd
 297              	.LVL28:
 298              		.loc 4 367 0
 299 00aa 3368     		ldr	r3, [r6]
 300 00ac B342     		cmp	r3, r6
 301 00ae 04D0     		beq	.L31
 302 00b0 B269     		ldr	r2, [r6, #24]
 303 00b2 9B68     		ldr	r3, [r3, #8]
 304 00b4 9268     		ldr	r2, [r2, #8]
 305 00b6 9A42     		cmp	r2, r3
 306 00b8 0AD3     		bcc	.L53
 307              	.L31:
 308              	.LVL29:
 309              	.LBB151:
 310              	.LBB152:
 311              	.LBB153:
 312              		.loc 3 546 0
 313 00ba 0023     		movs	r3, #0
 314              		.syntax unified
 315              	@ 546 "../../lib/e-puck2_main-processor/ChibiOS//os/ext/CMSIS/include/core_cmFunc.h" 1
 316 00bc 83F31188 		MSR basepri, r3
 317              	@ 0 "" 2
 318              	.LVL30:
 319              		.thumb
 320              		.syntax unified
 321              	.LBE153:
 322              	.LBE152:
 323              	.LBE151:
 324              	.LBE150:
 325              	.LBE149:
 326              		.loc 1 128 0
 327 00c0 019A     		ldr	r2, [sp, #4]
 328 00c2 D8F80030 		ldr	r3, [r8]
 329 00c6 9A42     		cmp	r2, r3
 330 00c8 6ED1     		bne	.L54
 331 00ca 02B0     		add	sp, sp, #8
 332              		.cfi_remember_state
 333              		.cfi_def_cfa_offset 24
 334              		@ sp needed
 335 00cc BDE8F081 		pop	{r4, r5, r6, r7, r8, pc}
 336              	.LVL31:
 337              	.L53:
 338              		.cfi_restore_state
 339              	.LBB155:
 340              	.LBB154:
 341              		.loc 4 367 0
 342 00d0 3848     		ldr	r0, .L61+8
ARM GAS  C:\Users\mathi\AppData\Local\Temp\ccyVFtl3.s 			page 7


 343 00d2 FFF7FEFF 		bl	chSysHalt
 344              	.LVL32:
 345 00d6 F0E7     		b	.L31
 346              	.LVL33:
 347              	.L52:
 348              	.LBE154:
 349              	.LBE155:
 350              	.LBB156:
 351              	.LBB146:
 352              	.LBB141:
 353              		.loc 1 221 0
 354 00d8 3548     		ldr	r0, .L61+4
 355 00da FFF7FEFF 		bl	chSysHalt
 356              	.LVL34:
 357 00de E0E7     		b	.L15
 358              	.L12:
 359              	.LBE141:
 360              		.loc 1 227 0
 361 00e0 002B     		cmp	r3, #0
 362 00e2 58D1     		bne	.L55
 363              	.L30:
 364              		.loc 1 229 0
 365 00e4 0133     		adds	r3, r3, #1
 366              		.loc 1 232 0
 367 00e6 A560     		str	r5, [r4, #8]
 368              		.loc 1 229 0
 369 00e8 2361     		str	r3, [r4, #16]
 370              		.loc 1 233 0
 371 00ea 2B6C     		ldr	r3, [r5, #64]
 372 00ec E360     		str	r3, [r4, #12]
 373              		.loc 1 234 0
 374 00ee 2C64     		str	r4, [r5, #64]
 375 00f0 D7E7     		b	.L15
 376              	.LVL35:
 377              	.L50:
 378              	.LBB142:
 379              	.LBB124:
 380              	.LBB122:
 381              		.loc 2 655 0
 382 00f2 1A46     		mov	r2, r3
 383              	.LVL36:
 384 00f4 BDE7     		b	.L26
 385              	.LVL37:
 386              	.L17:
 387              	.LBE122:
 388              	.LBE124:
 389              	.LBB125:
 390              	.LBB126:
 391              		.loc 2 691 0
 392 00f6 D0E90023 		ldrd	r2, r3, [r0]
 393 00fa 1A60     		str	r2, [r3]
 394              		.loc 2 692 0
 395 00fc D0E90032 		ldrd	r3, r2, [r0]
 396 0100 5A60     		str	r2, [r3, #4]
 397              	.LVL38:
 398              	.LBE126:
 399              	.LBE125:
ARM GAS  C:\Users\mathi\AppData\Local\Temp\ccyVFtl3.s 			page 8


 400              		.loc 1 173 0
 401 0102 826A     		ldr	r2, [r0, #40]
 402              	.LVL39:
 403 0104 1346     		mov	r3, r2
 404 0106 03E0     		b	.L21
 405              	.LVL40:
 406              	.L57:
 407              	.LBB127:
 408              	.LBB128:
 409              		.loc 2 656 0
 410 0108 9968     		ldr	r1, [r3, #8]
 411 010a 8768     		ldr	r7, [r0, #8]
 412 010c B942     		cmp	r1, r7
 413 010e 47D3     		bcc	.L56
 414              	.LVL41:
 415              	.L21:
 416              		.loc 2 655 0
 417 0110 1B68     		ldr	r3, [r3]
 418              	.LVL42:
 419              		.loc 2 656 0
 420 0112 9A42     		cmp	r2, r3
 421 0114 F8D1     		bne	.L57
 422              	.LVL43:
 423              	.L20:
 424              		.loc 2 657 0
 425 0116 0260     		str	r2, [r0]
 426              		.loc 2 658 0
 427 0118 5368     		ldr	r3, [r2, #4]
 428              	.LVL44:
 429 011a 4360     		str	r3, [r0, #4]
 430              		.loc 2 659 0
 431 011c 1860     		str	r0, [r3]
 432              	.LVL45:
 433              		.loc 2 660 0
 434 011e 5060     		str	r0, [r2, #4]
 435              	.LBE128:
 436              	.LBE127:
 437              		.loc 1 174 0
 438 0120 836A     		ldr	r3, [r0, #40]
 439              		.loc 1 165 0
 440 0122 AA68     		ldr	r2, [r5, #8]
 441              		.loc 1 174 0
 442 0124 9868     		ldr	r0, [r3, #8]
 443              	.LVL46:
 444              		.loc 1 165 0
 445 0126 8368     		ldr	r3, [r0, #8]
 446 0128 9A42     		cmp	r2, r3
 447 012a 98D9     		bls	.L16
 448              		.loc 1 170 0
 449 012c 90F82030 		ldrb	r3, [r0, #32]	@ zero_extendqisi2
 450              		.loc 1 167 0
 451 0130 8260     		str	r2, [r0, #8]
 452              		.loc 1 170 0
 453 0132 062B     		cmp	r3, #6
 454 0134 8ED1     		bne	.L58
 455 0136 DEE7     		b	.L17
 456              	.L49:
ARM GAS  C:\Users\mathi\AppData\Local\Temp\ccyVFtl3.s 			page 9


 457              	.LBB130:
 458              	.LBB131:
 459              		.loc 2 691 0
 460 0138 D0E90023 		ldrd	r2, r3, [r0]
 461              	.LBE131:
 462              	.LBE130:
 463              		.loc 1 199 0
 464 013c 0121     		movs	r1, #1
 465 013e 80F82010 		strb	r1, [r0, #32]
 466              	.LVL47:
 467              	.LBB133:
 468              	.LBB132:
 469              		.loc 2 691 0
 470 0142 1A60     		str	r2, [r3]
 471              		.loc 2 692 0
 472 0144 D0E90032 		ldrd	r3, r2, [r0]
 473 0148 5A60     		str	r2, [r3, #4]
 474              	.LVL48:
 475              	.LBE132:
 476              	.LBE133:
 477              		.loc 1 202 0
 478 014a FFF7FEFF 		bl	chSchReadyI
 479              	.LVL49:
 480 014e 86E7     		b	.L16
 481              	.L48:
 482              	.LBE142:
 483              		.loc 1 154 0
 484 0150 2369     		ldr	r3, [r4, #16]
 485 0152 0133     		adds	r3, r3, #1
 486 0154 2361     		str	r3, [r4, #16]
 487 0156 A4E7     		b	.L15
 488              	.L46:
 489              		.loc 1 143 0
 490 0158 1548     		ldr	r0, .L61+4
 491 015a FFF7FEFF 		bl	chSysHalt
 492              	.LVL50:
 493 015e 66E7     		b	.L11
 494              	.LVL51:
 495              	.L18:
 496              	.LBB143:
 497              	.LBB134:
 498              	.LBB135:
 499              		.loc 2 691 0
 500 0160 D0E90023 		ldrd	r2, r3, [r0]
 501 0164 1A60     		str	r2, [r3]
 502              		.loc 2 692 0
 503 0166 D0E90032 		ldrd	r3, r2, [r0]
 504 016a 5A60     		str	r2, [r3, #4]
 505              	.LVL52:
 506              	.LBE135:
 507              	.LBE134:
 508              		.loc 1 193 0
 509 016c 826A     		ldr	r2, [r0, #40]
 510              	.LVL53:
 511 016e 1346     		mov	r3, r2
 512 0170 03E0     		b	.L24
 513              	.LVL54:
ARM GAS  C:\Users\mathi\AppData\Local\Temp\ccyVFtl3.s 			page 10


 514              	.L60:
 515              	.LBB136:
 516              	.LBB137:
 517              		.loc 2 656 0
 518 0172 9968     		ldr	r1, [r3, #8]
 519 0174 8768     		ldr	r7, [r0, #8]
 520 0176 B942     		cmp	r1, r7
 521 0178 14D3     		bcc	.L59
 522              	.LVL55:
 523              	.L24:
 524              		.loc 2 655 0
 525 017a 1B68     		ldr	r3, [r3]
 526              	.LVL56:
 527              		.loc 2 656 0
 528 017c 9A42     		cmp	r2, r3
 529 017e F8D1     		bne	.L60
 530              	.LVL57:
 531              	.L23:
 532              		.loc 2 657 0
 533 0180 0260     		str	r2, [r0]
 534              		.loc 2 658 0
 535 0182 5368     		ldr	r3, [r2, #4]
 536              	.LVL58:
 537 0184 4360     		str	r3, [r0, #4]
 538              		.loc 2 659 0
 539 0186 1860     		str	r0, [r3]
 540              	.LVL59:
 541              		.loc 2 660 0
 542 0188 5060     		str	r0, [r2, #4]
 543 018a 68E7     		b	.L16
 544              	.LVL60:
 545              	.L47:
 546              	.LBE137:
 547              	.LBE136:
 548              	.LBE143:
 549              		.loc 1 149 0
 550 018c 0848     		ldr	r0, .L61+4
 551 018e FFF7FEFF 		bl	chSysHalt
 552              	.LVL61:
 553 0192 A068     		ldr	r0, [r4, #8]
 554 0194 52E7     		b	.L13
 555              	.L55:
 556              		.loc 1 227 0
 557 0196 0648     		ldr	r0, .L61+4
 558 0198 FFF7FEFF 		bl	chSysHalt
 559              	.LVL62:
 560 019c 2369     		ldr	r3, [r4, #16]
 561 019e A1E7     		b	.L30
 562              	.LVL63:
 563              	.L56:
 564              	.LBB144:
 565              	.LBB139:
 566              	.LBB129:
 567              		.loc 2 655 0
 568 01a0 1A46     		mov	r2, r3
 569              	.LVL64:
 570 01a2 B8E7     		b	.L20
ARM GAS  C:\Users\mathi\AppData\Local\Temp\ccyVFtl3.s 			page 11


 571              	.LVL65:
 572              	.L59:
 573              	.LBE129:
 574              	.LBE139:
 575              	.LBB140:
 576              	.LBB138:
 577 01a4 1A46     		mov	r2, r3
 578              	.LVL66:
 579 01a6 EBE7     		b	.L23
 580              	.LVL67:
 581              	.L54:
 582              	.LBE138:
 583              	.LBE140:
 584              	.LBE144:
 585              	.LBE146:
 586              	.LBE156:
 587              		.loc 1 128 0
 588 01a8 FFF7FEFF 		bl	__stack_chk_fail
 589              	.LVL68:
 590              	.L62:
 591              		.align	2
 592              	.L61:
 593 01ac 00000000 		.word	ch
 594 01b0 00000000 		.word	.LANCHOR1
 595 01b4 00000000 		.word	.LANCHOR2
 596 01b8 00000000 		.word	__stack_chk_guard
 597              		.cfi_endproc
 598              	.LFE220:
 599              		.size	chMtxLock, .-chMtxLock
 600              		.section	.text.chMtxLockS,"ax",%progbits
 601              		.align	1
 602              		.p2align 4,,15
 603              		.global	chMtxLockS
 604              		.syntax unified
 605              		.thumb
 606              		.thumb_func
 607              		.fpu fpv4-sp-d16
 608              		.type	chMtxLockS, %function
 609              	chMtxLockS:
 610              	.LFB221:
 611              		.loc 1 139 0
 612              		.cfi_startproc
 613              		@ args = 0, pretend = 0, frame = 8
 614              		@ frame_needed = 0, uses_anonymous_args = 0
 615              	.LVL69:
 616 0000 F0B5     		push	{r4, r5, r6, r7, lr}
 617              		.cfi_def_cfa_offset 20
 618              		.cfi_offset 4, -20
 619              		.cfi_offset 5, -16
 620              		.cfi_offset 6, -12
 621              		.cfi_offset 7, -8
 622              		.cfi_offset 14, -4
 623 0002 5D4E     		ldr	r6, .L113
 624              		.loc 1 140 0
 625 0004 5D4B     		ldr	r3, .L113+4
 626              		.loc 1 139 0
 627 0006 3268     		ldr	r2, [r6]
ARM GAS  C:\Users\mathi\AppData\Local\Temp\ccyVFtl3.s 			page 12


 628              		.loc 1 140 0
 629 0008 9D69     		ldr	r5, [r3, #24]
 630              	.LVL70:
 631              		.loc 1 139 0
 632 000a 83B0     		sub	sp, sp, #12
 633              		.cfi_def_cfa_offset 32
 634              		.loc 1 139 0
 635 000c 0446     		mov	r4, r0
 636 000e 0192     		str	r2, [sp, #4]
 637              		.loc 1 142 0
 638 0010 FFF7FEFF 		bl	chDbgCheckClassS
 639              	.LVL71:
 640              		.loc 1 143 0
 641 0014 002C     		cmp	r4, #0
 642 0016 00F08480 		beq	.L100
 643              	.L64:
 644              		.loc 1 146 0
 645 001a A068     		ldr	r0, [r4, #8]
 646 001c 2369     		ldr	r3, [r4, #16]
 647 001e 0028     		cmp	r0, #0
 648 0020 43D0     		beq	.L65
 649              		.loc 1 149 0 discriminator 1
 650 0022 002B     		cmp	r3, #0
 651 0024 40F39780 		ble	.L101
 652              	.L66:
 653              		.loc 1 153 0
 654 0028 8542     		cmp	r5, r0
 655 002a 76D0     		beq	.L102
 656              	.LVL72:
 657              	.LBB157:
 658              		.loc 1 165 0
 659 002c AA68     		ldr	r2, [r5, #8]
 660 002e 8368     		ldr	r3, [r0, #8]
 661 0030 9A42     		cmp	r2, r3
 662 0032 08D9     		bls	.L69
 663              	.LVL73:
 664              		.loc 1 170 0
 665 0034 90F82030 		ldrb	r3, [r0, #32]	@ zero_extendqisi2
 666              		.loc 1 167 0
 667 0038 8260     		str	r2, [r0, #8]
 668              		.loc 1 170 0
 669 003a 062B     		cmp	r3, #6
 670 003c 40D0     		beq	.L70
 671              	.L110:
 672 003e 072B     		cmp	r3, #7
 673 0040 73D0     		beq	.L71
 674 0042 002B     		cmp	r3, #0
 675 0044 5DD0     		beq	.L103
 676              	.LVL74:
 677              	.L69:
 678              		.loc 1 212 0
 679 0046 2746     		mov	r7, r4
 680              	.LVL75:
 681 0048 2346     		mov	r3, r4
 682 004a 03E0     		b	.L80
 683              	.LVL76:
 684              	.L105:
ARM GAS  C:\Users\mathi\AppData\Local\Temp\ccyVFtl3.s 			page 13


 685              	.LBB158:
 686              	.LBB159:
 687              		.loc 2 656 0
 688 004c 9968     		ldr	r1, [r3, #8]
 689 004e AA68     		ldr	r2, [r5, #8]
 690 0050 9142     		cmp	r1, r2
 691 0052 33D3     		bcc	.L104
 692              	.L80:
 693              		.loc 2 655 0
 694 0054 1B68     		ldr	r3, [r3]
 695              	.LVL77:
 696              		.loc 2 656 0
 697 0056 9C42     		cmp	r4, r3
 698 0058 F8D1     		bne	.L105
 699              	.L79:
 700              		.loc 2 657 0
 701 005a 2F60     		str	r7, [r5]
 702              		.loc 2 658 0
 703 005c 7B68     		ldr	r3, [r7, #4]
 704              	.LVL78:
 705 005e 6B60     		str	r3, [r5, #4]
 706              	.LBE159:
 707              	.LBE158:
 708              		.loc 1 214 0
 709 0060 0620     		movs	r0, #6
 710              	.LBB162:
 711              	.LBB160:
 712              		.loc 2 659 0
 713 0062 1D60     		str	r5, [r3]
 714              		.loc 2 660 0
 715 0064 7D60     		str	r5, [r7, #4]
 716              	.LVL79:
 717              	.LBE160:
 718              	.LBE162:
 719              		.loc 1 213 0
 720 0066 AC62     		str	r4, [r5, #40]
 721              		.loc 1 214 0
 722 0068 FFF7FEFF 		bl	chSchGoSleepS
 723              	.LVL80:
 724              		.loc 1 218 0
 725 006c A368     		ldr	r3, [r4, #8]
 726 006e AB42     		cmp	r3, r5
 727 0070 02D0     		beq	.L81
 728              		.loc 1 218 0 is_stmt 0 discriminator 2
 729 0072 4348     		ldr	r0, .L113+8
 730 0074 FFF7FEFF 		bl	chSysHalt
 731              	.LVL81:
 732              	.L81:
 733              		.loc 1 219 0 is_stmt 1 discriminator 1
 734 0078 2B6C     		ldr	r3, [r5, #64]
 735 007a A342     		cmp	r3, r4
 736 007c 02D0     		beq	.L82
 737              		.loc 1 219 0 is_stmt 0 discriminator 2
 738 007e 4048     		ldr	r0, .L113+8
 739 0080 FFF7FEFF 		bl	chSysHalt
 740              	.LVL82:
 741              	.L82:
ARM GAS  C:\Users\mathi\AppData\Local\Temp\ccyVFtl3.s 			page 14


 742              		.loc 1 221 0 is_stmt 1 discriminator 1
 743 0084 2369     		ldr	r3, [r4, #16]
 744 0086 012B     		cmp	r3, #1
 745 0088 05D1     		bne	.L106
 746              	.L63:
 747              	.LBE157:
 748              		.loc 1 236 0
 749 008a 019A     		ldr	r2, [sp, #4]
 750 008c 3368     		ldr	r3, [r6]
 751 008e 9A42     		cmp	r2, r3
 752 0090 6FD1     		bne	.L98
 753 0092 03B0     		add	sp, sp, #12
 754              		.cfi_remember_state
 755              		.cfi_def_cfa_offset 20
 756              		@ sp needed
 757 0094 F0BD     		pop	{r4, r5, r6, r7, pc}
 758              	.LVL83:
 759              	.L106:
 760              		.cfi_restore_state
 761              	.LBB180:
 762              		.loc 1 221 0 discriminator 2
 763 0096 019A     		ldr	r2, [sp, #4]
 764 0098 3368     		ldr	r3, [r6]
 765 009a 9A42     		cmp	r2, r3
 766 009c 69D1     		bne	.L98
 767 009e 3848     		ldr	r0, .L113+8
 768              	.LBE180:
 769              		.loc 1 236 0 discriminator 2
 770 00a0 03B0     		add	sp, sp, #12
 771              		.cfi_remember_state
 772              		.cfi_def_cfa_offset 20
 773              		@ sp needed
 774 00a2 BDE8F040 		pop	{r4, r5, r6, r7, lr}
 775              		.cfi_restore 14
 776              		.cfi_restore 7
 777              		.cfi_restore 6
 778              		.cfi_restore 5
 779              		.cfi_restore 4
 780              		.cfi_def_cfa_offset 0
 781              	.LVL84:
 782              	.LBB181:
 783              		.loc 1 221 0 discriminator 2
 784 00a6 FFF7FEBF 		b	chSysHalt
 785              	.LVL85:
 786              	.L65:
 787              		.cfi_restore_state
 788              	.LBE181:
 789              		.loc 1 227 0 discriminator 1
 790 00aa 002B     		cmp	r3, #0
 791 00ac 58D1     		bne	.L107
 792              	.L84:
 793              		.loc 1 229 0
 794 00ae 0133     		adds	r3, r3, #1
 795              		.loc 1 232 0
 796 00b0 A560     		str	r5, [r4, #8]
 797              		.loc 1 229 0
 798 00b2 2361     		str	r3, [r4, #16]
ARM GAS  C:\Users\mathi\AppData\Local\Temp\ccyVFtl3.s 			page 15


 799              		.loc 1 233 0
 800 00b4 2B6C     		ldr	r3, [r5, #64]
 801 00b6 E360     		str	r3, [r4, #12]
 802              		.loc 1 234 0
 803 00b8 2C64     		str	r4, [r5, #64]
 804              		.loc 1 236 0
 805 00ba E6E7     		b	.L63
 806              	.LVL86:
 807              	.L104:
 808              	.LBB182:
 809              	.LBB163:
 810              	.LBB161:
 811              		.loc 2 655 0
 812 00bc 1F46     		mov	r7, r3
 813 00be CCE7     		b	.L79
 814              	.LVL87:
 815              	.L70:
 816              	.LBE161:
 817              	.LBE163:
 818              	.LBB164:
 819              	.LBB165:
 820              		.loc 2 691 0
 821 00c0 D0E90023 		ldrd	r2, r3, [r0]
 822 00c4 1A60     		str	r2, [r3]
 823              		.loc 2 692 0
 824 00c6 D0E90032 		ldrd	r3, r2, [r0]
 825 00ca 5A60     		str	r2, [r3, #4]
 826              	.LVL88:
 827              	.LBE165:
 828              	.LBE164:
 829              		.loc 1 173 0
 830 00cc 876A     		ldr	r7, [r0, #40]
 831              	.LVL89:
 832 00ce 3B46     		mov	r3, r7
 833 00d0 03E0     		b	.L74
 834              	.LVL90:
 835              	.L109:
 836              	.LBB166:
 837              	.LBB167:
 838              		.loc 2 656 0
 839 00d2 9968     		ldr	r1, [r3, #8]
 840 00d4 8268     		ldr	r2, [r0, #8]
 841 00d6 9142     		cmp	r1, r2
 842 00d8 47D3     		bcc	.L108
 843              	.LVL91:
 844              	.L74:
 845              		.loc 2 655 0
 846 00da 1B68     		ldr	r3, [r3]
 847              	.LVL92:
 848              		.loc 2 656 0
 849 00dc 9F42     		cmp	r7, r3
 850 00de F8D1     		bne	.L109
 851              	.LVL93:
 852              	.L73:
 853              		.loc 2 657 0
 854 00e0 0760     		str	r7, [r0]
 855              		.loc 2 658 0
ARM GAS  C:\Users\mathi\AppData\Local\Temp\ccyVFtl3.s 			page 16


 856 00e2 7B68     		ldr	r3, [r7, #4]
 857              	.LVL94:
 858 00e4 4360     		str	r3, [r0, #4]
 859              		.loc 2 659 0
 860 00e6 1860     		str	r0, [r3]
 861              	.LVL95:
 862              		.loc 2 660 0
 863 00e8 7860     		str	r0, [r7, #4]
 864              	.LBE167:
 865              	.LBE166:
 866              		.loc 1 174 0
 867 00ea 836A     		ldr	r3, [r0, #40]
 868              		.loc 1 165 0
 869 00ec AA68     		ldr	r2, [r5, #8]
 870              		.loc 1 174 0
 871 00ee 9868     		ldr	r0, [r3, #8]
 872              	.LVL96:
 873              		.loc 1 165 0
 874 00f0 8368     		ldr	r3, [r0, #8]
 875 00f2 9342     		cmp	r3, r2
 876 00f4 A7D2     		bcs	.L69
 877              		.loc 1 170 0
 878 00f6 90F82030 		ldrb	r3, [r0, #32]	@ zero_extendqisi2
 879              		.loc 1 167 0
 880 00fa 8260     		str	r2, [r0, #8]
 881              		.loc 1 170 0
 882 00fc 062B     		cmp	r3, #6
 883 00fe 9ED1     		bne	.L110
 884 0100 DEE7     		b	.L70
 885              	.L103:
 886              	.LBB169:
 887              	.LBB170:
 888              		.loc 2 691 0
 889 0102 D0E90023 		ldrd	r2, r3, [r0]
 890              	.LBE170:
 891              	.LBE169:
 892              		.loc 1 199 0
 893 0106 0121     		movs	r1, #1
 894 0108 80F82010 		strb	r1, [r0, #32]
 895              	.LVL97:
 896              	.LBB172:
 897              	.LBB171:
 898              		.loc 2 691 0
 899 010c 1A60     		str	r2, [r3]
 900              		.loc 2 692 0
 901 010e D0E90032 		ldrd	r3, r2, [r0]
 902 0112 5A60     		str	r2, [r3, #4]
 903              	.LVL98:
 904              	.LBE171:
 905              	.LBE172:
 906              		.loc 1 202 0
 907 0114 FFF7FEFF 		bl	chSchReadyI
 908              	.LVL99:
 909              		.loc 1 203 0
 910 0118 95E7     		b	.L69
 911              	.L102:
 912              	.LBE182:
ARM GAS  C:\Users\mathi\AppData\Local\Temp\ccyVFtl3.s 			page 17


 913              		.loc 1 154 0
 914 011a 2369     		ldr	r3, [r4, #16]
 915 011c 0133     		adds	r3, r3, #1
 916 011e 2361     		str	r3, [r4, #16]
 917 0120 B3E7     		b	.L63
 918              	.L100:
 919              		.loc 1 143 0 discriminator 2
 920 0122 1748     		ldr	r0, .L113+8
 921 0124 FFF7FEFF 		bl	chSysHalt
 922              	.LVL100:
 923 0128 77E7     		b	.L64
 924              	.LVL101:
 925              	.L71:
 926              	.LBB183:
 927              	.LBB173:
 928              	.LBB174:
 929              		.loc 2 691 0
 930 012a D0E90023 		ldrd	r2, r3, [r0]
 931 012e 1A60     		str	r2, [r3]
 932              		.loc 2 692 0
 933 0130 D0E90032 		ldrd	r3, r2, [r0]
 934 0134 5A60     		str	r2, [r3, #4]
 935              	.LVL102:
 936              	.LBE174:
 937              	.LBE173:
 938              		.loc 1 193 0
 939 0136 876A     		ldr	r7, [r0, #40]
 940              	.LVL103:
 941 0138 3B46     		mov	r3, r7
 942 013a 03E0     		b	.L77
 943              	.LVL104:
 944              	.L112:
 945              	.LBB175:
 946              	.LBB176:
 947              		.loc 2 656 0
 948 013c 9968     		ldr	r1, [r3, #8]
 949 013e 8268     		ldr	r2, [r0, #8]
 950 0140 9142     		cmp	r1, r2
 951 0142 14D3     		bcc	.L111
 952              	.LVL105:
 953              	.L77:
 954              		.loc 2 655 0
 955 0144 1B68     		ldr	r3, [r3]
 956              	.LVL106:
 957              		.loc 2 656 0
 958 0146 9F42     		cmp	r7, r3
 959 0148 F8D1     		bne	.L112
 960              	.LVL107:
 961              	.L76:
 962              		.loc 2 657 0
 963 014a 0760     		str	r7, [r0]
 964              		.loc 2 658 0
 965 014c 7B68     		ldr	r3, [r7, #4]
 966              	.LVL108:
 967 014e 4360     		str	r3, [r0, #4]
 968              		.loc 2 659 0
 969 0150 1860     		str	r0, [r3]
ARM GAS  C:\Users\mathi\AppData\Local\Temp\ccyVFtl3.s 			page 18


 970              	.LVL109:
 971              		.loc 2 660 0
 972 0152 7860     		str	r0, [r7, #4]
 973 0154 77E7     		b	.L69
 974              	.LVL110:
 975              	.L101:
 976              	.LBE176:
 977              	.LBE175:
 978              	.LBE183:
 979              		.loc 1 149 0 discriminator 2
 980 0156 0A48     		ldr	r0, .L113+8
 981 0158 FFF7FEFF 		bl	chSysHalt
 982              	.LVL111:
 983 015c A068     		ldr	r0, [r4, #8]
 984 015e 63E7     		b	.L66
 985              	.L107:
 986              		.loc 1 227 0 discriminator 2
 987 0160 0748     		ldr	r0, .L113+8
 988 0162 FFF7FEFF 		bl	chSysHalt
 989              	.LVL112:
 990 0166 2369     		ldr	r3, [r4, #16]
 991 0168 A1E7     		b	.L84
 992              	.LVL113:
 993              	.L108:
 994              	.LBB184:
 995              	.LBB178:
 996              	.LBB168:
 997              		.loc 2 655 0
 998 016a 1F46     		mov	r7, r3
 999              	.LVL114:
 1000 016c B8E7     		b	.L73
 1001              	.LVL115:
 1002              	.L111:
 1003              	.LBE168:
 1004              	.LBE178:
 1005              	.LBB179:
 1006              	.LBB177:
 1007 016e 1F46     		mov	r7, r3
 1008              	.LVL116:
 1009 0170 EBE7     		b	.L76
 1010              	.LVL117:
 1011              	.L98:
 1012              	.LBE177:
 1013              	.LBE179:
 1014              	.LBE184:
 1015              		.loc 1 236 0
 1016 0172 FFF7FEFF 		bl	__stack_chk_fail
 1017              	.LVL118:
 1018              	.L114:
 1019 0176 00BF     		.align	2
 1020              	.L113:
 1021 0178 00000000 		.word	__stack_chk_guard
 1022 017c 00000000 		.word	ch
 1023 0180 00000000 		.word	.LANCHOR1
 1024              		.cfi_endproc
 1025              	.LFE221:
 1026              		.size	chMtxLockS, .-chMtxLockS
ARM GAS  C:\Users\mathi\AppData\Local\Temp\ccyVFtl3.s 			page 19


 1027              		.section	.text.chMtxTryLock,"ax",%progbits
 1028              		.align	1
 1029              		.p2align 4,,15
 1030              		.global	chMtxTryLock
 1031              		.syntax unified
 1032              		.thumb
 1033              		.thumb_func
 1034              		.fpu fpv4-sp-d16
 1035              		.type	chMtxTryLock, %function
 1036              	chMtxTryLock:
 1037              	.LFB222:
 1038              		.loc 1 255 0
 1039              		.cfi_startproc
 1040              		@ args = 0, pretend = 0, frame = 8
 1041              		@ frame_needed = 0, uses_anonymous_args = 0
 1042              	.LVL119:
 1043 0000 F0B5     		push	{r4, r5, r6, r7, lr}
 1044              		.cfi_def_cfa_offset 20
 1045              		.cfi_offset 4, -20
 1046              		.cfi_offset 5, -16
 1047              		.cfi_offset 6, -12
 1048              		.cfi_offset 7, -8
 1049              		.cfi_offset 14, -4
 1050 0002 2A4E     		ldr	r6, .L133
 1051 0004 83B0     		sub	sp, sp, #12
 1052              		.cfi_def_cfa_offset 32
 1053              		.loc 1 255 0
 1054 0006 3368     		ldr	r3, [r6]
 1055 0008 0193     		str	r3, [sp, #4]
 1056              	.LVL120:
 1057 000a 0446     		mov	r4, r0
 1058              	.LBB199:
 1059              	.LBB200:
 1060              	.LBB201:
 1061              	.LBB202:
 1062              	.LBB203:
 1063              		.loc 3 546 0
 1064 000c 2023     		movs	r3, #32
 1065              		.syntax unified
 1066              	@ 546 "../../lib/e-puck2_main-processor/ChibiOS//os/ext/CMSIS/include/core_cmFunc.h" 1
 1067 000e 83F31188 		MSR basepri, r3
 1068              	@ 0 "" 2
 1069              	.LVL121:
 1070              		.thumb
 1071              		.syntax unified
 1072              	.LBE203:
 1073              	.LBE202:
 1074              	.LBE201:
 1075              		.loc 4 349 0
 1076 0012 FFF7FEFF 		bl	_stats_start_measure_crit_thd
 1077              	.LVL122:
 1078              		.loc 4 350 0
 1079 0016 FFF7FEFF 		bl	_dbg_check_lock
 1080              	.LVL123:
 1081              	.LBE200:
 1082              	.LBE199:
 1083              	.LBB204:
ARM GAS  C:\Users\mathi\AppData\Local\Temp\ccyVFtl3.s 			page 20


 1084              	.LBB205:
 1085              		.loc 1 284 0
 1086 001a FFF7FEFF 		bl	chDbgCheckClassS
 1087              	.LVL124:
 1088              		.loc 1 285 0
 1089 001e 002C     		cmp	r4, #0
 1090 0020 34D0     		beq	.L128
 1091              	.L116:
 1092              		.loc 1 287 0
 1093 0022 A268     		ldr	r2, [r4, #8]
 1094 0024 2369     		ldr	r3, [r4, #16]
 1095 0026 22B3     		cbz	r2, .L117
 1096              		.loc 1 290 0
 1097 0028 002B     		cmp	r3, #0
 1098 002a 33DD     		ble	.L129
 1099              	.L118:
 1100              		.loc 1 292 0
 1101 002c 204D     		ldr	r5, .L133+4
 1102 002e AB69     		ldr	r3, [r5, #24]
 1103 0030 9A42     		cmp	r2, r3
 1104 0032 19D0     		beq	.L130
 1105              		.loc 1 297 0
 1106 0034 0027     		movs	r7, #0
 1107              	.L119:
 1108              	.LVL125:
 1109              	.LBE205:
 1110              	.LBE204:
 1111              	.LBB211:
 1112              	.LBB212:
 1113              		.loc 4 360 0
 1114 0036 FFF7FEFF 		bl	_dbg_check_unlock
 1115              	.LVL126:
 1116              		.loc 4 361 0
 1117 003a FFF7FEFF 		bl	_stats_stop_measure_crit_thd
 1118              	.LVL127:
 1119              		.loc 4 367 0
 1120 003e 2B68     		ldr	r3, [r5]
 1121 0040 AB42     		cmp	r3, r5
 1122 0042 07D0     		beq	.L121
 1123 0044 AA69     		ldr	r2, [r5, #24]
 1124 0046 9B68     		ldr	r3, [r3, #8]
 1125 0048 9268     		ldr	r2, [r2, #8]
 1126 004a 9A42     		cmp	r2, r3
 1127 004c 02D2     		bcs	.L121
 1128 004e 1948     		ldr	r0, .L133+8
 1129 0050 FFF7FEFF 		bl	chSysHalt
 1130              	.LVL128:
 1131              	.L121:
 1132              	.LBB213:
 1133              	.LBB214:
 1134              	.LBB215:
 1135              		.loc 3 546 0
 1136 0054 0023     		movs	r3, #0
 1137              		.syntax unified
 1138              	@ 546 "../../lib/e-puck2_main-processor/ChibiOS//os/ext/CMSIS/include/core_cmFunc.h" 1
 1139 0056 83F31188 		MSR basepri, r3
 1140              	@ 0 "" 2
ARM GAS  C:\Users\mathi\AppData\Local\Temp\ccyVFtl3.s 			page 21


 1141              	.LVL129:
 1142              		.thumb
 1143              		.syntax unified
 1144              	.LBE215:
 1145              	.LBE214:
 1146              	.LBE213:
 1147              	.LBE212:
 1148              	.LBE211:
 1149              		.loc 1 263 0
 1150 005a 019A     		ldr	r2, [sp, #4]
 1151 005c 3368     		ldr	r3, [r6]
 1152 005e 9A42     		cmp	r2, r3
 1153 0060 3846     		mov	r0, r7
 1154 0062 21D1     		bne	.L131
 1155 0064 03B0     		add	sp, sp, #12
 1156              		.cfi_remember_state
 1157              		.cfi_def_cfa_offset 20
 1158              		@ sp needed
 1159 0066 F0BD     		pop	{r4, r5, r6, r7, pc}
 1160              	.LVL130:
 1161              	.L130:
 1162              		.cfi_restore_state
 1163              	.LBB216:
 1164              	.LBB210:
 1165              		.loc 1 293 0
 1166 0068 2369     		ldr	r3, [r4, #16]
 1167 006a 0133     		adds	r3, r3, #1
 1168 006c 2361     		str	r3, [r4, #16]
 1169              		.loc 1 294 0
 1170 006e 0127     		movs	r7, #1
 1171 0070 E1E7     		b	.L119
 1172              	.L117:
 1173              	.LVL131:
 1174              	.LBB206:
 1175              	.LBB207:
 1176              		.loc 1 301 0
 1177 0072 A3B9     		cbnz	r3, .L132
 1178              	.L120:
 1179              		.loc 1 305 0
 1180 0074 0E4D     		ldr	r5, .L133+4
 1181              		.loc 1 303 0
 1182 0076 0133     		adds	r3, r3, #1
 1183 0078 2361     		str	r3, [r4, #16]
 1184              		.loc 1 305 0
 1185 007a AB69     		ldr	r3, [r5, #24]
 1186 007c A360     		str	r3, [r4, #8]
 1187              		.loc 1 306 0
 1188 007e AB69     		ldr	r3, [r5, #24]
 1189 0080 1B6C     		ldr	r3, [r3, #64]
 1190 0082 E360     		str	r3, [r4, #12]
 1191              		.loc 1 307 0
 1192 0084 AB69     		ldr	r3, [r5, #24]
 1193 0086 0127     		movs	r7, #1
 1194 0088 1C64     		str	r4, [r3, #64]
 1195              	.LVL132:
 1196 008a D4E7     		b	.L119
 1197              	.L128:
ARM GAS  C:\Users\mathi\AppData\Local\Temp\ccyVFtl3.s 			page 22


 1198              	.LBE207:
 1199              	.LBE206:
 1200              		.loc 1 285 0
 1201 008c 0A48     		ldr	r0, .L133+12
 1202 008e FFF7FEFF 		bl	chSysHalt
 1203              	.LVL133:
 1204 0092 C6E7     		b	.L116
 1205              	.L129:
 1206              		.loc 1 290 0
 1207 0094 0848     		ldr	r0, .L133+12
 1208 0096 FFF7FEFF 		bl	chSysHalt
 1209              	.LVL134:
 1210 009a A268     		ldr	r2, [r4, #8]
 1211 009c C6E7     		b	.L118
 1212              	.LVL135:
 1213              	.L132:
 1214              	.LBB209:
 1215              	.LBB208:
 1216              		.loc 1 301 0
 1217 009e 0648     		ldr	r0, .L133+12
 1218 00a0 FFF7FEFF 		bl	chSysHalt
 1219              	.LVL136:
 1220 00a4 2369     		ldr	r3, [r4, #16]
 1221 00a6 E5E7     		b	.L120
 1222              	.LVL137:
 1223              	.L131:
 1224              	.LBE208:
 1225              	.LBE209:
 1226              	.LBE210:
 1227              	.LBE216:
 1228              		.loc 1 263 0
 1229 00a8 FFF7FEFF 		bl	__stack_chk_fail
 1230              	.LVL138:
 1231              	.L134:
 1232              		.align	2
 1233              	.L133:
 1234 00ac 00000000 		.word	__stack_chk_guard
 1235 00b0 00000000 		.word	ch
 1236 00b4 00000000 		.word	.LANCHOR2
 1237 00b8 00000000 		.word	.LANCHOR3
 1238              		.cfi_endproc
 1239              	.LFE222:
 1240              		.size	chMtxTryLock, .-chMtxTryLock
 1241              		.section	.text.chMtxTryLockS,"ax",%progbits
 1242              		.align	1
 1243              		.p2align 4,,15
 1244              		.global	chMtxTryLockS
 1245              		.syntax unified
 1246              		.thumb
 1247              		.thumb_func
 1248              		.fpu fpv4-sp-d16
 1249              		.type	chMtxTryLockS, %function
 1250              	chMtxTryLockS:
 1251              	.LFB223:
 1252              		.loc 1 282 0
 1253              		.cfi_startproc
 1254              		@ args = 0, pretend = 0, frame = 8
ARM GAS  C:\Users\mathi\AppData\Local\Temp\ccyVFtl3.s 			page 23


 1255              		@ frame_needed = 0, uses_anonymous_args = 0
 1256              	.LVL139:
 1257 0000 30B5     		push	{r4, r5, lr}
 1258              		.cfi_def_cfa_offset 12
 1259              		.cfi_offset 4, -12
 1260              		.cfi_offset 5, -8
 1261              		.cfi_offset 14, -4
 1262 0002 1D4D     		ldr	r5, .L152
 1263 0004 83B0     		sub	sp, sp, #12
 1264              		.cfi_def_cfa_offset 24
 1265              		.loc 1 282 0
 1266 0006 0446     		mov	r4, r0
 1267 0008 2B68     		ldr	r3, [r5]
 1268 000a 0193     		str	r3, [sp, #4]
 1269              		.loc 1 284 0
 1270 000c FFF7FEFF 		bl	chDbgCheckClassS
 1271              	.LVL140:
 1272              		.loc 1 285 0
 1273 0010 0CB3     		cbz	r4, .L147
 1274              	.L136:
 1275              		.loc 1 287 0
 1276 0012 A268     		ldr	r2, [r4, #8]
 1277 0014 2369     		ldr	r3, [r4, #16]
 1278 0016 8AB1     		cbz	r2, .L137
 1279              		.loc 1 290 0 discriminator 1
 1280 0018 002B     		cmp	r3, #0
 1281 001a 20DD     		ble	.L148
 1282              	.L138:
 1283              		.loc 1 292 0
 1284 001c 174B     		ldr	r3, .L152+4
 1285 001e 9B69     		ldr	r3, [r3, #24]
 1286 0020 9342     		cmp	r3, r2
 1287 0022 06D0     		beq	.L149
 1288              		.loc 1 297 0
 1289 0024 0020     		movs	r0, #0
 1290              	.L139:
 1291              		.loc 1 309 0
 1292 0026 019A     		ldr	r2, [sp, #4]
 1293 0028 2B68     		ldr	r3, [r5]
 1294 002a 9A42     		cmp	r2, r3
 1295 002c 21D1     		bne	.L150
 1296 002e 03B0     		add	sp, sp, #12
 1297              		.cfi_remember_state
 1298              		.cfi_def_cfa_offset 12
 1299              		@ sp needed
 1300 0030 30BD     		pop	{r4, r5, pc}
 1301              	.LVL141:
 1302              	.L149:
 1303              		.cfi_restore_state
 1304              		.loc 1 293 0
 1305 0032 2369     		ldr	r3, [r4, #16]
 1306 0034 0133     		adds	r3, r3, #1
 1307 0036 2361     		str	r3, [r4, #16]
 1308              		.loc 1 294 0
 1309 0038 0120     		movs	r0, #1
 1310 003a F4E7     		b	.L139
 1311              	.L137:
ARM GAS  C:\Users\mathi\AppData\Local\Temp\ccyVFtl3.s 			page 24


 1312              	.LVL142:
 1313              	.LBB219:
 1314              	.LBB220:
 1315              		.loc 1 301 0
 1316 003c A3B9     		cbnz	r3, .L151
 1317              	.L140:
 1318              		.loc 1 305 0
 1319 003e 0F4A     		ldr	r2, .L152+4
 1320              		.loc 1 303 0
 1321 0040 0133     		adds	r3, r3, #1
 1322 0042 2361     		str	r3, [r4, #16]
 1323              		.loc 1 305 0
 1324 0044 9369     		ldr	r3, [r2, #24]
 1325 0046 A360     		str	r3, [r4, #8]
 1326              		.loc 1 306 0
 1327 0048 9369     		ldr	r3, [r2, #24]
 1328 004a 1B6C     		ldr	r3, [r3, #64]
 1329 004c E360     		str	r3, [r4, #12]
 1330              		.loc 1 307 0
 1331 004e 9369     		ldr	r3, [r2, #24]
 1332 0050 0120     		movs	r0, #1
 1333 0052 1C64     		str	r4, [r3, #64]
 1334              	.LVL143:
 1335 0054 E7E7     		b	.L139
 1336              	.L147:
 1337              	.LBE220:
 1338              	.LBE219:
 1339              		.loc 1 285 0 discriminator 2
 1340 0056 0A48     		ldr	r0, .L152+8
 1341 0058 FFF7FEFF 		bl	chSysHalt
 1342              	.LVL144:
 1343 005c D9E7     		b	.L136
 1344              	.L148:
 1345              		.loc 1 290 0 discriminator 2
 1346 005e 0848     		ldr	r0, .L152+8
 1347 0060 FFF7FEFF 		bl	chSysHalt
 1348              	.LVL145:
 1349 0064 A268     		ldr	r2, [r4, #8]
 1350 0066 D9E7     		b	.L138
 1351              	.LVL146:
 1352              	.L151:
 1353              	.LBB222:
 1354              	.LBB221:
 1355              		.loc 1 301 0
 1356 0068 0548     		ldr	r0, .L152+8
 1357 006a FFF7FEFF 		bl	chSysHalt
 1358              	.LVL147:
 1359 006e 2369     		ldr	r3, [r4, #16]
 1360 0070 E5E7     		b	.L140
 1361              	.LVL148:
 1362              	.L150:
 1363              	.LBE221:
 1364              	.LBE222:
 1365              		.loc 1 309 0
 1366 0072 FFF7FEFF 		bl	__stack_chk_fail
 1367              	.LVL149:
 1368              	.L153:
ARM GAS  C:\Users\mathi\AppData\Local\Temp\ccyVFtl3.s 			page 25


 1369 0076 00BF     		.align	2
 1370              	.L152:
 1371 0078 00000000 		.word	__stack_chk_guard
 1372 007c 00000000 		.word	ch
 1373 0080 00000000 		.word	.LANCHOR3
 1374              		.cfi_endproc
 1375              	.LFE223:
 1376              		.size	chMtxTryLockS, .-chMtxTryLockS
 1377              		.section	.text.chMtxUnlock,"ax",%progbits
 1378              		.align	1
 1379              		.p2align 4,,15
 1380              		.global	chMtxUnlock
 1381              		.syntax unified
 1382              		.thumb
 1383              		.thumb_func
 1384              		.fpu fpv4-sp-d16
 1385              		.type	chMtxUnlock, %function
 1386              	chMtxUnlock:
 1387              	.LFB224:
 1388              		.loc 1 323 0
 1389              		.cfi_startproc
 1390              		@ args = 0, pretend = 0, frame = 8
 1391              		@ frame_needed = 0, uses_anonymous_args = 0
 1392              	.LVL150:
 1393 0000 2DE9F043 		push	{r4, r5, r6, r7, r8, r9, lr}
 1394              		.cfi_def_cfa_offset 28
 1395              		.cfi_offset 4, -28
 1396              		.cfi_offset 5, -24
 1397              		.cfi_offset 6, -20
 1398              		.cfi_offset 7, -16
 1399              		.cfi_offset 8, -12
 1400              		.cfi_offset 9, -8
 1401              		.cfi_offset 14, -4
 1402 0004 DFF80081 		ldr	r8, .L177+12
 1403              		.loc 1 324 0
 1404 0008 3C4F     		ldr	r7, .L177
 1405              		.loc 1 323 0
 1406 000a D8F80030 		ldr	r3, [r8]
 1407              		.loc 1 324 0
 1408 000e BE69     		ldr	r6, [r7, #24]
 1409              	.LVL151:
 1410              		.loc 1 323 0
 1411 0010 83B0     		sub	sp, sp, #12
 1412              		.cfi_def_cfa_offset 40
 1413              		.loc 1 327 0
 1414 0012 0546     		mov	r5, r0
 1415              		.loc 1 323 0
 1416 0014 0193     		str	r3, [sp, #4]
 1417              		.loc 1 327 0
 1418 0016 0028     		cmp	r0, #0
 1419 0018 64D0     		beq	.L172
 1420              	.LVL152:
 1421              	.L155:
 1422              	.LBB244:
 1423              	.LBB245:
 1424              	.LBB246:
 1425              	.LBB247:
ARM GAS  C:\Users\mathi\AppData\Local\Temp\ccyVFtl3.s 			page 26


 1426              	.LBB248:
 1427              		.loc 3 546 0
 1428 001a 2023     		movs	r3, #32
 1429              		.syntax unified
 1430              	@ 546 "../../lib/e-puck2_main-processor/ChibiOS//os/ext/CMSIS/include/core_cmFunc.h" 1
 1431 001c 83F31188 		MSR basepri, r3
 1432              	@ 0 "" 2
 1433              	.LVL153:
 1434              		.thumb
 1435              		.syntax unified
 1436              	.LBE248:
 1437              	.LBE247:
 1438              	.LBE246:
 1439              		.loc 4 349 0
 1440 0020 FFF7FEFF 		bl	_stats_start_measure_crit_thd
 1441              	.LVL154:
 1442              		.loc 4 350 0
 1443 0024 FFF7FEFF 		bl	_dbg_check_lock
 1444              	.LVL155:
 1445              	.LBE245:
 1446              	.LBE244:
 1447              		.loc 1 331 0
 1448 0028 336C     		ldr	r3, [r6, #64]
 1449 002a 002B     		cmp	r3, #0
 1450 002c 5ED0     		beq	.L173
 1451              	.L156:
 1452              		.loc 1 332 0 discriminator 1
 1453 002e 9B68     		ldr	r3, [r3, #8]
 1454 0030 B342     		cmp	r3, r6
 1455 0032 02D0     		beq	.L157
 1456              		.loc 1 332 0 is_stmt 0 discriminator 2
 1457 0034 3248     		ldr	r0, .L177+4
 1458 0036 FFF7FEFF 		bl	chSysHalt
 1459              	.LVL156:
 1460              	.L157:
 1461              		.loc 1 334 0 is_stmt 1 discriminator 1
 1462 003a 2B69     		ldr	r3, [r5, #16]
 1463 003c 002B     		cmp	r3, #0
 1464 003e 49DD     		ble	.L174
 1465              	.L158:
 1466              		.loc 1 336 0
 1467 0040 013B     		subs	r3, r3, #1
 1468 0042 2B61     		str	r3, [r5, #16]
 1469 0044 5BBB     		cbnz	r3, .L159
 1470              		.loc 1 339 0 discriminator 1
 1471 0046 336C     		ldr	r3, [r6, #64]
 1472 0048 AB42     		cmp	r3, r5
 1473 004a 02D0     		beq	.L160
 1474              		.loc 1 339 0 is_stmt 0 discriminator 2
 1475 004c 2C48     		ldr	r0, .L177+4
 1476 004e FFF7FEFF 		bl	chSysHalt
 1477              	.LVL157:
 1478              	.L160:
 1479              		.loc 1 344 0 is_stmt 1
 1480 0052 EB68     		ldr	r3, [r5, #12]
 1481 0054 3364     		str	r3, [r6, #64]
 1482              	.LVL158:
ARM GAS  C:\Users\mathi\AppData\Local\Temp\ccyVFtl3.s 			page 27


 1483              	.LBB249:
 1484              	.LBB250:
 1485              		.file 5 "../../lib/e-puck2_main-processor/ChibiOS//os/rt/include/chmtx.h"
 1486              		.loc 5 131 0
 1487 0056 FFF7FEFF 		bl	chDbgCheckClassS
 1488              	.LVL159:
 1489              	.LBE250:
 1490              	.LBE249:
 1491              		.loc 1 347 0
 1492 005a 2B68     		ldr	r3, [r5]
 1493 005c 9D42     		cmp	r5, r3
 1494 005e 3ED0     		beq	.L161
 1495              	.LBB251:
 1496              		.loc 1 352 0
 1497 0060 D6E91049 		ldrd	r4, r9, [r6, #64]
 1498              	.LVL160:
 1499              		.loc 1 354 0
 1500 0064 5CB1     		cbz	r4, .L162
 1501              	.L164:
 1502              	.LVL161:
 1503              	.LBB252:
 1504              	.LBB253:
 1505              		.loc 5 131 0
 1506 0066 FFF7FEFF 		bl	chDbgCheckClassS
 1507              	.LVL162:
 1508              	.LBB254:
 1509              	.LBB255:
 1510              		.loc 2 631 0
 1511 006a 2368     		ldr	r3, [r4]
 1512              	.LVL163:
 1513              	.LBE255:
 1514              	.LBE254:
 1515              	.LBE253:
 1516              	.LBE252:
 1517              		.loc 1 358 0
 1518 006c 9C42     		cmp	r4, r3
 1519 006e 03D0     		beq	.L163
 1520 0070 9B68     		ldr	r3, [r3, #8]
 1521 0072 9945     		cmp	r9, r3
 1522 0074 38BF     		it	cc
 1523 0076 9946     		movcc	r9, r3
 1524              	.LVL164:
 1525              	.L163:
 1526              		.loc 1 362 0
 1527 0078 E468     		ldr	r4, [r4, #12]
 1528              	.LVL165:
 1529              		.loc 1 354 0
 1530 007a 002C     		cmp	r4, #0
 1531 007c F3D1     		bne	.L164
 1532              	.L162:
 1533              		.loc 1 367 0
 1534 007e C6F80890 		str	r9, [r6, #8]
 1535              	.LBB256:
 1536              	.LBB257:
 1537              		.loc 2 672 0
 1538 0082 2B68     		ldr	r3, [r5]
 1539              	.LBE257:
ARM GAS  C:\Users\mathi\AppData\Local\Temp\ccyVFtl3.s 			page 28


 1540              	.LBE256:
 1541              		.loc 1 372 0
 1542 0084 0122     		movs	r2, #1
 1543 0086 2A61     		str	r2, [r5, #16]
 1544              	.LVL166:
 1545              	.LBB259:
 1546              	.LBB258:
 1547              		.loc 2 674 0
 1548 0088 1A68     		ldr	r2, [r3]
 1549 008a 2A60     		str	r2, [r5]
 1550              		.loc 2 675 0
 1551 008c 5560     		str	r5, [r2, #4]
 1552              	.LVL167:
 1553              	.LBE258:
 1554              	.LBE259:
 1555              		.loc 1 375 0
 1556 008e AB60     		str	r3, [r5, #8]
 1557              		.loc 1 376 0
 1558 0090 1A6C     		ldr	r2, [r3, #64]
 1559 0092 EA60     		str	r2, [r5, #12]
 1560              		.loc 1 378 0
 1561 0094 1846     		mov	r0, r3
 1562              		.loc 1 377 0
 1563 0096 1D64     		str	r5, [r3, #64]
 1564              		.loc 1 378 0
 1565 0098 0021     		movs	r1, #0
 1566 009a FFF7FEFF 		bl	chSchWakeupS
 1567              	.LVL168:
 1568              	.L159:
 1569              	.LBE251:
 1570              	.LBB260:
 1571              	.LBB261:
 1572              		.loc 4 360 0
 1573 009e FFF7FEFF 		bl	_dbg_check_unlock
 1574              	.LVL169:
 1575              		.loc 4 361 0
 1576 00a2 FFF7FEFF 		bl	_stats_stop_measure_crit_thd
 1577              	.LVL170:
 1578              		.loc 4 367 0
 1579 00a6 3B68     		ldr	r3, [r7]
 1580 00a8 BB42     		cmp	r3, r7
 1581 00aa 04D0     		beq	.L165
 1582 00ac BA69     		ldr	r2, [r7, #24]
 1583 00ae 9B68     		ldr	r3, [r3, #8]
 1584 00b0 9268     		ldr	r2, [r2, #8]
 1585 00b2 9A42     		cmp	r2, r3
 1586 00b4 0AD3     		bcc	.L175
 1587              	.L165:
 1588              	.LVL171:
 1589              	.LBB262:
 1590              	.LBB263:
 1591              	.LBB264:
 1592              		.loc 3 546 0
 1593 00b6 0023     		movs	r3, #0
 1594              		.syntax unified
 1595              	@ 546 "../../lib/e-puck2_main-processor/ChibiOS//os/ext/CMSIS/include/core_cmFunc.h" 1
 1596 00b8 83F31188 		MSR basepri, r3
ARM GAS  C:\Users\mathi\AppData\Local\Temp\ccyVFtl3.s 			page 29


 1597              	@ 0 "" 2
 1598              	.LVL172:
 1599              		.thumb
 1600              		.syntax unified
 1601              	.LBE264:
 1602              	.LBE263:
 1603              	.LBE262:
 1604              	.LBE261:
 1605              	.LBE260:
 1606              		.loc 1 388 0
 1607 00bc 019A     		ldr	r2, [sp, #4]
 1608 00be D8F80030 		ldr	r3, [r8]
 1609 00c2 9A42     		cmp	r2, r3
 1610 00c4 17D1     		bne	.L176
 1611 00c6 03B0     		add	sp, sp, #12
 1612              		.cfi_remember_state
 1613              		.cfi_def_cfa_offset 28
 1614              		@ sp needed
 1615 00c8 BDE8F083 		pop	{r4, r5, r6, r7, r8, r9, pc}
 1616              	.LVL173:
 1617              	.L175:
 1618              		.cfi_restore_state
 1619              	.LBB266:
 1620              	.LBB265:
 1621              		.loc 4 367 0
 1622 00cc 0D48     		ldr	r0, .L177+8
 1623 00ce FFF7FEFF 		bl	chSysHalt
 1624              	.LVL174:
 1625 00d2 F0E7     		b	.L165
 1626              	.L174:
 1627              	.LBE265:
 1628              	.LBE266:
 1629              		.loc 1 334 0 discriminator 2
 1630 00d4 0A48     		ldr	r0, .L177+4
 1631 00d6 FFF7FEFF 		bl	chSysHalt
 1632              	.LVL175:
 1633 00da 2B69     		ldr	r3, [r5, #16]
 1634 00dc B0E7     		b	.L158
 1635              	.L161:
 1636              		.loc 1 381 0
 1637 00de 0023     		movs	r3, #0
 1638 00e0 AB60     		str	r3, [r5, #8]
 1639 00e2 DCE7     		b	.L159
 1640              	.LVL176:
 1641              	.L172:
 1642              		.loc 1 327 0 discriminator 2
 1643 00e4 0648     		ldr	r0, .L177+4
 1644              	.LVL177:
 1645 00e6 FFF7FEFF 		bl	chSysHalt
 1646              	.LVL178:
 1647 00ea 96E7     		b	.L155
 1648              	.L173:
 1649              		.loc 1 331 0 discriminator 2
 1650 00ec 0448     		ldr	r0, .L177+4
 1651 00ee FFF7FEFF 		bl	chSysHalt
 1652              	.LVL179:
 1653 00f2 336C     		ldr	r3, [r6, #64]
ARM GAS  C:\Users\mathi\AppData\Local\Temp\ccyVFtl3.s 			page 30


 1654 00f4 9BE7     		b	.L156
 1655              	.L176:
 1656              		.loc 1 388 0
 1657 00f6 FFF7FEFF 		bl	__stack_chk_fail
 1658              	.LVL180:
 1659              	.L178:
 1660 00fa 00BF     		.align	2
 1661              	.L177:
 1662 00fc 00000000 		.word	ch
 1663 0100 00000000 		.word	.LANCHOR4
 1664 0104 00000000 		.word	.LANCHOR2
 1665 0108 00000000 		.word	__stack_chk_guard
 1666              		.cfi_endproc
 1667              	.LFE224:
 1668              		.size	chMtxUnlock, .-chMtxUnlock
 1669              		.section	.text.chMtxUnlockS,"ax",%progbits
 1670              		.align	1
 1671              		.p2align 4,,15
 1672              		.global	chMtxUnlockS
 1673              		.syntax unified
 1674              		.thumb
 1675              		.thumb_func
 1676              		.fpu fpv4-sp-d16
 1677              		.type	chMtxUnlockS, %function
 1678              	chMtxUnlockS:
 1679              	.LFB225:
 1680              		.loc 1 404 0
 1681              		.cfi_startproc
 1682              		@ args = 0, pretend = 0, frame = 8
 1683              		@ frame_needed = 0, uses_anonymous_args = 0
 1684              	.LVL181:
 1685 0000 2DE9F041 		push	{r4, r5, r6, r7, r8, lr}
 1686              		.cfi_def_cfa_offset 24
 1687              		.cfi_offset 4, -24
 1688              		.cfi_offset 5, -20
 1689              		.cfi_offset 6, -16
 1690              		.cfi_offset 7, -12
 1691              		.cfi_offset 8, -8
 1692              		.cfi_offset 14, -4
 1693 0004 DFF8D880 		ldr	r8, .L201+8
 1694              		.loc 1 405 0
 1695 0008 334B     		ldr	r3, .L201
 1696              		.loc 1 404 0
 1697 000a D8F80020 		ldr	r2, [r8]
 1698              		.loc 1 405 0
 1699 000e 9E69     		ldr	r6, [r3, #24]
 1700              	.LVL182:
 1701              		.loc 1 404 0
 1702 0010 82B0     		sub	sp, sp, #8
 1703              		.cfi_def_cfa_offset 32
 1704              		.loc 1 404 0
 1705 0012 0546     		mov	r5, r0
 1706 0014 0192     		str	r2, [sp, #4]
 1707              		.loc 1 408 0
 1708 0016 FFF7FEFF 		bl	chDbgCheckClassS
 1709              	.LVL183:
 1710              		.loc 1 409 0
ARM GAS  C:\Users\mathi\AppData\Local\Temp\ccyVFtl3.s 			page 31


 1711 001a 002D     		cmp	r5, #0
 1712 001c 4FD0     		beq	.L198
 1713              		.loc 1 411 0 discriminator 1
 1714 001e 336C     		ldr	r3, [r6, #64]
 1715 0020 002B     		cmp	r3, #0
 1716 0022 52D0     		beq	.L199
 1717              	.L181:
 1718              		.loc 1 412 0 discriminator 1
 1719 0024 9B68     		ldr	r3, [r3, #8]
 1720 0026 B342     		cmp	r3, r6
 1721 0028 02D0     		beq	.L182
 1722              		.loc 1 412 0 is_stmt 0 discriminator 2
 1723 002a 2C48     		ldr	r0, .L201+4
 1724 002c FFF7FEFF 		bl	chSysHalt
 1725              	.LVL184:
 1726              	.L182:
 1727              		.loc 1 414 0 is_stmt 1 discriminator 1
 1728 0030 2B69     		ldr	r3, [r5, #16]
 1729 0032 002B     		cmp	r3, #0
 1730 0034 3EDD     		ble	.L200
 1731              	.L183:
 1732              		.loc 1 416 0
 1733 0036 013B     		subs	r3, r3, #1
 1734 0038 2B61     		str	r3, [r5, #16]
 1735 003a 002B     		cmp	r3, #0
 1736 003c 32D1     		bne	.L179
 1737              		.loc 1 419 0 discriminator 1
 1738 003e 336C     		ldr	r3, [r6, #64]
 1739 0040 AB42     		cmp	r3, r5
 1740 0042 02D0     		beq	.L185
 1741              		.loc 1 419 0 is_stmt 0 discriminator 2
 1742 0044 2548     		ldr	r0, .L201+4
 1743 0046 FFF7FEFF 		bl	chSysHalt
 1744              	.LVL185:
 1745              	.L185:
 1746              		.loc 1 424 0 is_stmt 1
 1747 004a EB68     		ldr	r3, [r5, #12]
 1748 004c 3364     		str	r3, [r6, #64]
 1749              	.LVL186:
 1750              	.LBB267:
 1751              	.LBB268:
 1752              		.loc 5 131 0
 1753 004e FFF7FEFF 		bl	chDbgCheckClassS
 1754              	.LVL187:
 1755              	.LBE268:
 1756              	.LBE267:
 1757              		.loc 1 427 0
 1758 0052 2B68     		ldr	r3, [r5]
 1759 0054 9D42     		cmp	r5, r3
 1760 0056 23D0     		beq	.L186
 1761              	.LBB269:
 1762              		.loc 1 432 0
 1763 0058 D6E91047 		ldrd	r4, r7, [r6, #64]
 1764              	.LVL188:
 1765              		.loc 1 434 0
 1766 005c 5CB1     		cbz	r4, .L187
 1767              	.L189:
ARM GAS  C:\Users\mathi\AppData\Local\Temp\ccyVFtl3.s 			page 32


 1768              	.LVL189:
 1769              	.LBB270:
 1770              	.LBB271:
 1771              		.loc 5 131 0
 1772 005e FFF7FEFF 		bl	chDbgCheckClassS
 1773              	.LVL190:
 1774              	.LBB272:
 1775              	.LBB273:
 1776              		.loc 2 631 0
 1777 0062 2368     		ldr	r3, [r4]
 1778              	.LVL191:
 1779              	.LBE273:
 1780              	.LBE272:
 1781              	.LBE271:
 1782              	.LBE270:
 1783              		.loc 1 438 0
 1784 0064 9C42     		cmp	r4, r3
 1785 0066 03D0     		beq	.L188
 1786 0068 9B68     		ldr	r3, [r3, #8]
 1787 006a 9F42     		cmp	r7, r3
 1788 006c 38BF     		it	cc
 1789 006e 1F46     		movcc	r7, r3
 1790              	.LVL192:
 1791              	.L188:
 1792              		.loc 1 442 0
 1793 0070 E468     		ldr	r4, [r4, #12]
 1794              	.LVL193:
 1795              		.loc 1 434 0
 1796 0072 002C     		cmp	r4, #0
 1797 0074 F3D1     		bne	.L189
 1798              	.L187:
 1799              		.loc 1 447 0
 1800 0076 B760     		str	r7, [r6, #8]
 1801              	.LBB274:
 1802              	.LBB275:
 1803              		.loc 2 672 0
 1804 0078 2868     		ldr	r0, [r5]
 1805              	.LBE275:
 1806              	.LBE274:
 1807              		.loc 1 458 0
 1808 007a 0199     		ldr	r1, [sp, #4]
 1809              		.loc 1 452 0
 1810 007c 0123     		movs	r3, #1
 1811 007e 2B61     		str	r3, [r5, #16]
 1812              	.LVL194:
 1813              	.LBB278:
 1814              	.LBB276:
 1815              		.loc 2 674 0
 1816 0080 0368     		ldr	r3, [r0]
 1817 0082 2B60     		str	r3, [r5]
 1818              	.LBE276:
 1819              	.LBE278:
 1820              		.loc 1 458 0
 1821 0084 D8F80020 		ldr	r2, [r8]
 1822              	.LBB279:
 1823              	.LBB277:
 1824              		.loc 2 675 0
ARM GAS  C:\Users\mathi\AppData\Local\Temp\ccyVFtl3.s 			page 33


 1825 0088 5D60     		str	r5, [r3, #4]
 1826              	.LVL195:
 1827              	.LBE277:
 1828              	.LBE279:
 1829              		.loc 1 455 0
 1830 008a A860     		str	r0, [r5, #8]
 1831              		.loc 1 456 0
 1832 008c 036C     		ldr	r3, [r0, #64]
 1833 008e EB60     		str	r3, [r5, #12]
 1834              		.loc 1 458 0
 1835 0090 9142     		cmp	r1, r2
 1836              		.loc 1 457 0
 1837 0092 0564     		str	r5, [r0, #64]
 1838              		.loc 1 458 0
 1839 0094 1ED1     		bne	.L197
 1840              	.LBE269:
 1841              		.loc 1 466 0
 1842 0096 02B0     		add	sp, sp, #8
 1843              		.cfi_remember_state
 1844              		.cfi_def_cfa_offset 24
 1845              		@ sp needed
 1846 0098 BDE8F041 		pop	{r4, r5, r6, r7, r8, lr}
 1847              		.cfi_restore 14
 1848              		.cfi_restore 8
 1849              		.cfi_restore 7
 1850              		.cfi_restore 6
 1851              		.cfi_restore 5
 1852              		.cfi_restore 4
 1853              		.cfi_def_cfa_offset 0
 1854              	.LVL196:
 1855              	.LBB280:
 1856              		.loc 1 458 0
 1857 009c FFF7FEBF 		b	chSchReadyI
 1858              	.LVL197:
 1859              	.L186:
 1860              		.cfi_restore_state
 1861              	.LBE280:
 1862              		.loc 1 461 0
 1863 00a0 0023     		movs	r3, #0
 1864 00a2 AB60     		str	r3, [r5, #8]
 1865              	.L179:
 1866              		.loc 1 466 0
 1867 00a4 019A     		ldr	r2, [sp, #4]
 1868 00a6 D8F80030 		ldr	r3, [r8]
 1869 00aa 9A42     		cmp	r2, r3
 1870 00ac 12D1     		bne	.L197
 1871 00ae 02B0     		add	sp, sp, #8
 1872              		.cfi_remember_state
 1873              		.cfi_def_cfa_offset 24
 1874              		@ sp needed
 1875 00b0 BDE8F081 		pop	{r4, r5, r6, r7, r8, pc}
 1876              	.LVL198:
 1877              	.L200:
 1878              		.cfi_restore_state
 1879              		.loc 1 414 0 discriminator 2
 1880 00b4 0948     		ldr	r0, .L201+4
 1881 00b6 FFF7FEFF 		bl	chSysHalt
ARM GAS  C:\Users\mathi\AppData\Local\Temp\ccyVFtl3.s 			page 34


 1882              	.LVL199:
 1883 00ba 2B69     		ldr	r3, [r5, #16]
 1884 00bc BBE7     		b	.L183
 1885              	.L198:
 1886              		.loc 1 409 0 discriminator 2
 1887 00be 0748     		ldr	r0, .L201+4
 1888 00c0 FFF7FEFF 		bl	chSysHalt
 1889              	.LVL200:
 1890              		.loc 1 411 0 discriminator 2
 1891 00c4 336C     		ldr	r3, [r6, #64]
 1892 00c6 002B     		cmp	r3, #0
 1893 00c8 ACD1     		bne	.L181
 1894              	.L199:
 1895 00ca 0448     		ldr	r0, .L201+4
 1896 00cc FFF7FEFF 		bl	chSysHalt
 1897              	.LVL201:
 1898 00d0 336C     		ldr	r3, [r6, #64]
 1899 00d2 A7E7     		b	.L181
 1900              	.L197:
 1901              		.loc 1 466 0
 1902 00d4 FFF7FEFF 		bl	__stack_chk_fail
 1903              	.LVL202:
 1904              	.L202:
 1905              		.align	2
 1906              	.L201:
 1907 00d8 00000000 		.word	ch
 1908 00dc 00000000 		.word	.LANCHOR5
 1909 00e0 00000000 		.word	__stack_chk_guard
 1910              		.cfi_endproc
 1911              	.LFE225:
 1912              		.size	chMtxUnlockS, .-chMtxUnlockS
 1913              		.section	.text.chMtxUnlockAll,"ax",%progbits
 1914              		.align	1
 1915              		.p2align 4,,15
 1916              		.global	chMtxUnlockAll
 1917              		.syntax unified
 1918              		.thumb
 1919              		.thumb_func
 1920              		.fpu fpv4-sp-d16
 1921              		.type	chMtxUnlockAll, %function
 1922              	chMtxUnlockAll:
 1923              	.LFB226:
 1924              		.loc 1 479 0
 1925              		.cfi_startproc
 1926              		@ args = 0, pretend = 0, frame = 8
 1927              		@ frame_needed = 0, uses_anonymous_args = 0
 1928 0000 2DE9F043 		push	{r4, r5, r6, r7, r8, r9, lr}
 1929              		.cfi_def_cfa_offset 28
 1930              		.cfi_offset 4, -28
 1931              		.cfi_offset 5, -24
 1932              		.cfi_offset 6, -20
 1933              		.cfi_offset 7, -16
 1934              		.cfi_offset 8, -12
 1935              		.cfi_offset 9, -8
 1936              		.cfi_offset 14, -4
 1937 0004 DFF8A890 		ldr	r9, .L215+8
 1938              		.loc 1 480 0
ARM GAS  C:\Users\mathi\AppData\Local\Temp\ccyVFtl3.s 			page 35


 1939 0008 274F     		ldr	r7, .L215
 1940              		.loc 1 479 0
 1941 000a D9F80030 		ldr	r3, [r9]
 1942              		.loc 1 480 0
 1943 000e BD69     		ldr	r5, [r7, #24]
 1944              	.LVL203:
 1945              		.loc 1 479 0
 1946 0010 83B0     		sub	sp, sp, #12
 1947              		.cfi_def_cfa_offset 40
 1948              		.loc 1 479 0
 1949 0012 0193     		str	r3, [sp, #4]
 1950              	.LBB299:
 1951              	.LBB300:
 1952              	.LBB301:
 1953              	.LBB302:
 1954              	.LBB303:
 1955              		.loc 3 546 0
 1956 0014 2023     		movs	r3, #32
 1957              		.syntax unified
 1958              	@ 546 "../../lib/e-puck2_main-processor/ChibiOS//os/ext/CMSIS/include/core_cmFunc.h" 1
 1959 0016 83F31188 		MSR basepri, r3
 1960              	@ 0 "" 2
 1961              	.LVL204:
 1962              		.thumb
 1963              		.syntax unified
 1964              	.LBE303:
 1965              	.LBE302:
 1966              	.LBE301:
 1967              		.loc 4 349 0
 1968 001a FFF7FEFF 		bl	_stats_start_measure_crit_thd
 1969              	.LVL205:
 1970              		.loc 4 350 0
 1971 001e FFF7FEFF 		bl	_dbg_check_lock
 1972              	.LVL206:
 1973              	.LBE300:
 1974              	.LBE299:
 1975              		.loc 1 483 0
 1976 0022 2C6C     		ldr	r4, [r5, #64]
 1977 0024 E4B1     		cbz	r4, .L205
 1978              	.LBB304:
 1979              		.loc 1 499 0
 1980 0026 0026     		movs	r6, #0
 1981              	.LBB305:
 1982              		.loc 1 489 0
 1983 0028 4FF00108 		mov	r8, #1
 1984              	.L204:
 1985              	.LVL207:
 1986              	.LBE305:
 1987              		.loc 1 486 0
 1988 002c E368     		ldr	r3, [r4, #12]
 1989 002e 2B64     		str	r3, [r5, #64]
 1990              	.LVL208:
 1991              	.LBB308:
 1992              	.LBB309:
 1993              		.loc 5 131 0
 1994 0030 FFF7FEFF 		bl	chDbgCheckClassS
 1995              	.LVL209:
ARM GAS  C:\Users\mathi\AppData\Local\Temp\ccyVFtl3.s 			page 36


 1996              	.LBB310:
 1997              	.LBB311:
 1998              		.loc 2 631 0
 1999 0034 2368     		ldr	r3, [r4]
 2000              	.LVL210:
 2001              	.LBE311:
 2002              	.LBE310:
 2003              	.LBE309:
 2004              	.LBE308:
 2005              		.loc 1 487 0
 2006 0036 9C42     		cmp	r4, r3
 2007 0038 29D0     		beq	.L206
 2008              	.LBB312:
 2009              		.loc 1 489 0
 2010 003a C4F81080 		str	r8, [r4, #16]
 2011              	.LVL211:
 2012              	.LBB306:
 2013              	.LBB307:
 2014              		.loc 2 674 0
 2015 003e 1A68     		ldr	r2, [r3]
 2016 0040 2260     		str	r2, [r4]
 2017              		.loc 2 675 0
 2018 0042 5460     		str	r4, [r2, #4]
 2019              	.LVL212:
 2020              	.LBE307:
 2021              	.LBE306:
 2022              		.loc 1 492 0
 2023 0044 A360     		str	r3, [r4, #8]
 2024              		.loc 1 493 0
 2025 0046 1A6C     		ldr	r2, [r3, #64]
 2026 0048 E260     		str	r2, [r4, #12]
 2027              		.loc 1 495 0
 2028 004a 1846     		mov	r0, r3
 2029              		.loc 1 494 0
 2030 004c 1C64     		str	r4, [r3, #64]
 2031              		.loc 1 495 0
 2032 004e FFF7FEFF 		bl	chSchReadyI
 2033              	.LVL213:
 2034              	.LBE312:
 2035              	.LBE304:
 2036              		.loc 1 503 0
 2037 0052 2C6C     		ldr	r4, [r5, #64]
 2038 0054 002C     		cmp	r4, #0
 2039 0056 E9D1     		bne	.L204
 2040              	.L208:
 2041              		.loc 1 504 0
 2042 0058 6B6C     		ldr	r3, [r5, #68]
 2043 005a AB60     		str	r3, [r5, #8]
 2044              		.loc 1 505 0
 2045 005c FFF7FEFF 		bl	chSchRescheduleS
 2046              	.LVL214:
 2047              	.L205:
 2048              	.LBB313:
 2049              	.LBB314:
 2050              		.loc 4 360 0
 2051 0060 FFF7FEFF 		bl	_dbg_check_unlock
 2052              	.LVL215:
ARM GAS  C:\Users\mathi\AppData\Local\Temp\ccyVFtl3.s 			page 37


 2053              		.loc 4 361 0
 2054 0064 FFF7FEFF 		bl	_stats_stop_measure_crit_thd
 2055              	.LVL216:
 2056              		.loc 4 367 0
 2057 0068 3B68     		ldr	r3, [r7]
 2058 006a BB42     		cmp	r3, r7
 2059 006c 04D0     		beq	.L209
 2060 006e BA69     		ldr	r2, [r7, #24]
 2061 0070 9B68     		ldr	r3, [r3, #8]
 2062 0072 9268     		ldr	r2, [r2, #8]
 2063 0074 9A42     		cmp	r2, r3
 2064 0076 10D3     		bcc	.L213
 2065              	.L209:
 2066              	.LVL217:
 2067              	.LBB315:
 2068              	.LBB316:
 2069              	.LBB317:
 2070              		.loc 3 546 0
 2071 0078 0023     		movs	r3, #0
 2072              		.syntax unified
 2073              	@ 546 "../../lib/e-puck2_main-processor/ChibiOS//os/ext/CMSIS/include/core_cmFunc.h" 1
 2074 007a 83F31188 		MSR basepri, r3
 2075              	@ 0 "" 2
 2076              	.LVL218:
 2077              		.thumb
 2078              		.syntax unified
 2079              	.LBE317:
 2080              	.LBE316:
 2081              	.LBE315:
 2082              	.LBE314:
 2083              	.LBE313:
 2084              		.loc 1 508 0
 2085 007e 019A     		ldr	r2, [sp, #4]
 2086 0080 D9F80030 		ldr	r3, [r9]
 2087 0084 9A42     		cmp	r2, r3
 2088 0086 0CD1     		bne	.L214
 2089 0088 03B0     		add	sp, sp, #12
 2090              		.cfi_remember_state
 2091              		.cfi_def_cfa_offset 28
 2092              		@ sp needed
 2093 008a BDE8F083 		pop	{r4, r5, r6, r7, r8, r9, pc}
 2094              	.LVL219:
 2095              	.L206:
 2096              		.cfi_restore_state
 2097              	.LBB319:
 2098              		.loc 1 499 0
 2099 008e 2661     		str	r6, [r4, #16]
 2100              		.loc 1 501 0
 2101 0090 A660     		str	r6, [r4, #8]
 2102              	.LBE319:
 2103              		.loc 1 503 0
 2104 0092 2C6C     		ldr	r4, [r5, #64]
 2105 0094 002C     		cmp	r4, #0
 2106 0096 C9D1     		bne	.L204
 2107 0098 DEE7     		b	.L208
 2108              	.L213:
 2109              	.LBB320:
ARM GAS  C:\Users\mathi\AppData\Local\Temp\ccyVFtl3.s 			page 38


 2110              	.LBB318:
 2111              		.loc 4 367 0
 2112 009a 0448     		ldr	r0, .L215+4
 2113 009c FFF7FEFF 		bl	chSysHalt
 2114              	.LVL220:
 2115 00a0 EAE7     		b	.L209
 2116              	.L214:
 2117              	.LBE318:
 2118              	.LBE320:
 2119              		.loc 1 508 0
 2120 00a2 FFF7FEFF 		bl	__stack_chk_fail
 2121              	.LVL221:
 2122              	.L216:
 2123 00a6 00BF     		.align	2
 2124              	.L215:
 2125 00a8 00000000 		.word	ch
 2126 00ac 00000000 		.word	.LANCHOR2
 2127 00b0 00000000 		.word	__stack_chk_guard
 2128              		.cfi_endproc
 2129              	.LFE226:
 2130              		.size	chMtxUnlockAll, .-chMtxUnlockAll
 2131              		.section	.rodata.__func__.7153,"a",%progbits
 2132              		.align	2
 2133              		.set	.LANCHOR2,. + 0
 2134              		.type	__func__.7153, %object
 2135              		.size	__func__.7153, 12
 2136              	__func__.7153:
 2137 0000 63685379 		.ascii	"chSysUnlock\000"
 2137      73556E6C 
 2137      6F636B00 
 2138              		.section	.rodata.__func__.7849,"a",%progbits
 2139              		.align	2
 2140              		.set	.LANCHOR0,. + 0
 2141              		.type	__func__.7849, %object
 2142              		.size	__func__.7849, 16
 2143              	__func__.7849:
 2144 0000 63684D74 		.ascii	"chMtxObjectInit\000"
 2144      784F626A 
 2144      65637449 
 2144      6E697400 
 2145              		.section	.rodata.__func__.7857,"a",%progbits
 2146              		.align	2
 2147              		.set	.LANCHOR1,. + 0
 2148              		.type	__func__.7857, %object
 2149              		.size	__func__.7857, 11
 2150              	__func__.7857:
 2151 0000 63684D74 		.ascii	"chMtxLockS\000"
 2151      784C6F63 
 2151      6B5300
 2152              		.section	.rodata.__func__.7874,"a",%progbits
 2153              		.align	2
 2154              		.set	.LANCHOR3,. + 0
 2155              		.type	__func__.7874, %object
 2156              		.size	__func__.7874, 14
 2157              	__func__.7874:
 2158 0000 63684D74 		.ascii	"chMtxTryLockS\000"
 2158      78547279 
ARM GAS  C:\Users\mathi\AppData\Local\Temp\ccyVFtl3.s 			page 39


 2158      4C6F636B 
 2158      5300
 2159              		.section	.rodata.__func__.7880,"a",%progbits
 2160              		.align	2
 2161              		.set	.LANCHOR4,. + 0
 2162              		.type	__func__.7880, %object
 2163              		.size	__func__.7880, 12
 2164              	__func__.7880:
 2165 0000 63684D74 		.ascii	"chMtxUnlock\000"
 2165      78556E6C 
 2165      6F636B00 
 2166              		.section	.rodata.__func__.7891,"a",%progbits
 2167              		.align	2
 2168              		.set	.LANCHOR5,. + 0
 2169              		.type	__func__.7891, %object
 2170              		.size	__func__.7891, 13
 2171              	__func__.7891:
 2172 0000 63684D74 		.ascii	"chMtxUnlockS\000"
 2172      78556E6C 
 2172      6F636B53 
 2172      00
 2173              		.text
 2174              	.Letext0:
 2175              		.file 6 "c:\\eclipse_e-puck2\\tools\\gcc-arm-none-eabi-7-2017-q4-major-win32\\arm-none-eabi\\inclu
 2176              		.file 7 "c:\\eclipse_e-puck2\\tools\\gcc-arm-none-eabi-7-2017-q4-major-win32\\arm-none-eabi\\inclu
 2177              		.file 8 "../../lib/e-puck2_main-processor/ChibiOS//os/rt/ports/ARMCMx/compilers/GCC/chtypes.h"
 2178              		.file 9 "../../lib/e-puck2_main-processor/ChibiOS//os/rt/include/chsystypes.h"
 2179              		.file 10 "../../lib/e-puck2_main-processor/ChibiOS//os/ext/CMSIS/include/core_cm4.h"
 2180              		.file 11 "../../lib/e-puck2_main-processor/ChibiOS//os/ext/CMSIS/ST/system_stm32f4xx.h"
 2181              		.file 12 "../../lib/e-puck2_main-processor/ChibiOS//os/rt/ports/ARMCMx/chcore.h"
 2182              		.file 13 "../../lib/e-puck2_main-processor/ChibiOS//os/rt/ports/ARMCMx/chcore_v7m.h"
 2183              		.file 14 "../../lib/e-puck2_main-processor/ChibiOS//os/rt/include/chdebug.h"
 2184              		.file 15 "../../lib/e-puck2_main-processor/ChibiOS//os/rt/include/chtm.h"
 2185              		.file 16 "../../lib/e-puck2_main-processor/ChibiOS//os/rt/include/chstats.h"
 2186              		.file 17 "../../lib/e-puck2_main-processor/ChibiOS//os/rt/include/chsem.h"
 2187              		.file 18 "../../lib/e-puck2_main-processor/ChibiOS//os/rt/include/chregistry.h"