ARM GAS  C:\Users\mathi\AppData\Local\Temp\ccEvPfPF.s 			page 1


   1              		.cpu cortex-m4
   2              		.eabi_attribute 27, 1
   3              		.eabi_attribute 28, 1
   4              		.eabi_attribute 20, 1
   5              		.eabi_attribute 21, 1
   6              		.eabi_attribute 23, 3
   7              		.eabi_attribute 24, 1
   8              		.eabi_attribute 25, 1
   9              		.eabi_attribute 26, 1
  10              		.eabi_attribute 30, 2
  11              		.eabi_attribute 34, 1
  12              		.eabi_attribute 18, 4
  13              		.file	"chprintf.c"
  14              		.text
  15              	.Ltext0:
  16              		.cfi_sections	.debug_frame
  17              		.global	__aeabi_d2f
  18              		.global	__aeabi_f2d
  19              		.global	__aeabi_ui2d
  20              		.global	__aeabi_i2d
  21              		.global	__aeabi_dsub
  22              		.global	__aeabi_dmul
  23              		.global	__aeabi_d2iz
  24              		.section	.text.chvprintf,"ax",%progbits
  25              		.align	1
  26              		.p2align 4,,15
  27              		.global	chvprintf
  28              		.syntax unified
  29              		.thumb
  30              		.thumb_func
  31              		.fpu fpv4-sp-d16
  32              		.type	chvprintf, %function
  33              	chvprintf:
  34              	.LFB260:
  35              		.file 1 "../../lib/e-puck2_main-processor/ChibiOS//os/hal/lib/streams/chprintf.c"
  36              		.loc 1 121 0
  37              		.cfi_startproc
  38              		@ args = 0, pretend = 0, frame = 88
  39              		@ frame_needed = 0, uses_anonymous_args = 0
  40              	.LVL0:
  41 0000 2DE9F04F 		push	{r4, r5, r6, r7, r8, r9, r10, fp, lr}
  42              		.cfi_def_cfa_offset 36
  43              		.cfi_offset 4, -36
  44              		.cfi_offset 5, -32
  45              		.cfi_offset 6, -28
  46              		.cfi_offset 7, -24
  47              		.cfi_offset 8, -20
  48              		.cfi_offset 9, -16
  49              		.cfi_offset 10, -12
  50              		.cfi_offset 11, -8
  51              		.cfi_offset 14, -4
  52 0004 2DED028B 		vpush.64	{d8}
  53              		.cfi_def_cfa_offset 44
  54              		.cfi_offset 80, -44
  55              		.cfi_offset 81, -40
  56 0008 A04B     		ldr	r3, .L251
  57 000a 97B0     		sub	sp, sp, #92
ARM GAS  C:\Users\mathi\AppData\Local\Temp\ccEvPfPF.s 			page 2


  58              		.cfi_def_cfa_offset 136
  59              		.loc 1 121 0
  60 000c 1B68     		ldr	r3, [r3]
  61 000e 1593     		str	r3, [sp, #84]
  62 0010 0746     		mov	r7, r0
  63 0012 0D46     		mov	r5, r1
  64 0014 9246     		mov	r10, r2
  65              	.LVL1:
  66              		.loc 1 124 0
  67 0016 4FF0000B 		mov	fp, #0
  68              	.LVL2:
  69              	.L2:
  70              		.loc 1 135 0
  71 001a 2978     		ldrb	r1, [r5]	@ zero_extendqisi2
  72 001c 6A1C     		adds	r2, r5, #1
  73              	.LVL3:
  74              		.loc 1 136 0
  75 001e 61B1     		cbz	r1, .L224
  76              	.L238:
  77              		.loc 1 138 0
  78 0020 2529     		cmp	r1, #37
  79 0022 16D0     		beq	.L4
  80              		.loc 1 139 0
  81 0024 3B68     		ldr	r3, [r7]
  82              		.loc 1 135 0
  83 0026 1546     		mov	r5, r2
  84              		.loc 1 139 0
  85 0028 9B68     		ldr	r3, [r3, #8]
  86 002a 3846     		mov	r0, r7
  87 002c 9847     		blx	r3
  88              	.LVL4:
  89              		.loc 1 135 0
  90 002e 2978     		ldrb	r1, [r5]	@ zero_extendqisi2
  91              		.loc 1 140 0
  92 0030 0BF1010B 		add	fp, fp, #1
  93              	.LVL5:
  94              		.loc 1 135 0
  95 0034 6A1C     		adds	r2, r5, #1
  96              	.LVL6:
  97              		.loc 1 136 0
  98 0036 0029     		cmp	r1, #0
  99 0038 F2D1     		bne	.L238
 100              	.L224:
 101              		.loc 1 277 0
 102 003a 944B     		ldr	r3, .L251
 103 003c 159A     		ldr	r2, [sp, #84]
 104              	.LVL7:
 105 003e 1B68     		ldr	r3, [r3]
 106 0040 9A42     		cmp	r2, r3
 107 0042 5846     		mov	r0, fp
 108 0044 40F07E84 		bne	.L239
 109              	.LVL8:
 110 0048 17B0     		add	sp, sp, #92
 111              		.cfi_remember_state
 112              		.cfi_def_cfa_offset 44
 113              		@ sp needed
 114 004a BDEC028B 		vldm	sp!, {d8}
ARM GAS  C:\Users\mathi\AppData\Local\Temp\ccEvPfPF.s 			page 3


 115              		.cfi_restore 80
 116              		.cfi_restore 81
 117              		.cfi_def_cfa_offset 36
 118 004e BDE8F08F 		pop	{r4, r5, r6, r7, r8, r9, r10, fp, pc}
 119              	.LVL9:
 120              	.L4:
 121              		.cfi_restore_state
 122              		.loc 1 146 0
 123 0052 6E78     		ldrb	r6, [r5, #1]	@ zero_extendqisi2
 124 0054 2D2E     		cmp	r6, #45
 125 0056 03BF     		ittte	eq
 126 0058 AE78     		ldrbeq	r6, [r5, #2]	@ zero_extendqisi2
 127              		.loc 1 147 0
 128 005a AA1C     		addeq	r2, r5, #2
 129              	.LVL10:
 130              		.loc 1 148 0
 131 005c 0123     		moveq	r3, #1
 132              		.loc 1 145 0
 133 005e 0023     		movne	r3, #0
 134              		.loc 1 151 0
 135 0060 302E     		cmp	r6, #48
 136              		.loc 1 145 0
 137 0062 0193     		str	r3, [sp, #4]
 138              	.LVL11:
 139 0064 0CBF     		ite	eq
 140 0066 0132     		addeq	r2, r2, #1
 141              	.LVL12:
 142              		.loc 1 150 0
 143 0068 2026     		movne	r6, #32
 144              	.LVL13:
 145              		.loc 1 155 0
 146 006a 0024     		movs	r4, #0
 147 006c 07E0     		b	.L10
 148              	.LVL14:
 149              	.L240:
 150              		.loc 1 161 0
 151 006e 9AF80030 		ldrb	r3, [r10]	@ zero_extendqisi2
 152              	.LVL15:
 153 0072 0AF1040A 		add	r10, r10, #4
 154              	.LVL16:
 155              	.L8:
 156              		.loc 1 164 0
 157 0076 04EB8404 		add	r4, r4, r4, lsl #2
 158              	.LVL17:
 159 007a 03EB4404 		add	r4, r3, r4, lsl #1
 160              	.LVL18:
 161              	.L10:
 162              		.loc 1 157 0
 163 007e 12F8011B 		ldrb	r1, [r2], #1	@ zero_extendqisi2
 164              	.LVL19:
 165              		.loc 1 158 0
 166 0082 A1F13003 		sub	r3, r1, #48
 167 0086 DBB2     		uxtb	r3, r3
 168 0088 092B     		cmp	r3, #9
 169 008a F4D9     		bls	.L8
 170              		.loc 1 160 0
 171 008c 2A29     		cmp	r1, #42
ARM GAS  C:\Users\mathi\AppData\Local\Temp\ccEvPfPF.s 			page 4


 172 008e EED0     		beq	.L240
 173              	.LVL20:
 174              		.loc 1 167 0
 175 0090 2E29     		cmp	r1, #46
 176              		.loc 1 166 0
 177 0092 4FF00009 		mov	r9, #0
 178              		.loc 1 167 0
 179 0096 4CD0     		beq	.L13
 180              	.LVL21:
 181              	.L11:
 182              		.loc 1 181 0
 183 0098 01F0DF03 		and	r3, r1, #223
 184 009c 4C2B     		cmp	r3, #76
 185 009e 02F10105 		add	r5, r2, #1
 186 00a2 50D0     		beq	.L241
 187              		.loc 1 187 0
 188 00a4 A1F14103 		sub	r3, r1, #65
 189              		.loc 1 190 0
 190 00a8 A1F14400 		sub	r0, r1, #68
 191              		.loc 1 187 0
 192 00ac DBB2     		uxtb	r3, r3
 193              	.LVL22:
 194              		.loc 1 190 0
 195 00ae 3428     		cmp	r0, #52
 196 00b0 00F2F882 		bhi	.L95
 197 00b4 DFE810F0 		tbh	[pc, r0, lsl #1]
 198              	.L19:
 199 00b8 C203     		.2byte	(.L18-.L19)/2
 200 00ba F602     		.2byte	(.L95-.L19)/2
 201 00bc F602     		.2byte	(.L95-.L19)/2
 202 00be F602     		.2byte	(.L95-.L19)/2
 203 00c0 F602     		.2byte	(.L95-.L19)/2
 204 00c2 C203     		.2byte	(.L18-.L19)/2
 205 00c4 F602     		.2byte	(.L95-.L19)/2
 206 00c6 F602     		.2byte	(.L95-.L19)/2
 207 00c8 F602     		.2byte	(.L95-.L19)/2
 208 00ca F602     		.2byte	(.L95-.L19)/2
 209 00cc F602     		.2byte	(.L95-.L19)/2
 210 00ce F202     		.2byte	(.L96-.L19)/2
 211 00d0 F602     		.2byte	(.L95-.L19)/2
 212 00d2 F602     		.2byte	(.L95-.L19)/2
 213 00d4 F602     		.2byte	(.L95-.L19)/2
 214 00d6 F602     		.2byte	(.L95-.L19)/2
 215 00d8 F602     		.2byte	(.L95-.L19)/2
 216 00da 9F02     		.2byte	(.L97-.L19)/2
 217 00dc F602     		.2byte	(.L95-.L19)/2
 218 00de F602     		.2byte	(.L95-.L19)/2
 219 00e0 CC03     		.2byte	(.L98-.L19)/2
 220 00e2 F602     		.2byte	(.L95-.L19)/2
 221 00e4 F602     		.2byte	(.L95-.L19)/2
 222 00e6 F602     		.2byte	(.L95-.L19)/2
 223 00e8 F602     		.2byte	(.L95-.L19)/2
 224 00ea F602     		.2byte	(.L95-.L19)/2
 225 00ec F602     		.2byte	(.L95-.L19)/2
 226 00ee F602     		.2byte	(.L95-.L19)/2
 227 00f0 F602     		.2byte	(.L95-.L19)/2
 228 00f2 F602     		.2byte	(.L95-.L19)/2
ARM GAS  C:\Users\mathi\AppData\Local\Temp\ccEvPfPF.s 			page 5


 229 00f4 F602     		.2byte	(.L95-.L19)/2
 230 00f6 5002     		.2byte	(.L99-.L19)/2
 231 00f8 C203     		.2byte	(.L18-.L19)/2
 232 00fa F602     		.2byte	(.L95-.L19)/2
 233 00fc AC00     		.2byte	(.L100-.L19)/2
 234 00fe F602     		.2byte	(.L95-.L19)/2
 235 0100 F602     		.2byte	(.L95-.L19)/2
 236 0102 C203     		.2byte	(.L18-.L19)/2
 237 0104 F602     		.2byte	(.L95-.L19)/2
 238 0106 F602     		.2byte	(.L95-.L19)/2
 239 0108 F602     		.2byte	(.L95-.L19)/2
 240 010a F602     		.2byte	(.L95-.L19)/2
 241 010c F602     		.2byte	(.L95-.L19)/2
 242 010e F202     		.2byte	(.L96-.L19)/2
 243 0110 F602     		.2byte	(.L95-.L19)/2
 244 0112 F602     		.2byte	(.L95-.L19)/2
 245 0114 F602     		.2byte	(.L95-.L19)/2
 246 0116 8800     		.2byte	(.L101-.L19)/2
 247 0118 F602     		.2byte	(.L95-.L19)/2
 248 011a 9F02     		.2byte	(.L97-.L19)/2
 249 011c F602     		.2byte	(.L95-.L19)/2
 250 011e F602     		.2byte	(.L95-.L19)/2
 251 0120 CC03     		.2byte	(.L98-.L19)/2
 252              	.LVL23:
 253              		.p2align 1
 254              	.L242:
 255              		.loc 1 173 0
 256 0122 9AF80030 		ldrb	r3, [r10]	@ zero_extendqisi2
 257              	.LVL24:
 258 0126 0AF1040A 		add	r10, r10, #4
 259              	.LVL25:
 260              	.L12:
 261              		.loc 1 176 0
 262 012a 09EB8909 		add	r9, r9, r9, lsl #2
 263              	.LVL26:
 264              		.loc 1 177 0
 265 012e 03EB4909 		add	r9, r3, r9, lsl #1
 266              	.LVL27:
 267              	.L13:
 268              		.loc 1 169 0
 269 0132 12F8011B 		ldrb	r1, [r2], #1	@ zero_extendqisi2
 270              	.LVL28:
 271              		.loc 1 170 0
 272 0136 A1F13003 		sub	r3, r1, #48
 273 013a DBB2     		uxtb	r3, r3
 274 013c 092B     		cmp	r3, #9
 275 013e F4D9     		bls	.L12
 276              		.loc 1 172 0
 277 0140 2A29     		cmp	r1, #42
 278 0142 EED0     		beq	.L242
 279 0144 A8E7     		b	.L11
 280              	.LVL29:
 281              	.L241:
 282              		.loc 1 183 0
 283 0146 1378     		ldrb	r3, [r2]	@ zero_extendqisi2
 284 0148 DBB3     		cbz	r3, .L243
 285              	.L15:
ARM GAS  C:\Users\mathi\AppData\Local\Temp\ccEvPfPF.s 			page 6


 286              	.LVL30:
 287              		.loc 1 190 0
 288 014a A3F14402 		sub	r2, r3, #68
 289 014e 342A     		cmp	r2, #52
 290 0150 00F2AA82 		bhi	.L17
 291 0154 DFE812F0 		tbh	[pc, r2, lsl #1]
 292              	.L88:
 293 0158 D402     		.2byte	(.L154-.L88)/2
 294 015a A802     		.2byte	(.L17-.L88)/2
 295 015c A802     		.2byte	(.L17-.L88)/2
 296 015e A802     		.2byte	(.L17-.L88)/2
 297 0160 A802     		.2byte	(.L17-.L88)/2
 298 0162 D402     		.2byte	(.L154-.L88)/2
 299 0164 A802     		.2byte	(.L17-.L88)/2
 300 0166 A802     		.2byte	(.L17-.L88)/2
 301 0168 A802     		.2byte	(.L17-.L88)/2
 302 016a A802     		.2byte	(.L17-.L88)/2
 303 016c A802     		.2byte	(.L17-.L88)/2
 304 016e A302     		.2byte	(.L20-.L88)/2
 305 0170 A802     		.2byte	(.L17-.L88)/2
 306 0172 A802     		.2byte	(.L17-.L88)/2
 307 0174 A802     		.2byte	(.L17-.L88)/2
 308 0176 A802     		.2byte	(.L17-.L88)/2
 309 0178 A802     		.2byte	(.L17-.L88)/2
 310 017a 5002     		.2byte	(.L21-.L88)/2
 311 017c A802     		.2byte	(.L17-.L88)/2
 312 017e A802     		.2byte	(.L17-.L88)/2
 313 0180 CE02     		.2byte	(.L120-.L88)/2
 314 0182 A802     		.2byte	(.L17-.L88)/2
 315 0184 A802     		.2byte	(.L17-.L88)/2
 316 0186 A802     		.2byte	(.L17-.L88)/2
 317 0188 A802     		.2byte	(.L17-.L88)/2
 318 018a A802     		.2byte	(.L17-.L88)/2
 319 018c A802     		.2byte	(.L17-.L88)/2
 320 018e A802     		.2byte	(.L17-.L88)/2
 321 0190 A802     		.2byte	(.L17-.L88)/2
 322 0192 A802     		.2byte	(.L17-.L88)/2
 323 0194 A802     		.2byte	(.L17-.L88)/2
 324 0196 0102     		.2byte	(.L23-.L88)/2
 325 0198 D402     		.2byte	(.L154-.L88)/2
 326 019a A802     		.2byte	(.L17-.L88)/2
 327 019c 5D00     		.2byte	(.L24-.L88)/2
 328 019e A802     		.2byte	(.L17-.L88)/2
 329 01a0 A802     		.2byte	(.L17-.L88)/2
 330 01a2 D402     		.2byte	(.L154-.L88)/2
 331 01a4 A802     		.2byte	(.L17-.L88)/2
 332 01a6 A802     		.2byte	(.L17-.L88)/2
 333 01a8 A802     		.2byte	(.L17-.L88)/2
 334 01aa A802     		.2byte	(.L17-.L88)/2
 335 01ac A802     		.2byte	(.L17-.L88)/2
 336 01ae A302     		.2byte	(.L20-.L88)/2
 337 01b0 A802     		.2byte	(.L17-.L88)/2
 338 01b2 A802     		.2byte	(.L17-.L88)/2
 339 01b4 A802     		.2byte	(.L17-.L88)/2
 340 01b6 3900     		.2byte	(.L25-.L88)/2
 341 01b8 A802     		.2byte	(.L17-.L88)/2
 342 01ba 5002     		.2byte	(.L21-.L88)/2
ARM GAS  C:\Users\mathi\AppData\Local\Temp\ccEvPfPF.s 			page 7


 343 01bc A802     		.2byte	(.L17-.L88)/2
 344 01be A802     		.2byte	(.L17-.L88)/2
 345 01c0 CE02     		.2byte	(.L120-.L88)/2
 346              	.LVL31:
 347              		.p2align 1
 348              	.L243:
 349              		.loc 1 183 0
 350 01c2 0B46     		mov	r3, r1
 351 01c4 1546     		mov	r5, r2
 352 01c6 C0E7     		b	.L15
 353              	.LVL32:
 354              	.L101:
 355              		.loc 1 190 0
 356 01c8 1546     		mov	r5, r2
 357              	.LVL33:
 358              	.L25:
 359              		.loc 1 197 0
 360 01ca DAF80080 		ldr	r8, [r10]
 361 01ce 0AF1040A 		add	r10, r10, #4
 362              	.LVL34:
 363 01d2 B8F1000F 		cmp	r8, #0
 364 01d6 00F04883 		beq	.L27
 365              	.LVL35:
 366 01da 98F80030 		ldrb	r3, [r8]	@ zero_extendqisi2
 367 01de 4146     		mov	r1, r8
 368              		.loc 1 199 0
 369 01e0 B9F1000F 		cmp	r9, #0
 370 01e4 40F05483 		bne	.L244
 371              	.LVL36:
 372              		.loc 1 201 0
 373 01e8 002B     		cmp	r3, #0
 374 01ea 00F0A683 		beq	.L245
 375              	.LVL37:
 376              	.L234:
 377 01ee 47F6FE79 		movw	r9, #32766
 378              	.L89:
 379              		.loc 1 201 0 is_stmt 0 discriminator 4
 380 01f2 4346     		mov	r3, r8
 381 01f4 02E0     		b	.L31
 382              	.LVL38:
 383              	.L30:
 384              		.loc 1 201 0 discriminator 3
 385 01f6 B9F10109 		subs	r9, r9, #1
 386              	.LVL39:
 387 01fa 03D4     		bmi	.L235
 388              	.LVL40:
 389              	.L31:
 390              		.loc 1 201 0 discriminator 4
 391 01fc 13F8012F 		ldrb	r2, [r3, #1]!	@ zero_extendqisi2
 392              	.LVL41:
 393 0200 002A     		cmp	r2, #0
 394 0202 F8D1     		bne	.L30
 395              	.L235:
 396 0204 5B1A     		subs	r3, r3, r1
 397              	.LVL42:
 398 0206 E41A     		subs	r4, r4, r3
 399              	.LVL43:
ARM GAS  C:\Users\mathi\AppData\Local\Temp\ccEvPfPF.s 			page 8


 400 0208 013B     		subs	r3, r3, #1
 401 020a 0093     		str	r3, [sp]
 402              		.loc 1 196 0 is_stmt 1
 403 020c 2026     		movs	r6, #32
 404 020e B0E1     		b	.L26
 405              	.LVL44:
 406              	.L100:
 407              		.loc 1 190 0
 408 0210 1546     		mov	r5, r2
 409              	.LVL45:
 410              	.L24:
 411              		.loc 1 220 0
 412 0212 0AF1070A 		add	r10, r10, #7
 413              	.LVL46:
 414 0216 2AF0070A 		bic	r10, r10, #7
 415              	.LVL47:
 416 021a DAE90001 		ldrd	r0, [r10]
 417 021e FFF7FEFF 		bl	__aeabi_d2f
 418              	.LVL48:
 419 0222 08EE100A 		vmov	s16, r0
 420              		.loc 1 221 0
 421 0226 B5EEC08A 		vcmpe.f32	s16, #0
 422 022a F1EE10FA 		vmrs	APSR_nzcv, FPSCR
 423              		.loc 1 220 0
 424 022e 0AF1080A 		add	r10, r10, #8
 425              	.LVL49:
 426              		.loc 1 221 0
 427 0232 00F11183 		bmi	.L246
 428              		.loc 1 143 0
 429 0236 0FAB     		add	r3, sp, #60
 430              	.LVL50:
 431 0238 0093     		str	r3, [sp]
 432              	.LVL51:
 433              	.L44:
 434              		.loc 1 225 0
 435 023a 18EE100A 		vmov	r0, s16
 436 023e FFF7FEFF 		bl	__aeabi_f2d
 437              	.LVL52:
 438              	.LBB26:
 439              	.LBB27:
 440              		.loc 1 83 0
 441 0242 09F1FF39 		add	r9, r9, #-1
 442              	.LVL53:
 443 0246 B9F1080F 		cmp	r9, #8
 444              	.LBE27:
 445              	.LBE26:
 446              		.loc 1 225 0
 447 024a CDE90401 		strd	r0, [sp, #16]
 448              	.LVL54:
 449              	.LBB57:
 450              	.LBB52:
 451              		.loc 1 83 0
 452 024e 00F22683 		bhi	.L108
 453 0252 0F4B     		ldr	r3, .L251+4
 454 0254 53F82980 		ldr	r8, [r3, r9, lsl #2]
 455 0258 4046     		mov	r0, r8
 456              	.LVL55:
ARM GAS  C:\Users\mathi\AppData\Local\Temp\ccEvPfPF.s 			page 9


 457 025a FFF7FEFF 		bl	__aeabi_ui2d
 458              	.LVL56:
 459 025e 0D4B     		ldr	r3, .L251+8
 460 0260 CDE90801 		strd	r0, [sp, #32]
 461 0264 A3FB0838 		umull	r3, r8, r3, r8
 462 0268 4FEAD803 		lsr	r3, r8, #3
 463 026c 0B93     		str	r3, [sp, #44]
 464 026e 9846     		mov	r8, r3
 465              	.L46:
 466              	.LVL57:
 467              	.LBB28:
 468              	.LBB29:
 469              		.loc 1 52 0
 470 0270 009B     		ldr	r3, [sp]
 471              		.loc 1 54 0
 472 0272 DFF820C0 		ldr	ip, .L251+8
 473              	.LBE29:
 474              	.LBE28:
 475              		.loc 1 87 0
 476 0276 FDEEC87A 		vcvt.s32.f32	s15, s16
 477              	.LBB35:
 478              	.LBB30:
 479              		.loc 1 52 0
 480 027a 03F10B0E 		add	lr, r3, #11
 481              	.LBE30:
 482              	.LBE35:
 483              		.loc 1 87 0
 484 027e CDED027A 		vstr.32	s15, [sp, #8]	@ int
 485              	.LVL58:
 486              	.LBB36:
 487              	.LBB31:
 488              		.loc 1 45 0
 489 0282 17EE901A 		vmov	r1, s15	@ int
 490              		.loc 1 52 0
 491 0286 7246     		mov	r2, lr
 492 0288 07E0     		b	.L47
 493              	.L252:
 494 028a 00BF     		.align	2
 495              	.L251:
 496 028c 00000000 		.word	__stack_chk_guard
 497 0290 00000000 		.word	.LANCHOR0
 498 0294 CDCCCCCC 		.word	-858993459
 499              	.LVL59:
 500              	.L109:
 501              		.loc 1 60 0
 502 0298 1A46     		mov	r2, r3
 503              	.LVL60:
 504              	.L47:
 505              		.loc 1 54 0
 506 029a ACFB0103 		umull	r0, r3, ip, r1
 507 029e DB08     		lsrs	r3, r3, #3
 508 02a0 03EB8309 		add	r9, r3, r3, lsl #2
 509 02a4 1846     		mov	r0, r3
 510 02a6 A1EB4903 		sub	r3, r1, r9, lsl #1
 511              	.LVL61:
 512              		.loc 1 55 0
 513 02aa 3033     		adds	r3, r3, #48
ARM GAS  C:\Users\mathi\AppData\Local\Temp\ccEvPfPF.s 			page 10


 514              	.LVL62:
 515              		.loc 1 58 0
 516 02ac 02F8013C 		strb	r3, [r2, #-1]
 517              		.loc 1 60 0
 518 02b0 0146     		mov	r1, r0
 519              	.LVL63:
 520              		.loc 1 58 0
 521 02b2 531E     		subs	r3, r2, #1
 522              	.LVL64:
 523              		.loc 1 60 0
 524 02b4 0028     		cmp	r0, #0
 525 02b6 EFD1     		bne	.L109
 526 02b8 D01C     		adds	r0, r2, #3
 527              	.LVL65:
 528 02ba 0392     		str	r2, [sp, #12]
 529 02bc 009A     		ldr	r2, [sp]
 530              		.loc 1 62 0
 531 02be 0793     		str	r3, [sp, #28]
 532 02c0 1146     		mov	r1, r2
 533              	.LVL66:
 534 02c2 0431     		adds	r1, r1, #4
 535 02c4 8B42     		cmp	r3, r1
 536 02c6 38BF     		it	cc
 537 02c8 8242     		cmpcc	r2, r0
 538 02ca AEEB030E 		sub	lr, lr, r3
 539              	.LVL67:
 540 02ce C0F0F982 		bcc	.L48
 541 02d2 BEF10B0F 		cmp	lr, #11
 542 02d6 40F2F582 		bls	.L48
 543 02da 5942     		negs	r1, r3
 544 02dc 01F00301 		and	r1, r1, #3
 545 02e0 0EF1FF3C 		add	ip, lr, #-1
 546 02e4 C81C     		adds	r0, r1, #3
 547 02e6 6045     		cmp	r0, ip
 548 02e8 CDF830C0 		str	ip, [sp, #48]
 549 02ec CDF818C0 		str	ip, [sp, #24]
 550 02f0 00F22083 		bhi	.L110
 551 02f4 0029     		cmp	r1, #0
 552 02f6 00F00883 		beq	.L111
 553              	.LVL68:
 554              		.loc 1 64 0
 555 02fa 009A     		ldr	r2, [sp]
 556 02fc 1878     		ldrb	r0, [r3]	@ zero_extendqisi2
 557 02fe 1070     		strb	r0, [r2]
 558 0300 0129     		cmp	r1, #1
 559 0302 02F10102 		add	r2, r2, #1
 560              	.LVL69:
 561 0306 0A92     		str	r2, [sp, #40]
 562              	.LVL70:
 563 0308 18D0     		beq	.L50
 564              	.LVL71:
 565 030a 009A     		ldr	r2, [sp]
 566              	.LVL72:
 567 030c 5878     		ldrb	r0, [r3, #1]	@ zero_extendqisi2
 568 030e 5070     		strb	r0, [r2, #1]
 569 0310 039A     		ldr	r2, [sp, #12]
 570 0312 0098     		ldr	r0, [sp]
ARM GAS  C:\Users\mathi\AppData\Local\Temp\ccEvPfPF.s 			page 11


 571 0314 0132     		adds	r2, r2, #1
 572 0316 0392     		str	r2, [sp, #12]
 573              	.LVL73:
 574 0318 821C     		adds	r2, r0, #2
 575              	.LVL74:
 576 031a 0A92     		str	r2, [sp, #40]
 577              	.LVL75:
 578 031c 0329     		cmp	r1, #3
 579              		.loc 1 65 0
 580 031e AEF10202 		sub	r2, lr, #2
 581              	.LVL76:
 582 0322 0692     		str	r2, [sp, #24]
 583 0324 0AD1     		bne	.L50
 584              	.LVL77:
 585              		.loc 1 64 0
 586 0326 DA1C     		adds	r2, r3, #3
 587              	.LVL78:
 588 0328 0392     		str	r2, [sp, #12]
 589              	.LVL79:
 590 032a C21C     		adds	r2, r0, #3
 591              	.LVL80:
 592 032c 93F802C0 		ldrb	ip, [r3, #2]	@ zero_extendqisi2
 593 0330 0A92     		str	r2, [sp, #40]
 594              	.LVL81:
 595              		.loc 1 65 0
 596 0332 AEF10302 		sub	r2, lr, #3
 597              	.LVL82:
 598              		.loc 1 64 0
 599 0336 80F802C0 		strb	ip, [r0, #2]
 600              		.loc 1 65 0
 601 033a 0692     		str	r2, [sp, #24]
 602              	.LVL83:
 603              	.L50:
 604 033c 0098     		ldr	r0, [sp]
 605              		.loc 1 62 0
 606 033e DDF80CC0 		ldr	ip, [sp, #12]
 607 0342 AEEB0102 		sub	r2, lr, r1
 608 0346 0B44     		add	r3, r3, r1
 609 0348 0D92     		str	r2, [sp, #52]
 610 034a 0144     		add	r1, r1, r0
 611 034c 4FEA9209 		lsr	r9, r2, #2
 612 0350 0020     		movs	r0, #0
 613              	.L52:
 614 0352 0130     		adds	r0, r0, #1
 615              		.loc 1 64 0
 616 0354 53F8042B 		ldr	r2, [r3], #4
 617 0358 41F8042B 		str	r2, [r1], #4	@ unaligned
 618 035c 8145     		cmp	r9, r0
 619 035e F8D8     		bhi	.L52
 620 0360 0D9A     		ldr	r2, [sp, #52]
 621 0362 0A9B     		ldr	r3, [sp, #40]
 622 0364 22F00301 		bic	r1, r2, #3
 623 0368 0B44     		add	r3, r3, r1
 624 036a 1846     		mov	r0, r3
 625 036c 069B     		ldr	r3, [sp, #24]
 626 036e E146     		mov	r9, ip
 627 0370 9142     		cmp	r1, r2
ARM GAS  C:\Users\mathi\AppData\Local\Temp\ccEvPfPF.s 			page 12


 628 0372 A3EB010C 		sub	ip, r3, r1
 629 0376 4B46     		mov	r3, r9
 630 0378 0B44     		add	r3, r3, r1
 631 037a 1AD0     		beq	.L55
 632              	.L49:
 633              	.LVL84:
 634 037c 1A78     		ldrb	r2, [r3]	@ zero_extendqisi2
 635 037e 0270     		strb	r2, [r0]
 636              	.LVL85:
 637              		.loc 1 65 0
 638 0380 BCF1010F 		cmp	ip, #1
 639 0384 15D0     		beq	.L55
 640              	.LVL86:
 641              		.loc 1 64 0
 642 0386 5A78     		ldrb	r2, [r3, #1]	@ zero_extendqisi2
 643 0388 4270     		strb	r2, [r0, #1]
 644              	.LVL87:
 645              		.loc 1 65 0
 646 038a BCF1020F 		cmp	ip, #2
 647 038e 10D0     		beq	.L55
 648              	.LVL88:
 649              		.loc 1 64 0
 650 0390 9A78     		ldrb	r2, [r3, #2]	@ zero_extendqisi2
 651 0392 8270     		strb	r2, [r0, #2]
 652              	.LVL89:
 653              		.loc 1 65 0
 654 0394 BCF1030F 		cmp	ip, #3
 655 0398 0BD0     		beq	.L55
 656              	.LVL90:
 657              		.loc 1 64 0
 658 039a DA78     		ldrb	r2, [r3, #3]	@ zero_extendqisi2
 659 039c C270     		strb	r2, [r0, #3]
 660              	.LVL91:
 661              		.loc 1 65 0
 662 039e BCF1040F 		cmp	ip, #4
 663 03a2 06D0     		beq	.L55
 664              	.LVL92:
 665              		.loc 1 64 0
 666 03a4 1A79     		ldrb	r2, [r3, #4]	@ zero_extendqisi2
 667 03a6 0271     		strb	r2, [r0, #4]
 668              	.LVL93:
 669              		.loc 1 65 0
 670 03a8 BCF1050F 		cmp	ip, #5
 671 03ac 01D0     		beq	.L55
 672              	.LVL94:
 673              		.loc 1 64 0
 674 03ae 5B79     		ldrb	r3, [r3, #5]	@ zero_extendqisi2
 675              	.LVL95:
 676 03b0 4371     		strb	r3, [r0, #5]
 677              	.LVL96:
 678              	.L55:
 679 03b2 0C9A     		ldr	r2, [sp, #48]
 680              	.LBE31:
 681              	.LBE36:
 682              		.loc 1 90 0
 683 03b4 0298     		ldr	r0, [sp, #8]
 684 03b6 9146     		mov	r9, r2
ARM GAS  C:\Users\mathi\AppData\Local\Temp\ccEvPfPF.s 			page 13


 685 03b8 009A     		ldr	r2, [sp]
 686              		.loc 1 89 0
 687 03ba 2E23     		movs	r3, #46
 688 03bc 02F80E30 		strb	r3, [r2, lr]
 689 03c0 9144     		add	r9, r9, r2
 690              	.LVL97:
 691              		.loc 1 90 0
 692 03c2 FFF7FEFF 		bl	__aeabi_i2d
 693              	.LVL98:
 694 03c6 0246     		mov	r2, r0
 695 03c8 0B46     		mov	r3, r1
 696 03ca DDE90401 		ldrd	r0, [sp, #16]
 697 03ce FFF7FEFF 		bl	__aeabi_dsub
 698              	.LVL99:
 699 03d2 DDE90823 		ldrd	r2, [sp, #32]
 700 03d6 FFF7FEFF 		bl	__aeabi_dmul
 701              	.LVL100:
 702 03da FFF7FEFF 		bl	__aeabi_d2iz
 703              	.LVL101:
 704              	.LBB37:
 705              	.LBB38:
 706              		.loc 1 47 0
 707 03de 0B9B     		ldr	r3, [sp, #44]
 708              		.loc 1 54 0
 709 03e0 C649     		ldr	r1, .L253
 710              		.loc 1 47 0
 711 03e2 002B     		cmp	r3, #0
 712 03e4 08BF     		it	eq
 713 03e6 8046     		moveq	r8, r0
 714              		.loc 1 52 0
 715 03e8 09F10D02 		add	r2, r9, #13
 716              	.LBE38:
 717              	.LBE37:
 718              		.loc 1 89 0
 719 03ec 09F10203 		add	r3, r9, #2
 720              	.LBB44:
 721              	.LBB39:
 722              		.loc 1 52 0
 723 03f0 0292     		str	r2, [sp, #8]
 724              	.LVL102:
 725              	.LBE39:
 726              	.LBE44:
 727              		.loc 1 89 0
 728 03f2 0393     		str	r3, [sp, #12]
 729              	.LVL103:
 730 03f4 C446     		mov	ip, r8
 731 03f6 00E0     		b	.L57
 732              	.LVL104:
 733              	.L113:
 734              	.LBB45:
 735              	.LBB40:
 736              		.loc 1 60 0
 737 03f8 1A46     		mov	r2, r3
 738              	.LVL105:
 739              	.L57:
 740              		.loc 1 54 0
 741 03fa A1FB00E3 		umull	lr, r3, r1, r0
ARM GAS  C:\Users\mathi\AppData\Local\Temp\ccEvPfPF.s 			page 14


 742 03fe DB08     		lsrs	r3, r3, #3
 743 0400 03EB8308 		add	r8, r3, r3, lsl #2
 744 0404 9E46     		mov	lr, r3
 745 0406 A0EB4803 		sub	r3, r0, r8, lsl #1
 746              	.LVL106:
 747              		.loc 1 60 0
 748 040a A1FB0C0C 		umull	r0, ip, r1, ip
 749              	.LVL107:
 750              		.loc 1 55 0
 751 040e 3033     		adds	r3, r3, #48
 752              	.LVL108:
 753              		.loc 1 60 0
 754 0410 5FEADC0C 		lsrs	ip, ip, #3
 755              		.loc 1 58 0
 756 0414 02F8013C 		strb	r3, [r2, #-1]
 757              		.loc 1 59 0
 758 0418 7046     		mov	r0, lr
 759              		.loc 1 58 0
 760 041a 02F1FF33 		add	r3, r2, #-1
 761              	.LVL109:
 762              		.loc 1 60 0
 763 041e EBD1     		bne	.L113
 764 0420 0098     		ldr	r0, [sp]
 765 0422 9446     		mov	ip, r2
 766 0424 079A     		ldr	r2, [sp, #28]
 767 0426 811A     		subs	r1, r0, r2
 768              		.loc 1 62 0
 769 0428 029A     		ldr	r2, [sp, #8]
 770 042a CDF808C0 		str	ip, [sp, #8]
 771 042e 01F10C08 		add	r8, r1, #12
 772 0432 1031     		adds	r1, r1, #16
 773 0434 A2EB030E 		sub	lr, r2, r3
 774              	.LVL110:
 775 0438 0144     		add	r1, r1, r0
 776 043a 00EB0802 		add	r2, r0, r8
 777 043e 0CF1030C 		add	ip, ip, #3
 778 0442 9942     		cmp	r1, r3
 779 0444 88BF     		it	hi
 780 0446 9445     		cmphi	ip, r2
 781 0448 7046     		mov	r0, lr
 782 044a 00F25382 		bhi	.L58
 783 044e BEF10B0F 		cmp	lr, #11
 784 0452 40F24F82 		bls	.L58
 785 0456 5942     		negs	r1, r3
 786 0458 01F00301 		and	r1, r1, #3
 787 045c 0EF1FF32 		add	r2, lr, #-1
 788 0460 01F1030C 		add	ip, r1, #3
 789 0464 9445     		cmp	ip, r2
 790 0466 0692     		str	r2, [sp, #24]
 791 0468 00F26182 		bhi	.L114
 792 046c 0029     		cmp	r1, #0
 793 046e 00F05282 		beq	.L115
 794              	.LVL111:
 795              		.loc 1 64 0
 796 0472 1878     		ldrb	r0, [r3]	@ zero_extendqisi2
 797 0474 89F80200 		strb	r0, [r9, #2]
 798 0478 09F10302 		add	r2, r9, #3
ARM GAS  C:\Users\mathi\AppData\Local\Temp\ccEvPfPF.s 			page 15


 799 047c 0129     		cmp	r1, #1
 800 047e 0492     		str	r2, [sp, #16]
 801              	.LVL112:
 802 0480 18D0     		beq	.L60
 803              	.LVL113:
 804 0482 029A     		ldr	r2, [sp, #8]
 805              	.LVL114:
 806 0484 5878     		ldrb	r0, [r3, #1]	@ zero_extendqisi2
 807 0486 89F80300 		strb	r0, [r9, #3]
 808 048a 0132     		adds	r2, r2, #1
 809 048c 0292     		str	r2, [sp, #8]
 810              	.LVL115:
 811 048e 09F10402 		add	r2, r9, #4
 812              	.LVL116:
 813 0492 0492     		str	r2, [sp, #16]
 814              	.LVL117:
 815 0494 0329     		cmp	r1, #3
 816              		.loc 1 65 0
 817 0496 AEF10202 		sub	r2, lr, #2
 818              	.LVL118:
 819 049a 0692     		str	r2, [sp, #24]
 820 049c 0AD1     		bne	.L60
 821              	.LVL119:
 822              		.loc 1 64 0
 823 049e 9A78     		ldrb	r2, [r3, #2]	@ zero_extendqisi2
 824              	.LVL120:
 825 04a0 89F80420 		strb	r2, [r9, #4]
 826 04a4 09F10502 		add	r2, r9, #5
 827 04a8 0492     		str	r2, [sp, #16]
 828              	.LVL121:
 829 04aa DA1C     		adds	r2, r3, #3
 830              	.LVL122:
 831 04ac 0292     		str	r2, [sp, #8]
 832              	.LVL123:
 833              		.loc 1 65 0
 834 04ae AEF10302 		sub	r2, lr, #3
 835              	.LVL124:
 836 04b2 0692     		str	r2, [sp, #24]
 837              	.LVL125:
 838              	.L60:
 839 04b4 009A     		ldr	r2, [sp]
 840              	.LBE40:
 841              	.LBE45:
 842              		.loc 1 89 0
 843 04b6 DDF808C0 		ldr	ip, [sp, #8]
 844 04ba 01EB0800 		add	r0, r1, r8
 845 04be 0244     		add	r2, r2, r0
 846 04c0 AEEB0108 		sub	r8, lr, r1
 847 04c4 0B44     		add	r3, r3, r1
 848 04c6 1046     		mov	r0, r2
 849 04c8 4FEA9809 		lsr	r9, r8, #2
 850 04cc 0021     		movs	r1, #0
 851              	.L62:
 852 04ce 0131     		adds	r1, r1, #1
 853              	.LBB46:
 854              	.LBB41:
 855              		.loc 1 64 0
ARM GAS  C:\Users\mathi\AppData\Local\Temp\ccEvPfPF.s 			page 16


 856 04d0 53F8042B 		ldr	r2, [r3], #4
 857 04d4 40F8042B 		str	r2, [r0], #4	@ unaligned
 858 04d8 8945     		cmp	r9, r1
 859 04da F8D8     		bhi	.L62
 860 04dc 049B     		ldr	r3, [sp, #16]
 861 04de 28F00301 		bic	r1, r8, #3
 862 04e2 0B44     		add	r3, r3, r1
 863 04e4 6246     		mov	r2, ip
 864 04e6 9C46     		mov	ip, r3
 865 04e8 069B     		ldr	r3, [sp, #24]
 866 04ea 4145     		cmp	r1, r8
 867 04ec A3EB0100 		sub	r0, r3, r1
 868 04f0 1346     		mov	r3, r2
 869 04f2 0B44     		add	r3, r3, r1
 870 04f4 1BD0     		beq	.L65
 871              	.L59:
 872              	.LVL126:
 873 04f6 1A78     		ldrb	r2, [r3]	@ zero_extendqisi2
 874 04f8 8CF80020 		strb	r2, [ip]
 875              		.loc 1 65 0
 876 04fc 0128     		cmp	r0, #1
 877 04fe 16D0     		beq	.L65
 878              	.LVL127:
 879              		.loc 1 64 0
 880 0500 5A78     		ldrb	r2, [r3, #1]	@ zero_extendqisi2
 881 0502 8CF80120 		strb	r2, [ip, #1]
 882              		.loc 1 65 0
 883 0506 0228     		cmp	r0, #2
 884 0508 11D0     		beq	.L65
 885              	.LVL128:
 886              		.loc 1 64 0
 887 050a 9A78     		ldrb	r2, [r3, #2]	@ zero_extendqisi2
 888 050c 8CF80220 		strb	r2, [ip, #2]
 889              		.loc 1 65 0
 890 0510 0328     		cmp	r0, #3
 891 0512 0CD0     		beq	.L65
 892              	.LVL129:
 893              		.loc 1 64 0
 894 0514 DA78     		ldrb	r2, [r3, #3]	@ zero_extendqisi2
 895 0516 8CF80320 		strb	r2, [ip, #3]
 896              		.loc 1 65 0
 897 051a 0428     		cmp	r0, #4
 898 051c 07D0     		beq	.L65
 899              	.LVL130:
 900              		.loc 1 64 0
 901 051e 1A79     		ldrb	r2, [r3, #4]	@ zero_extendqisi2
 902 0520 8CF80420 		strb	r2, [ip, #4]
 903              		.loc 1 65 0
 904 0524 0528     		cmp	r0, #5
 905 0526 02D0     		beq	.L65
 906              	.LVL131:
 907              		.loc 1 64 0
 908 0528 5B79     		ldrb	r3, [r3, #5]	@ zero_extendqisi2
 909              	.LVL132:
 910 052a 8CF80530 		strb	r3, [ip, #5]
 911              	.LVL133:
 912              	.L65:
ARM GAS  C:\Users\mathi\AppData\Local\Temp\ccEvPfPF.s 			page 17


 913 052e 039B     		ldr	r3, [sp, #12]
 914 0530 7344     		add	r3, r3, lr
 915 0532 9946     		mov	r9, r3
 916              	.LVL134:
 917              	.L236:
 918 0534 0FAB     		add	r3, sp, #60
 919              	.LVL135:
 920 0536 A9EB0309 		sub	r9, r9, r3
 921 053a A4EB0904 		sub	r4, r4, r9
 922              	.LVL136:
 923 053e 09F1FF33 		add	r3, r9, #-1
 924              	.LVL137:
 925              	.LBE41:
 926              	.LBE46:
 927              	.LBE52:
 928              	.LBE57:
 929              		.loc 1 251 0
 930 0542 002C     		cmp	r4, #0
 931 0544 0093     		str	r3, [sp]
 932              		.loc 1 144 0
 933 0546 0DF13C08 		add	r8, sp, #60
 934              	.LVL138:
 935              		.loc 1 251 0
 936 054a 14DA     		bge	.L76
 937              	.L247:
 938              	.LVL139:
 939              		.loc 1 266 0
 940 054c 009B     		ldr	r3, [sp]
 941 054e 002B     		cmp	r3, #0
 942 0550 FFF663AD 		blt	.L2
 943              		.loc 1 252 0
 944 0554 0024     		movs	r4, #0
 945 0556 2EE0     		b	.L85
 946              	.LVL140:
 947              	.L99:
 948              		.loc 1 190 0
 949 0558 1546     		mov	r5, r2
 950              	.LVL141:
 951              	.L23:
 952              		.loc 1 193 0
 953 055a 0DF15808 		add	r8, sp, #88
 954 055e DAF80030 		ldr	r3, [r10]
 955 0562 08F81C3D 		strb	r3, [r8, #-28]!
 956              		.loc 1 194 0
 957 0566 0023     		movs	r3, #0
 958 0568 013C     		subs	r4, r4, #1
 959              	.LVL142:
 960              		.loc 1 193 0
 961 056a 0AF1040A 		add	r10, r10, #4
 962              	.LVL143:
 963              		.loc 1 194 0
 964 056e 0093     		str	r3, [sp]
 965              		.loc 1 192 0
 966 0570 2026     		movs	r6, #32
 967              	.LVL144:
 968              	.L26:
 969              		.loc 1 251 0
ARM GAS  C:\Users\mathi\AppData\Local\Temp\ccEvPfPF.s 			page 18


 970 0572 002C     		cmp	r4, #0
 971 0574 EADB     		blt	.L247
 972              	.LVL145:
 973              	.L76:
 974              		.loc 1 253 0
 975 0576 019B     		ldr	r3, [sp, #4]
 976 0578 002B     		cmp	r3, #0
 977 057a 40F0A480 		bne	.L79
 978              		.loc 1 254 0
 979 057e 6342     		negs	r3, r4
 980              	.LVL146:
 981              		.loc 1 255 0
 982 0580 002C     		cmp	r4, #0
 983 0582 00F09F80 		beq	.L117
 984              		.loc 1 256 0
 985 0586 98F80010 		ldrb	r1, [r8]	@ zero_extendqisi2
 986 058a 3A68     		ldr	r2, [r7]
 987 058c 2D29     		cmp	r1, #45
 988 058e 9268     		ldr	r2, [r2, #8]
 989 0590 00F09E80 		beq	.L248
 990              	.L232:
 991 0594 9946     		mov	r9, r3
 992 0596 01E0     		b	.L82
 993              	.LVL147:
 994              	.L249:
 995 0598 3B68     		ldr	r3, [r7]
 996 059a 9A68     		ldr	r2, [r3, #8]
 997              	.LVL148:
 998              	.L82:
 999              		.loc 1 262 0 discriminator 1
 1000 059c 3146     		mov	r1, r6
 1001 059e 3846     		mov	r0, r7
 1002 05a0 9047     		blx	r2
 1003              	.LVL149:
 1004              		.loc 1 264 0 discriminator 1
 1005 05a2 19F10109 		adds	r9, r9, #1
 1006              	.LVL150:
 1007 05a6 F7D1     		bne	.L249
 1008              		.loc 1 266 0
 1009 05a8 009A     		ldr	r2, [sp]
 1010 05aa 002A     		cmp	r2, #0
 1011 05ac 4B46     		mov	r3, r9
 1012 05ae A344     		add	fp, fp, r4
 1013              	.LVL151:
 1014 05b0 FFF633AD 		blt	.L2
 1015 05b4 1C46     		mov	r4, r3
 1016              	.LVL152:
 1017              	.L85:
 1018              		.loc 1 254 0
 1019 05b6 DDF80090 		ldr	r9, [sp]
 1020              	.LVL153:
 1021              	.L83:
 1022              		.loc 1 267 0
 1023 05ba 3B68     		ldr	r3, [r7]
 1024 05bc 18F8011B 		ldrb	r1, [r8], #1	@ zero_extendqisi2
 1025              	.LVL154:
 1026 05c0 9B68     		ldr	r3, [r3, #8]
ARM GAS  C:\Users\mathi\AppData\Local\Temp\ccEvPfPF.s 			page 19


 1027              		.loc 1 266 0
 1028 05c2 09F1FF39 		add	r9, r9, #-1
 1029              	.LVL155:
 1030              		.loc 1 267 0
 1031 05c6 3846     		mov	r0, r7
 1032 05c8 9847     		blx	r3
 1033              	.LVL156:
 1034              		.loc 1 266 0
 1035 05ca B9F1FF3F 		cmp	r9, #-1
 1036 05ce F4D1     		bne	.L83
 1037 05d0 009B     		ldr	r3, [sp]
 1038 05d2 0BF1010B 		add	fp, fp, #1
 1039 05d6 5B44     		add	r3, r3, fp
 1040 05d8 9B46     		mov	fp, r3
 1041              	.LVL157:
 1042              	.L84:
 1043              		.loc 1 271 0
 1044 05da 002C     		cmp	r4, #0
 1045 05dc 3FF41DAD 		beq	.L2
 1046 05e0 A046     		mov	r8, r4
 1047              	.LVL158:
 1048              	.L86:
 1049              		.loc 1 272 0
 1050 05e2 3B68     		ldr	r3, [r7]
 1051 05e4 3146     		mov	r1, r6
 1052 05e6 9B68     		ldr	r3, [r3, #8]
 1053 05e8 3846     		mov	r0, r7
 1054 05ea 9847     		blx	r3
 1055              	.LVL159:
 1056              		.loc 1 271 0
 1057 05ec B8F10108 		subs	r8, r8, #1
 1058              	.LVL160:
 1059 05f0 F7D1     		bne	.L86
 1060 05f2 A344     		add	fp, fp, r4
 1061 05f4 11E5     		b	.L2
 1062              	.LVL161:
 1063              	.L97:
 1064              		.loc 1 190 0
 1065 05f6 1546     		mov	r5, r2
 1066              	.LVL162:
 1067              	.L21:
 1068              		.loc 1 235 0
 1069 05f8 4FF00A0C 		mov	ip, #10
 1070              	.LVL163:
 1071              	.L22:
 1072              	.LBB58:
 1073              	.LBB59:
 1074              	.LBB60:
 1075              		.loc 1 52 0
 1076 05fc 0DF14708 		add	r8, sp, #71
 1077 0600 5AF8042B 		ldr	r2, [r10], #4
 1078              	.LVL164:
 1079 0604 4346     		mov	r3, r8
 1080              	.L66:
 1081              	.LVL165:
 1082              		.loc 1 54 0
 1083 0606 B2FBFCF1 		udiv	r1, r2, ip
ARM GAS  C:\Users\mathi\AppData\Local\Temp\ccEvPfPF.s 			page 20


 1084 060a 0CFB1122 		mls	r2, ip, r1, r2
 1085              	.LVL166:
 1086              		.loc 1 55 0
 1087 060e 02F1300E 		add	lr, r2, #48
 1088              	.LVL167:
 1089              		.loc 1 56 0
 1090 0612 BEF1390F 		cmp	lr, #57
 1091 0616 4FDD     		ble	.L67
 1092              	.LVL168:
 1093              		.loc 1 57 0
 1094 0618 3732     		adds	r2, r2, #55
 1095              	.LVL169:
 1096              		.loc 1 58 0
 1097 061a 03F8012D 		strb	r2, [r3, #-1]!
 1098              	.LVL170:
 1099              		.loc 1 60 0
 1100 061e 0A46     		mov	r2, r1
 1101              	.LVL171:
 1102 0620 0029     		cmp	r1, #0
 1103 0622 F0D1     		bne	.L66
 1104              	.LVL172:
 1105              	.L69:
 1106 0624 1A1D     		adds	r2, r3, #4
 1107 0626 10A9     		add	r1, sp, #64
 1108              	.LVL173:
 1109 0628 0FA8     		add	r0, sp, #60
 1110              	.LVL174:
 1111 062a 8B42     		cmp	r3, r1
 1112 062c 38BF     		it	cc
 1113 062e 9042     		cmpcc	r0, r2
 1114              		.loc 1 62 0
 1115 0630 A8EB030E 		sub	lr, r8, r3
 1116              	.LVL175:
 1117 0634 C0F02281 		bcc	.L70
 1118 0638 BEF1080F 		cmp	lr, #8
 1119 063c 40F21E81 		bls	.L70
 1120 0640 0EF1FF39 		add	r9, lr, #-1
 1121              	.LVL176:
 1122 0644 B9F1020F 		cmp	r9, #2
 1123 0648 40F23981 		bls	.L116
 1124 064c 4FEA9E08 		lsr	r8, lr, #2
 1125 0650 1846     		mov	r0, r3
 1126              	.LVL177:
 1127 0652 0022     		movs	r2, #0
 1128 0654 0FA9     		add	r1, sp, #60
 1129              	.LVL178:
 1130 0656 9C46     		mov	ip, r3
 1131              	.LVL179:
 1132              	.L72:
 1133 0658 0132     		adds	r2, r2, #1
 1134              		.loc 1 64 0
 1135 065a 50F8043B 		ldr	r3, [r0], #4	@ unaligned
 1136 065e 41F8043B 		str	r3, [r1], #4
 1137 0662 4245     		cmp	r2, r8
 1138 0664 F8D3     		bcc	.L72
 1139 0666 2EF00302 		bic	r2, lr, #3
 1140 066a 6346     		mov	r3, ip
ARM GAS  C:\Users\mathi\AppData\Local\Temp\ccEvPfPF.s 			page 21


 1141 066c 0FA9     		add	r1, sp, #60
 1142              	.LVL180:
 1143 066e 7245     		cmp	r2, lr
 1144 0670 1344     		add	r3, r3, r2
 1145 0672 1144     		add	r1, r1, r2
 1146              	.LVL181:
 1147 0674 AEEB0200 		sub	r0, lr, r2
 1148 0678 09D0     		beq	.L75
 1149              	.L71:
 1150              	.LVL182:
 1151 067a 1A78     		ldrb	r2, [r3]	@ zero_extendqisi2
 1152 067c 0A70     		strb	r2, [r1]
 1153              	.LVL183:
 1154              		.loc 1 65 0
 1155 067e 0128     		cmp	r0, #1
 1156 0680 05D0     		beq	.L75
 1157              	.LVL184:
 1158              		.loc 1 64 0
 1159 0682 5A78     		ldrb	r2, [r3, #1]	@ zero_extendqisi2
 1160 0684 4A70     		strb	r2, [r1, #1]
 1161              	.LVL185:
 1162              		.loc 1 65 0
 1163 0686 0228     		cmp	r0, #2
 1164 0688 01D0     		beq	.L75
 1165              	.LVL186:
 1166              		.loc 1 64 0
 1167 068a 9B78     		ldrb	r3, [r3, #2]	@ zero_extendqisi2
 1168              	.LVL187:
 1169 068c 8B70     		strb	r3, [r1, #2]
 1170              	.LVL188:
 1171              	.L75:
 1172 068e A4EB0E04 		sub	r4, r4, lr
 1173              	.LVL189:
 1174 0692 CDF80090 		str	r9, [sp]
 1175              	.LBE60:
 1176              	.LBE59:
 1177              	.LBE58:
 1178              		.loc 1 144 0
 1179 0696 0DF13C08 		add	r8, sp, #60
 1180              	.LVL190:
 1181 069a 6AE7     		b	.L26
 1182              	.LVL191:
 1183              	.L96:
 1184              		.loc 1 190 0
 1185 069c 1546     		mov	r5, r2
 1186              	.LVL192:
 1187              	.L20:
 1188              		.loc 1 236 0
 1189 069e 4FF0080C 		mov	ip, #8
 1190 06a2 ABE7     		b	.L22
 1191              	.LVL193:
 1192              	.L95:
 1193              		.loc 1 190 0
 1194 06a4 0B46     		mov	r3, r1
 1195              	.LVL194:
 1196 06a6 1546     		mov	r5, r2
 1197              	.LVL195:
ARM GAS  C:\Users\mathi\AppData\Local\Temp\ccEvPfPF.s 			page 22


 1198              	.L17:
 1199              		.loc 1 247 0
 1200 06a8 0DF15808 		add	r8, sp, #88
 1201 06ac 013C     		subs	r4, r4, #1
 1202              	.LVL196:
 1203 06ae 08F81C3D 		strb	r3, [r8, #-28]!
 1204              		.loc 1 248 0
 1205 06b2 0023     		movs	r3, #0
 1206              	.LVL197:
 1207 06b4 0093     		str	r3, [sp]
 1208 06b6 5CE7     		b	.L26
 1209              	.LVL198:
 1210              	.L67:
 1211              	.LBB67:
 1212              	.LBB64:
 1213              	.LBB61:
 1214              		.loc 1 58 0
 1215 06b8 03F801ED 		strb	lr, [r3, #-1]!
 1216              	.LVL199:
 1217              		.loc 1 60 0
 1218 06bc 0A46     		mov	r2, r1
 1219 06be 0029     		cmp	r1, #0
 1220 06c0 A1D1     		bne	.L66
 1221 06c2 AFE7     		b	.L69
 1222              	.LVL200:
 1223              	.L117:
 1224              	.LBE61:
 1225              	.LBE64:
 1226              	.LBE67:
 1227              		.loc 1 254 0
 1228 06c4 1C46     		mov	r4, r3
 1229              	.LVL201:
 1230              	.L79:
 1231              		.loc 1 266 0
 1232 06c6 009B     		ldr	r3, [sp]
 1233 06c8 002B     		cmp	r3, #0
 1234 06ca BFF674AF 		bge	.L85
 1235 06ce 84E7     		b	.L84
 1236              	.LVL202:
 1237              	.L248:
 1238              		.loc 1 256 0 discriminator 1
 1239 06d0 302E     		cmp	r6, #48
 1240 06d2 7FF45FAF 		bne	.L232
 1241              		.loc 1 257 0
 1242 06d6 3846     		mov	r0, r7
 1243 06d8 0193     		str	r3, [sp, #4]
 1244              	.LVL203:
 1245 06da 9047     		blx	r2
 1246              	.LVL204:
 1247 06dc 009B     		ldr	r3, [sp]
 1248 06de 3A68     		ldr	r2, [r7]
 1249 06e0 013B     		subs	r3, r3, #1
 1250 06e2 0093     		str	r3, [sp]
 1251 06e4 019B     		ldr	r3, [sp, #4]
 1252 06e6 9268     		ldr	r2, [r2, #8]
 1253 06e8 0BF1010B 		add	fp, fp, #1
 1254              	.LVL205:
ARM GAS  C:\Users\mathi\AppData\Local\Temp\ccEvPfPF.s 			page 23


 1255 06ec 08F10108 		add	r8, r8, #1
 1256              	.LVL206:
 1257 06f0 9946     		mov	r9, r3
 1258 06f2 53E7     		b	.L82
 1259              	.LVL207:
 1260              	.L120:
 1261              		.loc 1 190 0
 1262 06f4 4FF0100C 		mov	ip, #16
 1263 06f8 80E7     		b	.L22
 1264              	.L254:
 1265 06fa 00BF     		.align	2
 1266              	.L253:
 1267 06fc CDCCCCCC 		.word	-858993459
 1268              	.L154:
 1269 0700 0AF10400 		add	r0, r10, #4
 1270              	.LVL208:
 1271              	.L33:
 1272              		.loc 1 209 0
 1273 0704 DAF80010 		ldr	r1, [r10]
 1274 0708 8246     		mov	r10, r0
 1275              	.LVL209:
 1276              	.L32:
 1277              		.loc 1 212 0
 1278 070a 0029     		cmp	r1, #0
 1279 070c C0F2D080 		blt	.L250
 1280              		.loc 1 143 0
 1281 0710 0DF13C09 		add	r9, sp, #60
 1282              	.LVL210:
 1283              	.L34:
 1284              	.LBB68:
 1285              	.LBB69:
 1286              	.LBB70:
 1287              		.loc 1 52 0
 1288 0714 09F10B0E 		add	lr, r9, #11
 1289              	.LVL211:
 1290 0718 7246     		mov	r2, lr
 1291              		.loc 1 54 0
 1292 071a DFF838C2 		ldr	ip, .L255+12
 1293 071e 00E0     		b	.L35
 1294              	.LVL212:
 1295              	.L104:
 1296              		.loc 1 60 0
 1297 0720 1A46     		mov	r2, r3
 1298              	.LVL213:
 1299              	.L35:
 1300              		.loc 1 54 0
 1301 0722 ACFB0103 		umull	r0, r3, ip, r1
 1302 0726 DB08     		lsrs	r3, r3, #3
 1303 0728 03EB8308 		add	r8, r3, r3, lsl #2
 1304 072c 1846     		mov	r0, r3
 1305 072e A1EB4803 		sub	r3, r1, r8, lsl #1
 1306              	.LVL214:
 1307              		.loc 1 55 0
 1308 0732 3033     		adds	r3, r3, #48
 1309              	.LVL215:
 1310              		.loc 1 58 0
 1311 0734 02F8013C 		strb	r3, [r2, #-1]
ARM GAS  C:\Users\mathi\AppData\Local\Temp\ccEvPfPF.s 			page 24


 1312              		.loc 1 60 0
 1313 0738 0146     		mov	r1, r0
 1314              	.LVL216:
 1315              		.loc 1 58 0
 1316 073a 531E     		subs	r3, r2, #1
 1317              	.LVL217:
 1318              		.loc 1 60 0
 1319 073c 0028     		cmp	r0, #0
 1320 073e EFD1     		bne	.L104
 1321 0740 02F1030C 		add	ip, r2, #3
 1322 0744 09F10401 		add	r1, r9, #4
 1323              		.loc 1 62 0
 1324 0748 AEEB0300 		sub	r0, lr, r3
 1325              	.LVL218:
 1326 074c 8B42     		cmp	r3, r1
 1327 074e 38BF     		it	cc
 1328 0750 E145     		cmpcc	r9, ip
 1329 0752 0090     		str	r0, [sp]
 1330              	.LVL219:
 1331 0754 0290     		str	r0, [sp, #8]
 1332 0756 C0F0C280 		bcc	.L36
 1333 075a 0B28     		cmp	r0, #11
 1334 075c 40F2BF80 		bls	.L36
 1335 0760 5942     		negs	r1, r3
 1336 0762 01F0030E 		and	lr, r1, #3
 1337 0766 0EF1030C 		add	ip, lr, #3
 1338 076a 411E     		subs	r1, r0, #1
 1339 076c 8C45     		cmp	ip, r1
 1340 076e 0391     		str	r1, [sp, #12]
 1341 0770 00F2DB80 		bhi	.L105
 1342 0774 BEF1000F 		cmp	lr, #0
 1343 0778 00F0D380 		beq	.L106
 1344              	.LVL220:
 1345              		.loc 1 64 0
 1346 077c 1878     		ldrb	r0, [r3]	@ zero_extendqisi2
 1347              	.LVL221:
 1348 077e 89F80000 		strb	r0, [r9]
 1349 0782 09F10101 		add	r1, r9, #1
 1350 0786 BEF1010F 		cmp	lr, #1
 1351 078a 0291     		str	r1, [sp, #8]
 1352              	.LVL222:
 1353 078c 17D0     		beq	.L38
 1354              	.LVL223:
 1355 078e 5878     		ldrb	r0, [r3, #1]	@ zero_extendqisi2
 1356 0790 89F80100 		strb	r0, [r9, #1]
 1357              		.loc 1 65 0
 1358 0794 0098     		ldr	r0, [sp]
 1359              		.loc 1 64 0
 1360 0796 09F10201 		add	r1, r9, #2
 1361              	.LVL224:
 1362 079a 0291     		str	r1, [sp, #8]
 1363              	.LVL225:
 1364 079c BEF1030F 		cmp	lr, #3
 1365              		.loc 1 65 0
 1366 07a0 A0F10201 		sub	r1, r0, #2
 1367              		.loc 1 64 0
 1368 07a4 02F10102 		add	r2, r2, #1
ARM GAS  C:\Users\mathi\AppData\Local\Temp\ccEvPfPF.s 			page 25


 1369              	.LVL226:
 1370              		.loc 1 65 0
 1371 07a8 0391     		str	r1, [sp, #12]
 1372 07aa 08D1     		bne	.L38
 1373              	.LVL227:
 1374              		.loc 1 64 0
 1375 07ac 09F10301 		add	r1, r9, #3
 1376              	.LVL228:
 1377 07b0 9A78     		ldrb	r2, [r3, #2]	@ zero_extendqisi2
 1378 07b2 0291     		str	r1, [sp, #8]
 1379              	.LVL229:
 1380              		.loc 1 65 0
 1381 07b4 C11E     		subs	r1, r0, #3
 1382              		.loc 1 64 0
 1383 07b6 89F80220 		strb	r2, [r9, #2]
 1384              		.loc 1 65 0
 1385 07ba 0391     		str	r1, [sp, #12]
 1386              	.LVL230:
 1387              		.loc 1 64 0
 1388 07bc DA1C     		adds	r2, r3, #3
 1389              	.LVL231:
 1390              	.L38:
 1391 07be 0099     		ldr	r1, [sp]
 1392 07c0 A1EB0E08 		sub	r8, r1, lr
 1393 07c4 7344     		add	r3, r3, lr
 1394 07c6 0EEB0901 		add	r1, lr, r9
 1395              		.loc 1 62 0
 1396 07ca 0020     		movs	r0, #0
 1397 07cc 4FEA980E 		lsr	lr, r8, #2
 1398 07d0 9446     		mov	ip, r2
 1399              	.L40:
 1400 07d2 0130     		adds	r0, r0, #1
 1401              		.loc 1 64 0
 1402 07d4 53F8042B 		ldr	r2, [r3], #4
 1403 07d8 41F8042B 		str	r2, [r1], #4	@ unaligned
 1404 07dc 7045     		cmp	r0, lr
 1405 07de F8D3     		bcc	.L40
 1406 07e0 029B     		ldr	r3, [sp, #8]
 1407 07e2 28F00301 		bic	r1, r8, #3
 1408 07e6 0B44     		add	r3, r3, r1
 1409 07e8 6246     		mov	r2, ip
 1410 07ea 9C46     		mov	ip, r3
 1411 07ec 039B     		ldr	r3, [sp, #12]
 1412 07ee 4145     		cmp	r1, r8
 1413 07f0 A3EB0103 		sub	r3, r3, r1
 1414 07f4 0293     		str	r3, [sp, #8]
 1415 07f6 02EB0103 		add	r3, r2, r1
 1416 07fa 1CD0     		beq	.L43
 1417              	.L37:
 1418              	.LVL232:
 1419              		.loc 1 65 0
 1420 07fc 0299     		ldr	r1, [sp, #8]
 1421              		.loc 1 64 0
 1422 07fe 1A78     		ldrb	r2, [r3]	@ zero_extendqisi2
 1423 0800 8CF80020 		strb	r2, [ip]
 1424              		.loc 1 65 0
 1425 0804 0129     		cmp	r1, #1
ARM GAS  C:\Users\mathi\AppData\Local\Temp\ccEvPfPF.s 			page 26


 1426 0806 16D0     		beq	.L43
 1427              	.LVL233:
 1428              		.loc 1 64 0
 1429 0808 5A78     		ldrb	r2, [r3, #1]	@ zero_extendqisi2
 1430 080a 8CF80120 		strb	r2, [ip, #1]
 1431              		.loc 1 65 0
 1432 080e 0229     		cmp	r1, #2
 1433 0810 11D0     		beq	.L43
 1434              	.LVL234:
 1435              		.loc 1 64 0
 1436 0812 9A78     		ldrb	r2, [r3, #2]	@ zero_extendqisi2
 1437 0814 8CF80220 		strb	r2, [ip, #2]
 1438              		.loc 1 65 0
 1439 0818 0329     		cmp	r1, #3
 1440 081a 0CD0     		beq	.L43
 1441              	.LVL235:
 1442              		.loc 1 64 0
 1443 081c DA78     		ldrb	r2, [r3, #3]	@ zero_extendqisi2
 1444 081e 8CF80320 		strb	r2, [ip, #3]
 1445              		.loc 1 65 0
 1446 0822 0429     		cmp	r1, #4
 1447 0824 07D0     		beq	.L43
 1448              	.LVL236:
 1449              		.loc 1 64 0
 1450 0826 1A79     		ldrb	r2, [r3, #4]	@ zero_extendqisi2
 1451 0828 8CF80420 		strb	r2, [ip, #4]
 1452              		.loc 1 65 0
 1453 082c 0529     		cmp	r1, #5
 1454 082e 02D0     		beq	.L43
 1455              	.LVL237:
 1456              		.loc 1 64 0
 1457 0830 5B79     		ldrb	r3, [r3, #5]	@ zero_extendqisi2
 1458              	.LVL238:
 1459 0832 8CF80530 		strb	r3, [ip, #5]
 1460              	.LVL239:
 1461              	.L43:
 1462 0836 009B     		ldr	r3, [sp]
 1463 0838 9944     		add	r9, r9, r3
 1464              	.LVL240:
 1465 083a 7BE6     		b	.L236
 1466              	.LVL241:
 1467              	.L18:
 1468 083c 5046     		mov	r0, r10
 1469              	.LBE70:
 1470              	.LBE69:
 1471              	.LBE68:
 1472              		.loc 1 208 0
 1473 083e 192B     		cmp	r3, #25
 1474 0840 50F8041B 		ldr	r1, [r0], #4
 1475              	.LVL242:
 1476 0844 1546     		mov	r5, r2
 1477              		.loc 1 211 0
 1478 0846 88BF     		it	hi
 1479 0848 8246     		movhi	r10, r0
 1480              	.LVL243:
 1481              		.loc 1 208 0
 1482 084a 3FF65EAF 		bhi	.L32
ARM GAS  C:\Users\mathi\AppData\Local\Temp\ccEvPfPF.s 			page 27


 1483 084e 59E7     		b	.L33
 1484              	.LVL244:
 1485              	.L98:
 1486              		.loc 1 190 0
 1487 0850 1546     		mov	r5, r2
 1488 0852 4FF0100C 		mov	ip, #16
 1489 0856 D1E6     		b	.L22
 1490              	.LVL245:
 1491              	.L246:
 1492              		.loc 1 222 0
 1493 0858 2D23     		movs	r3, #45
 1494 085a 8DF83C30 		strb	r3, [sp, #60]
 1495 085e 0DF13D03 		add	r3, sp, #61
 1496              	.LVL246:
 1497              		.loc 1 223 0
 1498 0862 B1EE488A 		vneg.f32	s16, s16
 1499              	.LVL247:
 1500              		.loc 1 222 0
 1501 0866 0093     		str	r3, [sp]
 1502 0868 E7E4     		b	.L44
 1503              	.LVL248:
 1504              	.L27:
 1505 086a 3949     		ldr	r1, .L255+8
 1506              		.loc 1 199 0
 1507 086c 8846     		mov	r8, r1
 1508 086e B9F1000F 		cmp	r9, #0
 1509 0872 3FF4BCAC 		beq	.L234
 1510              	.LVL249:
 1511              	.L90:
 1512              		.loc 1 201 0
 1513 0876 09F1FF39 		add	r9, r9, #-1
 1514              	.LVL250:
 1515 087a BAE4     		b	.L89
 1516              	.LVL251:
 1517              	.L70:
 1518 087c 0FAA     		add	r2, sp, #60
 1519              	.LVL252:
 1520              	.L74:
 1521              	.LBB75:
 1522              	.LBB65:
 1523              	.LBB62:
 1524              		.loc 1 64 0
 1525 087e 13F8011B 		ldrb	r1, [r3], #1	@ zero_extendqisi2
 1526              	.LVL253:
 1527 0882 02F8011B 		strb	r1, [r2], #1
 1528              		.loc 1 65 0
 1529 0886 4345     		cmp	r3, r8
 1530 0888 F9D1     		bne	.L74
 1531 088a 0EF1FF39 		add	r9, lr, #-1
 1532              	.LVL254:
 1533 088e FEE6     		b	.L75
 1534              	.LVL255:
 1535              	.L244:
 1536              	.LBE62:
 1537              	.LBE65:
 1538              	.LBE75:
 1539              		.loc 1 201 0
ARM GAS  C:\Users\mathi\AppData\Local\Temp\ccEvPfPF.s 			page 28


 1540 0890 002B     		cmp	r3, #0
 1541 0892 F0D1     		bne	.L90
 1542 0894 4FF0FF33 		mov	r3, #-1
 1543 0898 0093     		str	r3, [sp]
 1544              		.loc 1 196 0
 1545 089a 2026     		movs	r6, #32
 1546 089c 69E6     		b	.L26
 1547              	.LVL256:
 1548              	.L108:
 1549              	.LBB76:
 1550              	.LBB53:
 1551              		.loc 1 83 0
 1552 089e 9FED2A7B 		vldr.64	d7, .L255
 1553 08a2 DFF8B480 		ldr	r8, .L255+16
 1554 08a6 CDF82C80 		str	r8, [sp, #44]
 1555 08aa 8DED087B 		vstr.64	d7, [sp, #32]
 1556 08ae DFE4     		b	.L46
 1557              	.LVL257:
 1558              	.L250:
 1559              	.LBE53:
 1560              	.LBE76:
 1561              		.loc 1 213 0
 1562 08b0 2D23     		movs	r3, #45
 1563              		.loc 1 214 0
 1564 08b2 4942     		negs	r1, r1
 1565              	.LVL258:
 1566              		.loc 1 213 0
 1567 08b4 8DF83C30 		strb	r3, [sp, #60]
 1568 08b8 0DF13D09 		add	r9, sp, #61
 1569              	.LVL259:
 1570 08bc 2AE7     		b	.L34
 1571              	.LVL260:
 1572              	.L116:
 1573              	.LBB77:
 1574              	.LBB66:
 1575              	.LBB63:
 1576              		.loc 1 62 0
 1577 08be 7046     		mov	r0, lr
 1578              	.LVL261:
 1579 08c0 0FA9     		add	r1, sp, #60
 1580              	.LVL262:
 1581 08c2 DAE6     		b	.L71
 1582              	.LVL263:
 1583              	.L48:
 1584 08c4 013A     		subs	r2, r2, #1
 1585 08c6 03EB0E00 		add	r0, r3, lr
 1586              	.LVL264:
 1587              	.L54:
 1588              	.LBE63:
 1589              	.LBE66:
 1590              	.LBE77:
 1591              	.LBB78:
 1592              	.LBB54:
 1593              	.LBB47:
 1594              	.LBB32:
 1595              		.loc 1 64 0
 1596 08ca 13F8011B 		ldrb	r1, [r3], #1	@ zero_extendqisi2
ARM GAS  C:\Users\mathi\AppData\Local\Temp\ccEvPfPF.s 			page 29


 1597              	.LVL265:
 1598 08ce 02F8011F 		strb	r1, [r2, #1]!
 1599              		.loc 1 65 0
 1600 08d2 8342     		cmp	r3, r0
 1601 08d4 F9D1     		bne	.L54
 1602 08d6 0EF1FF33 		add	r3, lr, #-1
 1603              	.LVL266:
 1604 08da 0C93     		str	r3, [sp, #48]
 1605 08dc 69E5     		b	.L55
 1606              	.LVL267:
 1607              	.L36:
 1608 08de 0099     		ldr	r1, [sp]
 1609 08e0 09F1FF32 		add	r2, r9, #-1
 1610 08e4 5818     		adds	r0, r3, r1
 1611              	.LVL268:
 1612              	.L42:
 1613              	.LBE32:
 1614              	.LBE47:
 1615              	.LBE54:
 1616              	.LBE78:
 1617              	.LBB79:
 1618              	.LBB73:
 1619              	.LBB71:
 1620              		.loc 1 64 0
 1621 08e6 13F8011B 		ldrb	r1, [r3], #1	@ zero_extendqisi2
 1622              	.LVL269:
 1623 08ea 02F8011F 		strb	r1, [r2, #1]!
 1624              		.loc 1 65 0
 1625 08ee 9842     		cmp	r0, r3
 1626 08f0 F9D1     		bne	.L42
 1627 08f2 A0E7     		b	.L43
 1628              	.LVL270:
 1629              	.L58:
 1630 08f4 09F10102 		add	r2, r9, #1
 1631 08f8 03EB0E00 		add	r0, r3, lr
 1632              	.LVL271:
 1633              	.L64:
 1634              	.LBE71:
 1635              	.LBE73:
 1636              	.LBE79:
 1637              	.LBB80:
 1638              	.LBB55:
 1639              	.LBB48:
 1640              	.LBB42:
 1641              		.loc 1 64 0
 1642 08fc 13F8011B 		ldrb	r1, [r3], #1	@ zero_extendqisi2
 1643              	.LVL272:
 1644 0900 02F8011F 		strb	r1, [r2, #1]!
 1645              		.loc 1 65 0
 1646 0904 9842     		cmp	r0, r3
 1647 0906 F9D1     		bne	.L64
 1648 0908 11E6     		b	.L65
 1649              	.LVL273:
 1650              	.L111:
 1651              	.LBE42:
 1652              	.LBE48:
 1653              	.LBB49:
ARM GAS  C:\Users\mathi\AppData\Local\Temp\ccEvPfPF.s 			page 30


 1654              	.LBB33:
 1655              		.loc 1 62 0
 1656 090a 009A     		ldr	r2, [sp]
 1657 090c 0393     		str	r3, [sp, #12]
 1658 090e CDF818E0 		str	lr, [sp, #24]
 1659 0912 0A92     		str	r2, [sp, #40]
 1660 0914 12E5     		b	.L50
 1661              	.LVL274:
 1662              	.L115:
 1663              	.LBE33:
 1664              	.LBE49:
 1665              		.loc 1 89 0
 1666 0916 039A     		ldr	r2, [sp, #12]
 1667              	.LBB50:
 1668              	.LBB43:
 1669              		.loc 1 62 0
 1670 0918 0293     		str	r3, [sp, #8]
 1671 091a CDF818E0 		str	lr, [sp, #24]
 1672              	.LBE43:
 1673              	.LBE50:
 1674              		.loc 1 89 0
 1675 091e 0492     		str	r2, [sp, #16]
 1676              	.LVL275:
 1677 0920 C8E5     		b	.L60
 1678              	.LVL276:
 1679              	.L106:
 1680              	.LBE55:
 1681              	.LBE80:
 1682              	.LBB81:
 1683              	.LBB74:
 1684              	.LBB72:
 1685              		.loc 1 62 0
 1686 0922 1A46     		mov	r2, r3
 1687 0924 CDE90290 		strd	r9, r0, [sp, #8]
 1688 0928 49E7     		b	.L38
 1689              	.L105:
 1690 092a CC46     		mov	ip, r9
 1691 092c 66E7     		b	.L37
 1692              	.LVL277:
 1693              	.L114:
 1694              	.LBE72:
 1695              	.LBE74:
 1696              	.LBE81:
 1697              	.LBB82:
 1698              	.LBB56:
 1699              		.loc 1 89 0
 1700 092e DDF80CC0 		ldr	ip, [sp, #12]
 1701 0932 E0E5     		b	.L59
 1702              	.LVL278:
 1703              	.L110:
 1704              	.LBB51:
 1705              	.LBB34:
 1706              		.loc 1 62 0
 1707 0934 F446     		mov	ip, lr
 1708 0936 0098     		ldr	r0, [sp]
 1709 0938 20E5     		b	.L49
 1710              	.LVL279:
ARM GAS  C:\Users\mathi\AppData\Local\Temp\ccEvPfPF.s 			page 31


 1711              	.L245:
 1712              	.LBE34:
 1713              	.LBE51:
 1714              	.LBE56:
 1715              	.LBE82:
 1716              		.loc 1 201 0
 1717 093a 4FF0FF33 		mov	r3, #-1
 1718 093e 0093     		str	r3, [sp]
 1719              		.loc 1 196 0
 1720 0940 2026     		movs	r6, #32
 1721 0942 18E6     		b	.L76
 1722              	.LVL280:
 1723              	.L239:
 1724              		.loc 1 277 0
 1725 0944 FFF7FEFF 		bl	__stack_chk_fail
 1726              	.LVL281:
 1727              	.L256:
 1728              		.align	3
 1729              	.L255:
 1730 0948 00000000 		.word	0
 1731 094c 65CDCD41 		.word	1104006501
 1732 0950 00000000 		.word	.LC0
 1733 0954 CDCCCCCC 		.word	-858993459
 1734 0958 00E1F505 		.word	100000000
 1735              		.cfi_endproc
 1736              	.LFE260:
 1737              		.size	chvprintf, .-chvprintf
 1738              		.section	.text.chsnprintf,"ax",%progbits
 1739              		.align	1
 1740              		.p2align 4,,15
 1741              		.global	chsnprintf
 1742              		.syntax unified
 1743              		.thumb
 1744              		.thumb_func
 1745              		.fpu fpv4-sp-d16
 1746              		.type	chsnprintf, %function
 1747              	chsnprintf:
 1748              	.LFB261:
 1749              		.loc 1 307 0
 1750              		.cfi_startproc
 1751              		@ args = 4, pretend = 8, frame = 32
 1752              		@ frame_needed = 0, uses_anonymous_args = 1
 1753              	.LVL282:
 1754 0000 0CB4     		push	{r2, r3}
 1755              		.cfi_def_cfa_offset 8
 1756              		.cfi_offset 2, -8
 1757              		.cfi_offset 3, -4
 1758 0002 F0B5     		push	{r4, r5, r6, r7, lr}
 1759              		.cfi_def_cfa_offset 28
 1760              		.cfi_offset 4, -28
 1761              		.cfi_offset 5, -24
 1762              		.cfi_offset 6, -20
 1763              		.cfi_offset 7, -16
 1764              		.cfi_offset 14, -12
 1765 0004 194D     		ldr	r5, .L263
 1766 0006 89B0     		sub	sp, sp, #36
 1767              		.cfi_def_cfa_offset 64
ARM GAS  C:\Users\mathi\AppData\Local\Temp\ccEvPfPF.s 			page 32


 1768              		.loc 1 307 0
 1769 0008 2B68     		ldr	r3, [r5]
 1770 000a 0E9F     		ldr	r7, [sp, #56]
 1771 000c 0793     		str	r3, [sp, #28]
 1772 000e 0646     		mov	r6, r0
 1773              		.loc 1 314 0
 1774 0010 0C46     		mov	r4, r1
 1775 0012 D1B1     		cbz	r1, .L258
 1776              	.LVL283:
 1777              		.loc 1 321 0
 1778 0014 4A1E     		subs	r2, r1, #1
 1779              	.LVL284:
 1780 0016 02A8     		add	r0, sp, #8
 1781              	.LVL285:
 1782 0018 0023     		movs	r3, #0
 1783 001a 3146     		mov	r1, r6
 1784              	.LVL286:
 1785 001c FFF7FEFF 		bl	msObjectInit
 1786              	.LVL287:
 1787              		.loc 1 325 0
 1788 0020 0FAB     		add	r3, sp, #60
 1789              		.loc 1 326 0
 1790 0022 1A46     		mov	r2, r3
 1791 0024 02A8     		add	r0, sp, #8
 1792              	.LVL288:
 1793 0026 3946     		mov	r1, r7
 1794              		.loc 1 325 0
 1795 0028 0193     		str	r3, [sp, #4]
 1796              		.loc 1 326 0
 1797 002a FFF7FEFF 		bl	chvprintf
 1798              	.LVL289:
 1799              		.loc 1 330 0
 1800 002e 059B     		ldr	r3, [sp, #20]
 1801 0030 A342     		cmp	r3, r4
 1802 0032 01D2     		bcs	.L257
 1803              		.loc 1 331 0
 1804 0034 0022     		movs	r2, #0
 1805 0036 F254     		strb	r2, [r6, r3]
 1806              	.LVL290:
 1807              	.L257:
 1808              		.loc 1 335 0
 1809 0038 079A     		ldr	r2, [sp, #28]
 1810 003a 2B68     		ldr	r3, [r5]
 1811 003c 9A42     		cmp	r2, r3
 1812 003e 12D1     		bne	.L262
 1813 0040 09B0     		add	sp, sp, #36
 1814              		.cfi_remember_state
 1815              		.cfi_def_cfa_offset 28
 1816              		@ sp needed
 1817 0042 BDE8F040 		pop	{r4, r5, r6, r7, lr}
 1818              		.cfi_restore 14
 1819              		.cfi_restore 7
 1820              		.cfi_restore 6
 1821              		.cfi_restore 5
 1822              		.cfi_restore 4
 1823              		.cfi_def_cfa_offset 8
 1824              	.LVL291:
ARM GAS  C:\Users\mathi\AppData\Local\Temp\ccEvPfPF.s 			page 33


 1825 0046 02B0     		add	sp, sp, #8
 1826              		.cfi_restore 3
 1827              		.cfi_restore 2
 1828              		.cfi_def_cfa_offset 0
 1829 0048 7047     		bx	lr
 1830              	.LVL292:
 1831              	.L258:
 1832              		.cfi_restore_state
 1833              		.loc 1 321 0
 1834 004a 0146     		mov	r1, r0
 1835              	.LVL293:
 1836 004c 2346     		mov	r3, r4
 1837 004e 02A8     		add	r0, sp, #8
 1838              	.LVL294:
 1839 0050 2246     		mov	r2, r4
 1840 0052 FFF7FEFF 		bl	msObjectInit
 1841              	.LVL295:
 1842              		.loc 1 325 0
 1843 0056 0FAB     		add	r3, sp, #60
 1844              		.loc 1 326 0
 1845 0058 02A8     		add	r0, sp, #8
 1846              	.LVL296:
 1847 005a 3946     		mov	r1, r7
 1848 005c 1A46     		mov	r2, r3
 1849              		.loc 1 325 0
 1850 005e 0193     		str	r3, [sp, #4]
 1851              		.loc 1 326 0
 1852 0060 FFF7FEFF 		bl	chvprintf
 1853              	.LVL297:
 1854 0064 E8E7     		b	.L257
 1855              	.LVL298:
 1856              	.L262:
 1857              		.loc 1 335 0
 1858 0066 FFF7FEFF 		bl	__stack_chk_fail
 1859              	.LVL299:
 1860              	.L264:
 1861 006a 00BF     		.align	2
 1862              	.L263:
 1863 006c 00000000 		.word	__stack_chk_guard
 1864              		.cfi_endproc
 1865              	.LFE261:
 1866              		.size	chsnprintf, .-chsnprintf
 1867              		.section	.rodata.chvprintf.str1.4,"aMS",%progbits,1
 1868              		.align	2
 1869              	.LC0:
 1870 0000 286E756C 		.ascii	"(null)\000"
 1870      6C2900
 1871              		.section	.rodata.pow10,"a",%progbits
 1872              		.align	2
 1873              		.set	.LANCHOR0,. + 0
 1874              		.type	pow10, %object
 1875              		.size	pow10, 36
 1876              	pow10:
 1877 0000 0A000000 		.word	10
 1878 0004 64000000 		.word	100
 1879 0008 E8030000 		.word	1000
 1880 000c 10270000 		.word	10000
ARM GAS  C:\Users\mathi\AppData\Local\Temp\ccEvPfPF.s 			page 34


 1881 0010 A0860100 		.word	100000
 1882 0014 40420F00 		.word	1000000
 1883 0018 80969800 		.word	10000000
 1884 001c 00E1F505 		.word	100000000
 1885 0020 00CA9A3B 		.word	1000000000
 1886              		.text
 1887              	.Letext0:
 1888              		.file 2 "c:\\eclipse_e-puck2\\tools\\gcc-arm-none-eabi-7-2017-q4-major-win32\\lib\\gcc\\arm-none-e
 1889              		.file 3 "c:\\eclipse_e-puck2\\tools\\gcc-arm-none-eabi-7-2017-q4-major-win32\\arm-none-eabi\\inclu
 1890              		.file 4 "c:\\eclipse_e-puck2\\tools\\gcc-arm-none-eabi-7-2017-q4-major-win32\\arm-none-eabi\\inclu
 1891              		.file 5 "../../lib/e-puck2_main-processor/ChibiOS//os/rt/ports/ARMCMx/compilers/GCC/chtypes.h"
 1892              		.file 6 "../../lib/e-puck2_main-processor/ChibiOS//os/rt/include/chsystypes.h"
 1893              		.file 7 "../../lib/e-puck2_main-processor/ChibiOS//os/rt/include/chschd.h"
 1894              		.file 8 "../../lib/e-puck2_main-processor/ChibiOS//os/ext/CMSIS/include/core_cm4.h"
 1895              		.file 9 "../../lib/e-puck2_main-processor/ChibiOS//os/ext/CMSIS/ST/system_stm32f4xx.h"
 1896              		.file 10 "../../lib/e-puck2_main-processor/ChibiOS//os/ext/CMSIS/ST/stm32f407xx.h"
 1897              		.file 11 "../../lib/e-puck2_main-processor/ChibiOS//os/rt/ports/ARMCMx/chcore.h"
 1898              		.file 12 "../../lib/e-puck2_main-processor/ChibiOS//os/rt/ports/ARMCMx/chcore_v7m.h"
 1899              		.file 13 "../../lib/e-puck2_main-processor/ChibiOS//os/rt/include/chdebug.h"
 1900              		.file 14 "../../lib/e-puck2_main-processor/ChibiOS//os/rt/include/chtm.h"
 1901              		.file 15 "../../lib/e-puck2_main-processor/ChibiOS//os/rt/include/chstats.h"
 1902              		.file 16 "../../lib/e-puck2_main-processor/ChibiOS//os/rt/include/chsem.h"
 1903              		.file 17 "../../lib/e-puck2_main-processor/ChibiOS//os/rt/include/chmtx.h"
 1904              		.file 18 "../../lib/e-puck2_main-processor/ChibiOS//os/rt/include/chregistry.h"
 1905              		.file 19 "../../lib/e-puck2_main-processor/ChibiOS//os/rt/include/chevents.h"
 1906              		.file 20 "../../lib/e-puck2_main-processor/ChibiOS//os/rt/include/chqueues.h"
 1907              		.file 21 "../../lib/e-puck2_main-processor/ChibiOS//os/rt/include/chstreams.h"
 1908              		.file 22 "../../lib/e-puck2_main-processor/ChibiOS//os/hal/ports/STM32/STM32F4xx/stm32_dma.h"
 1909              		.file 23 "../../lib/e-puck2_main-processor/ChibiOS//os/hal/include/hal_ioblock.h"
 1910              		.file 24 "../../lib/e-puck2_main-processor/ChibiOS//os/hal/ports/STM32/LLD/GPIOv2/pal_lld.h"
 1911              		.file 25 "../../lib/e-puck2_main-processor/ChibiOS//os/hal/include/adc.h"
 1912              		.file 26 "../../lib/e-puck2_main-processor/ChibiOS//os/hal/ports/STM32/STM32F4xx/adc_lld.h"
 1913              		.file 27 "../../lib/e-puck2_main-processor/ChibiOS//os/hal/include/can.h"
 1914              		.file 28 "../../lib/e-puck2_main-processor/ChibiOS//os/hal/ports/STM32/LLD/can_lld.h"
 1915              		.file 29 "../../lib/e-puck2_main-processor/ChibiOS//os/hal/include/dac.h"
 1916              		.file 30 "../../lib/e-puck2_main-processor/ChibiOS//os/hal/ports/STM32/LLD/DACv1/dac_lld.h"
 1917              		.file 31 "../../lib/e-puck2_main-processor/ChibiOS//os/hal/include/ext.h"
 1918              		.file 32 "../../lib/e-puck2_main-processor/ChibiOS//os/hal/ports/STM32/LLD/ext_lld.h"
 1919              		.file 33 "../../lib/e-puck2_main-processor/ChibiOS//os/hal/include/gpt.h"
 1920              		.file 34 "../../lib/e-puck2_main-processor/ChibiOS//os/hal/ports/STM32/LLD/TIMv1/gpt_lld.h"
 1921              		.file 35 "../../lib/e-puck2_main-processor/ChibiOS//os/hal/ports/STM32/LLD/TIMv1/stm32_tim.h"
 1922              		.file 36 "../../lib/e-puck2_main-processor/ChibiOS//os/hal/include/i2c.h"
 1923              		.file 37 "../../lib/e-puck2_main-processor/ChibiOS//os/hal/ports/STM32/LLD/I2Cv1/i2c_lld.h"
 1924              		.file 38 "../../lib/e-puck2_main-processor/ChibiOS//os/hal/include/i2s.h"
 1925              		.file 39 "../../lib/e-puck2_main-processor/ChibiOS//os/hal/ports/STM32/LLD/SPIv1/i2s_lld.h"
 1926              		.file 40 "../../lib/e-puck2_main-processor/ChibiOS//os/hal/include/pwm.h"
 1927              		.file 41 "../../lib/e-puck2_main-processor/ChibiOS//os/hal/ports/STM32/LLD/TIMv1/pwm_lld.h"
 1928              		.file 42 "../../lib/e-puck2_main-processor/ChibiOS//os/hal/include/serial.h"
 1929              		.file 43 "../../lib/e-puck2_main-processor/ChibiOS//os/hal/ports/STM32/LLD/USARTv1/serial_lld.h"
 1930              		.file 44 "../../lib/e-puck2_main-processor/ChibiOS//os/hal/include/sdc.h"
 1931              		.file 45 "../../lib/e-puck2_main-processor/ChibiOS//os/hal/ports/STM32/LLD/sdc_lld.h"
 1932              		.file 46 "../../lib/e-puck2_main-processor/ChibiOS//os/hal/include/spi.h"
 1933              		.file 47 "../../lib/e-puck2_main-processor/ChibiOS//os/hal/ports/STM32/LLD/SPIv1/spi_lld.h"
 1934              		.file 48 "../../lib/e-puck2_main-processor/ChibiOS//os/hal/include/usb.h"
 1935              		.file 49 "../../lib/e-puck2_main-processor/ChibiOS//os/hal/ports/STM32/LLD/OTGv1/usb_lld.h"
 1936              		.file 50 "../../lib/e-puck2_main-processor/ChibiOS//os/hal/ports/STM32/LLD/OTGv1/stm32_otg.h"
 1937              		.file 51 "c:\\eclipse_e-puck2\\tools\\gcc-arm-none-eabi-7-2017-q4-major-win32\\lib\\gcc\\arm-none-
ARM GAS  C:\Users\mathi\AppData\Local\Temp\ccEvPfPF.s 			page 35


 1938              		.file 52 "<built-in>"
 1939              		.file 53 "../../lib/e-puck2_main-processor/ChibiOS//os/hal/lib/streams/memstreams.h"