ARM GAS  C:\Users\mathi\AppData\Local\Temp\cciADa79.s 			page 1


   1              		.cpu cortex-m4
   2              		.eabi_attribute 27, 1
   3              		.eabi_attribute 28, 1
   4              		.eabi_attribute 20, 1
   5              		.eabi_attribute 21, 1
   6              		.eabi_attribute 23, 3
   7              		.eabi_attribute 24, 1
   8              		.eabi_attribute 25, 1
   9              		.eabi_attribute 26, 1
  10              		.eabi_attribute 30, 2
  11              		.eabi_attribute 34, 1
  12              		.eabi_attribute 18, 4
  13              		.file	"chqueues.c"
  14              		.text
  15              	.Ltext0:
  16              		.cfi_sections	.debug_frame
  17              		.section	.text.chIQObjectInit,"ax",%progbits
  18              		.align	1
  19              		.p2align 4,,15
  20              		.global	chIQObjectInit
  21              		.syntax unified
  22              		.thumb
  23              		.thumb_func
  24              		.fpu fpv4-sp-d16
  25              		.type	chIQObjectInit, %function
  26              	chIQObjectInit:
  27              	.LFB219:
  28              		.file 1 "../../lib/e-puck2_main-processor/ChibiOS//os/rt/src/chqueues.c"
  29              		.loc 1 88 0
  30              		.cfi_startproc
  31              		@ args = 4, pretend = 0, frame = 8
  32              		@ frame_needed = 0, uses_anonymous_args = 0
  33              	.LVL0:
  34 0000 70B5     		push	{r4, r5, r6, lr}
  35              		.cfi_def_cfa_offset 16
  36              		.cfi_offset 4, -16
  37              		.cfi_offset 5, -12
  38              		.cfi_offset 6, -8
  39              		.cfi_offset 14, -4
  40 0002 0C4C     		ldr	r4, .L6
  41              		.loc 1 92 0
  42 0004 C160     		str	r1, [r0, #12]
  43              		.loc 1 88 0
  44 0006 82B0     		sub	sp, sp, #8
  45              		.cfi_def_cfa_offset 24
  46              		.loc 1 88 0
  47 0008 2668     		ldr	r6, [r4]
  48 000a 0196     		str	r6, [sp, #4]
  49              	.LVL1:
  50              		.loc 1 95 0
  51 000c 0A44     		add	r2, r2, r1
  52              	.LVL2:
  53              	.LBB68:
  54              	.LBB69:
  55              	.LBB70:
  56              		.file 2 "../../lib/e-puck2_main-processor/ChibiOS//os/rt/include/chschd.h"
  57              		.loc 2 604 0
ARM GAS  C:\Users\mathi\AppData\Local\Temp\cciADa79.s 			page 2


  58 000e 0060     		str	r0, [r0]
  59              	.LBE70:
  60              	.LBE69:
  61              	.LBE68:
  62              		.loc 1 98 0
  63 0010 019E     		ldr	r6, [sp, #4]
  64              		.loc 1 95 0
  65 0012 0261     		str	r2, [r0, #16]
  66              		.loc 1 98 0
  67 0014 2268     		ldr	r2, [r4]
  68              		.loc 1 88 0
  69 0016 069D     		ldr	r5, [sp, #24]
  70              	.LBB73:
  71              	.LBB72:
  72              	.LBB71:
  73              		.loc 2 605 0
  74 0018 4060     		str	r0, [r0, #4]
  75              	.LVL3:
  76              	.LBE71:
  77              	.LBE72:
  78              	.LBE73:
  79              		.loc 1 94 0
  80 001a C0E90511 		strd	r1, r1, [r0, #20]
  81              		.loc 1 98 0
  82 001e 9642     		cmp	r6, r2
  83              		.loc 1 91 0
  84 0020 4FF00001 		mov	r1, #0
  85              	.LVL4:
  86              		.loc 1 96 0
  87 0024 C361     		str	r3, [r0, #28]
  88              		.loc 1 91 0
  89 0026 8160     		str	r1, [r0, #8]
  90              		.loc 1 97 0
  91 0028 0562     		str	r5, [r0, #32]
  92              		.loc 1 98 0
  93 002a 01D1     		bne	.L5
  94 002c 02B0     		add	sp, sp, #8
  95              		.cfi_remember_state
  96              		.cfi_def_cfa_offset 16
  97              		@ sp needed
  98 002e 70BD     		pop	{r4, r5, r6, pc}
  99              	.LVL5:
 100              	.L5:
 101              		.cfi_restore_state
 102 0030 FFF7FEFF 		bl	__stack_chk_fail
 103              	.LVL6:
 104              	.L7:
 105              		.align	2
 106              	.L6:
 107 0034 00000000 		.word	__stack_chk_guard
 108              		.cfi_endproc
 109              	.LFE219:
 110              		.size	chIQObjectInit, .-chIQObjectInit
 111              		.section	.text.chIQResetI,"ax",%progbits
 112              		.align	1
 113              		.p2align 4,,15
 114              		.global	chIQResetI
ARM GAS  C:\Users\mathi\AppData\Local\Temp\cciADa79.s 			page 3


 115              		.syntax unified
 116              		.thumb
 117              		.thumb_func
 118              		.fpu fpv4-sp-d16
 119              		.type	chIQResetI, %function
 120              	chIQResetI:
 121              	.LFB220:
 122              		.loc 1 111 0
 123              		.cfi_startproc
 124              		@ args = 0, pretend = 0, frame = 8
 125              		@ frame_needed = 0, uses_anonymous_args = 0
 126              	.LVL7:
 127 0000 30B5     		push	{r4, r5, lr}
 128              		.cfi_def_cfa_offset 12
 129              		.cfi_offset 4, -12
 130              		.cfi_offset 5, -8
 131              		.cfi_offset 14, -4
 132 0002 0D4D     		ldr	r5, .L13
 133 0004 83B0     		sub	sp, sp, #12
 134              		.cfi_def_cfa_offset 24
 135              		.loc 1 111 0
 136 0006 2B68     		ldr	r3, [r5]
 137 0008 0193     		str	r3, [sp, #4]
 138 000a 0446     		mov	r4, r0
 139              		.loc 1 113 0
 140 000c FFF7FEFF 		bl	chDbgCheckClassI
 141              	.LVL8:
 142              		.loc 1 118 0
 143 0010 0199     		ldr	r1, [sp, #4]
 144 0012 2A68     		ldr	r2, [r5]
 145              		.loc 1 115 0
 146 0014 E368     		ldr	r3, [r4, #12]
 147 0016 A361     		str	r3, [r4, #24]
 148              		.loc 1 117 0
 149 0018 0020     		movs	r0, #0
 150              		.loc 1 118 0
 151 001a 9142     		cmp	r1, r2
 152              		.loc 1 117 0
 153 001c A060     		str	r0, [r4, #8]
 154              		.loc 1 116 0
 155 001e 6361     		str	r3, [r4, #20]
 156              		.loc 1 118 0
 157 0020 07D1     		bne	.L12
 158 0022 2046     		mov	r0, r4
 159 0024 6FF00101 		mvn	r1, #1
 160              		.loc 1 119 0
 161 0028 03B0     		add	sp, sp, #12
 162              		.cfi_remember_state
 163              		.cfi_def_cfa_offset 12
 164              		@ sp needed
 165 002a BDE83040 		pop	{r4, r5, lr}
 166              		.cfi_restore 14
 167              		.cfi_restore 5
 168              		.cfi_restore 4
 169              		.cfi_def_cfa_offset 0
 170              	.LVL9:
 171              		.loc 1 118 0
ARM GAS  C:\Users\mathi\AppData\Local\Temp\cciADa79.s 			page 4


 172 002e FFF7FEBF 		b	chThdDequeueAllI
 173              	.LVL10:
 174              	.L12:
 175              		.cfi_restore_state
 176 0032 FFF7FEFF 		bl	__stack_chk_fail
 177              	.LVL11:
 178              	.L14:
 179 0036 00BF     		.align	2
 180              	.L13:
 181 0038 00000000 		.word	__stack_chk_guard
 182              		.cfi_endproc
 183              	.LFE220:
 184              		.size	chIQResetI, .-chIQResetI
 185              		.section	.text.chIQPutI,"ax",%progbits
 186              		.align	1
 187              		.p2align 4,,15
 188              		.global	chIQPutI
 189              		.syntax unified
 190              		.thumb
 191              		.thumb_func
 192              		.fpu fpv4-sp-d16
 193              		.type	chIQPutI, %function
 194              	chIQPutI:
 195              	.LFB221:
 196              		.loc 1 134 0
 197              		.cfi_startproc
 198              		@ args = 0, pretend = 0, frame = 8
 199              		@ frame_needed = 0, uses_anonymous_args = 0
 200              	.LVL12:
 201 0000 70B5     		push	{r4, r5, r6, lr}
 202              		.cfi_def_cfa_offset 16
 203              		.cfi_offset 4, -16
 204              		.cfi_offset 5, -12
 205              		.cfi_offset 6, -8
 206              		.cfi_offset 14, -4
 207 0002 164D     		ldr	r5, .L26
 208 0004 82B0     		sub	sp, sp, #8
 209              		.cfi_def_cfa_offset 24
 210              		.loc 1 134 0
 211 0006 0446     		mov	r4, r0
 212 0008 2B68     		ldr	r3, [r5]
 213 000a 0193     		str	r3, [sp, #4]
 214 000c 0E46     		mov	r6, r1
 215              		.loc 1 136 0
 216 000e FFF7FEFF 		bl	chDbgCheckClassI
 217              	.LVL13:
 218              	.LBB74:
 219              	.LBB75:
 220              		.file 3 "../../lib/e-puck2_main-processor/ChibiOS//os/rt/include/chqueues.h"
 221              		.loc 3 322 0
 222 0012 FFF7FEFF 		bl	chDbgCheckClassI
 223              	.LVL14:
 224              		.loc 3 324 0
 225 0016 D4E90523 		ldrd	r2, r3, [r4, #20]
 226 001a 9A42     		cmp	r2, r3
 227 001c A368     		ldr	r3, [r4, #8]
 228 001e 16D0     		beq	.L24
ARM GAS  C:\Users\mathi\AppData\Local\Temp\cciADa79.s 			page 5


 229              	.L18:
 230              	.LVL15:
 231              	.LBE75:
 232              	.LBE74:
 233              		.loc 1 142 0
 234 0020 0133     		adds	r3, r3, #1
 235              		.loc 1 143 0
 236 0022 511C     		adds	r1, r2, #1
 237              		.loc 1 142 0
 238 0024 A360     		str	r3, [r4, #8]
 239              		.loc 1 143 0
 240 0026 6161     		str	r1, [r4, #20]
 241 0028 1670     		strb	r6, [r2]
 242              		.loc 1 144 0
 243 002a D4E90432 		ldrd	r3, r2, [r4, #16]
 244 002e 9A42     		cmp	r2, r3
 245 0030 0AD2     		bcs	.L19
 246              	.L20:
 247              		.loc 1 148 0
 248 0032 2046     		mov	r0, r4
 249 0034 0021     		movs	r1, #0
 250 0036 FFF7FEFF 		bl	chThdDequeueNextI
 251              	.LVL16:
 252              		.loc 1 150 0
 253 003a 0020     		movs	r0, #0
 254              	.L15:
 255              		.loc 1 151 0
 256 003c 019A     		ldr	r2, [sp, #4]
 257 003e 2B68     		ldr	r3, [r5]
 258 0040 9A42     		cmp	r2, r3
 259 0042 09D1     		bne	.L25
 260 0044 02B0     		add	sp, sp, #8
 261              		.cfi_remember_state
 262              		.cfi_def_cfa_offset 16
 263              		@ sp needed
 264 0046 70BD     		pop	{r4, r5, r6, pc}
 265              	.LVL17:
 266              	.L19:
 267              		.cfi_restore_state
 268              		.loc 1 145 0
 269 0048 E368     		ldr	r3, [r4, #12]
 270 004a 6361     		str	r3, [r4, #20]
 271 004c F1E7     		b	.L20
 272              	.LVL18:
 273              	.L24:
 274              	.LBB77:
 275              	.LBB76:
 276              		.loc 3 324 0
 277 004e 002B     		cmp	r3, #0
 278 0050 E6D0     		beq	.L18
 279              	.LBE76:
 280              	.LBE77:
 281              		.loc 1 139 0
 282 0052 6FF00300 		mvn	r0, #3
 283 0056 F1E7     		b	.L15
 284              	.LVL19:
 285              	.L25:
ARM GAS  C:\Users\mathi\AppData\Local\Temp\cciADa79.s 			page 6


 286              		.loc 1 151 0
 287 0058 FFF7FEFF 		bl	__stack_chk_fail
 288              	.LVL20:
 289              	.L27:
 290              		.align	2
 291              	.L26:
 292 005c 00000000 		.word	__stack_chk_guard
 293              		.cfi_endproc
 294              	.LFE221:
 295              		.size	chIQPutI, .-chIQPutI
 296              		.section	.text.chIQGetTimeout,"ax",%progbits
 297              		.align	1
 298              		.p2align 4,,15
 299              		.global	chIQGetTimeout
 300              		.syntax unified
 301              		.thumb
 302              		.thumb_func
 303              		.fpu fpv4-sp-d16
 304              		.type	chIQGetTimeout, %function
 305              	chIQGetTimeout:
 306              	.LFB222:
 307              		.loc 1 173 0
 308              		.cfi_startproc
 309              		@ args = 0, pretend = 0, frame = 8
 310              		@ frame_needed = 0, uses_anonymous_args = 0
 311              	.LVL21:
 312 0000 F0B5     		push	{r4, r5, r6, r7, lr}
 313              		.cfi_def_cfa_offset 20
 314              		.cfi_offset 4, -20
 315              		.cfi_offset 5, -16
 316              		.cfi_offset 6, -12
 317              		.cfi_offset 7, -8
 318              		.cfi_offset 14, -4
 319 0002 234F     		ldr	r7, .L48
 320 0004 83B0     		sub	sp, sp, #12
 321              		.cfi_def_cfa_offset 32
 322              		.loc 1 173 0
 323 0006 3B68     		ldr	r3, [r7]
 324 0008 0193     		str	r3, [sp, #4]
 325              	.LVL22:
 326 000a 0446     		mov	r4, r0
 327 000c 0E46     		mov	r6, r1
 328              	.LBB96:
 329              	.LBB97:
 330              	.LBB98:
 331              	.LBB99:
 332              	.LBB100:
 333              		.file 4 "../../lib/e-puck2_main-processor/ChibiOS//os/ext/CMSIS/include/core_cmFunc.h"
 334              		.loc 4 546 0
 335 000e 2023     		movs	r3, #32
 336              		.syntax unified
 337              	@ 546 "../../lib/e-puck2_main-processor/ChibiOS//os/ext/CMSIS/include/core_cmFunc.h" 1
 338 0010 83F31188 		MSR basepri, r3
 339              	@ 0 "" 2
 340              	.LVL23:
 341              		.thumb
 342              		.syntax unified
ARM GAS  C:\Users\mathi\AppData\Local\Temp\cciADa79.s 			page 7


 343              	.LBE100:
 344              	.LBE99:
 345              	.LBE98:
 346              		.file 5 "../../lib/e-puck2_main-processor/ChibiOS//os/rt/include/chsys.h"
 347              		.loc 5 349 0
 348 0014 FFF7FEFF 		bl	_stats_start_measure_crit_thd
 349              	.LVL24:
 350              		.loc 5 350 0
 351 0018 FFF7FEFF 		bl	_dbg_check_lock
 352              	.LVL25:
 353              	.LBE97:
 354              	.LBE96:
 355              		.loc 1 177 0
 356 001c E369     		ldr	r3, [r4, #28]
 357 001e 43B1     		cbz	r3, .L30
 358              		.loc 1 178 0
 359 0020 2046     		mov	r0, r4
 360 0022 9847     		blx	r3
 361              	.LVL26:
 362 0024 05E0     		b	.L30
 363              	.LVL27:
 364              	.L33:
 365              	.LBB101:
 366              		.loc 1 182 0
 367 0026 3146     		mov	r1, r6
 368 0028 2046     		mov	r0, r4
 369 002a FFF7FEFF 		bl	chThdEnqueueTimeoutS
 370              	.LVL28:
 371              		.loc 1 183 0
 372 002e 051E     		subs	r5, r0, #0
 373 0030 10DB     		blt	.L34
 374              	.LVL29:
 375              	.L30:
 376              	.LBE101:
 377              	.LBB102:
 378              	.LBB103:
 379              		.loc 3 305 0
 380 0032 FFF7FEFF 		bl	chDbgCheckClassI
 381              	.LVL30:
 382              		.loc 3 307 0
 383 0036 A368     		ldr	r3, [r4, #8]
 384              	.LBE103:
 385              	.LBE102:
 386              		.loc 1 181 0
 387 0038 002B     		cmp	r3, #0
 388 003a F4D0     		beq	.L33
 389              		.loc 1 190 0
 390 003c A169     		ldr	r1, [r4, #24]
 391              		.loc 1 191 0
 392 003e 2069     		ldr	r0, [r4, #16]
 393              		.loc 1 190 0
 394 0040 4A1C     		adds	r2, r1, #1
 395              		.loc 1 189 0
 396 0042 013B     		subs	r3, r3, #1
 397              		.loc 1 191 0
 398 0044 8242     		cmp	r2, r0
 399              		.loc 1 189 0
ARM GAS  C:\Users\mathi\AppData\Local\Temp\cciADa79.s 			page 8


 400 0046 A360     		str	r3, [r4, #8]
 401              		.loc 1 190 0
 402 0048 A261     		str	r2, [r4, #24]
 403              		.loc 1 192 0
 404 004a 28BF     		it	cs
 405 004c E368     		ldrcs	r3, [r4, #12]
 406              		.loc 1 190 0
 407 004e 0D78     		ldrb	r5, [r1]	@ zero_extendqisi2
 408              	.LVL31:
 409              		.loc 1 192 0
 410 0050 28BF     		it	cs
 411 0052 A361     		strcs	r3, [r4, #24]
 412              	.LVL32:
 413              	.L34:
 414              	.LBB104:
 415              	.LBB105:
 416              		.loc 5 360 0
 417 0054 FFF7FEFF 		bl	_dbg_check_unlock
 418              	.LVL33:
 419              		.loc 5 361 0
 420 0058 FFF7FEFF 		bl	_stats_stop_measure_crit_thd
 421              	.LVL34:
 422              		.loc 5 367 0
 423 005c 0D4B     		ldr	r3, .L48+4
 424 005e 1A68     		ldr	r2, [r3]
 425 0060 9A42     		cmp	r2, r3
 426 0062 04D0     		beq	.L35
 427 0064 9969     		ldr	r1, [r3, #24]
 428 0066 9368     		ldr	r3, [r2, #8]
 429 0068 8A68     		ldr	r2, [r1, #8]
 430 006a 9A42     		cmp	r2, r3
 431 006c 09D3     		bcc	.L46
 432              	.L35:
 433              	.LVL35:
 434              	.LBB106:
 435              	.LBB107:
 436              	.LBB108:
 437              		.loc 4 546 0
 438 006e 0023     		movs	r3, #0
 439              		.syntax unified
 440              	@ 546 "../../lib/e-puck2_main-processor/ChibiOS//os/ext/CMSIS/include/core_cmFunc.h" 1
 441 0070 83F31188 		MSR basepri, r3
 442              	@ 0 "" 2
 443              	.LVL36:
 444              		.thumb
 445              		.syntax unified
 446              	.LBE108:
 447              	.LBE107:
 448              	.LBE106:
 449              	.LBE105:
 450              	.LBE104:
 451              		.loc 1 197 0
 452 0074 019A     		ldr	r2, [sp, #4]
 453 0076 3B68     		ldr	r3, [r7]
 454 0078 9A42     		cmp	r2, r3
 455 007a 2846     		mov	r0, r5
 456 007c 05D1     		bne	.L47
ARM GAS  C:\Users\mathi\AppData\Local\Temp\cciADa79.s 			page 9


 457 007e 03B0     		add	sp, sp, #12
 458              		.cfi_remember_state
 459              		.cfi_def_cfa_offset 20
 460              		@ sp needed
 461 0080 F0BD     		pop	{r4, r5, r6, r7, pc}
 462              	.LVL37:
 463              	.L46:
 464              		.cfi_restore_state
 465              	.LBB110:
 466              	.LBB109:
 467              		.loc 5 367 0
 468 0082 0548     		ldr	r0, .L48+8
 469 0084 FFF7FEFF 		bl	chSysHalt
 470              	.LVL38:
 471 0088 F1E7     		b	.L35
 472              	.L47:
 473              	.LBE109:
 474              	.LBE110:
 475              		.loc 1 197 0
 476 008a FFF7FEFF 		bl	__stack_chk_fail
 477              	.LVL39:
 478              	.L49:
 479 008e 00BF     		.align	2
 480              	.L48:
 481 0090 00000000 		.word	__stack_chk_guard
 482 0094 00000000 		.word	ch
 483 0098 00000000 		.word	.LANCHOR0
 484              		.cfi_endproc
 485              	.LFE222:
 486              		.size	chIQGetTimeout, .-chIQGetTimeout
 487              		.section	.text.chIQReadTimeout,"ax",%progbits
 488              		.align	1
 489              		.p2align 4,,15
 490              		.global	chIQReadTimeout
 491              		.syntax unified
 492              		.thumb
 493              		.thumb_func
 494              		.fpu fpv4-sp-d16
 495              		.type	chIQReadTimeout, %function
 496              	chIQReadTimeout:
 497              	.LFB223:
 498              		.loc 1 224 0
 499              		.cfi_startproc
 500              		@ args = 0, pretend = 0, frame = 16
 501              		@ frame_needed = 0, uses_anonymous_args = 0
 502              	.LVL40:
 503 0000 2DE9F04F 		push	{r4, r5, r6, r7, r8, r9, r10, fp, lr}
 504              		.cfi_def_cfa_offset 36
 505              		.cfi_offset 4, -36
 506              		.cfi_offset 5, -32
 507              		.cfi_offset 6, -28
 508              		.cfi_offset 7, -24
 509              		.cfi_offset 8, -20
 510              		.cfi_offset 9, -16
 511              		.cfi_offset 10, -12
 512              		.cfi_offset 11, -8
 513              		.cfi_offset 14, -4
ARM GAS  C:\Users\mathi\AppData\Local\Temp\cciADa79.s 			page 10


 514 0004 DFF8F490 		ldr	r9, .L73+12
 515 0008 0446     		mov	r4, r0
 516 000a 85B0     		sub	sp, sp, #20
 517              		.cfi_def_cfa_offset 56
 518              		.loc 1 224 0
 519 000c D9F80000 		ldr	r0, [r9]
 520              	.LVL41:
 521 0010 0390     		str	r0, [sp, #12]
 522 0012 8A46     		mov	r10, r1
 523 0014 1D46     		mov	r5, r3
 524              		.loc 1 225 0
 525 0016 D4F81C80 		ldr	r8, [r4, #28]
 526              	.LVL42:
 527              		.loc 1 228 0
 528 001a 9346     		mov	fp, r2
 529 001c 002A     		cmp	r2, #0
 530 001e 60D0     		beq	.L69
 531              	.LVL43:
 532              	.L51:
 533              	.LBB133:
 534              	.LBB134:
 535              	.LBB135:
 536              	.LBB136:
 537              	.LBB137:
 538              		.loc 4 546 0
 539 0020 2023     		movs	r3, #32
 540              		.syntax unified
 541              	@ 546 "../../lib/e-puck2_main-processor/ChibiOS//os/ext/CMSIS/include/core_cmFunc.h" 1
 542 0022 83F31188 		MSR basepri, r3
 543              	@ 0 "" 2
 544              		.thumb
 545              		.syntax unified
 546 0026 0193     		str	r3, [sp, #4]
 547              	.LVL44:
 548              	.LBE137:
 549              	.LBE136:
 550              	.LBE135:
 551              		.loc 5 349 0
 552 0028 FFF7FEFF 		bl	_stats_start_measure_crit_thd
 553              	.LVL45:
 554              		.loc 5 350 0
 555 002c FFF7FEFF 		bl	_dbg_check_lock
 556              	.LVL46:
 557 0030 2F4E     		ldr	r6, .L73
 558              	.LBE134:
 559              	.LBE133:
 560              		.loc 1 226 0
 561 0032 0027     		movs	r7, #0
 562              	.LVL47:
 563              	.L59:
 564              		.loc 1 232 0
 565 0034 B8F1000F 		cmp	r8, #0
 566 0038 07D0     		beq	.L53
 567              		.loc 1 233 0
 568 003a 2046     		mov	r0, r4
 569 003c C047     		blx	r8
 570              	.LVL48:
ARM GAS  C:\Users\mathi\AppData\Local\Temp\cciADa79.s 			page 11


 571 003e 04E0     		b	.L53
 572              	.LVL49:
 573              	.L56:
 574              		.loc 1 237 0
 575 0040 2946     		mov	r1, r5
 576 0042 2046     		mov	r0, r4
 577 0044 FFF7FEFF 		bl	chThdEnqueueTimeoutS
 578              	.LVL50:
 579 0048 60BB     		cbnz	r0, .L70
 580              	.LVL51:
 581              	.L53:
 582              	.LBB138:
 583              	.LBB139:
 584              		.loc 3 305 0
 585 004a FFF7FEFF 		bl	chDbgCheckClassI
 586              	.LVL52:
 587              		.loc 3 307 0
 588 004e A368     		ldr	r3, [r4, #8]
 589              	.LBE139:
 590              	.LBE138:
 591              		.loc 1 236 0
 592 0050 002B     		cmp	r3, #0
 593 0052 F5D0     		beq	.L56
 594              		.loc 1 244 0
 595 0054 A269     		ldr	r2, [r4, #24]
 596              		.loc 1 243 0
 597 0056 013B     		subs	r3, r3, #1
 598              		.loc 1 244 0
 599 0058 511C     		adds	r1, r2, #1
 600 005a A161     		str	r1, [r4, #24]
 601              		.loc 1 243 0
 602 005c A360     		str	r3, [r4, #8]
 603              		.loc 1 244 0
 604 005e 1378     		ldrb	r3, [r2]	@ zero_extendqisi2
 605 0060 0AF8013B 		strb	r3, [r10], #1
 606              	.LVL53:
 607              		.loc 1 245 0
 608 0064 2369     		ldr	r3, [r4, #16]
 609 0066 A269     		ldr	r2, [r4, #24]
 610 0068 9A42     		cmp	r2, r3
 611              		.loc 1 246 0
 612 006a 24BF     		itt	cs
 613 006c E368     		ldrcs	r3, [r4, #12]
 614 006e A361     		strcs	r3, [r4, #24]
 615              	.LBB140:
 616              	.LBB141:
 617              		.loc 5 360 0
 618 0070 FFF7FEFF 		bl	_dbg_check_unlock
 619              	.LVL54:
 620              		.loc 5 361 0
 621 0074 FFF7FEFF 		bl	_stats_stop_measure_crit_thd
 622              	.LVL55:
 623              		.loc 5 367 0
 624 0078 3368     		ldr	r3, [r6]
 625 007a B342     		cmp	r3, r6
 626 007c 04D0     		beq	.L58
 627 007e B269     		ldr	r2, [r6, #24]
ARM GAS  C:\Users\mathi\AppData\Local\Temp\cciADa79.s 			page 12


 628 0080 9B68     		ldr	r3, [r3, #8]
 629 0082 9268     		ldr	r2, [r2, #8]
 630 0084 9A42     		cmp	r2, r3
 631 0086 28D3     		bcc	.L71
 632              	.L58:
 633              	.LVL56:
 634              	.LBB142:
 635              	.LBB143:
 636              	.LBB144:
 637              		.loc 4 546 0
 638 0088 0023     		movs	r3, #0
 639              		.syntax unified
 640              	@ 546 "../../lib/e-puck2_main-processor/ChibiOS//os/ext/CMSIS/include/core_cmFunc.h" 1
 641 008a 83F31188 		MSR basepri, r3
 642              	@ 0 "" 2
 643              	.LVL57:
 644              		.thumb
 645              		.syntax unified
 646              	.LBE144:
 647              	.LBE143:
 648              	.LBE142:
 649              	.LBE141:
 650              	.LBE140:
 651              		.loc 1 250 0
 652 008e 0137     		adds	r7, r7, #1
 653              	.LVL58:
 654              		.loc 1 251 0
 655 0090 BB45     		cmp	fp, r7
 656 0092 19D0     		beq	.L50
 657              	.LVL59:
 658              	.LBB146:
 659              	.LBB147:
 660              	.LBB148:
 661              	.LBB149:
 662              	.LBB150:
 663              		.loc 4 546 0
 664 0094 019B     		ldr	r3, [sp, #4]
 665              		.syntax unified
 666              	@ 546 "../../lib/e-puck2_main-processor/ChibiOS//os/ext/CMSIS/include/core_cmFunc.h" 1
 667 0096 83F31188 		MSR basepri, r3
 668              	@ 0 "" 2
 669              	.LVL60:
 670              		.thumb
 671              		.syntax unified
 672              	.LBE150:
 673              	.LBE149:
 674              	.LBE148:
 675              		.loc 5 349 0
 676 009a FFF7FEFF 		bl	_stats_start_measure_crit_thd
 677              	.LVL61:
 678              		.loc 5 350 0
 679 009e FFF7FEFF 		bl	_dbg_check_lock
 680              	.LVL62:
 681 00a2 C7E7     		b	.L59
 682              	.LVL63:
 683              	.L70:
 684              	.LBE147:
ARM GAS  C:\Users\mathi\AppData\Local\Temp\cciADa79.s 			page 13


 685              	.LBE146:
 686              	.LBB151:
 687              	.LBB152:
 688              		.loc 5 360 0
 689 00a4 FFF7FEFF 		bl	_dbg_check_unlock
 690              	.LVL64:
 691              		.loc 5 361 0
 692 00a8 FFF7FEFF 		bl	_stats_stop_measure_crit_thd
 693              	.LVL65:
 694              		.loc 5 367 0
 695 00ac 3368     		ldr	r3, [r6]
 696 00ae B342     		cmp	r3, r6
 697 00b0 07D0     		beq	.L54
 698 00b2 B269     		ldr	r2, [r6, #24]
 699 00b4 9B68     		ldr	r3, [r3, #8]
 700 00b6 9268     		ldr	r2, [r2, #8]
 701 00b8 9A42     		cmp	r2, r3
 702 00ba 02D2     		bcs	.L54
 703 00bc 0D48     		ldr	r0, .L73+4
 704 00be FFF7FEFF 		bl	chSysHalt
 705              	.LVL66:
 706              	.L54:
 707              	.LBB153:
 708              	.LBB154:
 709              	.LBB155:
 710              		.loc 4 546 0
 711 00c2 0023     		movs	r3, #0
 712              		.syntax unified
 713              	@ 546 "../../lib/e-puck2_main-processor/ChibiOS//os/ext/CMSIS/include/core_cmFunc.h" 1
 714 00c4 83F31188 		MSR basepri, r3
 715              	@ 0 "" 2
 716              	.LVL67:
 717              		.thumb
 718              		.syntax unified
 719              	.L50:
 720              	.LBE155:
 721              	.LBE154:
 722              	.LBE153:
 723              	.LBE152:
 724              	.LBE151:
 725              		.loc 1 257 0
 726 00c8 039A     		ldr	r2, [sp, #12]
 727 00ca D9F80030 		ldr	r3, [r9]
 728 00ce 9A42     		cmp	r2, r3
 729 00d0 3846     		mov	r0, r7
 730 00d2 0AD1     		bne	.L72
 731              	.LVL68:
 732 00d4 05B0     		add	sp, sp, #20
 733              		.cfi_remember_state
 734              		.cfi_def_cfa_offset 36
 735              		@ sp needed
 736 00d6 BDE8F08F 		pop	{r4, r5, r6, r7, r8, r9, r10, fp, pc}
 737              	.LVL69:
 738              	.L71:
 739              		.cfi_restore_state
 740              	.LBB156:
 741              	.LBB145:
ARM GAS  C:\Users\mathi\AppData\Local\Temp\cciADa79.s 			page 14


 742              		.loc 5 367 0
 743 00da 0648     		ldr	r0, .L73+4
 744 00dc FFF7FEFF 		bl	chSysHalt
 745              	.LVL70:
 746 00e0 D2E7     		b	.L58
 747              	.LVL71:
 748              	.L69:
 749              	.LBE145:
 750              	.LBE156:
 751              		.loc 1 228 0 discriminator 2
 752 00e2 0548     		ldr	r0, .L73+8
 753 00e4 FFF7FEFF 		bl	chSysHalt
 754              	.LVL72:
 755 00e8 9AE7     		b	.L51
 756              	.LVL73:
 757              	.L72:
 758              		.loc 1 257 0
 759 00ea FFF7FEFF 		bl	__stack_chk_fail
 760              	.LVL74:
 761              	.L74:
 762 00ee 00BF     		.align	2
 763              	.L73:
 764 00f0 00000000 		.word	ch
 765 00f4 00000000 		.word	.LANCHOR0
 766 00f8 00000000 		.word	.LANCHOR1
 767 00fc 00000000 		.word	__stack_chk_guard
 768              		.cfi_endproc
 769              	.LFE223:
 770              		.size	chIQReadTimeout, .-chIQReadTimeout
 771              		.section	.text.chOQObjectInit,"ax",%progbits
 772              		.align	1
 773              		.p2align 4,,15
 774              		.global	chOQObjectInit
 775              		.syntax unified
 776              		.thumb
 777              		.thumb_func
 778              		.fpu fpv4-sp-d16
 779              		.type	chOQObjectInit, %function
 780              	chOQObjectInit:
 781              	.LFB224:
 782              		.loc 1 276 0
 783              		.cfi_startproc
 784              		@ args = 4, pretend = 0, frame = 8
 785              		@ frame_needed = 0, uses_anonymous_args = 0
 786              	.LVL75:
 787 0000 70B5     		push	{r4, r5, r6, lr}
 788              		.cfi_def_cfa_offset 16
 789              		.cfi_offset 4, -16
 790              		.cfi_offset 5, -12
 791              		.cfi_offset 6, -8
 792              		.cfi_offset 14, -4
 793 0002 0B4D     		ldr	r5, .L79
 794              		.loc 1 279 0
 795 0004 8260     		str	r2, [r0, #8]
 796              		.loc 1 276 0
 797 0006 2E68     		ldr	r6, [r5]
 798              		.loc 1 280 0
ARM GAS  C:\Users\mathi\AppData\Local\Temp\cciADa79.s 			page 15


 799 0008 C160     		str	r1, [r0, #12]
 800              		.loc 1 276 0
 801 000a 82B0     		sub	sp, sp, #8
 802              		.cfi_def_cfa_offset 24
 803              	.LBB157:
 804              	.LBB158:
 805              	.LBB159:
 806              		.loc 2 605 0
 807 000c C0E90000 		strd	r0, r0, [r0]
 808              	.LBE159:
 809              	.LBE158:
 810              	.LBE157:
 811              		.loc 1 276 0
 812 0010 0196     		str	r6, [sp, #4]
 813              	.LVL76:
 814              		.loc 1 283 0
 815 0012 0A44     		add	r2, r2, r1
 816              	.LVL77:
 817              		.loc 1 286 0
 818 0014 019E     		ldr	r6, [sp, #4]
 819              		.loc 1 283 0
 820 0016 0261     		str	r2, [r0, #16]
 821              		.loc 1 286 0
 822 0018 2A68     		ldr	r2, [r5]
 823              		.loc 1 276 0
 824 001a 069C     		ldr	r4, [sp, #24]
 825              		.loc 1 286 0
 826 001c 9642     		cmp	r6, r2
 827              		.loc 1 282 0
 828 001e C0E90511 		strd	r1, r1, [r0, #20]
 829              		.loc 1 285 0
 830 0022 C0E90734 		strd	r3, r4, [r0, #28]
 831              		.loc 1 286 0
 832 0026 01D1     		bne	.L78
 833 0028 02B0     		add	sp, sp, #8
 834              		.cfi_remember_state
 835              		.cfi_def_cfa_offset 16
 836              		@ sp needed
 837 002a 70BD     		pop	{r4, r5, r6, pc}
 838              	.LVL78:
 839              	.L78:
 840              		.cfi_restore_state
 841 002c FFF7FEFF 		bl	__stack_chk_fail
 842              	.LVL79:
 843              	.L80:
 844              		.align	2
 845              	.L79:
 846 0030 00000000 		.word	__stack_chk_guard
 847              		.cfi_endproc
 848              	.LFE224:
 849              		.size	chOQObjectInit, .-chOQObjectInit
 850              		.section	.text.chOQResetI,"ax",%progbits
 851              		.align	1
 852              		.p2align 4,,15
 853              		.global	chOQResetI
 854              		.syntax unified
 855              		.thumb
ARM GAS  C:\Users\mathi\AppData\Local\Temp\cciADa79.s 			page 16


 856              		.thumb_func
 857              		.fpu fpv4-sp-d16
 858              		.type	chOQResetI, %function
 859              	chOQResetI:
 860              	.LFB225:
 861              		.loc 1 299 0
 862              		.cfi_startproc
 863              		@ args = 0, pretend = 0, frame = 8
 864              		@ frame_needed = 0, uses_anonymous_args = 0
 865              	.LVL80:
 866 0000 30B5     		push	{r4, r5, lr}
 867              		.cfi_def_cfa_offset 12
 868              		.cfi_offset 4, -12
 869              		.cfi_offset 5, -8
 870              		.cfi_offset 14, -4
 871 0002 0D4D     		ldr	r5, .L86
 872 0004 83B0     		sub	sp, sp, #12
 873              		.cfi_def_cfa_offset 24
 874              		.loc 1 299 0
 875 0006 0446     		mov	r4, r0
 876 0008 2B68     		ldr	r3, [r5]
 877 000a 0193     		str	r3, [sp, #4]
 878              		.loc 1 301 0
 879 000c FFF7FEFF 		bl	chDbgCheckClassI
 880              	.LVL81:
 881              		.loc 1 305 0
 882 0010 D4E90323 		ldrd	r2, r3, [r4, #12]
 883              		.loc 1 306 0
 884 0014 0198     		ldr	r0, [sp, #4]
 885 0016 2968     		ldr	r1, [r5]
 886              		.loc 1 303 0
 887 0018 A261     		str	r2, [r4, #24]
 888              		.loc 1 305 0
 889 001a 9B1A     		subs	r3, r3, r2
 890              		.loc 1 306 0
 891 001c 8842     		cmp	r0, r1
 892              		.loc 1 304 0
 893 001e 6261     		str	r2, [r4, #20]
 894              		.loc 1 305 0
 895 0020 A360     		str	r3, [r4, #8]
 896              		.loc 1 306 0
 897 0022 07D1     		bne	.L85
 898 0024 2046     		mov	r0, r4
 899 0026 6FF00101 		mvn	r1, #1
 900              		.loc 1 307 0
 901 002a 03B0     		add	sp, sp, #12
 902              		.cfi_remember_state
 903              		.cfi_def_cfa_offset 12
 904              		@ sp needed
 905 002c BDE83040 		pop	{r4, r5, lr}
 906              		.cfi_restore 14
 907              		.cfi_restore 5
 908              		.cfi_restore 4
 909              		.cfi_def_cfa_offset 0
 910              	.LVL82:
 911              		.loc 1 306 0
 912 0030 FFF7FEBF 		b	chThdDequeueAllI
ARM GAS  C:\Users\mathi\AppData\Local\Temp\cciADa79.s 			page 17


 913              	.LVL83:
 914              	.L85:
 915              		.cfi_restore_state
 916 0034 FFF7FEFF 		bl	__stack_chk_fail
 917              	.LVL84:
 918              	.L87:
 919              		.align	2
 920              	.L86:
 921 0038 00000000 		.word	__stack_chk_guard
 922              		.cfi_endproc
 923              	.LFE225:
 924              		.size	chOQResetI, .-chOQResetI
 925              		.section	.text.chOQPutTimeout,"ax",%progbits
 926              		.align	1
 927              		.p2align 4,,15
 928              		.global	chOQPutTimeout
 929              		.syntax unified
 930              		.thumb
 931              		.thumb_func
 932              		.fpu fpv4-sp-d16
 933              		.type	chOQPutTimeout, %function
 934              	chOQPutTimeout:
 935              	.LFB226:
 936              		.loc 1 331 0
 937              		.cfi_startproc
 938              		@ args = 0, pretend = 0, frame = 8
 939              		@ frame_needed = 0, uses_anonymous_args = 0
 940              	.LVL85:
 941 0000 2DE9F041 		push	{r4, r5, r6, r7, r8, lr}
 942              		.cfi_def_cfa_offset 24
 943              		.cfi_offset 4, -24
 944              		.cfi_offset 5, -20
 945              		.cfi_offset 6, -16
 946              		.cfi_offset 7, -12
 947              		.cfi_offset 8, -8
 948              		.cfi_offset 14, -4
 949 0004 2E4F     		ldr	r7, .L105
 950 0006 82B0     		sub	sp, sp, #8
 951              		.cfi_def_cfa_offset 32
 952              		.loc 1 331 0
 953 0008 3B68     		ldr	r3, [r7]
 954 000a 0193     		str	r3, [sp, #4]
 955              	.LVL86:
 956 000c 0446     		mov	r4, r0
 957 000e 8846     		mov	r8, r1
 958 0010 1646     		mov	r6, r2
 959              	.LBB178:
 960              	.LBB179:
 961              	.LBB180:
 962              	.LBB181:
 963              	.LBB182:
 964              		.loc 4 546 0
 965 0012 2023     		movs	r3, #32
 966              		.syntax unified
 967              	@ 546 "../../lib/e-puck2_main-processor/ChibiOS//os/ext/CMSIS/include/core_cmFunc.h" 1
 968 0014 83F31188 		MSR basepri, r3
 969              	@ 0 "" 2
ARM GAS  C:\Users\mathi\AppData\Local\Temp\cciADa79.s 			page 18


 970              	.LVL87:
 971              		.thumb
 972              		.syntax unified
 973              	.LBE182:
 974              	.LBE181:
 975              	.LBE180:
 976              		.loc 5 349 0
 977 0018 FFF7FEFF 		bl	_stats_start_measure_crit_thd
 978              	.LVL88:
 979              		.loc 5 350 0
 980 001c FFF7FEFF 		bl	_dbg_check_lock
 981              	.LVL89:
 982 0020 05E0     		b	.L89
 983              	.LVL90:
 984              	.L92:
 985              	.LBE179:
 986              	.LBE178:
 987              	.LBB183:
 988              		.loc 1 335 0
 989 0022 3146     		mov	r1, r6
 990 0024 2046     		mov	r0, r4
 991 0026 FFF7FEFF 		bl	chThdEnqueueTimeoutS
 992              	.LVL91:
 993              		.loc 1 336 0
 994 002a 051E     		subs	r5, r0, #0
 995 002c 2DDB     		blt	.L102
 996              	.LVL92:
 997              	.L89:
 998              	.LBE183:
 999              	.LBB189:
 1000              	.LBB190:
 1001              		.loc 3 405 0
 1002 002e FFF7FEFF 		bl	chDbgCheckClassI
 1003              	.LVL93:
 1004              		.loc 3 407 0
 1005 0032 A368     		ldr	r3, [r4, #8]
 1006              	.LBE190:
 1007              	.LBE189:
 1008              		.loc 1 334 0
 1009 0034 002B     		cmp	r3, #0
 1010 0036 F4D0     		beq	.L92
 1011              		.loc 1 343 0
 1012 0038 6269     		ldr	r2, [r4, #20]
 1013              		.loc 1 342 0
 1014 003a 013B     		subs	r3, r3, #1
 1015              		.loc 1 343 0
 1016 003c 511C     		adds	r1, r2, #1
 1017 003e 6161     		str	r1, [r4, #20]
 1018              		.loc 1 342 0
 1019 0040 A360     		str	r3, [r4, #8]
 1020              		.loc 1 343 0
 1021 0042 82F80080 		strb	r8, [r2]
 1022              		.loc 1 344 0
 1023 0046 D4E90432 		ldrd	r3, r2, [r4, #16]
 1024 004a 9A42     		cmp	r2, r3
 1025              		.loc 1 345 0
 1026 004c 24BF     		itt	cs
ARM GAS  C:\Users\mathi\AppData\Local\Temp\cciADa79.s 			page 19


 1027 004e E368     		ldrcs	r3, [r4, #12]
 1028 0050 6361     		strcs	r3, [r4, #20]
 1029              		.loc 1 348 0
 1030 0052 E369     		ldr	r3, [r4, #28]
 1031 0054 0BB1     		cbz	r3, .L94
 1032              		.loc 1 349 0
 1033 0056 2046     		mov	r0, r4
 1034 0058 9847     		blx	r3
 1035              	.LVL94:
 1036              	.L94:
 1037              	.LBB191:
 1038              	.LBB192:
 1039              		.loc 5 360 0
 1040 005a FFF7FEFF 		bl	_dbg_check_unlock
 1041              	.LVL95:
 1042              		.loc 5 361 0
 1043 005e FFF7FEFF 		bl	_stats_stop_measure_crit_thd
 1044              	.LVL96:
 1045              		.loc 5 367 0
 1046 0062 184B     		ldr	r3, .L105+4
 1047 0064 1A68     		ldr	r2, [r3]
 1048 0066 9A42     		cmp	r2, r3
 1049 0068 04D0     		beq	.L95
 1050 006a 9969     		ldr	r1, [r3, #24]
 1051 006c 9368     		ldr	r3, [r2, #8]
 1052 006e 8A68     		ldr	r2, [r1, #8]
 1053 0070 9A42     		cmp	r2, r3
 1054 0072 1ED3     		bcc	.L103
 1055              	.L95:
 1056              	.LVL97:
 1057              	.LBB193:
 1058              	.LBB194:
 1059              	.LBB195:
 1060              		.loc 4 546 0
 1061 0074 0025     		movs	r5, #0
 1062              		.syntax unified
 1063              	@ 546 "../../lib/e-puck2_main-processor/ChibiOS//os/ext/CMSIS/include/core_cmFunc.h" 1
 1064 0076 85F31188 		MSR basepri, r5
 1065              	@ 0 "" 2
 1066              	.LVL98:
 1067              		.thumb
 1068              		.syntax unified
 1069              	.L88:
 1070              	.LBE195:
 1071              	.LBE194:
 1072              	.LBE193:
 1073              	.LBE192:
 1074              	.LBE191:
 1075              		.loc 1 354 0
 1076 007a 019A     		ldr	r2, [sp, #4]
 1077 007c 3B68     		ldr	r3, [r7]
 1078 007e 9A42     		cmp	r2, r3
 1079 0080 2846     		mov	r0, r5
 1080 0082 1AD1     		bne	.L104
 1081 0084 02B0     		add	sp, sp, #8
 1082              		.cfi_remember_state
 1083              		.cfi_def_cfa_offset 24
ARM GAS  C:\Users\mathi\AppData\Local\Temp\cciADa79.s 			page 20


 1084              		@ sp needed
 1085 0086 BDE8F081 		pop	{r4, r5, r6, r7, r8, pc}
 1086              	.LVL99:
 1087              	.L102:
 1088              		.cfi_restore_state
 1089              	.LBB197:
 1090              	.LBB184:
 1091              	.LBB185:
 1092              		.loc 5 360 0
 1093 008a FFF7FEFF 		bl	_dbg_check_unlock
 1094              	.LVL100:
 1095              		.loc 5 361 0
 1096 008e FFF7FEFF 		bl	_stats_stop_measure_crit_thd
 1097              	.LVL101:
 1098              		.loc 5 367 0
 1099 0092 0C4B     		ldr	r3, .L105+4
 1100 0094 1A68     		ldr	r2, [r3]
 1101 0096 9A42     		cmp	r2, r3
 1102 0098 07D0     		beq	.L90
 1103 009a 9969     		ldr	r1, [r3, #24]
 1104 009c 9368     		ldr	r3, [r2, #8]
 1105 009e 8A68     		ldr	r2, [r1, #8]
 1106 00a0 9A42     		cmp	r2, r3
 1107 00a2 02D2     		bcs	.L90
 1108 00a4 0848     		ldr	r0, .L105+8
 1109 00a6 FFF7FEFF 		bl	chSysHalt
 1110              	.LVL102:
 1111              	.L90:
 1112              	.LBB186:
 1113              	.LBB187:
 1114              	.LBB188:
 1115              		.loc 4 546 0
 1116 00aa 0023     		movs	r3, #0
 1117              		.syntax unified
 1118              	@ 546 "../../lib/e-puck2_main-processor/ChibiOS//os/ext/CMSIS/include/core_cmFunc.h" 1
 1119 00ac 83F31188 		MSR basepri, r3
 1120              	@ 0 "" 2
 1121              	.LVL103:
 1122              		.thumb
 1123              		.syntax unified
 1124 00b0 E3E7     		b	.L88
 1125              	.LVL104:
 1126              	.L103:
 1127              	.LBE188:
 1128              	.LBE187:
 1129              	.LBE186:
 1130              	.LBE185:
 1131              	.LBE184:
 1132              	.LBE197:
 1133              	.LBB198:
 1134              	.LBB196:
 1135              		.loc 5 367 0
 1136 00b2 0548     		ldr	r0, .L105+8
 1137 00b4 FFF7FEFF 		bl	chSysHalt
 1138              	.LVL105:
 1139 00b8 DCE7     		b	.L95
 1140              	.L104:
ARM GAS  C:\Users\mathi\AppData\Local\Temp\cciADa79.s 			page 21


 1141              	.LBE196:
 1142              	.LBE198:
 1143              		.loc 1 354 0
 1144 00ba FFF7FEFF 		bl	__stack_chk_fail
 1145              	.LVL106:
 1146              	.L106:
 1147 00be 00BF     		.align	2
 1148              	.L105:
 1149 00c0 00000000 		.word	__stack_chk_guard
 1150 00c4 00000000 		.word	ch
 1151 00c8 00000000 		.word	.LANCHOR0
 1152              		.cfi_endproc
 1153              	.LFE226:
 1154              		.size	chOQPutTimeout, .-chOQPutTimeout
 1155              		.section	.text.chOQGetI,"ax",%progbits
 1156              		.align	1
 1157              		.p2align 4,,15
 1158              		.global	chOQGetI
 1159              		.syntax unified
 1160              		.thumb
 1161              		.thumb_func
 1162              		.fpu fpv4-sp-d16
 1163              		.type	chOQGetI, %function
 1164              	chOQGetI:
 1165              	.LFB227:
 1166              		.loc 1 366 0
 1167              		.cfi_startproc
 1168              		@ args = 0, pretend = 0, frame = 8
 1169              		@ frame_needed = 0, uses_anonymous_args = 0
 1170              	.LVL107:
 1171 0000 70B5     		push	{r4, r5, r6, lr}
 1172              		.cfi_def_cfa_offset 16
 1173              		.cfi_offset 4, -16
 1174              		.cfi_offset 5, -12
 1175              		.cfi_offset 6, -8
 1176              		.cfi_offset 14, -4
 1177 0002 154E     		ldr	r6, .L118
 1178 0004 82B0     		sub	sp, sp, #8
 1179              		.cfi_def_cfa_offset 24
 1180              		.loc 1 366 0
 1181 0006 0446     		mov	r4, r0
 1182 0008 3368     		ldr	r3, [r6]
 1183 000a 0193     		str	r3, [sp, #4]
 1184              		.loc 1 369 0
 1185 000c FFF7FEFF 		bl	chDbgCheckClassI
 1186              	.LVL108:
 1187              	.LBB199:
 1188              	.LBB200:
 1189              		.loc 3 388 0
 1190 0010 FFF7FEFF 		bl	chDbgCheckClassI
 1191              	.LVL109:
 1192              		.loc 3 390 0
 1193 0014 D4E90532 		ldrd	r3, r2, [r4, #20]
 1194 0018 9342     		cmp	r3, r2
 1195 001a A368     		ldr	r3, [r4, #8]
 1196 001c 15D0     		beq	.L116
 1197              	.L110:
ARM GAS  C:\Users\mathi\AppData\Local\Temp\cciADa79.s 			page 22


 1198              	.LVL110:
 1199              	.LBE200:
 1200              	.LBE199:
 1201              		.loc 1 377 0
 1202 001e 2069     		ldr	r0, [r4, #16]
 1203              		.loc 1 376 0
 1204 0020 511C     		adds	r1, r2, #1
 1205              		.loc 1 375 0
 1206 0022 0133     		adds	r3, r3, #1
 1207 0024 A360     		str	r3, [r4, #8]
 1208              		.loc 1 376 0
 1209 0026 A161     		str	r1, [r4, #24]
 1210              		.loc 1 377 0
 1211 0028 8142     		cmp	r1, r0
 1212              		.loc 1 376 0
 1213 002a 1578     		ldrb	r5, [r2]	@ zero_extendqisi2
 1214              	.LVL111:
 1215              		.loc 1 377 0
 1216 002c 0AD2     		bcs	.L111
 1217              	.L112:
 1218              		.loc 1 381 0
 1219 002e 2046     		mov	r0, r4
 1220 0030 0021     		movs	r1, #0
 1221 0032 FFF7FEFF 		bl	chThdDequeueNextI
 1222              	.LVL112:
 1223              		.loc 1 383 0
 1224 0036 2846     		mov	r0, r5
 1225              	.LVL113:
 1226              	.L107:
 1227              		.loc 1 384 0
 1228 0038 019A     		ldr	r2, [sp, #4]
 1229 003a 3368     		ldr	r3, [r6]
 1230 003c 9A42     		cmp	r2, r3
 1231 003e 09D1     		bne	.L117
 1232 0040 02B0     		add	sp, sp, #8
 1233              		.cfi_remember_state
 1234              		.cfi_def_cfa_offset 16
 1235              		@ sp needed
 1236 0042 70BD     		pop	{r4, r5, r6, pc}
 1237              	.LVL114:
 1238              	.L111:
 1239              		.cfi_restore_state
 1240              		.loc 1 378 0
 1241 0044 E368     		ldr	r3, [r4, #12]
 1242 0046 A361     		str	r3, [r4, #24]
 1243 0048 F1E7     		b	.L112
 1244              	.LVL115:
 1245              	.L116:
 1246              	.LBB202:
 1247              	.LBB201:
 1248              		.loc 3 390 0
 1249 004a 002B     		cmp	r3, #0
 1250 004c E7D0     		beq	.L110
 1251              	.LBE201:
 1252              	.LBE202:
 1253              		.loc 1 372 0
 1254 004e 6FF00200 		mvn	r0, #2
ARM GAS  C:\Users\mathi\AppData\Local\Temp\cciADa79.s 			page 23


 1255 0052 F1E7     		b	.L107
 1256              	.LVL116:
 1257              	.L117:
 1258              		.loc 1 384 0
 1259 0054 FFF7FEFF 		bl	__stack_chk_fail
 1260              	.LVL117:
 1261              	.L119:
 1262              		.align	2
 1263              	.L118:
 1264 0058 00000000 		.word	__stack_chk_guard
 1265              		.cfi_endproc
 1266              	.LFE227:
 1267              		.size	chOQGetI, .-chOQGetI
 1268              		.section	.text.chOQWriteTimeout,"ax",%progbits
 1269              		.align	1
 1270              		.p2align 4,,15
 1271              		.global	chOQWriteTimeout
 1272              		.syntax unified
 1273              		.thumb
 1274              		.thumb_func
 1275              		.fpu fpv4-sp-d16
 1276              		.type	chOQWriteTimeout, %function
 1277              	chOQWriteTimeout:
 1278              	.LFB228:
 1279              		.loc 1 411 0
 1280              		.cfi_startproc
 1281              		@ args = 0, pretend = 0, frame = 16
 1282              		@ frame_needed = 0, uses_anonymous_args = 0
 1283              	.LVL118:
 1284 0000 2DE9F04F 		push	{r4, r5, r6, r7, r8, r9, r10, fp, lr}
 1285              		.cfi_def_cfa_offset 36
 1286              		.cfi_offset 4, -36
 1287              		.cfi_offset 5, -32
 1288              		.cfi_offset 6, -28
 1289              		.cfi_offset 7, -24
 1290              		.cfi_offset 8, -20
 1291              		.cfi_offset 9, -16
 1292              		.cfi_offset 10, -12
 1293              		.cfi_offset 11, -8
 1294              		.cfi_offset 14, -4
 1295 0004 0446     		mov	r4, r0
 1296 0006 5C48     		ldr	r0, .L158
 1297              	.LVL119:
 1298              		.loc 1 412 0
 1299 0008 D4F81CA0 		ldr	r10, [r4, #28]
 1300              	.LVL120:
 1301              		.loc 1 411 0
 1302 000c 0068     		ldr	r0, [r0]
 1303 000e 85B0     		sub	sp, sp, #20
 1304              		.cfi_def_cfa_offset 56
 1305              		.loc 1 411 0
 1306 0010 0D46     		mov	r5, r1
 1307 0012 0390     		str	r0, [sp, #12]
 1308 0014 0193     		str	r3, [sp, #4]
 1309              		.loc 1 415 0
 1310 0016 1646     		mov	r6, r2
 1311 0018 002A     		cmp	r2, #0
ARM GAS  C:\Users\mathi\AppData\Local\Temp\cciADa79.s 			page 24


 1312 001a 62D0     		beq	.L152
 1313              	.LVL121:
 1314              	.L121:
 1315              	.LBB225:
 1316              	.LBB226:
 1317              	.LBB227:
 1318              	.LBB228:
 1319              	.LBB229:
 1320              		.loc 4 546 0
 1321 001c 4FF02009 		mov	r9, #32
 1322              		.syntax unified
 1323              	@ 546 "../../lib/e-puck2_main-processor/ChibiOS//os/ext/CMSIS/include/core_cmFunc.h" 1
 1324 0020 89F31188 		MSR basepri, r9
 1325              	@ 0 "" 2
 1326              	.LVL122:
 1327              		.thumb
 1328              		.syntax unified
 1329              	.LBE229:
 1330              	.LBE228:
 1331              	.LBE227:
 1332              		.loc 5 349 0
 1333 0024 FFF7FEFF 		bl	_stats_start_measure_crit_thd
 1334              	.LVL123:
 1335              		.loc 5 350 0
 1336 0028 FFF7FEFF 		bl	_dbg_check_lock
 1337              	.LVL124:
 1338 002c BAF1000F 		cmp	r10, #0
 1339 0030 5FD0     		beq	.L153
 1340              	.LBE226:
 1341              	.LBE225:
 1342              		.loc 1 413 0
 1343 0032 4FF00008 		mov	r8, #0
 1344 0036 514F     		ldr	r7, .L158+4
 1345              	.LBB230:
 1346              	.LBB231:
 1347              	.LBB232:
 1348              	.LBB233:
 1349              	.LBB234:
 1350              		.loc 4 546 0
 1351 0038 C346     		mov	fp, r8
 1352              	.LVL125:
 1353              	.L122:
 1354              	.LBE234:
 1355              	.LBE233:
 1356              	.LBE232:
 1357              	.LBE231:
 1358              	.LBE230:
 1359              	.LBB249:
 1360              	.LBB250:
 1361              		.loc 3 405 0
 1362 003a FFF7FEFF 		bl	chDbgCheckClassI
 1363              	.LVL126:
 1364              		.loc 3 407 0
 1365 003e A368     		ldr	r3, [r4, #8]
 1366              	.LBE250:
 1367              	.LBE249:
 1368              		.loc 1 419 0
ARM GAS  C:\Users\mathi\AppData\Local\Temp\cciADa79.s 			page 25


 1369 0040 002B     		cmp	r3, #0
 1370 0042 30D0     		beq	.L135
 1371              	.L154:
 1372              		.loc 1 427 0
 1373 0044 6269     		ldr	r2, [r4, #20]
 1374              		.loc 1 426 0
 1375 0046 013B     		subs	r3, r3, #1
 1376              		.loc 1 427 0
 1377 0048 511C     		adds	r1, r2, #1
 1378 004a 6161     		str	r1, [r4, #20]
 1379              		.loc 1 426 0
 1380 004c A360     		str	r3, [r4, #8]
 1381              		.loc 1 427 0
 1382 004e 2B78     		ldrb	r3, [r5]	@ zero_extendqisi2
 1383 0050 1370     		strb	r3, [r2]
 1384              		.loc 1 428 0
 1385 0052 D4E90432 		ldrd	r3, r2, [r4, #16]
 1386 0056 9A42     		cmp	r2, r3
 1387              		.loc 1 429 0
 1388 0058 24BF     		itt	cs
 1389 005a E368     		ldrcs	r3, [r4, #12]
 1390 005c 6361     		strcs	r3, [r4, #20]
 1391              		.loc 1 433 0
 1392 005e 2046     		mov	r0, r4
 1393 0060 D047     		blx	r10
 1394              	.LVL127:
 1395              	.LBB254:
 1396              	.LBB244:
 1397              		.loc 5 360 0
 1398 0062 FFF7FEFF 		bl	_dbg_check_unlock
 1399              	.LVL128:
 1400              		.loc 5 361 0
 1401 0066 FFF7FEFF 		bl	_stats_stop_measure_crit_thd
 1402              	.LVL129:
 1403              		.loc 5 367 0
 1404 006a 3B68     		ldr	r3, [r7]
 1405 006c BB42     		cmp	r3, r7
 1406              	.LBE244:
 1407              	.LBE254:
 1408              		.loc 1 427 0
 1409 006e 05F10105 		add	r5, r5, #1
 1410              	.LVL130:
 1411              	.LBB255:
 1412              	.LBB245:
 1413              		.loc 5 367 0
 1414 0072 07D0     		beq	.L137
 1415 0074 BA69     		ldr	r2, [r7, #24]
 1416 0076 9B68     		ldr	r3, [r3, #8]
 1417 0078 9268     		ldr	r2, [r2, #8]
 1418 007a 9A42     		cmp	r2, r3
 1419 007c 02D2     		bcs	.L137
 1420 007e 4048     		ldr	r0, .L158+8
 1421 0080 FFF7FEFF 		bl	chSysHalt
 1422              	.LVL131:
 1423              	.L137:
 1424              	.LBB241:
 1425              	.LBB238:
ARM GAS  C:\Users\mathi\AppData\Local\Temp\cciADa79.s 			page 26


 1426              	.LBB235:
 1427              		.loc 4 546 0
 1428              		.syntax unified
 1429              	@ 546 "../../lib/e-puck2_main-processor/ChibiOS//os/ext/CMSIS/include/core_cmFunc.h" 1
 1430 0084 8BF31188 		MSR basepri, fp
 1431              	@ 0 "" 2
 1432              	.LVL132:
 1433              		.thumb
 1434              		.syntax unified
 1435              	.LBE235:
 1436              	.LBE238:
 1437              	.LBE241:
 1438              	.LBE245:
 1439              	.LBE255:
 1440              		.loc 1 438 0
 1441 0088 013E     		subs	r6, r6, #1
 1442              	.LVL133:
 1443              		.loc 1 437 0
 1444 008a 08F10108 		add	r8, r8, #1
 1445              	.LVL134:
 1446              		.loc 1 438 0
 1447 008e 1FD0     		beq	.L120
 1448              	.LVL135:
 1449              	.LBB256:
 1450              	.LBB257:
 1451              	.LBB258:
 1452              	.LBB259:
 1453              	.LBB260:
 1454              		.loc 4 546 0
 1455              		.syntax unified
 1456              	@ 546 "../../lib/e-puck2_main-processor/ChibiOS//os/ext/CMSIS/include/core_cmFunc.h" 1
 1457 0090 89F31188 		MSR basepri, r9
 1458              	@ 0 "" 2
 1459              	.LVL136:
 1460              		.thumb
 1461              		.syntax unified
 1462              	.LBE260:
 1463              	.LBE259:
 1464              	.LBE258:
 1465              		.loc 5 349 0
 1466 0094 FFF7FEFF 		bl	_stats_start_measure_crit_thd
 1467              	.LVL137:
 1468              		.loc 5 350 0
 1469 0098 FFF7FEFF 		bl	_dbg_check_lock
 1470              	.LVL138:
 1471              	.LBE257:
 1472              	.LBE256:
 1473              	.LBB269:
 1474              	.LBB251:
 1475              		.loc 3 405 0
 1476 009c FFF7FEFF 		bl	chDbgCheckClassI
 1477              	.LVL139:
 1478              		.loc 3 407 0
 1479 00a0 A368     		ldr	r3, [r4, #8]
 1480              	.LBE251:
 1481              	.LBE269:
 1482              		.loc 1 419 0
ARM GAS  C:\Users\mathi\AppData\Local\Temp\cciADa79.s 			page 27


 1483 00a2 002B     		cmp	r3, #0
 1484 00a4 CED1     		bne	.L154
 1485              	.L135:
 1486              		.loc 1 420 0
 1487 00a6 0199     		ldr	r1, [sp, #4]
 1488 00a8 2046     		mov	r0, r4
 1489 00aa FFF7FEFF 		bl	chThdEnqueueTimeoutS
 1490              	.LVL140:
 1491 00ae 0028     		cmp	r0, #0
 1492 00b0 C3D0     		beq	.L122
 1493              	.LVL141:
 1494              	.L130:
 1495              	.LBB270:
 1496              	.LBB271:
 1497              		.loc 5 360 0
 1498 00b2 FFF7FEFF 		bl	_dbg_check_unlock
 1499              	.LVL142:
 1500              		.loc 5 361 0
 1501 00b6 FFF7FEFF 		bl	_stats_stop_measure_crit_thd
 1502              	.LVL143:
 1503              		.loc 5 367 0
 1504 00ba 3B68     		ldr	r3, [r7]
 1505 00bc BB42     		cmp	r3, r7
 1506 00be 04D0     		beq	.L133
 1507 00c0 BA69     		ldr	r2, [r7, #24]
 1508 00c2 9B68     		ldr	r3, [r3, #8]
 1509 00c4 9268     		ldr	r2, [r2, #8]
 1510 00c6 9A42     		cmp	r2, r3
 1511 00c8 0FD3     		bcc	.L155
 1512              	.L133:
 1513              	.LVL144:
 1514              	.LBB272:
 1515              	.LBB273:
 1516              	.LBB274:
 1517              		.loc 4 546 0
 1518 00ca 0023     		movs	r3, #0
 1519              		.syntax unified
 1520              	@ 546 "../../lib/e-puck2_main-processor/ChibiOS//os/ext/CMSIS/include/core_cmFunc.h" 1
 1521 00cc 83F31188 		MSR basepri, r3
 1522              	@ 0 "" 2
 1523              	.LVL145:
 1524              		.thumb
 1525              		.syntax unified
 1526              	.L120:
 1527              	.LBE274:
 1528              	.LBE273:
 1529              	.LBE272:
 1530              	.LBE271:
 1531              	.LBE270:
 1532              		.loc 1 443 0
 1533 00d0 294B     		ldr	r3, .L158
 1534 00d2 039A     		ldr	r2, [sp, #12]
 1535 00d4 1B68     		ldr	r3, [r3]
 1536 00d6 9A42     		cmp	r2, r3
 1537 00d8 4046     		mov	r0, r8
 1538 00da 4AD1     		bne	.L156
 1539              	.LVL146:
ARM GAS  C:\Users\mathi\AppData\Local\Temp\cciADa79.s 			page 28


 1540 00dc 05B0     		add	sp, sp, #20
 1541              		.cfi_remember_state
 1542              		.cfi_def_cfa_offset 36
 1543              		@ sp needed
 1544 00de BDE8F08F 		pop	{r4, r5, r6, r7, r8, r9, r10, fp, pc}
 1545              	.LVL147:
 1546              	.L152:
 1547              		.cfi_restore_state
 1548              		.loc 1 415 0 discriminator 2
 1549 00e2 2848     		ldr	r0, .L158+12
 1550 00e4 FFF7FEFF 		bl	chSysHalt
 1551              	.LVL148:
 1552 00e8 98E7     		b	.L121
 1553              	.LVL149:
 1554              	.L155:
 1555              	.LBB276:
 1556              	.LBB275:
 1557              		.loc 5 367 0
 1558 00ea 2548     		ldr	r0, .L158+8
 1559 00ec FFF7FEFF 		bl	chSysHalt
 1560              	.LVL150:
 1561 00f0 EBE7     		b	.L133
 1562              	.LVL151:
 1563              	.L153:
 1564              	.LBE275:
 1565              	.LBE276:
 1566              		.loc 1 413 0
 1567 00f2 D046     		mov	r8, r10
 1568 00f4 214F     		ldr	r7, .L158+4
 1569              	.LBB277:
 1570              	.LBB246:
 1571              		.loc 5 367 0
 1572 00f6 DFF888B0 		ldr	fp, .L158+8
 1573              	.LBE246:
 1574              	.LBE277:
 1575              	.LBB278:
 1576              	.LBB267:
 1577              	.LBB265:
 1578              	.LBB263:
 1579              	.LBB261:
 1580              		.loc 4 546 0
 1581 00fa CA46     		mov	r10, r9
 1582              	.LVL152:
 1583              	.LBE261:
 1584              	.LBE263:
 1585              	.LBE265:
 1586              	.LBE267:
 1587              	.LBE278:
 1588              	.LBB279:
 1589              	.LBB247:
 1590              	.LBB242:
 1591              	.LBB239:
 1592              	.LBB236:
 1593 00fc C146     		mov	r9, r8
 1594              	.LVL153:
 1595              	.L131:
 1596              	.LBE236:
ARM GAS  C:\Users\mathi\AppData\Local\Temp\cciADa79.s 			page 29


 1597              	.LBE239:
 1598              	.LBE242:
 1599              	.LBE247:
 1600              	.LBE279:
 1601              	.LBB280:
 1602              	.LBB252:
 1603              		.loc 3 405 0
 1604 00fe FFF7FEFF 		bl	chDbgCheckClassI
 1605              	.LVL154:
 1606              		.loc 3 407 0
 1607 0102 A368     		ldr	r3, [r4, #8]
 1608              	.LBE252:
 1609              	.LBE280:
 1610              		.loc 1 419 0
 1611 0104 73B3     		cbz	r3, .L123
 1612              	.L157:
 1613              		.loc 1 427 0
 1614 0106 6269     		ldr	r2, [r4, #20]
 1615              		.loc 1 426 0
 1616 0108 013B     		subs	r3, r3, #1
 1617              		.loc 1 427 0
 1618 010a 511C     		adds	r1, r2, #1
 1619 010c 6161     		str	r1, [r4, #20]
 1620              		.loc 1 426 0
 1621 010e A360     		str	r3, [r4, #8]
 1622              		.loc 1 427 0
 1623 0110 2B78     		ldrb	r3, [r5]	@ zero_extendqisi2
 1624 0112 1370     		strb	r3, [r2]
 1625              		.loc 1 428 0
 1626 0114 D4E90432 		ldrd	r3, r2, [r4, #16]
 1627 0118 9A42     		cmp	r2, r3
 1628              		.loc 1 427 0
 1629 011a 05F10105 		add	r5, r5, #1
 1630              	.LVL155:
 1631              		.loc 1 428 0
 1632 011e 01D3     		bcc	.L129
 1633              		.loc 1 429 0
 1634 0120 E368     		ldr	r3, [r4, #12]
 1635 0122 6361     		str	r3, [r4, #20]
 1636              	.L129:
 1637              	.LBB281:
 1638              	.LBB248:
 1639              		.loc 5 360 0
 1640 0124 FFF7FEFF 		bl	_dbg_check_unlock
 1641              	.LVL156:
 1642              		.loc 5 361 0
 1643 0128 FFF7FEFF 		bl	_stats_stop_measure_crit_thd
 1644              	.LVL157:
 1645              		.loc 5 367 0
 1646 012c 3B68     		ldr	r3, [r7]
 1647 012e BB42     		cmp	r3, r7
 1648 0130 07D0     		beq	.L128
 1649 0132 BA69     		ldr	r2, [r7, #24]
 1650 0134 9B68     		ldr	r3, [r3, #8]
 1651 0136 9268     		ldr	r2, [r2, #8]
 1652 0138 9A42     		cmp	r2, r3
 1653 013a 02D2     		bcs	.L128
ARM GAS  C:\Users\mathi\AppData\Local\Temp\cciADa79.s 			page 30


 1654 013c 5846     		mov	r0, fp
 1655 013e FFF7FEFF 		bl	chSysHalt
 1656              	.LVL158:
 1657              	.L128:
 1658              	.LBB243:
 1659              	.LBB240:
 1660              	.LBB237:
 1661              		.loc 4 546 0
 1662              		.syntax unified
 1663              	@ 546 "../../lib/e-puck2_main-processor/ChibiOS//os/ext/CMSIS/include/core_cmFunc.h" 1
 1664 0142 89F31188 		MSR basepri, r9
 1665              	@ 0 "" 2
 1666              	.LVL159:
 1667              		.thumb
 1668              		.syntax unified
 1669              	.LBE237:
 1670              	.LBE240:
 1671              	.LBE243:
 1672              	.LBE248:
 1673              	.LBE281:
 1674              		.loc 1 438 0
 1675 0146 013E     		subs	r6, r6, #1
 1676              	.LVL160:
 1677              		.loc 1 437 0
 1678 0148 08F10108 		add	r8, r8, #1
 1679              	.LVL161:
 1680              		.loc 1 438 0
 1681 014c C0D0     		beq	.L120
 1682              	.LVL162:
 1683              	.LBB282:
 1684              	.LBB268:
 1685              	.LBB266:
 1686              	.LBB264:
 1687              	.LBB262:
 1688              		.loc 4 546 0
 1689              		.syntax unified
 1690              	@ 546 "../../lib/e-puck2_main-processor/ChibiOS//os/ext/CMSIS/include/core_cmFunc.h" 1
 1691 014e 8AF31188 		MSR basepri, r10
 1692              	@ 0 "" 2
 1693              	.LVL163:
 1694              		.thumb
 1695              		.syntax unified
 1696              	.LBE262:
 1697              	.LBE264:
 1698              	.LBE266:
 1699              		.loc 5 349 0
 1700 0152 FFF7FEFF 		bl	_stats_start_measure_crit_thd
 1701              	.LVL164:
 1702              		.loc 5 350 0
 1703 0156 FFF7FEFF 		bl	_dbg_check_lock
 1704              	.LVL165:
 1705              	.LBE268:
 1706              	.LBE282:
 1707              	.LBB283:
 1708              	.LBB253:
 1709              		.loc 3 405 0
 1710 015a FFF7FEFF 		bl	chDbgCheckClassI
ARM GAS  C:\Users\mathi\AppData\Local\Temp\cciADa79.s 			page 31


 1711              	.LVL166:
 1712              		.loc 3 407 0
 1713 015e A368     		ldr	r3, [r4, #8]
 1714              	.LBE253:
 1715              	.LBE283:
 1716              		.loc 1 419 0
 1717 0160 002B     		cmp	r3, #0
 1718 0162 D0D1     		bne	.L157
 1719              	.L123:
 1720              		.loc 1 420 0
 1721 0164 0199     		ldr	r1, [sp, #4]
 1722 0166 2046     		mov	r0, r4
 1723 0168 FFF7FEFF 		bl	chThdEnqueueTimeoutS
 1724              	.LVL167:
 1725 016c 0028     		cmp	r0, #0
 1726 016e C6D0     		beq	.L131
 1727 0170 9FE7     		b	.L130
 1728              	.LVL168:
 1729              	.L156:
 1730              		.loc 1 443 0
 1731 0172 FFF7FEFF 		bl	__stack_chk_fail
 1732              	.LVL169:
 1733              	.L159:
 1734 0176 00BF     		.align	2
 1735              	.L158:
 1736 0178 00000000 		.word	__stack_chk_guard
 1737 017c 00000000 		.word	ch
 1738 0180 00000000 		.word	.LANCHOR0
 1739 0184 00000000 		.word	.LANCHOR2
 1740              		.cfi_endproc
 1741              	.LFE228:
 1742              		.size	chOQWriteTimeout, .-chOQWriteTimeout
 1743              		.section	.rodata.__func__.7153,"a",%progbits
 1744              		.align	2
 1745              		.set	.LANCHOR0,. + 0
 1746              		.type	__func__.7153, %object
 1747              		.size	__func__.7153, 12
 1748              	__func__.7153:
 1749 0000 63685379 		.ascii	"chSysUnlock\000"
 1749      73556E6C 
 1749      6F636B00 
 1750              		.section	.rodata.__func__.7877,"a",%progbits
 1751              		.align	2
 1752              		.set	.LANCHOR1,. + 0
 1753              		.type	__func__.7877, %object
 1754              		.size	__func__.7877, 16
 1755              	__func__.7877:
 1756 0000 63684951 		.ascii	"chIQReadTimeout\000"
 1756      52656164 
 1756      54696D65 
 1756      6F757400 
 1757              		.section	.rodata.__func__.7913,"a",%progbits
 1758              		.align	2
 1759              		.set	.LANCHOR2,. + 0
 1760              		.type	__func__.7913, %object
 1761              		.size	__func__.7913, 17
 1762              	__func__.7913:
ARM GAS  C:\Users\mathi\AppData\Local\Temp\cciADa79.s 			page 32


 1763 0000 63684F51 		.ascii	"chOQWriteTimeout\000"
 1763      57726974 
 1763      6554696D 
 1763      656F7574 
 1763      00
 1764              		.text
 1765              	.Letext0:
 1766              		.file 6 "c:\\eclipse_e-puck2\\tools\\gcc-arm-none-eabi-7-2017-q4-major-win32\\lib\\gcc\\arm-none-e
 1767              		.file 7 "c:\\eclipse_e-puck2\\tools\\gcc-arm-none-eabi-7-2017-q4-major-win32\\arm-none-eabi\\inclu
 1768              		.file 8 "c:\\eclipse_e-puck2\\tools\\gcc-arm-none-eabi-7-2017-q4-major-win32\\arm-none-eabi\\inclu
 1769              		.file 9 "../../lib/e-puck2_main-processor/ChibiOS//os/rt/ports/ARMCMx/compilers/GCC/chtypes.h"
 1770              		.file 10 "../../lib/e-puck2_main-processor/ChibiOS//os/rt/include/chsystypes.h"
 1771              		.file 11 "../../lib/e-puck2_main-processor/ChibiOS//os/ext/CMSIS/include/core_cm4.h"
 1772              		.file 12 "../../lib/e-puck2_main-processor/ChibiOS//os/ext/CMSIS/ST/system_stm32f4xx.h"
 1773              		.file 13 "../../lib/e-puck2_main-processor/ChibiOS//os/rt/ports/ARMCMx/chcore.h"
 1774              		.file 14 "../../lib/e-puck2_main-processor/ChibiOS//os/rt/ports/ARMCMx/chcore_v7m.h"
 1775              		.file 15 "../../lib/e-puck2_main-processor/ChibiOS//os/rt/include/chdebug.h"
 1776              		.file 16 "../../lib/e-puck2_main-processor/ChibiOS//os/rt/include/chtm.h"
 1777              		.file 17 "../../lib/e-puck2_main-processor/ChibiOS//os/rt/include/chstats.h"
 1778              		.file 18 "../../lib/e-puck2_main-processor/ChibiOS//os/rt/include/chsem.h"
 1779              		.file 19 "../../lib/e-puck2_main-processor/ChibiOS//os/rt/include/chmtx.h"
 1780              		.file 20 "../../lib/e-puck2_main-processor/ChibiOS//os/rt/include/chregistry.h"
 1781              		.file 21 "../../lib/e-puck2_main-processor/ChibiOS//os/rt/include/chthreads.h"