ARM GAS  C:\Users\mathi\AppData\Local\Temp\cc2OwS6v.s 			page 1


   1              		.cpu cortex-m4
   2              		.eabi_attribute 27, 1
   3              		.eabi_attribute 28, 1
   4              		.eabi_attribute 20, 1
   5              		.eabi_attribute 21, 1
   6              		.eabi_attribute 23, 3
   7              		.eabi_attribute 24, 1
   8              		.eabi_attribute 25, 1
   9              		.eabi_attribute 26, 1
  10              		.eabi_attribute 30, 2
  11              		.eabi_attribute 34, 1
  12              		.eabi_attribute 18, 4
  13              		.file	"chsem.c"
  14              		.text
  15              	.Ltext0:
  16              		.cfi_sections	.debug_frame
  17              		.section	.text.chSemObjectInit,"ax",%progbits
  18              		.align	1
  19              		.p2align 4,,15
  20              		.global	chSemObjectInit
  21              		.syntax unified
  22              		.thumb
  23              		.thumb_func
  24              		.fpu fpv4-sp-d16
  25              		.type	chSemObjectInit, %function
  26              	chSemObjectInit:
  27              	.LFB219:
  28              		.file 1 "../../lib/e-puck2_main-processor/ChibiOS//os/rt/src/chsem.c"
  29              		.loc 1 97 0
  30              		.cfi_startproc
  31              		@ args = 0, pretend = 0, frame = 8
  32              		@ frame_needed = 0, uses_anonymous_args = 0
  33              	.LVL0:
  34 0000 70B5     		push	{r4, r5, r6, lr}
  35              		.cfi_def_cfa_offset 16
  36              		.cfi_offset 4, -16
  37              		.cfi_offset 5, -12
  38              		.cfi_offset 6, -8
  39              		.cfi_offset 14, -4
  40 0002 0C4D     		ldr	r5, .L11
  41 0004 82B0     		sub	sp, sp, #8
  42              		.cfi_def_cfa_offset 24
  43              		.loc 1 97 0
  44 0006 2B68     		ldr	r3, [r5]
  45 0008 0193     		str	r3, [sp, #4]
  46 000a 0E46     		mov	r6, r1
  47              		.loc 1 99 0
  48 000c 0446     		mov	r4, r0
  49 000e 50B1     		cbz	r0, .L2
  50              		.loc 1 99 0 is_stmt 0 discriminator 3
  51 0010 0029     		cmp	r1, #0
  52 0012 08DB     		blt	.L2
  53              	.LVL1:
  54              	.L3:
  55              	.LBB103:
  56              	.LBB104:
  57              		.file 2 "../../lib/e-puck2_main-processor/ChibiOS//os/rt/include/chschd.h"
ARM GAS  C:\Users\mathi\AppData\Local\Temp\cc2OwS6v.s 			page 2


  58              		.loc 2 604 0 is_stmt 1
  59 0014 2460     		str	r4, [r4]
  60              	.LBE104:
  61              	.LBE103:
  62              		.loc 1 103 0
  63 0016 019A     		ldr	r2, [sp, #4]
  64 0018 2B68     		ldr	r3, [r5]
  65 001a 9A42     		cmp	r2, r3
  66              		.loc 1 102 0
  67 001c C4E90146 		strd	r4, r6, [r4, #4]
  68              		.loc 1 103 0
  69 0020 05D1     		bne	.L10
  70 0022 02B0     		add	sp, sp, #8
  71              		.cfi_remember_state
  72              		.cfi_def_cfa_offset 16
  73              		@ sp needed
  74 0024 70BD     		pop	{r4, r5, r6, pc}
  75              	.LVL2:
  76              	.L2:
  77              		.cfi_restore_state
  78              		.loc 1 99 0 discriminator 4
  79 0026 0448     		ldr	r0, .L11+4
  80              	.LVL3:
  81 0028 FFF7FEFF 		bl	chSysHalt
  82              	.LVL4:
  83 002c F2E7     		b	.L3
  84              	.LVL5:
  85              	.L10:
  86              		.loc 1 103 0
  87 002e FFF7FEFF 		bl	__stack_chk_fail
  88              	.LVL6:
  89              	.L12:
  90 0032 00BF     		.align	2
  91              	.L11:
  92 0034 00000000 		.word	__stack_chk_guard
  93 0038 00000000 		.word	.LANCHOR0
  94              		.cfi_endproc
  95              	.LFE219:
  96              		.size	chSemObjectInit, .-chSemObjectInit
  97              		.section	.text.chSemReset,"ax",%progbits
  98              		.align	1
  99              		.p2align 4,,15
 100              		.global	chSemReset
 101              		.syntax unified
 102              		.thumb
 103              		.thumb_func
 104              		.fpu fpv4-sp-d16
 105              		.type	chSemReset, %function
 106              	chSemReset:
 107              	.LFB220:
 108              		.loc 1 120 0
 109              		.cfi_startproc
 110              		@ args = 0, pretend = 0, frame = 8
 111              		@ frame_needed = 0, uses_anonymous_args = 0
 112              	.LVL7:
 113 0000 F0B5     		push	{r4, r5, r6, r7, lr}
 114              		.cfi_def_cfa_offset 20
ARM GAS  C:\Users\mathi\AppData\Local\Temp\cc2OwS6v.s 			page 3


 115              		.cfi_offset 4, -20
 116              		.cfi_offset 5, -16
 117              		.cfi_offset 6, -12
 118              		.cfi_offset 7, -8
 119              		.cfi_offset 14, -4
 120 0002 2A4F     		ldr	r7, .L31
 121 0004 83B0     		sub	sp, sp, #12
 122              		.cfi_def_cfa_offset 32
 123              		.loc 1 120 0
 124 0006 3B68     		ldr	r3, [r7]
 125 0008 0193     		str	r3, [sp, #4]
 126              	.LVL8:
 127 000a 0446     		mov	r4, r0
 128 000c 0E46     		mov	r6, r1
 129              	.LBB123:
 130              	.LBB124:
 131              	.LBB125:
 132              	.LBB126:
 133              	.LBB127:
 134              		.file 3 "../../lib/e-puck2_main-processor/ChibiOS//os/ext/CMSIS/include/core_cmFunc.h"
 135              		.loc 3 546 0
 136 000e 2023     		movs	r3, #32
 137              		.syntax unified
 138              	@ 546 "../../lib/e-puck2_main-processor/ChibiOS//os/ext/CMSIS/include/core_cmFunc.h" 1
 139 0010 83F31188 		MSR basepri, r3
 140              	@ 0 "" 2
 141              	.LVL9:
 142              		.thumb
 143              		.syntax unified
 144              	.LBE127:
 145              	.LBE126:
 146              	.LBE125:
 147              		.file 4 "../../lib/e-puck2_main-processor/ChibiOS//os/rt/include/chsys.h"
 148              		.loc 4 349 0
 149 0014 FFF7FEFF 		bl	_stats_start_measure_crit_thd
 150              	.LVL10:
 151              		.loc 4 350 0
 152 0018 FFF7FEFF 		bl	_dbg_check_lock
 153              	.LVL11:
 154              	.LBE124:
 155              	.LBE123:
 156              	.LBB128:
 157              	.LBB129:
 158              		.loc 1 150 0
 159 001c FFF7FEFF 		bl	chDbgCheckClassI
 160              	.LVL12:
 161              		.loc 1 151 0
 162 0020 002C     		cmp	r4, #0
 163 0022 37D0     		beq	.L14
 164 0024 002E     		cmp	r6, #0
 165 0026 35DB     		blt	.L14
 166              		.loc 1 152 0
 167 0028 A568     		ldr	r5, [r4, #8]
 168 002a 2368     		ldr	r3, [r4]
 169 002c 002D     		cmp	r5, #0
 170 002e 38DB     		blt	.L16
 171              	.L30:
ARM GAS  C:\Users\mathi\AppData\Local\Temp\cc2OwS6v.s 			page 4


 172 0030 A342     		cmp	r3, r4
 173 0032 03D0     		beq	.L18
 174              	.L17:
 175 0034 1E48     		ldr	r0, .L31+4
 176 0036 FFF7FEFF 		bl	chSysHalt
 177              	.LVL13:
 178 003a A568     		ldr	r5, [r4, #8]
 179              	.L18:
 180              	.LVL14:
 181              		.loc 1 157 0
 182 003c A660     		str	r6, [r4, #8]
 183              	.LVL15:
 184              		.loc 1 158 0
 185 003e 0135     		adds	r5, r5, #1
 186              	.LVL16:
 187 0040 002D     		cmp	r5, #0
 188 0042 0BDC     		bgt	.L19
 189              		.loc 1 159 0
 190 0044 6FF00106 		mvn	r6, #1
 191              	.LVL17:
 192              	.L20:
 193              	.LBB130:
 194              	.LBB131:
 195              		.loc 2 681 0
 196 0048 6068     		ldr	r0, [r4, #4]
 197              	.LVL18:
 198              		.loc 2 683 0
 199 004a 4368     		ldr	r3, [r0, #4]
 200 004c 6360     		str	r3, [r4, #4]
 201              		.loc 2 684 0
 202 004e 1C60     		str	r4, [r3]
 203              	.LVL19:
 204              	.LBE131:
 205              	.LBE130:
 206              		.loc 1 159 0
 207 0050 FFF7FEFF 		bl	chSchReadyI
 208              	.LVL20:
 209              		.loc 1 158 0
 210 0054 0135     		adds	r5, r5, #1
 211              	.LVL21:
 212 0056 012D     		cmp	r5, #1
 213              		.loc 1 159 0
 214 0058 8662     		str	r6, [r0, #40]
 215              	.LVL22:
 216              		.loc 1 158 0
 217 005a F5D1     		bne	.L20
 218              	.L19:
 219              	.LVL23:
 220              	.LBE129:
 221              	.LBE128:
 222              		.loc 1 124 0
 223 005c FFF7FEFF 		bl	chSchRescheduleS
 224              	.LVL24:
 225              	.LBB133:
 226              	.LBB134:
 227              		.loc 4 360 0
 228 0060 FFF7FEFF 		bl	_dbg_check_unlock
ARM GAS  C:\Users\mathi\AppData\Local\Temp\cc2OwS6v.s 			page 5


 229              	.LVL25:
 230              		.loc 4 361 0
 231 0064 FFF7FEFF 		bl	_stats_stop_measure_crit_thd
 232              	.LVL26:
 233              		.loc 4 367 0
 234 0068 124B     		ldr	r3, .L31+8
 235 006a 1A68     		ldr	r2, [r3]
 236 006c 9A42     		cmp	r2, r3
 237 006e 04D0     		beq	.L21
 238 0070 9969     		ldr	r1, [r3, #24]
 239 0072 9368     		ldr	r3, [r2, #8]
 240 0074 8A68     		ldr	r2, [r1, #8]
 241 0076 9A42     		cmp	r2, r3
 242 0078 08D3     		bcc	.L28
 243              	.L21:
 244              	.LVL27:
 245              	.LBB135:
 246              	.LBB136:
 247              	.LBB137:
 248              		.loc 3 546 0
 249 007a 0023     		movs	r3, #0
 250              		.syntax unified
 251              	@ 546 "../../lib/e-puck2_main-processor/ChibiOS//os/ext/CMSIS/include/core_cmFunc.h" 1
 252 007c 83F31188 		MSR basepri, r3
 253              	@ 0 "" 2
 254              	.LVL28:
 255              		.thumb
 256              		.syntax unified
 257              	.LBE137:
 258              	.LBE136:
 259              	.LBE135:
 260              	.LBE134:
 261              	.LBE133:
 262              		.loc 1 126 0
 263 0080 019A     		ldr	r2, [sp, #4]
 264 0082 3B68     		ldr	r3, [r7]
 265 0084 9A42     		cmp	r2, r3
 266 0086 0FD1     		bne	.L29
 267 0088 03B0     		add	sp, sp, #12
 268              		.cfi_remember_state
 269              		.cfi_def_cfa_offset 20
 270              		@ sp needed
 271 008a F0BD     		pop	{r4, r5, r6, r7, pc}
 272              	.LVL29:
 273              	.L28:
 274              		.cfi_restore_state
 275              	.LBB139:
 276              	.LBB138:
 277              		.loc 4 367 0
 278 008c 0A48     		ldr	r0, .L31+12
 279 008e FFF7FEFF 		bl	chSysHalt
 280              	.LVL30:
 281 0092 F2E7     		b	.L21
 282              	.LVL31:
 283              	.L14:
 284              	.LBE138:
 285              	.LBE139:
ARM GAS  C:\Users\mathi\AppData\Local\Temp\cc2OwS6v.s 			page 6


 286              	.LBB140:
 287              	.LBB132:
 288              		.loc 1 151 0
 289 0094 0648     		ldr	r0, .L31+4
 290 0096 FFF7FEFF 		bl	chSysHalt
 291              	.LVL32:
 292              		.loc 1 152 0
 293 009a A568     		ldr	r5, [r4, #8]
 294 009c 2368     		ldr	r3, [r4]
 295 009e 002D     		cmp	r5, #0
 296 00a0 C6DA     		bge	.L30
 297              	.L16:
 298 00a2 A342     		cmp	r3, r4
 299 00a4 CAD1     		bne	.L18
 300 00a6 C5E7     		b	.L17
 301              	.LVL33:
 302              	.L29:
 303              	.LBE132:
 304              	.LBE140:
 305              		.loc 1 126 0
 306 00a8 FFF7FEFF 		bl	__stack_chk_fail
 307              	.LVL34:
 308              	.L32:
 309              		.align	2
 310              	.L31:
 311 00ac 00000000 		.word	__stack_chk_guard
 312 00b0 00000000 		.word	.LANCHOR1
 313 00b4 00000000 		.word	ch
 314 00b8 00000000 		.word	.LANCHOR2
 315              		.cfi_endproc
 316              	.LFE220:
 317              		.size	chSemReset, .-chSemReset
 318              		.section	.text.chSemResetI,"ax",%progbits
 319              		.align	1
 320              		.p2align 4,,15
 321              		.global	chSemResetI
 322              		.syntax unified
 323              		.thumb
 324              		.thumb_func
 325              		.fpu fpv4-sp-d16
 326              		.type	chSemResetI, %function
 327              	chSemResetI:
 328              	.LFB221:
 329              		.loc 1 147 0
 330              		.cfi_startproc
 331              		@ args = 0, pretend = 0, frame = 8
 332              		@ frame_needed = 0, uses_anonymous_args = 0
 333              	.LVL35:
 334 0000 F0B5     		push	{r4, r5, r6, r7, lr}
 335              		.cfi_def_cfa_offset 20
 336              		.cfi_offset 4, -20
 337              		.cfi_offset 5, -16
 338              		.cfi_offset 6, -12
 339              		.cfi_offset 7, -8
 340              		.cfi_offset 14, -4
 341 0002 1B4F     		ldr	r7, .L49
 342 0004 83B0     		sub	sp, sp, #12
ARM GAS  C:\Users\mathi\AppData\Local\Temp\cc2OwS6v.s 			page 7


 343              		.cfi_def_cfa_offset 32
 344              		.loc 1 147 0
 345 0006 0446     		mov	r4, r0
 346 0008 3B68     		ldr	r3, [r7]
 347 000a 0193     		str	r3, [sp, #4]
 348 000c 0E46     		mov	r6, r1
 349              		.loc 1 150 0
 350 000e FFF7FEFF 		bl	chDbgCheckClassI
 351              	.LVL36:
 352              		.loc 1 151 0
 353 0012 0CB3     		cbz	r4, .L34
 354              		.loc 1 151 0 is_stmt 0 discriminator 3
 355 0014 002E     		cmp	r6, #0
 356 0016 1FDB     		blt	.L34
 357              		.loc 1 152 0 is_stmt 1 discriminator 1
 358 0018 A568     		ldr	r5, [r4, #8]
 359 001a 2368     		ldr	r3, [r4]
 360 001c 002D     		cmp	r5, #0
 361 001e 22DB     		blt	.L36
 362              	.L48:
 363              		.loc 1 152 0 is_stmt 0 discriminator 3
 364 0020 9C42     		cmp	r4, r3
 365 0022 03D0     		beq	.L38
 366              	.L37:
 367              		.loc 1 152 0 discriminator 7
 368 0024 1348     		ldr	r0, .L49+4
 369 0026 FFF7FEFF 		bl	chSysHalt
 370              	.LVL37:
 371 002a A568     		ldr	r5, [r4, #8]
 372              	.L38:
 373              	.LVL38:
 374              		.loc 1 157 0 is_stmt 1
 375 002c A660     		str	r6, [r4, #8]
 376              	.LVL39:
 377              		.loc 1 158 0
 378 002e 0135     		adds	r5, r5, #1
 379              	.LVL40:
 380 0030 002D     		cmp	r5, #0
 381 0032 0BDC     		bgt	.L33
 382              		.loc 1 159 0
 383 0034 6FF00106 		mvn	r6, #1
 384              	.LVL41:
 385              	.L40:
 386              	.LBB141:
 387              	.LBB142:
 388              		.loc 2 681 0
 389 0038 6068     		ldr	r0, [r4, #4]
 390              	.LVL42:
 391              		.loc 2 683 0
 392 003a 4368     		ldr	r3, [r0, #4]
 393 003c 6360     		str	r3, [r4, #4]
 394              		.loc 2 684 0
 395 003e 1C60     		str	r4, [r3]
 396              	.LVL43:
 397              	.LBE142:
 398              	.LBE141:
 399              		.loc 1 159 0
ARM GAS  C:\Users\mathi\AppData\Local\Temp\cc2OwS6v.s 			page 8


 400 0040 FFF7FEFF 		bl	chSchReadyI
 401              	.LVL44:
 402              		.loc 1 158 0
 403 0044 0135     		adds	r5, r5, #1
 404              	.LVL45:
 405 0046 012D     		cmp	r5, #1
 406              		.loc 1 159 0
 407 0048 8662     		str	r6, [r0, #40]
 408              	.LVL46:
 409              		.loc 1 158 0
 410 004a F5D1     		bne	.L40
 411              	.L33:
 412              		.loc 1 161 0
 413 004c 019A     		ldr	r2, [sp, #4]
 414 004e 3B68     		ldr	r3, [r7]
 415 0050 9A42     		cmp	r2, r3
 416 0052 0BD1     		bne	.L47
 417 0054 03B0     		add	sp, sp, #12
 418              		.cfi_remember_state
 419              		.cfi_def_cfa_offset 20
 420              		@ sp needed
 421 0056 F0BD     		pop	{r4, r5, r6, r7, pc}
 422              	.LVL47:
 423              	.L34:
 424              		.cfi_restore_state
 425              		.loc 1 151 0 discriminator 4
 426 0058 0648     		ldr	r0, .L49+4
 427 005a FFF7FEFF 		bl	chSysHalt
 428              	.LVL48:
 429              		.loc 1 152 0 discriminator 4
 430 005e A568     		ldr	r5, [r4, #8]
 431 0060 2368     		ldr	r3, [r4]
 432 0062 002D     		cmp	r5, #0
 433 0064 DCDA     		bge	.L48
 434              	.L36:
 435              		.loc 1 152 0 is_stmt 0 discriminator 6
 436 0066 9C42     		cmp	r4, r3
 437 0068 E0D1     		bne	.L38
 438 006a DBE7     		b	.L37
 439              	.LVL49:
 440              	.L47:
 441              		.loc 1 161 0 is_stmt 1
 442 006c FFF7FEFF 		bl	__stack_chk_fail
 443              	.LVL50:
 444              	.L50:
 445              		.align	2
 446              	.L49:
 447 0070 00000000 		.word	__stack_chk_guard
 448 0074 00000000 		.word	.LANCHOR1
 449              		.cfi_endproc
 450              	.LFE221:
 451              		.size	chSemResetI, .-chSemResetI
 452              		.section	.text.chSemWait,"ax",%progbits
 453              		.align	1
 454              		.p2align 4,,15
 455              		.global	chSemWait
 456              		.syntax unified
ARM GAS  C:\Users\mathi\AppData\Local\Temp\cc2OwS6v.s 			page 9


 457              		.thumb
 458              		.thumb_func
 459              		.fpu fpv4-sp-d16
 460              		.type	chSemWait, %function
 461              	chSemWait:
 462              	.LFB222:
 463              		.loc 1 175 0
 464              		.cfi_startproc
 465              		@ args = 0, pretend = 0, frame = 8
 466              		@ frame_needed = 0, uses_anonymous_args = 0
 467              	.LVL51:
 468 0000 70B5     		push	{r4, r5, r6, lr}
 469              		.cfi_def_cfa_offset 16
 470              		.cfi_offset 4, -16
 471              		.cfi_offset 5, -12
 472              		.cfi_offset 6, -8
 473              		.cfi_offset 14, -4
 474 0002 2A4E     		ldr	r6, .L66
 475 0004 82B0     		sub	sp, sp, #8
 476              		.cfi_def_cfa_offset 24
 477              		.loc 1 175 0
 478 0006 3368     		ldr	r3, [r6]
 479 0008 0193     		str	r3, [sp, #4]
 480              	.LVL52:
 481 000a 0446     		mov	r4, r0
 482              	.LBB167:
 483              	.LBB168:
 484              	.LBB169:
 485              	.LBB170:
 486              	.LBB171:
 487              		.loc 3 546 0
 488 000c 2023     		movs	r3, #32
 489              		.syntax unified
 490              	@ 546 "../../lib/e-puck2_main-processor/ChibiOS//os/ext/CMSIS/include/core_cmFunc.h" 1
 491 000e 83F31188 		MSR basepri, r3
 492              	@ 0 "" 2
 493              	.LVL53:
 494              		.thumb
 495              		.syntax unified
 496              	.LBE171:
 497              	.LBE170:
 498              	.LBE169:
 499              		.loc 4 349 0
 500 0012 FFF7FEFF 		bl	_stats_start_measure_crit_thd
 501              	.LVL54:
 502              		.loc 4 350 0
 503 0016 FFF7FEFF 		bl	_dbg_check_lock
 504              	.LVL55:
 505              	.LBE168:
 506              	.LBE167:
 507              	.LBB172:
 508              	.LBB173:
 509              		.loc 1 199 0
 510 001a FFF7FEFF 		bl	chDbgCheckClassS
 511              	.LVL56:
 512              		.loc 1 200 0
 513 001e 002C     		cmp	r4, #0
ARM GAS  C:\Users\mathi\AppData\Local\Temp\cc2OwS6v.s 			page 10


 514 0020 3DD0     		beq	.L62
 515              	.L52:
 516              		.loc 1 201 0
 517 0022 A368     		ldr	r3, [r4, #8]
 518 0024 2268     		ldr	r2, [r4]
 519 0026 002B     		cmp	r3, #0
 520 0028 25DB     		blt	.L53
 521 002a A242     		cmp	r2, r4
 522 002c 03D0     		beq	.L55
 523              	.L54:
 524 002e 2048     		ldr	r0, .L66+4
 525 0030 FFF7FEFF 		bl	chSysHalt
 526              	.LVL57:
 527 0034 A368     		ldr	r3, [r4, #8]
 528              	.L55:
 529              	.LBB174:
 530              	.LBB175:
 531              		.loc 1 206 0
 532 0036 1F4D     		ldr	r5, .L66+8
 533              	.LBE175:
 534              	.LBE174:
 535              		.loc 1 205 0
 536 0038 013B     		subs	r3, r3, #1
 537 003a 002B     		cmp	r3, #0
 538 003c A360     		str	r3, [r4, #8]
 539 003e 21DB     		blt	.L63
 540              	.L59:
 541              		.loc 1 213 0
 542 0040 0024     		movs	r4, #0
 543              	.LVL58:
 544              	.L56:
 545              	.LBE173:
 546              	.LBE172:
 547              	.LBB185:
 548              	.LBB186:
 549              		.loc 4 360 0
 550 0042 FFF7FEFF 		bl	_dbg_check_unlock
 551              	.LVL59:
 552              		.loc 4 361 0
 553 0046 FFF7FEFF 		bl	_stats_stop_measure_crit_thd
 554              	.LVL60:
 555              		.loc 4 367 0
 556 004a 2B68     		ldr	r3, [r5]
 557 004c AB42     		cmp	r3, r5
 558 004e 04D0     		beq	.L57
 559 0050 AA69     		ldr	r2, [r5, #24]
 560 0052 9B68     		ldr	r3, [r3, #8]
 561 0054 9268     		ldr	r2, [r2, #8]
 562 0056 9A42     		cmp	r2, r3
 563 0058 09D3     		bcc	.L64
 564              	.L57:
 565              	.LVL61:
 566              	.LBB187:
 567              	.LBB188:
 568              	.LBB189:
 569              		.loc 3 546 0
 570 005a 0023     		movs	r3, #0
ARM GAS  C:\Users\mathi\AppData\Local\Temp\cc2OwS6v.s 			page 11


 571              		.syntax unified
 572              	@ 546 "../../lib/e-puck2_main-processor/ChibiOS//os/ext/CMSIS/include/core_cmFunc.h" 1
 573 005c 83F31188 		MSR basepri, r3
 574              	@ 0 "" 2
 575              	.LVL62:
 576              		.thumb
 577              		.syntax unified
 578              	.LBE189:
 579              	.LBE188:
 580              	.LBE187:
 581              	.LBE186:
 582              	.LBE185:
 583              		.loc 1 183 0
 584 0060 019A     		ldr	r2, [sp, #4]
 585 0062 3368     		ldr	r3, [r6]
 586 0064 9A42     		cmp	r2, r3
 587 0066 2046     		mov	r0, r4
 588 0068 1DD1     		bne	.L65
 589 006a 02B0     		add	sp, sp, #8
 590              		.cfi_remember_state
 591              		.cfi_def_cfa_offset 16
 592              		@ sp needed
 593 006c 70BD     		pop	{r4, r5, r6, pc}
 594              	.L64:
 595              		.cfi_restore_state
 596              	.LBB191:
 597              	.LBB190:
 598              		.loc 4 367 0
 599 006e 1248     		ldr	r0, .L66+12
 600 0070 FFF7FEFF 		bl	chSysHalt
 601              	.LVL63:
 602 0074 F1E7     		b	.L57
 603              	.LVL64:
 604              	.L53:
 605              	.LBE190:
 606              	.LBE191:
 607              	.LBB192:
 608              	.LBB184:
 609              		.loc 1 201 0
 610 0076 A242     		cmp	r2, r4
 611 0078 D9D0     		beq	.L54
 612              		.loc 1 205 0
 613 007a 013B     		subs	r3, r3, #1
 614 007c 002B     		cmp	r3, #0
 615 007e A360     		str	r3, [r4, #8]
 616              	.LBB182:
 617              	.LBB180:
 618              		.loc 1 206 0
 619 0080 0C4D     		ldr	r5, .L66+8
 620              	.LBE180:
 621              	.LBE182:
 622              		.loc 1 205 0
 623 0082 DDDA     		bge	.L59
 624              	.L63:
 625              	.LVL65:
 626              	.LBB183:
 627              	.LBB181:
ARM GAS  C:\Users\mathi\AppData\Local\Temp\cc2OwS6v.s 			page 12


 628              		.loc 1 206 0
 629 0084 AB69     		ldr	r3, [r5, #24]
 630 0086 9C62     		str	r4, [r3, #40]
 631              	.LVL66:
 632              	.LBB176:
 633              	.LBB177:
 634              		.loc 2 665 0
 635 0088 1C60     		str	r4, [r3]
 636              		.loc 2 666 0
 637 008a 6268     		ldr	r2, [r4, #4]
 638 008c 5A60     		str	r2, [r3, #4]
 639              	.LBE177:
 640              	.LBE176:
 641              		.loc 1 208 0
 642 008e 0520     		movs	r0, #5
 643              	.LBB179:
 644              	.LBB178:
 645              		.loc 2 667 0
 646 0090 1360     		str	r3, [r2]
 647              		.loc 2 668 0
 648 0092 6360     		str	r3, [r4, #4]
 649              	.LVL67:
 650              	.LBE178:
 651              	.LBE179:
 652              		.loc 1 208 0
 653 0094 FFF7FEFF 		bl	chSchGoSleepS
 654              	.LVL68:
 655              		.loc 1 210 0
 656 0098 AB69     		ldr	r3, [r5, #24]
 657 009a 9C6A     		ldr	r4, [r3, #40]
 658              	.LVL69:
 659 009c D1E7     		b	.L56
 660              	.LVL70:
 661              	.L62:
 662              	.LBE181:
 663              	.LBE183:
 664              		.loc 1 200 0
 665 009e 0448     		ldr	r0, .L66+4
 666 00a0 FFF7FEFF 		bl	chSysHalt
 667              	.LVL71:
 668 00a4 BDE7     		b	.L52
 669              	.LVL72:
 670              	.L65:
 671              	.LBE184:
 672              	.LBE192:
 673              		.loc 1 183 0
 674 00a6 FFF7FEFF 		bl	__stack_chk_fail
 675              	.LVL73:
 676              	.L67:
 677 00aa 00BF     		.align	2
 678              	.L66:
 679 00ac 00000000 		.word	__stack_chk_guard
 680 00b0 00000000 		.word	.LANCHOR3
 681 00b4 00000000 		.word	ch
 682 00b8 00000000 		.word	.LANCHOR2
 683              		.cfi_endproc
 684              	.LFE222:
ARM GAS  C:\Users\mathi\AppData\Local\Temp\cc2OwS6v.s 			page 13


 685              		.size	chSemWait, .-chSemWait
 686              		.section	.text.chSemWaitS,"ax",%progbits
 687              		.align	1
 688              		.p2align 4,,15
 689              		.global	chSemWaitS
 690              		.syntax unified
 691              		.thumb
 692              		.thumb_func
 693              		.fpu fpv4-sp-d16
 694              		.type	chSemWaitS, %function
 695              	chSemWaitS:
 696              	.LFB223:
 697              		.loc 1 197 0
 698              		.cfi_startproc
 699              		@ args = 0, pretend = 0, frame = 8
 700              		@ frame_needed = 0, uses_anonymous_args = 0
 701              	.LVL74:
 702 0000 70B5     		push	{r4, r5, r6, lr}
 703              		.cfi_def_cfa_offset 16
 704              		.cfi_offset 4, -16
 705              		.cfi_offset 5, -12
 706              		.cfi_offset 6, -8
 707              		.cfi_offset 14, -4
 708 0002 1B4D     		ldr	r5, .L81
 709 0004 82B0     		sub	sp, sp, #8
 710              		.cfi_def_cfa_offset 24
 711              		.loc 1 197 0
 712 0006 0446     		mov	r4, r0
 713 0008 2B68     		ldr	r3, [r5]
 714 000a 0193     		str	r3, [sp, #4]
 715              		.loc 1 199 0
 716 000c FFF7FEFF 		bl	chDbgCheckClassS
 717              	.LVL75:
 718              		.loc 1 200 0
 719 0010 44B3     		cbz	r4, .L78
 720              	.L69:
 721              		.loc 1 201 0 discriminator 1
 722 0012 A368     		ldr	r3, [r4, #8]
 723 0014 2268     		ldr	r2, [r4]
 724 0016 002B     		cmp	r3, #0
 725 0018 10DB     		blt	.L70
 726              		.loc 1 201 0 is_stmt 0 discriminator 3
 727 001a A242     		cmp	r2, r4
 728 001c 03D0     		beq	.L72
 729              	.L71:
 730              		.loc 1 201 0 discriminator 7
 731 001e 1548     		ldr	r0, .L81+4
 732 0020 FFF7FEFF 		bl	chSysHalt
 733              	.LVL76:
 734 0024 A368     		ldr	r3, [r4, #8]
 735              	.L72:
 736              		.loc 1 205 0 is_stmt 1
 737 0026 013B     		subs	r3, r3, #1
 738 0028 002B     		cmp	r3, #0
 739 002a A360     		str	r3, [r4, #8]
 740 002c 0CDB     		blt	.L79
 741              	.L75:
ARM GAS  C:\Users\mathi\AppData\Local\Temp\cc2OwS6v.s 			page 14


 742              		.loc 1 213 0
 743 002e 0020     		movs	r0, #0
 744              	.L68:
 745              		.loc 1 214 0
 746 0030 019A     		ldr	r2, [sp, #4]
 747 0032 2B68     		ldr	r3, [r5]
 748 0034 9A42     		cmp	r2, r3
 749 0036 19D1     		bne	.L80
 750 0038 02B0     		add	sp, sp, #8
 751              		.cfi_remember_state
 752              		.cfi_def_cfa_offset 16
 753              		@ sp needed
 754 003a 70BD     		pop	{r4, r5, r6, pc}
 755              	.LVL77:
 756              	.L70:
 757              		.cfi_restore_state
 758              		.loc 1 201 0 discriminator 6
 759 003c A242     		cmp	r2, r4
 760 003e EED0     		beq	.L71
 761              		.loc 1 205 0
 762 0040 013B     		subs	r3, r3, #1
 763 0042 002B     		cmp	r3, #0
 764 0044 A360     		str	r3, [r4, #8]
 765 0046 F2DA     		bge	.L75
 766              	.L79:
 767              	.LVL78:
 768              	.LBB205:
 769              	.LBB206:
 770              		.loc 1 206 0
 771 0048 0B4E     		ldr	r6, .L81+8
 772 004a B369     		ldr	r3, [r6, #24]
 773 004c 9C62     		str	r4, [r3, #40]
 774              	.LVL79:
 775              	.LBB207:
 776              	.LBB208:
 777              		.loc 2 665 0
 778 004e 1C60     		str	r4, [r3]
 779              		.loc 2 666 0
 780 0050 6268     		ldr	r2, [r4, #4]
 781 0052 5A60     		str	r2, [r3, #4]
 782              	.LBE208:
 783              	.LBE207:
 784              		.loc 1 208 0
 785 0054 0520     		movs	r0, #5
 786              	.LBB210:
 787              	.LBB209:
 788              		.loc 2 667 0
 789 0056 1360     		str	r3, [r2]
 790              		.loc 2 668 0
 791 0058 6360     		str	r3, [r4, #4]
 792              	.LVL80:
 793              	.LBE209:
 794              	.LBE210:
 795              		.loc 1 208 0
 796 005a FFF7FEFF 		bl	chSchGoSleepS
 797              	.LVL81:
 798              		.loc 1 210 0
ARM GAS  C:\Users\mathi\AppData\Local\Temp\cc2OwS6v.s 			page 15


 799 005e B369     		ldr	r3, [r6, #24]
 800 0060 986A     		ldr	r0, [r3, #40]
 801              	.LVL82:
 802 0062 E5E7     		b	.L68
 803              	.L78:
 804              	.LBE206:
 805              	.LBE205:
 806              		.loc 1 200 0 discriminator 2
 807 0064 0348     		ldr	r0, .L81+4
 808 0066 FFF7FEFF 		bl	chSysHalt
 809              	.LVL83:
 810 006a D2E7     		b	.L69
 811              	.L80:
 812              		.loc 1 214 0
 813 006c FFF7FEFF 		bl	__stack_chk_fail
 814              	.LVL84:
 815              	.L82:
 816              		.align	2
 817              	.L81:
 818 0070 00000000 		.word	__stack_chk_guard
 819 0074 00000000 		.word	.LANCHOR3
 820 0078 00000000 		.word	ch
 821              		.cfi_endproc
 822              	.LFE223:
 823              		.size	chSemWaitS, .-chSemWaitS
 824              		.section	.text.chSemWaitTimeout,"ax",%progbits
 825              		.align	1
 826              		.p2align 4,,15
 827              		.global	chSemWaitTimeout
 828              		.syntax unified
 829              		.thumb
 830              		.thumb_func
 831              		.fpu fpv4-sp-d16
 832              		.type	chSemWaitTimeout, %function
 833              	chSemWaitTimeout:
 834              	.LFB224:
 835              		.loc 1 235 0
 836              		.cfi_startproc
 837              		@ args = 0, pretend = 0, frame = 8
 838              		@ frame_needed = 0, uses_anonymous_args = 0
 839              	.LVL85:
 840 0000 F0B5     		push	{r4, r5, r6, r7, lr}
 841              		.cfi_def_cfa_offset 20
 842              		.cfi_offset 4, -20
 843              		.cfi_offset 5, -16
 844              		.cfi_offset 6, -12
 845              		.cfi_offset 7, -8
 846              		.cfi_offset 14, -4
 847 0002 2D4E     		ldr	r6, .L100
 848 0004 83B0     		sub	sp, sp, #12
 849              		.cfi_def_cfa_offset 32
 850              		.loc 1 235 0
 851 0006 3368     		ldr	r3, [r6]
 852 0008 0193     		str	r3, [sp, #4]
 853              	.LVL86:
 854 000a 0446     		mov	r4, r0
 855 000c 0F46     		mov	r7, r1
ARM GAS  C:\Users\mathi\AppData\Local\Temp\cc2OwS6v.s 			page 16


 856              	.LBB235:
 857              	.LBB236:
 858              	.LBB237:
 859              	.LBB238:
 860              	.LBB239:
 861              		.loc 3 546 0
 862 000e 2023     		movs	r3, #32
 863              		.syntax unified
 864              	@ 546 "../../lib/e-puck2_main-processor/ChibiOS//os/ext/CMSIS/include/core_cmFunc.h" 1
 865 0010 83F31188 		MSR basepri, r3
 866              	@ 0 "" 2
 867              	.LVL87:
 868              		.thumb
 869              		.syntax unified
 870              	.LBE239:
 871              	.LBE238:
 872              	.LBE237:
 873              		.loc 4 349 0
 874 0014 FFF7FEFF 		bl	_stats_start_measure_crit_thd
 875              	.LVL88:
 876              		.loc 4 350 0
 877 0018 FFF7FEFF 		bl	_dbg_check_lock
 878              	.LVL89:
 879              	.LBE236:
 880              	.LBE235:
 881              	.LBB240:
 882              	.LBB241:
 883              		.loc 1 266 0
 884 001c FFF7FEFF 		bl	chDbgCheckClassS
 885              	.LVL90:
 886              		.loc 1 267 0
 887 0020 002C     		cmp	r4, #0
 888 0022 3ED0     		beq	.L95
 889              	.L84:
 890              		.loc 1 268 0
 891 0024 A368     		ldr	r3, [r4, #8]
 892 0026 2268     		ldr	r2, [r4]
 893 0028 002B     		cmp	r3, #0
 894 002a 25DB     		blt	.L85
 895 002c 9442     		cmp	r4, r2
 896 002e 03D0     		beq	.L87
 897              	.L86:
 898 0030 2248     		ldr	r0, .L100+4
 899 0032 FFF7FEFF 		bl	chSysHalt
 900              	.LVL91:
 901 0036 A368     		ldr	r3, [r4, #8]
 902              	.L87:
 903              		.loc 1 272 0
 904 0038 5A1E     		subs	r2, r3, #1
 905 003a 002A     		cmp	r2, #0
 906 003c A260     		str	r2, [r4, #8]
 907 003e 21DB     		blt	.L96
 908              	.L92:
 909 0040 1F4D     		ldr	r5, .L100+8
 910              		.loc 1 284 0
 911 0042 0024     		movs	r4, #0
 912              	.LVL92:
ARM GAS  C:\Users\mathi\AppData\Local\Temp\cc2OwS6v.s 			page 17


 913              	.L88:
 914              	.LBE241:
 915              	.LBE240:
 916              	.LBB251:
 917              	.LBB252:
 918              		.loc 4 360 0
 919 0044 FFF7FEFF 		bl	_dbg_check_unlock
 920              	.LVL93:
 921              		.loc 4 361 0
 922 0048 FFF7FEFF 		bl	_stats_stop_measure_crit_thd
 923              	.LVL94:
 924              		.loc 4 367 0
 925 004c 2B68     		ldr	r3, [r5]
 926 004e AB42     		cmp	r3, r5
 927 0050 04D0     		beq	.L90
 928 0052 AA69     		ldr	r2, [r5, #24]
 929 0054 9B68     		ldr	r3, [r3, #8]
 930 0056 9268     		ldr	r2, [r2, #8]
 931 0058 9A42     		cmp	r2, r3
 932 005a 09D3     		bcc	.L97
 933              	.L90:
 934              	.LVL95:
 935              	.LBB253:
 936              	.LBB254:
 937              	.LBB255:
 938              		.loc 3 546 0
 939 005c 0023     		movs	r3, #0
 940              		.syntax unified
 941              	@ 546 "../../lib/e-puck2_main-processor/ChibiOS//os/ext/CMSIS/include/core_cmFunc.h" 1
 942 005e 83F31188 		MSR basepri, r3
 943              	@ 0 "" 2
 944              	.LVL96:
 945              		.thumb
 946              		.syntax unified
 947              	.LBE255:
 948              	.LBE254:
 949              	.LBE253:
 950              	.LBE252:
 951              	.LBE251:
 952              		.loc 1 243 0
 953 0062 019A     		ldr	r2, [sp, #4]
 954 0064 3368     		ldr	r3, [r6]
 955 0066 9A42     		cmp	r2, r3
 956 0068 2046     		mov	r0, r4
 957 006a 23D1     		bne	.L98
 958 006c 03B0     		add	sp, sp, #12
 959              		.cfi_remember_state
 960              		.cfi_def_cfa_offset 20
 961              		@ sp needed
 962 006e F0BD     		pop	{r4, r5, r6, r7, pc}
 963              	.LVL97:
 964              	.L97:
 965              		.cfi_restore_state
 966              	.LBB257:
 967              	.LBB256:
 968              		.loc 4 367 0
 969 0070 1448     		ldr	r0, .L100+12
ARM GAS  C:\Users\mathi\AppData\Local\Temp\cc2OwS6v.s 			page 18


 970 0072 FFF7FEFF 		bl	chSysHalt
 971              	.LVL98:
 972 0076 F1E7     		b	.L90
 973              	.LVL99:
 974              	.L85:
 975              	.LBE256:
 976              	.LBE257:
 977              	.LBB258:
 978              	.LBB250:
 979              		.loc 1 268 0
 980 0078 9442     		cmp	r4, r2
 981 007a D9D0     		beq	.L86
 982              		.loc 1 272 0
 983 007c 5A1E     		subs	r2, r3, #1
 984 007e 002A     		cmp	r2, #0
 985 0080 A260     		str	r2, [r4, #8]
 986 0082 DDDA     		bge	.L92
 987              	.L96:
 988              		.loc 1 273 0
 989 0084 8FB1     		cbz	r7, .L99
 990              	.LVL100:
 991              	.LBB242:
 992              	.LBB243:
 993              		.loc 1 278 0
 994 0086 0E4D     		ldr	r5, .L100+8
 995 0088 AB69     		ldr	r3, [r5, #24]
 996 008a 9C62     		str	r4, [r3, #40]
 997              	.LVL101:
 998              	.LBB244:
 999              	.LBB245:
 1000              		.loc 2 665 0
 1001 008c 1C60     		str	r4, [r3]
 1002              		.loc 2 666 0
 1003 008e 6268     		ldr	r2, [r4, #4]
 1004 0090 5A60     		str	r2, [r3, #4]
 1005              	.LBE245:
 1006              	.LBE244:
 1007              		.loc 1 281 0
 1008 0092 3946     		mov	r1, r7
 1009              	.LBB248:
 1010              	.LBB246:
 1011              		.loc 2 667 0
 1012 0094 1360     		str	r3, [r2]
 1013              	.LBE246:
 1014              	.LBE248:
 1015              		.loc 1 281 0
 1016 0096 0520     		movs	r0, #5
 1017              	.LBB249:
 1018              	.LBB247:
 1019              		.loc 2 668 0
 1020 0098 6360     		str	r3, [r4, #4]
 1021              	.LVL102:
 1022              	.LBE247:
 1023              	.LBE249:
 1024              		.loc 1 281 0
 1025 009a FFF7FEFF 		bl	chSchGoSleepTimeoutS
 1026              	.LVL103:
ARM GAS  C:\Users\mathi\AppData\Local\Temp\cc2OwS6v.s 			page 19


 1027 009e 0446     		mov	r4, r0
 1028              	.LVL104:
 1029 00a0 D0E7     		b	.L88
 1030              	.LVL105:
 1031              	.L95:
 1032              	.LBE243:
 1033              	.LBE242:
 1034              		.loc 1 267 0
 1035 00a2 0648     		ldr	r0, .L100+4
 1036 00a4 FFF7FEFF 		bl	chSysHalt
 1037              	.LVL106:
 1038 00a8 BCE7     		b	.L84
 1039              	.L99:
 1040              		.loc 1 274 0
 1041 00aa A360     		str	r3, [r4, #8]
 1042 00ac 044D     		ldr	r5, .L100+8
 1043              		.loc 1 276 0
 1044 00ae 4FF0FF34 		mov	r4, #-1
 1045              	.LVL107:
 1046 00b2 C7E7     		b	.L88
 1047              	.LVL108:
 1048              	.L98:
 1049              	.LBE250:
 1050              	.LBE258:
 1051              		.loc 1 243 0
 1052 00b4 FFF7FEFF 		bl	__stack_chk_fail
 1053              	.LVL109:
 1054              	.L101:
 1055              		.align	2
 1056              	.L100:
 1057 00b8 00000000 		.word	__stack_chk_guard
 1058 00bc 00000000 		.word	.LANCHOR4
 1059 00c0 00000000 		.word	ch
 1060 00c4 00000000 		.word	.LANCHOR2
 1061              		.cfi_endproc
 1062              	.LFE224:
 1063              		.size	chSemWaitTimeout, .-chSemWaitTimeout
 1064              		.section	.text.chSemWaitTimeoutS,"ax",%progbits
 1065              		.align	1
 1066              		.p2align 4,,15
 1067              		.global	chSemWaitTimeoutS
 1068              		.syntax unified
 1069              		.thumb
 1070              		.thumb_func
 1071              		.fpu fpv4-sp-d16
 1072              		.type	chSemWaitTimeoutS, %function
 1073              	chSemWaitTimeoutS:
 1074              	.LFB225:
 1075              		.loc 1 264 0
 1076              		.cfi_startproc
 1077              		@ args = 0, pretend = 0, frame = 8
 1078              		@ frame_needed = 0, uses_anonymous_args = 0
 1079              	.LVL110:
 1080 0000 70B5     		push	{r4, r5, r6, lr}
 1081              		.cfi_def_cfa_offset 16
 1082              		.cfi_offset 4, -16
 1083              		.cfi_offset 5, -12
ARM GAS  C:\Users\mathi\AppData\Local\Temp\cc2OwS6v.s 			page 20


 1084              		.cfi_offset 6, -8
 1085              		.cfi_offset 14, -4
 1086 0002 214D     		ldr	r5, .L118
 1087 0004 82B0     		sub	sp, sp, #8
 1088              		.cfi_def_cfa_offset 24
 1089              		.loc 1 264 0
 1090 0006 0446     		mov	r4, r0
 1091 0008 2B68     		ldr	r3, [r5]
 1092 000a 0193     		str	r3, [sp, #4]
 1093 000c 0E46     		mov	r6, r1
 1094              		.loc 1 266 0
 1095 000e FFF7FEFF 		bl	chDbgCheckClassS
 1096              	.LVL111:
 1097              		.loc 1 267 0
 1098 0012 002C     		cmp	r4, #0
 1099 0014 2ED0     		beq	.L115
 1100              	.L103:
 1101              		.loc 1 268 0 discriminator 1
 1102 0016 A368     		ldr	r3, [r4, #8]
 1103 0018 2268     		ldr	r2, [r4]
 1104 001a 002B     		cmp	r3, #0
 1105 001c 10DB     		blt	.L104
 1106              		.loc 1 268 0 is_stmt 0 discriminator 3
 1107 001e A242     		cmp	r2, r4
 1108 0020 03D0     		beq	.L106
 1109              	.L105:
 1110              		.loc 1 268 0 discriminator 7
 1111 0022 1A48     		ldr	r0, .L118+4
 1112 0024 FFF7FEFF 		bl	chSysHalt
 1113              	.LVL112:
 1114 0028 A368     		ldr	r3, [r4, #8]
 1115              	.L106:
 1116              		.loc 1 272 0 is_stmt 1
 1117 002a 5A1E     		subs	r2, r3, #1
 1118 002c 002A     		cmp	r2, #0
 1119 002e A260     		str	r2, [r4, #8]
 1120 0030 0CDB     		blt	.L116
 1121              	.L111:
 1122              		.loc 1 284 0
 1123 0032 0020     		movs	r0, #0
 1124              	.L102:
 1125              		.loc 1 285 0
 1126 0034 019A     		ldr	r2, [sp, #4]
 1127 0036 2B68     		ldr	r3, [r5]
 1128 0038 9A42     		cmp	r2, r3
 1129 003a 23D1     		bne	.L113
 1130 003c 02B0     		add	sp, sp, #8
 1131              		.cfi_remember_state
 1132              		.cfi_def_cfa_offset 16
 1133              		@ sp needed
 1134 003e 70BD     		pop	{r4, r5, r6, pc}
 1135              	.LVL113:
 1136              	.L104:
 1137              		.cfi_restore_state
 1138              		.loc 1 268 0 discriminator 6
 1139 0040 A242     		cmp	r2, r4
 1140 0042 EED0     		beq	.L105
ARM GAS  C:\Users\mathi\AppData\Local\Temp\cc2OwS6v.s 			page 21


 1141              		.loc 1 272 0
 1142 0044 5A1E     		subs	r2, r3, #1
 1143 0046 002A     		cmp	r2, #0
 1144 0048 A260     		str	r2, [r4, #8]
 1145 004a F2DA     		bge	.L111
 1146              	.L116:
 1147              		.loc 1 273 0
 1148 004c B6B1     		cbz	r6, .L117
 1149              	.LVL114:
 1150              	.LBB271:
 1151              	.LBB272:
 1152              		.loc 1 278 0
 1153 004e 104B     		ldr	r3, .L118+8
 1154              		.loc 1 281 0
 1155 0050 0199     		ldr	r1, [sp, #4]
 1156              		.loc 1 278 0
 1157 0052 9B69     		ldr	r3, [r3, #24]
 1158              	.LBB273:
 1159              	.LBB274:
 1160              		.loc 2 665 0
 1161 0054 1C60     		str	r4, [r3]
 1162              	.LBE274:
 1163              	.LBE273:
 1164              		.loc 1 278 0
 1165 0056 9C62     		str	r4, [r3, #40]
 1166              	.LVL115:
 1167              	.LBB277:
 1168              	.LBB275:
 1169              		.loc 2 666 0
 1170 0058 6268     		ldr	r2, [r4, #4]
 1171 005a 5A60     		str	r2, [r3, #4]
 1172              		.loc 2 667 0
 1173 005c 1360     		str	r3, [r2]
 1174              	.LBE275:
 1175              	.LBE277:
 1176              		.loc 1 281 0
 1177 005e 2A68     		ldr	r2, [r5]
 1178              	.LBB278:
 1179              	.LBB276:
 1180              		.loc 2 668 0
 1181 0060 6360     		str	r3, [r4, #4]
 1182              	.LVL116:
 1183              	.LBE276:
 1184              	.LBE278:
 1185              		.loc 1 281 0
 1186 0062 9142     		cmp	r1, r2
 1187 0064 0ED1     		bne	.L113
 1188 0066 3146     		mov	r1, r6
 1189 0068 0520     		movs	r0, #5
 1190              	.LBE272:
 1191              	.LBE271:
 1192              		.loc 1 285 0
 1193 006a 02B0     		add	sp, sp, #8
 1194              		.cfi_remember_state
 1195              		.cfi_def_cfa_offset 16
 1196              		@ sp needed
 1197 006c BDE87040 		pop	{r4, r5, r6, lr}
ARM GAS  C:\Users\mathi\AppData\Local\Temp\cc2OwS6v.s 			page 22


 1198              		.cfi_restore 14
 1199              		.cfi_restore 6
 1200              		.cfi_restore 5
 1201              		.cfi_restore 4
 1202              		.cfi_def_cfa_offset 0
 1203              	.LVL117:
 1204              	.LBB280:
 1205              	.LBB279:
 1206              		.loc 1 281 0
 1207 0070 FFF7FEBF 		b	chSchGoSleepTimeoutS
 1208              	.LVL118:
 1209              	.L115:
 1210              		.cfi_restore_state
 1211              	.LBE279:
 1212              	.LBE280:
 1213              		.loc 1 267 0 discriminator 2
 1214 0074 0548     		ldr	r0, .L118+4
 1215 0076 FFF7FEFF 		bl	chSysHalt
 1216              	.LVL119:
 1217 007a CCE7     		b	.L103
 1218              	.L117:
 1219              		.loc 1 274 0
 1220 007c A360     		str	r3, [r4, #8]
 1221              		.loc 1 276 0
 1222 007e 4FF0FF30 		mov	r0, #-1
 1223 0082 D7E7     		b	.L102
 1224              	.L113:
 1225              		.loc 1 285 0
 1226 0084 FFF7FEFF 		bl	__stack_chk_fail
 1227              	.LVL120:
 1228              	.L119:
 1229              		.align	2
 1230              	.L118:
 1231 0088 00000000 		.word	__stack_chk_guard
 1232 008c 00000000 		.word	.LANCHOR4
 1233 0090 00000000 		.word	ch
 1234              		.cfi_endproc
 1235              	.LFE225:
 1236              		.size	chSemWaitTimeoutS, .-chSemWaitTimeoutS
 1237              		.section	.text.chSemSignal,"ax",%progbits
 1238              		.align	1
 1239              		.p2align 4,,15
 1240              		.global	chSemSignal
 1241              		.syntax unified
 1242              		.thumb
 1243              		.thumb_func
 1244              		.fpu fpv4-sp-d16
 1245              		.type	chSemSignal, %function
 1246              	chSemSignal:
 1247              	.LFB226:
 1248              		.loc 1 294 0
 1249              		.cfi_startproc
 1250              		@ args = 0, pretend = 0, frame = 8
 1251              		@ frame_needed = 0, uses_anonymous_args = 0
 1252              	.LVL121:
 1253 0000 30B5     		push	{r4, r5, lr}
 1254              		.cfi_def_cfa_offset 12
ARM GAS  C:\Users\mathi\AppData\Local\Temp\cc2OwS6v.s 			page 23


 1255              		.cfi_offset 4, -12
 1256              		.cfi_offset 5, -8
 1257              		.cfi_offset 14, -4
 1258 0002 234D     		ldr	r5, .L133
 1259 0004 83B0     		sub	sp, sp, #12
 1260              		.cfi_def_cfa_offset 24
 1261              		.loc 1 294 0
 1262 0006 2B68     		ldr	r3, [r5]
 1263 0008 0193     		str	r3, [sp, #4]
 1264              		.loc 1 296 0
 1265 000a 0446     		mov	r4, r0
 1266 000c 0028     		cmp	r0, #0
 1267 000e 39D0     		beq	.L129
 1268              	.LVL122:
 1269              	.L121:
 1270              		.loc 1 297 0 discriminator 1
 1271 0010 A268     		ldr	r2, [r4, #8]
 1272 0012 2368     		ldr	r3, [r4]
 1273 0014 002A     		cmp	r2, #0
 1274 0016 2ADB     		blt	.L122
 1275              		.loc 1 297 0 is_stmt 0 discriminator 3
 1276 0018 A342     		cmp	r3, r4
 1277 001a 02D0     		beq	.L124
 1278              	.L123:
 1279              		.loc 1 297 0 discriminator 7
 1280 001c 1D48     		ldr	r0, .L133+4
 1281 001e FFF7FEFF 		bl	chSysHalt
 1282              	.LVL123:
 1283              	.L124:
 1284              	.LBB297:
 1285              	.LBB298:
 1286              	.LBB299:
 1287              	.LBB300:
 1288              	.LBB301:
 1289              		.loc 3 546 0 is_stmt 1
 1290 0022 2023     		movs	r3, #32
 1291              		.syntax unified
 1292              	@ 546 "../../lib/e-puck2_main-processor/ChibiOS//os/ext/CMSIS/include/core_cmFunc.h" 1
 1293 0024 83F31188 		MSR basepri, r3
 1294              	@ 0 "" 2
 1295              	.LVL124:
 1296              		.thumb
 1297              		.syntax unified
 1298              	.LBE301:
 1299              	.LBE300:
 1300              	.LBE299:
 1301              		.loc 4 349 0
 1302 0028 FFF7FEFF 		bl	_stats_start_measure_crit_thd
 1303              	.LVL125:
 1304              		.loc 4 350 0
 1305 002c FFF7FEFF 		bl	_dbg_check_lock
 1306              	.LVL126:
 1307              	.LBE298:
 1308              	.LBE297:
 1309              		.loc 1 302 0
 1310 0030 A368     		ldr	r3, [r4, #8]
 1311 0032 0133     		adds	r3, r3, #1
ARM GAS  C:\Users\mathi\AppData\Local\Temp\cc2OwS6v.s 			page 24


 1312 0034 002B     		cmp	r3, #0
 1313 0036 A360     		str	r3, [r4, #8]
 1314 0038 1CDD     		ble	.L130
 1315              	.L125:
 1316              	.LBB302:
 1317              	.LBB303:
 1318              		.loc 4 360 0
 1319 003a FFF7FEFF 		bl	_dbg_check_unlock
 1320              	.LVL127:
 1321              		.loc 4 361 0
 1322 003e FFF7FEFF 		bl	_stats_stop_measure_crit_thd
 1323              	.LVL128:
 1324              		.loc 4 367 0
 1325 0042 154B     		ldr	r3, .L133+8
 1326 0044 1A68     		ldr	r2, [r3]
 1327 0046 9A42     		cmp	r2, r3
 1328 0048 04D0     		beq	.L126
 1329 004a 9969     		ldr	r1, [r3, #24]
 1330 004c 9368     		ldr	r3, [r2, #8]
 1331 004e 8A68     		ldr	r2, [r1, #8]
 1332 0050 9A42     		cmp	r2, r3
 1333 0052 08D3     		bcc	.L131
 1334              	.L126:
 1335              	.LVL129:
 1336              	.LBB304:
 1337              	.LBB305:
 1338              	.LBB306:
 1339              		.loc 3 546 0
 1340 0054 0023     		movs	r3, #0
 1341              		.syntax unified
 1342              	@ 546 "../../lib/e-puck2_main-processor/ChibiOS//os/ext/CMSIS/include/core_cmFunc.h" 1
 1343 0056 83F31188 		MSR basepri, r3
 1344              	@ 0 "" 2
 1345              	.LVL130:
 1346              		.thumb
 1347              		.syntax unified
 1348              	.LBE306:
 1349              	.LBE305:
 1350              	.LBE304:
 1351              	.LBE303:
 1352              	.LBE302:
 1353              		.loc 1 306 0
 1354 005a 019A     		ldr	r2, [sp, #4]
 1355 005c 2B68     		ldr	r3, [r5]
 1356 005e 9A42     		cmp	r2, r3
 1357 0060 14D1     		bne	.L132
 1358 0062 03B0     		add	sp, sp, #12
 1359              		.cfi_remember_state
 1360              		.cfi_def_cfa_offset 12
 1361              		@ sp needed
 1362 0064 30BD     		pop	{r4, r5, pc}
 1363              	.LVL131:
 1364              	.L131:
 1365              		.cfi_restore_state
 1366              	.LBB308:
 1367              	.LBB307:
 1368              		.loc 4 367 0
ARM GAS  C:\Users\mathi\AppData\Local\Temp\cc2OwS6v.s 			page 25


 1369 0066 0D48     		ldr	r0, .L133+12
 1370 0068 FFF7FEFF 		bl	chSysHalt
 1371              	.LVL132:
 1372 006c F2E7     		b	.L126
 1373              	.L122:
 1374              	.LBE307:
 1375              	.LBE308:
 1376              		.loc 1 297 0 discriminator 6
 1377 006e A342     		cmp	r3, r4
 1378 0070 D7D1     		bne	.L124
 1379 0072 D3E7     		b	.L123
 1380              	.L130:
 1381              	.LVL133:
 1382              	.LBB309:
 1383              	.LBB310:
 1384              		.loc 2 672 0
 1385 0074 2068     		ldr	r0, [r4]
 1386              	.LVL134:
 1387              		.loc 2 674 0
 1388 0076 0368     		ldr	r3, [r0]
 1389 0078 2360     		str	r3, [r4]
 1390              	.LBE310:
 1391              	.LBE309:
 1392              		.loc 1 303 0
 1393 007a 0021     		movs	r1, #0
 1394              	.LBB312:
 1395              	.LBB311:
 1396              		.loc 2 675 0
 1397 007c 5C60     		str	r4, [r3, #4]
 1398              	.LVL135:
 1399              	.LBE311:
 1400              	.LBE312:
 1401              		.loc 1 303 0
 1402 007e FFF7FEFF 		bl	chSchWakeupS
 1403              	.LVL136:
 1404 0082 DAE7     		b	.L125
 1405              	.LVL137:
 1406              	.L129:
 1407              		.loc 1 296 0 discriminator 2
 1408 0084 0348     		ldr	r0, .L133+4
 1409              	.LVL138:
 1410 0086 FFF7FEFF 		bl	chSysHalt
 1411              	.LVL139:
 1412 008a C1E7     		b	.L121
 1413              	.L132:
 1414              		.loc 1 306 0
 1415 008c FFF7FEFF 		bl	__stack_chk_fail
 1416              	.LVL140:
 1417              	.L134:
 1418              		.align	2
 1419              	.L133:
 1420 0090 00000000 		.word	__stack_chk_guard
 1421 0094 00000000 		.word	.LANCHOR5
 1422 0098 00000000 		.word	ch
 1423 009c 00000000 		.word	.LANCHOR2
 1424              		.cfi_endproc
 1425              	.LFE226:
ARM GAS  C:\Users\mathi\AppData\Local\Temp\cc2OwS6v.s 			page 26


 1426              		.size	chSemSignal, .-chSemSignal
 1427              		.section	.text.chSemSignalI,"ax",%progbits
 1428              		.align	1
 1429              		.p2align 4,,15
 1430              		.global	chSemSignalI
 1431              		.syntax unified
 1432              		.thumb
 1433              		.thumb_func
 1434              		.fpu fpv4-sp-d16
 1435              		.type	chSemSignalI, %function
 1436              	chSemSignalI:
 1437              	.LFB227:
 1438              		.loc 1 319 0
 1439              		.cfi_startproc
 1440              		@ args = 0, pretend = 0, frame = 8
 1441              		@ frame_needed = 0, uses_anonymous_args = 0
 1442              	.LVL141:
 1443 0000 30B5     		push	{r4, r5, lr}
 1444              		.cfi_def_cfa_offset 12
 1445              		.cfi_offset 4, -12
 1446              		.cfi_offset 5, -8
 1447              		.cfi_offset 14, -4
 1448 0002 1C4D     		ldr	r5, .L148
 1449 0004 83B0     		sub	sp, sp, #12
 1450              		.cfi_def_cfa_offset 24
 1451              		.loc 1 319 0
 1452 0006 0446     		mov	r4, r0
 1453 0008 2B68     		ldr	r3, [r5]
 1454 000a 0193     		str	r3, [sp, #4]
 1455              		.loc 1 321 0
 1456 000c FFF7FEFF 		bl	chDbgCheckClassI
 1457              	.LVL142:
 1458              		.loc 1 322 0
 1459 0010 4CB3     		cbz	r4, .L146
 1460              	.L136:
 1461              		.loc 1 323 0 discriminator 1
 1462 0012 A368     		ldr	r3, [r4, #8]
 1463 0014 2268     		ldr	r2, [r4]
 1464 0016 002B     		cmp	r3, #0
 1465 0018 0FDB     		blt	.L137
 1466              		.loc 1 323 0 is_stmt 0 discriminator 3
 1467 001a A242     		cmp	r2, r4
 1468 001c 03D0     		beq	.L139
 1469              	.L138:
 1470              		.loc 1 323 0 discriminator 7
 1471 001e 1648     		ldr	r0, .L148+4
 1472 0020 FFF7FEFF 		bl	chSysHalt
 1473              	.LVL143:
 1474 0024 A368     		ldr	r3, [r4, #8]
 1475              	.L139:
 1476              		.loc 1 327 0 is_stmt 1
 1477 0026 0133     		adds	r3, r3, #1
 1478 0028 002B     		cmp	r3, #0
 1479 002a A360     		str	r3, [r4, #8]
 1480 002c 0BDD     		ble	.L147
 1481              	.L135:
 1482              		.loc 1 334 0
ARM GAS  C:\Users\mathi\AppData\Local\Temp\cc2OwS6v.s 			page 27


 1483 002e 019A     		ldr	r2, [sp, #4]
 1484 0030 2B68     		ldr	r3, [r5]
 1485 0032 9A42     		cmp	r2, r3
 1486 0034 1BD1     		bne	.L144
 1487 0036 03B0     		add	sp, sp, #12
 1488              		.cfi_remember_state
 1489              		.cfi_def_cfa_offset 12
 1490              		@ sp needed
 1491 0038 30BD     		pop	{r4, r5, pc}
 1492              	.LVL144:
 1493              	.L137:
 1494              		.cfi_restore_state
 1495              		.loc 1 323 0 discriminator 6
 1496 003a A242     		cmp	r2, r4
 1497 003c EFD0     		beq	.L138
 1498              		.loc 1 327 0
 1499 003e 0133     		adds	r3, r3, #1
 1500 0040 002B     		cmp	r3, #0
 1501 0042 A360     		str	r3, [r4, #8]
 1502 0044 F3DC     		bgt	.L135
 1503              	.L147:
 1504              	.LVL145:
 1505              	.LBB313:
 1506              	.LBB314:
 1507              	.LBB315:
 1508              		.loc 2 672 0
 1509 0046 2068     		ldr	r0, [r4]
 1510              	.LVL146:
 1511              	.LBE315:
 1512              	.LBE314:
 1513              		.loc 1 332 0
 1514 0048 0199     		ldr	r1, [sp, #4]
 1515              	.LBB318:
 1516              	.LBB316:
 1517              		.loc 2 674 0
 1518 004a 0368     		ldr	r3, [r0]
 1519 004c 2360     		str	r3, [r4]
 1520              	.LBE316:
 1521              	.LBE318:
 1522              		.loc 1 332 0
 1523 004e 2A68     		ldr	r2, [r5]
 1524              	.LBB319:
 1525              	.LBB317:
 1526              		.loc 2 675 0
 1527 0050 5C60     		str	r4, [r3, #4]
 1528              	.LVL147:
 1529              	.LBE317:
 1530              	.LBE319:
 1531              		.loc 1 332 0
 1532 0052 9142     		cmp	r1, r2
 1533              		.loc 1 331 0
 1534 0054 4FF00003 		mov	r3, #0
 1535 0058 8362     		str	r3, [r0, #40]
 1536              		.loc 1 332 0
 1537 005a 08D1     		bne	.L144
 1538              	.LBE313:
 1539              		.loc 1 334 0
ARM GAS  C:\Users\mathi\AppData\Local\Temp\cc2OwS6v.s 			page 28


 1540 005c 03B0     		add	sp, sp, #12
 1541              		.cfi_remember_state
 1542              		.cfi_def_cfa_offset 12
 1543              		@ sp needed
 1544 005e BDE83040 		pop	{r4, r5, lr}
 1545              		.cfi_restore 14
 1546              		.cfi_restore 5
 1547              		.cfi_restore 4
 1548              		.cfi_def_cfa_offset 0
 1549              	.LVL148:
 1550              	.LBB320:
 1551              		.loc 1 332 0
 1552 0062 FFF7FEBF 		b	chSchReadyI
 1553              	.LVL149:
 1554              	.L146:
 1555              		.cfi_restore_state
 1556              	.LBE320:
 1557              		.loc 1 322 0 discriminator 2
 1558 0066 0448     		ldr	r0, .L148+4
 1559 0068 FFF7FEFF 		bl	chSysHalt
 1560              	.LVL150:
 1561 006c D1E7     		b	.L136
 1562              	.L144:
 1563              		.loc 1 334 0
 1564 006e FFF7FEFF 		bl	__stack_chk_fail
 1565              	.LVL151:
 1566              	.L149:
 1567 0072 00BF     		.align	2
 1568              	.L148:
 1569 0074 00000000 		.word	__stack_chk_guard
 1570 0078 00000000 		.word	.LANCHOR6
 1571              		.cfi_endproc
 1572              	.LFE227:
 1573              		.size	chSemSignalI, .-chSemSignalI
 1574              		.section	.text.chSemAddCounterI,"ax",%progbits
 1575              		.align	1
 1576              		.p2align 4,,15
 1577              		.global	chSemAddCounterI
 1578              		.syntax unified
 1579              		.thumb
 1580              		.thumb_func
 1581              		.fpu fpv4-sp-d16
 1582              		.type	chSemAddCounterI, %function
 1583              	chSemAddCounterI:
 1584              	.LFB228:
 1585              		.loc 1 349 0
 1586              		.cfi_startproc
 1587              		@ args = 0, pretend = 0, frame = 8
 1588              		@ frame_needed = 0, uses_anonymous_args = 0
 1589              	.LVL152:
 1590 0000 F0B5     		push	{r4, r5, r6, r7, lr}
 1591              		.cfi_def_cfa_offset 20
 1592              		.cfi_offset 4, -20
 1593              		.cfi_offset 5, -16
 1594              		.cfi_offset 6, -12
 1595              		.cfi_offset 7, -8
 1596              		.cfi_offset 14, -4
ARM GAS  C:\Users\mathi\AppData\Local\Temp\cc2OwS6v.s 			page 29


 1597 0002 1D4E     		ldr	r6, .L167
 1598 0004 83B0     		sub	sp, sp, #12
 1599              		.cfi_def_cfa_offset 32
 1600              		.loc 1 349 0
 1601 0006 0446     		mov	r4, r0
 1602 0008 3368     		ldr	r3, [r6]
 1603 000a 0193     		str	r3, [sp, #4]
 1604 000c 0D46     		mov	r5, r1
 1605              		.loc 1 351 0
 1606 000e FFF7FEFF 		bl	chDbgCheckClassI
 1607              	.LVL153:
 1608              		.loc 1 352 0
 1609 0012 24B3     		cbz	r4, .L151
 1610              		.loc 1 352 0 is_stmt 0 discriminator 3
 1611 0014 002D     		cmp	r5, #0
 1612 0016 22DD     		ble	.L151
 1613              		.loc 1 353 0 is_stmt 1 discriminator 1
 1614 0018 A268     		ldr	r2, [r4, #8]
 1615 001a 2368     		ldr	r3, [r4]
 1616 001c 002A     		cmp	r2, #0
 1617 001e 25DB     		blt	.L153
 1618              	.L166:
 1619              		.loc 1 353 0 is_stmt 0 discriminator 3
 1620 0020 9C42     		cmp	r4, r3
 1621 0022 02D0     		beq	.L155
 1622              	.L154:
 1623              		.loc 1 353 0 discriminator 7
 1624 0024 1548     		ldr	r0, .L167+4
 1625 0026 FFF7FEFF 		bl	chSysHalt
 1626              	.LVL154:
 1627              	.L155:
 1628              		.loc 1 357 0 is_stmt 1
 1629 002a 002D     		cmp	r5, #0
 1630 002c 11DD     		ble	.L150
 1631              		.loc 1 359 0
 1632 002e 0027     		movs	r7, #0
 1633 0030 01E0     		b	.L158
 1634              	.L157:
 1635              	.LVL155:
 1636              		.loc 1 357 0
 1637 0032 013D     		subs	r5, r5, #1
 1638              	.LVL156:
 1639 0034 0DD0     		beq	.L150
 1640              	.LVL157:
 1641              	.L158:
 1642              		.loc 1 358 0
 1643 0036 A368     		ldr	r3, [r4, #8]
 1644 0038 0133     		adds	r3, r3, #1
 1645 003a 002B     		cmp	r3, #0
 1646 003c A360     		str	r3, [r4, #8]
 1647 003e F8DC     		bgt	.L157
 1648              	.LVL158:
 1649              	.LBB321:
 1650              	.LBB322:
 1651              		.loc 2 672 0
 1652 0040 2068     		ldr	r0, [r4]
 1653              	.LVL159:
ARM GAS  C:\Users\mathi\AppData\Local\Temp\cc2OwS6v.s 			page 30


 1654              		.loc 2 674 0
 1655 0042 0368     		ldr	r3, [r0]
 1656 0044 2360     		str	r3, [r4]
 1657              		.loc 2 675 0
 1658 0046 5C60     		str	r4, [r3, #4]
 1659              	.LVL160:
 1660              	.LBE322:
 1661              	.LBE321:
 1662              		.loc 1 359 0
 1663 0048 FFF7FEFF 		bl	chSchReadyI
 1664              	.LVL161:
 1665              		.loc 1 357 0
 1666 004c 013D     		subs	r5, r5, #1
 1667              	.LVL162:
 1668              		.loc 1 359 0
 1669 004e 8762     		str	r7, [r0, #40]
 1670              	.LVL163:
 1671              		.loc 1 357 0
 1672 0050 F1D1     		bne	.L158
 1673              	.L150:
 1674              		.loc 1 363 0
 1675 0052 019A     		ldr	r2, [sp, #4]
 1676 0054 3368     		ldr	r3, [r6]
 1677 0056 9A42     		cmp	r2, r3
 1678 0058 0BD1     		bne	.L165
 1679 005a 03B0     		add	sp, sp, #12
 1680              		.cfi_remember_state
 1681              		.cfi_def_cfa_offset 20
 1682              		@ sp needed
 1683 005c F0BD     		pop	{r4, r5, r6, r7, pc}
 1684              	.LVL164:
 1685              	.L151:
 1686              		.cfi_restore_state
 1687              		.loc 1 352 0 discriminator 4
 1688 005e 0748     		ldr	r0, .L167+4
 1689 0060 FFF7FEFF 		bl	chSysHalt
 1690              	.LVL165:
 1691              		.loc 1 353 0 discriminator 4
 1692 0064 A268     		ldr	r2, [r4, #8]
 1693 0066 2368     		ldr	r3, [r4]
 1694 0068 002A     		cmp	r2, #0
 1695 006a D9DA     		bge	.L166
 1696              	.L153:
 1697              		.loc 1 353 0 is_stmt 0 discriminator 6
 1698 006c 9C42     		cmp	r4, r3
 1699 006e DCD1     		bne	.L155
 1700 0070 D8E7     		b	.L154
 1701              	.LVL166:
 1702              	.L165:
 1703              		.loc 1 363 0 is_stmt 1
 1704 0072 FFF7FEFF 		bl	__stack_chk_fail
 1705              	.LVL167:
 1706              	.L168:
 1707 0076 00BF     		.align	2
 1708              	.L167:
 1709 0078 00000000 		.word	__stack_chk_guard
 1710 007c 00000000 		.word	.LANCHOR7
ARM GAS  C:\Users\mathi\AppData\Local\Temp\cc2OwS6v.s 			page 31


 1711              		.cfi_endproc
 1712              	.LFE228:
 1713              		.size	chSemAddCounterI, .-chSemAddCounterI
 1714              		.section	.text.chSemSignalWait,"ax",%progbits
 1715              		.align	1
 1716              		.p2align 4,,15
 1717              		.global	chSemSignalWait
 1718              		.syntax unified
 1719              		.thumb
 1720              		.thumb_func
 1721              		.fpu fpv4-sp-d16
 1722              		.type	chSemSignalWait, %function
 1723              	chSemSignalWait:
 1724              	.LFB229:
 1725              		.loc 1 378 0
 1726              		.cfi_startproc
 1727              		@ args = 0, pretend = 0, frame = 8
 1728              		@ frame_needed = 0, uses_anonymous_args = 0
 1729              	.LVL168:
 1730 0000 F0B5     		push	{r4, r5, r6, r7, lr}
 1731              		.cfi_def_cfa_offset 20
 1732              		.cfi_offset 4, -20
 1733              		.cfi_offset 5, -16
 1734              		.cfi_offset 6, -12
 1735              		.cfi_offset 7, -8
 1736              		.cfi_offset 14, -4
 1737 0002 364E     		ldr	r6, .L191
 1738 0004 83B0     		sub	sp, sp, #12
 1739              		.cfi_def_cfa_offset 32
 1740              		.loc 1 378 0
 1741 0006 3368     		ldr	r3, [r6]
 1742 0008 0193     		str	r3, [sp, #4]
 1743 000a 0C46     		mov	r4, r1
 1744              		.loc 1 381 0
 1745 000c 0546     		mov	r5, r0
 1746 000e 0028     		cmp	r0, #0
 1747 0010 48D0     		beq	.L170
 1748              		.loc 1 381 0 is_stmt 0 discriminator 3
 1749 0012 0029     		cmp	r1, #0
 1750 0014 46D0     		beq	.L170
 1751              	.LVL169:
 1752              	.L171:
 1753              		.loc 1 382 0 is_stmt 1 discriminator 1
 1754 0016 AA68     		ldr	r2, [r5, #8]
 1755 0018 2B68     		ldr	r3, [r5]
 1756 001a 002A     		cmp	r2, #0
 1757 001c 3FDB     		blt	.L172
 1758              		.loc 1 382 0 is_stmt 0 discriminator 3
 1759 001e AB42     		cmp	r3, r5
 1760 0020 02D0     		beq	.L174
 1761              	.L173:
 1762              		.loc 1 382 0 discriminator 7
 1763 0022 2F48     		ldr	r0, .L191+4
 1764 0024 FFF7FEFF 		bl	chSysHalt
 1765              	.LVL170:
 1766              	.L174:
 1767              		.loc 1 385 0 is_stmt 1 discriminator 1
ARM GAS  C:\Users\mathi\AppData\Local\Temp\cc2OwS6v.s 			page 32


 1768 0028 A268     		ldr	r2, [r4, #8]
 1769 002a 2368     		ldr	r3, [r4]
 1770 002c 002A     		cmp	r2, #0
 1771 002e 33DB     		blt	.L175
 1772              		.loc 1 385 0 is_stmt 0 discriminator 3
 1773 0030 A342     		cmp	r3, r4
 1774 0032 02D0     		beq	.L177
 1775              	.L176:
 1776              		.loc 1 385 0 discriminator 7
 1777 0034 2A48     		ldr	r0, .L191+4
 1778 0036 FFF7FEFF 		bl	chSysHalt
 1779              	.LVL171:
 1780              	.L177:
 1781              	.LBB346:
 1782              	.LBB347:
 1783              	.LBB348:
 1784              	.LBB349:
 1785              	.LBB350:
 1786              		.loc 3 546 0 is_stmt 1
 1787 003a 2023     		movs	r3, #32
 1788              		.syntax unified
 1789              	@ 546 "../../lib/e-puck2_main-processor/ChibiOS//os/ext/CMSIS/include/core_cmFunc.h" 1
 1790 003c 83F31188 		MSR basepri, r3
 1791              	@ 0 "" 2
 1792              	.LVL172:
 1793              		.thumb
 1794              		.syntax unified
 1795              	.LBE350:
 1796              	.LBE349:
 1797              	.LBE348:
 1798              		.loc 4 349 0
 1799 0040 FFF7FEFF 		bl	_stats_start_measure_crit_thd
 1800              	.LVL173:
 1801              		.loc 4 350 0
 1802 0044 FFF7FEFF 		bl	_dbg_check_lock
 1803              	.LVL174:
 1804              	.LBE347:
 1805              	.LBE346:
 1806              		.loc 1 390 0
 1807 0048 AB68     		ldr	r3, [r5, #8]
 1808 004a 0133     		adds	r3, r3, #1
 1809 004c 002B     		cmp	r3, #0
 1810 004e AB60     		str	r3, [r5, #8]
 1811 0050 39DD     		ble	.L187
 1812              	.L178:
 1813              		.loc 1 393 0
 1814 0052 A368     		ldr	r3, [r4, #8]
 1815 0054 013B     		subs	r3, r3, #1
 1816 0056 002B     		cmp	r3, #0
 1817 0058 A360     		str	r3, [r4, #8]
 1818 005a 27DB     		blt	.L188
 1819              		.loc 1 401 0
 1820 005c FFF7FEFF 		bl	chSchRescheduleS
 1821              	.LVL175:
 1822 0060 204D     		ldr	r5, .L191+8
 1823              	.LVL176:
 1824              		.loc 1 402 0
ARM GAS  C:\Users\mathi\AppData\Local\Temp\cc2OwS6v.s 			page 33


 1825 0062 0024     		movs	r4, #0
 1826              	.LVL177:
 1827              	.L180:
 1828              	.LBB351:
 1829              	.LBB352:
 1830              		.loc 4 360 0
 1831 0064 FFF7FEFF 		bl	_dbg_check_unlock
 1832              	.LVL178:
 1833              		.loc 4 361 0
 1834 0068 FFF7FEFF 		bl	_stats_stop_measure_crit_thd
 1835              	.LVL179:
 1836              		.loc 4 367 0
 1837 006c 2B68     		ldr	r3, [r5]
 1838 006e AB42     		cmp	r3, r5
 1839 0070 04D0     		beq	.L181
 1840 0072 AA69     		ldr	r2, [r5, #24]
 1841 0074 9B68     		ldr	r3, [r3, #8]
 1842 0076 9268     		ldr	r2, [r2, #8]
 1843 0078 9A42     		cmp	r2, r3
 1844 007a 09D3     		bcc	.L189
 1845              	.L181:
 1846              	.LVL180:
 1847              	.LBB353:
 1848              	.LBB354:
 1849              	.LBB355:
 1850              		.loc 3 546 0
 1851 007c 0023     		movs	r3, #0
 1852              		.syntax unified
 1853              	@ 546 "../../lib/e-puck2_main-processor/ChibiOS//os/ext/CMSIS/include/core_cmFunc.h" 1
 1854 007e 83F31188 		MSR basepri, r3
 1855              	@ 0 "" 2
 1856              	.LVL181:
 1857              		.thumb
 1858              		.syntax unified
 1859              	.LBE355:
 1860              	.LBE354:
 1861              	.LBE353:
 1862              	.LBE352:
 1863              	.LBE351:
 1864              		.loc 1 407 0
 1865 0082 019A     		ldr	r2, [sp, #4]
 1866 0084 3368     		ldr	r3, [r6]
 1867 0086 9A42     		cmp	r2, r3
 1868 0088 2046     		mov	r0, r4
 1869 008a 25D1     		bne	.L190
 1870              	.LVL182:
 1871 008c 03B0     		add	sp, sp, #12
 1872              		.cfi_remember_state
 1873              		.cfi_def_cfa_offset 20
 1874              		@ sp needed
 1875 008e F0BD     		pop	{r4, r5, r6, r7, pc}
 1876              	.LVL183:
 1877              	.L189:
 1878              		.cfi_restore_state
 1879              	.LBB357:
 1880              	.LBB356:
 1881              		.loc 4 367 0
ARM GAS  C:\Users\mathi\AppData\Local\Temp\cc2OwS6v.s 			page 34


 1882 0090 1548     		ldr	r0, .L191+12
 1883 0092 FFF7FEFF 		bl	chSysHalt
 1884              	.LVL184:
 1885 0096 F1E7     		b	.L181
 1886              	.LVL185:
 1887              	.L175:
 1888              	.LBE356:
 1889              	.LBE357:
 1890              		.loc 1 385 0 discriminator 6
 1891 0098 A342     		cmp	r3, r4
 1892 009a CED1     		bne	.L177
 1893 009c CAE7     		b	.L176
 1894              	.L172:
 1895              		.loc 1 382 0 discriminator 6
 1896 009e AB42     		cmp	r3, r5
 1897 00a0 C2D1     		bne	.L174
 1898 00a2 BEE7     		b	.L173
 1899              	.LVL186:
 1900              	.L170:
 1901              		.loc 1 381 0 discriminator 4
 1902 00a4 0E48     		ldr	r0, .L191+4
 1903              	.LVL187:
 1904 00a6 FFF7FEFF 		bl	chSysHalt
 1905              	.LVL188:
 1906 00aa B4E7     		b	.L171
 1907              	.L188:
 1908              	.LBB358:
 1909              		.loc 1 394 0
 1910 00ac 0D4D     		ldr	r5, .L191+8
 1911              	.LVL189:
 1912 00ae AF69     		ldr	r7, [r5, #24]
 1913              	.LVL190:
 1914              	.LBB359:
 1915              	.LBB360:
 1916              		.loc 2 665 0
 1917 00b0 3C60     		str	r4, [r7]
 1918              		.loc 2 666 0
 1919 00b2 6368     		ldr	r3, [r4, #4]
 1920 00b4 7B60     		str	r3, [r7, #4]
 1921              	.LBE360:
 1922              	.LBE359:
 1923              		.loc 1 397 0
 1924 00b6 0520     		movs	r0, #5
 1925              	.LBB362:
 1926              	.LBB361:
 1927              		.loc 2 667 0
 1928 00b8 1F60     		str	r7, [r3]
 1929              		.loc 2 668 0
 1930 00ba 6760     		str	r7, [r4, #4]
 1931              	.LVL191:
 1932              	.LBE361:
 1933              	.LBE362:
 1934              		.loc 1 396 0
 1935 00bc BC62     		str	r4, [r7, #40]
 1936              		.loc 1 397 0
 1937 00be FFF7FEFF 		bl	chSchGoSleepS
 1938              	.LVL192:
ARM GAS  C:\Users\mathi\AppData\Local\Temp\cc2OwS6v.s 			page 35


 1939              		.loc 1 398 0
 1940 00c2 BC6A     		ldr	r4, [r7, #40]
 1941              	.LVL193:
 1942              	.LBE358:
 1943 00c4 CEE7     		b	.L180
 1944              	.LVL194:
 1945              	.L187:
 1946              	.LBB363:
 1947              	.LBB364:
 1948              		.loc 2 672 0
 1949 00c6 2868     		ldr	r0, [r5]
 1950              	.LVL195:
 1951              		.loc 2 674 0
 1952 00c8 0368     		ldr	r3, [r0]
 1953 00ca 2B60     		str	r3, [r5]
 1954              		.loc 2 675 0
 1955 00cc 5D60     		str	r5, [r3, #4]
 1956              	.LVL196:
 1957              	.LBE364:
 1958              	.LBE363:
 1959              		.loc 1 391 0
 1960 00ce FFF7FEFF 		bl	chSchReadyI
 1961              	.LVL197:
 1962 00d2 0023     		movs	r3, #0
 1963 00d4 8362     		str	r3, [r0, #40]
 1964 00d6 BCE7     		b	.L178
 1965              	.LVL198:
 1966              	.L190:
 1967              		.loc 1 407 0
 1968 00d8 FFF7FEFF 		bl	__stack_chk_fail
 1969              	.LVL199:
 1970              	.L192:
 1971              		.align	2
 1972              	.L191:
 1973 00dc 00000000 		.word	__stack_chk_guard
 1974 00e0 00000000 		.word	.LANCHOR8
 1975 00e4 00000000 		.word	ch
 1976 00e8 00000000 		.word	.LANCHOR2
 1977              		.cfi_endproc
 1978              	.LFE229:
 1979              		.size	chSemSignalWait, .-chSemSignalWait
 1980              		.section	.rodata.__func__.7153,"a",%progbits
 1981              		.align	2
 1982              		.set	.LANCHOR2,. + 0
 1983              		.type	__func__.7153, %object
 1984              		.size	__func__.7153, 12
 1985              	__func__.7153:
 1986 0000 63685379 		.ascii	"chSysUnlock\000"
 1986      73556E6C 
 1986      6F636B00 
 1987              		.section	.rodata.__func__.7850,"a",%progbits
 1988              		.align	2
 1989              		.set	.LANCHOR0,. + 0
 1990              		.type	__func__.7850, %object
 1991              		.size	__func__.7850, 16
 1992              	__func__.7850:
 1993 0000 63685365 		.ascii	"chSemObjectInit\000"
ARM GAS  C:\Users\mathi\AppData\Local\Temp\cc2OwS6v.s 			page 36


 1993      6D4F626A 
 1993      65637449 
 1993      6E697400 
 1994              		.section	.rodata.__func__.7860,"a",%progbits
 1995              		.align	2
 1996              		.set	.LANCHOR1,. + 0
 1997              		.type	__func__.7860, %object
 1998              		.size	__func__.7860, 12
 1999              	__func__.7860:
 2000 0000 63685365 		.ascii	"chSemResetI\000"
 2000      6D526573 
 2000      65744900 
 2001              		.section	.rodata.__func__.7871,"a",%progbits
 2002              		.align	2
 2003              		.set	.LANCHOR3,. + 0
 2004              		.type	__func__.7871, %object
 2005              		.size	__func__.7871, 11
 2006              	__func__.7871:
 2007 0000 63685365 		.ascii	"chSemWaitS\000"
 2007      6D576169 
 2007      745300
 2008              		.section	.rodata.__func__.7881,"a",%progbits
 2009              		.align	2
 2010              		.set	.LANCHOR4,. + 0
 2011              		.type	__func__.7881, %object
 2012              		.size	__func__.7881, 18
 2013              	__func__.7881:
 2014 0000 63685365 		.ascii	"chSemWaitTimeoutS\000"
 2014      6D576169 
 2014      7454696D 
 2014      656F7574 
 2014      5300
 2015              		.section	.rodata.__func__.7885,"a",%progbits
 2016              		.align	2
 2017              		.set	.LANCHOR5,. + 0
 2018              		.type	__func__.7885, %object
 2019              		.size	__func__.7885, 12
 2020              	__func__.7885:
 2021 0000 63685365 		.ascii	"chSemSignal\000"
 2021      6D536967 
 2021      6E616C00 
 2022              		.section	.rodata.__func__.7889,"a",%progbits
 2023              		.align	2
 2024              		.set	.LANCHOR6,. + 0
 2025              		.type	__func__.7889, %object
 2026              		.size	__func__.7889, 13
 2027              	__func__.7889:
 2028 0000 63685365 		.ascii	"chSemSignalI\000"
 2028      6D536967 
 2028      6E616C49 
 2028      00
 2029              		.section	.rodata.__func__.7895,"a",%progbits
 2030              		.align	2
 2031              		.set	.LANCHOR7,. + 0
 2032              		.type	__func__.7895, %object
 2033              		.size	__func__.7895, 17
 2034              	__func__.7895:
ARM GAS  C:\Users\mathi\AppData\Local\Temp\cc2OwS6v.s 			page 37


 2035 0000 63685365 		.ascii	"chSemAddCounterI\000"
 2035      6D416464 
 2035      436F756E 
 2035      74657249 
 2035      00
 2036              		.section	.rodata.__func__.7904,"a",%progbits
 2037              		.align	2
 2038              		.set	.LANCHOR8,. + 0
 2039              		.type	__func__.7904, %object
 2040              		.size	__func__.7904, 16
 2041              	__func__.7904:
 2042 0000 63685365 		.ascii	"chSemSignalWait\000"
 2042      6D536967 
 2042      6E616C57 
 2042      61697400 
 2043              		.text
 2044              	.Letext0:
 2045              		.file 5 "c:\\eclipse_e-puck2\\tools\\gcc-arm-none-eabi-7-2017-q4-major-win32\\arm-none-eabi\\inclu
 2046              		.file 6 "c:\\eclipse_e-puck2\\tools\\gcc-arm-none-eabi-7-2017-q4-major-win32\\arm-none-eabi\\inclu
 2047              		.file 7 "../../lib/e-puck2_main-processor/ChibiOS//os/rt/ports/ARMCMx/compilers/GCC/chtypes.h"
 2048              		.file 8 "../../lib/e-puck2_main-processor/ChibiOS//os/rt/include/chsystypes.h"
 2049              		.file 9 "../../lib/e-puck2_main-processor/ChibiOS//os/ext/CMSIS/include/core_cm4.h"
 2050              		.file 10 "../../lib/e-puck2_main-processor/ChibiOS//os/ext/CMSIS/ST/system_stm32f4xx.h"
 2051              		.file 11 "../../lib/e-puck2_main-processor/ChibiOS//os/rt/ports/ARMCMx/chcore.h"
 2052              		.file 12 "../../lib/e-puck2_main-processor/ChibiOS//os/rt/ports/ARMCMx/chcore_v7m.h"
 2053              		.file 13 "../../lib/e-puck2_main-processor/ChibiOS//os/rt/include/chdebug.h"
 2054              		.file 14 "../../lib/e-puck2_main-processor/ChibiOS//os/rt/include/chtm.h"
 2055              		.file 15 "../../lib/e-puck2_main-processor/ChibiOS//os/rt/include/chstats.h"
 2056              		.file 16 "../../lib/e-puck2_main-processor/ChibiOS//os/rt/include/chsem.h"
 2057              		.file 17 "../../lib/e-puck2_main-processor/ChibiOS//os/rt/include/chmtx.h"
 2058              		.file 18 "../../lib/e-puck2_main-processor/ChibiOS//os/rt/include/chregistry.h"