ARM GAS  C:\Users\mathi\AppData\Local\Temp\cceGBsvt.s 			page 1


   1              		.cpu cortex-m4
   2              		.eabi_attribute 27, 1
   3              		.eabi_attribute 28, 1
   4              		.eabi_attribute 20, 1
   5              		.eabi_attribute 21, 1
   6              		.eabi_attribute 23, 3
   7              		.eabi_attribute 24, 1
   8              		.eabi_attribute 25, 1
   9              		.eabi_attribute 26, 1
  10              		.eabi_attribute 30, 2
  11              		.eabi_attribute 34, 1
  12              		.eabi_attribute 18, 4
  13              		.file	"chthreads.c"
  14              		.text
  15              	.Ltext0:
  16              		.cfi_sections	.debug_frame
  17              		.section	.text._thread_init,"ax",%progbits
  18              		.align	1
  19              		.p2align 4,,15
  20              		.global	_thread_init
  21              		.syntax unified
  22              		.thumb
  23              		.thumb_func
  24              		.fpu fpv4-sp-d16
  25              		.type	_thread_init, %function
  26              	_thread_init:
  27              	.LFB219:
  28              		.file 1 "../../lib/e-puck2_main-processor/ChibiOS//os/rt/src/chthreads.c"
  29              		.loc 1 91 0
  30              		.cfi_startproc
  31              		@ args = 0, pretend = 0, frame = 8
  32              		@ frame_needed = 0, uses_anonymous_args = 0
  33              	.LVL0:
  34 0000 F0B5     		push	{r4, r5, r6, r7, lr}
  35              		.cfi_def_cfa_offset 20
  36              		.cfi_offset 4, -20
  37              		.cfi_offset 5, -16
  38              		.cfi_offset 6, -12
  39              		.cfi_offset 7, -8
  40              		.cfi_offset 14, -4
  41              		.loc 1 114 0
  42 0002 1A4A     		ldr	r2, .L6
  43              		.loc 1 91 0
  44 0004 1A4D     		ldr	r5, .L6+4
  45              		.loc 1 114 0
  46 0006 0261     		str	r2, [r0, #16]
  47              		.loc 1 91 0
  48 0008 0446     		mov	r4, r0
  49              		.loc 1 93 0
  50 000a 8160     		str	r1, [r0, #8]
  51              		.loc 1 91 0
  52 000c 83B0     		sub	sp, sp, #12
  53              		.cfi_def_cfa_offset 32
  54              		.loc 1 97 0
  55 000e 1423     		movs	r3, #20
  56              		.loc 1 114 0
  57 0010 5069     		ldr	r0, [r2, #20]
ARM GAS  C:\Users\mathi\AppData\Local\Temp\cceGBsvt.s 			page 2


  58              	.LVL1:
  59              		.loc 1 91 0
  60 0012 2E68     		ldr	r6, [r5]
  61              		.loc 1 100 0
  62 0014 6164     		str	r1, [r4, #68]
  63              		.loc 1 97 0
  64 0016 84F82330 		strb	r3, [r4, #35]
  65              		.loc 1 94 0
  66 001a 0227     		movs	r7, #2
  67              		.loc 1 101 0
  68 001c 0023     		movs	r3, #0
  69              		.loc 1 110 0
  70 001e 0121     		movs	r1, #1
  71              	.LVL2:
  72              		.loc 1 94 0
  73 0020 2784     		strh	r7, [r4, #32]	@ movhi
  74              		.loc 1 110 0
  75 0022 84F82210 		strb	r1, [r4, #34]
  76              		.loc 1 104 0
  77 0026 C4E90F33 		strd	r3, r3, [r4, #60]
  78              		.loc 1 123 0
  79 002a 04F16801 		add	r1, r4, #104
  80              		.loc 1 113 0
  81 002e A361     		str	r3, [r4, #24]
  82              		.loc 1 91 0
  83 0030 0196     		str	r6, [sp, #4]
  84              		.loc 1 117 0
  85 0032 04F12C07 		add	r7, r4, #44
  86              		.loc 1 107 0
  87 0036 6362     		str	r3, [r4, #36]
  88              		.loc 1 126 0
  89 0038 04F15006 		add	r6, r4, #80
  90              		.loc 1 120 0
  91 003c 04F13003 		add	r3, r4, #48
  92              		.loc 1 114 0
  93 0040 6061     		str	r0, [r4, #20]
  94 0042 0461     		str	r4, [r0, #16]
  95              	.LVL3:
  96              	.LBB111:
  97              	.LBB112:
  98              		.file 2 "../../lib/e-puck2_main-processor/ChibiOS//os/rt/include/chschd.h"
  99              		.loc 2 605 0
 100 0044 C4E90C33 		strd	r3, r3, [r4, #48]
 101              	.LBE112:
 102              	.LBE111:
 103              		.loc 1 123 0
 104 0048 E161     		str	r1, [r4, #28]
 105              		.loc 1 126 0
 106 004a 3046     		mov	r0, r6
 107              	.LBB113:
 108              	.LBB114:
 109              		.loc 2 566 0
 110 004c E762     		str	r7, [r4, #44]
 111              	.LBE114:
 112              	.LBE113:
 113              		.loc 1 114 0
 114 004e 5461     		str	r4, [r2, #20]
ARM GAS  C:\Users\mathi\AppData\Local\Temp\cceGBsvt.s 			page 3


 115              		.loc 1 126 0
 116 0050 FFF7FEFF 		bl	chTMObjectInit
 117              	.LVL4:
 118              		.loc 1 127 0
 119 0054 3046     		mov	r0, r6
 120 0056 FFF7FEFF 		bl	chTMStartMeasurementX
 121              	.LVL5:
 122              		.loc 1 133 0
 123 005a 019A     		ldr	r2, [sp, #4]
 124 005c 2B68     		ldr	r3, [r5]
 125 005e 9A42     		cmp	r2, r3
 126 0060 02D1     		bne	.L5
 127 0062 2046     		mov	r0, r4
 128 0064 03B0     		add	sp, sp, #12
 129              		.cfi_remember_state
 130              		.cfi_def_cfa_offset 20
 131              		@ sp needed
 132 0066 F0BD     		pop	{r4, r5, r6, r7, pc}
 133              	.LVL6:
 134              	.L5:
 135              		.cfi_restore_state
 136 0068 FFF7FEFF 		bl	__stack_chk_fail
 137              	.LVL7:
 138              	.L7:
 139              		.align	2
 140              	.L6:
 141 006c 00000000 		.word	ch
 142 0070 00000000 		.word	__stack_chk_guard
 143              		.cfi_endproc
 144              	.LFE219:
 145              		.size	_thread_init, .-_thread_init
 146              		.section	.text._thread_memfill,"ax",%progbits
 147              		.align	1
 148              		.p2align 4,,15
 149              		.global	_thread_memfill
 150              		.syntax unified
 151              		.thumb
 152              		.thumb_func
 153              		.fpu fpv4-sp-d16
 154              		.type	_thread_memfill, %function
 155              	_thread_memfill:
 156              	.LFB220:
 157              		.loc 1 145 0
 158              		.cfi_startproc
 159              		@ args = 0, pretend = 0, frame = 8
 160              		@ frame_needed = 0, uses_anonymous_args = 0
 161              	.LVL8:
 162 0000 30B5     		push	{r4, r5, lr}
 163              		.cfi_def_cfa_offset 12
 164              		.cfi_offset 4, -12
 165              		.cfi_offset 5, -8
 166              		.cfi_offset 14, -4
 167 0002 0D4B     		ldr	r3, .L14
 168 0004 83B0     		sub	sp, sp, #12
 169              		.cfi_def_cfa_offset 24
 170              		.loc 1 145 0
 171 0006 1C68     		ldr	r4, [r3]
ARM GAS  C:\Users\mathi\AppData\Local\Temp\cceGBsvt.s 			page 4


 172 0008 0194     		str	r4, [sp, #4]
 173              		.loc 1 147 0
 174 000a 8842     		cmp	r0, r1
 175 000c 0BD2     		bcs	.L8
 176 000e 1546     		mov	r5, r2
 177 0010 019A     		ldr	r2, [sp, #4]
 178              	.LVL9:
 179 0012 1B68     		ldr	r3, [r3]
 180 0014 9A42     		cmp	r2, r3
 181 0016 0CD1     		bne	.L13
 182 0018 0A1A     		subs	r2, r1, r0
 183 001a 2946     		mov	r1, r5
 184              	.LVL10:
 185              		.loc 1 150 0
 186 001c 03B0     		add	sp, sp, #12
 187              		.cfi_remember_state
 188              		.cfi_def_cfa_offset 12
 189              		@ sp needed
 190 001e BDE83040 		pop	{r4, r5, lr}
 191              		.cfi_restore 14
 192              		.cfi_restore 5
 193              		.cfi_restore 4
 194              		.cfi_def_cfa_offset 0
 195 0022 FFF7FEBF 		b	memset
 196              	.LVL11:
 197              	.L8:
 198              		.cfi_restore_state
 199 0026 019A     		ldr	r2, [sp, #4]
 200              	.LVL12:
 201 0028 1B68     		ldr	r3, [r3]
 202 002a 9A42     		cmp	r2, r3
 203 002c 01D1     		bne	.L13
 204 002e 03B0     		add	sp, sp, #12
 205              		.cfi_remember_state
 206              		.cfi_def_cfa_offset 12
 207              		@ sp needed
 208 0030 30BD     		pop	{r4, r5, pc}
 209              	.L13:
 210              		.cfi_restore_state
 211 0032 FFF7FEFF 		bl	__stack_chk_fail
 212              	.LVL13:
 213              	.L15:
 214 0036 00BF     		.align	2
 215              	.L14:
 216 0038 00000000 		.word	__stack_chk_guard
 217              		.cfi_endproc
 218              	.LFE220:
 219              		.size	_thread_memfill, .-_thread_memfill
 220              		.section	.text.chThdCreateI,"ax",%progbits
 221              		.align	1
 222              		.p2align 4,,15
 223              		.global	chThdCreateI
 224              		.syntax unified
 225              		.thumb
 226              		.thumb_func
 227              		.fpu fpv4-sp-d16
 228              		.type	chThdCreateI, %function
ARM GAS  C:\Users\mathi\AppData\Local\Temp\cceGBsvt.s 			page 5


 229              	chThdCreateI:
 230              	.LFB221:
 231              		.loc 1 178 0
 232              		.cfi_startproc
 233              		@ args = 4, pretend = 0, frame = 8
 234              		@ frame_needed = 0, uses_anonymous_args = 0
 235              	.LVL14:
 236 0000 2DE9F043 		push	{r4, r5, r6, r7, r8, r9, lr}
 237              		.cfi_def_cfa_offset 28
 238              		.cfi_offset 4, -28
 239              		.cfi_offset 5, -24
 240              		.cfi_offset 6, -20
 241              		.cfi_offset 7, -16
 242              		.cfi_offset 8, -12
 243              		.cfi_offset 9, -8
 244              		.cfi_offset 14, -4
 245 0004 2A4F     		ldr	r7, .L26
 246 0006 83B0     		sub	sp, sp, #12
 247              		.cfi_def_cfa_offset 40
 248              		.loc 1 178 0
 249 0008 3C68     		ldr	r4, [r7]
 250 000a 0194     		str	r4, [sp, #4]
 251 000c 0446     		mov	r4, r0
 252              	.LVL15:
 253 000e DDF82890 		ldr	r9, [sp, #40]
 254 0012 0D46     		mov	r5, r1
 255 0014 1646     		mov	r6, r2
 256 0016 9846     		mov	r8, r3
 257              		.loc 1 183 0
 258 0018 FFF7FEFF 		bl	chDbgCheckClassI
 259              	.LVL16:
 260              		.loc 1 184 0
 261 001c 14B1     		cbz	r4, .L17
 262              		.loc 1 184 0 is_stmt 0 discriminator 3
 263 001e B5F5BC7F 		cmp	r5, #376
 264 0022 3DD2     		bcs	.L24
 265              	.L17:
 266              		.loc 1 184 0 discriminator 8
 267 0024 2348     		ldr	r0, .L26+4
 268 0026 FFF7FEFF 		bl	chSysHalt
 269              	.LVL17:
 270              	.L18:
 271              		.loc 1 187 0 is_stmt 1
 272 002a A5F16401 		sub	r1, r5, #100
 273 002e 2144     		add	r1, r1, r4
 274 0030 E160     		str	r1, [r4, #12]
 275 0032 C1F84080 		str	r8, [r1, #64]
 276 0036 E368     		ldr	r3, [r4, #12]
 277              	.LBB121:
 278              	.LBB122:
 279              		.loc 1 114 0
 280 0038 1F49     		ldr	r1, .L26+8
 281              	.LBE122:
 282              	.LBE121:
 283              		.loc 1 187 0
 284 003a C3F84490 		str	r9, [r3, #68]
 285 003e E368     		ldr	r3, [r4, #12]
ARM GAS  C:\Users\mathi\AppData\Local\Temp\cceGBsvt.s 			page 6


 286 0040 1E4A     		ldr	r2, .L26+12
 287 0042 1A66     		str	r2, [r3, #96]
 288              	.LVL18:
 289              	.LBB126:
 290              	.LBB125:
 291              		.loc 1 94 0
 292 0044 0220     		movs	r0, #2
 293              		.loc 1 93 0
 294 0046 A660     		str	r6, [r4, #8]
 295              		.loc 1 114 0
 296 0048 2161     		str	r1, [r4, #16]
 297 004a 4A69     		ldr	r2, [r1, #20]
 298              		.loc 1 94 0
 299 004c 2084     		strh	r0, [r4, #32]	@ movhi
 300              		.loc 1 101 0
 301 004e 0023     		movs	r3, #0
 302              		.loc 1 97 0
 303 0050 1425     		movs	r5, #20
 304              	.LVL19:
 305              		.loc 1 110 0
 306 0052 0120     		movs	r0, #1
 307              		.loc 1 100 0
 308 0054 6664     		str	r6, [r4, #68]
 309              		.loc 1 97 0
 310 0056 84F82350 		strb	r5, [r4, #35]
 311              		.loc 1 104 0
 312 005a C4E90F33 		strd	r3, r3, [r4, #60]
 313              		.loc 1 107 0
 314 005e 6362     		str	r3, [r4, #36]
 315              		.loc 1 113 0
 316 0060 A361     		str	r3, [r4, #24]
 317              		.loc 1 110 0
 318 0062 84F82200 		strb	r0, [r4, #34]
 319              		.loc 1 120 0
 320 0066 04F13003 		add	r3, r4, #48
 321              		.loc 1 123 0
 322 006a 04F16800 		add	r0, r4, #104
 323              		.loc 1 126 0
 324 006e 04F15005 		add	r5, r4, #80
 325              		.loc 1 117 0
 326 0072 04F12C06 		add	r6, r4, #44
 327              	.LVL20:
 328              		.loc 1 114 0
 329 0076 6261     		str	r2, [r4, #20]
 330 0078 1461     		str	r4, [r2, #16]
 331              	.LVL21:
 332              	.LBB123:
 333              	.LBB124:
 334              		.loc 2 604 0
 335 007a C4E90B63 		strd	r6, r3, [r4, #44]
 336              		.loc 2 605 0
 337 007e 6363     		str	r3, [r4, #52]
 338              	.LBE124:
 339              	.LBE123:
 340              		.loc 1 123 0
 341 0080 E061     		str	r0, [r4, #28]
 342              		.loc 1 126 0
ARM GAS  C:\Users\mathi\AppData\Local\Temp\cceGBsvt.s 			page 7


 343 0082 2846     		mov	r0, r5
 344              		.loc 1 114 0
 345 0084 4C61     		str	r4, [r1, #20]
 346              		.loc 1 126 0
 347 0086 FFF7FEFF 		bl	chTMObjectInit
 348              	.LVL22:
 349              		.loc 1 127 0
 350 008a 2846     		mov	r0, r5
 351 008c FFF7FEFF 		bl	chTMStartMeasurementX
 352              	.LVL23:
 353              	.LBE125:
 354              	.LBE126:
 355              		.loc 1 190 0
 356 0090 019A     		ldr	r2, [sp, #4]
 357 0092 3B68     		ldr	r3, [r7]
 358 0094 9A42     		cmp	r2, r3
 359 0096 2046     		mov	r0, r4
 360 0098 08D1     		bne	.L25
 361              	.LVL24:
 362 009a 03B0     		add	sp, sp, #12
 363              		.cfi_remember_state
 364              		.cfi_def_cfa_offset 28
 365              		@ sp needed
 366 009c BDE8F083 		pop	{r4, r5, r6, r7, r8, r9, pc}
 367              	.LVL25:
 368              	.L24:
 369              		.cfi_restore_state
 370              		.loc 1 184 0 discriminator 5
 371 00a0 7F2E     		cmp	r6, #127
 372 00a2 BFD8     		bhi	.L17
 373              		.loc 1 184 0 is_stmt 0 discriminator 7
 374 00a4 B8F1000F 		cmp	r8, #0
 375 00a8 BFD1     		bne	.L18
 376 00aa BBE7     		b	.L17
 377              	.LVL26:
 378              	.L25:
 379              		.loc 1 190 0 is_stmt 1
 380 00ac FFF7FEFF 		bl	__stack_chk_fail
 381              	.LVL27:
 382              	.L27:
 383              		.align	2
 384              	.L26:
 385 00b0 00000000 		.word	__stack_chk_guard
 386 00b4 00000000 		.word	.LANCHOR0
 387 00b8 00000000 		.word	ch
 388 00bc 00000000 		.word	_port_thread_start
 389              		.cfi_endproc
 390              	.LFE221:
 391              		.size	chThdCreateI, .-chThdCreateI
 392              		.section	.text.chThdCreateStatic,"ax",%progbits
 393              		.align	1
 394              		.p2align 4,,15
 395              		.global	chThdCreateStatic
 396              		.syntax unified
 397              		.thumb
 398              		.thumb_func
 399              		.fpu fpv4-sp-d16
ARM GAS  C:\Users\mathi\AppData\Local\Temp\cceGBsvt.s 			page 8


 400              		.type	chThdCreateStatic, %function
 401              	chThdCreateStatic:
 402              	.LFB222:
 403              		.loc 1 209 0
 404              		.cfi_startproc
 405              		@ args = 4, pretend = 0, frame = 8
 406              		@ frame_needed = 0, uses_anonymous_args = 0
 407              	.LVL28:
 408 0000 2DE9F047 		push	{r4, r5, r6, r7, r8, r9, r10, lr}
 409              		.cfi_def_cfa_offset 32
 410              		.cfi_offset 4, -32
 411              		.cfi_offset 5, -28
 412              		.cfi_offset 6, -24
 413              		.cfi_offset 7, -20
 414              		.cfi_offset 8, -16
 415              		.cfi_offset 9, -12
 416              		.cfi_offset 10, -8
 417              		.cfi_offset 14, -4
 418 0004 DFF81881 		ldr	r8, .L38+16
 419 0008 82B0     		sub	sp, sp, #8
 420              		.cfi_def_cfa_offset 40
 421              		.loc 1 209 0
 422 000a D8F80040 		ldr	r4, [r8]
 423 000e 0194     		str	r4, [sp, #4]
 424 0010 0D46     		mov	r5, r1
 425 0012 0446     		mov	r4, r0
 426 0014 1746     		mov	r7, r2
 427 0016 FF21     		movs	r1, #255
 428              	.LVL29:
 429 0018 6822     		movs	r2, #104
 430              	.LVL30:
 431 001a 9946     		mov	r9, r3
 432 001c DDF828A0 		ldr	r10, [sp, #40]
 433              		.loc 1 213 0
 434 0020 04F16806 		add	r6, r4, #104
 435 0024 FFF7FEFF 		bl	memset
 436              	.LVL31:
 437              		.loc 1 216 0
 438 0028 6319     		adds	r3, r4, r5
 439              	.LVL32:
 440              	.LBB149:
 441              	.LBB150:
 442              		.loc 1 147 0
 443 002a 9E42     		cmp	r6, r3
 444 002c 06D2     		bcs	.L29
 445              		.loc 1 148 0
 446 002e 1B1B     		subs	r3, r3, r4
 447              	.LVL33:
 448 0030 A3F16802 		sub	r2, r3, #104
 449 0034 5521     		movs	r1, #85
 450 0036 3046     		mov	r0, r6
 451 0038 FFF7FEFF 		bl	memset
 452              	.LVL34:
 453              	.L29:
 454              	.LBE150:
 455              	.LBE149:
 456              	.LBB151:
ARM GAS  C:\Users\mathi\AppData\Local\Temp\cceGBsvt.s 			page 9


 457              	.LBB152:
 458              	.LBB153:
 459              	.LBB154:
 460              	.LBB155:
 461              		.file 3 "../../lib/e-puck2_main-processor/ChibiOS//os/ext/CMSIS/include/core_cmFunc.h"
 462              		.loc 3 546 0
 463 003c 2023     		movs	r3, #32
 464              		.syntax unified
 465              	@ 546 "../../lib/e-puck2_main-processor/ChibiOS//os/ext/CMSIS/include/core_cmFunc.h" 1
 466 003e 83F31188 		MSR basepri, r3
 467              	@ 0 "" 2
 468              	.LVL35:
 469              		.thumb
 470              		.syntax unified
 471              	.LBE155:
 472              	.LBE154:
 473              	.LBE153:
 474              		.file 4 "../../lib/e-puck2_main-processor/ChibiOS//os/rt/include/chsys.h"
 475              		.loc 4 349 0
 476 0042 FFF7FEFF 		bl	_stats_start_measure_crit_thd
 477              	.LVL36:
 478              		.loc 4 350 0
 479 0046 FFF7FEFF 		bl	_dbg_check_lock
 480              	.LVL37:
 481              	.LBE152:
 482              	.LBE151:
 483              	.LBB156:
 484              	.LBB157:
 485              		.loc 1 183 0
 486 004a FFF7FEFF 		bl	chDbgCheckClassI
 487              	.LVL38:
 488              		.loc 1 184 0
 489 004e B5F5BC7F 		cmp	r5, #376
 490 0052 01D3     		bcc	.L30
 491 0054 7F2F     		cmp	r7, #127
 492 0056 54D9     		bls	.L35
 493              	.L30:
 494 0058 2D48     		ldr	r0, .L38
 495 005a FFF7FEFF 		bl	chSysHalt
 496              	.LVL39:
 497              	.L31:
 498              		.loc 1 187 0
 499 005e A5F16403 		sub	r3, r5, #100
 500 0062 2344     		add	r3, r3, r4
 501 0064 E360     		str	r3, [r4, #12]
 502 0066 C3F84090 		str	r9, [r3, #64]
 503 006a E368     		ldr	r3, [r4, #12]
 504              	.LBB158:
 505              	.LBB159:
 506              		.loc 1 114 0
 507 006c 294D     		ldr	r5, .L38+4
 508              	.LVL40:
 509              	.LBE159:
 510              	.LBE158:
 511              		.loc 1 187 0
 512 006e C3F844A0 		str	r10, [r3, #68]
 513 0072 E368     		ldr	r3, [r4, #12]
ARM GAS  C:\Users\mathi\AppData\Local\Temp\cceGBsvt.s 			page 10


 514 0074 284A     		ldr	r2, .L38+8
 515 0076 1A66     		str	r2, [r3, #96]
 516              	.LVL41:
 517              	.LBB163:
 518              	.LBB162:
 519              		.loc 1 93 0
 520 0078 A760     		str	r7, [r4, #8]
 521              		.loc 1 114 0
 522 007a 2561     		str	r5, [r4, #16]
 523 007c 6B69     		ldr	r3, [r5, #20]
 524              		.loc 1 100 0
 525 007e 6764     		str	r7, [r4, #68]
 526              		.loc 1 94 0
 527 0080 0222     		movs	r2, #2
 528              		.loc 1 101 0
 529 0082 0027     		movs	r7, #0
 530              	.LVL42:
 531              		.loc 1 94 0
 532 0084 2284     		strh	r2, [r4, #32]	@ movhi
 533              		.loc 1 97 0
 534 0086 1421     		movs	r1, #20
 535              		.loc 1 110 0
 536 0088 0122     		movs	r2, #1
 537              		.loc 1 114 0
 538 008a 6361     		str	r3, [r4, #20]
 539              		.loc 1 97 0
 540 008c 84F82310 		strb	r1, [r4, #35]
 541              		.loc 1 110 0
 542 0090 84F82220 		strb	r2, [r4, #34]
 543              		.loc 1 117 0
 544 0094 04F12C01 		add	r1, r4, #44
 545              		.loc 1 120 0
 546 0098 04F13002 		add	r2, r4, #48
 547              		.loc 1 104 0
 548 009c C4E90F77 		strd	r7, r7, [r4, #60]
 549              		.loc 1 107 0
 550 00a0 6762     		str	r7, [r4, #36]
 551              		.loc 1 113 0
 552 00a2 A761     		str	r7, [r4, #24]
 553              		.loc 1 114 0
 554 00a4 1C61     		str	r4, [r3, #16]
 555              	.LVL43:
 556              		.loc 1 126 0
 557 00a6 04F15003 		add	r3, r4, #80
 558 00aa 1846     		mov	r0, r3
 559              	.LBB160:
 560              	.LBB161:
 561              		.loc 2 604 0
 562 00ac C4E90B12 		strd	r1, r2, [r4, #44]
 563              		.loc 2 605 0
 564 00b0 6263     		str	r2, [r4, #52]
 565              	.LBE161:
 566              	.LBE160:
 567              		.loc 1 123 0
 568 00b2 E661     		str	r6, [r4, #28]
 569              		.loc 1 126 0
 570 00b4 1E46     		mov	r6, r3
ARM GAS  C:\Users\mathi\AppData\Local\Temp\cceGBsvt.s 			page 11


 571              		.loc 1 114 0
 572 00b6 6C61     		str	r4, [r5, #20]
 573              		.loc 1 126 0
 574 00b8 FFF7FEFF 		bl	chTMObjectInit
 575              	.LVL44:
 576              		.loc 1 127 0
 577 00bc 3046     		mov	r0, r6
 578 00be FFF7FEFF 		bl	chTMStartMeasurementX
 579              	.LVL45:
 580              	.LBE162:
 581              	.LBE163:
 582              	.LBE157:
 583              	.LBE156:
 584              		.loc 1 223 0
 585 00c2 3946     		mov	r1, r7
 586 00c4 2046     		mov	r0, r4
 587 00c6 FFF7FEFF 		bl	chSchWakeupS
 588              	.LVL46:
 589              	.LBB165:
 590              	.LBB166:
 591              		.loc 4 360 0
 592 00ca FFF7FEFF 		bl	_dbg_check_unlock
 593              	.LVL47:
 594              		.loc 4 361 0
 595 00ce FFF7FEFF 		bl	_stats_stop_measure_crit_thd
 596              	.LVL48:
 597              		.loc 4 367 0
 598 00d2 2B68     		ldr	r3, [r5]
 599 00d4 AB42     		cmp	r3, r5
 600 00d6 04D0     		beq	.L32
 601 00d8 AA69     		ldr	r2, [r5, #24]
 602 00da 9B68     		ldr	r3, [r3, #8]
 603 00dc 9268     		ldr	r2, [r2, #8]
 604 00de 9A42     		cmp	r2, r3
 605 00e0 0BD3     		bcc	.L36
 606              	.L32:
 607              	.LVL49:
 608              	.LBB167:
 609              	.LBB168:
 610              	.LBB169:
 611              		.loc 3 546 0
 612 00e2 0023     		movs	r3, #0
 613              		.syntax unified
 614              	@ 546 "../../lib/e-puck2_main-processor/ChibiOS//os/ext/CMSIS/include/core_cmFunc.h" 1
 615 00e4 83F31188 		MSR basepri, r3
 616              	@ 0 "" 2
 617              	.LVL50:
 618              		.thumb
 619              		.syntax unified
 620              	.LBE169:
 621              	.LBE168:
 622              	.LBE167:
 623              	.LBE166:
 624              	.LBE165:
 625              		.loc 1 227 0
 626 00e8 019A     		ldr	r2, [sp, #4]
 627 00ea D8F80030 		ldr	r3, [r8]
ARM GAS  C:\Users\mathi\AppData\Local\Temp\cceGBsvt.s 			page 12


 628 00ee 9A42     		cmp	r2, r3
 629 00f0 2046     		mov	r0, r4
 630 00f2 0AD1     		bne	.L37
 631              	.LVL51:
 632 00f4 02B0     		add	sp, sp, #8
 633              		.cfi_remember_state
 634              		.cfi_def_cfa_offset 32
 635              		@ sp needed
 636 00f6 BDE8F087 		pop	{r4, r5, r6, r7, r8, r9, r10, pc}
 637              	.LVL52:
 638              	.L36:
 639              		.cfi_restore_state
 640              	.LBB171:
 641              	.LBB170:
 642              		.loc 4 367 0
 643 00fa 0848     		ldr	r0, .L38+12
 644 00fc FFF7FEFF 		bl	chSysHalt
 645              	.LVL53:
 646 0100 EFE7     		b	.L32
 647              	.LVL54:
 648              	.L35:
 649              	.LBE170:
 650              	.LBE171:
 651              	.LBB172:
 652              	.LBB164:
 653              		.loc 1 184 0
 654 0102 B9F1000F 		cmp	r9, #0
 655 0106 AAD1     		bne	.L31
 656 0108 A6E7     		b	.L30
 657              	.LVL55:
 658              	.L37:
 659              	.LBE164:
 660              	.LBE172:
 661              		.loc 1 227 0
 662 010a FFF7FEFF 		bl	__stack_chk_fail
 663              	.LVL56:
 664              	.L39:
 665 010e 00BF     		.align	2
 666              	.L38:
 667 0110 00000000 		.word	.LANCHOR0
 668 0114 00000000 		.word	ch
 669 0118 00000000 		.word	_port_thread_start
 670 011c 00000000 		.word	.LANCHOR1
 671 0120 00000000 		.word	__stack_chk_guard
 672              		.cfi_endproc
 673              	.LFE222:
 674              		.size	chThdCreateStatic, .-chThdCreateStatic
 675              		.section	.text.chThdStart,"ax",%progbits
 676              		.align	1
 677              		.p2align 4,,15
 678              		.global	chThdStart
 679              		.syntax unified
 680              		.thumb
 681              		.thumb_func
 682              		.fpu fpv4-sp-d16
 683              		.type	chThdStart, %function
 684              	chThdStart:
ARM GAS  C:\Users\mathi\AppData\Local\Temp\cceGBsvt.s 			page 13


 685              	.LFB223:
 686              		.loc 1 238 0
 687              		.cfi_startproc
 688              		@ args = 0, pretend = 0, frame = 8
 689              		@ frame_needed = 0, uses_anonymous_args = 0
 690              	.LVL57:
 691 0000 30B5     		push	{r4, r5, lr}
 692              		.cfi_def_cfa_offset 12
 693              		.cfi_offset 4, -12
 694              		.cfi_offset 5, -8
 695              		.cfi_offset 14, -4
 696 0002 1A4C     		ldr	r4, .L50
 697 0004 83B0     		sub	sp, sp, #12
 698              		.cfi_def_cfa_offset 24
 699              		.loc 1 238 0
 700 0006 2368     		ldr	r3, [r4]
 701 0008 0193     		str	r3, [sp, #4]
 702              	.LVL58:
 703 000a 0546     		mov	r5, r0
 704              	.LBB185:
 705              	.LBB186:
 706              	.LBB187:
 707              	.LBB188:
 708              	.LBB189:
 709              		.loc 3 546 0
 710 000c 2023     		movs	r3, #32
 711              		.syntax unified
 712              	@ 546 "../../lib/e-puck2_main-processor/ChibiOS//os/ext/CMSIS/include/core_cmFunc.h" 1
 713 000e 83F31188 		MSR basepri, r3
 714              	@ 0 "" 2
 715              	.LVL59:
 716              		.thumb
 717              		.syntax unified
 718              	.LBE189:
 719              	.LBE188:
 720              	.LBE187:
 721              		.loc 4 349 0
 722 0012 FFF7FEFF 		bl	_stats_start_measure_crit_thd
 723              	.LVL60:
 724              		.loc 4 350 0
 725 0016 FFF7FEFF 		bl	_dbg_check_lock
 726              	.LVL61:
 727              	.LBE186:
 728              	.LBE185:
 729              	.LBB190:
 730              	.LBB191:
 731              		.file 5 "../../lib/e-puck2_main-processor/ChibiOS//os/rt/include/chthreads.h"
 732              		.loc 5 247 0
 733 001a 95F82030 		ldrb	r3, [r5, #32]	@ zero_extendqisi2
 734 001e 022B     		cmp	r3, #2
 735 0020 02D0     		beq	.L41
 736 0022 1348     		ldr	r0, .L50+4
 737 0024 FFF7FEFF 		bl	chSysHalt
 738              	.LVL62:
 739              	.L41:
 740              		.loc 5 249 0
 741 0028 2846     		mov	r0, r5
ARM GAS  C:\Users\mathi\AppData\Local\Temp\cceGBsvt.s 			page 14


 742 002a FFF7FEFF 		bl	chSchReadyI
 743              	.LVL63:
 744 002e 0546     		mov	r5, r0
 745              	.LVL64:
 746              	.LBE191:
 747              	.LBE190:
 748              	.LBB192:
 749              	.LBB193:
 750              		.loc 4 360 0
 751 0030 FFF7FEFF 		bl	_dbg_check_unlock
 752              	.LVL65:
 753              		.loc 4 361 0
 754 0034 FFF7FEFF 		bl	_stats_stop_measure_crit_thd
 755              	.LVL66:
 756              		.loc 4 367 0
 757 0038 0E4B     		ldr	r3, .L50+8
 758 003a 1A68     		ldr	r2, [r3]
 759 003c 9A42     		cmp	r2, r3
 760 003e 04D0     		beq	.L42
 761 0040 9969     		ldr	r1, [r3, #24]
 762 0042 9368     		ldr	r3, [r2, #8]
 763 0044 8A68     		ldr	r2, [r1, #8]
 764 0046 9A42     		cmp	r2, r3
 765 0048 09D3     		bcc	.L48
 766              	.L42:
 767              	.LVL67:
 768              	.LBB194:
 769              	.LBB195:
 770              	.LBB196:
 771              		.loc 3 546 0
 772 004a 0023     		movs	r3, #0
 773              		.syntax unified
 774              	@ 546 "../../lib/e-puck2_main-processor/ChibiOS//os/ext/CMSIS/include/core_cmFunc.h" 1
 775 004c 83F31188 		MSR basepri, r3
 776              	@ 0 "" 2
 777              	.LVL68:
 778              		.thumb
 779              		.syntax unified
 780              	.LBE196:
 781              	.LBE195:
 782              	.LBE194:
 783              	.LBE193:
 784              	.LBE192:
 785              		.loc 1 245 0
 786 0050 019A     		ldr	r2, [sp, #4]
 787 0052 2368     		ldr	r3, [r4]
 788 0054 9A42     		cmp	r2, r3
 789 0056 2846     		mov	r0, r5
 790 0058 05D1     		bne	.L49
 791 005a 03B0     		add	sp, sp, #12
 792              		.cfi_remember_state
 793              		.cfi_def_cfa_offset 12
 794              		@ sp needed
 795 005c 30BD     		pop	{r4, r5, pc}
 796              	.L48:
 797              		.cfi_restore_state
 798              	.LBB198:
ARM GAS  C:\Users\mathi\AppData\Local\Temp\cceGBsvt.s 			page 15


 799              	.LBB197:
 800              		.loc 4 367 0
 801 005e 0648     		ldr	r0, .L50+12
 802 0060 FFF7FEFF 		bl	chSysHalt
 803              	.LVL69:
 804 0064 F1E7     		b	.L42
 805              	.L49:
 806              	.LBE197:
 807              	.LBE198:
 808              		.loc 1 245 0
 809 0066 FFF7FEFF 		bl	__stack_chk_fail
 810              	.LVL70:
 811              	.L51:
 812 006a 00BF     		.align	2
 813              	.L50:
 814 006c 00000000 		.word	__stack_chk_guard
 815 0070 00000000 		.word	.LANCHOR2
 816 0074 00000000 		.word	ch
 817 0078 00000000 		.word	.LANCHOR1
 818              		.cfi_endproc
 819              	.LFE223:
 820              		.size	chThdStart, .-chThdStart
 821              		.section	.text.chThdSetPriority,"ax",%progbits
 822              		.align	1
 823              		.p2align 4,,15
 824              		.global	chThdSetPriority
 825              		.syntax unified
 826              		.thumb
 827              		.thumb_func
 828              		.fpu fpv4-sp-d16
 829              		.type	chThdSetPriority, %function
 830              	chThdSetPriority:
 831              	.LFB224:
 832              		.loc 1 259 0
 833              		.cfi_startproc
 834              		@ args = 0, pretend = 0, frame = 8
 835              		@ frame_needed = 0, uses_anonymous_args = 0
 836              	.LVL71:
 837 0000 F0B5     		push	{r4, r5, r6, r7, lr}
 838              		.cfi_def_cfa_offset 20
 839              		.cfi_offset 4, -20
 840              		.cfi_offset 5, -16
 841              		.cfi_offset 6, -12
 842              		.cfi_offset 7, -8
 843              		.cfi_offset 14, -4
 844 0002 1D4F     		ldr	r7, .L62
 845 0004 83B0     		sub	sp, sp, #12
 846              		.cfi_def_cfa_offset 32
 847              		.loc 1 259 0
 848 0006 3B68     		ldr	r3, [r7]
 849 0008 0193     		str	r3, [sp, #4]
 850              		.loc 1 262 0
 851 000a 7F28     		cmp	r0, #127
 852              		.loc 1 259 0
 853 000c 0546     		mov	r5, r0
 854              		.loc 1 262 0
 855 000e 2DD8     		bhi	.L59
ARM GAS  C:\Users\mathi\AppData\Local\Temp\cceGBsvt.s 			page 16


 856              	.LVL72:
 857              	.L53:
 858              	.LBB209:
 859              	.LBB210:
 860              	.LBB211:
 861              	.LBB212:
 862              	.LBB213:
 863              		.loc 3 546 0
 864 0010 2023     		movs	r3, #32
 865              		.syntax unified
 866              	@ 546 "../../lib/e-puck2_main-processor/ChibiOS//os/ext/CMSIS/include/core_cmFunc.h" 1
 867 0012 83F31188 		MSR basepri, r3
 868              	@ 0 "" 2
 869              	.LVL73:
 870              		.thumb
 871              		.syntax unified
 872              	.LBE213:
 873              	.LBE212:
 874              	.LBE211:
 875              	.LBE210:
 876              	.LBE209:
 877              		.loc 1 266 0
 878 0016 194C     		ldr	r4, .L62+4
 879              	.LBB215:
 880              	.LBB214:
 881              		.loc 4 349 0
 882 0018 FFF7FEFF 		bl	_stats_start_measure_crit_thd
 883              	.LVL74:
 884              		.loc 4 350 0
 885 001c FFF7FEFF 		bl	_dbg_check_lock
 886              	.LVL75:
 887              	.LBE214:
 888              	.LBE215:
 889              		.loc 1 266 0
 890 0020 A369     		ldr	r3, [r4, #24]
 891 0022 5E6C     		ldr	r6, [r3, #68]
 892              	.LVL76:
 893              		.loc 1 267 0
 894 0024 9A68     		ldr	r2, [r3, #8]
 895 0026 B242     		cmp	r2, r6
 896 0028 01D0     		beq	.L54
 897              		.loc 1 267 0 is_stmt 0 discriminator 1
 898 002a AA42     		cmp	r2, r5
 899 002c 01D2     		bcs	.L55
 900              	.L54:
 901              		.loc 1 268 0 is_stmt 1
 902 002e 9D60     		str	r5, [r3, #8]
 903 0030 A369     		ldr	r3, [r4, #24]
 904              	.L55:
 905              		.loc 1 270 0
 906 0032 5D64     		str	r5, [r3, #68]
 907              		.loc 1 275 0
 908 0034 FFF7FEFF 		bl	chSchRescheduleS
 909              	.LVL77:
 910              	.LBB216:
 911              	.LBB217:
 912              		.loc 4 360 0
ARM GAS  C:\Users\mathi\AppData\Local\Temp\cceGBsvt.s 			page 17


 913 0038 FFF7FEFF 		bl	_dbg_check_unlock
 914              	.LVL78:
 915              		.loc 4 361 0
 916 003c FFF7FEFF 		bl	_stats_stop_measure_crit_thd
 917              	.LVL79:
 918              		.loc 4 367 0
 919 0040 2368     		ldr	r3, [r4]
 920 0042 A342     		cmp	r3, r4
 921 0044 04D0     		beq	.L56
 922 0046 A269     		ldr	r2, [r4, #24]
 923 0048 9B68     		ldr	r3, [r3, #8]
 924 004a 9268     		ldr	r2, [r2, #8]
 925 004c 9A42     		cmp	r2, r3
 926 004e 09D3     		bcc	.L60
 927              	.L56:
 928              	.LVL80:
 929              	.LBB218:
 930              	.LBB219:
 931              	.LBB220:
 932              		.loc 3 546 0
 933 0050 0023     		movs	r3, #0
 934              		.syntax unified
 935              	@ 546 "../../lib/e-puck2_main-processor/ChibiOS//os/ext/CMSIS/include/core_cmFunc.h" 1
 936 0052 83F31188 		MSR basepri, r3
 937              	@ 0 "" 2
 938              	.LVL81:
 939              		.thumb
 940              		.syntax unified
 941              	.LBE220:
 942              	.LBE219:
 943              	.LBE218:
 944              	.LBE217:
 945              	.LBE216:
 946              		.loc 1 279 0
 947 0056 019A     		ldr	r2, [sp, #4]
 948 0058 3B68     		ldr	r3, [r7]
 949 005a 9A42     		cmp	r2, r3
 950 005c 3046     		mov	r0, r6
 951 005e 09D1     		bne	.L61
 952              	.LVL82:
 953 0060 03B0     		add	sp, sp, #12
 954              		.cfi_remember_state
 955              		.cfi_def_cfa_offset 20
 956              		@ sp needed
 957 0062 F0BD     		pop	{r4, r5, r6, r7, pc}
 958              	.LVL83:
 959              	.L60:
 960              		.cfi_restore_state
 961              	.LBB222:
 962              	.LBB221:
 963              		.loc 4 367 0
 964 0064 0648     		ldr	r0, .L62+8
 965 0066 FFF7FEFF 		bl	chSysHalt
 966              	.LVL84:
 967 006a F1E7     		b	.L56
 968              	.LVL85:
 969              	.L59:
ARM GAS  C:\Users\mathi\AppData\Local\Temp\cceGBsvt.s 			page 18


 970              	.LBE221:
 971              	.LBE222:
 972              		.loc 1 262 0 discriminator 2
 973 006c 0548     		ldr	r0, .L62+12
 974              	.LVL86:
 975 006e FFF7FEFF 		bl	chSysHalt
 976              	.LVL87:
 977 0072 CDE7     		b	.L53
 978              	.LVL88:
 979              	.L61:
 980              		.loc 1 279 0
 981 0074 FFF7FEFF 		bl	__stack_chk_fail
 982              	.LVL89:
 983              	.L63:
 984              		.align	2
 985              	.L62:
 986 0078 00000000 		.word	__stack_chk_guard
 987 007c 00000000 		.word	ch
 988 0080 00000000 		.word	.LANCHOR1
 989 0084 00000000 		.word	.LANCHOR3
 990              		.cfi_endproc
 991              	.LFE224:
 992              		.size	chThdSetPriority, .-chThdSetPriority
 993              		.section	.text.chThdTerminate,"ax",%progbits
 994              		.align	1
 995              		.p2align 4,,15
 996              		.global	chThdTerminate
 997              		.syntax unified
 998              		.thumb
 999              		.thumb_func
 1000              		.fpu fpv4-sp-d16
 1001              		.type	chThdTerminate, %function
 1002              	chThdTerminate:
 1003              	.LFB225:
 1004              		.loc 1 293 0
 1005              		.cfi_startproc
 1006              		@ args = 0, pretend = 0, frame = 8
 1007              		@ frame_needed = 0, uses_anonymous_args = 0
 1008              	.LVL90:
 1009 0000 30B5     		push	{r4, r5, lr}
 1010              		.cfi_def_cfa_offset 12
 1011              		.cfi_offset 4, -12
 1012              		.cfi_offset 5, -8
 1013              		.cfi_offset 14, -4
 1014 0002 174C     		ldr	r4, .L70
 1015 0004 83B0     		sub	sp, sp, #12
 1016              		.cfi_def_cfa_offset 24
 1017              		.loc 1 293 0
 1018 0006 2368     		ldr	r3, [r4]
 1019 0008 0193     		str	r3, [sp, #4]
 1020              	.LVL91:
 1021 000a 0546     		mov	r5, r0
 1022              	.LBB233:
 1023              	.LBB234:
 1024              	.LBB235:
 1025              	.LBB236:
 1026              	.LBB237:
ARM GAS  C:\Users\mathi\AppData\Local\Temp\cceGBsvt.s 			page 19


 1027              		.loc 3 546 0
 1028 000c 2023     		movs	r3, #32
 1029              		.syntax unified
 1030              	@ 546 "../../lib/e-puck2_main-processor/ChibiOS//os/ext/CMSIS/include/core_cmFunc.h" 1
 1031 000e 83F31188 		MSR basepri, r3
 1032              	@ 0 "" 2
 1033              	.LVL92:
 1034              		.thumb
 1035              		.syntax unified
 1036              	.LBE237:
 1037              	.LBE236:
 1038              	.LBE235:
 1039              		.loc 4 349 0
 1040 0012 FFF7FEFF 		bl	_stats_start_measure_crit_thd
 1041              	.LVL93:
 1042              		.loc 4 350 0
 1043 0016 FFF7FEFF 		bl	_dbg_check_lock
 1044              	.LVL94:
 1045              	.LBE234:
 1046              	.LBE233:
 1047              		.loc 1 296 0
 1048 001a 95F82130 		ldrb	r3, [r5, #33]	@ zero_extendqisi2
 1049 001e 43F00403 		orr	r3, r3, #4
 1050 0022 85F82130 		strb	r3, [r5, #33]
 1051              	.LBB238:
 1052              	.LBB239:
 1053              		.loc 4 360 0
 1054 0026 FFF7FEFF 		bl	_dbg_check_unlock
 1055              	.LVL95:
 1056              		.loc 4 361 0
 1057 002a FFF7FEFF 		bl	_stats_stop_measure_crit_thd
 1058              	.LVL96:
 1059              		.loc 4 367 0
 1060 002e 0D4B     		ldr	r3, .L70+4
 1061 0030 1A68     		ldr	r2, [r3]
 1062 0032 9A42     		cmp	r2, r3
 1063 0034 04D0     		beq	.L65
 1064 0036 9969     		ldr	r1, [r3, #24]
 1065 0038 9368     		ldr	r3, [r2, #8]
 1066 003a 8A68     		ldr	r2, [r1, #8]
 1067 003c 9A42     		cmp	r2, r3
 1068 003e 08D3     		bcc	.L68
 1069              	.L65:
 1070              	.LVL97:
 1071              	.LBB240:
 1072              	.LBB241:
 1073              	.LBB242:
 1074              		.loc 3 546 0
 1075 0040 0023     		movs	r3, #0
 1076              		.syntax unified
 1077              	@ 546 "../../lib/e-puck2_main-processor/ChibiOS//os/ext/CMSIS/include/core_cmFunc.h" 1
 1078 0042 83F31188 		MSR basepri, r3
 1079              	@ 0 "" 2
 1080              	.LVL98:
 1081              		.thumb
 1082              		.syntax unified
 1083              	.LBE242:
ARM GAS  C:\Users\mathi\AppData\Local\Temp\cceGBsvt.s 			page 20


 1084              	.LBE241:
 1085              	.LBE240:
 1086              	.LBE239:
 1087              	.LBE238:
 1088              		.loc 1 298 0
 1089 0046 019A     		ldr	r2, [sp, #4]
 1090 0048 2368     		ldr	r3, [r4]
 1091 004a 9A42     		cmp	r2, r3
 1092 004c 05D1     		bne	.L69
 1093 004e 03B0     		add	sp, sp, #12
 1094              		.cfi_remember_state
 1095              		.cfi_def_cfa_offset 12
 1096              		@ sp needed
 1097 0050 30BD     		pop	{r4, r5, pc}
 1098              	.LVL99:
 1099              	.L68:
 1100              		.cfi_restore_state
 1101              	.LBB244:
 1102              	.LBB243:
 1103              		.loc 4 367 0
 1104 0052 0548     		ldr	r0, .L70+8
 1105 0054 FFF7FEFF 		bl	chSysHalt
 1106              	.LVL100:
 1107 0058 F2E7     		b	.L65
 1108              	.L69:
 1109              	.LBE243:
 1110              	.LBE244:
 1111              		.loc 1 298 0
 1112 005a FFF7FEFF 		bl	__stack_chk_fail
 1113              	.LVL101:
 1114              	.L71:
 1115 005e 00BF     		.align	2
 1116              	.L70:
 1117 0060 00000000 		.word	__stack_chk_guard
 1118 0064 00000000 		.word	ch
 1119 0068 00000000 		.word	.LANCHOR1
 1120              		.cfi_endproc
 1121              	.LFE225:
 1122              		.size	chThdTerminate, .-chThdTerminate
 1123              		.section	.text.chThdSleep,"ax",%progbits
 1124              		.align	1
 1125              		.p2align 4,,15
 1126              		.global	chThdSleep
 1127              		.syntax unified
 1128              		.thumb
 1129              		.thumb_func
 1130              		.fpu fpv4-sp-d16
 1131              		.type	chThdSleep, %function
 1132              	chThdSleep:
 1133              	.LFB226:
 1134              		.loc 1 312 0
 1135              		.cfi_startproc
 1136              		@ args = 0, pretend = 0, frame = 8
 1137              		@ frame_needed = 0, uses_anonymous_args = 0
 1138              	.LVL102:
 1139 0000 30B5     		push	{r4, r5, lr}
 1140              		.cfi_def_cfa_offset 12
ARM GAS  C:\Users\mathi\AppData\Local\Temp\cceGBsvt.s 			page 21


 1141              		.cfi_offset 4, -12
 1142              		.cfi_offset 5, -8
 1143              		.cfi_offset 14, -4
 1144 0002 184C     		ldr	r4, .L79
 1145 0004 83B0     		sub	sp, sp, #12
 1146              		.cfi_def_cfa_offset 24
 1147              		.loc 1 312 0
 1148 0006 2368     		ldr	r3, [r4]
 1149 0008 0193     		str	r3, [sp, #4]
 1150              	.LVL103:
 1151 000a 0546     		mov	r5, r0
 1152              	.LBB257:
 1153              	.LBB258:
 1154              	.LBB259:
 1155              	.LBB260:
 1156              	.LBB261:
 1157              		.loc 3 546 0
 1158 000c 2023     		movs	r3, #32
 1159              		.syntax unified
 1160              	@ 546 "../../lib/e-puck2_main-processor/ChibiOS//os/ext/CMSIS/include/core_cmFunc.h" 1
 1161 000e 83F31188 		MSR basepri, r3
 1162              	@ 0 "" 2
 1163              	.LVL104:
 1164              		.thumb
 1165              		.syntax unified
 1166              	.LBE261:
 1167              	.LBE260:
 1168              	.LBE259:
 1169              		.loc 4 349 0
 1170 0012 FFF7FEFF 		bl	_stats_start_measure_crit_thd
 1171              	.LVL105:
 1172              		.loc 4 350 0
 1173 0016 FFF7FEFF 		bl	_dbg_check_lock
 1174              	.LVL106:
 1175              	.LBE258:
 1176              	.LBE257:
 1177              	.LBB262:
 1178              	.LBB263:
 1179              		.loc 5 266 0
 1180 001a 15B9     		cbnz	r5, .L73
 1181 001c 1248     		ldr	r0, .L79+4
 1182 001e FFF7FEFF 		bl	chSysHalt
 1183              	.LVL107:
 1184              	.L73:
 1185              		.loc 5 268 0
 1186 0022 2946     		mov	r1, r5
 1187 0024 0820     		movs	r0, #8
 1188 0026 FFF7FEFF 		bl	chSchGoSleepTimeoutS
 1189              	.LVL108:
 1190              	.LBE263:
 1191              	.LBE262:
 1192              	.LBB264:
 1193              	.LBB265:
 1194              		.loc 4 360 0
 1195 002a FFF7FEFF 		bl	_dbg_check_unlock
 1196              	.LVL109:
 1197              		.loc 4 361 0
ARM GAS  C:\Users\mathi\AppData\Local\Temp\cceGBsvt.s 			page 22


 1198 002e FFF7FEFF 		bl	_stats_stop_measure_crit_thd
 1199              	.LVL110:
 1200              		.loc 4 367 0
 1201 0032 0E4B     		ldr	r3, .L79+8
 1202 0034 1A68     		ldr	r2, [r3]
 1203 0036 9A42     		cmp	r2, r3
 1204 0038 04D0     		beq	.L74
 1205 003a 9969     		ldr	r1, [r3, #24]
 1206 003c 9368     		ldr	r3, [r2, #8]
 1207 003e 8A68     		ldr	r2, [r1, #8]
 1208 0040 9A42     		cmp	r2, r3
 1209 0042 08D3     		bcc	.L77
 1210              	.L74:
 1211              	.LVL111:
 1212              	.LBB266:
 1213              	.LBB267:
 1214              	.LBB268:
 1215              		.loc 3 546 0
 1216 0044 0023     		movs	r3, #0
 1217              		.syntax unified
 1218              	@ 546 "../../lib/e-puck2_main-processor/ChibiOS//os/ext/CMSIS/include/core_cmFunc.h" 1
 1219 0046 83F31188 		MSR basepri, r3
 1220              	@ 0 "" 2
 1221              	.LVL112:
 1222              		.thumb
 1223              		.syntax unified
 1224              	.LBE268:
 1225              	.LBE267:
 1226              	.LBE266:
 1227              	.LBE265:
 1228              	.LBE264:
 1229              		.loc 1 317 0
 1230 004a 019A     		ldr	r2, [sp, #4]
 1231 004c 2368     		ldr	r3, [r4]
 1232 004e 9A42     		cmp	r2, r3
 1233 0050 05D1     		bne	.L78
 1234 0052 03B0     		add	sp, sp, #12
 1235              		.cfi_remember_state
 1236              		.cfi_def_cfa_offset 12
 1237              		@ sp needed
 1238 0054 30BD     		pop	{r4, r5, pc}
 1239              	.LVL113:
 1240              	.L77:
 1241              		.cfi_restore_state
 1242              	.LBB270:
 1243              	.LBB269:
 1244              		.loc 4 367 0
 1245 0056 0648     		ldr	r0, .L79+12
 1246 0058 FFF7FEFF 		bl	chSysHalt
 1247              	.LVL114:
 1248 005c F2E7     		b	.L74
 1249              	.L78:
 1250              	.LBE269:
 1251              	.LBE270:
 1252              		.loc 1 317 0
 1253 005e FFF7FEFF 		bl	__stack_chk_fail
 1254              	.LVL115:
ARM GAS  C:\Users\mathi\AppData\Local\Temp\cceGBsvt.s 			page 23


 1255              	.L80:
 1256 0062 00BF     		.align	2
 1257              	.L79:
 1258 0064 00000000 		.word	__stack_chk_guard
 1259 0068 00000000 		.word	.LANCHOR4
 1260 006c 00000000 		.word	ch
 1261 0070 00000000 		.word	.LANCHOR1
 1262              		.cfi_endproc
 1263              	.LFE226:
 1264              		.size	chThdSleep, .-chThdSleep
 1265              		.section	.text.chThdSleepUntil,"ax",%progbits
 1266              		.align	1
 1267              		.p2align 4,,15
 1268              		.global	chThdSleepUntil
 1269              		.syntax unified
 1270              		.thumb
 1271              		.thumb_func
 1272              		.fpu fpv4-sp-d16
 1273              		.type	chThdSleepUntil, %function
 1274              	chThdSleepUntil:
 1275              	.LFB227:
 1276              		.loc 1 332 0
 1277              		.cfi_startproc
 1278              		@ args = 0, pretend = 0, frame = 8
 1279              		@ frame_needed = 0, uses_anonymous_args = 0
 1280              	.LVL116:
 1281 0000 70B5     		push	{r4, r5, r6, lr}
 1282              		.cfi_def_cfa_offset 16
 1283              		.cfi_offset 4, -16
 1284              		.cfi_offset 5, -12
 1285              		.cfi_offset 6, -8
 1286              		.cfi_offset 14, -4
 1287 0002 174E     		ldr	r6, .L91
 1288 0004 82B0     		sub	sp, sp, #8
 1289              		.cfi_def_cfa_offset 24
 1290              		.loc 1 332 0
 1291 0006 3368     		ldr	r3, [r6]
 1292 0008 0193     		str	r3, [sp, #4]
 1293              	.LVL117:
 1294 000a 0546     		mov	r5, r0
 1295              	.LBB285:
 1296              	.LBB286:
 1297              	.LBB287:
 1298              	.LBB288:
 1299              	.LBB289:
 1300              		.loc 3 546 0
 1301 000c 2023     		movs	r3, #32
 1302              		.syntax unified
 1303              	@ 546 "../../lib/e-puck2_main-processor/ChibiOS//os/ext/CMSIS/include/core_cmFunc.h" 1
 1304 000e 83F31188 		MSR basepri, r3
 1305              	@ 0 "" 2
 1306              	.LVL118:
 1307              		.thumb
 1308              		.syntax unified
 1309              	.LBE289:
 1310              	.LBE288:
 1311              	.LBE287:
ARM GAS  C:\Users\mathi\AppData\Local\Temp\cceGBsvt.s 			page 24


 1312              	.LBE286:
 1313              	.LBE285:
 1314              	.LBB291:
 1315              	.LBB292:
 1316              		.file 6 "../../lib/e-puck2_main-processor/ChibiOS//os/rt/include/chvt.h"
 1317              		.loc 6 231 0
 1318 0012 144C     		ldr	r4, .L91+4
 1319              	.LBE292:
 1320              	.LBE291:
 1321              	.LBB294:
 1322              	.LBB290:
 1323              		.loc 4 349 0
 1324 0014 FFF7FEFF 		bl	_stats_start_measure_crit_thd
 1325              	.LVL119:
 1326              		.loc 4 350 0
 1327 0018 FFF7FEFF 		bl	_dbg_check_lock
 1328              	.LVL120:
 1329              	.LBE290:
 1330              	.LBE294:
 1331              	.LBB295:
 1332              	.LBB293:
 1333              		.loc 6 231 0
 1334 001c A16A     		ldr	r1, [r4, #40]
 1335              	.LVL121:
 1336              	.LBE293:
 1337              	.LBE295:
 1338              		.loc 1 336 0
 1339 001e 691A     		subs	r1, r5, r1
 1340              	.LVL122:
 1341 0020 02D0     		beq	.L82
 1342              	.LVL123:
 1343              	.LBB296:
 1344              	.LBB297:
 1345              		.loc 5 268 0
 1346 0022 0820     		movs	r0, #8
 1347 0024 FFF7FEFF 		bl	chSchGoSleepTimeoutS
 1348              	.LVL124:
 1349              	.L82:
 1350              	.LBE297:
 1351              	.LBE296:
 1352              	.LBB298:
 1353              	.LBB299:
 1354              		.loc 4 360 0
 1355 0028 FFF7FEFF 		bl	_dbg_check_unlock
 1356              	.LVL125:
 1357              		.loc 4 361 0
 1358 002c FFF7FEFF 		bl	_stats_stop_measure_crit_thd
 1359              	.LVL126:
 1360              		.loc 4 367 0
 1361 0030 2368     		ldr	r3, [r4]
 1362 0032 A342     		cmp	r3, r4
 1363 0034 04D0     		beq	.L83
 1364 0036 A269     		ldr	r2, [r4, #24]
 1365 0038 9B68     		ldr	r3, [r3, #8]
 1366 003a 9268     		ldr	r2, [r2, #8]
 1367 003c 9A42     		cmp	r2, r3
 1368 003e 08D3     		bcc	.L89
ARM GAS  C:\Users\mathi\AppData\Local\Temp\cceGBsvt.s 			page 25


 1369              	.L83:
 1370              	.LVL127:
 1371              	.LBB300:
 1372              	.LBB301:
 1373              	.LBB302:
 1374              		.loc 3 546 0
 1375 0040 0023     		movs	r3, #0
 1376              		.syntax unified
 1377              	@ 546 "../../lib/e-puck2_main-processor/ChibiOS//os/ext/CMSIS/include/core_cmFunc.h" 1
 1378 0042 83F31188 		MSR basepri, r3
 1379              	@ 0 "" 2
 1380              	.LVL128:
 1381              		.thumb
 1382              		.syntax unified
 1383              	.LBE302:
 1384              	.LBE301:
 1385              	.LBE300:
 1386              	.LBE299:
 1387              	.LBE298:
 1388              		.loc 1 340 0
 1389 0046 019A     		ldr	r2, [sp, #4]
 1390 0048 3368     		ldr	r3, [r6]
 1391 004a 9A42     		cmp	r2, r3
 1392 004c 05D1     		bne	.L90
 1393 004e 02B0     		add	sp, sp, #8
 1394              		.cfi_remember_state
 1395              		.cfi_def_cfa_offset 16
 1396              		@ sp needed
 1397 0050 70BD     		pop	{r4, r5, r6, pc}
 1398              	.L89:
 1399              		.cfi_restore_state
 1400              	.LBB304:
 1401              	.LBB303:
 1402              		.loc 4 367 0
 1403 0052 0548     		ldr	r0, .L91+8
 1404 0054 FFF7FEFF 		bl	chSysHalt
 1405              	.LVL129:
 1406 0058 F2E7     		b	.L83
 1407              	.L90:
 1408              	.LBE303:
 1409              	.LBE304:
 1410              		.loc 1 340 0
 1411 005a FFF7FEFF 		bl	__stack_chk_fail
 1412              	.LVL130:
 1413              	.L92:
 1414 005e 00BF     		.align	2
 1415              	.L91:
 1416 0060 00000000 		.word	__stack_chk_guard
 1417 0064 00000000 		.word	ch
 1418 0068 00000000 		.word	.LANCHOR1
 1419              		.cfi_endproc
 1420              	.LFE227:
 1421              		.size	chThdSleepUntil, .-chThdSleepUntil
 1422              		.section	.text.chThdSleepUntilWindowed,"ax",%progbits
 1423              		.align	1
 1424              		.p2align 4,,15
 1425              		.global	chThdSleepUntilWindowed
ARM GAS  C:\Users\mathi\AppData\Local\Temp\cceGBsvt.s 			page 26


 1426              		.syntax unified
 1427              		.thumb
 1428              		.thumb_func
 1429              		.fpu fpv4-sp-d16
 1430              		.type	chThdSleepUntilWindowed, %function
 1431              	chThdSleepUntilWindowed:
 1432              	.LFB228:
 1433              		.loc 1 356 0
 1434              		.cfi_startproc
 1435              		@ args = 0, pretend = 0, frame = 8
 1436              		@ frame_needed = 0, uses_anonymous_args = 0
 1437              	.LVL131:
 1438 0000 F0B5     		push	{r4, r5, r6, r7, lr}
 1439              		.cfi_def_cfa_offset 20
 1440              		.cfi_offset 4, -20
 1441              		.cfi_offset 5, -16
 1442              		.cfi_offset 6, -12
 1443              		.cfi_offset 7, -8
 1444              		.cfi_offset 14, -4
 1445 0002 1C4F     		ldr	r7, .L102
 1446 0004 83B0     		sub	sp, sp, #12
 1447              		.cfi_def_cfa_offset 32
 1448              		.loc 1 356 0
 1449 0006 3B68     		ldr	r3, [r7]
 1450 0008 0193     		str	r3, [sp, #4]
 1451              	.LVL132:
 1452 000a 0446     		mov	r4, r0
 1453 000c 0E46     		mov	r6, r1
 1454              	.LBB321:
 1455              	.LBB322:
 1456              	.LBB323:
 1457              	.LBB324:
 1458              	.LBB325:
 1459              		.loc 3 546 0
 1460 000e 2023     		movs	r3, #32
 1461              		.syntax unified
 1462              	@ 546 "../../lib/e-puck2_main-processor/ChibiOS//os/ext/CMSIS/include/core_cmFunc.h" 1
 1463 0010 83F31188 		MSR basepri, r3
 1464              	@ 0 "" 2
 1465              	.LVL133:
 1466              		.thumb
 1467              		.syntax unified
 1468              	.LBE325:
 1469              	.LBE324:
 1470              	.LBE323:
 1471              	.LBE322:
 1472              	.LBE321:
 1473              	.LBB327:
 1474              	.LBB328:
 1475              		.loc 6 231 0
 1476 0014 184D     		ldr	r5, .L102+4
 1477              	.LBE328:
 1478              	.LBE327:
 1479              	.LBB330:
 1480              	.LBB326:
 1481              		.loc 4 349 0
 1482 0016 FFF7FEFF 		bl	_stats_start_measure_crit_thd
ARM GAS  C:\Users\mathi\AppData\Local\Temp\cceGBsvt.s 			page 27


 1483              	.LVL134:
 1484              		.loc 4 350 0
 1485 001a FFF7FEFF 		bl	_dbg_check_lock
 1486              	.LVL135:
 1487              	.LBE326:
 1488              	.LBE330:
 1489              	.LBB331:
 1490              	.LBB329:
 1491              		.loc 6 231 0
 1492 001e A96A     		ldr	r1, [r5, #40]
 1493              	.LBE329:
 1494              	.LBE331:
 1495              	.LBB332:
 1496              	.LBB333:
 1497              		.loc 6 288 0
 1498 0020 331B     		subs	r3, r6, r4
 1499 0022 0C1B     		subs	r4, r1, r4
 1500              	.LVL136:
 1501              	.LBE333:
 1502              	.LBE332:
 1503              		.loc 1 361 0
 1504 0024 9C42     		cmp	r4, r3
 1505 0026 19D3     		bcc	.L99
 1506              	.L94:
 1507              	.LBB334:
 1508              	.LBB335:
 1509              		.loc 4 360 0
 1510 0028 FFF7FEFF 		bl	_dbg_check_unlock
 1511              	.LVL137:
 1512              		.loc 4 361 0
 1513 002c FFF7FEFF 		bl	_stats_stop_measure_crit_thd
 1514              	.LVL138:
 1515              		.loc 4 367 0
 1516 0030 2B68     		ldr	r3, [r5]
 1517 0032 AB42     		cmp	r3, r5
 1518 0034 04D0     		beq	.L96
 1519 0036 AA69     		ldr	r2, [r5, #24]
 1520 0038 9B68     		ldr	r3, [r3, #8]
 1521 003a 9268     		ldr	r2, [r2, #8]
 1522 003c 9A42     		cmp	r2, r3
 1523 003e 09D3     		bcc	.L100
 1524              	.L96:
 1525              	.LVL139:
 1526              	.LBB336:
 1527              	.LBB337:
 1528              	.LBB338:
 1529              		.loc 3 546 0
 1530 0040 0023     		movs	r3, #0
 1531              		.syntax unified
 1532              	@ 546 "../../lib/e-puck2_main-processor/ChibiOS//os/ext/CMSIS/include/core_cmFunc.h" 1
 1533 0042 83F31188 		MSR basepri, r3
 1534              	@ 0 "" 2
 1535              	.LVL140:
 1536              		.thumb
 1537              		.syntax unified
 1538              	.LBE338:
 1539              	.LBE337:
ARM GAS  C:\Users\mathi\AppData\Local\Temp\cceGBsvt.s 			page 28


 1540              	.LBE336:
 1541              	.LBE335:
 1542              	.LBE334:
 1543              		.loc 1 367 0
 1544 0046 019A     		ldr	r2, [sp, #4]
 1545 0048 3B68     		ldr	r3, [r7]
 1546 004a 9A42     		cmp	r2, r3
 1547 004c 3046     		mov	r0, r6
 1548 004e 0FD1     		bne	.L101
 1549              	.LVL141:
 1550 0050 03B0     		add	sp, sp, #12
 1551              		.cfi_remember_state
 1552              		.cfi_def_cfa_offset 20
 1553              		@ sp needed
 1554 0052 F0BD     		pop	{r4, r5, r6, r7, pc}
 1555              	.LVL142:
 1556              	.L100:
 1557              		.cfi_restore_state
 1558              	.LBB340:
 1559              	.LBB339:
 1560              		.loc 4 367 0
 1561 0054 0948     		ldr	r0, .L102+8
 1562 0056 FFF7FEFF 		bl	chSysHalt
 1563              	.LVL143:
 1564 005a F1E7     		b	.L96
 1565              	.L99:
 1566              	.LVL144:
 1567              	.LBE339:
 1568              	.LBE340:
 1569              	.LBB341:
 1570              	.LBB342:
 1571              		.loc 5 266 0
 1572 005c 741A     		subs	r4, r6, r1
 1573              	.LVL145:
 1574 005e 02D1     		bne	.L95
 1575 0060 0748     		ldr	r0, .L102+12
 1576 0062 FFF7FEFF 		bl	chSysHalt
 1577              	.LVL146:
 1578              	.L95:
 1579              		.loc 5 268 0
 1580 0066 2146     		mov	r1, r4
 1581 0068 0820     		movs	r0, #8
 1582 006a FFF7FEFF 		bl	chSchGoSleepTimeoutS
 1583              	.LVL147:
 1584 006e DBE7     		b	.L94
 1585              	.LVL148:
 1586              	.L101:
 1587              	.LBE342:
 1588              	.LBE341:
 1589              		.loc 1 367 0
 1590 0070 FFF7FEFF 		bl	__stack_chk_fail
 1591              	.LVL149:
 1592              	.L103:
 1593              		.align	2
 1594              	.L102:
 1595 0074 00000000 		.word	__stack_chk_guard
 1596 0078 00000000 		.word	ch
ARM GAS  C:\Users\mathi\AppData\Local\Temp\cceGBsvt.s 			page 29


 1597 007c 00000000 		.word	.LANCHOR1
 1598 0080 00000000 		.word	.LANCHOR4
 1599              		.cfi_endproc
 1600              	.LFE228:
 1601              		.size	chThdSleepUntilWindowed, .-chThdSleepUntilWindowed
 1602              		.section	.text.chThdYield,"ax",%progbits
 1603              		.align	1
 1604              		.p2align 4,,15
 1605              		.global	chThdYield
 1606              		.syntax unified
 1607              		.thumb
 1608              		.thumb_func
 1609              		.fpu fpv4-sp-d16
 1610              		.type	chThdYield, %function
 1611              	chThdYield:
 1612              	.LFB229:
 1613              		.loc 1 376 0
 1614              		.cfi_startproc
 1615              		@ args = 0, pretend = 0, frame = 8
 1616              		@ frame_needed = 0, uses_anonymous_args = 0
 1617 0000 30B5     		push	{r4, r5, lr}
 1618              		.cfi_def_cfa_offset 12
 1619              		.cfi_offset 4, -12
 1620              		.cfi_offset 5, -8
 1621              		.cfi_offset 14, -4
 1622 0002 194D     		ldr	r5, .L111
 1623 0004 83B0     		sub	sp, sp, #12
 1624              		.cfi_def_cfa_offset 24
 1625              		.loc 1 376 0
 1626 0006 2B68     		ldr	r3, [r5]
 1627 0008 0193     		str	r3, [sp, #4]
 1628              	.LVL150:
 1629              	.LBB357:
 1630              	.LBB358:
 1631              	.LBB359:
 1632              	.LBB360:
 1633              	.LBB361:
 1634              		.loc 3 546 0
 1635 000a 2023     		movs	r3, #32
 1636              		.syntax unified
 1637              	@ 546 "../../lib/e-puck2_main-processor/ChibiOS//os/ext/CMSIS/include/core_cmFunc.h" 1
 1638 000c 83F31188 		MSR basepri, r3
 1639              	@ 0 "" 2
 1640              	.LVL151:
 1641              		.thumb
 1642              		.syntax unified
 1643              	.LBE361:
 1644              	.LBE360:
 1645              	.LBE359:
 1646              	.LBE358:
 1647              	.LBE357:
 1648              	.LBB363:
 1649              	.LBB364:
 1650              	.LBB365:
 1651              	.LBB366:
 1652              		.loc 2 731 0
 1653 0010 164C     		ldr	r4, .L111+4
ARM GAS  C:\Users\mathi\AppData\Local\Temp\cceGBsvt.s 			page 30


 1654              	.LBE366:
 1655              	.LBE365:
 1656              	.LBE364:
 1657              	.LBE363:
 1658              	.LBB370:
 1659              	.LBB362:
 1660              		.loc 4 349 0
 1661 0012 FFF7FEFF 		bl	_stats_start_measure_crit_thd
 1662              	.LVL152:
 1663              		.loc 4 350 0
 1664 0016 FFF7FEFF 		bl	_dbg_check_lock
 1665              	.LVL153:
 1666              	.LBE362:
 1667              	.LBE370:
 1668              	.LBB371:
 1669              	.LBB369:
 1670              		.loc 2 743 0
 1671 001a FFF7FEFF 		bl	chDbgCheckClassS
 1672              	.LVL154:
 1673              	.LBB368:
 1674              	.LBB367:
 1675              		.loc 2 729 0
 1676 001e FFF7FEFF 		bl	chDbgCheckClassS
 1677              	.LVL155:
 1678              		.loc 2 731 0
 1679 0022 2268     		ldr	r2, [r4]
 1680 0024 A369     		ldr	r3, [r4, #24]
 1681              	.LBE367:
 1682              	.LBE368:
 1683              		.loc 2 745 0
 1684 0026 9268     		ldr	r2, [r2, #8]
 1685 0028 9B68     		ldr	r3, [r3, #8]
 1686 002a 9A42     		cmp	r2, r3
 1687 002c 01D3     		bcc	.L105
 1688              		.loc 2 746 0
 1689 002e FFF7FEFF 		bl	chSchDoRescheduleBehind
 1690              	.LVL156:
 1691              	.L105:
 1692              	.LBE369:
 1693              	.LBE371:
 1694              	.LBB372:
 1695              	.LBB373:
 1696              		.loc 4 360 0
 1697 0032 FFF7FEFF 		bl	_dbg_check_unlock
 1698              	.LVL157:
 1699              		.loc 4 361 0
 1700 0036 FFF7FEFF 		bl	_stats_stop_measure_crit_thd
 1701              	.LVL158:
 1702              		.loc 4 367 0
 1703 003a 2368     		ldr	r3, [r4]
 1704 003c A342     		cmp	r3, r4
 1705 003e 04D0     		beq	.L106
 1706 0040 A269     		ldr	r2, [r4, #24]
 1707 0042 9B68     		ldr	r3, [r3, #8]
 1708 0044 9268     		ldr	r2, [r2, #8]
 1709 0046 9A42     		cmp	r2, r3
 1710 0048 08D3     		bcc	.L109
ARM GAS  C:\Users\mathi\AppData\Local\Temp\cceGBsvt.s 			page 31


 1711              	.L106:
 1712              	.LVL159:
 1713              	.LBB374:
 1714              	.LBB375:
 1715              	.LBB376:
 1716              		.loc 3 546 0
 1717 004a 0023     		movs	r3, #0
 1718              		.syntax unified
 1719              	@ 546 "../../lib/e-puck2_main-processor/ChibiOS//os/ext/CMSIS/include/core_cmFunc.h" 1
 1720 004c 83F31188 		MSR basepri, r3
 1721              	@ 0 "" 2
 1722              	.LVL160:
 1723              		.thumb
 1724              		.syntax unified
 1725              	.LBE376:
 1726              	.LBE375:
 1727              	.LBE374:
 1728              	.LBE373:
 1729              	.LBE372:
 1730              		.loc 1 381 0
 1731 0050 019A     		ldr	r2, [sp, #4]
 1732 0052 2B68     		ldr	r3, [r5]
 1733 0054 9A42     		cmp	r2, r3
 1734 0056 05D1     		bne	.L110
 1735 0058 03B0     		add	sp, sp, #12
 1736              		.cfi_remember_state
 1737              		.cfi_def_cfa_offset 12
 1738              		@ sp needed
 1739 005a 30BD     		pop	{r4, r5, pc}
 1740              	.L109:
 1741              		.cfi_restore_state
 1742              	.LBB378:
 1743              	.LBB377:
 1744              		.loc 4 367 0
 1745 005c 0448     		ldr	r0, .L111+8
 1746 005e FFF7FEFF 		bl	chSysHalt
 1747              	.LVL161:
 1748 0062 F2E7     		b	.L106
 1749              	.L110:
 1750              	.LBE377:
 1751              	.LBE378:
 1752              		.loc 1 381 0
 1753 0064 FFF7FEFF 		bl	__stack_chk_fail
 1754              	.LVL162:
 1755              	.L112:
 1756              		.align	2
 1757              	.L111:
 1758 0068 00000000 		.word	__stack_chk_guard
 1759 006c 00000000 		.word	ch
 1760 0070 00000000 		.word	.LANCHOR1
 1761              		.cfi_endproc
 1762              	.LFE229:
 1763              		.size	chThdYield, .-chThdYield
 1764              		.section	.text.chThdExit,"ax",%progbits
 1765              		.align	1
 1766              		.p2align 4,,15
 1767              		.global	chThdExit
ARM GAS  C:\Users\mathi\AppData\Local\Temp\cceGBsvt.s 			page 32


 1768              		.syntax unified
 1769              		.thumb
 1770              		.thumb_func
 1771              		.fpu fpv4-sp-d16
 1772              		.type	chThdExit, %function
 1773              	chThdExit:
 1774              	.LFB230:
 1775              		.loc 1 397 0
 1776              		.cfi_startproc
 1777              		@ args = 0, pretend = 0, frame = 8
 1778              		@ frame_needed = 0, uses_anonymous_args = 0
 1779              	.LVL163:
 1780 0000 70B5     		push	{r4, r5, r6, lr}
 1781              		.cfi_def_cfa_offset 16
 1782              		.cfi_offset 4, -16
 1783              		.cfi_offset 5, -12
 1784              		.cfi_offset 6, -8
 1785              		.cfi_offset 14, -4
 1786 0002 1A4E     		ldr	r6, .L122
 1787 0004 82B0     		sub	sp, sp, #8
 1788              		.cfi_def_cfa_offset 24
 1789              		.loc 1 397 0
 1790 0006 3368     		ldr	r3, [r6]
 1791 0008 0193     		str	r3, [sp, #4]
 1792              	.LVL164:
 1793 000a 0546     		mov	r5, r0
 1794              	.LBB390:
 1795              	.LBB391:
 1796              	.LBB392:
 1797              	.LBB393:
 1798              	.LBB394:
 1799              		.loc 3 546 0
 1800 000c 2023     		movs	r3, #32
 1801              		.syntax unified
 1802              	@ 546 "../../lib/e-puck2_main-processor/ChibiOS//os/ext/CMSIS/include/core_cmFunc.h" 1
 1803 000e 83F31188 		MSR basepri, r3
 1804              	@ 0 "" 2
 1805              	.LVL165:
 1806              		.thumb
 1807              		.syntax unified
 1808              	.LBE394:
 1809              	.LBE393:
 1810              	.LBE392:
 1811              		.loc 4 349 0
 1812 0012 FFF7FEFF 		bl	_stats_start_measure_crit_thd
 1813              	.LVL166:
 1814              		.loc 4 350 0
 1815 0016 FFF7FEFF 		bl	_dbg_check_lock
 1816              	.LVL167:
 1817              	.LBE391:
 1818              	.LBE390:
 1819              	.LBB395:
 1820              	.LBB396:
 1821              		.loc 1 419 0
 1822 001a 154B     		ldr	r3, .L122+4
 1823 001c 9C69     		ldr	r4, [r3, #24]
 1824              	.LVL168:
ARM GAS  C:\Users\mathi\AppData\Local\Temp\cceGBsvt.s 			page 33


 1825              	.LBB397:
 1826              	.LBB398:
 1827              		.loc 2 592 0
 1828 001e E06A     		ldr	r0, [r4, #44]
 1829              	.LBE398:
 1830              	.LBE397:
 1831              		.loc 1 421 0
 1832 0020 A562     		str	r5, [r4, #40]
 1833              		.loc 1 426 0
 1834 0022 04F12C05 		add	r5, r4, #44
 1835              	.LVL169:
 1836 0026 A842     		cmp	r0, r5
 1837 0028 06D0     		beq	.L114
 1838              	.LVL170:
 1839              	.L115:
 1840              	.LBB400:
 1841              	.LBB401:
 1842              		.loc 2 646 0
 1843 002a 0368     		ldr	r3, [r0]
 1844 002c E362     		str	r3, [r4, #44]
 1845              	.LVL171:
 1846              	.LBE401:
 1847              	.LBE400:
 1848              		.loc 1 427 0
 1849 002e FFF7FEFF 		bl	chSchReadyI
 1850              	.LVL172:
 1851              	.LBB402:
 1852              	.LBB399:
 1853              		.loc 2 592 0
 1854 0032 E06A     		ldr	r0, [r4, #44]
 1855              	.LVL173:
 1856              	.LBE399:
 1857              	.LBE402:
 1858              		.loc 1 426 0
 1859 0034 A842     		cmp	r0, r5
 1860 0036 F8D1     		bne	.L115
 1861              	.L114:
 1862              		.loc 1 433 0
 1863 0038 94F82130 		ldrb	r3, [r4, #33]	@ zero_extendqisi2
 1864 003c 9B07     		lsls	r3, r3, #30
 1865 003e 05D1     		bne	.L116
 1866              		.loc 1 434 0
 1867 0040 D4E90423 		ldrd	r2, r3, [r4, #16]
 1868 0044 1A61     		str	r2, [r3, #16]
 1869 0046 D4E90432 		ldrd	r3, r2, [r4, #16]
 1870 004a 5A61     		str	r2, [r3, #20]
 1871              	.L116:
 1872              		.loc 1 437 0
 1873 004c 0F20     		movs	r0, #15
 1874 004e FFF7FEFF 		bl	chSchGoSleepS
 1875              	.LVL174:
 1876              		.loc 1 440 0
 1877 0052 019A     		ldr	r2, [sp, #4]
 1878 0054 3368     		ldr	r3, [r6]
 1879 0056 9A42     		cmp	r2, r3
 1880 0058 05D1     		bne	.L121
 1881 005a 0648     		ldr	r0, .L122+8
ARM GAS  C:\Users\mathi\AppData\Local\Temp\cceGBsvt.s 			page 34


 1882              	.LBE396:
 1883              	.LBE395:
 1884              		.loc 1 402 0
 1885 005c 02B0     		add	sp, sp, #8
 1886              		.cfi_remember_state
 1887              		.cfi_def_cfa_offset 16
 1888              		@ sp needed
 1889 005e BDE87040 		pop	{r4, r5, r6, lr}
 1890              		.cfi_restore 14
 1891              		.cfi_restore 6
 1892              		.cfi_restore 5
 1893              		.cfi_restore 4
 1894              		.cfi_def_cfa_offset 0
 1895              	.LVL175:
 1896              	.LBB404:
 1897              	.LBB403:
 1898              		.loc 1 440 0
 1899 0062 FFF7FEBF 		b	chSysHalt
 1900              	.LVL176:
 1901              	.L121:
 1902              		.cfi_restore_state
 1903 0066 FFF7FEFF 		bl	__stack_chk_fail
 1904              	.LVL177:
 1905              	.L123:
 1906 006a 00BF     		.align	2
 1907              	.L122:
 1908 006c 00000000 		.word	__stack_chk_guard
 1909 0070 00000000 		.word	ch
 1910 0074 00000000 		.word	.LANCHOR5
 1911              	.LBE403:
 1912              	.LBE404:
 1913              		.cfi_endproc
 1914              	.LFE230:
 1915              		.size	chThdExit, .-chThdExit
 1916              		.section	.text.chThdExitS,"ax",%progbits
 1917              		.align	1
 1918              		.p2align 4,,15
 1919              		.global	chThdExitS
 1920              		.syntax unified
 1921              		.thumb
 1922              		.thumb_func
 1923              		.fpu fpv4-sp-d16
 1924              		.type	chThdExitS, %function
 1925              	chThdExitS:
 1926              	.LFB231:
 1927              		.loc 1 418 0
 1928              		.cfi_startproc
 1929              		@ args = 0, pretend = 0, frame = 8
 1930              		@ frame_needed = 0, uses_anonymous_args = 0
 1931              	.LVL178:
 1932 0000 70B5     		push	{r4, r5, r6, lr}
 1933              		.cfi_def_cfa_offset 16
 1934              		.cfi_offset 4, -16
 1935              		.cfi_offset 5, -12
 1936              		.cfi_offset 6, -8
 1937              		.cfi_offset 14, -4
 1938              		.loc 1 419 0
ARM GAS  C:\Users\mathi\AppData\Local\Temp\cceGBsvt.s 			page 35


 1939 0002 164B     		ldr	r3, .L133
 1940              		.loc 1 418 0
 1941 0004 164E     		ldr	r6, .L133+4
 1942              		.loc 1 419 0
 1943 0006 9C69     		ldr	r4, [r3, #24]
 1944              	.LVL179:
 1945              		.loc 1 418 0
 1946 0008 3268     		ldr	r2, [r6]
 1947              	.LBB405:
 1948              	.LBB406:
 1949              		.loc 2 592 0
 1950 000a E36A     		ldr	r3, [r4, #44]
 1951              	.LBE406:
 1952              	.LBE405:
 1953              		.loc 1 421 0
 1954 000c A062     		str	r0, [r4, #40]
 1955              		.loc 1 418 0
 1956 000e 82B0     		sub	sp, sp, #8
 1957              		.cfi_def_cfa_offset 24
 1958              		.loc 1 426 0
 1959 0010 04F12C05 		add	r5, r4, #44
 1960 0014 AB42     		cmp	r3, r5
 1961              		.loc 1 418 0
 1962 0016 0192     		str	r2, [sp, #4]
 1963              		.loc 1 426 0
 1964 0018 07D0     		beq	.L125
 1965              	.LVL180:
 1966              	.L126:
 1967              	.LBB408:
 1968              	.LBB409:
 1969              		.loc 2 646 0
 1970 001a 1A68     		ldr	r2, [r3]
 1971 001c E262     		str	r2, [r4, #44]
 1972              	.LVL181:
 1973              	.LBE409:
 1974              	.LBE408:
 1975              		.loc 1 427 0
 1976 001e 1846     		mov	r0, r3
 1977 0020 FFF7FEFF 		bl	chSchReadyI
 1978              	.LVL182:
 1979              	.LBB410:
 1980              	.LBB407:
 1981              		.loc 2 592 0
 1982 0024 E36A     		ldr	r3, [r4, #44]
 1983              	.LVL183:
 1984              	.LBE407:
 1985              	.LBE410:
 1986              		.loc 1 426 0
 1987 0026 AB42     		cmp	r3, r5
 1988 0028 F7D1     		bne	.L126
 1989              	.L125:
 1990              		.loc 1 433 0
 1991 002a 94F82130 		ldrb	r3, [r4, #33]	@ zero_extendqisi2
 1992 002e 9B07     		lsls	r3, r3, #30
 1993 0030 05D1     		bne	.L127
 1994              		.loc 1 434 0
 1995 0032 D4E90423 		ldrd	r2, r3, [r4, #16]
ARM GAS  C:\Users\mathi\AppData\Local\Temp\cceGBsvt.s 			page 36


 1996 0036 1A61     		str	r2, [r3, #16]
 1997 0038 D4E90432 		ldrd	r3, r2, [r4, #16]
 1998 003c 5A61     		str	r2, [r3, #20]
 1999              	.L127:
 2000              		.loc 1 437 0
 2001 003e 0F20     		movs	r0, #15
 2002 0040 FFF7FEFF 		bl	chSchGoSleepS
 2003              	.LVL184:
 2004              		.loc 1 440 0
 2005 0044 019A     		ldr	r2, [sp, #4]
 2006 0046 3368     		ldr	r3, [r6]
 2007 0048 9A42     		cmp	r2, r3
 2008 004a 05D1     		bne	.L132
 2009 004c 0548     		ldr	r0, .L133+8
 2010              		.loc 1 441 0
 2011 004e 02B0     		add	sp, sp, #8
 2012              		.cfi_remember_state
 2013              		.cfi_def_cfa_offset 16
 2014              		@ sp needed
 2015 0050 BDE87040 		pop	{r4, r5, r6, lr}
 2016              		.cfi_restore 14
 2017              		.cfi_restore 6
 2018              		.cfi_restore 5
 2019              		.cfi_restore 4
 2020              		.cfi_def_cfa_offset 0
 2021              	.LVL185:
 2022              		.loc 1 440 0
 2023 0054 FFF7FEBF 		b	chSysHalt
 2024              	.LVL186:
 2025              	.L132:
 2026              		.cfi_restore_state
 2027 0058 FFF7FEFF 		bl	__stack_chk_fail
 2028              	.LVL187:
 2029              	.L134:
 2030              		.align	2
 2031              	.L133:
 2032 005c 00000000 		.word	ch
 2033 0060 00000000 		.word	__stack_chk_guard
 2034 0064 00000000 		.word	.LANCHOR5
 2035              		.cfi_endproc
 2036              	.LFE231:
 2037              		.size	chThdExitS, .-chThdExitS
 2038              		.section	.text.chThdWait,"ax",%progbits
 2039              		.align	1
 2040              		.p2align 4,,15
 2041              		.global	chThdWait
 2042              		.syntax unified
 2043              		.thumb
 2044              		.thumb_func
 2045              		.fpu fpv4-sp-d16
 2046              		.type	chThdWait, %function
 2047              	chThdWait:
 2048              	.LFB232:
 2049              		.loc 1 475 0
 2050              		.cfi_startproc
 2051              		@ args = 0, pretend = 0, frame = 8
 2052              		@ frame_needed = 0, uses_anonymous_args = 0
ARM GAS  C:\Users\mathi\AppData\Local\Temp\cceGBsvt.s 			page 37


 2053              	.LVL188:
 2054 0000 F0B5     		push	{r4, r5, r6, r7, lr}
 2055              		.cfi_def_cfa_offset 20
 2056              		.cfi_offset 4, -20
 2057              		.cfi_offset 5, -16
 2058              		.cfi_offset 6, -12
 2059              		.cfi_offset 7, -8
 2060              		.cfi_offset 14, -4
 2061 0002 264E     		ldr	r6, .L151
 2062 0004 83B0     		sub	sp, sp, #12
 2063              		.cfi_def_cfa_offset 32
 2064              		.loc 1 475 0
 2065 0006 3368     		ldr	r3, [r6]
 2066 0008 0193     		str	r3, [sp, #4]
 2067              		.loc 1 478 0
 2068 000a 0446     		mov	r4, r0
 2069 000c 0028     		cmp	r0, #0
 2070 000e 3ED0     		beq	.L146
 2071              	.LVL189:
 2072              	.L136:
 2073              	.LBB423:
 2074              	.LBB424:
 2075              	.LBB425:
 2076              	.LBB426:
 2077              	.LBB427:
 2078              		.loc 3 546 0
 2079 0010 2023     		movs	r3, #32
 2080              		.syntax unified
 2081              	@ 546 "../../lib/e-puck2_main-processor/ChibiOS//os/ext/CMSIS/include/core_cmFunc.h" 1
 2082 0012 83F31188 		MSR basepri, r3
 2083              	@ 0 "" 2
 2084              	.LVL190:
 2085              		.thumb
 2086              		.syntax unified
 2087              	.LBE427:
 2088              	.LBE426:
 2089              	.LBE425:
 2090              	.LBE424:
 2091              	.LBE423:
 2092              		.loc 1 481 0
 2093 0016 224D     		ldr	r5, .L151+4
 2094              	.LBB429:
 2095              	.LBB428:
 2096              		.loc 4 349 0
 2097 0018 FFF7FEFF 		bl	_stats_start_measure_crit_thd
 2098              	.LVL191:
 2099              		.loc 4 350 0
 2100 001c FFF7FEFF 		bl	_dbg_check_lock
 2101              	.LVL192:
 2102              	.LBE428:
 2103              	.LBE429:
 2104              		.loc 1 481 0
 2105 0020 AB69     		ldr	r3, [r5, #24]
 2106 0022 A342     		cmp	r3, r4
 2107 0024 2FD0     		beq	.L147
 2108              	.L137:
 2109              		.loc 1 483 0 discriminator 1
ARM GAS  C:\Users\mathi\AppData\Local\Temp\cceGBsvt.s 			page 38


 2110 0026 94F82230 		ldrb	r3, [r4, #34]	@ zero_extendqisi2
 2111 002a 43B3     		cbz	r3, .L148
 2112              	.L138:
 2113              		.loc 1 485 0
 2114 002c 94F82030 		ldrb	r3, [r4, #32]	@ zero_extendqisi2
 2115 0030 0F2B     		cmp	r3, #15
 2116 0032 06D0     		beq	.L139
 2117              		.loc 1 486 0
 2118 0034 AB69     		ldr	r3, [r5, #24]
 2119              	.LVL193:
 2120              	.LBB430:
 2121              	.LBB431:
 2122              		.loc 2 639 0
 2123 0036 E26A     		ldr	r2, [r4, #44]
 2124 0038 1A60     		str	r2, [r3]
 2125              	.LBE431:
 2126              	.LBE430:
 2127              		.loc 1 487 0
 2128 003a 0920     		movs	r0, #9
 2129              	.LBB433:
 2130              	.LBB432:
 2131              		.loc 2 640 0
 2132 003c E362     		str	r3, [r4, #44]
 2133              	.LVL194:
 2134              	.LBE432:
 2135              	.LBE433:
 2136              		.loc 1 487 0
 2137 003e FFF7FEFF 		bl	chSchGoSleepS
 2138              	.LVL195:
 2139              	.L139:
 2140              		.loc 1 489 0
 2141 0042 A76A     		ldr	r7, [r4, #40]
 2142              	.LVL196:
 2143              	.LBB434:
 2144              	.LBB435:
 2145              		.loc 4 360 0
 2146 0044 FFF7FEFF 		bl	_dbg_check_unlock
 2147              	.LVL197:
 2148              		.loc 4 361 0
 2149 0048 FFF7FEFF 		bl	_stats_stop_measure_crit_thd
 2150              	.LVL198:
 2151              		.loc 4 367 0
 2152 004c 2B68     		ldr	r3, [r5]
 2153 004e AB42     		cmp	r3, r5
 2154 0050 04D0     		beq	.L140
 2155 0052 AA69     		ldr	r2, [r5, #24]
 2156 0054 9B68     		ldr	r3, [r3, #8]
 2157 0056 9268     		ldr	r2, [r2, #8]
 2158 0058 9A42     		cmp	r2, r3
 2159 005a 0CD3     		bcc	.L149
 2160              	.L140:
 2161              	.LVL199:
 2162              	.LBB436:
 2163              	.LBB437:
 2164              	.LBB438:
 2165              		.loc 3 546 0
 2166 005c 0023     		movs	r3, #0
ARM GAS  C:\Users\mathi\AppData\Local\Temp\cceGBsvt.s 			page 39


 2167              		.syntax unified
 2168              	@ 546 "../../lib/e-puck2_main-processor/ChibiOS//os/ext/CMSIS/include/core_cmFunc.h" 1
 2169 005e 83F31188 		MSR basepri, r3
 2170              	@ 0 "" 2
 2171              	.LVL200:
 2172              		.thumb
 2173              		.syntax unified
 2174              	.LBE438:
 2175              	.LBE437:
 2176              	.LBE436:
 2177              	.LBE435:
 2178              	.LBE434:
 2179              		.loc 1 494 0
 2180 0062 2046     		mov	r0, r4
 2181 0064 FFF7FEFF 		bl	chThdRelease
 2182              	.LVL201:
 2183              		.loc 1 498 0
 2184 0068 019A     		ldr	r2, [sp, #4]
 2185 006a 3368     		ldr	r3, [r6]
 2186 006c 9A42     		cmp	r2, r3
 2187 006e 3846     		mov	r0, r7
 2188 0070 11D1     		bne	.L150
 2189              	.LVL202:
 2190 0072 03B0     		add	sp, sp, #12
 2191              		.cfi_remember_state
 2192              		.cfi_def_cfa_offset 20
 2193              		@ sp needed
 2194 0074 F0BD     		pop	{r4, r5, r6, r7, pc}
 2195              	.LVL203:
 2196              	.L149:
 2197              		.cfi_restore_state
 2198              	.LBB440:
 2199              	.LBB439:
 2200              		.loc 4 367 0
 2201 0076 0B48     		ldr	r0, .L151+8
 2202 0078 FFF7FEFF 		bl	chSysHalt
 2203              	.LVL204:
 2204 007c EEE7     		b	.L140
 2205              	.LVL205:
 2206              	.L148:
 2207              	.LBE439:
 2208              	.LBE440:
 2209              		.loc 1 483 0 discriminator 2
 2210 007e 0A48     		ldr	r0, .L151+12
 2211 0080 FFF7FEFF 		bl	chSysHalt
 2212              	.LVL206:
 2213 0084 D2E7     		b	.L138
 2214              	.L147:
 2215              		.loc 1 481 0 discriminator 2
 2216 0086 0848     		ldr	r0, .L151+12
 2217 0088 FFF7FEFF 		bl	chSysHalt
 2218              	.LVL207:
 2219 008c CBE7     		b	.L137
 2220              	.LVL208:
 2221              	.L146:
 2222              		.loc 1 478 0 discriminator 2
 2223 008e 0648     		ldr	r0, .L151+12
ARM GAS  C:\Users\mathi\AppData\Local\Temp\cceGBsvt.s 			page 40


 2224              	.LVL209:
 2225 0090 FFF7FEFF 		bl	chSysHalt
 2226              	.LVL210:
 2227 0094 BCE7     		b	.L136
 2228              	.LVL211:
 2229              	.L150:
 2230              		.loc 1 498 0
 2231 0096 FFF7FEFF 		bl	__stack_chk_fail
 2232              	.LVL212:
 2233              	.L152:
 2234 009a 00BF     		.align	2
 2235              	.L151:
 2236 009c 00000000 		.word	__stack_chk_guard
 2237 00a0 00000000 		.word	ch
 2238 00a4 00000000 		.word	.LANCHOR1
 2239 00a8 00000000 		.word	.LANCHOR6
 2240              		.cfi_endproc
 2241              	.LFE232:
 2242              		.size	chThdWait, .-chThdWait
 2243              		.section	.text.chThdSuspendS,"ax",%progbits
 2244              		.align	1
 2245              		.p2align 4,,15
 2246              		.global	chThdSuspendS
 2247              		.syntax unified
 2248              		.thumb
 2249              		.thumb_func
 2250              		.fpu fpv4-sp-d16
 2251              		.type	chThdSuspendS, %function
 2252              	chThdSuspendS:
 2253              	.LFB233:
 2254              		.loc 1 511 0
 2255              		.cfi_startproc
 2256              		@ args = 0, pretend = 0, frame = 8
 2257              		@ frame_needed = 0, uses_anonymous_args = 0
 2258              	.LVL213:
 2259 0000 F0B5     		push	{r4, r5, r6, r7, lr}
 2260              		.cfi_def_cfa_offset 20
 2261              		.cfi_offset 4, -20
 2262              		.cfi_offset 5, -16
 2263              		.cfi_offset 6, -12
 2264              		.cfi_offset 7, -8
 2265              		.cfi_offset 14, -4
 2266 0002 0D4D     		ldr	r5, .L161
 2267              	.LBB441:
 2268              	.LBB442:
 2269              		.loc 5 176 0
 2270 0004 0D4E     		ldr	r6, .L161+4
 2271              	.LBE442:
 2272              	.LBE441:
 2273              		.loc 1 514 0
 2274 0006 0368     		ldr	r3, [r0]
 2275              		.loc 1 511 0
 2276 0008 2A68     		ldr	r2, [r5]
 2277              	.LBB444:
 2278              	.LBB443:
 2279              		.loc 5 176 0
 2280 000a B769     		ldr	r7, [r6, #24]
ARM GAS  C:\Users\mathi\AppData\Local\Temp\cceGBsvt.s 			page 41


 2281              	.LBE443:
 2282              	.LBE444:
 2283              		.loc 1 511 0
 2284 000c 83B0     		sub	sp, sp, #12
 2285              		.cfi_def_cfa_offset 32
 2286              		.loc 1 511 0
 2287 000e 0446     		mov	r4, r0
 2288 0010 0192     		str	r2, [sp, #4]
 2289              		.loc 1 514 0
 2290 0012 13B1     		cbz	r3, .L154
 2291              		.loc 1 514 0 is_stmt 0 discriminator 2
 2292 0014 0A48     		ldr	r0, .L161+8
 2293              	.LVL214:
 2294 0016 FFF7FEFF 		bl	chSysHalt
 2295              	.LVL215:
 2296              	.L154:
 2297              		.loc 1 516 0 is_stmt 1
 2298 001a 2760     		str	r7, [r4]
 2299              		.loc 1 518 0
 2300 001c 0320     		movs	r0, #3
 2301              		.loc 1 517 0
 2302 001e BC62     		str	r4, [r7, #40]
 2303              		.loc 1 518 0
 2304 0020 FFF7FEFF 		bl	chSchGoSleepS
 2305              	.LVL216:
 2306              		.loc 1 521 0
 2307 0024 019A     		ldr	r2, [sp, #4]
 2308 0026 2B68     		ldr	r3, [r5]
 2309              		.loc 1 520 0
 2310 0028 B169     		ldr	r1, [r6, #24]
 2311              		.loc 1 521 0
 2312 002a 9A42     		cmp	r2, r3
 2313 002c 886A     		ldr	r0, [r1, #40]
 2314 002e 01D1     		bne	.L160
 2315 0030 03B0     		add	sp, sp, #12
 2316              		.cfi_remember_state
 2317              		.cfi_def_cfa_offset 20
 2318              		@ sp needed
 2319 0032 F0BD     		pop	{r4, r5, r6, r7, pc}
 2320              	.LVL217:
 2321              	.L160:
 2322              		.cfi_restore_state
 2323 0034 FFF7FEFF 		bl	__stack_chk_fail
 2324              	.LVL218:
 2325              	.L162:
 2326              		.align	2
 2327              	.L161:
 2328 0038 00000000 		.word	__stack_chk_guard
 2329 003c 00000000 		.word	ch
 2330 0040 00000000 		.word	.LANCHOR7
 2331              		.cfi_endproc
 2332              	.LFE233:
 2333              		.size	chThdSuspendS, .-chThdSuspendS
 2334              		.section	.text.chThdSuspendTimeoutS,"ax",%progbits
 2335              		.align	1
 2336              		.p2align 4,,15
 2337              		.global	chThdSuspendTimeoutS
ARM GAS  C:\Users\mathi\AppData\Local\Temp\cceGBsvt.s 			page 42


 2338              		.syntax unified
 2339              		.thumb
 2340              		.thumb_func
 2341              		.fpu fpv4-sp-d16
 2342              		.type	chThdSuspendTimeoutS, %function
 2343              	chThdSuspendTimeoutS:
 2344              	.LFB234:
 2345              		.loc 1 542 0
 2346              		.cfi_startproc
 2347              		@ args = 0, pretend = 0, frame = 8
 2348              		@ frame_needed = 0, uses_anonymous_args = 0
 2349              	.LVL219:
 2350 0000 F0B5     		push	{r4, r5, r6, r7, lr}
 2351              		.cfi_def_cfa_offset 20
 2352              		.cfi_offset 4, -20
 2353              		.cfi_offset 5, -16
 2354              		.cfi_offset 6, -12
 2355              		.cfi_offset 7, -8
 2356              		.cfi_offset 14, -4
 2357 0002 124D     		ldr	r5, .L173
 2358              		.loc 1 545 0
 2359 0004 0368     		ldr	r3, [r0]
 2360              	.LBB445:
 2361              	.LBB446:
 2362              		.loc 5 176 0
 2363 0006 124A     		ldr	r2, .L173+4
 2364              	.LBE446:
 2365              	.LBE445:
 2366              		.loc 1 542 0
 2367 0008 83B0     		sub	sp, sp, #12
 2368              		.cfi_def_cfa_offset 32
 2369              		.loc 1 542 0
 2370 000a 0446     		mov	r4, r0
 2371 000c 2868     		ldr	r0, [r5]
 2372              	.LVL220:
 2373 000e 0190     		str	r0, [sp, #4]
 2374 0010 0E46     		mov	r6, r1
 2375              	.LBB448:
 2376              	.LBB447:
 2377              		.loc 5 176 0
 2378 0012 9769     		ldr	r7, [r2, #24]
 2379              	.LBE447:
 2380              	.LBE448:
 2381              		.loc 1 545 0
 2382 0014 13B1     		cbz	r3, .L164
 2383              		.loc 1 545 0 is_stmt 0 discriminator 2
 2384 0016 0F48     		ldr	r0, .L173+8
 2385 0018 FFF7FEFF 		bl	chSysHalt
 2386              	.LVL221:
 2387              	.L164:
 2388              		.loc 1 547 0 is_stmt 1
 2389 001c 66B1     		cbz	r6, .L165
 2390              		.loc 1 551 0
 2391 001e 2760     		str	r7, [r4]
 2392              		.loc 1 554 0
 2393 0020 019A     		ldr	r2, [sp, #4]
 2394 0022 2B68     		ldr	r3, [r5]
ARM GAS  C:\Users\mathi\AppData\Local\Temp\cceGBsvt.s 			page 43


 2395              		.loc 1 552 0
 2396 0024 BC62     		str	r4, [r7, #40]
 2397              		.loc 1 554 0
 2398 0026 9A42     		cmp	r2, r3
 2399 0028 0ED1     		bne	.L172
 2400 002a 3146     		mov	r1, r6
 2401 002c 0320     		movs	r0, #3
 2402              		.loc 1 555 0
 2403 002e 03B0     		add	sp, sp, #12
 2404              		.cfi_remember_state
 2405              		.cfi_def_cfa_offset 20
 2406              		@ sp needed
 2407 0030 BDE8F040 		pop	{r4, r5, r6, r7, lr}
 2408              		.cfi_restore 14
 2409              		.cfi_restore 7
 2410              		.cfi_restore 6
 2411              		.cfi_restore 5
 2412              		.cfi_restore 4
 2413              		.cfi_def_cfa_offset 0
 2414              	.LVL222:
 2415              		.loc 1 554 0
 2416 0034 FFF7FEBF 		b	chSchGoSleepTimeoutS
 2417              	.LVL223:
 2418              	.L165:
 2419              		.cfi_restore_state
 2420              		.loc 1 555 0
 2421 0038 019A     		ldr	r2, [sp, #4]
 2422 003a 2B68     		ldr	r3, [r5]
 2423 003c 9A42     		cmp	r2, r3
 2424 003e 4FF0FF30 		mov	r0, #-1
 2425 0042 01D1     		bne	.L172
 2426 0044 03B0     		add	sp, sp, #12
 2427              		.cfi_remember_state
 2428              		.cfi_def_cfa_offset 20
 2429              		@ sp needed
 2430 0046 F0BD     		pop	{r4, r5, r6, r7, pc}
 2431              	.LVL224:
 2432              	.L172:
 2433              		.cfi_restore_state
 2434 0048 FFF7FEFF 		bl	__stack_chk_fail
 2435              	.LVL225:
 2436              	.L174:
 2437              		.align	2
 2438              	.L173:
 2439 004c 00000000 		.word	__stack_chk_guard
 2440 0050 00000000 		.word	ch
 2441 0054 00000000 		.word	.LANCHOR8
 2442              		.cfi_endproc
 2443              	.LFE234:
 2444              		.size	chThdSuspendTimeoutS, .-chThdSuspendTimeoutS
 2445              		.section	.text.chThdResumeI,"ax",%progbits
 2446              		.align	1
 2447              		.p2align 4,,15
 2448              		.global	chThdResumeI
 2449              		.syntax unified
 2450              		.thumb
 2451              		.thumb_func
ARM GAS  C:\Users\mathi\AppData\Local\Temp\cceGBsvt.s 			page 44


 2452              		.fpu fpv4-sp-d16
 2453              		.type	chThdResumeI, %function
 2454              	chThdResumeI:
 2455              	.LFB235:
 2456              		.loc 1 567 0
 2457              		.cfi_startproc
 2458              		@ args = 0, pretend = 0, frame = 8
 2459              		@ frame_needed = 0, uses_anonymous_args = 0
 2460              	.LVL226:
 2461 0000 F0B5     		push	{r4, r5, r6, r7, lr}
 2462              		.cfi_def_cfa_offset 20
 2463              		.cfi_offset 4, -20
 2464              		.cfi_offset 5, -16
 2465              		.cfi_offset 6, -12
 2466              		.cfi_offset 7, -8
 2467              		.cfi_offset 14, -4
 2468 0002 124D     		ldr	r5, .L186
 2469              		.loc 1 569 0
 2470 0004 0468     		ldr	r4, [r0]
 2471              		.loc 1 567 0
 2472 0006 2B68     		ldr	r3, [r5]
 2473 0008 83B0     		sub	sp, sp, #12
 2474              		.cfi_def_cfa_offset 32
 2475              		.loc 1 567 0
 2476 000a 0193     		str	r3, [sp, #4]
 2477              		.loc 1 569 0
 2478 000c B4B1     		cbz	r4, .L175
 2479              	.LBB449:
 2480              		.loc 1 572 0
 2481 000e 94F82030 		ldrb	r3, [r4, #32]	@ zero_extendqisi2
 2482 0012 032B     		cmp	r3, #3
 2483 0014 0646     		mov	r6, r0
 2484 0016 0F46     		mov	r7, r1
 2485              	.LVL227:
 2486 0018 0CD1     		bne	.L185
 2487              	.LVL228:
 2488              	.L177:
 2489              		.loc 1 575 0
 2490 001a 0023     		movs	r3, #0
 2491 001c 3360     		str	r3, [r6]
 2492              		.loc 1 577 0
 2493 001e 019A     		ldr	r2, [sp, #4]
 2494 0020 2B68     		ldr	r3, [r5]
 2495              		.loc 1 576 0
 2496 0022 A762     		str	r7, [r4, #40]
 2497              		.loc 1 577 0
 2498 0024 9A42     		cmp	r2, r3
 2499 0026 0FD1     		bne	.L184
 2500 0028 2046     		mov	r0, r4
 2501              	.LBE449:
 2502              		.loc 1 579 0
 2503 002a 03B0     		add	sp, sp, #12
 2504              		.cfi_remember_state
 2505              		.cfi_def_cfa_offset 20
 2506              		@ sp needed
 2507 002c BDE8F040 		pop	{r4, r5, r6, r7, lr}
 2508              		.cfi_restore 14
ARM GAS  C:\Users\mathi\AppData\Local\Temp\cceGBsvt.s 			page 45


 2509              		.cfi_restore 7
 2510              		.cfi_restore 6
 2511              		.cfi_restore 5
 2512              		.cfi_restore 4
 2513              		.cfi_def_cfa_offset 0
 2514              	.LVL229:
 2515              	.LBB450:
 2516              		.loc 1 577 0
 2517 0030 FFF7FEBF 		b	chSchReadyI
 2518              	.LVL230:
 2519              	.L185:
 2520              		.cfi_restore_state
 2521              		.loc 1 572 0 discriminator 2
 2522 0034 0648     		ldr	r0, .L186+4
 2523              	.LVL231:
 2524 0036 FFF7FEFF 		bl	chSysHalt
 2525              	.LVL232:
 2526 003a EEE7     		b	.L177
 2527              	.LVL233:
 2528              	.L175:
 2529              	.LBE450:
 2530              		.loc 1 579 0
 2531 003c 019A     		ldr	r2, [sp, #4]
 2532 003e 2B68     		ldr	r3, [r5]
 2533 0040 9A42     		cmp	r2, r3
 2534 0042 01D1     		bne	.L184
 2535 0044 03B0     		add	sp, sp, #12
 2536              		.cfi_remember_state
 2537              		.cfi_def_cfa_offset 20
 2538              		@ sp needed
 2539 0046 F0BD     		pop	{r4, r5, r6, r7, pc}
 2540              	.LVL234:
 2541              	.L184:
 2542              		.cfi_restore_state
 2543 0048 FFF7FEFF 		bl	__stack_chk_fail
 2544              	.LVL235:
 2545              	.L187:
 2546              		.align	2
 2547              	.L186:
 2548 004c 00000000 		.word	__stack_chk_guard
 2549 0050 00000000 		.word	.LANCHOR9
 2550              		.cfi_endproc
 2551              	.LFE235:
 2552              		.size	chThdResumeI, .-chThdResumeI
 2553              		.section	.text.chThdResumeS,"ax",%progbits
 2554              		.align	1
 2555              		.p2align 4,,15
 2556              		.global	chThdResumeS
 2557              		.syntax unified
 2558              		.thumb
 2559              		.thumb_func
 2560              		.fpu fpv4-sp-d16
 2561              		.type	chThdResumeS, %function
 2562              	chThdResumeS:
 2563              	.LFB236:
 2564              		.loc 1 591 0
 2565              		.cfi_startproc
ARM GAS  C:\Users\mathi\AppData\Local\Temp\cceGBsvt.s 			page 46


 2566              		@ args = 0, pretend = 0, frame = 8
 2567              		@ frame_needed = 0, uses_anonymous_args = 0
 2568              	.LVL236:
 2569 0000 F0B5     		push	{r4, r5, r6, r7, lr}
 2570              		.cfi_def_cfa_offset 20
 2571              		.cfi_offset 4, -20
 2572              		.cfi_offset 5, -16
 2573              		.cfi_offset 6, -12
 2574              		.cfi_offset 7, -8
 2575              		.cfi_offset 14, -4
 2576 0002 124D     		ldr	r5, .L199
 2577              		.loc 1 593 0
 2578 0004 0468     		ldr	r4, [r0]
 2579              		.loc 1 591 0
 2580 0006 2B68     		ldr	r3, [r5]
 2581 0008 83B0     		sub	sp, sp, #12
 2582              		.cfi_def_cfa_offset 32
 2583              		.loc 1 591 0
 2584 000a 0193     		str	r3, [sp, #4]
 2585              		.loc 1 593 0
 2586 000c B4B1     		cbz	r4, .L188
 2587              	.LBB452:
 2588              		.loc 1 596 0
 2589 000e 94F82030 		ldrb	r3, [r4, #32]	@ zero_extendqisi2
 2590 0012 032B     		cmp	r3, #3
 2591 0014 0646     		mov	r6, r0
 2592 0016 0F46     		mov	r7, r1
 2593              	.LVL237:
 2594 0018 0CD1     		bne	.L198
 2595              	.LVL238:
 2596              	.L190:
 2597              		.loc 1 599 0
 2598 001a 0023     		movs	r3, #0
 2599 001c 3360     		str	r3, [r6]
 2600              		.loc 1 600 0
 2601 001e 019A     		ldr	r2, [sp, #4]
 2602 0020 2B68     		ldr	r3, [r5]
 2603 0022 9A42     		cmp	r2, r3
 2604 0024 10D1     		bne	.L197
 2605 0026 3946     		mov	r1, r7
 2606 0028 2046     		mov	r0, r4
 2607              	.LBE452:
 2608              		.loc 1 602 0
 2609 002a 03B0     		add	sp, sp, #12
 2610              		.cfi_remember_state
 2611              		.cfi_def_cfa_offset 20
 2612              		@ sp needed
 2613 002c BDE8F040 		pop	{r4, r5, r6, r7, lr}
 2614              		.cfi_restore 14
 2615              		.cfi_restore 7
 2616              		.cfi_restore 6
 2617              		.cfi_restore 5
 2618              		.cfi_restore 4
 2619              		.cfi_def_cfa_offset 0
 2620              	.LVL239:
 2621              	.LBB453:
 2622              		.loc 1 600 0
ARM GAS  C:\Users\mathi\AppData\Local\Temp\cceGBsvt.s 			page 47


 2623 0030 FFF7FEBF 		b	chSchWakeupS
 2624              	.LVL240:
 2625              	.L198:
 2626              		.cfi_restore_state
 2627              		.loc 1 596 0 discriminator 2
 2628 0034 0648     		ldr	r0, .L199+4
 2629              	.LVL241:
 2630 0036 FFF7FEFF 		bl	chSysHalt
 2631              	.LVL242:
 2632 003a EEE7     		b	.L190
 2633              	.LVL243:
 2634              	.L188:
 2635              	.LBE453:
 2636              		.loc 1 602 0
 2637 003c 019A     		ldr	r2, [sp, #4]
 2638 003e 2B68     		ldr	r3, [r5]
 2639 0040 9A42     		cmp	r2, r3
 2640 0042 01D1     		bne	.L197
 2641 0044 03B0     		add	sp, sp, #12
 2642              		.cfi_remember_state
 2643              		.cfi_def_cfa_offset 20
 2644              		@ sp needed
 2645 0046 F0BD     		pop	{r4, r5, r6, r7, pc}
 2646              	.LVL244:
 2647              	.L197:
 2648              		.cfi_restore_state
 2649 0048 FFF7FEFF 		bl	__stack_chk_fail
 2650              	.LVL245:
 2651              	.L200:
 2652              		.align	2
 2653              	.L199:
 2654 004c 00000000 		.word	__stack_chk_guard
 2655 0050 00000000 		.word	.LANCHOR10
 2656              		.cfi_endproc
 2657              	.LFE236:
 2658              		.size	chThdResumeS, .-chThdResumeS
 2659              		.section	.text.chThdResume,"ax",%progbits
 2660              		.align	1
 2661              		.p2align 4,,15
 2662              		.global	chThdResume
 2663              		.syntax unified
 2664              		.thumb
 2665              		.thumb_func
 2666              		.fpu fpv4-sp-d16
 2667              		.type	chThdResume, %function
 2668              	chThdResume:
 2669              	.LFB237:
 2670              		.loc 1 614 0
 2671              		.cfi_startproc
 2672              		@ args = 0, pretend = 0, frame = 8
 2673              		@ frame_needed = 0, uses_anonymous_args = 0
 2674              	.LVL246:
 2675 0000 F0B5     		push	{r4, r5, r6, r7, lr}
 2676              		.cfi_def_cfa_offset 20
 2677              		.cfi_offset 4, -20
 2678              		.cfi_offset 5, -16
 2679              		.cfi_offset 6, -12
ARM GAS  C:\Users\mathi\AppData\Local\Temp\cceGBsvt.s 			page 48


 2680              		.cfi_offset 7, -8
 2681              		.cfi_offset 14, -4
 2682 0002 1C4D     		ldr	r5, .L216
 2683 0004 83B0     		sub	sp, sp, #12
 2684              		.cfi_def_cfa_offset 32
 2685              		.loc 1 614 0
 2686 0006 2B68     		ldr	r3, [r5]
 2687 0008 0193     		str	r3, [sp, #4]
 2688              	.LVL247:
 2689 000a 0646     		mov	r6, r0
 2690 000c 0F46     		mov	r7, r1
 2691              	.LBB467:
 2692              	.LBB468:
 2693              	.LBB469:
 2694              	.LBB470:
 2695              	.LBB471:
 2696              		.loc 3 546 0
 2697 000e 2023     		movs	r3, #32
 2698              		.syntax unified
 2699              	@ 546 "../../lib/e-puck2_main-processor/ChibiOS//os/ext/CMSIS/include/core_cmFunc.h" 1
 2700 0010 83F31188 		MSR basepri, r3
 2701              	@ 0 "" 2
 2702              	.LVL248:
 2703              		.thumb
 2704              		.syntax unified
 2705              	.LBE471:
 2706              	.LBE470:
 2707              	.LBE469:
 2708              		.loc 4 349 0
 2709 0014 FFF7FEFF 		bl	_stats_start_measure_crit_thd
 2710              	.LVL249:
 2711              		.loc 4 350 0
 2712 0018 FFF7FEFF 		bl	_dbg_check_lock
 2713              	.LVL250:
 2714              	.LBE468:
 2715              	.LBE467:
 2716              	.LBB472:
 2717              	.LBB473:
 2718              		.loc 1 593 0
 2719 001c 3468     		ldr	r4, [r6]
 2720 001e 4CB1     		cbz	r4, .L202
 2721              	.LVL251:
 2722              	.LBB474:
 2723              		.loc 1 596 0
 2724 0020 94F82030 		ldrb	r3, [r4, #32]	@ zero_extendqisi2
 2725 0024 032B     		cmp	r3, #3
 2726 0026 1BD1     		bne	.L213
 2727              	.L203:
 2728              		.loc 1 599 0
 2729 0028 0023     		movs	r3, #0
 2730              		.loc 1 600 0
 2731 002a 3946     		mov	r1, r7
 2732 002c 2046     		mov	r0, r4
 2733              		.loc 1 599 0
 2734 002e 3360     		str	r3, [r6]
 2735              		.loc 1 600 0
 2736 0030 FFF7FEFF 		bl	chSchWakeupS
ARM GAS  C:\Users\mathi\AppData\Local\Temp\cceGBsvt.s 			page 49


 2737              	.LVL252:
 2738              	.L202:
 2739              	.LBE474:
 2740              	.LBE473:
 2741              	.LBE472:
 2742              	.LBB477:
 2743              	.LBB478:
 2744              		.loc 4 360 0
 2745 0034 FFF7FEFF 		bl	_dbg_check_unlock
 2746              	.LVL253:
 2747              		.loc 4 361 0
 2748 0038 FFF7FEFF 		bl	_stats_stop_measure_crit_thd
 2749              	.LVL254:
 2750              		.loc 4 367 0
 2751 003c 0E4B     		ldr	r3, .L216+4
 2752 003e 1A68     		ldr	r2, [r3]
 2753 0040 9A42     		cmp	r2, r3
 2754 0042 04D0     		beq	.L204
 2755 0044 9969     		ldr	r1, [r3, #24]
 2756 0046 9368     		ldr	r3, [r2, #8]
 2757 0048 8A68     		ldr	r2, [r1, #8]
 2758 004a 9A42     		cmp	r2, r3
 2759 004c 0CD3     		bcc	.L214
 2760              	.L204:
 2761              	.LVL255:
 2762              	.LBB479:
 2763              	.LBB480:
 2764              	.LBB481:
 2765              		.loc 3 546 0
 2766 004e 0023     		movs	r3, #0
 2767              		.syntax unified
 2768              	@ 546 "../../lib/e-puck2_main-processor/ChibiOS//os/ext/CMSIS/include/core_cmFunc.h" 1
 2769 0050 83F31188 		MSR basepri, r3
 2770              	@ 0 "" 2
 2771              	.LVL256:
 2772              		.thumb
 2773              		.syntax unified
 2774              	.LBE481:
 2775              	.LBE480:
 2776              	.LBE479:
 2777              	.LBE478:
 2778              	.LBE477:
 2779              		.loc 1 619 0
 2780 0054 019A     		ldr	r2, [sp, #4]
 2781 0056 2B68     		ldr	r3, [r5]
 2782 0058 9A42     		cmp	r2, r3
 2783 005a 09D1     		bne	.L215
 2784 005c 03B0     		add	sp, sp, #12
 2785              		.cfi_remember_state
 2786              		.cfi_def_cfa_offset 20
 2787              		@ sp needed
 2788 005e F0BD     		pop	{r4, r5, r6, r7, pc}
 2789              	.LVL257:
 2790              	.L213:
 2791              		.cfi_restore_state
 2792              	.LBB483:
 2793              	.LBB476:
ARM GAS  C:\Users\mathi\AppData\Local\Temp\cceGBsvt.s 			page 50


 2794              	.LBB475:
 2795              		.loc 1 596 0
 2796 0060 0648     		ldr	r0, .L216+8
 2797 0062 FFF7FEFF 		bl	chSysHalt
 2798              	.LVL258:
 2799 0066 DFE7     		b	.L203
 2800              	.LVL259:
 2801              	.L214:
 2802              	.LBE475:
 2803              	.LBE476:
 2804              	.LBE483:
 2805              	.LBB484:
 2806              	.LBB482:
 2807              		.loc 4 367 0
 2808 0068 0548     		ldr	r0, .L216+12
 2809 006a FFF7FEFF 		bl	chSysHalt
 2810              	.LVL260:
 2811 006e EEE7     		b	.L204
 2812              	.L215:
 2813              	.LBE482:
 2814              	.LBE484:
 2815              		.loc 1 619 0
 2816 0070 FFF7FEFF 		bl	__stack_chk_fail
 2817              	.LVL261:
 2818              	.L217:
 2819              		.align	2
 2820              	.L216:
 2821 0074 00000000 		.word	__stack_chk_guard
 2822 0078 00000000 		.word	ch
 2823 007c 00000000 		.word	.LANCHOR10
 2824 0080 00000000 		.word	.LANCHOR1
 2825              		.cfi_endproc
 2826              	.LFE237:
 2827              		.size	chThdResume, .-chThdResume
 2828              		.section	.text.chThdEnqueueTimeoutS,"ax",%progbits
 2829              		.align	1
 2830              		.p2align 4,,15
 2831              		.global	chThdEnqueueTimeoutS
 2832              		.syntax unified
 2833              		.thumb
 2834              		.thumb_func
 2835              		.fpu fpv4-sp-d16
 2836              		.type	chThdEnqueueTimeoutS, %function
 2837              	chThdEnqueueTimeoutS:
 2838              	.LFB238:
 2839              		.loc 1 644 0
 2840              		.cfi_startproc
 2841              		@ args = 0, pretend = 0, frame = 8
 2842              		@ frame_needed = 0, uses_anonymous_args = 0
 2843              	.LVL262:
 2844 0000 30B5     		push	{r4, r5, lr}
 2845              		.cfi_def_cfa_offset 12
 2846              		.cfi_offset 4, -12
 2847              		.cfi_offset 5, -8
 2848              		.cfi_offset 14, -4
 2849 0002 104A     		ldr	r2, .L224
 2850 0004 83B0     		sub	sp, sp, #12
ARM GAS  C:\Users\mathi\AppData\Local\Temp\cceGBsvt.s 			page 51


 2851              		.cfi_def_cfa_offset 24
 2852              		.loc 1 644 0
 2853 0006 1368     		ldr	r3, [r2]
 2854 0008 0193     		str	r3, [sp, #4]
 2855              		.loc 1 646 0
 2856 000a 81B1     		cbz	r1, .L219
 2857              		.loc 1 650 0
 2858 000c 0E4B     		ldr	r3, .L224+4
 2859              		.loc 1 652 0
 2860 000e 019D     		ldr	r5, [sp, #4]
 2861              		.loc 1 650 0
 2862 0010 9B69     		ldr	r3, [r3, #24]
 2863              	.LVL263:
 2864              	.LBB485:
 2865              	.LBB486:
 2866              		.loc 2 665 0
 2867 0012 1860     		str	r0, [r3]
 2868              		.loc 2 666 0
 2869 0014 4468     		ldr	r4, [r0, #4]
 2870 0016 5C60     		str	r4, [r3, #4]
 2871              		.loc 2 667 0
 2872 0018 2360     		str	r3, [r4]
 2873              	.LBE486:
 2874              	.LBE485:
 2875              		.loc 1 652 0
 2876 001a 1268     		ldr	r2, [r2]
 2877              	.LBB488:
 2878              	.LBB487:
 2879              		.loc 2 668 0
 2880 001c 4360     		str	r3, [r0, #4]
 2881              	.LVL264:
 2882              	.LBE487:
 2883              	.LBE488:
 2884              		.loc 1 652 0
 2885 001e 9542     		cmp	r5, r2
 2886 0020 0DD1     		bne	.L223
 2887 0022 0420     		movs	r0, #4
 2888              	.LVL265:
 2889              		.loc 1 653 0
 2890 0024 03B0     		add	sp, sp, #12
 2891              		.cfi_remember_state
 2892              		.cfi_def_cfa_offset 12
 2893              		@ sp needed
 2894 0026 BDE83040 		pop	{r4, r5, lr}
 2895              		.cfi_restore 14
 2896              		.cfi_restore 5
 2897              		.cfi_restore 4
 2898              		.cfi_def_cfa_offset 0
 2899              		.loc 1 652 0
 2900 002a FFF7FEBF 		b	chSchGoSleepTimeoutS
 2901              	.LVL266:
 2902              	.L219:
 2903              		.cfi_restore_state
 2904              		.loc 1 653 0
 2905 002e 0199     		ldr	r1, [sp, #4]
 2906              	.LVL267:
 2907 0030 1368     		ldr	r3, [r2]
ARM GAS  C:\Users\mathi\AppData\Local\Temp\cceGBsvt.s 			page 52


 2908 0032 9942     		cmp	r1, r3
 2909 0034 4FF0FF30 		mov	r0, #-1
 2910              	.LVL268:
 2911 0038 01D1     		bne	.L223
 2912 003a 03B0     		add	sp, sp, #12
 2913              		.cfi_remember_state
 2914              		.cfi_def_cfa_offset 12
 2915              		@ sp needed
 2916 003c 30BD     		pop	{r4, r5, pc}
 2917              	.L223:
 2918              		.cfi_restore_state
 2919 003e FFF7FEFF 		bl	__stack_chk_fail
 2920              	.LVL269:
 2921              	.L225:
 2922 0042 00BF     		.align	2
 2923              	.L224:
 2924 0044 00000000 		.word	__stack_chk_guard
 2925 0048 00000000 		.word	ch
 2926              		.cfi_endproc
 2927              	.LFE238:
 2928              		.size	chThdEnqueueTimeoutS, .-chThdEnqueueTimeoutS
 2929              		.section	.text.chThdDequeueNextI,"ax",%progbits
 2930              		.align	1
 2931              		.p2align 4,,15
 2932              		.global	chThdDequeueNextI
 2933              		.syntax unified
 2934              		.thumb
 2935              		.thumb_func
 2936              		.fpu fpv4-sp-d16
 2937              		.type	chThdDequeueNextI, %function
 2938              	chThdDequeueNextI:
 2939              	.LFB239:
 2940              		.loc 1 664 0
 2941              		.cfi_startproc
 2942              		@ args = 0, pretend = 0, frame = 8
 2943              		@ frame_needed = 0, uses_anonymous_args = 0
 2944              	.LVL270:
 2945 0000 70B5     		push	{r4, r5, r6, lr}
 2946              		.cfi_def_cfa_offset 16
 2947              		.cfi_offset 4, -16
 2948              		.cfi_offset 5, -12
 2949              		.cfi_offset 6, -8
 2950              		.cfi_offset 14, -4
 2951 0002 124D     		ldr	r5, .L236
 2952              	.LBB497:
 2953              	.LBB498:
 2954              		.loc 2 631 0
 2955 0004 0468     		ldr	r4, [r0]
 2956              	.LBE498:
 2957              	.LBE497:
 2958              		.loc 1 664 0
 2959 0006 2B68     		ldr	r3, [r5]
 2960 0008 82B0     		sub	sp, sp, #8
 2961              		.cfi_def_cfa_offset 24
 2962              		.loc 1 666 0
 2963 000a A042     		cmp	r0, r4
 2964              		.loc 1 664 0
ARM GAS  C:\Users\mathi\AppData\Local\Temp\cceGBsvt.s 			page 53


 2965 000c 0193     		str	r3, [sp, #4]
 2966              		.loc 1 666 0
 2967 000e 15D0     		beq	.L226
 2968              	.LBB499:
 2969              	.LBB500:
 2970              	.LBB501:
 2971              	.LBB502:
 2972              		.loc 2 674 0
 2973 0010 2368     		ldr	r3, [r4]
 2974 0012 0360     		str	r3, [r0]
 2975              		.loc 2 675 0
 2976 0014 5860     		str	r0, [r3, #4]
 2977              	.LBE502:
 2978              	.LBE501:
 2979              		.loc 5 319 0
 2980 0016 94F82030 		ldrb	r3, [r4, #32]	@ zero_extendqisi2
 2981 001a 042B     		cmp	r3, #4
 2982 001c 0E46     		mov	r6, r1
 2983              	.LVL271:
 2984 001e 02D0     		beq	.L228
 2985 0020 0B48     		ldr	r0, .L236+4
 2986              	.LVL272:
 2987 0022 FFF7FEFF 		bl	chSysHalt
 2988              	.LVL273:
 2989              	.L228:
 2990              		.loc 5 322 0
 2991 0026 019A     		ldr	r2, [sp, #4]
 2992 0028 2B68     		ldr	r3, [r5]
 2993              		.loc 5 321 0
 2994 002a A662     		str	r6, [r4, #40]
 2995              		.loc 5 322 0
 2996 002c 9A42     		cmp	r2, r3
 2997 002e 0BD1     		bne	.L235
 2998 0030 2046     		mov	r0, r4
 2999              	.LBE500:
 3000              	.LBE499:
 3001              		.loc 1 669 0
 3002 0032 02B0     		add	sp, sp, #8
 3003              		.cfi_remember_state
 3004              		.cfi_def_cfa_offset 16
 3005              		@ sp needed
 3006 0034 BDE87040 		pop	{r4, r5, r6, lr}
 3007              		.cfi_restore 14
 3008              		.cfi_restore 6
 3009              		.cfi_restore 5
 3010              		.cfi_restore 4
 3011              		.cfi_def_cfa_offset 0
 3012              	.LVL274:
 3013              	.LBB504:
 3014              	.LBB503:
 3015              		.loc 5 322 0
 3016 0038 FFF7FEBF 		b	chSchReadyI
 3017              	.LVL275:
 3018              	.L226:
 3019              		.cfi_restore_state
 3020              	.LBE503:
 3021              	.LBE504:
ARM GAS  C:\Users\mathi\AppData\Local\Temp\cceGBsvt.s 			page 54


 3022              		.loc 1 669 0
 3023 003c 019A     		ldr	r2, [sp, #4]
 3024 003e 2B68     		ldr	r3, [r5]
 3025 0040 9A42     		cmp	r2, r3
 3026 0042 01D1     		bne	.L235
 3027 0044 02B0     		add	sp, sp, #8
 3028              		.cfi_remember_state
 3029              		.cfi_def_cfa_offset 16
 3030              		@ sp needed
 3031 0046 70BD     		pop	{r4, r5, r6, pc}
 3032              	.LVL276:
 3033              	.L235:
 3034              		.cfi_restore_state
 3035 0048 FFF7FEFF 		bl	__stack_chk_fail
 3036              	.LVL277:
 3037              	.L237:
 3038              		.align	2
 3039              	.L236:
 3040 004c 00000000 		.word	__stack_chk_guard
 3041 0050 00000000 		.word	.LANCHOR11
 3042              		.cfi_endproc
 3043              	.LFE239:
 3044              		.size	chThdDequeueNextI, .-chThdDequeueNextI
 3045              		.section	.text.chThdDequeueAllI,"ax",%progbits
 3046              		.align	1
 3047              		.p2align 4,,15
 3048              		.global	chThdDequeueAllI
 3049              		.syntax unified
 3050              		.thumb
 3051              		.thumb_func
 3052              		.fpu fpv4-sp-d16
 3053              		.type	chThdDequeueAllI, %function
 3054              	chThdDequeueAllI:
 3055              	.LFB240:
 3056              		.loc 1 679 0
 3057              		.cfi_startproc
 3058              		@ args = 0, pretend = 0, frame = 8
 3059              		@ frame_needed = 0, uses_anonymous_args = 0
 3060              	.LVL278:
 3061 0000 2DE9F041 		push	{r4, r5, r6, r7, r8, lr}
 3062              		.cfi_def_cfa_offset 24
 3063              		.cfi_offset 4, -24
 3064              		.cfi_offset 5, -20
 3065              		.cfi_offset 6, -16
 3066              		.cfi_offset 7, -12
 3067              		.cfi_offset 8, -8
 3068              		.cfi_offset 14, -4
 3069 0004 DFF85080 		ldr	r8, .L247+4
 3070              	.LBB513:
 3071              	.LBB514:
 3072              		.loc 2 631 0
 3073 0008 0468     		ldr	r4, [r0]
 3074              	.LBE514:
 3075              	.LBE513:
 3076              		.loc 1 679 0
 3077 000a D8F80030 		ldr	r3, [r8]
 3078 000e 82B0     		sub	sp, sp, #8
ARM GAS  C:\Users\mathi\AppData\Local\Temp\cceGBsvt.s 			page 55


 3079              		.cfi_def_cfa_offset 32
 3080              		.loc 1 681 0
 3081 0010 A042     		cmp	r0, r4
 3082              		.loc 1 679 0
 3083 0012 0193     		str	r3, [sp, #4]
 3084              		.loc 1 681 0
 3085 0014 13D0     		beq	.L238
 3086              	.LBB516:
 3087              	.LBB517:
 3088              		.loc 5 319 0
 3089 0016 0F4F     		ldr	r7, .L247
 3090 0018 0546     		mov	r5, r0
 3091 001a 0E46     		mov	r6, r1
 3092              	.LVL279:
 3093              	.L239:
 3094              	.LBB518:
 3095              	.LBB519:
 3096              		.loc 2 674 0
 3097 001c 2368     		ldr	r3, [r4]
 3098 001e 2B60     		str	r3, [r5]
 3099              	.LVL280:
 3100              		.loc 2 675 0
 3101 0020 5D60     		str	r5, [r3, #4]
 3102              	.LVL281:
 3103              	.LBE519:
 3104              	.LBE518:
 3105              		.loc 5 319 0
 3106 0022 94F82030 		ldrb	r3, [r4, #32]	@ zero_extendqisi2
 3107 0026 042B     		cmp	r3, #4
 3108 0028 02D0     		beq	.L241
 3109 002a 3846     		mov	r0, r7
 3110 002c FFF7FEFF 		bl	chSysHalt
 3111              	.LVL282:
 3112              	.L241:
 3113              		.loc 5 321 0
 3114 0030 A662     		str	r6, [r4, #40]
 3115              		.loc 5 322 0
 3116 0032 2046     		mov	r0, r4
 3117 0034 FFF7FEFF 		bl	chSchReadyI
 3118              	.LVL283:
 3119              	.LBE517:
 3120              	.LBE516:
 3121              	.LBB520:
 3122              	.LBB515:
 3123              		.loc 2 631 0
 3124 0038 2C68     		ldr	r4, [r5]
 3125              	.LVL284:
 3126              	.LBE515:
 3127              	.LBE520:
 3128              		.loc 1 681 0
 3129 003a A542     		cmp	r5, r4
 3130 003c EED1     		bne	.L239
 3131              	.LVL285:
 3132              	.L238:
 3133              		.loc 1 684 0
 3134 003e 019A     		ldr	r2, [sp, #4]
 3135 0040 D8F80030 		ldr	r3, [r8]
ARM GAS  C:\Users\mathi\AppData\Local\Temp\cceGBsvt.s 			page 56


 3136 0044 9A42     		cmp	r2, r3
 3137 0046 02D1     		bne	.L246
 3138 0048 02B0     		add	sp, sp, #8
 3139              		.cfi_remember_state
 3140              		.cfi_def_cfa_offset 24
 3141              		@ sp needed
 3142 004a BDE8F081 		pop	{r4, r5, r6, r7, r8, pc}
 3143              	.L246:
 3144              		.cfi_restore_state
 3145 004e FFF7FEFF 		bl	__stack_chk_fail
 3146              	.LVL286:
 3147              	.L248:
 3148 0052 00BF     		.align	2
 3149              	.L247:
 3150 0054 00000000 		.word	.LANCHOR11
 3151 0058 00000000 		.word	__stack_chk_guard
 3152              		.cfi_endproc
 3153              	.LFE240:
 3154              		.size	chThdDequeueAllI, .-chThdDequeueAllI
 3155              		.section	.rodata.__func__.7153,"a",%progbits
 3156              		.align	2
 3157              		.set	.LANCHOR1,. + 0
 3158              		.type	__func__.7153, %object
 3159              		.size	__func__.7153, 12
 3160              	__func__.7153:
 3161 0000 63685379 		.ascii	"chSysUnlock\000"
 3161      73556E6C 
 3161      6F636B00 
 3162              		.section	.rodata.__func__.7320,"a",%progbits
 3163              		.align	2
 3164              		.set	.LANCHOR2,. + 0
 3165              		.type	__func__.7320, %object
 3166              		.size	__func__.7320, 12
 3167              	__func__.7320:
 3168 0000 63685468 		.ascii	"chThdStartI\000"
 3168      64537461 
 3168      72744900 
 3169              		.section	.rodata.__func__.7324,"a",%progbits
 3170              		.align	2
 3171              		.set	.LANCHOR4,. + 0
 3172              		.type	__func__.7324, %object
 3173              		.size	__func__.7324, 12
 3174              	__func__.7324:
 3175 0000 63685468 		.ascii	"chThdSleepS\000"
 3175      64536C65 
 3175      65705300 
 3176              		.section	.rodata.__func__.7336,"a",%progbits
 3177              		.align	2
 3178              		.set	.LANCHOR11,. + 0
 3179              		.type	__func__.7336, %object
 3180              		.size	__func__.7336, 20
 3181              	__func__.7336:
 3182 0000 63685468 		.ascii	"chThdDoDequeueNextI\000"
 3182      64446F44 
 3182      65717565 
 3182      75654E65 
 3182      78744900 
ARM GAS  C:\Users\mathi\AppData\Local\Temp\cceGBsvt.s 			page 57


 3183              		.section	.rodata.__func__.7866,"a",%progbits
 3184              		.align	2
 3185              		.set	.LANCHOR0,. + 0
 3186              		.type	__func__.7866, %object
 3187              		.size	__func__.7866, 13
 3188              	__func__.7866:
 3189 0000 63685468 		.ascii	"chThdCreateI\000"
 3189      64437265 
 3189      61746549 
 3189      00
 3190              		.section	.rodata.__func__.7882,"a",%progbits
 3191              		.align	2
 3192              		.set	.LANCHOR3,. + 0
 3193              		.type	__func__.7882, %object
 3194              		.size	__func__.7882, 17
 3195              	__func__.7882:
 3196 0000 63685468 		.ascii	"chThdSetPriority\000"
 3196      64536574 
 3196      5072696F 
 3196      72697479 
 3196      00
 3197              		.section	.rodata.__func__.7910,"a",%progbits
 3198              		.align	2
 3199              		.set	.LANCHOR5,. + 0
 3200              		.type	__func__.7910, %object
 3201              		.size	__func__.7910, 11
 3202              	__func__.7910:
 3203 0000 63685468 		.ascii	"chThdExitS\000"
 3203      64457869 
 3203      745300
 3204              		.section	.rodata.__func__.7915,"a",%progbits
 3205              		.align	2
 3206              		.set	.LANCHOR6,. + 0
 3207              		.type	__func__.7915, %object
 3208              		.size	__func__.7915, 10
 3209              	__func__.7915:
 3210 0000 63685468 		.ascii	"chThdWait\000"
 3210      64576169 
 3210      7400
 3211              		.section	.rodata.__func__.7920,"a",%progbits
 3212              		.align	2
 3213              		.set	.LANCHOR7,. + 0
 3214              		.type	__func__.7920, %object
 3215              		.size	__func__.7920, 14
 3216              	__func__.7920:
 3217 0000 63685468 		.ascii	"chThdSuspendS\000"
 3217      64537573 
 3217      70656E64 
 3217      5300
 3218              		.section	.rodata.__func__.7926,"a",%progbits
 3219              		.align	2
 3220              		.set	.LANCHOR8,. + 0
 3221              		.type	__func__.7926, %object
 3222              		.size	__func__.7926, 21
 3223              	__func__.7926:
 3224 0000 63685468 		.ascii	"chThdSuspendTimeoutS\000"
 3224      64537573 
ARM GAS  C:\Users\mathi\AppData\Local\Temp\cceGBsvt.s 			page 58


 3224      70656E64 
 3224      54696D65 
 3224      6F757453 
 3225              		.section	.rodata.__func__.7932,"a",%progbits
 3226              		.align	2
 3227              		.set	.LANCHOR9,. + 0
 3228              		.type	__func__.7932, %object
 3229              		.size	__func__.7932, 13
 3230              	__func__.7932:
 3231 0000 63685468 		.ascii	"chThdResumeI\000"
 3231      64526573 
 3231      756D6549 
 3231      00
 3232              		.section	.rodata.__func__.7938,"a",%progbits
 3233              		.align	2
 3234              		.set	.LANCHOR10,. + 0
 3235              		.type	__func__.7938, %object
 3236              		.size	__func__.7938, 13
 3237              	__func__.7938:
 3238 0000 63685468 		.ascii	"chThdResumeS\000"
 3238      64526573 
 3238      756D6553 
 3238      00
 3239              		.text
 3240              	.Letext0:
 3241              		.file 7 "c:\\eclipse_e-puck2\\tools\\gcc-arm-none-eabi-7-2017-q4-major-win32\\lib\\gcc\\arm-none-e
 3242              		.file 8 "c:\\eclipse_e-puck2\\tools\\gcc-arm-none-eabi-7-2017-q4-major-win32\\arm-none-eabi\\inclu
 3243              		.file 9 "c:\\eclipse_e-puck2\\tools\\gcc-arm-none-eabi-7-2017-q4-major-win32\\arm-none-eabi\\inclu
 3244              		.file 10 "../../lib/e-puck2_main-processor/ChibiOS//os/rt/ports/ARMCMx/compilers/GCC/chtypes.h"
 3245              		.file 11 "../../lib/e-puck2_main-processor/ChibiOS//os/rt/include/chsystypes.h"
 3246              		.file 12 "../../lib/e-puck2_main-processor/ChibiOS//os/ext/CMSIS/include/core_cm4.h"
 3247              		.file 13 "../../lib/e-puck2_main-processor/ChibiOS//os/ext/CMSIS/ST/system_stm32f4xx.h"
 3248              		.file 14 "../../lib/e-puck2_main-processor/ChibiOS//os/rt/ports/ARMCMx/chcore.h"
 3249              		.file 15 "../../lib/e-puck2_main-processor/ChibiOS//os/rt/ports/ARMCMx/chcore_v7m.h"
 3250              		.file 16 "../../lib/e-puck2_main-processor/ChibiOS//os/rt/include/chdebug.h"
 3251              		.file 17 "../../lib/e-puck2_main-processor/ChibiOS//os/rt/include/chtm.h"
 3252              		.file 18 "../../lib/e-puck2_main-processor/ChibiOS//os/rt/include/chstats.h"
 3253              		.file 19 "../../lib/e-puck2_main-processor/ChibiOS//os/rt/include/chsem.h"
 3254              		.file 20 "../../lib/e-puck2_main-processor/ChibiOS//os/rt/include/chmtx.h"
 3255              		.file 21 "../../lib/e-puck2_main-processor/ChibiOS//os/rt/include/chregistry.h"
 3256              		.file 22 "../../lib/e-puck2_main-processor/ChibiOS//os/rt/include/chdynamic.h"
 3257              		.file 23 "<built-in>"
 3258              		.section	.debug_info,"",%progbits
 3259              	.Ldebug_info0:
 3260 0000 C5250000 		.4byte	0x25c5
 3261 0004 0400     		.2byte	0x4
 3262 0006 00000000 		.4byte	.Ldebug_abbrev0
 3263 000a 04       		.byte	0x4
 3264 000b 01       		.uleb128 0x1
 3265 000c 23050000 		.4byte	.LASF231
 3266 0010 0C       		.byte	0xc
 3267 0011 2E0A0000 		.4byte	.LASF232
 3268 0015 4D020000 		.4byte	.LASF233
 3269 0019 48030000 		.4byte	.Ldebug_ranges0+0x348
 3270 001d 00000000 		.4byte	0
 3271 0021 00000000 		.4byte	.Ldebug_line0
 3272 0025 02       		.uleb128 0x2
ARM GAS  C:\Users\mathi\AppData\Local\Temp\cceGBsvt.s 			page 59


 3273 0026 04       		.byte	0x4
 3274 0027 05       		.byte	0x5
 3275 0028 696E7400 		.ascii	"int\000"
 3276 002c 03       		.uleb128 0x3
 3277 002d 08000000 		.4byte	.LASF4
 3278 0031 07       		.byte	0x7
 3279 0032 D8       		.byte	0xd8
 3280 0033 37000000 		.4byte	0x37
 3281 0037 04       		.uleb128 0x4
 3282 0038 04       		.byte	0x4
 3283 0039 07       		.byte	0x7
 3284 003a B8070000 		.4byte	.LASF0
 3285 003e 04       		.uleb128 0x4
 3286 003f 08       		.byte	0x8
 3287 0040 05       		.byte	0x5
 3288 0041 F4060000 		.4byte	.LASF1
 3289 0045 04       		.uleb128 0x4
 3290 0046 08       		.byte	0x8
 3291 0047 04       		.byte	0x4
 3292 0048 7A080000 		.4byte	.LASF2
 3293 004c 04       		.uleb128 0x4
 3294 004d 01       		.byte	0x1
 3295 004e 06       		.byte	0x6
 3296 004f E0020000 		.4byte	.LASF3
 3297 0053 03       		.uleb128 0x3
 3298 0054 7C010000 		.4byte	.LASF5
 3299 0058 08       		.byte	0x8
 3300 0059 2B       		.byte	0x2b
 3301 005a 5E000000 		.4byte	0x5e
 3302 005e 04       		.uleb128 0x4
 3303 005f 01       		.byte	0x1
 3304 0060 08       		.byte	0x8
 3305 0061 18030000 		.4byte	.LASF6
 3306 0065 04       		.uleb128 0x4
 3307 0066 02       		.byte	0x2
 3308 0067 05       		.byte	0x5
 3309 0068 BF0A0000 		.4byte	.LASF7
 3310 006c 03       		.uleb128 0x3
 3311 006d 9F030000 		.4byte	.LASF8
 3312 0071 08       		.byte	0x8
 3313 0072 39       		.byte	0x39
 3314 0073 77000000 		.4byte	0x77
 3315 0077 04       		.uleb128 0x4
 3316 0078 02       		.byte	0x2
 3317 0079 07       		.byte	0x7
 3318 007a B20B0000 		.4byte	.LASF9
 3319 007e 03       		.uleb128 0x3
 3320 007f FC0B0000 		.4byte	.LASF10
 3321 0083 08       		.byte	0x8
 3322 0084 4D       		.byte	0x4d
 3323 0085 89000000 		.4byte	0x89
 3324 0089 04       		.uleb128 0x4
 3325 008a 04       		.byte	0x4
 3326 008b 05       		.byte	0x5
 3327 008c B1010000 		.4byte	.LASF11
 3328 0090 03       		.uleb128 0x3
 3329 0091 D8060000 		.4byte	.LASF12
ARM GAS  C:\Users\mathi\AppData\Local\Temp\cceGBsvt.s 			page 60


 3330 0095 08       		.byte	0x8
 3331 0096 4F       		.byte	0x4f
 3332 0097 9B000000 		.4byte	0x9b
 3333 009b 04       		.uleb128 0x4
 3334 009c 04       		.byte	0x4
 3335 009d 07       		.byte	0x7
 3336 009e 9E040000 		.4byte	.LASF13
 3337 00a2 03       		.uleb128 0x3
 3338 00a3 87040000 		.4byte	.LASF14
 3339 00a7 08       		.byte	0x8
 3340 00a8 69       		.byte	0x69
 3341 00a9 AD000000 		.4byte	0xad
 3342 00ad 04       		.uleb128 0x4
 3343 00ae 08       		.byte	0x8
 3344 00af 07       		.byte	0x7
 3345 00b0 13090000 		.4byte	.LASF15
 3346 00b4 03       		.uleb128 0x3
 3347 00b5 F6020000 		.4byte	.LASF16
 3348 00b9 09       		.byte	0x9
 3349 00ba 18       		.byte	0x18
 3350 00bb 53000000 		.4byte	0x53
 3351 00bf 03       		.uleb128 0x3
 3352 00c0 32090000 		.4byte	.LASF17
 3353 00c4 09       		.byte	0x9
 3354 00c5 24       		.byte	0x24
 3355 00c6 6C000000 		.4byte	0x6c
 3356 00ca 03       		.uleb128 0x3
 3357 00cb 73000000 		.4byte	.LASF18
 3358 00cf 09       		.byte	0x9
 3359 00d0 2C       		.byte	0x2c
 3360 00d1 7E000000 		.4byte	0x7e
 3361 00d5 05       		.uleb128 0x5
 3362 00d6 CA000000 		.4byte	0xca
 3363 00da 03       		.uleb128 0x3
 3364 00db A20B0000 		.4byte	.LASF19
 3365 00df 09       		.byte	0x9
 3366 00e0 30       		.byte	0x30
 3367 00e1 90000000 		.4byte	0x90
 3368 00e5 03       		.uleb128 0x3
 3369 00e6 C90A0000 		.4byte	.LASF20
 3370 00ea 09       		.byte	0x9
 3371 00eb 3C       		.byte	0x3c
 3372 00ec A2000000 		.4byte	0xa2
 3373 00f0 03       		.uleb128 0x3
 3374 00f1 DD070000 		.4byte	.LASF21
 3375 00f5 0A       		.byte	0xa
 3376 00f6 45       		.byte	0x45
 3377 00f7 DA000000 		.4byte	0xda
 3378 00fb 03       		.uleb128 0x3
 3379 00fc 10020000 		.4byte	.LASF22
 3380 0100 0A       		.byte	0xa
 3381 0101 46       		.byte	0x46
 3382 0102 E5000000 		.4byte	0xe5
 3383 0106 03       		.uleb128 0x3
 3384 0107 740A0000 		.4byte	.LASF23
 3385 010b 0A       		.byte	0xa
 3386 010c 48       		.byte	0x48
ARM GAS  C:\Users\mathi\AppData\Local\Temp\cceGBsvt.s 			page 61


 3387 010d B4000000 		.4byte	0xb4
 3388 0111 03       		.uleb128 0x3
 3389 0112 07020000 		.4byte	.LASF24
 3390 0116 0A       		.byte	0xa
 3391 0117 49       		.byte	0x49
 3392 0118 B4000000 		.4byte	0xb4
 3393 011c 03       		.uleb128 0x3
 3394 011d 510B0000 		.4byte	.LASF25
 3395 0121 0A       		.byte	0xa
 3396 0122 4A       		.byte	0x4a
 3397 0123 B4000000 		.4byte	0xb4
 3398 0127 03       		.uleb128 0x3
 3399 0128 5F090000 		.4byte	.LASF26
 3400 012c 0A       		.byte	0xa
 3401 012d 4B       		.byte	0x4b
 3402 012e B4000000 		.4byte	0xb4
 3403 0132 03       		.uleb128 0x3
 3404 0133 40000000 		.4byte	.LASF27
 3405 0137 0A       		.byte	0xa
 3406 0138 4C       		.byte	0x4c
 3407 0139 DA000000 		.4byte	0xda
 3408 013d 03       		.uleb128 0x3
 3409 013e 3B090000 		.4byte	.LASF28
 3410 0142 0A       		.byte	0xa
 3411 0143 4D       		.byte	0x4d
 3412 0144 CA000000 		.4byte	0xca
 3413 0148 03       		.uleb128 0x3
 3414 0149 FE020000 		.4byte	.LASF29
 3415 014d 0A       		.byte	0xa
 3416 014e 4F       		.byte	0x4f
 3417 014f DA000000 		.4byte	0xda
 3418 0153 03       		.uleb128 0x3
 3419 0154 09040000 		.4byte	.LASF30
 3420 0158 0A       		.byte	0xa
 3421 0159 51       		.byte	0x51
 3422 015a CA000000 		.4byte	0xca
 3423 015e 03       		.uleb128 0x3
 3424 015f 1C050000 		.4byte	.LASF31
 3425 0163 0A       		.byte	0xa
 3426 0164 52       		.byte	0x52
 3427 0165 DA000000 		.4byte	0xda
 3428 0169 03       		.uleb128 0x3
 3429 016a 22000000 		.4byte	.LASF32
 3430 016e 0B       		.byte	0xb
 3431 016f 33       		.byte	0x33
 3432 0170 DA000000 		.4byte	0xda
 3433 0174 05       		.uleb128 0x5
 3434 0175 69010000 		.4byte	0x169
 3435 0179 03       		.uleb128 0x3
 3436 017a 71080000 		.4byte	.LASF33
 3437 017e 0B       		.byte	0xb
 3438 017f 3F       		.byte	0x3f
 3439 0180 84010000 		.4byte	0x184
 3440 0184 06       		.uleb128 0x6
 3441 0185 DF040000 		.4byte	.LASF57
 3442 0189 68       		.byte	0x68
 3443 018a 02       		.byte	0x2
ARM GAS  C:\Users\mathi\AppData\Local\Temp\cceGBsvt.s 			page 62


 3444 018b C2       		.byte	0xc2
 3445 018c A2020000 		.4byte	0x2a2
 3446 0190 07       		.uleb128 0x7
 3447 0191 BA010000 		.4byte	.LASF34
 3448 0195 02       		.byte	0x2
 3449 0196 C3       		.byte	0xc3
 3450 0197 AD020000 		.4byte	0x2ad
 3451 019b 00       		.byte	0
 3452 019c 07       		.uleb128 0x7
 3453 019d EF010000 		.4byte	.LASF35
 3454 01a1 02       		.byte	0x2
 3455 01a2 C5       		.byte	0xc5
 3456 01a3 AD020000 		.4byte	0x2ad
 3457 01a7 04       		.byte	0x4
 3458 01a8 07       		.uleb128 0x7
 3459 01a9 98030000 		.4byte	.LASF36
 3460 01ad 02       		.byte	0x2
 3461 01ae C7       		.byte	0xc7
 3462 01af 32010000 		.4byte	0x132
 3463 01b3 08       		.byte	0x8
 3464 01b4 07       		.uleb128 0x7
 3465 01b5 3A000000 		.4byte	.LASF37
 3466 01b9 02       		.byte	0x2
 3467 01ba C8       		.byte	0xc8
 3468 01bb 2B050000 		.4byte	0x52b
 3469 01bf 0C       		.byte	0xc
 3470 01c0 07       		.uleb128 0x7
 3471 01c1 A9010000 		.4byte	.LASF38
 3472 01c5 02       		.byte	0x2
 3473 01c6 CA       		.byte	0xca
 3474 01c7 AD020000 		.4byte	0x2ad
 3475 01cb 10       		.byte	0x10
 3476 01cc 07       		.uleb128 0x7
 3477 01cd 2A090000 		.4byte	.LASF39
 3478 01d1 02       		.byte	0x2
 3479 01d2 CB       		.byte	0xcb
 3480 01d3 AD020000 		.4byte	0x2ad
 3481 01d7 14       		.byte	0x14
 3482 01d8 07       		.uleb128 0x7
 3483 01d9 0E0C0000 		.4byte	.LASF40
 3484 01dd 02       		.byte	0x2
 3485 01de D2       		.byte	0xd2
 3486 01df A1080000 		.4byte	0x8a1
 3487 01e3 18       		.byte	0x18
 3488 01e4 07       		.uleb128 0x7
 3489 01e5 F10B0000 		.4byte	.LASF41
 3490 01e9 02       		.byte	0x2
 3491 01ea D8       		.byte	0xd8
 3492 01eb B8080000 		.4byte	0x8b8
 3493 01ef 1C       		.byte	0x1c
 3494 01f0 07       		.uleb128 0x7
 3495 01f1 3F0C0000 		.4byte	.LASF42
 3496 01f5 02       		.byte	0x2
 3497 01f6 DD       		.byte	0xdd
 3498 01f7 11010000 		.4byte	0x111
 3499 01fb 20       		.byte	0x20
 3500 01fc 07       		.uleb128 0x7
ARM GAS  C:\Users\mathi\AppData\Local\Temp\cceGBsvt.s 			page 63


 3501 01fd A1070000 		.4byte	.LASF43
 3502 0201 02       		.byte	0x2
 3503 0202 E1       		.byte	0xe1
 3504 0203 06010000 		.4byte	0x106
 3505 0207 21       		.byte	0x21
 3506 0208 07       		.uleb128 0x7
 3507 0209 ED070000 		.4byte	.LASF44
 3508 020d 02       		.byte	0x2
 3509 020e E6       		.byte	0xe6
 3510 020f 1C010000 		.4byte	0x11c
 3511 0213 22       		.byte	0x22
 3512 0214 07       		.uleb128 0x7
 3513 0215 EC020000 		.4byte	.LASF45
 3514 0219 02       		.byte	0x2
 3515 021a EC       		.byte	0xec
 3516 021b 27010000 		.4byte	0x127
 3517 021f 23       		.byte	0x23
 3518 0220 07       		.uleb128 0x7
 3519 0221 35080000 		.4byte	.LASF46
 3520 0225 02       		.byte	0x2
 3521 0226 F3       		.byte	0xf3
 3522 0227 74010000 		.4byte	0x174
 3523 022b 24       		.byte	0x24
 3524 022c 08       		.uleb128 0x8
 3525 022d 705F7500 		.ascii	"p_u\000"
 3526 0231 02       		.byte	0x2
 3527 0232 3101     		.2byte	0x131
 3528 0234 D0070000 		.4byte	0x7d0
 3529 0238 28       		.byte	0x28
 3530 0239 09       		.uleb128 0x9
 3531 023a 8D070000 		.4byte	.LASF47
 3532 023e 02       		.byte	0x2
 3533 023f 3601     		.2byte	0x136
 3534 0241 B3020000 		.4byte	0x2b3
 3535 0245 2C       		.byte	0x2c
 3536 0246 09       		.uleb128 0x9
 3537 0247 62000000 		.4byte	.LASF48
 3538 024b 02       		.byte	0x2
 3539 024c 3C01     		.2byte	0x13c
 3540 024e D7020000 		.4byte	0x2d7
 3541 0252 30       		.byte	0x30
 3542 0253 09       		.uleb128 0x9
 3543 0254 390C0000 		.4byte	.LASF49
 3544 0258 02       		.byte	0x2
 3545 0259 4001     		.2byte	0x140
 3546 025b 3D010000 		.4byte	0x13d
 3547 025f 38       		.byte	0x38
 3548 0260 09       		.uleb128 0x9
 3549 0261 34040000 		.4byte	.LASF50
 3550 0265 02       		.byte	0x2
 3551 0266 4601     		.2byte	0x146
 3552 0268 48010000 		.4byte	0x148
 3553 026c 3C       		.byte	0x3c
 3554 026d 09       		.uleb128 0x9
 3555 026e 29020000 		.4byte	.LASF51
 3556 0272 02       		.byte	0x2
 3557 0273 4D01     		.2byte	0x14d
ARM GAS  C:\Users\mathi\AppData\Local\Temp\cceGBsvt.s 			page 64


 3558 0275 9B080000 		.4byte	0x89b
 3559 0279 40       		.byte	0x40
 3560 027a 09       		.uleb128 0x9
 3561 027b AC080000 		.4byte	.LASF52
 3562 027f 02       		.byte	0x2
 3563 0280 5101     		.2byte	0x151
 3564 0282 32010000 		.4byte	0x132
 3565 0286 44       		.byte	0x44
 3566 0287 09       		.uleb128 0x9
 3567 0288 E5070000 		.4byte	.LASF53
 3568 028c 02       		.byte	0x2
 3569 028d 5801     		.2byte	0x158
 3570 028f 8F030000 		.4byte	0x38f
 3571 0293 48       		.byte	0x48
 3572 0294 09       		.uleb128 0x9
 3573 0295 00000000 		.4byte	.LASF54
 3574 0299 02       		.byte	0x2
 3575 029a 5E01     		.2byte	0x15e
 3576 029c 81070000 		.4byte	0x781
 3577 02a0 50       		.byte	0x50
 3578 02a1 00       		.byte	0
 3579 02a2 03       		.uleb128 0x3
 3580 02a3 86080000 		.4byte	.LASF55
 3581 02a7 0B       		.byte	0xb
 3582 02a8 44       		.byte	0x44
 3583 02a9 AD020000 		.4byte	0x2ad
 3584 02ad 0A       		.uleb128 0xa
 3585 02ae 04       		.byte	0x4
 3586 02af 79010000 		.4byte	0x179
 3587 02b3 03       		.uleb128 0x3
 3588 02b4 7E0B0000 		.4byte	.LASF56
 3589 02b8 0B       		.byte	0xb
 3590 02b9 49       		.byte	0x49
 3591 02ba BE020000 		.4byte	0x2be
 3592 02be 06       		.uleb128 0x6
 3593 02bf 79060000 		.4byte	.LASF58
 3594 02c3 04       		.byte	0x4
 3595 02c4 02       		.byte	0x2
 3596 02c5 B0       		.byte	0xb0
 3597 02c6 D7020000 		.4byte	0x2d7
 3598 02ca 07       		.uleb128 0x7
 3599 02cb BA010000 		.4byte	.LASF34
 3600 02cf 02       		.byte	0x2
 3601 02d0 B1       		.byte	0xb1
 3602 02d1 AD020000 		.4byte	0x2ad
 3603 02d5 00       		.byte	0
 3604 02d6 00       		.byte	0
 3605 02d7 03       		.uleb128 0x3
 3606 02d8 19020000 		.4byte	.LASF59
 3607 02dc 0B       		.byte	0xb
 3608 02dd 50       		.byte	0x50
 3609 02de E7020000 		.4byte	0x2e7
 3610 02e2 0B       		.uleb128 0xb
 3611 02e3 D7020000 		.4byte	0x2d7
 3612 02e7 06       		.uleb128 0x6
 3613 02e8 41090000 		.4byte	.LASF60
 3614 02ec 08       		.byte	0x8
ARM GAS  C:\Users\mathi\AppData\Local\Temp\cceGBsvt.s 			page 65


 3615 02ed 02       		.byte	0x2
 3616 02ee B7       		.byte	0xb7
 3617 02ef 0C030000 		.4byte	0x30c
 3618 02f3 07       		.uleb128 0x7
 3619 02f4 BA010000 		.4byte	.LASF34
 3620 02f8 02       		.byte	0x2
 3621 02f9 B8       		.byte	0xb8
 3622 02fa AD020000 		.4byte	0x2ad
 3623 02fe 00       		.byte	0
 3624 02ff 07       		.uleb128 0x7
 3625 0300 EF010000 		.4byte	.LASF35
 3626 0304 02       		.byte	0x2
 3627 0305 B9       		.byte	0xb9
 3628 0306 AD020000 		.4byte	0x2ad
 3629 030a 04       		.byte	0x4
 3630 030b 00       		.byte	0
 3631 030c 03       		.uleb128 0x3
 3632 030d 0F050000 		.4byte	.LASF61
 3633 0311 0B       		.byte	0xb
 3634 0312 57       		.byte	0x57
 3635 0313 17030000 		.4byte	0x317
 3636 0317 0C       		.uleb128 0xc
 3637 0318 46040000 		.4byte	.LASF62
 3638 031c 1C       		.byte	0x1c
 3639 031d 02       		.byte	0x2
 3640 031e 9001     		.2byte	0x190
 3641 0320 73030000 		.4byte	0x373
 3642 0324 09       		.uleb128 0x9
 3643 0325 FF090000 		.4byte	.LASF63
 3644 0329 02       		.byte	0x2
 3645 032a 9101     		.2byte	0x191
 3646 032c D7020000 		.4byte	0x2d7
 3647 0330 00       		.byte	0
 3648 0331 09       		.uleb128 0x9
 3649 0332 EF0A0000 		.4byte	.LASF64
 3650 0336 02       		.byte	0x2
 3651 0337 9201     		.2byte	0x192
 3652 0339 32010000 		.4byte	0x132
 3653 033d 08       		.byte	0x8
 3654 033e 09       		.uleb128 0x9
 3655 033f 6D000000 		.4byte	.LASF65
 3656 0343 02       		.byte	0x2
 3657 0344 9401     		.2byte	0x194
 3658 0346 2B050000 		.4byte	0x52b
 3659 034a 0C       		.byte	0xc
 3660 034b 09       		.uleb128 0x9
 3661 034c 4C030000 		.4byte	.LASF66
 3662 0350 02       		.byte	0x2
 3663 0351 9701     		.2byte	0x197
 3664 0353 AD020000 		.4byte	0x2ad
 3665 0357 10       		.byte	0x10
 3666 0358 09       		.uleb128 0x9
 3667 0359 870A0000 		.4byte	.LASF67
 3668 035d 02       		.byte	0x2
 3669 035e 9801     		.2byte	0x198
 3670 0360 AD020000 		.4byte	0x2ad
 3671 0364 14       		.byte	0x14
ARM GAS  C:\Users\mathi\AppData\Local\Temp\cceGBsvt.s 			page 66


 3672 0365 09       		.uleb128 0x9
 3673 0366 69090000 		.4byte	.LASF68
 3674 036a 02       		.byte	0x2
 3675 036b 9B01     		.2byte	0x19b
 3676 036d AD020000 		.4byte	0x2ad
 3677 0371 18       		.byte	0x18
 3678 0372 00       		.byte	0
 3679 0373 03       		.uleb128 0x3
 3680 0374 B0000000 		.4byte	.LASF69
 3681 0378 0B       		.byte	0xb
 3682 0379 5C       		.byte	0x5c
 3683 037a 7E030000 		.4byte	0x37e
 3684 037e 0A       		.uleb128 0xa
 3685 037f 04       		.byte	0x4
 3686 0380 84030000 		.4byte	0x384
 3687 0384 0D       		.uleb128 0xd
 3688 0385 8F030000 		.4byte	0x38f
 3689 0389 0E       		.uleb128 0xe
 3690 038a 8F030000 		.4byte	0x38f
 3691 038e 00       		.byte	0
 3692 038f 0F       		.uleb128 0xf
 3693 0390 04       		.byte	0x4
 3694 0391 03       		.uleb128 0x3
 3695 0392 FF040000 		.4byte	.LASF70
 3696 0396 0B       		.byte	0xb
 3697 0397 61       		.byte	0x61
 3698 0398 9C030000 		.4byte	0x39c
 3699 039c 0C       		.uleb128 0xc
 3700 039d EA080000 		.4byte	.LASF71
 3701 03a1 14       		.byte	0x14
 3702 03a2 02       		.byte	0x2
 3703 03a3 6B01     		.2byte	0x16b
 3704 03a5 EB030000 		.4byte	0x3eb
 3705 03a9 09       		.uleb128 0x9
 3706 03aa 15070000 		.4byte	.LASF72
 3707 03ae 02       		.byte	0x2
 3708 03af 6C01     		.2byte	0x16c
 3709 03b1 BE080000 		.4byte	0x8be
 3710 03b5 00       		.byte	0
 3711 03b6 09       		.uleb128 0x9
 3712 03b7 28070000 		.4byte	.LASF73
 3713 03bb 02       		.byte	0x2
 3714 03bc 6D01     		.2byte	0x16d
 3715 03be BE080000 		.4byte	0x8be
 3716 03c2 04       		.byte	0x4
 3717 03c3 09       		.uleb128 0x9
 3718 03c4 CF080000 		.4byte	.LASF74
 3719 03c8 02       		.byte	0x2
 3720 03c9 6E01     		.2byte	0x16e
 3721 03cb 69010000 		.4byte	0x169
 3722 03cf 08       		.byte	0x8
 3723 03d0 09       		.uleb128 0x9
 3724 03d1 1A040000 		.4byte	.LASF75
 3725 03d5 02       		.byte	0x2
 3726 03d6 6F01     		.2byte	0x16f
 3727 03d8 73030000 		.4byte	0x373
 3728 03dc 0C       		.byte	0xc
ARM GAS  C:\Users\mathi\AppData\Local\Temp\cceGBsvt.s 			page 67


 3729 03dd 09       		.uleb128 0x9
 3730 03de 6C010000 		.4byte	.LASF76
 3731 03e2 02       		.byte	0x2
 3732 03e3 7101     		.2byte	0x171
 3733 03e5 8F030000 		.4byte	0x38f
 3734 03e9 10       		.byte	0x10
 3735 03ea 00       		.byte	0
 3736 03eb 03       		.uleb128 0x3
 3737 03ec E9040000 		.4byte	.LASF77
 3738 03f0 0B       		.byte	0xb
 3739 03f1 66       		.byte	0x66
 3740 03f2 F6030000 		.4byte	0x3f6
 3741 03f6 0C       		.uleb128 0xc
 3742 03f7 C6000000 		.4byte	.LASF78
 3743 03fb 10       		.byte	0x10
 3744 03fc 02       		.byte	0x2
 3745 03fd 7B01     		.2byte	0x17b
 3746 03ff 38040000 		.4byte	0x438
 3747 0403 09       		.uleb128 0x9
 3748 0404 15070000 		.4byte	.LASF72
 3749 0408 02       		.byte	0x2
 3750 0409 7C01     		.2byte	0x17c
 3751 040b BE080000 		.4byte	0x8be
 3752 040f 00       		.byte	0
 3753 0410 09       		.uleb128 0x9
 3754 0411 28070000 		.4byte	.LASF73
 3755 0415 02       		.byte	0x2
 3756 0416 7E01     		.2byte	0x17e
 3757 0418 BE080000 		.4byte	0x8be
 3758 041c 04       		.byte	0x4
 3759 041d 09       		.uleb128 0x9
 3760 041e CF080000 		.4byte	.LASF74
 3761 0422 02       		.byte	0x2
 3762 0423 8001     		.2byte	0x180
 3763 0425 69010000 		.4byte	0x169
 3764 0429 08       		.byte	0x8
 3765 042a 09       		.uleb128 0x9
 3766 042b 7C0A0000 		.4byte	.LASF79
 3767 042f 02       		.byte	0x2
 3768 0430 8201     		.2byte	0x182
 3769 0432 74010000 		.4byte	0x174
 3770 0436 0C       		.byte	0xc
 3771 0437 00       		.byte	0
 3772 0438 03       		.uleb128 0x3
 3773 0439 54030000 		.4byte	.LASF80
 3774 043d 0B       		.byte	0xb
 3775 043e 6B       		.byte	0x6b
 3776 043f 43040000 		.4byte	0x443
 3777 0443 10       		.uleb128 0x10
 3778 0444 F60A0000 		.4byte	.LASF81
 3779 0448 1404     		.2byte	0x414
 3780 044a 02       		.byte	0x2
 3781 044b A201     		.2byte	0x1a2
 3782 044d 86040000 		.4byte	0x486
 3783 0451 09       		.uleb128 0x9
 3784 0452 35030000 		.4byte	.LASF82
 3785 0456 02       		.byte	0x2
ARM GAS  C:\Users\mathi\AppData\Local\Temp\cceGBsvt.s 			page 68


 3786 0457 AA01     		.2byte	0x1aa
 3787 0459 A7080000 		.4byte	0x8a7
 3788 045d 00       		.byte	0
 3789 045e 09       		.uleb128 0x9
 3790 045f 54040000 		.4byte	.LASF83
 3791 0463 02       		.byte	0x2
 3792 0464 AF01     		.2byte	0x1af
 3793 0466 53010000 		.4byte	0x153
 3794 046a 04       		.byte	0x4
 3795 046b 09       		.uleb128 0x9
 3796 046c 04010000 		.4byte	.LASF84
 3797 0470 02       		.byte	0x2
 3798 0471 B301     		.2byte	0x1b3
 3799 0473 53010000 		.4byte	0x153
 3800 0477 08       		.byte	0x8
 3801 0478 09       		.uleb128 0x9
 3802 0479 3F030000 		.4byte	.LASF85
 3803 047d 02       		.byte	0x2
 3804 047e B901     		.2byte	0x1b9
 3805 0480 13070000 		.4byte	0x713
 3806 0484 0C       		.byte	0xc
 3807 0485 00       		.byte	0
 3808 0486 03       		.uleb128 0x3
 3809 0487 C50B0000 		.4byte	.LASF86
 3810 048b 0B       		.byte	0xb
 3811 048c 70       		.byte	0x70
 3812 048d 91040000 		.4byte	0x491
 3813 0491 10       		.uleb128 0x10
 3814 0492 8D0B0000 		.4byte	.LASF87
 3815 0496 7006     		.2byte	0x670
 3816 0498 02       		.byte	0x2
 3817 0499 C201     		.2byte	0x1c2
 3818 049b FE040000 		.4byte	0x4fe
 3819 049f 09       		.uleb128 0x9
 3820 04a0 6E0A0000 		.4byte	.LASF88
 3821 04a4 02       		.byte	0x2
 3822 04a5 C601     		.2byte	0x1c6
 3823 04a7 0C030000 		.4byte	0x30c
 3824 04ab 00       		.byte	0
 3825 04ac 09       		.uleb128 0x9
 3826 04ad 1E0B0000 		.4byte	.LASF89
 3827 04b1 02       		.byte	0x2
 3828 04b2 CA01     		.2byte	0x1ca
 3829 04b4 EB030000 		.4byte	0x3eb
 3830 04b8 1C       		.byte	0x1c
 3831 04b9 08       		.uleb128 0x8
 3832 04ba 64626700 		.ascii	"dbg\000"
 3833 04be 02       		.byte	0x2
 3834 04bf CE01     		.2byte	0x1ce
 3835 04c1 38040000 		.4byte	0x438
 3836 04c5 2C       		.byte	0x2c
 3837 04c6 11       		.uleb128 0x11
 3838 04c7 B9090000 		.4byte	.LASF90
 3839 04cb 02       		.byte	0x2
 3840 04cc D201     		.2byte	0x1d2
 3841 04ce 79010000 		.4byte	0x179
 3842 04d2 4004     		.2byte	0x440
ARM GAS  C:\Users\mathi\AppData\Local\Temp\cceGBsvt.s 			page 69


 3843 04d4 12       		.uleb128 0x12
 3844 04d5 746D00   		.ascii	"tm\000"
 3845 04d8 02       		.byte	0x2
 3846 04d9 D701     		.2byte	0x1d7
 3847 04db 33070000 		.4byte	0x733
 3848 04df A804     		.2byte	0x4a8
 3849 04e1 11       		.uleb128 0x11
 3850 04e2 01090000 		.4byte	.LASF91
 3851 04e6 02       		.byte	0x2
 3852 04e7 DD01     		.2byte	0x1dd
 3853 04e9 C5070000 		.4byte	0x7c5
 3854 04ed B004     		.2byte	0x4b0
 3855 04ef 11       		.uleb128 0x11
 3856 04f0 A9070000 		.4byte	.LASF92
 3857 04f4 02       		.byte	0x2
 3858 04f5 E301     		.2byte	0x1e3
 3859 04f7 C4080000 		.4byte	0x8c4
 3860 04fb E804     		.2byte	0x4e8
 3861 04fd 00       		.byte	0
 3862 04fe 13       		.uleb128 0x13
 3863 04ff 52070000 		.4byte	.LASF93
 3864 0503 0C       		.byte	0xc
 3865 0504 A706     		.2byte	0x6a7
 3866 0506 D5000000 		.4byte	0xd5
 3867 050a 14       		.uleb128 0x14
 3868 050b C2040000 		.4byte	.LASF94
 3869 050f 0D       		.byte	0xd
 3870 0510 4C       		.byte	0x4c
 3871 0511 DA000000 		.4byte	0xda
 3872 0515 03       		.uleb128 0x3
 3873 0516 33020000 		.4byte	.LASF95
 3874 051a 0E       		.byte	0xe
 3875 051b 65       		.byte	0x65
 3876 051c 8F030000 		.4byte	0x38f
 3877 0520 03       		.uleb128 0x3
 3878 0521 C7030000 		.4byte	.LASF96
 3879 0525 0E       		.byte	0xe
 3880 0526 6D       		.byte	0x6d
 3881 0527 E5000000 		.4byte	0xe5
 3882 052b 06       		.uleb128 0x6
 3883 052c 0A030000 		.4byte	.LASF97
 3884 0530 04       		.byte	0x4
 3885 0531 0E       		.byte	0xe
 3886 0532 89       		.byte	0x89
 3887 0533 44050000 		.4byte	0x544
 3888 0537 15       		.uleb128 0x15
 3889 0538 72313300 		.ascii	"r13\000"
 3890 053c 0E       		.byte	0xe
 3891 053d 8A       		.byte	0x8a
 3892 053e 85060000 		.4byte	0x685
 3893 0542 00       		.byte	0
 3894 0543 00       		.byte	0
 3895 0544 06       		.uleb128 0x6
 3896 0545 B7080000 		.4byte	.LASF98
 3897 0549 64       		.byte	0x64
 3898 054a 0F       		.byte	0xf
 3899 054b F4       		.byte	0xf4
ARM GAS  C:\Users\mathi\AppData\Local\Temp\cceGBsvt.s 			page 70


 3900 054c 85060000 		.4byte	0x685
 3901 0550 15       		.uleb128 0x15
 3902 0551 73313600 		.ascii	"s16\000"
 3903 0555 0F       		.byte	0xf
 3904 0556 F6       		.byte	0xf6
 3905 0557 15050000 		.4byte	0x515
 3906 055b 00       		.byte	0
 3907 055c 15       		.uleb128 0x15
 3908 055d 73313700 		.ascii	"s17\000"
 3909 0561 0F       		.byte	0xf
 3910 0562 F7       		.byte	0xf7
 3911 0563 15050000 		.4byte	0x515
 3912 0567 04       		.byte	0x4
 3913 0568 15       		.uleb128 0x15
 3914 0569 73313800 		.ascii	"s18\000"
 3915 056d 0F       		.byte	0xf
 3916 056e F8       		.byte	0xf8
 3917 056f 15050000 		.4byte	0x515
 3918 0573 08       		.byte	0x8
 3919 0574 15       		.uleb128 0x15
 3920 0575 73313900 		.ascii	"s19\000"
 3921 0579 0F       		.byte	0xf
 3922 057a F9       		.byte	0xf9
 3923 057b 15050000 		.4byte	0x515
 3924 057f 0C       		.byte	0xc
 3925 0580 15       		.uleb128 0x15
 3926 0581 73323000 		.ascii	"s20\000"
 3927 0585 0F       		.byte	0xf
 3928 0586 FA       		.byte	0xfa
 3929 0587 15050000 		.4byte	0x515
 3930 058b 10       		.byte	0x10
 3931 058c 15       		.uleb128 0x15
 3932 058d 73323100 		.ascii	"s21\000"
 3933 0591 0F       		.byte	0xf
 3934 0592 FB       		.byte	0xfb
 3935 0593 15050000 		.4byte	0x515
 3936 0597 14       		.byte	0x14
 3937 0598 15       		.uleb128 0x15
 3938 0599 73323200 		.ascii	"s22\000"
 3939 059d 0F       		.byte	0xf
 3940 059e FC       		.byte	0xfc
 3941 059f 15050000 		.4byte	0x515
 3942 05a3 18       		.byte	0x18
 3943 05a4 15       		.uleb128 0x15
 3944 05a5 73323300 		.ascii	"s23\000"
 3945 05a9 0F       		.byte	0xf
 3946 05aa FD       		.byte	0xfd
 3947 05ab 15050000 		.4byte	0x515
 3948 05af 1C       		.byte	0x1c
 3949 05b0 15       		.uleb128 0x15
 3950 05b1 73323400 		.ascii	"s24\000"
 3951 05b5 0F       		.byte	0xf
 3952 05b6 FE       		.byte	0xfe
 3953 05b7 15050000 		.4byte	0x515
 3954 05bb 20       		.byte	0x20
 3955 05bc 15       		.uleb128 0x15
 3956 05bd 73323500 		.ascii	"s25\000"
ARM GAS  C:\Users\mathi\AppData\Local\Temp\cceGBsvt.s 			page 71


 3957 05c1 0F       		.byte	0xf
 3958 05c2 FF       		.byte	0xff
 3959 05c3 15050000 		.4byte	0x515
 3960 05c7 24       		.byte	0x24
 3961 05c8 08       		.uleb128 0x8
 3962 05c9 73323600 		.ascii	"s26\000"
 3963 05cd 0F       		.byte	0xf
 3964 05ce 0001     		.2byte	0x100
 3965 05d0 15050000 		.4byte	0x515
 3966 05d4 28       		.byte	0x28
 3967 05d5 08       		.uleb128 0x8
 3968 05d6 73323700 		.ascii	"s27\000"
 3969 05da 0F       		.byte	0xf
 3970 05db 0101     		.2byte	0x101
 3971 05dd 15050000 		.4byte	0x515
 3972 05e1 2C       		.byte	0x2c
 3973 05e2 08       		.uleb128 0x8
 3974 05e3 73323800 		.ascii	"s28\000"
 3975 05e7 0F       		.byte	0xf
 3976 05e8 0201     		.2byte	0x102
 3977 05ea 15050000 		.4byte	0x515
 3978 05ee 30       		.byte	0x30
 3979 05ef 08       		.uleb128 0x8
 3980 05f0 73323900 		.ascii	"s29\000"
 3981 05f4 0F       		.byte	0xf
 3982 05f5 0301     		.2byte	0x103
 3983 05f7 15050000 		.4byte	0x515
 3984 05fb 34       		.byte	0x34
 3985 05fc 08       		.uleb128 0x8
 3986 05fd 73333000 		.ascii	"s30\000"
 3987 0601 0F       		.byte	0xf
 3988 0602 0401     		.2byte	0x104
 3989 0604 15050000 		.4byte	0x515
 3990 0608 38       		.byte	0x38
 3991 0609 08       		.uleb128 0x8
 3992 060a 73333100 		.ascii	"s31\000"
 3993 060e 0F       		.byte	0xf
 3994 060f 0501     		.2byte	0x105
 3995 0611 15050000 		.4byte	0x515
 3996 0615 3C       		.byte	0x3c
 3997 0616 08       		.uleb128 0x8
 3998 0617 723400   		.ascii	"r4\000"
 3999 061a 0F       		.byte	0xf
 4000 061b 0701     		.2byte	0x107
 4001 061d 15050000 		.4byte	0x515
 4002 0621 40       		.byte	0x40
 4003 0622 08       		.uleb128 0x8
 4004 0623 723500   		.ascii	"r5\000"
 4005 0626 0F       		.byte	0xf
 4006 0627 0801     		.2byte	0x108
 4007 0629 15050000 		.4byte	0x515
 4008 062d 44       		.byte	0x44
 4009 062e 08       		.uleb128 0x8
 4010 062f 723600   		.ascii	"r6\000"
 4011 0632 0F       		.byte	0xf
 4012 0633 0901     		.2byte	0x109
 4013 0635 15050000 		.4byte	0x515
ARM GAS  C:\Users\mathi\AppData\Local\Temp\cceGBsvt.s 			page 72


 4014 0639 48       		.byte	0x48
 4015 063a 08       		.uleb128 0x8
 4016 063b 723700   		.ascii	"r7\000"
 4017 063e 0F       		.byte	0xf
 4018 063f 0A01     		.2byte	0x10a
 4019 0641 15050000 		.4byte	0x515
 4020 0645 4C       		.byte	0x4c
 4021 0646 08       		.uleb128 0x8
 4022 0647 723800   		.ascii	"r8\000"
 4023 064a 0F       		.byte	0xf
 4024 064b 0B01     		.2byte	0x10b
 4025 064d 15050000 		.4byte	0x515
 4026 0651 50       		.byte	0x50
 4027 0652 08       		.uleb128 0x8
 4028 0653 723900   		.ascii	"r9\000"
 4029 0656 0F       		.byte	0xf
 4030 0657 0C01     		.2byte	0x10c
 4031 0659 15050000 		.4byte	0x515
 4032 065d 54       		.byte	0x54
 4033 065e 08       		.uleb128 0x8
 4034 065f 72313000 		.ascii	"r10\000"
 4035 0663 0F       		.byte	0xf
 4036 0664 0D01     		.2byte	0x10d
 4037 0666 15050000 		.4byte	0x515
 4038 066a 58       		.byte	0x58
 4039 066b 08       		.uleb128 0x8
 4040 066c 72313100 		.ascii	"r11\000"
 4041 0670 0F       		.byte	0xf
 4042 0671 0E01     		.2byte	0x10e
 4043 0673 15050000 		.4byte	0x515
 4044 0677 5C       		.byte	0x5c
 4045 0678 08       		.uleb128 0x8
 4046 0679 6C7200   		.ascii	"lr\000"
 4047 067c 0F       		.byte	0xf
 4048 067d 0F01     		.2byte	0x10f
 4049 067f 15050000 		.4byte	0x515
 4050 0683 60       		.byte	0x60
 4051 0684 00       		.byte	0
 4052 0685 0A       		.uleb128 0xa
 4053 0686 04       		.byte	0x4
 4054 0687 44050000 		.4byte	0x544
 4055 068b 16       		.uleb128 0x16
 4056 068c 10       		.byte	0x10
 4057 068d 10       		.byte	0x10
 4058 068e 51       		.byte	0x51
 4059 068f C4060000 		.4byte	0x6c4
 4060 0693 07       		.uleb128 0x7
 4061 0694 060C0000 		.4byte	.LASF99
 4062 0698 10       		.byte	0x10
 4063 0699 55       		.byte	0x55
 4064 069a 69010000 		.4byte	0x169
 4065 069e 00       		.byte	0
 4066 069f 07       		.uleb128 0x7
 4067 06a0 25010000 		.4byte	.LASF100
 4068 06a4 10       		.byte	0x10
 4069 06a5 59       		.byte	0x59
 4070 06a6 AD020000 		.4byte	0x2ad
ARM GAS  C:\Users\mathi\AppData\Local\Temp\cceGBsvt.s 			page 73


 4071 06aa 04       		.byte	0x4
 4072 06ab 07       		.uleb128 0x7
 4073 06ac 97070000 		.4byte	.LASF101
 4074 06b0 10       		.byte	0x10
 4075 06b1 5D       		.byte	0x5d
 4076 06b2 8F030000 		.4byte	0x38f
 4077 06b6 08       		.byte	0x8
 4078 06b7 07       		.uleb128 0x7
 4079 06b8 73040000 		.4byte	.LASF102
 4080 06bc 10       		.byte	0x10
 4081 06bd 61       		.byte	0x61
 4082 06be B4000000 		.4byte	0xb4
 4083 06c2 0C       		.byte	0xc
 4084 06c3 00       		.byte	0
 4085 06c4 03       		.uleb128 0x3
 4086 06c5 89060000 		.4byte	.LASF103
 4087 06c9 10       		.byte	0x10
 4088 06ca 62       		.byte	0x62
 4089 06cb 8B060000 		.4byte	0x68b
 4090 06cf 17       		.uleb128 0x17
 4091 06d0 0804     		.2byte	0x408
 4092 06d2 10       		.byte	0x10
 4093 06d3 67       		.byte	0x67
 4094 06d4 FD060000 		.4byte	0x6fd
 4095 06d8 07       		.uleb128 0x7
 4096 06d9 30070000 		.4byte	.LASF104
 4097 06dd 10       		.byte	0x10
 4098 06de 6B       		.byte	0x6b
 4099 06df 37000000 		.4byte	0x37
 4100 06e3 00       		.byte	0
 4101 06e4 07       		.uleb128 0x7
 4102 06e5 210C0000 		.4byte	.LASF105
 4103 06e9 10       		.byte	0x10
 4104 06ea 6F       		.byte	0x6f
 4105 06eb FD060000 		.4byte	0x6fd
 4106 06ef 04       		.byte	0x4
 4107 06f0 07       		.uleb128 0x7
 4108 06f1 2B080000 		.4byte	.LASF106
 4109 06f5 10       		.byte	0x10
 4110 06f6 73       		.byte	0x73
 4111 06f7 03070000 		.4byte	0x703
 4112 06fb 08       		.byte	0x8
 4113 06fc 00       		.byte	0
 4114 06fd 0A       		.uleb128 0xa
 4115 06fe 04       		.byte	0x4
 4116 06ff C4060000 		.4byte	0x6c4
 4117 0703 18       		.uleb128 0x18
 4118 0704 C4060000 		.4byte	0x6c4
 4119 0708 13070000 		.4byte	0x713
 4120 070c 19       		.uleb128 0x19
 4121 070d 37000000 		.4byte	0x37
 4122 0711 3F       		.byte	0x3f
 4123 0712 00       		.byte	0
 4124 0713 03       		.uleb128 0x3
 4125 0714 22040000 		.4byte	.LASF107
 4126 0718 10       		.byte	0x10
 4127 0719 74       		.byte	0x74
ARM GAS  C:\Users\mathi\AppData\Local\Temp\cceGBsvt.s 			page 74


 4128 071a CF060000 		.4byte	0x6cf
 4129 071e 16       		.uleb128 0x16
 4130 071f 04       		.byte	0x4
 4131 0720 11       		.byte	0x11
 4132 0721 38       		.byte	0x38
 4133 0722 33070000 		.4byte	0x733
 4134 0726 07       		.uleb128 0x7
 4135 0727 24080000 		.4byte	.LASF108
 4136 072b 11       		.byte	0x11
 4137 072c 3C       		.byte	0x3c
 4138 072d F0000000 		.4byte	0xf0
 4139 0731 00       		.byte	0
 4140 0732 00       		.byte	0
 4141 0733 03       		.uleb128 0x3
 4142 0734 8F0A0000 		.4byte	.LASF109
 4143 0738 11       		.byte	0x11
 4144 0739 3D       		.byte	0x3d
 4145 073a 1E070000 		.4byte	0x71e
 4146 073e 16       		.uleb128 0x16
 4147 073f 18       		.byte	0x18
 4148 0740 11       		.byte	0x11
 4149 0741 48       		.byte	0x48
 4150 0742 81070000 		.4byte	0x781
 4151 0746 07       		.uleb128 0x7
 4152 0747 E6090000 		.4byte	.LASF110
 4153 074b 11       		.byte	0x11
 4154 074c 49       		.byte	0x49
 4155 074d F0000000 		.4byte	0xf0
 4156 0751 00       		.byte	0
 4157 0752 07       		.uleb128 0x7
 4158 0753 ED030000 		.4byte	.LASF111
 4159 0757 11       		.byte	0x11
 4160 0758 4A       		.byte	0x4a
 4161 0759 F0000000 		.4byte	0xf0
 4162 075d 04       		.byte	0x4
 4163 075e 07       		.uleb128 0x7
 4164 075f 340C0000 		.4byte	.LASF112
 4165 0763 11       		.byte	0x11
 4166 0764 4B       		.byte	0x4b
 4167 0765 F0000000 		.4byte	0xf0
 4168 0769 08       		.byte	0x8
 4169 076a 15       		.uleb128 0x15
 4170 076b 6E00     		.ascii	"n\000"
 4171 076d 11       		.byte	0x11
 4172 076e 4C       		.byte	0x4c
 4173 076f 5E010000 		.4byte	0x15e
 4174 0773 0C       		.byte	0xc
 4175 0774 07       		.uleb128 0x7
 4176 0775 D5020000 		.4byte	.LASF113
 4177 0779 11       		.byte	0x11
 4178 077a 4D       		.byte	0x4d
 4179 077b FB000000 		.4byte	0xfb
 4180 077f 10       		.byte	0x10
 4181 0780 00       		.byte	0
 4182 0781 03       		.uleb128 0x3
 4183 0782 2B010000 		.4byte	.LASF114
 4184 0786 11       		.byte	0x11
ARM GAS  C:\Users\mathi\AppData\Local\Temp\cceGBsvt.s 			page 75


 4185 0787 4E       		.byte	0x4e
 4186 0788 3E070000 		.4byte	0x73e
 4187 078c 16       		.uleb128 0x16
 4188 078d 38       		.byte	0x38
 4189 078e 12       		.byte	0x12
 4190 078f 38       		.byte	0x38
 4191 0790 C5070000 		.4byte	0x7c5
 4192 0794 07       		.uleb128 0x7
 4193 0795 A6060000 		.4byte	.LASF115
 4194 0799 12       		.byte	0x12
 4195 079a 39       		.byte	0x39
 4196 079b 5E010000 		.4byte	0x15e
 4197 079f 00       		.byte	0
 4198 07a0 07       		.uleb128 0x7
 4199 07a1 B1030000 		.4byte	.LASF116
 4200 07a5 12       		.byte	0x12
 4201 07a6 3A       		.byte	0x3a
 4202 07a7 5E010000 		.4byte	0x15e
 4203 07ab 04       		.byte	0x4
 4204 07ac 07       		.uleb128 0x7
 4205 07ad 7C040000 		.4byte	.LASF117
 4206 07b1 12       		.byte	0x12
 4207 07b2 3B       		.byte	0x3b
 4208 07b3 81070000 		.4byte	0x781
 4209 07b7 08       		.byte	0x8
 4210 07b8 07       		.uleb128 0x7
 4211 07b9 68040000 		.4byte	.LASF118
 4212 07bd 12       		.byte	0x12
 4213 07be 3D       		.byte	0x3d
 4214 07bf 81070000 		.4byte	0x781
 4215 07c3 20       		.byte	0x20
 4216 07c4 00       		.byte	0
 4217 07c5 03       		.uleb128 0x3
 4218 07c6 05080000 		.4byte	.LASF119
 4219 07ca 12       		.byte	0x12
 4220 07cb 3F       		.byte	0x3f
 4221 07cc 8C070000 		.4byte	0x78c
 4222 07d0 1A       		.uleb128 0x1a
 4223 07d1 04       		.byte	0x4
 4224 07d2 02       		.byte	0x2
 4225 07d3 FA       		.byte	0xfa
 4226 07d4 2D080000 		.4byte	0x82d
 4227 07d8 1B       		.uleb128 0x1b
 4228 07d9 AB0B0000 		.4byte	.LASF120
 4229 07dd 02       		.byte	0x2
 4230 07de 0101     		.2byte	0x101
 4231 07e0 3D010000 		.4byte	0x13d
 4232 07e4 1B       		.uleb128 0x1b
 4233 07e5 73010000 		.4byte	.LASF121
 4234 07e9 02       		.byte	0x2
 4235 07ea 0801     		.2byte	0x108
 4236 07ec 3D010000 		.4byte	0x13d
 4237 07f0 1B       		.uleb128 0x1b
 4238 07f1 AA030000 		.4byte	.LASF122
 4239 07f5 02       		.byte	0x2
 4240 07f6 0F01     		.2byte	0x10f
 4241 07f8 8F030000 		.4byte	0x38f
ARM GAS  C:\Users\mathi\AppData\Local\Temp\cceGBsvt.s 			page 76


 4242 07fc 1B       		.uleb128 0x1b
 4243 07fd 12030000 		.4byte	.LASF123
 4244 0801 02       		.byte	0x2
 4245 0802 1601     		.2byte	0x116
 4246 0804 2D080000 		.4byte	0x82d
 4247 0808 1B       		.uleb128 0x1b
 4248 0809 0F000000 		.4byte	.LASF124
 4249 080d 02       		.byte	0x2
 4250 080e 1E01     		.2byte	0x11e
 4251 0810 58080000 		.4byte	0x858
 4252 0814 1B       		.uleb128 0x1b
 4253 0815 3F040000 		.4byte	.LASF125
 4254 0819 02       		.byte	0x2
 4255 081a 2701     		.2byte	0x127
 4256 081c 9B080000 		.4byte	0x89b
 4257 0820 1B       		.uleb128 0x1b
 4258 0821 86010000 		.4byte	.LASF126
 4259 0825 02       		.byte	0x2
 4260 0826 2F01     		.2byte	0x12f
 4261 0828 48010000 		.4byte	0x148
 4262 082c 00       		.byte	0
 4263 082d 0A       		.uleb128 0xa
 4264 082e 04       		.byte	0x4
 4265 082f A2020000 		.4byte	0x2a2
 4266 0833 06       		.uleb128 0x6
 4267 0834 D2040000 		.4byte	.LASF127
 4268 0838 0C       		.byte	0xc
 4269 0839 13       		.byte	0x13
 4270 083a 34       		.byte	0x34
 4271 083b 58080000 		.4byte	0x858
 4272 083f 07       		.uleb128 0x7
 4273 0840 AA0A0000 		.4byte	.LASF128
 4274 0844 13       		.byte	0x13
 4275 0845 35       		.byte	0x35
 4276 0846 D7020000 		.4byte	0x2d7
 4277 084a 00       		.byte	0
 4278 084b 07       		.uleb128 0x7
 4279 084c FB080000 		.4byte	.LASF129
 4280 0850 13       		.byte	0x13
 4281 0851 37       		.byte	0x37
 4282 0852 53010000 		.4byte	0x153
 4283 0856 08       		.byte	0x8
 4284 0857 00       		.byte	0
 4285 0858 0A       		.uleb128 0xa
 4286 0859 04       		.byte	0x4
 4287 085a 33080000 		.4byte	0x833
 4288 085e 06       		.uleb128 0x6
 4289 085f D20A0000 		.4byte	.LASF130
 4290 0863 14       		.byte	0x14
 4291 0864 14       		.byte	0x14
 4292 0865 39       		.byte	0x39
 4293 0866 9B080000 		.4byte	0x89b
 4294 086a 07       		.uleb128 0x7
 4295 086b 0D070000 		.4byte	.LASF131
 4296 086f 14       		.byte	0x14
 4297 0870 3A       		.byte	0x3a
 4298 0871 D7020000 		.4byte	0x2d7
ARM GAS  C:\Users\mathi\AppData\Local\Temp\cceGBsvt.s 			page 77


 4299 0875 00       		.byte	0
 4300 0876 07       		.uleb128 0x7
 4301 0877 64010000 		.4byte	.LASF132
 4302 087b 14       		.byte	0x14
 4303 087c 3C       		.byte	0x3c
 4304 087d AD020000 		.4byte	0x2ad
 4305 0881 08       		.byte	0x8
 4306 0882 07       		.uleb128 0x7
 4307 0883 1A0C0000 		.4byte	.LASF133
 4308 0887 14       		.byte	0x14
 4309 0888 3E       		.byte	0x3e
 4310 0889 010A0000 		.4byte	0xa01
 4311 088d 0C       		.byte	0xc
 4312 088e 07       		.uleb128 0x7
 4313 088f 92030000 		.4byte	.LASF134
 4314 0893 14       		.byte	0x14
 4315 0894 41       		.byte	0x41
 4316 0895 53010000 		.4byte	0x153
 4317 0899 10       		.byte	0x10
 4318 089a 00       		.byte	0
 4319 089b 0A       		.uleb128 0xa
 4320 089c 04       		.byte	0x4
 4321 089d 5E080000 		.4byte	0x85e
 4322 08a1 0A       		.uleb128 0xa
 4323 08a2 04       		.byte	0x4
 4324 08a3 B3080000 		.4byte	0x8b3
 4325 08a7 05       		.uleb128 0x5
 4326 08a8 A1080000 		.4byte	0x8a1
 4327 08ac 04       		.uleb128 0x4
 4328 08ad 01       		.byte	0x1
 4329 08ae 08       		.byte	0x8
 4330 08af 8D030000 		.4byte	.LASF135
 4331 08b3 0B       		.uleb128 0xb
 4332 08b4 AC080000 		.4byte	0x8ac
 4333 08b8 0A       		.uleb128 0xa
 4334 08b9 04       		.byte	0x4
 4335 08ba 20050000 		.4byte	0x520
 4336 08be 0A       		.uleb128 0xa
 4337 08bf 04       		.byte	0x4
 4338 08c0 91030000 		.4byte	0x391
 4339 08c4 18       		.uleb128 0x18
 4340 08c5 20050000 		.4byte	0x520
 4341 08c9 D4080000 		.4byte	0x8d4
 4342 08cd 19       		.uleb128 0x19
 4343 08ce 37000000 		.4byte	0x37
 4344 08d2 30       		.byte	0x30
 4345 08d3 00       		.byte	0
 4346 08d4 1C       		.uleb128 0x1c
 4347 08d5 636800   		.ascii	"ch\000"
 4348 08d8 02       		.byte	0x2
 4349 08d9 0902     		.2byte	0x209
 4350 08db 86040000 		.4byte	0x486
 4351 08df 03       		.uleb128 0x3
 4352 08e0 5F070000 		.4byte	.LASF136
 4353 08e4 05       		.byte	0x5
 4354 08e5 34       		.byte	0x34
 4355 08e6 7E030000 		.4byte	0x37e
ARM GAS  C:\Users\mathi\AppData\Local\Temp\cceGBsvt.s 			page 78


 4356 08ea 16       		.uleb128 0x16
 4357 08eb 16       		.byte	0x16
 4358 08ec 15       		.byte	0x15
 4359 08ed 34       		.byte	0x34
 4360 08ee CB090000 		.4byte	0x9cb
 4361 08f2 07       		.uleb128 0x7
 4362 08f3 2C000000 		.4byte	.LASF137
 4363 08f7 15       		.byte	0x15
 4364 08f8 35       		.byte	0x35
 4365 08f9 CB090000 		.4byte	0x9cb
 4366 08fd 00       		.byte	0
 4367 08fe 07       		.uleb128 0x7
 4368 08ff B0040000 		.4byte	.LASF138
 4369 0903 15       		.byte	0x15
 4370 0904 36       		.byte	0x36
 4371 0905 B4000000 		.4byte	0xb4
 4372 0909 04       		.byte	0x4
 4373 090a 07       		.uleb128 0x7
 4374 090b E90B0000 		.4byte	.LASF139
 4375 090f 15       		.byte	0x15
 4376 0910 37       		.byte	0x37
 4377 0911 B4000000 		.4byte	0xb4
 4378 0915 05       		.byte	0x5
 4379 0916 07       		.uleb128 0x7
 4380 0917 02070000 		.4byte	.LASF140
 4381 091b 15       		.byte	0x15
 4382 091c 38       		.byte	0x38
 4383 091d BF000000 		.4byte	0xbf
 4384 0921 06       		.byte	0x6
 4385 0922 07       		.uleb128 0x7
 4386 0923 0D010000 		.4byte	.LASF141
 4387 0927 15       		.byte	0x15
 4388 0928 39       		.byte	0x39
 4389 0929 B4000000 		.4byte	0xb4
 4390 092d 08       		.byte	0x8
 4391 092e 07       		.uleb128 0x7
 4392 092f F4070000 		.4byte	.LASF142
 4393 0933 15       		.byte	0x15
 4394 0934 3A       		.byte	0x3a
 4395 0935 B4000000 		.4byte	0xb4
 4396 0939 09       		.byte	0x9
 4397 093a 07       		.uleb128 0x7
 4398 093b 8D010000 		.4byte	.LASF143
 4399 093f 15       		.byte	0x15
 4400 0940 3B       		.byte	0x3b
 4401 0941 B4000000 		.4byte	0xb4
 4402 0945 0A       		.byte	0xa
 4403 0946 07       		.uleb128 0x7
 4404 0947 E1030000 		.4byte	.LASF144
 4405 094b 15       		.byte	0x15
 4406 094c 3C       		.byte	0x3c
 4407 094d B4000000 		.4byte	0xb4
 4408 0951 0B       		.byte	0xb
 4409 0952 07       		.uleb128 0x7
 4410 0953 A5000000 		.4byte	.LASF145
 4411 0957 15       		.byte	0x15
 4412 0958 3D       		.byte	0x3d
ARM GAS  C:\Users\mathi\AppData\Local\Temp\cceGBsvt.s 			page 79


 4413 0959 B4000000 		.4byte	0xb4
 4414 095d 0C       		.byte	0xc
 4415 095e 07       		.uleb128 0x7
 4416 095f BA030000 		.4byte	.LASF146
 4417 0963 15       		.byte	0x15
 4418 0964 3E       		.byte	0x3e
 4419 0965 B4000000 		.4byte	0xb4
 4420 0969 0D       		.byte	0xd
 4421 096a 07       		.uleb128 0x7
 4422 096b 060B0000 		.4byte	.LASF147
 4423 096f 15       		.byte	0x15
 4424 0970 3F       		.byte	0x3f
 4425 0971 B4000000 		.4byte	0xb4
 4426 0975 0E       		.byte	0xe
 4427 0976 07       		.uleb128 0x7
 4428 0977 16000000 		.4byte	.LASF148
 4429 097b 15       		.byte	0x15
 4430 097c 40       		.byte	0x40
 4431 097d B4000000 		.4byte	0xb4
 4432 0981 0F       		.byte	0xf
 4433 0982 07       		.uleb128 0x7
 4434 0983 6E0B0000 		.4byte	.LASF149
 4435 0987 15       		.byte	0x15
 4436 0988 41       		.byte	0x41
 4437 0989 B4000000 		.4byte	0xb4
 4438 098d 10       		.byte	0x10
 4439 098e 07       		.uleb128 0x7
 4440 098f CD010000 		.4byte	.LASF150
 4441 0993 15       		.byte	0x15
 4442 0994 43       		.byte	0x43
 4443 0995 B4000000 		.4byte	0xb4
 4444 0999 11       		.byte	0x11
 4445 099a 07       		.uleb128 0x7
 4446 099b 52090000 		.4byte	.LASF151
 4447 099f 15       		.byte	0x15
 4448 09a0 44       		.byte	0x44
 4449 09a1 B4000000 		.4byte	0xb4
 4450 09a5 12       		.byte	0x12
 4451 09a6 07       		.uleb128 0x7
 4452 09a7 3C080000 		.4byte	.LASF152
 4453 09ab 15       		.byte	0x15
 4454 09ac 45       		.byte	0x45
 4455 09ad B4000000 		.4byte	0xb4
 4456 09b1 13       		.byte	0x13
 4457 09b2 07       		.uleb128 0x7
 4458 09b3 B8060000 		.4byte	.LASF153
 4459 09b7 15       		.byte	0x15
 4460 09b8 46       		.byte	0x46
 4461 09b9 B4000000 		.4byte	0xb4
 4462 09bd 14       		.byte	0x14
 4463 09be 07       		.uleb128 0x7
 4464 09bf C3080000 		.4byte	.LASF154
 4465 09c3 15       		.byte	0x15
 4466 09c4 48       		.byte	0x48
 4467 09c5 B4000000 		.4byte	0xb4
 4468 09c9 15       		.byte	0x15
 4469 09ca 00       		.byte	0
ARM GAS  C:\Users\mathi\AppData\Local\Temp\cceGBsvt.s 			page 80


 4470 09cb 18       		.uleb128 0x18
 4471 09cc AC080000 		.4byte	0x8ac
 4472 09d0 DB090000 		.4byte	0x9db
 4473 09d4 19       		.uleb128 0x19
 4474 09d5 37000000 		.4byte	0x37
 4475 09d9 03       		.byte	0x3
 4476 09da 00       		.byte	0
 4477 09db 03       		.uleb128 0x3
 4478 09dc D10B0000 		.4byte	.LASF155
 4479 09e0 15       		.byte	0x15
 4480 09e1 49       		.byte	0x49
 4481 09e2 EA080000 		.4byte	0x8ea
 4482 09e6 0B       		.uleb128 0xb
 4483 09e7 DB090000 		.4byte	0x9db
 4484 09eb 14       		.uleb128 0x14
 4485 09ec 59000000 		.4byte	.LASF156
 4486 09f0 15       		.byte	0x15
 4487 09f1 6E       		.byte	0x6e
 4488 09f2 E6090000 		.4byte	0x9e6
 4489 09f6 03       		.uleb128 0x3
 4490 09f7 3E0B0000 		.4byte	.LASF157
 4491 09fb 14       		.byte	0x14
 4492 09fc 34       		.byte	0x34
 4493 09fd 5E080000 		.4byte	0x85e
 4494 0a01 0A       		.uleb128 0xa
 4495 0a02 04       		.byte	0x4
 4496 0a03 F6090000 		.4byte	0x9f6
 4497 0a07 0A       		.uleb128 0xa
 4498 0a08 04       		.byte	0x4
 4499 0a09 B4000000 		.4byte	0xb4
 4500 0a0d 1D       		.uleb128 0x1d
 4501 0a0e 7B000000 		.4byte	.LASF158
 4502 0a12 01       		.byte	0x1
 4503 0a13 A702     		.2byte	0x2a7
 4504 0a15 00000000 		.4byte	.LFB240
 4505 0a19 5C000000 		.4byte	.LFE240-.LFB240
 4506 0a1d 01       		.uleb128 0x1
 4507 0a1e 9C       		.byte	0x9c
 4508 0a1f F70A0000 		.4byte	0xaf7
 4509 0a23 1E       		.uleb128 0x1e
 4510 0a24 74717000 		.ascii	"tqp\000"
 4511 0a28 01       		.byte	0x1
 4512 0a29 A702     		.2byte	0x2a7
 4513 0a2b F70A0000 		.4byte	0xaf7
 4514 0a2f 00000000 		.4byte	.LLST97
 4515 0a33 1E       		.uleb128 0x1e
 4516 0a34 6D736700 		.ascii	"msg\000"
 4517 0a38 01       		.byte	0x1
 4518 0a39 A702     		.2byte	0x2a7
 4519 0a3b 3D010000 		.4byte	0x13d
 4520 0a3f 2C000000 		.4byte	.LLST98
 4521 0a43 1F       		.uleb128 0x1f
 4522 0a44 76210000 		.4byte	0x2176
 4523 0a48 08000000 		.4byte	.LBB513
 4524 0a4c 30030000 		.4byte	.Ldebug_ranges0+0x330
 4525 0a50 01       		.byte	0x1
 4526 0a51 A902     		.2byte	0x2a9
ARM GAS  C:\Users\mathi\AppData\Local\Temp\cceGBsvt.s 			page 81


 4527 0a53 610A0000 		.4byte	0xa61
 4528 0a57 20       		.uleb128 0x20
 4529 0a58 87210000 		.4byte	0x2187
 4530 0a5c 58000000 		.4byte	.LLST99
 4531 0a60 00       		.byte	0
 4532 0a61 21       		.uleb128 0x21
 4533 0a62 8E1F0000 		.4byte	0x1f8e
 4534 0a66 16000000 		.4byte	.LBB516
 4535 0a6a 22000000 		.4byte	.LBE516-.LBB516
 4536 0a6e 01       		.byte	0x1
 4537 0a6f AA02     		.2byte	0x2aa
 4538 0a71 ED0A0000 		.4byte	0xaed
 4539 0a75 22       		.uleb128 0x22
 4540 0a76 A71F0000 		.4byte	0x1fa7
 4541 0a7a 20       		.uleb128 0x20
 4542 0a7b 9B1F0000 		.4byte	0x1f9b
 4543 0a7f 6B000000 		.4byte	.LLST100
 4544 0a83 23       		.uleb128 0x23
 4545 0a84 16000000 		.4byte	.LBB517
 4546 0a88 22000000 		.4byte	.LBE517-.LBB517
 4547 0a8c 24       		.uleb128 0x24
 4548 0a8d B31F0000 		.4byte	0x1fb3
 4549 0a91 24       		.uleb128 0x24
 4550 0a92 BE1F0000 		.4byte	0x1fbe
 4551 0a96 21       		.uleb128 0x21
 4552 0a97 D4200000 		.4byte	0x20d4
 4553 0a9b 1C000000 		.4byte	.LBB518
 4554 0a9f 06000000 		.4byte	.LBE518-.LBB518
 4555 0aa3 05       		.byte	0x5
 4556 0aa4 3D01     		.2byte	0x13d
 4557 0aa6 C70A0000 		.4byte	0xac7
 4558 0aaa 20       		.uleb128 0x20
 4559 0aab E5200000 		.4byte	0x20e5
 4560 0aaf 7E000000 		.4byte	.LLST101
 4561 0ab3 23       		.uleb128 0x23
 4562 0ab4 1C000000 		.4byte	.LBB519
 4563 0ab8 06000000 		.4byte	.LBE519-.LBB519
 4564 0abc 25       		.uleb128 0x25
 4565 0abd F1200000 		.4byte	0x20f1
 4566 0ac1 91000000 		.4byte	.LLST102
 4567 0ac5 00       		.byte	0
 4568 0ac6 00       		.byte	0
 4569 0ac7 26       		.uleb128 0x26
 4570 0ac8 30000000 		.4byte	.LVL282
 4571 0acc F9240000 		.4byte	0x24f9
 4572 0ad0 DB0A0000 		.4byte	0xadb
 4573 0ad4 27       		.uleb128 0x27
 4574 0ad5 01       		.uleb128 0x1
 4575 0ad6 50       		.byte	0x50
 4576 0ad7 02       		.uleb128 0x2
 4577 0ad8 77       		.byte	0x77
 4578 0ad9 00       		.sleb128 0
 4579 0ada 00       		.byte	0
 4580 0adb 28       		.uleb128 0x28
 4581 0adc 38000000 		.4byte	.LVL283
 4582 0ae0 05250000 		.4byte	0x2505
 4583 0ae4 27       		.uleb128 0x27
ARM GAS  C:\Users\mathi\AppData\Local\Temp\cceGBsvt.s 			page 82


 4584 0ae5 01       		.uleb128 0x1
 4585 0ae6 50       		.byte	0x50
 4586 0ae7 02       		.uleb128 0x2
 4587 0ae8 74       		.byte	0x74
 4588 0ae9 00       		.sleb128 0
 4589 0aea 00       		.byte	0
 4590 0aeb 00       		.byte	0
 4591 0aec 00       		.byte	0
 4592 0aed 29       		.uleb128 0x29
 4593 0aee 52000000 		.4byte	.LVL286
 4594 0af2 11250000 		.4byte	0x2511
 4595 0af6 00       		.byte	0
 4596 0af7 0A       		.uleb128 0xa
 4597 0af8 04       		.byte	0x4
 4598 0af9 D7020000 		.4byte	0x2d7
 4599 0afd 1D       		.uleb128 0x1d
 4600 0afe 6F070000 		.4byte	.LASF159
 4601 0b02 01       		.byte	0x1
 4602 0b03 9802     		.2byte	0x298
 4603 0b05 00000000 		.4byte	.LFB239
 4604 0b09 54000000 		.4byte	.LFE239-.LFB239
 4605 0b0d 01       		.uleb128 0x1
 4606 0b0e 9C       		.byte	0x9c
 4607 0b0f D70B0000 		.4byte	0xbd7
 4608 0b13 1E       		.uleb128 0x1e
 4609 0b14 74717000 		.ascii	"tqp\000"
 4610 0b18 01       		.byte	0x1
 4611 0b19 9802     		.2byte	0x298
 4612 0b1b F70A0000 		.4byte	0xaf7
 4613 0b1f A5000000 		.4byte	.LLST93
 4614 0b23 1E       		.uleb128 0x1e
 4615 0b24 6D736700 		.ascii	"msg\000"
 4616 0b28 01       		.byte	0x1
 4617 0b29 9802     		.2byte	0x298
 4618 0b2b 3D010000 		.4byte	0x13d
 4619 0b2f DF000000 		.4byte	.LLST94
 4620 0b33 21       		.uleb128 0x21
 4621 0b34 76210000 		.4byte	0x2176
 4622 0b38 04000000 		.4byte	.LBB497
 4623 0b3c 02000000 		.4byte	.LBE497-.LBB497
 4624 0b40 01       		.byte	0x1
 4625 0b41 9A02     		.2byte	0x29a
 4626 0b43 4D0B0000 		.4byte	0xb4d
 4627 0b47 22       		.uleb128 0x22
 4628 0b48 87210000 		.4byte	0x2187
 4629 0b4c 00       		.byte	0
 4630 0b4d 1F       		.uleb128 0x1f
 4631 0b4e 8E1F0000 		.4byte	0x1f8e
 4632 0b52 10000000 		.4byte	.LBB499
 4633 0b56 18030000 		.4byte	.Ldebug_ranges0+0x318
 4634 0b5a 01       		.byte	0x1
 4635 0b5b 9B02     		.2byte	0x29b
 4636 0b5d CD0B0000 		.4byte	0xbcd
 4637 0b61 20       		.uleb128 0x20
 4638 0b62 A71F0000 		.4byte	0x1fa7
 4639 0b66 30010000 		.4byte	.LLST95
 4640 0b6a 20       		.uleb128 0x20
ARM GAS  C:\Users\mathi\AppData\Local\Temp\cceGBsvt.s 			page 83


 4641 0b6b 9B1F0000 		.4byte	0x1f9b
 4642 0b6f 68010000 		.4byte	.LLST96
 4643 0b73 2A       		.uleb128 0x2a
 4644 0b74 18030000 		.4byte	.Ldebug_ranges0+0x318
 4645 0b78 24       		.uleb128 0x24
 4646 0b79 B31F0000 		.4byte	0x1fb3
 4647 0b7d 24       		.uleb128 0x24
 4648 0b7e BE1F0000 		.4byte	0x1fbe
 4649 0b82 21       		.uleb128 0x21
 4650 0b83 D4200000 		.4byte	0x20d4
 4651 0b87 10000000 		.4byte	.LBB501
 4652 0b8b 06000000 		.4byte	.LBE501-.LBB501
 4653 0b8f 05       		.byte	0x5
 4654 0b90 3D01     		.2byte	0x13d
 4655 0b92 AB0B0000 		.4byte	0xbab
 4656 0b96 22       		.uleb128 0x22
 4657 0b97 E5200000 		.4byte	0x20e5
 4658 0b9b 23       		.uleb128 0x23
 4659 0b9c 10000000 		.4byte	.LBB502
 4660 0ba0 06000000 		.4byte	.LBE502-.LBB502
 4661 0ba4 24       		.uleb128 0x24
 4662 0ba5 F1200000 		.4byte	0x20f1
 4663 0ba9 00       		.byte	0
 4664 0baa 00       		.byte	0
 4665 0bab 26       		.uleb128 0x26
 4666 0bac 26000000 		.4byte	.LVL273
 4667 0bb0 F9240000 		.4byte	0x24f9
 4668 0bb4 C20B0000 		.4byte	0xbc2
 4669 0bb8 27       		.uleb128 0x27
 4670 0bb9 01       		.uleb128 0x1
 4671 0bba 50       		.byte	0x50
 4672 0bbb 05       		.uleb128 0x5
 4673 0bbc 03       		.byte	0x3
 4674 0bbd 00000000 		.4byte	.LANCHOR11
 4675 0bc1 00       		.byte	0
 4676 0bc2 2B       		.uleb128 0x2b
 4677 0bc3 3C000000 		.4byte	.LVL275
 4678 0bc7 05250000 		.4byte	0x2505
 4679 0bcb 00       		.byte	0
 4680 0bcc 00       		.byte	0
 4681 0bcd 29       		.uleb128 0x29
 4682 0bce 4C000000 		.4byte	.LVL277
 4683 0bd2 11250000 		.4byte	0x2511
 4684 0bd6 00       		.byte	0
 4685 0bd7 2C       		.uleb128 0x2c
 4686 0bd8 DA010000 		.4byte	.LASF164
 4687 0bdc 01       		.byte	0x1
 4688 0bdd 8402     		.2byte	0x284
 4689 0bdf 3D010000 		.4byte	0x13d
 4690 0be3 00000000 		.4byte	.LFB238
 4691 0be7 4C000000 		.4byte	.LFE238-.LFB238
 4692 0beb 01       		.uleb128 0x1
 4693 0bec 9C       		.byte	0x9c
 4694 0bed 5C0C0000 		.4byte	0xc5c
 4695 0bf1 1E       		.uleb128 0x1e
 4696 0bf2 74717000 		.ascii	"tqp\000"
 4697 0bf6 01       		.byte	0x1
ARM GAS  C:\Users\mathi\AppData\Local\Temp\cceGBsvt.s 			page 84


 4698 0bf7 8402     		.2byte	0x284
 4699 0bf9 F70A0000 		.4byte	0xaf7
 4700 0bfd 89010000 		.4byte	.LLST89
 4701 0c01 2D       		.uleb128 0x2d
 4702 0c02 67070000 		.4byte	.LASF160
 4703 0c06 01       		.byte	0x1
 4704 0c07 8402     		.2byte	0x284
 4705 0c09 69010000 		.4byte	0x169
 4706 0c0d C3010000 		.4byte	.LLST90
 4707 0c11 1F       		.uleb128 0x1f
 4708 0c12 FD200000 		.4byte	0x20fd
 4709 0c16 12000000 		.4byte	.LBB485
 4710 0c1a 00030000 		.4byte	.Ldebug_ranges0+0x300
 4711 0c1e 01       		.byte	0x1
 4712 0c1f 8A02     		.2byte	0x28a
 4713 0c21 380C0000 		.4byte	0xc38
 4714 0c25 20       		.uleb128 0x20
 4715 0c26 15210000 		.4byte	0x2115
 4716 0c2a FD010000 		.4byte	.LLST91
 4717 0c2e 20       		.uleb128 0x20
 4718 0c2f 0A210000 		.4byte	0x210a
 4719 0c33 10020000 		.4byte	.LLST92
 4720 0c37 00       		.byte	0
 4721 0c38 2E       		.uleb128 0x2e
 4722 0c39 2E000000 		.4byte	.LVL266
 4723 0c3d 1A250000 		.4byte	0x251a
 4724 0c41 520C0000 		.4byte	0xc52
 4725 0c45 27       		.uleb128 0x27
 4726 0c46 01       		.uleb128 0x1
 4727 0c47 50       		.byte	0x50
 4728 0c48 01       		.uleb128 0x1
 4729 0c49 34       		.byte	0x34
 4730 0c4a 27       		.uleb128 0x27
 4731 0c4b 01       		.uleb128 0x1
 4732 0c4c 51       		.byte	0x51
 4733 0c4d 03       		.uleb128 0x3
 4734 0c4e F3       		.byte	0xf3
 4735 0c4f 01       		.uleb128 0x1
 4736 0c50 51       		.byte	0x51
 4737 0c51 00       		.byte	0
 4738 0c52 29       		.uleb128 0x29
 4739 0c53 42000000 		.4byte	.LVL269
 4740 0c57 11250000 		.4byte	0x2511
 4741 0c5b 00       		.byte	0
 4742 0c5c 1D       		.uleb128 0x1d
 4743 0c5d 5C040000 		.4byte	.LASF161
 4744 0c61 01       		.byte	0x1
 4745 0c62 6602     		.2byte	0x266
 4746 0c64 00000000 		.4byte	.LFB237
 4747 0c68 84000000 		.4byte	.LFE237-.LFB237
 4748 0c6c 01       		.uleb128 0x1
 4749 0c6d 9C       		.byte	0x9c
 4750 0c6e D40D0000 		.4byte	0xdd4
 4751 0c72 1E       		.uleb128 0x1e
 4752 0c73 74727000 		.ascii	"trp\000"
 4753 0c77 01       		.byte	0x1
 4754 0c78 6602     		.2byte	0x266
ARM GAS  C:\Users\mathi\AppData\Local\Temp\cceGBsvt.s 			page 85


 4755 0c7a 2D080000 		.4byte	0x82d
 4756 0c7e 23020000 		.4byte	.LLST83
 4757 0c82 1E       		.uleb128 0x1e
 4758 0c83 6D736700 		.ascii	"msg\000"
 4759 0c87 01       		.byte	0x1
 4760 0c88 6602     		.2byte	0x266
 4761 0c8a 3D010000 		.4byte	0x13d
 4762 0c8e 41020000 		.4byte	.LLST84
 4763 0c92 21       		.uleb128 0x21
 4764 0c93 B5200000 		.4byte	0x20b5
 4765 0c97 0E000000 		.4byte	.LBB467
 4766 0c9b 0E000000 		.4byte	.LBE467-.LBB467
 4767 0c9f 01       		.byte	0x1
 4768 0ca0 6802     		.2byte	0x268
 4769 0ca2 E80C0000 		.4byte	0xce8
 4770 0ca6 21       		.uleb128 0x21
 4771 0ca7 F5210000 		.4byte	0x21f5
 4772 0cab 0E000000 		.4byte	.LBB469
 4773 0caf 06000000 		.4byte	.LBE469-.LBB469
 4774 0cb3 04       		.byte	0x4
 4775 0cb4 5C01     		.2byte	0x15c
 4776 0cb6 D50C0000 		.4byte	0xcd5
 4777 0cba 2F       		.uleb128 0x2f
 4778 0cbb FE210000 		.4byte	0x21fe
 4779 0cbf 0E000000 		.4byte	.LBB470
 4780 0cc3 06000000 		.4byte	.LBE470-.LBB470
 4781 0cc7 0F       		.byte	0xf
 4782 0cc8 BF01     		.2byte	0x1bf
 4783 0cca 20       		.uleb128 0x20
 4784 0ccb 0B220000 		.4byte	0x220b
 4785 0ccf 5F020000 		.4byte	.LLST85
 4786 0cd3 00       		.byte	0
 4787 0cd4 00       		.byte	0
 4788 0cd5 29       		.uleb128 0x29
 4789 0cd6 18000000 		.4byte	.LVL249
 4790 0cda 26250000 		.4byte	0x2526
 4791 0cde 29       		.uleb128 0x29
 4792 0cdf 1C000000 		.4byte	.LVL250
 4793 0ce3 31250000 		.4byte	0x2531
 4794 0ce7 00       		.byte	0
 4795 0ce8 1F       		.uleb128 0x1f
 4796 0ce9 D40D0000 		.4byte	0xdd4
 4797 0ced 1C000000 		.4byte	.LBB472
 4798 0cf1 B8020000 		.4byte	.Ldebug_ranges0+0x2b8
 4799 0cf5 01       		.byte	0x1
 4800 0cf6 6902     		.2byte	0x269
 4801 0cf8 560D0000 		.4byte	0xd56
 4802 0cfc 20       		.uleb128 0x20
 4803 0cfd ED0D0000 		.4byte	0xded
 4804 0d01 74020000 		.4byte	.LLST86
 4805 0d05 20       		.uleb128 0x20
 4806 0d06 E10D0000 		.4byte	0xde1
 4807 0d0a 92020000 		.4byte	.LLST87
 4808 0d0e 2A       		.uleb128 0x2a
 4809 0d0f B8020000 		.4byte	.Ldebug_ranges0+0x2b8
 4810 0d13 24       		.uleb128 0x24
 4811 0d14 AF240000 		.4byte	0x24af
ARM GAS  C:\Users\mathi\AppData\Local\Temp\cceGBsvt.s 			page 86


 4812 0d18 30       		.uleb128 0x30
 4813 0d19 B4240000 		.4byte	0x24b4
 4814 0d1d D0020000 		.4byte	.Ldebug_ranges0+0x2d0
 4815 0d21 24       		.uleb128 0x24
 4816 0d22 BD240000 		.4byte	0x24bd
 4817 0d26 26       		.uleb128 0x26
 4818 0d27 34000000 		.4byte	.LVL252
 4819 0d2b 3C250000 		.4byte	0x253c
 4820 0d2f 400D0000 		.4byte	0xd40
 4821 0d33 27       		.uleb128 0x27
 4822 0d34 01       		.uleb128 0x1
 4823 0d35 50       		.byte	0x50
 4824 0d36 02       		.uleb128 0x2
 4825 0d37 74       		.byte	0x74
 4826 0d38 00       		.sleb128 0
 4827 0d39 27       		.uleb128 0x27
 4828 0d3a 01       		.uleb128 0x1
 4829 0d3b 51       		.byte	0x51
 4830 0d3c 02       		.uleb128 0x2
 4831 0d3d 77       		.byte	0x77
 4832 0d3e 00       		.sleb128 0
 4833 0d3f 00       		.byte	0
 4834 0d40 28       		.uleb128 0x28
 4835 0d41 66000000 		.4byte	.LVL258
 4836 0d45 F9240000 		.4byte	0x24f9
 4837 0d49 27       		.uleb128 0x27
 4838 0d4a 01       		.uleb128 0x1
 4839 0d4b 50       		.byte	0x50
 4840 0d4c 05       		.uleb128 0x5
 4841 0d4d 03       		.byte	0x3
 4842 0d4e 00000000 		.4byte	.LANCHOR10
 4843 0d52 00       		.byte	0
 4844 0d53 00       		.byte	0
 4845 0d54 00       		.byte	0
 4846 0d55 00       		.byte	0
 4847 0d56 1F       		.uleb128 0x1f
 4848 0d57 9A200000 		.4byte	0x209a
 4849 0d5b 34000000 		.4byte	.LBB477
 4850 0d5f E8020000 		.4byte	.Ldebug_ranges0+0x2e8
 4851 0d63 01       		.byte	0x1
 4852 0d64 6A02     		.2byte	0x26a
 4853 0d66 CA0D0000 		.4byte	0xdca
 4854 0d6a 2A       		.uleb128 0x2a
 4855 0d6b E8020000 		.4byte	.Ldebug_ranges0+0x2e8
 4856 0d6f 24       		.uleb128 0x24
 4857 0d70 A7200000 		.4byte	0x20a7
 4858 0d74 21       		.uleb128 0x21
 4859 0d75 EC210000 		.4byte	0x21ec
 4860 0d79 4E000000 		.4byte	.LBB479
 4861 0d7d 06000000 		.4byte	.LBE479-.LBB479
 4862 0d81 04       		.byte	0x4
 4863 0d82 7301     		.2byte	0x173
 4864 0d84 A30D0000 		.4byte	0xda3
 4865 0d88 2F       		.uleb128 0x2f
 4866 0d89 FE210000 		.4byte	0x21fe
 4867 0d8d 4E000000 		.4byte	.LBB480
 4868 0d91 06000000 		.4byte	.LBE480-.LBB480
ARM GAS  C:\Users\mathi\AppData\Local\Temp\cceGBsvt.s 			page 87


 4869 0d95 0F       		.byte	0xf
 4870 0d96 CD01     		.2byte	0x1cd
 4871 0d98 20       		.uleb128 0x20
 4872 0d99 0B220000 		.4byte	0x220b
 4873 0d9d B0020000 		.4byte	.LLST88
 4874 0da1 00       		.byte	0
 4875 0da2 00       		.byte	0
 4876 0da3 29       		.uleb128 0x29
 4877 0da4 38000000 		.4byte	.LVL253
 4878 0da8 48250000 		.4byte	0x2548
 4879 0dac 29       		.uleb128 0x29
 4880 0dad 3C000000 		.4byte	.LVL254
 4881 0db1 53250000 		.4byte	0x2553
 4882 0db5 28       		.uleb128 0x28
 4883 0db6 6E000000 		.4byte	.LVL260
 4884 0dba F9240000 		.4byte	0x24f9
 4885 0dbe 27       		.uleb128 0x27
 4886 0dbf 01       		.uleb128 0x1
 4887 0dc0 50       		.byte	0x50
 4888 0dc1 05       		.uleb128 0x5
 4889 0dc2 03       		.byte	0x3
 4890 0dc3 00000000 		.4byte	.LANCHOR1
 4891 0dc7 00       		.byte	0
 4892 0dc8 00       		.byte	0
 4893 0dc9 00       		.byte	0
 4894 0dca 29       		.uleb128 0x29
 4895 0dcb 74000000 		.4byte	.LVL261
 4896 0dcf 11250000 		.4byte	0x2511
 4897 0dd3 00       		.byte	0
 4898 0dd4 31       		.uleb128 0x31
 4899 0dd5 B9000000 		.4byte	.LASF168
 4900 0dd9 01       		.byte	0x1
 4901 0dda 4F02     		.2byte	0x24f
 4902 0ddc 01       		.byte	0x1
 4903 0ddd 140E0000 		.4byte	0xe14
 4904 0de1 32       		.uleb128 0x32
 4905 0de2 74727000 		.ascii	"trp\000"
 4906 0de6 01       		.byte	0x1
 4907 0de7 4F02     		.2byte	0x24f
 4908 0de9 2D080000 		.4byte	0x82d
 4909 0ded 32       		.uleb128 0x32
 4910 0dee 6D736700 		.ascii	"msg\000"
 4911 0df2 01       		.byte	0x1
 4912 0df3 4F02     		.2byte	0x24f
 4913 0df5 3D010000 		.4byte	0x13d
 4914 0df9 33       		.uleb128 0x33
 4915 0dfa E9000000 		.4byte	.LASF162
 4916 0dfe 240E0000 		.4byte	0xe24
 4917 0e02 B9000000 		.4byte	.LASF168
 4918 0e06 34       		.uleb128 0x34
 4919 0e07 35       		.uleb128 0x35
 4920 0e08 747000   		.ascii	"tp\000"
 4921 0e0b 01       		.byte	0x1
 4922 0e0c 5202     		.2byte	0x252
 4923 0e0e AD020000 		.4byte	0x2ad
 4924 0e12 00       		.byte	0
 4925 0e13 00       		.byte	0
ARM GAS  C:\Users\mathi\AppData\Local\Temp\cceGBsvt.s 			page 88


 4926 0e14 18       		.uleb128 0x18
 4927 0e15 B3080000 		.4byte	0x8b3
 4928 0e19 240E0000 		.4byte	0xe24
 4929 0e1d 19       		.uleb128 0x19
 4930 0e1e 37000000 		.4byte	0x37
 4931 0e22 0C       		.byte	0xc
 4932 0e23 00       		.byte	0
 4933 0e24 0B       		.uleb128 0xb
 4934 0e25 140E0000 		.4byte	0xe14
 4935 0e29 1D       		.uleb128 0x1d
 4936 0e2a 8C000000 		.4byte	.LASF163
 4937 0e2e 01       		.byte	0x1
 4938 0e2f 3702     		.2byte	0x237
 4939 0e31 00000000 		.4byte	.LFB235
 4940 0e35 54000000 		.4byte	.LFE235-.LFB235
 4941 0e39 01       		.uleb128 0x1
 4942 0e3a 9C       		.byte	0x9c
 4943 0e3b AD0E0000 		.4byte	0xead
 4944 0e3f 1E       		.uleb128 0x1e
 4945 0e40 74727000 		.ascii	"trp\000"
 4946 0e44 01       		.byte	0x1
 4947 0e45 3702     		.2byte	0x237
 4948 0e47 2D080000 		.4byte	0x82d
 4949 0e4b C4020000 		.4byte	.LLST77
 4950 0e4f 1E       		.uleb128 0x1e
 4951 0e50 6D736700 		.ascii	"msg\000"
 4952 0e54 01       		.byte	0x1
 4953 0e55 3702     		.2byte	0x237
 4954 0e57 3D010000 		.4byte	0x13d
 4955 0e5b 1F030000 		.4byte	.LLST78
 4956 0e5f 36       		.uleb128 0x36
 4957 0e60 E9000000 		.4byte	.LASF162
 4958 0e64 240E0000 		.4byte	0xe24
 4959 0e68 05       		.uleb128 0x5
 4960 0e69 03       		.byte	0x3
 4961 0e6a 00000000 		.4byte	__func__.7932
 4962 0e6e 37       		.uleb128 0x37
 4963 0e6f 88020000 		.4byte	.Ldebug_ranges0+0x288
 4964 0e73 A30E0000 		.4byte	0xea3
 4965 0e77 38       		.uleb128 0x38
 4966 0e78 747000   		.ascii	"tp\000"
 4967 0e7b 01       		.byte	0x1
 4968 0e7c 3A02     		.2byte	0x23a
 4969 0e7e AD020000 		.4byte	0x2ad
 4970 0e82 86030000 		.4byte	.LLST79
 4971 0e86 2B       		.uleb128 0x2b
 4972 0e87 34000000 		.4byte	.LVL230
 4973 0e8b 05250000 		.4byte	0x2505
 4974 0e8f 28       		.uleb128 0x28
 4975 0e90 3A000000 		.4byte	.LVL232
 4976 0e94 F9240000 		.4byte	0x24f9
 4977 0e98 27       		.uleb128 0x27
 4978 0e99 01       		.uleb128 0x1
 4979 0e9a 50       		.byte	0x50
 4980 0e9b 05       		.uleb128 0x5
 4981 0e9c 03       		.byte	0x3
 4982 0e9d 00000000 		.4byte	.LANCHOR9
ARM GAS  C:\Users\mathi\AppData\Local\Temp\cceGBsvt.s 			page 89


 4983 0ea1 00       		.byte	0
 4984 0ea2 00       		.byte	0
 4985 0ea3 29       		.uleb128 0x29
 4986 0ea4 4C000000 		.4byte	.LVL235
 4987 0ea8 11250000 		.4byte	0x2511
 4988 0eac 00       		.byte	0
 4989 0ead 2C       		.uleb128 0x2c
 4990 0eae A3020000 		.4byte	.LASF165
 4991 0eb2 01       		.byte	0x1
 4992 0eb3 1E02     		.2byte	0x21e
 4993 0eb5 3D010000 		.4byte	0x13d
 4994 0eb9 00000000 		.4byte	.LFB234
 4995 0ebd 58000000 		.4byte	.LFE234-.LFB234
 4996 0ec1 01       		.uleb128 0x1
 4997 0ec2 9C       		.byte	0x9c
 4998 0ec3 4C0F0000 		.4byte	0xf4c
 4999 0ec7 1E       		.uleb128 0x1e
 5000 0ec8 74727000 		.ascii	"trp\000"
 5001 0ecc 01       		.byte	0x1
 5002 0ecd 1E02     		.2byte	0x21e
 5003 0ecf 2D080000 		.4byte	0x82d
 5004 0ed3 AF030000 		.4byte	.LLST75
 5005 0ed7 2D       		.uleb128 0x2d
 5006 0ed8 67070000 		.4byte	.LASF160
 5007 0edc 01       		.byte	0x1
 5008 0edd 1E02     		.2byte	0x21e
 5009 0edf 69010000 		.4byte	0x169
 5010 0ee3 E6030000 		.4byte	.LLST76
 5011 0ee7 35       		.uleb128 0x35
 5012 0ee8 747000   		.ascii	"tp\000"
 5013 0eeb 01       		.byte	0x1
 5014 0eec 1F02     		.2byte	0x21f
 5015 0eee AD020000 		.4byte	0x2ad
 5016 0ef2 36       		.uleb128 0x36
 5017 0ef3 E9000000 		.4byte	.LASF162
 5018 0ef7 5C0F0000 		.4byte	0xf5c
 5019 0efb 05       		.uleb128 0x5
 5020 0efc 03       		.byte	0x3
 5021 0efd 00000000 		.4byte	__func__.7926
 5022 0f01 39       		.uleb128 0x39
 5023 0f02 45200000 		.4byte	0x2045
 5024 0f06 06000000 		.4byte	.LBB445
 5025 0f0a 70020000 		.4byte	.Ldebug_ranges0+0x270
 5026 0f0e 01       		.byte	0x1
 5027 0f0f 1F02     		.2byte	0x21f
 5028 0f11 26       		.uleb128 0x26
 5029 0f12 1C000000 		.4byte	.LVL221
 5030 0f16 F9240000 		.4byte	0x24f9
 5031 0f1a 280F0000 		.4byte	0xf28
 5032 0f1e 27       		.uleb128 0x27
 5033 0f1f 01       		.uleb128 0x1
 5034 0f20 50       		.byte	0x50
 5035 0f21 05       		.uleb128 0x5
 5036 0f22 03       		.byte	0x3
 5037 0f23 00000000 		.4byte	.LANCHOR8
 5038 0f27 00       		.byte	0
 5039 0f28 2E       		.uleb128 0x2e
ARM GAS  C:\Users\mathi\AppData\Local\Temp\cceGBsvt.s 			page 90


 5040 0f29 38000000 		.4byte	.LVL223
 5041 0f2d 1A250000 		.4byte	0x251a
 5042 0f31 420F0000 		.4byte	0xf42
 5043 0f35 27       		.uleb128 0x27
 5044 0f36 01       		.uleb128 0x1
 5045 0f37 50       		.byte	0x50
 5046 0f38 01       		.uleb128 0x1
 5047 0f39 33       		.byte	0x33
 5048 0f3a 27       		.uleb128 0x27
 5049 0f3b 01       		.uleb128 0x1
 5050 0f3c 51       		.byte	0x51
 5051 0f3d 03       		.uleb128 0x3
 5052 0f3e F3       		.byte	0xf3
 5053 0f3f 01       		.uleb128 0x1
 5054 0f40 51       		.byte	0x51
 5055 0f41 00       		.byte	0
 5056 0f42 29       		.uleb128 0x29
 5057 0f43 4C000000 		.4byte	.LVL225
 5058 0f47 11250000 		.4byte	0x2511
 5059 0f4b 00       		.byte	0
 5060 0f4c 18       		.uleb128 0x18
 5061 0f4d B3080000 		.4byte	0x8b3
 5062 0f51 5C0F0000 		.4byte	0xf5c
 5063 0f55 19       		.uleb128 0x19
 5064 0f56 37000000 		.4byte	0x37
 5065 0f5a 14       		.byte	0x14
 5066 0f5b 00       		.byte	0
 5067 0f5c 0B       		.uleb128 0xb
 5068 0f5d 4C0F0000 		.4byte	0xf4c
 5069 0f61 2C       		.uleb128 0x2c
 5070 0f62 9B010000 		.4byte	.LASF166
 5071 0f66 01       		.byte	0x1
 5072 0f67 FF01     		.2byte	0x1ff
 5073 0f69 3D010000 		.4byte	0x13d
 5074 0f6d 00000000 		.4byte	.LFB233
 5075 0f71 44000000 		.4byte	.LFE233-.LFB233
 5076 0f75 01       		.uleb128 0x1
 5077 0f76 9C       		.byte	0x9c
 5078 0f77 E90F0000 		.4byte	0xfe9
 5079 0f7b 1E       		.uleb128 0x1e
 5080 0f7c 74727000 		.ascii	"trp\000"
 5081 0f80 01       		.byte	0x1
 5082 0f81 FF01     		.2byte	0x1ff
 5083 0f83 2D080000 		.4byte	0x82d
 5084 0f87 28040000 		.4byte	.LLST74
 5085 0f8b 35       		.uleb128 0x35
 5086 0f8c 747000   		.ascii	"tp\000"
 5087 0f8f 01       		.byte	0x1
 5088 0f90 0002     		.2byte	0x200
 5089 0f92 AD020000 		.4byte	0x2ad
 5090 0f96 36       		.uleb128 0x36
 5091 0f97 E9000000 		.4byte	.LASF162
 5092 0f9b F90F0000 		.4byte	0xff9
 5093 0f9f 05       		.uleb128 0x5
 5094 0fa0 03       		.byte	0x3
 5095 0fa1 00000000 		.4byte	__func__.7920
 5096 0fa5 39       		.uleb128 0x39
ARM GAS  C:\Users\mathi\AppData\Local\Temp\cceGBsvt.s 			page 91


 5097 0fa6 45200000 		.4byte	0x2045
 5098 0faa 04000000 		.4byte	.LBB441
 5099 0fae 58020000 		.4byte	.Ldebug_ranges0+0x258
 5100 0fb2 01       		.byte	0x1
 5101 0fb3 0002     		.2byte	0x200
 5102 0fb5 26       		.uleb128 0x26
 5103 0fb6 1A000000 		.4byte	.LVL215
 5104 0fba F9240000 		.4byte	0x24f9
 5105 0fbe CC0F0000 		.4byte	0xfcc
 5106 0fc2 27       		.uleb128 0x27
 5107 0fc3 01       		.uleb128 0x1
 5108 0fc4 50       		.byte	0x50
 5109 0fc5 05       		.uleb128 0x5
 5110 0fc6 03       		.byte	0x3
 5111 0fc7 00000000 		.4byte	.LANCHOR7
 5112 0fcb 00       		.byte	0
 5113 0fcc 26       		.uleb128 0x26
 5114 0fcd 24000000 		.4byte	.LVL216
 5115 0fd1 5E250000 		.4byte	0x255e
 5116 0fd5 DF0F0000 		.4byte	0xfdf
 5117 0fd9 27       		.uleb128 0x27
 5118 0fda 01       		.uleb128 0x1
 5119 0fdb 50       		.byte	0x50
 5120 0fdc 01       		.uleb128 0x1
 5121 0fdd 33       		.byte	0x33
 5122 0fde 00       		.byte	0
 5123 0fdf 29       		.uleb128 0x29
 5124 0fe0 38000000 		.4byte	.LVL218
 5125 0fe4 11250000 		.4byte	0x2511
 5126 0fe8 00       		.byte	0
 5127 0fe9 18       		.uleb128 0x18
 5128 0fea B3080000 		.4byte	0x8b3
 5129 0fee F90F0000 		.4byte	0xff9
 5130 0ff2 19       		.uleb128 0x19
 5131 0ff3 37000000 		.4byte	0x37
 5132 0ff7 0D       		.byte	0xd
 5133 0ff8 00       		.byte	0
 5134 0ff9 0B       		.uleb128 0xb
 5135 0ffa E90F0000 		.4byte	0xfe9
 5136 0ffe 2C       		.uleb128 0x2c
 5137 0fff 67080000 		.4byte	.LASF167
 5138 1003 01       		.byte	0x1
 5139 1004 DB01     		.2byte	0x1db
 5140 1006 3D010000 		.4byte	0x13d
 5141 100a 00000000 		.4byte	.LFB232
 5142 100e AC000000 		.4byte	.LFE232-.LFB232
 5143 1012 01       		.uleb128 0x1
 5144 1013 9C       		.byte	0x9c
 5145 1014 AD110000 		.4byte	0x11ad
 5146 1018 1E       		.uleb128 0x1e
 5147 1019 747000   		.ascii	"tp\000"
 5148 101c 01       		.byte	0x1
 5149 101d DB01     		.2byte	0x1db
 5150 101f AD020000 		.4byte	0x2ad
 5151 1023 46040000 		.4byte	.LLST68
 5152 1027 38       		.uleb128 0x38
 5153 1028 6D736700 		.ascii	"msg\000"
ARM GAS  C:\Users\mathi\AppData\Local\Temp\cceGBsvt.s 			page 92


 5154 102c 01       		.byte	0x1
 5155 102d DC01     		.2byte	0x1dc
 5156 102f 3D010000 		.4byte	0x13d
 5157 1033 7A040000 		.4byte	.LLST69
 5158 1037 36       		.uleb128 0x36
 5159 1038 E9000000 		.4byte	.LASF162
 5160 103c BD110000 		.4byte	0x11bd
 5161 1040 05       		.uleb128 0x5
 5162 1041 03       		.byte	0x3
 5163 1042 00000000 		.4byte	__func__.7915
 5164 1046 1F       		.uleb128 0x1f
 5165 1047 B5200000 		.4byte	0x20b5
 5166 104b 10000000 		.4byte	.LBB423
 5167 104f 10020000 		.4byte	.Ldebug_ranges0+0x210
 5168 1053 01       		.byte	0x1
 5169 1054 E001     		.2byte	0x1e0
 5170 1056 9C100000 		.4byte	0x109c
 5171 105a 21       		.uleb128 0x21
 5172 105b F5210000 		.4byte	0x21f5
 5173 105f 10000000 		.4byte	.LBB425
 5174 1063 06000000 		.4byte	.LBE425-.LBB425
 5175 1067 04       		.byte	0x4
 5176 1068 5C01     		.2byte	0x15c
 5177 106a 89100000 		.4byte	0x1089
 5178 106e 2F       		.uleb128 0x2f
 5179 106f FE210000 		.4byte	0x21fe
 5180 1073 10000000 		.4byte	.LBB426
 5181 1077 06000000 		.4byte	.LBE426-.LBB426
 5182 107b 0F       		.byte	0xf
 5183 107c BF01     		.2byte	0x1bf
 5184 107e 20       		.uleb128 0x20
 5185 107f 0B220000 		.4byte	0x220b
 5186 1083 B9040000 		.4byte	.LLST70
 5187 1087 00       		.byte	0
 5188 1088 00       		.byte	0
 5189 1089 29       		.uleb128 0x29
 5190 108a 1C000000 		.4byte	.LVL191
 5191 108e 26250000 		.4byte	0x2526
 5192 1092 29       		.uleb128 0x29
 5193 1093 20000000 		.4byte	.LVL192
 5194 1097 31250000 		.4byte	0x2531
 5195 109b 00       		.byte	0
 5196 109c 1F       		.uleb128 0x1f
 5197 109d 51210000 		.4byte	0x2151
 5198 10a1 36000000 		.4byte	.LBB430
 5199 10a5 28020000 		.4byte	.Ldebug_ranges0+0x228
 5200 10a9 01       		.byte	0x1
 5201 10aa E601     		.2byte	0x1e6
 5202 10ac C3100000 		.4byte	0x10c3
 5203 10b0 20       		.uleb128 0x20
 5204 10b1 69210000 		.4byte	0x2169
 5205 10b5 CE040000 		.4byte	.LLST71
 5206 10b9 20       		.uleb128 0x20
 5207 10ba 5E210000 		.4byte	0x215e
 5208 10be E3040000 		.4byte	.LLST72
 5209 10c2 00       		.byte	0
 5210 10c3 1F       		.uleb128 0x1f
ARM GAS  C:\Users\mathi\AppData\Local\Temp\cceGBsvt.s 			page 93


 5211 10c4 9A200000 		.4byte	0x209a
 5212 10c8 44000000 		.4byte	.LBB434
 5213 10cc 40020000 		.4byte	.Ldebug_ranges0+0x240
 5214 10d0 01       		.byte	0x1
 5215 10d1 EA01     		.2byte	0x1ea
 5216 10d3 37110000 		.4byte	0x1137
 5217 10d7 2A       		.uleb128 0x2a
 5218 10d8 40020000 		.4byte	.Ldebug_ranges0+0x240
 5219 10dc 24       		.uleb128 0x24
 5220 10dd A7200000 		.4byte	0x20a7
 5221 10e1 21       		.uleb128 0x21
 5222 10e2 EC210000 		.4byte	0x21ec
 5223 10e6 5C000000 		.4byte	.LBB436
 5224 10ea 06000000 		.4byte	.LBE436-.LBB436
 5225 10ee 04       		.byte	0x4
 5226 10ef 7301     		.2byte	0x173
 5227 10f1 10110000 		.4byte	0x1110
 5228 10f5 2F       		.uleb128 0x2f
 5229 10f6 FE210000 		.4byte	0x21fe
 5230 10fa 5C000000 		.4byte	.LBB437
 5231 10fe 06000000 		.4byte	.LBE437-.LBB437
 5232 1102 0F       		.byte	0xf
 5233 1103 CD01     		.2byte	0x1cd
 5234 1105 20       		.uleb128 0x20
 5235 1106 0B220000 		.4byte	0x220b
 5236 110a F6040000 		.4byte	.LLST73
 5237 110e 00       		.byte	0
 5238 110f 00       		.byte	0
 5239 1110 29       		.uleb128 0x29
 5240 1111 48000000 		.4byte	.LVL197
 5241 1115 48250000 		.4byte	0x2548
 5242 1119 29       		.uleb128 0x29
 5243 111a 4C000000 		.4byte	.LVL198
 5244 111e 53250000 		.4byte	0x2553
 5245 1122 28       		.uleb128 0x28
 5246 1123 7C000000 		.4byte	.LVL204
 5247 1127 F9240000 		.4byte	0x24f9
 5248 112b 27       		.uleb128 0x27
 5249 112c 01       		.uleb128 0x1
 5250 112d 50       		.byte	0x50
 5251 112e 05       		.uleb128 0x5
 5252 112f 03       		.byte	0x3
 5253 1130 00000000 		.4byte	.LANCHOR1
 5254 1134 00       		.byte	0
 5255 1135 00       		.byte	0
 5256 1136 00       		.byte	0
 5257 1137 26       		.uleb128 0x26
 5258 1138 42000000 		.4byte	.LVL195
 5259 113c 5E250000 		.4byte	0x255e
 5260 1140 4A110000 		.4byte	0x114a
 5261 1144 27       		.uleb128 0x27
 5262 1145 01       		.uleb128 0x1
 5263 1146 50       		.byte	0x50
 5264 1147 01       		.uleb128 0x1
 5265 1148 39       		.byte	0x39
 5266 1149 00       		.byte	0
 5267 114a 26       		.uleb128 0x26
ARM GAS  C:\Users\mathi\AppData\Local\Temp\cceGBsvt.s 			page 94


 5268 114b 68000000 		.4byte	.LVL201
 5269 114f 6A250000 		.4byte	0x256a
 5270 1153 5E110000 		.4byte	0x115e
 5271 1157 27       		.uleb128 0x27
 5272 1158 01       		.uleb128 0x1
 5273 1159 50       		.byte	0x50
 5274 115a 02       		.uleb128 0x2
 5275 115b 74       		.byte	0x74
 5276 115c 00       		.sleb128 0
 5277 115d 00       		.byte	0
 5278 115e 26       		.uleb128 0x26
 5279 115f 84000000 		.4byte	.LVL206
 5280 1163 F9240000 		.4byte	0x24f9
 5281 1167 75110000 		.4byte	0x1175
 5282 116b 27       		.uleb128 0x27
 5283 116c 01       		.uleb128 0x1
 5284 116d 50       		.byte	0x50
 5285 116e 05       		.uleb128 0x5
 5286 116f 03       		.byte	0x3
 5287 1170 00000000 		.4byte	.LANCHOR6
 5288 1174 00       		.byte	0
 5289 1175 26       		.uleb128 0x26
 5290 1176 8C000000 		.4byte	.LVL207
 5291 117a F9240000 		.4byte	0x24f9
 5292 117e 8C110000 		.4byte	0x118c
 5293 1182 27       		.uleb128 0x27
 5294 1183 01       		.uleb128 0x1
 5295 1184 50       		.byte	0x50
 5296 1185 05       		.uleb128 0x5
 5297 1186 03       		.byte	0x3
 5298 1187 00000000 		.4byte	.LANCHOR6
 5299 118b 00       		.byte	0
 5300 118c 26       		.uleb128 0x26
 5301 118d 94000000 		.4byte	.LVL210
 5302 1191 F9240000 		.4byte	0x24f9
 5303 1195 A3110000 		.4byte	0x11a3
 5304 1199 27       		.uleb128 0x27
 5305 119a 01       		.uleb128 0x1
 5306 119b 50       		.byte	0x50
 5307 119c 05       		.uleb128 0x5
 5308 119d 03       		.byte	0x3
 5309 119e 00000000 		.4byte	.LANCHOR6
 5310 11a2 00       		.byte	0
 5311 11a3 29       		.uleb128 0x29
 5312 11a4 9A000000 		.4byte	.LVL212
 5313 11a8 11250000 		.4byte	0x2511
 5314 11ac 00       		.byte	0
 5315 11ad 18       		.uleb128 0x18
 5316 11ae B3080000 		.4byte	0x8b3
 5317 11b2 BD110000 		.4byte	0x11bd
 5318 11b6 19       		.uleb128 0x19
 5319 11b7 37000000 		.4byte	0x37
 5320 11bb 09       		.byte	0x9
 5321 11bc 00       		.byte	0
 5322 11bd 0B       		.uleb128 0xb
 5323 11be AD110000 		.4byte	0x11ad
 5324 11c2 31       		.uleb128 0x31
ARM GAS  C:\Users\mathi\AppData\Local\Temp\cceGBsvt.s 			page 95


 5325 11c3 130B0000 		.4byte	.LASF169
 5326 11c7 01       		.byte	0x1
 5327 11c8 A201     		.2byte	0x1a2
 5328 11ca 01       		.byte	0x1
 5329 11cb F4110000 		.4byte	0x11f4
 5330 11cf 32       		.uleb128 0x32
 5331 11d0 6D736700 		.ascii	"msg\000"
 5332 11d4 01       		.byte	0x1
 5333 11d5 A201     		.2byte	0x1a2
 5334 11d7 3D010000 		.4byte	0x13d
 5335 11db 35       		.uleb128 0x35
 5336 11dc 747000   		.ascii	"tp\000"
 5337 11df 01       		.byte	0x1
 5338 11e0 A301     		.2byte	0x1a3
 5339 11e2 AD020000 		.4byte	0x2ad
 5340 11e6 33       		.uleb128 0x33
 5341 11e7 E9000000 		.4byte	.LASF162
 5342 11eb 04120000 		.4byte	0x1204
 5343 11ef 130B0000 		.4byte	.LASF169
 5344 11f3 00       		.byte	0
 5345 11f4 18       		.uleb128 0x18
 5346 11f5 B3080000 		.4byte	0x8b3
 5347 11f9 04120000 		.4byte	0x1204
 5348 11fd 19       		.uleb128 0x19
 5349 11fe 37000000 		.4byte	0x37
 5350 1202 0A       		.byte	0xa
 5351 1203 00       		.byte	0
 5352 1204 0B       		.uleb128 0xb
 5353 1205 F4110000 		.4byte	0x11f4
 5354 1209 1D       		.uleb128 0x1d
 5355 120a D8080000 		.4byte	.LASF170
 5356 120e 01       		.byte	0x1
 5357 120f 8D01     		.2byte	0x18d
 5358 1211 00000000 		.4byte	.LFB230
 5359 1215 78000000 		.4byte	.LFE230-.LFB230
 5360 1219 01       		.uleb128 0x1
 5361 121a 9C       		.byte	0x9c
 5362 121b 3F130000 		.4byte	0x133f
 5363 121f 1E       		.uleb128 0x1e
 5364 1220 6D736700 		.ascii	"msg\000"
 5365 1224 01       		.byte	0x1
 5366 1225 8D01     		.2byte	0x18d
 5367 1227 3D010000 		.4byte	0x13d
 5368 122b 0A050000 		.4byte	.LLST56
 5369 122f 21       		.uleb128 0x21
 5370 1230 B5200000 		.4byte	0x20b5
 5371 1234 0C000000 		.4byte	.LBB390
 5372 1238 0E000000 		.4byte	.LBE390-.LBB390
 5373 123c 01       		.byte	0x1
 5374 123d 8F01     		.2byte	0x18f
 5375 123f 85120000 		.4byte	0x1285
 5376 1243 21       		.uleb128 0x21
 5377 1244 F5210000 		.4byte	0x21f5
 5378 1248 0C000000 		.4byte	.LBB392
 5379 124c 06000000 		.4byte	.LBE392-.LBB392
 5380 1250 04       		.byte	0x4
 5381 1251 5C01     		.2byte	0x15c
ARM GAS  C:\Users\mathi\AppData\Local\Temp\cceGBsvt.s 			page 96


 5382 1253 72120000 		.4byte	0x1272
 5383 1257 2F       		.uleb128 0x2f
 5384 1258 FE210000 		.4byte	0x21fe
 5385 125c 0C000000 		.4byte	.LBB393
 5386 1260 06000000 		.4byte	.LBE393-.LBB393
 5387 1264 0F       		.byte	0xf
 5388 1265 BF01     		.2byte	0x1bf
 5389 1267 20       		.uleb128 0x20
 5390 1268 0B220000 		.4byte	0x220b
 5391 126c 42050000 		.4byte	.LLST57
 5392 1270 00       		.byte	0
 5393 1271 00       		.byte	0
 5394 1272 29       		.uleb128 0x29
 5395 1273 16000000 		.4byte	.LVL166
 5396 1277 26250000 		.4byte	0x2526
 5397 127b 29       		.uleb128 0x29
 5398 127c 1A000000 		.4byte	.LVL167
 5399 1280 31250000 		.4byte	0x2531
 5400 1284 00       		.byte	0
 5401 1285 3A       		.uleb128 0x3a
 5402 1286 C2110000 		.4byte	0x11c2
 5403 128a 1A000000 		.4byte	.LBB395
 5404 128e C8010000 		.4byte	.Ldebug_ranges0+0x1c8
 5405 1292 01       		.byte	0x1
 5406 1293 9001     		.2byte	0x190
 5407 1295 20       		.uleb128 0x20
 5408 1296 CF110000 		.4byte	0x11cf
 5409 129a 57050000 		.4byte	.LLST58
 5410 129e 2A       		.uleb128 0x2a
 5411 129f C8010000 		.4byte	.Ldebug_ranges0+0x1c8
 5412 12a3 25       		.uleb128 0x25
 5413 12a4 DB110000 		.4byte	0x11db
 5414 12a8 84050000 		.4byte	.LLST59
 5415 12ac 24       		.uleb128 0x24
 5416 12ad E6110000 		.4byte	0x11e6
 5417 12b1 1F       		.uleb128 0x1f
 5418 12b2 B4210000 		.4byte	0x21b4
 5419 12b6 1E000000 		.4byte	.LBB397
 5420 12ba E0010000 		.4byte	.Ldebug_ranges0+0x1e0
 5421 12be 01       		.byte	0x1
 5422 12bf AA01     		.2byte	0x1aa
 5423 12c1 CF120000 		.4byte	0x12cf
 5424 12c5 20       		.uleb128 0x20
 5425 12c6 C5210000 		.4byte	0x21c5
 5426 12ca A2050000 		.4byte	.LLST60
 5427 12ce 00       		.byte	0
 5428 12cf 21       		.uleb128 0x21
 5429 12d0 22210000 		.4byte	0x2122
 5430 12d4 2A000000 		.4byte	.LBB400
 5431 12d8 04000000 		.4byte	.LBE400-.LBB400
 5432 12dc 01       		.byte	0x1
 5433 12dd AB01     		.2byte	0x1ab
 5434 12df 00130000 		.4byte	0x1300
 5435 12e3 20       		.uleb128 0x20
 5436 12e4 33210000 		.4byte	0x2133
 5437 12e8 B5050000 		.4byte	.LLST61
 5438 12ec 23       		.uleb128 0x23
ARM GAS  C:\Users\mathi\AppData\Local\Temp\cceGBsvt.s 			page 97


 5439 12ed 2A000000 		.4byte	.LBB401
 5440 12f1 04000000 		.4byte	.LBE401-.LBB401
 5441 12f5 25       		.uleb128 0x25
 5442 12f6 3F210000 		.4byte	0x213f
 5443 12fa C8050000 		.4byte	.LLST62
 5444 12fe 00       		.byte	0
 5445 12ff 00       		.byte	0
 5446 1300 29       		.uleb128 0x29
 5447 1301 32000000 		.4byte	.LVL172
 5448 1305 05250000 		.4byte	0x2505
 5449 1309 26       		.uleb128 0x26
 5450 130a 52000000 		.4byte	.LVL174
 5451 130e 5E250000 		.4byte	0x255e
 5452 1312 1C130000 		.4byte	0x131c
 5453 1316 27       		.uleb128 0x27
 5454 1317 01       		.uleb128 0x1
 5455 1318 50       		.byte	0x50
 5456 1319 01       		.uleb128 0x1
 5457 131a 3F       		.byte	0x3f
 5458 131b 00       		.byte	0
 5459 131c 2E       		.uleb128 0x2e
 5460 131d 66000000 		.4byte	.LVL176
 5461 1321 F9240000 		.4byte	0x24f9
 5462 1325 33130000 		.4byte	0x1333
 5463 1329 27       		.uleb128 0x27
 5464 132a 01       		.uleb128 0x1
 5465 132b 50       		.byte	0x50
 5466 132c 05       		.uleb128 0x5
 5467 132d 03       		.byte	0x3
 5468 132e 00000000 		.4byte	.LANCHOR5
 5469 1332 00       		.byte	0
 5470 1333 29       		.uleb128 0x29
 5471 1334 6A000000 		.4byte	.LVL177
 5472 1338 11250000 		.4byte	0x2511
 5473 133c 00       		.byte	0
 5474 133d 00       		.byte	0
 5475 133e 00       		.byte	0
 5476 133f 1D       		.uleb128 0x1d
 5477 1340 1D070000 		.4byte	.LASF171
 5478 1344 01       		.byte	0x1
 5479 1345 7801     		.2byte	0x178
 5480 1347 00000000 		.4byte	.LFB229
 5481 134b 74000000 		.4byte	.LFE229-.LFB229
 5482 134f 01       		.uleb128 0x1
 5483 1350 9C       		.byte	0x9c
 5484 1351 6E140000 		.4byte	0x146e
 5485 1355 1F       		.uleb128 0x1f
 5486 1356 B5200000 		.4byte	0x20b5
 5487 135a 0A000000 		.4byte	.LBB357
 5488 135e 68010000 		.4byte	.Ldebug_ranges0+0x168
 5489 1362 01       		.byte	0x1
 5490 1363 7A01     		.2byte	0x17a
 5491 1365 AB130000 		.4byte	0x13ab
 5492 1369 21       		.uleb128 0x21
 5493 136a F5210000 		.4byte	0x21f5
 5494 136e 0A000000 		.4byte	.LBB359
 5495 1372 06000000 		.4byte	.LBE359-.LBB359
ARM GAS  C:\Users\mathi\AppData\Local\Temp\cceGBsvt.s 			page 98


 5496 1376 04       		.byte	0x4
 5497 1377 5C01     		.2byte	0x15c
 5498 1379 98130000 		.4byte	0x1398
 5499 137d 2F       		.uleb128 0x2f
 5500 137e FE210000 		.4byte	0x21fe
 5501 1382 0A000000 		.4byte	.LBB360
 5502 1386 06000000 		.4byte	.LBE360-.LBB360
 5503 138a 0F       		.byte	0xf
 5504 138b BF01     		.2byte	0x1bf
 5505 138d 20       		.uleb128 0x20
 5506 138e 0B220000 		.4byte	0x220b
 5507 1392 DB050000 		.4byte	.LLST54
 5508 1396 00       		.byte	0
 5509 1397 00       		.byte	0
 5510 1398 29       		.uleb128 0x29
 5511 1399 16000000 		.4byte	.LVL152
 5512 139d 26250000 		.4byte	0x2526
 5513 13a1 29       		.uleb128 0x29
 5514 13a2 1A000000 		.4byte	.LVL153
 5515 13a6 31250000 		.4byte	0x2531
 5516 13aa 00       		.byte	0
 5517 13ab 1F       		.uleb128 0x1f
 5518 13ac BE200000 		.4byte	0x20be
 5519 13b0 10000000 		.4byte	.LBB363
 5520 13b4 80010000 		.4byte	.Ldebug_ranges0+0x180
 5521 13b8 01       		.byte	0x1
 5522 13b9 7B01     		.2byte	0x17b
 5523 13bb F0130000 		.4byte	0x13f0
 5524 13bf 1F       		.uleb128 0x1f
 5525 13c0 C7200000 		.4byte	0x20c7
 5526 13c4 10000000 		.4byte	.LBB365
 5527 13c8 98010000 		.4byte	.Ldebug_ranges0+0x198
 5528 13cc 02       		.byte	0x2
 5529 13cd E902     		.2byte	0x2e9
 5530 13cf DD130000 		.4byte	0x13dd
 5531 13d3 29       		.uleb128 0x29
 5532 13d4 22000000 		.4byte	.LVL155
 5533 13d8 75250000 		.4byte	0x2575
 5534 13dc 00       		.byte	0
 5535 13dd 29       		.uleb128 0x29
 5536 13de 1E000000 		.4byte	.LVL154
 5537 13e2 75250000 		.4byte	0x2575
 5538 13e6 29       		.uleb128 0x29
 5539 13e7 32000000 		.4byte	.LVL156
 5540 13eb 80250000 		.4byte	0x2580
 5541 13ef 00       		.byte	0
 5542 13f0 1F       		.uleb128 0x1f
 5543 13f1 9A200000 		.4byte	0x209a
 5544 13f5 32000000 		.4byte	.LBB372
 5545 13f9 B0010000 		.4byte	.Ldebug_ranges0+0x1b0
 5546 13fd 01       		.byte	0x1
 5547 13fe 7C01     		.2byte	0x17c
 5548 1400 64140000 		.4byte	0x1464
 5549 1404 2A       		.uleb128 0x2a
 5550 1405 B0010000 		.4byte	.Ldebug_ranges0+0x1b0
 5551 1409 24       		.uleb128 0x24
 5552 140a A7200000 		.4byte	0x20a7
ARM GAS  C:\Users\mathi\AppData\Local\Temp\cceGBsvt.s 			page 99


 5553 140e 21       		.uleb128 0x21
 5554 140f EC210000 		.4byte	0x21ec
 5555 1413 4A000000 		.4byte	.LBB374
 5556 1417 06000000 		.4byte	.LBE374-.LBB374
 5557 141b 04       		.byte	0x4
 5558 141c 7301     		.2byte	0x173
 5559 141e 3D140000 		.4byte	0x143d
 5560 1422 2F       		.uleb128 0x2f
 5561 1423 FE210000 		.4byte	0x21fe
 5562 1427 4A000000 		.4byte	.LBB375
 5563 142b 06000000 		.4byte	.LBE375-.LBB375
 5564 142f 0F       		.byte	0xf
 5565 1430 CD01     		.2byte	0x1cd
 5566 1432 20       		.uleb128 0x20
 5567 1433 0B220000 		.4byte	0x220b
 5568 1437 F0050000 		.4byte	.LLST55
 5569 143b 00       		.byte	0
 5570 143c 00       		.byte	0
 5571 143d 29       		.uleb128 0x29
 5572 143e 36000000 		.4byte	.LVL157
 5573 1442 48250000 		.4byte	0x2548
 5574 1446 29       		.uleb128 0x29
 5575 1447 3A000000 		.4byte	.LVL158
 5576 144b 53250000 		.4byte	0x2553
 5577 144f 28       		.uleb128 0x28
 5578 1450 62000000 		.4byte	.LVL161
 5579 1454 F9240000 		.4byte	0x24f9
 5580 1458 27       		.uleb128 0x27
 5581 1459 01       		.uleb128 0x1
 5582 145a 50       		.byte	0x50
 5583 145b 05       		.uleb128 0x5
 5584 145c 03       		.byte	0x3
 5585 145d 00000000 		.4byte	.LANCHOR1
 5586 1461 00       		.byte	0
 5587 1462 00       		.byte	0
 5588 1463 00       		.byte	0
 5589 1464 29       		.uleb128 0x29
 5590 1465 68000000 		.4byte	.LVL162
 5591 1469 11250000 		.4byte	0x2511
 5592 146d 00       		.byte	0
 5593 146e 2C       		.uleb128 0x2c
 5594 146f C5070000 		.4byte	.LASF172
 5595 1473 01       		.byte	0x1
 5596 1474 6401     		.2byte	0x164
 5597 1476 69010000 		.4byte	0x169
 5598 147a 00000000 		.4byte	.LFB228
 5599 147e 84000000 		.4byte	.LFE228-.LFB228
 5600 1482 01       		.uleb128 0x1
 5601 1483 9C       		.byte	0x9c
 5602 1484 15160000 		.4byte	0x1615
 5603 1488 2D       		.uleb128 0x2d
 5604 1489 280C0000 		.4byte	.LASF173
 5605 148d 01       		.byte	0x1
 5606 148e 6401     		.2byte	0x164
 5607 1490 69010000 		.4byte	0x169
 5608 1494 04060000 		.4byte	.LLST49
 5609 1498 2D       		.uleb128 0x2d
ARM GAS  C:\Users\mathi\AppData\Local\Temp\cceGBsvt.s 			page 100


 5610 1499 150C0000 		.4byte	.LASF174
 5611 149d 01       		.byte	0x1
 5612 149e 6401     		.2byte	0x164
 5613 14a0 69010000 		.4byte	0x169
 5614 14a4 30060000 		.4byte	.LLST50
 5615 14a8 3B       		.uleb128 0x3b
 5616 14a9 190A0000 		.4byte	.LASF175
 5617 14ad 01       		.byte	0x1
 5618 14ae 6501     		.2byte	0x165
 5619 14b0 69010000 		.4byte	0x169
 5620 14b4 1F       		.uleb128 0x1f
 5621 14b5 B5200000 		.4byte	0x20b5
 5622 14b9 0E000000 		.4byte	.LBB321
 5623 14bd 20010000 		.4byte	.Ldebug_ranges0+0x120
 5624 14c1 01       		.byte	0x1
 5625 14c2 6701     		.2byte	0x167
 5626 14c4 0A150000 		.4byte	0x150a
 5627 14c8 21       		.uleb128 0x21
 5628 14c9 F5210000 		.4byte	0x21f5
 5629 14cd 0E000000 		.4byte	.LBB323
 5630 14d1 06000000 		.4byte	.LBE323-.LBB323
 5631 14d5 04       		.byte	0x4
 5632 14d6 5C01     		.2byte	0x15c
 5633 14d8 F7140000 		.4byte	0x14f7
 5634 14dc 2F       		.uleb128 0x2f
 5635 14dd FE210000 		.4byte	0x21fe
 5636 14e1 0E000000 		.4byte	.LBB324
 5637 14e5 06000000 		.4byte	.LBE324-.LBB324
 5638 14e9 0F       		.byte	0xf
 5639 14ea BF01     		.2byte	0x1bf
 5640 14ec 20       		.uleb128 0x20
 5641 14ed 0B220000 		.4byte	0x220b
 5642 14f1 7A060000 		.4byte	.LLST51
 5643 14f5 00       		.byte	0
 5644 14f6 00       		.byte	0
 5645 14f7 29       		.uleb128 0x29
 5646 14f8 1A000000 		.4byte	.LVL134
 5647 14fc 26250000 		.4byte	0x2526
 5648 1500 29       		.uleb128 0x29
 5649 1501 1E000000 		.4byte	.LVL135
 5650 1505 31250000 		.4byte	0x2531
 5651 1509 00       		.byte	0
 5652 150a 39       		.uleb128 0x39
 5653 150b 8E200000 		.4byte	0x208e
 5654 150f 14000000 		.4byte	.LBB327
 5655 1513 38010000 		.4byte	.Ldebug_ranges0+0x138
 5656 1517 01       		.byte	0x1
 5657 1518 6801     		.2byte	0x168
 5658 151a 21       		.uleb128 0x21
 5659 151b 51200000 		.4byte	0x2051
 5660 151f 20000000 		.4byte	.LBB332
 5661 1523 04000000 		.4byte	.LBE332-.LBB332
 5662 1527 01       		.byte	0x1
 5663 1528 6901     		.2byte	0x169
 5664 152a 3E150000 		.4byte	0x153e
 5665 152e 22       		.uleb128 0x22
 5666 152f 7A200000 		.4byte	0x207a
ARM GAS  C:\Users\mathi\AppData\Local\Temp\cceGBsvt.s 			page 101


 5667 1533 22       		.uleb128 0x22
 5668 1534 6E200000 		.4byte	0x206e
 5669 1538 22       		.uleb128 0x22
 5670 1539 62200000 		.4byte	0x2062
 5671 153d 00       		.byte	0
 5672 153e 1F       		.uleb128 0x1f
 5673 153f 9A200000 		.4byte	0x209a
 5674 1543 28000000 		.4byte	.LBB334
 5675 1547 50010000 		.4byte	.Ldebug_ranges0+0x150
 5676 154b 01       		.byte	0x1
 5677 154c 6C01     		.2byte	0x16c
 5678 154e B2150000 		.4byte	0x15b2
 5679 1552 2A       		.uleb128 0x2a
 5680 1553 50010000 		.4byte	.Ldebug_ranges0+0x150
 5681 1557 24       		.uleb128 0x24
 5682 1558 A7200000 		.4byte	0x20a7
 5683 155c 21       		.uleb128 0x21
 5684 155d EC210000 		.4byte	0x21ec
 5685 1561 40000000 		.4byte	.LBB336
 5686 1565 06000000 		.4byte	.LBE336-.LBB336
 5687 1569 04       		.byte	0x4
 5688 156a 7301     		.2byte	0x173
 5689 156c 8B150000 		.4byte	0x158b
 5690 1570 2F       		.uleb128 0x2f
 5691 1571 FE210000 		.4byte	0x21fe
 5692 1575 40000000 		.4byte	.LBB337
 5693 1579 06000000 		.4byte	.LBE337-.LBB337
 5694 157d 0F       		.byte	0xf
 5695 157e CD01     		.2byte	0x1cd
 5696 1580 20       		.uleb128 0x20
 5697 1581 0B220000 		.4byte	0x220b
 5698 1585 8F060000 		.4byte	.LLST52
 5699 1589 00       		.byte	0
 5700 158a 00       		.byte	0
 5701 158b 29       		.uleb128 0x29
 5702 158c 2C000000 		.4byte	.LVL137
 5703 1590 48250000 		.4byte	0x2548
 5704 1594 29       		.uleb128 0x29
 5705 1595 30000000 		.4byte	.LVL138
 5706 1599 53250000 		.4byte	0x2553
 5707 159d 28       		.uleb128 0x28
 5708 159e 5A000000 		.4byte	.LVL143
 5709 15a2 F9240000 		.4byte	0x24f9
 5710 15a6 27       		.uleb128 0x27
 5711 15a7 01       		.uleb128 0x1
 5712 15a8 50       		.byte	0x50
 5713 15a9 05       		.uleb128 0x5
 5714 15aa 03       		.byte	0x3
 5715 15ab 00000000 		.4byte	.LANCHOR1
 5716 15af 00       		.byte	0
 5717 15b0 00       		.byte	0
 5718 15b1 00       		.byte	0
 5719 15b2 21       		.uleb128 0x21
 5720 15b3 E11F0000 		.4byte	0x1fe1
 5721 15b7 5C000000 		.4byte	.LBB341
 5722 15bb 14000000 		.4byte	.LBE341-.LBB341
 5723 15bf 01       		.byte	0x1
ARM GAS  C:\Users\mathi\AppData\Local\Temp\cceGBsvt.s 			page 102


 5724 15c0 6A01     		.2byte	0x16a
 5725 15c2 0B160000 		.4byte	0x160b
 5726 15c6 20       		.uleb128 0x20
 5727 15c7 EE1F0000 		.4byte	0x1fee
 5728 15cb A3060000 		.4byte	.LLST53
 5729 15cf 23       		.uleb128 0x23
 5730 15d0 5C000000 		.4byte	.LBB342
 5731 15d4 14000000 		.4byte	.LBE342-.LBB342
 5732 15d8 24       		.uleb128 0x24
 5733 15d9 FA1F0000 		.4byte	0x1ffa
 5734 15dd 26       		.uleb128 0x26
 5735 15de 66000000 		.4byte	.LVL146
 5736 15e2 F9240000 		.4byte	0x24f9
 5737 15e6 F4150000 		.4byte	0x15f4
 5738 15ea 27       		.uleb128 0x27
 5739 15eb 01       		.uleb128 0x1
 5740 15ec 50       		.byte	0x50
 5741 15ed 05       		.uleb128 0x5
 5742 15ee 03       		.byte	0x3
 5743 15ef 00000000 		.4byte	.LANCHOR4
 5744 15f3 00       		.byte	0
 5745 15f4 28       		.uleb128 0x28
 5746 15f5 6E000000 		.4byte	.LVL147
 5747 15f9 1A250000 		.4byte	0x251a
 5748 15fd 27       		.uleb128 0x27
 5749 15fe 01       		.uleb128 0x1
 5750 15ff 50       		.byte	0x50
 5751 1600 01       		.uleb128 0x1
 5752 1601 38       		.byte	0x38
 5753 1602 27       		.uleb128 0x27
 5754 1603 01       		.uleb128 0x1
 5755 1604 51       		.byte	0x51
 5756 1605 02       		.uleb128 0x2
 5757 1606 74       		.byte	0x74
 5758 1607 00       		.sleb128 0
 5759 1608 00       		.byte	0
 5760 1609 00       		.byte	0
 5761 160a 00       		.byte	0
 5762 160b 29       		.uleb128 0x29
 5763 160c 74000000 		.4byte	.LVL149
 5764 1610 11250000 		.4byte	0x2511
 5765 1614 00       		.byte	0
 5766 1615 1D       		.uleb128 0x1d
 5767 1616 1E0A0000 		.4byte	.LASF176
 5768 161a 01       		.byte	0x1
 5769 161b 4C01     		.2byte	0x14c
 5770 161d 00000000 		.4byte	.LFB227
 5771 1621 6C000000 		.4byte	.LFE227-.LFB227
 5772 1625 01       		.uleb128 0x1
 5773 1626 9C       		.byte	0x9c
 5774 1627 5B170000 		.4byte	0x175b
 5775 162b 2D       		.uleb128 0x2d
 5776 162c 190A0000 		.4byte	.LASF175
 5777 1630 01       		.byte	0x1
 5778 1631 4C01     		.2byte	0x14c
 5779 1633 69010000 		.4byte	0x169
 5780 1637 C6060000 		.4byte	.LLST45
ARM GAS  C:\Users\mathi\AppData\Local\Temp\cceGBsvt.s 			page 103


 5781 163b 1F       		.uleb128 0x1f
 5782 163c B5200000 		.4byte	0x20b5
 5783 1640 0C000000 		.4byte	.LBB285
 5784 1644 D8000000 		.4byte	.Ldebug_ranges0+0xd8
 5785 1648 01       		.byte	0x1
 5786 1649 4E01     		.2byte	0x14e
 5787 164b 91160000 		.4byte	0x1691
 5788 164f 21       		.uleb128 0x21
 5789 1650 F5210000 		.4byte	0x21f5
 5790 1654 0C000000 		.4byte	.LBB287
 5791 1658 06000000 		.4byte	.LBE287-.LBB287
 5792 165c 04       		.byte	0x4
 5793 165d 5C01     		.2byte	0x15c
 5794 165f 7E160000 		.4byte	0x167e
 5795 1663 2F       		.uleb128 0x2f
 5796 1664 FE210000 		.4byte	0x21fe
 5797 1668 0C000000 		.4byte	.LBB288
 5798 166c 06000000 		.4byte	.LBE288-.LBB288
 5799 1670 0F       		.byte	0xf
 5800 1671 BF01     		.2byte	0x1bf
 5801 1673 20       		.uleb128 0x20
 5802 1674 0B220000 		.4byte	0x220b
 5803 1678 FF060000 		.4byte	.LLST46
 5804 167c 00       		.byte	0
 5805 167d 00       		.byte	0
 5806 167e 29       		.uleb128 0x29
 5807 167f 18000000 		.4byte	.LVL119
 5808 1683 26250000 		.4byte	0x2526
 5809 1687 29       		.uleb128 0x29
 5810 1688 1C000000 		.4byte	.LVL120
 5811 168c 31250000 		.4byte	0x2531
 5812 1690 00       		.byte	0
 5813 1691 39       		.uleb128 0x39
 5814 1692 8E200000 		.4byte	0x208e
 5815 1696 12000000 		.4byte	.LBB291
 5816 169a F0000000 		.4byte	.Ldebug_ranges0+0xf0
 5817 169e 01       		.byte	0x1
 5818 169f 4F01     		.2byte	0x14f
 5819 16a1 21       		.uleb128 0x21
 5820 16a2 E11F0000 		.4byte	0x1fe1
 5821 16a6 22000000 		.4byte	.LBB296
 5822 16aa 06000000 		.4byte	.LBE296-.LBB296
 5823 16ae 01       		.byte	0x1
 5824 16af 5101     		.2byte	0x151
 5825 16b1 DD160000 		.4byte	0x16dd
 5826 16b5 20       		.uleb128 0x20
 5827 16b6 EE1F0000 		.4byte	0x1fee
 5828 16ba 14070000 		.4byte	.LLST47
 5829 16be 23       		.uleb128 0x23
 5830 16bf 22000000 		.4byte	.LBB297
 5831 16c3 06000000 		.4byte	.LBE297-.LBB297
 5832 16c7 24       		.uleb128 0x24
 5833 16c8 FA1F0000 		.4byte	0x1ffa
 5834 16cc 28       		.uleb128 0x28
 5835 16cd 28000000 		.4byte	.LVL124
 5836 16d1 1A250000 		.4byte	0x251a
 5837 16d5 27       		.uleb128 0x27
ARM GAS  C:\Users\mathi\AppData\Local\Temp\cceGBsvt.s 			page 104


 5838 16d6 01       		.uleb128 0x1
 5839 16d7 50       		.byte	0x50
 5840 16d8 01       		.uleb128 0x1
 5841 16d9 38       		.byte	0x38
 5842 16da 00       		.byte	0
 5843 16db 00       		.byte	0
 5844 16dc 00       		.byte	0
 5845 16dd 1F       		.uleb128 0x1f
 5846 16de 9A200000 		.4byte	0x209a
 5847 16e2 28000000 		.4byte	.LBB298
 5848 16e6 08010000 		.4byte	.Ldebug_ranges0+0x108
 5849 16ea 01       		.byte	0x1
 5850 16eb 5301     		.2byte	0x153
 5851 16ed 51170000 		.4byte	0x1751
 5852 16f1 2A       		.uleb128 0x2a
 5853 16f2 08010000 		.4byte	.Ldebug_ranges0+0x108
 5854 16f6 24       		.uleb128 0x24
 5855 16f7 A7200000 		.4byte	0x20a7
 5856 16fb 21       		.uleb128 0x21
 5857 16fc EC210000 		.4byte	0x21ec
 5858 1700 40000000 		.4byte	.LBB300
 5859 1704 06000000 		.4byte	.LBE300-.LBB300
 5860 1708 04       		.byte	0x4
 5861 1709 7301     		.2byte	0x173
 5862 170b 2A170000 		.4byte	0x172a
 5863 170f 2F       		.uleb128 0x2f
 5864 1710 FE210000 		.4byte	0x21fe
 5865 1714 40000000 		.4byte	.LBB301
 5866 1718 06000000 		.4byte	.LBE301-.LBB301
 5867 171c 0F       		.byte	0xf
 5868 171d CD01     		.2byte	0x1cd
 5869 171f 20       		.uleb128 0x20
 5870 1720 0B220000 		.4byte	0x220b
 5871 1724 27070000 		.4byte	.LLST48
 5872 1728 00       		.byte	0
 5873 1729 00       		.byte	0
 5874 172a 29       		.uleb128 0x29
 5875 172b 2C000000 		.4byte	.LVL125
 5876 172f 48250000 		.4byte	0x2548
 5877 1733 29       		.uleb128 0x29
 5878 1734 30000000 		.4byte	.LVL126
 5879 1738 53250000 		.4byte	0x2553
 5880 173c 28       		.uleb128 0x28
 5881 173d 58000000 		.4byte	.LVL129
 5882 1741 F9240000 		.4byte	0x24f9
 5883 1745 27       		.uleb128 0x27
 5884 1746 01       		.uleb128 0x1
 5885 1747 50       		.byte	0x50
 5886 1748 05       		.uleb128 0x5
 5887 1749 03       		.byte	0x3
 5888 174a 00000000 		.4byte	.LANCHOR1
 5889 174e 00       		.byte	0
 5890 174f 00       		.byte	0
 5891 1750 00       		.byte	0
 5892 1751 29       		.uleb128 0x29
 5893 1752 5E000000 		.4byte	.LVL130
 5894 1756 11250000 		.4byte	0x2511
ARM GAS  C:\Users\mathi\AppData\Local\Temp\cceGBsvt.s 			page 105


 5895 175a 00       		.byte	0
 5896 175b 1D       		.uleb128 0x1d
 5897 175c 0F040000 		.4byte	.LASF177
 5898 1760 01       		.byte	0x1
 5899 1761 3801     		.2byte	0x138
 5900 1763 00000000 		.4byte	.LFB226
 5901 1767 74000000 		.4byte	.LFE226-.LFB226
 5902 176b 01       		.uleb128 0x1
 5903 176c 9C       		.byte	0x9c
 5904 176d AE180000 		.4byte	0x18ae
 5905 1771 2D       		.uleb128 0x2d
 5906 1772 190A0000 		.4byte	.LASF175
 5907 1776 01       		.byte	0x1
 5908 1777 3801     		.2byte	0x138
 5909 1779 69010000 		.4byte	0x169
 5910 177d 3B070000 		.4byte	.LLST41
 5911 1781 21       		.uleb128 0x21
 5912 1782 B5200000 		.4byte	0x20b5
 5913 1786 0C000000 		.4byte	.LBB257
 5914 178a 0E000000 		.4byte	.LBE257-.LBB257
 5915 178e 01       		.byte	0x1
 5916 178f 3A01     		.2byte	0x13a
 5917 1791 D7170000 		.4byte	0x17d7
 5918 1795 21       		.uleb128 0x21
 5919 1796 F5210000 		.4byte	0x21f5
 5920 179a 0C000000 		.4byte	.LBB259
 5921 179e 06000000 		.4byte	.LBE259-.LBB259
 5922 17a2 04       		.byte	0x4
 5923 17a3 5C01     		.2byte	0x15c
 5924 17a5 C4170000 		.4byte	0x17c4
 5925 17a9 2F       		.uleb128 0x2f
 5926 17aa FE210000 		.4byte	0x21fe
 5927 17ae 0C000000 		.4byte	.LBB260
 5928 17b2 06000000 		.4byte	.LBE260-.LBB260
 5929 17b6 0F       		.byte	0xf
 5930 17b7 BF01     		.2byte	0x1bf
 5931 17b9 20       		.uleb128 0x20
 5932 17ba 0B220000 		.4byte	0x220b
 5933 17be 59070000 		.4byte	.LLST42
 5934 17c2 00       		.byte	0
 5935 17c3 00       		.byte	0
 5936 17c4 29       		.uleb128 0x29
 5937 17c5 16000000 		.4byte	.LVL105
 5938 17c9 26250000 		.4byte	0x2526
 5939 17cd 29       		.uleb128 0x29
 5940 17ce 1A000000 		.4byte	.LVL106
 5941 17d2 31250000 		.4byte	0x2531
 5942 17d6 00       		.byte	0
 5943 17d7 21       		.uleb128 0x21
 5944 17d8 E11F0000 		.4byte	0x1fe1
 5945 17dc 1A000000 		.4byte	.LBB262
 5946 17e0 10000000 		.4byte	.LBE262-.LBB262
 5947 17e4 01       		.byte	0x1
 5948 17e5 3B01     		.2byte	0x13b
 5949 17e7 30180000 		.4byte	0x1830
 5950 17eb 20       		.uleb128 0x20
 5951 17ec EE1F0000 		.4byte	0x1fee
ARM GAS  C:\Users\mathi\AppData\Local\Temp\cceGBsvt.s 			page 106


 5952 17f0 6E070000 		.4byte	.LLST43
 5953 17f4 23       		.uleb128 0x23
 5954 17f5 1A000000 		.4byte	.LBB263
 5955 17f9 10000000 		.4byte	.LBE263-.LBB263
 5956 17fd 24       		.uleb128 0x24
 5957 17fe FA1F0000 		.4byte	0x1ffa
 5958 1802 26       		.uleb128 0x26
 5959 1803 22000000 		.4byte	.LVL107
 5960 1807 F9240000 		.4byte	0x24f9
 5961 180b 19180000 		.4byte	0x1819
 5962 180f 27       		.uleb128 0x27
 5963 1810 01       		.uleb128 0x1
 5964 1811 50       		.byte	0x50
 5965 1812 05       		.uleb128 0x5
 5966 1813 03       		.byte	0x3
 5967 1814 00000000 		.4byte	.LANCHOR4
 5968 1818 00       		.byte	0
 5969 1819 28       		.uleb128 0x28
 5970 181a 2A000000 		.4byte	.LVL108
 5971 181e 1A250000 		.4byte	0x251a
 5972 1822 27       		.uleb128 0x27
 5973 1823 01       		.uleb128 0x1
 5974 1824 50       		.byte	0x50
 5975 1825 01       		.uleb128 0x1
 5976 1826 38       		.byte	0x38
 5977 1827 27       		.uleb128 0x27
 5978 1828 01       		.uleb128 0x1
 5979 1829 51       		.byte	0x51
 5980 182a 02       		.uleb128 0x2
 5981 182b 75       		.byte	0x75
 5982 182c 00       		.sleb128 0
 5983 182d 00       		.byte	0
 5984 182e 00       		.byte	0
 5985 182f 00       		.byte	0
 5986 1830 1F       		.uleb128 0x1f
 5987 1831 9A200000 		.4byte	0x209a
 5988 1835 2A000000 		.4byte	.LBB264
 5989 1839 C0000000 		.4byte	.Ldebug_ranges0+0xc0
 5990 183d 01       		.byte	0x1
 5991 183e 3C01     		.2byte	0x13c
 5992 1840 A4180000 		.4byte	0x18a4
 5993 1844 2A       		.uleb128 0x2a
 5994 1845 C0000000 		.4byte	.Ldebug_ranges0+0xc0
 5995 1849 24       		.uleb128 0x24
 5996 184a A7200000 		.4byte	0x20a7
 5997 184e 21       		.uleb128 0x21
 5998 184f EC210000 		.4byte	0x21ec
 5999 1853 44000000 		.4byte	.LBB266
 6000 1857 06000000 		.4byte	.LBE266-.LBB266
 6001 185b 04       		.byte	0x4
 6002 185c 7301     		.2byte	0x173
 6003 185e 7D180000 		.4byte	0x187d
 6004 1862 2F       		.uleb128 0x2f
 6005 1863 FE210000 		.4byte	0x21fe
 6006 1867 44000000 		.4byte	.LBB267
 6007 186b 06000000 		.4byte	.LBE267-.LBB267
 6008 186f 0F       		.byte	0xf
ARM GAS  C:\Users\mathi\AppData\Local\Temp\cceGBsvt.s 			page 107


 6009 1870 CD01     		.2byte	0x1cd
 6010 1872 20       		.uleb128 0x20
 6011 1873 0B220000 		.4byte	0x220b
 6012 1877 81070000 		.4byte	.LLST44
 6013 187b 00       		.byte	0
 6014 187c 00       		.byte	0
 6015 187d 29       		.uleb128 0x29
 6016 187e 2E000000 		.4byte	.LVL109
 6017 1882 48250000 		.4byte	0x2548
 6018 1886 29       		.uleb128 0x29
 6019 1887 32000000 		.4byte	.LVL110
 6020 188b 53250000 		.4byte	0x2553
 6021 188f 28       		.uleb128 0x28
 6022 1890 5C000000 		.4byte	.LVL114
 6023 1894 F9240000 		.4byte	0x24f9
 6024 1898 27       		.uleb128 0x27
 6025 1899 01       		.uleb128 0x1
 6026 189a 50       		.byte	0x50
 6027 189b 05       		.uleb128 0x5
 6028 189c 03       		.byte	0x3
 6029 189d 00000000 		.4byte	.LANCHOR1
 6030 18a1 00       		.byte	0
 6031 18a2 00       		.byte	0
 6032 18a3 00       		.byte	0
 6033 18a4 29       		.uleb128 0x29
 6034 18a5 62000000 		.4byte	.LVL115
 6035 18a9 11250000 		.4byte	0x2511
 6036 18ad 00       		.byte	0
 6037 18ae 1D       		.uleb128 0x1d
 6038 18af 2F0B0000 		.4byte	.LASF178
 6039 18b3 01       		.byte	0x1
 6040 18b4 2501     		.2byte	0x125
 6041 18b6 00000000 		.4byte	.LFB225
 6042 18ba 6C000000 		.4byte	.LFE225-.LFB225
 6043 18be 01       		.uleb128 0x1
 6044 18bf 9C       		.byte	0x9c
 6045 18c0 A7190000 		.4byte	0x19a7
 6046 18c4 1E       		.uleb128 0x1e
 6047 18c5 747000   		.ascii	"tp\000"
 6048 18c8 01       		.byte	0x1
 6049 18c9 2501     		.2byte	0x125
 6050 18cb AD020000 		.4byte	0x2ad
 6051 18cf 95070000 		.4byte	.LLST38
 6052 18d3 21       		.uleb128 0x21
 6053 18d4 B5200000 		.4byte	0x20b5
 6054 18d8 0C000000 		.4byte	.LBB233
 6055 18dc 0E000000 		.4byte	.LBE233-.LBB233
 6056 18e0 01       		.byte	0x1
 6057 18e1 2701     		.2byte	0x127
 6058 18e3 29190000 		.4byte	0x1929
 6059 18e7 21       		.uleb128 0x21
 6060 18e8 F5210000 		.4byte	0x21f5
 6061 18ec 0C000000 		.4byte	.LBB235
 6062 18f0 06000000 		.4byte	.LBE235-.LBB235
 6063 18f4 04       		.byte	0x4
 6064 18f5 5C01     		.2byte	0x15c
 6065 18f7 16190000 		.4byte	0x1916
ARM GAS  C:\Users\mathi\AppData\Local\Temp\cceGBsvt.s 			page 108


 6066 18fb 2F       		.uleb128 0x2f
 6067 18fc FE210000 		.4byte	0x21fe
 6068 1900 0C000000 		.4byte	.LBB236
 6069 1904 06000000 		.4byte	.LBE236-.LBB236
 6070 1908 0F       		.byte	0xf
 6071 1909 BF01     		.2byte	0x1bf
 6072 190b 20       		.uleb128 0x20
 6073 190c 0B220000 		.4byte	0x220b
 6074 1910 B3070000 		.4byte	.LLST39
 6075 1914 00       		.byte	0
 6076 1915 00       		.byte	0
 6077 1916 29       		.uleb128 0x29
 6078 1917 16000000 		.4byte	.LVL93
 6079 191b 26250000 		.4byte	0x2526
 6080 191f 29       		.uleb128 0x29
 6081 1920 1A000000 		.4byte	.LVL94
 6082 1924 31250000 		.4byte	0x2531
 6083 1928 00       		.byte	0
 6084 1929 1F       		.uleb128 0x1f
 6085 192a 9A200000 		.4byte	0x209a
 6086 192e 26000000 		.4byte	.LBB238
 6087 1932 A8000000 		.4byte	.Ldebug_ranges0+0xa8
 6088 1936 01       		.byte	0x1
 6089 1937 2901     		.2byte	0x129
 6090 1939 9D190000 		.4byte	0x199d
 6091 193d 2A       		.uleb128 0x2a
 6092 193e A8000000 		.4byte	.Ldebug_ranges0+0xa8
 6093 1942 24       		.uleb128 0x24
 6094 1943 A7200000 		.4byte	0x20a7
 6095 1947 21       		.uleb128 0x21
 6096 1948 EC210000 		.4byte	0x21ec
 6097 194c 40000000 		.4byte	.LBB240
 6098 1950 06000000 		.4byte	.LBE240-.LBB240
 6099 1954 04       		.byte	0x4
 6100 1955 7301     		.2byte	0x173
 6101 1957 76190000 		.4byte	0x1976
 6102 195b 2F       		.uleb128 0x2f
 6103 195c FE210000 		.4byte	0x21fe
 6104 1960 40000000 		.4byte	.LBB241
 6105 1964 06000000 		.4byte	.LBE241-.LBB241
 6106 1968 0F       		.byte	0xf
 6107 1969 CD01     		.2byte	0x1cd
 6108 196b 20       		.uleb128 0x20
 6109 196c 0B220000 		.4byte	0x220b
 6110 1970 C8070000 		.4byte	.LLST40
 6111 1974 00       		.byte	0
 6112 1975 00       		.byte	0
 6113 1976 29       		.uleb128 0x29
 6114 1977 2A000000 		.4byte	.LVL95
 6115 197b 48250000 		.4byte	0x2548
 6116 197f 29       		.uleb128 0x29
 6117 1980 2E000000 		.4byte	.LVL96
 6118 1984 53250000 		.4byte	0x2553
 6119 1988 28       		.uleb128 0x28
 6120 1989 58000000 		.4byte	.LVL100
 6121 198d F9240000 		.4byte	0x24f9
 6122 1991 27       		.uleb128 0x27
ARM GAS  C:\Users\mathi\AppData\Local\Temp\cceGBsvt.s 			page 109


 6123 1992 01       		.uleb128 0x1
 6124 1993 50       		.byte	0x50
 6125 1994 05       		.uleb128 0x5
 6126 1995 03       		.byte	0x3
 6127 1996 00000000 		.4byte	.LANCHOR1
 6128 199a 00       		.byte	0
 6129 199b 00       		.byte	0
 6130 199c 00       		.byte	0
 6131 199d 29       		.uleb128 0x29
 6132 199e 5E000000 		.4byte	.LVL101
 6133 19a2 11250000 		.4byte	0x2511
 6134 19a6 00       		.byte	0
 6135 19a7 2C       		.uleb128 0x2c
 6136 19a8 48000000 		.4byte	.LASF179
 6137 19ac 01       		.byte	0x1
 6138 19ad 0301     		.2byte	0x103
 6139 19af 32010000 		.4byte	0x132
 6140 19b3 00000000 		.4byte	.LFB224
 6141 19b7 88000000 		.4byte	.LFE224-.LFB224
 6142 19bb 01       		.uleb128 0x1
 6143 19bc 9C       		.byte	0x9c
 6144 19bd E41A0000 		.4byte	0x1ae4
 6145 19c1 2D       		.uleb128 0x2d
 6146 19c2 E2080000 		.4byte	.LASF180
 6147 19c6 01       		.byte	0x1
 6148 19c7 0301     		.2byte	0x103
 6149 19c9 32010000 		.4byte	0x132
 6150 19cd DC070000 		.4byte	.LLST34
 6151 19d1 3C       		.uleb128 0x3c
 6152 19d2 48080000 		.4byte	.LASF181
 6153 19d6 01       		.byte	0x1
 6154 19d7 0401     		.2byte	0x104
 6155 19d9 32010000 		.4byte	0x132
 6156 19dd 10080000 		.4byte	.LLST35
 6157 19e1 36       		.uleb128 0x36
 6158 19e2 E9000000 		.4byte	.LASF162
 6159 19e6 F41A0000 		.4byte	0x1af4
 6160 19ea 05       		.uleb128 0x5
 6161 19eb 03       		.byte	0x3
 6162 19ec 00000000 		.4byte	__func__.7882
 6163 19f0 1F       		.uleb128 0x1f
 6164 19f1 B5200000 		.4byte	0x20b5
 6165 19f5 10000000 		.4byte	.LBB209
 6166 19f9 78000000 		.4byte	.Ldebug_ranges0+0x78
 6167 19fd 01       		.byte	0x1
 6168 19fe 0801     		.2byte	0x108
 6169 1a00 461A0000 		.4byte	0x1a46
 6170 1a04 21       		.uleb128 0x21
 6171 1a05 F5210000 		.4byte	0x21f5
 6172 1a09 10000000 		.4byte	.LBB211
 6173 1a0d 06000000 		.4byte	.LBE211-.LBB211
 6174 1a11 04       		.byte	0x4
 6175 1a12 5C01     		.2byte	0x15c
 6176 1a14 331A0000 		.4byte	0x1a33
 6177 1a18 2F       		.uleb128 0x2f
 6178 1a19 FE210000 		.4byte	0x21fe
 6179 1a1d 10000000 		.4byte	.LBB212
ARM GAS  C:\Users\mathi\AppData\Local\Temp\cceGBsvt.s 			page 110


 6180 1a21 06000000 		.4byte	.LBE212-.LBB212
 6181 1a25 0F       		.byte	0xf
 6182 1a26 BF01     		.2byte	0x1bf
 6183 1a28 20       		.uleb128 0x20
 6184 1a29 0B220000 		.4byte	0x220b
 6185 1a2d 4F080000 		.4byte	.LLST36
 6186 1a31 00       		.byte	0
 6187 1a32 00       		.byte	0
 6188 1a33 29       		.uleb128 0x29
 6189 1a34 1C000000 		.4byte	.LVL74
 6190 1a38 26250000 		.4byte	0x2526
 6191 1a3c 29       		.uleb128 0x29
 6192 1a3d 20000000 		.4byte	.LVL75
 6193 1a41 31250000 		.4byte	0x2531
 6194 1a45 00       		.byte	0
 6195 1a46 1F       		.uleb128 0x1f
 6196 1a47 9A200000 		.4byte	0x209a
 6197 1a4b 38000000 		.4byte	.LBB216
 6198 1a4f 90000000 		.4byte	.Ldebug_ranges0+0x90
 6199 1a53 01       		.byte	0x1
 6200 1a54 1401     		.2byte	0x114
 6201 1a56 BA1A0000 		.4byte	0x1aba
 6202 1a5a 2A       		.uleb128 0x2a
 6203 1a5b 90000000 		.4byte	.Ldebug_ranges0+0x90
 6204 1a5f 24       		.uleb128 0x24
 6205 1a60 A7200000 		.4byte	0x20a7
 6206 1a64 21       		.uleb128 0x21
 6207 1a65 EC210000 		.4byte	0x21ec
 6208 1a69 50000000 		.4byte	.LBB218
 6209 1a6d 06000000 		.4byte	.LBE218-.LBB218
 6210 1a71 04       		.byte	0x4
 6211 1a72 7301     		.2byte	0x173
 6212 1a74 931A0000 		.4byte	0x1a93
 6213 1a78 2F       		.uleb128 0x2f
 6214 1a79 FE210000 		.4byte	0x21fe
 6215 1a7d 50000000 		.4byte	.LBB219
 6216 1a81 06000000 		.4byte	.LBE219-.LBB219
 6217 1a85 0F       		.byte	0xf
 6218 1a86 CD01     		.2byte	0x1cd
 6219 1a88 20       		.uleb128 0x20
 6220 1a89 0B220000 		.4byte	0x220b
 6221 1a8d 64080000 		.4byte	.LLST37
 6222 1a91 00       		.byte	0
 6223 1a92 00       		.byte	0
 6224 1a93 29       		.uleb128 0x29
 6225 1a94 3C000000 		.4byte	.LVL78
 6226 1a98 48250000 		.4byte	0x2548
 6227 1a9c 29       		.uleb128 0x29
 6228 1a9d 40000000 		.4byte	.LVL79
 6229 1aa1 53250000 		.4byte	0x2553
 6230 1aa5 28       		.uleb128 0x28
 6231 1aa6 6A000000 		.4byte	.LVL84
 6232 1aaa F9240000 		.4byte	0x24f9
 6233 1aae 27       		.uleb128 0x27
 6234 1aaf 01       		.uleb128 0x1
 6235 1ab0 50       		.byte	0x50
 6236 1ab1 05       		.uleb128 0x5
ARM GAS  C:\Users\mathi\AppData\Local\Temp\cceGBsvt.s 			page 111


 6237 1ab2 03       		.byte	0x3
 6238 1ab3 00000000 		.4byte	.LANCHOR1
 6239 1ab7 00       		.byte	0
 6240 1ab8 00       		.byte	0
 6241 1ab9 00       		.byte	0
 6242 1aba 29       		.uleb128 0x29
 6243 1abb 38000000 		.4byte	.LVL77
 6244 1abf 8C250000 		.4byte	0x258c
 6245 1ac3 26       		.uleb128 0x26
 6246 1ac4 72000000 		.4byte	.LVL87
 6247 1ac8 F9240000 		.4byte	0x24f9
 6248 1acc DA1A0000 		.4byte	0x1ada
 6249 1ad0 27       		.uleb128 0x27
 6250 1ad1 01       		.uleb128 0x1
 6251 1ad2 50       		.byte	0x50
 6252 1ad3 05       		.uleb128 0x5
 6253 1ad4 03       		.byte	0x3
 6254 1ad5 00000000 		.4byte	.LANCHOR3
 6255 1ad9 00       		.byte	0
 6256 1ada 29       		.uleb128 0x29
 6257 1adb 78000000 		.4byte	.LVL89
 6258 1adf 11250000 		.4byte	0x2511
 6259 1ae3 00       		.byte	0
 6260 1ae4 18       		.uleb128 0x18
 6261 1ae5 B3080000 		.4byte	0x8b3
 6262 1ae9 F41A0000 		.4byte	0x1af4
 6263 1aed 19       		.uleb128 0x19
 6264 1aee 37000000 		.4byte	0x37
 6265 1af2 10       		.byte	0x10
 6266 1af3 00       		.byte	0
 6267 1af4 0B       		.uleb128 0xb
 6268 1af5 E41A0000 		.4byte	0x1ae4
 6269 1af9 3D       		.uleb128 0x3d
 6270 1afa 970B0000 		.4byte	.LASF182
 6271 1afe 01       		.byte	0x1
 6272 1aff EE       		.byte	0xee
 6273 1b00 AD020000 		.4byte	0x2ad
 6274 1b04 00000000 		.4byte	.LFB223
 6275 1b08 7C000000 		.4byte	.LFE223-.LFB223
 6276 1b0c 01       		.uleb128 0x1
 6277 1b0d 9C       		.byte	0x9c
 6278 1b0e 451C0000 		.4byte	0x1c45
 6279 1b12 3E       		.uleb128 0x3e
 6280 1b13 747000   		.ascii	"tp\000"
 6281 1b16 01       		.byte	0x1
 6282 1b17 EE       		.byte	0xee
 6283 1b18 AD020000 		.4byte	0x2ad
 6284 1b1c 78080000 		.4byte	.LLST30
 6285 1b20 3F       		.uleb128 0x3f
 6286 1b21 B5200000 		.4byte	0x20b5
 6287 1b25 0C000000 		.4byte	.LBB185
 6288 1b29 0E000000 		.4byte	.LBE185-.LBB185
 6289 1b2d 01       		.byte	0x1
 6290 1b2e F0       		.byte	0xf0
 6291 1b2f 751B0000 		.4byte	0x1b75
 6292 1b33 21       		.uleb128 0x21
 6293 1b34 F5210000 		.4byte	0x21f5
ARM GAS  C:\Users\mathi\AppData\Local\Temp\cceGBsvt.s 			page 112


 6294 1b38 0C000000 		.4byte	.LBB187
 6295 1b3c 06000000 		.4byte	.LBE187-.LBB187
 6296 1b40 04       		.byte	0x4
 6297 1b41 5C01     		.2byte	0x15c
 6298 1b43 621B0000 		.4byte	0x1b62
 6299 1b47 2F       		.uleb128 0x2f
 6300 1b48 FE210000 		.4byte	0x21fe
 6301 1b4c 0C000000 		.4byte	.LBB188
 6302 1b50 06000000 		.4byte	.LBE188-.LBB188
 6303 1b54 0F       		.byte	0xf
 6304 1b55 BF01     		.2byte	0x1bf
 6305 1b57 20       		.uleb128 0x20
 6306 1b58 0B220000 		.4byte	0x220b
 6307 1b5c 96080000 		.4byte	.LLST31
 6308 1b60 00       		.byte	0
 6309 1b61 00       		.byte	0
 6310 1b62 29       		.uleb128 0x29
 6311 1b63 16000000 		.4byte	.LVL60
 6312 1b67 26250000 		.4byte	0x2526
 6313 1b6b 29       		.uleb128 0x29
 6314 1b6c 1A000000 		.4byte	.LVL61
 6315 1b70 31250000 		.4byte	0x2531
 6316 1b74 00       		.byte	0
 6317 1b75 3F       		.uleb128 0x3f
 6318 1b76 1D200000 		.4byte	0x201d
 6319 1b7a 1A000000 		.4byte	.LBB190
 6320 1b7e 16000000 		.4byte	.LBE190-.LBB190
 6321 1b82 01       		.byte	0x1
 6322 1b83 F1       		.byte	0xf1
 6323 1b84 C81B0000 		.4byte	0x1bc8
 6324 1b88 20       		.uleb128 0x20
 6325 1b89 2D200000 		.4byte	0x202d
 6326 1b8d AB080000 		.4byte	.LLST32
 6327 1b91 23       		.uleb128 0x23
 6328 1b92 1A000000 		.4byte	.LBB191
 6329 1b96 16000000 		.4byte	.LBE191-.LBB191
 6330 1b9a 24       		.uleb128 0x24
 6331 1b9b 37200000 		.4byte	0x2037
 6332 1b9f 26       		.uleb128 0x26
 6333 1ba0 28000000 		.4byte	.LVL62
 6334 1ba4 F9240000 		.4byte	0x24f9
 6335 1ba8 B61B0000 		.4byte	0x1bb6
 6336 1bac 27       		.uleb128 0x27
 6337 1bad 01       		.uleb128 0x1
 6338 1bae 50       		.byte	0x50
 6339 1baf 05       		.uleb128 0x5
 6340 1bb0 03       		.byte	0x3
 6341 1bb1 00000000 		.4byte	.LANCHOR2
 6342 1bb5 00       		.byte	0
 6343 1bb6 28       		.uleb128 0x28
 6344 1bb7 2E000000 		.4byte	.LVL63
 6345 1bbb 05250000 		.4byte	0x2505
 6346 1bbf 27       		.uleb128 0x27
 6347 1bc0 01       		.uleb128 0x1
 6348 1bc1 50       		.byte	0x50
 6349 1bc2 02       		.uleb128 0x2
 6350 1bc3 75       		.byte	0x75
ARM GAS  C:\Users\mathi\AppData\Local\Temp\cceGBsvt.s 			page 113


 6351 1bc4 00       		.sleb128 0
 6352 1bc5 00       		.byte	0
 6353 1bc6 00       		.byte	0
 6354 1bc7 00       		.byte	0
 6355 1bc8 40       		.uleb128 0x40
 6356 1bc9 9A200000 		.4byte	0x209a
 6357 1bcd 30000000 		.4byte	.LBB192
 6358 1bd1 60000000 		.4byte	.Ldebug_ranges0+0x60
 6359 1bd5 01       		.byte	0x1
 6360 1bd6 F2       		.byte	0xf2
 6361 1bd7 3B1C0000 		.4byte	0x1c3b
 6362 1bdb 2A       		.uleb128 0x2a
 6363 1bdc 60000000 		.4byte	.Ldebug_ranges0+0x60
 6364 1be0 24       		.uleb128 0x24
 6365 1be1 A7200000 		.4byte	0x20a7
 6366 1be5 21       		.uleb128 0x21
 6367 1be6 EC210000 		.4byte	0x21ec
 6368 1bea 4A000000 		.4byte	.LBB194
 6369 1bee 06000000 		.4byte	.LBE194-.LBB194
 6370 1bf2 04       		.byte	0x4
 6371 1bf3 7301     		.2byte	0x173
 6372 1bf5 141C0000 		.4byte	0x1c14
 6373 1bf9 2F       		.uleb128 0x2f
 6374 1bfa FE210000 		.4byte	0x21fe
 6375 1bfe 4A000000 		.4byte	.LBB195
 6376 1c02 06000000 		.4byte	.LBE195-.LBB195
 6377 1c06 0F       		.byte	0xf
 6378 1c07 CD01     		.2byte	0x1cd
 6379 1c09 20       		.uleb128 0x20
 6380 1c0a 0B220000 		.4byte	0x220b
 6381 1c0e BE080000 		.4byte	.LLST33
 6382 1c12 00       		.byte	0
 6383 1c13 00       		.byte	0
 6384 1c14 29       		.uleb128 0x29
 6385 1c15 34000000 		.4byte	.LVL65
 6386 1c19 48250000 		.4byte	0x2548
 6387 1c1d 29       		.uleb128 0x29
 6388 1c1e 38000000 		.4byte	.LVL66
 6389 1c22 53250000 		.4byte	0x2553
 6390 1c26 28       		.uleb128 0x28
 6391 1c27 64000000 		.4byte	.LVL69
 6392 1c2b F9240000 		.4byte	0x24f9
 6393 1c2f 27       		.uleb128 0x27
 6394 1c30 01       		.uleb128 0x1
 6395 1c31 50       		.byte	0x50
 6396 1c32 05       		.uleb128 0x5
 6397 1c33 03       		.byte	0x3
 6398 1c34 00000000 		.4byte	.LANCHOR1
 6399 1c38 00       		.byte	0
 6400 1c39 00       		.byte	0
 6401 1c3a 00       		.byte	0
 6402 1c3b 29       		.uleb128 0x29
 6403 1c3c 6A000000 		.4byte	.LVL70
 6404 1c40 11250000 		.4byte	0x2511
 6405 1c44 00       		.byte	0
 6406 1c45 3D       		.uleb128 0x3d
 6407 1c46 67060000 		.4byte	.LASF183
ARM GAS  C:\Users\mathi\AppData\Local\Temp\cceGBsvt.s 			page 114


 6408 1c4a 01       		.byte	0x1
 6409 1c4b D0       		.byte	0xd0
 6410 1c4c AD020000 		.4byte	0x2ad
 6411 1c50 00000000 		.4byte	.LFB222
 6412 1c54 24010000 		.4byte	.LFE222-.LFB222
 6413 1c58 01       		.uleb128 0x1
 6414 1c59 9C       		.byte	0x9c
 6415 1c5a DE1E0000 		.4byte	0x1ede
 6416 1c5e 3E       		.uleb128 0x3e
 6417 1c5f 77737000 		.ascii	"wsp\000"
 6418 1c63 01       		.byte	0x1
 6419 1c64 D0       		.byte	0xd0
 6420 1c65 8F030000 		.4byte	0x38f
 6421 1c69 D2080000 		.4byte	.LLST13
 6422 1c6d 41       		.uleb128 0x41
 6423 1c6e 0E090000 		.4byte	.LASF184
 6424 1c72 01       		.byte	0x1
 6425 1c73 D0       		.byte	0xd0
 6426 1c74 2C000000 		.4byte	0x2c
 6427 1c78 1C090000 		.4byte	.LLST14
 6428 1c7c 41       		.uleb128 0x41
 6429 1c7d 4D010000 		.4byte	.LASF185
 6430 1c81 01       		.byte	0x1
 6431 1c82 D1       		.byte	0xd1
 6432 1c83 32010000 		.4byte	0x132
 6433 1c87 61090000 		.4byte	.LLST15
 6434 1c8b 3E       		.uleb128 0x3e
 6435 1c8c 706600   		.ascii	"pf\000"
 6436 1c8f 01       		.byte	0x1
 6437 1c90 D1       		.byte	0xd1
 6438 1c91 DF080000 		.4byte	0x8df
 6439 1c95 B2090000 		.4byte	.LLST16
 6440 1c99 3E       		.uleb128 0x3e
 6441 1c9a 61726700 		.ascii	"arg\000"
 6442 1c9e 01       		.byte	0x1
 6443 1c9f D1       		.byte	0xd1
 6444 1ca0 8F030000 		.4byte	0x38f
 6445 1ca4 D0090000 		.4byte	.LLST17
 6446 1ca8 42       		.uleb128 0x42
 6447 1ca9 747000   		.ascii	"tp\000"
 6448 1cac 01       		.byte	0x1
 6449 1cad D2       		.byte	0xd2
 6450 1cae AD020000 		.4byte	0x2ad
 6451 1cb2 3F       		.uleb128 0x3f
 6452 1cb3 3C1F0000 		.4byte	0x1f3c
 6453 1cb7 2A000000 		.4byte	.LBB149
 6454 1cbb 12000000 		.4byte	.LBE149-.LBB149
 6455 1cbf 01       		.byte	0x1
 6456 1cc0 D8       		.byte	0xd8
 6457 1cc1 E11C0000 		.4byte	0x1ce1
 6458 1cc5 20       		.uleb128 0x20
 6459 1cc6 5E1F0000 		.4byte	0x1f5e
 6460 1cca F0090000 		.4byte	.LLST18
 6461 1cce 20       		.uleb128 0x20
 6462 1ccf 531F0000 		.4byte	0x1f53
 6463 1cd3 050A0000 		.4byte	.LLST19
 6464 1cd7 20       		.uleb128 0x20
ARM GAS  C:\Users\mathi\AppData\Local\Temp\cceGBsvt.s 			page 115


 6465 1cd8 481F0000 		.4byte	0x1f48
 6466 1cdc 280A0000 		.4byte	.LLST20
 6467 1ce0 00       		.byte	0
 6468 1ce1 3F       		.uleb128 0x3f
 6469 1ce2 B5200000 		.4byte	0x20b5
 6470 1ce6 3C000000 		.4byte	.LBB151
 6471 1cea 0E000000 		.4byte	.LBE151-.LBB151
 6472 1cee 01       		.byte	0x1
 6473 1cef DD       		.byte	0xdd
 6474 1cf0 361D0000 		.4byte	0x1d36
 6475 1cf4 21       		.uleb128 0x21
 6476 1cf5 F5210000 		.4byte	0x21f5
 6477 1cf9 3C000000 		.4byte	.LBB153
 6478 1cfd 06000000 		.4byte	.LBE153-.LBB153
 6479 1d01 04       		.byte	0x4
 6480 1d02 5C01     		.2byte	0x15c
 6481 1d04 231D0000 		.4byte	0x1d23
 6482 1d08 2F       		.uleb128 0x2f
 6483 1d09 FE210000 		.4byte	0x21fe
 6484 1d0d 3C000000 		.4byte	.LBB154
 6485 1d11 06000000 		.4byte	.LBE154-.LBB154
 6486 1d15 0F       		.byte	0xf
 6487 1d16 BF01     		.2byte	0x1bf
 6488 1d18 20       		.uleb128 0x20
 6489 1d19 0B220000 		.4byte	0x220b
 6490 1d1d 3B0A0000 		.4byte	.LLST21
 6491 1d21 00       		.byte	0
 6492 1d22 00       		.byte	0
 6493 1d23 29       		.uleb128 0x29
 6494 1d24 46000000 		.4byte	.LVL36
 6495 1d28 26250000 		.4byte	0x2526
 6496 1d2c 29       		.uleb128 0x29
 6497 1d2d 4A000000 		.4byte	.LVL37
 6498 1d31 31250000 		.4byte	0x2531
 6499 1d35 00       		.byte	0
 6500 1d36 40       		.uleb128 0x40
 6501 1d37 DE1E0000 		.4byte	0x1ede
 6502 1d3b 4A000000 		.4byte	.LBB156
 6503 1d3f 18000000 		.4byte	.Ldebug_ranges0+0x18
 6504 1d43 01       		.byte	0x1
 6505 1d44 DE       		.byte	0xde
 6506 1d45 061E0000 		.4byte	0x1e06
 6507 1d49 20       		.uleb128 0x20
 6508 1d4a 191F0000 		.4byte	0x1f19
 6509 1d4e 500A0000 		.4byte	.LLST22
 6510 1d52 20       		.uleb128 0x20
 6511 1d53 0F1F0000 		.4byte	0x1f0f
 6512 1d57 6E0A0000 		.4byte	.LLST23
 6513 1d5b 20       		.uleb128 0x20
 6514 1d5c 041F0000 		.4byte	0x1f04
 6515 1d60 8C0A0000 		.4byte	.LLST24
 6516 1d64 20       		.uleb128 0x20
 6517 1d65 F91E0000 		.4byte	0x1ef9
 6518 1d69 C40A0000 		.4byte	.LLST25
 6519 1d6d 20       		.uleb128 0x20
 6520 1d6e EE1E0000 		.4byte	0x1eee
 6521 1d72 F00A0000 		.4byte	.LLST26
ARM GAS  C:\Users\mathi\AppData\Local\Temp\cceGBsvt.s 			page 116


 6522 1d76 2A       		.uleb128 0x2a
 6523 1d77 18000000 		.4byte	.Ldebug_ranges0+0x18
 6524 1d7b 24       		.uleb128 0x24
 6525 1d7c 39230000 		.4byte	0x2339
 6526 1d80 24       		.uleb128 0x24
 6527 1d81 42230000 		.4byte	0x2342
 6528 1d85 40       		.uleb128 0x40
 6529 1d86 681F0000 		.4byte	0x1f68
 6530 1d8a 6C000000 		.4byte	.LBB158
 6531 1d8e 30000000 		.4byte	.Ldebug_ranges0+0x30
 6532 1d92 01       		.byte	0x1
 6533 1d93 BD       		.byte	0xbd
 6534 1d94 E81D0000 		.4byte	0x1de8
 6535 1d98 20       		.uleb128 0x20
 6536 1d99 821F0000 		.4byte	0x1f82
 6537 1d9d 0E0B0000 		.4byte	.LLST27
 6538 1da1 20       		.uleb128 0x20
 6539 1da2 781F0000 		.4byte	0x1f78
 6540 1da6 3B0B0000 		.4byte	.LLST28
 6541 1daa 3F       		.uleb128 0x3f
 6542 1dab 9A210000 		.4byte	0x219a
 6543 1daf AC000000 		.4byte	.LBB160
 6544 1db3 06000000 		.4byte	.LBE160-.LBB160
 6545 1db7 01       		.byte	0x1
 6546 1db8 78       		.byte	0x78
 6547 1db9 C31D0000 		.4byte	0x1dc3
 6548 1dbd 22       		.uleb128 0x22
 6549 1dbe A7210000 		.4byte	0x21a7
 6550 1dc2 00       		.byte	0
 6551 1dc3 26       		.uleb128 0x26
 6552 1dc4 BC000000 		.4byte	.LVL44
 6553 1dc8 98250000 		.4byte	0x2598
 6554 1dcc D71D0000 		.4byte	0x1dd7
 6555 1dd0 27       		.uleb128 0x27
 6556 1dd1 01       		.uleb128 0x1
 6557 1dd2 50       		.byte	0x50
 6558 1dd3 02       		.uleb128 0x2
 6559 1dd4 76       		.byte	0x76
 6560 1dd5 00       		.sleb128 0
 6561 1dd6 00       		.byte	0
 6562 1dd7 28       		.uleb128 0x28
 6563 1dd8 C2000000 		.4byte	.LVL45
 6564 1ddc A3250000 		.4byte	0x25a3
 6565 1de0 27       		.uleb128 0x27
 6566 1de1 01       		.uleb128 0x1
 6567 1de2 50       		.byte	0x50
 6568 1de3 02       		.uleb128 0x2
 6569 1de4 76       		.byte	0x76
 6570 1de5 00       		.sleb128 0
 6571 1de6 00       		.byte	0
 6572 1de7 00       		.byte	0
 6573 1de8 29       		.uleb128 0x29
 6574 1de9 4E000000 		.4byte	.LVL38
 6575 1ded AE250000 		.4byte	0x25ae
 6576 1df1 28       		.uleb128 0x28
 6577 1df2 5E000000 		.4byte	.LVL39
 6578 1df6 F9240000 		.4byte	0x24f9
ARM GAS  C:\Users\mathi\AppData\Local\Temp\cceGBsvt.s 			page 117


 6579 1dfa 27       		.uleb128 0x27
 6580 1dfb 01       		.uleb128 0x1
 6581 1dfc 50       		.byte	0x50
 6582 1dfd 05       		.uleb128 0x5
 6583 1dfe 03       		.byte	0x3
 6584 1dff 00000000 		.4byte	.LANCHOR0
 6585 1e03 00       		.byte	0
 6586 1e04 00       		.byte	0
 6587 1e05 00       		.byte	0
 6588 1e06 40       		.uleb128 0x40
 6589 1e07 9A200000 		.4byte	0x209a
 6590 1e0b CA000000 		.4byte	.LBB165
 6591 1e0f 48000000 		.4byte	.Ldebug_ranges0+0x48
 6592 1e13 01       		.byte	0x1
 6593 1e14 E0       		.byte	0xe0
 6594 1e15 791E0000 		.4byte	0x1e79
 6595 1e19 2A       		.uleb128 0x2a
 6596 1e1a 48000000 		.4byte	.Ldebug_ranges0+0x48
 6597 1e1e 24       		.uleb128 0x24
 6598 1e1f A7200000 		.4byte	0x20a7
 6599 1e23 21       		.uleb128 0x21
 6600 1e24 EC210000 		.4byte	0x21ec
 6601 1e28 E2000000 		.4byte	.LBB167
 6602 1e2c 06000000 		.4byte	.LBE167-.LBB167
 6603 1e30 04       		.byte	0x4
 6604 1e31 7301     		.2byte	0x173
 6605 1e33 521E0000 		.4byte	0x1e52
 6606 1e37 2F       		.uleb128 0x2f
 6607 1e38 FE210000 		.4byte	0x21fe
 6608 1e3c E2000000 		.4byte	.LBB168
 6609 1e40 06000000 		.4byte	.LBE168-.LBB168
 6610 1e44 0F       		.byte	0xf
 6611 1e45 CD01     		.2byte	0x1cd
 6612 1e47 20       		.uleb128 0x20
 6613 1e48 0B220000 		.4byte	0x220b
 6614 1e4c 4E0B0000 		.4byte	.LLST29
 6615 1e50 00       		.byte	0
 6616 1e51 00       		.byte	0
 6617 1e52 29       		.uleb128 0x29
 6618 1e53 CE000000 		.4byte	.LVL47
 6619 1e57 48250000 		.4byte	0x2548
 6620 1e5b 29       		.uleb128 0x29
 6621 1e5c D2000000 		.4byte	.LVL48
 6622 1e60 53250000 		.4byte	0x2553
 6623 1e64 28       		.uleb128 0x28
 6624 1e65 00010000 		.4byte	.LVL53
 6625 1e69 F9240000 		.4byte	0x24f9
 6626 1e6d 27       		.uleb128 0x27
 6627 1e6e 01       		.uleb128 0x1
 6628 1e6f 50       		.byte	0x50
 6629 1e70 05       		.uleb128 0x5
 6630 1e71 03       		.byte	0x3
 6631 1e72 00000000 		.4byte	.LANCHOR1
 6632 1e76 00       		.byte	0
 6633 1e77 00       		.byte	0
 6634 1e78 00       		.byte	0
 6635 1e79 26       		.uleb128 0x26
ARM GAS  C:\Users\mathi\AppData\Local\Temp\cceGBsvt.s 			page 118


 6636 1e7a 28000000 		.4byte	.LVL31
 6637 1e7e B9250000 		.4byte	0x25b9
 6638 1e82 991E0000 		.4byte	0x1e99
 6639 1e86 27       		.uleb128 0x27
 6640 1e87 01       		.uleb128 0x1
 6641 1e88 50       		.byte	0x50
 6642 1e89 02       		.uleb128 0x2
 6643 1e8a 74       		.byte	0x74
 6644 1e8b 00       		.sleb128 0
 6645 1e8c 27       		.uleb128 0x27
 6646 1e8d 01       		.uleb128 0x1
 6647 1e8e 51       		.byte	0x51
 6648 1e8f 02       		.uleb128 0x2
 6649 1e90 08       		.byte	0x8
 6650 1e91 FF       		.byte	0xff
 6651 1e92 27       		.uleb128 0x27
 6652 1e93 01       		.uleb128 0x1
 6653 1e94 52       		.byte	0x52
 6654 1e95 02       		.uleb128 0x2
 6655 1e96 08       		.byte	0x8
 6656 1e97 68       		.byte	0x68
 6657 1e98 00       		.byte	0
 6658 1e99 26       		.uleb128 0x26
 6659 1e9a 3C000000 		.4byte	.LVL34
 6660 1e9e B9250000 		.4byte	0x25b9
 6661 1ea2 BA1E0000 		.4byte	0x1eba
 6662 1ea6 27       		.uleb128 0x27
 6663 1ea7 01       		.uleb128 0x1
 6664 1ea8 50       		.byte	0x50
 6665 1ea9 02       		.uleb128 0x2
 6666 1eaa 76       		.byte	0x76
 6667 1eab 00       		.sleb128 0
 6668 1eac 27       		.uleb128 0x27
 6669 1ead 01       		.uleb128 0x1
 6670 1eae 51       		.byte	0x51
 6671 1eaf 02       		.uleb128 0x2
 6672 1eb0 08       		.byte	0x8
 6673 1eb1 55       		.byte	0x55
 6674 1eb2 27       		.uleb128 0x27
 6675 1eb3 01       		.uleb128 0x1
 6676 1eb4 52       		.byte	0x52
 6677 1eb5 03       		.uleb128 0x3
 6678 1eb6 75       		.byte	0x75
 6679 1eb7 987F     		.sleb128 -104
 6680 1eb9 00       		.byte	0
 6681 1eba 26       		.uleb128 0x26
 6682 1ebb CA000000 		.4byte	.LVL46
 6683 1ebf 3C250000 		.4byte	0x253c
 6684 1ec3 D41E0000 		.4byte	0x1ed4
 6685 1ec7 27       		.uleb128 0x27
 6686 1ec8 01       		.uleb128 0x1
 6687 1ec9 50       		.byte	0x50
 6688 1eca 02       		.uleb128 0x2
 6689 1ecb 74       		.byte	0x74
 6690 1ecc 00       		.sleb128 0
 6691 1ecd 27       		.uleb128 0x27
 6692 1ece 01       		.uleb128 0x1
ARM GAS  C:\Users\mathi\AppData\Local\Temp\cceGBsvt.s 			page 119


 6693 1ecf 51       		.byte	0x51
 6694 1ed0 02       		.uleb128 0x2
 6695 1ed1 77       		.byte	0x77
 6696 1ed2 00       		.sleb128 0
 6697 1ed3 00       		.byte	0
 6698 1ed4 29       		.uleb128 0x29
 6699 1ed5 0E010000 		.4byte	.LVL56
 6700 1ed9 11250000 		.4byte	0x2511
 6701 1edd 00       		.byte	0
 6702 1ede 43       		.uleb128 0x43
 6703 1edf CB090000 		.4byte	.LASF186
 6704 1ee3 01       		.byte	0x1
 6705 1ee4 B1       		.byte	0xb1
 6706 1ee5 AD020000 		.4byte	0x2ad
 6707 1ee9 01       		.byte	0x1
 6708 1eea 3C1F0000 		.4byte	0x1f3c
 6709 1eee 44       		.uleb128 0x44
 6710 1eef 77737000 		.ascii	"wsp\000"
 6711 1ef3 01       		.byte	0x1
 6712 1ef4 B1       		.byte	0xb1
 6713 1ef5 8F030000 		.4byte	0x38f
 6714 1ef9 45       		.uleb128 0x45
 6715 1efa 0E090000 		.4byte	.LASF184
 6716 1efe 01       		.byte	0x1
 6717 1eff B1       		.byte	0xb1
 6718 1f00 2C000000 		.4byte	0x2c
 6719 1f04 45       		.uleb128 0x45
 6720 1f05 4D010000 		.4byte	.LASF185
 6721 1f09 01       		.byte	0x1
 6722 1f0a B2       		.byte	0xb2
 6723 1f0b 32010000 		.4byte	0x132
 6724 1f0f 44       		.uleb128 0x44
 6725 1f10 706600   		.ascii	"pf\000"
 6726 1f13 01       		.byte	0x1
 6727 1f14 B2       		.byte	0xb2
 6728 1f15 DF080000 		.4byte	0x8df
 6729 1f19 44       		.uleb128 0x44
 6730 1f1a 61726700 		.ascii	"arg\000"
 6731 1f1e 01       		.byte	0x1
 6732 1f1f B2       		.byte	0xb2
 6733 1f20 8F030000 		.4byte	0x38f
 6734 1f24 42       		.uleb128 0x42
 6735 1f25 747000   		.ascii	"tp\000"
 6736 1f28 01       		.byte	0x1
 6737 1f29 B5       		.byte	0xb5
 6738 1f2a AD020000 		.4byte	0x2ad
 6739 1f2e 33       		.uleb128 0x33
 6740 1f2f E9000000 		.4byte	.LASF162
 6741 1f33 240E0000 		.4byte	0xe24
 6742 1f37 CB090000 		.4byte	.LASF186
 6743 1f3b 00       		.byte	0
 6744 1f3c 46       		.uleb128 0x46
 6745 1f3d 14080000 		.4byte	.LASF187
 6746 1f41 01       		.byte	0x1
 6747 1f42 91       		.byte	0x91
 6748 1f43 01       		.byte	0x1
 6749 1f44 681F0000 		.4byte	0x1f68
ARM GAS  C:\Users\mathi\AppData\Local\Temp\cceGBsvt.s 			page 120


 6750 1f48 45       		.uleb128 0x45
 6751 1f49 2D0C0000 		.4byte	.LASF188
 6752 1f4d 01       		.byte	0x1
 6753 1f4e 91       		.byte	0x91
 6754 1f4f 070A0000 		.4byte	0xa07
 6755 1f53 45       		.uleb128 0x45
 6756 1f54 00080000 		.4byte	.LASF189
 6757 1f58 01       		.byte	0x1
 6758 1f59 91       		.byte	0x91
 6759 1f5a 070A0000 		.4byte	0xa07
 6760 1f5e 44       		.uleb128 0x44
 6761 1f5f 7600     		.ascii	"v\000"
 6762 1f61 01       		.byte	0x1
 6763 1f62 91       		.byte	0x91
 6764 1f63 B4000000 		.4byte	0xb4
 6765 1f67 00       		.byte	0
 6766 1f68 43       		.uleb128 0x43
 6767 1f69 B20A0000 		.4byte	.LASF190
 6768 1f6d 01       		.byte	0x1
 6769 1f6e 5B       		.byte	0x5b
 6770 1f6f AD020000 		.4byte	0x2ad
 6771 1f73 01       		.byte	0x1
 6772 1f74 8E1F0000 		.4byte	0x1f8e
 6773 1f78 44       		.uleb128 0x44
 6774 1f79 747000   		.ascii	"tp\000"
 6775 1f7c 01       		.byte	0x1
 6776 1f7d 5B       		.byte	0x5b
 6777 1f7e AD020000 		.4byte	0x2ad
 6778 1f82 45       		.uleb128 0x45
 6779 1f83 4D010000 		.4byte	.LASF185
 6780 1f87 01       		.byte	0x1
 6781 1f88 5B       		.byte	0x5b
 6782 1f89 32010000 		.4byte	0x132
 6783 1f8d 00       		.byte	0
 6784 1f8e 47       		.uleb128 0x47
 6785 1f8f EB090000 		.4byte	.LASF191
 6786 1f93 05       		.byte	0x5
 6787 1f94 3801     		.2byte	0x138
 6788 1f96 03       		.byte	0x3
 6789 1f97 CC1F0000 		.4byte	0x1fcc
 6790 1f9b 32       		.uleb128 0x32
 6791 1f9c 74717000 		.ascii	"tqp\000"
 6792 1fa0 05       		.byte	0x5
 6793 1fa1 3801     		.2byte	0x138
 6794 1fa3 F70A0000 		.4byte	0xaf7
 6795 1fa7 32       		.uleb128 0x32
 6796 1fa8 6D736700 		.ascii	"msg\000"
 6797 1fac 05       		.byte	0x5
 6798 1fad 3801     		.2byte	0x138
 6799 1faf 3D010000 		.4byte	0x13d
 6800 1fb3 35       		.uleb128 0x35
 6801 1fb4 747000   		.ascii	"tp\000"
 6802 1fb7 05       		.byte	0x5
 6803 1fb8 3901     		.2byte	0x139
 6804 1fba AD020000 		.4byte	0x2ad
 6805 1fbe 33       		.uleb128 0x33
 6806 1fbf E9000000 		.4byte	.LASF162
ARM GAS  C:\Users\mathi\AppData\Local\Temp\cceGBsvt.s 			page 121


 6807 1fc3 DC1F0000 		.4byte	0x1fdc
 6808 1fc7 EB090000 		.4byte	.LASF191
 6809 1fcb 00       		.byte	0
 6810 1fcc 18       		.uleb128 0x18
 6811 1fcd B3080000 		.4byte	0x8b3
 6812 1fd1 DC1F0000 		.4byte	0x1fdc
 6813 1fd5 19       		.uleb128 0x19
 6814 1fd6 37000000 		.4byte	0x37
 6815 1fda 13       		.byte	0x13
 6816 1fdb 00       		.byte	0
 6817 1fdc 0B       		.uleb128 0xb
 6818 1fdd CC1F0000 		.4byte	0x1fcc
 6819 1fe1 47       		.uleb128 0x47
 6820 1fe2 99000000 		.4byte	.LASF192
 6821 1fe6 05       		.byte	0x5
 6822 1fe7 0801     		.2byte	0x108
 6823 1fe9 03       		.byte	0x3
 6824 1fea 08200000 		.4byte	0x2008
 6825 1fee 48       		.uleb128 0x48
 6826 1fef 190A0000 		.4byte	.LASF175
 6827 1ff3 05       		.byte	0x5
 6828 1ff4 0801     		.2byte	0x108
 6829 1ff6 69010000 		.4byte	0x169
 6830 1ffa 33       		.uleb128 0x33
 6831 1ffb E9000000 		.4byte	.LASF162
 6832 1fff 18200000 		.4byte	0x2018
 6833 2003 99000000 		.4byte	.LASF192
 6834 2007 00       		.byte	0
 6835 2008 18       		.uleb128 0x18
 6836 2009 B3080000 		.4byte	0x8b3
 6837 200d 18200000 		.4byte	0x2018
 6838 2011 19       		.uleb128 0x19
 6839 2012 37000000 		.4byte	0x37
 6840 2016 0B       		.byte	0xb
 6841 2017 00       		.byte	0
 6842 2018 0B       		.uleb128 0xb
 6843 2019 08200000 		.4byte	0x2008
 6844 201d 49       		.uleb128 0x49
 6845 201e 38070000 		.4byte	.LASF193
 6846 2022 05       		.byte	0x5
 6847 2023 F5       		.byte	0xf5
 6848 2024 AD020000 		.4byte	0x2ad
 6849 2028 03       		.byte	0x3
 6850 2029 45200000 		.4byte	0x2045
 6851 202d 44       		.uleb128 0x44
 6852 202e 747000   		.ascii	"tp\000"
 6853 2031 05       		.byte	0x5
 6854 2032 F5       		.byte	0xf5
 6855 2033 AD020000 		.4byte	0x2ad
 6856 2037 33       		.uleb128 0x33
 6857 2038 E9000000 		.4byte	.LASF162
 6858 203c 18200000 		.4byte	0x2018
 6859 2040 38070000 		.4byte	.LASF193
 6860 2044 00       		.byte	0
 6861 2045 4A       		.uleb128 0x4a
 6862 2046 DB0A0000 		.4byte	.LASF197
 6863 204a 05       		.byte	0x5
ARM GAS  C:\Users\mathi\AppData\Local\Temp\cceGBsvt.s 			page 122


 6864 204b AE       		.byte	0xae
 6865 204c AD020000 		.4byte	0x2ad
 6866 2050 03       		.byte	0x3
 6867 2051 4B       		.uleb128 0x4b
 6868 2052 070A0000 		.4byte	.LASF194
 6869 2056 06       		.byte	0x6
 6870 2057 1C01     		.2byte	0x11c
 6871 2059 87200000 		.4byte	0x2087
 6872 205d 03       		.byte	0x3
 6873 205e 87200000 		.4byte	0x2087
 6874 2062 48       		.uleb128 0x48
 6875 2063 190A0000 		.4byte	.LASF175
 6876 2067 06       		.byte	0x6
 6877 2068 1C01     		.2byte	0x11c
 6878 206a 69010000 		.4byte	0x169
 6879 206e 48       		.uleb128 0x48
 6880 206f E90A0000 		.4byte	.LASF195
 6881 2073 06       		.byte	0x6
 6882 2074 1D01     		.2byte	0x11d
 6883 2076 69010000 		.4byte	0x169
 6884 207a 32       		.uleb128 0x32
 6885 207b 656E6400 		.ascii	"end\000"
 6886 207f 06       		.byte	0x6
 6887 2080 1E01     		.2byte	0x11e
 6888 2082 69010000 		.4byte	0x169
 6889 2086 00       		.byte	0
 6890 2087 04       		.uleb128 0x4
 6891 2088 01       		.byte	0x1
 6892 2089 02       		.byte	0x2
 6893 208a 63030000 		.4byte	.LASF196
 6894 208e 4A       		.uleb128 0x4a
 6895 208f 99080000 		.4byte	.LASF198
 6896 2093 06       		.byte	0x6
 6897 2094 E4       		.byte	0xe4
 6898 2095 69010000 		.4byte	0x169
 6899 2099 03       		.byte	0x3
 6900 209a 47       		.uleb128 0x47
 6901 209b 92040000 		.4byte	.LASF199
 6902 209f 04       		.byte	0x4
 6903 20a0 6601     		.2byte	0x166
 6904 20a2 03       		.byte	0x3
 6905 20a3 B5200000 		.4byte	0x20b5
 6906 20a7 33       		.uleb128 0x33
 6907 20a8 E9000000 		.4byte	.LASF162
 6908 20ac 18200000 		.4byte	0x2018
 6909 20b0 92040000 		.4byte	.LASF199
 6910 20b4 00       		.byte	0
 6911 20b5 4C       		.uleb128 0x4c
 6912 20b6 B8040000 		.4byte	.LASF200
 6913 20ba 04       		.byte	0x4
 6914 20bb 5A01     		.2byte	0x15a
 6915 20bd 03       		.byte	0x3
 6916 20be 4C       		.uleb128 0x4c
 6917 20bf 44070000 		.4byte	.LASF201
 6918 20c3 02       		.byte	0x2
 6919 20c4 E502     		.2byte	0x2e5
 6920 20c6 03       		.byte	0x3
ARM GAS  C:\Users\mathi\AppData\Local\Temp\cceGBsvt.s 			page 123


 6921 20c7 4D       		.uleb128 0x4d
 6922 20c8 26030000 		.4byte	.LASF202
 6923 20cc 02       		.byte	0x2
 6924 20cd D702     		.2byte	0x2d7
 6925 20cf 87200000 		.4byte	0x2087
 6926 20d3 03       		.byte	0x3
 6927 20d4 4B       		.uleb128 0x4b
 6928 20d5 F2000000 		.4byte	.LASF203
 6929 20d9 02       		.byte	0x2
 6930 20da 9F02     		.2byte	0x29f
 6931 20dc AD020000 		.4byte	0x2ad
 6932 20e0 03       		.byte	0x3
 6933 20e1 FD200000 		.4byte	0x20fd
 6934 20e5 32       		.uleb128 0x32
 6935 20e6 74717000 		.ascii	"tqp\000"
 6936 20ea 02       		.byte	0x2
 6937 20eb 9F02     		.2byte	0x29f
 6938 20ed F70A0000 		.4byte	0xaf7
 6939 20f1 35       		.uleb128 0x35
 6940 20f2 747000   		.ascii	"tp\000"
 6941 20f5 02       		.byte	0x2
 6942 20f6 A002     		.2byte	0x2a0
 6943 20f8 AD020000 		.4byte	0x2ad
 6944 20fc 00       		.byte	0
 6945 20fd 47       		.uleb128 0x47
 6946 20fe 50080000 		.4byte	.LASF204
 6947 2102 02       		.byte	0x2
 6948 2103 9702     		.2byte	0x297
 6949 2105 03       		.byte	0x3
 6950 2106 22210000 		.4byte	0x2122
 6951 210a 32       		.uleb128 0x32
 6952 210b 747000   		.ascii	"tp\000"
 6953 210e 02       		.byte	0x2
 6954 210f 9702     		.2byte	0x297
 6955 2111 AD020000 		.4byte	0x2ad
 6956 2115 32       		.uleb128 0x32
 6957 2116 74717000 		.ascii	"tqp\000"
 6958 211a 02       		.byte	0x2
 6959 211b 9702     		.2byte	0x297
 6960 211d F70A0000 		.4byte	0xaf7
 6961 2121 00       		.byte	0
 6962 2122 4B       		.uleb128 0x4b
 6963 2123 AC060000 		.4byte	.LASF205
 6964 2127 02       		.byte	0x2
 6965 2128 8302     		.2byte	0x283
 6966 212a AD020000 		.4byte	0x2ad
 6967 212e 03       		.byte	0x3
 6968 212f 4B210000 		.4byte	0x214b
 6969 2133 32       		.uleb128 0x32
 6970 2134 746C7000 		.ascii	"tlp\000"
 6971 2138 02       		.byte	0x2
 6972 2139 8302     		.2byte	0x283
 6973 213b 4B210000 		.4byte	0x214b
 6974 213f 35       		.uleb128 0x35
 6975 2140 747000   		.ascii	"tp\000"
 6976 2143 02       		.byte	0x2
 6977 2144 8502     		.2byte	0x285
ARM GAS  C:\Users\mathi\AppData\Local\Temp\cceGBsvt.s 			page 124


 6978 2146 AD020000 		.4byte	0x2ad
 6979 214a 00       		.byte	0
 6980 214b 0A       		.uleb128 0xa
 6981 214c 04       		.byte	0x4
 6982 214d B3020000 		.4byte	0x2b3
 6983 2151 47       		.uleb128 0x47
 6984 2152 81070000 		.4byte	.LASF206
 6985 2156 02       		.byte	0x2
 6986 2157 7D02     		.2byte	0x27d
 6987 2159 03       		.byte	0x3
 6988 215a 76210000 		.4byte	0x2176
 6989 215e 32       		.uleb128 0x32
 6990 215f 747000   		.ascii	"tp\000"
 6991 2162 02       		.byte	0x2
 6992 2163 7D02     		.2byte	0x27d
 6993 2165 AD020000 		.4byte	0x2ad
 6994 2169 32       		.uleb128 0x32
 6995 216a 746C7000 		.ascii	"tlp\000"
 6996 216e 02       		.byte	0x2
 6997 216f 7D02     		.2byte	0x27d
 6998 2171 4B210000 		.4byte	0x214b
 6999 2175 00       		.byte	0
 7000 2176 4B       		.uleb128 0x4b
 7001 2177 3E010000 		.4byte	.LASF207
 7002 217b 02       		.byte	0x2
 7003 217c 7502     		.2byte	0x275
 7004 217e 87200000 		.4byte	0x2087
 7005 2182 03       		.byte	0x3
 7006 2183 94210000 		.4byte	0x2194
 7007 2187 32       		.uleb128 0x32
 7008 2188 74717000 		.ascii	"tqp\000"
 7009 218c 02       		.byte	0x2
 7010 218d 7502     		.2byte	0x275
 7011 218f 94210000 		.4byte	0x2194
 7012 2193 00       		.byte	0
 7013 2194 0A       		.uleb128 0xa
 7014 2195 04       		.byte	0x4
 7015 2196 E2020000 		.4byte	0x2e2
 7016 219a 47       		.uleb128 0x47
 7017 219b 460B0000 		.4byte	.LASF208
 7018 219f 02       		.byte	0x2
 7019 21a0 5A02     		.2byte	0x25a
 7020 21a2 03       		.byte	0x3
 7021 21a3 B4210000 		.4byte	0x21b4
 7022 21a7 32       		.uleb128 0x32
 7023 21a8 74717000 		.ascii	"tqp\000"
 7024 21ac 02       		.byte	0x2
 7025 21ad 5A02     		.2byte	0x25a
 7026 21af F70A0000 		.4byte	0xaf7
 7027 21b3 00       		.byte	0
 7028 21b4 4B       		.uleb128 0x4b
 7029 21b5 98060000 		.4byte	.LASF209
 7030 21b9 02       		.byte	0x2
 7031 21ba 4E02     		.2byte	0x24e
 7032 21bc 87200000 		.4byte	0x2087
 7033 21c0 03       		.byte	0x3
 7034 21c1 D2210000 		.4byte	0x21d2
ARM GAS  C:\Users\mathi\AppData\Local\Temp\cceGBsvt.s 			page 125


 7035 21c5 32       		.uleb128 0x32
 7036 21c6 746C7000 		.ascii	"tlp\000"
 7037 21ca 02       		.byte	0x2
 7038 21cb 4E02     		.2byte	0x24e
 7039 21cd 4B210000 		.4byte	0x214b
 7040 21d1 00       		.byte	0
 7041 21d2 47       		.uleb128 0x47
 7042 21d3 5D080000 		.4byte	.LASF210
 7043 21d7 02       		.byte	0x2
 7044 21d8 3402     		.2byte	0x234
 7045 21da 03       		.byte	0x3
 7046 21db EC210000 		.4byte	0x21ec
 7047 21df 32       		.uleb128 0x32
 7048 21e0 746C7000 		.ascii	"tlp\000"
 7049 21e4 02       		.byte	0x2
 7050 21e5 3402     		.2byte	0x234
 7051 21e7 4B210000 		.4byte	0x214b
 7052 21eb 00       		.byte	0
 7053 21ec 4C       		.uleb128 0x4c
 7054 21ed C1010000 		.4byte	.LASF211
 7055 21f1 0F       		.byte	0xf
 7056 21f2 CA01     		.2byte	0x1ca
 7057 21f4 03       		.byte	0x3
 7058 21f5 4C       		.uleb128 0x4c
 7059 21f6 A00A0000 		.4byte	.LASF212
 7060 21fa 0F       		.byte	0xf
 7061 21fb BC01     		.2byte	0x1bc
 7062 21fd 03       		.byte	0x3
 7063 21fe 47       		.uleb128 0x47
 7064 21ff D8090000 		.4byte	.LASF213
 7065 2203 03       		.byte	0x3
 7066 2204 2002     		.2byte	0x220
 7067 2206 03       		.byte	0x3
 7068 2207 18220000 		.4byte	0x2218
 7069 220b 48       		.uleb128 0x48
 7070 220c 87030000 		.4byte	.LASF214
 7071 2210 03       		.byte	0x3
 7072 2211 2002     		.2byte	0x220
 7073 2213 DA000000 		.4byte	0xda
 7074 2217 00       		.byte	0
 7075 2218 4E       		.uleb128 0x4e
 7076 2219 681F0000 		.4byte	0x1f68
 7077 221d 00000000 		.4byte	.LFB219
 7078 2221 74000000 		.4byte	.LFE219-.LFB219
 7079 2225 01       		.uleb128 0x1
 7080 2226 9C       		.byte	0x9c
 7081 2227 A1220000 		.4byte	0x22a1
 7082 222b 20       		.uleb128 0x20
 7083 222c 781F0000 		.4byte	0x1f78
 7084 2230 620B0000 		.4byte	.LLST0
 7085 2234 20       		.uleb128 0x20
 7086 2235 821F0000 		.4byte	0x1f82
 7087 2239 800B0000 		.4byte	.LLST1
 7088 223d 3F       		.uleb128 0x3f
 7089 223e 9A210000 		.4byte	0x219a
 7090 2242 44000000 		.4byte	.LBB111
 7091 2246 04000000 		.4byte	.LBE111-.LBB111
ARM GAS  C:\Users\mathi\AppData\Local\Temp\cceGBsvt.s 			page 126


 7092 224a 01       		.byte	0x1
 7093 224b 78       		.byte	0x78
 7094 224c 56220000 		.4byte	0x2256
 7095 2250 22       		.uleb128 0x22
 7096 2251 A7210000 		.4byte	0x21a7
 7097 2255 00       		.byte	0
 7098 2256 3F       		.uleb128 0x3f
 7099 2257 D2210000 		.4byte	0x21d2
 7100 225b 4C000000 		.4byte	.LBB113
 7101 225f 02000000 		.4byte	.LBE113-.LBB113
 7102 2263 01       		.byte	0x1
 7103 2264 75       		.byte	0x75
 7104 2265 6F220000 		.4byte	0x226f
 7105 2269 22       		.uleb128 0x22
 7106 226a DF210000 		.4byte	0x21df
 7107 226e 00       		.byte	0
 7108 226f 26       		.uleb128 0x26
 7109 2270 54000000 		.4byte	.LVL4
 7110 2274 98250000 		.4byte	0x2598
 7111 2278 83220000 		.4byte	0x2283
 7112 227c 27       		.uleb128 0x27
 7113 227d 01       		.uleb128 0x1
 7114 227e 50       		.byte	0x50
 7115 227f 02       		.uleb128 0x2
 7116 2280 76       		.byte	0x76
 7117 2281 00       		.sleb128 0
 7118 2282 00       		.byte	0
 7119 2283 26       		.uleb128 0x26
 7120 2284 5A000000 		.4byte	.LVL5
 7121 2288 A3250000 		.4byte	0x25a3
 7122 228c 97220000 		.4byte	0x2297
 7123 2290 27       		.uleb128 0x27
 7124 2291 01       		.uleb128 0x1
 7125 2292 50       		.byte	0x50
 7126 2293 02       		.uleb128 0x2
 7127 2294 76       		.byte	0x76
 7128 2295 00       		.sleb128 0
 7129 2296 00       		.byte	0
 7130 2297 29       		.uleb128 0x29
 7131 2298 6C000000 		.4byte	.LVL7
 7132 229c 11250000 		.4byte	0x2511
 7133 22a0 00       		.byte	0
 7134 22a1 4E       		.uleb128 0x4e
 7135 22a2 3C1F0000 		.4byte	0x1f3c
 7136 22a6 00000000 		.4byte	.LFB220
 7137 22aa 3C000000 		.4byte	.LFE220-.LFB220
 7138 22ae 01       		.uleb128 0x1
 7139 22af 9C       		.byte	0x9c
 7140 22b0 F9220000 		.4byte	0x22f9
 7141 22b4 20       		.uleb128 0x20
 7142 22b5 481F0000 		.4byte	0x1f48
 7143 22b9 AD0B0000 		.4byte	.LLST2
 7144 22bd 20       		.uleb128 0x20
 7145 22be 531F0000 		.4byte	0x1f53
 7146 22c2 E70B0000 		.4byte	.LLST3
 7147 22c6 20       		.uleb128 0x20
 7148 22c7 5E1F0000 		.4byte	0x1f5e
ARM GAS  C:\Users\mathi\AppData\Local\Temp\cceGBsvt.s 			page 127


 7149 22cb 210C0000 		.4byte	.LLST4
 7150 22cf 2E       		.uleb128 0x2e
 7151 22d0 26000000 		.4byte	.LVL11
 7152 22d4 B9250000 		.4byte	0x25b9
 7153 22d8 EF220000 		.4byte	0x22ef
 7154 22dc 27       		.uleb128 0x27
 7155 22dd 01       		.uleb128 0x1
 7156 22de 50       		.byte	0x50
 7157 22df 03       		.uleb128 0x3
 7158 22e0 F3       		.byte	0xf3
 7159 22e1 01       		.uleb128 0x1
 7160 22e2 50       		.byte	0x50
 7161 22e3 27       		.uleb128 0x27
 7162 22e4 01       		.uleb128 0x1
 7163 22e5 52       		.byte	0x52
 7164 22e6 07       		.uleb128 0x7
 7165 22e7 F3       		.byte	0xf3
 7166 22e8 01       		.uleb128 0x1
 7167 22e9 51       		.byte	0x51
 7168 22ea F3       		.byte	0xf3
 7169 22eb 01       		.uleb128 0x1
 7170 22ec 50       		.byte	0x50
 7171 22ed 1C       		.byte	0x1c
 7172 22ee 00       		.byte	0
 7173 22ef 29       		.uleb128 0x29
 7174 22f0 36000000 		.4byte	.LVL13
 7175 22f4 11250000 		.4byte	0x2511
 7176 22f8 00       		.byte	0
 7177 22f9 4E       		.uleb128 0x4e
 7178 22fa DE1E0000 		.4byte	0x1ede
 7179 22fe 00000000 		.4byte	.LFB221
 7180 2302 C0000000 		.4byte	.LFE221-.LFB221
 7181 2306 01       		.uleb128 0x1
 7182 2307 9C       		.byte	0x9c
 7183 2308 D4230000 		.4byte	0x23d4
 7184 230c 20       		.uleb128 0x20
 7185 230d EE1E0000 		.4byte	0x1eee
 7186 2311 5B0C0000 		.4byte	.LLST5
 7187 2315 20       		.uleb128 0x20
 7188 2316 F91E0000 		.4byte	0x1ef9
 7189 231a A50C0000 		.4byte	.LLST6
 7190 231e 20       		.uleb128 0x20
 7191 231f 041F0000 		.4byte	0x1f04
 7192 2323 EA0C0000 		.4byte	.LLST7
 7193 2327 20       		.uleb128 0x20
 7194 2328 0F1F0000 		.4byte	0x1f0f
 7195 232c 3B0D0000 		.4byte	.LLST8
 7196 2330 20       		.uleb128 0x20
 7197 2331 191F0000 		.4byte	0x1f19
 7198 2335 590D0000 		.4byte	.LLST9
 7199 2339 25       		.uleb128 0x25
 7200 233a 241F0000 		.4byte	0x1f24
 7201 233e 790D0000 		.4byte	.LLST10
 7202 2342 24       		.uleb128 0x24
 7203 2343 2E1F0000 		.4byte	0x1f2e
 7204 2347 40       		.uleb128 0x40
 7205 2348 681F0000 		.4byte	0x1f68
ARM GAS  C:\Users\mathi\AppData\Local\Temp\cceGBsvt.s 			page 128


 7206 234c 38000000 		.4byte	.LBB121
 7207 2350 00000000 		.4byte	.Ldebug_ranges0+0
 7208 2354 01       		.byte	0x1
 7209 2355 BD       		.byte	0xbd
 7210 2356 AA230000 		.4byte	0x23aa
 7211 235a 20       		.uleb128 0x20
 7212 235b 821F0000 		.4byte	0x1f82
 7213 235f C30D0000 		.4byte	.LLST11
 7214 2363 20       		.uleb128 0x20
 7215 2364 781F0000 		.4byte	0x1f78
 7216 2368 F00D0000 		.4byte	.LLST12
 7217 236c 3F       		.uleb128 0x3f
 7218 236d 9A210000 		.4byte	0x219a
 7219 2371 7A000000 		.4byte	.LBB123
 7220 2375 06000000 		.4byte	.LBE123-.LBB123
 7221 2379 01       		.byte	0x1
 7222 237a 78       		.byte	0x78
 7223 237b 85230000 		.4byte	0x2385
 7224 237f 22       		.uleb128 0x22
 7225 2380 A7210000 		.4byte	0x21a7
 7226 2384 00       		.byte	0
 7227 2385 26       		.uleb128 0x26
 7228 2386 8A000000 		.4byte	.LVL22
 7229 238a 98250000 		.4byte	0x2598
 7230 238e 99230000 		.4byte	0x2399
 7231 2392 27       		.uleb128 0x27
 7232 2393 01       		.uleb128 0x1
 7233 2394 50       		.byte	0x50
 7234 2395 02       		.uleb128 0x2
 7235 2396 75       		.byte	0x75
 7236 2397 00       		.sleb128 0
 7237 2398 00       		.byte	0
 7238 2399 28       		.uleb128 0x28
 7239 239a 90000000 		.4byte	.LVL23
 7240 239e A3250000 		.4byte	0x25a3
 7241 23a2 27       		.uleb128 0x27
 7242 23a3 01       		.uleb128 0x1
 7243 23a4 50       		.byte	0x50
 7244 23a5 02       		.uleb128 0x2
 7245 23a6 75       		.byte	0x75
 7246 23a7 00       		.sleb128 0
 7247 23a8 00       		.byte	0
 7248 23a9 00       		.byte	0
 7249 23aa 29       		.uleb128 0x29
 7250 23ab 1C000000 		.4byte	.LVL16
 7251 23af AE250000 		.4byte	0x25ae
 7252 23b3 26       		.uleb128 0x26
 7253 23b4 2A000000 		.4byte	.LVL17
 7254 23b8 F9240000 		.4byte	0x24f9
 7255 23bc CA230000 		.4byte	0x23ca
 7256 23c0 27       		.uleb128 0x27
 7257 23c1 01       		.uleb128 0x1
 7258 23c2 50       		.byte	0x50
 7259 23c3 05       		.uleb128 0x5
 7260 23c4 03       		.byte	0x3
 7261 23c5 00000000 		.4byte	.LANCHOR0
 7262 23c9 00       		.byte	0
ARM GAS  C:\Users\mathi\AppData\Local\Temp\cceGBsvt.s 			page 129


 7263 23ca 29       		.uleb128 0x29
 7264 23cb B0000000 		.4byte	.LVL27
 7265 23cf 11250000 		.4byte	0x2511
 7266 23d3 00       		.byte	0
 7267 23d4 4E       		.uleb128 0x4e
 7268 23d5 C2110000 		.4byte	0x11c2
 7269 23d9 00000000 		.4byte	.LFB231
 7270 23dd 68000000 		.4byte	.LFE231-.LFB231
 7271 23e1 01       		.uleb128 0x1
 7272 23e2 9C       		.byte	0x9c
 7273 23e3 8A240000 		.4byte	0x248a
 7274 23e7 20       		.uleb128 0x20
 7275 23e8 CF110000 		.4byte	0x11cf
 7276 23ec 030E0000 		.4byte	.LLST63
 7277 23f0 25       		.uleb128 0x25
 7278 23f1 DB110000 		.4byte	0x11db
 7279 23f5 240E0000 		.4byte	.LLST64
 7280 23f9 24       		.uleb128 0x24
 7281 23fa E6110000 		.4byte	0x11e6
 7282 23fe 1F       		.uleb128 0x1f
 7283 23ff B4210000 		.4byte	0x21b4
 7284 2403 0A000000 		.4byte	.LBB405
 7285 2407 F8010000 		.4byte	.Ldebug_ranges0+0x1f8
 7286 240b 01       		.byte	0x1
 7287 240c AA01     		.2byte	0x1aa
 7288 240e 1C240000 		.4byte	0x241c
 7289 2412 20       		.uleb128 0x20
 7290 2413 C5210000 		.4byte	0x21c5
 7291 2417 420E0000 		.4byte	.LLST65
 7292 241b 00       		.byte	0
 7293 241c 21       		.uleb128 0x21
 7294 241d 22210000 		.4byte	0x2122
 7295 2421 1A000000 		.4byte	.LBB408
 7296 2425 04000000 		.4byte	.LBE408-.LBB408
 7297 2429 01       		.byte	0x1
 7298 242a AB01     		.2byte	0x1ab
 7299 242c 4D240000 		.4byte	0x244d
 7300 2430 20       		.uleb128 0x20
 7301 2431 33210000 		.4byte	0x2133
 7302 2435 550E0000 		.4byte	.LLST66
 7303 2439 23       		.uleb128 0x23
 7304 243a 1A000000 		.4byte	.LBB409
 7305 243e 04000000 		.4byte	.LBE409-.LBB409
 7306 2442 25       		.uleb128 0x25
 7307 2443 3F210000 		.4byte	0x213f
 7308 2447 680E0000 		.4byte	.LLST67
 7309 244b 00       		.byte	0
 7310 244c 00       		.byte	0
 7311 244d 29       		.uleb128 0x29
 7312 244e 24000000 		.4byte	.LVL182
 7313 2452 05250000 		.4byte	0x2505
 7314 2456 26       		.uleb128 0x26
 7315 2457 44000000 		.4byte	.LVL184
 7316 245b 5E250000 		.4byte	0x255e
 7317 245f 69240000 		.4byte	0x2469
 7318 2463 27       		.uleb128 0x27
 7319 2464 01       		.uleb128 0x1
ARM GAS  C:\Users\mathi\AppData\Local\Temp\cceGBsvt.s 			page 130


 7320 2465 50       		.byte	0x50
 7321 2466 01       		.uleb128 0x1
 7322 2467 3F       		.byte	0x3f
 7323 2468 00       		.byte	0
 7324 2469 2E       		.uleb128 0x2e
 7325 246a 58000000 		.4byte	.LVL186
 7326 246e F9240000 		.4byte	0x24f9
 7327 2472 80240000 		.4byte	0x2480
 7328 2476 27       		.uleb128 0x27
 7329 2477 01       		.uleb128 0x1
 7330 2478 50       		.byte	0x50
 7331 2479 05       		.uleb128 0x5
 7332 247a 03       		.byte	0x3
 7333 247b 00000000 		.4byte	.LANCHOR5
 7334 247f 00       		.byte	0
 7335 2480 29       		.uleb128 0x29
 7336 2481 5C000000 		.4byte	.LVL187
 7337 2485 11250000 		.4byte	0x2511
 7338 2489 00       		.byte	0
 7339 248a 4E       		.uleb128 0x4e
 7340 248b D40D0000 		.4byte	0xdd4
 7341 248f 00000000 		.4byte	.LFB236
 7342 2493 54000000 		.4byte	.LFE236-.LFB236
 7343 2497 01       		.uleb128 0x1
 7344 2498 9C       		.byte	0x9c
 7345 2499 F9240000 		.4byte	0x24f9
 7346 249d 20       		.uleb128 0x20
 7347 249e E10D0000 		.4byte	0xde1
 7348 24a2 7B0E0000 		.4byte	.LLST80
 7349 24a6 20       		.uleb128 0x20
 7350 24a7 ED0D0000 		.4byte	0xded
 7351 24ab D60E0000 		.4byte	.LLST81
 7352 24af 24       		.uleb128 0x24
 7353 24b0 F90D0000 		.4byte	0xdf9
 7354 24b4 37       		.uleb128 0x37
 7355 24b5 A0020000 		.4byte	.Ldebug_ranges0+0x2a0
 7356 24b9 EF240000 		.4byte	0x24ef
 7357 24bd 25       		.uleb128 0x25
 7358 24be 070E0000 		.4byte	0xe07
 7359 24c2 3C0F0000 		.4byte	.LLST82
 7360 24c6 2E       		.uleb128 0x2e
 7361 24c7 34000000 		.4byte	.LVL240
 7362 24cb 3C250000 		.4byte	0x253c
 7363 24cf DB240000 		.4byte	0x24db
 7364 24d3 27       		.uleb128 0x27
 7365 24d4 01       		.uleb128 0x1
 7366 24d5 51       		.byte	0x51
 7367 24d6 03       		.uleb128 0x3
 7368 24d7 F3       		.byte	0xf3
 7369 24d8 01       		.uleb128 0x1
 7370 24d9 51       		.byte	0x51
 7371 24da 00       		.byte	0
 7372 24db 28       		.uleb128 0x28
 7373 24dc 3A000000 		.4byte	.LVL242
 7374 24e0 F9240000 		.4byte	0x24f9
 7375 24e4 27       		.uleb128 0x27
 7376 24e5 01       		.uleb128 0x1
ARM GAS  C:\Users\mathi\AppData\Local\Temp\cceGBsvt.s 			page 131


 7377 24e6 50       		.byte	0x50
 7378 24e7 05       		.uleb128 0x5
 7379 24e8 03       		.byte	0x3
 7380 24e9 00000000 		.4byte	.LANCHOR10
 7381 24ed 00       		.byte	0
 7382 24ee 00       		.byte	0
 7383 24ef 29       		.uleb128 0x29
 7384 24f0 4C000000 		.4byte	.LVL245
 7385 24f4 11250000 		.4byte	0x2511
 7386 24f8 00       		.byte	0
 7387 24f9 4F       		.uleb128 0x4f
 7388 24fa 250B0000 		.4byte	.LASF215
 7389 24fe 250B0000 		.4byte	.LASF215
 7390 2502 04       		.byte	0x4
 7391 2503 1601     		.2byte	0x116
 7392 2505 4F       		.uleb128 0x4f
 7393 2506 DD000000 		.4byte	.LASF216
 7394 250a DD000000 		.4byte	.LASF216
 7395 250e 02       		.byte	0x2
 7396 250f 1302     		.2byte	0x213
 7397 2511 50       		.uleb128 0x50
 7398 2512 E3060000 		.4byte	.LASF234
 7399 2516 E3060000 		.4byte	.LASF234
 7400 251a 4F       		.uleb128 0x4f
 7401 251b 590B0000 		.4byte	.LASF217
 7402 251f 590B0000 		.4byte	.LASF217
 7403 2523 02       		.byte	0x2
 7404 2524 1502     		.2byte	0x215
 7405 2526 51       		.uleb128 0x51
 7406 2527 8B090000 		.4byte	.LASF218
 7407 252b 8B090000 		.4byte	.LASF218
 7408 252f 12       		.byte	0x12
 7409 2530 4F       		.byte	0x4f
 7410 2531 51       		.uleb128 0x51
 7411 2532 A9090000 		.4byte	.LASF219
 7412 2536 A9090000 		.4byte	.LASF219
 7413 253a 10       		.byte	0x10
 7414 253b D8       		.byte	0xd8
 7415 253c 4F       		.uleb128 0x4f
 7416 253d 7A030000 		.4byte	.LASF220
 7417 2541 7A030000 		.4byte	.LASF220
 7418 2545 02       		.byte	0x2
 7419 2546 1602     		.2byte	0x216
 7420 2548 51       		.uleb128 0x51
 7421 2549 52010000 		.4byte	.LASF221
 7422 254d 52010000 		.4byte	.LASF221
 7423 2551 10       		.byte	0x10
 7424 2552 D9       		.byte	0xd9
 7425 2553 51       		.uleb128 0x51
 7426 2554 B8020000 		.4byte	.LASF222
 7427 2558 B8020000 		.4byte	.LASF222
 7428 255c 12       		.byte	0x12
 7429 255d 50       		.byte	0x50
 7430 255e 4F       		.uleb128 0x4f
 7431 255f DB0B0000 		.4byte	.LASF223
 7432 2563 DB0B0000 		.4byte	.LASF223
 7433 2567 02       		.byte	0x2
ARM GAS  C:\Users\mathi\AppData\Local\Temp\cceGBsvt.s 			page 132


 7434 2568 1402     		.2byte	0x214
 7435 256a 51       		.uleb128 0x51
 7436 256b 18010000 		.4byte	.LASF224
 7437 256f 18010000 		.4byte	.LASF224
 7438 2573 16       		.byte	0x16
 7439 2574 4B       		.byte	0x4b
 7440 2575 51       		.uleb128 0x51
 7441 2576 3C020000 		.4byte	.LASF225
 7442 257a 3C020000 		.4byte	.LASF225
 7443 257e 10       		.byte	0x10
 7444 257f DF       		.byte	0xdf
 7445 2580 4F       		.uleb128 0x4f
 7446 2581 73090000 		.4byte	.LASF226
 7447 2585 73090000 		.4byte	.LASF226
 7448 2589 02       		.byte	0x2
 7449 258a 1902     		.2byte	0x219
 7450 258c 4F       		.uleb128 0x4f
 7451 258d C7060000 		.4byte	.LASF227
 7452 2591 C7060000 		.4byte	.LASF227
 7453 2595 02       		.byte	0x2
 7454 2596 1702     		.2byte	0x217
 7455 2598 51       		.uleb128 0x51
 7456 2599 D2030000 		.4byte	.LASF228
 7457 259d D2030000 		.4byte	.LASF228
 7458 25a1 11       		.byte	0x11
 7459 25a2 5C       		.byte	0x5c
 7460 25a3 51       		.uleb128 0x51
 7461 25a4 F3030000 		.4byte	.LASF229
 7462 25a8 F3030000 		.4byte	.LASF229
 7463 25ac 11       		.byte	0x11
 7464 25ad 5D       		.byte	0x5d
 7465 25ae 51       		.uleb128 0x51
 7466 25af 69030000 		.4byte	.LASF230
 7467 25b3 69030000 		.4byte	.LASF230
 7468 25b7 10       		.byte	0x10
 7469 25b8 DE       		.byte	0xde
 7470 25b9 52       		.uleb128 0x52
 7471 25ba C4090000 		.4byte	.LASF235
 7472 25be F6010000 		.4byte	.LASF236
 7473 25c2 17       		.byte	0x17
 7474 25c3 00       		.byte	0
 7475 25c4 C4090000 		.4byte	.LASF235
 7476 25c8 00       		.byte	0
 7477              		.section	.debug_abbrev,"",%progbits
 7478              	.Ldebug_abbrev0:
 7479 0000 01       		.uleb128 0x1
 7480 0001 11       		.uleb128 0x11
 7481 0002 01       		.byte	0x1
 7482 0003 25       		.uleb128 0x25
 7483 0004 0E       		.uleb128 0xe
 7484 0005 13       		.uleb128 0x13
 7485 0006 0B       		.uleb128 0xb
 7486 0007 03       		.uleb128 0x3
 7487 0008 0E       		.uleb128 0xe
 7488 0009 1B       		.uleb128 0x1b
 7489 000a 0E       		.uleb128 0xe
 7490 000b 55       		.uleb128 0x55
ARM GAS  C:\Users\mathi\AppData\Local\Temp\cceGBsvt.s 			page 133


 7491 000c 17       		.uleb128 0x17
 7492 000d 11       		.uleb128 0x11
 7493 000e 01       		.uleb128 0x1
 7494 000f 10       		.uleb128 0x10
 7495 0010 17       		.uleb128 0x17
 7496 0011 00       		.byte	0
 7497 0012 00       		.byte	0
 7498 0013 02       		.uleb128 0x2
 7499 0014 24       		.uleb128 0x24
 7500 0015 00       		.byte	0
 7501 0016 0B       		.uleb128 0xb
 7502 0017 0B       		.uleb128 0xb
 7503 0018 3E       		.uleb128 0x3e
 7504 0019 0B       		.uleb128 0xb
 7505 001a 03       		.uleb128 0x3
 7506 001b 08       		.uleb128 0x8
 7507 001c 00       		.byte	0
 7508 001d 00       		.byte	0
 7509 001e 03       		.uleb128 0x3
 7510 001f 16       		.uleb128 0x16
 7511 0020 00       		.byte	0
 7512 0021 03       		.uleb128 0x3
 7513 0022 0E       		.uleb128 0xe
 7514 0023 3A       		.uleb128 0x3a
 7515 0024 0B       		.uleb128 0xb
 7516 0025 3B       		.uleb128 0x3b
 7517 0026 0B       		.uleb128 0xb
 7518 0027 49       		.uleb128 0x49
 7519 0028 13       		.uleb128 0x13
 7520 0029 00       		.byte	0
 7521 002a 00       		.byte	0
 7522 002b 04       		.uleb128 0x4
 7523 002c 24       		.uleb128 0x24
 7524 002d 00       		.byte	0
 7525 002e 0B       		.uleb128 0xb
 7526 002f 0B       		.uleb128 0xb
 7527 0030 3E       		.uleb128 0x3e
 7528 0031 0B       		.uleb128 0xb
 7529 0032 03       		.uleb128 0x3
 7530 0033 0E       		.uleb128 0xe
 7531 0034 00       		.byte	0
 7532 0035 00       		.byte	0
 7533 0036 05       		.uleb128 0x5
 7534 0037 35       		.uleb128 0x35
 7535 0038 00       		.byte	0
 7536 0039 49       		.uleb128 0x49
 7537 003a 13       		.uleb128 0x13
 7538 003b 00       		.byte	0
 7539 003c 00       		.byte	0
 7540 003d 06       		.uleb128 0x6
 7541 003e 13       		.uleb128 0x13
 7542 003f 01       		.byte	0x1
 7543 0040 03       		.uleb128 0x3
 7544 0041 0E       		.uleb128 0xe
 7545 0042 0B       		.uleb128 0xb
 7546 0043 0B       		.uleb128 0xb
 7547 0044 3A       		.uleb128 0x3a
ARM GAS  C:\Users\mathi\AppData\Local\Temp\cceGBsvt.s 			page 134


 7548 0045 0B       		.uleb128 0xb
 7549 0046 3B       		.uleb128 0x3b
 7550 0047 0B       		.uleb128 0xb
 7551 0048 01       		.uleb128 0x1
 7552 0049 13       		.uleb128 0x13
 7553 004a 00       		.byte	0
 7554 004b 00       		.byte	0
 7555 004c 07       		.uleb128 0x7
 7556 004d 0D       		.uleb128 0xd
 7557 004e 00       		.byte	0
 7558 004f 03       		.uleb128 0x3
 7559 0050 0E       		.uleb128 0xe
 7560 0051 3A       		.uleb128 0x3a
 7561 0052 0B       		.uleb128 0xb
 7562 0053 3B       		.uleb128 0x3b
 7563 0054 0B       		.uleb128 0xb
 7564 0055 49       		.uleb128 0x49
 7565 0056 13       		.uleb128 0x13
 7566 0057 38       		.uleb128 0x38
 7567 0058 0B       		.uleb128 0xb
 7568 0059 00       		.byte	0
 7569 005a 00       		.byte	0
 7570 005b 08       		.uleb128 0x8
 7571 005c 0D       		.uleb128 0xd
 7572 005d 00       		.byte	0
 7573 005e 03       		.uleb128 0x3
 7574 005f 08       		.uleb128 0x8
 7575 0060 3A       		.uleb128 0x3a
 7576 0061 0B       		.uleb128 0xb
 7577 0062 3B       		.uleb128 0x3b
 7578 0063 05       		.uleb128 0x5
 7579 0064 49       		.uleb128 0x49
 7580 0065 13       		.uleb128 0x13
 7581 0066 38       		.uleb128 0x38
 7582 0067 0B       		.uleb128 0xb
 7583 0068 00       		.byte	0
 7584 0069 00       		.byte	0
 7585 006a 09       		.uleb128 0x9
 7586 006b 0D       		.uleb128 0xd
 7587 006c 00       		.byte	0
 7588 006d 03       		.uleb128 0x3
 7589 006e 0E       		.uleb128 0xe
 7590 006f 3A       		.uleb128 0x3a
 7591 0070 0B       		.uleb128 0xb
 7592 0071 3B       		.uleb128 0x3b
 7593 0072 05       		.uleb128 0x5
 7594 0073 49       		.uleb128 0x49
 7595 0074 13       		.uleb128 0x13
 7596 0075 38       		.uleb128 0x38
 7597 0076 0B       		.uleb128 0xb
 7598 0077 00       		.byte	0
 7599 0078 00       		.byte	0
 7600 0079 0A       		.uleb128 0xa
 7601 007a 0F       		.uleb128 0xf
 7602 007b 00       		.byte	0
 7603 007c 0B       		.uleb128 0xb
 7604 007d 0B       		.uleb128 0xb
ARM GAS  C:\Users\mathi\AppData\Local\Temp\cceGBsvt.s 			page 135


 7605 007e 49       		.uleb128 0x49
 7606 007f 13       		.uleb128 0x13
 7607 0080 00       		.byte	0
 7608 0081 00       		.byte	0
 7609 0082 0B       		.uleb128 0xb
 7610 0083 26       		.uleb128 0x26
 7611 0084 00       		.byte	0
 7612 0085 49       		.uleb128 0x49
 7613 0086 13       		.uleb128 0x13
 7614 0087 00       		.byte	0
 7615 0088 00       		.byte	0
 7616 0089 0C       		.uleb128 0xc
 7617 008a 13       		.uleb128 0x13
 7618 008b 01       		.byte	0x1
 7619 008c 03       		.uleb128 0x3
 7620 008d 0E       		.uleb128 0xe
 7621 008e 0B       		.uleb128 0xb
 7622 008f 0B       		.uleb128 0xb
 7623 0090 3A       		.uleb128 0x3a
 7624 0091 0B       		.uleb128 0xb
 7625 0092 3B       		.uleb128 0x3b
 7626 0093 05       		.uleb128 0x5
 7627 0094 01       		.uleb128 0x1
 7628 0095 13       		.uleb128 0x13
 7629 0096 00       		.byte	0
 7630 0097 00       		.byte	0
 7631 0098 0D       		.uleb128 0xd
 7632 0099 15       		.uleb128 0x15
 7633 009a 01       		.byte	0x1
 7634 009b 27       		.uleb128 0x27
 7635 009c 19       		.uleb128 0x19
 7636 009d 01       		.uleb128 0x1
 7637 009e 13       		.uleb128 0x13
 7638 009f 00       		.byte	0
 7639 00a0 00       		.byte	0
 7640 00a1 0E       		.uleb128 0xe
 7641 00a2 05       		.uleb128 0x5
 7642 00a3 00       		.byte	0
 7643 00a4 49       		.uleb128 0x49
 7644 00a5 13       		.uleb128 0x13
 7645 00a6 00       		.byte	0
 7646 00a7 00       		.byte	0
 7647 00a8 0F       		.uleb128 0xf
 7648 00a9 0F       		.uleb128 0xf
 7649 00aa 00       		.byte	0
 7650 00ab 0B       		.uleb128 0xb
 7651 00ac 0B       		.uleb128 0xb
 7652 00ad 00       		.byte	0
 7653 00ae 00       		.byte	0
 7654 00af 10       		.uleb128 0x10
 7655 00b0 13       		.uleb128 0x13
 7656 00b1 01       		.byte	0x1
 7657 00b2 03       		.uleb128 0x3
 7658 00b3 0E       		.uleb128 0xe
 7659 00b4 0B       		.uleb128 0xb
 7660 00b5 05       		.uleb128 0x5
 7661 00b6 3A       		.uleb128 0x3a
ARM GAS  C:\Users\mathi\AppData\Local\Temp\cceGBsvt.s 			page 136


 7662 00b7 0B       		.uleb128 0xb
 7663 00b8 3B       		.uleb128 0x3b
 7664 00b9 05       		.uleb128 0x5
 7665 00ba 01       		.uleb128 0x1
 7666 00bb 13       		.uleb128 0x13
 7667 00bc 00       		.byte	0
 7668 00bd 00       		.byte	0
 7669 00be 11       		.uleb128 0x11
 7670 00bf 0D       		.uleb128 0xd
 7671 00c0 00       		.byte	0
 7672 00c1 03       		.uleb128 0x3
 7673 00c2 0E       		.uleb128 0xe
 7674 00c3 3A       		.uleb128 0x3a
 7675 00c4 0B       		.uleb128 0xb
 7676 00c5 3B       		.uleb128 0x3b
 7677 00c6 05       		.uleb128 0x5
 7678 00c7 49       		.uleb128 0x49
 7679 00c8 13       		.uleb128 0x13
 7680 00c9 38       		.uleb128 0x38
 7681 00ca 05       		.uleb128 0x5
 7682 00cb 00       		.byte	0
 7683 00cc 00       		.byte	0
 7684 00cd 12       		.uleb128 0x12
 7685 00ce 0D       		.uleb128 0xd
 7686 00cf 00       		.byte	0
 7687 00d0 03       		.uleb128 0x3
 7688 00d1 08       		.uleb128 0x8
 7689 00d2 3A       		.uleb128 0x3a
 7690 00d3 0B       		.uleb128 0xb
 7691 00d4 3B       		.uleb128 0x3b
 7692 00d5 05       		.uleb128 0x5
 7693 00d6 49       		.uleb128 0x49
 7694 00d7 13       		.uleb128 0x13
 7695 00d8 38       		.uleb128 0x38
 7696 00d9 05       		.uleb128 0x5
 7697 00da 00       		.byte	0
 7698 00db 00       		.byte	0
 7699 00dc 13       		.uleb128 0x13
 7700 00dd 34       		.uleb128 0x34
 7701 00de 00       		.byte	0
 7702 00df 03       		.uleb128 0x3
 7703 00e0 0E       		.uleb128 0xe
 7704 00e1 3A       		.uleb128 0x3a
 7705 00e2 0B       		.uleb128 0xb
 7706 00e3 3B       		.uleb128 0x3b
 7707 00e4 05       		.uleb128 0x5
 7708 00e5 49       		.uleb128 0x49
 7709 00e6 13       		.uleb128 0x13
 7710 00e7 3F       		.uleb128 0x3f
 7711 00e8 19       		.uleb128 0x19
 7712 00e9 3C       		.uleb128 0x3c
 7713 00ea 19       		.uleb128 0x19
 7714 00eb 00       		.byte	0
 7715 00ec 00       		.byte	0
 7716 00ed 14       		.uleb128 0x14
 7717 00ee 34       		.uleb128 0x34
 7718 00ef 00       		.byte	0
ARM GAS  C:\Users\mathi\AppData\Local\Temp\cceGBsvt.s 			page 137


 7719 00f0 03       		.uleb128 0x3
 7720 00f1 0E       		.uleb128 0xe
 7721 00f2 3A       		.uleb128 0x3a
 7722 00f3 0B       		.uleb128 0xb
 7723 00f4 3B       		.uleb128 0x3b
 7724 00f5 0B       		.uleb128 0xb
 7725 00f6 49       		.uleb128 0x49
 7726 00f7 13       		.uleb128 0x13
 7727 00f8 3F       		.uleb128 0x3f
 7728 00f9 19       		.uleb128 0x19
 7729 00fa 3C       		.uleb128 0x3c
 7730 00fb 19       		.uleb128 0x19
 7731 00fc 00       		.byte	0
 7732 00fd 00       		.byte	0
 7733 00fe 15       		.uleb128 0x15
 7734 00ff 0D       		.uleb128 0xd
 7735 0100 00       		.byte	0
 7736 0101 03       		.uleb128 0x3
 7737 0102 08       		.uleb128 0x8
 7738 0103 3A       		.uleb128 0x3a
 7739 0104 0B       		.uleb128 0xb
 7740 0105 3B       		.uleb128 0x3b
 7741 0106 0B       		.uleb128 0xb
 7742 0107 49       		.uleb128 0x49
 7743 0108 13       		.uleb128 0x13
 7744 0109 38       		.uleb128 0x38
 7745 010a 0B       		.uleb128 0xb
 7746 010b 00       		.byte	0
 7747 010c 00       		.byte	0
 7748 010d 16       		.uleb128 0x16
 7749 010e 13       		.uleb128 0x13
 7750 010f 01       		.byte	0x1
 7751 0110 0B       		.uleb128 0xb
 7752 0111 0B       		.uleb128 0xb
 7753 0112 3A       		.uleb128 0x3a
 7754 0113 0B       		.uleb128 0xb
 7755 0114 3B       		.uleb128 0x3b
 7756 0115 0B       		.uleb128 0xb
 7757 0116 01       		.uleb128 0x1
 7758 0117 13       		.uleb128 0x13
 7759 0118 00       		.byte	0
 7760 0119 00       		.byte	0
 7761 011a 17       		.uleb128 0x17
 7762 011b 13       		.uleb128 0x13
 7763 011c 01       		.byte	0x1
 7764 011d 0B       		.uleb128 0xb
 7765 011e 05       		.uleb128 0x5
 7766 011f 3A       		.uleb128 0x3a
 7767 0120 0B       		.uleb128 0xb
 7768 0121 3B       		.uleb128 0x3b
 7769 0122 0B       		.uleb128 0xb
 7770 0123 01       		.uleb128 0x1
 7771 0124 13       		.uleb128 0x13
 7772 0125 00       		.byte	0
 7773 0126 00       		.byte	0
 7774 0127 18       		.uleb128 0x18
 7775 0128 01       		.uleb128 0x1
ARM GAS  C:\Users\mathi\AppData\Local\Temp\cceGBsvt.s 			page 138


 7776 0129 01       		.byte	0x1
 7777 012a 49       		.uleb128 0x49
 7778 012b 13       		.uleb128 0x13
 7779 012c 01       		.uleb128 0x1
 7780 012d 13       		.uleb128 0x13
 7781 012e 00       		.byte	0
 7782 012f 00       		.byte	0
 7783 0130 19       		.uleb128 0x19
 7784 0131 21       		.uleb128 0x21
 7785 0132 00       		.byte	0
 7786 0133 49       		.uleb128 0x49
 7787 0134 13       		.uleb128 0x13
 7788 0135 2F       		.uleb128 0x2f
 7789 0136 0B       		.uleb128 0xb
 7790 0137 00       		.byte	0
 7791 0138 00       		.byte	0
 7792 0139 1A       		.uleb128 0x1a
 7793 013a 17       		.uleb128 0x17
 7794 013b 01       		.byte	0x1
 7795 013c 0B       		.uleb128 0xb
 7796 013d 0B       		.uleb128 0xb
 7797 013e 3A       		.uleb128 0x3a
 7798 013f 0B       		.uleb128 0xb
 7799 0140 3B       		.uleb128 0x3b
 7800 0141 0B       		.uleb128 0xb
 7801 0142 01       		.uleb128 0x1
 7802 0143 13       		.uleb128 0x13
 7803 0144 00       		.byte	0
 7804 0145 00       		.byte	0
 7805 0146 1B       		.uleb128 0x1b
 7806 0147 0D       		.uleb128 0xd
 7807 0148 00       		.byte	0
 7808 0149 03       		.uleb128 0x3
 7809 014a 0E       		.uleb128 0xe
 7810 014b 3A       		.uleb128 0x3a
 7811 014c 0B       		.uleb128 0xb
 7812 014d 3B       		.uleb128 0x3b
 7813 014e 05       		.uleb128 0x5
 7814 014f 49       		.uleb128 0x49
 7815 0150 13       		.uleb128 0x13
 7816 0151 00       		.byte	0
 7817 0152 00       		.byte	0
 7818 0153 1C       		.uleb128 0x1c
 7819 0154 34       		.uleb128 0x34
 7820 0155 00       		.byte	0
 7821 0156 03       		.uleb128 0x3
 7822 0157 08       		.uleb128 0x8
 7823 0158 3A       		.uleb128 0x3a
 7824 0159 0B       		.uleb128 0xb
 7825 015a 3B       		.uleb128 0x3b
 7826 015b 05       		.uleb128 0x5
 7827 015c 49       		.uleb128 0x49
 7828 015d 13       		.uleb128 0x13
 7829 015e 3F       		.uleb128 0x3f
 7830 015f 19       		.uleb128 0x19
 7831 0160 3C       		.uleb128 0x3c
 7832 0161 19       		.uleb128 0x19
ARM GAS  C:\Users\mathi\AppData\Local\Temp\cceGBsvt.s 			page 139


 7833 0162 00       		.byte	0
 7834 0163 00       		.byte	0
 7835 0164 1D       		.uleb128 0x1d
 7836 0165 2E       		.uleb128 0x2e
 7837 0166 01       		.byte	0x1
 7838 0167 3F       		.uleb128 0x3f
 7839 0168 19       		.uleb128 0x19
 7840 0169 03       		.uleb128 0x3
 7841 016a 0E       		.uleb128 0xe
 7842 016b 3A       		.uleb128 0x3a
 7843 016c 0B       		.uleb128 0xb
 7844 016d 3B       		.uleb128 0x3b
 7845 016e 05       		.uleb128 0x5
 7846 016f 27       		.uleb128 0x27
 7847 0170 19       		.uleb128 0x19
 7848 0171 11       		.uleb128 0x11
 7849 0172 01       		.uleb128 0x1
 7850 0173 12       		.uleb128 0x12
 7851 0174 06       		.uleb128 0x6
 7852 0175 40       		.uleb128 0x40
 7853 0176 18       		.uleb128 0x18
 7854 0177 9742     		.uleb128 0x2117
 7855 0179 19       		.uleb128 0x19
 7856 017a 01       		.uleb128 0x1
 7857 017b 13       		.uleb128 0x13
 7858 017c 00       		.byte	0
 7859 017d 00       		.byte	0
 7860 017e 1E       		.uleb128 0x1e
 7861 017f 05       		.uleb128 0x5
 7862 0180 00       		.byte	0
 7863 0181 03       		.uleb128 0x3
 7864 0182 08       		.uleb128 0x8
 7865 0183 3A       		.uleb128 0x3a
 7866 0184 0B       		.uleb128 0xb
 7867 0185 3B       		.uleb128 0x3b
 7868 0186 05       		.uleb128 0x5
 7869 0187 49       		.uleb128 0x49
 7870 0188 13       		.uleb128 0x13
 7871 0189 02       		.uleb128 0x2
 7872 018a 17       		.uleb128 0x17
 7873 018b 00       		.byte	0
 7874 018c 00       		.byte	0
 7875 018d 1F       		.uleb128 0x1f
 7876 018e 1D       		.uleb128 0x1d
 7877 018f 01       		.byte	0x1
 7878 0190 31       		.uleb128 0x31
 7879 0191 13       		.uleb128 0x13
 7880 0192 52       		.uleb128 0x52
 7881 0193 01       		.uleb128 0x1
 7882 0194 55       		.uleb128 0x55
 7883 0195 17       		.uleb128 0x17
 7884 0196 58       		.uleb128 0x58
 7885 0197 0B       		.uleb128 0xb
 7886 0198 59       		.uleb128 0x59
 7887 0199 05       		.uleb128 0x5
 7888 019a 01       		.uleb128 0x1
 7889 019b 13       		.uleb128 0x13
ARM GAS  C:\Users\mathi\AppData\Local\Temp\cceGBsvt.s 			page 140


 7890 019c 00       		.byte	0
 7891 019d 00       		.byte	0
 7892 019e 20       		.uleb128 0x20
 7893 019f 05       		.uleb128 0x5
 7894 01a0 00       		.byte	0
 7895 01a1 31       		.uleb128 0x31
 7896 01a2 13       		.uleb128 0x13
 7897 01a3 02       		.uleb128 0x2
 7898 01a4 17       		.uleb128 0x17
 7899 01a5 00       		.byte	0
 7900 01a6 00       		.byte	0
 7901 01a7 21       		.uleb128 0x21
 7902 01a8 1D       		.uleb128 0x1d
 7903 01a9 01       		.byte	0x1
 7904 01aa 31       		.uleb128 0x31
 7905 01ab 13       		.uleb128 0x13
 7906 01ac 11       		.uleb128 0x11
 7907 01ad 01       		.uleb128 0x1
 7908 01ae 12       		.uleb128 0x12
 7909 01af 06       		.uleb128 0x6
 7910 01b0 58       		.uleb128 0x58
 7911 01b1 0B       		.uleb128 0xb
 7912 01b2 59       		.uleb128 0x59
 7913 01b3 05       		.uleb128 0x5
 7914 01b4 01       		.uleb128 0x1
 7915 01b5 13       		.uleb128 0x13
 7916 01b6 00       		.byte	0
 7917 01b7 00       		.byte	0
 7918 01b8 22       		.uleb128 0x22
 7919 01b9 05       		.uleb128 0x5
 7920 01ba 00       		.byte	0
 7921 01bb 31       		.uleb128 0x31
 7922 01bc 13       		.uleb128 0x13
 7923 01bd 00       		.byte	0
 7924 01be 00       		.byte	0
 7925 01bf 23       		.uleb128 0x23
 7926 01c0 0B       		.uleb128 0xb
 7927 01c1 01       		.byte	0x1
 7928 01c2 11       		.uleb128 0x11
 7929 01c3 01       		.uleb128 0x1
 7930 01c4 12       		.uleb128 0x12
 7931 01c5 06       		.uleb128 0x6
 7932 01c6 00       		.byte	0
 7933 01c7 00       		.byte	0
 7934 01c8 24       		.uleb128 0x24
 7935 01c9 34       		.uleb128 0x34
 7936 01ca 00       		.byte	0
 7937 01cb 31       		.uleb128 0x31
 7938 01cc 13       		.uleb128 0x13
 7939 01cd 00       		.byte	0
 7940 01ce 00       		.byte	0
 7941 01cf 25       		.uleb128 0x25
 7942 01d0 34       		.uleb128 0x34
 7943 01d1 00       		.byte	0
 7944 01d2 31       		.uleb128 0x31
 7945 01d3 13       		.uleb128 0x13
 7946 01d4 02       		.uleb128 0x2
ARM GAS  C:\Users\mathi\AppData\Local\Temp\cceGBsvt.s 			page 141


 7947 01d5 17       		.uleb128 0x17
 7948 01d6 00       		.byte	0
 7949 01d7 00       		.byte	0
 7950 01d8 26       		.uleb128 0x26
 7951 01d9 898201   		.uleb128 0x4109
 7952 01dc 01       		.byte	0x1
 7953 01dd 11       		.uleb128 0x11
 7954 01de 01       		.uleb128 0x1
 7955 01df 31       		.uleb128 0x31
 7956 01e0 13       		.uleb128 0x13
 7957 01e1 01       		.uleb128 0x1
 7958 01e2 13       		.uleb128 0x13
 7959 01e3 00       		.byte	0
 7960 01e4 00       		.byte	0
 7961 01e5 27       		.uleb128 0x27
 7962 01e6 8A8201   		.uleb128 0x410a
 7963 01e9 00       		.byte	0
 7964 01ea 02       		.uleb128 0x2
 7965 01eb 18       		.uleb128 0x18
 7966 01ec 9142     		.uleb128 0x2111
 7967 01ee 18       		.uleb128 0x18
 7968 01ef 00       		.byte	0
 7969 01f0 00       		.byte	0
 7970 01f1 28       		.uleb128 0x28
 7971 01f2 898201   		.uleb128 0x4109
 7972 01f5 01       		.byte	0x1
 7973 01f6 11       		.uleb128 0x11
 7974 01f7 01       		.uleb128 0x1
 7975 01f8 31       		.uleb128 0x31
 7976 01f9 13       		.uleb128 0x13
 7977 01fa 00       		.byte	0
 7978 01fb 00       		.byte	0
 7979 01fc 29       		.uleb128 0x29
 7980 01fd 898201   		.uleb128 0x4109
 7981 0200 00       		.byte	0
 7982 0201 11       		.uleb128 0x11
 7983 0202 01       		.uleb128 0x1
 7984 0203 31       		.uleb128 0x31
 7985 0204 13       		.uleb128 0x13
 7986 0205 00       		.byte	0
 7987 0206 00       		.byte	0
 7988 0207 2A       		.uleb128 0x2a
 7989 0208 0B       		.uleb128 0xb
 7990 0209 01       		.byte	0x1
 7991 020a 55       		.uleb128 0x55
 7992 020b 17       		.uleb128 0x17
 7993 020c 00       		.byte	0
 7994 020d 00       		.byte	0
 7995 020e 2B       		.uleb128 0x2b
 7996 020f 898201   		.uleb128 0x4109
 7997 0212 00       		.byte	0
 7998 0213 11       		.uleb128 0x11
 7999 0214 01       		.uleb128 0x1
 8000 0215 9542     		.uleb128 0x2115
 8001 0217 19       		.uleb128 0x19
 8002 0218 31       		.uleb128 0x31
 8003 0219 13       		.uleb128 0x13
ARM GAS  C:\Users\mathi\AppData\Local\Temp\cceGBsvt.s 			page 142


 8004 021a 00       		.byte	0
 8005 021b 00       		.byte	0
 8006 021c 2C       		.uleb128 0x2c
 8007 021d 2E       		.uleb128 0x2e
 8008 021e 01       		.byte	0x1
 8009 021f 3F       		.uleb128 0x3f
 8010 0220 19       		.uleb128 0x19
 8011 0221 03       		.uleb128 0x3
 8012 0222 0E       		.uleb128 0xe
 8013 0223 3A       		.uleb128 0x3a
 8014 0224 0B       		.uleb128 0xb
 8015 0225 3B       		.uleb128 0x3b
 8016 0226 05       		.uleb128 0x5
 8017 0227 27       		.uleb128 0x27
 8018 0228 19       		.uleb128 0x19
 8019 0229 49       		.uleb128 0x49
 8020 022a 13       		.uleb128 0x13
 8021 022b 11       		.uleb128 0x11
 8022 022c 01       		.uleb128 0x1
 8023 022d 12       		.uleb128 0x12
 8024 022e 06       		.uleb128 0x6
 8025 022f 40       		.uleb128 0x40
 8026 0230 18       		.uleb128 0x18
 8027 0231 9742     		.uleb128 0x2117
 8028 0233 19       		.uleb128 0x19
 8029 0234 01       		.uleb128 0x1
 8030 0235 13       		.uleb128 0x13
 8031 0236 00       		.byte	0
 8032 0237 00       		.byte	0
 8033 0238 2D       		.uleb128 0x2d
 8034 0239 05       		.uleb128 0x5
 8035 023a 00       		.byte	0
 8036 023b 03       		.uleb128 0x3
 8037 023c 0E       		.uleb128 0xe
 8038 023d 3A       		.uleb128 0x3a
 8039 023e 0B       		.uleb128 0xb
 8040 023f 3B       		.uleb128 0x3b
 8041 0240 05       		.uleb128 0x5
 8042 0241 49       		.uleb128 0x49
 8043 0242 13       		.uleb128 0x13
 8044 0243 02       		.uleb128 0x2
 8045 0244 17       		.uleb128 0x17
 8046 0245 00       		.byte	0
 8047 0246 00       		.byte	0
 8048 0247 2E       		.uleb128 0x2e
 8049 0248 898201   		.uleb128 0x4109
 8050 024b 01       		.byte	0x1
 8051 024c 11       		.uleb128 0x11
 8052 024d 01       		.uleb128 0x1
 8053 024e 9542     		.uleb128 0x2115
 8054 0250 19       		.uleb128 0x19
 8055 0251 31       		.uleb128 0x31
 8056 0252 13       		.uleb128 0x13
 8057 0253 01       		.uleb128 0x1
 8058 0254 13       		.uleb128 0x13
 8059 0255 00       		.byte	0
 8060 0256 00       		.byte	0
ARM GAS  C:\Users\mathi\AppData\Local\Temp\cceGBsvt.s 			page 143


 8061 0257 2F       		.uleb128 0x2f
 8062 0258 1D       		.uleb128 0x1d
 8063 0259 01       		.byte	0x1
 8064 025a 31       		.uleb128 0x31
 8065 025b 13       		.uleb128 0x13
 8066 025c 11       		.uleb128 0x11
 8067 025d 01       		.uleb128 0x1
 8068 025e 12       		.uleb128 0x12
 8069 025f 06       		.uleb128 0x6
 8070 0260 58       		.uleb128 0x58
 8071 0261 0B       		.uleb128 0xb
 8072 0262 59       		.uleb128 0x59
 8073 0263 05       		.uleb128 0x5
 8074 0264 00       		.byte	0
 8075 0265 00       		.byte	0
 8076 0266 30       		.uleb128 0x30
 8077 0267 0B       		.uleb128 0xb
 8078 0268 01       		.byte	0x1
 8079 0269 31       		.uleb128 0x31
 8080 026a 13       		.uleb128 0x13
 8081 026b 55       		.uleb128 0x55
 8082 026c 17       		.uleb128 0x17
 8083 026d 00       		.byte	0
 8084 026e 00       		.byte	0
 8085 026f 31       		.uleb128 0x31
 8086 0270 2E       		.uleb128 0x2e
 8087 0271 01       		.byte	0x1
 8088 0272 3F       		.uleb128 0x3f
 8089 0273 19       		.uleb128 0x19
 8090 0274 03       		.uleb128 0x3
 8091 0275 0E       		.uleb128 0xe
 8092 0276 3A       		.uleb128 0x3a
 8093 0277 0B       		.uleb128 0xb
 8094 0278 3B       		.uleb128 0x3b
 8095 0279 05       		.uleb128 0x5
 8096 027a 27       		.uleb128 0x27
 8097 027b 19       		.uleb128 0x19
 8098 027c 20       		.uleb128 0x20
 8099 027d 0B       		.uleb128 0xb
 8100 027e 01       		.uleb128 0x1
 8101 027f 13       		.uleb128 0x13
 8102 0280 00       		.byte	0
 8103 0281 00       		.byte	0
 8104 0282 32       		.uleb128 0x32
 8105 0283 05       		.uleb128 0x5
 8106 0284 00       		.byte	0
 8107 0285 03       		.uleb128 0x3
 8108 0286 08       		.uleb128 0x8
 8109 0287 3A       		.uleb128 0x3a
 8110 0288 0B       		.uleb128 0xb
 8111 0289 3B       		.uleb128 0x3b
 8112 028a 05       		.uleb128 0x5
 8113 028b 49       		.uleb128 0x49
 8114 028c 13       		.uleb128 0x13
 8115 028d 00       		.byte	0
 8116 028e 00       		.byte	0
 8117 028f 33       		.uleb128 0x33
ARM GAS  C:\Users\mathi\AppData\Local\Temp\cceGBsvt.s 			page 144


 8118 0290 34       		.uleb128 0x34
 8119 0291 00       		.byte	0
 8120 0292 03       		.uleb128 0x3
 8121 0293 0E       		.uleb128 0xe
 8122 0294 49       		.uleb128 0x49
 8123 0295 13       		.uleb128 0x13
 8124 0296 34       		.uleb128 0x34
 8125 0297 19       		.uleb128 0x19
 8126 0298 1C       		.uleb128 0x1c
 8127 0299 0E       		.uleb128 0xe
 8128 029a 00       		.byte	0
 8129 029b 00       		.byte	0
 8130 029c 34       		.uleb128 0x34
 8131 029d 0B       		.uleb128 0xb
 8132 029e 01       		.byte	0x1
 8133 029f 00       		.byte	0
 8134 02a0 00       		.byte	0
 8135 02a1 35       		.uleb128 0x35
 8136 02a2 34       		.uleb128 0x34
 8137 02a3 00       		.byte	0
 8138 02a4 03       		.uleb128 0x3
 8139 02a5 08       		.uleb128 0x8
 8140 02a6 3A       		.uleb128 0x3a
 8141 02a7 0B       		.uleb128 0xb
 8142 02a8 3B       		.uleb128 0x3b
 8143 02a9 05       		.uleb128 0x5
 8144 02aa 49       		.uleb128 0x49
 8145 02ab 13       		.uleb128 0x13
 8146 02ac 00       		.byte	0
 8147 02ad 00       		.byte	0
 8148 02ae 36       		.uleb128 0x36
 8149 02af 34       		.uleb128 0x34
 8150 02b0 00       		.byte	0
 8151 02b1 03       		.uleb128 0x3
 8152 02b2 0E       		.uleb128 0xe
 8153 02b3 49       		.uleb128 0x49
 8154 02b4 13       		.uleb128 0x13
 8155 02b5 34       		.uleb128 0x34
 8156 02b6 19       		.uleb128 0x19
 8157 02b7 02       		.uleb128 0x2
 8158 02b8 18       		.uleb128 0x18
 8159 02b9 00       		.byte	0
 8160 02ba 00       		.byte	0
 8161 02bb 37       		.uleb128 0x37
 8162 02bc 0B       		.uleb128 0xb
 8163 02bd 01       		.byte	0x1
 8164 02be 55       		.uleb128 0x55
 8165 02bf 17       		.uleb128 0x17
 8166 02c0 01       		.uleb128 0x1
 8167 02c1 13       		.uleb128 0x13
 8168 02c2 00       		.byte	0
 8169 02c3 00       		.byte	0
 8170 02c4 38       		.uleb128 0x38
 8171 02c5 34       		.uleb128 0x34
 8172 02c6 00       		.byte	0
 8173 02c7 03       		.uleb128 0x3
 8174 02c8 08       		.uleb128 0x8
ARM GAS  C:\Users\mathi\AppData\Local\Temp\cceGBsvt.s 			page 145


 8175 02c9 3A       		.uleb128 0x3a
 8176 02ca 0B       		.uleb128 0xb
 8177 02cb 3B       		.uleb128 0x3b
 8178 02cc 05       		.uleb128 0x5
 8179 02cd 49       		.uleb128 0x49
 8180 02ce 13       		.uleb128 0x13
 8181 02cf 02       		.uleb128 0x2
 8182 02d0 17       		.uleb128 0x17
 8183 02d1 00       		.byte	0
 8184 02d2 00       		.byte	0
 8185 02d3 39       		.uleb128 0x39
 8186 02d4 1D       		.uleb128 0x1d
 8187 02d5 00       		.byte	0
 8188 02d6 31       		.uleb128 0x31
 8189 02d7 13       		.uleb128 0x13
 8190 02d8 52       		.uleb128 0x52
 8191 02d9 01       		.uleb128 0x1
 8192 02da 55       		.uleb128 0x55
 8193 02db 17       		.uleb128 0x17
 8194 02dc 58       		.uleb128 0x58
 8195 02dd 0B       		.uleb128 0xb
 8196 02de 59       		.uleb128 0x59
 8197 02df 05       		.uleb128 0x5
 8198 02e0 00       		.byte	0
 8199 02e1 00       		.byte	0
 8200 02e2 3A       		.uleb128 0x3a
 8201 02e3 1D       		.uleb128 0x1d
 8202 02e4 01       		.byte	0x1
 8203 02e5 31       		.uleb128 0x31
 8204 02e6 13       		.uleb128 0x13
 8205 02e7 52       		.uleb128 0x52
 8206 02e8 01       		.uleb128 0x1
 8207 02e9 55       		.uleb128 0x55
 8208 02ea 17       		.uleb128 0x17
 8209 02eb 58       		.uleb128 0x58
 8210 02ec 0B       		.uleb128 0xb
 8211 02ed 59       		.uleb128 0x59
 8212 02ee 05       		.uleb128 0x5
 8213 02ef 00       		.byte	0
 8214 02f0 00       		.byte	0
 8215 02f1 3B       		.uleb128 0x3b
 8216 02f2 34       		.uleb128 0x34
 8217 02f3 00       		.byte	0
 8218 02f4 03       		.uleb128 0x3
 8219 02f5 0E       		.uleb128 0xe
 8220 02f6 3A       		.uleb128 0x3a
 8221 02f7 0B       		.uleb128 0xb
 8222 02f8 3B       		.uleb128 0x3b
 8223 02f9 05       		.uleb128 0x5
 8224 02fa 49       		.uleb128 0x49
 8225 02fb 13       		.uleb128 0x13
 8226 02fc 00       		.byte	0
 8227 02fd 00       		.byte	0
 8228 02fe 3C       		.uleb128 0x3c
 8229 02ff 34       		.uleb128 0x34
 8230 0300 00       		.byte	0
 8231 0301 03       		.uleb128 0x3
ARM GAS  C:\Users\mathi\AppData\Local\Temp\cceGBsvt.s 			page 146


 8232 0302 0E       		.uleb128 0xe
 8233 0303 3A       		.uleb128 0x3a
 8234 0304 0B       		.uleb128 0xb
 8235 0305 3B       		.uleb128 0x3b
 8236 0306 05       		.uleb128 0x5
 8237 0307 49       		.uleb128 0x49
 8238 0308 13       		.uleb128 0x13
 8239 0309 02       		.uleb128 0x2
 8240 030a 17       		.uleb128 0x17
 8241 030b 00       		.byte	0
 8242 030c 00       		.byte	0
 8243 030d 3D       		.uleb128 0x3d
 8244 030e 2E       		.uleb128 0x2e
 8245 030f 01       		.byte	0x1
 8246 0310 3F       		.uleb128 0x3f
 8247 0311 19       		.uleb128 0x19
 8248 0312 03       		.uleb128 0x3
 8249 0313 0E       		.uleb128 0xe
 8250 0314 3A       		.uleb128 0x3a
 8251 0315 0B       		.uleb128 0xb
 8252 0316 3B       		.uleb128 0x3b
 8253 0317 0B       		.uleb128 0xb
 8254 0318 27       		.uleb128 0x27
 8255 0319 19       		.uleb128 0x19
 8256 031a 49       		.uleb128 0x49
 8257 031b 13       		.uleb128 0x13
 8258 031c 11       		.uleb128 0x11
 8259 031d 01       		.uleb128 0x1
 8260 031e 12       		.uleb128 0x12
 8261 031f 06       		.uleb128 0x6
 8262 0320 40       		.uleb128 0x40
 8263 0321 18       		.uleb128 0x18
 8264 0322 9742     		.uleb128 0x2117
 8265 0324 19       		.uleb128 0x19
 8266 0325 01       		.uleb128 0x1
 8267 0326 13       		.uleb128 0x13
 8268 0327 00       		.byte	0
 8269 0328 00       		.byte	0
 8270 0329 3E       		.uleb128 0x3e
 8271 032a 05       		.uleb128 0x5
 8272 032b 00       		.byte	0
 8273 032c 03       		.uleb128 0x3
 8274 032d 08       		.uleb128 0x8
 8275 032e 3A       		.uleb128 0x3a
 8276 032f 0B       		.uleb128 0xb
 8277 0330 3B       		.uleb128 0x3b
 8278 0331 0B       		.uleb128 0xb
 8279 0332 49       		.uleb128 0x49
 8280 0333 13       		.uleb128 0x13
 8281 0334 02       		.uleb128 0x2
 8282 0335 17       		.uleb128 0x17
 8283 0336 00       		.byte	0
 8284 0337 00       		.byte	0
 8285 0338 3F       		.uleb128 0x3f
 8286 0339 1D       		.uleb128 0x1d
 8287 033a 01       		.byte	0x1
 8288 033b 31       		.uleb128 0x31
ARM GAS  C:\Users\mathi\AppData\Local\Temp\cceGBsvt.s 			page 147


 8289 033c 13       		.uleb128 0x13
 8290 033d 11       		.uleb128 0x11
 8291 033e 01       		.uleb128 0x1
 8292 033f 12       		.uleb128 0x12
 8293 0340 06       		.uleb128 0x6
 8294 0341 58       		.uleb128 0x58
 8295 0342 0B       		.uleb128 0xb
 8296 0343 59       		.uleb128 0x59
 8297 0344 0B       		.uleb128 0xb
 8298 0345 01       		.uleb128 0x1
 8299 0346 13       		.uleb128 0x13
 8300 0347 00       		.byte	0
 8301 0348 00       		.byte	0
 8302 0349 40       		.uleb128 0x40
 8303 034a 1D       		.uleb128 0x1d
 8304 034b 01       		.byte	0x1
 8305 034c 31       		.uleb128 0x31
 8306 034d 13       		.uleb128 0x13
 8307 034e 52       		.uleb128 0x52
 8308 034f 01       		.uleb128 0x1
 8309 0350 55       		.uleb128 0x55
 8310 0351 17       		.uleb128 0x17
 8311 0352 58       		.uleb128 0x58
 8312 0353 0B       		.uleb128 0xb
 8313 0354 59       		.uleb128 0x59
 8314 0355 0B       		.uleb128 0xb
 8315 0356 01       		.uleb128 0x1
 8316 0357 13       		.uleb128 0x13
 8317 0358 00       		.byte	0
 8318 0359 00       		.byte	0
 8319 035a 41       		.uleb128 0x41
 8320 035b 05       		.uleb128 0x5
 8321 035c 00       		.byte	0
 8322 035d 03       		.uleb128 0x3
 8323 035e 0E       		.uleb128 0xe
 8324 035f 3A       		.uleb128 0x3a
 8325 0360 0B       		.uleb128 0xb
 8326 0361 3B       		.uleb128 0x3b
 8327 0362 0B       		.uleb128 0xb
 8328 0363 49       		.uleb128 0x49
 8329 0364 13       		.uleb128 0x13
 8330 0365 02       		.uleb128 0x2
 8331 0366 17       		.uleb128 0x17
 8332 0367 00       		.byte	0
 8333 0368 00       		.byte	0
 8334 0369 42       		.uleb128 0x42
 8335 036a 34       		.uleb128 0x34
 8336 036b 00       		.byte	0
 8337 036c 03       		.uleb128 0x3
 8338 036d 08       		.uleb128 0x8
 8339 036e 3A       		.uleb128 0x3a
 8340 036f 0B       		.uleb128 0xb
 8341 0370 3B       		.uleb128 0x3b
 8342 0371 0B       		.uleb128 0xb
 8343 0372 49       		.uleb128 0x49
 8344 0373 13       		.uleb128 0x13
 8345 0374 00       		.byte	0
ARM GAS  C:\Users\mathi\AppData\Local\Temp\cceGBsvt.s 			page 148


 8346 0375 00       		.byte	0
 8347 0376 43       		.uleb128 0x43
 8348 0377 2E       		.uleb128 0x2e
 8349 0378 01       		.byte	0x1
 8350 0379 3F       		.uleb128 0x3f
 8351 037a 19       		.uleb128 0x19
 8352 037b 03       		.uleb128 0x3
 8353 037c 0E       		.uleb128 0xe
 8354 037d 3A       		.uleb128 0x3a
 8355 037e 0B       		.uleb128 0xb
 8356 037f 3B       		.uleb128 0x3b
 8357 0380 0B       		.uleb128 0xb
 8358 0381 27       		.uleb128 0x27
 8359 0382 19       		.uleb128 0x19
 8360 0383 49       		.uleb128 0x49
 8361 0384 13       		.uleb128 0x13
 8362 0385 20       		.uleb128 0x20
 8363 0386 0B       		.uleb128 0xb
 8364 0387 01       		.uleb128 0x1
 8365 0388 13       		.uleb128 0x13
 8366 0389 00       		.byte	0
 8367 038a 00       		.byte	0
 8368 038b 44       		.uleb128 0x44
 8369 038c 05       		.uleb128 0x5
 8370 038d 00       		.byte	0
 8371 038e 03       		.uleb128 0x3
 8372 038f 08       		.uleb128 0x8
 8373 0390 3A       		.uleb128 0x3a
 8374 0391 0B       		.uleb128 0xb
 8375 0392 3B       		.uleb128 0x3b
 8376 0393 0B       		.uleb128 0xb
 8377 0394 49       		.uleb128 0x49
 8378 0395 13       		.uleb128 0x13
 8379 0396 00       		.byte	0
 8380 0397 00       		.byte	0
 8381 0398 45       		.uleb128 0x45
 8382 0399 05       		.uleb128 0x5
 8383 039a 00       		.byte	0
 8384 039b 03       		.uleb128 0x3
 8385 039c 0E       		.uleb128 0xe
 8386 039d 3A       		.uleb128 0x3a
 8387 039e 0B       		.uleb128 0xb
 8388 039f 3B       		.uleb128 0x3b
 8389 03a0 0B       		.uleb128 0xb
 8390 03a1 49       		.uleb128 0x49
 8391 03a2 13       		.uleb128 0x13
 8392 03a3 00       		.byte	0
 8393 03a4 00       		.byte	0
 8394 03a5 46       		.uleb128 0x46
 8395 03a6 2E       		.uleb128 0x2e
 8396 03a7 01       		.byte	0x1
 8397 03a8 3F       		.uleb128 0x3f
 8398 03a9 19       		.uleb128 0x19
 8399 03aa 03       		.uleb128 0x3
 8400 03ab 0E       		.uleb128 0xe
 8401 03ac 3A       		.uleb128 0x3a
 8402 03ad 0B       		.uleb128 0xb
ARM GAS  C:\Users\mathi\AppData\Local\Temp\cceGBsvt.s 			page 149


 8403 03ae 3B       		.uleb128 0x3b
 8404 03af 0B       		.uleb128 0xb
 8405 03b0 27       		.uleb128 0x27
 8406 03b1 19       		.uleb128 0x19
 8407 03b2 20       		.uleb128 0x20
 8408 03b3 0B       		.uleb128 0xb
 8409 03b4 01       		.uleb128 0x1
 8410 03b5 13       		.uleb128 0x13
 8411 03b6 00       		.byte	0
 8412 03b7 00       		.byte	0
 8413 03b8 47       		.uleb128 0x47
 8414 03b9 2E       		.uleb128 0x2e
 8415 03ba 01       		.byte	0x1
 8416 03bb 03       		.uleb128 0x3
 8417 03bc 0E       		.uleb128 0xe
 8418 03bd 3A       		.uleb128 0x3a
 8419 03be 0B       		.uleb128 0xb
 8420 03bf 3B       		.uleb128 0x3b
 8421 03c0 05       		.uleb128 0x5
 8422 03c1 27       		.uleb128 0x27
 8423 03c2 19       		.uleb128 0x19
 8424 03c3 20       		.uleb128 0x20
 8425 03c4 0B       		.uleb128 0xb
 8426 03c5 01       		.uleb128 0x1
 8427 03c6 13       		.uleb128 0x13
 8428 03c7 00       		.byte	0
 8429 03c8 00       		.byte	0
 8430 03c9 48       		.uleb128 0x48
 8431 03ca 05       		.uleb128 0x5
 8432 03cb 00       		.byte	0
 8433 03cc 03       		.uleb128 0x3
 8434 03cd 0E       		.uleb128 0xe
 8435 03ce 3A       		.uleb128 0x3a
 8436 03cf 0B       		.uleb128 0xb
 8437 03d0 3B       		.uleb128 0x3b
 8438 03d1 05       		.uleb128 0x5
 8439 03d2 49       		.uleb128 0x49
 8440 03d3 13       		.uleb128 0x13
 8441 03d4 00       		.byte	0
 8442 03d5 00       		.byte	0
 8443 03d6 49       		.uleb128 0x49
 8444 03d7 2E       		.uleb128 0x2e
 8445 03d8 01       		.byte	0x1
 8446 03d9 03       		.uleb128 0x3
 8447 03da 0E       		.uleb128 0xe
 8448 03db 3A       		.uleb128 0x3a
 8449 03dc 0B       		.uleb128 0xb
 8450 03dd 3B       		.uleb128 0x3b
 8451 03de 0B       		.uleb128 0xb
 8452 03df 27       		.uleb128 0x27
 8453 03e0 19       		.uleb128 0x19
 8454 03e1 49       		.uleb128 0x49
 8455 03e2 13       		.uleb128 0x13
 8456 03e3 20       		.uleb128 0x20
 8457 03e4 0B       		.uleb128 0xb
 8458 03e5 01       		.uleb128 0x1
 8459 03e6 13       		.uleb128 0x13
ARM GAS  C:\Users\mathi\AppData\Local\Temp\cceGBsvt.s 			page 150


 8460 03e7 00       		.byte	0
 8461 03e8 00       		.byte	0
 8462 03e9 4A       		.uleb128 0x4a
 8463 03ea 2E       		.uleb128 0x2e
 8464 03eb 00       		.byte	0
 8465 03ec 03       		.uleb128 0x3
 8466 03ed 0E       		.uleb128 0xe
 8467 03ee 3A       		.uleb128 0x3a
 8468 03ef 0B       		.uleb128 0xb
 8469 03f0 3B       		.uleb128 0x3b
 8470 03f1 0B       		.uleb128 0xb
 8471 03f2 27       		.uleb128 0x27
 8472 03f3 19       		.uleb128 0x19
 8473 03f4 49       		.uleb128 0x49
 8474 03f5 13       		.uleb128 0x13
 8475 03f6 20       		.uleb128 0x20
 8476 03f7 0B       		.uleb128 0xb
 8477 03f8 00       		.byte	0
 8478 03f9 00       		.byte	0
 8479 03fa 4B       		.uleb128 0x4b
 8480 03fb 2E       		.uleb128 0x2e
 8481 03fc 01       		.byte	0x1
 8482 03fd 03       		.uleb128 0x3
 8483 03fe 0E       		.uleb128 0xe
 8484 03ff 3A       		.uleb128 0x3a
 8485 0400 0B       		.uleb128 0xb
 8486 0401 3B       		.uleb128 0x3b
 8487 0402 05       		.uleb128 0x5
 8488 0403 27       		.uleb128 0x27
 8489 0404 19       		.uleb128 0x19
 8490 0405 49       		.uleb128 0x49
 8491 0406 13       		.uleb128 0x13
 8492 0407 20       		.uleb128 0x20
 8493 0408 0B       		.uleb128 0xb
 8494 0409 01       		.uleb128 0x1
 8495 040a 13       		.uleb128 0x13
 8496 040b 00       		.byte	0
 8497 040c 00       		.byte	0
 8498 040d 4C       		.uleb128 0x4c
 8499 040e 2E       		.uleb128 0x2e
 8500 040f 00       		.byte	0
 8501 0410 03       		.uleb128 0x3
 8502 0411 0E       		.uleb128 0xe
 8503 0412 3A       		.uleb128 0x3a
 8504 0413 0B       		.uleb128 0xb
 8505 0414 3B       		.uleb128 0x3b
 8506 0415 05       		.uleb128 0x5
 8507 0416 27       		.uleb128 0x27
 8508 0417 19       		.uleb128 0x19
 8509 0418 20       		.uleb128 0x20
 8510 0419 0B       		.uleb128 0xb
 8511 041a 00       		.byte	0
 8512 041b 00       		.byte	0
 8513 041c 4D       		.uleb128 0x4d
 8514 041d 2E       		.uleb128 0x2e
 8515 041e 00       		.byte	0
 8516 041f 03       		.uleb128 0x3
ARM GAS  C:\Users\mathi\AppData\Local\Temp\cceGBsvt.s 			page 151


 8517 0420 0E       		.uleb128 0xe
 8518 0421 3A       		.uleb128 0x3a
 8519 0422 0B       		.uleb128 0xb
 8520 0423 3B       		.uleb128 0x3b
 8521 0424 05       		.uleb128 0x5
 8522 0425 27       		.uleb128 0x27
 8523 0426 19       		.uleb128 0x19
 8524 0427 49       		.uleb128 0x49
 8525 0428 13       		.uleb128 0x13
 8526 0429 20       		.uleb128 0x20
 8527 042a 0B       		.uleb128 0xb
 8528 042b 00       		.byte	0
 8529 042c 00       		.byte	0
 8530 042d 4E       		.uleb128 0x4e
 8531 042e 2E       		.uleb128 0x2e
 8532 042f 01       		.byte	0x1
 8533 0430 31       		.uleb128 0x31
 8534 0431 13       		.uleb128 0x13
 8535 0432 11       		.uleb128 0x11
 8536 0433 01       		.uleb128 0x1
 8537 0434 12       		.uleb128 0x12
 8538 0435 06       		.uleb128 0x6
 8539 0436 40       		.uleb128 0x40
 8540 0437 18       		.uleb128 0x18
 8541 0438 9742     		.uleb128 0x2117
 8542 043a 19       		.uleb128 0x19
 8543 043b 01       		.uleb128 0x1
 8544 043c 13       		.uleb128 0x13
 8545 043d 00       		.byte	0
 8546 043e 00       		.byte	0
 8547 043f 4F       		.uleb128 0x4f
 8548 0440 2E       		.uleb128 0x2e
 8549 0441 00       		.byte	0
 8550 0442 3F       		.uleb128 0x3f
 8551 0443 19       		.uleb128 0x19
 8552 0444 3C       		.uleb128 0x3c
 8553 0445 19       		.uleb128 0x19
 8554 0446 6E       		.uleb128 0x6e
 8555 0447 0E       		.uleb128 0xe
 8556 0448 03       		.uleb128 0x3
 8557 0449 0E       		.uleb128 0xe
 8558 044a 3A       		.uleb128 0x3a
 8559 044b 0B       		.uleb128 0xb
 8560 044c 3B       		.uleb128 0x3b
 8561 044d 05       		.uleb128 0x5
 8562 044e 00       		.byte	0
 8563 044f 00       		.byte	0
 8564 0450 50       		.uleb128 0x50
 8565 0451 2E       		.uleb128 0x2e
 8566 0452 00       		.byte	0
 8567 0453 3F       		.uleb128 0x3f
 8568 0454 19       		.uleb128 0x19
 8569 0455 3C       		.uleb128 0x3c
 8570 0456 19       		.uleb128 0x19
 8571 0457 6E       		.uleb128 0x6e
 8572 0458 0E       		.uleb128 0xe
 8573 0459 03       		.uleb128 0x3
ARM GAS  C:\Users\mathi\AppData\Local\Temp\cceGBsvt.s 			page 152


 8574 045a 0E       		.uleb128 0xe
 8575 045b 00       		.byte	0
 8576 045c 00       		.byte	0
 8577 045d 51       		.uleb128 0x51
 8578 045e 2E       		.uleb128 0x2e
 8579 045f 00       		.byte	0
 8580 0460 3F       		.uleb128 0x3f
 8581 0461 19       		.uleb128 0x19
 8582 0462 3C       		.uleb128 0x3c
 8583 0463 19       		.uleb128 0x19
 8584 0464 6E       		.uleb128 0x6e
 8585 0465 0E       		.uleb128 0xe
 8586 0466 03       		.uleb128 0x3
 8587 0467 0E       		.uleb128 0xe
 8588 0468 3A       		.uleb128 0x3a
 8589 0469 0B       		.uleb128 0xb
 8590 046a 3B       		.uleb128 0x3b
 8591 046b 0B       		.uleb128 0xb
 8592 046c 00       		.byte	0
 8593 046d 00       		.byte	0
 8594 046e 52       		.uleb128 0x52
 8595 046f 2E       		.uleb128 0x2e
 8596 0470 00       		.byte	0
 8597 0471 3F       		.uleb128 0x3f
 8598 0472 19       		.uleb128 0x19
 8599 0473 3C       		.uleb128 0x3c
 8600 0474 19       		.uleb128 0x19
 8601 0475 6E       		.uleb128 0x6e
 8602 0476 0E       		.uleb128 0xe
 8603 0477 03       		.uleb128 0x3
 8604 0478 0E       		.uleb128 0xe
 8605 0479 3A       		.uleb128 0x3a
 8606 047a 0B       		.uleb128 0xb
 8607 047b 3B       		.uleb128 0x3b
 8608 047c 0B       		.uleb128 0xb
 8609 047d 6E       		.uleb128 0x6e
 8610 047e 0E       		.uleb128 0xe
 8611 047f 00       		.byte	0
 8612 0480 00       		.byte	0
 8613 0481 00       		.byte	0
 8614              		.section	.debug_loc,"",%progbits
 8615              	.Ldebug_loc0:
 8616              	.LLST97:
 8617 0000 00000000 		.4byte	.LVL278
 8618 0004 1C000000 		.4byte	.LVL279
 8619 0008 0100     		.2byte	0x1
 8620 000a 50       		.byte	0x50
 8621 000b 1C000000 		.4byte	.LVL279
 8622 000f 3E000000 		.4byte	.LVL285
 8623 0013 0100     		.2byte	0x1
 8624 0015 55       		.byte	0x55
 8625 0016 3E000000 		.4byte	.LVL285
 8626 001a 5C000000 		.4byte	.LFE240
 8627 001e 0400     		.2byte	0x4
 8628 0020 F3       		.byte	0xf3
 8629 0021 01       		.uleb128 0x1
 8630 0022 50       		.byte	0x50
ARM GAS  C:\Users\mathi\AppData\Local\Temp\cceGBsvt.s 			page 153


 8631 0023 9F       		.byte	0x9f
 8632 0024 00000000 		.4byte	0
 8633 0028 00000000 		.4byte	0
 8634              	.LLST98:
 8635 002c 00000000 		.4byte	.LVL278
 8636 0030 1C000000 		.4byte	.LVL279
 8637 0034 0100     		.2byte	0x1
 8638 0036 51       		.byte	0x51
 8639 0037 1C000000 		.4byte	.LVL279
 8640 003b 3E000000 		.4byte	.LVL285
 8641 003f 0100     		.2byte	0x1
 8642 0041 56       		.byte	0x56
 8643 0042 3E000000 		.4byte	.LVL285
 8644 0046 5C000000 		.4byte	.LFE240
 8645 004a 0400     		.2byte	0x4
 8646 004c F3       		.byte	0xf3
 8647 004d 01       		.uleb128 0x1
 8648 004e 51       		.byte	0x51
 8649 004f 9F       		.byte	0x9f
 8650 0050 00000000 		.4byte	0
 8651 0054 00000000 		.4byte	0
 8652              	.LLST99:
 8653 0058 38000000 		.4byte	.LVL283
 8654 005c 3A000000 		.4byte	.LVL284
 8655 0060 0100     		.2byte	0x1
 8656 0062 55       		.byte	0x55
 8657 0063 00000000 		.4byte	0
 8658 0067 00000000 		.4byte	0
 8659              	.LLST100:
 8660 006b 1C000000 		.4byte	.LVL279
 8661 006f 3E000000 		.4byte	.LVL285
 8662 0073 0100     		.2byte	0x1
 8663 0075 55       		.byte	0x55
 8664 0076 00000000 		.4byte	0
 8665 007a 00000000 		.4byte	0
 8666              	.LLST101:
 8667 007e 1C000000 		.4byte	.LVL279
 8668 0082 22000000 		.4byte	.LVL281
 8669 0086 0100     		.2byte	0x1
 8670 0088 55       		.byte	0x55
 8671 0089 00000000 		.4byte	0
 8672 008d 00000000 		.4byte	0
 8673              	.LLST102:
 8674 0091 1C000000 		.4byte	.LVL279
 8675 0095 20000000 		.4byte	.LVL280
 8676 0099 0200     		.2byte	0x2
 8677 009b 75       		.byte	0x75
 8678 009c 00       		.sleb128 0
 8679 009d 00000000 		.4byte	0
 8680 00a1 00000000 		.4byte	0
 8681              	.LLST93:
 8682 00a5 00000000 		.4byte	.LVL270
 8683 00a9 22000000 		.4byte	.LVL272
 8684 00ad 0100     		.2byte	0x1
 8685 00af 50       		.byte	0x50
 8686 00b0 22000000 		.4byte	.LVL272
 8687 00b4 3C000000 		.4byte	.LVL275
ARM GAS  C:\Users\mathi\AppData\Local\Temp\cceGBsvt.s 			page 154


 8688 00b8 0400     		.2byte	0x4
 8689 00ba F3       		.byte	0xf3
 8690 00bb 01       		.uleb128 0x1
 8691 00bc 50       		.byte	0x50
 8692 00bd 9F       		.byte	0x9f
 8693 00be 3C000000 		.4byte	.LVL275
 8694 00c2 48000000 		.4byte	.LVL276
 8695 00c6 0100     		.2byte	0x1
 8696 00c8 50       		.byte	0x50
 8697 00c9 48000000 		.4byte	.LVL276
 8698 00cd 54000000 		.4byte	.LFE239
 8699 00d1 0400     		.2byte	0x4
 8700 00d3 F3       		.byte	0xf3
 8701 00d4 01       		.uleb128 0x1
 8702 00d5 50       		.byte	0x50
 8703 00d6 9F       		.byte	0x9f
 8704 00d7 00000000 		.4byte	0
 8705 00db 00000000 		.4byte	0
 8706              	.LLST94:
 8707 00df 00000000 		.4byte	.LVL270
 8708 00e3 25000000 		.4byte	.LVL273-1
 8709 00e7 0100     		.2byte	0x1
 8710 00e9 51       		.byte	0x51
 8711 00ea 25000000 		.4byte	.LVL273-1
 8712 00ee 38000000 		.4byte	.LVL274
 8713 00f2 0100     		.2byte	0x1
 8714 00f4 56       		.byte	0x56
 8715 00f5 38000000 		.4byte	.LVL274
 8716 00f9 3B000000 		.4byte	.LVL275-1
 8717 00fd 0200     		.2byte	0x2
 8718 00ff 70       		.byte	0x70
 8719 0100 28       		.sleb128 40
 8720 0101 3B000000 		.4byte	.LVL275-1
 8721 0105 3C000000 		.4byte	.LVL275
 8722 0109 0400     		.2byte	0x4
 8723 010b F3       		.byte	0xf3
 8724 010c 01       		.uleb128 0x1
 8725 010d 51       		.byte	0x51
 8726 010e 9F       		.byte	0x9f
 8727 010f 3C000000 		.4byte	.LVL275
 8728 0113 48000000 		.4byte	.LVL276
 8729 0117 0100     		.2byte	0x1
 8730 0119 51       		.byte	0x51
 8731 011a 48000000 		.4byte	.LVL276
 8732 011e 54000000 		.4byte	.LFE239
 8733 0122 0400     		.2byte	0x4
 8734 0124 F3       		.byte	0xf3
 8735 0125 01       		.uleb128 0x1
 8736 0126 51       		.byte	0x51
 8737 0127 9F       		.byte	0x9f
 8738 0128 00000000 		.4byte	0
 8739 012c 00000000 		.4byte	0
 8740              	.LLST95:
 8741 0130 1E000000 		.4byte	.LVL271
 8742 0134 25000000 		.4byte	.LVL273-1
 8743 0138 0100     		.2byte	0x1
 8744 013a 51       		.byte	0x51
ARM GAS  C:\Users\mathi\AppData\Local\Temp\cceGBsvt.s 			page 155


 8745 013b 25000000 		.4byte	.LVL273-1
 8746 013f 38000000 		.4byte	.LVL274
 8747 0143 0100     		.2byte	0x1
 8748 0145 56       		.byte	0x56
 8749 0146 38000000 		.4byte	.LVL274
 8750 014a 3B000000 		.4byte	.LVL275-1
 8751 014e 0200     		.2byte	0x2
 8752 0150 70       		.byte	0x70
 8753 0151 28       		.sleb128 40
 8754 0152 3B000000 		.4byte	.LVL275-1
 8755 0156 3C000000 		.4byte	.LVL275
 8756 015a 0400     		.2byte	0x4
 8757 015c F3       		.byte	0xf3
 8758 015d 01       		.uleb128 0x1
 8759 015e 51       		.byte	0x51
 8760 015f 9F       		.byte	0x9f
 8761 0160 00000000 		.4byte	0
 8762 0164 00000000 		.4byte	0
 8763              	.LLST96:
 8764 0168 1E000000 		.4byte	.LVL271
 8765 016c 22000000 		.4byte	.LVL272
 8766 0170 0100     		.2byte	0x1
 8767 0172 50       		.byte	0x50
 8768 0173 22000000 		.4byte	.LVL272
 8769 0177 3C000000 		.4byte	.LVL275
 8770 017b 0400     		.2byte	0x4
 8771 017d F3       		.byte	0xf3
 8772 017e 01       		.uleb128 0x1
 8773 017f 50       		.byte	0x50
 8774 0180 9F       		.byte	0x9f
 8775 0181 00000000 		.4byte	0
 8776 0185 00000000 		.4byte	0
 8777              	.LLST89:
 8778 0189 00000000 		.4byte	.LVL262
 8779 018d 24000000 		.4byte	.LVL265
 8780 0191 0100     		.2byte	0x1
 8781 0193 50       		.byte	0x50
 8782 0194 24000000 		.4byte	.LVL265
 8783 0198 2E000000 		.4byte	.LVL266
 8784 019c 0400     		.2byte	0x4
 8785 019e F3       		.byte	0xf3
 8786 019f 01       		.uleb128 0x1
 8787 01a0 50       		.byte	0x50
 8788 01a1 9F       		.byte	0x9f
 8789 01a2 2E000000 		.4byte	.LVL266
 8790 01a6 38000000 		.4byte	.LVL268
 8791 01aa 0100     		.2byte	0x1
 8792 01ac 50       		.byte	0x50
 8793 01ad 38000000 		.4byte	.LVL268
 8794 01b1 4C000000 		.4byte	.LFE238
 8795 01b5 0400     		.2byte	0x4
 8796 01b7 F3       		.byte	0xf3
 8797 01b8 01       		.uleb128 0x1
 8798 01b9 50       		.byte	0x50
 8799 01ba 9F       		.byte	0x9f
 8800 01bb 00000000 		.4byte	0
 8801 01bf 00000000 		.4byte	0
ARM GAS  C:\Users\mathi\AppData\Local\Temp\cceGBsvt.s 			page 156


 8802              	.LLST90:
 8803 01c3 00000000 		.4byte	.LVL262
 8804 01c7 2D000000 		.4byte	.LVL266-1
 8805 01cb 0100     		.2byte	0x1
 8806 01cd 51       		.byte	0x51
 8807 01ce 2D000000 		.4byte	.LVL266-1
 8808 01d2 2E000000 		.4byte	.LVL266
 8809 01d6 0400     		.2byte	0x4
 8810 01d8 F3       		.byte	0xf3
 8811 01d9 01       		.uleb128 0x1
 8812 01da 51       		.byte	0x51
 8813 01db 9F       		.byte	0x9f
 8814 01dc 2E000000 		.4byte	.LVL266
 8815 01e0 30000000 		.4byte	.LVL267
 8816 01e4 0100     		.2byte	0x1
 8817 01e6 51       		.byte	0x51
 8818 01e7 30000000 		.4byte	.LVL267
 8819 01eb 4C000000 		.4byte	.LFE238
 8820 01ef 0400     		.2byte	0x4
 8821 01f1 F3       		.byte	0xf3
 8822 01f2 01       		.uleb128 0x1
 8823 01f3 51       		.byte	0x51
 8824 01f4 9F       		.byte	0x9f
 8825 01f5 00000000 		.4byte	0
 8826 01f9 00000000 		.4byte	0
 8827              	.LLST91:
 8828 01fd 12000000 		.4byte	.LVL263
 8829 0201 1E000000 		.4byte	.LVL264
 8830 0205 0100     		.2byte	0x1
 8831 0207 50       		.byte	0x50
 8832 0208 00000000 		.4byte	0
 8833 020c 00000000 		.4byte	0
 8834              	.LLST92:
 8835 0210 12000000 		.4byte	.LVL263
 8836 0214 1E000000 		.4byte	.LVL264
 8837 0218 0100     		.2byte	0x1
 8838 021a 53       		.byte	0x53
 8839 021b 00000000 		.4byte	0
 8840 021f 00000000 		.4byte	0
 8841              	.LLST83:
 8842 0223 00000000 		.4byte	.LVL246
 8843 0227 17000000 		.4byte	.LVL249-1
 8844 022b 0100     		.2byte	0x1
 8845 022d 50       		.byte	0x50
 8846 022e 17000000 		.4byte	.LVL249-1
 8847 0232 84000000 		.4byte	.LFE237
 8848 0236 0100     		.2byte	0x1
 8849 0238 56       		.byte	0x56
 8850 0239 00000000 		.4byte	0
 8851 023d 00000000 		.4byte	0
 8852              	.LLST84:
 8853 0241 00000000 		.4byte	.LVL246
 8854 0245 17000000 		.4byte	.LVL249-1
 8855 0249 0100     		.2byte	0x1
 8856 024b 51       		.byte	0x51
 8857 024c 17000000 		.4byte	.LVL249-1
 8858 0250 84000000 		.4byte	.LFE237
ARM GAS  C:\Users\mathi\AppData\Local\Temp\cceGBsvt.s 			page 157


 8859 0254 0100     		.2byte	0x1
 8860 0256 57       		.byte	0x57
 8861 0257 00000000 		.4byte	0
 8862 025b 00000000 		.4byte	0
 8863              	.LLST85:
 8864 025f 0A000000 		.4byte	.LVL247
 8865 0263 14000000 		.4byte	.LVL248
 8866 0267 0300     		.2byte	0x3
 8867 0269 08       		.byte	0x8
 8868 026a 20       		.byte	0x20
 8869 026b 9F       		.byte	0x9f
 8870 026c 00000000 		.4byte	0
 8871 0270 00000000 		.4byte	0
 8872              	.LLST86:
 8873 0274 1C000000 		.4byte	.LVL250
 8874 0278 34000000 		.4byte	.LVL252
 8875 027c 0100     		.2byte	0x1
 8876 027e 57       		.byte	0x57
 8877 027f 60000000 		.4byte	.LVL257
 8878 0283 68000000 		.4byte	.LVL259
 8879 0287 0100     		.2byte	0x1
 8880 0289 57       		.byte	0x57
 8881 028a 00000000 		.4byte	0
 8882 028e 00000000 		.4byte	0
 8883              	.LLST87:
 8884 0292 1C000000 		.4byte	.LVL250
 8885 0296 34000000 		.4byte	.LVL252
 8886 029a 0100     		.2byte	0x1
 8887 029c 56       		.byte	0x56
 8888 029d 60000000 		.4byte	.LVL257
 8889 02a1 68000000 		.4byte	.LVL259
 8890 02a5 0100     		.2byte	0x1
 8891 02a7 56       		.byte	0x56
 8892 02a8 00000000 		.4byte	0
 8893 02ac 00000000 		.4byte	0
 8894              	.LLST88:
 8895 02b0 4E000000 		.4byte	.LVL255
 8896 02b4 54000000 		.4byte	.LVL256
 8897 02b8 0200     		.2byte	0x2
 8898 02ba 30       		.byte	0x30
 8899 02bb 9F       		.byte	0x9f
 8900 02bc 00000000 		.4byte	0
 8901 02c0 00000000 		.4byte	0
 8902              	.LLST77:
 8903 02c4 00000000 		.4byte	.LVL226
 8904 02c8 1A000000 		.4byte	.LVL228
 8905 02cc 0100     		.2byte	0x1
 8906 02ce 50       		.byte	0x50
 8907 02cf 1A000000 		.4byte	.LVL228
 8908 02d3 30000000 		.4byte	.LVL229
 8909 02d7 0100     		.2byte	0x1
 8910 02d9 56       		.byte	0x56
 8911 02da 30000000 		.4byte	.LVL229
 8912 02de 34000000 		.4byte	.LVL230
 8913 02e2 0400     		.2byte	0x4
 8914 02e4 F3       		.byte	0xf3
 8915 02e5 01       		.uleb128 0x1
ARM GAS  C:\Users\mathi\AppData\Local\Temp\cceGBsvt.s 			page 158


 8916 02e6 50       		.byte	0x50
 8917 02e7 9F       		.byte	0x9f
 8918 02e8 34000000 		.4byte	.LVL230
 8919 02ec 36000000 		.4byte	.LVL231
 8920 02f0 0100     		.2byte	0x1
 8921 02f2 50       		.byte	0x50
 8922 02f3 36000000 		.4byte	.LVL231
 8923 02f7 3C000000 		.4byte	.LVL233
 8924 02fb 0100     		.2byte	0x1
 8925 02fd 56       		.byte	0x56
 8926 02fe 3C000000 		.4byte	.LVL233
 8927 0302 48000000 		.4byte	.LVL234
 8928 0306 0100     		.2byte	0x1
 8929 0308 50       		.byte	0x50
 8930 0309 48000000 		.4byte	.LVL234
 8931 030d 54000000 		.4byte	.LFE235
 8932 0311 0400     		.2byte	0x4
 8933 0313 F3       		.byte	0xf3
 8934 0314 01       		.uleb128 0x1
 8935 0315 50       		.byte	0x50
 8936 0316 9F       		.byte	0x9f
 8937 0317 00000000 		.4byte	0
 8938 031b 00000000 		.4byte	0
 8939              	.LLST78:
 8940 031f 00000000 		.4byte	.LVL226
 8941 0323 1A000000 		.4byte	.LVL228
 8942 0327 0100     		.2byte	0x1
 8943 0329 51       		.byte	0x51
 8944 032a 1A000000 		.4byte	.LVL228
 8945 032e 30000000 		.4byte	.LVL229
 8946 0332 0100     		.2byte	0x1
 8947 0334 57       		.byte	0x57
 8948 0335 30000000 		.4byte	.LVL229
 8949 0339 33000000 		.4byte	.LVL230-1
 8950 033d 0200     		.2byte	0x2
 8951 033f 70       		.byte	0x70
 8952 0340 28       		.sleb128 40
 8953 0341 33000000 		.4byte	.LVL230-1
 8954 0345 34000000 		.4byte	.LVL230
 8955 0349 0400     		.2byte	0x4
 8956 034b F3       		.byte	0xf3
 8957 034c 01       		.uleb128 0x1
 8958 034d 51       		.byte	0x51
 8959 034e 9F       		.byte	0x9f
 8960 034f 34000000 		.4byte	.LVL230
 8961 0353 39000000 		.4byte	.LVL232-1
 8962 0357 0100     		.2byte	0x1
 8963 0359 51       		.byte	0x51
 8964 035a 39000000 		.4byte	.LVL232-1
 8965 035e 3C000000 		.4byte	.LVL233
 8966 0362 0100     		.2byte	0x1
 8967 0364 57       		.byte	0x57
 8968 0365 3C000000 		.4byte	.LVL233
 8969 0369 48000000 		.4byte	.LVL234
 8970 036d 0100     		.2byte	0x1
 8971 036f 51       		.byte	0x51
 8972 0370 48000000 		.4byte	.LVL234
ARM GAS  C:\Users\mathi\AppData\Local\Temp\cceGBsvt.s 			page 159


 8973 0374 54000000 		.4byte	.LFE235
 8974 0378 0400     		.2byte	0x4
 8975 037a F3       		.byte	0xf3
 8976 037b 01       		.uleb128 0x1
 8977 037c 51       		.byte	0x51
 8978 037d 9F       		.byte	0x9f
 8979 037e 00000000 		.4byte	0
 8980 0382 00000000 		.4byte	0
 8981              	.LLST79:
 8982 0386 18000000 		.4byte	.LVL227
 8983 038a 30000000 		.4byte	.LVL229
 8984 038e 0100     		.2byte	0x1
 8985 0390 54       		.byte	0x54
 8986 0391 30000000 		.4byte	.LVL229
 8987 0395 33000000 		.4byte	.LVL230-1
 8988 0399 0100     		.2byte	0x1
 8989 039b 50       		.byte	0x50
 8990 039c 34000000 		.4byte	.LVL230
 8991 03a0 3C000000 		.4byte	.LVL233
 8992 03a4 0100     		.2byte	0x1
 8993 03a6 54       		.byte	0x54
 8994 03a7 00000000 		.4byte	0
 8995 03ab 00000000 		.4byte	0
 8996              	.LLST75:
 8997 03af 00000000 		.4byte	.LVL219
 8998 03b3 0E000000 		.4byte	.LVL220
 8999 03b7 0100     		.2byte	0x1
 9000 03b9 50       		.byte	0x50
 9001 03ba 0E000000 		.4byte	.LVL220
 9002 03be 34000000 		.4byte	.LVL222
 9003 03c2 0100     		.2byte	0x1
 9004 03c4 54       		.byte	0x54
 9005 03c5 34000000 		.4byte	.LVL222
 9006 03c9 38000000 		.4byte	.LVL223
 9007 03cd 0400     		.2byte	0x4
 9008 03cf F3       		.byte	0xf3
 9009 03d0 01       		.uleb128 0x1
 9010 03d1 50       		.byte	0x50
 9011 03d2 9F       		.byte	0x9f
 9012 03d3 38000000 		.4byte	.LVL223
 9013 03d7 58000000 		.4byte	.LFE234
 9014 03db 0100     		.2byte	0x1
 9015 03dd 54       		.byte	0x54
 9016 03de 00000000 		.4byte	0
 9017 03e2 00000000 		.4byte	0
 9018              	.LLST76:
 9019 03e6 00000000 		.4byte	.LVL219
 9020 03ea 1B000000 		.4byte	.LVL221-1
 9021 03ee 0100     		.2byte	0x1
 9022 03f0 51       		.byte	0x51
 9023 03f1 1B000000 		.4byte	.LVL221-1
 9024 03f5 34000000 		.4byte	.LVL222
 9025 03f9 0100     		.2byte	0x1
 9026 03fb 56       		.byte	0x56
 9027 03fc 34000000 		.4byte	.LVL222
 9028 0400 37000000 		.4byte	.LVL223-1
 9029 0404 0100     		.2byte	0x1
ARM GAS  C:\Users\mathi\AppData\Local\Temp\cceGBsvt.s 			page 160


 9030 0406 51       		.byte	0x51
 9031 0407 37000000 		.4byte	.LVL223-1
 9032 040b 38000000 		.4byte	.LVL223
 9033 040f 0400     		.2byte	0x4
 9034 0411 F3       		.byte	0xf3
 9035 0412 01       		.uleb128 0x1
 9036 0413 51       		.byte	0x51
 9037 0414 9F       		.byte	0x9f
 9038 0415 38000000 		.4byte	.LVL223
 9039 0419 58000000 		.4byte	.LFE234
 9040 041d 0100     		.2byte	0x1
 9041 041f 56       		.byte	0x56
 9042 0420 00000000 		.4byte	0
 9043 0424 00000000 		.4byte	0
 9044              	.LLST74:
 9045 0428 00000000 		.4byte	.LVL213
 9046 042c 16000000 		.4byte	.LVL214
 9047 0430 0100     		.2byte	0x1
 9048 0432 50       		.byte	0x50
 9049 0433 16000000 		.4byte	.LVL214
 9050 0437 44000000 		.4byte	.LFE233
 9051 043b 0100     		.2byte	0x1
 9052 043d 54       		.byte	0x54
 9053 043e 00000000 		.4byte	0
 9054 0442 00000000 		.4byte	0
 9055              	.LLST68:
 9056 0446 00000000 		.4byte	.LVL188
 9057 044a 10000000 		.4byte	.LVL189
 9058 044e 0100     		.2byte	0x1
 9059 0450 50       		.byte	0x50
 9060 0451 10000000 		.4byte	.LVL189
 9061 0455 8E000000 		.4byte	.LVL208
 9062 0459 0100     		.2byte	0x1
 9063 045b 54       		.byte	0x54
 9064 045c 8E000000 		.4byte	.LVL208
 9065 0460 90000000 		.4byte	.LVL209
 9066 0464 0100     		.2byte	0x1
 9067 0466 50       		.byte	0x50
 9068 0467 90000000 		.4byte	.LVL209
 9069 046b AC000000 		.4byte	.LFE232
 9070 046f 0100     		.2byte	0x1
 9071 0471 54       		.byte	0x54
 9072 0472 00000000 		.4byte	0
 9073 0476 00000000 		.4byte	0
 9074              	.LLST69:
 9075 047a 44000000 		.4byte	.LVL196
 9076 047e 72000000 		.4byte	.LVL202
 9077 0482 0100     		.2byte	0x1
 9078 0484 57       		.byte	0x57
 9079 0485 72000000 		.4byte	.LVL202
 9080 0489 76000000 		.4byte	.LVL203
 9081 048d 0100     		.2byte	0x1
 9082 048f 50       		.byte	0x50
 9083 0490 76000000 		.4byte	.LVL203
 9084 0494 7E000000 		.4byte	.LVL205
 9085 0498 0100     		.2byte	0x1
 9086 049a 57       		.byte	0x57
ARM GAS  C:\Users\mathi\AppData\Local\Temp\cceGBsvt.s 			page 161


 9087 049b 96000000 		.4byte	.LVL211
 9088 049f 99000000 		.4byte	.LVL212-1
 9089 04a3 0100     		.2byte	0x1
 9090 04a5 50       		.byte	0x50
 9091 04a6 99000000 		.4byte	.LVL212-1
 9092 04aa AC000000 		.4byte	.LFE232
 9093 04ae 0100     		.2byte	0x1
 9094 04b0 57       		.byte	0x57
 9095 04b1 00000000 		.4byte	0
 9096 04b5 00000000 		.4byte	0
 9097              	.LLST70:
 9098 04b9 10000000 		.4byte	.LVL189
 9099 04bd 16000000 		.4byte	.LVL190
 9100 04c1 0300     		.2byte	0x3
 9101 04c3 08       		.byte	0x8
 9102 04c4 20       		.byte	0x20
 9103 04c5 9F       		.byte	0x9f
 9104 04c6 00000000 		.4byte	0
 9105 04ca 00000000 		.4byte	0
 9106              	.LLST71:
 9107 04ce 36000000 		.4byte	.LVL193
 9108 04d2 3E000000 		.4byte	.LVL194
 9109 04d6 0300     		.2byte	0x3
 9110 04d8 74       		.byte	0x74
 9111 04d9 2C       		.sleb128 44
 9112 04da 9F       		.byte	0x9f
 9113 04db 00000000 		.4byte	0
 9114 04df 00000000 		.4byte	0
 9115              	.LLST72:
 9116 04e3 36000000 		.4byte	.LVL193
 9117 04e7 3E000000 		.4byte	.LVL194
 9118 04eb 0100     		.2byte	0x1
 9119 04ed 53       		.byte	0x53
 9120 04ee 00000000 		.4byte	0
 9121 04f2 00000000 		.4byte	0
 9122              	.LLST73:
 9123 04f6 5C000000 		.4byte	.LVL199
 9124 04fa 62000000 		.4byte	.LVL200
 9125 04fe 0200     		.2byte	0x2
 9126 0500 30       		.byte	0x30
 9127 0501 9F       		.byte	0x9f
 9128 0502 00000000 		.4byte	0
 9129 0506 00000000 		.4byte	0
 9130              	.LLST56:
 9131 050a 00000000 		.4byte	.LVL163
 9132 050e 15000000 		.4byte	.LVL166-1
 9133 0512 0100     		.2byte	0x1
 9134 0514 50       		.byte	0x50
 9135 0515 15000000 		.4byte	.LVL166-1
 9136 0519 26000000 		.4byte	.LVL169
 9137 051d 0100     		.2byte	0x1
 9138 051f 55       		.byte	0x55
 9139 0520 26000000 		.4byte	.LVL169
 9140 0524 2A000000 		.4byte	.LVL170
 9141 0528 0200     		.2byte	0x2
 9142 052a 74       		.byte	0x74
 9143 052b 28       		.sleb128 40
ARM GAS  C:\Users\mathi\AppData\Local\Temp\cceGBsvt.s 			page 162


 9144 052c 2A000000 		.4byte	.LVL170
 9145 0530 78000000 		.4byte	.LFE230
 9146 0534 0400     		.2byte	0x4
 9147 0536 F3       		.byte	0xf3
 9148 0537 01       		.uleb128 0x1
 9149 0538 50       		.byte	0x50
 9150 0539 9F       		.byte	0x9f
 9151 053a 00000000 		.4byte	0
 9152 053e 00000000 		.4byte	0
 9153              	.LLST57:
 9154 0542 0A000000 		.4byte	.LVL164
 9155 0546 12000000 		.4byte	.LVL165
 9156 054a 0300     		.2byte	0x3
 9157 054c 08       		.byte	0x8
 9158 054d 20       		.byte	0x20
 9159 054e 9F       		.byte	0x9f
 9160 054f 00000000 		.4byte	0
 9161 0553 00000000 		.4byte	0
 9162              	.LLST58:
 9163 0557 1A000000 		.4byte	.LVL167
 9164 055b 26000000 		.4byte	.LVL169
 9165 055f 0100     		.2byte	0x1
 9166 0561 55       		.byte	0x55
 9167 0562 26000000 		.4byte	.LVL169
 9168 0566 2A000000 		.4byte	.LVL170
 9169 056a 0200     		.2byte	0x2
 9170 056c 74       		.byte	0x74
 9171 056d 28       		.sleb128 40
 9172 056e 2A000000 		.4byte	.LVL170
 9173 0572 78000000 		.4byte	.LFE230
 9174 0576 0400     		.2byte	0x4
 9175 0578 F3       		.byte	0xf3
 9176 0579 01       		.uleb128 0x1
 9177 057a 50       		.byte	0x50
 9178 057b 9F       		.byte	0x9f
 9179 057c 00000000 		.4byte	0
 9180 0580 00000000 		.4byte	0
 9181              	.LLST59:
 9182 0584 1E000000 		.4byte	.LVL168
 9183 0588 62000000 		.4byte	.LVL175
 9184 058c 0100     		.2byte	0x1
 9185 058e 54       		.byte	0x54
 9186 058f 66000000 		.4byte	.LVL176
 9187 0593 78000000 		.4byte	.LFE230
 9188 0597 0100     		.2byte	0x1
 9189 0599 54       		.byte	0x54
 9190 059a 00000000 		.4byte	0
 9191 059e 00000000 		.4byte	0
 9192              	.LLST60:
 9193 05a2 32000000 		.4byte	.LVL172
 9194 05a6 34000000 		.4byte	.LVL173
 9195 05aa 0100     		.2byte	0x1
 9196 05ac 55       		.byte	0x55
 9197 05ad 00000000 		.4byte	0
 9198 05b1 00000000 		.4byte	0
 9199              	.LLST61:
 9200 05b5 2A000000 		.4byte	.LVL170
ARM GAS  C:\Users\mathi\AppData\Local\Temp\cceGBsvt.s 			page 163


 9201 05b9 2E000000 		.4byte	.LVL171
 9202 05bd 0100     		.2byte	0x1
 9203 05bf 55       		.byte	0x55
 9204 05c0 00000000 		.4byte	0
 9205 05c4 00000000 		.4byte	0
 9206              	.LLST62:
 9207 05c8 2A000000 		.4byte	.LVL170
 9208 05cc 2E000000 		.4byte	.LVL171
 9209 05d0 0100     		.2byte	0x1
 9210 05d2 50       		.byte	0x50
 9211 05d3 00000000 		.4byte	0
 9212 05d7 00000000 		.4byte	0
 9213              	.LLST54:
 9214 05db 0A000000 		.4byte	.LVL150
 9215 05df 10000000 		.4byte	.LVL151
 9216 05e3 0300     		.2byte	0x3
 9217 05e5 08       		.byte	0x8
 9218 05e6 20       		.byte	0x20
 9219 05e7 9F       		.byte	0x9f
 9220 05e8 00000000 		.4byte	0
 9221 05ec 00000000 		.4byte	0
 9222              	.LLST55:
 9223 05f0 4A000000 		.4byte	.LVL159
 9224 05f4 50000000 		.4byte	.LVL160
 9225 05f8 0200     		.2byte	0x2
 9226 05fa 30       		.byte	0x30
 9227 05fb 9F       		.byte	0x9f
 9228 05fc 00000000 		.4byte	0
 9229 0600 00000000 		.4byte	0
 9230              	.LLST49:
 9231 0604 00000000 		.4byte	.LVL131
 9232 0608 19000000 		.4byte	.LVL134-1
 9233 060c 0100     		.2byte	0x1
 9234 060e 50       		.byte	0x50
 9235 060f 19000000 		.4byte	.LVL134-1
 9236 0613 24000000 		.4byte	.LVL136
 9237 0617 0100     		.2byte	0x1
 9238 0619 54       		.byte	0x54
 9239 061a 24000000 		.4byte	.LVL136
 9240 061e 84000000 		.4byte	.LFE228
 9241 0622 0400     		.2byte	0x4
 9242 0624 F3       		.byte	0xf3
 9243 0625 01       		.uleb128 0x1
 9244 0626 50       		.byte	0x50
 9245 0627 9F       		.byte	0x9f
 9246 0628 00000000 		.4byte	0
 9247 062c 00000000 		.4byte	0
 9248              	.LLST50:
 9249 0630 00000000 		.4byte	.LVL131
 9250 0634 19000000 		.4byte	.LVL134-1
 9251 0638 0100     		.2byte	0x1
 9252 063a 51       		.byte	0x51
 9253 063b 19000000 		.4byte	.LVL134-1
 9254 063f 50000000 		.4byte	.LVL141
 9255 0643 0100     		.2byte	0x1
 9256 0645 56       		.byte	0x56
 9257 0646 50000000 		.4byte	.LVL141
ARM GAS  C:\Users\mathi\AppData\Local\Temp\cceGBsvt.s 			page 164


 9258 064a 54000000 		.4byte	.LVL142
 9259 064e 0100     		.2byte	0x1
 9260 0650 50       		.byte	0x50
 9261 0651 54000000 		.4byte	.LVL142
 9262 0655 70000000 		.4byte	.LVL148
 9263 0659 0100     		.2byte	0x1
 9264 065b 56       		.byte	0x56
 9265 065c 70000000 		.4byte	.LVL148
 9266 0660 73000000 		.4byte	.LVL149-1
 9267 0664 0100     		.2byte	0x1
 9268 0666 50       		.byte	0x50
 9269 0667 73000000 		.4byte	.LVL149-1
 9270 066b 84000000 		.4byte	.LFE228
 9271 066f 0100     		.2byte	0x1
 9272 0671 56       		.byte	0x56
 9273 0672 00000000 		.4byte	0
 9274 0676 00000000 		.4byte	0
 9275              	.LLST51:
 9276 067a 0A000000 		.4byte	.LVL132
 9277 067e 14000000 		.4byte	.LVL133
 9278 0682 0300     		.2byte	0x3
 9279 0684 08       		.byte	0x8
 9280 0685 20       		.byte	0x20
 9281 0686 9F       		.byte	0x9f
 9282 0687 00000000 		.4byte	0
 9283 068b 00000000 		.4byte	0
 9284              	.LLST52:
 9285 068f 40000000 		.4byte	.LVL139
 9286 0693 46000000 		.4byte	.LVL140
 9287 0697 0200     		.2byte	0x2
 9288 0699 30       		.byte	0x30
 9289 069a 9F       		.byte	0x9f
 9290 069b 00000000 		.4byte	0
 9291 069f 00000000 		.4byte	0
 9292              	.LLST53:
 9293 06a3 5C000000 		.4byte	.LVL144
 9294 06a7 5E000000 		.4byte	.LVL145
 9295 06ab 0600     		.2byte	0x6
 9296 06ad 76       		.byte	0x76
 9297 06ae 00       		.sleb128 0
 9298 06af 71       		.byte	0x71
 9299 06b0 00       		.sleb128 0
 9300 06b1 1C       		.byte	0x1c
 9301 06b2 9F       		.byte	0x9f
 9302 06b3 5E000000 		.4byte	.LVL145
 9303 06b7 70000000 		.4byte	.LVL148
 9304 06bb 0100     		.2byte	0x1
 9305 06bd 54       		.byte	0x54
 9306 06be 00000000 		.4byte	0
 9307 06c2 00000000 		.4byte	0
 9308              	.LLST45:
 9309 06c6 00000000 		.4byte	.LVL116
 9310 06ca 17000000 		.4byte	.LVL119-1
 9311 06ce 0100     		.2byte	0x1
 9312 06d0 50       		.byte	0x50
 9313 06d1 17000000 		.4byte	.LVL119-1
 9314 06d5 1E000000 		.4byte	.LVL121
ARM GAS  C:\Users\mathi\AppData\Local\Temp\cceGBsvt.s 			page 165


 9315 06d9 0100     		.2byte	0x1
 9316 06db 55       		.byte	0x55
 9317 06dc 1E000000 		.4byte	.LVL121
 9318 06e0 20000000 		.4byte	.LVL122
 9319 06e4 0600     		.2byte	0x6
 9320 06e6 75       		.byte	0x75
 9321 06e7 00       		.sleb128 0
 9322 06e8 71       		.byte	0x71
 9323 06e9 00       		.sleb128 0
 9324 06ea 1C       		.byte	0x1c
 9325 06eb 9F       		.byte	0x9f
 9326 06ec 20000000 		.4byte	.LVL122
 9327 06f0 27000000 		.4byte	.LVL124-1
 9328 06f4 0100     		.2byte	0x1
 9329 06f6 51       		.byte	0x51
 9330 06f7 00000000 		.4byte	0
 9331 06fb 00000000 		.4byte	0
 9332              	.LLST46:
 9333 06ff 0A000000 		.4byte	.LVL117
 9334 0703 12000000 		.4byte	.LVL118
 9335 0707 0300     		.2byte	0x3
 9336 0709 08       		.byte	0x8
 9337 070a 20       		.byte	0x20
 9338 070b 9F       		.byte	0x9f
 9339 070c 00000000 		.4byte	0
 9340 0710 00000000 		.4byte	0
 9341              	.LLST47:
 9342 0714 22000000 		.4byte	.LVL123
 9343 0718 27000000 		.4byte	.LVL124-1
 9344 071c 0100     		.2byte	0x1
 9345 071e 51       		.byte	0x51
 9346 071f 00000000 		.4byte	0
 9347 0723 00000000 		.4byte	0
 9348              	.LLST48:
 9349 0727 40000000 		.4byte	.LVL127
 9350 072b 46000000 		.4byte	.LVL128
 9351 072f 0200     		.2byte	0x2
 9352 0731 30       		.byte	0x30
 9353 0732 9F       		.byte	0x9f
 9354 0733 00000000 		.4byte	0
 9355 0737 00000000 		.4byte	0
 9356              	.LLST41:
 9357 073b 00000000 		.4byte	.LVL102
 9358 073f 15000000 		.4byte	.LVL105-1
 9359 0743 0100     		.2byte	0x1
 9360 0745 50       		.byte	0x50
 9361 0746 15000000 		.4byte	.LVL105-1
 9362 074a 74000000 		.4byte	.LFE226
 9363 074e 0100     		.2byte	0x1
 9364 0750 55       		.byte	0x55
 9365 0751 00000000 		.4byte	0
 9366 0755 00000000 		.4byte	0
 9367              	.LLST42:
 9368 0759 0A000000 		.4byte	.LVL103
 9369 075d 12000000 		.4byte	.LVL104
 9370 0761 0300     		.2byte	0x3
 9371 0763 08       		.byte	0x8
ARM GAS  C:\Users\mathi\AppData\Local\Temp\cceGBsvt.s 			page 166


 9372 0764 20       		.byte	0x20
 9373 0765 9F       		.byte	0x9f
 9374 0766 00000000 		.4byte	0
 9375 076a 00000000 		.4byte	0
 9376              	.LLST43:
 9377 076e 1A000000 		.4byte	.LVL106
 9378 0772 2A000000 		.4byte	.LVL108
 9379 0776 0100     		.2byte	0x1
 9380 0778 55       		.byte	0x55
 9381 0779 00000000 		.4byte	0
 9382 077d 00000000 		.4byte	0
 9383              	.LLST44:
 9384 0781 44000000 		.4byte	.LVL111
 9385 0785 4A000000 		.4byte	.LVL112
 9386 0789 0200     		.2byte	0x2
 9387 078b 30       		.byte	0x30
 9388 078c 9F       		.byte	0x9f
 9389 078d 00000000 		.4byte	0
 9390 0791 00000000 		.4byte	0
 9391              	.LLST38:
 9392 0795 00000000 		.4byte	.LVL90
 9393 0799 15000000 		.4byte	.LVL93-1
 9394 079d 0100     		.2byte	0x1
 9395 079f 50       		.byte	0x50
 9396 07a0 15000000 		.4byte	.LVL93-1
 9397 07a4 6C000000 		.4byte	.LFE225
 9398 07a8 0100     		.2byte	0x1
 9399 07aa 55       		.byte	0x55
 9400 07ab 00000000 		.4byte	0
 9401 07af 00000000 		.4byte	0
 9402              	.LLST39:
 9403 07b3 0A000000 		.4byte	.LVL91
 9404 07b7 12000000 		.4byte	.LVL92
 9405 07bb 0300     		.2byte	0x3
 9406 07bd 08       		.byte	0x8
 9407 07be 20       		.byte	0x20
 9408 07bf 9F       		.byte	0x9f
 9409 07c0 00000000 		.4byte	0
 9410 07c4 00000000 		.4byte	0
 9411              	.LLST40:
 9412 07c8 40000000 		.4byte	.LVL97
 9413 07cc 46000000 		.4byte	.LVL98
 9414 07d0 0200     		.2byte	0x2
 9415 07d2 30       		.byte	0x30
 9416 07d3 9F       		.byte	0x9f
 9417 07d4 00000000 		.4byte	0
 9418 07d8 00000000 		.4byte	0
 9419              	.LLST34:
 9420 07dc 00000000 		.4byte	.LVL71
 9421 07e0 10000000 		.4byte	.LVL72
 9422 07e4 0100     		.2byte	0x1
 9423 07e6 50       		.byte	0x50
 9424 07e7 10000000 		.4byte	.LVL72
 9425 07eb 6C000000 		.4byte	.LVL85
 9426 07ef 0100     		.2byte	0x1
 9427 07f1 55       		.byte	0x55
 9428 07f2 6C000000 		.4byte	.LVL85
ARM GAS  C:\Users\mathi\AppData\Local\Temp\cceGBsvt.s 			page 167


 9429 07f6 6E000000 		.4byte	.LVL86
 9430 07fa 0100     		.2byte	0x1
 9431 07fc 50       		.byte	0x50
 9432 07fd 6E000000 		.4byte	.LVL86
 9433 0801 88000000 		.4byte	.LFE224
 9434 0805 0100     		.2byte	0x1
 9435 0807 55       		.byte	0x55
 9436 0808 00000000 		.4byte	0
 9437 080c 00000000 		.4byte	0
 9438              	.LLST35:
 9439 0810 24000000 		.4byte	.LVL76
 9440 0814 60000000 		.4byte	.LVL82
 9441 0818 0100     		.2byte	0x1
 9442 081a 56       		.byte	0x56
 9443 081b 60000000 		.4byte	.LVL82
 9444 081f 64000000 		.4byte	.LVL83
 9445 0823 0100     		.2byte	0x1
 9446 0825 50       		.byte	0x50
 9447 0826 64000000 		.4byte	.LVL83
 9448 082a 6C000000 		.4byte	.LVL85
 9449 082e 0100     		.2byte	0x1
 9450 0830 56       		.byte	0x56
 9451 0831 74000000 		.4byte	.LVL88
 9452 0835 77000000 		.4byte	.LVL89-1
 9453 0839 0100     		.2byte	0x1
 9454 083b 50       		.byte	0x50
 9455 083c 77000000 		.4byte	.LVL89-1
 9456 0840 88000000 		.4byte	.LFE224
 9457 0844 0100     		.2byte	0x1
 9458 0846 56       		.byte	0x56
 9459 0847 00000000 		.4byte	0
 9460 084b 00000000 		.4byte	0
 9461              	.LLST36:
 9462 084f 10000000 		.4byte	.LVL72
 9463 0853 16000000 		.4byte	.LVL73
 9464 0857 0300     		.2byte	0x3
 9465 0859 08       		.byte	0x8
 9466 085a 20       		.byte	0x20
 9467 085b 9F       		.byte	0x9f
 9468 085c 00000000 		.4byte	0
 9469 0860 00000000 		.4byte	0
 9470              	.LLST37:
 9471 0864 50000000 		.4byte	.LVL80
 9472 0868 56000000 		.4byte	.LVL81
 9473 086c 0200     		.2byte	0x2
 9474 086e 30       		.byte	0x30
 9475 086f 9F       		.byte	0x9f
 9476 0870 00000000 		.4byte	0
 9477 0874 00000000 		.4byte	0
 9478              	.LLST30:
 9479 0878 00000000 		.4byte	.LVL57
 9480 087c 15000000 		.4byte	.LVL60-1
 9481 0880 0100     		.2byte	0x1
 9482 0882 50       		.byte	0x50
 9483 0883 15000000 		.4byte	.LVL60-1
 9484 0887 30000000 		.4byte	.LVL64
 9485 088b 0100     		.2byte	0x1
ARM GAS  C:\Users\mathi\AppData\Local\Temp\cceGBsvt.s 			page 168


 9486 088d 55       		.byte	0x55
 9487 088e 00000000 		.4byte	0
 9488 0892 00000000 		.4byte	0
 9489              	.LLST31:
 9490 0896 0A000000 		.4byte	.LVL58
 9491 089a 12000000 		.4byte	.LVL59
 9492 089e 0300     		.2byte	0x3
 9493 08a0 08       		.byte	0x8
 9494 08a1 20       		.byte	0x20
 9495 08a2 9F       		.byte	0x9f
 9496 08a3 00000000 		.4byte	0
 9497 08a7 00000000 		.4byte	0
 9498              	.LLST32:
 9499 08ab 1A000000 		.4byte	.LVL61
 9500 08af 30000000 		.4byte	.LVL64
 9501 08b3 0100     		.2byte	0x1
 9502 08b5 55       		.byte	0x55
 9503 08b6 00000000 		.4byte	0
 9504 08ba 00000000 		.4byte	0
 9505              	.LLST33:
 9506 08be 4A000000 		.4byte	.LVL67
 9507 08c2 50000000 		.4byte	.LVL68
 9508 08c6 0200     		.2byte	0x2
 9509 08c8 30       		.byte	0x30
 9510 08c9 9F       		.byte	0x9f
 9511 08ca 00000000 		.4byte	0
 9512 08ce 00000000 		.4byte	0
 9513              	.LLST13:
 9514 08d2 00000000 		.4byte	.LVL28
 9515 08d6 27000000 		.4byte	.LVL31-1
 9516 08da 0100     		.2byte	0x1
 9517 08dc 50       		.byte	0x50
 9518 08dd 27000000 		.4byte	.LVL31-1
 9519 08e1 F4000000 		.4byte	.LVL51
 9520 08e5 0100     		.2byte	0x1
 9521 08e7 54       		.byte	0x54
 9522 08e8 F4000000 		.4byte	.LVL51
 9523 08ec FA000000 		.4byte	.LVL52
 9524 08f0 0100     		.2byte	0x1
 9525 08f2 50       		.byte	0x50
 9526 08f3 FA000000 		.4byte	.LVL52
 9527 08f7 0A010000 		.4byte	.LVL55
 9528 08fb 0100     		.2byte	0x1
 9529 08fd 54       		.byte	0x54
 9530 08fe 0A010000 		.4byte	.LVL55
 9531 0902 0D010000 		.4byte	.LVL56-1
 9532 0906 0100     		.2byte	0x1
 9533 0908 50       		.byte	0x50
 9534 0909 0D010000 		.4byte	.LVL56-1
 9535 090d 24010000 		.4byte	.LFE222
 9536 0911 0100     		.2byte	0x1
 9537 0913 54       		.byte	0x54
 9538 0914 00000000 		.4byte	0
 9539 0918 00000000 		.4byte	0
 9540              	.LLST14:
 9541 091c 00000000 		.4byte	.LVL28
 9542 0920 18000000 		.4byte	.LVL29
ARM GAS  C:\Users\mathi\AppData\Local\Temp\cceGBsvt.s 			page 169


 9543 0924 0100     		.2byte	0x1
 9544 0926 51       		.byte	0x51
 9545 0927 18000000 		.4byte	.LVL29
 9546 092b 6E000000 		.4byte	.LVL40
 9547 092f 0100     		.2byte	0x1
 9548 0931 55       		.byte	0x55
 9549 0932 6E000000 		.4byte	.LVL40
 9550 0936 02010000 		.4byte	.LVL54
 9551 093a 0400     		.2byte	0x4
 9552 093c F3       		.byte	0xf3
 9553 093d 01       		.uleb128 0x1
 9554 093e 51       		.byte	0x51
 9555 093f 9F       		.byte	0x9f
 9556 0940 02010000 		.4byte	.LVL54
 9557 0944 0A010000 		.4byte	.LVL55
 9558 0948 0100     		.2byte	0x1
 9559 094a 55       		.byte	0x55
 9560 094b 0A010000 		.4byte	.LVL55
 9561 094f 24010000 		.4byte	.LFE222
 9562 0953 0400     		.2byte	0x4
 9563 0955 F3       		.byte	0xf3
 9564 0956 01       		.uleb128 0x1
 9565 0957 51       		.byte	0x51
 9566 0958 9F       		.byte	0x9f
 9567 0959 00000000 		.4byte	0
 9568 095d 00000000 		.4byte	0
 9569              	.LLST15:
 9570 0961 00000000 		.4byte	.LVL28
 9571 0965 1A000000 		.4byte	.LVL30
 9572 0969 0100     		.2byte	0x1
 9573 096b 52       		.byte	0x52
 9574 096c 1A000000 		.4byte	.LVL30
 9575 0970 84000000 		.4byte	.LVL42
 9576 0974 0100     		.2byte	0x1
 9577 0976 57       		.byte	0x57
 9578 0977 84000000 		.4byte	.LVL42
 9579 097b A6000000 		.4byte	.LVL43
 9580 097f 0200     		.2byte	0x2
 9581 0981 74       		.byte	0x74
 9582 0982 08       		.sleb128 8
 9583 0983 A6000000 		.4byte	.LVL43
 9584 0987 02010000 		.4byte	.LVL54
 9585 098b 0400     		.2byte	0x4
 9586 098d F3       		.byte	0xf3
 9587 098e 01       		.uleb128 0x1
 9588 098f 52       		.byte	0x52
 9589 0990 9F       		.byte	0x9f
 9590 0991 02010000 		.4byte	.LVL54
 9591 0995 0A010000 		.4byte	.LVL55
 9592 0999 0100     		.2byte	0x1
 9593 099b 57       		.byte	0x57
 9594 099c 0A010000 		.4byte	.LVL55
 9595 09a0 24010000 		.4byte	.LFE222
 9596 09a4 0400     		.2byte	0x4
 9597 09a6 F3       		.byte	0xf3
 9598 09a7 01       		.uleb128 0x1
 9599 09a8 52       		.byte	0x52
ARM GAS  C:\Users\mathi\AppData\Local\Temp\cceGBsvt.s 			page 170


 9600 09a9 9F       		.byte	0x9f
 9601 09aa 00000000 		.4byte	0
 9602 09ae 00000000 		.4byte	0
 9603              	.LLST16:
 9604 09b2 00000000 		.4byte	.LVL28
 9605 09b6 27000000 		.4byte	.LVL31-1
 9606 09ba 0100     		.2byte	0x1
 9607 09bc 53       		.byte	0x53
 9608 09bd 27000000 		.4byte	.LVL31-1
 9609 09c1 24010000 		.4byte	.LFE222
 9610 09c5 0100     		.2byte	0x1
 9611 09c7 59       		.byte	0x59
 9612 09c8 00000000 		.4byte	0
 9613 09cc 00000000 		.4byte	0
 9614              	.LLST17:
 9615 09d0 00000000 		.4byte	.LVL28
 9616 09d4 FA000000 		.4byte	.LVL52
 9617 09d8 0200     		.2byte	0x2
 9618 09da 91       		.byte	0x91
 9619 09db 00       		.sleb128 0
 9620 09dc FA000000 		.4byte	.LVL52
 9621 09e0 24010000 		.4byte	.LFE222
 9622 09e4 0200     		.2byte	0x2
 9623 09e6 91       		.byte	0x91
 9624 09e7 00       		.sleb128 0
 9625 09e8 00000000 		.4byte	0
 9626 09ec 00000000 		.4byte	0
 9627              	.LLST18:
 9628 09f0 2A000000 		.4byte	.LVL32
 9629 09f4 3C000000 		.4byte	.LVL34
 9630 09f8 0300     		.2byte	0x3
 9631 09fa 08       		.byte	0x8
 9632 09fb 55       		.byte	0x55
 9633 09fc 9F       		.byte	0x9f
 9634 09fd 00000000 		.4byte	0
 9635 0a01 00000000 		.4byte	0
 9636              	.LLST19:
 9637 0a05 2A000000 		.4byte	.LVL32
 9638 0a09 30000000 		.4byte	.LVL33
 9639 0a0d 0100     		.2byte	0x1
 9640 0a0f 53       		.byte	0x53
 9641 0a10 30000000 		.4byte	.LVL33
 9642 0a14 3C000000 		.4byte	.LVL34
 9643 0a18 0600     		.2byte	0x6
 9644 0a1a 74       		.byte	0x74
 9645 0a1b 00       		.sleb128 0
 9646 0a1c 75       		.byte	0x75
 9647 0a1d 00       		.sleb128 0
 9648 0a1e 22       		.byte	0x22
 9649 0a1f 9F       		.byte	0x9f
 9650 0a20 00000000 		.4byte	0
 9651 0a24 00000000 		.4byte	0
 9652              	.LLST20:
 9653 0a28 2A000000 		.4byte	.LVL32
 9654 0a2c 3C000000 		.4byte	.LVL34
 9655 0a30 0100     		.2byte	0x1
 9656 0a32 56       		.byte	0x56
ARM GAS  C:\Users\mathi\AppData\Local\Temp\cceGBsvt.s 			page 171


 9657 0a33 00000000 		.4byte	0
 9658 0a37 00000000 		.4byte	0
 9659              	.LLST21:
 9660 0a3b 3C000000 		.4byte	.LVL34
 9661 0a3f 42000000 		.4byte	.LVL35
 9662 0a43 0300     		.2byte	0x3
 9663 0a45 08       		.byte	0x8
 9664 0a46 20       		.byte	0x20
 9665 0a47 9F       		.byte	0x9f
 9666 0a48 00000000 		.4byte	0
 9667 0a4c 00000000 		.4byte	0
 9668              	.LLST22:
 9669 0a50 4A000000 		.4byte	.LVL37
 9670 0a54 C2000000 		.4byte	.LVL45
 9671 0a58 0100     		.2byte	0x1
 9672 0a5a 5A       		.byte	0x5a
 9673 0a5b 02010000 		.4byte	.LVL54
 9674 0a5f 0A010000 		.4byte	.LVL55
 9675 0a63 0100     		.2byte	0x1
 9676 0a65 5A       		.byte	0x5a
 9677 0a66 00000000 		.4byte	0
 9678 0a6a 00000000 		.4byte	0
 9679              	.LLST23:
 9680 0a6e 4A000000 		.4byte	.LVL37
 9681 0a72 C2000000 		.4byte	.LVL45
 9682 0a76 0100     		.2byte	0x1
 9683 0a78 59       		.byte	0x59
 9684 0a79 02010000 		.4byte	.LVL54
 9685 0a7d 0A010000 		.4byte	.LVL55
 9686 0a81 0100     		.2byte	0x1
 9687 0a83 59       		.byte	0x59
 9688 0a84 00000000 		.4byte	0
 9689 0a88 00000000 		.4byte	0
 9690              	.LLST24:
 9691 0a8c 4A000000 		.4byte	.LVL37
 9692 0a90 84000000 		.4byte	.LVL42
 9693 0a94 0100     		.2byte	0x1
 9694 0a96 57       		.byte	0x57
 9695 0a97 84000000 		.4byte	.LVL42
 9696 0a9b A6000000 		.4byte	.LVL43
 9697 0a9f 0200     		.2byte	0x2
 9698 0aa1 74       		.byte	0x74
 9699 0aa2 08       		.sleb128 8
 9700 0aa3 A6000000 		.4byte	.LVL43
 9701 0aa7 C2000000 		.4byte	.LVL45
 9702 0aab 0400     		.2byte	0x4
 9703 0aad F3       		.byte	0xf3
 9704 0aae 01       		.uleb128 0x1
 9705 0aaf 52       		.byte	0x52
 9706 0ab0 9F       		.byte	0x9f
 9707 0ab1 02010000 		.4byte	.LVL54
 9708 0ab5 0A010000 		.4byte	.LVL55
 9709 0ab9 0100     		.2byte	0x1
 9710 0abb 57       		.byte	0x57
 9711 0abc 00000000 		.4byte	0
 9712 0ac0 00000000 		.4byte	0
 9713              	.LLST25:
ARM GAS  C:\Users\mathi\AppData\Local\Temp\cceGBsvt.s 			page 172


 9714 0ac4 4A000000 		.4byte	.LVL37
 9715 0ac8 6E000000 		.4byte	.LVL40
 9716 0acc 0100     		.2byte	0x1
 9717 0ace 55       		.byte	0x55
 9718 0acf 6E000000 		.4byte	.LVL40
 9719 0ad3 C2000000 		.4byte	.LVL45
 9720 0ad7 0400     		.2byte	0x4
 9721 0ad9 F3       		.byte	0xf3
 9722 0ada 01       		.uleb128 0x1
 9723 0adb 51       		.byte	0x51
 9724 0adc 9F       		.byte	0x9f
 9725 0add 02010000 		.4byte	.LVL54
 9726 0ae1 0A010000 		.4byte	.LVL55
 9727 0ae5 0100     		.2byte	0x1
 9728 0ae7 55       		.byte	0x55
 9729 0ae8 00000000 		.4byte	0
 9730 0aec 00000000 		.4byte	0
 9731              	.LLST26:
 9732 0af0 4A000000 		.4byte	.LVL37
 9733 0af4 C2000000 		.4byte	.LVL45
 9734 0af8 0100     		.2byte	0x1
 9735 0afa 54       		.byte	0x54
 9736 0afb 02010000 		.4byte	.LVL54
 9737 0aff 0A010000 		.4byte	.LVL55
 9738 0b03 0100     		.2byte	0x1
 9739 0b05 54       		.byte	0x54
 9740 0b06 00000000 		.4byte	0
 9741 0b0a 00000000 		.4byte	0
 9742              	.LLST27:
 9743 0b0e 78000000 		.4byte	.LVL41
 9744 0b12 84000000 		.4byte	.LVL42
 9745 0b16 0100     		.2byte	0x1
 9746 0b18 57       		.byte	0x57
 9747 0b19 84000000 		.4byte	.LVL42
 9748 0b1d A6000000 		.4byte	.LVL43
 9749 0b21 0200     		.2byte	0x2
 9750 0b23 74       		.byte	0x74
 9751 0b24 08       		.sleb128 8
 9752 0b25 A6000000 		.4byte	.LVL43
 9753 0b29 C2000000 		.4byte	.LVL45
 9754 0b2d 0400     		.2byte	0x4
 9755 0b2f F3       		.byte	0xf3
 9756 0b30 01       		.uleb128 0x1
 9757 0b31 52       		.byte	0x52
 9758 0b32 9F       		.byte	0x9f
 9759 0b33 00000000 		.4byte	0
 9760 0b37 00000000 		.4byte	0
 9761              	.LLST28:
 9762 0b3b 78000000 		.4byte	.LVL41
 9763 0b3f C2000000 		.4byte	.LVL45
 9764 0b43 0100     		.2byte	0x1
 9765 0b45 54       		.byte	0x54
 9766 0b46 00000000 		.4byte	0
 9767 0b4a 00000000 		.4byte	0
 9768              	.LLST29:
 9769 0b4e E2000000 		.4byte	.LVL49
 9770 0b52 E8000000 		.4byte	.LVL50
ARM GAS  C:\Users\mathi\AppData\Local\Temp\cceGBsvt.s 			page 173


 9771 0b56 0200     		.2byte	0x2
 9772 0b58 30       		.byte	0x30
 9773 0b59 9F       		.byte	0x9f
 9774 0b5a 00000000 		.4byte	0
 9775 0b5e 00000000 		.4byte	0
 9776              	.LLST0:
 9777 0b62 00000000 		.4byte	.LVL0
 9778 0b66 12000000 		.4byte	.LVL1
 9779 0b6a 0100     		.2byte	0x1
 9780 0b6c 50       		.byte	0x50
 9781 0b6d 12000000 		.4byte	.LVL1
 9782 0b71 74000000 		.4byte	.LFE219
 9783 0b75 0100     		.2byte	0x1
 9784 0b77 54       		.byte	0x54
 9785 0b78 00000000 		.4byte	0
 9786 0b7c 00000000 		.4byte	0
 9787              	.LLST1:
 9788 0b80 00000000 		.4byte	.LVL0
 9789 0b84 20000000 		.4byte	.LVL2
 9790 0b88 0100     		.2byte	0x1
 9791 0b8a 51       		.byte	0x51
 9792 0b8b 20000000 		.4byte	.LVL2
 9793 0b8f 44000000 		.4byte	.LVL3
 9794 0b93 0200     		.2byte	0x2
 9795 0b95 74       		.byte	0x74
 9796 0b96 08       		.sleb128 8
 9797 0b97 44000000 		.4byte	.LVL3
 9798 0b9b 74000000 		.4byte	.LFE219
 9799 0b9f 0400     		.2byte	0x4
 9800 0ba1 F3       		.byte	0xf3
 9801 0ba2 01       		.uleb128 0x1
 9802 0ba3 51       		.byte	0x51
 9803 0ba4 9F       		.byte	0x9f
 9804 0ba5 00000000 		.4byte	0
 9805 0ba9 00000000 		.4byte	0
 9806              	.LLST2:
 9807 0bad 00000000 		.4byte	.LVL8
 9808 0bb1 25000000 		.4byte	.LVL11-1
 9809 0bb5 0100     		.2byte	0x1
 9810 0bb7 50       		.byte	0x50
 9811 0bb8 25000000 		.4byte	.LVL11-1
 9812 0bbc 26000000 		.4byte	.LVL11
 9813 0bc0 0400     		.2byte	0x4
 9814 0bc2 F3       		.byte	0xf3
 9815 0bc3 01       		.uleb128 0x1
 9816 0bc4 50       		.byte	0x50
 9817 0bc5 9F       		.byte	0x9f
 9818 0bc6 26000000 		.4byte	.LVL11
 9819 0bca 35000000 		.4byte	.LVL13-1
 9820 0bce 0100     		.2byte	0x1
 9821 0bd0 50       		.byte	0x50
 9822 0bd1 35000000 		.4byte	.LVL13-1
 9823 0bd5 3C000000 		.4byte	.LFE220
 9824 0bd9 0400     		.2byte	0x4
 9825 0bdb F3       		.byte	0xf3
 9826 0bdc 01       		.uleb128 0x1
 9827 0bdd 50       		.byte	0x50
ARM GAS  C:\Users\mathi\AppData\Local\Temp\cceGBsvt.s 			page 174


 9828 0bde 9F       		.byte	0x9f
 9829 0bdf 00000000 		.4byte	0
 9830 0be3 00000000 		.4byte	0
 9831              	.LLST3:
 9832 0be7 00000000 		.4byte	.LVL8
 9833 0beb 1C000000 		.4byte	.LVL10
 9834 0bef 0100     		.2byte	0x1
 9835 0bf1 51       		.byte	0x51
 9836 0bf2 1C000000 		.4byte	.LVL10
 9837 0bf6 26000000 		.4byte	.LVL11
 9838 0bfa 0400     		.2byte	0x4
 9839 0bfc F3       		.byte	0xf3
 9840 0bfd 01       		.uleb128 0x1
 9841 0bfe 51       		.byte	0x51
 9842 0bff 9F       		.byte	0x9f
 9843 0c00 26000000 		.4byte	.LVL11
 9844 0c04 35000000 		.4byte	.LVL13-1
 9845 0c08 0100     		.2byte	0x1
 9846 0c0a 51       		.byte	0x51
 9847 0c0b 35000000 		.4byte	.LVL13-1
 9848 0c0f 3C000000 		.4byte	.LFE220
 9849 0c13 0400     		.2byte	0x4
 9850 0c15 F3       		.byte	0xf3
 9851 0c16 01       		.uleb128 0x1
 9852 0c17 51       		.byte	0x51
 9853 0c18 9F       		.byte	0x9f
 9854 0c19 00000000 		.4byte	0
 9855 0c1d 00000000 		.4byte	0
 9856              	.LLST4:
 9857 0c21 00000000 		.4byte	.LVL8
 9858 0c25 12000000 		.4byte	.LVL9
 9859 0c29 0100     		.2byte	0x1
 9860 0c2b 52       		.byte	0x52
 9861 0c2c 12000000 		.4byte	.LVL9
 9862 0c30 26000000 		.4byte	.LVL11
 9863 0c34 0400     		.2byte	0x4
 9864 0c36 F3       		.byte	0xf3
 9865 0c37 01       		.uleb128 0x1
 9866 0c38 52       		.byte	0x52
 9867 0c39 9F       		.byte	0x9f
 9868 0c3a 26000000 		.4byte	.LVL11
 9869 0c3e 28000000 		.4byte	.LVL12
 9870 0c42 0100     		.2byte	0x1
 9871 0c44 52       		.byte	0x52
 9872 0c45 28000000 		.4byte	.LVL12
 9873 0c49 3C000000 		.4byte	.LFE220
 9874 0c4d 0400     		.2byte	0x4
 9875 0c4f F3       		.byte	0xf3
 9876 0c50 01       		.uleb128 0x1
 9877 0c51 52       		.byte	0x52
 9878 0c52 9F       		.byte	0x9f
 9879 0c53 00000000 		.4byte	0
 9880 0c57 00000000 		.4byte	0
 9881              	.LLST5:
 9882 0c5b 00000000 		.4byte	.LVL14
 9883 0c5f 1B000000 		.4byte	.LVL16-1
 9884 0c63 0100     		.2byte	0x1
ARM GAS  C:\Users\mathi\AppData\Local\Temp\cceGBsvt.s 			page 175


 9885 0c65 50       		.byte	0x50
 9886 0c66 1B000000 		.4byte	.LVL16-1
 9887 0c6a 9A000000 		.4byte	.LVL24
 9888 0c6e 0100     		.2byte	0x1
 9889 0c70 54       		.byte	0x54
 9890 0c71 9A000000 		.4byte	.LVL24
 9891 0c75 A0000000 		.4byte	.LVL25
 9892 0c79 0100     		.2byte	0x1
 9893 0c7b 50       		.byte	0x50
 9894 0c7c A0000000 		.4byte	.LVL25
 9895 0c80 AC000000 		.4byte	.LVL26
 9896 0c84 0100     		.2byte	0x1
 9897 0c86 54       		.byte	0x54
 9898 0c87 AC000000 		.4byte	.LVL26
 9899 0c8b AF000000 		.4byte	.LVL27-1
 9900 0c8f 0100     		.2byte	0x1
 9901 0c91 50       		.byte	0x50
 9902 0c92 AF000000 		.4byte	.LVL27-1
 9903 0c96 C0000000 		.4byte	.LFE221
 9904 0c9a 0100     		.2byte	0x1
 9905 0c9c 54       		.byte	0x54
 9906 0c9d 00000000 		.4byte	0
 9907 0ca1 00000000 		.4byte	0
 9908              	.LLST6:
 9909 0ca5 00000000 		.4byte	.LVL14
 9910 0ca9 1B000000 		.4byte	.LVL16-1
 9911 0cad 0100     		.2byte	0x1
 9912 0caf 51       		.byte	0x51
 9913 0cb0 1B000000 		.4byte	.LVL16-1
 9914 0cb4 52000000 		.4byte	.LVL19
 9915 0cb8 0100     		.2byte	0x1
 9916 0cba 55       		.byte	0x55
 9917 0cbb 52000000 		.4byte	.LVL19
 9918 0cbf A0000000 		.4byte	.LVL25
 9919 0cc3 0400     		.2byte	0x4
 9920 0cc5 F3       		.byte	0xf3
 9921 0cc6 01       		.uleb128 0x1
 9922 0cc7 51       		.byte	0x51
 9923 0cc8 9F       		.byte	0x9f
 9924 0cc9 A0000000 		.4byte	.LVL25
 9925 0ccd AC000000 		.4byte	.LVL26
 9926 0cd1 0100     		.2byte	0x1
 9927 0cd3 55       		.byte	0x55
 9928 0cd4 AC000000 		.4byte	.LVL26
 9929 0cd8 C0000000 		.4byte	.LFE221
 9930 0cdc 0400     		.2byte	0x4
 9931 0cde F3       		.byte	0xf3
 9932 0cdf 01       		.uleb128 0x1
 9933 0ce0 51       		.byte	0x51
 9934 0ce1 9F       		.byte	0x9f
 9935 0ce2 00000000 		.4byte	0
 9936 0ce6 00000000 		.4byte	0
 9937              	.LLST7:
 9938 0cea 00000000 		.4byte	.LVL14
 9939 0cee 1B000000 		.4byte	.LVL16-1
 9940 0cf2 0100     		.2byte	0x1
 9941 0cf4 52       		.byte	0x52
ARM GAS  C:\Users\mathi\AppData\Local\Temp\cceGBsvt.s 			page 176


 9942 0cf5 1B000000 		.4byte	.LVL16-1
 9943 0cf9 76000000 		.4byte	.LVL20
 9944 0cfd 0100     		.2byte	0x1
 9945 0cff 56       		.byte	0x56
 9946 0d00 76000000 		.4byte	.LVL20
 9947 0d04 7A000000 		.4byte	.LVL21
 9948 0d08 0200     		.2byte	0x2
 9949 0d0a 74       		.byte	0x74
 9950 0d0b 08       		.sleb128 8
 9951 0d0c 7A000000 		.4byte	.LVL21
 9952 0d10 A0000000 		.4byte	.LVL25
 9953 0d14 0400     		.2byte	0x4
 9954 0d16 F3       		.byte	0xf3
 9955 0d17 01       		.uleb128 0x1
 9956 0d18 52       		.byte	0x52
 9957 0d19 9F       		.byte	0x9f
 9958 0d1a A0000000 		.4byte	.LVL25
 9959 0d1e AC000000 		.4byte	.LVL26
 9960 0d22 0100     		.2byte	0x1
 9961 0d24 56       		.byte	0x56
 9962 0d25 AC000000 		.4byte	.LVL26
 9963 0d29 C0000000 		.4byte	.LFE221
 9964 0d2d 0400     		.2byte	0x4
 9965 0d2f F3       		.byte	0xf3
 9966 0d30 01       		.uleb128 0x1
 9967 0d31 52       		.byte	0x52
 9968 0d32 9F       		.byte	0x9f
 9969 0d33 00000000 		.4byte	0
 9970 0d37 00000000 		.4byte	0
 9971              	.LLST8:
 9972 0d3b 00000000 		.4byte	.LVL14
 9973 0d3f 1B000000 		.4byte	.LVL16-1
 9974 0d43 0100     		.2byte	0x1
 9975 0d45 53       		.byte	0x53
 9976 0d46 1B000000 		.4byte	.LVL16-1
 9977 0d4a C0000000 		.4byte	.LFE221
 9978 0d4e 0100     		.2byte	0x1
 9979 0d50 58       		.byte	0x58
 9980 0d51 00000000 		.4byte	0
 9981 0d55 00000000 		.4byte	0
 9982              	.LLST9:
 9983 0d59 00000000 		.4byte	.LVL14
 9984 0d5d A0000000 		.4byte	.LVL25
 9985 0d61 0200     		.2byte	0x2
 9986 0d63 91       		.byte	0x91
 9987 0d64 00       		.sleb128 0
 9988 0d65 A0000000 		.4byte	.LVL25
 9989 0d69 C0000000 		.4byte	.LFE221
 9990 0d6d 0200     		.2byte	0x2
 9991 0d6f 91       		.byte	0x91
 9992 0d70 00       		.sleb128 0
 9993 0d71 00000000 		.4byte	0
 9994 0d75 00000000 		.4byte	0
 9995              	.LLST10:
 9996 0d79 0E000000 		.4byte	.LVL15
 9997 0d7d 1B000000 		.4byte	.LVL16-1
 9998 0d81 0100     		.2byte	0x1
ARM GAS  C:\Users\mathi\AppData\Local\Temp\cceGBsvt.s 			page 177


 9999 0d83 50       		.byte	0x50
 10000 0d84 1B000000 		.4byte	.LVL16-1
 10001 0d88 9A000000 		.4byte	.LVL24
 10002 0d8c 0100     		.2byte	0x1
 10003 0d8e 54       		.byte	0x54
 10004 0d8f 9A000000 		.4byte	.LVL24
 10005 0d93 A0000000 		.4byte	.LVL25
 10006 0d97 0100     		.2byte	0x1
 10007 0d99 50       		.byte	0x50
 10008 0d9a A0000000 		.4byte	.LVL25
 10009 0d9e AC000000 		.4byte	.LVL26
 10010 0da2 0100     		.2byte	0x1
 10011 0da4 54       		.byte	0x54
 10012 0da5 AC000000 		.4byte	.LVL26
 10013 0da9 AF000000 		.4byte	.LVL27-1
 10014 0dad 0100     		.2byte	0x1
 10015 0daf 50       		.byte	0x50
 10016 0db0 AF000000 		.4byte	.LVL27-1
 10017 0db4 C0000000 		.4byte	.LFE221
 10018 0db8 0100     		.2byte	0x1
 10019 0dba 54       		.byte	0x54
 10020 0dbb 00000000 		.4byte	0
 10021 0dbf 00000000 		.4byte	0
 10022              	.LLST11:
 10023 0dc3 44000000 		.4byte	.LVL18
 10024 0dc7 76000000 		.4byte	.LVL20
 10025 0dcb 0100     		.2byte	0x1
 10026 0dcd 56       		.byte	0x56
 10027 0dce 76000000 		.4byte	.LVL20
 10028 0dd2 7A000000 		.4byte	.LVL21
 10029 0dd6 0200     		.2byte	0x2
 10030 0dd8 74       		.byte	0x74
 10031 0dd9 08       		.sleb128 8
 10032 0dda 7A000000 		.4byte	.LVL21
 10033 0dde 90000000 		.4byte	.LVL23
 10034 0de2 0400     		.2byte	0x4
 10035 0de4 F3       		.byte	0xf3
 10036 0de5 01       		.uleb128 0x1
 10037 0de6 52       		.byte	0x52
 10038 0de7 9F       		.byte	0x9f
 10039 0de8 00000000 		.4byte	0
 10040 0dec 00000000 		.4byte	0
 10041              	.LLST12:
 10042 0df0 44000000 		.4byte	.LVL18
 10043 0df4 90000000 		.4byte	.LVL23
 10044 0df8 0100     		.2byte	0x1
 10045 0dfa 54       		.byte	0x54
 10046 0dfb 00000000 		.4byte	0
 10047 0dff 00000000 		.4byte	0
 10048              	.LLST63:
 10049 0e03 00000000 		.4byte	.LVL178
 10050 0e07 1A000000 		.4byte	.LVL180
 10051 0e0b 0100     		.2byte	0x1
 10052 0e0d 50       		.byte	0x50
 10053 0e0e 1A000000 		.4byte	.LVL180
 10054 0e12 68000000 		.4byte	.LFE231
 10055 0e16 0400     		.2byte	0x4
ARM GAS  C:\Users\mathi\AppData\Local\Temp\cceGBsvt.s 			page 178


 10056 0e18 F3       		.byte	0xf3
 10057 0e19 01       		.uleb128 0x1
 10058 0e1a 50       		.byte	0x50
 10059 0e1b 9F       		.byte	0x9f
 10060 0e1c 00000000 		.4byte	0
 10061 0e20 00000000 		.4byte	0
 10062              	.LLST64:
 10063 0e24 08000000 		.4byte	.LVL179
 10064 0e28 54000000 		.4byte	.LVL185
 10065 0e2c 0100     		.2byte	0x1
 10066 0e2e 54       		.byte	0x54
 10067 0e2f 58000000 		.4byte	.LVL186
 10068 0e33 68000000 		.4byte	.LFE231
 10069 0e37 0100     		.2byte	0x1
 10070 0e39 54       		.byte	0x54
 10071 0e3a 00000000 		.4byte	0
 10072 0e3e 00000000 		.4byte	0
 10073              	.LLST65:
 10074 0e42 24000000 		.4byte	.LVL182
 10075 0e46 26000000 		.4byte	.LVL183
 10076 0e4a 0100     		.2byte	0x1
 10077 0e4c 55       		.byte	0x55
 10078 0e4d 00000000 		.4byte	0
 10079 0e51 00000000 		.4byte	0
 10080              	.LLST66:
 10081 0e55 1A000000 		.4byte	.LVL180
 10082 0e59 1E000000 		.4byte	.LVL181
 10083 0e5d 0100     		.2byte	0x1
 10084 0e5f 55       		.byte	0x55
 10085 0e60 00000000 		.4byte	0
 10086 0e64 00000000 		.4byte	0
 10087              	.LLST67:
 10088 0e68 1A000000 		.4byte	.LVL180
 10089 0e6c 1E000000 		.4byte	.LVL181
 10090 0e70 0100     		.2byte	0x1
 10091 0e72 53       		.byte	0x53
 10092 0e73 00000000 		.4byte	0
 10093 0e77 00000000 		.4byte	0
 10094              	.LLST80:
 10095 0e7b 00000000 		.4byte	.LVL236
 10096 0e7f 1A000000 		.4byte	.LVL238
 10097 0e83 0100     		.2byte	0x1
 10098 0e85 50       		.byte	0x50
 10099 0e86 1A000000 		.4byte	.LVL238
 10100 0e8a 30000000 		.4byte	.LVL239
 10101 0e8e 0100     		.2byte	0x1
 10102 0e90 56       		.byte	0x56
 10103 0e91 30000000 		.4byte	.LVL239
 10104 0e95 34000000 		.4byte	.LVL240
 10105 0e99 0400     		.2byte	0x4
 10106 0e9b F3       		.byte	0xf3
 10107 0e9c 01       		.uleb128 0x1
 10108 0e9d 50       		.byte	0x50
 10109 0e9e 9F       		.byte	0x9f
 10110 0e9f 34000000 		.4byte	.LVL240
 10111 0ea3 36000000 		.4byte	.LVL241
 10112 0ea7 0100     		.2byte	0x1
ARM GAS  C:\Users\mathi\AppData\Local\Temp\cceGBsvt.s 			page 179


 10113 0ea9 50       		.byte	0x50
 10114 0eaa 36000000 		.4byte	.LVL241
 10115 0eae 3C000000 		.4byte	.LVL243
 10116 0eb2 0100     		.2byte	0x1
 10117 0eb4 56       		.byte	0x56
 10118 0eb5 3C000000 		.4byte	.LVL243
 10119 0eb9 48000000 		.4byte	.LVL244
 10120 0ebd 0100     		.2byte	0x1
 10121 0ebf 50       		.byte	0x50
 10122 0ec0 48000000 		.4byte	.LVL244
 10123 0ec4 54000000 		.4byte	.LFE236
 10124 0ec8 0400     		.2byte	0x4
 10125 0eca F3       		.byte	0xf3
 10126 0ecb 01       		.uleb128 0x1
 10127 0ecc 50       		.byte	0x50
 10128 0ecd 9F       		.byte	0x9f
 10129 0ece 00000000 		.4byte	0
 10130 0ed2 00000000 		.4byte	0
 10131              	.LLST81:
 10132 0ed6 00000000 		.4byte	.LVL236
 10133 0eda 1A000000 		.4byte	.LVL238
 10134 0ede 0100     		.2byte	0x1
 10135 0ee0 51       		.byte	0x51
 10136 0ee1 1A000000 		.4byte	.LVL238
 10137 0ee5 30000000 		.4byte	.LVL239
 10138 0ee9 0100     		.2byte	0x1
 10139 0eeb 57       		.byte	0x57
 10140 0eec 30000000 		.4byte	.LVL239
 10141 0ef0 33000000 		.4byte	.LVL240-1
 10142 0ef4 0100     		.2byte	0x1
 10143 0ef6 51       		.byte	0x51
 10144 0ef7 33000000 		.4byte	.LVL240-1
 10145 0efb 34000000 		.4byte	.LVL240
 10146 0eff 0400     		.2byte	0x4
 10147 0f01 F3       		.byte	0xf3
 10148 0f02 01       		.uleb128 0x1
 10149 0f03 51       		.byte	0x51
 10150 0f04 9F       		.byte	0x9f
 10151 0f05 34000000 		.4byte	.LVL240
 10152 0f09 39000000 		.4byte	.LVL242-1
 10153 0f0d 0100     		.2byte	0x1
 10154 0f0f 51       		.byte	0x51
 10155 0f10 39000000 		.4byte	.LVL242-1
 10156 0f14 3C000000 		.4byte	.LVL243
 10157 0f18 0100     		.2byte	0x1
 10158 0f1a 57       		.byte	0x57
 10159 0f1b 3C000000 		.4byte	.LVL243
 10160 0f1f 48000000 		.4byte	.LVL244
 10161 0f23 0100     		.2byte	0x1
 10162 0f25 51       		.byte	0x51
 10163 0f26 48000000 		.4byte	.LVL244
 10164 0f2a 54000000 		.4byte	.LFE236
 10165 0f2e 0400     		.2byte	0x4
 10166 0f30 F3       		.byte	0xf3
 10167 0f31 01       		.uleb128 0x1
 10168 0f32 51       		.byte	0x51
 10169 0f33 9F       		.byte	0x9f
ARM GAS  C:\Users\mathi\AppData\Local\Temp\cceGBsvt.s 			page 180


 10170 0f34 00000000 		.4byte	0
 10171 0f38 00000000 		.4byte	0
 10172              	.LLST82:
 10173 0f3c 18000000 		.4byte	.LVL237
 10174 0f40 30000000 		.4byte	.LVL239
 10175 0f44 0100     		.2byte	0x1
 10176 0f46 54       		.byte	0x54
 10177 0f47 30000000 		.4byte	.LVL239
 10178 0f4b 33000000 		.4byte	.LVL240-1
 10179 0f4f 0100     		.2byte	0x1
 10180 0f51 50       		.byte	0x50
 10181 0f52 34000000 		.4byte	.LVL240
 10182 0f56 3C000000 		.4byte	.LVL243
 10183 0f5a 0100     		.2byte	0x1
 10184 0f5c 54       		.byte	0x54
 10185 0f5d 00000000 		.4byte	0
 10186 0f61 00000000 		.4byte	0
 10187              		.section	.debug_aranges,"",%progbits
 10188 0000 C4000000 		.4byte	0xc4
 10189 0004 0200     		.2byte	0x2
 10190 0006 00000000 		.4byte	.Ldebug_info0
 10191 000a 04       		.byte	0x4
 10192 000b 00       		.byte	0
 10193 000c 0000     		.2byte	0
 10194 000e 0000     		.2byte	0
 10195 0010 00000000 		.4byte	.LFB219
 10196 0014 74000000 		.4byte	.LFE219-.LFB219
 10197 0018 00000000 		.4byte	.LFB220
 10198 001c 3C000000 		.4byte	.LFE220-.LFB220
 10199 0020 00000000 		.4byte	.LFB221
 10200 0024 C0000000 		.4byte	.LFE221-.LFB221
 10201 0028 00000000 		.4byte	.LFB222
 10202 002c 24010000 		.4byte	.LFE222-.LFB222
 10203 0030 00000000 		.4byte	.LFB223
 10204 0034 7C000000 		.4byte	.LFE223-.LFB223
 10205 0038 00000000 		.4byte	.LFB224
 10206 003c 88000000 		.4byte	.LFE224-.LFB224
 10207 0040 00000000 		.4byte	.LFB225
 10208 0044 6C000000 		.4byte	.LFE225-.LFB225
 10209 0048 00000000 		.4byte	.LFB226
 10210 004c 74000000 		.4byte	.LFE226-.LFB226
 10211 0050 00000000 		.4byte	.LFB227
 10212 0054 6C000000 		.4byte	.LFE227-.LFB227
 10213 0058 00000000 		.4byte	.LFB228
 10214 005c 84000000 		.4byte	.LFE228-.LFB228
 10215 0060 00000000 		.4byte	.LFB229
 10216 0064 74000000 		.4byte	.LFE229-.LFB229
 10217 0068 00000000 		.4byte	.LFB230
 10218 006c 78000000 		.4byte	.LFE230-.LFB230
 10219 0070 00000000 		.4byte	.LFB231
 10220 0074 68000000 		.4byte	.LFE231-.LFB231
 10221 0078 00000000 		.4byte	.LFB232
 10222 007c AC000000 		.4byte	.LFE232-.LFB232
 10223 0080 00000000 		.4byte	.LFB233
 10224 0084 44000000 		.4byte	.LFE233-.LFB233
 10225 0088 00000000 		.4byte	.LFB234
 10226 008c 58000000 		.4byte	.LFE234-.LFB234
ARM GAS  C:\Users\mathi\AppData\Local\Temp\cceGBsvt.s 			page 181


 10227 0090 00000000 		.4byte	.LFB235
 10228 0094 54000000 		.4byte	.LFE235-.LFB235
 10229 0098 00000000 		.4byte	.LFB236
 10230 009c 54000000 		.4byte	.LFE236-.LFB236
 10231 00a0 00000000 		.4byte	.LFB237
 10232 00a4 84000000 		.4byte	.LFE237-.LFB237
 10233 00a8 00000000 		.4byte	.LFB238
 10234 00ac 4C000000 		.4byte	.LFE238-.LFB238
 10235 00b0 00000000 		.4byte	.LFB239
 10236 00b4 54000000 		.4byte	.LFE239-.LFB239
 10237 00b8 00000000 		.4byte	.LFB240
 10238 00bc 5C000000 		.4byte	.LFE240-.LFB240
 10239 00c0 00000000 		.4byte	0
 10240 00c4 00000000 		.4byte	0
 10241              		.section	.debug_ranges,"",%progbits
 10242              	.Ldebug_ranges0:
 10243 0000 38000000 		.4byte	.LBB121
 10244 0004 3A000000 		.4byte	.LBE121
 10245 0008 44000000 		.4byte	.LBB126
 10246 000c 90000000 		.4byte	.LBE126
 10247 0010 00000000 		.4byte	0
 10248 0014 00000000 		.4byte	0
 10249 0018 4A000000 		.4byte	.LBB156
 10250 001c C2000000 		.4byte	.LBE156
 10251 0020 02010000 		.4byte	.LBB172
 10252 0024 0A010000 		.4byte	.LBE172
 10253 0028 00000000 		.4byte	0
 10254 002c 00000000 		.4byte	0
 10255 0030 6C000000 		.4byte	.LBB158
 10256 0034 6E000000 		.4byte	.LBE158
 10257 0038 78000000 		.4byte	.LBB163
 10258 003c C2000000 		.4byte	.LBE163
 10259 0040 00000000 		.4byte	0
 10260 0044 00000000 		.4byte	0
 10261 0048 CA000000 		.4byte	.LBB165
 10262 004c E8000000 		.4byte	.LBE165
 10263 0050 FA000000 		.4byte	.LBB171
 10264 0054 02010000 		.4byte	.LBE171
 10265 0058 00000000 		.4byte	0
 10266 005c 00000000 		.4byte	0
 10267 0060 30000000 		.4byte	.LBB192
 10268 0064 50000000 		.4byte	.LBE192
 10269 0068 5E000000 		.4byte	.LBB198
 10270 006c 66000000 		.4byte	.LBE198
 10271 0070 00000000 		.4byte	0
 10272 0074 00000000 		.4byte	0
 10273 0078 10000000 		.4byte	.LBB209
 10274 007c 16000000 		.4byte	.LBE209
 10275 0080 18000000 		.4byte	.LBB215
 10276 0084 20000000 		.4byte	.LBE215
 10277 0088 00000000 		.4byte	0
 10278 008c 00000000 		.4byte	0
 10279 0090 38000000 		.4byte	.LBB216
 10280 0094 56000000 		.4byte	.LBE216
 10281 0098 64000000 		.4byte	.LBB222
 10282 009c 6C000000 		.4byte	.LBE222
 10283 00a0 00000000 		.4byte	0
ARM GAS  C:\Users\mathi\AppData\Local\Temp\cceGBsvt.s 			page 182


 10284 00a4 00000000 		.4byte	0
 10285 00a8 26000000 		.4byte	.LBB238
 10286 00ac 46000000 		.4byte	.LBE238
 10287 00b0 52000000 		.4byte	.LBB244
 10288 00b4 5A000000 		.4byte	.LBE244
 10289 00b8 00000000 		.4byte	0
 10290 00bc 00000000 		.4byte	0
 10291 00c0 2A000000 		.4byte	.LBB264
 10292 00c4 4A000000 		.4byte	.LBE264
 10293 00c8 56000000 		.4byte	.LBB270
 10294 00cc 5E000000 		.4byte	.LBE270
 10295 00d0 00000000 		.4byte	0
 10296 00d4 00000000 		.4byte	0
 10297 00d8 0C000000 		.4byte	.LBB285
 10298 00dc 12000000 		.4byte	.LBE285
 10299 00e0 14000000 		.4byte	.LBB294
 10300 00e4 1C000000 		.4byte	.LBE294
 10301 00e8 00000000 		.4byte	0
 10302 00ec 00000000 		.4byte	0
 10303 00f0 12000000 		.4byte	.LBB291
 10304 00f4 14000000 		.4byte	.LBE291
 10305 00f8 1C000000 		.4byte	.LBB295
 10306 00fc 1E000000 		.4byte	.LBE295
 10307 0100 00000000 		.4byte	0
 10308 0104 00000000 		.4byte	0
 10309 0108 28000000 		.4byte	.LBB298
 10310 010c 46000000 		.4byte	.LBE298
 10311 0110 52000000 		.4byte	.LBB304
 10312 0114 5A000000 		.4byte	.LBE304
 10313 0118 00000000 		.4byte	0
 10314 011c 00000000 		.4byte	0
 10315 0120 0E000000 		.4byte	.LBB321
 10316 0124 14000000 		.4byte	.LBE321
 10317 0128 16000000 		.4byte	.LBB330
 10318 012c 1E000000 		.4byte	.LBE330
 10319 0130 00000000 		.4byte	0
 10320 0134 00000000 		.4byte	0
 10321 0138 14000000 		.4byte	.LBB327
 10322 013c 16000000 		.4byte	.LBE327
 10323 0140 1E000000 		.4byte	.LBB331
 10324 0144 20000000 		.4byte	.LBE331
 10325 0148 00000000 		.4byte	0
 10326 014c 00000000 		.4byte	0
 10327 0150 28000000 		.4byte	.LBB334
 10328 0154 46000000 		.4byte	.LBE334
 10329 0158 54000000 		.4byte	.LBB340
 10330 015c 5C000000 		.4byte	.LBE340
 10331 0160 00000000 		.4byte	0
 10332 0164 00000000 		.4byte	0
 10333 0168 0A000000 		.4byte	.LBB357
 10334 016c 10000000 		.4byte	.LBE357
 10335 0170 12000000 		.4byte	.LBB370
 10336 0174 1A000000 		.4byte	.LBE370
 10337 0178 00000000 		.4byte	0
 10338 017c 00000000 		.4byte	0
 10339 0180 10000000 		.4byte	.LBB363
 10340 0184 12000000 		.4byte	.LBE363
ARM GAS  C:\Users\mathi\AppData\Local\Temp\cceGBsvt.s 			page 183


 10341 0188 1A000000 		.4byte	.LBB371
 10342 018c 32000000 		.4byte	.LBE371
 10343 0190 00000000 		.4byte	0
 10344 0194 00000000 		.4byte	0
 10345 0198 10000000 		.4byte	.LBB365
 10346 019c 12000000 		.4byte	.LBE365
 10347 01a0 1E000000 		.4byte	.LBB368
 10348 01a4 26000000 		.4byte	.LBE368
 10349 01a8 00000000 		.4byte	0
 10350 01ac 00000000 		.4byte	0
 10351 01b0 32000000 		.4byte	.LBB372
 10352 01b4 50000000 		.4byte	.LBE372
 10353 01b8 5C000000 		.4byte	.LBB378
 10354 01bc 64000000 		.4byte	.LBE378
 10355 01c0 00000000 		.4byte	0
 10356 01c4 00000000 		.4byte	0
 10357 01c8 1A000000 		.4byte	.LBB395
 10358 01cc 5C000000 		.4byte	.LBE395
 10359 01d0 62000000 		.4byte	.LBB404
 10360 01d4 78000000 		.4byte	.LBE404
 10361 01d8 00000000 		.4byte	0
 10362 01dc 00000000 		.4byte	0
 10363 01e0 1E000000 		.4byte	.LBB397
 10364 01e4 20000000 		.4byte	.LBE397
 10365 01e8 32000000 		.4byte	.LBB402
 10366 01ec 34000000 		.4byte	.LBE402
 10367 01f0 00000000 		.4byte	0
 10368 01f4 00000000 		.4byte	0
 10369 01f8 0A000000 		.4byte	.LBB405
 10370 01fc 0C000000 		.4byte	.LBE405
 10371 0200 24000000 		.4byte	.LBB410
 10372 0204 26000000 		.4byte	.LBE410
 10373 0208 00000000 		.4byte	0
 10374 020c 00000000 		.4byte	0
 10375 0210 10000000 		.4byte	.LBB423
 10376 0214 16000000 		.4byte	.LBE423
 10377 0218 18000000 		.4byte	.LBB429
 10378 021c 20000000 		.4byte	.LBE429
 10379 0220 00000000 		.4byte	0
 10380 0224 00000000 		.4byte	0
 10381 0228 36000000 		.4byte	.LBB430
 10382 022c 3A000000 		.4byte	.LBE430
 10383 0230 3C000000 		.4byte	.LBB433
 10384 0234 3E000000 		.4byte	.LBE433
 10385 0238 00000000 		.4byte	0
 10386 023c 00000000 		.4byte	0
 10387 0240 44000000 		.4byte	.LBB434
 10388 0244 62000000 		.4byte	.LBE434
 10389 0248 76000000 		.4byte	.LBB440
 10390 024c 7E000000 		.4byte	.LBE440
 10391 0250 00000000 		.4byte	0
 10392 0254 00000000 		.4byte	0
 10393 0258 04000000 		.4byte	.LBB441
 10394 025c 06000000 		.4byte	.LBE441
 10395 0260 0A000000 		.4byte	.LBB444
 10396 0264 0C000000 		.4byte	.LBE444
 10397 0268 00000000 		.4byte	0
ARM GAS  C:\Users\mathi\AppData\Local\Temp\cceGBsvt.s 			page 184


 10398 026c 00000000 		.4byte	0
 10399 0270 06000000 		.4byte	.LBB445
 10400 0274 08000000 		.4byte	.LBE445
 10401 0278 12000000 		.4byte	.LBB448
 10402 027c 14000000 		.4byte	.LBE448
 10403 0280 00000000 		.4byte	0
 10404 0284 00000000 		.4byte	0
 10405 0288 0E000000 		.4byte	.LBB449
 10406 028c 2A000000 		.4byte	.LBE449
 10407 0290 30000000 		.4byte	.LBB450
 10408 0294 3C000000 		.4byte	.LBE450
 10409 0298 00000000 		.4byte	0
 10410 029c 00000000 		.4byte	0
 10411 02a0 0E000000 		.4byte	.LBB452
 10412 02a4 2A000000 		.4byte	.LBE452
 10413 02a8 30000000 		.4byte	.LBB453
 10414 02ac 3C000000 		.4byte	.LBE453
 10415 02b0 00000000 		.4byte	0
 10416 02b4 00000000 		.4byte	0
 10417 02b8 1C000000 		.4byte	.LBB472
 10418 02bc 34000000 		.4byte	.LBE472
 10419 02c0 60000000 		.4byte	.LBB483
 10420 02c4 68000000 		.4byte	.LBE483
 10421 02c8 00000000 		.4byte	0
 10422 02cc 00000000 		.4byte	0
 10423 02d0 20000000 		.4byte	.LBB474
 10424 02d4 34000000 		.4byte	.LBE474
 10425 02d8 60000000 		.4byte	.LBB475
 10426 02dc 68000000 		.4byte	.LBE475
 10427 02e0 00000000 		.4byte	0
 10428 02e4 00000000 		.4byte	0
 10429 02e8 34000000 		.4byte	.LBB477
 10430 02ec 54000000 		.4byte	.LBE477
 10431 02f0 68000000 		.4byte	.LBB484
 10432 02f4 70000000 		.4byte	.LBE484
 10433 02f8 00000000 		.4byte	0
 10434 02fc 00000000 		.4byte	0
 10435 0300 12000000 		.4byte	.LBB485
 10436 0304 1A000000 		.4byte	.LBE485
 10437 0308 1C000000 		.4byte	.LBB488
 10438 030c 1E000000 		.4byte	.LBE488
 10439 0310 00000000 		.4byte	0
 10440 0314 00000000 		.4byte	0
 10441 0318 10000000 		.4byte	.LBB499
 10442 031c 32000000 		.4byte	.LBE499
 10443 0320 38000000 		.4byte	.LBB504
 10444 0324 3C000000 		.4byte	.LBE504
 10445 0328 00000000 		.4byte	0
 10446 032c 00000000 		.4byte	0
 10447 0330 08000000 		.4byte	.LBB513
 10448 0334 0A000000 		.4byte	.LBE513
 10449 0338 38000000 		.4byte	.LBB520
 10450 033c 3A000000 		.4byte	.LBE520
 10451 0340 00000000 		.4byte	0
 10452 0344 00000000 		.4byte	0
 10453 0348 00000000 		.4byte	.LFB219
 10454 034c 74000000 		.4byte	.LFE219
ARM GAS  C:\Users\mathi\AppData\Local\Temp\cceGBsvt.s 			page 185


 10455 0350 00000000 		.4byte	.LFB220
 10456 0354 3C000000 		.4byte	.LFE220
 10457 0358 00000000 		.4byte	.LFB221
 10458 035c C0000000 		.4byte	.LFE221
 10459 0360 00000000 		.4byte	.LFB222
 10460 0364 24010000 		.4byte	.LFE222
 10461 0368 00000000 		.4byte	.LFB223
 10462 036c 7C000000 		.4byte	.LFE223
 10463 0370 00000000 		.4byte	.LFB224
 10464 0374 88000000 		.4byte	.LFE224
 10465 0378 00000000 		.4byte	.LFB225
 10466 037c 6C000000 		.4byte	.LFE225
 10467 0380 00000000 		.4byte	.LFB226
 10468 0384 74000000 		.4byte	.LFE226
 10469 0388 00000000 		.4byte	.LFB227
 10470 038c 6C000000 		.4byte	.LFE227
 10471 0390 00000000 		.4byte	.LFB228
 10472 0394 84000000 		.4byte	.LFE228
 10473 0398 00000000 		.4byte	.LFB229
 10474 039c 74000000 		.4byte	.LFE229
 10475 03a0 00000000 		.4byte	.LFB230
 10476 03a4 78000000 		.4byte	.LFE230
 10477 03a8 00000000 		.4byte	.LFB231
 10478 03ac 68000000 		.4byte	.LFE231
 10479 03b0 00000000 		.4byte	.LFB232
 10480 03b4 AC000000 		.4byte	.LFE232
 10481 03b8 00000000 		.4byte	.LFB233
 10482 03bc 44000000 		.4byte	.LFE233
 10483 03c0 00000000 		.4byte	.LFB234
 10484 03c4 58000000 		.4byte	.LFE234
 10485 03c8 00000000 		.4byte	.LFB235
 10486 03cc 54000000 		.4byte	.LFE235
 10487 03d0 00000000 		.4byte	.LFB236
 10488 03d4 54000000 		.4byte	.LFE236
 10489 03d8 00000000 		.4byte	.LFB237
 10490 03dc 84000000 		.4byte	.LFE237
 10491 03e0 00000000 		.4byte	.LFB238
 10492 03e4 4C000000 		.4byte	.LFE238
 10493 03e8 00000000 		.4byte	.LFB239
 10494 03ec 54000000 		.4byte	.LFE239
 10495 03f0 00000000 		.4byte	.LFB240
 10496 03f4 5C000000 		.4byte	.LFE240
 10497 03f8 00000000 		.4byte	0
 10498 03fc 00000000 		.4byte	0
 10499              		.section	.debug_line,"",%progbits
 10500              	.Ldebug_line0:
 10501 0000 490A0000 		.section	.debug_str,"MS",%progbits,1
 10501      0200E003 
 10501      00000201 
 10501      FB0E0D00 
 10501      01010101 
 10502              	.LASF54:
 10503 0000 705F7374 		.ascii	"p_stats\000"
 10503      61747300 
 10504              	.LASF4:
 10505 0008 73697A65 		.ascii	"size_t\000"
 10505      5F7400
ARM GAS  C:\Users\mathi\AppData\Local\Temp\cceGBsvt.s 			page 186


 10506              	.LASF124:
 10507 000f 77747365 		.ascii	"wtsemp\000"
 10507      6D7000
 10508              	.LASF148:
 10509 0016 63665F6F 		.ascii	"cf_off_name\000"
 10509      66665F6E 
 10509      616D6500 
 10510              	.LASF32:
 10511 0022 73797374 		.ascii	"systime_t\000"
 10511      696D655F 
 10511      7400
 10512              	.LASF137:
 10513 002c 63685F69 		.ascii	"ch_identifier\000"
 10513      64656E74 
 10513      69666965 
 10513      7200
 10514              	.LASF37:
 10515 003a 705F6374 		.ascii	"p_ctx\000"
 10515      7800
 10516              	.LASF27:
 10517 0040 74707269 		.ascii	"tprio_t\000"
 10517      6F5F7400 
 10518              	.LASF179:
 10519 0048 63685468 		.ascii	"chThdSetPriority\000"
 10519      64536574 
 10519      5072696F 
 10519      72697479 
 10519      00
 10520              	.LASF156:
 10521 0059 63685F64 		.ascii	"ch_debug\000"
 10521      65627567 
 10521      00
 10522              	.LASF48:
 10523 0062 705F6D73 		.ascii	"p_msgqueue\000"
 10523      67717565 
 10523      756500
 10524              	.LASF65:
 10525 006d 725F6374 		.ascii	"r_ctx\000"
 10525      7800
 10526              	.LASF18:
 10527 0073 696E7433 		.ascii	"int32_t\000"
 10527      325F7400 
 10528              	.LASF158:
 10529 007b 63685468 		.ascii	"chThdDequeueAllI\000"
 10529      64446571 
 10529      75657565 
 10529      416C6C49 
 10529      00
 10530              	.LASF163:
 10531 008c 63685468 		.ascii	"chThdResumeI\000"
 10531      64526573 
 10531      756D6549 
 10531      00
 10532              	.LASF192:
 10533 0099 63685468 		.ascii	"chThdSleepS\000"
 10533      64536C65 
 10533      65705300 
ARM GAS  C:\Users\mathi\AppData\Local\Temp\cceGBsvt.s 			page 187


 10534              	.LASF145:
 10535 00a5 63665F6F 		.ascii	"cf_off_ctx\000"
 10535      66665F63 
 10535      747800
 10536              	.LASF69:
 10537 00b0 76746675 		.ascii	"vtfunc_t\000"
 10537      6E635F74 
 10537      00
 10538              	.LASF168:
 10539 00b9 63685468 		.ascii	"chThdResumeS\000"
 10539      64526573 
 10539      756D6553 
 10539      00
 10540              	.LASF78:
 10541 00c6 63685F76 		.ascii	"ch_virtual_timers_list\000"
 10541      69727475 
 10541      616C5F74 
 10541      696D6572 
 10541      735F6C69 
 10542              	.LASF216:
 10543 00dd 63685363 		.ascii	"chSchReadyI\000"
 10543      68526561 
 10543      64794900 
 10544              	.LASF162:
 10545 00e9 5F5F6675 		.ascii	"__func__\000"
 10545      6E635F5F 
 10545      00
 10546              	.LASF203:
 10547 00f2 71756575 		.ascii	"queue_fifo_remove\000"
 10547      655F6669 
 10547      666F5F72 
 10547      656D6F76 
 10547      6500
 10548              	.LASF84:
 10549 0104 6C6F636B 		.ascii	"lock_cnt\000"
 10549      5F636E74 
 10549      00
 10550              	.LASF141:
 10551 010d 63685F70 		.ascii	"ch_ptrsize\000"
 10551      74727369 
 10551      7A6500
 10552              	.LASF224:
 10553 0118 63685468 		.ascii	"chThdRelease\000"
 10553      6452656C 
 10553      65617365 
 10553      00
 10554              	.LASF100:
 10555 0125 73655F74 		.ascii	"se_tp\000"
 10555      7000
 10556              	.LASF114:
 10557 012b 74696D65 		.ascii	"time_measurement_t\000"
 10557      5F6D6561 
 10557      73757265 
 10557      6D656E74 
 10557      5F7400
 10558              	.LASF207:
 10559 013e 71756575 		.ascii	"queue_notempty\000"
ARM GAS  C:\Users\mathi\AppData\Local\Temp\cceGBsvt.s 			page 188


 10559      655F6E6F 
 10559      74656D70 
 10559      747900
 10560              	.LASF185:
 10561 014d 7072696F 		.ascii	"prio\000"
 10561      00
 10562              	.LASF221:
 10563 0152 5F646267 		.ascii	"_dbg_check_unlock\000"
 10563      5F636865 
 10563      636B5F75 
 10563      6E6C6F63 
 10563      6B00
 10564              	.LASF132:
 10565 0164 6D5F6F77 		.ascii	"m_owner\000"
 10565      6E657200 
 10566              	.LASF76:
 10567 016c 76745F70 		.ascii	"vt_par\000"
 10567      617200
 10568              	.LASF121:
 10569 0173 65786974 		.ascii	"exitcode\000"
 10569      636F6465 
 10569      00
 10570              	.LASF5:
 10571 017c 5F5F7569 		.ascii	"__uint8_t\000"
 10571      6E74385F 
 10571      7400
 10572              	.LASF126:
 10573 0186 65776D61 		.ascii	"ewmask\000"
 10573      736B00
 10574              	.LASF143:
 10575 018d 63685F74 		.ascii	"ch_threadsize\000"
 10575      68726561 
 10575      6473697A 
 10575      6500
 10576              	.LASF166:
 10577 019b 63685468 		.ascii	"chThdSuspendS\000"
 10577      64537573 
 10577      70656E64 
 10577      5300
 10578              	.LASF38:
 10579 01a9 705F6E65 		.ascii	"p_newer\000"
 10579      77657200 
 10580              	.LASF11:
 10581 01b1 6C6F6E67 		.ascii	"long int\000"
 10581      20696E74 
 10581      00
 10582              	.LASF34:
 10583 01ba 705F6E65 		.ascii	"p_next\000"
 10583      787400
 10584              	.LASF211:
 10585 01c1 706F7274 		.ascii	"port_unlock\000"
 10585      5F756E6C 
 10585      6F636B00 
 10586              	.LASF150:
 10587 01cd 63665F6F 		.ascii	"cf_off_state\000"
 10587      66665F73 
 10587      74617465 
ARM GAS  C:\Users\mathi\AppData\Local\Temp\cceGBsvt.s 			page 189


 10587      00
 10588              	.LASF164:
 10589 01da 63685468 		.ascii	"chThdEnqueueTimeoutS\000"
 10589      64456E71 
 10589      75657565 
 10589      54696D65 
 10589      6F757453 
 10590              	.LASF35:
 10591 01ef 705F7072 		.ascii	"p_prev\000"
 10591      657600
 10592              	.LASF236:
 10593 01f6 5F5F6275 		.ascii	"__builtin_memset\000"
 10593      696C7469 
 10593      6E5F6D65 
 10593      6D736574 
 10593      00
 10594              	.LASF24:
 10595 0207 74737461 		.ascii	"tstate_t\000"
 10595      74655F74 
 10595      00
 10596              	.LASF22:
 10597 0210 72747469 		.ascii	"rttime_t\000"
 10597      6D655F74 
 10597      00
 10598              	.LASF59:
 10599 0219 74687265 		.ascii	"threads_queue_t\000"
 10599      6164735F 
 10599      71756575 
 10599      655F7400 
 10600              	.LASF51:
 10601 0229 705F6D74 		.ascii	"p_mtxlist\000"
 10601      786C6973 
 10601      7400
 10602              	.LASF95:
 10603 0233 72656761 		.ascii	"regarm_t\000"
 10603      726D5F74 
 10603      00
 10604              	.LASF225:
 10605 023c 63684462 		.ascii	"chDbgCheckClassS\000"
 10605      67436865 
 10605      636B436C 
 10605      61737353 
 10605      00
 10606              	.LASF233:
 10607 024d 433A5C55 		.ascii	"C:\\Users\\mathi\\Documents\\robotique\\robotics_pr"
 10607      73657273 
 10607      5C6D6174 
 10607      68695C44 
 10607      6F63756D 
 10608 027b 6F6A6563 		.ascii	"oject\\robotics_project\\robotics_project\000"
 10608      745C726F 
 10608      626F7469 
 10608      63735F70 
 10608      726F6A65 
 10609              	.LASF165:
 10610 02a3 63685468 		.ascii	"chThdSuspendTimeoutS\000"
 10610      64537573 
ARM GAS  C:\Users\mathi\AppData\Local\Temp\cceGBsvt.s 			page 190


 10610      70656E64 
 10610      54696D65 
 10610      6F757453 
 10611              	.LASF222:
 10612 02b8 5F737461 		.ascii	"_stats_stop_measure_crit_thd\000"
 10612      74735F73 
 10612      746F705F 
 10612      6D656173 
 10612      7572655F 
 10613              	.LASF113:
 10614 02d5 63756D75 		.ascii	"cumulative\000"
 10614      6C617469 
 10614      766500
 10615              	.LASF3:
 10616 02e0 7369676E 		.ascii	"signed char\000"
 10616      65642063 
 10616      68617200 
 10617              	.LASF45:
 10618 02ec 705F7072 		.ascii	"p_preempt\000"
 10618      65656D70 
 10618      7400
 10619              	.LASF16:
 10620 02f6 75696E74 		.ascii	"uint8_t\000"
 10620      385F7400 
 10621              	.LASF29:
 10622 02fe 6576656E 		.ascii	"eventmask_t\000"
 10622      746D6173 
 10622      6B5F7400 
 10623              	.LASF97:
 10624 030a 636F6E74 		.ascii	"context\000"
 10624      65787400 
 10625              	.LASF123:
 10626 0312 77747472 		.ascii	"wttrp\000"
 10626      7000
 10627              	.LASF6:
 10628 0318 756E7369 		.ascii	"unsigned char\000"
 10628      676E6564 
 10628      20636861 
 10628      7200
 10629              	.LASF202:
 10630 0326 63685363 		.ascii	"chSchCanYieldS\000"
 10630      6843616E 
 10630      5969656C 
 10630      645300
 10631              	.LASF82:
 10632 0335 70616E69 		.ascii	"panic_msg\000"
 10632      635F6D73 
 10632      6700
 10633              	.LASF85:
 10634 033f 74726163 		.ascii	"trace_buffer\000"
 10634      655F6275 
 10634      66666572 
 10634      00
 10635              	.LASF66:
 10636 034c 725F6E65 		.ascii	"r_newer\000"
 10636      77657200 
 10637              	.LASF80:
ARM GAS  C:\Users\mathi\AppData\Local\Temp\cceGBsvt.s 			page 191


 10638 0354 73797374 		.ascii	"system_debug_t\000"
 10638      656D5F64 
 10638      65627567 
 10638      5F7400
 10639              	.LASF196:
 10640 0363 5F426F6F 		.ascii	"_Bool\000"
 10640      6C00
 10641              	.LASF230:
 10642 0369 63684462 		.ascii	"chDbgCheckClassI\000"
 10642      67436865 
 10642      636B436C 
 10642      61737349 
 10642      00
 10643              	.LASF220:
 10644 037a 63685363 		.ascii	"chSchWakeupS\000"
 10644      6857616B 
 10644      65757053 
 10644      00
 10645              	.LASF214:
 10646 0387 76616C75 		.ascii	"value\000"
 10646      6500
 10647              	.LASF135:
 10648 038d 63686172 		.ascii	"char\000"
 10648      00
 10649              	.LASF134:
 10650 0392 6D5F636E 		.ascii	"m_cnt\000"
 10650      7400
 10651              	.LASF36:
 10652 0398 705F7072 		.ascii	"p_prio\000"
 10652      696F00
 10653              	.LASF8:
 10654 039f 5F5F7569 		.ascii	"__uint16_t\000"
 10654      6E743136 
 10654      5F7400
 10655              	.LASF122:
 10656 03aa 77746F62 		.ascii	"wtobjp\000"
 10656      6A7000
 10657              	.LASF116:
 10658 03b1 6E5F6374 		.ascii	"n_ctxswc\000"
 10658      78737763 
 10658      00
 10659              	.LASF146:
 10660 03ba 63665F6F 		.ascii	"cf_off_newer\000"
 10660      66665F6E 
 10660      65776572 
 10660      00
 10661              	.LASF96:
 10662 03c7 73746B61 		.ascii	"stkalign_t\000"
 10662      6C69676E 
 10662      5F7400
 10663              	.LASF228:
 10664 03d2 6368544D 		.ascii	"chTMObjectInit\000"
 10664      4F626A65 
 10664      6374496E 
 10664      697400
 10665              	.LASF144:
 10666 03e1 63665F6F 		.ascii	"cf_off_prio\000"
ARM GAS  C:\Users\mathi\AppData\Local\Temp\cceGBsvt.s 			page 192


 10666      66665F70 
 10666      72696F00 
 10667              	.LASF111:
 10668 03ed 776F7273 		.ascii	"worst\000"
 10668      7400
 10669              	.LASF229:
 10670 03f3 6368544D 		.ascii	"chTMStartMeasurementX\000"
 10670      53746172 
 10670      744D6561 
 10670      73757265 
 10670      6D656E74 
 10671              	.LASF30:
 10672 0409 636E745F 		.ascii	"cnt_t\000"
 10672      7400
 10673              	.LASF177:
 10674 040f 63685468 		.ascii	"chThdSleep\000"
 10674      64536C65 
 10674      657000
 10675              	.LASF75:
 10676 041a 76745F66 		.ascii	"vt_func\000"
 10676      756E6300 
 10677              	.LASF107:
 10678 0422 63685F74 		.ascii	"ch_trace_buffer_t\000"
 10678      72616365 
 10678      5F627566 
 10678      6665725F 
 10678      7400
 10679              	.LASF50:
 10680 0434 705F6570 		.ascii	"p_epending\000"
 10680      656E6469 
 10680      6E6700
 10681              	.LASF125:
 10682 043f 77746D74 		.ascii	"wtmtxp\000"
 10682      787000
 10683              	.LASF62:
 10684 0446 63685F72 		.ascii	"ch_ready_list\000"
 10684      65616479 
 10684      5F6C6973 
 10684      7400
 10685              	.LASF83:
 10686 0454 6973725F 		.ascii	"isr_cnt\000"
 10686      636E7400 
 10687              	.LASF161:
 10688 045c 63685468 		.ascii	"chThdResume\000"
 10688      64526573 
 10688      756D6500 
 10689              	.LASF118:
 10690 0468 6D5F6372 		.ascii	"m_crit_isr\000"
 10690      69745F69 
 10690      737200
 10691              	.LASF102:
 10692 0473 73655F73 		.ascii	"se_state\000"
 10692      74617465 
 10692      00
 10693              	.LASF117:
 10694 047c 6D5F6372 		.ascii	"m_crit_thd\000"
 10694      69745F74 
ARM GAS  C:\Users\mathi\AppData\Local\Temp\cceGBsvt.s 			page 193


 10694      686400
 10695              	.LASF14:
 10696 0487 5F5F7569 		.ascii	"__uint64_t\000"
 10696      6E743634 
 10696      5F7400
 10697              	.LASF199:
 10698 0492 63685379 		.ascii	"chSysUnlock\000"
 10698      73556E6C 
 10698      6F636B00 
 10699              	.LASF13:
 10700 049e 6C6F6E67 		.ascii	"long unsigned int\000"
 10700      20756E73 
 10700      69676E65 
 10700      6420696E 
 10700      7400
 10701              	.LASF138:
 10702 04b0 63685F7A 		.ascii	"ch_zero\000"
 10702      65726F00 
 10703              	.LASF200:
 10704 04b8 63685379 		.ascii	"chSysLock\000"
 10704      734C6F63 
 10704      6B00
 10705              	.LASF94:
 10706 04c2 53797374 		.ascii	"SystemCoreClock\000"
 10706      656D436F 
 10706      7265436C 
 10706      6F636B00 
 10707              	.LASF127:
 10708 04d2 63685F73 		.ascii	"ch_semaphore\000"
 10708      656D6170 
 10708      686F7265 
 10708      00
 10709              	.LASF57:
 10710 04df 63685F74 		.ascii	"ch_thread\000"
 10710      68726561 
 10710      6400
 10711              	.LASF77:
 10712 04e9 76697274 		.ascii	"virtual_timers_list_t\000"
 10712      75616C5F 
 10712      74696D65 
 10712      72735F6C 
 10712      6973745F 
 10713              	.LASF70:
 10714 04ff 76697274 		.ascii	"virtual_timer_t\000"
 10714      75616C5F 
 10714      74696D65 
 10714      725F7400 
 10715              	.LASF61:
 10716 050f 72656164 		.ascii	"ready_list_t\000"
 10716      795F6C69 
 10716      73745F74 
 10716      00
 10717              	.LASF31:
 10718 051c 75636E74 		.ascii	"ucnt_t\000"
 10718      5F7400
 10719              	.LASF231:
 10720 0523 474E5520 		.ascii	"GNU C11 7.2.1 20170904 (release) [ARM/embedded-7-br"
ARM GAS  C:\Users\mathi\AppData\Local\Temp\cceGBsvt.s 			page 194


 10720      43313120 
 10720      372E322E 
 10720      31203230 
 10720      31373039 
 10721 0556 616E6368 		.ascii	"anch revision 255204] -mcpu=cortex-m4 -mfloat-abi=h"
 10721      20726576 
 10721      6973696F 
 10721      6E203235 
 10721      35323034 
 10722 0589 61726420 		.ascii	"ard -mfpu=fpv4-sp-d16 -mno-thumb-interwork -mthumb "
 10722      2D6D6670 
 10722      753D6670 
 10722      76342D73 
 10722      702D6431 
 10723 05bc 2D676764 		.ascii	"-ggdb -O3 -fomit-frame-pointer -falign-functions=16"
 10723      62202D4F 
 10723      33202D66 
 10723      6F6D6974 
 10723      2D667261 
 10724 05ef 202D666E 		.ascii	" -fno-strict-aliasing -fstack-protector-all -ffunct"
 10724      6F2D7374 
 10724      72696374 
 10724      2D616C69 
 10724      6173696E 
 10725 0622 696F6E2D 		.ascii	"ion-sections -fdata-sections -fno-common -fsingle-p"
 10725      73656374 
 10725      696F6E73 
 10725      202D6664 
 10725      6174612D 
 10726 0655 72656369 		.ascii	"recision-constant\000"
 10726      73696F6E 
 10726      2D636F6E 
 10726      7374616E 
 10726      7400
 10727              	.LASF183:
 10728 0667 63685468 		.ascii	"chThdCreateStatic\000"
 10728      64437265 
 10728      61746553 
 10728      74617469 
 10728      6300
 10729              	.LASF58:
 10730 0679 63685F74 		.ascii	"ch_threads_list\000"
 10730      68726561 
 10730      64735F6C 
 10730      69737400 
 10731              	.LASF103:
 10732 0689 63685F73 		.ascii	"ch_swc_event_t\000"
 10732      77635F65 
 10732      76656E74 
 10732      5F7400
 10733              	.LASF209:
 10734 0698 6C697374 		.ascii	"list_notempty\000"
 10734      5F6E6F74 
 10734      656D7074 
 10734      7900
 10735              	.LASF115:
 10736 06a6 6E5F6972 		.ascii	"n_irq\000"
ARM GAS  C:\Users\mathi\AppData\Local\Temp\cceGBsvt.s 			page 195


 10736      7100
 10737              	.LASF205:
 10738 06ac 6C697374 		.ascii	"list_remove\000"
 10738      5F72656D 
 10738      6F766500 
 10739              	.LASF153:
 10740 06b8 63665F6F 		.ascii	"cf_off_preempt\000"
 10740      66665F70 
 10740      7265656D 
 10740      707400
 10741              	.LASF227:
 10742 06c7 63685363 		.ascii	"chSchRescheduleS\000"
 10742      68526573 
 10742      63686564 
 10742      756C6553 
 10742      00
 10743              	.LASF12:
 10744 06d8 5F5F7569 		.ascii	"__uint32_t\000"
 10744      6E743332 
 10744      5F7400
 10745              	.LASF234:
 10746 06e3 5F5F7374 		.ascii	"__stack_chk_fail\000"
 10746      61636B5F 
 10746      63686B5F 
 10746      6661696C 
 10746      00
 10747              	.LASF1:
 10748 06f4 6C6F6E67 		.ascii	"long long int\000"
 10748      206C6F6E 
 10748      6720696E 
 10748      7400
 10749              	.LASF140:
 10750 0702 63685F76 		.ascii	"ch_version\000"
 10750      65727369 
 10750      6F6E00
 10751              	.LASF131:
 10752 070d 6D5F7175 		.ascii	"m_queue\000"
 10752      65756500 
 10753              	.LASF72:
 10754 0715 76745F6E 		.ascii	"vt_next\000"
 10754      65787400 
 10755              	.LASF171:
 10756 071d 63685468 		.ascii	"chThdYield\000"
 10756      64596965 
 10756      6C6400
 10757              	.LASF73:
 10758 0728 76745F70 		.ascii	"vt_prev\000"
 10758      72657600 
 10759              	.LASF104:
 10760 0730 74625F73 		.ascii	"tb_size\000"
 10760      697A6500 
 10761              	.LASF193:
 10762 0738 63685468 		.ascii	"chThdStartI\000"
 10762      64537461 
 10762      72744900 
 10763              	.LASF201:
 10764 0744 63685363 		.ascii	"chSchDoYieldS\000"
ARM GAS  C:\Users\mathi\AppData\Local\Temp\cceGBsvt.s 			page 196


 10764      68446F59 
 10764      69656C64 
 10764      5300
 10765              	.LASF93:
 10766 0752 49544D5F 		.ascii	"ITM_RxBuffer\000"
 10766      52784275 
 10766      66666572 
 10766      00
 10767              	.LASF136:
 10768 075f 7466756E 		.ascii	"tfunc_t\000"
 10768      635F7400 
 10769              	.LASF160:
 10770 0767 74696D65 		.ascii	"timeout\000"
 10770      6F757400 
 10771              	.LASF159:
 10772 076f 63685468 		.ascii	"chThdDequeueNextI\000"
 10772      64446571 
 10772      75657565 
 10772      4E657874 
 10772      4900
 10773              	.LASF206:
 10774 0781 6C697374 		.ascii	"list_insert\000"
 10774      5F696E73 
 10774      65727400 
 10775              	.LASF47:
 10776 078d 705F7761 		.ascii	"p_waiting\000"
 10776      6974696E 
 10776      6700
 10777              	.LASF101:
 10778 0797 73655F77 		.ascii	"se_wtobjp\000"
 10778      746F626A 
 10778      7000
 10779              	.LASF43:
 10780 07a1 705F666C 		.ascii	"p_flags\000"
 10780      61677300 
 10781              	.LASF92:
 10782 07a9 69646C65 		.ascii	"idle_thread_wa\000"
 10782      5F746872 
 10782      6561645F 
 10782      776100
 10783              	.LASF0:
 10784 07b8 756E7369 		.ascii	"unsigned int\000"
 10784      676E6564 
 10784      20696E74 
 10784      00
 10785              	.LASF172:
 10786 07c5 63685468 		.ascii	"chThdSleepUntilWindowed\000"
 10786      64536C65 
 10786      6570556E 
 10786      74696C57 
 10786      696E646F 
 10787              	.LASF21:
 10788 07dd 7274636E 		.ascii	"rtcnt_t\000"
 10788      745F7400 
 10789              	.LASF53:
 10790 07e5 705F6D70 		.ascii	"p_mpool\000"
 10790      6F6F6C00 
ARM GAS  C:\Users\mathi\AppData\Local\Temp\cceGBsvt.s 			page 197


 10791              	.LASF44:
 10792 07ed 705F7265 		.ascii	"p_refs\000"
 10792      667300
 10793              	.LASF142:
 10794 07f4 63685F74 		.ascii	"ch_timesize\000"
 10794      696D6573 
 10794      697A6500 
 10795              	.LASF189:
 10796 0800 656E6470 		.ascii	"endp\000"
 10796      00
 10797              	.LASF119:
 10798 0805 6B65726E 		.ascii	"kernel_stats_t\000"
 10798      656C5F73 
 10798      74617473 
 10798      5F7400
 10799              	.LASF187:
 10800 0814 5F746872 		.ascii	"_thread_memfill\000"
 10800      6561645F 
 10800      6D656D66 
 10800      696C6C00 
 10801              	.LASF108:
 10802 0824 6F666673 		.ascii	"offset\000"
 10802      657400
 10803              	.LASF106:
 10804 082b 74625F62 		.ascii	"tb_buffer\000"
 10804      75666665 
 10804      7200
 10805              	.LASF46:
 10806 0835 705F7469 		.ascii	"p_time\000"
 10806      6D6500
 10807              	.LASF152:
 10808 083c 63665F6F 		.ascii	"cf_off_refs\000"
 10808      66665F72 
 10808      65667300 
 10809              	.LASF181:
 10810 0848 6F6C6470 		.ascii	"oldprio\000"
 10810      72696F00 
 10811              	.LASF204:
 10812 0850 71756575 		.ascii	"queue_insert\000"
 10812      655F696E 
 10812      73657274 
 10812      00
 10813              	.LASF210:
 10814 085d 6C697374 		.ascii	"list_init\000"
 10814      5F696E69 
 10814      7400
 10815              	.LASF167:
 10816 0867 63685468 		.ascii	"chThdWait\000"
 10816      64576169 
 10816      7400
 10817              	.LASF33:
 10818 0871 74687265 		.ascii	"thread_t\000"
 10818      61645F74 
 10818      00
 10819              	.LASF2:
 10820 087a 6C6F6E67 		.ascii	"long double\000"
 10820      20646F75 
ARM GAS  C:\Users\mathi\AppData\Local\Temp\cceGBsvt.s 			page 198


 10820      626C6500 
 10821              	.LASF55:
 10822 0886 74687265 		.ascii	"thread_reference_t\000"
 10822      61645F72 
 10822      65666572 
 10822      656E6365 
 10822      5F7400
 10823              	.LASF198:
 10824 0899 63685654 		.ascii	"chVTGetSystemTimeX\000"
 10824      47657453 
 10824      79737465 
 10824      6D54696D 
 10824      655800
 10825              	.LASF52:
 10826 08ac 705F7265 		.ascii	"p_realprio\000"
 10826      616C7072 
 10826      696F00
 10827              	.LASF98:
 10828 08b7 706F7274 		.ascii	"port_intctx\000"
 10828      5F696E74 
 10828      63747800 
 10829              	.LASF154:
 10830 08c3 63665F6F 		.ascii	"cf_off_time\000"
 10830      66665F74 
 10830      696D6500 
 10831              	.LASF74:
 10832 08cf 76745F64 		.ascii	"vt_delta\000"
 10832      656C7461 
 10832      00
 10833              	.LASF170:
 10834 08d8 63685468 		.ascii	"chThdExit\000"
 10834      64457869 
 10834      7400
 10835              	.LASF180:
 10836 08e2 6E657770 		.ascii	"newprio\000"
 10836      72696F00 
 10837              	.LASF71:
 10838 08ea 63685F76 		.ascii	"ch_virtual_timer\000"
 10838      69727475 
 10838      616C5F74 
 10838      696D6572 
 10838      00
 10839              	.LASF129:
 10840 08fb 735F636E 		.ascii	"s_cnt\000"
 10840      7400
 10841              	.LASF91:
 10842 0901 6B65726E 		.ascii	"kernel_stats\000"
 10842      656C5F73 
 10842      74617473 
 10842      00
 10843              	.LASF184:
 10844 090e 73697A65 		.ascii	"size\000"
 10844      00
 10845              	.LASF15:
 10846 0913 6C6F6E67 		.ascii	"long long unsigned int\000"
 10846      206C6F6E 
 10846      6720756E 
ARM GAS  C:\Users\mathi\AppData\Local\Temp\cceGBsvt.s 			page 199


 10846      7369676E 
 10846      65642069 
 10847              	.LASF39:
 10848 092a 705F6F6C 		.ascii	"p_older\000"
 10848      64657200 
 10849              	.LASF17:
 10850 0932 75696E74 		.ascii	"uint16_t\000"
 10850      31365F74 
 10850      00
 10851              	.LASF28:
 10852 093b 6D73675F 		.ascii	"msg_t\000"
 10852      7400
 10853              	.LASF60:
 10854 0941 63685F74 		.ascii	"ch_threads_queue\000"
 10854      68726561 
 10854      64735F71 
 10854      75657565 
 10854      00
 10855              	.LASF151:
 10856 0952 63665F6F 		.ascii	"cf_off_flags\000"
 10856      66665F66 
 10856      6C616773 
 10856      00
 10857              	.LASF26:
 10858 095f 74736C69 		.ascii	"tslices_t\000"
 10858      6365735F 
 10858      7400
 10859              	.LASF68:
 10860 0969 725F6375 		.ascii	"r_current\000"
 10860      7272656E 
 10860      7400
 10861              	.LASF226:
 10862 0973 63685363 		.ascii	"chSchDoRescheduleBehind\000"
 10862      68446F52 
 10862      65736368 
 10862      6564756C 
 10862      65426568 
 10863              	.LASF218:
 10864 098b 5F737461 		.ascii	"_stats_start_measure_crit_thd\000"
 10864      74735F73 
 10864      74617274 
 10864      5F6D6561 
 10864      73757265 
 10865              	.LASF219:
 10866 09a9 5F646267 		.ascii	"_dbg_check_lock\000"
 10866      5F636865 
 10866      636B5F6C 
 10866      6F636B00 
 10867              	.LASF90:
 10868 09b9 6D61696E 		.ascii	"mainthread\000"
 10868      74687265 
 10868      616400
 10869              	.LASF235:
 10870 09c4 6D656D73 		.ascii	"memset\000"
 10870      657400
 10871              	.LASF186:
 10872 09cb 63685468 		.ascii	"chThdCreateI\000"
ARM GAS  C:\Users\mathi\AppData\Local\Temp\cceGBsvt.s 			page 200


 10872      64437265 
 10872      61746549 
 10872      00
 10873              	.LASF213:
 10874 09d8 5F5F7365 		.ascii	"__set_BASEPRI\000"
 10874      745F4241 
 10874      53455052 
 10874      4900
 10875              	.LASF110:
 10876 09e6 62657374 		.ascii	"best\000"
 10876      00
 10877              	.LASF191:
 10878 09eb 63685468 		.ascii	"chThdDoDequeueNextI\000"
 10878      64446F44 
 10878      65717565 
 10878      75654E65 
 10878      78744900 
 10879              	.LASF63:
 10880 09ff 725F7175 		.ascii	"r_queue\000"
 10880      65756500 
 10881              	.LASF194:
 10882 0a07 63685654 		.ascii	"chVTIsTimeWithinX\000"
 10882      49735469 
 10882      6D655769 
 10882      7468696E 
 10882      5800
 10883              	.LASF175:
 10884 0a19 74696D65 		.ascii	"time\000"
 10884      00
 10885              	.LASF176:
 10886 0a1e 63685468 		.ascii	"chThdSleepUntil\000"
 10886      64536C65 
 10886      6570556E 
 10886      74696C00 
 10887              	.LASF232:
 10888 0a2e 2E2E2F2E 		.ascii	"../../lib/e-puck2_main-processor/ChibiOS//os/rt/src"
 10888      2E2F6C69 
 10888      622F652D 
 10888      7075636B 
 10888      325F6D61 
 10889 0a61 2F636874 		.ascii	"/chthreads.c\000"
 10889      68726561 
 10889      64732E63 
 10889      00
 10890              	.LASF88:
 10891 0a6e 726C6973 		.ascii	"rlist\000"
 10891      7400
 10892              	.LASF23:
 10893 0a74 746D6F64 		.ascii	"tmode_t\000"
 10893      655F7400 
 10894              	.LASF79:
 10895 0a7c 76745F73 		.ascii	"vt_systime\000"
 10895      79737469 
 10895      6D6500
 10896              	.LASF67:
 10897 0a87 725F6F6C 		.ascii	"r_older\000"
 10897      64657200 
ARM GAS  C:\Users\mathi\AppData\Local\Temp\cceGBsvt.s 			page 201


 10898              	.LASF109:
 10899 0a8f 746D5F63 		.ascii	"tm_calibration_t\000"
 10899      616C6962 
 10899      72617469 
 10899      6F6E5F74 
 10899      00
 10900              	.LASF212:
 10901 0aa0 706F7274 		.ascii	"port_lock\000"
 10901      5F6C6F63 
 10901      6B00
 10902              	.LASF128:
 10903 0aaa 735F7175 		.ascii	"s_queue\000"
 10903      65756500 
 10904              	.LASF190:
 10905 0ab2 5F746872 		.ascii	"_thread_init\000"
 10905      6561645F 
 10905      696E6974 
 10905      00
 10906              	.LASF7:
 10907 0abf 73686F72 		.ascii	"short int\000"
 10907      7420696E 
 10907      7400
 10908              	.LASF20:
 10909 0ac9 75696E74 		.ascii	"uint64_t\000"
 10909      36345F74 
 10909      00
 10910              	.LASF130:
 10911 0ad2 63685F6D 		.ascii	"ch_mutex\000"
 10911      75746578 
 10911      00
 10912              	.LASF197:
 10913 0adb 63685468 		.ascii	"chThdGetSelfX\000"
 10913      64476574 
 10913      53656C66 
 10913      5800
 10914              	.LASF195:
 10915 0ae9 73746172 		.ascii	"start\000"
 10915      7400
 10916              	.LASF64:
 10917 0aef 725F7072 		.ascii	"r_prio\000"
 10917      696F00
 10918              	.LASF81:
 10919 0af6 63685F73 		.ascii	"ch_system_debug\000"
 10919      79737465 
 10919      6D5F6465 
 10919      62756700 
 10920              	.LASF147:
 10921 0b06 63665F6F 		.ascii	"cf_off_older\000"
 10921      66665F6F 
 10921      6C646572 
 10921      00
 10922              	.LASF169:
 10923 0b13 63685468 		.ascii	"chThdExitS\000"
 10923      64457869 
 10923      745300
 10924              	.LASF89:
 10925 0b1e 76746C69 		.ascii	"vtlist\000"
ARM GAS  C:\Users\mathi\AppData\Local\Temp\cceGBsvt.s 			page 202


 10925      737400
 10926              	.LASF215:
 10927 0b25 63685379 		.ascii	"chSysHalt\000"
 10927      7348616C 
 10927      7400
 10928              	.LASF178:
 10929 0b2f 63685468 		.ascii	"chThdTerminate\000"
 10929      64546572 
 10929      6D696E61 
 10929      746500
 10930              	.LASF157:
 10931 0b3e 6D757465 		.ascii	"mutex_t\000"
 10931      785F7400 
 10932              	.LASF208:
 10933 0b46 71756575 		.ascii	"queue_init\000"
 10933      655F696E 
 10933      697400
 10934              	.LASF25:
 10935 0b51 74726566 		.ascii	"trefs_t\000"
 10935      735F7400 
 10936              	.LASF217:
 10937 0b59 63685363 		.ascii	"chSchGoSleepTimeoutS\000"
 10937      68476F53 
 10937      6C656570 
 10937      54696D65 
 10937      6F757453 
 10938              	.LASF149:
 10939 0b6e 63665F6F 		.ascii	"cf_off_stklimit\000"
 10939      66665F73 
 10939      746B6C69 
 10939      6D697400 
 10940              	.LASF56:
 10941 0b7e 74687265 		.ascii	"threads_list_t\000"
 10941      6164735F 
 10941      6C697374 
 10941      5F7400
 10942              	.LASF87:
 10943 0b8d 63685F73 		.ascii	"ch_system\000"
 10943      79737465 
 10943      6D00
 10944              	.LASF182:
 10945 0b97 63685468 		.ascii	"chThdStart\000"
 10945      64537461 
 10945      727400
 10946              	.LASF19:
 10947 0ba2 75696E74 		.ascii	"uint32_t\000"
 10947      33325F74 
 10947      00
 10948              	.LASF120:
 10949 0bab 7264796D 		.ascii	"rdymsg\000"
 10949      736700
 10950              	.LASF9:
 10951 0bb2 73686F72 		.ascii	"short unsigned int\000"
 10951      7420756E 
 10951      7369676E 
 10951      65642069 
 10951      6E7400
ARM GAS  C:\Users\mathi\AppData\Local\Temp\cceGBsvt.s 			page 203


 10952              	.LASF86:
 10953 0bc5 63685F73 		.ascii	"ch_system_t\000"
 10953      79737465 
 10953      6D5F7400 
 10954              	.LASF155:
 10955 0bd1 63686465 		.ascii	"chdebug_t\000"
 10955      6275675F 
 10955      7400
 10956              	.LASF223:
 10957 0bdb 63685363 		.ascii	"chSchGoSleepS\000"
 10957      68476F53 
 10957      6C656570 
 10957      5300
 10958              	.LASF139:
 10959 0be9 63685F73 		.ascii	"ch_size\000"
 10959      697A6500 
 10960              	.LASF41:
 10961 0bf1 705F7374 		.ascii	"p_stklimit\000"
 10961      6B6C696D 
 10961      697400
 10962              	.LASF10:
 10963 0bfc 5F5F696E 		.ascii	"__int32_t\000"
 10963      7433325F 
 10963      7400
 10964              	.LASF99:
 10965 0c06 73655F74 		.ascii	"se_time\000"
 10965      696D6500 
 10966              	.LASF40:
 10967 0c0e 705F6E61 		.ascii	"p_name\000"
 10967      6D6500
 10968              	.LASF174:
 10969 0c15 6E657874 		.ascii	"next\000"
 10969      00
 10970              	.LASF133:
 10971 0c1a 6D5F6E65 		.ascii	"m_next\000"
 10971      787400
 10972              	.LASF105:
 10973 0c21 74625F70 		.ascii	"tb_ptr\000"
 10973      747200
 10974              	.LASF173:
 10975 0c28 70726576 		.ascii	"prev\000"
 10975      00
 10976              	.LASF188:
 10977 0c2d 73746172 		.ascii	"startp\000"
 10977      747000
 10978              	.LASF112:
 10979 0c34 6C617374 		.ascii	"last\000"
 10979      00
 10980              	.LASF49:
 10981 0c39 705F6D73 		.ascii	"p_msg\000"
 10981      6700
 10982              	.LASF42:
 10983 0c3f 705F7374 		.ascii	"p_state\000"
 10983      61746500 
 10984              		.ident	"GCC: (GNU Tools for Arm Embedded Processors 7-2017-q4-major) 7.2.1 20170904 (release) [ARM
ARM GAS  C:\Users\mathi\AppData\Local\Temp\cceGBsvt.s 			page 204


DEFINED SYMBOLS
                            *ABS*:00000000 chthreads.c
C:\Users\mathi\AppData\Local\Temp\cceGBsvt.s:18     .text._thread_init:00000000 $t
C:\Users\mathi\AppData\Local\Temp\cceGBsvt.s:26     .text._thread_init:00000000 _thread_init
C:\Users\mathi\AppData\Local\Temp\cceGBsvt.s:141    .text._thread_init:0000006c $d
C:\Users\mathi\AppData\Local\Temp\cceGBsvt.s:147    .text._thread_memfill:00000000 $t
C:\Users\mathi\AppData\Local\Temp\cceGBsvt.s:155    .text._thread_memfill:00000000 _thread_memfill
C:\Users\mathi\AppData\Local\Temp\cceGBsvt.s:216    .text._thread_memfill:00000038 $d
C:\Users\mathi\AppData\Local\Temp\cceGBsvt.s:221    .text.chThdCreateI:00000000 $t
C:\Users\mathi\AppData\Local\Temp\cceGBsvt.s:229    .text.chThdCreateI:00000000 chThdCreateI
C:\Users\mathi\AppData\Local\Temp\cceGBsvt.s:385    .text.chThdCreateI:000000b0 $d
C:\Users\mathi\AppData\Local\Temp\cceGBsvt.s:393    .text.chThdCreateStatic:00000000 $t
C:\Users\mathi\AppData\Local\Temp\cceGBsvt.s:401    .text.chThdCreateStatic:00000000 chThdCreateStatic
C:\Users\mathi\AppData\Local\Temp\cceGBsvt.s:667    .text.chThdCreateStatic:00000110 $d
C:\Users\mathi\AppData\Local\Temp\cceGBsvt.s:676    .text.chThdStart:00000000 $t
C:\Users\mathi\AppData\Local\Temp\cceGBsvt.s:684    .text.chThdStart:00000000 chThdStart
C:\Users\mathi\AppData\Local\Temp\cceGBsvt.s:814    .text.chThdStart:0000006c $d
C:\Users\mathi\AppData\Local\Temp\cceGBsvt.s:822    .text.chThdSetPriority:00000000 $t
C:\Users\mathi\AppData\Local\Temp\cceGBsvt.s:830    .text.chThdSetPriority:00000000 chThdSetPriority
C:\Users\mathi\AppData\Local\Temp\cceGBsvt.s:986    .text.chThdSetPriority:00000078 $d
C:\Users\mathi\AppData\Local\Temp\cceGBsvt.s:994    .text.chThdTerminate:00000000 $t
C:\Users\mathi\AppData\Local\Temp\cceGBsvt.s:1002   .text.chThdTerminate:00000000 chThdTerminate
C:\Users\mathi\AppData\Local\Temp\cceGBsvt.s:1117   .text.chThdTerminate:00000060 $d
C:\Users\mathi\AppData\Local\Temp\cceGBsvt.s:1124   .text.chThdSleep:00000000 $t
C:\Users\mathi\AppData\Local\Temp\cceGBsvt.s:1132   .text.chThdSleep:00000000 chThdSleep
C:\Users\mathi\AppData\Local\Temp\cceGBsvt.s:1258   .text.chThdSleep:00000064 $d
C:\Users\mathi\AppData\Local\Temp\cceGBsvt.s:1266   .text.chThdSleepUntil:00000000 $t
C:\Users\mathi\AppData\Local\Temp\cceGBsvt.s:1274   .text.chThdSleepUntil:00000000 chThdSleepUntil
C:\Users\mathi\AppData\Local\Temp\cceGBsvt.s:1416   .text.chThdSleepUntil:00000060 $d
C:\Users\mathi\AppData\Local\Temp\cceGBsvt.s:1423   .text.chThdSleepUntilWindowed:00000000 $t
C:\Users\mathi\AppData\Local\Temp\cceGBsvt.s:1431   .text.chThdSleepUntilWindowed:00000000 chThdSleepUntilWindowed
C:\Users\mathi\AppData\Local\Temp\cceGBsvt.s:1595   .text.chThdSleepUntilWindowed:00000074 $d
C:\Users\mathi\AppData\Local\Temp\cceGBsvt.s:1603   .text.chThdYield:00000000 $t
C:\Users\mathi\AppData\Local\Temp\cceGBsvt.s:1611   .text.chThdYield:00000000 chThdYield
C:\Users\mathi\AppData\Local\Temp\cceGBsvt.s:1758   .text.chThdYield:00000068 $d
C:\Users\mathi\AppData\Local\Temp\cceGBsvt.s:1765   .text.chThdExit:00000000 $t
C:\Users\mathi\AppData\Local\Temp\cceGBsvt.s:1773   .text.chThdExit:00000000 chThdExit
C:\Users\mathi\AppData\Local\Temp\cceGBsvt.s:1908   .text.chThdExit:0000006c $d
C:\Users\mathi\AppData\Local\Temp\cceGBsvt.s:1917   .text.chThdExitS:00000000 $t
C:\Users\mathi\AppData\Local\Temp\cceGBsvt.s:1925   .text.chThdExitS:00000000 chThdExitS
C:\Users\mathi\AppData\Local\Temp\cceGBsvt.s:2032   .text.chThdExitS:0000005c $d
C:\Users\mathi\AppData\Local\Temp\cceGBsvt.s:2039   .text.chThdWait:00000000 $t
C:\Users\mathi\AppData\Local\Temp\cceGBsvt.s:2047   .text.chThdWait:00000000 chThdWait
C:\Users\mathi\AppData\Local\Temp\cceGBsvt.s:2236   .text.chThdWait:0000009c $d
C:\Users\mathi\AppData\Local\Temp\cceGBsvt.s:2244   .text.chThdSuspendS:00000000 $t
C:\Users\mathi\AppData\Local\Temp\cceGBsvt.s:2252   .text.chThdSuspendS:00000000 chThdSuspendS
C:\Users\mathi\AppData\Local\Temp\cceGBsvt.s:2328   .text.chThdSuspendS:00000038 $d
C:\Users\mathi\AppData\Local\Temp\cceGBsvt.s:2335   .text.chThdSuspendTimeoutS:00000000 $t
C:\Users\mathi\AppData\Local\Temp\cceGBsvt.s:2343   .text.chThdSuspendTimeoutS:00000000 chThdSuspendTimeoutS
C:\Users\mathi\AppData\Local\Temp\cceGBsvt.s:2439   .text.chThdSuspendTimeoutS:0000004c $d
C:\Users\mathi\AppData\Local\Temp\cceGBsvt.s:2446   .text.chThdResumeI:00000000 $t
C:\Users\mathi\AppData\Local\Temp\cceGBsvt.s:2454   .text.chThdResumeI:00000000 chThdResumeI
C:\Users\mathi\AppData\Local\Temp\cceGBsvt.s:2548   .text.chThdResumeI:0000004c $d
C:\Users\mathi\AppData\Local\Temp\cceGBsvt.s:2554   .text.chThdResumeS:00000000 $t
C:\Users\mathi\AppData\Local\Temp\cceGBsvt.s:2562   .text.chThdResumeS:00000000 chThdResumeS
C:\Users\mathi\AppData\Local\Temp\cceGBsvt.s:2654   .text.chThdResumeS:0000004c $d
C:\Users\mathi\AppData\Local\Temp\cceGBsvt.s:2660   .text.chThdResume:00000000 $t
ARM GAS  C:\Users\mathi\AppData\Local\Temp\cceGBsvt.s 			page 205


C:\Users\mathi\AppData\Local\Temp\cceGBsvt.s:2668   .text.chThdResume:00000000 chThdResume
C:\Users\mathi\AppData\Local\Temp\cceGBsvt.s:2821   .text.chThdResume:00000074 $d
C:\Users\mathi\AppData\Local\Temp\cceGBsvt.s:2829   .text.chThdEnqueueTimeoutS:00000000 $t
C:\Users\mathi\AppData\Local\Temp\cceGBsvt.s:2837   .text.chThdEnqueueTimeoutS:00000000 chThdEnqueueTimeoutS
C:\Users\mathi\AppData\Local\Temp\cceGBsvt.s:2924   .text.chThdEnqueueTimeoutS:00000044 $d
C:\Users\mathi\AppData\Local\Temp\cceGBsvt.s:2930   .text.chThdDequeueNextI:00000000 $t
C:\Users\mathi\AppData\Local\Temp\cceGBsvt.s:2938   .text.chThdDequeueNextI:00000000 chThdDequeueNextI
C:\Users\mathi\AppData\Local\Temp\cceGBsvt.s:3040   .text.chThdDequeueNextI:0000004c $d
C:\Users\mathi\AppData\Local\Temp\cceGBsvt.s:3046   .text.chThdDequeueAllI:00000000 $t
C:\Users\mathi\AppData\Local\Temp\cceGBsvt.s:3054   .text.chThdDequeueAllI:00000000 chThdDequeueAllI
C:\Users\mathi\AppData\Local\Temp\cceGBsvt.s:3150   .text.chThdDequeueAllI:00000054 $d
C:\Users\mathi\AppData\Local\Temp\cceGBsvt.s:3156   .rodata.__func__.7153:00000000 $d
C:\Users\mathi\AppData\Local\Temp\cceGBsvt.s:3160   .rodata.__func__.7153:00000000 __func__.7153
C:\Users\mathi\AppData\Local\Temp\cceGBsvt.s:3163   .rodata.__func__.7320:00000000 $d
C:\Users\mathi\AppData\Local\Temp\cceGBsvt.s:3167   .rodata.__func__.7320:00000000 __func__.7320
C:\Users\mathi\AppData\Local\Temp\cceGBsvt.s:3170   .rodata.__func__.7324:00000000 $d
C:\Users\mathi\AppData\Local\Temp\cceGBsvt.s:3174   .rodata.__func__.7324:00000000 __func__.7324
C:\Users\mathi\AppData\Local\Temp\cceGBsvt.s:3177   .rodata.__func__.7336:00000000 $d
C:\Users\mathi\AppData\Local\Temp\cceGBsvt.s:3181   .rodata.__func__.7336:00000000 __func__.7336
C:\Users\mathi\AppData\Local\Temp\cceGBsvt.s:3184   .rodata.__func__.7866:00000000 $d
C:\Users\mathi\AppData\Local\Temp\cceGBsvt.s:3188   .rodata.__func__.7866:00000000 __func__.7866
C:\Users\mathi\AppData\Local\Temp\cceGBsvt.s:3191   .rodata.__func__.7882:00000000 $d
C:\Users\mathi\AppData\Local\Temp\cceGBsvt.s:3195   .rodata.__func__.7882:00000000 __func__.7882
C:\Users\mathi\AppData\Local\Temp\cceGBsvt.s:3198   .rodata.__func__.7910:00000000 $d
C:\Users\mathi\AppData\Local\Temp\cceGBsvt.s:3202   .rodata.__func__.7910:00000000 __func__.7910
C:\Users\mathi\AppData\Local\Temp\cceGBsvt.s:3205   .rodata.__func__.7915:00000000 $d
C:\Users\mathi\AppData\Local\Temp\cceGBsvt.s:3209   .rodata.__func__.7915:00000000 __func__.7915
C:\Users\mathi\AppData\Local\Temp\cceGBsvt.s:3212   .rodata.__func__.7920:00000000 $d
C:\Users\mathi\AppData\Local\Temp\cceGBsvt.s:3216   .rodata.__func__.7920:00000000 __func__.7920
C:\Users\mathi\AppData\Local\Temp\cceGBsvt.s:3219   .rodata.__func__.7926:00000000 $d
C:\Users\mathi\AppData\Local\Temp\cceGBsvt.s:3223   .rodata.__func__.7926:00000000 __func__.7926
C:\Users\mathi\AppData\Local\Temp\cceGBsvt.s:3226   .rodata.__func__.7932:00000000 $d
C:\Users\mathi\AppData\Local\Temp\cceGBsvt.s:3230   .rodata.__func__.7932:00000000 __func__.7932
C:\Users\mathi\AppData\Local\Temp\cceGBsvt.s:3233   .rodata.__func__.7938:00000000 $d
C:\Users\mathi\AppData\Local\Temp\cceGBsvt.s:3237   .rodata.__func__.7938:00000000 __func__.7938

UNDEFINED SYMBOLS
chTMObjectInit
chTMStartMeasurementX
__stack_chk_fail
ch
__stack_chk_guard
memset
chDbgCheckClassI
chSysHalt
_port_thread_start
_stats_start_measure_crit_thd
_dbg_check_lock
chSchWakeupS
_dbg_check_unlock
_stats_stop_measure_crit_thd
chSchReadyI
chSchRescheduleS
chSchGoSleepTimeoutS
chDbgCheckClassS
chSchDoRescheduleBehind
chSchGoSleepS
ARM GAS  C:\Users\mathi\AppData\Local\Temp\cceGBsvt.s 			page 206


chThdRelease
