ARM GAS  C:\Users\mathi\AppData\Local\Temp\cceGBsvt.s 			page 1


   1              		.cpu cortex-m4
   2              		.eabi_attribute 27, 1
   3              		.eabi_attribute 28, 1
   4              		.eabi_attribute 20, 1
   5              		.eabi_attribute 21, 1
   6              		.eabi_attribute 23, 3
   7              		.eabi_attribute 24, 1
   8              		.eabi_attribute 25, 1
   9              		.eabi_attribute 26, 1
  10              		.eabi_attribute 30, 2
  11              		.eabi_attribute 34, 1
  12              		.eabi_attribute 18, 4
  13              		.file	"chthreads.c"
  14              		.text
  15              	.Ltext0:
  16              		.cfi_sections	.debug_frame
  17              		.section	.text._thread_init,"ax",%progbits
  18              		.align	1
  19              		.p2align 4,,15
  20              		.global	_thread_init
  21              		.syntax unified
  22              		.thumb
  23              		.thumb_func
  24              		.fpu fpv4-sp-d16
  25              		.type	_thread_init, %function
  26              	_thread_init:
  27              	.LFB219:
  28              		.file 1 "../../lib/e-puck2_main-processor/ChibiOS//os/rt/src/chthreads.c"
  29              		.loc 1 91 0
  30              		.cfi_startproc
  31              		@ args = 0, pretend = 0, frame = 8
  32              		@ frame_needed = 0, uses_anonymous_args = 0
  33              	.LVL0:
  34 0000 F0B5     		push	{r4, r5, r6, r7, lr}
  35              		.cfi_def_cfa_offset 20
  36              		.cfi_offset 4, -20
  37              		.cfi_offset 5, -16
  38              		.cfi_offset 6, -12
  39              		.cfi_offset 7, -8
  40              		.cfi_offset 14, -4
  41              		.loc 1 114 0
  42 0002 1A4A     		ldr	r2, .L6
  43              		.loc 1 91 0
  44 0004 1A4D     		ldr	r5, .L6+4
  45              		.loc 1 114 0
  46 0006 0261     		str	r2, [r0, #16]
  47              		.loc 1 91 0
  48 0008 0446     		mov	r4, r0
  49              		.loc 1 93 0
  50 000a 8160     		str	r1, [r0, #8]
  51              		.loc 1 91 0
  52 000c 83B0     		sub	sp, sp, #12
  53              		.cfi_def_cfa_offset 32
  54              		.loc 1 97 0
  55 000e 1423     		movs	r3, #20
  56              		.loc 1 114 0
  57 0010 5069     		ldr	r0, [r2, #20]
ARM GAS  C:\Users\mathi\AppData\Local\Temp\cceGBsvt.s 			page 2


  58              	.LVL1:
  59              		.loc 1 91 0
  60 0012 2E68     		ldr	r6, [r5]
  61              		.loc 1 100 0
  62 0014 6164     		str	r1, [r4, #68]
  63              		.loc 1 97 0
  64 0016 84F82330 		strb	r3, [r4, #35]
  65              		.loc 1 94 0
  66 001a 0227     		movs	r7, #2
  67              		.loc 1 101 0
  68 001c 0023     		movs	r3, #0
  69              		.loc 1 110 0
  70 001e 0121     		movs	r1, #1
  71              	.LVL2:
  72              		.loc 1 94 0
  73 0020 2784     		strh	r7, [r4, #32]	@ movhi
  74              		.loc 1 110 0
  75 0022 84F82210 		strb	r1, [r4, #34]
  76              		.loc 1 104 0
  77 0026 C4E90F33 		strd	r3, r3, [r4, #60]
  78              		.loc 1 123 0
  79 002a 04F16801 		add	r1, r4, #104
  80              		.loc 1 113 0
  81 002e A361     		str	r3, [r4, #24]
  82              		.loc 1 91 0
  83 0030 0196     		str	r6, [sp, #4]
  84              		.loc 1 117 0
  85 0032 04F12C07 		add	r7, r4, #44
  86              		.loc 1 107 0
  87 0036 6362     		str	r3, [r4, #36]
  88              		.loc 1 126 0
  89 0038 04F15006 		add	r6, r4, #80
  90              		.loc 1 120 0
  91 003c 04F13003 		add	r3, r4, #48
  92              		.loc 1 114 0
  93 0040 6061     		str	r0, [r4, #20]
  94 0042 0461     		str	r4, [r0, #16]
  95              	.LVL3:
  96              	.LBB111:
  97              	.LBB112:
  98              		.file 2 "../../lib/e-puck2_main-processor/ChibiOS//os/rt/include/chschd.h"
  99              		.loc 2 605 0
 100 0044 C4E90C33 		strd	r3, r3, [r4, #48]
 101              	.LBE112:
 102              	.LBE111:
 103              		.loc 1 123 0
 104 0048 E161     		str	r1, [r4, #28]
 105              		.loc 1 126 0
 106 004a 3046     		mov	r0, r6
 107              	.LBB113:
 108              	.LBB114:
 109              		.loc 2 566 0
 110 004c E762     		str	r7, [r4, #44]
 111              	.LBE114:
 112              	.LBE113:
 113              		.loc 1 114 0
 114 004e 5461     		str	r4, [r2, #20]
ARM GAS  C:\Users\mathi\AppData\Local\Temp\cceGBsvt.s 			page 3


 115              		.loc 1 126 0
 116 0050 FFF7FEFF 		bl	chTMObjectInit
 117              	.LVL4:
 118              		.loc 1 127 0
 119 0054 3046     		mov	r0, r6
 120 0056 FFF7FEFF 		bl	chTMStartMeasurementX
 121              	.LVL5:
 122              		.loc 1 133 0
 123 005a 019A     		ldr	r2, [sp, #4]
 124 005c 2B68     		ldr	r3, [r5]
 125 005e 9A42     		cmp	r2, r3
 126 0060 02D1     		bne	.L5
 127 0062 2046     		mov	r0, r4
 128 0064 03B0     		add	sp, sp, #12
 129              		.cfi_remember_state
 130              		.cfi_def_cfa_offset 20
 131              		@ sp needed
 132 0066 F0BD     		pop	{r4, r5, r6, r7, pc}
 133              	.LVL6:
 134              	.L5:
 135              		.cfi_restore_state
 136 0068 FFF7FEFF 		bl	__stack_chk_fail
 137              	.LVL7:
 138              	.L7:
 139              		.align	2
 140              	.L6:
 141 006c 00000000 		.word	ch
 142 0070 00000000 		.word	__stack_chk_guard
 143              		.cfi_endproc
 144              	.LFE219:
 145              		.size	_thread_init, .-_thread_init
 146              		.section	.text._thread_memfill,"ax",%progbits
 147              		.align	1
 148              		.p2align 4,,15
 149              		.global	_thread_memfill
 150              		.syntax unified
 151              		.thumb
 152              		.thumb_func
 153              		.fpu fpv4-sp-d16
 154              		.type	_thread_memfill, %function
 155              	_thread_memfill:
 156              	.LFB220:
 157              		.loc 1 145 0
 158              		.cfi_startproc
 159              		@ args = 0, pretend = 0, frame = 8
 160              		@ frame_needed = 0, uses_anonymous_args = 0
 161              	.LVL8:
 162 0000 30B5     		push	{r4, r5, lr}
 163              		.cfi_def_cfa_offset 12
 164              		.cfi_offset 4, -12
 165              		.cfi_offset 5, -8
 166              		.cfi_offset 14, -4
 167 0002 0D4B     		ldr	r3, .L14
 168 0004 83B0     		sub	sp, sp, #12
 169              		.cfi_def_cfa_offset 24
 170              		.loc 1 145 0
 171 0006 1C68     		ldr	r4, [r3]
ARM GAS  C:\Users\mathi\AppData\Local\Temp\cceGBsvt.s 			page 4


 172 0008 0194     		str	r4, [sp, #4]
 173              		.loc 1 147 0
 174 000a 8842     		cmp	r0, r1
 175 000c 0BD2     		bcs	.L8
 176 000e 1546     		mov	r5, r2
 177 0010 019A     		ldr	r2, [sp, #4]
 178              	.LVL9:
 179 0012 1B68     		ldr	r3, [r3]
 180 0014 9A42     		cmp	r2, r3
 181 0016 0CD1     		bne	.L13
 182 0018 0A1A     		subs	r2, r1, r0
 183 001a 2946     		mov	r1, r5
 184              	.LVL10:
 185              		.loc 1 150 0
 186 001c 03B0     		add	sp, sp, #12
 187              		.cfi_remember_state
 188              		.cfi_def_cfa_offset 12
 189              		@ sp needed
 190 001e BDE83040 		pop	{r4, r5, lr}
 191              		.cfi_restore 14
 192              		.cfi_restore 5
 193              		.cfi_restore 4
 194              		.cfi_def_cfa_offset 0
 195 0022 FFF7FEBF 		b	memset
 196              	.LVL11:
 197              	.L8:
 198              		.cfi_restore_state
 199 0026 019A     		ldr	r2, [sp, #4]
 200              	.LVL12:
 201 0028 1B68     		ldr	r3, [r3]
 202 002a 9A42     		cmp	r2, r3
 203 002c 01D1     		bne	.L13
 204 002e 03B0     		add	sp, sp, #12
 205              		.cfi_remember_state
 206              		.cfi_def_cfa_offset 12
 207              		@ sp needed
 208 0030 30BD     		pop	{r4, r5, pc}
 209              	.L13:
 210              		.cfi_restore_state
 211 0032 FFF7FEFF 		bl	__stack_chk_fail
 212              	.LVL13:
 213              	.L15:
 214 0036 00BF     		.align	2
 215              	.L14:
 216 0038 00000000 		.word	__stack_chk_guard
 217              		.cfi_endproc
 218              	.LFE220:
 219              		.size	_thread_memfill, .-_thread_memfill
 220              		.section	.text.chThdCreateI,"ax",%progbits
 221              		.align	1
 222              		.p2align 4,,15
 223              		.global	chThdCreateI
 224              		.syntax unified
 225              		.thumb
 226              		.thumb_func
 227              		.fpu fpv4-sp-d16
 228              		.type	chThdCreateI, %function
ARM GAS  C:\Users\mathi\AppData\Local\Temp\cceGBsvt.s 			page 5


 229              	chThdCreateI:
 230              	.LFB221:
 231              		.loc 1 178 0
 232              		.cfi_startproc
 233              		@ args = 4, pretend = 0, frame = 8
 234              		@ frame_needed = 0, uses_anonymous_args = 0
 235              	.LVL14:
 236 0000 2DE9F043 		push	{r4, r5, r6, r7, r8, r9, lr}
 237              		.cfi_def_cfa_offset 28
 238              		.cfi_offset 4, -28
 239              		.cfi_offset 5, -24
 240              		.cfi_offset 6, -20
 241              		.cfi_offset 7, -16
 242              		.cfi_offset 8, -12
 243              		.cfi_offset 9, -8
 244              		.cfi_offset 14, -4
 245 0004 2A4F     		ldr	r7, .L26
 246 0006 83B0     		sub	sp, sp, #12
 247              		.cfi_def_cfa_offset 40
 248              		.loc 1 178 0
 249 0008 3C68     		ldr	r4, [r7]
 250 000a 0194     		str	r4, [sp, #4]
 251 000c 0446     		mov	r4, r0
 252              	.LVL15:
 253 000e DDF82890 		ldr	r9, [sp, #40]
 254 0012 0D46     		mov	r5, r1
 255 0014 1646     		mov	r6, r2
 256 0016 9846     		mov	r8, r3
 257              		.loc 1 183 0
 258 0018 FFF7FEFF 		bl	chDbgCheckClassI
 259              	.LVL16:
 260              		.loc 1 184 0
 261 001c 14B1     		cbz	r4, .L17
 262              		.loc 1 184 0 is_stmt 0 discriminator 3
 263 001e B5F5BC7F 		cmp	r5, #376
 264 0022 3DD2     		bcs	.L24
 265              	.L17:
 266              		.loc 1 184 0 discriminator 8
 267 0024 2348     		ldr	r0, .L26+4
 268 0026 FFF7FEFF 		bl	chSysHalt
 269              	.LVL17:
 270              	.L18:
 271              		.loc 1 187 0 is_stmt 1
 272 002a A5F16401 		sub	r1, r5, #100
 273 002e 2144     		add	r1, r1, r4
 274 0030 E160     		str	r1, [r4, #12]
 275 0032 C1F84080 		str	r8, [r1, #64]
 276 0036 E368     		ldr	r3, [r4, #12]
 277              	.LBB121:
 278              	.LBB122:
 279              		.loc 1 114 0
 280 0038 1F49     		ldr	r1, .L26+8
 281              	.LBE122:
 282              	.LBE121:
 283              		.loc 1 187 0
 284 003a C3F84490 		str	r9, [r3, #68]
 285 003e E368     		ldr	r3, [r4, #12]
ARM GAS  C:\Users\mathi\AppData\Local\Temp\cceGBsvt.s 			page 6


 286 0040 1E4A     		ldr	r2, .L26+12
 287 0042 1A66     		str	r2, [r3, #96]
 288              	.LVL18:
 289              	.LBB126:
 290              	.LBB125:
 291              		.loc 1 94 0
 292 0044 0220     		movs	r0, #2
 293              		.loc 1 93 0
 294 0046 A660     		str	r6, [r4, #8]
 295              		.loc 1 114 0
 296 0048 2161     		str	r1, [r4, #16]
 297 004a 4A69     		ldr	r2, [r1, #20]
 298              		.loc 1 94 0
 299 004c 2084     		strh	r0, [r4, #32]	@ movhi
 300              		.loc 1 101 0
 301 004e 0023     		movs	r3, #0
 302              		.loc 1 97 0
 303 0050 1425     		movs	r5, #20
 304              	.LVL19:
 305              		.loc 1 110 0
 306 0052 0120     		movs	r0, #1
 307              		.loc 1 100 0
 308 0054 6664     		str	r6, [r4, #68]
 309              		.loc 1 97 0
 310 0056 84F82350 		strb	r5, [r4, #35]
 311              		.loc 1 104 0
 312 005a C4E90F33 		strd	r3, r3, [r4, #60]
 313              		.loc 1 107 0
 314 005e 6362     		str	r3, [r4, #36]
 315              		.loc 1 113 0
 316 0060 A361     		str	r3, [r4, #24]
 317              		.loc 1 110 0
 318 0062 84F82200 		strb	r0, [r4, #34]
 319              		.loc 1 120 0
 320 0066 04F13003 		add	r3, r4, #48
 321              		.loc 1 123 0
 322 006a 04F16800 		add	r0, r4, #104
 323              		.loc 1 126 0
 324 006e 04F15005 		add	r5, r4, #80
 325              		.loc 1 117 0
 326 0072 04F12C06 		add	r6, r4, #44
 327              	.LVL20:
 328              		.loc 1 114 0
 329 0076 6261     		str	r2, [r4, #20]
 330 0078 1461     		str	r4, [r2, #16]
 331              	.LVL21:
 332              	.LBB123:
 333              	.LBB124:
 334              		.loc 2 604 0
 335 007a C4E90B63 		strd	r6, r3, [r4, #44]
 336              		.loc 2 605 0
 337 007e 6363     		str	r3, [r4, #52]
 338              	.LBE124:
 339              	.LBE123:
 340              		.loc 1 123 0
 341 0080 E061     		str	r0, [r4, #28]
 342              		.loc 1 126 0
ARM GAS  C:\Users\mathi\AppData\Local\Temp\cceGBsvt.s 			page 7


 343 0082 2846     		mov	r0, r5
 344              		.loc 1 114 0
 345 0084 4C61     		str	r4, [r1, #20]
 346              		.loc 1 126 0
 347 0086 FFF7FEFF 		bl	chTMObjectInit
 348              	.LVL22:
 349              		.loc 1 127 0
 350 008a 2846     		mov	r0, r5
 351 008c FFF7FEFF 		bl	chTMStartMeasurementX
 352              	.LVL23:
 353              	.LBE125:
 354              	.LBE126:
 355              		.loc 1 190 0
 356 0090 019A     		ldr	r2, [sp, #4]
 357 0092 3B68     		ldr	r3, [r7]
 358 0094 9A42     		cmp	r2, r3
 359 0096 2046     		mov	r0, r4
 360 0098 08D1     		bne	.L25
 361              	.LVL24:
 362 009a 03B0     		add	sp, sp, #12
 363              		.cfi_remember_state
 364              		.cfi_def_cfa_offset 28
 365              		@ sp needed
 366 009c BDE8F083 		pop	{r4, r5, r6, r7, r8, r9, pc}
 367              	.LVL25:
 368              	.L24:
 369              		.cfi_restore_state
 370              		.loc 1 184 0 discriminator 5
 371 00a0 7F2E     		cmp	r6, #127
 372 00a2 BFD8     		bhi	.L17
 373              		.loc 1 184 0 is_stmt 0 discriminator 7
 374 00a4 B8F1000F 		cmp	r8, #0
 375 00a8 BFD1     		bne	.L18
 376 00aa BBE7     		b	.L17
 377              	.LVL26:
 378              	.L25:
 379              		.loc 1 190 0 is_stmt 1
 380 00ac FFF7FEFF 		bl	__stack_chk_fail
 381              	.LVL27:
 382              	.L27:
 383              		.align	2
 384              	.L26:
 385 00b0 00000000 		.word	__stack_chk_guard
 386 00b4 00000000 		.word	.LANCHOR0
 387 00b8 00000000 		.word	ch
 388 00bc 00000000 		.word	_port_thread_start
 389              		.cfi_endproc
 390              	.LFE221:
 391              		.size	chThdCreateI, .-chThdCreateI
 392              		.section	.text.chThdCreateStatic,"ax",%progbits
 393              		.align	1
 394              		.p2align 4,,15
 395              		.global	chThdCreateStatic
 396              		.syntax unified
 397              		.thumb
 398              		.thumb_func
 399              		.fpu fpv4-sp-d16
ARM GAS  C:\Users\mathi\AppData\Local\Temp\cceGBsvt.s 			page 8


 400              		.type	chThdCreateStatic, %function
 401              	chThdCreateStatic:
 402              	.LFB222:
 403              		.loc 1 209 0
 404              		.cfi_startproc
 405              		@ args = 4, pretend = 0, frame = 8
 406              		@ frame_needed = 0, uses_anonymous_args = 0
 407              	.LVL28:
 408 0000 2DE9F047 		push	{r4, r5, r6, r7, r8, r9, r10, lr}
 409              		.cfi_def_cfa_offset 32
 410              		.cfi_offset 4, -32
 411              		.cfi_offset 5, -28
 412              		.cfi_offset 6, -24
 413              		.cfi_offset 7, -20
 414              		.cfi_offset 8, -16
 415              		.cfi_offset 9, -12
 416              		.cfi_offset 10, -8
 417              		.cfi_offset 14, -4
 418 0004 DFF81881 		ldr	r8, .L38+16
 419 0008 82B0     		sub	sp, sp, #8
 420              		.cfi_def_cfa_offset 40
 421              		.loc 1 209 0
 422 000a D8F80040 		ldr	r4, [r8]
 423 000e 0194     		str	r4, [sp, #4]
 424 0010 0D46     		mov	r5, r1
 425 0012 0446     		mov	r4, r0
 426 0014 1746     		mov	r7, r2
 427 0016 FF21     		movs	r1, #255
 428              	.LVL29:
 429 0018 6822     		movs	r2, #104
 430              	.LVL30:
 431 001a 9946     		mov	r9, r3
 432 001c DDF828A0 		ldr	r10, [sp, #40]
 433              		.loc 1 213 0
 434 0020 04F16806 		add	r6, r4, #104
 435 0024 FFF7FEFF 		bl	memset
 436              	.LVL31:
 437              		.loc 1 216 0
 438 0028 6319     		adds	r3, r4, r5
 439              	.LVL32:
 440              	.LBB149:
 441              	.LBB150:
 442              		.loc 1 147 0
 443 002a 9E42     		cmp	r6, r3
 444 002c 06D2     		bcs	.L29
 445              		.loc 1 148 0
 446 002e 1B1B     		subs	r3, r3, r4
 447              	.LVL33:
 448 0030 A3F16802 		sub	r2, r3, #104
 449 0034 5521     		movs	r1, #85
 450 0036 3046     		mov	r0, r6
 451 0038 FFF7FEFF 		bl	memset
 452              	.LVL34:
 453              	.L29:
 454              	.LBE150:
 455              	.LBE149:
 456              	.LBB151:
ARM GAS  C:\Users\mathi\AppData\Local\Temp\cceGBsvt.s 			page 9


 457              	.LBB152:
 458              	.LBB153:
 459              	.LBB154:
 460              	.LBB155:
 461              		.file 3 "../../lib/e-puck2_main-processor/ChibiOS//os/ext/CMSIS/include/core_cmFunc.h"
 462              		.loc 3 546 0
 463 003c 2023     		movs	r3, #32
 464              		.syntax unified
 465              	@ 546 "../../lib/e-puck2_main-processor/ChibiOS//os/ext/CMSIS/include/core_cmFunc.h" 1
 466 003e 83F31188 		MSR basepri, r3
 467              	@ 0 "" 2
 468              	.LVL35:
 469              		.thumb
 470              		.syntax unified
 471              	.LBE155:
 472              	.LBE154:
 473              	.LBE153:
 474              		.file 4 "../../lib/e-puck2_main-processor/ChibiOS//os/rt/include/chsys.h"
 475              		.loc 4 349 0
 476 0042 FFF7FEFF 		bl	_stats_start_measure_crit_thd
 477              	.LVL36:
 478              		.loc 4 350 0
 479 0046 FFF7FEFF 		bl	_dbg_check_lock
 480              	.LVL37:
 481              	.LBE152:
 482              	.LBE151:
 483              	.LBB156:
 484              	.LBB157:
 485              		.loc 1 183 0
 486 004a FFF7FEFF 		bl	chDbgCheckClassI
 487              	.LVL38:
 488              		.loc 1 184 0
 489 004e B5F5BC7F 		cmp	r5, #376
 490 0052 01D3     		bcc	.L30
 491 0054 7F2F     		cmp	r7, #127
 492 0056 54D9     		bls	.L35
 493              	.L30:
 494 0058 2D48     		ldr	r0, .L38
 495 005a FFF7FEFF 		bl	chSysHalt
 496              	.LVL39:
 497              	.L31:
 498              		.loc 1 187 0
 499 005e A5F16403 		sub	r3, r5, #100
 500 0062 2344     		add	r3, r3, r4
 501 0064 E360     		str	r3, [r4, #12]
 502 0066 C3F84090 		str	r9, [r3, #64]
 503 006a E368     		ldr	r3, [r4, #12]
 504              	.LBB158:
 505              	.LBB159:
 506              		.loc 1 114 0
 507 006c 294D     		ldr	r5, .L38+4
 508              	.LVL40:
 509              	.LBE159:
 510              	.LBE158:
 511              		.loc 1 187 0
 512 006e C3F844A0 		str	r10, [r3, #68]
 513 0072 E368     		ldr	r3, [r4, #12]
ARM GAS  C:\Users\mathi\AppData\Local\Temp\cceGBsvt.s 			page 10


 514 0074 284A     		ldr	r2, .L38+8
 515 0076 1A66     		str	r2, [r3, #96]
 516              	.LVL41:
 517              	.LBB163:
 518              	.LBB162:
 519              		.loc 1 93 0
 520 0078 A760     		str	r7, [r4, #8]
 521              		.loc 1 114 0
 522 007a 2561     		str	r5, [r4, #16]
 523 007c 6B69     		ldr	r3, [r5, #20]
 524              		.loc 1 100 0
 525 007e 6764     		str	r7, [r4, #68]
 526              		.loc 1 94 0
 527 0080 0222     		movs	r2, #2
 528              		.loc 1 101 0
 529 0082 0027     		movs	r7, #0
 530              	.LVL42:
 531              		.loc 1 94 0
 532 0084 2284     		strh	r2, [r4, #32]	@ movhi
 533              		.loc 1 97 0
 534 0086 1421     		movs	r1, #20
 535              		.loc 1 110 0
 536 0088 0122     		movs	r2, #1
 537              		.loc 1 114 0
 538 008a 6361     		str	r3, [r4, #20]
 539              		.loc 1 97 0
 540 008c 84F82310 		strb	r1, [r4, #35]
 541              		.loc 1 110 0
 542 0090 84F82220 		strb	r2, [r4, #34]
 543              		.loc 1 117 0
 544 0094 04F12C01 		add	r1, r4, #44
 545              		.loc 1 120 0
 546 0098 04F13002 		add	r2, r4, #48
 547              		.loc 1 104 0
 548 009c C4E90F77 		strd	r7, r7, [r4, #60]
 549              		.loc 1 107 0
 550 00a0 6762     		str	r7, [r4, #36]
 551              		.loc 1 113 0
 552 00a2 A761     		str	r7, [r4, #24]
 553              		.loc 1 114 0
 554 00a4 1C61     		str	r4, [r3, #16]
 555              	.LVL43:
 556              		.loc 1 126 0
 557 00a6 04F15003 		add	r3, r4, #80
 558 00aa 1846     		mov	r0, r3
 559              	.LBB160:
 560              	.LBB161:
 561              		.loc 2 604 0
 562 00ac C4E90B12 		strd	r1, r2, [r4, #44]
 563              		.loc 2 605 0
 564 00b0 6263     		str	r2, [r4, #52]
 565              	.LBE161:
 566              	.LBE160:
 567              		.loc 1 123 0
 568 00b2 E661     		str	r6, [r4, #28]
 569              		.loc 1 126 0
 570 00b4 1E46     		mov	r6, r3
ARM GAS  C:\Users\mathi\AppData\Local\Temp\cceGBsvt.s 			page 11


 571              		.loc 1 114 0
 572 00b6 6C61     		str	r4, [r5, #20]
 573              		.loc 1 126 0
 574 00b8 FFF7FEFF 		bl	chTMObjectInit
 575              	.LVL44:
 576              		.loc 1 127 0
 577 00bc 3046     		mov	r0, r6
 578 00be FFF7FEFF 		bl	chTMStartMeasurementX
 579              	.LVL45:
 580              	.LBE162:
 581              	.LBE163:
 582              	.LBE157:
 583              	.LBE156:
 584              		.loc 1 223 0
 585 00c2 3946     		mov	r1, r7
 586 00c4 2046     		mov	r0, r4
 587 00c6 FFF7FEFF 		bl	chSchWakeupS
 588              	.LVL46:
 589              	.LBB165:
 590              	.LBB166:
 591              		.loc 4 360 0
 592 00ca FFF7FEFF 		bl	_dbg_check_unlock
 593              	.LVL47:
 594              		.loc 4 361 0
 595 00ce FFF7FEFF 		bl	_stats_stop_measure_crit_thd
 596              	.LVL48:
 597              		.loc 4 367 0
 598 00d2 2B68     		ldr	r3, [r5]
 599 00d4 AB42     		cmp	r3, r5
 600 00d6 04D0     		beq	.L32
 601 00d8 AA69     		ldr	r2, [r5, #24]
 602 00da 9B68     		ldr	r3, [r3, #8]
 603 00dc 9268     		ldr	r2, [r2, #8]
 604 00de 9A42     		cmp	r2, r3
 605 00e0 0BD3     		bcc	.L36
 606              	.L32:
 607              	.LVL49:
 608              	.LBB167:
 609              	.LBB168:
 610              	.LBB169:
 611              		.loc 3 546 0
 612 00e2 0023     		movs	r3, #0
 613              		.syntax unified
 614              	@ 546 "../../lib/e-puck2_main-processor/ChibiOS//os/ext/CMSIS/include/core_cmFunc.h" 1
 615 00e4 83F31188 		MSR basepri, r3
 616              	@ 0 "" 2
 617              	.LVL50:
 618              		.thumb
 619              		.syntax unified
 620              	.LBE169:
 621              	.LBE168:
 622              	.LBE167:
 623              	.LBE166:
 624              	.LBE165:
 625              		.loc 1 227 0
 626 00e8 019A     		ldr	r2, [sp, #4]
 627 00ea D8F80030 		ldr	r3, [r8]
ARM GAS  C:\Users\mathi\AppData\Local\Temp\cceGBsvt.s 			page 12


 628 00ee 9A42     		cmp	r2, r3
 629 00f0 2046     		mov	r0, r4
 630 00f2 0AD1     		bne	.L37
 631              	.LVL51:
 632 00f4 02B0     		add	sp, sp, #8
 633              		.cfi_remember_state
 634              		.cfi_def_cfa_offset 32
 635              		@ sp needed
 636 00f6 BDE8F087 		pop	{r4, r5, r6, r7, r8, r9, r10, pc}
 637              	.LVL52:
 638              	.L36:
 639              		.cfi_restore_state
 640              	.LBB171:
 641              	.LBB170:
 642              		.loc 4 367 0
 643 00fa 0848     		ldr	r0, .L38+12
 644 00fc FFF7FEFF 		bl	chSysHalt
 645              	.LVL53:
 646 0100 EFE7     		b	.L32
 647              	.LVL54:
 648              	.L35:
 649              	.LBE170:
 650              	.LBE171:
 651              	.LBB172:
 652              	.LBB164:
 653              		.loc 1 184 0
 654 0102 B9F1000F 		cmp	r9, #0
 655 0106 AAD1     		bne	.L31
 656 0108 A6E7     		b	.L30
 657              	.LVL55:
 658              	.L37:
 659              	.LBE164:
 660              	.LBE172:
 661              		.loc 1 227 0
 662 010a FFF7FEFF 		bl	__stack_chk_fail
 663              	.LVL56:
 664              	.L39:
 665 010e 00BF     		.align	2
 666              	.L38:
 667 0110 00000000 		.word	.LANCHOR0
 668 0114 00000000 		.word	ch
 669 0118 00000000 		.word	_port_thread_start
 670 011c 00000000 		.word	.LANCHOR1
 671 0120 00000000 		.word	__stack_chk_guard
 672              		.cfi_endproc
 673              	.LFE222:
 674              		.size	chThdCreateStatic, .-chThdCreateStatic
 675              		.section	.text.chThdStart,"ax",%progbits
 676              		.align	1
 677              		.p2align 4,,15
 678              		.global	chThdStart
 679              		.syntax unified
 680              		.thumb
 681              		.thumb_func
 682              		.fpu fpv4-sp-d16
 683              		.type	chThdStart, %function
 684              	chThdStart:
ARM GAS  C:\Users\mathi\AppData\Local\Temp\cceGBsvt.s 			page 13


 685              	.LFB223:
 686              		.loc 1 238 0
 687              		.cfi_startproc
 688              		@ args = 0, pretend = 0, frame = 8
 689              		@ frame_needed = 0, uses_anonymous_args = 0
 690              	.LVL57:
 691 0000 30B5     		push	{r4, r5, lr}
 692              		.cfi_def_cfa_offset 12
 693              		.cfi_offset 4, -12
 694              		.cfi_offset 5, -8
 695              		.cfi_offset 14, -4
 696 0002 1A4C     		ldr	r4, .L50
 697 0004 83B0     		sub	sp, sp, #12
 698              		.cfi_def_cfa_offset 24
 699              		.loc 1 238 0
 700 0006 2368     		ldr	r3, [r4]
 701 0008 0193     		str	r3, [sp, #4]
 702              	.LVL58:
 703 000a 0546     		mov	r5, r0
 704              	.LBB185:
 705              	.LBB186:
 706              	.LBB187:
 707              	.LBB188:
 708              	.LBB189:
 709              		.loc 3 546 0
 710 000c 2023     		movs	r3, #32
 711              		.syntax unified
 712              	@ 546 "../../lib/e-puck2_main-processor/ChibiOS//os/ext/CMSIS/include/core_cmFunc.h" 1
 713 000e 83F31188 		MSR basepri, r3
 714              	@ 0 "" 2
 715              	.LVL59:
 716              		.thumb
 717              		.syntax unified
 718              	.LBE189:
 719              	.LBE188:
 720              	.LBE187:
 721              		.loc 4 349 0
 722 0012 FFF7FEFF 		bl	_stats_start_measure_crit_thd
 723              	.LVL60:
 724              		.loc 4 350 0
 725 0016 FFF7FEFF 		bl	_dbg_check_lock
 726              	.LVL61:
 727              	.LBE186:
 728              	.LBE185:
 729              	.LBB190:
 730              	.LBB191:
 731              		.file 5 "../../lib/e-puck2_main-processor/ChibiOS//os/rt/include/chthreads.h"
 732              		.loc 5 247 0
 733 001a 95F82030 		ldrb	r3, [r5, #32]	@ zero_extendqisi2
 734 001e 022B     		cmp	r3, #2
 735 0020 02D0     		beq	.L41
 736 0022 1348     		ldr	r0, .L50+4
 737 0024 FFF7FEFF 		bl	chSysHalt
 738              	.LVL62:
 739              	.L41:
 740              		.loc 5 249 0
 741 0028 2846     		mov	r0, r5
ARM GAS  C:\Users\mathi\AppData\Local\Temp\cceGBsvt.s 			page 14


 742 002a FFF7FEFF 		bl	chSchReadyI
 743              	.LVL63:
 744 002e 0546     		mov	r5, r0
 745              	.LVL64:
 746              	.LBE191:
 747              	.LBE190:
 748              	.LBB192:
 749              	.LBB193:
 750              		.loc 4 360 0
 751 0030 FFF7FEFF 		bl	_dbg_check_unlock
 752              	.LVL65:
 753              		.loc 4 361 0
 754 0034 FFF7FEFF 		bl	_stats_stop_measure_crit_thd
 755              	.LVL66:
 756              		.loc 4 367 0
 757 0038 0E4B     		ldr	r3, .L50+8
 758 003a 1A68     		ldr	r2, [r3]
 759 003c 9A42     		cmp	r2, r3
 760 003e 04D0     		beq	.L42
 761 0040 9969     		ldr	r1, [r3, #24]
 762 0042 9368     		ldr	r3, [r2, #8]
 763 0044 8A68     		ldr	r2, [r1, #8]
 764 0046 9A42     		cmp	r2, r3
 765 0048 09D3     		bcc	.L48
 766              	.L42:
 767              	.LVL67:
 768              	.LBB194:
 769              	.LBB195:
 770              	.LBB196:
 771              		.loc 3 546 0
 772 004a 0023     		movs	r3, #0
 773              		.syntax unified
 774              	@ 546 "../../lib/e-puck2_main-processor/ChibiOS//os/ext/CMSIS/include/core_cmFunc.h" 1
 775 004c 83F31188 		MSR basepri, r3
 776              	@ 0 "" 2
 777              	.LVL68:
 778              		.thumb
 779              		.syntax unified
 780              	.LBE196:
 781              	.LBE195:
 782              	.LBE194:
 783              	.LBE193:
 784              	.LBE192:
 785              		.loc 1 245 0
 786 0050 019A     		ldr	r2, [sp, #4]
 787 0052 2368     		ldr	r3, [r4]
 788 0054 9A42     		cmp	r2, r3
 789 0056 2846     		mov	r0, r5
 790 0058 05D1     		bne	.L49
 791 005a 03B0     		add	sp, sp, #12
 792              		.cfi_remember_state
 793              		.cfi_def_cfa_offset 12
 794              		@ sp needed
 795 005c 30BD     		pop	{r4, r5, pc}
 796              	.L48:
 797              		.cfi_restore_state
 798              	.LBB198:
ARM GAS  C:\Users\mathi\AppData\Local\Temp\cceGBsvt.s 			page 15


 799              	.LBB197:
 800              		.loc 4 367 0
 801 005e 0648     		ldr	r0, .L50+12
 802 0060 FFF7FEFF 		bl	chSysHalt
 803              	.LVL69:
 804 0064 F1E7     		b	.L42
 805              	.L49:
 806              	.LBE197:
 807              	.LBE198:
 808              		.loc 1 245 0
 809 0066 FFF7FEFF 		bl	__stack_chk_fail
 810              	.LVL70:
 811              	.L51:
 812 006a 00BF     		.align	2
 813              	.L50:
 814 006c 00000000 		.word	__stack_chk_guard
 815 0070 00000000 		.word	.LANCHOR2
 816 0074 00000000 		.word	ch
 817 0078 00000000 		.word	.LANCHOR1
 818              		.cfi_endproc
 819              	.LFE223:
 820              		.size	chThdStart, .-chThdStart
 821              		.section	.text.chThdSetPriority,"ax",%progbits
 822              		.align	1
 823              		.p2align 4,,15
 824              		.global	chThdSetPriority
 825              		.syntax unified
 826              		.thumb
 827              		.thumb_func
 828              		.fpu fpv4-sp-d16
 829              		.type	chThdSetPriority, %function
 830              	chThdSetPriority:
 831              	.LFB224:
 832              		.loc 1 259 0
 833              		.cfi_startproc
 834              		@ args = 0, pretend = 0, frame = 8
 835              		@ frame_needed = 0, uses_anonymous_args = 0
 836              	.LVL71:
 837 0000 F0B5     		push	{r4, r5, r6, r7, lr}
 838              		.cfi_def_cfa_offset 20
 839              		.cfi_offset 4, -20
 840              		.cfi_offset 5, -16
 841              		.cfi_offset 6, -12
 842              		.cfi_offset 7, -8
 843              		.cfi_offset 14, -4
 844 0002 1D4F     		ldr	r7, .L62
 845 0004 83B0     		sub	sp, sp, #12
 846              		.cfi_def_cfa_offset 32
 847              		.loc 1 259 0
 848 0006 3B68     		ldr	r3, [r7]
 849 0008 0193     		str	r3, [sp, #4]
 850              		.loc 1 262 0
 851 000a 7F28     		cmp	r0, #127
 852              		.loc 1 259 0
 853 000c 0546     		mov	r5, r0
 854              		.loc 1 262 0
 855 000e 2DD8     		bhi	.L59
ARM GAS  C:\Users\mathi\AppData\Local\Temp\cceGBsvt.s 			page 16


 856              	.LVL72:
 857              	.L53:
 858              	.LBB209:
 859              	.LBB210:
 860              	.LBB211:
 861              	.LBB212:
 862              	.LBB213:
 863              		.loc 3 546 0
 864 0010 2023     		movs	r3, #32
 865              		.syntax unified
 866              	@ 546 "../../lib/e-puck2_main-processor/ChibiOS//os/ext/CMSIS/include/core_cmFunc.h" 1
 867 0012 83F31188 		MSR basepri, r3
 868              	@ 0 "" 2
 869              	.LVL73:
 870              		.thumb
 871              		.syntax unified
 872              	.LBE213:
 873              	.LBE212:
 874              	.LBE211:
 875              	.LBE210:
 876              	.LBE209:
 877              		.loc 1 266 0
 878 0016 194C     		ldr	r4, .L62+4
 879              	.LBB215:
 880              	.LBB214:
 881              		.loc 4 349 0
 882 0018 FFF7FEFF 		bl	_stats_start_measure_crit_thd
 883              	.LVL74:
 884              		.loc 4 350 0
 885 001c FFF7FEFF 		bl	_dbg_check_lock
 886              	.LVL75:
 887              	.LBE214:
 888              	.LBE215:
 889              		.loc 1 266 0
 890 0020 A369     		ldr	r3, [r4, #24]
 891 0022 5E6C     		ldr	r6, [r3, #68]
 892              	.LVL76:
 893              		.loc 1 267 0
 894 0024 9A68     		ldr	r2, [r3, #8]
 895 0026 B242     		cmp	r2, r6
 896 0028 01D0     		beq	.L54
 897              		.loc 1 267 0 is_stmt 0 discriminator 1
 898 002a AA42     		cmp	r2, r5
 899 002c 01D2     		bcs	.L55
 900              	.L54:
 901              		.loc 1 268 0 is_stmt 1
 902 002e 9D60     		str	r5, [r3, #8]
 903 0030 A369     		ldr	r3, [r4, #24]
 904              	.L55:
 905              		.loc 1 270 0
 906 0032 5D64     		str	r5, [r3, #68]
 907              		.loc 1 275 0
 908 0034 FFF7FEFF 		bl	chSchRescheduleS
 909              	.LVL77:
 910              	.LBB216:
 911              	.LBB217:
 912              		.loc 4 360 0
ARM GAS  C:\Users\mathi\AppData\Local\Temp\cceGBsvt.s 			page 17


 913 0038 FFF7FEFF 		bl	_dbg_check_unlock
 914              	.LVL78:
 915              		.loc 4 361 0
 916 003c FFF7FEFF 		bl	_stats_stop_measure_crit_thd
 917              	.LVL79:
 918              		.loc 4 367 0
 919 0040 2368     		ldr	r3, [r4]
 920 0042 A342     		cmp	r3, r4
 921 0044 04D0     		beq	.L56
 922 0046 A269     		ldr	r2, [r4, #24]
 923 0048 9B68     		ldr	r3, [r3, #8]
 924 004a 9268     		ldr	r2, [r2, #8]
 925 004c 9A42     		cmp	r2, r3
 926 004e 09D3     		bcc	.L60
 927              	.L56:
 928              	.LVL80:
 929              	.LBB218:
 930              	.LBB219:
 931              	.LBB220:
 932              		.loc 3 546 0
 933 0050 0023     		movs	r3, #0
 934              		.syntax unified
 935              	@ 546 "../../lib/e-puck2_main-processor/ChibiOS//os/ext/CMSIS/include/core_cmFunc.h" 1
 936 0052 83F31188 		MSR basepri, r3
 937              	@ 0 "" 2
 938              	.LVL81:
 939              		.thumb
 940              		.syntax unified
 941              	.LBE220:
 942              	.LBE219:
 943              	.LBE218:
 944              	.LBE217:
 945              	.LBE216:
 946              		.loc 1 279 0
 947 0056 019A     		ldr	r2, [sp, #4]
 948 0058 3B68     		ldr	r3, [r7]
 949 005a 9A42     		cmp	r2, r3
 950 005c 3046     		mov	r0, r6
 951 005e 09D1     		bne	.L61
 952              	.LVL82:
 953 0060 03B0     		add	sp, sp, #12
 954              		.cfi_remember_state
 955              		.cfi_def_cfa_offset 20
 956              		@ sp needed
 957 0062 F0BD     		pop	{r4, r5, r6, r7, pc}
 958              	.LVL83:
 959              	.L60:
 960              		.cfi_restore_state
 961              	.LBB222:
 962              	.LBB221:
 963              		.loc 4 367 0
 964 0064 0648     		ldr	r0, .L62+8
 965 0066 FFF7FEFF 		bl	chSysHalt
 966              	.LVL84:
 967 006a F1E7     		b	.L56
 968              	.LVL85:
 969              	.L59:
ARM GAS  C:\Users\mathi\AppData\Local\Temp\cceGBsvt.s 			page 18


 970              	.LBE221:
 971              	.LBE222:
 972              		.loc 1 262 0 discriminator 2
 973 006c 0548     		ldr	r0, .L62+12
 974              	.LVL86:
 975 006e FFF7FEFF 		bl	chSysHalt
 976              	.LVL87:
 977 0072 CDE7     		b	.L53
 978              	.LVL88:
 979              	.L61:
 980              		.loc 1 279 0
 981 0074 FFF7FEFF 		bl	__stack_chk_fail
 982              	.LVL89:
 983              	.L63:
 984              		.align	2
 985              	.L62:
 986 0078 00000000 		.word	__stack_chk_guard
 987 007c 00000000 		.word	ch
 988 0080 00000000 		.word	.LANCHOR1
 989 0084 00000000 		.word	.LANCHOR3
 990              		.cfi_endproc
 991              	.LFE224:
 992              		.size	chThdSetPriority, .-chThdSetPriority
 993              		.section	.text.chThdTerminate,"ax",%progbits
 994              		.align	1
 995              		.p2align 4,,15
 996              		.global	chThdTerminate
 997              		.syntax unified
 998              		.thumb
 999              		.thumb_func
 1000              		.fpu fpv4-sp-d16
 1001              		.type	chThdTerminate, %function
 1002              	chThdTerminate:
 1003              	.LFB225:
 1004              		.loc 1 293 0
 1005              		.cfi_startproc
 1006              		@ args = 0, pretend = 0, frame = 8
 1007              		@ frame_needed = 0, uses_anonymous_args = 0
 1008              	.LVL90:
 1009 0000 30B5     		push	{r4, r5, lr}
 1010              		.cfi_def_cfa_offset 12
 1011              		.cfi_offset 4, -12
 1012              		.cfi_offset 5, -8
 1013              		.cfi_offset 14, -4
 1014 0002 174C     		ldr	r4, .L70
 1015 0004 83B0     		sub	sp, sp, #12
 1016              		.cfi_def_cfa_offset 24
 1017              		.loc 1 293 0
 1018 0006 2368     		ldr	r3, [r4]
 1019 0008 0193     		str	r3, [sp, #4]
 1020              	.LVL91:
 1021 000a 0546     		mov	r5, r0
 1022              	.LBB233:
 1023              	.LBB234:
 1024              	.LBB235:
 1025              	.LBB236:
 1026              	.LBB237:
ARM GAS  C:\Users\mathi\AppData\Local\Temp\cceGBsvt.s 			page 19


 1027              		.loc 3 546 0
 1028 000c 2023     		movs	r3, #32
 1029              		.syntax unified
 1030              	@ 546 "../../lib/e-puck2_main-processor/ChibiOS//os/ext/CMSIS/include/core_cmFunc.h" 1
 1031 000e 83F31188 		MSR basepri, r3
 1032              	@ 0 "" 2
 1033              	.LVL92:
 1034              		.thumb
 1035              		.syntax unified
 1036              	.LBE237:
 1037              	.LBE236:
 1038              	.LBE235:
 1039              		.loc 4 349 0
 1040 0012 FFF7FEFF 		bl	_stats_start_measure_crit_thd
 1041              	.LVL93:
 1042              		.loc 4 350 0
 1043 0016 FFF7FEFF 		bl	_dbg_check_lock
 1044              	.LVL94:
 1045              	.LBE234:
 1046              	.LBE233:
 1047              		.loc 1 296 0
 1048 001a 95F82130 		ldrb	r3, [r5, #33]	@ zero_extendqisi2
 1049 001e 43F00403 		orr	r3, r3, #4
 1050 0022 85F82130 		strb	r3, [r5, #33]
 1051              	.LBB238:
 1052              	.LBB239:
 1053              		.loc 4 360 0
 1054 0026 FFF7FEFF 		bl	_dbg_check_unlock
 1055              	.LVL95:
 1056              		.loc 4 361 0
 1057 002a FFF7FEFF 		bl	_stats_stop_measure_crit_thd
 1058              	.LVL96:
 1059              		.loc 4 367 0
 1060 002e 0D4B     		ldr	r3, .L70+4
 1061 0030 1A68     		ldr	r2, [r3]
 1062 0032 9A42     		cmp	r2, r3
 1063 0034 04D0     		beq	.L65
 1064 0036 9969     		ldr	r1, [r3, #24]
 1065 0038 9368     		ldr	r3, [r2, #8]
 1066 003a 8A68     		ldr	r2, [r1, #8]
 1067 003c 9A42     		cmp	r2, r3
 1068 003e 08D3     		bcc	.L68
 1069              	.L65:
 1070              	.LVL97:
 1071              	.LBB240:
 1072              	.LBB241:
 1073              	.LBB242:
 1074              		.loc 3 546 0
 1075 0040 0023     		movs	r3, #0
 1076              		.syntax unified
 1077              	@ 546 "../../lib/e-puck2_main-processor/ChibiOS//os/ext/CMSIS/include/core_cmFunc.h" 1
 1078 0042 83F31188 		MSR basepri, r3
 1079              	@ 0 "" 2
 1080              	.LVL98:
 1081              		.thumb
 1082              		.syntax unified
 1083              	.LBE242:
ARM GAS  C:\Users\mathi\AppData\Local\Temp\cceGBsvt.s 			page 20


 1084              	.LBE241:
 1085              	.LBE240:
 1086              	.LBE239:
 1087              	.LBE238:
 1088              		.loc 1 298 0
 1089 0046 019A     		ldr	r2, [sp, #4]
 1090 0048 2368     		ldr	r3, [r4]
 1091 004a 9A42     		cmp	r2, r3
 1092 004c 05D1     		bne	.L69
 1093 004e 03B0     		add	sp, sp, #12
 1094              		.cfi_remember_state
 1095              		.cfi_def_cfa_offset 12
 1096              		@ sp needed
 1097 0050 30BD     		pop	{r4, r5, pc}
 1098              	.LVL99:
 1099              	.L68:
 1100              		.cfi_restore_state
 1101              	.LBB244:
 1102              	.LBB243:
 1103              		.loc 4 367 0
 1104 0052 0548     		ldr	r0, .L70+8
 1105 0054 FFF7FEFF 		bl	chSysHalt
 1106              	.LVL100:
 1107 0058 F2E7     		b	.L65
 1108              	.L69:
 1109              	.LBE243:
 1110              	.LBE244:
 1111              		.loc 1 298 0
 1112 005a FFF7FEFF 		bl	__stack_chk_fail
 1113              	.LVL101:
 1114              	.L71:
 1115 005e 00BF     		.align	2
 1116              	.L70:
 1117 0060 00000000 		.word	__stack_chk_guard
 1118 0064 00000000 		.word	ch
 1119 0068 00000000 		.word	.LANCHOR1
 1120              		.cfi_endproc
 1121              	.LFE225:
 1122              		.size	chThdTerminate, .-chThdTerminate
 1123              		.section	.text.chThdSleep,"ax",%progbits
 1124              		.align	1
 1125              		.p2align 4,,15
 1126              		.global	chThdSleep
 1127              		.syntax unified
 1128              		.thumb
 1129              		.thumb_func
 1130              		.fpu fpv4-sp-d16
 1131              		.type	chThdSleep, %function
 1132              	chThdSleep:
 1133              	.LFB226:
 1134              		.loc 1 312 0
 1135              		.cfi_startproc
 1136              		@ args = 0, pretend = 0, frame = 8
 1137              		@ frame_needed = 0, uses_anonymous_args = 0
 1138              	.LVL102:
 1139 0000 30B5     		push	{r4, r5, lr}
 1140              		.cfi_def_cfa_offset 12
ARM GAS  C:\Users\mathi\AppData\Local\Temp\cceGBsvt.s 			page 21


 1141              		.cfi_offset 4, -12
 1142              		.cfi_offset 5, -8
 1143              		.cfi_offset 14, -4
 1144 0002 184C     		ldr	r4, .L79
 1145 0004 83B0     		sub	sp, sp, #12
 1146              		.cfi_def_cfa_offset 24
 1147              		.loc 1 312 0
 1148 0006 2368     		ldr	r3, [r4]
 1149 0008 0193     		str	r3, [sp, #4]
 1150              	.LVL103:
 1151 000a 0546     		mov	r5, r0
 1152              	.LBB257:
 1153              	.LBB258:
 1154              	.LBB259:
 1155              	.LBB260:
 1156              	.LBB261:
 1157              		.loc 3 546 0
 1158 000c 2023     		movs	r3, #32
 1159              		.syntax unified
 1160              	@ 546 "../../lib/e-puck2_main-processor/ChibiOS//os/ext/CMSIS/include/core_cmFunc.h" 1
 1161 000e 83F31188 		MSR basepri, r3
 1162              	@ 0 "" 2
 1163              	.LVL104:
 1164              		.thumb
 1165              		.syntax unified
 1166              	.LBE261:
 1167              	.LBE260:
 1168              	.LBE259:
 1169              		.loc 4 349 0
 1170 0012 FFF7FEFF 		bl	_stats_start_measure_crit_thd
 1171              	.LVL105:
 1172              		.loc 4 350 0
 1173 0016 FFF7FEFF 		bl	_dbg_check_lock
 1174              	.LVL106:
 1175              	.LBE258:
 1176              	.LBE257:
 1177              	.LBB262:
 1178              	.LBB263:
 1179              		.loc 5 266 0
 1180 001a 15B9     		cbnz	r5, .L73
 1181 001c 1248     		ldr	r0, .L79+4
 1182 001e FFF7FEFF 		bl	chSysHalt
 1183              	.LVL107:
 1184              	.L73:
 1185              		.loc 5 268 0
 1186 0022 2946     		mov	r1, r5
 1187 0024 0820     		movs	r0, #8
 1188 0026 FFF7FEFF 		bl	chSchGoSleepTimeoutS
 1189              	.LVL108:
 1190              	.LBE263:
 1191              	.LBE262:
 1192              	.LBB264:
 1193              	.LBB265:
 1194              		.loc 4 360 0
 1195 002a FFF7FEFF 		bl	_dbg_check_unlock
 1196              	.LVL109:
 1197              		.loc 4 361 0
ARM GAS  C:\Users\mathi\AppData\Local\Temp\cceGBsvt.s 			page 22


 1198 002e FFF7FEFF 		bl	_stats_stop_measure_crit_thd
 1199              	.LVL110:
 1200              		.loc 4 367 0
 1201 0032 0E4B     		ldr	r3, .L79+8
 1202 0034 1A68     		ldr	r2, [r3]
 1203 0036 9A42     		cmp	r2, r3
 1204 0038 04D0     		beq	.L74
 1205 003a 9969     		ldr	r1, [r3, #24]
 1206 003c 9368     		ldr	r3, [r2, #8]
 1207 003e 8A68     		ldr	r2, [r1, #8]
 1208 0040 9A42     		cmp	r2, r3
 1209 0042 08D3     		bcc	.L77
 1210              	.L74:
 1211              	.LVL111:
 1212              	.LBB266:
 1213              	.LBB267:
 1214              	.LBB268:
 1215              		.loc 3 546 0
 1216 0044 0023     		movs	r3, #0
 1217              		.syntax unified
 1218              	@ 546 "../../lib/e-puck2_main-processor/ChibiOS//os/ext/CMSIS/include/core_cmFunc.h" 1
 1219 0046 83F31188 		MSR basepri, r3
 1220              	@ 0 "" 2
 1221              	.LVL112:
 1222              		.thumb
 1223              		.syntax unified
 1224              	.LBE268:
 1225              	.LBE267:
 1226              	.LBE266:
 1227              	.LBE265:
 1228              	.LBE264:
 1229              		.loc 1 317 0
 1230 004a 019A     		ldr	r2, [sp, #4]
 1231 004c 2368     		ldr	r3, [r4]
 1232 004e 9A42     		cmp	r2, r3
 1233 0050 05D1     		bne	.L78
 1234 0052 03B0     		add	sp, sp, #12
 1235              		.cfi_remember_state
 1236              		.cfi_def_cfa_offset 12
 1237              		@ sp needed
 1238 0054 30BD     		pop	{r4, r5, pc}
 1239              	.LVL113:
 1240              	.L77:
 1241              		.cfi_restore_state
 1242              	.LBB270:
 1243              	.LBB269:
 1244              		.loc 4 367 0
 1245 0056 0648     		ldr	r0, .L79+12
 1246 0058 FFF7FEFF 		bl	chSysHalt
 1247              	.LVL114:
 1248 005c F2E7     		b	.L74
 1249              	.L78:
 1250              	.LBE269:
 1251              	.LBE270:
 1252              		.loc 1 317 0
 1253 005e FFF7FEFF 		bl	__stack_chk_fail
 1254              	.LVL115:
ARM GAS  C:\Users\mathi\AppData\Local\Temp\cceGBsvt.s 			page 23


 1255              	.L80:
 1256 0062 00BF     		.align	2
 1257              	.L79:
 1258 0064 00000000 		.word	__stack_chk_guard
 1259 0068 00000000 		.word	.LANCHOR4
 1260 006c 00000000 		.word	ch
 1261 0070 00000000 		.word	.LANCHOR1
 1262              		.cfi_endproc
 1263              	.LFE226:
 1264              		.size	chThdSleep, .-chThdSleep
 1265              		.section	.text.chThdSleepUntil,"ax",%progbits
 1266              		.align	1
 1267              		.p2align 4,,15
 1268              		.global	chThdSleepUntil
 1269              		.syntax unified
 1270              		.thumb
 1271              		.thumb_func
 1272              		.fpu fpv4-sp-d16
 1273              		.type	chThdSleepUntil, %function
 1274              	chThdSleepUntil:
 1275              	.LFB227:
 1276              		.loc 1 332 0
 1277              		.cfi_startproc
 1278              		@ args = 0, pretend = 0, frame = 8
 1279              		@ frame_needed = 0, uses_anonymous_args = 0
 1280              	.LVL116:
 1281 0000 70B5     		push	{r4, r5, r6, lr}
 1282              		.cfi_def_cfa_offset 16
 1283              		.cfi_offset 4, -16
 1284              		.cfi_offset 5, -12
 1285              		.cfi_offset 6, -8
 1286              		.cfi_offset 14, -4
 1287 0002 174E     		ldr	r6, .L91
 1288 0004 82B0     		sub	sp, sp, #8
 1289              		.cfi_def_cfa_offset 24
 1290              		.loc 1 332 0
 1291 0006 3368     		ldr	r3, [r6]
 1292 0008 0193     		str	r3, [sp, #4]
 1293              	.LVL117:
 1294 000a 0546     		mov	r5, r0
 1295              	.LBB285:
 1296              	.LBB286:
 1297              	.LBB287:
 1298              	.LBB288:
 1299              	.LBB289:
 1300              		.loc 3 546 0
 1301 000c 2023     		movs	r3, #32
 1302              		.syntax unified
 1303              	@ 546 "../../lib/e-puck2_main-processor/ChibiOS//os/ext/CMSIS/include/core_cmFunc.h" 1
 1304 000e 83F31188 		MSR basepri, r3
 1305              	@ 0 "" 2
 1306              	.LVL118:
 1307              		.thumb
 1308              		.syntax unified
 1309              	.LBE289:
 1310              	.LBE288:
 1311              	.LBE287:
ARM GAS  C:\Users\mathi\AppData\Local\Temp\cceGBsvt.s 			page 24


 1312              	.LBE286:
 1313              	.LBE285:
 1314              	.LBB291:
 1315              	.LBB292:
 1316              		.file 6 "../../lib/e-puck2_main-processor/ChibiOS//os/rt/include/chvt.h"
 1317              		.loc 6 231 0
 1318 0012 144C     		ldr	r4, .L91+4
 1319              	.LBE292:
 1320              	.LBE291:
 1321              	.LBB294:
 1322              	.LBB290:
 1323              		.loc 4 349 0
 1324 0014 FFF7FEFF 		bl	_stats_start_measure_crit_thd
 1325              	.LVL119:
 1326              		.loc 4 350 0
 1327 0018 FFF7FEFF 		bl	_dbg_check_lock
 1328              	.LVL120:
 1329              	.LBE290:
 1330              	.LBE294:
 1331              	.LBB295:
 1332              	.LBB293:
 1333              		.loc 6 231 0
 1334 001c A16A     		ldr	r1, [r4, #40]
 1335              	.LVL121:
 1336              	.LBE293:
 1337              	.LBE295:
 1338              		.loc 1 336 0
 1339 001e 691A     		subs	r1, r5, r1
 1340              	.LVL122:
 1341 0020 02D0     		beq	.L82
 1342              	.LVL123:
 1343              	.LBB296:
 1344              	.LBB297:
 1345              		.loc 5 268 0
 1346 0022 0820     		movs	r0, #8
 1347 0024 FFF7FEFF 		bl	chSchGoSleepTimeoutS
 1348              	.LVL124:
 1349              	.L82:
 1350              	.LBE297:
 1351              	.LBE296:
 1352              	.LBB298:
 1353              	.LBB299:
 1354              		.loc 4 360 0
 1355 0028 FFF7FEFF 		bl	_dbg_check_unlock
 1356              	.LVL125:
 1357              		.loc 4 361 0
 1358 002c FFF7FEFF 		bl	_stats_stop_measure_crit_thd
 1359              	.LVL126:
 1360              		.loc 4 367 0
 1361 0030 2368     		ldr	r3, [r4]
 1362 0032 A342     		cmp	r3, r4
 1363 0034 04D0     		beq	.L83
 1364 0036 A269     		ldr	r2, [r4, #24]
 1365 0038 9B68     		ldr	r3, [r3, #8]
 1366 003a 9268     		ldr	r2, [r2, #8]
 1367 003c 9A42     		cmp	r2, r3
 1368 003e 08D3     		bcc	.L89
ARM GAS  C:\Users\mathi\AppData\Local\Temp\cceGBsvt.s 			page 25


 1369              	.L83:
 1370              	.LVL127:
 1371              	.LBB300:
 1372              	.LBB301:
 1373              	.LBB302:
 1374              		.loc 3 546 0
 1375 0040 0023     		movs	r3, #0
 1376              		.syntax unified
 1377              	@ 546 "../../lib/e-puck2_main-processor/ChibiOS//os/ext/CMSIS/include/core_cmFunc.h" 1
 1378 0042 83F31188 		MSR basepri, r3
 1379              	@ 0 "" 2
 1380              	.LVL128:
 1381              		.thumb
 1382              		.syntax unified
 1383              	.LBE302:
 1384              	.LBE301:
 1385              	.LBE300:
 1386              	.LBE299:
 1387              	.LBE298:
 1388              		.loc 1 340 0
 1389 0046 019A     		ldr	r2, [sp, #4]
 1390 0048 3368     		ldr	r3, [r6]
 1391 004a 9A42     		cmp	r2, r3
 1392 004c 05D1     		bne	.L90
 1393 004e 02B0     		add	sp, sp, #8
 1394              		.cfi_remember_state
 1395              		.cfi_def_cfa_offset 16
 1396              		@ sp needed
 1397 0050 70BD     		pop	{r4, r5, r6, pc}
 1398              	.L89:
 1399              		.cfi_restore_state
 1400              	.LBB304:
 1401              	.LBB303:
 1402              		.loc 4 367 0
 1403 0052 0548     		ldr	r0, .L91+8
 1404 0054 FFF7FEFF 		bl	chSysHalt
 1405              	.LVL129:
 1406 0058 F2E7     		b	.L83
 1407              	.L90:
 1408              	.LBE303:
 1409              	.LBE304:
 1410              		.loc 1 340 0
 1411 005a FFF7FEFF 		bl	__stack_chk_fail
 1412              	.LVL130:
 1413              	.L92:
 1414 005e 00BF     		.align	2
 1415              	.L91:
 1416 0060 00000000 		.word	__stack_chk_guard
 1417 0064 00000000 		.word	ch
 1418 0068 00000000 		.word	.LANCHOR1
 1419              		.cfi_endproc
 1420              	.LFE227:
 1421              		.size	chThdSleepUntil, .-chThdSleepUntil
 1422              		.section	.text.chThdSleepUntilWindowed,"ax",%progbits
 1423              		.align	1
 1424              		.p2align 4,,15
 1425              		.global	chThdSleepUntilWindowed
ARM GAS  C:\Users\mathi\AppData\Local\Temp\cceGBsvt.s 			page 26


 1426              		.syntax unified
 1427              		.thumb
 1428              		.thumb_func
 1429              		.fpu fpv4-sp-d16
 1430              		.type	chThdSleepUntilWindowed, %function
 1431              	chThdSleepUntilWindowed:
 1432              	.LFB228:
 1433              		.loc 1 356 0
 1434              		.cfi_startproc
 1435              		@ args = 0, pretend = 0, frame = 8
 1436              		@ frame_needed = 0, uses_anonymous_args = 0
 1437              	.LVL131:
 1438 0000 F0B5     		push	{r4, r5, r6, r7, lr}
 1439              		.cfi_def_cfa_offset 20
 1440              		.cfi_offset 4, -20
 1441              		.cfi_offset 5, -16
 1442              		.cfi_offset 6, -12
 1443              		.cfi_offset 7, -8
 1444              		.cfi_offset 14, -4
 1445 0002 1C4F     		ldr	r7, .L102
 1446 0004 83B0     		sub	sp, sp, #12
 1447              		.cfi_def_cfa_offset 32
 1448              		.loc 1 356 0
 1449 0006 3B68     		ldr	r3, [r7]
 1450 0008 0193     		str	r3, [sp, #4]
 1451              	.LVL132:
 1452 000a 0446     		mov	r4, r0
 1453 000c 0E46     		mov	r6, r1
 1454              	.LBB321:
 1455              	.LBB322:
 1456              	.LBB323:
 1457              	.LBB324:
 1458              	.LBB325:
 1459              		.loc 3 546 0
 1460 000e 2023     		movs	r3, #32
 1461              		.syntax unified
 1462              	@ 546 "../../lib/e-puck2_main-processor/ChibiOS//os/ext/CMSIS/include/core_cmFunc.h" 1
 1463 0010 83F31188 		MSR basepri, r3
 1464              	@ 0 "" 2
 1465              	.LVL133:
 1466              		.thumb
 1467              		.syntax unified
 1468              	.LBE325:
 1469              	.LBE324:
 1470              	.LBE323:
 1471              	.LBE322:
 1472              	.LBE321:
 1473              	.LBB327:
 1474              	.LBB328:
 1475              		.loc 6 231 0
 1476 0014 184D     		ldr	r5, .L102+4
 1477              	.LBE328:
 1478              	.LBE327:
 1479              	.LBB330:
 1480              	.LBB326:
 1481              		.loc 4 349 0
 1482 0016 FFF7FEFF 		bl	_stats_start_measure_crit_thd
ARM GAS  C:\Users\mathi\AppData\Local\Temp\cceGBsvt.s 			page 27


 1483              	.LVL134:
 1484              		.loc 4 350 0
 1485 001a FFF7FEFF 		bl	_dbg_check_lock
 1486              	.LVL135:
 1487              	.LBE326:
 1488              	.LBE330:
 1489              	.LBB331:
 1490              	.LBB329:
 1491              		.loc 6 231 0
 1492 001e A96A     		ldr	r1, [r5, #40]
 1493              	.LBE329:
 1494              	.LBE331:
 1495              	.LBB332:
 1496              	.LBB333:
 1497              		.loc 6 288 0
 1498 0020 331B     		subs	r3, r6, r4
 1499 0022 0C1B     		subs	r4, r1, r4
 1500              	.LVL136:
 1501              	.LBE333:
 1502              	.LBE332:
 1503              		.loc 1 361 0
 1504 0024 9C42     		cmp	r4, r3
 1505 0026 19D3     		bcc	.L99
 1506              	.L94:
 1507              	.LBB334:
 1508              	.LBB335:
 1509              		.loc 4 360 0
 1510 0028 FFF7FEFF 		bl	_dbg_check_unlock
 1511              	.LVL137:
 1512              		.loc 4 361 0
 1513 002c FFF7FEFF 		bl	_stats_stop_measure_crit_thd
 1514              	.LVL138:
 1515              		.loc 4 367 0
 1516 0030 2B68     		ldr	r3, [r5]
 1517 0032 AB42     		cmp	r3, r5
 1518 0034 04D0     		beq	.L96
 1519 0036 AA69     		ldr	r2, [r5, #24]
 1520 0038 9B68     		ldr	r3, [r3, #8]
 1521 003a 9268     		ldr	r2, [r2, #8]
 1522 003c 9A42     		cmp	r2, r3
 1523 003e 09D3     		bcc	.L100
 1524              	.L96:
 1525              	.LVL139:
 1526              	.LBB336:
 1527              	.LBB337:
 1528              	.LBB338:
 1529              		.loc 3 546 0
 1530 0040 0023     		movs	r3, #0
 1531              		.syntax unified
 1532              	@ 546 "../../lib/e-puck2_main-processor/ChibiOS//os/ext/CMSIS/include/core_cmFunc.h" 1
 1533 0042 83F31188 		MSR basepri, r3
 1534              	@ 0 "" 2
 1535              	.LVL140:
 1536              		.thumb
 1537              		.syntax unified
 1538              	.LBE338:
 1539              	.LBE337:
ARM GAS  C:\Users\mathi\AppData\Local\Temp\cceGBsvt.s 			page 28


 1540              	.LBE336:
 1541              	.LBE335:
 1542              	.LBE334:
 1543              		.loc 1 367 0
 1544 0046 019A     		ldr	r2, [sp, #4]
 1545 0048 3B68     		ldr	r3, [r7]
 1546 004a 9A42     		cmp	r2, r3
 1547 004c 3046     		mov	r0, r6
 1548 004e 0FD1     		bne	.L101
 1549              	.LVL141:
 1550 0050 03B0     		add	sp, sp, #12
 1551              		.cfi_remember_state
 1552              		.cfi_def_cfa_offset 20
 1553              		@ sp needed
 1554 0052 F0BD     		pop	{r4, r5, r6, r7, pc}
 1555              	.LVL142:
 1556              	.L100:
 1557              		.cfi_restore_state
 1558              	.LBB340:
 1559              	.LBB339:
 1560              		.loc 4 367 0
 1561 0054 0948     		ldr	r0, .L102+8
 1562 0056 FFF7FEFF 		bl	chSysHalt
 1563              	.LVL143:
 1564 005a F1E7     		b	.L96
 1565              	.L99:
 1566              	.LVL144:
 1567              	.LBE339:
 1568              	.LBE340:
 1569              	.LBB341:
 1570              	.LBB342:
 1571              		.loc 5 266 0
 1572 005c 741A     		subs	r4, r6, r1
 1573              	.LVL145:
 1574 005e 02D1     		bne	.L95
 1575 0060 0748     		ldr	r0, .L102+12
 1576 0062 FFF7FEFF 		bl	chSysHalt
 1577              	.LVL146:
 1578              	.L95:
 1579              		.loc 5 268 0
 1580 0066 2146     		mov	r1, r4
 1581 0068 0820     		movs	r0, #8
 1582 006a FFF7FEFF 		bl	chSchGoSleepTimeoutS
 1583              	.LVL147:
 1584 006e DBE7     		b	.L94
 1585              	.LVL148:
 1586              	.L101:
 1587              	.LBE342:
 1588              	.LBE341:
 1589              		.loc 1 367 0
 1590 0070 FFF7FEFF 		bl	__stack_chk_fail
 1591              	.LVL149:
 1592              	.L103:
 1593              		.align	2
 1594              	.L102:
 1595 0074 00000000 		.word	__stack_chk_guard
 1596 0078 00000000 		.word	ch
ARM GAS  C:\Users\mathi\AppData\Local\Temp\cceGBsvt.s 			page 29


 1597 007c 00000000 		.word	.LANCHOR1
 1598 0080 00000000 		.word	.LANCHOR4
 1599              		.cfi_endproc
 1600              	.LFE228:
 1601              		.size	chThdSleepUntilWindowed, .-chThdSleepUntilWindowed
 1602              		.section	.text.chThdYield,"ax",%progbits
 1603              		.align	1
 1604              		.p2align 4,,15
 1605              		.global	chThdYield
 1606              		.syntax unified
 1607              		.thumb
 1608              		.thumb_func
 1609              		.fpu fpv4-sp-d16
 1610              		.type	chThdYield, %function
 1611              	chThdYield:
 1612              	.LFB229:
 1613              		.loc 1 376 0
 1614              		.cfi_startproc
 1615              		@ args = 0, pretend = 0, frame = 8
 1616              		@ frame_needed = 0, uses_anonymous_args = 0
 1617 0000 30B5     		push	{r4, r5, lr}
 1618              		.cfi_def_cfa_offset 12
 1619              		.cfi_offset 4, -12
 1620              		.cfi_offset 5, -8
 1621              		.cfi_offset 14, -4
 1622 0002 194D     		ldr	r5, .L111
 1623 0004 83B0     		sub	sp, sp, #12
 1624              		.cfi_def_cfa_offset 24
 1625              		.loc 1 376 0
 1626 0006 2B68     		ldr	r3, [r5]
 1627 0008 0193     		str	r3, [sp, #4]
 1628              	.LVL150:
 1629              	.LBB357:
 1630              	.LBB358:
 1631              	.LBB359:
 1632              	.LBB360:
 1633              	.LBB361:
 1634              		.loc 3 546 0
 1635 000a 2023     		movs	r3, #32
 1636              		.syntax unified
 1637              	@ 546 "../../lib/e-puck2_main-processor/ChibiOS//os/ext/CMSIS/include/core_cmFunc.h" 1
 1638 000c 83F31188 		MSR basepri, r3
 1639              	@ 0 "" 2
 1640              	.LVL151:
 1641              		.thumb
 1642              		.syntax unified
 1643              	.LBE361:
 1644              	.LBE360:
 1645              	.LBE359:
 1646              	.LBE358:
 1647              	.LBE357:
 1648              	.LBB363:
 1649              	.LBB364:
 1650              	.LBB365:
 1651              	.LBB366:
 1652              		.loc 2 731 0
 1653 0010 164C     		ldr	r4, .L111+4
ARM GAS  C:\Users\mathi\AppData\Local\Temp\cceGBsvt.s 			page 30


 1654              	.LBE366:
 1655              	.LBE365:
 1656              	.LBE364:
 1657              	.LBE363:
 1658              	.LBB370:
 1659              	.LBB362:
 1660              		.loc 4 349 0
 1661 0012 FFF7FEFF 		bl	_stats_start_measure_crit_thd
 1662              	.LVL152:
 1663              		.loc 4 350 0
 1664 0016 FFF7FEFF 		bl	_dbg_check_lock
 1665              	.LVL153:
 1666              	.LBE362:
 1667              	.LBE370:
 1668              	.LBB371:
 1669              	.LBB369:
 1670              		.loc 2 743 0
 1671 001a FFF7FEFF 		bl	chDbgCheckClassS
 1672              	.LVL154:
 1673              	.LBB368:
 1674              	.LBB367:
 1675              		.loc 2 729 0
 1676 001e FFF7FEFF 		bl	chDbgCheckClassS
 1677              	.LVL155:
 1678              		.loc 2 731 0
 1679 0022 2268     		ldr	r2, [r4]
 1680 0024 A369     		ldr	r3, [r4, #24]
 1681              	.LBE367:
 1682              	.LBE368:
 1683              		.loc 2 745 0
 1684 0026 9268     		ldr	r2, [r2, #8]
 1685 0028 9B68     		ldr	r3, [r3, #8]
 1686 002a 9A42     		cmp	r2, r3
 1687 002c 01D3     		bcc	.L105
 1688              		.loc 2 746 0
 1689 002e FFF7FEFF 		bl	chSchDoRescheduleBehind
 1690              	.LVL156:
 1691              	.L105:
 1692              	.LBE369:
 1693              	.LBE371:
 1694              	.LBB372:
 1695              	.LBB373:
 1696              		.loc 4 360 0
 1697 0032 FFF7FEFF 		bl	_dbg_check_unlock
 1698              	.LVL157:
 1699              		.loc 4 361 0
 1700 0036 FFF7FEFF 		bl	_stats_stop_measure_crit_thd
 1701              	.LVL158:
 1702              		.loc 4 367 0
 1703 003a 2368     		ldr	r3, [r4]
 1704 003c A342     		cmp	r3, r4
 1705 003e 04D0     		beq	.L106
 1706 0040 A269     		ldr	r2, [r4, #24]
 1707 0042 9B68     		ldr	r3, [r3, #8]
 1708 0044 9268     		ldr	r2, [r2, #8]
 1709 0046 9A42     		cmp	r2, r3
 1710 0048 08D3     		bcc	.L109
ARM GAS  C:\Users\mathi\AppData\Local\Temp\cceGBsvt.s 			page 31


 1711              	.L106:
 1712              	.LVL159:
 1713              	.LBB374:
 1714              	.LBB375:
 1715              	.LBB376:
 1716              		.loc 3 546 0
 1717 004a 0023     		movs	r3, #0
 1718              		.syntax unified
 1719              	@ 546 "../../lib/e-puck2_main-processor/ChibiOS//os/ext/CMSIS/include/core_cmFunc.h" 1
 1720 004c 83F31188 		MSR basepri, r3
 1721              	@ 0 "" 2
 1722              	.LVL160:
 1723              		.thumb
 1724              		.syntax unified
 1725              	.LBE376:
 1726              	.LBE375:
 1727              	.LBE374:
 1728              	.LBE373:
 1729              	.LBE372:
 1730              		.loc 1 381 0
 1731 0050 019A     		ldr	r2, [sp, #4]
 1732 0052 2B68     		ldr	r3, [r5]
 1733 0054 9A42     		cmp	r2, r3
 1734 0056 05D1     		bne	.L110
 1735 0058 03B0     		add	sp, sp, #12
 1736              		.cfi_remember_state
 1737              		.cfi_def_cfa_offset 12
 1738              		@ sp needed
 1739 005a 30BD     		pop	{r4, r5, pc}
 1740              	.L109:
 1741              		.cfi_restore_state
 1742              	.LBB378:
 1743              	.LBB377:
 1744              		.loc 4 367 0
 1745 005c 0448     		ldr	r0, .L111+8
 1746 005e FFF7FEFF 		bl	chSysHalt
 1747              	.LVL161:
 1748 0062 F2E7     		b	.L106
 1749              	.L110:
 1750              	.LBE377:
 1751              	.LBE378:
 1752              		.loc 1 381 0
 1753 0064 FFF7FEFF 		bl	__stack_chk_fail
 1754              	.LVL162:
 1755              	.L112:
 1756              		.align	2
 1757              	.L111:
 1758 0068 00000000 		.word	__stack_chk_guard
 1759 006c 00000000 		.word	ch
 1760 0070 00000000 		.word	.LANCHOR1
 1761              		.cfi_endproc
 1762              	.LFE229:
 1763              		.size	chThdYield, .-chThdYield
 1764              		.section	.text.chThdExit,"ax",%progbits
 1765              		.align	1
 1766              		.p2align 4,,15
 1767              		.global	chThdExit
ARM GAS  C:\Users\mathi\AppData\Local\Temp\cceGBsvt.s 			page 32


 1768              		.syntax unified
 1769              		.thumb
 1770              		.thumb_func
 1771              		.fpu fpv4-sp-d16
 1772              		.type	chThdExit, %function
 1773              	chThdExit:
 1774              	.LFB230:
 1775              		.loc 1 397 0
 1776              		.cfi_startproc
 1777              		@ args = 0, pretend = 0, frame = 8
 1778              		@ frame_needed = 0, uses_anonymous_args = 0
 1779              	.LVL163:
 1780 0000 70B5     		push	{r4, r5, r6, lr}
 1781              		.cfi_def_cfa_offset 16
 1782              		.cfi_offset 4, -16
 1783              		.cfi_offset 5, -12
 1784              		.cfi_offset 6, -8
 1785              		.cfi_offset 14, -4
 1786 0002 1A4E     		ldr	r6, .L122
 1787 0004 82B0     		sub	sp, sp, #8
 1788              		.cfi_def_cfa_offset 24
 1789              		.loc 1 397 0
 1790 0006 3368     		ldr	r3, [r6]
 1791 0008 0193     		str	r3, [sp, #4]
 1792              	.LVL164:
 1793 000a 0546     		mov	r5, r0
 1794              	.LBB390:
 1795              	.LBB391:
 1796              	.LBB392:
 1797              	.LBB393:
 1798              	.LBB394:
 1799              		.loc 3 546 0
 1800 000c 2023     		movs	r3, #32
 1801              		.syntax unified
 1802              	@ 546 "../../lib/e-puck2_main-processor/ChibiOS//os/ext/CMSIS/include/core_cmFunc.h" 1
 1803 000e 83F31188 		MSR basepri, r3
 1804              	@ 0 "" 2
 1805              	.LVL165:
 1806              		.thumb
 1807              		.syntax unified
 1808              	.LBE394:
 1809              	.LBE393:
 1810              	.LBE392:
 1811              		.loc 4 349 0
 1812 0012 FFF7FEFF 		bl	_stats_start_measure_crit_thd
 1813              	.LVL166:
 1814              		.loc 4 350 0
 1815 0016 FFF7FEFF 		bl	_dbg_check_lock
 1816              	.LVL167:
 1817              	.LBE391:
 1818              	.LBE390:
 1819              	.LBB395:
 1820              	.LBB396:
 1821              		.loc 1 419 0
 1822 001a 154B     		ldr	r3, .L122+4
 1823 001c 9C69     		ldr	r4, [r3, #24]
 1824              	.LVL168:
ARM GAS  C:\Users\mathi\AppData\Local\Temp\cceGBsvt.s 			page 33


 1825              	.LBB397:
 1826              	.LBB398:
 1827              		.loc 2 592 0
 1828 001e E06A     		ldr	r0, [r4, #44]
 1829              	.LBE398:
 1830              	.LBE397:
 1831              		.loc 1 421 0
 1832 0020 A562     		str	r5, [r4, #40]
 1833              		.loc 1 426 0
 1834 0022 04F12C05 		add	r5, r4, #44
 1835              	.LVL169:
 1836 0026 A842     		cmp	r0, r5
 1837 0028 06D0     		beq	.L114
 1838              	.LVL170:
 1839              	.L115:
 1840              	.LBB400:
 1841              	.LBB401:
 1842              		.loc 2 646 0
 1843 002a 0368     		ldr	r3, [r0]
 1844 002c E362     		str	r3, [r4, #44]
 1845              	.LVL171:
 1846              	.LBE401:
 1847              	.LBE400:
 1848              		.loc 1 427 0
 1849 002e FFF7FEFF 		bl	chSchReadyI
 1850              	.LVL172:
 1851              	.LBB402:
 1852              	.LBB399:
 1853              		.loc 2 592 0
 1854 0032 E06A     		ldr	r0, [r4, #44]
 1855              	.LVL173:
 1856              	.LBE399:
 1857              	.LBE402:
 1858              		.loc 1 426 0
 1859 0034 A842     		cmp	r0, r5
 1860 0036 F8D1     		bne	.L115
 1861              	.L114:
 1862              		.loc 1 433 0
 1863 0038 94F82130 		ldrb	r3, [r4, #33]	@ zero_extendqisi2
 1864 003c 9B07     		lsls	r3, r3, #30
 1865 003e 05D1     		bne	.L116
 1866              		.loc 1 434 0
 1867 0040 D4E90423 		ldrd	r2, r3, [r4, #16]
 1868 0044 1A61     		str	r2, [r3, #16]
 1869 0046 D4E90432 		ldrd	r3, r2, [r4, #16]
 1870 004a 5A61     		str	r2, [r3, #20]
 1871              	.L116:
 1872              		.loc 1 437 0
 1873 004c 0F20     		movs	r0, #15
 1874 004e FFF7FEFF 		bl	chSchGoSleepS
 1875              	.LVL174:
 1876              		.loc 1 440 0
 1877 0052 019A     		ldr	r2, [sp, #4]
 1878 0054 3368     		ldr	r3, [r6]
 1879 0056 9A42     		cmp	r2, r3
 1880 0058 05D1     		bne	.L121
 1881 005a 0648     		ldr	r0, .L122+8
ARM GAS  C:\Users\mathi\AppData\Local\Temp\cceGBsvt.s 			page 34


 1882              	.LBE396:
 1883              	.LBE395:
 1884              		.loc 1 402 0
 1885 005c 02B0     		add	sp, sp, #8
 1886              		.cfi_remember_state
 1887              		.cfi_def_cfa_offset 16
 1888              		@ sp needed
 1889 005e BDE87040 		pop	{r4, r5, r6, lr}
 1890              		.cfi_restore 14
 1891              		.cfi_restore 6
 1892              		.cfi_restore 5
 1893              		.cfi_restore 4
 1894              		.cfi_def_cfa_offset 0
 1895              	.LVL175:
 1896              	.LBB404:
 1897              	.LBB403:
 1898              		.loc 1 440 0
 1899 0062 FFF7FEBF 		b	chSysHalt
 1900              	.LVL176:
 1901              	.L121:
 1902              		.cfi_restore_state
 1903 0066 FFF7FEFF 		bl	__stack_chk_fail
 1904              	.LVL177:
 1905              	.L123:
 1906 006a 00BF     		.align	2
 1907              	.L122:
 1908 006c 00000000 		.word	__stack_chk_guard
 1909 0070 00000000 		.word	ch
 1910 0074 00000000 		.word	.LANCHOR5
 1911              	.LBE403:
 1912              	.LBE404:
 1913              		.cfi_endproc
 1914              	.LFE230:
 1915              		.size	chThdExit, .-chThdExit
 1916              		.section	.text.chThdExitS,"ax",%progbits
 1917              		.align	1
 1918              		.p2align 4,,15
 1919              		.global	chThdExitS
 1920              		.syntax unified
 1921              		.thumb
 1922              		.thumb_func
 1923              		.fpu fpv4-sp-d16
 1924              		.type	chThdExitS, %function
 1925              	chThdExitS:
 1926              	.LFB231:
 1927              		.loc 1 418 0
 1928              		.cfi_startproc
 1929              		@ args = 0, pretend = 0, frame = 8
 1930              		@ frame_needed = 0, uses_anonymous_args = 0
 1931              	.LVL178:
 1932 0000 70B5     		push	{r4, r5, r6, lr}
 1933              		.cfi_def_cfa_offset 16
 1934              		.cfi_offset 4, -16
 1935              		.cfi_offset 5, -12
 1936              		.cfi_offset 6, -8
 1937              		.cfi_offset 14, -4
 1938              		.loc 1 419 0
ARM GAS  C:\Users\mathi\AppData\Local\Temp\cceGBsvt.s 			page 35


 1939 0002 164B     		ldr	r3, .L133
 1940              		.loc 1 418 0
 1941 0004 164E     		ldr	r6, .L133+4
 1942              		.loc 1 419 0
 1943 0006 9C69     		ldr	r4, [r3, #24]
 1944              	.LVL179:
 1945              		.loc 1 418 0
 1946 0008 3268     		ldr	r2, [r6]
 1947              	.LBB405:
 1948              	.LBB406:
 1949              		.loc 2 592 0
 1950 000a E36A     		ldr	r3, [r4, #44]
 1951              	.LBE406:
 1952              	.LBE405:
 1953              		.loc 1 421 0
 1954 000c A062     		str	r0, [r4, #40]
 1955              		.loc 1 418 0
 1956 000e 82B0     		sub	sp, sp, #8
 1957              		.cfi_def_cfa_offset 24
 1958              		.loc 1 426 0
 1959 0010 04F12C05 		add	r5, r4, #44
 1960 0014 AB42     		cmp	r3, r5
 1961              		.loc 1 418 0
 1962 0016 0192     		str	r2, [sp, #4]
 1963              		.loc 1 426 0
 1964 0018 07D0     		beq	.L125
 1965              	.LVL180:
 1966              	.L126:
 1967              	.LBB408:
 1968              	.LBB409:
 1969              		.loc 2 646 0
 1970 001a 1A68     		ldr	r2, [r3]
 1971 001c E262     		str	r2, [r4, #44]
 1972              	.LVL181:
 1973              	.LBE409:
 1974              	.LBE408:
 1975              		.loc 1 427 0
 1976 001e 1846     		mov	r0, r3
 1977 0020 FFF7FEFF 		bl	chSchReadyI
 1978              	.LVL182:
 1979              	.LBB410:
 1980              	.LBB407:
 1981              		.loc 2 592 0
 1982 0024 E36A     		ldr	r3, [r4, #44]
 1983              	.LVL183:
 1984              	.LBE407:
 1985              	.LBE410:
 1986              		.loc 1 426 0
 1987 0026 AB42     		cmp	r3, r5
 1988 0028 F7D1     		bne	.L126
 1989              	.L125:
 1990              		.loc 1 433 0
 1991 002a 94F82130 		ldrb	r3, [r4, #33]	@ zero_extendqisi2
 1992 002e 9B07     		lsls	r3, r3, #30
 1993 0030 05D1     		bne	.L127
 1994              		.loc 1 434 0
 1995 0032 D4E90423 		ldrd	r2, r3, [r4, #16]
ARM GAS  C:\Users\mathi\AppData\Local\Temp\cceGBsvt.s 			page 36


 1996 0036 1A61     		str	r2, [r3, #16]
 1997 0038 D4E90432 		ldrd	r3, r2, [r4, #16]
 1998 003c 5A61     		str	r2, [r3, #20]
 1999              	.L127:
 2000              		.loc 1 437 0
 2001 003e 0F20     		movs	r0, #15
 2002 0040 FFF7FEFF 		bl	chSchGoSleepS
 2003              	.LVL184:
 2004              		.loc 1 440 0
 2005 0044 019A     		ldr	r2, [sp, #4]
 2006 0046 3368     		ldr	r3, [r6]
 2007 0048 9A42     		cmp	r2, r3
 2008 004a 05D1     		bne	.L132
 2009 004c 0548     		ldr	r0, .L133+8
 2010              		.loc 1 441 0
 2011 004e 02B0     		add	sp, sp, #8
 2012              		.cfi_remember_state
 2013              		.cfi_def_cfa_offset 16
 2014              		@ sp needed
 2015 0050 BDE87040 		pop	{r4, r5, r6, lr}
 2016              		.cfi_restore 14
 2017              		.cfi_restore 6
 2018              		.cfi_restore 5
 2019              		.cfi_restore 4
 2020              		.cfi_def_cfa_offset 0
 2021              	.LVL185:
 2022              		.loc 1 440 0
 2023 0054 FFF7FEBF 		b	chSysHalt
 2024              	.LVL186:
 2025              	.L132:
 2026              		.cfi_restore_state
 2027 0058 FFF7FEFF 		bl	__stack_chk_fail
 2028              	.LVL187:
 2029              	.L134:
 2030              		.align	2
 2031              	.L133:
 2032 005c 00000000 		.word	ch
 2033 0060 00000000 		.word	__stack_chk_guard
 2034 0064 00000000 		.word	.LANCHOR5
 2035              		.cfi_endproc
 2036              	.LFE231:
 2037              		.size	chThdExitS, .-chThdExitS
 2038              		.section	.text.chThdWait,"ax",%progbits
 2039              		.align	1
 2040              		.p2align 4,,15
 2041              		.global	chThdWait
 2042              		.syntax unified
 2043              		.thumb
 2044              		.thumb_func
 2045              		.fpu fpv4-sp-d16
 2046              		.type	chThdWait, %function
 2047              	chThdWait:
 2048              	.LFB232:
 2049              		.loc 1 475 0
 2050              		.cfi_startproc
 2051              		@ args = 0, pretend = 0, frame = 8
 2052              		@ frame_needed = 0, uses_anonymous_args = 0
ARM GAS  C:\Users\mathi\AppData\Local\Temp\cceGBsvt.s 			page 37


 2053              	.LVL188:
 2054 0000 F0B5     		push	{r4, r5, r6, r7, lr}
 2055              		.cfi_def_cfa_offset 20
 2056              		.cfi_offset 4, -20
 2057              		.cfi_offset 5, -16
 2058              		.cfi_offset 6, -12
 2059              		.cfi_offset 7, -8
 2060              		.cfi_offset 14, -4
 2061 0002 264E     		ldr	r6, .L151
 2062 0004 83B0     		sub	sp, sp, #12
 2063              		.cfi_def_cfa_offset 32
 2064              		.loc 1 475 0
 2065 0006 3368     		ldr	r3, [r6]
 2066 0008 0193     		str	r3, [sp, #4]
 2067              		.loc 1 478 0
 2068 000a 0446     		mov	r4, r0
 2069 000c 0028     		cmp	r0, #0
 2070 000e 3ED0     		beq	.L146
 2071              	.LVL189:
 2072              	.L136:
 2073              	.LBB423:
 2074              	.LBB424:
 2075              	.LBB425:
 2076              	.LBB426:
 2077              	.LBB427:
 2078              		.loc 3 546 0
 2079 0010 2023     		movs	r3, #32
 2080              		.syntax unified
 2081              	@ 546 "../../lib/e-puck2_main-processor/ChibiOS//os/ext/CMSIS/include/core_cmFunc.h" 1
 2082 0012 83F31188 		MSR basepri, r3
 2083              	@ 0 "" 2
 2084              	.LVL190:
 2085              		.thumb
 2086              		.syntax unified
 2087              	.LBE427:
 2088              	.LBE426:
 2089              	.LBE425:
 2090              	.LBE424:
 2091              	.LBE423:
 2092              		.loc 1 481 0
 2093 0016 224D     		ldr	r5, .L151+4
 2094              	.LBB429:
 2095              	.LBB428:
 2096              		.loc 4 349 0
 2097 0018 FFF7FEFF 		bl	_stats_start_measure_crit_thd
 2098              	.LVL191:
 2099              		.loc 4 350 0
 2100 001c FFF7FEFF 		bl	_dbg_check_lock
 2101              	.LVL192:
 2102              	.LBE428:
 2103              	.LBE429:
 2104              		.loc 1 481 0
 2105 0020 AB69     		ldr	r3, [r5, #24]
 2106 0022 A342     		cmp	r3, r4
 2107 0024 2FD0     		beq	.L147
 2108              	.L137:
 2109              		.loc 1 483 0 discriminator 1
ARM GAS  C:\Users\mathi\AppData\Local\Temp\cceGBsvt.s 			page 38


 2110 0026 94F82230 		ldrb	r3, [r4, #34]	@ zero_extendqisi2
 2111 002a 43B3     		cbz	r3, .L148
 2112              	.L138:
 2113              		.loc 1 485 0
 2114 002c 94F82030 		ldrb	r3, [r4, #32]	@ zero_extendqisi2
 2115 0030 0F2B     		cmp	r3, #15
 2116 0032 06D0     		beq	.L139
 2117              		.loc 1 486 0
 2118 0034 AB69     		ldr	r3, [r5, #24]
 2119              	.LVL193:
 2120              	.LBB430:
 2121              	.LBB431:
 2122              		.loc 2 639 0
 2123 0036 E26A     		ldr	r2, [r4, #44]
 2124 0038 1A60     		str	r2, [r3]
 2125              	.LBE431:
 2126              	.LBE430:
 2127              		.loc 1 487 0
 2128 003a 0920     		movs	r0, #9
 2129              	.LBB433:
 2130              	.LBB432:
 2131              		.loc 2 640 0
 2132 003c E362     		str	r3, [r4, #44]
 2133              	.LVL194:
 2134              	.LBE432:
 2135              	.LBE433:
 2136              		.loc 1 487 0
 2137 003e FFF7FEFF 		bl	chSchGoSleepS
 2138              	.LVL195:
 2139              	.L139:
 2140              		.loc 1 489 0
 2141 0042 A76A     		ldr	r7, [r4, #40]
 2142              	.LVL196:
 2143              	.LBB434:
 2144              	.LBB435:
 2145              		.loc 4 360 0
 2146 0044 FFF7FEFF 		bl	_dbg_check_unlock
 2147              	.LVL197:
 2148              		.loc 4 361 0
 2149 0048 FFF7FEFF 		bl	_stats_stop_measure_crit_thd
 2150              	.LVL198:
 2151              		.loc 4 367 0
 2152 004c 2B68     		ldr	r3, [r5]
 2153 004e AB42     		cmp	r3, r5
 2154 0050 04D0     		beq	.L140
 2155 0052 AA69     		ldr	r2, [r5, #24]
 2156 0054 9B68     		ldr	r3, [r3, #8]
 2157 0056 9268     		ldr	r2, [r2, #8]
 2158 0058 9A42     		cmp	r2, r3
 2159 005a 0CD3     		bcc	.L149
 2160              	.L140:
 2161              	.LVL199:
 2162              	.LBB436:
 2163              	.LBB437:
 2164              	.LBB438:
 2165              		.loc 3 546 0
 2166 005c 0023     		movs	r3, #0
ARM GAS  C:\Users\mathi\AppData\Local\Temp\cceGBsvt.s 			page 39


 2167              		.syntax unified
 2168              	@ 546 "../../lib/e-puck2_main-processor/ChibiOS//os/ext/CMSIS/include/core_cmFunc.h" 1
 2169 005e 83F31188 		MSR basepri, r3
 2170              	@ 0 "" 2
 2171              	.LVL200:
 2172              		.thumb
 2173              		.syntax unified
 2174              	.LBE438:
 2175              	.LBE437:
 2176              	.LBE436:
 2177              	.LBE435:
 2178              	.LBE434:
 2179              		.loc 1 494 0
 2180 0062 2046     		mov	r0, r4
 2181 0064 FFF7FEFF 		bl	chThdRelease
 2182              	.LVL201:
 2183              		.loc 1 498 0
 2184 0068 019A     		ldr	r2, [sp, #4]
 2185 006a 3368     		ldr	r3, [r6]
 2186 006c 9A42     		cmp	r2, r3
 2187 006e 3846     		mov	r0, r7
 2188 0070 11D1     		bne	.L150
 2189              	.LVL202:
 2190 0072 03B0     		add	sp, sp, #12
 2191              		.cfi_remember_state
 2192              		.cfi_def_cfa_offset 20
 2193              		@ sp needed
 2194 0074 F0BD     		pop	{r4, r5, r6, r7, pc}
 2195              	.LVL203:
 2196              	.L149:
 2197              		.cfi_restore_state
 2198              	.LBB440:
 2199              	.LBB439:
 2200              		.loc 4 367 0
 2201 0076 0B48     		ldr	r0, .L151+8
 2202 0078 FFF7FEFF 		bl	chSysHalt
 2203              	.LVL204:
 2204 007c EEE7     		b	.L140
 2205              	.LVL205:
 2206              	.L148:
 2207              	.LBE439:
 2208              	.LBE440:
 2209              		.loc 1 483 0 discriminator 2
 2210 007e 0A48     		ldr	r0, .L151+12
 2211 0080 FFF7FEFF 		bl	chSysHalt
 2212              	.LVL206:
 2213 0084 D2E7     		b	.L138
 2214              	.L147:
 2215              		.loc 1 481 0 discriminator 2
 2216 0086 0848     		ldr	r0, .L151+12
 2217 0088 FFF7FEFF 		bl	chSysHalt
 2218              	.LVL207:
 2219 008c CBE7     		b	.L137
 2220              	.LVL208:
 2221              	.L146:
 2222              		.loc 1 478 0 discriminator 2
 2223 008e 0648     		ldr	r0, .L151+12
ARM GAS  C:\Users\mathi\AppData\Local\Temp\cceGBsvt.s 			page 40


 2224              	.LVL209:
 2225 0090 FFF7FEFF 		bl	chSysHalt
 2226              	.LVL210:
 2227 0094 BCE7     		b	.L136
 2228              	.LVL211:
 2229              	.L150:
 2230              		.loc 1 498 0
 2231 0096 FFF7FEFF 		bl	__stack_chk_fail
 2232              	.LVL212:
 2233              	.L152:
 2234 009a 00BF     		.align	2
 2235              	.L151:
 2236 009c 00000000 		.word	__stack_chk_guard
 2237 00a0 00000000 		.word	ch
 2238 00a4 00000000 		.word	.LANCHOR1
 2239 00a8 00000000 		.word	.LANCHOR6
 2240              		.cfi_endproc
 2241              	.LFE232:
 2242              		.size	chThdWait, .-chThdWait
 2243              		.section	.text.chThdSuspendS,"ax",%progbits
 2244              		.align	1
 2245              		.p2align 4,,15
 2246              		.global	chThdSuspendS
 2247              		.syntax unified
 2248              		.thumb
 2249              		.thumb_func
 2250              		.fpu fpv4-sp-d16
 2251              		.type	chThdSuspendS, %function
 2252              	chThdSuspendS:
 2253              	.LFB233:
 2254              		.loc 1 511 0
 2255              		.cfi_startproc
 2256              		@ args = 0, pretend = 0, frame = 8
 2257              		@ frame_needed = 0, uses_anonymous_args = 0
 2258              	.LVL213:
 2259 0000 F0B5     		push	{r4, r5, r6, r7, lr}
 2260              		.cfi_def_cfa_offset 20
 2261              		.cfi_offset 4, -20
 2262              		.cfi_offset 5, -16
 2263              		.cfi_offset 6, -12
 2264              		.cfi_offset 7, -8
 2265              		.cfi_offset 14, -4
 2266 0002 0D4D     		ldr	r5, .L161
 2267              	.LBB441:
 2268              	.LBB442:
 2269              		.loc 5 176 0
 2270 0004 0D4E     		ldr	r6, .L161+4
 2271              	.LBE442:
 2272              	.LBE441:
 2273              		.loc 1 514 0
 2274 0006 0368     		ldr	r3, [r0]
 2275              		.loc 1 511 0
 2276 0008 2A68     		ldr	r2, [r5]
 2277              	.LBB444:
 2278              	.LBB443:
 2279              		.loc 5 176 0
 2280 000a B769     		ldr	r7, [r6, #24]
ARM GAS  C:\Users\mathi\AppData\Local\Temp\cceGBsvt.s 			page 41


 2281              	.LBE443:
 2282              	.LBE444:
 2283              		.loc 1 511 0
 2284 000c 83B0     		sub	sp, sp, #12
 2285              		.cfi_def_cfa_offset 32
 2286              		.loc 1 511 0
 2287 000e 0446     		mov	r4, r0
 2288 0010 0192     		str	r2, [sp, #4]
 2289              		.loc 1 514 0
 2290 0012 13B1     		cbz	r3, .L154
 2291              		.loc 1 514 0 is_stmt 0 discriminator 2
 2292 0014 0A48     		ldr	r0, .L161+8
 2293              	.LVL214:
 2294 0016 FFF7FEFF 		bl	chSysHalt
 2295              	.LVL215:
 2296              	.L154:
 2297              		.loc 1 516 0 is_stmt 1
 2298 001a 2760     		str	r7, [r4]
 2299              		.loc 1 518 0
 2300 001c 0320     		movs	r0, #3
 2301              		.loc 1 517 0
 2302 001e BC62     		str	r4, [r7, #40]
 2303              		.loc 1 518 0
 2304 0020 FFF7FEFF 		bl	chSchGoSleepS
 2305              	.LVL216:
 2306              		.loc 1 521 0
 2307 0024 019A     		ldr	r2, [sp, #4]
 2308 0026 2B68     		ldr	r3, [r5]
 2309              		.loc 1 520 0
 2310 0028 B169     		ldr	r1, [r6, #24]
 2311              		.loc 1 521 0
 2312 002a 9A42     		cmp	r2, r3
 2313 002c 886A     		ldr	r0, [r1, #40]
 2314 002e 01D1     		bne	.L160
 2315 0030 03B0     		add	sp, sp, #12
 2316              		.cfi_remember_state
 2317              		.cfi_def_cfa_offset 20
 2318              		@ sp needed
 2319 0032 F0BD     		pop	{r4, r5, r6, r7, pc}
 2320              	.LVL217:
 2321              	.L160:
 2322              		.cfi_restore_state
 2323 0034 FFF7FEFF 		bl	__stack_chk_fail
 2324              	.LVL218:
 2325              	.L162:
 2326              		.align	2
 2327              	.L161:
 2328 0038 00000000 		.word	__stack_chk_guard
 2329 003c 00000000 		.word	ch
 2330 0040 00000000 		.word	.LANCHOR7
 2331              		.cfi_endproc
 2332              	.LFE233:
 2333              		.size	chThdSuspendS, .-chThdSuspendS
 2334              		.section	.text.chThdSuspendTimeoutS,"ax",%progbits
 2335              		.align	1
 2336              		.p2align 4,,15
 2337              		.global	chThdSuspendTimeoutS
ARM GAS  C:\Users\mathi\AppData\Local\Temp\cceGBsvt.s 			page 42


 2338              		.syntax unified
 2339              		.thumb
 2340              		.thumb_func
 2341              		.fpu fpv4-sp-d16
 2342              		.type	chThdSuspendTimeoutS, %function
 2343              	chThdSuspendTimeoutS:
 2344              	.LFB234:
 2345              		.loc 1 542 0
 2346              		.cfi_startproc
 2347              		@ args = 0, pretend = 0, frame = 8
 2348              		@ frame_needed = 0, uses_anonymous_args = 0
 2349              	.LVL219:
 2350 0000 F0B5     		push	{r4, r5, r6, r7, lr}
 2351              		.cfi_def_cfa_offset 20
 2352              		.cfi_offset 4, -20
 2353              		.cfi_offset 5, -16
 2354              		.cfi_offset 6, -12
 2355              		.cfi_offset 7, -8
 2356              		.cfi_offset 14, -4
 2357 0002 124D     		ldr	r5, .L173
 2358              		.loc 1 545 0
 2359 0004 0368     		ldr	r3, [r0]
 2360              	.LBB445:
 2361              	.LBB446:
 2362              		.loc 5 176 0
 2363 0006 124A     		ldr	r2, .L173+4
 2364              	.LBE446:
 2365              	.LBE445:
 2366              		.loc 1 542 0
 2367 0008 83B0     		sub	sp, sp, #12
 2368              		.cfi_def_cfa_offset 32
 2369              		.loc 1 542 0
 2370 000a 0446     		mov	r4, r0
 2371 000c 2868     		ldr	r0, [r5]
 2372              	.LVL220:
 2373 000e 0190     		str	r0, [sp, #4]
 2374 0010 0E46     		mov	r6, r1
 2375              	.LBB448:
 2376              	.LBB447:
 2377              		.loc 5 176 0
 2378 0012 9769     		ldr	r7, [r2, #24]
 2379              	.LBE447:
 2380              	.LBE448:
 2381              		.loc 1 545 0
 2382 0014 13B1     		cbz	r3, .L164
 2383              		.loc 1 545 0 is_stmt 0 discriminator 2
 2384 0016 0F48     		ldr	r0, .L173+8
 2385 0018 FFF7FEFF 		bl	chSysHalt
 2386              	.LVL221:
 2387              	.L164:
 2388              		.loc 1 547 0 is_stmt 1
 2389 001c 66B1     		cbz	r6, .L165
 2390              		.loc 1 551 0
 2391 001e 2760     		str	r7, [r4]
 2392              		.loc 1 554 0
 2393 0020 019A     		ldr	r2, [sp, #4]
 2394 0022 2B68     		ldr	r3, [r5]
ARM GAS  C:\Users\mathi\AppData\Local\Temp\cceGBsvt.s 			page 43


 2395              		.loc 1 552 0
 2396 0024 BC62     		str	r4, [r7, #40]
 2397              		.loc 1 554 0
 2398 0026 9A42     		cmp	r2, r3
 2399 0028 0ED1     		bne	.L172
 2400 002a 3146     		mov	r1, r6
 2401 002c 0320     		movs	r0, #3
 2402              		.loc 1 555 0
 2403 002e 03B0     		add	sp, sp, #12
 2404              		.cfi_remember_state
 2405              		.cfi_def_cfa_offset 20
 2406              		@ sp needed
 2407 0030 BDE8F040 		pop	{r4, r5, r6, r7, lr}
 2408              		.cfi_restore 14
 2409              		.cfi_restore 7
 2410              		.cfi_restore 6
 2411              		.cfi_restore 5
 2412              		.cfi_restore 4
 2413              		.cfi_def_cfa_offset 0
 2414              	.LVL222:
 2415              		.loc 1 554 0
 2416 0034 FFF7FEBF 		b	chSchGoSleepTimeoutS
 2417              	.LVL223:
 2418              	.L165:
 2419              		.cfi_restore_state
 2420              		.loc 1 555 0
 2421 0038 019A     		ldr	r2, [sp, #4]
 2422 003a 2B68     		ldr	r3, [r5]
 2423 003c 9A42     		cmp	r2, r3
 2424 003e 4FF0FF30 		mov	r0, #-1
 2425 0042 01D1     		bne	.L172
 2426 0044 03B0     		add	sp, sp, #12
 2427              		.cfi_remember_state
 2428              		.cfi_def_cfa_offset 20
 2429              		@ sp needed
 2430 0046 F0BD     		pop	{r4, r5, r6, r7, pc}
 2431              	.LVL224:
 2432              	.L172:
 2433              		.cfi_restore_state
 2434 0048 FFF7FEFF 		bl	__stack_chk_fail
 2435              	.LVL225:
 2436              	.L174:
 2437              		.align	2
 2438              	.L173:
 2439 004c 00000000 		.word	__stack_chk_guard
 2440 0050 00000000 		.word	ch
 2441 0054 00000000 		.word	.LANCHOR8
 2442              		.cfi_endproc
 2443              	.LFE234:
 2444              		.size	chThdSuspendTimeoutS, .-chThdSuspendTimeoutS
 2445              		.section	.text.chThdResumeI,"ax",%progbits
 2446              		.align	1
 2447              		.p2align 4,,15
 2448              		.global	chThdResumeI
 2449              		.syntax unified
 2450              		.thumb
 2451              		.thumb_func
ARM GAS  C:\Users\mathi\AppData\Local\Temp\cceGBsvt.s 			page 44


 2452              		.fpu fpv4-sp-d16
 2453              		.type	chThdResumeI, %function
 2454              	chThdResumeI:
 2455              	.LFB235:
 2456              		.loc 1 567 0
 2457              		.cfi_startproc
 2458              		@ args = 0, pretend = 0, frame = 8
 2459              		@ frame_needed = 0, uses_anonymous_args = 0
 2460              	.LVL226:
 2461 0000 F0B5     		push	{r4, r5, r6, r7, lr}
 2462              		.cfi_def_cfa_offset 20
 2463              		.cfi_offset 4, -20
 2464              		.cfi_offset 5, -16
 2465              		.cfi_offset 6, -12
 2466              		.cfi_offset 7, -8
 2467              		.cfi_offset 14, -4
 2468 0002 124D     		ldr	r5, .L186
 2469              		.loc 1 569 0
 2470 0004 0468     		ldr	r4, [r0]
 2471              		.loc 1 567 0
 2472 0006 2B68     		ldr	r3, [r5]
 2473 0008 83B0     		sub	sp, sp, #12
 2474              		.cfi_def_cfa_offset 32
 2475              		.loc 1 567 0
 2476 000a 0193     		str	r3, [sp, #4]
 2477              		.loc 1 569 0
 2478 000c B4B1     		cbz	r4, .L175
 2479              	.LBB449:
 2480              		.loc 1 572 0
 2481 000e 94F82030 		ldrb	r3, [r4, #32]	@ zero_extendqisi2
 2482 0012 032B     		cmp	r3, #3
 2483 0014 0646     		mov	r6, r0
 2484 0016 0F46     		mov	r7, r1
 2485              	.LVL227:
 2486 0018 0CD1     		bne	.L185
 2487              	.LVL228:
 2488              	.L177:
 2489              		.loc 1 575 0
 2490 001a 0023     		movs	r3, #0
 2491 001c 3360     		str	r3, [r6]
 2492              		.loc 1 577 0
 2493 001e 019A     		ldr	r2, [sp, #4]
 2494 0020 2B68     		ldr	r3, [r5]
 2495              		.loc 1 576 0
 2496 0022 A762     		str	r7, [r4, #40]
 2497              		.loc 1 577 0
 2498 0024 9A42     		cmp	r2, r3
 2499 0026 0FD1     		bne	.L184
 2500 0028 2046     		mov	r0, r4
 2501              	.LBE449:
 2502              		.loc 1 579 0
 2503 002a 03B0     		add	sp, sp, #12
 2504              		.cfi_remember_state
 2505              		.cfi_def_cfa_offset 20
 2506              		@ sp needed
 2507 002c BDE8F040 		pop	{r4, r5, r6, r7, lr}
 2508              		.cfi_restore 14
ARM GAS  C:\Users\mathi\AppData\Local\Temp\cceGBsvt.s 			page 45


 2509              		.cfi_restore 7
 2510              		.cfi_restore 6
 2511              		.cfi_restore 5
 2512              		.cfi_restore 4
 2513              		.cfi_def_cfa_offset 0
 2514              	.LVL229:
 2515              	.LBB450:
 2516              		.loc 1 577 0
 2517 0030 FFF7FEBF 		b	chSchReadyI
 2518              	.LVL230:
 2519              	.L185:
 2520              		.cfi_restore_state
 2521              		.loc 1 572 0 discriminator 2
 2522 0034 0648     		ldr	r0, .L186+4
 2523              	.LVL231:
 2524 0036 FFF7FEFF 		bl	chSysHalt
 2525              	.LVL232:
 2526 003a EEE7     		b	.L177
 2527              	.LVL233:
 2528              	.L175:
 2529              	.LBE450:
 2530              		.loc 1 579 0
 2531 003c 019A     		ldr	r2, [sp, #4]
 2532 003e 2B68     		ldr	r3, [r5]
 2533 0040 9A42     		cmp	r2, r3
 2534 0042 01D1     		bne	.L184
 2535 0044 03B0     		add	sp, sp, #12
 2536              		.cfi_remember_state
 2537              		.cfi_def_cfa_offset 20
 2538              		@ sp needed
 2539 0046 F0BD     		pop	{r4, r5, r6, r7, pc}
 2540              	.LVL234:
 2541              	.L184:
 2542              		.cfi_restore_state
 2543 0048 FFF7FEFF 		bl	__stack_chk_fail
 2544              	.LVL235:
 2545              	.L187:
 2546              		.align	2
 2547              	.L186:
 2548 004c 00000000 		.word	__stack_chk_guard
 2549 0050 00000000 		.word	.LANCHOR9
 2550              		.cfi_endproc
 2551              	.LFE235:
 2552              		.size	chThdResumeI, .-chThdResumeI
 2553              		.section	.text.chThdResumeS,"ax",%progbits
 2554              		.align	1
 2555              		.p2align 4,,15
 2556              		.global	chThdResumeS
 2557              		.syntax unified
 2558              		.thumb
 2559              		.thumb_func
 2560              		.fpu fpv4-sp-d16
 2561              		.type	chThdResumeS, %function
 2562              	chThdResumeS:
 2563              	.LFB236:
 2564              		.loc 1 591 0
 2565              		.cfi_startproc
ARM GAS  C:\Users\mathi\AppData\Local\Temp\cceGBsvt.s 			page 46


 2566              		@ args = 0, pretend = 0, frame = 8
 2567              		@ frame_needed = 0, uses_anonymous_args = 0
 2568              	.LVL236:
 2569 0000 F0B5     		push	{r4, r5, r6, r7, lr}
 2570              		.cfi_def_cfa_offset 20
 2571              		.cfi_offset 4, -20
 2572              		.cfi_offset 5, -16
 2573              		.cfi_offset 6, -12
 2574              		.cfi_offset 7, -8
 2575              		.cfi_offset 14, -4
 2576 0002 124D     		ldr	r5, .L199
 2577              		.loc 1 593 0
 2578 0004 0468     		ldr	r4, [r0]
 2579              		.loc 1 591 0
 2580 0006 2B68     		ldr	r3, [r5]
 2581 0008 83B0     		sub	sp, sp, #12
 2582              		.cfi_def_cfa_offset 32
 2583              		.loc 1 591 0
 2584 000a 0193     		str	r3, [sp, #4]
 2585              		.loc 1 593 0
 2586 000c B4B1     		cbz	r4, .L188
 2587              	.LBB452:
 2588              		.loc 1 596 0
 2589 000e 94F82030 		ldrb	r3, [r4, #32]	@ zero_extendqisi2
 2590 0012 032B     		cmp	r3, #3
 2591 0014 0646     		mov	r6, r0
 2592 0016 0F46     		mov	r7, r1
 2593              	.LVL237:
 2594 0018 0CD1     		bne	.L198
 2595              	.LVL238:
 2596              	.L190:
 2597              		.loc 1 599 0
 2598 001a 0023     		movs	r3, #0
 2599 001c 3360     		str	r3, [r6]
 2600              		.loc 1 600 0
 2601 001e 019A     		ldr	r2, [sp, #4]
 2602 0020 2B68     		ldr	r3, [r5]
 2603 0022 9A42     		cmp	r2, r3
 2604 0024 10D1     		bne	.L197
 2605 0026 3946     		mov	r1, r7
 2606 0028 2046     		mov	r0, r4
 2607              	.LBE452:
 2608              		.loc 1 602 0
 2609 002a 03B0     		add	sp, sp, #12
 2610              		.cfi_remember_state
 2611              		.cfi_def_cfa_offset 20
 2612              		@ sp needed
 2613 002c BDE8F040 		pop	{r4, r5, r6, r7, lr}
 2614              		.cfi_restore 14
 2615              		.cfi_restore 7
 2616              		.cfi_restore 6
 2617              		.cfi_restore 5
 2618              		.cfi_restore 4
 2619              		.cfi_def_cfa_offset 0
 2620              	.LVL239:
 2621              	.LBB453:
 2622              		.loc 1 600 0
ARM GAS  C:\Users\mathi\AppData\Local\Temp\cceGBsvt.s 			page 47


 2623 0030 FFF7FEBF 		b	chSchWakeupS
 2624              	.LVL240:
 2625              	.L198:
 2626              		.cfi_restore_state
 2627              		.loc 1 596 0 discriminator 2
 2628 0034 0648     		ldr	r0, .L199+4
 2629              	.LVL241:
 2630 0036 FFF7FEFF 		bl	chSysHalt
 2631              	.LVL242:
 2632 003a EEE7     		b	.L190
 2633              	.LVL243:
 2634              	.L188:
 2635              	.LBE453:
 2636              		.loc 1 602 0
 2637 003c 019A     		ldr	r2, [sp, #4]
 2638 003e 2B68     		ldr	r3, [r5]
 2639 0040 9A42     		cmp	r2, r3
 2640 0042 01D1     		bne	.L197
 2641 0044 03B0     		add	sp, sp, #12
 2642              		.cfi_remember_state
 2643              		.cfi_def_cfa_offset 20
 2644              		@ sp needed
 2645 0046 F0BD     		pop	{r4, r5, r6, r7, pc}
 2646              	.LVL244:
 2647              	.L197:
 2648              		.cfi_restore_state
 2649 0048 FFF7FEFF 		bl	__stack_chk_fail
 2650              	.LVL245:
 2651              	.L200:
 2652              		.align	2
 2653              	.L199:
 2654 004c 00000000 		.word	__stack_chk_guard
 2655 0050 00000000 		.word	.LANCHOR10
 2656              		.cfi_endproc
 2657              	.LFE236:
 2658              		.size	chThdResumeS, .-chThdResumeS
 2659              		.section	.text.chThdResume,"ax",%progbits
 2660              		.align	1
 2661              		.p2align 4,,15
 2662              		.global	chThdResume
 2663              		.syntax unified
 2664              		.thumb
 2665              		.thumb_func
 2666              		.fpu fpv4-sp-d16
 2667              		.type	chThdResume, %function
 2668              	chThdResume:
 2669              	.LFB237:
 2670              		.loc 1 614 0
 2671              		.cfi_startproc
 2672              		@ args = 0, pretend = 0, frame = 8
 2673              		@ frame_needed = 0, uses_anonymous_args = 0
 2674              	.LVL246:
 2675 0000 F0B5     		push	{r4, r5, r6, r7, lr}
 2676              		.cfi_def_cfa_offset 20
 2677              		.cfi_offset 4, -20
 2678              		.cfi_offset 5, -16
 2679              		.cfi_offset 6, -12
ARM GAS  C:\Users\mathi\AppData\Local\Temp\cceGBsvt.s 			page 48


 2680              		.cfi_offset 7, -8
 2681              		.cfi_offset 14, -4
 2682 0002 1C4D     		ldr	r5, .L216
 2683 0004 83B0     		sub	sp, sp, #12
 2684              		.cfi_def_cfa_offset 32
 2685              		.loc 1 614 0
 2686 0006 2B68     		ldr	r3, [r5]
 2687 0008 0193     		str	r3, [sp, #4]
 2688              	.LVL247:
 2689 000a 0646     		mov	r6, r0
 2690 000c 0F46     		mov	r7, r1
 2691              	.LBB467:
 2692              	.LBB468:
 2693              	.LBB469:
 2694              	.LBB470:
 2695              	.LBB471:
 2696              		.loc 3 546 0
 2697 000e 2023     		movs	r3, #32
 2698              		.syntax unified
 2699              	@ 546 "../../lib/e-puck2_main-processor/ChibiOS//os/ext/CMSIS/include/core_cmFunc.h" 1
 2700 0010 83F31188 		MSR basepri, r3
 2701              	@ 0 "" 2
 2702              	.LVL248:
 2703              		.thumb
 2704              		.syntax unified
 2705              	.LBE471:
 2706              	.LBE470:
 2707              	.LBE469:
 2708              		.loc 4 349 0
 2709 0014 FFF7FEFF 		bl	_stats_start_measure_crit_thd
 2710              	.LVL249:
 2711              		.loc 4 350 0
 2712 0018 FFF7FEFF 		bl	_dbg_check_lock
 2713              	.LVL250:
 2714              	.LBE468:
 2715              	.LBE467:
 2716              	.LBB472:
 2717              	.LBB473:
 2718              		.loc 1 593 0
 2719 001c 3468     		ldr	r4, [r6]
 2720 001e 4CB1     		cbz	r4, .L202
 2721              	.LVL251:
 2722              	.LBB474:
 2723              		.loc 1 596 0
 2724 0020 94F82030 		ldrb	r3, [r4, #32]	@ zero_extendqisi2
 2725 0024 032B     		cmp	r3, #3
 2726 0026 1BD1     		bne	.L213
 2727              	.L203:
 2728              		.loc 1 599 0
 2729 0028 0023     		movs	r3, #0
 2730              		.loc 1 600 0
 2731 002a 3946     		mov	r1, r7
 2732 002c 2046     		mov	r0, r4
 2733              		.loc 1 599 0
 2734 002e 3360     		str	r3, [r6]
 2735              		.loc 1 600 0
 2736 0030 FFF7FEFF 		bl	chSchWakeupS
ARM GAS  C:\Users\mathi\AppData\Local\Temp\cceGBsvt.s 			page 49


 2737              	.LVL252:
 2738              	.L202:
 2739              	.LBE474:
 2740              	.LBE473:
 2741              	.LBE472:
 2742              	.LBB477:
 2743              	.LBB478:
 2744              		.loc 4 360 0
 2745 0034 FFF7FEFF 		bl	_dbg_check_unlock
 2746              	.LVL253:
 2747              		.loc 4 361 0
 2748 0038 FFF7FEFF 		bl	_stats_stop_measure_crit_thd
 2749              	.LVL254:
 2750              		.loc 4 367 0
 2751 003c 0E4B     		ldr	r3, .L216+4
 2752 003e 1A68     		ldr	r2, [r3]
 2753 0040 9A42     		cmp	r2, r3
 2754 0042 04D0     		beq	.L204
 2755 0044 9969     		ldr	r1, [r3, #24]
 2756 0046 9368     		ldr	r3, [r2, #8]
 2757 0048 8A68     		ldr	r2, [r1, #8]
 2758 004a 9A42     		cmp	r2, r3
 2759 004c 0CD3     		bcc	.L214
 2760              	.L204:
 2761              	.LVL255:
 2762              	.LBB479:
 2763              	.LBB480:
 2764              	.LBB481:
 2765              		.loc 3 546 0
 2766 004e 0023     		movs	r3, #0
 2767              		.syntax unified
 2768              	@ 546 "../../lib/e-puck2_main-processor/ChibiOS//os/ext/CMSIS/include/core_cmFunc.h" 1
 2769 0050 83F31188 		MSR basepri, r3
 2770              	@ 0 "" 2
 2771              	.LVL256:
 2772              		.thumb
 2773              		.syntax unified
 2774              	.LBE481:
 2775              	.LBE480:
 2776              	.LBE479:
 2777              	.LBE478:
 2778              	.LBE477:
 2779              		.loc 1 619 0
 2780 0054 019A     		ldr	r2, [sp, #4]
 2781 0056 2B68     		ldr	r3, [r5]
 2782 0058 9A42     		cmp	r2, r3
 2783 005a 09D1     		bne	.L215
 2784 005c 03B0     		add	sp, sp, #12
 2785              		.cfi_remember_state
 2786              		.cfi_def_cfa_offset 20
 2787              		@ sp needed
 2788 005e F0BD     		pop	{r4, r5, r6, r7, pc}
 2789              	.LVL257:
 2790              	.L213:
 2791              		.cfi_restore_state
 2792              	.LBB483:
 2793              	.LBB476:
ARM GAS  C:\Users\mathi\AppData\Local\Temp\cceGBsvt.s 			page 50


 2794              	.LBB475:
 2795              		.loc 1 596 0
 2796 0060 0648     		ldr	r0, .L216+8
 2797 0062 FFF7FEFF 		bl	chSysHalt
 2798              	.LVL258:
 2799 0066 DFE7     		b	.L203
 2800              	.LVL259:
 2801              	.L214:
 2802              	.LBE475:
 2803              	.LBE476:
 2804              	.LBE483:
 2805              	.LBB484:
 2806              	.LBB482:
 2807              		.loc 4 367 0
 2808 0068 0548     		ldr	r0, .L216+12
 2809 006a FFF7FEFF 		bl	chSysHalt
 2810              	.LVL260:
 2811 006e EEE7     		b	.L204
 2812              	.L215:
 2813              	.LBE482:
 2814              	.LBE484:
 2815              		.loc 1 619 0
 2816 0070 FFF7FEFF 		bl	__stack_chk_fail
 2817              	.LVL261:
 2818              	.L217:
 2819              		.align	2
 2820              	.L216:
 2821 0074 00000000 		.word	__stack_chk_guard
 2822 0078 00000000 		.word	ch
 2823 007c 00000000 		.word	.LANCHOR10
 2824 0080 00000000 		.word	.LANCHOR1
 2825              		.cfi_endproc
 2826              	.LFE237:
 2827              		.size	chThdResume, .-chThdResume
 2828              		.section	.text.chThdEnqueueTimeoutS,"ax",%progbits
 2829              		.align	1
 2830              		.p2align 4,,15
 2831              		.global	chThdEnqueueTimeoutS
 2832              		.syntax unified
 2833              		.thumb
 2834              		.thumb_func
 2835              		.fpu fpv4-sp-d16
 2836              		.type	chThdEnqueueTimeoutS, %function
 2837              	chThdEnqueueTimeoutS:
 2838              	.LFB238:
 2839              		.loc 1 644 0
 2840              		.cfi_startproc
 2841              		@ args = 0, pretend = 0, frame = 8
 2842              		@ frame_needed = 0, uses_anonymous_args = 0
 2843              	.LVL262:
 2844 0000 30B5     		push	{r4, r5, lr}
 2845              		.cfi_def_cfa_offset 12
 2846              		.cfi_offset 4, -12
 2847              		.cfi_offset 5, -8
 2848              		.cfi_offset 14, -4
 2849 0002 104A     		ldr	r2, .L224
 2850 0004 83B0     		sub	sp, sp, #12
ARM GAS  C:\Users\mathi\AppData\Local\Temp\cceGBsvt.s 			page 51


 2851              		.cfi_def_cfa_offset 24
 2852              		.loc 1 644 0
 2853 0006 1368     		ldr	r3, [r2]
 2854 0008 0193     		str	r3, [sp, #4]
 2855              		.loc 1 646 0
 2856 000a 81B1     		cbz	r1, .L219
 2857              		.loc 1 650 0
 2858 000c 0E4B     		ldr	r3, .L224+4
 2859              		.loc 1 652 0
 2860 000e 019D     		ldr	r5, [sp, #4]
 2861              		.loc 1 650 0
 2862 0010 9B69     		ldr	r3, [r3, #24]
 2863              	.LVL263:
 2864              	.LBB485:
 2865              	.LBB486:
 2866              		.loc 2 665 0
 2867 0012 1860     		str	r0, [r3]
 2868              		.loc 2 666 0
 2869 0014 4468     		ldr	r4, [r0, #4]
 2870 0016 5C60     		str	r4, [r3, #4]
 2871              		.loc 2 667 0
 2872 0018 2360     		str	r3, [r4]
 2873              	.LBE486:
 2874              	.LBE485:
 2875              		.loc 1 652 0
 2876 001a 1268     		ldr	r2, [r2]
 2877              	.LBB488:
 2878              	.LBB487:
 2879              		.loc 2 668 0
 2880 001c 4360     		str	r3, [r0, #4]
 2881              	.LVL264:
 2882              	.LBE487:
 2883              	.LBE488:
 2884              		.loc 1 652 0
 2885 001e 9542     		cmp	r5, r2
 2886 0020 0DD1     		bne	.L223
 2887 0022 0420     		movs	r0, #4
 2888              	.LVL265:
 2889              		.loc 1 653 0
 2890 0024 03B0     		add	sp, sp, #12
 2891              		.cfi_remember_state
 2892              		.cfi_def_cfa_offset 12
 2893              		@ sp needed
 2894 0026 BDE83040 		pop	{r4, r5, lr}
 2895              		.cfi_restore 14
 2896              		.cfi_restore 5
 2897              		.cfi_restore 4
 2898              		.cfi_def_cfa_offset 0
 2899              		.loc 1 652 0
 2900 002a FFF7FEBF 		b	chSchGoSleepTimeoutS
 2901              	.LVL266:
 2902              	.L219:
 2903              		.cfi_restore_state
 2904              		.loc 1 653 0
 2905 002e 0199     		ldr	r1, [sp, #4]
 2906              	.LVL267:
 2907 0030 1368     		ldr	r3, [r2]
ARM GAS  C:\Users\mathi\AppData\Local\Temp\cceGBsvt.s 			page 52


 2908 0032 9942     		cmp	r1, r3
 2909 0034 4FF0FF30 		mov	r0, #-1
 2910              	.LVL268:
 2911 0038 01D1     		bne	.L223
 2912 003a 03B0     		add	sp, sp, #12
 2913              		.cfi_remember_state
 2914              		.cfi_def_cfa_offset 12
 2915              		@ sp needed
 2916 003c 30BD     		pop	{r4, r5, pc}
 2917              	.L223:
 2918              		.cfi_restore_state
 2919 003e FFF7FEFF 		bl	__stack_chk_fail
 2920              	.LVL269:
 2921              	.L225:
 2922 0042 00BF     		.align	2
 2923              	.L224:
 2924 0044 00000000 		.word	__stack_chk_guard
 2925 0048 00000000 		.word	ch
 2926              		.cfi_endproc
 2927              	.LFE238:
 2928              		.size	chThdEnqueueTimeoutS, .-chThdEnqueueTimeoutS
 2929              		.section	.text.chThdDequeueNextI,"ax",%progbits
 2930              		.align	1
 2931              		.p2align 4,,15
 2932              		.global	chThdDequeueNextI
 2933              		.syntax unified
 2934              		.thumb
 2935              		.thumb_func
 2936              		.fpu fpv4-sp-d16
 2937              		.type	chThdDequeueNextI, %function
 2938              	chThdDequeueNextI:
 2939              	.LFB239:
 2940              		.loc 1 664 0
 2941              		.cfi_startproc
 2942              		@ args = 0, pretend = 0, frame = 8
 2943              		@ frame_needed = 0, uses_anonymous_args = 0
 2944              	.LVL270:
 2945 0000 70B5     		push	{r4, r5, r6, lr}
 2946              		.cfi_def_cfa_offset 16
 2947              		.cfi_offset 4, -16
 2948              		.cfi_offset 5, -12
 2949              		.cfi_offset 6, -8
 2950              		.cfi_offset 14, -4
 2951 0002 124D     		ldr	r5, .L236
 2952              	.LBB497:
 2953              	.LBB498:
 2954              		.loc 2 631 0
 2955 0004 0468     		ldr	r4, [r0]
 2956              	.LBE498:
 2957              	.LBE497:
 2958              		.loc 1 664 0
 2959 0006 2B68     		ldr	r3, [r5]
 2960 0008 82B0     		sub	sp, sp, #8
 2961              		.cfi_def_cfa_offset 24
 2962              		.loc 1 666 0
 2963 000a A042     		cmp	r0, r4
 2964              		.loc 1 664 0
ARM GAS  C:\Users\mathi\AppData\Local\Temp\cceGBsvt.s 			page 53


 2965 000c 0193     		str	r3, [sp, #4]
 2966              		.loc 1 666 0
 2967 000e 15D0     		beq	.L226
 2968              	.LBB499:
 2969              	.LBB500:
 2970              	.LBB501:
 2971              	.LBB502:
 2972              		.loc 2 674 0
 2973 0010 2368     		ldr	r3, [r4]
 2974 0012 0360     		str	r3, [r0]
 2975              		.loc 2 675 0
 2976 0014 5860     		str	r0, [r3, #4]
 2977              	.LBE502:
 2978              	.LBE501:
 2979              		.loc 5 319 0
 2980 0016 94F82030 		ldrb	r3, [r4, #32]	@ zero_extendqisi2
 2981 001a 042B     		cmp	r3, #4
 2982 001c 0E46     		mov	r6, r1
 2983              	.LVL271:
 2984 001e 02D0     		beq	.L228
 2985 0020 0B48     		ldr	r0, .L236+4
 2986              	.LVL272:
 2987 0022 FFF7FEFF 		bl	chSysHalt
 2988              	.LVL273:
 2989              	.L228:
 2990              		.loc 5 322 0
 2991 0026 019A     		ldr	r2, [sp, #4]
 2992 0028 2B68     		ldr	r3, [r5]
 2993              		.loc 5 321 0
 2994 002a A662     		str	r6, [r4, #40]
 2995              		.loc 5 322 0
 2996 002c 9A42     		cmp	r2, r3
 2997 002e 0BD1     		bne	.L235
 2998 0030 2046     		mov	r0, r4
 2999              	.LBE500:
 3000              	.LBE499:
 3001              		.loc 1 669 0
 3002 0032 02B0     		add	sp, sp, #8
 3003              		.cfi_remember_state
 3004              		.cfi_def_cfa_offset 16
 3005              		@ sp needed
 3006 0034 BDE87040 		pop	{r4, r5, r6, lr}
 3007              		.cfi_restore 14
 3008              		.cfi_restore 6
 3009              		.cfi_restore 5
 3010              		.cfi_restore 4
 3011              		.cfi_def_cfa_offset 0
 3012              	.LVL274:
 3013              	.LBB504:
 3014              	.LBB503:
 3015              		.loc 5 322 0
 3016 0038 FFF7FEBF 		b	chSchReadyI
 3017              	.LVL275:
 3018              	.L226:
 3019              		.cfi_restore_state
 3020              	.LBE503:
 3021              	.LBE504:
ARM GAS  C:\Users\mathi\AppData\Local\Temp\cceGBsvt.s 			page 54


 3022              		.loc 1 669 0
 3023 003c 019A     		ldr	r2, [sp, #4]
 3024 003e 2B68     		ldr	r3, [r5]
 3025 0040 9A42     		cmp	r2, r3
 3026 0042 01D1     		bne	.L235
 3027 0044 02B0     		add	sp, sp, #8
 3028              		.cfi_remember_state
 3029              		.cfi_def_cfa_offset 16
 3030              		@ sp needed
 3031 0046 70BD     		pop	{r4, r5, r6, pc}
 3032              	.LVL276:
 3033              	.L235:
 3034              		.cfi_restore_state
 3035 0048 FFF7FEFF 		bl	__stack_chk_fail
 3036              	.LVL277:
 3037              	.L237:
 3038              		.align	2
 3039              	.L236:
 3040 004c 00000000 		.word	__stack_chk_guard
 3041 0050 00000000 		.word	.LANCHOR11
 3042              		.cfi_endproc
 3043              	.LFE239:
 3044              		.size	chThdDequeueNextI, .-chThdDequeueNextI
 3045              		.section	.text.chThdDequeueAllI,"ax",%progbits
 3046              		.align	1
 3047              		.p2align 4,,15
 3048              		.global	chThdDequeueAllI
 3049              		.syntax unified
 3050              		.thumb
 3051              		.thumb_func
 3052              		.fpu fpv4-sp-d16
 3053              		.type	chThdDequeueAllI, %function
 3054              	chThdDequeueAllI:
 3055              	.LFB240:
 3056              		.loc 1 679 0
 3057              		.cfi_startproc
 3058              		@ args = 0, pretend = 0, frame = 8
 3059              		@ frame_needed = 0, uses_anonymous_args = 0
 3060              	.LVL278:
 3061 0000 2DE9F041 		push	{r4, r5, r6, r7, r8, lr}
 3062              		.cfi_def_cfa_offset 24
 3063              		.cfi_offset 4, -24
 3064              		.cfi_offset 5, -20
 3065              		.cfi_offset 6, -16
 3066              		.cfi_offset 7, -12
 3067              		.cfi_offset 8, -8
 3068              		.cfi_offset 14, -4
 3069 0004 DFF85080 		ldr	r8, .L247+4
 3070              	.LBB513:
 3071              	.LBB514:
 3072              		.loc 2 631 0
 3073 0008 0468     		ldr	r4, [r0]
 3074              	.LBE514:
 3075              	.LBE513:
 3076              		.loc 1 679 0
 3077 000a D8F80030 		ldr	r3, [r8]
 3078 000e 82B0     		sub	sp, sp, #8
ARM GAS  C:\Users\mathi\AppData\Local\Temp\cceGBsvt.s 			page 55


 3079              		.cfi_def_cfa_offset 32
 3080              		.loc 1 681 0
 3081 0010 A042     		cmp	r0, r4
 3082              		.loc 1 679 0
 3083 0012 0193     		str	r3, [sp, #4]
 3084              		.loc 1 681 0
 3085 0014 13D0     		beq	.L238
 3086              	.LBB516:
 3087              	.LBB517:
 3088              		.loc 5 319 0
 3089 0016 0F4F     		ldr	r7, .L247
 3090 0018 0546     		mov	r5, r0
 3091 001a 0E46     		mov	r6, r1
 3092              	.LVL279:
 3093              	.L239:
 3094              	.LBB518:
 3095              	.LBB519:
 3096              		.loc 2 674 0
 3097 001c 2368     		ldr	r3, [r4]
 3098 001e 2B60     		str	r3, [r5]
 3099              	.LVL280:
 3100              		.loc 2 675 0
 3101 0020 5D60     		str	r5, [r3, #4]
 3102              	.LVL281:
 3103              	.LBE519:
 3104              	.LBE518:
 3105              		.loc 5 319 0
 3106 0022 94F82030 		ldrb	r3, [r4, #32]	@ zero_extendqisi2
 3107 0026 042B     		cmp	r3, #4
 3108 0028 02D0     		beq	.L241
 3109 002a 3846     		mov	r0, r7
 3110 002c FFF7FEFF 		bl	chSysHalt
 3111              	.LVL282:
 3112              	.L241:
 3113              		.loc 5 321 0
 3114 0030 A662     		str	r6, [r4, #40]
 3115              		.loc 5 322 0
 3116 0032 2046     		mov	r0, r4
 3117 0034 FFF7FEFF 		bl	chSchReadyI
 3118              	.LVL283:
 3119              	.LBE517:
 3120              	.LBE516:
 3121              	.LBB520:
 3122              	.LBB515:
 3123              		.loc 2 631 0
 3124 0038 2C68     		ldr	r4, [r5]
 3125              	.LVL284:
 3126              	.LBE515:
 3127              	.LBE520:
 3128              		.loc 1 681 0
 3129 003a A542     		cmp	r5, r4
 3130 003c EED1     		bne	.L239
 3131              	.LVL285:
 3132              	.L238:
 3133              		.loc 1 684 0
 3134 003e 019A     		ldr	r2, [sp, #4]
 3135 0040 D8F80030 		ldr	r3, [r8]
ARM GAS  C:\Users\mathi\AppData\Local\Temp\cceGBsvt.s 			page 56


 3136 0044 9A42     		cmp	r2, r3
 3137 0046 02D1     		bne	.L246
 3138 0048 02B0     		add	sp, sp, #8
 3139              		.cfi_remember_state
 3140              		.cfi_def_cfa_offset 24
 3141              		@ sp needed
 3142 004a BDE8F081 		pop	{r4, r5, r6, r7, r8, pc}
 3143              	.L246:
 3144              		.cfi_restore_state
 3145 004e FFF7FEFF 		bl	__stack_chk_fail
 3146              	.LVL286:
 3147              	.L248:
 3148 0052 00BF     		.align	2
 3149              	.L247:
 3150 0054 00000000 		.word	.LANCHOR11
 3151 0058 00000000 		.word	__stack_chk_guard
 3152              		.cfi_endproc
 3153              	.LFE240:
 3154              		.size	chThdDequeueAllI, .-chThdDequeueAllI
 3155              		.section	.rodata.__func__.7153,"a",%progbits
 3156              		.align	2
 3157              		.set	.LANCHOR1,. + 0
 3158              		.type	__func__.7153, %object
 3159              		.size	__func__.7153, 12
 3160              	__func__.7153:
 3161 0000 63685379 		.ascii	"chSysUnlock\000"
 3161      73556E6C 
 3161      6F636B00 
 3162              		.section	.rodata.__func__.7320,"a",%progbits
 3163              		.align	2
 3164              		.set	.LANCHOR2,. + 0
 3165              		.type	__func__.7320, %object
 3166              		.size	__func__.7320, 12
 3167              	__func__.7320:
 3168 0000 63685468 		.ascii	"chThdStartI\000"
 3168      64537461 
 3168      72744900 
 3169              		.section	.rodata.__func__.7324,"a",%progbits
 3170              		.align	2
 3171              		.set	.LANCHOR4,. + 0
 3172              		.type	__func__.7324, %object
 3173              		.size	__func__.7324, 12
 3174              	__func__.7324:
 3175 0000 63685468 		.ascii	"chThdSleepS\000"
 3175      64536C65 
 3175      65705300 
 3176              		.section	.rodata.__func__.7336,"a",%progbits
 3177              		.align	2
 3178              		.set	.LANCHOR11,. + 0
 3179              		.type	__func__.7336, %object
 3180              		.size	__func__.7336, 20
 3181              	__func__.7336:
 3182 0000 63685468 		.ascii	"chThdDoDequeueNextI\000"
 3182      64446F44 
 3182      65717565 
 3182      75654E65 
 3182      78744900 
ARM GAS  C:\Users\mathi\AppData\Local\Temp\cceGBsvt.s 			page 57


 3183              		.section	.rodata.__func__.7866,"a",%progbits
 3184              		.align	2
 3185              		.set	.LANCHOR0,. + 0
 3186              		.type	__func__.7866, %object
 3187              		.size	__func__.7866, 13
 3188              	__func__.7866:
 3189 0000 63685468 		.ascii	"chThdCreateI\000"
 3189      64437265 
 3189      61746549 
 3189      00
 3190              		.section	.rodata.__func__.7882,"a",%progbits
 3191              		.align	2
 3192              		.set	.LANCHOR3,. + 0
 3193              		.type	__func__.7882, %object
 3194              		.size	__func__.7882, 17
 3195              	__func__.7882:
 3196 0000 63685468 		.ascii	"chThdSetPriority\000"
 3196      64536574 
 3196      5072696F 
 3196      72697479 
 3196      00
 3197              		.section	.rodata.__func__.7910,"a",%progbits
 3198              		.align	2
 3199              		.set	.LANCHOR5,. + 0
 3200              		.type	__func__.7910, %object
 3201              		.size	__func__.7910, 11
 3202              	__func__.7910:
 3203 0000 63685468 		.ascii	"chThdExitS\000"
 3203      64457869 
 3203      745300
 3204              		.section	.rodata.__func__.7915,"a",%progbits
 3205              		.align	2
 3206              		.set	.LANCHOR6,. + 0
 3207              		.type	__func__.7915, %object
 3208              		.size	__func__.7915, 10
 3209              	__func__.7915:
 3210 0000 63685468 		.ascii	"chThdWait\000"
 3210      64576169 
 3210      7400
 3211              		.section	.rodata.__func__.7920,"a",%progbits
 3212              		.align	2
 3213              		.set	.LANCHOR7,. + 0
 3214              		.type	__func__.7920, %object
 3215              		.size	__func__.7920, 14
 3216              	__func__.7920:
 3217 0000 63685468 		.ascii	"chThdSuspendS\000"
 3217      64537573 
 3217      70656E64 
 3217      5300
 3218              		.section	.rodata.__func__.7926,"a",%progbits
 3219              		.align	2
 3220              		.set	.LANCHOR8,. + 0
 3221              		.type	__func__.7926, %object
 3222              		.size	__func__.7926, 21
 3223              	__func__.7926:
 3224 0000 63685468 		.ascii	"chThdSuspendTimeoutS\000"
 3224      64537573 
ARM GAS  C:\Users\mathi\AppData\Local\Temp\cceGBsvt.s 			page 58


 3224      70656E64 
 3224      54696D65 
 3224      6F757453 
 3225              		.section	.rodata.__func__.7932,"a",%progbits
 3226              		.align	2
 3227              		.set	.LANCHOR9,. + 0
 3228              		.type	__func__.7932, %object
 3229              		.size	__func__.7932, 13
 3230              	__func__.7932:
 3231 0000 63685468 		.ascii	"chThdResumeI\000"
 3231      64526573 
 3231      756D6549 
 3231      00
 3232              		.section	.rodata.__func__.7938,"a",%progbits
 3233              		.align	2
 3234              		.set	.LANCHOR10,. + 0
 3235              		.type	__func__.7938, %object
 3236              		.size	__func__.7938, 13
 3237              	__func__.7938:
 3238 0000 63685468 		.ascii	"chThdResumeS\000"
 3238      64526573 
 3238      756D6553 
 3238      00
 3239              		.text
 3240              	.Letext0:
 3241              		.file 7 "c:\\eclipse_e-puck2\\tools\\gcc-arm-none-eabi-7-2017-q4-major-win32\\lib\\gcc\\arm-none-e
 3242              		.file 8 "c:\\eclipse_e-puck2\\tools\\gcc-arm-none-eabi-7-2017-q4-major-win32\\arm-none-eabi\\inclu
 3243              		.file 9 "c:\\eclipse_e-puck2\\tools\\gcc-arm-none-eabi-7-2017-q4-major-win32\\arm-none-eabi\\inclu
 3244              		.file 10 "../../lib/e-puck2_main-processor/ChibiOS//os/rt/ports/ARMCMx/compilers/GCC/chtypes.h"
 3245              		.file 11 "../../lib/e-puck2_main-processor/ChibiOS//os/rt/include/chsystypes.h"
 3246              		.file 12 "../../lib/e-puck2_main-processor/ChibiOS//os/ext/CMSIS/include/core_cm4.h"
 3247              		.file 13 "../../lib/e-puck2_main-processor/ChibiOS//os/ext/CMSIS/ST/system_stm32f4xx.h"
 3248              		.file 14 "../../lib/e-puck2_main-processor/ChibiOS//os/rt/ports/ARMCMx/chcore.h"
 3249              		.file 15 "../../lib/e-puck2_main-processor/ChibiOS//os/rt/ports/ARMCMx/chcore_v7m.h"
 3250              		.file 16 "../../lib/e-puck2_main-processor/ChibiOS//os/rt/include/chdebug.h"
 3251              		.file 17 "../../lib/e-puck2_main-processor/ChibiOS//os/rt/include/chtm.h"
 3252              		.file 18 "../../lib/e-puck2_main-processor/ChibiOS//os/rt/include/chstats.h"
 3253              		.file 19 "../../lib/e-puck2_main-processor/ChibiOS//os/rt/include/chsem.h"
 3254              		.file 20 "../../lib/e-puck2_main-processor/ChibiOS//os/rt/include/chmtx.h"
 3255              		.file 21 "../../lib/e-puck2_main-processor/ChibiOS//os/rt/include/chregistry.h"
 3256              		.file 22 "../../lib/e-puck2_main-processor/ChibiOS//os/rt/include/chdynamic.h"
 3257              		.file 23 "<built-in>"