ARM GAS  C:\Users\mathi\AppData\Local\Temp\cces8mGY.s 			page 1


   1              		.cpu cortex-m4
   2              		.eabi_attribute 27, 1
   3              		.eabi_attribute 28, 1
   4              		.eabi_attribute 20, 1
   5              		.eabi_attribute 21, 1
   6              		.eabi_attribute 23, 3
   7              		.eabi_attribute 24, 1
   8              		.eabi_attribute 25, 1
   9              		.eabi_attribute 26, 1
  10              		.eabi_attribute 30, 2
  11              		.eabi_attribute 34, 1
  12              		.eabi_attribute 18, 4
  13              		.file	"cmd.c"
  14              		.text
  15              	.Ltext0:
  16              		.cfi_sections	.debug_frame
  17              		.section	.text.chprintf,"ax",%progbits
  18              		.align	1
  19              		.p2align 4,,15
  20              		.syntax unified
  21              		.thumb
  22              		.thumb_func
  23              		.fpu fpv4-sp-d16
  24              		.type	chprintf, %function
  25              	chprintf:
  26              	.LFB259:
  27              		.file 1 "../../lib/e-puck2_main-processor/ChibiOS//os/hal/lib/streams/chprintf.h"
  28              		.loc 1 69 0
  29              		.cfi_startproc
  30              		@ args = 4, pretend = 12, frame = 8
  31              		@ frame_needed = 0, uses_anonymous_args = 1
  32              	.LVL0:
  33 0000 0EB4     		push	{r1, r2, r3}
  34              		.cfi_def_cfa_offset 12
  35              		.cfi_offset 1, -12
  36              		.cfi_offset 2, -8
  37              		.cfi_offset 3, -4
  38 0002 10B5     		push	{r4, lr}
  39              		.cfi_def_cfa_offset 20
  40              		.cfi_offset 4, -20
  41              		.cfi_offset 14, -16
  42 0004 83B0     		sub	sp, sp, #12
  43              		.cfi_def_cfa_offset 32
  44              		.loc 1 69 0
  45 0006 05AA     		add	r2, sp, #20
  46 0008 094C     		ldr	r4, .L6
  47 000a 52F8041B 		ldr	r1, [r2], #4
  48 000e 2368     		ldr	r3, [r4]
  49              		.loc 1 73 0
  50 0010 0092     		str	r2, [sp]
  51              		.loc 1 69 0
  52 0012 0193     		str	r3, [sp, #4]
  53              		.loc 1 74 0
  54 0014 FFF7FEFF 		bl	chvprintf
  55              	.LVL1:
  56              		.loc 1 78 0
  57 0018 019A     		ldr	r2, [sp, #4]
ARM GAS  C:\Users\mathi\AppData\Local\Temp\cces8mGY.s 			page 2


  58 001a 2368     		ldr	r3, [r4]
  59 001c 9A42     		cmp	r2, r3
  60 001e 04D1     		bne	.L5
  61 0020 03B0     		add	sp, sp, #12
  62              		.cfi_remember_state
  63              		.cfi_def_cfa_offset 20
  64              		@ sp needed
  65 0022 BDE81040 		pop	{r4, lr}
  66              		.cfi_restore 14
  67              		.cfi_restore 4
  68              		.cfi_def_cfa_offset 12
  69 0026 03B0     		add	sp, sp, #12
  70              		.cfi_restore 3
  71              		.cfi_restore 2
  72              		.cfi_restore 1
  73              		.cfi_def_cfa_offset 0
  74 0028 7047     		bx	lr
  75              	.L5:
  76              		.cfi_restore_state
  77 002a FFF7FEFF 		bl	__stack_chk_fail
  78              	.LVL2:
  79              	.L7:
  80 002e 00BF     		.align	2
  81              	.L6:
  82 0030 00000000 		.word	__stack_chk_guard
  83              		.cfi_endproc
  84              	.LFE259:
  85              		.size	chprintf, .-chprintf
  86              		.section	.text.cmd_mount,"ax",%progbits
  87              		.align	1
  88              		.p2align 4,,15
  89              		.global	cmd_mount
  90              		.syntax unified
  91              		.thumb
  92              		.thumb_func
  93              		.fpu fpv4-sp-d16
  94              		.type	cmd_mount, %function
  95              	cmd_mount:
  96              	.LFB261:
  97              		.file 2 "../../lib/e-puck2_main-processor/src/cmd.c"
  98              		.loc 2 53 0
  99              		.cfi_startproc
 100              		@ args = 0, pretend = 0, frame = 8
 101              		@ frame_needed = 0, uses_anonymous_args = 0
 102              	.LVL3:
 103 0000 30B5     		push	{r4, r5, lr}
 104              		.cfi_def_cfa_offset 12
 105              		.cfi_offset 4, -12
 106              		.cfi_offset 5, -8
 107              		.cfi_offset 14, -4
 108 0002 0F4C     		ldr	r4, .L17
 109 0004 83B0     		sub	sp, sp, #12
 110              		.cfi_def_cfa_offset 24
 111              		.loc 2 53 0
 112 0006 2368     		ldr	r3, [r4]
 113 0008 0193     		str	r3, [sp, #4]
 114 000a 0546     		mov	r5, r0
ARM GAS  C:\Users\mathi\AppData\Local\Temp\cces8mGY.s 			page 3


 115              		.loc 2 60 0
 116 000c FFF7FEFF 		bl	mountSDCard
 117              	.LVL4:
 118              		.loc 2 61 0
 119 0010 019A     		ldr	r2, [sp, #4]
 120 0012 2368     		ldr	r3, [r4]
 121              		.loc 2 60 0
 122 0014 40B1     		cbz	r0, .L16
 123              		.loc 2 64 0
 124 0016 9A42     		cmp	r2, r3
 125 0018 0FD1     		bne	.L15
 126 001a 0A49     		ldr	r1, .L17+4
 127 001c 2846     		mov	r0, r5
 128              		.loc 2 65 0
 129 001e 03B0     		add	sp, sp, #12
 130              		.cfi_remember_state
 131              		.cfi_def_cfa_offset 12
 132              		@ sp needed
 133 0020 BDE83040 		pop	{r4, r5, lr}
 134              		.cfi_restore 14
 135              		.cfi_restore 5
 136              		.cfi_restore 4
 137              		.cfi_def_cfa_offset 0
 138              	.LVL5:
 139              		.loc 2 64 0
 140 0024 FFF7FEBF 		b	chprintf
 141              	.LVL6:
 142              	.L16:
 143              		.cfi_restore_state
 144              		.loc 2 61 0
 145 0028 9A42     		cmp	r2, r3
 146 002a 06D1     		bne	.L15
 147 002c 0649     		ldr	r1, .L17+8
 148 002e 2846     		mov	r0, r5
 149              		.loc 2 65 0
 150 0030 03B0     		add	sp, sp, #12
 151              		.cfi_remember_state
 152              		.cfi_def_cfa_offset 12
 153              		@ sp needed
 154 0032 BDE83040 		pop	{r4, r5, lr}
 155              		.cfi_restore 14
 156              		.cfi_restore 5
 157              		.cfi_restore 4
 158              		.cfi_def_cfa_offset 0
 159              	.LVL7:
 160              		.loc 2 64 0
 161 0036 FFF7FEBF 		b	chprintf
 162              	.LVL8:
 163              	.L15:
 164              		.cfi_restore_state
 165 003a FFF7FEFF 		bl	__stack_chk_fail
 166              	.LVL9:
 167              	.L18:
 168 003e 00BF     		.align	2
 169              	.L17:
 170 0040 00000000 		.word	__stack_chk_guard
 171 0044 34000000 		.word	.LC1
ARM GAS  C:\Users\mathi\AppData\Local\Temp\cces8mGY.s 			page 4


 172 0048 00000000 		.word	.LC0
 173              		.cfi_endproc
 174              	.LFE261:
 175              		.size	cmd_mount, .-cmd_mount
 176              		.section	.text.cmd_readclock,"ax",%progbits
 177              		.align	1
 178              		.p2align 4,,15
 179              		.syntax unified
 180              		.thumb
 181              		.thumb_func
 182              		.fpu fpv4-sp-d16
 183              		.type	cmd_readclock, %function
 184              	cmd_readclock:
 185              	.LFB278:
 186              		.loc 2 406 0
 187              		.cfi_startproc
 188              		@ args = 0, pretend = 0, frame = 8
 189              		@ frame_needed = 0, uses_anonymous_args = 0
 190              	.LVL10:
 191 0000 30B5     		push	{r4, r5, lr}
 192              		.cfi_def_cfa_offset 12
 193              		.cfi_offset 4, -12
 194              		.cfi_offset 5, -8
 195              		.cfi_offset 14, -4
 196              		.loc 2 409 0
 197 0002 0A4B     		ldr	r3, .L23
 198              		.loc 2 406 0
 199 0004 0A4C     		ldr	r4, .L23+4
 200              		.loc 2 409 0
 201 0006 0B49     		ldr	r1, .L23+8
 202              	.LVL11:
 203 0008 0B4A     		ldr	r2, .L23+12
 204              	.LVL12:
 205              		.loc 2 406 0
 206 000a 2568     		ldr	r5, [r4]
 207 000c 85B0     		sub	sp, sp, #20
 208              		.cfi_def_cfa_offset 32
 209              		.loc 2 409 0
 210 000e CDE90021 		strd	r2, r1, [sp]
 211 0012 1A46     		mov	r2, r3
 212 0014 0949     		ldr	r1, .L23+16
 213              		.loc 2 406 0
 214 0016 0395     		str	r5, [sp, #12]
 215              		.loc 2 409 0
 216 0018 FFF7FEFF 		bl	chprintf
 217              	.LVL13:
 218              		.loc 2 411 0
 219 001c 039A     		ldr	r2, [sp, #12]
 220 001e 2368     		ldr	r3, [r4]
 221 0020 9A42     		cmp	r2, r3
 222 0022 01D1     		bne	.L22
 223 0024 05B0     		add	sp, sp, #20
 224              		.cfi_remember_state
 225              		.cfi_def_cfa_offset 12
 226              		@ sp needed
 227 0026 30BD     		pop	{r4, r5, pc}
 228              	.L22:
ARM GAS  C:\Users\mathi\AppData\Local\Temp\cces8mGY.s 			page 5


 229              		.cfi_restore_state
 230 0028 FFF7FEFF 		bl	__stack_chk_fail
 231              	.LVL14:
 232              	.L24:
 233              		.align	2
 234              	.L23:
 235 002c 007A030A 		.word	168000000
 236 0030 00000000 		.word	__stack_chk_guard
 237 0034 00BD0105 		.word	84000000
 238 0038 80DE8002 		.word	42000000
 239 003c 00000000 		.word	.LC2
 240              		.cfi_endproc
 241              	.LFE278:
 242              		.size	cmd_readclock, .-cmd_readclock
 243              		.section	.text.cmd_unmount,"ax",%progbits
 244              		.align	1
 245              		.p2align 4,,15
 246              		.global	cmd_unmount
 247              		.syntax unified
 248              		.thumb
 249              		.thumb_func
 250              		.fpu fpv4-sp-d16
 251              		.type	cmd_unmount, %function
 252              	cmd_unmount:
 253              	.LFB262:
 254              		.loc 2 67 0
 255              		.cfi_startproc
 256              		@ args = 0, pretend = 0, frame = 8
 257              		@ frame_needed = 0, uses_anonymous_args = 0
 258              	.LVL15:
 259 0000 30B5     		push	{r4, r5, lr}
 260              		.cfi_def_cfa_offset 12
 261              		.cfi_offset 4, -12
 262              		.cfi_offset 5, -8
 263              		.cfi_offset 14, -4
 264 0002 0C4C     		ldr	r4, .L32
 265 0004 83B0     		sub	sp, sp, #12
 266              		.cfi_def_cfa_offset 24
 267              		.loc 2 67 0
 268 0006 2368     		ldr	r3, [r4]
 269 0008 0193     		str	r3, [sp, #4]
 270 000a 0546     		mov	r5, r0
 271              		.loc 2 71 0
 272 000c FFF7FEFF 		bl	unmountSDCard
 273              	.LVL16:
 274              		.loc 2 72 0
 275 0010 019A     		ldr	r2, [sp, #4]
 276 0012 2368     		ldr	r3, [r4]
 277              		.loc 2 71 0
 278 0014 18B1     		cbz	r0, .L31
 279              		.loc 2 75 0
 280 0016 9A42     		cmp	r2, r3
 281 0018 0AD1     		bne	.L30
 282 001a 03B0     		add	sp, sp, #12
 283              		.cfi_remember_state
 284              		.cfi_def_cfa_offset 12
 285              		@ sp needed
ARM GAS  C:\Users\mathi\AppData\Local\Temp\cces8mGY.s 			page 6


 286 001c 30BD     		pop	{r4, r5, pc}
 287              	.LVL17:
 288              	.L31:
 289              		.cfi_restore_state
 290              		.loc 2 72 0
 291 001e 9A42     		cmp	r2, r3
 292 0020 06D1     		bne	.L30
 293 0022 0549     		ldr	r1, .L32+4
 294 0024 2846     		mov	r0, r5
 295              		.loc 2 75 0
 296 0026 03B0     		add	sp, sp, #12
 297              		.cfi_remember_state
 298              		.cfi_def_cfa_offset 12
 299              		@ sp needed
 300 0028 BDE83040 		pop	{r4, r5, lr}
 301              		.cfi_restore 14
 302              		.cfi_restore 5
 303              		.cfi_restore 4
 304              		.cfi_def_cfa_offset 0
 305              	.LVL18:
 306              		.loc 2 72 0
 307 002c FFF7FEBF 		b	chprintf
 308              	.LVL19:
 309              	.L30:
 310              		.cfi_restore_state
 311              		.loc 2 75 0
 312 0030 FFF7FEFF 		bl	__stack_chk_fail
 313              	.LVL20:
 314              	.L33:
 315              		.align	2
 316              	.L32:
 317 0034 00000000 		.word	__stack_chk_guard
 318 0038 00000000 		.word	.LC3
 319              		.cfi_endproc
 320              	.LFE262:
 321              		.size	cmd_unmount, .-cmd_unmount
 322              		.section	.text.cmd_free,"ax",%progbits
 323              		.align	1
 324              		.p2align 4,,15
 325              		.global	cmd_free
 326              		.syntax unified
 327              		.thumb
 328              		.thumb_func
 329              		.fpu fpv4-sp-d16
 330              		.type	cmd_free, %function
 331              	cmd_free:
 332              	.LFB263:
 333              		.loc 2 77 0
 334              		.cfi_startproc
 335              		@ args = 0, pretend = 0, frame = 16
 336              		@ frame_needed = 0, uses_anonymous_args = 0
 337              	.LVL21:
 338 0000 70B5     		push	{r4, r5, r6, lr}
 339              		.cfi_def_cfa_offset 16
 340              		.cfi_offset 4, -16
 341              		.cfi_offset 5, -12
 342              		.cfi_offset 6, -8
ARM GAS  C:\Users\mathi\AppData\Local\Temp\cces8mGY.s 			page 7


 343              		.cfi_offset 14, -4
 344 0002 1D4E     		ldr	r6, .L41
 345 0004 84B0     		sub	sp, sp, #16
 346              		.cfi_def_cfa_offset 32
 347              		.loc 2 77 0
 348 0006 0546     		mov	r5, r0
 349 0008 3368     		ldr	r3, [r6]
 350              		.loc 2 85 0
 351 000a 1C48     		ldr	r0, .L41+4
 352              	.LVL22:
 353              		.loc 2 77 0
 354 000c 0393     		str	r3, [sp, #12]
 355              		.loc 2 85 0
 356 000e 02AA     		add	r2, sp, #8
 357              	.LVL23:
 358 0010 01A9     		add	r1, sp, #4
 359              	.LVL24:
 360 0012 FFF7FEFF 		bl	f_getfree
 361              	.LVL25:
 362              		.loc 2 86 0
 363 0016 40BB     		cbnz	r0, .L39
 364              		.loc 2 91 0
 365 0018 FFF7FEFF 		bl	getSDCardClusterSize
 366              	.LVL26:
 367              		.loc 2 95 0
 368 001c 019A     		ldr	r2, [sp, #4]
 369 001e 1849     		ldr	r1, .L41+8
 370              		.loc 2 91 0
 371 0020 0446     		mov	r4, r0
 372              	.LVL27:
 373              		.loc 2 95 0
 374 0022 0346     		mov	r3, r0
 375 0024 2846     		mov	r0, r5
 376              	.LVL28:
 377 0026 FFF7FEFF 		bl	chprintf
 378              	.LVL29:
 379              		.loc 2 97 0
 380 002a 019A     		ldr	r2, [sp, #4]
 381 002c 1549     		ldr	r1, .L41+12
 382 002e 5202     		lsls	r2, r2, #9
 383 0030 04FB02F2 		mul	r2, r4, r2
 384 0034 2846     		mov	r0, r5
 385 0036 FFF7FEFF 		bl	chprintf
 386              	.LVL30:
 387              		.loc 2 100 0
 388 003a 019A     		ldr	r2, [sp, #4]
 389              		.loc 2 99 0
 390 003c 1249     		ldr	r1, .L41+16
 391              		.loc 2 100 0
 392 003e 5202     		lsls	r2, r2, #9
 393 0040 04FB02F2 		mul	r2, r4, r2
 394              		.loc 2 99 0
 395 0044 920A     		lsrs	r2, r2, #10
 396 0046 2846     		mov	r0, r5
 397 0048 FFF7FEFF 		bl	chprintf
 398              	.LVL31:
 399              		.loc 2 102 0
ARM GAS  C:\Users\mathi\AppData\Local\Temp\cces8mGY.s 			page 8


 400 004c 019A     		ldr	r2, [sp, #4]
 401              		.loc 2 101 0
 402 004e 0F49     		ldr	r1, .L41+20
 403              		.loc 2 102 0
 404 0050 5202     		lsls	r2, r2, #9
 405 0052 04FB02F2 		mul	r2, r4, r2
 406              		.loc 2 101 0
 407 0056 2846     		mov	r0, r5
 408 0058 120D     		lsrs	r2, r2, #20
 409 005a FFF7FEFF 		bl	chprintf
 410              	.LVL32:
 411              	.L34:
 412              		.loc 2 103 0
 413 005e 039A     		ldr	r2, [sp, #12]
 414 0060 3368     		ldr	r3, [r6]
 415 0062 9A42     		cmp	r2, r3
 416 0064 06D1     		bne	.L40
 417 0066 04B0     		add	sp, sp, #16
 418              		.cfi_remember_state
 419              		.cfi_def_cfa_offset 16
 420              		@ sp needed
 421 0068 70BD     		pop	{r4, r5, r6, pc}
 422              	.LVL33:
 423              	.L39:
 424              		.cfi_restore_state
 425              		.loc 2 87 0
 426 006a 2846     		mov	r0, r5
 427              	.LVL34:
 428 006c 0849     		ldr	r1, .L41+24
 429 006e FFF7FEFF 		bl	chprintf
 430              	.LVL35:
 431 0072 F4E7     		b	.L34
 432              	.L40:
 433              		.loc 2 103 0
 434 0074 FFF7FEFF 		bl	__stack_chk_fail
 435              	.LVL36:
 436              	.L42:
 437              		.align	2
 438              	.L41:
 439 0078 00000000 		.word	__stack_chk_guard
 440 007c 00000000 		.word	.LC4
 441 0080 20000000 		.word	.LC6
 442 0084 58000000 		.word	.LC7
 443 0088 68000000 		.word	.LC8
 444 008c 78000000 		.word	.LC9
 445 0090 04000000 		.word	.LC5
 446              		.cfi_endproc
 447              	.LFE263:
 448              		.size	cmd_free, .-cmd_free
 449              		.section	.text.cmd_tree,"ax",%progbits
 450              		.align	1
 451              		.p2align 4,,15
 452              		.global	cmd_tree
 453              		.syntax unified
 454              		.thumb
 455              		.thumb_func
 456              		.fpu fpv4-sp-d16
ARM GAS  C:\Users\mathi\AppData\Local\Temp\cces8mGY.s 			page 9


 457              		.type	cmd_tree, %function
 458              	cmd_tree:
 459              	.LFB264:
 460              		.loc 2 105 0
 461              		.cfi_startproc
 462              		@ args = 0, pretend = 0, frame = 8
 463              		@ frame_needed = 0, uses_anonymous_args = 0
 464              	.LVL37:
 465 0000 30B5     		push	{r4, r5, lr}
 466              		.cfi_def_cfa_offset 12
 467              		.cfi_offset 4, -12
 468              		.cfi_offset 5, -8
 469              		.cfi_offset 14, -4
 470 0002 0C4C     		ldr	r4, .L48
 471 0004 83B0     		sub	sp, sp, #12
 472              		.cfi_def_cfa_offset 24
 473              		.loc 2 105 0
 474 0006 2368     		ldr	r3, [r4]
 475 0008 0193     		str	r3, [sp, #4]
 476              		.loc 2 112 0
 477 000a 4FF48072 		mov	r2, #256
 478              	.LVL38:
 479              		.loc 2 105 0
 480 000e 0546     		mov	r5, r0
 481              		.loc 2 112 0
 482 0010 0021     		movs	r1, #0
 483              	.LVL39:
 484 0012 0948     		ldr	r0, .L48+4
 485              	.LVL40:
 486 0014 FFF7FEFF 		bl	memset
 487              	.LVL41:
 488              		.loc 2 114 0
 489 0018 019A     		ldr	r2, [sp, #4]
 490 001a 2368     		ldr	r3, [r4]
 491 001c 9A42     		cmp	r2, r3
 492 001e 06D1     		bne	.L47
 493 0020 0549     		ldr	r1, .L48+4
 494 0022 2846     		mov	r0, r5
 495              		.loc 2 115 0
 496 0024 03B0     		add	sp, sp, #12
 497              		.cfi_remember_state
 498              		.cfi_def_cfa_offset 12
 499              		@ sp needed
 500 0026 BDE83040 		pop	{r4, r5, lr}
 501              		.cfi_restore 14
 502              		.cfi_restore 5
 503              		.cfi_restore 4
 504              		.cfi_def_cfa_offset 0
 505              	.LVL42:
 506              		.loc 2 114 0
 507 002a FFF7FEBF 		b	scan_files
 508              	.LVL43:
 509              	.L47:
 510              		.cfi_restore_state
 511 002e FFF7FEFF 		bl	__stack_chk_fail
 512              	.LVL44:
 513              	.L49:
ARM GAS  C:\Users\mathi\AppData\Local\Temp\cces8mGY.s 			page 10


 514 0032 00BF     		.align	2
 515              	.L48:
 516 0034 00000000 		.word	__stack_chk_guard
 517 0038 00000000 		.word	.LANCHOR0
 518              		.cfi_endproc
 519              	.LFE264:
 520              		.size	cmd_tree, .-cmd_tree
 521              		.section	.text.cmd_hello,"ax",%progbits
 522              		.align	1
 523              		.p2align 4,,15
 524              		.global	cmd_hello
 525              		.syntax unified
 526              		.thumb
 527              		.thumb_func
 528              		.fpu fpv4-sp-d16
 529              		.type	cmd_hello, %function
 530              	cmd_hello:
 531              	.LFB265:
 532              		.loc 2 118 0
 533              		.cfi_startproc
 534              		@ args = 0, pretend = 0, frame = 560
 535              		@ frame_needed = 0, uses_anonymous_args = 0
 536              	.LVL45:
 537 0000 70B5     		push	{r4, r5, r6, lr}
 538              		.cfi_def_cfa_offset 16
 539              		.cfi_offset 4, -16
 540              		.cfi_offset 5, -12
 541              		.cfi_offset 6, -8
 542              		.cfi_offset 14, -4
 543 0002 1D4C     		ldr	r4, .L60
 544 0004 ADF50C7D 		sub	sp, sp, #560
 545              		.cfi_def_cfa_offset 576
 546              		.loc 2 118 0
 547 0008 2368     		ldr	r3, [r4]
 548 000a 8B93     		str	r3, [sp, #556]
 549              		.loc 2 126 0
 550 000c 0029     		cmp	r1, #0
 551              		.loc 2 118 0
 552 000e 0546     		mov	r5, r0
 553              		.loc 2 126 0
 554 0010 0DDD     		ble	.L51
 555              		.loc 2 127 0
 556 0012 1A49     		ldr	r1, .L60+4
 557              	.LVL46:
 558 0014 FFF7FEFF 		bl	chprintf
 559              	.LVL47:
 560              		.loc 2 128 0
 561 0018 2846     		mov	r0, r5
 562 001a 1949     		ldr	r1, .L60+8
 563 001c FFF7FEFF 		bl	chprintf
 564              	.LVL48:
 565              	.L50:
 566              		.loc 2 155 0
 567 0020 8B9A     		ldr	r2, [sp, #556]
 568 0022 2368     		ldr	r3, [r4]
 569 0024 9A42     		cmp	r2, r3
 570 0026 25D1     		bne	.L59
ARM GAS  C:\Users\mathi\AppData\Local\Temp\cces8mGY.s 			page 11


 571 0028 0DF50C7D 		add	sp, sp, #560
 572              		.cfi_remember_state
 573              		.cfi_def_cfa_offset 16
 574              		@ sp needed
 575 002c 70BD     		pop	{r4, r5, r6, pc}
 576              	.LVL49:
 577              	.L51:
 578              		.cfi_restore_state
 579              		.loc 2 134 0
 580 002e 01A8     		add	r0, sp, #4
 581              	.LVL50:
 582 0030 0B22     		movs	r2, #11
 583              	.LVL51:
 584 0032 1449     		ldr	r1, .L60+12
 585              	.LVL52:
 586 0034 FFF7FEFF 		bl	f_open
 587              	.LVL53:
 588              		.loc 2 135 0
 589 0038 0646     		mov	r6, r0
 590 003a 40B1     		cbz	r0, .L53
 591              		.loc 2 136 0
 592 003c 1249     		ldr	r1, .L60+16
 593 003e 2846     		mov	r0, r5
 594              	.LVL54:
 595 0040 FFF7FEFF 		bl	chprintf
 596              	.LVL55:
 597              		.loc 2 137 0
 598 0044 3146     		mov	r1, r6
 599 0046 2846     		mov	r0, r5
 600 0048 FFF7FEFF 		bl	fverbose_error
 601              	.LVL56:
 602              		.loc 2 138 0
 603 004c E8E7     		b	.L50
 604              	.LVL57:
 605              	.L53:
 606              		.loc 2 140 0
 607 004e 0F49     		ldr	r1, .L60+20
 608 0050 2846     		mov	r0, r5
 609              	.LVL58:
 610 0052 FFF7FEFF 		bl	chprintf
 611              	.LVL59:
 612              		.loc 2 145 0
 613 0056 01A9     		add	r1, sp, #4
 614 0058 0D48     		ldr	r0, .L60+24
 615 005a FFF7FEFF 		bl	f_puts
 616              	.LVL60:
 617              		.loc 2 146 0
 618 005e 0130     		adds	r0, r0, #1
 619              	.LVL61:
 620              		.loc 2 147 0
 621 0060 0CBF     		ite	eq
 622 0062 0C49     		ldreq	r1, .L60+28
 623              		.loc 2 149 0
 624 0064 0C49     		ldrne	r1, .L60+32
 625              		.loc 2 147 0
 626 0066 2846     		mov	r0, r5
 627              	.LVL62:
ARM GAS  C:\Users\mathi\AppData\Local\Temp\cces8mGY.s 			page 12


 628              		.loc 2 149 0
 629 0068 FFF7FEFF 		bl	chprintf
 630              	.LVL63:
 631              		.loc 2 154 0
 632 006c 01A8     		add	r0, sp, #4
 633 006e FFF7FEFF 		bl	f_close
 634              	.LVL64:
 635 0072 D5E7     		b	.L50
 636              	.L59:
 637              		.loc 2 155 0
 638 0074 FFF7FEFF 		bl	__stack_chk_fail
 639              	.LVL65:
 640              	.L61:
 641              		.align	2
 642              	.L60:
 643 0078 00000000 		.word	__stack_chk_guard
 644 007c 00000000 		.word	.LC10
 645 0080 10000000 		.word	.LC11
 646 0084 40000000 		.word	.LC12
 647 0088 4C000000 		.word	.LC13
 648 008c 70000000 		.word	.LC14
 649 0090 94000000 		.word	.LC15
 650 0094 A0000000 		.word	.LC16
 651 0098 D0000000 		.word	.LC17
 652              		.cfi_endproc
 653              	.LFE265:
 654              		.size	cmd_hello, .-cmd_hello
 655              		.section	.text.cmd_mic_data,"ax",%progbits
 656              		.align	1
 657              		.p2align 4,,15
 658              		.syntax unified
 659              		.thumb
 660              		.thumb_func
 661              		.fpu fpv4-sp-d16
 662              		.type	cmd_mic_data, %function
 663              	cmd_mic_data:
 664              	.LFB307:
 665              		.loc 2 1016 0
 666              		.cfi_startproc
 667              		@ args = 0, pretend = 0, frame = 8
 668              		@ frame_needed = 0, uses_anonymous_args = 0
 669              	.LVL66:
 670 0000 70B5     		push	{r4, r5, r6, lr}
 671              		.cfi_def_cfa_offset 16
 672              		.cfi_offset 4, -16
 673              		.cfi_offset 5, -12
 674              		.cfi_offset 6, -8
 675              		.cfi_offset 14, -4
 676 0002 164E     		ldr	r6, .L69
 677              		.loc 2 1024 0
 678 0004 164D     		ldr	r5, .L69+4
 679              		.loc 2 1016 0
 680 0006 3368     		ldr	r3, [r6]
 681 0008 82B0     		sub	sp, sp, #8
 682              		.cfi_def_cfa_offset 24
 683              		.loc 2 1016 0
 684 000a 0193     		str	r3, [sp, #4]
ARM GAS  C:\Users\mathi\AppData\Local\Temp\cces8mGY.s 			page 13


 685              		.loc 2 1021 0
 686 000c FFF7FEFF 		bl	mic_buffer_get_size
 687              	.LVL67:
 688              		.loc 2 1022 0
 689 0010 45F2AA52 		movw	r2, #21930
 690 0014 010A     		lsrs	r1, r0, #8
 691              		.loc 2 1024 0
 692 0016 2B68     		ldr	r3, [r5]
 693              		.loc 2 1022 0
 694 0018 8DF80300 		strb	r0, [sp, #3]
 695 001c 8DF80210 		strb	r1, [sp, #2]
 696 0020 ADF80020 		strh	r2, [sp]	@ movhi
 697              		.loc 2 1021 0
 698 0024 0446     		mov	r4, r0
 699              	.LVL68:
 700              		.loc 2 1024 0
 701 0026 1B68     		ldr	r3, [r3]
 702 0028 0422     		movs	r2, #4
 703 002a 6946     		mov	r1, sp
 704 002c 2846     		mov	r0, r5
 705              	.LVL69:
 706 002e 9847     		blx	r3
 707              	.LVL70:
 708              		.loc 2 1025 0
 709 0030 FFF7FEFF 		bl	mic_buffer_ready_reset
 710              	.LVL71:
 711              	.L63:
 712              		.loc 2 1026 0 discriminator 1
 713 0034 FFF7FEFF 		bl	mic_buffer_is_ready
 714              	.LVL72:
 715 0038 0028     		cmp	r0, #0
 716 003a FBD0     		beq	.L63
 717              		.loc 2 1027 0
 718 003c FFF7FEFF 		bl	mic_get_buffer_ptr
 719              	.LVL73:
 720              		.loc 2 1028 0
 721 0040 2B68     		ldr	r3, [r5]
 722 0042 0146     		mov	r1, r0
 723 0044 1B68     		ldr	r3, [r3]
 724 0046 0648     		ldr	r0, .L69+4
 725              	.LVL74:
 726 0048 2246     		mov	r2, r4
 727 004a 9847     		blx	r3
 728              	.LVL75:
 729              		.loc 2 1029 0
 730 004c 019A     		ldr	r2, [sp, #4]
 731 004e 3368     		ldr	r3, [r6]
 732 0050 9A42     		cmp	r2, r3
 733 0052 01D1     		bne	.L68
 734 0054 02B0     		add	sp, sp, #8
 735              		.cfi_remember_state
 736              		.cfi_def_cfa_offset 16
 737              		@ sp needed
 738 0056 70BD     		pop	{r4, r5, r6, pc}
 739              	.L68:
 740              		.cfi_restore_state
 741 0058 FFF7FEFF 		bl	__stack_chk_fail
ARM GAS  C:\Users\mathi\AppData\Local\Temp\cces8mGY.s 			page 14


 742              	.LVL76:
 743              	.L70:
 744              		.align	2
 745              	.L69:
 746 005c 00000000 		.word	__stack_chk_guard
 747 0060 00000000 		.word	SDU1
 748              		.cfi_endproc
 749              	.LFE307:
 750              		.size	cmd_mic_data, .-cmd_mic_data
 751              		.section	.text.cmd_audio_stop,"ax",%progbits
 752              		.align	1
 753              		.p2align 4,,15
 754              		.syntax unified
 755              		.thumb
 756              		.thumb_func
 757              		.fpu fpv4-sp-d16
 758              		.type	cmd_audio_stop, %function
 759              	cmd_audio_stop:
 760              	.LFB305:
 761              		.loc 2 997 0
 762              		.cfi_startproc
 763              		@ args = 0, pretend = 0, frame = 8
 764              		@ frame_needed = 0, uses_anonymous_args = 0
 765              	.LVL77:
 766 0000 00B5     		push	{lr}
 767              		.cfi_def_cfa_offset 4
 768              		.cfi_offset 14, -4
 769 0002 074B     		ldr	r3, .L76
 770 0004 83B0     		sub	sp, sp, #12
 771              		.cfi_def_cfa_offset 16
 772              		.loc 2 997 0
 773 0006 1A68     		ldr	r2, [r3]
 774              	.LVL78:
 775 0008 0192     		str	r2, [sp, #4]
 776              		.loc 2 1001 0
 777 000a 019A     		ldr	r2, [sp, #4]
 778 000c 1B68     		ldr	r3, [r3]
 779 000e 9A42     		cmp	r2, r3
 780 0010 04D1     		bne	.L75
 781              		.loc 2 1002 0
 782 0012 03B0     		add	sp, sp, #12
 783              		.cfi_remember_state
 784              		.cfi_def_cfa_offset 4
 785              		@ sp needed
 786 0014 5DF804EB 		ldr	lr, [sp], #4
 787              		.cfi_restore 14
 788              		.cfi_def_cfa_offset 0
 789              		.loc 2 1001 0
 790 0018 FFF7FEBF 		b	dac_stop
 791              	.LVL79:
 792              	.L75:
 793              		.cfi_restore_state
 794 001c FFF7FEFF 		bl	__stack_chk_fail
 795              	.LVL80:
 796              	.L77:
 797              		.align	2
 798              	.L76:
ARM GAS  C:\Users\mathi\AppData\Local\Temp\cces8mGY.s 			page 15


 799 0020 00000000 		.word	__stack_chk_guard
 800              		.cfi_endproc
 801              	.LFE305:
 802              		.size	cmd_audio_stop, .-cmd_audio_stop
 803              		.section	.text.cmd_get_battery,"ax",%progbits
 804              		.align	1
 805              		.p2align 4,,15
 806              		.syntax unified
 807              		.thumb
 808              		.thumb_func
 809              		.fpu fpv4-sp-d16
 810              		.type	cmd_get_battery, %function
 811              	cmd_get_battery:
 812              	.LFB303:
 813              		.loc 2 977 0
 814              		.cfi_startproc
 815              		@ args = 0, pretend = 0, frame = 8
 816              		@ frame_needed = 0, uses_anonymous_args = 0
 817              	.LVL81:
 818 0000 30B5     		push	{r4, r5, lr}
 819              		.cfi_def_cfa_offset 12
 820              		.cfi_offset 4, -12
 821              		.cfi_offset 5, -8
 822              		.cfi_offset 14, -4
 823 0002 0A4C     		ldr	r4, .L83
 824 0004 83B0     		sub	sp, sp, #12
 825              		.cfi_def_cfa_offset 24
 826              		.loc 2 977 0
 827 0006 2368     		ldr	r3, [r4]
 828 0008 0193     		str	r3, [sp, #4]
 829 000a 0546     		mov	r5, r0
 830              		.loc 2 981 0
 831 000c FFF7FEFF 		bl	get_battery_raw
 832              	.LVL82:
 833 0010 0199     		ldr	r1, [sp, #4]
 834 0012 2368     		ldr	r3, [r4]
 835 0014 9942     		cmp	r1, r3
 836 0016 07D1     		bne	.L82
 837 0018 0549     		ldr	r1, .L83+4
 838 001a 0246     		mov	r2, r0
 839 001c 2846     		mov	r0, r5
 840              		.loc 2 982 0
 841 001e 03B0     		add	sp, sp, #12
 842              		.cfi_remember_state
 843              		.cfi_def_cfa_offset 12
 844              		@ sp needed
 845 0020 BDE83040 		pop	{r4, r5, lr}
 846              		.cfi_restore 14
 847              		.cfi_restore 5
 848              		.cfi_restore 4
 849              		.cfi_def_cfa_offset 0
 850              	.LVL83:
 851              		.loc 2 981 0
 852 0024 FFF7FEBF 		b	chprintf
 853              	.LVL84:
 854              	.L82:
 855              		.cfi_restore_state
ARM GAS  C:\Users\mathi\AppData\Local\Temp\cces8mGY.s 			page 16


 856 0028 FFF7FEFF 		bl	__stack_chk_fail
 857              	.LVL85:
 858              	.L84:
 859              		.align	2
 860              	.L83:
 861 002c 00000000 		.word	__stack_chk_guard
 862 0030 00000000 		.word	.LC18
 863              		.cfi_endproc
 864              	.LFE303:
 865              		.size	cmd_get_battery, .-cmd_get_battery
 866              		.section	.text.cmd_cam_capture,"ax",%progbits
 867              		.align	1
 868              		.p2align 4,,15
 869              		.syntax unified
 870              		.thumb
 871              		.thumb_func
 872              		.fpu fpv4-sp-d16
 873              		.type	cmd_cam_capture, %function
 874              	cmd_cam_capture:
 875              	.LFB299:
 876              		.loc 2 906 0
 877              		.cfi_startproc
 878              		@ args = 0, pretend = 0, frame = 8
 879              		@ frame_needed = 0, uses_anonymous_args = 0
 880              	.LVL86:
 881 0000 00B5     		push	{lr}
 882              		.cfi_def_cfa_offset 4
 883              		.cfi_offset 14, -4
 884 0002 074B     		ldr	r3, .L90
 885 0004 83B0     		sub	sp, sp, #12
 886              		.cfi_def_cfa_offset 16
 887              		.loc 2 906 0
 888 0006 1A68     		ldr	r2, [r3]
 889              	.LVL87:
 890 0008 0192     		str	r2, [sp, #4]
 891              		.loc 2 910 0
 892 000a 019A     		ldr	r2, [sp, #4]
 893 000c 1B68     		ldr	r3, [r3]
 894 000e 9A42     		cmp	r2, r3
 895 0010 04D1     		bne	.L89
 896              		.loc 2 911 0
 897 0012 03B0     		add	sp, sp, #12
 898              		.cfi_remember_state
 899              		.cfi_def_cfa_offset 4
 900              		@ sp needed
 901 0014 5DF804EB 		ldr	lr, [sp], #4
 902              		.cfi_restore 14
 903              		.cfi_def_cfa_offset 0
 904              		.loc 2 910 0
 905 0018 FFF7FEBF 		b	dcmi_capture_start
 906              	.LVL88:
 907              	.L89:
 908              		.cfi_restore_state
 909 001c FFF7FEFF 		bl	__stack_chk_fail
 910              	.LVL89:
 911              	.L91:
 912              		.align	2
ARM GAS  C:\Users\mathi\AppData\Local\Temp\cces8mGY.s 			page 17


 913              	.L90:
 914 0020 00000000 		.word	__stack_chk_guard
 915              		.cfi_endproc
 916              	.LFE299:
 917              		.size	cmd_cam_capture, .-cmd_cam_capture
 918              		.section	.text.cmd_cam_dcmi_unprepare,"ax",%progbits
 919              		.align	1
 920              		.p2align 4,,15
 921              		.syntax unified
 922              		.thumb
 923              		.thumb_func
 924              		.fpu fpv4-sp-d16
 925              		.type	cmd_cam_dcmi_unprepare, %function
 926              	cmd_cam_dcmi_unprepare:
 927              	.LFB298:
 928              		.loc 2 895 0
 929              		.cfi_startproc
 930              		@ args = 0, pretend = 0, frame = 8
 931              		@ frame_needed = 0, uses_anonymous_args = 0
 932              	.LVL90:
 933 0000 30B5     		push	{r4, r5, lr}
 934              		.cfi_def_cfa_offset 12
 935              		.cfi_offset 4, -12
 936              		.cfi_offset 5, -8
 937              		.cfi_offset 14, -4
 938 0002 0A4C     		ldr	r4, .L97
 939 0004 83B0     		sub	sp, sp, #12
 940              		.cfi_def_cfa_offset 24
 941              		.loc 2 895 0
 942 0006 2368     		ldr	r3, [r4]
 943 0008 0193     		str	r3, [sp, #4]
 944 000a 0546     		mov	r5, r0
 945              		.loc 2 899 0
 946 000c FFF7FEFF 		bl	dcmi_unprepare
 947              	.LVL91:
 948              		.loc 2 901 0
 949 0010 019A     		ldr	r2, [sp, #4]
 950 0012 2368     		ldr	r3, [r4]
 951 0014 9A42     		cmp	r2, r3
 952 0016 06D1     		bne	.L96
 953 0018 0549     		ldr	r1, .L97+4
 954 001a 2846     		mov	r0, r5
 955              		.loc 2 903 0
 956 001c 03B0     		add	sp, sp, #12
 957              		.cfi_remember_state
 958              		.cfi_def_cfa_offset 12
 959              		@ sp needed
 960 001e BDE83040 		pop	{r4, r5, lr}
 961              		.cfi_restore 14
 962              		.cfi_restore 5
 963              		.cfi_restore 4
 964              		.cfi_def_cfa_offset 0
 965              	.LVL92:
 966              		.loc 2 901 0
 967 0022 FFF7FEBF 		b	chprintf
 968              	.LVL93:
 969              	.L96:
ARM GAS  C:\Users\mathi\AppData\Local\Temp\cces8mGY.s 			page 18


 970              		.cfi_restore_state
 971 0026 FFF7FEFF 		bl	__stack_chk_fail
 972              	.LVL94:
 973              	.L98:
 974 002a 00BF     		.align	2
 975              	.L97:
 976 002c 00000000 		.word	__stack_chk_guard
 977 0030 00000000 		.word	.LC19
 978              		.cfi_endproc
 979              	.LFE298:
 980              		.size	cmd_cam_dcmi_unprepare, .-cmd_cam_dcmi_unprepare
 981              		.section	.text.cmd_config_erase,"ax",%progbits
 982              		.align	1
 983              		.p2align 4,,15
 984              		.syntax unified
 985              		.thumb
 986              		.thumb_func
 987              		.fpu fpv4-sp-d16
 988              		.type	cmd_config_erase, %function
 989              	cmd_config_erase:
 990              	.LFB285:
 991              		.loc 2 615 0
 992              		.cfi_startproc
 993              		@ args = 0, pretend = 0, frame = 8
 994              		@ frame_needed = 0, uses_anonymous_args = 0
 995              	.LVL95:
 996 0000 00B5     		push	{lr}
 997              		.cfi_def_cfa_offset 4
 998              		.cfi_offset 14, -4
 999 0002 084B     		ldr	r3, .L104
 1000 0004 83B0     		sub	sp, sp, #12
 1001              		.cfi_def_cfa_offset 16
 1002              		.loc 2 615 0
 1003 0006 1A68     		ldr	r2, [r3]
 1004              	.LVL96:
 1005 0008 0192     		str	r2, [sp, #4]
 1006              		.loc 2 621 0
 1007 000a 019A     		ldr	r2, [sp, #4]
 1008 000c 1B68     		ldr	r3, [r3]
 1009 000e 9A42     		cmp	r2, r3
 1010 0010 05D1     		bne	.L103
 1011 0012 0548     		ldr	r0, .L104+4
 1012              	.LVL97:
 1013              		.loc 2 622 0
 1014 0014 03B0     		add	sp, sp, #12
 1015              		.cfi_remember_state
 1016              		.cfi_def_cfa_offset 4
 1017              		@ sp needed
 1018 0016 5DF804EB 		ldr	lr, [sp], #4
 1019              		.cfi_restore 14
 1020              		.cfi_def_cfa_offset 0
 1021              		.loc 2 621 0
 1022 001a FFF7FEBF 		b	config_erase
 1023              	.LVL98:
 1024              	.L103:
 1025              		.cfi_restore_state
 1026 001e FFF7FEFF 		bl	__stack_chk_fail
ARM GAS  C:\Users\mathi\AppData\Local\Temp\cces8mGY.s 			page 19


 1027              	.LVL99:
 1028              	.L105:
 1029 0022 00BF     		.align	2
 1030              	.L104:
 1031 0024 00000000 		.word	__stack_chk_guard
 1032 0028 00000000 		.word	_config_start
 1033              		.cfi_endproc
 1034              	.LFE285:
 1035              		.size	cmd_config_erase, .-cmd_config_erase
 1036              		.section	.text.cmd_config_load,"ax",%progbits
 1037              		.align	1
 1038              		.p2align 4,,15
 1039              		.syntax unified
 1040              		.thumb
 1041              		.thumb_func
 1042              		.fpu fpv4-sp-d16
 1043              		.type	cmd_config_load, %function
 1044              	cmd_config_load:
 1045              	.LFB287:
 1046              		.loc 2 646 0
 1047              		.cfi_startproc
 1048              		@ args = 0, pretend = 0, frame = 8
 1049              		@ frame_needed = 0, uses_anonymous_args = 0
 1050              	.LVL100:
 1051 0000 30B5     		push	{r4, r5, lr}
 1052              		.cfi_def_cfa_offset 12
 1053              		.cfi_offset 4, -12
 1054              		.cfi_offset 5, -8
 1055              		.cfi_offset 14, -4
 1056 0002 104C     		ldr	r4, .L115
 1057              		.loc 2 652 0
 1058 0004 1049     		ldr	r1, .L115+4
 1059              	.LVL101:
 1060              		.loc 2 646 0
 1061 0006 2368     		ldr	r3, [r4]
 1062 0008 83B0     		sub	sp, sp, #12
 1063              		.cfi_def_cfa_offset 24
 1064              		.loc 2 646 0
 1065 000a 0546     		mov	r5, r0
 1066              		.loc 2 652 0
 1067 000c 0F48     		ldr	r0, .L115+8
 1068              	.LVL102:
 1069              		.loc 2 646 0
 1070 000e 0193     		str	r3, [sp, #4]
 1071              		.loc 2 652 0
 1072 0010 FFF7FEFF 		bl	config_load
 1073              	.LVL103:
 1074              		.loc 2 655 0
 1075 0014 019A     		ldr	r2, [sp, #4]
 1076 0016 2368     		ldr	r3, [r4]
 1077              		.loc 2 654 0
 1078 0018 40B9     		cbnz	r0, .L114
 1079              		.loc 2 657 0
 1080 001a 9A42     		cmp	r2, r3
 1081 001c 0FD1     		bne	.L113
 1082 001e 0C49     		ldr	r1, .L115+12
 1083 0020 2846     		mov	r0, r5
ARM GAS  C:\Users\mathi\AppData\Local\Temp\cces8mGY.s 			page 20


 1084              	.LVL104:
 1085              		.loc 2 659 0
 1086 0022 03B0     		add	sp, sp, #12
 1087              		.cfi_remember_state
 1088              		.cfi_def_cfa_offset 12
 1089              		@ sp needed
 1090 0024 BDE83040 		pop	{r4, r5, lr}
 1091              		.cfi_restore 14
 1092              		.cfi_restore 5
 1093              		.cfi_restore 4
 1094              		.cfi_def_cfa_offset 0
 1095              	.LVL105:
 1096              		.loc 2 657 0
 1097 0028 FFF7FEBF 		b	chprintf
 1098              	.LVL106:
 1099              	.L114:
 1100              		.cfi_restore_state
 1101              		.loc 2 655 0
 1102 002c 9A42     		cmp	r2, r3
 1103 002e 06D1     		bne	.L113
 1104 0030 0849     		ldr	r1, .L115+16
 1105 0032 2846     		mov	r0, r5
 1106              	.LVL107:
 1107              		.loc 2 659 0
 1108 0034 03B0     		add	sp, sp, #12
 1109              		.cfi_remember_state
 1110              		.cfi_def_cfa_offset 12
 1111              		@ sp needed
 1112 0036 BDE83040 		pop	{r4, r5, lr}
 1113              		.cfi_restore 14
 1114              		.cfi_restore 5
 1115              		.cfi_restore 4
 1116              		.cfi_def_cfa_offset 0
 1117              	.LVL108:
 1118              		.loc 2 657 0
 1119 003a FFF7FEBF 		b	chprintf
 1120              	.LVL109:
 1121              	.L113:
 1122              		.cfi_restore_state
 1123 003e FFF7FEFF 		bl	__stack_chk_fail
 1124              	.LVL110:
 1125              	.L116:
 1126 0042 00BF     		.align	2
 1127              	.L115:
 1128 0044 00000000 		.word	__stack_chk_guard
 1129 0048 00000000 		.word	_config_start
 1130 004c 00000000 		.word	parameter_root
 1131 0050 08000000 		.word	.LC21
 1132 0054 00000000 		.word	.LC20
 1133              		.cfi_endproc
 1134              	.LFE287:
 1135              		.size	cmd_config_load, .-cmd_config_load
 1136              		.section	.text.cmd_config_save,"ax",%progbits
 1137              		.align	1
 1138              		.p2align 4,,15
 1139              		.syntax unified
 1140              		.thumb
ARM GAS  C:\Users\mathi\AppData\Local\Temp\cces8mGY.s 			page 21


 1141              		.thumb_func
 1142              		.fpu fpv4-sp-d16
 1143              		.type	cmd_config_save, %function
 1144              	cmd_config_save:
 1145              	.LFB286:
 1146              		.loc 2 625 0
 1147              		.cfi_startproc
 1148              		@ args = 0, pretend = 0, frame = 8
 1149              		@ frame_needed = 0, uses_anonymous_args = 0
 1150              	.LVL111:
 1151 0000 70B5     		push	{r4, r5, r6, lr}
 1152              		.cfi_def_cfa_offset 16
 1153              		.cfi_offset 4, -16
 1154              		.cfi_offset 5, -12
 1155              		.cfi_offset 6, -8
 1156              		.cfi_offset 14, -4
 1157              		.loc 2 629 0
 1158 0002 1349     		ldr	r1, .L126
 1159              	.LVL112:
 1160 0004 134C     		ldr	r4, .L126+4
 1161              		.loc 2 625 0
 1162 0006 144D     		ldr	r5, .L126+8
 1163              		.loc 2 633 0
 1164 0008 144A     		ldr	r2, .L126+12
 1165              	.LVL113:
 1166              		.loc 2 625 0
 1167 000a 2B68     		ldr	r3, [r5]
 1168 000c 82B0     		sub	sp, sp, #8
 1169              		.cfi_def_cfa_offset 24
 1170              		.loc 2 633 0
 1171 000e 091B     		subs	r1, r1, r4
 1172              		.loc 2 625 0
 1173 0010 0646     		mov	r6, r0
 1174              		.loc 2 633 0
 1175 0012 2046     		mov	r0, r4
 1176              	.LVL114:
 1177              		.loc 2 625 0
 1178 0014 0193     		str	r3, [sp, #4]
 1179              	.LVL115:
 1180              		.loc 2 633 0
 1181 0016 FFF7FEFF 		bl	config_save
 1182              	.LVL116:
 1183              		.loc 2 636 0
 1184 001a 2146     		mov	r1, r4
 1185 001c 0F48     		ldr	r0, .L126+12
 1186 001e FFF7FEFF 		bl	config_load
 1187              	.LVL117:
 1188              		.loc 2 639 0
 1189 0022 019A     		ldr	r2, [sp, #4]
 1190 0024 2B68     		ldr	r3, [r5]
 1191              		.loc 2 638 0
 1192 0026 40B9     		cbnz	r0, .L125
 1193              		.loc 2 641 0
 1194 0028 9A42     		cmp	r2, r3
 1195 002a 0FD1     		bne	.L124
 1196 002c 0C49     		ldr	r1, .L126+16
 1197 002e 3046     		mov	r0, r6
ARM GAS  C:\Users\mathi\AppData\Local\Temp\cces8mGY.s 			page 22


 1198              	.LVL118:
 1199              		.loc 2 643 0
 1200 0030 02B0     		add	sp, sp, #8
 1201              		.cfi_remember_state
 1202              		.cfi_def_cfa_offset 16
 1203              		@ sp needed
 1204 0032 BDE87040 		pop	{r4, r5, r6, lr}
 1205              		.cfi_restore 14
 1206              		.cfi_restore 6
 1207              		.cfi_restore 5
 1208              		.cfi_restore 4
 1209              		.cfi_def_cfa_offset 0
 1210              	.LVL119:
 1211              		.loc 2 641 0
 1212 0036 FFF7FEBF 		b	chprintf
 1213              	.LVL120:
 1214              	.L125:
 1215              		.cfi_restore_state
 1216              		.loc 2 639 0
 1217 003a 9A42     		cmp	r2, r3
 1218 003c 06D1     		bne	.L124
 1219 003e 0949     		ldr	r1, .L126+20
 1220 0040 3046     		mov	r0, r6
 1221              	.LVL121:
 1222              		.loc 2 643 0
 1223 0042 02B0     		add	sp, sp, #8
 1224              		.cfi_remember_state
 1225              		.cfi_def_cfa_offset 16
 1226              		@ sp needed
 1227 0044 BDE87040 		pop	{r4, r5, r6, lr}
 1228              		.cfi_restore 14
 1229              		.cfi_restore 6
 1230              		.cfi_restore 5
 1231              		.cfi_restore 4
 1232              		.cfi_def_cfa_offset 0
 1233              	.LVL122:
 1234              		.loc 2 641 0
 1235 0048 FFF7FEBF 		b	chprintf
 1236              	.LVL123:
 1237              	.L124:
 1238              		.cfi_restore_state
 1239 004c FFF7FEFF 		bl	__stack_chk_fail
 1240              	.LVL124:
 1241              	.L127:
 1242              		.align	2
 1243              	.L126:
 1244 0050 00000000 		.word	_config_end
 1245 0054 00000000 		.word	_config_start
 1246 0058 00000000 		.word	__stack_chk_guard
 1247 005c 00000000 		.word	parameter_root
 1248 0060 00000000 		.word	.LC22
 1249 0064 00000000 		.word	.LC20
 1250              		.cfi_endproc
 1251              	.LFE286:
 1252              		.size	cmd_config_save, .-cmd_config_save
 1253              		.section	.text.cmd_config_set,"ax",%progbits
 1254              		.align	1
ARM GAS  C:\Users\mathi\AppData\Local\Temp\cces8mGY.s 			page 23


 1255              		.p2align 4,,15
 1256              		.syntax unified
 1257              		.thumb
 1258              		.thumb_func
 1259              		.fpu fpv4-sp-d16
 1260              		.type	cmd_config_set, %function
 1261              	cmd_config_set:
 1262              	.LFB284:
 1263              		.loc 2 565 0
 1264              		.cfi_startproc
 1265              		@ args = 0, pretend = 0, frame = 8
 1266              		@ frame_needed = 0, uses_anonymous_args = 0
 1267              	.LVL125:
 1268 0000 F0B5     		push	{r4, r5, r6, r7, lr}
 1269              		.cfi_def_cfa_offset 20
 1270              		.cfi_offset 4, -20
 1271              		.cfi_offset 5, -16
 1272              		.cfi_offset 6, -12
 1273              		.cfi_offset 7, -8
 1274              		.cfi_offset 14, -4
 1275 0002 2D4C     		ldr	r4, .L147
 1276 0004 83B0     		sub	sp, sp, #12
 1277              		.cfi_def_cfa_offset 32
 1278              		.loc 2 565 0
 1279 0006 2368     		ldr	r3, [r4]
 1280 0008 0193     		str	r3, [sp, #4]
 1281              		.loc 2 569 0
 1282 000a 0229     		cmp	r1, #2
 1283 000c 08D0     		beq	.L129
 1284              		.loc 2 570 0
 1285 000e 2B49     		ldr	r1, .L147+4
 1286              	.LVL126:
 1287 0010 FFF7FEFF 		bl	chprintf
 1288              	.LVL127:
 1289              	.L128:
 1290              		.loc 2 612 0
 1291 0014 019A     		ldr	r2, [sp, #4]
 1292 0016 2368     		ldr	r3, [r4]
 1293 0018 9A42     		cmp	r2, r3
 1294 001a 4BD1     		bne	.L142
 1295 001c 03B0     		add	sp, sp, #12
 1296              		.cfi_remember_state
 1297              		.cfi_def_cfa_offset 20
 1298              		@ sp needed
 1299 001e F0BD     		pop	{r4, r5, r6, r7, pc}
 1300              	.LVL128:
 1301              	.L129:
 1302              		.cfi_restore_state
 1303 0020 0646     		mov	r6, r0
 1304              		.loc 2 574 0
 1305 0022 1168     		ldr	r1, [r2]
 1306              	.LVL129:
 1307 0024 2648     		ldr	r0, .L147+8
 1308              	.LVL130:
 1309 0026 1546     		mov	r5, r2
 1310 0028 FFF7FEFF 		bl	parameter_find
 1311              	.LVL131:
ARM GAS  C:\Users\mathi\AppData\Local\Temp\cces8mGY.s 			page 24


 1312              		.loc 2 576 0
 1313 002c 0746     		mov	r7, r0
 1314 002e 60B3     		cbz	r0, .L143
 1315              		.loc 2 581 0
 1316 0030 837B     		ldrb	r3, [r0, #14]	@ zero_extendqisi2
 1317 0032 032B     		cmp	r3, #3
 1318 0034 0DD0     		beq	.L133
 1319 0036 042B     		cmp	r3, #4
 1320 0038 07D0     		beq	.L134
 1321 003a 022B     		cmp	r3, #2
 1322 003c 15D0     		beq	.L144
 1323              		.loc 2 609 0
 1324 003e 0268     		ldr	r2, [r0]
 1325 0040 2049     		ldr	r1, .L147+12
 1326 0042 3046     		mov	r0, r6
 1327              	.LVL132:
 1328 0044 FFF7FEFF 		bl	chprintf
 1329              	.LVL133:
 1330              		.loc 2 610 0
 1331 0048 E4E7     		b	.L128
 1332              	.LVL134:
 1333              	.L134:
 1334              		.loc 2 602 0
 1335 004a 6968     		ldr	r1, [r5, #4]
 1336 004c FFF7FEFF 		bl	parameter_string_set
 1337              	.LVL135:
 1338 0050 E0E7     		b	.L128
 1339              	.LVL136:
 1340              	.L133:
 1341              		.loc 2 583 0
 1342 0052 6868     		ldr	r0, [r5, #4]
 1343              	.LVL137:
 1344 0054 1C49     		ldr	r1, .L147+16
 1345 0056 6A46     		mov	r2, sp
 1346 0058 FFF7FEFF 		bl	sscanf
 1347              	.LVL138:
 1348 005c 0128     		cmp	r0, #1
 1349 005e 1AD0     		beq	.L145
 1350              		.loc 2 586 0
 1351 0060 3046     		mov	r0, r6
 1352 0062 1A49     		ldr	r1, .L147+20
 1353 0064 FFF7FEFF 		bl	chprintf
 1354              	.LVL139:
 1355 0068 D4E7     		b	.L128
 1356              	.LVL140:
 1357              	.L144:
 1358              		.loc 2 591 0
 1359 006a 6D68     		ldr	r5, [r5, #4]
 1360              	.LVL141:
 1361 006c 1849     		ldr	r1, .L147+24
 1362 006e 2846     		mov	r0, r5
 1363              	.LVL142:
 1364 0070 FFF7FEFF 		bl	strcmp
 1365              	.LVL143:
 1366 0074 A0B1     		cbz	r0, .L146
 1367              		.loc 2 593 0
 1368 0076 2846     		mov	r0, r5
ARM GAS  C:\Users\mathi\AppData\Local\Temp\cces8mGY.s 			page 25


 1369 0078 1649     		ldr	r1, .L147+28
 1370 007a FFF7FEFF 		bl	strcmp
 1371              	.LVL144:
 1372 007e A0B9     		cbnz	r0, .L138
 1373              		.loc 2 594 0
 1374 0080 0146     		mov	r1, r0
 1375 0082 3846     		mov	r0, r7
 1376 0084 FFF7FEFF 		bl	parameter_boolean_set
 1377              	.LVL145:
 1378 0088 C4E7     		b	.L128
 1379              	.LVL146:
 1380              	.L143:
 1381              		.loc 2 577 0
 1382 008a 2A68     		ldr	r2, [r5]
 1383 008c 1249     		ldr	r1, .L147+32
 1384 008e 3046     		mov	r0, r6
 1385              	.LVL147:
 1386 0090 FFF7FEFF 		bl	chprintf
 1387              	.LVL148:
 1388              		.loc 2 578 0
 1389 0094 BEE7     		b	.L128
 1390              	.L145:
 1391              		.loc 2 584 0
 1392 0096 3846     		mov	r0, r7
 1393 0098 0099     		ldr	r1, [sp]
 1394 009a FFF7FEFF 		bl	parameter_integer_set
 1395              	.LVL149:
 1396 009e B9E7     		b	.L128
 1397              	.LVL150:
 1398              	.L146:
 1399              		.loc 2 592 0
 1400 00a0 3846     		mov	r0, r7
 1401 00a2 0121     		movs	r1, #1
 1402 00a4 FFF7FEFF 		bl	parameter_boolean_set
 1403              	.LVL151:
 1404 00a8 B4E7     		b	.L128
 1405              	.L138:
 1406              		.loc 2 596 0
 1407 00aa 3046     		mov	r0, r6
 1408 00ac 0B49     		ldr	r1, .L147+36
 1409 00ae FFF7FEFF 		bl	chprintf
 1410              	.LVL152:
 1411 00b2 AFE7     		b	.L128
 1412              	.LVL153:
 1413              	.L142:
 1414              		.loc 2 612 0
 1415 00b4 FFF7FEFF 		bl	__stack_chk_fail
 1416              	.LVL154:
 1417              	.L148:
 1418              		.align	2
 1419              	.L147:
 1420 00b8 00000000 		.word	__stack_chk_guard
 1421 00bc 00000000 		.word	.LC23
 1422 00c0 00000000 		.word	parameter_root
 1423 00c4 C8000000 		.word	.LC30
 1424 00c8 4C000000 		.word	.LC25
 1425 00cc 50000000 		.word	.LC26
ARM GAS  C:\Users\mathi\AppData\Local\Temp\cces8mGY.s 			page 26


 1426 00d0 78000000 		.word	.LC27
 1427 00d4 80000000 		.word	.LC28
 1428 00d8 2C000000 		.word	.LC24
 1429 00dc 88000000 		.word	.LC29
 1430              		.cfi_endproc
 1431              	.LFE284:
 1432              		.size	cmd_config_set, .-cmd_config_set
 1433              		.global	__aeabi_f2d
 1434              		.section	.text.show_config_tree,"ax",%progbits
 1435              		.align	1
 1436              		.p2align 4,,15
 1437              		.syntax unified
 1438              		.thumb
 1439              		.thumb_func
 1440              		.fpu fpv4-sp-d16
 1441              		.type	show_config_tree, %function
 1442              	show_config_tree:
 1443              	.LFB282:
 1444              		.loc 2 502 0
 1445              		.cfi_startproc
 1446              		@ args = 0, pretend = 0, frame = 72
 1447              		@ frame_needed = 0, uses_anonymous_args = 0
 1448              	.LVL155:
 1449 0000 2DE9F04F 		push	{r4, r5, r6, r7, r8, r9, r10, fp, lr}
 1450              		.cfi_def_cfa_offset 36
 1451              		.cfi_offset 4, -36
 1452              		.cfi_offset 5, -32
 1453              		.cfi_offset 6, -28
 1454              		.cfi_offset 7, -24
 1455              		.cfi_offset 8, -20
 1456              		.cfi_offset 9, -16
 1457              		.cfi_offset 10, -12
 1458              		.cfi_offset 11, -8
 1459              		.cfi_offset 14, -4
 1460 0004 DFF854A1 		ldr	r10, .L186+32
 1461 0008 95B0     		sub	sp, sp, #84
 1462              		.cfi_def_cfa_offset 120
 1463              		.loc 2 502 0
 1464 000a DAF80030 		ldr	r3, [r10]
 1465 000e 1393     		str	r3, [sp, #76]
 1466              	.LBB153:
 1467              	.LBB154:
 1468              		.loc 2 496 0
 1469 0010 B2F10008 		subs	r8, r2, #0
 1470              	.LBE154:
 1471              	.LBE153:
 1472              		.loc 2 502 0
 1473 0014 0446     		mov	r4, r0
 1474              	.LVL156:
 1475 0016 8946     		mov	r9, r1
 1476              	.LBB156:
 1477              	.LBB155:
 1478              		.loc 2 496 0
 1479 0018 08DD     		ble	.L150
 1480              		.loc 2 497 0
 1481 001a 484E     		ldr	r6, .L186
 1482              		.loc 2 496 0
ARM GAS  C:\Users\mathi\AppData\Local\Temp\cces8mGY.s 			page 27


 1483 001c 0025     		movs	r5, #0
 1484              	.LVL157:
 1485              	.L151:
 1486 001e 0135     		adds	r5, r5, #1
 1487              	.LVL158:
 1488              		.loc 2 497 0
 1489 0020 3146     		mov	r1, r6
 1490 0022 2046     		mov	r0, r4
 1491 0024 FFF7FEFF 		bl	chprintf
 1492              	.LVL159:
 1493              		.loc 2 496 0
 1494 0028 A845     		cmp	r8, r5
 1495 002a F8D1     		bne	.L151
 1496              	.LVL160:
 1497              	.L150:
 1498              	.LBE155:
 1499              	.LBE156:
 1500              		.loc 2 507 0
 1501 002c D9F80020 		ldr	r2, [r9]
 1502 0030 4349     		ldr	r1, .L186+4
 1503 0032 2046     		mov	r0, r4
 1504 0034 FFF7FEFF 		bl	chprintf
 1505              	.LVL161:
 1506              		.loc 2 509 0
 1507 0038 D9F81450 		ldr	r5, [r9, #20]
 1508              	.LVL162:
 1509 003c 55B3     		cbz	r5, .L153
 1510              	.LBB157:
 1511              	.LBB158:
 1512              		.loc 2 497 0
 1513 003e 3F4F     		ldr	r7, .L186
 1514              	.L152:
 1515              	.LVL163:
 1516              		.loc 2 496 0
 1517 0040 B8F1000F 		cmp	r8, #0
 1518 0044 0BDB     		blt	.L165
 1519 0046 08F10106 		add	r6, r8, #1
 1520 004a 4FF0000B 		mov	fp, #0
 1521              	.LVL164:
 1522              	.L154:
 1523 004e 0BF1010B 		add	fp, fp, #1
 1524              	.LVL165:
 1525              		.loc 2 497 0
 1526 0052 3946     		mov	r1, r7
 1527 0054 2046     		mov	r0, r4
 1528 0056 FFF7FEFF 		bl	chprintf
 1529              	.LVL166:
 1530              		.loc 2 496 0
 1531 005a B345     		cmp	fp, r6
 1532 005c F7D1     		bne	.L154
 1533              	.LVL167:
 1534              	.L165:
 1535              	.LBE158:
 1536              	.LBE157:
 1537              		.loc 2 511 0
 1538 005e 2846     		mov	r0, r5
 1539 0060 FFF7FEFF 		bl	parameter_defined
ARM GAS  C:\Users\mathi\AppData\Local\Temp\cces8mGY.s 			page 28


 1540              	.LVL168:
 1541 0064 0028     		cmp	r0, #0
 1542 0066 50D0     		beq	.L155
 1543              		.loc 2 512 0
 1544 0068 AB7B     		ldrb	r3, [r5, #14]	@ zero_extendqisi2
 1545 006a 5A1E     		subs	r2, r3, #1
 1546 006c 032A     		cmp	r2, #3
 1547 006e 52D8     		bhi	.L156
 1548 0070 DFE802F0 		tbb	[pc, r2]
 1549              	.L158:
 1550 0074 3B       		.byte	(.L157-.L158)/2
 1551 0075 2B       		.byte	(.L159-.L158)/2
 1552 0076 20       		.byte	(.L160-.L158)/2
 1553 0077 02       		.byte	(.L161-.L158)/2
 1554              		.p2align 1
 1555              	.L161:
 1556              		.loc 2 526 0
 1557 0078 03A9     		add	r1, sp, #12
 1558 007a 4022     		movs	r2, #64
 1559 007c 2846     		mov	r0, r5
 1560 007e FFF7FEFF 		bl	parameter_string_get
 1561              	.LVL169:
 1562              		.loc 2 527 0
 1563 0082 03AB     		add	r3, sp, #12
 1564 0084 2A68     		ldr	r2, [r5]
 1565 0086 2F49     		ldr	r1, .L186+8
 1566 0088 2046     		mov	r0, r4
 1567 008a FFF7FEFF 		bl	chprintf
 1568              	.LVL170:
 1569              	.L162:
 1570              		.loc 2 509 0 discriminator 2
 1571 008e AD68     		ldr	r5, [r5, #8]
 1572              	.LVL171:
 1573 0090 002D     		cmp	r5, #0
 1574 0092 D5D1     		bne	.L152
 1575              	.L153:
 1576              		.loc 2 539 0
 1577 0094 D9F80C10 		ldr	r1, [r9, #12]
 1578 0098 0029     		cmp	r1, #0
 1579 009a 47D1     		bne	.L183
 1580              	.L166:
 1581              		.loc 2 543 0
 1582 009c D9F81010 		ldr	r1, [r9, #16]
 1583 00a0 0029     		cmp	r1, #0
 1584 00a2 3ED1     		bne	.L184
 1585              	.L149:
 1586              		.loc 2 546 0
 1587 00a4 139A     		ldr	r2, [sp, #76]
 1588 00a6 DAF80030 		ldr	r3, [r10]
 1589 00aa 9A42     		cmp	r2, r3
 1590 00ac 44D1     		bne	.L185
 1591 00ae 15B0     		add	sp, sp, #84
 1592              		.cfi_remember_state
 1593              		.cfi_def_cfa_offset 36
 1594              		@ sp needed
 1595 00b0 BDE8F08F 		pop	{r4, r5, r6, r7, r8, r9, r10, fp, pc}
 1596              	.LVL172:
ARM GAS  C:\Users\mathi\AppData\Local\Temp\cces8mGY.s 			page 29


 1597              	.L160:
 1598              		.cfi_restore_state
 1599              		.loc 2 518 0
 1600 00b4 2846     		mov	r0, r5
 1601 00b6 2E68     		ldr	r6, [r5]
 1602 00b8 FFF7FEFF 		bl	parameter_integer_get
 1603              	.LVL173:
 1604 00bc 3246     		mov	r2, r6
 1605 00be 0346     		mov	r3, r0
 1606 00c0 2149     		ldr	r1, .L186+12
 1607 00c2 2046     		mov	r0, r4
 1608 00c4 FFF7FEFF 		bl	chprintf
 1609              	.LVL174:
 1610              		.loc 2 519 0
 1611 00c8 E1E7     		b	.L162
 1612              	.L159:
 1613              		.loc 2 522 0
 1614 00ca 2846     		mov	r0, r5
 1615 00cc 2E68     		ldr	r6, [r5]
 1616 00ce FFF7FEFF 		bl	parameter_boolean_get
 1617              	.LVL175:
 1618 00d2 DFF88CC0 		ldr	ip, .L186+36
 1619 00d6 1D4B     		ldr	r3, .L186+16
 1620 00d8 1A49     		ldr	r1, .L186+8
 1621 00da 0028     		cmp	r0, #0
 1622 00dc 18BF     		it	ne
 1623 00de 6346     		movne	r3, ip
 1624 00e0 3246     		mov	r2, r6
 1625 00e2 2046     		mov	r0, r4
 1626 00e4 FFF7FEFF 		bl	chprintf
 1627              	.LVL176:
 1628              		.loc 2 523 0
 1629 00e8 D1E7     		b	.L162
 1630              	.L157:
 1631              		.loc 2 514 0
 1632 00ea 2846     		mov	r0, r5
 1633 00ec 2E68     		ldr	r6, [r5]
 1634 00ee FFF7FEFF 		bl	parameter_scalar_get
 1635              	.LVL177:
 1636 00f2 10EE100A 		vmov	r0, s0
 1637 00f6 FFF7FEFF 		bl	__aeabi_f2d
 1638              	.LVL178:
 1639 00fa 3246     		mov	r2, r6
 1640 00fc CDE90001 		strd	r0, [sp]
 1641 0100 1349     		ldr	r1, .L186+20
 1642 0102 2046     		mov	r0, r4
 1643 0104 FFF7FEFF 		bl	chprintf
 1644              	.LVL179:
 1645              		.loc 2 515 0
 1646 0108 C1E7     		b	.L162
 1647              	.L155:
 1648              		.loc 2 535 0
 1649 010a 2A68     		ldr	r2, [r5]
 1650 010c 1149     		ldr	r1, .L186+24
 1651 010e 2046     		mov	r0, r4
 1652 0110 FFF7FEFF 		bl	chprintf
 1653              	.LVL180:
ARM GAS  C:\Users\mathi\AppData\Local\Temp\cces8mGY.s 			page 30


 1654 0114 BBE7     		b	.L162
 1655              	.L156:
 1656              		.loc 2 531 0
 1657 0116 2A68     		ldr	r2, [r5]
 1658 0118 0F49     		ldr	r1, .L186+28
 1659 011a 2046     		mov	r0, r4
 1660 011c FFF7FEFF 		bl	chprintf
 1661              	.LVL181:
 1662              		.loc 2 532 0
 1663 0120 B5E7     		b	.L162
 1664              	.L184:
 1665              		.loc 2 544 0
 1666 0122 4246     		mov	r2, r8
 1667 0124 2046     		mov	r0, r4
 1668 0126 FFF76BFF 		bl	show_config_tree
 1669              	.LVL182:
 1670              		.loc 2 546 0
 1671 012a BBE7     		b	.L149
 1672              	.L183:
 1673              		.loc 2 540 0
 1674 012c 08F10102 		add	r2, r8, #1
 1675 0130 2046     		mov	r0, r4
 1676 0132 FFF765FF 		bl	show_config_tree
 1677              	.LVL183:
 1678 0136 B1E7     		b	.L166
 1679              	.L185:
 1680              		.loc 2 546 0
 1681 0138 FFF7FEFF 		bl	__stack_chk_fail
 1682              	.LVL184:
 1683              	.L187:
 1684              		.align	2
 1685              	.L186:
 1686 013c 00000000 		.word	.LC31
 1687 0140 04000000 		.word	.LC32
 1688 0144 24000000 		.word	.LC35
 1689 0148 18000000 		.word	.LC34
 1690 014c 80000000 		.word	.LC28
 1691 0150 0C000000 		.word	.LC33
 1692 0154 30000000 		.word	.LC36
 1693 0158 C8000000 		.word	.LC30
 1694 015c 00000000 		.word	__stack_chk_guard
 1695 0160 78000000 		.word	.LC27
 1696              		.cfi_endproc
 1697              	.LFE282:
 1698              		.size	show_config_tree, .-show_config_tree
 1699              		.section	.text.cmd_melody_stop,"ax",%progbits
 1700              		.align	1
 1701              		.p2align 4,,15
 1702              		.syntax unified
 1703              		.thumb
 1704              		.thumb_func
 1705              		.fpu fpv4-sp-d16
 1706              		.type	cmd_melody_stop, %function
 1707              	cmd_melody_stop:
 1708              	.LFB274:
 1709              		.loc 2 343 0
 1710              		.cfi_startproc
ARM GAS  C:\Users\mathi\AppData\Local\Temp\cces8mGY.s 			page 31


 1711              		@ args = 0, pretend = 0, frame = 8
 1712              		@ frame_needed = 0, uses_anonymous_args = 0
 1713              	.LVL185:
 1714 0000 00B5     		push	{lr}
 1715              		.cfi_def_cfa_offset 4
 1716              		.cfi_offset 14, -4
 1717 0002 074B     		ldr	r3, .L193
 1718 0004 83B0     		sub	sp, sp, #12
 1719              		.cfi_def_cfa_offset 16
 1720              		.loc 2 343 0
 1721 0006 1A68     		ldr	r2, [r3]
 1722              	.LVL186:
 1723 0008 0192     		str	r2, [sp, #4]
 1724              		.loc 2 348 0
 1725 000a 019A     		ldr	r2, [sp, #4]
 1726 000c 1B68     		ldr	r3, [r3]
 1727 000e 9A42     		cmp	r2, r3
 1728 0010 04D1     		bne	.L192
 1729              		.loc 2 349 0
 1730 0012 03B0     		add	sp, sp, #12
 1731              		.cfi_remember_state
 1732              		.cfi_def_cfa_offset 4
 1733              		@ sp needed
 1734 0014 5DF804EB 		ldr	lr, [sp], #4
 1735              		.cfi_restore 14
 1736              		.cfi_def_cfa_offset 0
 1737              		.loc 2 348 0
 1738 0018 FFF7FEBF 		b	stopCurrentMelody
 1739              	.LVL187:
 1740              	.L192:
 1741              		.cfi_restore_state
 1742 001c FFF7FEFF 		bl	__stack_chk_fail
 1743              	.LVL188:
 1744              	.L194:
 1745              		.align	2
 1746              	.L193:
 1747 0020 00000000 		.word	__stack_chk_guard
 1748              		.cfi_endproc
 1749              	.LFE274:
 1750              		.size	cmd_melody_stop, .-cmd_melody_stop
 1751              		.section	.text.cmd_sound_file_stop,"ax",%progbits
 1752              		.align	1
 1753              		.p2align 4,,15
 1754              		.syntax unified
 1755              		.thumb
 1756              		.thumb_func
 1757              		.fpu fpv4-sp-d16
 1758              		.type	cmd_sound_file_stop, %function
 1759              	cmd_sound_file_stop:
 1760              	.LFB271:
 1761              		.loc 2 298 0
 1762              		.cfi_startproc
 1763              		@ args = 0, pretend = 0, frame = 8
 1764              		@ frame_needed = 0, uses_anonymous_args = 0
 1765              	.LVL189:
 1766 0000 00B5     		push	{lr}
 1767              		.cfi_def_cfa_offset 4
ARM GAS  C:\Users\mathi\AppData\Local\Temp\cces8mGY.s 			page 32


 1768              		.cfi_offset 14, -4
 1769 0002 074B     		ldr	r3, .L200
 1770 0004 83B0     		sub	sp, sp, #12
 1771              		.cfi_def_cfa_offset 16
 1772              		.loc 2 298 0
 1773 0006 1A68     		ldr	r2, [r3]
 1774              	.LVL190:
 1775 0008 0192     		str	r2, [sp, #4]
 1776              		.loc 2 303 0
 1777 000a 019A     		ldr	r2, [sp, #4]
 1778 000c 1B68     		ldr	r3, [r3]
 1779 000e 9A42     		cmp	r2, r3
 1780 0010 04D1     		bne	.L199
 1781              		.loc 2 304 0
 1782 0012 03B0     		add	sp, sp, #12
 1783              		.cfi_remember_state
 1784              		.cfi_def_cfa_offset 4
 1785              		@ sp needed
 1786 0014 5DF804EB 		ldr	lr, [sp], #4
 1787              		.cfi_restore 14
 1788              		.cfi_def_cfa_offset 0
 1789              		.loc 2 303 0
 1790 0018 FFF7FEBF 		b	stopCurrentSoundFile
 1791              	.LVL191:
 1792              	.L199:
 1793              		.cfi_restore_state
 1794 001c FFF7FEFF 		bl	__stack_chk_fail
 1795              	.LVL192:
 1796              	.L201:
 1797              		.align	2
 1798              	.L200:
 1799 0020 00000000 		.word	__stack_chk_guard
 1800              		.cfi_endproc
 1801              	.LFE271:
 1802              		.size	cmd_sound_file_stop, .-cmd_sound_file_stop
 1803              		.section	.text.shell_spawn_thd,"ax",%progbits
 1804              		.align	1
 1805              		.p2align 4,,15
 1806              		.syntax unified
 1807              		.thumb
 1808              		.thumb_func
 1809              		.fpu fpv4-sp-d16
 1810              		.type	shell_spawn_thd, %function
 1811              	shell_spawn_thd:
 1812              	.LFB309:
 1813              		.loc 2 1296 0
 1814              		.cfi_startproc
 1815              		@ args = 0, pretend = 0, frame = 8
 1816              		@ frame_needed = 0, uses_anonymous_args = 0
 1817              	.LVL193:
 1818 0000 70B5     		push	{r4, r5, r6, lr}
 1819              		.cfi_def_cfa_offset 16
 1820              		.cfi_offset 4, -16
 1821              		.cfi_offset 5, -12
 1822              		.cfi_offset 6, -8
 1823              		.cfi_offset 14, -4
 1824 0002 144B     		ldr	r3, .L224
ARM GAS  C:\Users\mathi\AppData\Local\Temp\cces8mGY.s 			page 33


 1825 0004 144D     		ldr	r5, .L224+4
 1826 0006 1B68     		ldr	r3, [r3]
 1827              		.loc 2 1310 0
 1828 0008 144E     		ldr	r6, .L224+8
 1829              		.loc 2 1296 0
 1830 000a 82B0     		sub	sp, sp, #8
 1831              		.cfi_def_cfa_offset 24
 1832              		.loc 2 1298 0
 1833 000c 0024     		movs	r4, #0
 1834              		.loc 2 1296 0
 1835 000e 0193     		str	r3, [sp, #4]
 1836              	.LVL194:
 1837              		.loc 2 1305 0
 1838 0010 FFF7FEFF 		bl	shellInit
 1839              	.LVL195:
 1840              	.L208:
 1841              		.loc 2 1308 0
 1842 0014 7CB1     		cbz	r4, .L203
 1843              		.loc 2 1313 0
 1844 0016 94F82030 		ldrb	r3, [r4, #32]	@ zero_extendqisi2
 1845 001a 0F2B     		cmp	r3, #15
 1846 001c 04D0     		beq	.L223
 1847              	.L205:
 1848              		.loc 2 1318 0
 1849 001e 4FF4FA70 		mov	r0, #500
 1850 0022 FFF7FEFF 		bl	chThdSleep
 1851              	.LVL196:
 1852              		.loc 2 1308 0
 1853 0026 F5E7     		b	.L208
 1854              	.L223:
 1855              		.loc 2 1314 0
 1856 0028 2046     		mov	r0, r4
 1857 002a FFF7FEFF 		bl	chThdRelease
 1858              	.LVL197:
 1859              	.L222:
 1860              		.loc 2 1318 0
 1861 002e 4FF4FA70 		mov	r0, #500
 1862 0032 FFF7FEFF 		bl	chThdSleep
 1863              	.LVL198:
 1864              	.L203:
 1865              		.loc 2 1309 0
 1866 0036 D5F85432 		ldr	r3, [r5, #596]
 1867 003a 1B68     		ldr	r3, [r3]
 1868 003c 1B78     		ldrb	r3, [r3]	@ zero_extendqisi2
 1869 003e 042B     		cmp	r3, #4
 1870 0040 F5D1     		bne	.L222
 1871              		.loc 2 1310 0
 1872 0042 4022     		movs	r2, #64
 1873 0044 40F67811 		movw	r1, #2424
 1874 0048 3046     		mov	r0, r6
 1875 004a FFF7FEFF 		bl	shellCreate
 1876              	.LVL199:
 1877 004e 0446     		mov	r4, r0
 1878              	.LVL200:
 1879 0050 E5E7     		b	.L205
 1880              	.L225:
 1881 0052 00BF     		.align	2
ARM GAS  C:\Users\mathi\AppData\Local\Temp\cces8mGY.s 			page 34


 1882              	.L224:
 1883 0054 00000000 		.word	__stack_chk_guard
 1884 0058 00000000 		.word	SDU1
 1885 005c 00000000 		.word	.LANCHOR1
 1886              		.cfi_endproc
 1887              	.LFE309:
 1888              		.size	shell_spawn_thd, .-shell_spawn_thd
 1889              		.section	.text.cmd_mkdir,"ax",%progbits
 1890              		.align	1
 1891              		.p2align 4,,15
 1892              		.global	cmd_mkdir
 1893              		.syntax unified
 1894              		.thumb
 1895              		.thumb_func
 1896              		.fpu fpv4-sp-d16
 1897              		.type	cmd_mkdir, %function
 1898              	cmd_mkdir:
 1899              	.LFB266:
 1900              		.loc 2 157 0
 1901              		.cfi_startproc
 1902              		@ args = 0, pretend = 0, frame = 8
 1903              		@ frame_needed = 0, uses_anonymous_args = 0
 1904              	.LVL201:
 1905 0000 F0B5     		push	{r4, r5, r6, r7, lr}
 1906              		.cfi_def_cfa_offset 20
 1907              		.cfi_offset 4, -20
 1908              		.cfi_offset 5, -16
 1909              		.cfi_offset 6, -12
 1910              		.cfi_offset 7, -8
 1911              		.cfi_offset 14, -4
 1912 0002 1C4C     		ldr	r4, .L237
 1913 0004 83B0     		sub	sp, sp, #12
 1914              		.cfi_def_cfa_offset 32
 1915              		.loc 2 157 0
 1916 0006 2368     		ldr	r3, [r4]
 1917 0008 0193     		str	r3, [sp, #4]
 1918              		.loc 2 159 0
 1919 000a 0129     		cmp	r1, #1
 1920              		.loc 2 157 0
 1921 000c 0546     		mov	r5, r0
 1922              		.loc 2 159 0
 1923 000e 0DD0     		beq	.L227
 1924              		.loc 2 160 0
 1925 0010 1949     		ldr	r1, .L237+4
 1926              	.LVL202:
 1927 0012 FFF7FEFF 		bl	chprintf
 1928              	.LVL203:
 1929              		.loc 2 161 0
 1930 0016 019A     		ldr	r2, [sp, #4]
 1931 0018 2368     		ldr	r3, [r4]
 1932 001a 9A42     		cmp	r2, r3
 1933 001c 28D1     		bne	.L235
 1934 001e 1749     		ldr	r1, .L237+8
 1935 0020 2846     		mov	r0, r5
 1936              		.loc 2 179 0
 1937 0022 03B0     		add	sp, sp, #12
 1938              		.cfi_remember_state
ARM GAS  C:\Users\mathi\AppData\Local\Temp\cces8mGY.s 			page 35


 1939              		.cfi_def_cfa_offset 20
 1940              		@ sp needed
 1941 0024 BDE8F040 		pop	{r4, r5, r6, r7, lr}
 1942              		.cfi_restore 14
 1943              		.cfi_restore 7
 1944              		.cfi_restore 6
 1945              		.cfi_restore 5
 1946              		.cfi_restore 4
 1947              		.cfi_def_cfa_offset 0
 1948              	.LVL204:
 1949              		.loc 2 161 0
 1950 0028 FFF7FEBF 		b	chprintf
 1951              	.LVL205:
 1952              	.L227:
 1953              		.cfi_restore_state
 1954              		.loc 2 167 0
 1955 002c 1068     		ldr	r0, [r2]
 1956              	.LVL206:
 1957 002e 1646     		mov	r6, r2
 1958 0030 FFF7FEFF 		bl	f_mkdir
 1959              	.LVL207:
 1960              		.loc 2 168 0
 1961 0034 0746     		mov	r7, r0
 1962 0036 58B9     		cbnz	r0, .L236
 1963              	.LVL208:
 1964              	.LBB161:
 1965              	.LBB162:
 1966              		.loc 2 176 0
 1967 0038 019A     		ldr	r2, [sp, #4]
 1968 003a 2368     		ldr	r3, [r4]
 1969 003c 9A42     		cmp	r2, r3
 1970 003e 17D1     		bne	.L235
 1971 0040 3268     		ldr	r2, [r6]
 1972 0042 0F49     		ldr	r1, .L237+12
 1973 0044 2846     		mov	r0, r5
 1974              	.LVL209:
 1975              	.LBE162:
 1976              	.LBE161:
 1977              		.loc 2 179 0
 1978 0046 03B0     		add	sp, sp, #12
 1979              		.cfi_remember_state
 1980              		.cfi_def_cfa_offset 20
 1981              		@ sp needed
 1982 0048 BDE8F040 		pop	{r4, r5, r6, r7, lr}
 1983              		.cfi_restore 14
 1984              		.cfi_restore 7
 1985              		.cfi_restore 6
 1986              		.cfi_restore 5
 1987              		.cfi_restore 4
 1988              		.cfi_def_cfa_offset 0
 1989              	.LVL210:
 1990              	.LBB165:
 1991              	.LBB163:
 1992              		.loc 2 176 0
 1993 004c FFF7FEBF 		b	chprintf
 1994              	.LVL211:
 1995              	.L236:
ARM GAS  C:\Users\mathi\AppData\Local\Temp\cces8mGY.s 			page 36


 1996              		.cfi_restore_state
 1997              	.LBE163:
 1998              	.LBE165:
 1999              		.loc 2 172 0
 2000 0050 3268     		ldr	r2, [r6]
 2001 0052 0C49     		ldr	r1, .L237+16
 2002 0054 2846     		mov	r0, r5
 2003              	.LVL212:
 2004 0056 FFF7FEFF 		bl	chprintf
 2005              	.LVL213:
 2006              		.loc 2 173 0
 2007 005a 019A     		ldr	r2, [sp, #4]
 2008 005c 2368     		ldr	r3, [r4]
 2009 005e 9A42     		cmp	r2, r3
 2010 0060 06D1     		bne	.L235
 2011 0062 3946     		mov	r1, r7
 2012 0064 2846     		mov	r0, r5
 2013              		.loc 2 179 0
 2014 0066 03B0     		add	sp, sp, #12
 2015              		.cfi_remember_state
 2016              		.cfi_def_cfa_offset 20
 2017              		@ sp needed
 2018 0068 BDE8F040 		pop	{r4, r5, r6, r7, lr}
 2019              		.cfi_restore 14
 2020              		.cfi_restore 7
 2021              		.cfi_restore 6
 2022              		.cfi_restore 5
 2023              		.cfi_restore 4
 2024              		.cfi_def_cfa_offset 0
 2025              	.LVL214:
 2026              		.loc 2 173 0
 2027 006c FFF7FEBF 		b	fverbose_error
 2028              	.LVL215:
 2029              	.L235:
 2030              		.cfi_restore_state
 2031              	.LBB166:
 2032              	.LBB164:
 2033              		.loc 2 176 0
 2034 0070 FFF7FEFF 		bl	__stack_chk_fail
 2035              	.LVL216:
 2036              	.L238:
 2037              		.align	2
 2038              	.L237:
 2039 0074 00000000 		.word	__stack_chk_guard
 2040 0078 00000000 		.word	.LC37
 2041 007c 18000000 		.word	.LC38
 2042 0080 68000000 		.word	.LC40
 2043 0084 4C000000 		.word	.LC39
 2044              	.LBE164:
 2045              	.LBE166:
 2046              		.cfi_endproc
 2047              	.LFE266:
 2048              		.size	cmd_mkdir, .-cmd_mkdir
 2049              		.section	.text.cmd_setlabel,"ax",%progbits
 2050              		.align	1
 2051              		.p2align 4,,15
 2052              		.global	cmd_setlabel
ARM GAS  C:\Users\mathi\AppData\Local\Temp\cces8mGY.s 			page 37


 2053              		.syntax unified
 2054              		.thumb
 2055              		.thumb_func
 2056              		.fpu fpv4-sp-d16
 2057              		.type	cmd_setlabel, %function
 2058              	cmd_setlabel:
 2059              	.LFB267:
 2060              		.loc 2 181 0
 2061              		.cfi_startproc
 2062              		@ args = 0, pretend = 0, frame = 8
 2063              		@ frame_needed = 0, uses_anonymous_args = 0
 2064              	.LVL217:
 2065 0000 70B5     		push	{r4, r5, r6, lr}
 2066              		.cfi_def_cfa_offset 16
 2067              		.cfi_offset 4, -16
 2068              		.cfi_offset 5, -12
 2069              		.cfi_offset 6, -8
 2070              		.cfi_offset 14, -4
 2071 0002 1B4C     		ldr	r4, .L250
 2072 0004 82B0     		sub	sp, sp, #8
 2073              		.cfi_def_cfa_offset 24
 2074              		.loc 2 181 0
 2075 0006 2368     		ldr	r3, [r4]
 2076 0008 0193     		str	r3, [sp, #4]
 2077              		.loc 2 183 0
 2078 000a 0129     		cmp	r1, #1
 2079              		.loc 2 181 0
 2080 000c 0546     		mov	r5, r0
 2081              		.loc 2 183 0
 2082 000e 0DD0     		beq	.L240
 2083              		.loc 2 184 0
 2084 0010 1849     		ldr	r1, .L250+4
 2085              	.LVL218:
 2086 0012 FFF7FEFF 		bl	chprintf
 2087              	.LVL219:
 2088              		.loc 2 185 0
 2089 0016 019A     		ldr	r2, [sp, #4]
 2090 0018 2368     		ldr	r3, [r4]
 2091 001a 9A42     		cmp	r2, r3
 2092 001c 25D1     		bne	.L248
 2093 001e 1649     		ldr	r1, .L250+8
 2094 0020 2846     		mov	r0, r5
 2095              		.loc 2 200 0
 2096 0022 02B0     		add	sp, sp, #8
 2097              		.cfi_remember_state
 2098              		.cfi_def_cfa_offset 16
 2099              		@ sp needed
 2100 0024 BDE87040 		pop	{r4, r5, r6, lr}
 2101              		.cfi_restore 14
 2102              		.cfi_restore 6
 2103              		.cfi_restore 5
 2104              		.cfi_restore 4
 2105              		.cfi_def_cfa_offset 0
 2106              	.LVL220:
 2107              	.LBB169:
 2108              	.LBB170:
 2109              		.loc 2 197 0
ARM GAS  C:\Users\mathi\AppData\Local\Temp\cces8mGY.s 			page 38


 2110 0028 FFF7FEBF 		b	chprintf
 2111              	.LVL221:
 2112              	.L240:
 2113              		.cfi_restore_state
 2114              		.loc 2 191 0
 2115 002c 1068     		ldr	r0, [r2]
 2116              	.LVL222:
 2117 002e FFF7FEFF 		bl	f_setlabel
 2118              	.LVL223:
 2119              		.loc 2 192 0
 2120 0032 0646     		mov	r6, r0
 2121 0034 50B9     		cbnz	r0, .L249
 2122              		.loc 2 197 0
 2123 0036 019A     		ldr	r2, [sp, #4]
 2124 0038 2368     		ldr	r3, [r4]
 2125 003a 9A42     		cmp	r2, r3
 2126 003c 15D1     		bne	.L248
 2127 003e 0F49     		ldr	r1, .L250+12
 2128 0040 2846     		mov	r0, r5
 2129              	.LVL224:
 2130              	.LBE170:
 2131              	.LBE169:
 2132              		.loc 2 200 0
 2133 0042 02B0     		add	sp, sp, #8
 2134              		.cfi_remember_state
 2135              		.cfi_def_cfa_offset 16
 2136              		@ sp needed
 2137 0044 BDE87040 		pop	{r4, r5, r6, lr}
 2138              		.cfi_restore 14
 2139              		.cfi_restore 6
 2140              		.cfi_restore 5
 2141              		.cfi_restore 4
 2142              		.cfi_def_cfa_offset 0
 2143              	.LVL225:
 2144              	.LBB173:
 2145              	.LBB171:
 2146              		.loc 2 197 0
 2147 0048 FFF7FEBF 		b	chprintf
 2148              	.LVL226:
 2149              	.L249:
 2150              		.cfi_restore_state
 2151              		.loc 2 193 0
 2152 004c 0C49     		ldr	r1, .L250+16
 2153 004e 2846     		mov	r0, r5
 2154              	.LVL227:
 2155 0050 FFF7FEFF 		bl	chprintf
 2156              	.LVL228:
 2157              		.loc 2 194 0
 2158 0054 019A     		ldr	r2, [sp, #4]
 2159 0056 2368     		ldr	r3, [r4]
 2160 0058 9A42     		cmp	r2, r3
 2161 005a 06D1     		bne	.L248
 2162 005c 3146     		mov	r1, r6
 2163 005e 2846     		mov	r0, r5
 2164              	.LBE171:
 2165              	.LBE173:
 2166              		.loc 2 200 0
ARM GAS  C:\Users\mathi\AppData\Local\Temp\cces8mGY.s 			page 39


 2167 0060 02B0     		add	sp, sp, #8
 2168              		.cfi_remember_state
 2169              		.cfi_def_cfa_offset 16
 2170              		@ sp needed
 2171 0062 BDE87040 		pop	{r4, r5, r6, lr}
 2172              		.cfi_restore 14
 2173              		.cfi_restore 6
 2174              		.cfi_restore 5
 2175              		.cfi_restore 4
 2176              		.cfi_def_cfa_offset 0
 2177              	.LVL229:
 2178              	.LBB174:
 2179              	.LBB172:
 2180              		.loc 2 194 0
 2181 0066 FFF7FEBF 		b	fverbose_error
 2182              	.LVL230:
 2183              	.L248:
 2184              		.cfi_restore_state
 2185              		.loc 2 197 0
 2186 006a FFF7FEFF 		bl	__stack_chk_fail
 2187              	.LVL231:
 2188              	.L251:
 2189 006e 00BF     		.align	2
 2190              	.L250:
 2191 0070 00000000 		.word	__stack_chk_guard
 2192 0074 00000000 		.word	.LC41
 2193 0078 18000000 		.word	.LC42
 2194 007c 5C000000 		.word	.LC44
 2195 0080 3C000000 		.word	.LC43
 2196              	.LBE172:
 2197              	.LBE174:
 2198              		.cfi_endproc
 2199              	.LFE267:
 2200              		.size	cmd_setlabel, .-cmd_setlabel
 2201              		.section	.text.cmd_getlabel,"ax",%progbits
 2202              		.align	1
 2203              		.p2align 4,,15
 2204              		.global	cmd_getlabel
 2205              		.syntax unified
 2206              		.thumb
 2207              		.thumb_func
 2208              		.fpu fpv4-sp-d16
 2209              		.type	cmd_getlabel, %function
 2210              	cmd_getlabel:
 2211              	.LFB268:
 2212              		.loc 2 202 0
 2213              		.cfi_startproc
 2214              		@ args = 0, pretend = 0, frame = 24
 2215              		@ frame_needed = 0, uses_anonymous_args = 0
 2216              	.LVL232:
 2217 0000 70B5     		push	{r4, r5, r6, lr}
 2218              		.cfi_def_cfa_offset 16
 2219              		.cfi_offset 4, -16
 2220              		.cfi_offset 5, -12
 2221              		.cfi_offset 6, -8
 2222              		.cfi_offset 14, -4
 2223 0002 1A4C     		ldr	r4, .L261
ARM GAS  C:\Users\mathi\AppData\Local\Temp\cces8mGY.s 			page 40


 2224 0004 86B0     		sub	sp, sp, #24
 2225              		.cfi_def_cfa_offset 40
 2226              		.loc 2 202 0
 2227 0006 2368     		ldr	r3, [r4]
 2228 0008 0593     		str	r3, [sp, #20]
 2229              		.loc 2 207 0
 2230 000a 0029     		cmp	r1, #0
 2231              		.loc 2 202 0
 2232 000c 0546     		mov	r5, r0
 2233              		.loc 2 207 0
 2234 000e 0CDD     		ble	.L253
 2235              		.loc 2 208 0
 2236 0010 1749     		ldr	r1, .L261+4
 2237              	.LVL233:
 2238 0012 FFF7FEFF 		bl	chprintf
 2239              	.LVL234:
 2240              		.loc 2 209 0
 2241 0016 2846     		mov	r0, r5
 2242 0018 1649     		ldr	r1, .L261+8
 2243 001a FFF7FEFF 		bl	chprintf
 2244              	.LVL235:
 2245              	.L252:
 2246              		.loc 2 228 0
 2247 001e 059A     		ldr	r2, [sp, #20]
 2248 0020 2368     		ldr	r3, [r4]
 2249 0022 9A42     		cmp	r2, r3
 2250 0024 20D1     		bne	.L259
 2251 0026 06B0     		add	sp, sp, #24
 2252              		.cfi_remember_state
 2253              		.cfi_def_cfa_offset 16
 2254              		@ sp needed
 2255 0028 70BD     		pop	{r4, r5, r6, pc}
 2256              	.LVL236:
 2257              	.L253:
 2258              		.cfi_restore_state
 2259              	.LBB177:
 2260              	.LBB178:
 2261              		.loc 2 212 0
 2262 002a 0023     		movs	r3, #0
 2263              		.loc 2 216 0
 2264 002c 02A9     		add	r1, sp, #8
 2265              	.LVL237:
 2266 002e 01AA     		add	r2, sp, #4
 2267              	.LVL238:
 2268 0030 1148     		ldr	r0, .L261+12
 2269              	.LVL239:
 2270              		.loc 2 212 0
 2271 0032 0493     		str	r3, [sp, #16]
 2272 0034 CDE90233 		strd	r3, r3, [sp, #8]
 2273              		.loc 2 216 0
 2274 0038 FFF7FEFF 		bl	f_getlabel
 2275              	.LVL240:
 2276              		.loc 2 217 0
 2277 003c 0646     		mov	r6, r0
 2278 003e 50B9     		cbnz	r0, .L260
 2279              		.loc 2 225 0
 2280 0040 02AA     		add	r2, sp, #8
ARM GAS  C:\Users\mathi\AppData\Local\Temp\cces8mGY.s 			page 41


 2281 0042 0E49     		ldr	r1, .L261+16
 2282 0044 2846     		mov	r0, r5
 2283              	.LVL241:
 2284 0046 FFF7FEFF 		bl	chprintf
 2285              	.LVL242:
 2286              		.loc 2 226 0
 2287 004a 2846     		mov	r0, r5
 2288 004c 019A     		ldr	r2, [sp, #4]
 2289 004e 0C49     		ldr	r1, .L261+20
 2290 0050 FFF7FEFF 		bl	chprintf
 2291              	.LVL243:
 2292 0054 E3E7     		b	.L252
 2293              	.LVL244:
 2294              	.L260:
 2295              		.loc 2 218 0
 2296 0056 0B49     		ldr	r1, .L261+24
 2297 0058 2846     		mov	r0, r5
 2298              	.LVL245:
 2299 005a FFF7FEFF 		bl	chprintf
 2300              	.LVL246:
 2301              		.loc 2 219 0
 2302 005e 3146     		mov	r1, r6
 2303 0060 2846     		mov	r0, r5
 2304 0062 FFF7FEFF 		bl	fverbose_error
 2305              	.LVL247:
 2306 0066 DAE7     		b	.L252
 2307              	.LVL248:
 2308              	.L259:
 2309              	.LBE178:
 2310              	.LBE177:
 2311              		.loc 2 228 0
 2312 0068 FFF7FEFF 		bl	__stack_chk_fail
 2313              	.LVL249:
 2314              	.L262:
 2315              		.align	2
 2316              	.L261:
 2317 006c 00000000 		.word	__stack_chk_guard
 2318 0070 00000000 		.word	.LC45
 2319 0074 14000000 		.word	.LC46
 2320 0078 38000000 		.word	.LC47
 2321 007c 58000000 		.word	.LC49
 2322 0080 64000000 		.word	.LC50
 2323 0084 3C000000 		.word	.LC48
 2324              		.cfi_endproc
 2325              	.LFE268:
 2326              		.size	cmd_getlabel, .-cmd_getlabel
 2327              		.section	.text.cmd_cat.part.3,"ax",%progbits
 2328              		.align	1
 2329              		.p2align 4,,15
 2330              		.syntax unified
 2331              		.thumb
 2332              		.thumb_func
 2333              		.fpu fpv4-sp-d16
 2334              		.type	cmd_cat.part.3, %function
 2335              	cmd_cat.part.3:
 2336              	.LFB314:
 2337              		.loc 2 233 0
ARM GAS  C:\Users\mathi\AppData\Local\Temp\cces8mGY.s 			page 42


 2338              		.cfi_startproc
 2339              		@ args = 0, pretend = 0, frame = 816
 2340              		@ frame_needed = 0, uses_anonymous_args = 0
 2341              	.LVL250:
 2342 0000 F0B5     		push	{r4, r5, r6, r7, lr}
 2343              		.cfi_def_cfa_offset 20
 2344              		.cfi_offset 4, -20
 2345              		.cfi_offset 5, -16
 2346              		.cfi_offset 6, -12
 2347              		.cfi_offset 7, -8
 2348              		.cfi_offset 14, -4
 2349 0002 264F     		ldr	r7, .L274
 2350 0004 ADF54D7D 		sub	sp, sp, #820
 2351              		.cfi_def_cfa_offset 840
 2352              		.loc 2 233 0
 2353 0008 0E46     		mov	r6, r1
 2354 000a 3B68     		ldr	r3, [r7]
 2355              		.loc 2 250 0
 2356 000c 0968     		ldr	r1, [r1]
 2357              	.LVL251:
 2358              		.loc 2 233 0
 2359 000e CB93     		str	r3, [sp, #812]
 2360              	.LVL252:
 2361 0010 0546     		mov	r5, r0
 2362              		.loc 2 250 0
 2363 0012 0122     		movs	r2, #1
 2364 0014 01A8     		add	r0, sp, #4
 2365              	.LVL253:
 2366 0016 FFF7FEFF 		bl	f_open
 2367              	.LVL254:
 2368              		.loc 2 251 0
 2369 001a 88BB     		cbnz	r0, .L270
 2370              		.loc 2 275 0
 2371 001c 204E     		ldr	r6, .L274+4
 2372              	.LVL255:
 2373 001e 07E0     		b	.L264
 2374              	.L266:
 2375 0020 8BAA     		add	r2, sp, #556
 2376 0022 3146     		mov	r1, r6
 2377 0024 2846     		mov	r0, r5
 2378              	.LVL256:
 2379 0026 FFF7FEFF 		bl	chprintf
 2380              	.LVL257:
 2381              		.loc 2 276 0
 2382 002a 009B     		ldr	r3, [sp]
 2383 002c FE2B     		cmp	r3, #254
 2384 002e 1FD9     		bls	.L272
 2385              	.L264:
 2386              		.loc 2 264 0
 2387 0030 FF22     		movs	r2, #255
 2388 0032 0021     		movs	r1, #0
 2389 0034 8BA8     		add	r0, sp, #556
 2390 0036 FFF7FEFF 		bl	memset
 2391              	.LVL258:
 2392              		.loc 2 268 0
 2393 003a 6B46     		mov	r3, sp
 2394 003c FF22     		movs	r2, #255
ARM GAS  C:\Users\mathi\AppData\Local\Temp\cces8mGY.s 			page 43


 2395 003e 8BA9     		add	r1, sp, #556
 2396 0040 01A8     		add	r0, sp, #4
 2397 0042 FFF7FEFF 		bl	f_read
 2398              	.LVL259:
 2399              		.loc 2 269 0
 2400 0046 0446     		mov	r4, r0
 2401 0048 0028     		cmp	r0, #0
 2402 004a E9D0     		beq	.L266
 2403              		.loc 2 270 0
 2404 004c 1549     		ldr	r1, .L274+8
 2405 004e 2846     		mov	r0, r5
 2406              	.LVL260:
 2407 0050 FFF7FEFF 		bl	chprintf
 2408              	.LVL261:
 2409              		.loc 2 271 0
 2410 0054 2846     		mov	r0, r5
 2411 0056 2146     		mov	r1, r4
 2412 0058 FFF7FEFF 		bl	fverbose_error
 2413              	.LVL262:
 2414              		.loc 2 272 0
 2415 005c 01A8     		add	r0, sp, #4
 2416 005e FFF7FEFF 		bl	f_close
 2417              	.LVL263:
 2418              	.L263:
 2419              		.loc 2 283 0
 2420 0062 CB9A     		ldr	r2, [sp, #812]
 2421 0064 3B68     		ldr	r3, [r7]
 2422 0066 9A42     		cmp	r2, r3
 2423 0068 15D1     		bne	.L273
 2424 006a 0DF54D7D 		add	sp, sp, #820
 2425              		.cfi_remember_state
 2426              		.cfi_def_cfa_offset 20
 2427              		@ sp needed
 2428 006e F0BD     		pop	{r4, r5, r6, r7, pc}
 2429              	.LVL264:
 2430              	.L272:
 2431              		.cfi_restore_state
 2432              		.loc 2 277 0
 2433 0070 2846     		mov	r0, r5
 2434 0072 0D49     		ldr	r1, .L274+12
 2435 0074 FFF7FEFF 		bl	chprintf
 2436              	.LVL265:
 2437              		.loc 2 281 0
 2438 0078 01A8     		add	r0, sp, #4
 2439 007a FFF7FEFF 		bl	f_close
 2440              	.LVL266:
 2441 007e F0E7     		b	.L263
 2442              	.LVL267:
 2443              	.L270:
 2444 0080 0446     		mov	r4, r0
 2445              		.loc 2 252 0
 2446 0082 3268     		ldr	r2, [r6]
 2447 0084 0949     		ldr	r1, .L274+16
 2448 0086 2846     		mov	r0, r5
 2449              	.LVL268:
 2450 0088 FFF7FEFF 		bl	chprintf
 2451              	.LVL269:
ARM GAS  C:\Users\mathi\AppData\Local\Temp\cces8mGY.s 			page 44


 2452              		.loc 2 253 0
 2453 008c 2146     		mov	r1, r4
 2454 008e 2846     		mov	r0, r5
 2455 0090 FFF7FEFF 		bl	fverbose_error
 2456              	.LVL270:
 2457 0094 E5E7     		b	.L263
 2458              	.LVL271:
 2459              	.L273:
 2460              		.loc 2 283 0
 2461 0096 FFF7FEFF 		bl	__stack_chk_fail
 2462              	.LVL272:
 2463              	.L275:
 2464 009a 00BF     		.align	2
 2465              	.L274:
 2466 009c 00000000 		.word	__stack_chk_guard
 2467 00a0 34000000 		.word	.LC53
 2468 00a4 1C000000 		.word	.LC52
 2469 00a8 38000000 		.word	.LC54
 2470 00ac 00000000 		.word	.LC51
 2471              		.cfi_endproc
 2472              	.LFE314:
 2473              		.size	cmd_cat.part.3, .-cmd_cat.part.3
 2474              		.section	.text.cmd_cat,"ax",%progbits
 2475              		.align	1
 2476              		.p2align 4,,15
 2477              		.global	cmd_cat
 2478              		.syntax unified
 2479              		.thumb
 2480              		.thumb_func
 2481              		.fpu fpv4-sp-d16
 2482              		.type	cmd_cat, %function
 2483              	cmd_cat:
 2484              	.LFB269:
 2485              		.loc 2 233 0
 2486              		.cfi_startproc
 2487              		@ args = 0, pretend = 0, frame = 8
 2488              		@ frame_needed = 0, uses_anonymous_args = 0
 2489              	.LVL273:
 2490 0000 30B5     		push	{r4, r5, lr}
 2491              		.cfi_def_cfa_offset 12
 2492              		.cfi_offset 4, -12
 2493              		.cfi_offset 5, -8
 2494              		.cfi_offset 14, -4
 2495 0002 104C     		ldr	r4, .L283
 2496 0004 83B0     		sub	sp, sp, #12
 2497              		.cfi_def_cfa_offset 24
 2498              		.loc 2 233 0
 2499 0006 2368     		ldr	r3, [r4]
 2500 0008 0193     		str	r3, [sp, #4]
 2501              	.LVL274:
 2502              		.loc 2 242 0
 2503 000a 0129     		cmp	r1, #1
 2504 000c 0ED0     		beq	.L277
 2505              		.loc 2 243 0
 2506 000e 0E49     		ldr	r1, .L283+4
 2507              	.LVL275:
 2508 0010 0546     		mov	r5, r0
ARM GAS  C:\Users\mathi\AppData\Local\Temp\cces8mGY.s 			page 45


 2509 0012 FFF7FEFF 		bl	chprintf
 2510              	.LVL276:
 2511              		.loc 2 244 0
 2512 0016 019A     		ldr	r2, [sp, #4]
 2513 0018 2368     		ldr	r3, [r4]
 2514 001a 9A42     		cmp	r2, r3
 2515 001c 10D1     		bne	.L282
 2516 001e 0B49     		ldr	r1, .L283+8
 2517 0020 2846     		mov	r0, r5
 2518              		.loc 2 283 0
 2519 0022 03B0     		add	sp, sp, #12
 2520              		.cfi_remember_state
 2521              		.cfi_def_cfa_offset 12
 2522              		@ sp needed
 2523 0024 BDE83040 		pop	{r4, r5, lr}
 2524              		.cfi_restore 14
 2525              		.cfi_restore 5
 2526              		.cfi_restore 4
 2527              		.cfi_def_cfa_offset 0
 2528              	.LVL277:
 2529              		.loc 2 244 0
 2530 0028 FFF7FEBF 		b	chprintf
 2531              	.LVL278:
 2532              	.L277:
 2533              		.cfi_restore_state
 2534 002c 0199     		ldr	r1, [sp, #4]
 2535              	.LVL279:
 2536 002e 2368     		ldr	r3, [r4]
 2537 0030 9942     		cmp	r1, r3
 2538 0032 05D1     		bne	.L282
 2539 0034 1146     		mov	r1, r2
 2540              		.loc 2 283 0
 2541 0036 03B0     		add	sp, sp, #12
 2542              		.cfi_remember_state
 2543              		.cfi_def_cfa_offset 12
 2544              		@ sp needed
 2545 0038 BDE83040 		pop	{r4, r5, lr}
 2546              		.cfi_restore 14
 2547              		.cfi_restore 5
 2548              		.cfi_restore 4
 2549              		.cfi_def_cfa_offset 0
 2550 003c FFF7FEBF 		b	cmd_cat.part.3
 2551              	.LVL280:
 2552              	.L282:
 2553              		.cfi_restore_state
 2554 0040 FFF7FEFF 		bl	__stack_chk_fail
 2555              	.LVL281:
 2556              	.L284:
 2557              		.align	2
 2558              	.L283:
 2559 0044 00000000 		.word	__stack_chk_guard
 2560 0048 00000000 		.word	.LC55
 2561 004c 18000000 		.word	.LC56
 2562              		.cfi_endproc
 2563              	.LFE269:
 2564              		.size	cmd_cat, .-cmd_cat
 2565              		.section	.text.cmd_cam_set_conf1,"ax",%progbits
ARM GAS  C:\Users\mathi\AppData\Local\Temp\cces8mGY.s 			page 46


 2566              		.align	1
 2567              		.p2align 4,,15
 2568              		.syntax unified
 2569              		.thumb
 2570              		.thumb_func
 2571              		.fpu fpv4-sp-d16
 2572              		.type	cmd_cam_set_conf1, %function
 2573              	cmd_cam_set_conf1:
 2574              	.LFB290:
 2575              		.loc 2 698 0
 2576              		.cfi_startproc
 2577              		@ args = 0, pretend = 0, frame = 8
 2578              		@ frame_needed = 0, uses_anonymous_args = 0
 2579              	.LVL282:
 2580 0000 2DE9F041 		push	{r4, r5, r6, r7, r8, lr}
 2581              		.cfi_def_cfa_offset 24
 2582              		.cfi_offset 4, -24
 2583              		.cfi_offset 5, -20
 2584              		.cfi_offset 6, -16
 2585              		.cfi_offset 7, -12
 2586              		.cfi_offset 8, -8
 2587              		.cfi_offset 14, -4
 2588 0004 2F4C     		ldr	r4, .L305
 2589 0006 82B0     		sub	sp, sp, #8
 2590              		.cfi_def_cfa_offset 32
 2591              		.loc 2 698 0
 2592 0008 2368     		ldr	r3, [r4]
 2593 000a 0193     		str	r3, [sp, #4]
 2594              		.loc 2 702 0
 2595 000c 0329     		cmp	r1, #3
 2596 000e 09D0     		beq	.L286
 2597              		.loc 2 703 0
 2598 0010 019A     		ldr	r2, [sp, #4]
 2599              	.LVL283:
 2600 0012 2368     		ldr	r3, [r4]
 2601 0014 9A42     		cmp	r2, r3
 2602 0016 53D1     		bne	.L301
 2603 0018 2B49     		ldr	r1, .L305+4
 2604              	.LVL284:
 2605              	.L300:
 2606              		.loc 2 739 0
 2607 001a 02B0     		add	sp, sp, #8
 2608              		.cfi_remember_state
 2609              		.cfi_def_cfa_offset 24
 2610              		@ sp needed
 2611 001c BDE8F041 		pop	{r4, r5, r6, r7, r8, lr}
 2612              		.cfi_restore 14
 2613              		.cfi_restore 8
 2614              		.cfi_restore 7
 2615              		.cfi_restore 6
 2616              		.cfi_restore 5
 2617              		.cfi_restore 4
 2618              		.cfi_def_cfa_offset 0
 2619              	.LBB181:
 2620              	.LBB182:
 2621              		.loc 2 736 0
 2622 0020 FFF7FEBF 		b	chprintf
ARM GAS  C:\Users\mathi\AppData\Local\Temp\cces8mGY.s 			page 47


 2623              	.LVL285:
 2624              	.L286:
 2625              		.cfi_restore_state
 2626 0024 0546     		mov	r5, r0
 2627              	.LVL286:
 2628              		.loc 2 706 0
 2629 0026 1068     		ldr	r0, [r2]
 2630              	.LVL287:
 2631 0028 1646     		mov	r6, r2
 2632 002a FFF7FEFF 		bl	atoi
 2633              	.LVL288:
 2634 002e 8046     		mov	r8, r0
 2635              	.LVL289:
 2636              		.loc 2 707 0
 2637 0030 7068     		ldr	r0, [r6, #4]
 2638 0032 FFF7FEFF 		bl	atoi
 2639              	.LVL290:
 2640 0036 C7B2     		uxtb	r7, r0
 2641              	.LVL291:
 2642              		.loc 2 708 0
 2643 0038 B068     		ldr	r0, [r6, #8]
 2644 003a FFF7FEFF 		bl	atoi
 2645              	.LVL292:
 2646              		.loc 2 710 0
 2647 003e 18F0FF0F 		tst	r8, #255
 2648              		.loc 2 711 0
 2649 0042 224B     		ldr	r3, .L305+8
 2650              		.loc 2 712 0
 2651 0044 0BBF     		itete	eq
 2652 0046 2249     		ldreq	r1, .L305+12
 2653              		.loc 2 715 0
 2654 0048 2249     		ldrne	r1, .L305+16
 2655              		.loc 2 711 0
 2656 004a 0222     		moveq	r2, #2
 2657              		.loc 2 714 0
 2658 004c 4422     		movne	r2, #68
 2659              		.loc 2 708 0
 2660 004e C6B2     		uxtb	r6, r0
 2661              	.LVL293:
 2662              		.loc 2 715 0
 2663 0050 2846     		mov	r0, r5
 2664              		.loc 2 714 0
 2665 0052 1A70     		strb	r2, [r3]
 2666              		.loc 2 715 0
 2667 0054 FFF7FEFF 		bl	chprintf
 2668              	.LVL294:
 2669              		.loc 2 718 0
 2670 0058 012F     		cmp	r7, #1
 2671              		.loc 2 719 0
 2672 005a 1F4B     		ldr	r3, .L305+20
 2673              		.loc 2 718 0
 2674 005c 22D0     		beq	.L302
 2675              		.loc 2 721 0
 2676 005e 022F     		cmp	r7, #2
 2677              		.loc 2 722 0
 2678 0060 0BBF     		itete	eq
 2679 0062 4022     		moveq	r2, #64
ARM GAS  C:\Users\mathi\AppData\Local\Temp\cces8mGY.s 			page 48


 2680              		.loc 2 725 0
 2681 0064 8022     		movne	r2, #128
 2682              		.loc 2 723 0
 2683 0066 1D49     		ldreq	r1, .L305+24
 2684              		.loc 2 726 0
 2685 0068 1D49     		ldrne	r1, .L305+28
 2686              		.loc 2 725 0
 2687 006a 1A70     		strb	r2, [r3]
 2688              		.loc 2 726 0
 2689 006c 2846     		mov	r0, r5
 2690 006e FFF7FEFF 		bl	chprintf
 2691              	.LVL295:
 2692              	.L291:
 2693              		.loc 2 728 0
 2694 0072 012E     		cmp	r6, #1
 2695              		.loc 2 730 0
 2696 0074 019A     		ldr	r2, [sp, #4]
 2697              		.loc 2 729 0
 2698 0076 1B49     		ldr	r1, .L305+32
 2699              		.loc 2 730 0
 2700 0078 2368     		ldr	r3, [r4]
 2701              		.loc 2 728 0
 2702 007a 1AD0     		beq	.L303
 2703              		.loc 2 731 0
 2704 007c 022E     		cmp	r6, #2
 2705 007e 0AD0     		beq	.L304
 2706              		.loc 2 735 0
 2707 0080 8020     		movs	r0, #128
 2708              		.loc 2 736 0
 2709 0082 9A42     		cmp	r2, r3
 2710              		.loc 2 735 0
 2711 0084 0870     		strb	r0, [r1]
 2712              		.loc 2 736 0
 2713 0086 1BD1     		bne	.L301
 2714 0088 1749     		ldr	r1, .L305+36
 2715 008a 2846     		mov	r0, r5
 2716              	.LBE182:
 2717              	.LBE181:
 2718              		.loc 2 739 0
 2719 008c 02B0     		add	sp, sp, #8
 2720              		.cfi_remember_state
 2721              		.cfi_def_cfa_offset 24
 2722              		@ sp needed
 2723 008e BDE8F041 		pop	{r4, r5, r6, r7, r8, lr}
 2724              		.cfi_restore 14
 2725              		.cfi_restore 8
 2726              		.cfi_restore 7
 2727              		.cfi_restore 6
 2728              		.cfi_restore 5
 2729              		.cfi_restore 4
 2730              		.cfi_def_cfa_offset 0
 2731              	.LVL296:
 2732              	.LBB184:
 2733              	.LBB183:
 2734              		.loc 2 736 0
 2735 0092 FFF7FEBF 		b	chprintf
 2736              	.LVL297:
ARM GAS  C:\Users\mathi\AppData\Local\Temp\cces8mGY.s 			page 49


 2737              	.L304:
 2738              		.cfi_restore_state
 2739              		.loc 2 732 0
 2740 0096 4020     		movs	r0, #64
 2741              		.loc 2 733 0
 2742 0098 9A42     		cmp	r2, r3
 2743              		.loc 2 732 0
 2744 009a 0870     		strb	r0, [r1]
 2745              		.loc 2 733 0
 2746 009c 10D1     		bne	.L301
 2747 009e 2846     		mov	r0, r5
 2748 00a0 1249     		ldr	r1, .L305+40
 2749 00a2 BAE7     		b	.L300
 2750              	.L302:
 2751              		.loc 2 719 0
 2752 00a4 2022     		movs	r2, #32
 2753              		.loc 2 720 0
 2754 00a6 1249     		ldr	r1, .L305+44
 2755              		.loc 2 719 0
 2756 00a8 1A70     		strb	r2, [r3]
 2757              		.loc 2 720 0
 2758 00aa 2846     		mov	r0, r5
 2759 00ac FFF7FEFF 		bl	chprintf
 2760              	.LVL298:
 2761 00b0 DFE7     		b	.L291
 2762              	.L303:
 2763              		.loc 2 729 0
 2764 00b2 2020     		movs	r0, #32
 2765              		.loc 2 730 0
 2766 00b4 9A42     		cmp	r2, r3
 2767              		.loc 2 729 0
 2768 00b6 0870     		strb	r0, [r1]
 2769              		.loc 2 730 0
 2770 00b8 02D1     		bne	.L301
 2771 00ba 2846     		mov	r0, r5
 2772 00bc 0D49     		ldr	r1, .L305+48
 2773 00be ACE7     		b	.L300
 2774              	.LVL299:
 2775              	.L301:
 2776              		.loc 2 736 0
 2777 00c0 FFF7FEFF 		bl	__stack_chk_fail
 2778              	.LVL300:
 2779              	.L306:
 2780              		.align	2
 2781              	.L305:
 2782 00c4 00000000 		.word	__stack_chk_guard
 2783 00c8 00000000 		.word	.LC57
 2784 00cc 00000000 		.word	.LANCHOR2
 2785 00d0 68000000 		.word	.LC58
 2786 00d4 84000000 		.word	.LC59
 2787 00d8 00000000 		.word	.LANCHOR3
 2788 00dc C4000000 		.word	.LC61
 2789 00e0 E4000000 		.word	.LC62
 2790 00e4 00000000 		.word	.LANCHOR4
 2791 00e8 44010000 		.word	.LC65
 2792 00ec 24010000 		.word	.LC64
 2793 00f0 A4000000 		.word	.LC60
ARM GAS  C:\Users\mathi\AppData\Local\Temp\cces8mGY.s 			page 50


 2794 00f4 04010000 		.word	.LC63
 2795              	.LBE183:
 2796              	.LBE184:
 2797              		.cfi_endproc
 2798              	.LFE290:
 2799              		.size	cmd_cam_set_conf1, .-cmd_cam_set_conf1
 2800              		.section	.text.cmd_volume,"ax",%progbits
 2801              		.align	1
 2802              		.p2align 4,,15
 2803              		.syntax unified
 2804              		.thumb
 2805              		.thumb_func
 2806              		.fpu fpv4-sp-d16
 2807              		.type	cmd_volume, %function
 2808              	cmd_volume:
 2809              	.LFB306:
 2810              		.loc 2 1005 0
 2811              		.cfi_startproc
 2812              		@ args = 0, pretend = 0, frame = 8
 2813              		@ frame_needed = 0, uses_anonymous_args = 0
 2814              	.LVL301:
 2815 0000 30B5     		push	{r4, r5, lr}
 2816              		.cfi_def_cfa_offset 12
 2817              		.cfi_offset 4, -12
 2818              		.cfi_offset 5, -8
 2819              		.cfi_offset 14, -4
 2820 0002 124C     		ldr	r4, .L314
 2821 0004 83B0     		sub	sp, sp, #12
 2822              		.cfi_def_cfa_offset 24
 2823              		.loc 2 1005 0
 2824 0006 2368     		ldr	r3, [r4]
 2825 0008 0193     		str	r3, [sp, #4]
 2826              		.loc 2 1007 0
 2827 000a 0129     		cmp	r1, #1
 2828 000c 09D0     		beq	.L308
 2829              		.loc 2 1008 0
 2830 000e 019A     		ldr	r2, [sp, #4]
 2831              	.LVL302:
 2832 0010 2368     		ldr	r3, [r4]
 2833 0012 9A42     		cmp	r2, r3
 2834 0014 18D1     		bne	.L313
 2835 0016 0E49     		ldr	r1, .L314+4
 2836              	.LVL303:
 2837              		.loc 2 1013 0
 2838 0018 03B0     		add	sp, sp, #12
 2839              		.cfi_remember_state
 2840              		.cfi_def_cfa_offset 12
 2841              		@ sp needed
 2842 001a BDE83040 		pop	{r4, r5, lr}
 2843              		.cfi_restore 14
 2844              		.cfi_restore 5
 2845              		.cfi_restore 4
 2846              		.cfi_def_cfa_offset 0
 2847              		.loc 2 1008 0
 2848 001e FFF7FEBF 		b	chprintf
 2849              	.LVL304:
 2850              	.L308:
ARM GAS  C:\Users\mathi\AppData\Local\Temp\cces8mGY.s 			page 51


 2851              		.cfi_restore_state
 2852 0022 0546     		mov	r5, r0
 2853              	.LVL305:
 2854              	.LBB187:
 2855              	.LBB188:
 2856              		.loc 2 1010 0
 2857 0024 1068     		ldr	r0, [r2]
 2858              	.LVL306:
 2859 0026 FFF7FEFF 		bl	atoi
 2860              	.LVL307:
 2861              		.loc 2 1011 0
 2862 002a C0B2     		uxtb	r0, r0
 2863 002c FFF7FEFF 		bl	mic_get_volume
 2864              	.LVL308:
 2865 0030 0199     		ldr	r1, [sp, #4]
 2866 0032 2368     		ldr	r3, [r4]
 2867 0034 9942     		cmp	r1, r3
 2868 0036 0246     		mov	r2, r0
 2869 0038 06D1     		bne	.L313
 2870 003a 0649     		ldr	r1, .L314+8
 2871 003c 2846     		mov	r0, r5
 2872              	.LBE188:
 2873              	.LBE187:
 2874              		.loc 2 1013 0
 2875 003e 03B0     		add	sp, sp, #12
 2876              		.cfi_remember_state
 2877              		.cfi_def_cfa_offset 12
 2878              		@ sp needed
 2879 0040 BDE83040 		pop	{r4, r5, lr}
 2880              		.cfi_restore 14
 2881              		.cfi_restore 5
 2882              		.cfi_restore 4
 2883              		.cfi_def_cfa_offset 0
 2884              	.LVL309:
 2885              	.LBB190:
 2886              	.LBB189:
 2887              		.loc 2 1011 0
 2888 0044 FFF7FEBF 		b	chprintf
 2889              	.LVL310:
 2890              	.L313:
 2891              		.cfi_restore_state
 2892 0048 FFF7FEFF 		bl	__stack_chk_fail
 2893              	.LVL311:
 2894              	.L315:
 2895              		.align	2
 2896              	.L314:
 2897 004c 00000000 		.word	__stack_chk_guard
 2898 0050 00000000 		.word	.LC66
 2899 0054 28000000 		.word	.LC67
 2900              	.LBE189:
 2901              	.LBE190:
 2902              		.cfi_endproc
 2903              	.LFE306:
 2904              		.size	cmd_volume, .-cmd_volume
 2905              		.section	.text.cmd_audio_play,"ax",%progbits
 2906              		.align	1
 2907              		.p2align 4,,15
ARM GAS  C:\Users\mathi\AppData\Local\Temp\cces8mGY.s 			page 52


 2908              		.syntax unified
 2909              		.thumb
 2910              		.thumb_func
 2911              		.fpu fpv4-sp-d16
 2912              		.type	cmd_audio_play, %function
 2913              	cmd_audio_play:
 2914              	.LFB304:
 2915              		.loc 2 985 0
 2916              		.cfi_startproc
 2917              		@ args = 0, pretend = 0, frame = 8
 2918              		@ frame_needed = 0, uses_anonymous_args = 0
 2919              	.LVL312:
 2920 0000 10B5     		push	{r4, lr}
 2921              		.cfi_def_cfa_offset 8
 2922              		.cfi_offset 4, -8
 2923              		.cfi_offset 14, -4
 2924 0002 0F4C     		ldr	r4, .L323
 2925 0004 82B0     		sub	sp, sp, #8
 2926              		.cfi_def_cfa_offset 16
 2927              		.loc 2 985 0
 2928 0006 2368     		ldr	r3, [r4]
 2929 0008 0193     		str	r3, [sp, #4]
 2930              		.loc 2 987 0
 2931 000a 0129     		cmp	r1, #1
 2932 000c 09D0     		beq	.L317
 2933              		.loc 2 988 0
 2934 000e 019A     		ldr	r2, [sp, #4]
 2935              	.LVL313:
 2936 0010 2368     		ldr	r3, [r4]
 2937 0012 9A42     		cmp	r2, r3
 2938 0014 12D1     		bne	.L322
 2939 0016 0B49     		ldr	r1, .L323+4
 2940              	.LVL314:
 2941              		.loc 2 994 0
 2942 0018 02B0     		add	sp, sp, #8
 2943              		.cfi_remember_state
 2944              		.cfi_def_cfa_offset 8
 2945              		@ sp needed
 2946 001a BDE81040 		pop	{r4, lr}
 2947              		.cfi_restore 14
 2948              		.cfi_restore 4
 2949              		.cfi_def_cfa_offset 0
 2950              		.loc 2 988 0
 2951 001e FFF7FEBF 		b	chprintf
 2952              	.LVL315:
 2953              	.L317:
 2954              		.cfi_restore_state
 2955              	.LBB193:
 2956              	.LBB194:
 2957              		.loc 2 991 0
 2958 0022 1068     		ldr	r0, [r2]
 2959              	.LVL316:
 2960 0024 FFF7FEFF 		bl	atoi
 2961              	.LVL317:
 2962              		.loc 2 992 0
 2963 0028 019A     		ldr	r2, [sp, #4]
 2964 002a 2368     		ldr	r3, [r4]
ARM GAS  C:\Users\mathi\AppData\Local\Temp\cces8mGY.s 			page 53


 2965 002c 9A42     		cmp	r2, r3
 2966 002e 05D1     		bne	.L322
 2967 0030 80B2     		uxth	r0, r0
 2968              	.LBE194:
 2969              	.LBE193:
 2970              		.loc 2 994 0
 2971 0032 02B0     		add	sp, sp, #8
 2972              		.cfi_remember_state
 2973              		.cfi_def_cfa_offset 8
 2974              		@ sp needed
 2975 0034 BDE81040 		pop	{r4, lr}
 2976              		.cfi_restore 14
 2977              		.cfi_restore 4
 2978              		.cfi_def_cfa_offset 0
 2979              	.LBB196:
 2980              	.LBB195:
 2981              		.loc 2 992 0
 2982 0038 FFF7FEBF 		b	dac_play
 2983              	.LVL318:
 2984              	.L322:
 2985              		.cfi_restore_state
 2986 003c FFF7FEFF 		bl	__stack_chk_fail
 2987              	.LVL319:
 2988              	.L324:
 2989              		.align	2
 2990              	.L323:
 2991 0040 00000000 		.word	__stack_chk_guard
 2992 0044 00000000 		.word	.LC68
 2993              	.LBE195:
 2994              	.LBE196:
 2995              		.cfi_endproc
 2996              	.LFE304:
 2997              		.size	cmd_audio_play, .-cmd_audio_play
 2998              		.section	.text.cmd_set_speed,"ax",%progbits
 2999              		.align	1
 3000              		.p2align 4,,15
 3001              		.syntax unified
 3002              		.thumb
 3003              		.thumb_func
 3004              		.fpu fpv4-sp-d16
 3005              		.type	cmd_set_speed, %function
 3006              	cmd_set_speed:
 3007              	.LFB302:
 3008              		.loc 2 961 0
 3009              		.cfi_startproc
 3010              		@ args = 0, pretend = 0, frame = 8
 3011              		@ frame_needed = 0, uses_anonymous_args = 0
 3012              	.LVL320:
 3013 0000 F0B5     		push	{r4, r5, r6, r7, lr}
 3014              		.cfi_def_cfa_offset 20
 3015              		.cfi_offset 4, -20
 3016              		.cfi_offset 5, -16
 3017              		.cfi_offset 6, -12
 3018              		.cfi_offset 7, -8
 3019              		.cfi_offset 14, -4
 3020 0002 194C     		ldr	r4, .L332
 3021 0004 83B0     		sub	sp, sp, #12
ARM GAS  C:\Users\mathi\AppData\Local\Temp\cces8mGY.s 			page 54


 3022              		.cfi_def_cfa_offset 32
 3023              		.loc 2 961 0
 3024 0006 2368     		ldr	r3, [r4]
 3025 0008 0193     		str	r3, [sp, #4]
 3026              	.LVL321:
 3027              		.loc 2 965 0
 3028 000a 0229     		cmp	r1, #2
 3029 000c 0CD0     		beq	.L326
 3030              		.loc 2 966 0
 3031 000e 019A     		ldr	r2, [sp, #4]
 3032              	.LVL322:
 3033 0010 2368     		ldr	r3, [r4]
 3034 0012 9A42     		cmp	r2, r3
 3035 0014 26D1     		bne	.L331
 3036 0016 154A     		ldr	r2, .L332+4
 3037 0018 1549     		ldr	r1, .L332+8
 3038              	.LVL323:
 3039 001a 40F24C43 		movw	r3, #1100
 3040              		.loc 2 974 0
 3041 001e 03B0     		add	sp, sp, #12
 3042              		.cfi_remember_state
 3043              		.cfi_def_cfa_offset 20
 3044              		@ sp needed
 3045 0020 BDE8F040 		pop	{r4, r5, r6, r7, lr}
 3046              		.cfi_restore 14
 3047              		.cfi_restore 7
 3048              		.cfi_restore 6
 3049              		.cfi_restore 5
 3050              		.cfi_restore 4
 3051              		.cfi_def_cfa_offset 0
 3052              		.loc 2 966 0
 3053 0024 FFF7FEBF 		b	chprintf
 3054              	.LVL324:
 3055              	.L326:
 3056              		.cfi_restore_state
 3057 0028 0746     		mov	r7, r0
 3058              	.LVL325:
 3059              	.LBB199:
 3060              	.LBB200:
 3061              		.loc 2 968 0
 3062 002a 1068     		ldr	r0, [r2]
 3063              	.LVL326:
 3064 002c 1646     		mov	r6, r2
 3065 002e FFF7FEFF 		bl	atoi
 3066              	.LVL327:
 3067 0032 0546     		mov	r5, r0
 3068              	.LVL328:
 3069              		.loc 2 969 0
 3070 0034 7068     		ldr	r0, [r6, #4]
 3071 0036 FFF7FEFF 		bl	atoi
 3072              	.LVL329:
 3073              		.loc 2 970 0
 3074 003a 2DB2     		sxth	r5, r5
 3075 003c 06B2     		sxth	r6, r0
 3076              	.LVL330:
 3077 003e 3346     		mov	r3, r6
 3078 0040 2A46     		mov	r2, r5
ARM GAS  C:\Users\mathi\AppData\Local\Temp\cces8mGY.s 			page 55


 3079 0042 0C49     		ldr	r1, .L332+12
 3080 0044 3846     		mov	r0, r7
 3081              	.LVL331:
 3082 0046 FFF7FEFF 		bl	chprintf
 3083              	.LVL332:
 3084              		.loc 2 971 0
 3085 004a 3046     		mov	r0, r6
 3086 004c FFF7FEFF 		bl	right_motor_set_speed
 3087              	.LVL333:
 3088              		.loc 2 972 0
 3089 0050 019A     		ldr	r2, [sp, #4]
 3090 0052 2368     		ldr	r3, [r4]
 3091 0054 9A42     		cmp	r2, r3
 3092 0056 05D1     		bne	.L331
 3093 0058 2846     		mov	r0, r5
 3094              	.LBE200:
 3095              	.LBE199:
 3096              		.loc 2 974 0
 3097 005a 03B0     		add	sp, sp, #12
 3098              		.cfi_remember_state
 3099              		.cfi_def_cfa_offset 20
 3100              		@ sp needed
 3101 005c BDE8F040 		pop	{r4, r5, r6, r7, lr}
 3102              		.cfi_restore 14
 3103              		.cfi_restore 7
 3104              		.cfi_restore 6
 3105              		.cfi_restore 5
 3106              		.cfi_restore 4
 3107              		.cfi_def_cfa_offset 0
 3108              	.LVL334:
 3109              	.LBB202:
 3110              	.LBB201:
 3111              		.loc 2 972 0
 3112 0060 FFF7FEBF 		b	left_motor_set_speed
 3113              	.LVL335:
 3114              	.L331:
 3115              		.cfi_restore_state
 3116 0064 FFF7FEFF 		bl	__stack_chk_fail
 3117              	.LVL336:
 3118              	.L333:
 3119              		.align	2
 3120              	.L332:
 3121 0068 00000000 		.word	__stack_chk_guard
 3122 006c B4FBFFFF 		.word	-1100
 3123 0070 00000000 		.word	.LC69
 3124 0074 30000000 		.word	.LC70
 3125              	.LBE201:
 3126              	.LBE202:
 3127              		.cfi_endproc
 3128              	.LFE302:
 3129              		.size	cmd_set_speed, .-cmd_set_speed
 3130              		.section	.text.cmd_set_led,"ax",%progbits
 3131              		.align	1
 3132              		.p2align 4,,15
 3133              		.syntax unified
 3134              		.thumb
 3135              		.thumb_func
ARM GAS  C:\Users\mathi\AppData\Local\Temp\cces8mGY.s 			page 56


 3136              		.fpu fpv4-sp-d16
 3137              		.type	cmd_set_led, %function
 3138              	cmd_set_led:
 3139              	.LFB301:
 3140              		.loc 2 940 0
 3141              		.cfi_startproc
 3142              		@ args = 0, pretend = 0, frame = 8
 3143              		@ frame_needed = 0, uses_anonymous_args = 0
 3144              	.LVL337:
 3145 0000 70B5     		push	{r4, r5, r6, lr}
 3146              		.cfi_def_cfa_offset 16
 3147              		.cfi_offset 4, -16
 3148              		.cfi_offset 5, -12
 3149              		.cfi_offset 6, -8
 3150              		.cfi_offset 14, -4
 3151 0002 1F4C     		ldr	r4, .L350
 3152 0004 82B0     		sub	sp, sp, #8
 3153              		.cfi_def_cfa_offset 24
 3154              		.loc 2 940 0
 3155 0006 2368     		ldr	r3, [r4]
 3156 0008 0193     		str	r3, [sp, #4]
 3157              	.LVL338:
 3158              		.loc 2 944 0
 3159 000a 0229     		cmp	r1, #2
 3160 000c 09D0     		beq	.L335
 3161              		.loc 2 945 0
 3162 000e 019A     		ldr	r2, [sp, #4]
 3163              	.LVL339:
 3164 0010 2368     		ldr	r3, [r4]
 3165 0012 9A42     		cmp	r2, r3
 3166 0014 32D1     		bne	.L346
 3167 0016 1B49     		ldr	r1, .L350+4
 3168              	.LVL340:
 3169              		.loc 2 958 0
 3170 0018 02B0     		add	sp, sp, #8
 3171              		.cfi_remember_state
 3172              		.cfi_def_cfa_offset 16
 3173              		@ sp needed
 3174 001a BDE87040 		pop	{r4, r5, r6, lr}
 3175              		.cfi_restore 14
 3176              		.cfi_restore 6
 3177              		.cfi_restore 5
 3178              		.cfi_restore 4
 3179              		.cfi_def_cfa_offset 0
 3180              		.loc 2 945 0
 3181 001e FFF7FEBF 		b	chprintf
 3182              	.LVL341:
 3183              	.L335:
 3184              		.cfi_restore_state
 3185              	.LBB205:
 3186              	.LBB206:
 3187              		.loc 2 947 0
 3188 0022 1068     		ldr	r0, [r2]
 3189              	.LVL342:
 3190 0024 1546     		mov	r5, r2
 3191 0026 FFF7FEFF 		bl	atoi
 3192              	.LVL343:
ARM GAS  C:\Users\mathi\AppData\Local\Temp\cces8mGY.s 			page 57


 3193 002a C6B2     		uxtb	r6, r0
 3194              	.LVL344:
 3195              		.loc 2 948 0
 3196 002c 6868     		ldr	r0, [r5, #4]
 3197 002e FFF7FEFF 		bl	atoi
 3198              	.LVL345:
 3199              		.loc 2 950 0
 3200 0032 032E     		cmp	r6, #3
 3201              		.loc 2 951 0
 3202 0034 019A     		ldr	r2, [sp, #4]
 3203 0036 2368     		ldr	r3, [r4]
 3204              		.loc 2 950 0
 3205 0038 0FD9     		bls	.L347
 3206              		.loc 2 952 0
 3207 003a 042E     		cmp	r6, #4
 3208 003c 16D0     		beq	.L348
 3209              		.loc 2 954 0
 3210 003e 052E     		cmp	r6, #5
 3211 0040 03D0     		beq	.L349
 3212              	.LBE206:
 3213              	.LBE205:
 3214              		.loc 2 958 0
 3215 0042 9A42     		cmp	r2, r3
 3216 0044 1AD1     		bne	.L346
 3217 0046 02B0     		add	sp, sp, #8
 3218              		.cfi_remember_state
 3219              		.cfi_def_cfa_offset 16
 3220              		@ sp needed
 3221 0048 70BD     		pop	{r4, r5, r6, pc}
 3222              	.LVL346:
 3223              	.L349:
 3224              		.cfi_restore_state
 3225              	.LBB211:
 3226              	.LBB207:
 3227              		.loc 2 955 0
 3228 004a 9A42     		cmp	r2, r3
 3229 004c 16D1     		bne	.L346
 3230 004e C0B2     		uxtb	r0, r0
 3231              	.LBE207:
 3232              	.LBE211:
 3233              		.loc 2 958 0
 3234 0050 02B0     		add	sp, sp, #8
 3235              		.cfi_remember_state
 3236              		.cfi_def_cfa_offset 16
 3237              		@ sp needed
 3238 0052 BDE87040 		pop	{r4, r5, r6, lr}
 3239              		.cfi_restore 14
 3240              		.cfi_restore 6
 3241              		.cfi_restore 5
 3242              		.cfi_restore 4
 3243              		.cfi_def_cfa_offset 0
 3244              	.LVL347:
 3245              	.LBB212:
 3246              	.LBB208:
 3247              		.loc 2 955 0
 3248 0056 FFF7FEBF 		b	set_front_led
 3249              	.LVL348:
ARM GAS  C:\Users\mathi\AppData\Local\Temp\cces8mGY.s 			page 58


 3250              	.L347:
 3251              		.cfi_restore_state
 3252              		.loc 2 951 0
 3253 005a 9A42     		cmp	r2, r3
 3254 005c 0ED1     		bne	.L346
 3255 005e C1B2     		uxtb	r1, r0
 3256 0060 3046     		mov	r0, r6
 3257              	.LVL349:
 3258              	.LBE208:
 3259              	.LBE212:
 3260              		.loc 2 958 0
 3261 0062 02B0     		add	sp, sp, #8
 3262              		.cfi_remember_state
 3263              		.cfi_def_cfa_offset 16
 3264              		@ sp needed
 3265 0064 BDE87040 		pop	{r4, r5, r6, lr}
 3266              		.cfi_restore 14
 3267              		.cfi_restore 6
 3268              		.cfi_restore 5
 3269              		.cfi_restore 4
 3270              		.cfi_def_cfa_offset 0
 3271              	.LVL350:
 3272              	.LBB213:
 3273              	.LBB209:
 3274              		.loc 2 951 0
 3275 0068 FFF7FEBF 		b	set_led
 3276              	.LVL351:
 3277              	.L348:
 3278              		.cfi_restore_state
 3279              		.loc 2 953 0
 3280 006c 9A42     		cmp	r2, r3
 3281 006e 05D1     		bne	.L346
 3282 0070 C0B2     		uxtb	r0, r0
 3283              	.LBE209:
 3284              	.LBE213:
 3285              		.loc 2 958 0
 3286 0072 02B0     		add	sp, sp, #8
 3287              		.cfi_remember_state
 3288              		.cfi_def_cfa_offset 16
 3289              		@ sp needed
 3290 0074 BDE87040 		pop	{r4, r5, r6, lr}
 3291              		.cfi_restore 14
 3292              		.cfi_restore 6
 3293              		.cfi_restore 5
 3294              		.cfi_restore 4
 3295              		.cfi_def_cfa_offset 0
 3296              	.LVL352:
 3297              	.LBB214:
 3298              	.LBB210:
 3299              		.loc 2 953 0
 3300 0078 FFF7FEBF 		b	set_body_led
 3301              	.LVL353:
 3302              	.L346:
 3303              		.cfi_restore_state
 3304              	.LBE210:
 3305              	.LBE214:
 3306              		.loc 2 958 0
ARM GAS  C:\Users\mathi\AppData\Local\Temp\cces8mGY.s 			page 59


 3307 007c FFF7FEFF 		bl	__stack_chk_fail
 3308              	.LVL354:
 3309              	.L351:
 3310              		.align	2
 3311              	.L350:
 3312 0080 00000000 		.word	__stack_chk_guard
 3313 0084 00000000 		.word	.LC71
 3314              		.cfi_endproc
 3315              	.LFE301:
 3316              		.size	cmd_set_led, .-cmd_set_led
 3317              		.section	.text.cmd_cam_send,"ax",%progbits
 3318              		.align	1
 3319              		.p2align 4,,15
 3320              		.syntax unified
 3321              		.thumb
 3322              		.thumb_func
 3323              		.fpu fpv4-sp-d16
 3324              		.type	cmd_cam_send, %function
 3325              	cmd_cam_send:
 3326              	.LFB300:
 3327              		.loc 2 914 0
 3328              		.cfi_startproc
 3329              		@ args = 0, pretend = 0, frame = 8
 3330              		@ frame_needed = 0, uses_anonymous_args = 0
 3331              	.LVL355:
 3332 0000 F0B5     		push	{r4, r5, r6, r7, lr}
 3333              		.cfi_def_cfa_offset 20
 3334              		.cfi_offset 4, -20
 3335              		.cfi_offset 5, -16
 3336              		.cfi_offset 6, -12
 3337              		.cfi_offset 7, -8
 3338              		.cfi_offset 14, -4
 3339 0002 284C     		ldr	r4, .L365
 3340 0004 83B0     		sub	sp, sp, #12
 3341              		.cfi_def_cfa_offset 32
 3342              		.loc 2 914 0
 3343 0006 2368     		ldr	r3, [r4]
 3344 0008 0193     		str	r3, [sp, #4]
 3345 000a 0546     		mov	r5, r0
 3346              		.loc 2 919 0
 3347 000c FFF7FEFF 		bl	dcmi_capture_stop
 3348              	.LVL356:
 3349 0010 0028     		cmp	r0, #0
 3350 0012 39D1     		bne	.L363
 3351              		.loc 2 922 0
 3352 0014 FFF7FEFF 		bl	dcmi_double_buffering_enabled
 3353              	.LVL357:
 3354 0018 D8B9     		cbnz	r0, .L364
 3355              		.loc 2 931 0
 3356 001a 2846     		mov	r0, r5
 3357 001c 2249     		ldr	r1, .L365+4
 3358              		.loc 2 934 0
 3359 001e 234D     		ldr	r5, .L365+8
 3360              	.LVL358:
 3361              		.loc 2 931 0
 3362 0020 FFF7FEFF 		bl	chprintf
 3363              	.LVL359:
ARM GAS  C:\Users\mathi\AppData\Local\Temp\cces8mGY.s 			page 60


 3364              		.loc 2 932 0
 3365 0024 41F28830 		movw	r0, #5000
 3366 0028 FFF7FEFF 		bl	chThdSleep
 3367              	.LVL360:
 3368              		.loc 2 933 0
 3369 002c FFF7FEFF 		bl	dcmi_get_first_buffer_ptr
 3370              	.LVL361:
 3371              	.L362:
 3372              		.loc 2 934 0
 3373 0030 2B68     		ldr	r3, [r5]
 3374              		.loc 2 933 0
 3375 0032 0746     		mov	r7, r0
 3376              	.LVL362:
 3377              		.loc 2 934 0
 3378 0034 1E68     		ldr	r6, [r3]
 3379 0036 FFF7FEFF 		bl	po8030_get_image_size
 3380              	.LVL363:
 3381 003a 0199     		ldr	r1, [sp, #4]
 3382 003c 2368     		ldr	r3, [r4]
 3383 003e 9942     		cmp	r1, r3
 3384 0040 0246     		mov	r2, r0
 3385 0042 2CD1     		bne	.L360
 3386 0044 3946     		mov	r1, r7
 3387 0046 2846     		mov	r0, r5
 3388 0048 3346     		mov	r3, r6
 3389              		.loc 2 937 0
 3390 004a 03B0     		add	sp, sp, #12
 3391              		.cfi_remember_state
 3392              		.cfi_def_cfa_offset 20
 3393              		@ sp needed
 3394 004c BDE8F040 		pop	{r4, r5, r6, r7, lr}
 3395              		.cfi_restore 14
 3396              		.cfi_restore 7
 3397              		.cfi_restore 6
 3398              		.cfi_restore 5
 3399              		.cfi_restore 4
 3400              		.cfi_def_cfa_offset 0
 3401              	.LVL364:
 3402              		.loc 2 934 0
 3403 0050 1847     		bx	r3
 3404              	.LVL365:
 3405              	.L364:
 3406              		.cfi_restore_state
 3407              	.LBB217:
 3408              	.LBB218:
 3409              		.loc 2 923 0
 3410 0052 1749     		ldr	r1, .L365+12
 3411 0054 2846     		mov	r0, r5
 3412 0056 FFF7FEFF 		bl	chprintf
 3413              	.LVL366:
 3414              		.loc 2 926 0
 3415 005a 144D     		ldr	r5, .L365+8
 3416              	.LVL367:
 3417              		.loc 2 924 0
 3418 005c 41F28830 		movw	r0, #5000
 3419 0060 FFF7FEFF 		bl	chThdSleep
 3420              	.LVL368:
ARM GAS  C:\Users\mathi\AppData\Local\Temp\cces8mGY.s 			page 61


 3421              		.loc 2 925 0
 3422 0064 FFF7FEFF 		bl	dcmi_get_first_buffer_ptr
 3423              	.LVL369:
 3424              		.loc 2 926 0
 3425 0068 2B68     		ldr	r3, [r5]
 3426              		.loc 2 925 0
 3427 006a 0746     		mov	r7, r0
 3428              	.LVL370:
 3429              		.loc 2 926 0
 3430 006c 1E68     		ldr	r6, [r3]
 3431 006e FFF7FEFF 		bl	po8030_get_image_size
 3432              	.LVL371:
 3433 0072 3946     		mov	r1, r7
 3434 0074 0246     		mov	r2, r0
 3435 0076 2846     		mov	r0, r5
 3436 0078 B047     		blx	r6
 3437              	.LVL372:
 3438              		.loc 2 927 0
 3439 007a 40F6B830 		movw	r0, #3000
 3440 007e FFF7FEFF 		bl	chThdSleep
 3441              	.LVL373:
 3442              		.loc 2 928 0
 3443 0082 FFF7FEFF 		bl	dcmi_get_second_buffer_ptr
 3444              	.LVL374:
 3445 0086 D3E7     		b	.L362
 3446              	.LVL375:
 3447              	.L363:
 3448              	.LBE218:
 3449              	.LBE217:
 3450              		.loc 2 920 0
 3451 0088 019A     		ldr	r2, [sp, #4]
 3452 008a 2368     		ldr	r3, [r4]
 3453 008c 9A42     		cmp	r2, r3
 3454 008e 06D1     		bne	.L360
 3455 0090 0849     		ldr	r1, .L365+16
 3456 0092 2846     		mov	r0, r5
 3457              		.loc 2 937 0
 3458 0094 03B0     		add	sp, sp, #12
 3459              		.cfi_remember_state
 3460              		.cfi_def_cfa_offset 20
 3461              		@ sp needed
 3462 0096 BDE8F040 		pop	{r4, r5, r6, r7, lr}
 3463              		.cfi_restore 14
 3464              		.cfi_restore 7
 3465              		.cfi_restore 6
 3466              		.cfi_restore 5
 3467              		.cfi_restore 4
 3468              		.cfi_def_cfa_offset 0
 3469              	.LVL376:
 3470              		.loc 2 920 0
 3471 009a FFF7FEBF 		b	chprintf
 3472              	.LVL377:
 3473              	.L360:
 3474              		.cfi_restore_state
 3475              		.loc 2 934 0
 3476 009e FFF7FEFF 		bl	__stack_chk_fail
 3477              	.LVL378:
ARM GAS  C:\Users\mathi\AppData\Local\Temp\cces8mGY.s 			page 62


 3478              	.L366:
 3479 00a2 00BF     		.align	2
 3480              	.L365:
 3481 00a4 00000000 		.word	__stack_chk_guard
 3482 00a8 4C000000 		.word	.LC74
 3483 00ac 00000000 		.word	SDU1
 3484 00b0 1C000000 		.word	.LC73
 3485 00b4 00000000 		.word	.LC72
 3486              		.cfi_endproc
 3487              	.LFE300:
 3488              		.size	cmd_cam_send, .-cmd_cam_send
 3489              		.section	.text.cmd_cam_dcmi_prepare,"ax",%progbits
 3490              		.align	1
 3491              		.p2align 4,,15
 3492              		.syntax unified
 3493              		.thumb
 3494              		.thumb_func
 3495              		.fpu fpv4-sp-d16
 3496              		.type	cmd_cam_dcmi_prepare, %function
 3497              	cmd_cam_dcmi_prepare:
 3498              	.LFB297:
 3499              		.loc 2 868 0
 3500              		.cfi_startproc
 3501              		@ args = 0, pretend = 0, frame = 8
 3502              		@ frame_needed = 0, uses_anonymous_args = 0
 3503              	.LVL379:
 3504 0000 70B5     		push	{r4, r5, r6, lr}
 3505              		.cfi_def_cfa_offset 16
 3506              		.cfi_offset 4, -16
 3507              		.cfi_offset 5, -12
 3508              		.cfi_offset 6, -8
 3509              		.cfi_offset 14, -4
 3510 0002 1E4C     		ldr	r4, .L381
 3511 0004 82B0     		sub	sp, sp, #8
 3512              		.cfi_def_cfa_offset 24
 3513              		.loc 2 868 0
 3514 0006 2368     		ldr	r3, [r4]
 3515 0008 0193     		str	r3, [sp, #4]
 3516              	.LVL380:
 3517              		.loc 2 871 0
 3518 000a 0129     		cmp	r1, #1
 3519 000c 09D0     		beq	.L368
 3520              		.loc 2 872 0
 3521 000e 019A     		ldr	r2, [sp, #4]
 3522              	.LVL381:
 3523 0010 2368     		ldr	r3, [r4]
 3524 0012 9A42     		cmp	r2, r3
 3525 0014 2FD1     		bne	.L378
 3526 0016 1A49     		ldr	r1, .L381+4
 3527              	.LVL382:
 3528              		.loc 2 892 0
 3529 0018 02B0     		add	sp, sp, #8
 3530              		.cfi_remember_state
 3531              		.cfi_def_cfa_offset 16
 3532              		@ sp needed
 3533 001a BDE87040 		pop	{r4, r5, r6, lr}
 3534              		.cfi_restore 14
ARM GAS  C:\Users\mathi\AppData\Local\Temp\cces8mGY.s 			page 63


 3535              		.cfi_restore 6
 3536              		.cfi_restore 5
 3537              		.cfi_restore 4
 3538              		.cfi_def_cfa_offset 0
 3539              	.LBB221:
 3540              	.LBB222:
 3541              		.loc 2 887 0
 3542 001e FFF7FEBF 		b	chprintf
 3543              	.LVL383:
 3544              	.L368:
 3545              		.cfi_restore_state
 3546 0022 0546     		mov	r5, r0
 3547              	.LVL384:
 3548              		.loc 2 874 0
 3549 0024 1068     		ldr	r0, [r2]
 3550              	.LVL385:
 3551 0026 FFF7FEFF 		bl	atoi
 3552              	.LVL386:
 3553 002a C6B2     		uxtb	r6, r0
 3554              	.LVL387:
 3555              		.loc 2 876 0
 3556 002c 3046     		mov	r0, r6
 3557 002e FFF7FEFF 		bl	dcmi_set_capture_mode
 3558              	.LVL388:
 3559              		.loc 2 878 0
 3560 0032 7EB1     		cbz	r6, .L379
 3561              		.loc 2 881 0
 3562 0034 FFF7FEFF 		bl	dcmi_enable_double_buffering
 3563              	.LVL389:
 3564              		.loc 2 884 0
 3565 0038 FFF7FEFF 		bl	dcmi_prepare
 3566              	.LVL390:
 3567              		.loc 2 885 0
 3568 003c 019A     		ldr	r2, [sp, #4]
 3569 003e 2368     		ldr	r3, [r4]
 3570              		.loc 2 884 0
 3571 0040 80B1     		cbz	r0, .L380
 3572              	.L372:
 3573              		.loc 2 887 0
 3574 0042 9A42     		cmp	r2, r3
 3575 0044 17D1     		bne	.L378
 3576 0046 0F49     		ldr	r1, .L381+8
 3577 0048 2846     		mov	r0, r5
 3578              	.LBE222:
 3579              	.LBE221:
 3580              		.loc 2 892 0
 3581 004a 02B0     		add	sp, sp, #8
 3582              		.cfi_remember_state
 3583              		.cfi_def_cfa_offset 16
 3584              		@ sp needed
 3585 004c BDE87040 		pop	{r4, r5, r6, lr}
 3586              		.cfi_restore 14
 3587              		.cfi_restore 6
 3588              		.cfi_restore 5
 3589              		.cfi_restore 4
 3590              		.cfi_def_cfa_offset 0
 3591              	.LVL391:
ARM GAS  C:\Users\mathi\AppData\Local\Temp\cces8mGY.s 			page 64


 3592              	.LBB225:
 3593              	.LBB223:
 3594              		.loc 2 887 0
 3595 0050 FFF7FEBF 		b	chprintf
 3596              	.LVL392:
 3597              	.L379:
 3598              		.cfi_restore_state
 3599              		.loc 2 879 0
 3600 0054 FFF7FEFF 		bl	dcmi_disable_double_buffering
 3601              	.LVL393:
 3602              		.loc 2 884 0
 3603 0058 FFF7FEFF 		bl	dcmi_prepare
 3604              	.LVL394:
 3605              		.loc 2 885 0
 3606 005c 019A     		ldr	r2, [sp, #4]
 3607 005e 2368     		ldr	r3, [r4]
 3608              		.loc 2 884 0
 3609 0060 0028     		cmp	r0, #0
 3610 0062 EED1     		bne	.L372
 3611              	.L380:
 3612              		.loc 2 885 0
 3613 0064 9A42     		cmp	r2, r3
 3614 0066 06D1     		bne	.L378
 3615 0068 0749     		ldr	r1, .L381+12
 3616 006a 2846     		mov	r0, r5
 3617              	.LBE223:
 3618              	.LBE225:
 3619              		.loc 2 892 0
 3620 006c 02B0     		add	sp, sp, #8
 3621              		.cfi_remember_state
 3622              		.cfi_def_cfa_offset 16
 3623              		@ sp needed
 3624 006e BDE87040 		pop	{r4, r5, r6, lr}
 3625              		.cfi_restore 14
 3626              		.cfi_restore 6
 3627              		.cfi_restore 5
 3628              		.cfi_restore 4
 3629              		.cfi_def_cfa_offset 0
 3630              	.LVL395:
 3631              	.LBB226:
 3632              	.LBB224:
 3633              		.loc 2 887 0
 3634 0072 FFF7FEBF 		b	chprintf
 3635              	.LVL396:
 3636              	.L378:
 3637              		.cfi_restore_state
 3638 0076 FFF7FEFF 		bl	__stack_chk_fail
 3639              	.LVL397:
 3640              	.L382:
 3641 007a 00BF     		.align	2
 3642              	.L381:
 3643 007c 00000000 		.word	__stack_chk_guard
 3644 0080 00000000 		.word	.LC75
 3645 0084 64000000 		.word	.LC77
 3646 0088 50000000 		.word	.LC76
 3647              	.LBE224:
 3648              	.LBE226:
ARM GAS  C:\Users\mathi\AppData\Local\Temp\cces8mGY.s 			page 65


 3649              		.cfi_endproc
 3650              	.LFE297:
 3651              		.size	cmd_cam_dcmi_prepare, .-cmd_cam_dcmi_prepare
 3652              		.section	.text.cmd_cam_set_exposure,"ax",%progbits
 3653              		.align	1
 3654              		.p2align 4,,15
 3655              		.syntax unified
 3656              		.thumb
 3657              		.thumb_func
 3658              		.fpu fpv4-sp-d16
 3659              		.type	cmd_cam_set_exposure, %function
 3660              	cmd_cam_set_exposure:
 3661              	.LFB296:
 3662              		.loc 2 846 0
 3663              		.cfi_startproc
 3664              		@ args = 0, pretend = 0, frame = 8
 3665              		@ frame_needed = 0, uses_anonymous_args = 0
 3666              	.LVL398:
 3667 0000 F0B5     		push	{r4, r5, r6, r7, lr}
 3668              		.cfi_def_cfa_offset 20
 3669              		.cfi_offset 4, -20
 3670              		.cfi_offset 5, -16
 3671              		.cfi_offset 6, -12
 3672              		.cfi_offset 7, -8
 3673              		.cfi_offset 14, -4
 3674 0002 1A4C     		ldr	r4, .L394
 3675 0004 83B0     		sub	sp, sp, #12
 3676              		.cfi_def_cfa_offset 32
 3677              		.loc 2 846 0
 3678 0006 2368     		ldr	r3, [r4]
 3679 0008 0193     		str	r3, [sp, #4]
 3680              		.loc 2 851 0
 3681 000a 0229     		cmp	r1, #2
 3682 000c 09D0     		beq	.L384
 3683              		.loc 2 852 0
 3684 000e 019A     		ldr	r2, [sp, #4]
 3685              	.LVL399:
 3686 0010 2368     		ldr	r3, [r4]
 3687 0012 9A42     		cmp	r2, r3
 3688 0014 28D1     		bne	.L392
 3689 0016 1649     		ldr	r1, .L394+4
 3690              	.LVL400:
 3691              		.loc 2 865 0
 3692 0018 03B0     		add	sp, sp, #12
 3693              		.cfi_remember_state
 3694              		.cfi_def_cfa_offset 20
 3695              		@ sp needed
 3696 001a BDE8F040 		pop	{r4, r5, r6, r7, lr}
 3697              		.cfi_restore 14
 3698              		.cfi_restore 7
 3699              		.cfi_restore 6
 3700              		.cfi_restore 5
 3701              		.cfi_restore 4
 3702              		.cfi_def_cfa_offset 0
 3703              	.LBB229:
 3704              	.LBB230:
 3705              		.loc 2 862 0
ARM GAS  C:\Users\mathi\AppData\Local\Temp\cces8mGY.s 			page 66


 3706 001e FFF7FEBF 		b	chprintf
 3707              	.LVL401:
 3708              	.L384:
 3709              		.cfi_restore_state
 3710 0022 0646     		mov	r6, r0
 3711              	.LVL402:
 3712              		.loc 2 855 0
 3713 0024 1068     		ldr	r0, [r2]
 3714              	.LVL403:
 3715 0026 1546     		mov	r5, r2
 3716 0028 FFF7FEFF 		bl	atoi
 3717              	.LVL404:
 3718 002c 0746     		mov	r7, r0
 3719              	.LVL405:
 3720              		.loc 2 856 0
 3721 002e 6868     		ldr	r0, [r5, #4]
 3722 0030 FFF7FEFF 		bl	atoi
 3723              	.LVL406:
 3724              		.loc 2 858 0
 3725 0034 C1B2     		uxtb	r1, r0
 3726 0036 B8B2     		uxth	r0, r7
 3727              	.LVL407:
 3728 0038 FFF7FEFF 		bl	po8030_set_exposure
 3729              	.LVL408:
 3730              		.loc 2 860 0
 3731 003c 019A     		ldr	r2, [sp, #4]
 3732 003e 2368     		ldr	r3, [r4]
 3733              		.loc 2 859 0
 3734 0040 40B9     		cbnz	r0, .L393
 3735              		.loc 2 862 0
 3736 0042 9A42     		cmp	r2, r3
 3737 0044 10D1     		bne	.L392
 3738 0046 0B49     		ldr	r1, .L394+8
 3739 0048 3046     		mov	r0, r6
 3740              	.LVL409:
 3741              	.LBE230:
 3742              	.LBE229:
 3743              		.loc 2 865 0
 3744 004a 03B0     		add	sp, sp, #12
 3745              		.cfi_remember_state
 3746              		.cfi_def_cfa_offset 20
 3747              		@ sp needed
 3748 004c BDE8F040 		pop	{r4, r5, r6, r7, lr}
 3749              		.cfi_restore 14
 3750              		.cfi_restore 7
 3751              		.cfi_restore 6
 3752              		.cfi_restore 5
 3753              		.cfi_restore 4
 3754              		.cfi_def_cfa_offset 0
 3755              	.LVL410:
 3756              	.LBB233:
 3757              	.LBB231:
 3758              		.loc 2 862 0
 3759 0050 FFF7FEBF 		b	chprintf
 3760              	.LVL411:
 3761              	.L393:
 3762              		.cfi_restore_state
ARM GAS  C:\Users\mathi\AppData\Local\Temp\cces8mGY.s 			page 67


 3763              		.loc 2 860 0
 3764 0054 9A42     		cmp	r2, r3
 3765 0056 07D1     		bne	.L392
 3766 0058 0749     		ldr	r1, .L394+12
 3767 005a 0246     		mov	r2, r0
 3768 005c 3046     		mov	r0, r6
 3769              	.LVL412:
 3770              	.LBE231:
 3771              	.LBE233:
 3772              		.loc 2 865 0
 3773 005e 03B0     		add	sp, sp, #12
 3774              		.cfi_remember_state
 3775              		.cfi_def_cfa_offset 20
 3776              		@ sp needed
 3777 0060 BDE8F040 		pop	{r4, r5, r6, r7, lr}
 3778              		.cfi_restore 14
 3779              		.cfi_restore 7
 3780              		.cfi_restore 6
 3781              		.cfi_restore 5
 3782              		.cfi_restore 4
 3783              		.cfi_def_cfa_offset 0
 3784              	.LVL413:
 3785              	.LBB234:
 3786              	.LBB232:
 3787              		.loc 2 860 0
 3788 0064 FFF7FEBF 		b	chprintf
 3789              	.LVL414:
 3790              	.L392:
 3791              		.cfi_restore_state
 3792              		.loc 2 862 0
 3793 0068 FFF7FEFF 		bl	__stack_chk_fail
 3794              	.LVL415:
 3795              	.L395:
 3796              		.align	2
 3797              	.L394:
 3798 006c 00000000 		.word	__stack_chk_guard
 3799 0070 00000000 		.word	.LC78
 3800 0074 C4000000 		.word	.LC80
 3801 0078 A4000000 		.word	.LC79
 3802              	.LBE232:
 3803              	.LBE234:
 3804              		.cfi_endproc
 3805              	.LFE296:
 3806              		.size	cmd_cam_set_exposure, .-cmd_cam_set_exposure
 3807              		.section	.text.cmd_cam_set_ae,"ax",%progbits
 3808              		.align	1
 3809              		.p2align 4,,15
 3810              		.syntax unified
 3811              		.thumb
 3812              		.thumb_func
 3813              		.fpu fpv4-sp-d16
 3814              		.type	cmd_cam_set_ae, %function
 3815              	cmd_cam_set_ae:
 3816              	.LFB295:
 3817              		.loc 2 826 0
 3818              		.cfi_startproc
 3819              		@ args = 0, pretend = 0, frame = 8
ARM GAS  C:\Users\mathi\AppData\Local\Temp\cces8mGY.s 			page 68


 3820              		@ frame_needed = 0, uses_anonymous_args = 0
 3821              	.LVL416:
 3822 0000 30B5     		push	{r4, r5, lr}
 3823              		.cfi_def_cfa_offset 12
 3824              		.cfi_offset 4, -12
 3825              		.cfi_offset 5, -8
 3826              		.cfi_offset 14, -4
 3827 0002 174C     		ldr	r4, .L407
 3828 0004 83B0     		sub	sp, sp, #12
 3829              		.cfi_def_cfa_offset 24
 3830              		.loc 2 826 0
 3831 0006 2368     		ldr	r3, [r4]
 3832 0008 0193     		str	r3, [sp, #4]
 3833              		.loc 2 830 0
 3834 000a 0129     		cmp	r1, #1
 3835 000c 09D0     		beq	.L397
 3836              		.loc 2 831 0
 3837 000e 019A     		ldr	r2, [sp, #4]
 3838              	.LVL417:
 3839 0010 2368     		ldr	r3, [r4]
 3840 0012 9A42     		cmp	r2, r3
 3841 0014 22D1     		bne	.L405
 3842 0016 1349     		ldr	r1, .L407+4
 3843              	.LVL418:
 3844              		.loc 2 843 0
 3845 0018 03B0     		add	sp, sp, #12
 3846              		.cfi_remember_state
 3847              		.cfi_def_cfa_offset 12
 3848              		@ sp needed
 3849 001a BDE83040 		pop	{r4, r5, lr}
 3850              		.cfi_restore 14
 3851              		.cfi_restore 5
 3852              		.cfi_restore 4
 3853              		.cfi_def_cfa_offset 0
 3854              	.LBB237:
 3855              	.LBB238:
 3856              		.loc 2 840 0
 3857 001e FFF7FEBF 		b	chprintf
 3858              	.LVL419:
 3859              	.L397:
 3860              		.cfi_restore_state
 3861 0022 0546     		mov	r5, r0
 3862              	.LVL420:
 3863              		.loc 2 834 0
 3864 0024 1068     		ldr	r0, [r2]
 3865              	.LVL421:
 3866 0026 FFF7FEFF 		bl	atoi
 3867              	.LVL422:
 3868              		.loc 2 836 0
 3869 002a C0B2     		uxtb	r0, r0
 3870 002c FFF7FEFF 		bl	po8030_set_ae
 3871              	.LVL423:
 3872              		.loc 2 838 0
 3873 0030 019A     		ldr	r2, [sp, #4]
 3874 0032 2368     		ldr	r3, [r4]
 3875              		.loc 2 837 0
 3876 0034 40B9     		cbnz	r0, .L406
ARM GAS  C:\Users\mathi\AppData\Local\Temp\cces8mGY.s 			page 69


 3877              		.loc 2 840 0
 3878 0036 9A42     		cmp	r2, r3
 3879 0038 10D1     		bne	.L405
 3880 003a 0B49     		ldr	r1, .L407+8
 3881 003c 2846     		mov	r0, r5
 3882              	.LVL424:
 3883              	.LBE238:
 3884              	.LBE237:
 3885              		.loc 2 843 0
 3886 003e 03B0     		add	sp, sp, #12
 3887              		.cfi_remember_state
 3888              		.cfi_def_cfa_offset 12
 3889              		@ sp needed
 3890 0040 BDE83040 		pop	{r4, r5, lr}
 3891              		.cfi_restore 14
 3892              		.cfi_restore 5
 3893              		.cfi_restore 4
 3894              		.cfi_def_cfa_offset 0
 3895              	.LVL425:
 3896              	.LBB241:
 3897              	.LBB239:
 3898              		.loc 2 840 0
 3899 0044 FFF7FEBF 		b	chprintf
 3900              	.LVL426:
 3901              	.L406:
 3902              		.cfi_restore_state
 3903              		.loc 2 838 0
 3904 0048 9A42     		cmp	r2, r3
 3905 004a 07D1     		bne	.L405
 3906 004c 0749     		ldr	r1, .L407+12
 3907 004e 0246     		mov	r2, r0
 3908 0050 2846     		mov	r0, r5
 3909              	.LVL427:
 3910              	.LBE239:
 3911              	.LBE241:
 3912              		.loc 2 843 0
 3913 0052 03B0     		add	sp, sp, #12
 3914              		.cfi_remember_state
 3915              		.cfi_def_cfa_offset 12
 3916              		@ sp needed
 3917 0054 BDE83040 		pop	{r4, r5, lr}
 3918              		.cfi_restore 14
 3919              		.cfi_restore 5
 3920              		.cfi_restore 4
 3921              		.cfi_def_cfa_offset 0
 3922              	.LVL428:
 3923              	.LBB242:
 3924              	.LBB240:
 3925              		.loc 2 838 0
 3926 0058 FFF7FEBF 		b	chprintf
 3927              	.LVL429:
 3928              	.L405:
 3929              		.cfi_restore_state
 3930              		.loc 2 840 0
 3931 005c FFF7FEFF 		bl	__stack_chk_fail
 3932              	.LVL430:
 3933              	.L408:
ARM GAS  C:\Users\mathi\AppData\Local\Temp\cces8mGY.s 			page 70


 3934              		.align	2
 3935              	.L407:
 3936 0060 00000000 		.word	__stack_chk_guard
 3937 0064 00000000 		.word	.LC81
 3938 0068 50000000 		.word	.LC83
 3939 006c 30000000 		.word	.LC82
 3940              	.LBE240:
 3941              	.LBE242:
 3942              		.cfi_endproc
 3943              	.LFE295:
 3944              		.size	cmd_cam_set_ae, .-cmd_cam_set_ae
 3945              		.section	.text.cmd_cam_set_awb,"ax",%progbits
 3946              		.align	1
 3947              		.p2align 4,,15
 3948              		.syntax unified
 3949              		.thumb
 3950              		.thumb_func
 3951              		.fpu fpv4-sp-d16
 3952              		.type	cmd_cam_set_awb, %function
 3953              	cmd_cam_set_awb:
 3954              	.LFB294:
 3955              		.loc 2 806 0
 3956              		.cfi_startproc
 3957              		@ args = 0, pretend = 0, frame = 8
 3958              		@ frame_needed = 0, uses_anonymous_args = 0
 3959              	.LVL431:
 3960 0000 30B5     		push	{r4, r5, lr}
 3961              		.cfi_def_cfa_offset 12
 3962              		.cfi_offset 4, -12
 3963              		.cfi_offset 5, -8
 3964              		.cfi_offset 14, -4
 3965 0002 174C     		ldr	r4, .L420
 3966 0004 83B0     		sub	sp, sp, #12
 3967              		.cfi_def_cfa_offset 24
 3968              		.loc 2 806 0
 3969 0006 2368     		ldr	r3, [r4]
 3970 0008 0193     		str	r3, [sp, #4]
 3971              		.loc 2 810 0
 3972 000a 0129     		cmp	r1, #1
 3973 000c 09D0     		beq	.L410
 3974              		.loc 2 811 0
 3975 000e 019A     		ldr	r2, [sp, #4]
 3976              	.LVL432:
 3977 0010 2368     		ldr	r3, [r4]
 3978 0012 9A42     		cmp	r2, r3
 3979 0014 22D1     		bne	.L418
 3980 0016 1349     		ldr	r1, .L420+4
 3981              	.LVL433:
 3982              		.loc 2 823 0
 3983 0018 03B0     		add	sp, sp, #12
 3984              		.cfi_remember_state
 3985              		.cfi_def_cfa_offset 12
 3986              		@ sp needed
 3987 001a BDE83040 		pop	{r4, r5, lr}
 3988              		.cfi_restore 14
 3989              		.cfi_restore 5
 3990              		.cfi_restore 4
ARM GAS  C:\Users\mathi\AppData\Local\Temp\cces8mGY.s 			page 71


 3991              		.cfi_def_cfa_offset 0
 3992              	.LBB245:
 3993              	.LBB246:
 3994              		.loc 2 820 0
 3995 001e FFF7FEBF 		b	chprintf
 3996              	.LVL434:
 3997              	.L410:
 3998              		.cfi_restore_state
 3999 0022 0546     		mov	r5, r0
 4000              	.LVL435:
 4001              		.loc 2 814 0
 4002 0024 1068     		ldr	r0, [r2]
 4003              	.LVL436:
 4004 0026 FFF7FEFF 		bl	atoi
 4005              	.LVL437:
 4006              		.loc 2 816 0
 4007 002a C0B2     		uxtb	r0, r0
 4008 002c FFF7FEFF 		bl	po8030_set_awb
 4009              	.LVL438:
 4010              		.loc 2 818 0
 4011 0030 019A     		ldr	r2, [sp, #4]
 4012 0032 2368     		ldr	r3, [r4]
 4013              		.loc 2 817 0
 4014 0034 40B9     		cbnz	r0, .L419
 4015              		.loc 2 820 0
 4016 0036 9A42     		cmp	r2, r3
 4017 0038 10D1     		bne	.L418
 4018 003a 0B49     		ldr	r1, .L420+8
 4019 003c 2846     		mov	r0, r5
 4020              	.LVL439:
 4021              	.LBE246:
 4022              	.LBE245:
 4023              		.loc 2 823 0
 4024 003e 03B0     		add	sp, sp, #12
 4025              		.cfi_remember_state
 4026              		.cfi_def_cfa_offset 12
 4027              		@ sp needed
 4028 0040 BDE83040 		pop	{r4, r5, lr}
 4029              		.cfi_restore 14
 4030              		.cfi_restore 5
 4031              		.cfi_restore 4
 4032              		.cfi_def_cfa_offset 0
 4033              	.LVL440:
 4034              	.LBB249:
 4035              	.LBB247:
 4036              		.loc 2 820 0
 4037 0044 FFF7FEBF 		b	chprintf
 4038              	.LVL441:
 4039              	.L419:
 4040              		.cfi_restore_state
 4041              		.loc 2 818 0
 4042 0048 9A42     		cmp	r2, r3
 4043 004a 07D1     		bne	.L418
 4044 004c 0749     		ldr	r1, .L420+12
 4045 004e 0246     		mov	r2, r0
 4046 0050 2846     		mov	r0, r5
 4047              	.LVL442:
ARM GAS  C:\Users\mathi\AppData\Local\Temp\cces8mGY.s 			page 72


 4048              	.LBE247:
 4049              	.LBE249:
 4050              		.loc 2 823 0
 4051 0052 03B0     		add	sp, sp, #12
 4052              		.cfi_remember_state
 4053              		.cfi_def_cfa_offset 12
 4054              		@ sp needed
 4055 0054 BDE83040 		pop	{r4, r5, lr}
 4056              		.cfi_restore 14
 4057              		.cfi_restore 5
 4058              		.cfi_restore 4
 4059              		.cfi_def_cfa_offset 0
 4060              	.LVL443:
 4061              	.LBB250:
 4062              	.LBB248:
 4063              		.loc 2 818 0
 4064 0058 FFF7FEBF 		b	chprintf
 4065              	.LVL444:
 4066              	.L418:
 4067              		.cfi_restore_state
 4068              		.loc 2 820 0
 4069 005c FFF7FEFF 		bl	__stack_chk_fail
 4070              	.LVL445:
 4071              	.L421:
 4072              		.align	2
 4073              	.L420:
 4074 0060 00000000 		.word	__stack_chk_guard
 4075 0064 00000000 		.word	.LC84
 4076 0068 50000000 		.word	.LC86
 4077 006c 30000000 		.word	.LC85
 4078              	.LBE248:
 4079              	.LBE250:
 4080              		.cfi_endproc
 4081              	.LFE294:
 4082              		.size	cmd_cam_set_awb, .-cmd_cam_set_awb
 4083              		.section	.text.cmd_cam_set_gain,"ax",%progbits
 4084              		.align	1
 4085              		.p2align 4,,15
 4086              		.syntax unified
 4087              		.thumb
 4088              		.thumb_func
 4089              		.fpu fpv4-sp-d16
 4090              		.type	cmd_cam_set_gain, %function
 4091              	cmd_cam_set_gain:
 4092              	.LFB293:
 4093              		.loc 2 784 0
 4094              		.cfi_startproc
 4095              		@ args = 0, pretend = 0, frame = 8
 4096              		@ frame_needed = 0, uses_anonymous_args = 0
 4097              	.LVL446:
 4098 0000 2DE9F041 		push	{r4, r5, r6, r7, r8, lr}
 4099              		.cfi_def_cfa_offset 24
 4100              		.cfi_offset 4, -24
 4101              		.cfi_offset 5, -20
 4102              		.cfi_offset 6, -16
 4103              		.cfi_offset 7, -12
 4104              		.cfi_offset 8, -8
ARM GAS  C:\Users\mathi\AppData\Local\Temp\cces8mGY.s 			page 73


 4105              		.cfi_offset 14, -4
 4106 0004 1D4C     		ldr	r4, .L433
 4107 0006 82B0     		sub	sp, sp, #8
 4108              		.cfi_def_cfa_offset 32
 4109              		.loc 2 784 0
 4110 0008 2368     		ldr	r3, [r4]
 4111 000a 0193     		str	r3, [sp, #4]
 4112              		.loc 2 788 0
 4113 000c 0329     		cmp	r1, #3
 4114 000e 09D0     		beq	.L423
 4115              		.loc 2 789 0
 4116 0010 019A     		ldr	r2, [sp, #4]
 4117              	.LVL447:
 4118 0012 2368     		ldr	r3, [r4]
 4119 0014 9A42     		cmp	r2, r3
 4120 0016 2ED1     		bne	.L431
 4121 0018 1949     		ldr	r1, .L433+4
 4122              	.LVL448:
 4123              		.loc 2 803 0
 4124 001a 02B0     		add	sp, sp, #8
 4125              		.cfi_remember_state
 4126              		.cfi_def_cfa_offset 24
 4127              		@ sp needed
 4128 001c BDE8F041 		pop	{r4, r5, r6, r7, r8, lr}
 4129              		.cfi_restore 14
 4130              		.cfi_restore 8
 4131              		.cfi_restore 7
 4132              		.cfi_restore 6
 4133              		.cfi_restore 5
 4134              		.cfi_restore 4
 4135              		.cfi_def_cfa_offset 0
 4136              	.LBB253:
 4137              	.LBB254:
 4138              		.loc 2 800 0
 4139 0020 FFF7FEBF 		b	chprintf
 4140              	.LVL449:
 4141              	.L423:
 4142              		.cfi_restore_state
 4143 0024 0646     		mov	r6, r0
 4144              	.LVL450:
 4145              		.loc 2 792 0
 4146 0026 1068     		ldr	r0, [r2]
 4147              	.LVL451:
 4148 0028 1546     		mov	r5, r2
 4149 002a FFF7FEFF 		bl	atoi
 4150              	.LVL452:
 4151 002e 0746     		mov	r7, r0
 4152              	.LVL453:
 4153              		.loc 2 793 0
 4154 0030 6868     		ldr	r0, [r5, #4]
 4155 0032 FFF7FEFF 		bl	atoi
 4156              	.LVL454:
 4157 0036 8046     		mov	r8, r0
 4158              	.LVL455:
 4159              		.loc 2 794 0
 4160 0038 A868     		ldr	r0, [r5, #8]
 4161 003a FFF7FEFF 		bl	atoi
ARM GAS  C:\Users\mathi\AppData\Local\Temp\cces8mGY.s 			page 74


 4162              	.LVL456:
 4163              		.loc 2 796 0
 4164 003e 5FFA88F1 		uxtb	r1, r8
 4165 0042 C2B2     		uxtb	r2, r0
 4166 0044 F8B2     		uxtb	r0, r7
 4167              	.LVL457:
 4168 0046 FFF7FEFF 		bl	po8030_set_rgb_gain
 4169              	.LVL458:
 4170              		.loc 2 798 0
 4171 004a 019A     		ldr	r2, [sp, #4]
 4172 004c 2368     		ldr	r3, [r4]
 4173              		.loc 2 797 0
 4174 004e 40B9     		cbnz	r0, .L432
 4175              		.loc 2 800 0
 4176 0050 9A42     		cmp	r2, r3
 4177 0052 10D1     		bne	.L431
 4178 0054 0B49     		ldr	r1, .L433+8
 4179 0056 3046     		mov	r0, r6
 4180              	.LVL459:
 4181              	.LBE254:
 4182              	.LBE253:
 4183              		.loc 2 803 0
 4184 0058 02B0     		add	sp, sp, #8
 4185              		.cfi_remember_state
 4186              		.cfi_def_cfa_offset 24
 4187              		@ sp needed
 4188 005a BDE8F041 		pop	{r4, r5, r6, r7, r8, lr}
 4189              		.cfi_restore 14
 4190              		.cfi_restore 8
 4191              		.cfi_restore 7
 4192              		.cfi_restore 6
 4193              		.cfi_restore 5
 4194              		.cfi_restore 4
 4195              		.cfi_def_cfa_offset 0
 4196              	.LVL460:
 4197              	.LBB257:
 4198              	.LBB255:
 4199              		.loc 2 800 0
 4200 005e FFF7FEBF 		b	chprintf
 4201              	.LVL461:
 4202              	.L432:
 4203              		.cfi_restore_state
 4204              		.loc 2 798 0
 4205 0062 9A42     		cmp	r2, r3
 4206 0064 07D1     		bne	.L431
 4207 0066 0849     		ldr	r1, .L433+12
 4208 0068 0246     		mov	r2, r0
 4209 006a 3046     		mov	r0, r6
 4210              	.LVL462:
 4211              	.LBE255:
 4212              	.LBE257:
 4213              		.loc 2 803 0
 4214 006c 02B0     		add	sp, sp, #8
 4215              		.cfi_remember_state
 4216              		.cfi_def_cfa_offset 24
 4217              		@ sp needed
 4218 006e BDE8F041 		pop	{r4, r5, r6, r7, r8, lr}
ARM GAS  C:\Users\mathi\AppData\Local\Temp\cces8mGY.s 			page 75


 4219              		.cfi_restore 14
 4220              		.cfi_restore 8
 4221              		.cfi_restore 7
 4222              		.cfi_restore 6
 4223              		.cfi_restore 5
 4224              		.cfi_restore 4
 4225              		.cfi_def_cfa_offset 0
 4226              	.LVL463:
 4227              	.LBB258:
 4228              	.LBB256:
 4229              		.loc 2 798 0
 4230 0072 FFF7FEBF 		b	chprintf
 4231              	.LVL464:
 4232              	.L431:
 4233              		.cfi_restore_state
 4234              		.loc 2 800 0
 4235 0076 FFF7FEFF 		bl	__stack_chk_fail
 4236              	.LVL465:
 4237              	.L434:
 4238 007a 00BF     		.align	2
 4239              	.L433:
 4240 007c 00000000 		.word	__stack_chk_guard
 4241 0080 00000000 		.word	.LC87
 4242 0084 90000000 		.word	.LC89
 4243 0088 78000000 		.word	.LC88
 4244              	.LBE256:
 4245              	.LBE258:
 4246              		.cfi_endproc
 4247              	.LFE293:
 4248              		.size	cmd_cam_set_gain, .-cmd_cam_set_gain
 4249              		.section	.text.cmd_cam_set_mirror,"ax",%progbits
 4250              		.align	1
 4251              		.p2align 4,,15
 4252              		.syntax unified
 4253              		.thumb
 4254              		.thumb_func
 4255              		.fpu fpv4-sp-d16
 4256              		.type	cmd_cam_set_mirror, %function
 4257              	cmd_cam_set_mirror:
 4258              	.LFB292:
 4259              		.loc 2 763 0
 4260              		.cfi_startproc
 4261              		@ args = 0, pretend = 0, frame = 8
 4262              		@ frame_needed = 0, uses_anonymous_args = 0
 4263              	.LVL466:
 4264 0000 F0B5     		push	{r4, r5, r6, r7, lr}
 4265              		.cfi_def_cfa_offset 20
 4266              		.cfi_offset 4, -20
 4267              		.cfi_offset 5, -16
 4268              		.cfi_offset 6, -12
 4269              		.cfi_offset 7, -8
 4270              		.cfi_offset 14, -4
 4271 0002 1A4C     		ldr	r4, .L446
 4272 0004 83B0     		sub	sp, sp, #12
 4273              		.cfi_def_cfa_offset 32
 4274              		.loc 2 763 0
 4275 0006 2368     		ldr	r3, [r4]
ARM GAS  C:\Users\mathi\AppData\Local\Temp\cces8mGY.s 			page 76


 4276 0008 0193     		str	r3, [sp, #4]
 4277              		.loc 2 767 0
 4278 000a 0229     		cmp	r1, #2
 4279 000c 09D0     		beq	.L436
 4280              		.loc 2 768 0
 4281 000e 019A     		ldr	r2, [sp, #4]
 4282              	.LVL467:
 4283 0010 2368     		ldr	r3, [r4]
 4284 0012 9A42     		cmp	r2, r3
 4285 0014 28D1     		bne	.L444
 4286 0016 1649     		ldr	r1, .L446+4
 4287              	.LVL468:
 4288              		.loc 2 781 0
 4289 0018 03B0     		add	sp, sp, #12
 4290              		.cfi_remember_state
 4291              		.cfi_def_cfa_offset 20
 4292              		@ sp needed
 4293 001a BDE8F040 		pop	{r4, r5, r6, r7, lr}
 4294              		.cfi_restore 14
 4295              		.cfi_restore 7
 4296              		.cfi_restore 6
 4297              		.cfi_restore 5
 4298              		.cfi_restore 4
 4299              		.cfi_def_cfa_offset 0
 4300              	.LBB261:
 4301              	.LBB262:
 4302              		.loc 2 778 0
 4303 001e FFF7FEBF 		b	chprintf
 4304              	.LVL469:
 4305              	.L436:
 4306              		.cfi_restore_state
 4307 0022 0646     		mov	r6, r0
 4308              	.LVL470:
 4309              		.loc 2 771 0
 4310 0024 1068     		ldr	r0, [r2]
 4311              	.LVL471:
 4312 0026 1546     		mov	r5, r2
 4313 0028 FFF7FEFF 		bl	atoi
 4314              	.LVL472:
 4315 002c 0746     		mov	r7, r0
 4316              	.LVL473:
 4317              		.loc 2 772 0
 4318 002e 6868     		ldr	r0, [r5, #4]
 4319 0030 FFF7FEFF 		bl	atoi
 4320              	.LVL474:
 4321              		.loc 2 774 0
 4322 0034 C1B2     		uxtb	r1, r0
 4323 0036 F8B2     		uxtb	r0, r7
 4324              	.LVL475:
 4325 0038 FFF7FEFF 		bl	po8030_set_mirror
 4326              	.LVL476:
 4327              		.loc 2 776 0
 4328 003c 019A     		ldr	r2, [sp, #4]
 4329 003e 2368     		ldr	r3, [r4]
 4330              		.loc 2 775 0
 4331 0040 40B9     		cbnz	r0, .L445
 4332              		.loc 2 778 0
ARM GAS  C:\Users\mathi\AppData\Local\Temp\cces8mGY.s 			page 77


 4333 0042 9A42     		cmp	r2, r3
 4334 0044 10D1     		bne	.L444
 4335 0046 0B49     		ldr	r1, .L446+8
 4336 0048 3046     		mov	r0, r6
 4337              	.LVL477:
 4338              	.LBE262:
 4339              	.LBE261:
 4340              		.loc 2 781 0
 4341 004a 03B0     		add	sp, sp, #12
 4342              		.cfi_remember_state
 4343              		.cfi_def_cfa_offset 20
 4344              		@ sp needed
 4345 004c BDE8F040 		pop	{r4, r5, r6, r7, lr}
 4346              		.cfi_restore 14
 4347              		.cfi_restore 7
 4348              		.cfi_restore 6
 4349              		.cfi_restore 5
 4350              		.cfi_restore 4
 4351              		.cfi_def_cfa_offset 0
 4352              	.LVL478:
 4353              	.LBB265:
 4354              	.LBB263:
 4355              		.loc 2 778 0
 4356 0050 FFF7FEBF 		b	chprintf
 4357              	.LVL479:
 4358              	.L445:
 4359              		.cfi_restore_state
 4360              		.loc 2 776 0
 4361 0054 9A42     		cmp	r2, r3
 4362 0056 07D1     		bne	.L444
 4363 0058 0749     		ldr	r1, .L446+12
 4364 005a 0246     		mov	r2, r0
 4365 005c 3046     		mov	r0, r6
 4366              	.LVL480:
 4367              	.LBE263:
 4368              	.LBE265:
 4369              		.loc 2 781 0
 4370 005e 03B0     		add	sp, sp, #12
 4371              		.cfi_remember_state
 4372              		.cfi_def_cfa_offset 20
 4373              		@ sp needed
 4374 0060 BDE8F040 		pop	{r4, r5, r6, r7, lr}
 4375              		.cfi_restore 14
 4376              		.cfi_restore 7
 4377              		.cfi_restore 6
 4378              		.cfi_restore 5
 4379              		.cfi_restore 4
 4380              		.cfi_def_cfa_offset 0
 4381              	.LVL481:
 4382              	.LBB266:
 4383              	.LBB264:
 4384              		.loc 2 776 0
 4385 0064 FFF7FEBF 		b	chprintf
 4386              	.LVL482:
 4387              	.L444:
 4388              		.cfi_restore_state
 4389              		.loc 2 778 0
ARM GAS  C:\Users\mathi\AppData\Local\Temp\cces8mGY.s 			page 78


 4390 0068 FFF7FEFF 		bl	__stack_chk_fail
 4391              	.LVL483:
 4392              	.L447:
 4393              		.align	2
 4394              	.L446:
 4395 006c 00000000 		.word	__stack_chk_guard
 4396 0070 00000000 		.word	.LC90
 4397 0074 64000000 		.word	.LC92
 4398 0078 48000000 		.word	.LC91
 4399              	.LBE264:
 4400              	.LBE266:
 4401              		.cfi_endproc
 4402              	.LFE292:
 4403              		.size	cmd_cam_set_mirror, .-cmd_cam_set_mirror
 4404              		.section	.text.cmd_cam_set_conf2,"ax",%progbits
 4405              		.align	1
 4406              		.p2align 4,,15
 4407              		.syntax unified
 4408              		.thumb
 4409              		.thumb_func
 4410              		.fpu fpv4-sp-d16
 4411              		.type	cmd_cam_set_conf2, %function
 4412              	cmd_cam_set_conf2:
 4413              	.LFB291:
 4414              		.loc 2 742 0
 4415              		.cfi_startproc
 4416              		@ args = 0, pretend = 0, frame = 8
 4417              		@ frame_needed = 0, uses_anonymous_args = 0
 4418              	.LVL484:
 4419 0000 2DE9F043 		push	{r4, r5, r6, r7, r8, r9, lr}
 4420              		.cfi_def_cfa_offset 28
 4421              		.cfi_offset 4, -28
 4422              		.cfi_offset 5, -24
 4423              		.cfi_offset 6, -20
 4424              		.cfi_offset 7, -16
 4425              		.cfi_offset 8, -12
 4426              		.cfi_offset 9, -8
 4427              		.cfi_offset 14, -4
 4428 0004 2A4C     		ldr	r4, .L459
 4429 0006 87B0     		sub	sp, sp, #28
 4430              		.cfi_def_cfa_offset 56
 4431              		.loc 2 742 0
 4432 0008 2368     		ldr	r3, [r4]
 4433 000a 0593     		str	r3, [sp, #20]
 4434              		.loc 2 745 0
 4435 000c 0429     		cmp	r1, #4
 4436 000e 09D0     		beq	.L449
 4437              		.loc 2 746 0
 4438 0010 059A     		ldr	r2, [sp, #20]
 4439              	.LVL485:
 4440 0012 2368     		ldr	r3, [r4]
 4441 0014 9A42     		cmp	r2, r3
 4442 0016 48D1     		bne	.L457
 4443 0018 2649     		ldr	r1, .L459+4
 4444              	.LVL486:
 4445              		.loc 2 760 0
 4446 001a 07B0     		add	sp, sp, #28
ARM GAS  C:\Users\mathi\AppData\Local\Temp\cces8mGY.s 			page 79


 4447              		.cfi_remember_state
 4448              		.cfi_def_cfa_offset 28
 4449              		@ sp needed
 4450 001c BDE8F043 		pop	{r4, r5, r6, r7, r8, r9, lr}
 4451              		.cfi_restore 14
 4452              		.cfi_restore 9
 4453              		.cfi_restore 8
 4454              		.cfi_restore 7
 4455              		.cfi_restore 6
 4456              		.cfi_restore 5
 4457              		.cfi_restore 4
 4458              		.cfi_def_cfa_offset 0
 4459              	.LBB269:
 4460              	.LBB270:
 4461              		.loc 2 757 0
 4462 0020 FFF7FEBF 		b	chprintf
 4463              	.LVL487:
 4464              	.L449:
 4465              		.cfi_restore_state
 4466 0024 0646     		mov	r6, r0
 4467              	.LVL488:
 4468              		.loc 2 748 0
 4469 0026 1068     		ldr	r0, [r2]
 4470              	.LVL489:
 4471 0028 234F     		ldr	r7, .L459+8
 4472              		.loc 2 749 0
 4473 002a DFF8A080 		ldr	r8, .L459+28
 4474              		.loc 2 750 0
 4475 002e DFF8A090 		ldr	r9, .L459+32
 4476 0032 1546     		mov	r5, r2
 4477              		.loc 2 748 0
 4478 0034 FFF7FEFF 		bl	atoi
 4479              	.LVL490:
 4480 0038 3880     		strh	r0, [r7]	@ movhi
 4481              		.loc 2 749 0
 4482 003a 6868     		ldr	r0, [r5, #4]
 4483 003c FFF7FEFF 		bl	atoi
 4484              	.LVL491:
 4485 0040 A8F80000 		strh	r0, [r8]	@ movhi
 4486              		.loc 2 750 0
 4487 0044 A868     		ldr	r0, [r5, #8]
 4488 0046 FFF7FEFF 		bl	atoi
 4489              	.LVL492:
 4490 004a A9F80000 		strh	r0, [r9]	@ movhi
 4491              		.loc 2 751 0
 4492 004e E868     		ldr	r0, [r5, #12]
 4493              		.loc 2 753 0
 4494 0050 1A4D     		ldr	r5, .L459+12
 4495              	.LVL493:
 4496              		.loc 2 751 0
 4497 0052 FFF7FEFF 		bl	atoi
 4498              	.LVL494:
 4499              		.loc 2 753 0
 4500 0056 3988     		ldrh	r1, [r7]
 4501 0058 DFF878C0 		ldr	ip, .L459+36
 4502 005c 2F78     		ldrb	r7, [r5]	@ zero_extendqisi2
 4503 005e 184D     		ldr	r5, .L459+16
ARM GAS  C:\Users\mathi\AppData\Local\Temp\cces8mGY.s 			page 80


 4504 0060 9CF800C0 		ldrb	ip, [ip]	@ zero_extendqisi2
 4505 0064 2D78     		ldrb	r5, [r5]	@ zero_extendqisi2
 4506 0066 B9F80030 		ldrh	r3, [r9]
 4507 006a B8F80020 		ldrh	r2, [r8]
 4508 006e CDF808C0 		str	ip, [sp, #8]
 4509 0072 80B2     		uxth	r0, r0
 4510 0074 0090     		str	r0, [sp]
 4511 0076 0195     		str	r5, [sp, #4]
 4512 0078 3846     		mov	r0, r7
 4513 007a FFF7FEFF 		bl	po8030_advanced_config
 4514              	.LVL495:
 4515              		.loc 2 755 0
 4516 007e 059A     		ldr	r2, [sp, #20]
 4517 0080 2368     		ldr	r3, [r4]
 4518              		.loc 2 754 0
 4519 0082 40B9     		cbnz	r0, .L458
 4520              		.loc 2 757 0
 4521 0084 9A42     		cmp	r2, r3
 4522 0086 10D1     		bne	.L457
 4523 0088 0E49     		ldr	r1, .L459+20
 4524 008a 3046     		mov	r0, r6
 4525              	.LVL496:
 4526              	.LBE270:
 4527              	.LBE269:
 4528              		.loc 2 760 0
 4529 008c 07B0     		add	sp, sp, #28
 4530              		.cfi_remember_state
 4531              		.cfi_def_cfa_offset 28
 4532              		@ sp needed
 4533 008e BDE8F043 		pop	{r4, r5, r6, r7, r8, r9, lr}
 4534              		.cfi_restore 14
 4535              		.cfi_restore 9
 4536              		.cfi_restore 8
 4537              		.cfi_restore 7
 4538              		.cfi_restore 6
 4539              		.cfi_restore 5
 4540              		.cfi_restore 4
 4541              		.cfi_def_cfa_offset 0
 4542              	.LVL497:
 4543              	.LBB273:
 4544              	.LBB271:
 4545              		.loc 2 757 0
 4546 0092 FFF7FEBF 		b	chprintf
 4547              	.LVL498:
 4548              	.L458:
 4549              		.cfi_restore_state
 4550              		.loc 2 755 0
 4551 0096 9A42     		cmp	r2, r3
 4552 0098 07D1     		bne	.L457
 4553 009a 0B49     		ldr	r1, .L459+24
 4554 009c 0246     		mov	r2, r0
 4555 009e 3046     		mov	r0, r6
 4556              	.LVL499:
 4557              	.LBE271:
 4558              	.LBE273:
 4559              		.loc 2 760 0
 4560 00a0 07B0     		add	sp, sp, #28
ARM GAS  C:\Users\mathi\AppData\Local\Temp\cces8mGY.s 			page 81


 4561              		.cfi_remember_state
 4562              		.cfi_def_cfa_offset 28
 4563              		@ sp needed
 4564 00a2 BDE8F043 		pop	{r4, r5, r6, r7, r8, r9, lr}
 4565              		.cfi_restore 14
 4566              		.cfi_restore 9
 4567              		.cfi_restore 8
 4568              		.cfi_restore 7
 4569              		.cfi_restore 6
 4570              		.cfi_restore 5
 4571              		.cfi_restore 4
 4572              		.cfi_def_cfa_offset 0
 4573              	.LVL500:
 4574              	.LBB274:
 4575              	.LBB272:
 4576              		.loc 2 755 0
 4577 00a6 FFF7FEBF 		b	chprintf
 4578              	.LVL501:
 4579              	.L457:
 4580              		.cfi_restore_state
 4581              		.loc 2 757 0
 4582 00aa FFF7FEFF 		bl	__stack_chk_fail
 4583              	.LVL502:
 4584              	.L460:
 4585 00ae 00BF     		.align	2
 4586              	.L459:
 4587 00b0 00000000 		.word	__stack_chk_guard
 4588 00b4 00000000 		.word	.LC93
 4589 00b8 00000000 		.word	.LANCHOR5
 4590 00bc 00000000 		.word	.LANCHOR2
 4591 00c0 00000000 		.word	.LANCHOR3
 4592 00c4 48000000 		.word	.LC95
 4593 00c8 28000000 		.word	.LC94
 4594 00cc 00000000 		.word	.LANCHOR6
 4595 00d0 00000000 		.word	.LANCHOR7
 4596 00d4 00000000 		.word	.LANCHOR4
 4597              	.LBE272:
 4598              	.LBE274:
 4599              		.cfi_endproc
 4600              	.LFE291:
 4601              		.size	cmd_cam_set_conf2, .-cmd_cam_set_conf2
 4602              		.section	.text.cmd_cam_set_contrast,"ax",%progbits
 4603              		.align	1
 4604              		.p2align 4,,15
 4605              		.syntax unified
 4606              		.thumb
 4607              		.thumb_func
 4608              		.fpu fpv4-sp-d16
 4609              		.type	cmd_cam_set_contrast, %function
 4610              	cmd_cam_set_contrast:
 4611              	.LFB289:
 4612              		.loc 2 680 0
 4613              		.cfi_startproc
 4614              		@ args = 0, pretend = 0, frame = 8
 4615              		@ frame_needed = 0, uses_anonymous_args = 0
 4616              	.LVL503:
 4617 0000 30B5     		push	{r4, r5, lr}
ARM GAS  C:\Users\mathi\AppData\Local\Temp\cces8mGY.s 			page 82


 4618              		.cfi_def_cfa_offset 12
 4619              		.cfi_offset 4, -12
 4620              		.cfi_offset 5, -8
 4621              		.cfi_offset 14, -4
 4622 0002 174C     		ldr	r4, .L472
 4623 0004 83B0     		sub	sp, sp, #12
 4624              		.cfi_def_cfa_offset 24
 4625              		.loc 2 680 0
 4626 0006 2368     		ldr	r3, [r4]
 4627 0008 0193     		str	r3, [sp, #4]
 4628              		.loc 2 683 0
 4629 000a 0129     		cmp	r1, #1
 4630 000c 09D0     		beq	.L462
 4631              		.loc 2 684 0
 4632 000e 019A     		ldr	r2, [sp, #4]
 4633              	.LVL504:
 4634 0010 2368     		ldr	r3, [r4]
 4635 0012 9A42     		cmp	r2, r3
 4636 0014 22D1     		bne	.L470
 4637 0016 1349     		ldr	r1, .L472+4
 4638              	.LVL505:
 4639              		.loc 2 695 0
 4640 0018 03B0     		add	sp, sp, #12
 4641              		.cfi_remember_state
 4642              		.cfi_def_cfa_offset 12
 4643              		@ sp needed
 4644 001a BDE83040 		pop	{r4, r5, lr}
 4645              		.cfi_restore 14
 4646              		.cfi_restore 5
 4647              		.cfi_restore 4
 4648              		.cfi_def_cfa_offset 0
 4649              	.LBB277:
 4650              	.LBB278:
 4651              		.loc 2 692 0
 4652 001e FFF7FEBF 		b	chprintf
 4653              	.LVL506:
 4654              	.L462:
 4655              		.cfi_restore_state
 4656 0022 0546     		mov	r5, r0
 4657              	.LVL507:
 4658              		.loc 2 687 0
 4659 0024 1068     		ldr	r0, [r2]
 4660              	.LVL508:
 4661 0026 FFF7FEFF 		bl	atoi
 4662              	.LVL509:
 4663              		.loc 2 688 0
 4664 002a C0B2     		uxtb	r0, r0
 4665 002c FFF7FEFF 		bl	po8030_set_contrast
 4666              	.LVL510:
 4667              		.loc 2 690 0
 4668 0030 019A     		ldr	r2, [sp, #4]
 4669 0032 2368     		ldr	r3, [r4]
 4670              		.loc 2 689 0
 4671 0034 40B9     		cbnz	r0, .L471
 4672              		.loc 2 692 0
 4673 0036 9A42     		cmp	r2, r3
 4674 0038 10D1     		bne	.L470
ARM GAS  C:\Users\mathi\AppData\Local\Temp\cces8mGY.s 			page 83


 4675 003a 0B49     		ldr	r1, .L472+8
 4676 003c 2846     		mov	r0, r5
 4677              	.LVL511:
 4678              	.LBE278:
 4679              	.LBE277:
 4680              		.loc 2 695 0
 4681 003e 03B0     		add	sp, sp, #12
 4682              		.cfi_remember_state
 4683              		.cfi_def_cfa_offset 12
 4684              		@ sp needed
 4685 0040 BDE83040 		pop	{r4, r5, lr}
 4686              		.cfi_restore 14
 4687              		.cfi_restore 5
 4688              		.cfi_restore 4
 4689              		.cfi_def_cfa_offset 0
 4690              	.LVL512:
 4691              	.LBB281:
 4692              	.LBB279:
 4693              		.loc 2 692 0
 4694 0044 FFF7FEBF 		b	chprintf
 4695              	.LVL513:
 4696              	.L471:
 4697              		.cfi_restore_state
 4698              		.loc 2 690 0
 4699 0048 9A42     		cmp	r2, r3
 4700 004a 07D1     		bne	.L470
 4701 004c 0749     		ldr	r1, .L472+12
 4702 004e 0246     		mov	r2, r0
 4703 0050 2846     		mov	r0, r5
 4704              	.LVL514:
 4705              	.LBE279:
 4706              	.LBE281:
 4707              		.loc 2 695 0
 4708 0052 03B0     		add	sp, sp, #12
 4709              		.cfi_remember_state
 4710              		.cfi_def_cfa_offset 12
 4711              		@ sp needed
 4712 0054 BDE83040 		pop	{r4, r5, lr}
 4713              		.cfi_restore 14
 4714              		.cfi_restore 5
 4715              		.cfi_restore 4
 4716              		.cfi_def_cfa_offset 0
 4717              	.LVL515:
 4718              	.LBB282:
 4719              	.LBB280:
 4720              		.loc 2 690 0
 4721 0058 FFF7FEBF 		b	chprintf
 4722              	.LVL516:
 4723              	.L470:
 4724              		.cfi_restore_state
 4725              		.loc 2 692 0
 4726 005c FFF7FEFF 		bl	__stack_chk_fail
 4727              	.LVL517:
 4728              	.L473:
 4729              		.align	2
 4730              	.L472:
 4731 0060 00000000 		.word	__stack_chk_guard
ARM GAS  C:\Users\mathi\AppData\Local\Temp\cces8mGY.s 			page 84


 4732 0064 00000000 		.word	.LC96
 4733 0068 5C000000 		.word	.LC98
 4734 006c 3C000000 		.word	.LC97
 4735              	.LBE280:
 4736              	.LBE282:
 4737              		.cfi_endproc
 4738              	.LFE289:
 4739              		.size	cmd_cam_set_contrast, .-cmd_cam_set_contrast
 4740              		.section	.text.cmd_cam_set_brightness,"ax",%progbits
 4741              		.align	1
 4742              		.p2align 4,,15
 4743              		.syntax unified
 4744              		.thumb
 4745              		.thumb_func
 4746              		.fpu fpv4-sp-d16
 4747              		.type	cmd_cam_set_brightness, %function
 4748              	cmd_cam_set_brightness:
 4749              	.LFB288:
 4750              		.loc 2 662 0
 4751              		.cfi_startproc
 4752              		@ args = 0, pretend = 0, frame = 8
 4753              		@ frame_needed = 0, uses_anonymous_args = 0
 4754              	.LVL518:
 4755 0000 30B5     		push	{r4, r5, lr}
 4756              		.cfi_def_cfa_offset 12
 4757              		.cfi_offset 4, -12
 4758              		.cfi_offset 5, -8
 4759              		.cfi_offset 14, -4
 4760 0002 174C     		ldr	r4, .L485
 4761 0004 83B0     		sub	sp, sp, #12
 4762              		.cfi_def_cfa_offset 24
 4763              		.loc 2 662 0
 4764 0006 2368     		ldr	r3, [r4]
 4765 0008 0193     		str	r3, [sp, #4]
 4766              		.loc 2 665 0
 4767 000a 0129     		cmp	r1, #1
 4768 000c 09D0     		beq	.L475
 4769              		.loc 2 666 0
 4770 000e 019A     		ldr	r2, [sp, #4]
 4771              	.LVL519:
 4772 0010 2368     		ldr	r3, [r4]
 4773 0012 9A42     		cmp	r2, r3
 4774 0014 22D1     		bne	.L483
 4775 0016 1349     		ldr	r1, .L485+4
 4776              	.LVL520:
 4777              		.loc 2 677 0
 4778 0018 03B0     		add	sp, sp, #12
 4779              		.cfi_remember_state
 4780              		.cfi_def_cfa_offset 12
 4781              		@ sp needed
 4782 001a BDE83040 		pop	{r4, r5, lr}
 4783              		.cfi_restore 14
 4784              		.cfi_restore 5
 4785              		.cfi_restore 4
 4786              		.cfi_def_cfa_offset 0
 4787              	.LBB285:
 4788              	.LBB286:
ARM GAS  C:\Users\mathi\AppData\Local\Temp\cces8mGY.s 			page 85


 4789              		.loc 2 674 0
 4790 001e FFF7FEBF 		b	chprintf
 4791              	.LVL521:
 4792              	.L475:
 4793              		.cfi_restore_state
 4794 0022 0546     		mov	r5, r0
 4795              	.LVL522:
 4796              		.loc 2 669 0
 4797 0024 1068     		ldr	r0, [r2]
 4798              	.LVL523:
 4799 0026 FFF7FEFF 		bl	atoi
 4800              	.LVL524:
 4801              		.loc 2 670 0
 4802 002a C0B2     		uxtb	r0, r0
 4803 002c FFF7FEFF 		bl	po8030_set_brightness
 4804              	.LVL525:
 4805              		.loc 2 672 0
 4806 0030 019A     		ldr	r2, [sp, #4]
 4807 0032 2368     		ldr	r3, [r4]
 4808              		.loc 2 671 0
 4809 0034 40B9     		cbnz	r0, .L484
 4810              		.loc 2 674 0
 4811 0036 9A42     		cmp	r2, r3
 4812 0038 10D1     		bne	.L483
 4813 003a 0B49     		ldr	r1, .L485+8
 4814 003c 2846     		mov	r0, r5
 4815              	.LVL526:
 4816              	.LBE286:
 4817              	.LBE285:
 4818              		.loc 2 677 0
 4819 003e 03B0     		add	sp, sp, #12
 4820              		.cfi_remember_state
 4821              		.cfi_def_cfa_offset 12
 4822              		@ sp needed
 4823 0040 BDE83040 		pop	{r4, r5, lr}
 4824              		.cfi_restore 14
 4825              		.cfi_restore 5
 4826              		.cfi_restore 4
 4827              		.cfi_def_cfa_offset 0
 4828              	.LVL527:
 4829              	.LBB289:
 4830              	.LBB287:
 4831              		.loc 2 674 0
 4832 0044 FFF7FEBF 		b	chprintf
 4833              	.LVL528:
 4834              	.L484:
 4835              		.cfi_restore_state
 4836              		.loc 2 672 0
 4837 0048 9A42     		cmp	r2, r3
 4838 004a 07D1     		bne	.L483
 4839 004c 0749     		ldr	r1, .L485+12
 4840 004e 0246     		mov	r2, r0
 4841 0050 2846     		mov	r0, r5
 4842              	.LVL529:
 4843              	.LBE287:
 4844              	.LBE289:
 4845              		.loc 2 677 0
ARM GAS  C:\Users\mathi\AppData\Local\Temp\cces8mGY.s 			page 86


 4846 0052 03B0     		add	sp, sp, #12
 4847              		.cfi_remember_state
 4848              		.cfi_def_cfa_offset 12
 4849              		@ sp needed
 4850 0054 BDE83040 		pop	{r4, r5, lr}
 4851              		.cfi_restore 14
 4852              		.cfi_restore 5
 4853              		.cfi_restore 4
 4854              		.cfi_def_cfa_offset 0
 4855              	.LVL530:
 4856              	.LBB290:
 4857              	.LBB288:
 4858              		.loc 2 672 0
 4859 0058 FFF7FEBF 		b	chprintf
 4860              	.LVL531:
 4861              	.L483:
 4862              		.cfi_restore_state
 4863              		.loc 2 674 0
 4864 005c FFF7FEFF 		bl	__stack_chk_fail
 4865              	.LVL532:
 4866              	.L486:
 4867              		.align	2
 4868              	.L485:
 4869 0060 00000000 		.word	__stack_chk_guard
 4870 0064 00000000 		.word	.LC99
 4871 0068 5C000000 		.word	.LC98
 4872 006c 3C000000 		.word	.LC97
 4873              	.LBE288:
 4874              	.LBE290:
 4875              		.cfi_endproc
 4876              	.LFE288:
 4877              		.size	cmd_cam_set_brightness, .-cmd_cam_set_brightness
 4878              		.section	.text.cmd_test,"ax",%progbits
 4879              		.align	1
 4880              		.p2align 4,,15
 4881              		.syntax unified
 4882              		.thumb
 4883              		.thumb_func
 4884              		.fpu fpv4-sp-d16
 4885              		.type	cmd_test, %function
 4886              	cmd_test:
 4887              	.LFB277:
 4888              		.loc 2 388 0
 4889              		.cfi_startproc
 4890              		@ args = 0, pretend = 0, frame = 8
 4891              		@ frame_needed = 0, uses_anonymous_args = 0
 4892              	.LVL533:
 4893 0000 30B5     		push	{r4, r5, lr}
 4894              		.cfi_def_cfa_offset 12
 4895              		.cfi_offset 4, -12
 4896              		.cfi_offset 5, -8
 4897              		.cfi_offset 14, -4
 4898 0002 184C     		ldr	r4, .L498
 4899 0004 85B0     		sub	sp, sp, #20
 4900              		.cfi_def_cfa_offset 32
 4901              		.loc 2 388 0
 4902 0006 2368     		ldr	r3, [r4]
ARM GAS  C:\Users\mathi\AppData\Local\Temp\cces8mGY.s 			page 87


 4903 0008 0393     		str	r3, [sp, #12]
 4904              		.loc 2 392 0
 4905 000a 0029     		cmp	r1, #0
 4906 000c 09DD     		ble	.L488
 4907              		.loc 2 393 0
 4908 000e 039A     		ldr	r2, [sp, #12]
 4909              	.LVL534:
 4910 0010 2368     		ldr	r3, [r4]
 4911 0012 9A42     		cmp	r2, r3
 4912 0014 23D1     		bne	.L496
 4913 0016 1449     		ldr	r1, .L498+4
 4914              	.LVL535:
 4915              		.loc 2 403 0
 4916 0018 05B0     		add	sp, sp, #20
 4917              		.cfi_remember_state
 4918              		.cfi_def_cfa_offset 12
 4919              		@ sp needed
 4920 001a BDE83040 		pop	{r4, r5, lr}
 4921              		.cfi_restore 14
 4922              		.cfi_restore 5
 4923              		.cfi_restore 4
 4924              		.cfi_def_cfa_offset 0
 4925              	.LBB297:
 4926              	.LBB298:
 4927              		.loc 2 399 0
 4928 001e FFF7FEBF 		b	chprintf
 4929              	.LVL536:
 4930              	.L488:
 4931              		.cfi_restore_state
 4932              	.LBB299:
 4933              	.LBB300:
 4934              	.LBB301:
 4935              	.LBB302:
 4936              		.file 3 "../../lib/e-puck2_main-processor/ChibiOS//os/rt/include/chthreads.h"
 4937              		.loc 3 176 0
 4938 0022 124A     		ldr	r2, .L498+8
 4939              	.LVL537:
 4940              	.LBE302:
 4941              	.LBE301:
 4942              	.LBE300:
 4943              	.LBE299:
 4944              		.loc 2 396 0
 4945 0024 124B     		ldr	r3, .L498+12
 4946              	.LBB304:
 4947              	.LBB303:
 4948              		.loc 3 189 0
 4949 0026 9269     		ldr	r2, [r2, #24]
 4950 0028 0546     		mov	r5, r0
 4951              	.LBE303:
 4952              	.LBE304:
 4953              		.loc 2 396 0
 4954 002a 9268     		ldr	r2, [r2, #8]
 4955 002c 0090     		str	r0, [sp]
 4956 002e 4FF41E71 		mov	r1, #632
 4957              	.LVL538:
 4958 0032 0020     		movs	r0, #0
 4959              	.LVL539:
ARM GAS  C:\Users\mathi\AppData\Local\Temp\cces8mGY.s 			page 88


 4960 0034 FFF7FEFF 		bl	chThdCreateFromHeap
 4961              	.LVL540:
 4962              		.loc 2 399 0
 4963 0038 039A     		ldr	r2, [sp, #12]
 4964 003a 2368     		ldr	r3, [r4]
 4965              		.loc 2 398 0
 4966 003c 30B1     		cbz	r0, .L497
 4967              		.loc 2 402 0
 4968 003e 9A42     		cmp	r2, r3
 4969 0040 0DD1     		bne	.L496
 4970              	.LBE298:
 4971              	.LBE297:
 4972              		.loc 2 403 0
 4973 0042 05B0     		add	sp, sp, #20
 4974              		.cfi_remember_state
 4975              		.cfi_def_cfa_offset 12
 4976              		@ sp needed
 4977 0044 BDE83040 		pop	{r4, r5, lr}
 4978              		.cfi_restore 14
 4979              		.cfi_restore 5
 4980              		.cfi_restore 4
 4981              		.cfi_def_cfa_offset 0
 4982              	.LVL541:
 4983              	.LBB307:
 4984              	.LBB305:
 4985              		.loc 2 402 0
 4986 0048 FFF7FEBF 		b	chThdWait
 4987              	.LVL542:
 4988              	.L497:
 4989              		.cfi_restore_state
 4990              		.loc 2 399 0
 4991 004c 9A42     		cmp	r2, r3
 4992 004e 06D1     		bne	.L496
 4993 0050 0849     		ldr	r1, .L498+16
 4994 0052 2846     		mov	r0, r5
 4995              	.LVL543:
 4996              	.LBE305:
 4997              	.LBE307:
 4998              		.loc 2 403 0
 4999 0054 05B0     		add	sp, sp, #20
 5000              		.cfi_remember_state
 5001              		.cfi_def_cfa_offset 12
 5002              		@ sp needed
 5003 0056 BDE83040 		pop	{r4, r5, lr}
 5004              		.cfi_restore 14
 5005              		.cfi_restore 5
 5006              		.cfi_restore 4
 5007              		.cfi_def_cfa_offset 0
 5008              	.LVL544:
 5009              	.LBB308:
 5010              	.LBB306:
 5011              		.loc 2 399 0
 5012 005a FFF7FEBF 		b	chprintf
 5013              	.LVL545:
 5014              	.L496:
 5015              		.cfi_restore_state
 5016              		.loc 2 402 0
ARM GAS  C:\Users\mathi\AppData\Local\Temp\cces8mGY.s 			page 89


 5017 005e FFF7FEFF 		bl	__stack_chk_fail
 5018              	.LVL546:
 5019              	.L499:
 5020 0062 00BF     		.align	2
 5021              	.L498:
 5022 0064 00000000 		.word	__stack_chk_guard
 5023 0068 00000000 		.word	.LC100
 5024 006c 00000000 		.word	ch
 5025 0070 00000000 		.word	TestThread
 5026 0074 10000000 		.word	.LC101
 5027              	.LBE306:
 5028              	.LBE308:
 5029              		.cfi_endproc
 5030              	.LFE277:
 5031              		.size	cmd_test, .-cmd_test
 5032              		.section	.text.cmd_threads,"ax",%progbits
 5033              		.align	1
 5034              		.p2align 4,,15
 5035              		.syntax unified
 5036              		.thumb
 5037              		.thumb_func
 5038              		.fpu fpv4-sp-d16
 5039              		.type	cmd_threads, %function
 5040              	cmd_threads:
 5041              	.LFB276:
 5042              		.loc 2 367 0
 5043              		.cfi_startproc
 5044              		@ args = 0, pretend = 0, frame = 8
 5045              		@ frame_needed = 0, uses_anonymous_args = 0
 5046              	.LVL547:
 5047 0000 2DE9F041 		push	{r4, r5, r6, r7, r8, lr}
 5048              		.cfi_def_cfa_offset 24
 5049              		.cfi_offset 4, -24
 5050              		.cfi_offset 5, -20
 5051              		.cfi_offset 6, -16
 5052              		.cfi_offset 7, -12
 5053              		.cfi_offset 8, -8
 5054              		.cfi_offset 14, -4
 5055 0004 DFF88880 		ldr	r8, .L508+16
 5056 0008 86B0     		sub	sp, sp, #24
 5057              		.cfi_def_cfa_offset 48
 5058              		.loc 2 367 0
 5059 000a D8F80030 		ldr	r3, [r8]
 5060 000e 0593     		str	r3, [sp, #20]
 5061              		.loc 2 372 0
 5062 0010 0029     		cmp	r1, #0
 5063 0012 0ADD     		ble	.L501
 5064              		.loc 2 373 0
 5065 0014 059A     		ldr	r2, [sp, #20]
 5066              	.LVL548:
 5067 0016 D8F80030 		ldr	r3, [r8]
 5068 001a 9A42     		cmp	r2, r3
 5069 001c 2DD1     		bne	.L507
 5070 001e 1849     		ldr	r1, .L508
 5071              	.LVL549:
 5072              		.loc 2 385 0
 5073 0020 06B0     		add	sp, sp, #24
ARM GAS  C:\Users\mathi\AppData\Local\Temp\cces8mGY.s 			page 90


 5074              		.cfi_remember_state
 5075              		.cfi_def_cfa_offset 24
 5076              		@ sp needed
 5077 0022 BDE8F041 		pop	{r4, r5, r6, r7, r8, lr}
 5078              		.cfi_restore 14
 5079              		.cfi_restore 8
 5080              		.cfi_restore 7
 5081              		.cfi_restore 6
 5082              		.cfi_restore 5
 5083              		.cfi_restore 4
 5084              		.cfi_def_cfa_offset 0
 5085              		.loc 2 373 0
 5086 0026 FFF7FEBF 		b	chprintf
 5087              	.LVL550:
 5088              	.L501:
 5089              		.cfi_restore_state
 5090              	.LBB311:
 5091              	.LBB312:
 5092              		.loc 2 376 0
 5093 002a 1649     		ldr	r1, .L508+4
 5094              	.LVL551:
 5095 002c 164F     		ldr	r7, .L508+8
 5096              		.loc 2 379 0
 5097 002e 174E     		ldr	r6, .L508+12
 5098 0030 0546     		mov	r5, r0
 5099              	.LVL552:
 5100              		.loc 2 376 0
 5101 0032 FFF7FEFF 		bl	chprintf
 5102              	.LVL553:
 5103              		.loc 2 377 0
 5104 0036 FFF7FEFF 		bl	chRegFirstThread
 5105              	.LVL554:
 5106 003a 0446     		mov	r4, r0
 5107              	.LVL555:
 5108              	.L503:
 5109              		.loc 2 382 0
 5110 003c 94F82020 		ldrb	r2, [r4, #32]	@ zero_extendqisi2
 5111              		.loc 2 379 0
 5112 0040 E368     		ldr	r3, [r4, #12]
 5113 0042 57F82220 		ldr	r2, [r7, r2, lsl #2]
 5114 0046 0292     		str	r2, [sp, #8]
 5115              		.loc 2 381 0
 5116 0048 94F82220 		ldrb	r2, [r4, #34]	@ zero_extendqisi2
 5117 004c 013A     		subs	r2, r2, #1
 5118              		.loc 2 379 0
 5119 004e 0192     		str	r2, [sp, #4]
 5120 0050 A268     		ldr	r2, [r4, #8]
 5121 0052 0092     		str	r2, [sp]
 5122 0054 3146     		mov	r1, r6
 5123 0056 2246     		mov	r2, r4
 5124 0058 2846     		mov	r0, r5
 5125              	.LVL556:
 5126 005a FFF7FEFF 		bl	chprintf
 5127              	.LVL557:
 5128              		.loc 2 383 0
 5129 005e 2046     		mov	r0, r4
 5130 0060 FFF7FEFF 		bl	chRegNextThread
ARM GAS  C:\Users\mathi\AppData\Local\Temp\cces8mGY.s 			page 91


 5131              	.LVL558:
 5132              		.loc 2 384 0
 5133 0064 0446     		mov	r4, r0
 5134 0066 0028     		cmp	r0, #0
 5135 0068 E8D1     		bne	.L503
 5136              	.LBE312:
 5137              	.LBE311:
 5138              		.loc 2 385 0
 5139 006a 059A     		ldr	r2, [sp, #20]
 5140 006c D8F80030 		ldr	r3, [r8]
 5141 0070 9A42     		cmp	r2, r3
 5142 0072 02D1     		bne	.L507
 5143 0074 06B0     		add	sp, sp, #24
 5144              		.cfi_remember_state
 5145              		.cfi_def_cfa_offset 24
 5146              		@ sp needed
 5147 0076 BDE8F081 		pop	{r4, r5, r6, r7, r8, pc}
 5148              	.LVL559:
 5149              	.L507:
 5150              		.cfi_restore_state
 5151 007a FFF7FEFF 		bl	__stack_chk_fail
 5152              	.LVL560:
 5153              	.L509:
 5154 007e 00BF     		.align	2
 5155              	.L508:
 5156 0080 00000000 		.word	.LC102
 5157 0084 14000000 		.word	.LC103
 5158 0088 00000000 		.word	.LANCHOR8
 5159 008c 48000000 		.word	.LC104
 5160 0090 00000000 		.word	__stack_chk_guard
 5161              		.cfi_endproc
 5162              	.LFE276:
 5163              		.size	cmd_threads, .-cmd_threads
 5164              		.section	.text.cmd_mem,"ax",%progbits
 5165              		.align	1
 5166              		.p2align 4,,15
 5167              		.syntax unified
 5168              		.thumb
 5169              		.thumb_func
 5170              		.fpu fpv4-sp-d16
 5171              		.type	cmd_mem, %function
 5172              	cmd_mem:
 5173              	.LFB275:
 5174              		.loc 2 352 0
 5175              		.cfi_startproc
 5176              		@ args = 0, pretend = 0, frame = 8
 5177              		@ frame_needed = 0, uses_anonymous_args = 0
 5178              	.LVL561:
 5179 0000 70B5     		push	{r4, r5, r6, lr}
 5180              		.cfi_def_cfa_offset 16
 5181              		.cfi_offset 4, -16
 5182              		.cfi_offset 5, -12
 5183              		.cfi_offset 6, -8
 5184              		.cfi_offset 14, -4
 5185 0002 144C     		ldr	r4, .L516
 5186 0004 82B0     		sub	sp, sp, #8
 5187              		.cfi_def_cfa_offset 24
ARM GAS  C:\Users\mathi\AppData\Local\Temp\cces8mGY.s 			page 92


 5188              		.loc 2 352 0
 5189 0006 2368     		ldr	r3, [r4]
 5190 0008 0193     		str	r3, [sp, #4]
 5191              		.loc 2 356 0
 5192 000a 0029     		cmp	r1, #0
 5193 000c 08DD     		ble	.L511
 5194              		.loc 2 357 0
 5195 000e 1249     		ldr	r1, .L516+4
 5196              	.LVL562:
 5197 0010 FFF7FEFF 		bl	chprintf
 5198              	.LVL563:
 5199              	.L510:
 5200              		.loc 2 364 0
 5201 0014 019A     		ldr	r2, [sp, #4]
 5202 0016 2368     		ldr	r3, [r4]
 5203 0018 9A42     		cmp	r2, r3
 5204 001a 19D1     		bne	.L515
 5205 001c 02B0     		add	sp, sp, #8
 5206              		.cfi_remember_state
 5207              		.cfi_def_cfa_offset 16
 5208              		@ sp needed
 5209 001e 70BD     		pop	{r4, r5, r6, pc}
 5210              	.LVL564:
 5211              	.L511:
 5212              		.cfi_restore_state
 5213 0020 0546     		mov	r5, r0
 5214              	.LVL565:
 5215              	.LBB315:
 5216              	.LBB316:
 5217              		.loc 2 360 0
 5218 0022 6946     		mov	r1, sp
 5219              	.LVL566:
 5220 0024 0020     		movs	r0, #0
 5221              	.LVL567:
 5222 0026 FFF7FEFF 		bl	chHeapStatus
 5223              	.LVL568:
 5224 002a 0646     		mov	r6, r0
 5225              	.LVL569:
 5226              		.loc 2 361 0
 5227 002c FFF7FEFF 		bl	chCoreGetStatusX
 5228              	.LVL570:
 5229 0030 0A49     		ldr	r1, .L516+8
 5230 0032 0246     		mov	r2, r0
 5231 0034 2846     		mov	r0, r5
 5232 0036 FFF7FEFF 		bl	chprintf
 5233              	.LVL571:
 5234              		.loc 2 362 0
 5235 003a 3246     		mov	r2, r6
 5236 003c 0849     		ldr	r1, .L516+12
 5237 003e 2846     		mov	r0, r5
 5238 0040 FFF7FEFF 		bl	chprintf
 5239              	.LVL572:
 5240              		.loc 2 363 0
 5241 0044 2846     		mov	r0, r5
 5242 0046 009A     		ldr	r2, [sp]
 5243 0048 0649     		ldr	r1, .L516+16
 5244 004a FFF7FEFF 		bl	chprintf
ARM GAS  C:\Users\mathi\AppData\Local\Temp\cces8mGY.s 			page 93


 5245              	.LVL573:
 5246 004e E1E7     		b	.L510
 5247              	.LVL574:
 5248              	.L515:
 5249              	.LBE316:
 5250              	.LBE315:
 5251              		.loc 2 364 0
 5252 0050 FFF7FEFF 		bl	__stack_chk_fail
 5253              	.LVL575:
 5254              	.L517:
 5255              		.align	2
 5256              	.L516:
 5257 0054 00000000 		.word	__stack_chk_guard
 5258 0058 00000000 		.word	.LC105
 5259 005c 10000000 		.word	.LC106
 5260 0060 30000000 		.word	.LC107
 5261 0064 4C000000 		.word	.LC108
 5262              		.cfi_endproc
 5263              	.LFE275:
 5264              		.size	cmd_mem, .-cmd_mem
 5265              		.section	.text.cmd_melody_play,"ax",%progbits
 5266              		.align	1
 5267              		.p2align 4,,15
 5268              		.syntax unified
 5269              		.thumb
 5270              		.thumb_func
 5271              		.fpu fpv4-sp-d16
 5272              		.type	cmd_melody_play, %function
 5273              	cmd_melody_play:
 5274              	.LFB273:
 5275              		.loc 2 318 0
 5276              		.cfi_startproc
 5277              		@ args = 0, pretend = 0, frame = 8
 5278              		@ frame_needed = 0, uses_anonymous_args = 0
 5279              	.LVL576:
 5280 0000 30B5     		push	{r4, r5, lr}
 5281              		.cfi_def_cfa_offset 12
 5282              		.cfi_offset 4, -12
 5283              		.cfi_offset 5, -8
 5284              		.cfi_offset 14, -4
 5285 0002 2F4D     		ldr	r5, .L525
 5286 0004 83B0     		sub	sp, sp, #12
 5287              		.cfi_def_cfa_offset 24
 5288              		.loc 2 318 0
 5289 0006 2B68     		ldr	r3, [r5]
 5290 0008 0193     		str	r3, [sp, #4]
 5291              		.loc 2 320 0
 5292 000a 0129     		cmp	r1, #1
 5293 000c 46D0     		beq	.L519
 5294 000e 0446     		mov	r4, r0
 5295              	.LVL577:
 5296              	.LBB319:
 5297              	.LBB320:
 5298              		.loc 2 321 0
 5299 0010 2C49     		ldr	r1, .L525+4
 5300              	.LVL578:
 5301 0012 FFF7FEFF 		bl	chprintf
ARM GAS  C:\Users\mathi\AppData\Local\Temp\cces8mGY.s 			page 94


 5302              	.LVL579:
 5303              		.loc 2 322 0
 5304 0016 2C49     		ldr	r1, .L525+8
 5305 0018 2046     		mov	r0, r4
 5306 001a FFF7FEFF 		bl	chprintf
 5307              	.LVL580:
 5308              		.loc 2 323 0
 5309 001e 2B49     		ldr	r1, .L525+12
 5310 0020 2046     		mov	r0, r4
 5311 0022 FFF7FEFF 		bl	chprintf
 5312              	.LVL581:
 5313              		.loc 2 324 0
 5314 0026 2A49     		ldr	r1, .L525+16
 5315 0028 2046     		mov	r0, r4
 5316 002a FFF7FEFF 		bl	chprintf
 5317              	.LVL582:
 5318              		.loc 2 325 0
 5319 002e 2949     		ldr	r1, .L525+20
 5320 0030 2046     		mov	r0, r4
 5321 0032 FFF7FEFF 		bl	chprintf
 5322              	.LVL583:
 5323              		.loc 2 326 0
 5324 0036 2849     		ldr	r1, .L525+24
 5325 0038 2046     		mov	r0, r4
 5326 003a FFF7FEFF 		bl	chprintf
 5327              	.LVL584:
 5328              		.loc 2 327 0
 5329 003e 2749     		ldr	r1, .L525+28
 5330 0040 2046     		mov	r0, r4
 5331 0042 FFF7FEFF 		bl	chprintf
 5332              	.LVL585:
 5333              		.loc 2 328 0
 5334 0046 2649     		ldr	r1, .L525+32
 5335 0048 2046     		mov	r0, r4
 5336 004a FFF7FEFF 		bl	chprintf
 5337              	.LVL586:
 5338              		.loc 2 329 0
 5339 004e 2549     		ldr	r1, .L525+36
 5340 0050 2046     		mov	r0, r4
 5341 0052 FFF7FEFF 		bl	chprintf
 5342              	.LVL587:
 5343              		.loc 2 330 0
 5344 0056 2449     		ldr	r1, .L525+40
 5345 0058 2046     		mov	r0, r4
 5346 005a FFF7FEFF 		bl	chprintf
 5347              	.LVL588:
 5348              		.loc 2 331 0
 5349 005e 2349     		ldr	r1, .L525+44
 5350 0060 2046     		mov	r0, r4
 5351 0062 FFF7FEFF 		bl	chprintf
 5352              	.LVL589:
 5353              		.loc 2 332 0
 5354 0066 2249     		ldr	r1, .L525+48
 5355 0068 2046     		mov	r0, r4
 5356 006a FFF7FEFF 		bl	chprintf
 5357              	.LVL590:
 5358              		.loc 2 333 0
ARM GAS  C:\Users\mathi\AppData\Local\Temp\cces8mGY.s 			page 95


 5359 006e 2149     		ldr	r1, .L525+52
 5360 0070 2046     		mov	r0, r4
 5361 0072 FFF7FEFF 		bl	chprintf
 5362              	.LVL591:
 5363              		.loc 2 334 0
 5364 0076 2049     		ldr	r1, .L525+56
 5365 0078 2046     		mov	r0, r4
 5366 007a FFF7FEFF 		bl	chprintf
 5367              	.LVL592:
 5368              		.loc 2 335 0
 5369 007e 1F49     		ldr	r1, .L525+60
 5370 0080 2046     		mov	r0, r4
 5371 0082 FFF7FEFF 		bl	chprintf
 5372              	.LVL593:
 5373              		.loc 2 336 0
 5374 0086 019A     		ldr	r2, [sp, #4]
 5375 0088 2B68     		ldr	r3, [r5]
 5376 008a 9A42     		cmp	r2, r3
 5377 008c 16D1     		bne	.L524
 5378 008e 1C49     		ldr	r1, .L525+64
 5379 0090 2046     		mov	r0, r4
 5380              	.LBE320:
 5381              	.LBE319:
 5382              		.loc 2 340 0
 5383 0092 03B0     		add	sp, sp, #12
 5384              		.cfi_remember_state
 5385              		.cfi_def_cfa_offset 12
 5386              		@ sp needed
 5387 0094 BDE83040 		pop	{r4, r5, lr}
 5388              		.cfi_restore 14
 5389              		.cfi_restore 5
 5390              		.cfi_restore 4
 5391              		.cfi_def_cfa_offset 0
 5392              	.LVL594:
 5393              	.LBB322:
 5394              	.LBB321:
 5395              		.loc 2 336 0
 5396 0098 FFF7FEBF 		b	chprintf
 5397              	.LVL595:
 5398              	.L519:
 5399              		.cfi_restore_state
 5400              	.LBE321:
 5401              	.LBE322:
 5402              		.loc 2 339 0
 5403 009c 1068     		ldr	r0, [r2]
 5404              	.LVL596:
 5405 009e FFF7FEFF 		bl	atoi
 5406              	.LVL597:
 5407 00a2 019A     		ldr	r2, [sp, #4]
 5408 00a4 2B68     		ldr	r3, [r5]
 5409 00a6 9A42     		cmp	r2, r3
 5410 00a8 08D1     		bne	.L524
 5411 00aa 0138     		subs	r0, r0, #1
 5412 00ac C0B2     		uxtb	r0, r0
 5413 00ae 0022     		movs	r2, #0
 5414 00b0 0221     		movs	r1, #2
 5415              		.loc 2 340 0
ARM GAS  C:\Users\mathi\AppData\Local\Temp\cces8mGY.s 			page 96


 5416 00b2 03B0     		add	sp, sp, #12
 5417              		.cfi_remember_state
 5418              		.cfi_def_cfa_offset 12
 5419              		@ sp needed
 5420 00b4 BDE83040 		pop	{r4, r5, lr}
 5421              		.cfi_restore 14
 5422              		.cfi_restore 5
 5423              		.cfi_restore 4
 5424              		.cfi_def_cfa_offset 0
 5425              		.loc 2 339 0
 5426 00b8 FFF7FEBF 		b	playMelody
 5427              	.LVL598:
 5428              	.L524:
 5429              		.cfi_restore_state
 5430 00bc FFF7FEFF 		bl	__stack_chk_fail
 5431              	.LVL599:
 5432              	.L526:
 5433              		.align	2
 5434              	.L525:
 5435 00c0 00000000 		.word	__stack_chk_guard
 5436 00c4 00000000 		.word	.LC109
 5437 00c8 24000000 		.word	.LC110
 5438 00cc 3C000000 		.word	.LC111
 5439 00d0 58000000 		.word	.LC112
 5440 00d4 74000000 		.word	.LC113
 5441 00d8 84000000 		.word	.LC114
 5442 00dc 90000000 		.word	.LC115
 5443 00e0 A4000000 		.word	.LC116
 5444 00e4 B8000000 		.word	.LC117
 5445 00e8 CC000000 		.word	.LC118
 5446 00ec E0000000 		.word	.LC119
 5447 00f0 F0000000 		.word	.LC120
 5448 00f4 10010000 		.word	.LC121
 5449 00f8 20010000 		.word	.LC122
 5450 00fc 30010000 		.word	.LC123
 5451 0100 44010000 		.word	.LC124
 5452              		.cfi_endproc
 5453              	.LFE273:
 5454              		.size	cmd_melody_play, .-cmd_melody_play
 5455              		.section	.text.cmd_sound_file_volume,"ax",%progbits
 5456              		.align	1
 5457              		.p2align 4,,15
 5458              		.syntax unified
 5459              		.thumb
 5460              		.thumb_func
 5461              		.fpu fpv4-sp-d16
 5462              		.type	cmd_sound_file_volume, %function
 5463              	cmd_sound_file_volume:
 5464              	.LFB272:
 5465              		.loc 2 307 0
 5466              		.cfi_startproc
 5467              		@ args = 0, pretend = 0, frame = 8
 5468              		@ frame_needed = 0, uses_anonymous_args = 0
 5469              	.LVL600:
 5470 0000 10B5     		push	{r4, lr}
 5471              		.cfi_def_cfa_offset 8
 5472              		.cfi_offset 4, -8
ARM GAS  C:\Users\mathi\AppData\Local\Temp\cces8mGY.s 			page 97


 5473              		.cfi_offset 14, -4
 5474 0002 0F4C     		ldr	r4, .L534
 5475 0004 82B0     		sub	sp, sp, #8
 5476              		.cfi_def_cfa_offset 16
 5477              		.loc 2 307 0
 5478 0006 2368     		ldr	r3, [r4]
 5479 0008 0193     		str	r3, [sp, #4]
 5480              		.loc 2 309 0
 5481 000a 0129     		cmp	r1, #1
 5482 000c 09D0     		beq	.L528
 5483              		.loc 2 310 0
 5484 000e 019A     		ldr	r2, [sp, #4]
 5485              	.LVL601:
 5486 0010 2368     		ldr	r3, [r4]
 5487 0012 9A42     		cmp	r2, r3
 5488 0014 12D1     		bne	.L533
 5489 0016 0B49     		ldr	r1, .L534+4
 5490              	.LVL602:
 5491              		.loc 2 315 0
 5492 0018 02B0     		add	sp, sp, #8
 5493              		.cfi_remember_state
 5494              		.cfi_def_cfa_offset 8
 5495              		@ sp needed
 5496 001a BDE81040 		pop	{r4, lr}
 5497              		.cfi_restore 14
 5498              		.cfi_restore 4
 5499              		.cfi_def_cfa_offset 0
 5500              		.loc 2 310 0
 5501 001e FFF7FEBF 		b	chprintf
 5502              	.LVL603:
 5503              	.L528:
 5504              		.cfi_restore_state
 5505              	.LBB325:
 5506              	.LBB326:
 5507              		.loc 2 314 0
 5508 0022 1068     		ldr	r0, [r2]
 5509              	.LVL604:
 5510 0024 FFF7FEFF 		bl	atoi
 5511              	.LVL605:
 5512 0028 019A     		ldr	r2, [sp, #4]
 5513 002a 2368     		ldr	r3, [r4]
 5514 002c 9A42     		cmp	r2, r3
 5515 002e 05D1     		bne	.L533
 5516 0030 C0B2     		uxtb	r0, r0
 5517              	.LBE326:
 5518              	.LBE325:
 5519              		.loc 2 315 0
 5520 0032 02B0     		add	sp, sp, #8
 5521              		.cfi_remember_state
 5522              		.cfi_def_cfa_offset 8
 5523              		@ sp needed
 5524 0034 BDE81040 		pop	{r4, lr}
 5525              		.cfi_restore 14
 5526              		.cfi_restore 4
 5527              		.cfi_def_cfa_offset 0
 5528              	.LBB328:
 5529              	.LBB327:
ARM GAS  C:\Users\mathi\AppData\Local\Temp\cces8mGY.s 			page 98


 5530              		.loc 2 314 0
 5531 0038 FFF7FEBF 		b	setSoundFileVolume
 5532              	.LVL606:
 5533              	.L533:
 5534              		.cfi_restore_state
 5535 003c FFF7FEFF 		bl	__stack_chk_fail
 5536              	.LVL607:
 5537              	.L535:
 5538              		.align	2
 5539              	.L534:
 5540 0040 00000000 		.word	__stack_chk_guard
 5541 0044 00000000 		.word	.LC125
 5542              	.LBE327:
 5543              	.LBE328:
 5544              		.cfi_endproc
 5545              	.LFE272:
 5546              		.size	cmd_sound_file_volume, .-cmd_sound_file_volume
 5547              		.section	.text.cmd_sound_file_play,"ax",%progbits
 5548              		.align	1
 5549              		.p2align 4,,15
 5550              		.syntax unified
 5551              		.thumb
 5552              		.thumb_func
 5553              		.fpu fpv4-sp-d16
 5554              		.type	cmd_sound_file_play, %function
 5555              	cmd_sound_file_play:
 5556              	.LFB270:
 5557              		.loc 2 286 0
 5558              		.cfi_startproc
 5559              		@ args = 0, pretend = 0, frame = 8
 5560              		@ frame_needed = 0, uses_anonymous_args = 0
 5561              	.LVL608:
 5562 0000 10B5     		push	{r4, lr}
 5563              		.cfi_def_cfa_offset 8
 5564              		.cfi_offset 4, -8
 5565              		.cfi_offset 14, -4
 5566 0002 0E4B     		ldr	r3, .L543
 5567 0004 82B0     		sub	sp, sp, #8
 5568              		.cfi_def_cfa_offset 16
 5569              		.loc 2 286 0
 5570 0006 1C68     		ldr	r4, [r3]
 5571 0008 0194     		str	r4, [sp, #4]
 5572              		.loc 2 288 0
 5573 000a 0129     		cmp	r1, #1
 5574 000c 09D0     		beq	.L537
 5575              		.loc 2 289 0
 5576 000e 019A     		ldr	r2, [sp, #4]
 5577              	.LVL609:
 5578 0010 1B68     		ldr	r3, [r3]
 5579 0012 9A42     		cmp	r2, r3
 5580 0014 10D1     		bne	.L542
 5581 0016 0A49     		ldr	r1, .L543+4
 5582              	.LVL610:
 5583              		.loc 2 295 0
 5584 0018 02B0     		add	sp, sp, #8
 5585              		.cfi_remember_state
 5586              		.cfi_def_cfa_offset 8
ARM GAS  C:\Users\mathi\AppData\Local\Temp\cces8mGY.s 			page 99


 5587              		@ sp needed
 5588 001a BDE81040 		pop	{r4, lr}
 5589              		.cfi_restore 14
 5590              		.cfi_restore 4
 5591              		.cfi_def_cfa_offset 0
 5592              		.loc 2 289 0
 5593 001e FFF7FEBF 		b	chprintf
 5594              	.LVL611:
 5595              	.L537:
 5596              		.cfi_restore_state
 5597              	.LBB331:
 5598              	.LBB332:
 5599              		.loc 2 293 0
 5600 0022 0199     		ldr	r1, [sp, #4]
 5601              	.LVL612:
 5602 0024 1B68     		ldr	r3, [r3]
 5603 0026 9942     		cmp	r1, r3
 5604 0028 06D1     		bne	.L542
 5605 002a 1068     		ldr	r0, [r2]
 5606              	.LVL613:
 5607 002c 0221     		movs	r1, #2
 5608              	.LBE332:
 5609              	.LBE331:
 5610              		.loc 2 295 0
 5611 002e 02B0     		add	sp, sp, #8
 5612              		.cfi_remember_state
 5613              		.cfi_def_cfa_offset 8
 5614              		@ sp needed
 5615 0030 BDE81040 		pop	{r4, lr}
 5616              		.cfi_restore 14
 5617              		.cfi_restore 4
 5618              		.cfi_def_cfa_offset 0
 5619              	.LBB334:
 5620              	.LBB333:
 5621              		.loc 2 293 0
 5622 0034 FFF7FEBF 		b	playSoundFile
 5623              	.LVL614:
 5624              	.L542:
 5625              		.cfi_restore_state
 5626 0038 FFF7FEFF 		bl	__stack_chk_fail
 5627              	.LVL615:
 5628              	.L544:
 5629              		.align	2
 5630              	.L543:
 5631 003c 00000000 		.word	__stack_chk_guard
 5632 0040 00000000 		.word	.LC126
 5633              	.LBE333:
 5634              	.LBE334:
 5635              		.cfi_endproc
 5636              	.LFE270:
 5637              		.size	cmd_sound_file_play, .-cmd_sound_file_play
 5638              		.section	.text.cmd_atan2,"ax",%progbits
 5639              		.align	1
 5640              		.p2align 4,,15
 5641              		.syntax unified
 5642              		.thumb
 5643              		.thumb_func
ARM GAS  C:\Users\mathi\AppData\Local\Temp\cces8mGY.s 			page 100


 5644              		.fpu fpv4-sp-d16
 5645              		.type	cmd_atan2, %function
 5646              	cmd_atan2:
 5647              	.LFB280:
 5648              		.loc 2 462 0
 5649              		.cfi_startproc
 5650              		@ args = 0, pretend = 0, frame = 32
 5651              		@ frame_needed = 0, uses_anonymous_args = 0
 5652              	.LVL616:
 5653 0000 2DE9F041 		push	{r4, r5, r6, r7, r8, lr}
 5654              		.cfi_def_cfa_offset 24
 5655              		.cfi_offset 4, -24
 5656              		.cfi_offset 5, -20
 5657              		.cfi_offset 6, -16
 5658              		.cfi_offset 7, -12
 5659              		.cfi_offset 8, -8
 5660              		.cfi_offset 14, -4
 5661 0004 3D4C     		ldr	r4, .L561
 5662 0006 8AB0     		sub	sp, sp, #40
 5663              		.cfi_def_cfa_offset 64
 5664              		.loc 2 462 0
 5665 0008 0F46     		mov	r7, r1
 5666 000a 2368     		ldr	r3, [r4]
 5667 000c 0993     		str	r3, [sp, #36]
 5668 000e 0546     		mov	r5, r0
 5669              		.loc 2 465 0
 5670 0010 02A8     		add	r0, sp, #8
 5671              	.LVL617:
 5672              		.loc 2 462 0
 5673 0012 1646     		mov	r6, r2
 5674              		.loc 2 465 0
 5675 0014 FFF7FEFF 		bl	chTMObjectInit
 5676              	.LVL618:
 5677              		.loc 2 467 0
 5678 0018 032F     		cmp	r7, #3
 5679 001a 0AD0     		beq	.L546
 5680              		.loc 2 468 0
 5681 001c 2846     		mov	r0, r5
 5682 001e 3849     		ldr	r1, .L561+4
 5683 0020 FFF7FEFF 		bl	chprintf
 5684              	.LVL619:
 5685              	.L545:
 5686              		.loc 2 491 0
 5687 0024 099A     		ldr	r2, [sp, #36]
 5688 0026 2368     		ldr	r3, [r4]
 5689 0028 9A42     		cmp	r2, r3
 5690 002a 65D1     		bne	.L559
 5691 002c 0AB0     		add	sp, sp, #40
 5692              		.cfi_remember_state
 5693              		.cfi_def_cfa_offset 24
 5694              		@ sp needed
 5695 002e BDE8F081 		pop	{r4, r5, r6, r7, r8, pc}
 5696              	.LVL620:
 5697              	.L546:
 5698              		.cfi_restore_state
 5699              		.loc 2 470 0
 5700 0032 7068     		ldr	r0, [r6, #4]
ARM GAS  C:\Users\mathi\AppData\Local\Temp\cces8mGY.s 			page 101


 5701 0034 FFF7FEFF 		bl	atoi
 5702              	.LVL621:
 5703 0038 07B2     		sxth	r7, r0
 5704              	.LVL622:
 5705              		.loc 2 471 0
 5706 003a B068     		ldr	r0, [r6, #8]
 5707 003c FFF7FEFF 		bl	atoi
 5708              	.LVL623:
 5709              		.loc 2 473 0
 5710 0040 3049     		ldr	r1, .L561+8
 5711              		.loc 2 471 0
 5712 0042 0FFA80F8 		sxth	r8, r0
 5713              	.LVL624:
 5714              		.loc 2 473 0
 5715 0046 3068     		ldr	r0, [r6]
 5716 0048 FFF7FEFF 		bl	strcmp
 5717              	.LVL625:
 5718              	.LBB355:
 5719              	.LBB356:
 5720              	.LBB357:
 5721              	.LBB358:
 5722              	.LBB359:
 5723              		.file 4 "../../lib/e-puck2_main-processor/ChibiOS//os/ext/CMSIS/include/core_cmFunc.h"
 5724              		.loc 4 546 0
 5725 004c 2023     		movs	r3, #32
 5726              	.LBE359:
 5727              	.LBE358:
 5728              	.LBE357:
 5729              	.LBE356:
 5730              	.LBE355:
 5731              		.loc 2 473 0
 5732 004e 0028     		cmp	r0, #0
 5733 0050 42D0     		beq	.L560
 5734              	.LVL626:
 5735              	.LBB364:
 5736              	.LBB365:
 5737              	.LBB366:
 5738              	.LBB367:
 5739              	.LBB368:
 5740              		.loc 4 546 0
 5741              		.syntax unified
 5742              	@ 546 "../../lib/e-puck2_main-processor/ChibiOS//os/ext/CMSIS/include/core_cmFunc.h" 1
 5743 0052 83F31188 		MSR basepri, r3
 5744              	@ 0 "" 2
 5745              	.LVL627:
 5746              		.thumb
 5747              		.syntax unified
 5748              	.LBE368:
 5749              	.LBE367:
 5750              	.LBE366:
 5751              		.file 5 "../../lib/e-puck2_main-processor/ChibiOS//os/rt/include/chsys.h"
 5752              		.loc 5 349 0
 5753 0056 FFF7FEFF 		bl	_stats_start_measure_crit_thd
 5754              	.LVL628:
 5755              		.loc 5 350 0
 5756 005a FFF7FEFF 		bl	_dbg_check_lock
 5757              	.LVL629:
ARM GAS  C:\Users\mathi\AppData\Local\Temp\cces8mGY.s 			page 102


 5758              	.LBE365:
 5759              	.LBE364:
 5760              		.loc 2 481 0
 5761 005e 02A8     		add	r0, sp, #8
 5762 0060 FFF7FEFF 		bl	chTMStartMeasurementX
 5763              	.LVL630:
 5764              		.loc 2 482 0
 5765 0064 07EE908A 		vmov	s15, r8	@ int
 5766 0068 F8EEE70A 		vcvt.f32.s32	s1, s15
 5767 006c 07EE907A 		vmov	s15, r7	@ int
 5768 0070 B8EEE70A 		vcvt.f32.s32	s0, s15
 5769 0074 FFF7FEFF 		bl	atan2f
 5770              	.LVL631:
 5771 0078 DFED237A 		vldr.32	s15, .L561+12
 5772 007c 9FED237A 		vldr.32	s14, .L561+16
 5773 0080 20EE270A 		vmul.f32	s0, s0, s15
 5774              		.loc 2 483 0
 5775 0084 02A8     		add	r0, sp, #8
 5776              		.loc 2 482 0
 5777 0086 C0EE077A 		vdiv.f32	s15, s0, s14
 5778 008a FDEEE77A 		vcvt.s32.f32	s15, s15
 5779 008e 17EE903A 		vmov	r3, s15	@ int
 5780 0092 1EB2     		sxth	r6, r3
 5781              	.LVL632:
 5782              	.L558:
 5783              		.loc 2 483 0
 5784 0094 FFF7FEFF 		bl	chTMStopMeasurementX
 5785              	.LVL633:
 5786              	.LBB369:
 5787              	.LBB370:
 5788              		.loc 5 360 0
 5789 0098 FFF7FEFF 		bl	_dbg_check_unlock
 5790              	.LVL634:
 5791              		.loc 5 361 0
 5792 009c FFF7FEFF 		bl	_stats_stop_measure_crit_thd
 5793              	.LVL635:
 5794              		.loc 5 367 0
 5795 00a0 1B4B     		ldr	r3, .L561+20
 5796 00a2 1A68     		ldr	r2, [r3]
 5797 00a4 9A42     		cmp	r2, r3
 5798 00a6 07D0     		beq	.L551
 5799 00a8 9969     		ldr	r1, [r3, #24]
 5800 00aa 9368     		ldr	r3, [r2, #8]
 5801 00ac 8A68     		ldr	r2, [r1, #8]
 5802 00ae 9A42     		cmp	r2, r3
 5803 00b0 02D2     		bcs	.L551
 5804 00b2 1848     		ldr	r0, .L561+24
 5805 00b4 FFF7FEFF 		bl	chSysHalt
 5806              	.LVL636:
 5807              	.L551:
 5808              	.LBB371:
 5809              	.LBB372:
 5810              	.LBB373:
 5811              		.loc 4 546 0
 5812 00b8 0023     		movs	r3, #0
 5813              		.syntax unified
 5814              	@ 546 "../../lib/e-puck2_main-processor/ChibiOS//os/ext/CMSIS/include/core_cmFunc.h" 1
ARM GAS  C:\Users\mathi\AppData\Local\Temp\cces8mGY.s 			page 103


 5815 00ba 83F31188 		MSR basepri, r3
 5816              	@ 0 "" 2
 5817              	.LVL637:
 5818              		.thumb
 5819              		.syntax unified
 5820              	.LBE373:
 5821              	.LBE372:
 5822              	.LBE371:
 5823              	.LBE370:
 5824              	.LBE369:
 5825              		.loc 2 488 0
 5826 00be 1649     		ldr	r1, .L561+28
 5827 00c0 0096     		str	r6, [sp]
 5828 00c2 3A46     		mov	r2, r7
 5829 00c4 4346     		mov	r3, r8
 5830 00c6 2846     		mov	r0, r5
 5831 00c8 FFF7FEFF 		bl	chprintf
 5832              	.LVL638:
 5833              		.loc 2 489 0
 5834 00cc 2846     		mov	r0, r5
 5835 00ce 049A     		ldr	r2, [sp, #16]
 5836 00d0 1249     		ldr	r1, .L561+32
 5837 00d2 FFF7FEFF 		bl	chprintf
 5838              	.LVL639:
 5839              		.loc 2 491 0
 5840 00d6 A5E7     		b	.L545
 5841              	.LVL640:
 5842              	.L560:
 5843              	.LBB374:
 5844              	.LBB363:
 5845              	.LBB362:
 5846              	.LBB361:
 5847              	.LBB360:
 5848              		.loc 4 546 0
 5849              		.syntax unified
 5850              	@ 546 "../../lib/e-puck2_main-processor/ChibiOS//os/ext/CMSIS/include/core_cmFunc.h" 1
 5851 00d8 83F31188 		MSR basepri, r3
 5852              	@ 0 "" 2
 5853              	.LVL641:
 5854              		.thumb
 5855              		.syntax unified
 5856              	.LBE360:
 5857              	.LBE361:
 5858              	.LBE362:
 5859              		.loc 5 349 0
 5860 00dc FFF7FEFF 		bl	_stats_start_measure_crit_thd
 5861              	.LVL642:
 5862              		.loc 5 350 0
 5863 00e0 FFF7FEFF 		bl	_dbg_check_lock
 5864              	.LVL643:
 5865              	.LBE363:
 5866              	.LBE374:
 5867              		.loc 2 475 0
 5868 00e4 02A8     		add	r0, sp, #8
 5869 00e6 FFF7FEFF 		bl	chTMStartMeasurementX
 5870              	.LVL644:
 5871              		.loc 2 476 0
ARM GAS  C:\Users\mathi\AppData\Local\Temp\cces8mGY.s 			page 104


 5872 00ea 4146     		mov	r1, r8
 5873 00ec 3846     		mov	r0, r7
 5874 00ee FFF7FEFF 		bl	aseba_atan2
 5875              	.LVL645:
 5876 00f2 0646     		mov	r6, r0
 5877              	.LVL646:
 5878              		.loc 2 477 0
 5879 00f4 02A8     		add	r0, sp, #8
 5880 00f6 CDE7     		b	.L558
 5881              	.LVL647:
 5882              	.L559:
 5883              		.loc 2 491 0
 5884 00f8 FFF7FEFF 		bl	__stack_chk_fail
 5885              	.LVL648:
 5886              	.L562:
 5887              		.align	2
 5888              	.L561:
 5889 00fc 00000000 		.word	__stack_chk_guard
 5890 0100 00000000 		.word	.LC127
 5891 0104 44000000 		.word	.LC128
 5892 0108 00000047 		.word	1191182336
 5893 010c DB0F4940 		.word	1078530011
 5894 0110 00000000 		.word	ch
 5895 0114 00000000 		.word	.LANCHOR9
 5896 0118 48000000 		.word	.LC129
 5897 011c 60000000 		.word	.LC130
 5898              		.cfi_endproc
 5899              	.LFE280:
 5900              		.size	cmd_atan2, .-cmd_atan2
 5901              		.section	.text.cmd_sqrt,"ax",%progbits
 5902              		.align	1
 5903              		.p2align 4,,15
 5904              		.syntax unified
 5905              		.thumb
 5906              		.thumb_func
 5907              		.fpu fpv4-sp-d16
 5908              		.type	cmd_sqrt, %function
 5909              	cmd_sqrt:
 5910              	.LFB279:
 5911              		.loc 2 417 0
 5912              		.cfi_startproc
 5913              		@ args = 0, pretend = 0, frame = 32
 5914              		@ frame_needed = 0, uses_anonymous_args = 0
 5915              	.LVL649:
 5916 0000 2DE9F041 		push	{r4, r5, r6, r7, r8, lr}
 5917              		.cfi_def_cfa_offset 24
 5918              		.cfi_offset 4, -24
 5919              		.cfi_offset 5, -20
 5920              		.cfi_offset 6, -16
 5921              		.cfi_offset 7, -12
 5922              		.cfi_offset 8, -8
 5923              		.cfi_offset 14, -4
 5924 0004 2DED028B 		vpush.64	{d8}
 5925              		.cfi_def_cfa_offset 32
 5926              		.cfi_offset 80, -32
 5927              		.cfi_offset 81, -28
 5928 0008 494C     		ldr	r4, .L587
ARM GAS  C:\Users\mathi\AppData\Local\Temp\cces8mGY.s 			page 105


 5929 000a 88B0     		sub	sp, sp, #32
 5930              		.cfi_def_cfa_offset 64
 5931              		.loc 2 417 0
 5932 000c 0D46     		mov	r5, r1
 5933 000e 2368     		ldr	r3, [r4]
 5934 0010 0793     		str	r3, [sp, #28]
 5935 0012 0646     		mov	r6, r0
 5936              		.loc 2 421 0
 5937 0014 6846     		mov	r0, sp
 5938              	.LVL650:
 5939              		.loc 2 417 0
 5940 0016 1746     		mov	r7, r2
 5941              		.loc 2 421 0
 5942 0018 FFF7FEFF 		bl	chTMObjectInit
 5943              	.LVL651:
 5944              		.loc 2 423 0
 5945 001c 022D     		cmp	r5, #2
 5946 001e 0CD0     		beq	.L564
 5947              		.loc 2 424 0
 5948 0020 3046     		mov	r0, r6
 5949 0022 4449     		ldr	r1, .L587+4
 5950 0024 FFF7FEFF 		bl	chprintf
 5951              	.LVL652:
 5952              	.L563:
 5953              		.loc 2 457 0
 5954 0028 079A     		ldr	r2, [sp, #28]
 5955 002a 2368     		ldr	r3, [r4]
 5956 002c 9A42     		cmp	r2, r3
 5957 002e 7DD1     		bne	.L583
 5958 0030 08B0     		add	sp, sp, #32
 5959              		.cfi_remember_state
 5960              		.cfi_def_cfa_offset 32
 5961              		@ sp needed
 5962 0032 BDEC028B 		vldm	sp!, {d8}
 5963              		.cfi_restore 80
 5964              		.cfi_restore 81
 5965              		.cfi_def_cfa_offset 24
 5966 0036 BDE8F081 		pop	{r4, r5, r6, r7, r8, pc}
 5967              	.LVL653:
 5968              	.L564:
 5969              		.cfi_restore_state
 5970              		.loc 2 427 0
 5971 003a 7868     		ldr	r0, [r7, #4]
 5972 003c FFF7FEFF 		bl	atoi
 5973              	.LVL654:
 5974              		.loc 2 429 0
 5975 0040 3D68     		ldr	r5, [r7]
 5976              	.LVL655:
 5977 0042 3D49     		ldr	r1, .L587+8
 5978              		.loc 2 427 0
 5979 0044 8046     		mov	r8, r0
 5980              	.LVL656:
 5981              		.loc 2 429 0
 5982 0046 2846     		mov	r0, r5
 5983 0048 FFF7FEFF 		bl	strcmp
 5984              	.LVL657:
 5985 004c 0028     		cmp	r0, #0
ARM GAS  C:\Users\mathi\AppData\Local\Temp\cces8mGY.s 			page 106


 5986 004e 59D0     		beq	.L584
 5987              		.loc 2 435 0
 5988 0050 2846     		mov	r0, r5
 5989 0052 3A49     		ldr	r1, .L587+12
 5990 0054 FFF7FEFF 		bl	strcmp
 5991              	.LVL658:
 5992              		.loc 2 427 0
 5993 0058 1FFA88F5 		uxth	r5, r8
 5994              	.LBB405:
 5995              	.LBB406:
 5996              	.LBB407:
 5997              	.LBB408:
 5998              	.LBB409:
 5999              		.loc 4 546 0
 6000 005c 2023     		movs	r3, #32
 6001              	.LBE409:
 6002              	.LBE408:
 6003              	.LBE407:
 6004              	.LBE406:
 6005              	.LBE405:
 6006              		.loc 2 435 0
 6007 005e 0028     		cmp	r0, #0
 6008 0060 36D0     		beq	.L585
 6009              	.LVL659:
 6010              	.LBB414:
 6011              	.LBB415:
 6012              	.LBB416:
 6013              	.LBB417:
 6014              	.LBB418:
 6015              		.loc 4 546 0
 6016              		.syntax unified
 6017              	@ 546 "../../lib/e-puck2_main-processor/ChibiOS//os/ext/CMSIS/include/core_cmFunc.h" 1
 6018 0062 83F31188 		MSR basepri, r3
 6019              	@ 0 "" 2
 6020              	.LVL660:
 6021              		.thumb
 6022              		.syntax unified
 6023              	.LBE418:
 6024              	.LBE417:
 6025              	.LBE416:
 6026              		.loc 5 349 0
 6027 0066 FFF7FEFF 		bl	_stats_start_measure_crit_thd
 6028              	.LVL661:
 6029              		.loc 5 350 0
 6030 006a FFF7FEFF 		bl	_dbg_check_lock
 6031              	.LVL662:
 6032              	.LBE415:
 6033              	.LBE414:
 6034              		.loc 2 443 0
 6035 006e 6846     		mov	r0, sp
 6036 0070 FFF7FEFF 		bl	chTMStartMeasurementX
 6037              	.LVL663:
 6038              		.loc 2 444 0
 6039 0074 07EE905A 		vmov	s15, r5	@ int
 6040 0078 B8EE670A 		vcvt.f32.u32	s0, s15
 6041              	.LVL664:
 6042              		.loc 2 445 0
ARM GAS  C:\Users\mathi\AppData\Local\Temp\cces8mGY.s 			page 107


 6043              		.syntax unified
 6044              	@ 445 "../../lib/e-puck2_main-processor/src/cmd.c" 1
 6045 007c B1EEC00A 		vsqrt.f32 s0, s0
 6046              	@ 0 "" 2
 6047              	.LVL665:
 6048              		.loc 2 449 0
 6049              		.thumb
 6050              		.syntax unified
 6051 0080 BCEEC00A 		vcvt.u32.f32	s0, s0
 6052              	.LVL666:
 6053              		.loc 2 450 0
 6054 0084 6846     		mov	r0, sp
 6055              		.loc 2 449 0
 6056 0086 10EE103A 		vmov	r3, s0	@ int
 6057              	.L582:
 6058 008a 9DB2     		uxth	r5, r3
 6059              	.L580:
 6060              	.LVL667:
 6061              		.loc 2 450 0
 6062 008c FFF7FEFF 		bl	chTMStopMeasurementX
 6063              	.LVL668:
 6064              	.LBB419:
 6065              	.LBB420:
 6066              		.loc 5 360 0
 6067 0090 FFF7FEFF 		bl	_dbg_check_unlock
 6068              	.LVL669:
 6069              		.loc 5 361 0
 6070 0094 FFF7FEFF 		bl	_stats_stop_measure_crit_thd
 6071              	.LVL670:
 6072              		.loc 5 367 0
 6073 0098 294B     		ldr	r3, .L587+16
 6074 009a 1A68     		ldr	r2, [r3]
 6075 009c 9A42     		cmp	r2, r3
 6076 009e 07D0     		beq	.L572
 6077 00a0 9969     		ldr	r1, [r3, #24]
 6078 00a2 9368     		ldr	r3, [r2, #8]
 6079 00a4 8A68     		ldr	r2, [r1, #8]
 6080 00a6 9A42     		cmp	r2, r3
 6081 00a8 02D2     		bcs	.L572
 6082 00aa 2648     		ldr	r0, .L587+20
 6083 00ac FFF7FEFF 		bl	chSysHalt
 6084              	.LVL671:
 6085              	.L572:
 6086              	.LBB421:
 6087              	.LBB422:
 6088              	.LBB423:
 6089              		.loc 4 546 0
 6090 00b0 0023     		movs	r3, #0
 6091              		.syntax unified
 6092              	@ 546 "../../lib/e-puck2_main-processor/ChibiOS//os/ext/CMSIS/include/core_cmFunc.h" 1
 6093 00b2 83F31188 		MSR basepri, r3
 6094              	@ 0 "" 2
 6095              	.LVL672:
 6096              		.thumb
 6097              		.syntax unified
 6098              	.LBE423:
 6099              	.LBE422:
ARM GAS  C:\Users\mathi\AppData\Local\Temp\cces8mGY.s 			page 108


 6100              	.LBE421:
 6101              	.LBE420:
 6102              	.LBE419:
 6103              		.loc 2 454 0
 6104 00b6 2449     		ldr	r1, .L587+24
 6105 00b8 1FFA88F2 		uxth	r2, r8
 6106 00bc 2B46     		mov	r3, r5
 6107 00be 3046     		mov	r0, r6
 6108 00c0 FFF7FEFF 		bl	chprintf
 6109              	.LVL673:
 6110              		.loc 2 455 0
 6111 00c4 3046     		mov	r0, r6
 6112 00c6 029A     		ldr	r2, [sp, #8]
 6113 00c8 2049     		ldr	r1, .L587+28
 6114 00ca FFF7FEFF 		bl	chprintf
 6115              	.LVL674:
 6116              		.loc 2 457 0
 6117 00ce ABE7     		b	.L563
 6118              	.LVL675:
 6119              	.L585:
 6120              	.LBB424:
 6121              	.LBB413:
 6122              	.LBB412:
 6123              	.LBB411:
 6124              	.LBB410:
 6125              		.loc 4 546 0
 6126              		.syntax unified
 6127              	@ 546 "../../lib/e-puck2_main-processor/ChibiOS//os/ext/CMSIS/include/core_cmFunc.h" 1
 6128 00d0 83F31188 		MSR basepri, r3
 6129              	@ 0 "" 2
 6130              	.LVL676:
 6131              		.thumb
 6132              		.syntax unified
 6133              	.LBE410:
 6134              	.LBE411:
 6135              	.LBE412:
 6136              		.loc 5 349 0
 6137 00d4 FFF7FEFF 		bl	_stats_start_measure_crit_thd
 6138              	.LVL677:
 6139              		.loc 5 350 0
 6140 00d8 FFF7FEFF 		bl	_dbg_check_lock
 6141              	.LVL678:
 6142              	.LBE413:
 6143              	.LBE424:
 6144              		.loc 2 437 0
 6145 00dc 6846     		mov	r0, sp
 6146 00de FFF7FEFF 		bl	chTMStartMeasurementX
 6147              	.LVL679:
 6148              		.loc 2 438 0
 6149 00e2 07EE905A 		vmov	s15, r5	@ int
 6150 00e6 B8EE670A 		vcvt.f32.u32	s0, s15
 6151 00ea B5EE400A 		vcmp.f32	s0, #0
 6152 00ee F1EE10FA 		vmrs	APSR_nzcv, FPSCR
 6153 00f2 B1EEC08A 		vsqrt.f32	s16, s0
 6154 00f6 16D4     		bmi	.L586
 6155              	.L570:
 6156              		.loc 2 439 0
ARM GAS  C:\Users\mathi\AppData\Local\Temp\cces8mGY.s 			page 109


 6157 00f8 6846     		mov	r0, sp
 6158              		.loc 2 438 0
 6159 00fa BCEEC88A 		vcvt.u32.f32	s16, s16
 6160 00fe 18EE103A 		vmov	r3, s16	@ int
 6161 0102 C2E7     		b	.L582
 6162              	.L584:
 6163              	.LVL680:
 6164              	.LBB425:
 6165              	.LBB426:
 6166              	.LBB427:
 6167              	.LBB428:
 6168              	.LBB429:
 6169              		.loc 4 546 0
 6170 0104 2023     		movs	r3, #32
 6171              		.syntax unified
 6172              	@ 546 "../../lib/e-puck2_main-processor/ChibiOS//os/ext/CMSIS/include/core_cmFunc.h" 1
 6173 0106 83F31188 		MSR basepri, r3
 6174              	@ 0 "" 2
 6175              	.LVL681:
 6176              		.thumb
 6177              		.syntax unified
 6178              	.LBE429:
 6179              	.LBE428:
 6180              	.LBE427:
 6181              		.loc 5 349 0
 6182 010a FFF7FEFF 		bl	_stats_start_measure_crit_thd
 6183              	.LVL682:
 6184              		.loc 5 350 0
 6185 010e FFF7FEFF 		bl	_dbg_check_lock
 6186              	.LVL683:
 6187              	.LBE426:
 6188              	.LBE425:
 6189              		.loc 2 431 0
 6190 0112 6846     		mov	r0, sp
 6191 0114 FFF7FEFF 		bl	chTMStartMeasurementX
 6192              	.LVL684:
 6193              		.loc 2 432 0
 6194 0118 0FFA88F0 		sxth	r0, r8
 6195 011c FFF7FEFF 		bl	aseba_sqrt
 6196              	.LVL685:
 6197 0120 85B2     		uxth	r5, r0
 6198              	.LVL686:
 6199              		.loc 2 433 0
 6200 0122 6846     		mov	r0, sp
 6201 0124 B2E7     		b	.L580
 6202              	.LVL687:
 6203              	.L586:
 6204              		.loc 2 438 0
 6205 0126 FFF7FEFF 		bl	sqrtf
 6206              	.LVL688:
 6207 012a E5E7     		b	.L570
 6208              	.LVL689:
 6209              	.L583:
 6210              		.loc 2 457 0
 6211 012c FFF7FEFF 		bl	__stack_chk_fail
 6212              	.LVL690:
 6213              	.L588:
ARM GAS  C:\Users\mathi\AppData\Local\Temp\cces8mGY.s 			page 110


 6214              		.align	2
 6215              	.L587:
 6216 0130 00000000 		.word	__stack_chk_guard
 6217 0134 00000000 		.word	.LC131
 6218 0138 44000000 		.word	.LC128
 6219 013c 54000000 		.word	.LC132
 6220 0140 00000000 		.word	ch
 6221 0144 00000000 		.word	.LANCHOR9
 6222 0148 58000000 		.word	.LC133
 6223 014c 60000000 		.word	.LC130
 6224              		.cfi_endproc
 6225              	.LFE279:
 6226              		.size	cmd_sqrt, .-cmd_sqrt
 6227              		.section	.text.cmd_sdc,"ax",%progbits
 6228              		.align	1
 6229              		.p2align 4,,15
 6230              		.global	cmd_sdc
 6231              		.syntax unified
 6232              		.thumb
 6233              		.thumb_func
 6234              		.fpu fpv4-sp-d16
 6235              		.type	cmd_sdc, %function
 6236              	cmd_sdc:
 6237              	.LFB308:
 6238              		.loc 2 1031 0
 6239              		.cfi_startproc
 6240              		@ args = 0, pretend = 0, frame = 16
 6241              		@ frame_needed = 0, uses_anonymous_args = 0
 6242              	.LVL691:
 6243 0000 2DE9F04F 		push	{r4, r5, r6, r7, r8, r9, r10, fp, lr}
 6244              		.cfi_def_cfa_offset 36
 6245              		.cfi_offset 4, -36
 6246              		.cfi_offset 5, -32
 6247              		.cfi_offset 6, -28
 6248              		.cfi_offset 7, -24
 6249              		.cfi_offset 8, -20
 6250              		.cfi_offset 9, -16
 6251              		.cfi_offset 10, -12
 6252              		.cfi_offset 11, -8
 6253              		.cfi_offset 14, -4
 6254 0004 DFF86C93 		ldr	r9, .L673+104
 6255 0008 87B0     		sub	sp, sp, #28
 6256              		.cfi_def_cfa_offset 64
 6257              		.loc 2 1031 0
 6258 000a D9F80030 		ldr	r3, [r9]
 6259 000e 0593     		str	r3, [sp, #20]
 6260              		.loc 2 1036 0
 6261 0010 0129     		cmp	r1, #1
 6262              		.loc 2 1031 0
 6263 0012 0292     		str	r2, [sp, #8]
 6264              		.loc 2 1036 0
 6265 0014 40F06D81 		bne	.L661
 6266              		.loc 2 1042 0
 6267 0018 BC4D     		ldr	r5, .L673
 6268 001a 2B68     		ldr	r3, [r5]
 6269 001c 0746     		mov	r7, r0
 6270 001e 1B68     		ldr	r3, [r3]
ARM GAS  C:\Users\mathi\AppData\Local\Temp\cces8mGY.s 			page 111


 6271 0020 2846     		mov	r0, r5
 6272              	.LVL692:
 6273 0022 9847     		blx	r3
 6274              	.LVL693:
 6275 0024 0028     		cmp	r0, #0
 6276 0026 00F0EA80 		beq	.L662
 6277              		.loc 2 1048 0
 6278 002a B949     		ldr	r1, .L673+4
 6279 002c 3846     		mov	r0, r7
 6280 002e FFF7FEFF 		bl	chprintf
 6281              	.LVL694:
 6282              		.loc 2 1049 0
 6283 0032 2846     		mov	r0, r5
 6284 0034 FFF7FEFF 		bl	sdcConnect
 6285              	.LVL695:
 6286 0038 0028     		cmp	r0, #0
 6287 003a 40F0ED80 		bne	.L663
 6288              	.LVL696:
 6289              	.LBB562:
 6290              	.LBB563:
 6291              		.loc 2 1054 0
 6292 003e B549     		ldr	r1, .L673+8
 6293 0040 3846     		mov	r0, r7
 6294 0042 FFF7FEFF 		bl	chprintf
 6295              	.LVL697:
 6296              		.loc 2 1055 0
 6297 0046 D5E90601 		ldrd	r0, r1, [r5, #24]
 6298 004a D5E90832 		ldrd	r3, r2, [r5, #32]
 6299 004e CDE90010 		strd	r1, r0, [sp]
 6300 0052 B149     		ldr	r1, .L673+12
 6301 0054 3846     		mov	r0, r7
 6302 0056 FFF7FEFF 		bl	chprintf
 6303              	.LVL698:
 6304              		.loc 2 1057 0
 6305 005a D5E90201 		ldrd	r0, r1, [r5, #8]
 6306 005e D5E90432 		ldrd	r3, r2, [r5, #16]
 6307 0062 CDE90010 		strd	r1, r0, [sp]
 6308 0066 AD49     		ldr	r1, .L673+16
 6309 0068 3846     		mov	r0, r7
 6310 006a FFF7FEFF 		bl	chprintf
 6311              	.LVL699:
 6312              		.loc 2 1059 0
 6313 006e 2B6B     		ldr	r3, [r5, #48]
 6314 0070 AB4A     		ldr	r2, .L673+20
 6315 0072 AC49     		ldr	r1, .L673+24
 6316 0074 03F00303 		and	r3, r3, #3
 6317 0078 3846     		mov	r0, r7
 6318 007a 52F82320 		ldr	r2, [r2, r3, lsl #2]
 6319 007e FFF7FEFF 		bl	chprintf
 6320              	.LVL700:
 6321              		.loc 2 1060 0
 6322 0082 AA6A     		ldr	r2, [r5, #40]
 6323 0084 A849     		ldr	r1, .L673+28
 6324 0086 D20A     		lsrs	r2, r2, #11
 6325 0088 3846     		mov	r0, r7
 6326 008a FFF7FEFF 		bl	chprintf
 6327              	.LVL701:
ARM GAS  C:\Users\mathi\AppData\Local\Temp\cces8mGY.s 			page 112


 6328              		.loc 2 1065 0
 6329 008e 029B     		ldr	r3, [sp, #8]
 6330 0090 A649     		ldr	r1, .L673+32
 6331 0092 1C68     		ldr	r4, [r3]
 6332              		.loc 2 1063 0
 6333 0094 AB6A     		ldr	r3, [r5, #40]
 6334              		.loc 2 1065 0
 6335 0096 2046     		mov	r0, r4
 6336              		.loc 2 1063 0
 6337 0098 4FEA932B 		lsr	fp, r3, #10
 6338              	.LVL702:
 6339              		.loc 2 1065 0
 6340 009c FFF7FEFF 		bl	strcmp
 6341              	.LVL703:
 6342 00a0 0028     		cmp	r0, #0
 6343 00a2 00F0C680 		beq	.L596
 6344              		.loc 2 1066 0
 6345 00a6 A249     		ldr	r1, .L673+36
 6346 00a8 2046     		mov	r0, r4
 6347 00aa FFF7FEFF 		bl	strcmp
 6348              	.LVL704:
 6349              		.loc 2 1065 0
 6350 00ae 0028     		cmp	r0, #0
 6351 00b0 00F0BF80 		beq	.L596
 6352              		.loc 2 1127 0
 6353 00b4 9F49     		ldr	r1, .L673+40
 6354 00b6 2046     		mov	r0, r4
 6355 00b8 FFF7FEFF 		bl	strcmp
 6356              	.LVL705:
 6357 00bc 0028     		cmp	r0, #0
 6358 00be 40F02282 		bne	.L614
 6359              	.LVL706:
 6360              	.L613:
 6361              	.LBB564:
 6362              		.loc 2 1131 0
 6363 00c2 9D4C     		ldr	r4, .L673+44
 6364 00c4 4FF48062 		mov	r2, #1024
 6365 00c8 AA21     		movs	r1, #170
 6366 00ca 2046     		mov	r0, r4
 6367 00cc FFF7FEFF 		bl	memset
 6368              	.LVL707:
 6369              		.loc 2 1132 0
 6370 00d0 9A49     		ldr	r1, .L673+48
 6371 00d2 3846     		mov	r0, r7
 6372 00d4 FFF7FEFF 		bl	chprintf
 6373              	.LVL708:
 6374              		.loc 2 1133 0
 6375 00d8 2246     		mov	r2, r4
 6376 00da 0223     		movs	r3, #2
 6377 00dc 5946     		mov	r1, fp
 6378 00de 8B48     		ldr	r0, .L673
 6379 00e0 FFF7FEFF 		bl	sdcWrite
 6380              	.LVL709:
 6381 00e4 0028     		cmp	r0, #0
 6382 00e6 40F0F480 		bne	.L604
 6383              		.loc 2 1137 0
 6384 00ea 9549     		ldr	r1, .L673+52
ARM GAS  C:\Users\mathi\AppData\Local\Temp\cces8mGY.s 			page 113


 6385 00ec 3846     		mov	r0, r7
 6386 00ee FFF7FEFF 		bl	chprintf
 6387              	.LVL710:
 6388              		.loc 2 1139 0
 6389 00f2 4FF48062 		mov	r2, #1024
 6390 00f6 5521     		movs	r1, #85
 6391 00f8 2046     		mov	r0, r4
 6392 00fa FFF7FEFF 		bl	memset
 6393              	.LVL711:
 6394              		.loc 2 1140 0
 6395 00fe 9149     		ldr	r1, .L673+56
 6396 0100 3846     		mov	r0, r7
 6397 0102 FFF7FEFF 		bl	chprintf
 6398              	.LVL712:
 6399              		.loc 2 1141 0
 6400 0106 2B68     		ldr	r3, [r5]
 6401 0108 8048     		ldr	r0, .L673
 6402 010a 1E69     		ldr	r6, [r3, #16]
 6403 010c 2246     		mov	r2, r4
 6404 010e 0123     		movs	r3, #1
 6405 0110 5946     		mov	r1, fp
 6406 0112 B047     		blx	r6
 6407              	.LVL713:
 6408 0114 0028     		cmp	r0, #0
 6409 0116 40F0DC80 		bne	.L604
 6410              		.loc 2 1145 0
 6411 011a 8949     		ldr	r1, .L673+52
 6412 011c 3846     		mov	r0, r7
 6413 011e FFF7FEFF 		bl	chprintf
 6414              	.LVL714:
 6415 0122 621E     		subs	r2, r4, #1
 6416 0124 04F2FF11 		addw	r1, r4, #511
 6417 0128 0823     		movs	r3, #8
 6418              	.LVL715:
 6419              	.L615:
 6420              		.loc 2 1148 0
 6421 012a 02F8013F 		strb	r3, [r2, #1]!
 6422              	.LVL716:
 6423 012e 0133     		adds	r3, r3, #1
 6424              		.loc 2 1147 0
 6425 0130 9142     		cmp	r1, r2
 6426 0132 DBB2     		uxtb	r3, r3
 6427 0134 F9D1     		bne	.L615
 6428              		.loc 2 1149 0
 6429 0136 8149     		ldr	r1, .L673+48
 6430 0138 3846     		mov	r0, r7
 6431 013a FFF7FEFF 		bl	chprintf
 6432              	.LVL717:
 6433              		.loc 2 1150 0
 6434 013e 0223     		movs	r3, #2
 6435 0140 7D4A     		ldr	r2, .L673+44
 6436 0142 7248     		ldr	r0, .L673
 6437 0144 5946     		mov	r1, fp
 6438 0146 FFF7FEFF 		bl	sdcWrite
 6439              	.LVL718:
 6440 014a 0646     		mov	r6, r0
 6441 014c 0028     		cmp	r0, #0
ARM GAS  C:\Users\mathi\AppData\Local\Temp\cces8mGY.s 			page 114


 6442 014e 40F0C080 		bne	.L604
 6443              		.loc 2 1154 0
 6444 0152 7B49     		ldr	r1, .L673+52
 6445 0154 3846     		mov	r0, r7
 6446 0156 FFF7FEFF 		bl	chprintf
 6447              	.LVL719:
 6448              		.loc 2 1156 0
 6449 015a 4FF48062 		mov	r2, #1024
 6450 015e 3146     		mov	r1, r6
 6451 0160 7548     		ldr	r0, .L673+44
 6452 0162 FFF7FEFF 		bl	memset
 6453              	.LVL720:
 6454              		.loc 2 1157 0
 6455 0166 7749     		ldr	r1, .L673+56
 6456 0168 3846     		mov	r0, r7
 6457 016a FFF7FEFF 		bl	chprintf
 6458              	.LVL721:
 6459              		.loc 2 1158 0
 6460 016e 2B68     		ldr	r3, [r5]
 6461 0170 714A     		ldr	r2, .L673+44
 6462 0172 1D69     		ldr	r5, [r3, #16]
 6463 0174 6548     		ldr	r0, .L673
 6464 0176 0123     		movs	r3, #1
 6465 0178 5946     		mov	r1, fp
 6466 017a A847     		blx	r5
 6467              	.LVL722:
 6468 017c 0028     		cmp	r0, #0
 6469 017e 40F0A880 		bne	.L604
 6470              		.loc 2 1162 0
 6471 0182 6F49     		ldr	r1, .L673+52
 6472 0184 3846     		mov	r0, r7
 6473 0186 FFF7FEFF 		bl	chprintf
 6474              	.LVL723:
 6475              	.LBE564:
 6476              		.loc 2 1165 0
 6477 018a 029B     		ldr	r3, [sp, #8]
 6478 018c 6E49     		ldr	r1, .L673+60
 6479 018e 1D68     		ldr	r5, [r3]
 6480 0190 2846     		mov	r0, r5
 6481 0192 FFF7FEFF 		bl	strcmp
 6482              	.LVL724:
 6483 0196 30B1     		cbz	r0, .L618
 6484              		.loc 2 1166 0
 6485 0198 2846     		mov	r0, r5
 6486 019a 6549     		ldr	r1, .L673+36
 6487 019c FFF7FEFF 		bl	strcmp
 6488              	.LVL725:
 6489              		.loc 2 1165 0
 6490 01a0 0028     		cmp	r0, #0
 6491 01a2 40F09A80 		bne	.L600
 6492              	.L618:
 6493              	.LBB565:
 6494              		.loc 2 1179 0
 6495 01a6 4FF48062 		mov	r2, #1024
 6496 01aa 0021     		movs	r1, #0
 6497 01ac 6248     		ldr	r0, .L673+44
 6498              		.loc 2 1184 0
ARM GAS  C:\Users\mathi\AppData\Local\Temp\cces8mGY.s 			page 115


 6499 01ae 674E     		ldr	r6, .L673+64
 6500              		.loc 2 1179 0
 6501 01b0 FFF7FEFF 		bl	memset
 6502              	.LVL726:
 6503              		.loc 2 1180 0
 6504 01b4 0021     		movs	r1, #0
 6505 01b6 4FF48062 		mov	r2, #1024
 6506 01ba 6548     		ldr	r0, .L673+68
 6507 01bc FFF7FEFF 		bl	memset
 6508              	.LVL727:
 6509 01c0 6449     		ldr	r1, .L673+72
 6510 01c2 C4F10804 		rsb	r4, r4, #8
 6511 01c6 01F58065 		add	r5, r1, #1024
 6512              		.loc 2 1184 0
 6513 01ca 5420     		movs	r0, #84
 6514              	.LVL728:
 6515              	.L617:
 6516 01cc 6218     		adds	r2, r4, r1
 6517 01ce 9308     		lsrs	r3, r2, #2
 6518 01d0 A6FB03C3 		umull	ip, r3, r6, r3
 6519 01d4 9B08     		lsrs	r3, r3, #2
 6520 01d6 00FB1323 		mls	r3, r0, r3, r2
 6521 01da 01F8013F 		strb	r3, [r1, #1]!
 6522              	.LVL729:
 6523              		.loc 2 1183 0
 6524 01de 8D42     		cmp	r5, r1
 6525 01e0 F4D1     		bne	.L617
 6526              		.loc 2 1187 0
 6527 01e2 0223     		movs	r3, #2
 6528 01e4 544A     		ldr	r2, .L673+44
 6529 01e6 4948     		ldr	r0, .L673
 6530 01e8 5946     		mov	r1, fp
 6531              	.LVL730:
 6532 01ea FFF7FEFF 		bl	sdcWrite
 6533              	.LVL731:
 6534 01ee 0028     		cmp	r0, #0
 6535 01f0 00F0E981 		beq	.L619
 6536              		.loc 2 1188 0
 6537 01f4 3846     		mov	r0, r7
 6538 01f6 5849     		ldr	r1, .L673+76
 6539 01f8 FFF7FEFF 		bl	chprintf
 6540              	.LVL732:
 6541 01fc 6DE0     		b	.L600
 6542              	.LVL733:
 6543              	.L662:
 6544              	.LBE565:
 6545              	.LBE563:
 6546              	.LBE562:
 6547              		.loc 2 1043 0
 6548 01fe 059A     		ldr	r2, [sp, #20]
 6549 0200 D9F80030 		ldr	r3, [r9]
 6550 0204 9A42     		cmp	r2, r3
 6551 0206 40F02582 		bne	.L660
 6552 020a 5449     		ldr	r1, .L673+80
 6553 020c 3846     		mov	r0, r7
 6554              		.loc 2 1241 0
 6555 020e 07B0     		add	sp, sp, #28
ARM GAS  C:\Users\mathi\AppData\Local\Temp\cces8mGY.s 			page 116


 6556              		.cfi_remember_state
 6557              		.cfi_def_cfa_offset 36
 6558              		@ sp needed
 6559 0210 BDE8F04F 		pop	{r4, r5, r6, r7, r8, r9, r10, fp, lr}
 6560              		.cfi_restore 14
 6561              		.cfi_restore 11
 6562              		.cfi_restore 10
 6563              		.cfi_restore 9
 6564              		.cfi_restore 8
 6565              		.cfi_restore 7
 6566              		.cfi_restore 6
 6567              		.cfi_restore 5
 6568              		.cfi_restore 4
 6569              		.cfi_def_cfa_offset 0
 6570              	.LVL734:
 6571              		.loc 2 1043 0
 6572 0214 FFF7FEBF 		b	chprintf
 6573              	.LVL735:
 6574              	.L663:
 6575              		.cfi_restore_state
 6576              		.loc 2 1050 0
 6577 0218 059A     		ldr	r2, [sp, #20]
 6578 021a D9F80030 		ldr	r3, [r9]
 6579 021e 9A42     		cmp	r2, r3
 6580 0220 40F01882 		bne	.L660
 6581 0224 4E49     		ldr	r1, .L673+84
 6582 0226 3846     		mov	r0, r7
 6583              		.loc 2 1241 0
 6584 0228 07B0     		add	sp, sp, #28
 6585              		.cfi_remember_state
 6586              		.cfi_def_cfa_offset 36
 6587              		@ sp needed
 6588 022a BDE8F04F 		pop	{r4, r5, r6, r7, r8, r9, r10, fp, lr}
 6589              		.cfi_restore 14
 6590              		.cfi_restore 11
 6591              		.cfi_restore 10
 6592              		.cfi_restore 9
 6593              		.cfi_restore 8
 6594              		.cfi_restore 7
 6595              		.cfi_restore 6
 6596              		.cfi_restore 5
 6597              		.cfi_restore 4
 6598              		.cfi_def_cfa_offset 0
 6599              	.LVL736:
 6600              		.loc 2 1043 0
 6601 022e FFF7FEBF 		b	chprintf
 6602              	.LVL737:
 6603              	.L596:
 6604              		.cfi_restore_state
 6605              	.LBB703:
 6606              	.LBB700:
 6607              		.loc 2 1069 0
 6608 0232 4C49     		ldr	r1, .L673+88
 6609 0234 3846     		mov	r0, r7
 6610 0236 FFF7FEFF 		bl	chprintf
 6611              	.LVL738:
 6612              	.LBB566:
ARM GAS  C:\Users\mathi\AppData\Local\Temp\cces8mGY.s 			page 117


 6613              	.LBB567:
 6614              	.LBB568:
 6615              	.LBB569:
 6616              	.LBB570:
 6617              	.LBB571:
 6618              	.LBB572:
 6619              		.loc 4 546 0
 6620 023a 2023     		movs	r3, #32
 6621              		.syntax unified
 6622              	@ 546 "../../lib/e-puck2_main-processor/ChibiOS//os/ext/CMSIS/include/core_cmFunc.h" 1
 6623 023c 83F31188 		MSR basepri, r3
 6624              	@ 0 "" 2
 6625              	.LVL739:
 6626              		.thumb
 6627              		.syntax unified
 6628              	.LBE572:
 6629              	.LBE571:
 6630              	.LBE570:
 6631              	.LBE569:
 6632              	.LBE568:
 6633              	.LBB574:
 6634              	.LBB575:
 6635              		.file 6 "../../lib/e-puck2_main-processor/ChibiOS//os/rt/include/chvt.h"
 6636              		.loc 6 231 0
 6637 0240 494C     		ldr	r4, .L673+92
 6638              	.LBE575:
 6639              	.LBE574:
 6640              	.LBB577:
 6641              	.LBB573:
 6642              		.loc 5 349 0
 6643 0242 FFF7FEFF 		bl	_stats_start_measure_crit_thd
 6644              	.LVL740:
 6645              		.loc 5 350 0
 6646 0246 FFF7FEFF 		bl	_dbg_check_lock
 6647              	.LVL741:
 6648              	.LBE573:
 6649              	.LBE577:
 6650              	.LBB578:
 6651              	.LBB576:
 6652              		.loc 6 231 0
 6653 024a A36A     		ldr	r3, [r4, #40]
 6654 024c 1E46     		mov	r6, r3
 6655              	.LBE576:
 6656              	.LBE578:
 6657              	.LBB579:
 6658              	.LBB580:
 6659              		.loc 5 360 0
 6660 024e FFF7FEFF 		bl	_dbg_check_unlock
 6661              	.LVL742:
 6662              		.loc 5 361 0
 6663 0252 FFF7FEFF 		bl	_stats_stop_measure_crit_thd
 6664              	.LVL743:
 6665              		.loc 5 367 0
 6666 0256 2368     		ldr	r3, [r4]
 6667 0258 A342     		cmp	r3, r4
 6668 025a 07D0     		beq	.L598
 6669 025c A269     		ldr	r2, [r4, #24]
ARM GAS  C:\Users\mathi\AppData\Local\Temp\cces8mGY.s 			page 118


 6670 025e 9B68     		ldr	r3, [r3, #8]
 6671 0260 9268     		ldr	r2, [r2, #8]
 6672 0262 9A42     		cmp	r2, r3
 6673 0264 02D2     		bcs	.L598
 6674 0266 4148     		ldr	r0, .L673+96
 6675 0268 FFF7FEFF 		bl	chSysHalt
 6676              	.LVL744:
 6677              	.L598:
 6678              	.LBB581:
 6679              	.LBB582:
 6680              	.LBB583:
 6681              		.loc 4 546 0
 6682 026c 4FF00008 		mov	r8, #0
 6683              		.syntax unified
 6684              	@ 546 "../../lib/e-puck2_main-processor/ChibiOS//os/ext/CMSIS/include/core_cmFunc.h" 1
 6685 0270 88F31188 		MSR basepri, r8
 6686              	@ 0 "" 2
 6687              	.LVL745:
 6688              		.thumb
 6689              		.syntax unified
 6690              	.LBE583:
 6691              	.LBE582:
 6692              	.LBE581:
 6693              	.LBE580:
 6694              	.LBE579:
 6695              	.LBE567:
 6696              	.LBE566:
 6697              		.loc 2 1074 0
 6698 0274 DFF8C0A0 		ldr	r10, .L673+44
 6699              		.loc 2 1072 0
 6700 0278 0397     		str	r7, [sp, #12]
 6701 027a 3746     		mov	r7, r6
 6702              	.LVL746:
 6703 027c 1FE0     		b	.L602
 6704              	.LVL747:
 6705              	.L599:
 6706              		.loc 2 1078 0
 6707 027e 08F10108 		add	r8, r8, #1
 6708              	.LVL748:
 6709              	.LBB584:
 6710              	.LBB585:
 6711              	.LBB586:
 6712              	.LBB587:
 6713              	.LBB588:
 6714              	.LBB589:
 6715              	.LBB590:
 6716              	.LBB591:
 6717              		.loc 4 546 0
 6718 0282 2023     		movs	r3, #32
 6719              		.syntax unified
 6720              	@ 546 "../../lib/e-puck2_main-processor/ChibiOS//os/ext/CMSIS/include/core_cmFunc.h" 1
 6721 0284 83F31188 		MSR basepri, r3
 6722              	@ 0 "" 2
 6723              	.LVL749:
 6724              		.thumb
 6725              		.syntax unified
 6726              	.LBE591:
ARM GAS  C:\Users\mathi\AppData\Local\Temp\cces8mGY.s 			page 119


 6727              	.LBE590:
 6728              	.LBE589:
 6729              		.loc 5 349 0
 6730 0288 FFF7FEFF 		bl	_stats_start_measure_crit_thd
 6731              	.LVL750:
 6732              		.loc 5 350 0
 6733 028c FFF7FEFF 		bl	_dbg_check_lock
 6734              	.LVL751:
 6735              	.LBE588:
 6736              	.LBE587:
 6737              	.LBB592:
 6738              	.LBB593:
 6739              		.loc 6 231 0
 6740 0290 A66A     		ldr	r6, [r4, #40]
 6741              	.LBE593:
 6742              	.LBE592:
 6743              	.LBB594:
 6744              	.LBB595:
 6745              		.loc 5 360 0
 6746 0292 FFF7FEFF 		bl	_dbg_check_unlock
 6747              	.LVL752:
 6748              		.loc 5 361 0
 6749 0296 FFF7FEFF 		bl	_stats_stop_measure_crit_thd
 6750              	.LVL753:
 6751              		.loc 5 367 0
 6752 029a 2368     		ldr	r3, [r4]
 6753 029c A342     		cmp	r3, r4
 6754 029e 07D0     		beq	.L601
 6755 02a0 A269     		ldr	r2, [r4, #24]
 6756 02a2 9B68     		ldr	r3, [r3, #8]
 6757 02a4 9268     		ldr	r2, [r2, #8]
 6758 02a6 9A42     		cmp	r2, r3
 6759 02a8 02D2     		bcs	.L601
 6760 02aa 3048     		ldr	r0, .L673+96
 6761 02ac FFF7FEFF 		bl	chSysHalt
 6762              	.LVL754:
 6763              	.L601:
 6764              	.LBB596:
 6765              	.LBB597:
 6766              	.LBB598:
 6767              		.loc 4 546 0
 6768 02b0 0023     		movs	r3, #0
 6769              		.syntax unified
 6770              	@ 546 "../../lib/e-puck2_main-processor/ChibiOS//os/ext/CMSIS/include/core_cmFunc.h" 1
 6771 02b2 83F31188 		MSR basepri, r3
 6772              	@ 0 "" 2
 6773              	.LVL755:
 6774              		.thumb
 6775              		.syntax unified
 6776              	.LBE598:
 6777              	.LBE597:
 6778              	.LBE596:
 6779              	.LBE595:
 6780              	.LBE594:
 6781              	.LBE586:
 6782              	.LBE585:
 6783              	.LBB599:
ARM GAS  C:\Users\mathi\AppData\Local\Temp\cces8mGY.s 			page 120


 6784              	.LBB600:
 6785              		.loc 6 288 0
 6786 02b6 F61B     		subs	r6, r6, r7
 6787              	.LBE600:
 6788              	.LBE599:
 6789              	.LBE584:
 6790              		.loc 2 1079 0
 6791 02b8 B6F57A7F 		cmp	r6, #1000
 6792 02bc 5CD2     		bcs	.L664
 6793              	.LVL756:
 6794              	.L602:
 6795              		.loc 2 1074 0
 6796 02be 2A68     		ldr	r2, [r5]
 6797 02c0 1248     		ldr	r0, .L673
 6798 02c2 1669     		ldr	r6, [r2, #16]
 6799 02c4 0123     		movs	r3, #1
 6800 02c6 5246     		mov	r2, r10
 6801 02c8 5946     		mov	r1, fp
 6802 02ca B047     		blx	r6
 6803              	.LVL757:
 6804 02cc 0028     		cmp	r0, #0
 6805 02ce D6D0     		beq	.L599
 6806              	.LVL758:
 6807              	.L657:
 6808 02d0 039F     		ldr	r7, [sp, #12]
 6809              	.LVL759:
 6810              	.L604:
 6811              		.loc 2 1075 0
 6812 02d2 2349     		ldr	r1, .L673+84
 6813 02d4 3846     		mov	r0, r7
 6814 02d6 FFF7FEFF 		bl	chprintf
 6815              	.LVL760:
 6816              	.L600:
 6817              		.loc 2 1240 0
 6818 02da 059A     		ldr	r2, [sp, #20]
 6819 02dc D9F80030 		ldr	r3, [r9]
 6820 02e0 9A42     		cmp	r2, r3
 6821 02e2 40F0B781 		bne	.L660
 6822 02e6 0948     		ldr	r0, .L673
 6823              	.LBE700:
 6824              	.LBE703:
 6825              		.loc 2 1241 0
 6826 02e8 07B0     		add	sp, sp, #28
 6827              		.cfi_remember_state
 6828              		.cfi_def_cfa_offset 36
