ARM GAS  C:\Users\mathi\AppData\Local\Temp\cc36u0DG.s 			page 1


   1              		.cpu cortex-m4
   2              		.eabi_attribute 27, 1
   3              		.eabi_attribute 28, 1
   4              		.eabi_attribute 20, 1
   5              		.eabi_attribute 21, 1
   6              		.eabi_attribute 23, 3
   7              		.eabi_attribute 24, 1
   8              		.eabi_attribute 25, 1
   9              		.eabi_attribute 26, 1
  10              		.eabi_attribute 30, 2
  11              		.eabi_attribute 34, 1
  12              		.eabi_attribute 18, 4
  13              		.file	"cmp.c"
  14              		.text
  15              	.Ltext0:
  16              		.cfi_sections	.debug_frame
  17              		.section	.text.cmp_init,"ax",%progbits
  18              		.align	1
  19              		.p2align 4,,15
  20              		.global	cmp_init
  21              		.syntax unified
  22              		.thumb
  23              		.thumb_func
  24              		.fpu fpv4-sp-d16
  25              		.type	cmp_init, %function
  26              	cmp_init:
  27              	.LFB10:
  28              		.file 1 "../../lib/e-puck2_main-processor/src/cmp/cmp.c"
  29              		.loc 1 232 0
  30              		.cfi_startproc
  31              		@ args = 0, pretend = 0, frame = 8
  32              		@ frame_needed = 0, uses_anonymous_args = 0
  33              	.LVL0:
  34 0000 30B5     		push	{r4, r5, lr}
  35              		.cfi_def_cfa_offset 12
  36              		.cfi_offset 4, -12
  37              		.cfi_offset 5, -8
  38              		.cfi_offset 14, -4
  39 0002 084C     		ldr	r4, .L6
  40              		.loc 1 236 0
  41 0004 C360     		str	r3, [r0, #12]
  42              		.loc 1 232 0
  43 0006 83B0     		sub	sp, sp, #12
  44              		.cfi_def_cfa_offset 24
  45              		.loc 1 232 0
  46 0008 2568     		ldr	r5, [r4]
  47 000a 0195     		str	r5, [sp, #4]
  48              		.loc 1 233 0
  49 000c 0025     		movs	r5, #0
  50 000e 0570     		strb	r5, [r0]
  51              		.loc 1 237 0
  52 0010 019D     		ldr	r5, [sp, #4]
  53 0012 2468     		ldr	r4, [r4]
  54 0014 A542     		cmp	r5, r4
  55              		.loc 1 235 0
  56 0016 C0E90112 		strd	r1, r2, [r0, #4]
  57              		.loc 1 237 0
ARM GAS  C:\Users\mathi\AppData\Local\Temp\cc36u0DG.s 			page 2


  58 001a 01D1     		bne	.L5
  59 001c 03B0     		add	sp, sp, #12
  60              		.cfi_remember_state
  61              		.cfi_def_cfa_offset 12
  62              		@ sp needed
  63 001e 30BD     		pop	{r4, r5, pc}
  64              	.L5:
  65              		.cfi_restore_state
  66 0020 FFF7FEFF 		bl	__stack_chk_fail
  67              	.LVL1:
  68              	.L7:
  69              		.align	2
  70              	.L6:
  71 0024 00000000 		.word	__stack_chk_guard
  72              		.cfi_endproc
  73              	.LFE10:
  74              		.size	cmp_init, .-cmp_init
  75              		.section	.text.cmp_version,"ax",%progbits
  76              		.align	1
  77              		.p2align 4,,15
  78              		.global	cmp_version
  79              		.syntax unified
  80              		.thumb
  81              		.thumb_func
  82              		.fpu fpv4-sp-d16
  83              		.type	cmp_version, %function
  84              	cmp_version:
  85              	.LFB11:
  86              		.loc 1 239 0
  87              		.cfi_startproc
  88              		@ args = 0, pretend = 0, frame = 8
  89              		@ frame_needed = 0, uses_anonymous_args = 0
  90 0000 00B5     		push	{lr}
  91              		.cfi_def_cfa_offset 4
  92              		.cfi_offset 14, -4
  93 0002 074B     		ldr	r3, .L12
  94 0004 83B0     		sub	sp, sp, #12
  95              		.cfi_def_cfa_offset 16
  96              		.loc 1 239 0
  97 0006 1A68     		ldr	r2, [r3]
  98 0008 0192     		str	r2, [sp, #4]
  99              		.loc 1 241 0
 100 000a 019A     		ldr	r2, [sp, #4]
 101 000c 1B68     		ldr	r3, [r3]
 102 000e 9A42     		cmp	r2, r3
 103 0010 03D1     		bne	.L11
 104 0012 0A20     		movs	r0, #10
 105 0014 03B0     		add	sp, sp, #12
 106              		.cfi_remember_state
 107              		.cfi_def_cfa_offset 4
 108              		@ sp needed
 109 0016 5DF804FB 		ldr	pc, [sp], #4
 110              	.L11:
 111              		.cfi_restore_state
 112 001a FFF7FEFF 		bl	__stack_chk_fail
 113              	.LVL2:
 114              	.L13:
ARM GAS  C:\Users\mathi\AppData\Local\Temp\cc36u0DG.s 			page 3


 115 001e 00BF     		.align	2
 116              	.L12:
 117 0020 00000000 		.word	__stack_chk_guard
 118              		.cfi_endproc
 119              	.LFE11:
 120              		.size	cmp_version, .-cmp_version
 121              		.section	.text.cmp_mp_version,"ax",%progbits
 122              		.align	1
 123              		.p2align 4,,15
 124              		.global	cmp_mp_version
 125              		.syntax unified
 126              		.thumb
 127              		.thumb_func
 128              		.fpu fpv4-sp-d16
 129              		.type	cmp_mp_version, %function
 130              	cmp_mp_version:
 131              	.LFB12:
 132              		.loc 1 243 0
 133              		.cfi_startproc
 134              		@ args = 0, pretend = 0, frame = 8
 135              		@ frame_needed = 0, uses_anonymous_args = 0
 136 0000 00B5     		push	{lr}
 137              		.cfi_def_cfa_offset 4
 138              		.cfi_offset 14, -4
 139 0002 074B     		ldr	r3, .L18
 140 0004 83B0     		sub	sp, sp, #12
 141              		.cfi_def_cfa_offset 16
 142              		.loc 1 243 0
 143 0006 1A68     		ldr	r2, [r3]
 144 0008 0192     		str	r2, [sp, #4]
 145              		.loc 1 245 0
 146 000a 019A     		ldr	r2, [sp, #4]
 147 000c 1B68     		ldr	r3, [r3]
 148 000e 9A42     		cmp	r2, r3
 149 0010 03D1     		bne	.L17
 150 0012 0520     		movs	r0, #5
 151 0014 03B0     		add	sp, sp, #12
 152              		.cfi_remember_state
 153              		.cfi_def_cfa_offset 4
 154              		@ sp needed
 155 0016 5DF804FB 		ldr	pc, [sp], #4
 156              	.L17:
 157              		.cfi_restore_state
 158 001a FFF7FEFF 		bl	__stack_chk_fail
 159              	.LVL3:
 160              	.L19:
 161 001e 00BF     		.align	2
 162              	.L18:
 163 0020 00000000 		.word	__stack_chk_guard
 164              		.cfi_endproc
 165              	.LFE12:
 166              		.size	cmp_mp_version, .-cmp_mp_version
 167              		.section	.text.cmp_strerror,"ax",%progbits
 168              		.align	1
 169              		.p2align 4,,15
 170              		.global	cmp_strerror
 171              		.syntax unified
ARM GAS  C:\Users\mathi\AppData\Local\Temp\cc36u0DG.s 			page 4


 172              		.thumb
 173              		.thumb_func
 174              		.fpu fpv4-sp-d16
 175              		.type	cmp_strerror, %function
 176              	cmp_strerror:
 177              	.LFB13:
 178              		.loc 1 247 0
 179              		.cfi_startproc
 180              		@ args = 0, pretend = 0, frame = 8
 181              		@ frame_needed = 0, uses_anonymous_args = 0
 182              	.LVL4:
 183 0000 00B5     		push	{lr}
 184              		.cfi_def_cfa_offset 4
 185              		.cfi_offset 14, -4
 186              		.loc 1 248 0
 187 0002 0278     		ldrb	r2, [r0]	@ zero_extendqisi2
 188              		.loc 1 247 0
 189 0004 0A4B     		ldr	r3, .L26
 190              		.loc 1 248 0
 191 0006 511E     		subs	r1, r2, #1
 192 0008 0E29     		cmp	r1, #14
 193              		.loc 1 247 0
 194 000a 83B0     		sub	sp, sp, #12
 195              		.cfi_def_cfa_offset 16
 196              		.loc 1 247 0
 197 000c 1868     		ldr	r0, [r3]
 198              	.LVL5:
 199              		.loc 1 249 0
 200 000e 98BF     		it	ls
 201 0010 0849     		ldrls	r1, .L26+4
 202              		.loc 1 247 0
 203 0012 0190     		str	r0, [sp, #4]
 204              		.loc 1 249 0
 205 0014 98BF     		it	ls
 206 0016 51F82200 		ldrls	r0, [r1, r2, lsl #2]
 207              		.loc 1 252 0
 208 001a 019A     		ldr	r2, [sp, #4]
 209 001c 1B68     		ldr	r3, [r3]
 210              		.loc 1 251 0
 211 001e 88BF     		it	hi
 212 0020 0548     		ldrhi	r0, .L26+8
 213              		.loc 1 252 0
 214 0022 9A42     		cmp	r2, r3
 215 0024 02D1     		bne	.L25
 216 0026 03B0     		add	sp, sp, #12
 217              		.cfi_remember_state
 218              		.cfi_def_cfa_offset 4
 219              		@ sp needed
 220 0028 5DF804FB 		ldr	pc, [sp], #4
 221              	.L25:
 222              		.cfi_restore_state
 223 002c FFF7FEFF 		bl	__stack_chk_fail
 224              	.LVL6:
 225              	.L27:
 226              		.align	2
 227              	.L26:
 228 0030 00000000 		.word	__stack_chk_guard
ARM GAS  C:\Users\mathi\AppData\Local\Temp\cc36u0DG.s 			page 5


 229 0034 00000000 		.word	.LANCHOR0
 230 0038 00000000 		.word	.LC0
 231              		.cfi_endproc
 232              	.LFE13:
 233              		.size	cmp_strerror, .-cmp_strerror
 234              		.section	.text.cmp_write_pfix,"ax",%progbits
 235              		.align	1
 236              		.p2align 4,,15
 237              		.global	cmp_write_pfix
 238              		.syntax unified
 239              		.thumb
 240              		.thumb_func
 241              		.fpu fpv4-sp-d16
 242              		.type	cmp_write_pfix, %function
 243              	cmp_write_pfix:
 244              	.LFB14:
 245              		.loc 1 254 0
 246              		.cfi_startproc
 247              		@ args = 0, pretend = 0, frame = 8
 248              		@ frame_needed = 0, uses_anonymous_args = 0
 249              	.LVL7:
 250 0000 70B5     		push	{r4, r5, r6, lr}
 251              		.cfi_def_cfa_offset 16
 252              		.cfi_offset 4, -16
 253              		.cfi_offset 5, -12
 254              		.cfi_offset 6, -8
 255              		.cfi_offset 14, -4
 256 0002 0F4C     		ldr	r4, .L35
 257 0004 82B0     		sub	sp, sp, #8
 258              		.cfi_def_cfa_offset 24
 259              		.loc 1 254 0
 260 0006 2368     		ldr	r3, [r4]
 261 0008 0193     		str	r3, [sp, #4]
 262              		.loc 1 255 0
 263 000a 0B06     		lsls	r3, r1, #24
 264              		.loc 1 254 0
 265 000c 0546     		mov	r5, r0
 266              		.loc 1 255 0
 267 000e 11D4     		bmi	.L29
 268              	.LVL8:
 269 0010 02AB     		add	r3, sp, #8
 270              	.LBB419:
 271              	.LBB420:
 272              	.LBB421:
 273              	.LBB422:
 274              		.loc 1 205 0
 275 0012 C668     		ldr	r6, [r0, #12]
 276 0014 03F8051D 		strb	r1, [r3, #-5]!
 277              	.LVL9:
 278 0018 0122     		movs	r2, #1
 279 001a 1946     		mov	r1, r3
 280              	.LVL10:
 281 001c B047     		blx	r6
 282              	.LVL11:
 283              	.LBE422:
 284              	.LBE421:
 285              		.loc 1 225 0
ARM GAS  C:\Users\mathi\AppData\Local\Temp\cc36u0DG.s 			page 6


 286 001e 0128     		cmp	r0, #1
 287 0020 02D0     		beq	.L30
 288              		.loc 1 228 0
 289 0022 0623     		movs	r3, #6
 290 0024 2B70     		strb	r3, [r5]
 291              		.loc 1 229 0
 292 0026 0020     		movs	r0, #0
 293              	.LVL12:
 294              	.L30:
 295              	.LBE420:
 296              	.LBE419:
 297              		.loc 1 260 0
 298 0028 019A     		ldr	r2, [sp, #4]
 299 002a 2368     		ldr	r3, [r4]
 300 002c 9A42     		cmp	r2, r3
 301 002e 05D1     		bne	.L34
 302 0030 02B0     		add	sp, sp, #8
 303              		.cfi_remember_state
 304              		.cfi_def_cfa_offset 16
 305              		@ sp needed
 306 0032 70BD     		pop	{r4, r5, r6, pc}
 307              	.LVL13:
 308              	.L29:
 309              		.cfi_restore_state
 310              		.loc 1 258 0
 311 0034 0523     		movs	r3, #5
 312 0036 0370     		strb	r3, [r0]
 313              		.loc 1 259 0
 314 0038 0020     		movs	r0, #0
 315              	.LVL14:
 316 003a F5E7     		b	.L30
 317              	.LVL15:
 318              	.L34:
 319              		.loc 1 260 0
 320 003c FFF7FEFF 		bl	__stack_chk_fail
 321              	.LVL16:
 322              	.L36:
 323              		.align	2
 324              	.L35:
 325 0040 00000000 		.word	__stack_chk_guard
 326              		.cfi_endproc
 327              	.LFE14:
 328              		.size	cmp_write_pfix, .-cmp_write_pfix
 329              		.section	.text.cmp_write_nfix,"ax",%progbits
 330              		.align	1
 331              		.p2align 4,,15
 332              		.global	cmp_write_nfix
 333              		.syntax unified
 334              		.thumb
 335              		.thumb_func
 336              		.fpu fpv4-sp-d16
 337              		.type	cmp_write_nfix, %function
 338              	cmp_write_nfix:
 339              	.LFB15:
 340              		.loc 1 262 0
 341              		.cfi_startproc
 342              		@ args = 0, pretend = 0, frame = 8
ARM GAS  C:\Users\mathi\AppData\Local\Temp\cc36u0DG.s 			page 7


 343              		@ frame_needed = 0, uses_anonymous_args = 0
 344              	.LVL17:
 345 0000 30B5     		push	{r4, r5, lr}
 346              		.cfi_def_cfa_offset 12
 347              		.cfi_offset 4, -12
 348              		.cfi_offset 5, -8
 349              		.cfi_offset 14, -4
 350              		.loc 1 263 0
 351 0002 CAB2     		uxtb	r2, r1
 352              		.loc 1 262 0
 353 0004 104C     		ldr	r4, .L44
 354              		.loc 1 263 0
 355 0006 02F12003 		add	r3, r2, #32
 356              		.loc 1 262 0
 357 000a 83B0     		sub	sp, sp, #12
 358              		.cfi_def_cfa_offset 24
 359              		.loc 1 263 0
 360 000c DBB2     		uxtb	r3, r3
 361              		.loc 1 262 0
 362 000e 2168     		ldr	r1, [r4]
 363              	.LVL18:
 364 0010 0191     		str	r1, [sp, #4]
 365              		.loc 1 263 0
 366 0012 1F2B     		cmp	r3, #31
 367              		.loc 1 262 0
 368 0014 0546     		mov	r5, r0
 369              		.loc 1 263 0
 370 0016 10D8     		bhi	.L38
 371              	.LVL19:
 372 0018 02A9     		add	r1, sp, #8
 373              	.LBB423:
 374              	.LBB424:
 375              	.LBB425:
 376              	.LBB426:
 377              		.loc 1 205 0
 378 001a C368     		ldr	r3, [r0, #12]
 379 001c 01F8052D 		strb	r2, [r1, #-5]!
 380              	.LVL20:
 381 0020 0122     		movs	r2, #1
 382              	.LVL21:
 383 0022 9847     		blx	r3
 384              	.LVL22:
 385              	.LBE426:
 386              	.LBE425:
 387              		.loc 1 225 0
 388 0024 0128     		cmp	r0, #1
 389 0026 02D0     		beq	.L39
 390              		.loc 1 228 0
 391 0028 0623     		movs	r3, #6
 392 002a 2B70     		strb	r3, [r5]
 393              		.loc 1 229 0
 394 002c 0020     		movs	r0, #0
 395              	.LVL23:
 396              	.L39:
 397              	.LBE424:
 398              	.LBE423:
 399              		.loc 1 268 0
ARM GAS  C:\Users\mathi\AppData\Local\Temp\cc36u0DG.s 			page 8


 400 002e 019A     		ldr	r2, [sp, #4]
 401 0030 2368     		ldr	r3, [r4]
 402 0032 9A42     		cmp	r2, r3
 403 0034 05D1     		bne	.L43
 404 0036 03B0     		add	sp, sp, #12
 405              		.cfi_remember_state
 406              		.cfi_def_cfa_offset 12
 407              		@ sp needed
 408 0038 30BD     		pop	{r4, r5, pc}
 409              	.LVL24:
 410              	.L38:
 411              		.cfi_restore_state
 412              		.loc 1 266 0
 413 003a 0523     		movs	r3, #5
 414 003c 0370     		strb	r3, [r0]
 415              		.loc 1 267 0
 416 003e 0020     		movs	r0, #0
 417              	.LVL25:
 418 0040 F5E7     		b	.L39
 419              	.L43:
 420              		.loc 1 268 0
 421 0042 FFF7FEFF 		bl	__stack_chk_fail
 422              	.LVL26:
 423              	.L45:
 424 0046 00BF     		.align	2
 425              	.L44:
 426 0048 00000000 		.word	__stack_chk_guard
 427              		.cfi_endproc
 428              	.LFE15:
 429              		.size	cmp_write_nfix, .-cmp_write_nfix
 430              		.section	.text.cmp_write_sfix,"ax",%progbits
 431              		.align	1
 432              		.p2align 4,,15
 433              		.global	cmp_write_sfix
 434              		.syntax unified
 435              		.thumb
 436              		.thumb_func
 437              		.fpu fpv4-sp-d16
 438              		.type	cmp_write_sfix, %function
 439              	cmp_write_sfix:
 440              	.LFB16:
 441              		.loc 1 270 0
 442              		.cfi_startproc
 443              		@ args = 0, pretend = 0, frame = 8
 444              		@ frame_needed = 0, uses_anonymous_args = 0
 445              	.LVL27:
 446 0000 70B5     		push	{r4, r5, r6, lr}
 447              		.cfi_def_cfa_offset 16
 448              		.cfi_offset 4, -16
 449              		.cfi_offset 5, -12
 450              		.cfi_offset 6, -8
 451              		.cfi_offset 14, -4
 452 0002 174C     		ldr	r4, .L58
 453 0004 82B0     		sub	sp, sp, #8
 454              		.cfi_def_cfa_offset 24
 455              		.loc 1 270 0
 456 0006 2368     		ldr	r3, [r4]
ARM GAS  C:\Users\mathi\AppData\Local\Temp\cc36u0DG.s 			page 9


 457 0008 0193     		str	r3, [sp, #4]
 458              		.loc 1 271 0
 459 000a 0029     		cmp	r1, #0
 460 000c CBB2     		uxtb	r3, r1
 461              		.loc 1 270 0
 462 000e 0546     		mov	r5, r0
 463              		.loc 1 271 0
 464 0010 10DB     		blt	.L47
 465              	.LVL28:
 466 0012 02A9     		add	r1, sp, #8
 467              	.LVL29:
 468              	.LBB427:
 469              	.LBB428:
 470              	.LBB429:
 471              	.LBB430:
 472              	.LBB431:
 473              		.loc 1 205 0
 474 0014 C668     		ldr	r6, [r0, #12]
 475 0016 01F8063D 		strb	r3, [r1, #-6]!
 476              	.LVL30:
 477 001a 0122     		movs	r2, #1
 478 001c B047     		blx	r6
 479              	.LVL31:
 480              	.LBE431:
 481              	.LBE430:
 482              		.loc 1 225 0
 483 001e 0128     		cmp	r0, #1
 484 0020 15D0     		beq	.L51
 485              	.LVL32:
 486              	.L48:
 487              		.loc 1 228 0
 488 0022 0623     		movs	r3, #6
 489 0024 2B70     		strb	r3, [r5]
 490              		.loc 1 229 0
 491 0026 0020     		movs	r0, #0
 492              	.L49:
 493              	.LBE429:
 494              	.LBE428:
 495              	.LBE427:
 496              		.loc 1 278 0
 497 0028 019A     		ldr	r2, [sp, #4]
 498 002a 2368     		ldr	r3, [r4]
 499 002c 9A42     		cmp	r2, r3
 500 002e 14D1     		bne	.L57
 501 0030 02B0     		add	sp, sp, #8
 502              		.cfi_remember_state
 503              		.cfi_def_cfa_offset 16
 504              		@ sp needed
 505 0032 70BD     		pop	{r4, r5, r6, pc}
 506              	.LVL33:
 507              	.L47:
 508              		.cfi_restore_state
 509              		.loc 1 273 0
 510 0034 03F12002 		add	r2, r3, #32
 511 0038 D2B2     		uxtb	r2, r2
 512 003a 1F2A     		cmp	r2, #31
 513 003c 09D8     		bhi	.L50
ARM GAS  C:\Users\mathi\AppData\Local\Temp\cc36u0DG.s 			page 10


 514              	.LVL34:
 515 003e 02A9     		add	r1, sp, #8
 516              	.LVL35:
 517              	.LBB434:
 518              	.LBB435:
 519              	.LBB436:
 520              	.LBB437:
 521              	.LBB438:
 522              		.loc 1 205 0
 523 0040 C668     		ldr	r6, [r0, #12]
 524 0042 01F8053D 		strb	r3, [r1, #-5]!
 525              	.LVL36:
 526 0046 0122     		movs	r2, #1
 527 0048 B047     		blx	r6
 528              	.LVL37:
 529              	.LBE438:
 530              	.LBE437:
 531              		.loc 1 225 0
 532 004a 0128     		cmp	r0, #1
 533 004c E9D1     		bne	.L48
 534              	.LVL38:
 535              	.L51:
 536              	.LBE436:
 537              	.LBE435:
 538              	.LBE434:
 539              	.LBB439:
 540              	.LBB433:
 541              	.LBB432:
 542              		.loc 1 226 0
 543 004e 0120     		movs	r0, #1
 544 0050 EAE7     		b	.L49
 545              	.LVL39:
 546              	.L50:
 547              	.LBE432:
 548              	.LBE433:
 549              	.LBE439:
 550              		.loc 1 276 0
 551 0052 0523     		movs	r3, #5
 552 0054 0370     		strb	r3, [r0]
 553              		.loc 1 277 0
 554 0056 0020     		movs	r0, #0
 555              	.LVL40:
 556 0058 E6E7     		b	.L49
 557              	.LVL41:
 558              	.L57:
 559              		.loc 1 278 0
 560 005a FFF7FEFF 		bl	__stack_chk_fail
 561              	.LVL42:
 562              	.L59:
 563 005e 00BF     		.align	2
 564              	.L58:
 565 0060 00000000 		.word	__stack_chk_guard
 566              		.cfi_endproc
 567              	.LFE16:
 568              		.size	cmp_write_sfix, .-cmp_write_sfix
 569              		.section	.text.cmp_write_s8,"ax",%progbits
 570              		.align	1
ARM GAS  C:\Users\mathi\AppData\Local\Temp\cc36u0DG.s 			page 11


 571              		.p2align 4,,15
 572              		.global	cmp_write_s8
 573              		.syntax unified
 574              		.thumb
 575              		.thumb_func
 576              		.fpu fpv4-sp-d16
 577              		.type	cmp_write_s8, %function
 578              	cmp_write_s8:
 579              	.LFB17:
 580              		.loc 1 280 0
 581              		.cfi_startproc
 582              		@ args = 0, pretend = 0, frame = 16
 583              		@ frame_needed = 0, uses_anonymous_args = 0
 584              	.LVL43:
 585 0000 30B5     		push	{r4, r5, lr}
 586              		.cfi_def_cfa_offset 12
 587              		.cfi_offset 4, -12
 588              		.cfi_offset 5, -8
 589              		.cfi_offset 14, -4
 590 0002 85B0     		sub	sp, sp, #20
 591              		.cfi_def_cfa_offset 32
 592 0004 04AB     		add	r3, sp, #16
 593 0006 D022     		movs	r2, #208
 594              		.loc 1 280 0
 595 0008 114D     		ldr	r5, .L66
 596 000a 03F8052D 		strb	r2, [r3, #-5]!
 597 000e 2A68     		ldr	r2, [r5]
 598 0010 8DF80710 		strb	r1, [sp, #7]
 599 0014 0392     		str	r2, [sp, #12]
 600              	.LBB444:
 601              	.LBB445:
 602              	.LBB446:
 603              	.LBB447:
 604              		.loc 1 205 0
 605 0016 1946     		mov	r1, r3
 606              	.LVL44:
 607 0018 0122     		movs	r2, #1
 608 001a C368     		ldr	r3, [r0, #12]
 609              	.LBE447:
 610              	.LBE446:
 611              	.LBE445:
 612              	.LBE444:
 613              		.loc 1 280 0
 614 001c 0446     		mov	r4, r0
 615              	.LVL45:
 616              	.LBB452:
 617              	.LBB450:
 618              	.LBB449:
 619              	.LBB448:
 620              		.loc 1 205 0
 621 001e 9847     		blx	r3
 622              	.LVL46:
 623              	.LBE448:
 624              	.LBE449:
 625              		.loc 1 217 0
 626 0020 0128     		cmp	r0, #1
 627 0022 0ED1     		bne	.L61
ARM GAS  C:\Users\mathi\AppData\Local\Temp\cc36u0DG.s 			page 12


 628              	.LVL47:
 629              	.LBE450:
 630              	.LBE452:
 631              		.loc 1 284 0
 632 0024 0246     		mov	r2, r0
 633 0026 E368     		ldr	r3, [r4, #12]
 634 0028 2046     		mov	r0, r4
 635 002a 0DF10701 		add	r1, sp, #7
 636 002e 9847     		blx	r3
 637              	.LVL48:
 638 0030 0030     		adds	r0, r0, #0
 639 0032 18BF     		it	ne
 640 0034 0120     		movne	r0, #1
 641              	.L62:
 642              		.loc 1 285 0
 643 0036 039A     		ldr	r2, [sp, #12]
 644 0038 2B68     		ldr	r3, [r5]
 645 003a 9A42     		cmp	r2, r3
 646 003c 05D1     		bne	.L65
 647 003e 05B0     		add	sp, sp, #20
 648              		.cfi_remember_state
 649              		.cfi_def_cfa_offset 12
 650              		@ sp needed
 651 0040 30BD     		pop	{r4, r5, pc}
 652              	.LVL49:
 653              	.L61:
 654              		.cfi_restore_state
 655              	.LBB453:
 656              	.LBB451:
 657              		.loc 1 220 0
 658 0042 0823     		movs	r3, #8
 659 0044 2370     		strb	r3, [r4]
 660              	.LVL50:
 661              	.LBE451:
 662              	.LBE453:
 663              		.loc 1 282 0
 664 0046 0020     		movs	r0, #0
 665 0048 F5E7     		b	.L62
 666              	.L65:
 667              		.loc 1 285 0
 668 004a FFF7FEFF 		bl	__stack_chk_fail
 669              	.LVL51:
 670              	.L67:
 671 004e 00BF     		.align	2
 672              	.L66:
 673 0050 00000000 		.word	__stack_chk_guard
 674              		.cfi_endproc
 675              	.LFE17:
 676              		.size	cmp_write_s8, .-cmp_write_s8
 677              		.section	.text.cmp_write_s16,"ax",%progbits
 678              		.align	1
 679              		.p2align 4,,15
 680              		.global	cmp_write_s16
 681              		.syntax unified
 682              		.thumb
 683              		.thumb_func
 684              		.fpu fpv4-sp-d16
ARM GAS  C:\Users\mathi\AppData\Local\Temp\cc36u0DG.s 			page 13


 685              		.type	cmp_write_s16, %function
 686              	cmp_write_s16:
 687              	.LFB18:
 688              		.loc 1 287 0
 689              		.cfi_startproc
 690              		@ args = 0, pretend = 0, frame = 16
 691              		@ frame_needed = 0, uses_anonymous_args = 0
 692              	.LVL52:
 693 0000 30B5     		push	{r4, r5, lr}
 694              		.cfi_def_cfa_offset 12
 695              		.cfi_offset 4, -12
 696              		.cfi_offset 5, -8
 697              		.cfi_offset 14, -4
 698 0002 85B0     		sub	sp, sp, #20
 699              		.cfi_def_cfa_offset 32
 700 0004 04AB     		add	r3, sp, #16
 701 0006 D122     		movs	r2, #209
 702              		.loc 1 287 0
 703 0008 164D     		ldr	r5, .L74
 704 000a 03F8072D 		strb	r2, [r3, #-7]!
 705 000e 2A68     		ldr	r2, [r5]
 706 0010 ADF80610 		strh	r1, [sp, #6]	@ movhi
 707 0014 0392     		str	r2, [sp, #12]
 708              	.LBB461:
 709              	.LBB462:
 710              	.LBB463:
 711              	.LBB464:
 712              		.loc 1 205 0
 713 0016 1946     		mov	r1, r3
 714              	.LVL53:
 715 0018 0122     		movs	r2, #1
 716 001a C368     		ldr	r3, [r0, #12]
 717              	.LBE464:
 718              	.LBE463:
 719              	.LBE462:
 720              	.LBE461:
 721              		.loc 1 287 0
 722 001c 0446     		mov	r4, r0
 723              	.LVL54:
 724              	.LBB469:
 725              	.LBB467:
 726              	.LBB466:
 727              	.LBB465:
 728              		.loc 1 205 0
 729 001e 9847     		blx	r3
 730              	.LVL55:
 731              	.LBE465:
 732              	.LBE466:
 733              		.loc 1 217 0
 734 0020 0128     		cmp	r0, #1
 735 0022 19D1     		bne	.L69
 736              	.LVL56:
 737              	.LBE467:
 738              	.LBE469:
 739              		.loc 1 291 0
 740 0024 BDF90630 		ldrsh	r3, [sp, #6]
 741              	.LVL57:
ARM GAS  C:\Users\mathi\AppData\Local\Temp\cc36u0DG.s 			page 14


 742              	.LBB470:
 743              	.LBB471:
 744              	.LBB472:
 745              		.loc 1 106 0
 746 0028 8DF80B30 		strb	r3, [sp, #11]
 747              	.LVL58:
 748              		.loc 1 105 0
 749 002c C3F30723 		ubfx	r3, r3, #8, #8
 750 0030 8DF80A30 		strb	r3, [sp, #10]
 751              	.LBE472:
 752              	.LBE471:
 753              	.LBE470:
 754              		.loc 1 291 0
 755 0034 04A9     		add	r1, sp, #16
 756 0036 BDF80A30 		ldrh	r3, [sp, #10]
 757 003a 21F80A3D 		strh	r3, [r1, #-10]!	@ movhi
 758              		.loc 1 293 0
 759 003e 2046     		mov	r0, r4
 760 0040 E368     		ldr	r3, [r4, #12]
 761 0042 0222     		movs	r2, #2
 762 0044 9847     		blx	r3
 763              	.LVL59:
 764 0046 0030     		adds	r0, r0, #0
 765 0048 18BF     		it	ne
 766 004a 0120     		movne	r0, #1
 767              	.LVL60:
 768              	.L70:
 769              		.loc 1 294 0
 770 004c 039A     		ldr	r2, [sp, #12]
 771 004e 2B68     		ldr	r3, [r5]
 772 0050 9A42     		cmp	r2, r3
 773 0052 05D1     		bne	.L73
 774 0054 05B0     		add	sp, sp, #20
 775              		.cfi_remember_state
 776              		.cfi_def_cfa_offset 12
 777              		@ sp needed
 778 0056 30BD     		pop	{r4, r5, pc}
 779              	.LVL61:
 780              	.L69:
 781              		.cfi_restore_state
 782              	.LBB473:
 783              	.LBB468:
 784              		.loc 1 220 0
 785 0058 0823     		movs	r3, #8
 786 005a 2370     		strb	r3, [r4]
 787              	.LVL62:
 788              	.LBE468:
 789              	.LBE473:
 790              		.loc 1 289 0
 791 005c 0020     		movs	r0, #0
 792 005e F5E7     		b	.L70
 793              	.L73:
 794              		.loc 1 294 0
 795 0060 FFF7FEFF 		bl	__stack_chk_fail
 796              	.LVL63:
 797              	.L75:
 798              		.align	2
ARM GAS  C:\Users\mathi\AppData\Local\Temp\cc36u0DG.s 			page 15


 799              	.L74:
 800 0064 00000000 		.word	__stack_chk_guard
 801              		.cfi_endproc
 802              	.LFE18:
 803              		.size	cmp_write_s16, .-cmp_write_s16
 804              		.section	.text.cmp_write_s32,"ax",%progbits
 805              		.align	1
 806              		.p2align 4,,15
 807              		.global	cmp_write_s32
 808              		.syntax unified
 809              		.thumb
 810              		.thumb_func
 811              		.fpu fpv4-sp-d16
 812              		.type	cmp_write_s32, %function
 813              	cmp_write_s32:
 814              	.LFB19:
 815              		.loc 1 296 0
 816              		.cfi_startproc
 817              		@ args = 0, pretend = 0, frame = 24
 818              		@ frame_needed = 0, uses_anonymous_args = 0
 819              	.LVL64:
 820 0000 70B5     		push	{r4, r5, r6, lr}
 821              		.cfi_def_cfa_offset 16
 822              		.cfi_offset 4, -16
 823              		.cfi_offset 5, -12
 824              		.cfi_offset 6, -8
 825              		.cfi_offset 14, -4
 826 0002 86B0     		sub	sp, sp, #24
 827              		.cfi_def_cfa_offset 40
 828 0004 06AB     		add	r3, sp, #24
 829 0006 D222     		movs	r2, #210
 830              		.loc 1 296 0
 831 0008 194D     		ldr	r5, .L82
 832 000a 03F8092D 		strb	r2, [r3, #-9]!
 833 000e 2A68     		ldr	r2, [r5]
 834 0010 0191     		str	r1, [sp, #4]
 835 0012 0592     		str	r2, [sp, #20]
 836              	.LBB481:
 837              	.LBB482:
 838              	.LBB483:
 839              	.LBB484:
 840              		.loc 1 205 0
 841 0014 1946     		mov	r1, r3
 842              	.LVL65:
 843 0016 0122     		movs	r2, #1
 844 0018 C368     		ldr	r3, [r0, #12]
 845              	.LBE484:
 846              	.LBE483:
 847              	.LBE482:
 848              	.LBE481:
 849              		.loc 1 296 0
 850 001a 0446     		mov	r4, r0
 851              	.LVL66:
 852              	.LBB489:
 853              	.LBB487:
 854              	.LBB486:
 855              	.LBB485:
ARM GAS  C:\Users\mathi\AppData\Local\Temp\cc36u0DG.s 			page 16


 856              		.loc 1 205 0
 857 001c 9847     		blx	r3
 858              	.LVL67:
 859              	.LBE485:
 860              	.LBE486:
 861              		.loc 1 217 0
 862 001e 0128     		cmp	r0, #1
 863 0020 1FD1     		bne	.L77
 864              	.LVL68:
 865              	.LBE487:
 866              	.LBE489:
 867              		.loc 1 300 0
 868 0022 019A     		ldr	r2, [sp, #4]
 869              	.LVL69:
 870              		.loc 1 302 0
 871 0024 E668     		ldr	r6, [r4, #12]
 872              	.LBB490:
 873              	.LBB491:
 874              	.LBB492:
 875              		.loc 1 119 0
 876 0026 110E     		lsrs	r1, r2, #24
 877 0028 0023     		movs	r3, #0
 878 002a 61F30703 		bfi	r3, r1, #0, #8
 879 002e C2F30741 		ubfx	r1, r2, #16, #8
 880 0032 61F30F23 		bfi	r3, r1, #8, #8
 881 0036 C2F30721 		ubfx	r1, r2, #8, #8
 882 003a 61F31743 		bfi	r3, r1, #16, #8
 883              	.LBE492:
 884              	.LBE491:
 885              	.LBE490:
 886              		.loc 1 300 0
 887 003e 06A9     		add	r1, sp, #24
 888              	.LBB497:
 889              	.LBB495:
 890              	.LBB493:
 891              		.loc 1 119 0
 892 0040 62F31F63 		bfi	r3, r2, #24, #8
 893              	.LBE493:
 894              	.LBE495:
 895              	.LBE497:
 896              		.loc 1 300 0
 897 0044 41F8143D 		str	r3, [r1, #-20]!
 898              		.loc 1 302 0
 899 0048 2046     		mov	r0, r4
 900 004a 0422     		movs	r2, #4
 901              	.LVL70:
 902              	.LBB498:
 903              	.LBB496:
 904              	.LBB494:
 905              		.loc 1 119 0
 906 004c 0493     		str	r3, [sp, #16]
 907              	.LVL71:
 908              	.LBE494:
 909              	.LBE496:
 910              	.LBE498:
 911              		.loc 1 302 0
 912 004e B047     		blx	r6
ARM GAS  C:\Users\mathi\AppData\Local\Temp\cc36u0DG.s 			page 17


 913              	.LVL72:
 914 0050 0030     		adds	r0, r0, #0
 915 0052 18BF     		it	ne
 916 0054 0120     		movne	r0, #1
 917              	.LVL73:
 918              	.L78:
 919              		.loc 1 303 0
 920 0056 059A     		ldr	r2, [sp, #20]
 921 0058 2B68     		ldr	r3, [r5]
 922 005a 9A42     		cmp	r2, r3
 923 005c 05D1     		bne	.L81
 924 005e 06B0     		add	sp, sp, #24
 925              		.cfi_remember_state
 926              		.cfi_def_cfa_offset 16
 927              		@ sp needed
 928 0060 70BD     		pop	{r4, r5, r6, pc}
 929              	.LVL74:
 930              	.L77:
 931              		.cfi_restore_state
 932              	.LBB499:
 933              	.LBB488:
 934              		.loc 1 220 0
 935 0062 0823     		movs	r3, #8
 936 0064 2370     		strb	r3, [r4]
 937              	.LVL75:
 938              	.LBE488:
 939              	.LBE499:
 940              		.loc 1 298 0
 941 0066 0020     		movs	r0, #0
 942 0068 F5E7     		b	.L78
 943              	.L81:
 944              		.loc 1 303 0
 945 006a FFF7FEFF 		bl	__stack_chk_fail
 946              	.LVL76:
 947              	.L83:
 948 006e 00BF     		.align	2
 949              	.L82:
 950 0070 00000000 		.word	__stack_chk_guard
 951              		.cfi_endproc
 952              	.LFE19:
 953              		.size	cmp_write_s32, .-cmp_write_s32
 954              		.section	.text.cmp_write_s64,"ax",%progbits
 955              		.align	1
 956              		.p2align 4,,15
 957              		.global	cmp_write_s64
 958              		.syntax unified
 959              		.thumb
 960              		.thumb_func
 961              		.fpu fpv4-sp-d16
 962              		.type	cmp_write_s64, %function
 963              	cmp_write_s64:
 964              	.LFB20:
 965              		.loc 1 305 0
 966              		.cfi_startproc
 967              		@ args = 0, pretend = 0, frame = 32
 968              		@ frame_needed = 0, uses_anonymous_args = 0
 969              	.LVL77:
ARM GAS  C:\Users\mathi\AppData\Local\Temp\cc36u0DG.s 			page 18


 970 0000 70B5     		push	{r4, r5, r6, lr}
 971              		.cfi_def_cfa_offset 16
 972              		.cfi_offset 4, -16
 973              		.cfi_offset 5, -12
 974              		.cfi_offset 6, -8
 975              		.cfi_offset 14, -4
 976 0002 244D     		ldr	r5, .L90
 977 0004 88B0     		sub	sp, sp, #32
 978              		.cfi_def_cfa_offset 48
 979 0006 08A9     		add	r1, sp, #32
 980              		.loc 1 305 0
 981 0008 CDE90023 		strd	r2, [sp]
 982 000c D324     		movs	r4, #211
 983 000e 2A68     		ldr	r2, [r5]
 984              	.LVL78:
 985 0010 01F8114D 		strb	r4, [r1, #-17]!
 986 0014 0792     		str	r2, [sp, #28]
 987              	.LBB507:
 988              	.LBB508:
 989              	.LBB509:
 990              	.LBB510:
 991              		.loc 1 205 0
 992 0016 C368     		ldr	r3, [r0, #12]
 993 0018 0122     		movs	r2, #1
 994              	.LBE510:
 995              	.LBE509:
 996              	.LBE508:
 997              	.LBE507:
 998              		.loc 1 305 0
 999 001a 0446     		mov	r4, r0
 1000              	.LVL79:
 1001              	.LBB515:
 1002              	.LBB513:
 1003              	.LBB512:
 1004              	.LBB511:
 1005              		.loc 1 205 0
 1006 001c 9847     		blx	r3
 1007              	.LVL80:
 1008              	.LBE511:
 1009              	.LBE512:
 1010              		.loc 1 217 0
 1011 001e 0128     		cmp	r0, #1
 1012 0020 31D1     		bne	.L85
 1013              	.LVL81:
 1014              	.LBE513:
 1015              	.LBE515:
 1016              		.loc 1 309 0
 1017 0022 DDE90001 		ldrd	r0, r1, [sp]
 1018              	.LVL82:
 1019              	.LBB516:
 1020              	.LBB517:
 1021              	.LBB518:
 1022              		.loc 1 150 0
 1023 0026 0022     		movs	r2, #0
 1024 0028 030E     		lsrs	r3, r0, #24
 1025 002a 63F30702 		bfi	r2, r3, #0, #8
 1026 002e C0F30743 		ubfx	r3, r0, #16, #8
ARM GAS  C:\Users\mathi\AppData\Local\Temp\cc36u0DG.s 			page 19


 1027 0032 63F30F22 		bfi	r2, r3, #8, #8
 1028 0036 C0F30723 		ubfx	r3, r0, #8, #8
 1029              		.loc 1 137 0
 1030 003a 0E0E     		lsrs	r6, r1, #24
 1031              		.loc 1 150 0
 1032 003c 63F31742 		bfi	r2, r3, #16, #8
 1033              		.loc 1 137 0
 1034 0040 0023     		movs	r3, #0
 1035 0042 66F30703 		bfi	r3, r6, #0, #8
 1036 0046 C1F30746 		ubfx	r6, r1, #16, #8
 1037              		.loc 1 150 0
 1038 004a 60F31F62 		bfi	r2, r0, #24, #8
 1039              		.loc 1 137 0
 1040 004e 66F30F23 		bfi	r3, r6, #8, #8
 1041 0052 C1F30720 		ubfx	r0, r1, #8, #8
 1042              	.LVL83:
 1043 0056 60F31743 		bfi	r3, r0, #16, #8
 1044 005a 61F31F63 		bfi	r3, r1, #24, #8
 1045 005e CDE90432 		strd	r3, r2, [sp, #16]
 1046              	.LVL84:
 1047              	.LBE518:
 1048              	.LBE517:
 1049              	.LBE516:
 1050              		.loc 1 309 0
 1051 0062 DDE90423 		ldrd	r2, [sp, #16]
 1052 0066 08A9     		add	r1, sp, #32
 1053              	.LVL85:
 1054 0068 61E90823 		strd	r2, [r1, #-32]!
 1055              	.LVL86:
 1056              		.loc 1 311 0
 1057 006c 2046     		mov	r0, r4
 1058 006e E368     		ldr	r3, [r4, #12]
 1059 0070 0822     		movs	r2, #8
 1060 0072 9847     		blx	r3
 1061              	.LVL87:
 1062 0074 0030     		adds	r0, r0, #0
 1063 0076 18BF     		it	ne
 1064 0078 0120     		movne	r0, #1
 1065              	.LVL88:
 1066              	.L86:
 1067              		.loc 1 312 0
 1068 007a 079A     		ldr	r2, [sp, #28]
 1069 007c 2B68     		ldr	r3, [r5]
 1070 007e 9A42     		cmp	r2, r3
 1071 0080 05D1     		bne	.L89
 1072 0082 08B0     		add	sp, sp, #32
 1073              		.cfi_remember_state
 1074              		.cfi_def_cfa_offset 16
 1075              		@ sp needed
 1076 0084 70BD     		pop	{r4, r5, r6, pc}
 1077              	.LVL89:
 1078              	.L85:
 1079              		.cfi_restore_state
 1080              	.LBB519:
 1081              	.LBB514:
 1082              		.loc 1 220 0
 1083 0086 0823     		movs	r3, #8
ARM GAS  C:\Users\mathi\AppData\Local\Temp\cc36u0DG.s 			page 20


 1084 0088 2370     		strb	r3, [r4]
 1085              	.LVL90:
 1086              	.LBE514:
 1087              	.LBE519:
 1088              		.loc 1 307 0
 1089 008a 0020     		movs	r0, #0
 1090 008c F5E7     		b	.L86
 1091              	.L89:
 1092              		.loc 1 312 0
 1093 008e FFF7FEFF 		bl	__stack_chk_fail
 1094              	.LVL91:
 1095              	.L91:
 1096 0092 00BF     		.align	2
 1097              	.L90:
 1098 0094 00000000 		.word	__stack_chk_guard
 1099              		.cfi_endproc
 1100              	.LFE20:
 1101              		.size	cmp_write_s64, .-cmp_write_s64
 1102              		.section	.text.cmp_write_sint,"ax",%progbits
 1103              		.align	1
 1104              		.p2align 4,,15
 1105              		.global	cmp_write_sint
 1106              		.syntax unified
 1107              		.thumb
 1108              		.thumb_func
 1109              		.fpu fpv4-sp-d16
 1110              		.type	cmp_write_sint, %function
 1111              	cmp_write_sint:
 1112              	.LFB21:
 1113              		.loc 1 314 0
 1114              		.cfi_startproc
 1115              		@ args = 0, pretend = 0, frame = 80
 1116              		@ frame_needed = 0, uses_anonymous_args = 0
 1117              	.LVL92:
 1118 0000 2DE9F043 		push	{r4, r5, r6, r7, r8, r9, lr}
 1119              		.cfi_def_cfa_offset 28
 1120              		.cfi_offset 4, -28
 1121              		.cfi_offset 5, -24
 1122              		.cfi_offset 6, -20
 1123              		.cfi_offset 7, -16
 1124              		.cfi_offset 8, -12
 1125              		.cfi_offset 9, -8
 1126              		.cfi_offset 14, -4
 1127 0004 B64E     		ldr	r6, .L121
 1128 0006 1D46     		mov	r5, r3
 1129 0008 95B0     		sub	sp, sp, #84
 1130              		.cfi_def_cfa_offset 112
 1131              		.loc 1 315 0
 1132 000a 002A     		cmp	r2, #0
 1133              		.loc 1 314 0
 1134 000c 3368     		ldr	r3, [r6]
 1135 000e 1393     		str	r3, [sp, #76]
 1136 0010 1446     		mov	r4, r2
 1137              		.loc 1 315 0
 1138 0012 75F10002 		sbcs	r2, r5, #0
 1139              	.LVL93:
 1140              		.loc 1 314 0
ARM GAS  C:\Users\mathi\AppData\Local\Temp\cc36u0DG.s 			page 21


 1141 0016 0746     		mov	r7, r0
 1142 0018 C368     		ldr	r3, [r0, #12]
 1143              		.loc 1 315 0
 1144 001a 19DA     		bge	.L113
 1145              		.loc 1 317 0
 1146 001c 6FF01F08 		mvn	r8, #31
 1147 0020 4FF0FF39 		mov	r9, #-1
 1148 0024 4445     		cmp	r4, r8
 1149 0026 75EB0902 		sbcs	r2, r5, r9
 1150 002a 1EDB     		blt	.L101
 1151              	.LVL94:
 1152              	.LBB607:
 1153              	.LBB608:
 1154              		.loc 1 263 0
 1155 002c 14A9     		add	r1, sp, #80
 1156              	.LBB609:
 1157              	.LBB610:
 1158              	.LBB611:
 1159              	.LBB612:
 1160              		.loc 1 205 0
 1161 002e 0122     		movs	r2, #1
 1162              	.LBE612:
 1163              	.LBE611:
 1164              	.LBE610:
 1165              	.LBE609:
 1166              		.loc 1 263 0
 1167 0030 01F84C4D 		strb	r4, [r1, #-76]!
 1168              	.LVL95:
 1169              	.LBB616:
 1170              	.LBB615:
 1171              	.LBB614:
 1172              	.LBB613:
 1173              		.loc 1 205 0
 1174 0034 9847     		blx	r3
 1175              	.LVL96:
 1176              	.LBE613:
 1177              	.LBE614:
 1178              		.loc 1 225 0
 1179 0036 0128     		cmp	r0, #1
 1180 0038 15D0     		beq	.L102
 1181              	.LVL97:
 1182              	.L95:
 1183              	.LBE615:
 1184              	.LBE616:
 1185              	.LBE608:
 1186              	.LBE607:
 1187              	.LBB617:
 1188              	.LBB618:
 1189              	.LBB619:
 1190              	.LBB620:
 1191              	.LBB621:
 1192              		.loc 1 228 0
 1193 003a 0623     		movs	r3, #6
 1194 003c 3B70     		strb	r3, [r7]
 1195              		.loc 1 229 0
 1196 003e 0020     		movs	r0, #0
 1197              	.L96:
ARM GAS  C:\Users\mathi\AppData\Local\Temp\cc36u0DG.s 			page 22


 1198              	.LBE621:
 1199              	.LBE620:
 1200              	.LBE619:
 1201              	.LBE618:
 1202              	.LBE617:
 1203              		.loc 1 327 0
 1204 0040 139A     		ldr	r2, [sp, #76]
 1205 0042 3368     		ldr	r3, [r6]
 1206 0044 9A42     		cmp	r2, r3
 1207 0046 40F04981 		bne	.L114
 1208 004a 15B0     		add	sp, sp, #84
 1209              		.cfi_remember_state
 1210              		.cfi_def_cfa_offset 28
 1211              		@ sp needed
 1212 004c BDE8F083 		pop	{r4, r5, r6, r7, r8, r9, pc}
 1213              	.LVL98:
 1214              	.L113:
 1215              		.cfi_restore_state
 1216              	.LBB684:
 1217              	.LBB679:
 1218              		.loc 1 368 0
 1219 0050 802C     		cmp	r4, #128
 1220 0052 75F10002 		sbcs	r2, r5, #0
 1221 0056 51DA     		bge	.L94
 1222              	.LVL99:
 1223              		.loc 1 369 0
 1224 0058 14A9     		add	r1, sp, #80
 1225              	.LBB630:
 1226              	.LBB628:
 1227              	.LBB626:
 1228              	.LBB622:
 1229              	.LBB623:
 1230              		.loc 1 205 0
 1231 005a 0122     		movs	r2, #1
 1232              	.LBE623:
 1233              	.LBE622:
 1234              	.LBE626:
 1235              	.LBE628:
 1236              	.LBE630:
 1237              		.loc 1 369 0
 1238 005c 01F84B4D 		strb	r4, [r1, #-75]!
 1239              	.LVL100:
 1240              	.LBB631:
 1241              	.LBB629:
 1242              	.LBB627:
 1243              	.LBB625:
 1244              	.LBB624:
 1245              		.loc 1 205 0
 1246 0060 9847     		blx	r3
 1247              	.LVL101:
 1248              	.LBE624:
 1249              	.LBE625:
 1250              		.loc 1 225 0
 1251 0062 0128     		cmp	r0, #1
 1252 0064 E9D1     		bne	.L95
 1253              	.LVL102:
 1254              	.L102:
ARM GAS  C:\Users\mathi\AppData\Local\Temp\cc36u0DG.s 			page 23


 1255              		.loc 1 226 0
 1256 0066 0120     		movs	r0, #1
 1257 0068 EAE7     		b	.L96
 1258              	.LVL103:
 1259              	.L101:
 1260              	.LBE627:
 1261              	.LBE629:
 1262              	.LBE631:
 1263              	.LBE679:
 1264              	.LBE684:
 1265              		.loc 1 319 0
 1266 006a 6FF07F08 		mvn	r8, #127
 1267 006e 4FF0FF39 		mov	r9, #-1
 1268 0072 4445     		cmp	r4, r8
 1269 0074 75EB0902 		sbcs	r2, r5, r9
 1270 0078 80F2BE80 		bge	.L115
 1271              		.loc 1 321 0
 1272 007c DFF86482 		ldr	r8, .L121+4
 1273 0080 4FF0FF39 		mov	r9, #-1
 1274 0084 4445     		cmp	r4, r8
 1275 0086 75EB0902 		sbcs	r2, r5, r9
 1276 008a 80F29280 		bge	.L116
 1277              		.loc 1 323 0
 1278 008e B4F1004F 		cmp	r4, #-2147483648
 1279 0092 75F1FF32 		sbcs	r2, r5, #-1
 1280 0096 14A9     		add	r1, sp, #80
 1281 0098 80F2C280 		bge	.L117
 1282              	.LVL104:
 1283 009c D322     		movs	r2, #211
 1284 009e 01F8412D 		strb	r2, [r1, #-65]!
 1285 00a2 CDE90E45 		strd	r4, [sp, #56]
 1286              	.LVL105:
 1287              	.LBB685:
 1288              	.LBB686:
 1289              	.LBB687:
 1290              	.LBB688:
 1291              	.LBB689:
 1292              	.LBB690:
 1293              		.loc 1 205 0
 1294 00a6 0122     		movs	r2, #1
 1295 00a8 9847     		blx	r3
 1296              	.LVL106:
 1297              	.LBE690:
 1298              	.LBE689:
 1299              		.loc 1 217 0
 1300 00aa 0128     		cmp	r0, #1
 1301 00ac 40F0A080 		bne	.L98
 1302              	.LVL107:
 1303              	.LBE688:
 1304              	.LBE687:
 1305              		.loc 1 309 0
 1306 00b0 DDE90E01 		ldrd	r0, r1, [sp, #56]
 1307              	.LVL108:
 1308              	.LBB691:
 1309              	.LBB692:
 1310              	.LBB693:
 1311              		.loc 1 150 0
ARM GAS  C:\Users\mathi\AppData\Local\Temp\cc36u0DG.s 			page 24


 1312 00b4 0022     		movs	r2, #0
 1313 00b6 030E     		lsrs	r3, r0, #24
 1314 00b8 63F30702 		bfi	r2, r3, #0, #8
 1315 00bc C0F30743 		ubfx	r3, r0, #16, #8
 1316 00c0 63F30F22 		bfi	r2, r3, #8, #8
 1317 00c4 C0F30723 		ubfx	r3, r0, #8, #8
 1318              		.loc 1 137 0
 1319 00c8 0C0E     		lsrs	r4, r1, #24
 1320              		.loc 1 150 0
 1321 00ca 63F31742 		bfi	r2, r3, #16, #8
 1322              		.loc 1 137 0
 1323 00ce 0023     		movs	r3, #0
 1324 00d0 64F30703 		bfi	r3, r4, #0, #8
 1325 00d4 C1F30744 		ubfx	r4, r1, #16, #8
 1326              		.loc 1 150 0
 1327 00d8 60F31F62 		bfi	r2, r0, #24, #8
 1328              		.loc 1 137 0
 1329 00dc 64F30F23 		bfi	r3, r4, #8, #8
 1330 00e0 C1F30720 		ubfx	r0, r1, #8, #8
 1331              	.LVL109:
 1332 00e4 60F31743 		bfi	r3, r0, #16, #8
 1333 00e8 61F31F63 		bfi	r3, r1, #24, #8
 1334 00ec CDE91032 		strd	r3, r2, [sp, #64]
 1335              	.LVL110:
 1336              	.LBE693:
 1337              	.LBE692:
 1338              	.LBE691:
 1339              		.loc 1 309 0
 1340 00f0 DDE91023 		ldrd	r2, [sp, #64]
 1341 00f4 14A9     		add	r1, sp, #80
 1342              	.LVL111:
 1343 00f6 61E90623 		strd	r2, [r1, #-24]!
 1344              	.LVL112:
 1345 00fa 3EE0     		b	.L112
 1346              	.LVL113:
 1347              	.L94:
 1348              	.LBE686:
 1349              	.LBE685:
 1350              	.LBB695:
 1351              	.LBB680:
 1352              		.loc 1 370 0
 1353 00fc B4F5807F 		cmp	r4, #256
 1354 0100 75F10002 		sbcs	r2, r5, #0
 1355 0104 41DB     		blt	.L118
 1356              		.loc 1 372 0
 1357 0106 002D     		cmp	r5, #0
 1358 0108 08BF     		it	eq
 1359 010a B4F5803F 		cmpeq	r4, #65536
 1360 010e C0F0CD80 		bcc	.L119
 1361              	.LVL114:
 1362              	.LBB632:
 1363              	.LBB633:
 1364              		.loc 1 374 0
 1365 0112 012D     		cmp	r5, #1
 1366 0114 08BF     		it	eq
 1367 0116 002C     		cmpeq	r4, #0
 1368 0118 14A9     		add	r1, sp, #80
ARM GAS  C:\Users\mathi\AppData\Local\Temp\cc36u0DG.s 			page 25


 1369 011a C0F0A480 		bcc	.L120
 1370              	.LVL115:
 1371 011e CF22     		movs	r2, #207
 1372 0120 01F8462D 		strb	r2, [r1, #-70]!
 1373 0124 CDE90A45 		strd	r4, [sp, #40]
 1374              	.LVL116:
 1375              	.LBB634:
 1376              	.LBB635:
 1377              	.LBB636:
 1378              	.LBB637:
 1379              	.LBB638:
 1380              	.LBB639:
 1381              		.loc 1 205 0
 1382 0128 0122     		movs	r2, #1
 1383 012a 9847     		blx	r3
 1384              	.LVL117:
 1385              	.LBE639:
 1386              	.LBE638:
 1387              		.loc 1 217 0
 1388 012c 0128     		cmp	r0, #1
 1389 012e 5FD1     		bne	.L98
 1390              	.LVL118:
 1391              	.LBE637:
 1392              	.LBE636:
 1393              		.loc 1 362 0
 1394 0130 DDE90A01 		ldrd	r0, r1, [sp, #40]
 1395              	.LVL119:
 1396              	.LBB640:
 1397              	.LBB641:
 1398              	.LBB642:
 1399              		.loc 1 150 0
 1400 0134 0022     		movs	r2, #0
 1401 0136 030E     		lsrs	r3, r0, #24
 1402 0138 63F30702 		bfi	r2, r3, #0, #8
 1403 013c C0F30743 		ubfx	r3, r0, #16, #8
 1404 0140 63F30F22 		bfi	r2, r3, #8, #8
 1405 0144 C0F30723 		ubfx	r3, r0, #8, #8
 1406              		.loc 1 137 0
 1407 0148 0C0E     		lsrs	r4, r1, #24
 1408              	.LVL120:
 1409              		.loc 1 150 0
 1410 014a 63F31742 		bfi	r2, r3, #16, #8
 1411              		.loc 1 137 0
 1412 014e 0023     		movs	r3, #0
 1413 0150 64F30703 		bfi	r3, r4, #0, #8
 1414 0154 C1F30744 		ubfx	r4, r1, #16, #8
 1415              		.loc 1 150 0
 1416 0158 60F31F62 		bfi	r2, r0, #24, #8
 1417              		.loc 1 137 0
 1418 015c 64F30F23 		bfi	r3, r4, #8, #8
 1419 0160 C1F30720 		ubfx	r0, r1, #8, #8
 1420              	.LVL121:
 1421 0164 60F31743 		bfi	r3, r0, #16, #8
 1422 0168 61F31F63 		bfi	r3, r1, #24, #8
 1423 016c CDE90C32 		strd	r3, r2, [sp, #48]
 1424              	.LVL122:
 1425              	.LBE642:
ARM GAS  C:\Users\mathi\AppData\Local\Temp\cc36u0DG.s 			page 26


 1426              	.LBE641:
 1427              	.LBE640:
 1428              		.loc 1 362 0
 1429 0170 DDE90C23 		ldrd	r2, [sp, #48]
 1430 0174 14A9     		add	r1, sp, #80
 1431              	.LVL123:
 1432 0176 61E90A23 		strd	r2, [r1, #-40]!
 1433              	.LVL124:
 1434              	.L112:
 1435              	.LBE635:
 1436              	.LBE634:
 1437              	.LBE633:
 1438              	.LBE632:
 1439              	.LBE680:
 1440              	.LBE695:
 1441              	.LBB696:
 1442              	.LBB694:
 1443              		.loc 1 311 0
 1444 017a FB68     		ldr	r3, [r7, #12]
 1445 017c 3846     		mov	r0, r7
 1446 017e 0822     		movs	r2, #8
 1447 0180 9847     		blx	r3
 1448              	.LVL125:
 1449 0182 0030     		adds	r0, r0, #0
 1450 0184 18BF     		it	ne
 1451 0186 0120     		movne	r0, #1
 1452 0188 5AE7     		b	.L96
 1453              	.LVL126:
 1454              	.L118:
 1455 018a 14A9     		add	r1, sp, #80
 1456 018c CC22     		movs	r2, #204
 1457 018e 01F8492D 		strb	r2, [r1, #-73]!
 1458              	.LBE694:
 1459              	.LBE696:
 1460              	.LBB697:
 1461              	.LBB681:
 1462              		.loc 1 371 0
 1463 0192 8DF80640 		strb	r4, [sp, #6]
 1464              	.LVL127:
 1465              	.LBB659:
 1466              	.LBB660:
 1467              	.LBB661:
 1468              	.LBB662:
 1469              	.LBB663:
 1470              	.LBB664:
 1471              		.loc 1 205 0
 1472 0196 0122     		movs	r2, #1
 1473 0198 9847     		blx	r3
 1474              	.LVL128:
 1475              	.LBE664:
 1476              	.LBE663:
 1477              		.loc 1 217 0
 1478 019a 0128     		cmp	r0, #1
 1479 019c 28D1     		bne	.L98
 1480              	.LVL129:
 1481              	.LBE662:
 1482              	.LBE661:
ARM GAS  C:\Users\mathi\AppData\Local\Temp\cc36u0DG.s 			page 27


 1483              		.loc 1 337 0
 1484 019e 0246     		mov	r2, r0
 1485 01a0 FB68     		ldr	r3, [r7, #12]
 1486 01a2 3846     		mov	r0, r7
 1487 01a4 0DF10601 		add	r1, sp, #6
 1488 01a8 9847     		blx	r3
 1489              	.LVL130:
 1490 01aa 0030     		adds	r0, r0, #0
 1491 01ac 18BF     		it	ne
 1492 01ae 0120     		movne	r0, #1
 1493 01b0 46E7     		b	.L96
 1494              	.LVL131:
 1495              	.L116:
 1496 01b2 14A9     		add	r1, sp, #80
 1497 01b4 D122     		movs	r2, #209
 1498 01b6 01F8432D 		strb	r2, [r1, #-67]!
 1499              	.LBE660:
 1500              	.LBE659:
 1501              	.LBE681:
 1502              	.LBE697:
 1503              		.loc 1 322 0
 1504 01ba ADF81440 		strh	r4, [sp, #20]	@ movhi
 1505              	.LVL132:
 1506              	.LBB698:
 1507              	.LBB699:
 1508              	.LBB700:
 1509              	.LBB701:
 1510              	.LBB702:
 1511              	.LBB703:
 1512              		.loc 1 205 0
 1513 01be 0122     		movs	r2, #1
 1514 01c0 9847     		blx	r3
 1515              	.LVL133:
 1516              	.LBE703:
 1517              	.LBE702:
 1518              		.loc 1 217 0
 1519 01c2 0128     		cmp	r0, #1
 1520 01c4 14D1     		bne	.L98
 1521              	.LVL134:
 1522              	.LBE701:
 1523              	.LBE700:
 1524              		.loc 1 291 0
 1525 01c6 BDF91430 		ldrsh	r3, [sp, #20]
 1526              	.LVL135:
 1527              	.LBB704:
 1528              	.LBB705:
 1529              	.LBB706:
 1530              		.loc 1 106 0
 1531 01ca 8DF81730 		strb	r3, [sp, #23]
 1532              	.LVL136:
 1533              		.loc 1 105 0
 1534 01ce C3F30723 		ubfx	r3, r3, #8, #8
 1535 01d2 8DF81630 		strb	r3, [sp, #22]
 1536              	.LBE706:
 1537              	.LBE705:
 1538              	.LBE704:
 1539              		.loc 1 291 0
ARM GAS  C:\Users\mathi\AppData\Local\Temp\cc36u0DG.s 			page 28


 1540 01d6 14A9     		add	r1, sp, #80
 1541 01d8 BDF81630 		ldrh	r3, [sp, #22]
 1542 01dc 21F83C3D 		strh	r3, [r1, #-60]!	@ movhi
 1543              	.LVL137:
 1544              	.L111:
 1545              		.loc 1 293 0
 1546 01e0 FB68     		ldr	r3, [r7, #12]
 1547 01e2 3846     		mov	r0, r7
 1548 01e4 0222     		movs	r2, #2
 1549 01e6 9847     		blx	r3
 1550              	.LVL138:
 1551 01e8 0030     		adds	r0, r0, #0
 1552 01ea 18BF     		it	ne
 1553 01ec 0120     		movne	r0, #1
 1554 01ee 27E7     		b	.L96
 1555              	.L98:
 1556              	.LBE699:
 1557              	.LBE698:
 1558              	.LBB707:
 1559              	.LBB682:
 1560              	.LBB668:
 1561              	.LBB667:
 1562              	.LBB666:
 1563              	.LBB665:
 1564              		.loc 1 220 0
 1565 01f0 0823     		movs	r3, #8
 1566 01f2 3B70     		strb	r3, [r7]
 1567              	.LBE665:
 1568              	.LBE666:
 1569              		.loc 1 335 0
 1570 01f4 0020     		movs	r0, #0
 1571 01f6 23E7     		b	.L96
 1572              	.LVL139:
 1573              	.L115:
 1574 01f8 14A9     		add	r1, sp, #80
 1575 01fa D022     		movs	r2, #208
 1576 01fc 01F8442D 		strb	r2, [r1, #-68]!
 1577              	.LBE667:
 1578              	.LBE668:
 1579              	.LBE682:
 1580              	.LBE707:
 1581              		.loc 1 320 0
 1582 0200 8DF80B40 		strb	r4, [sp, #11]
 1583              	.LVL140:
 1584              	.LBB708:
 1585              	.LBB709:
 1586              	.LBB710:
 1587              	.LBB711:
 1588              	.LBB712:
 1589              	.LBB713:
 1590              		.loc 1 205 0
 1591 0204 0122     		movs	r2, #1
 1592 0206 9847     		blx	r3
 1593              	.LVL141:
 1594              	.LBE713:
 1595              	.LBE712:
 1596              		.loc 1 217 0
ARM GAS  C:\Users\mathi\AppData\Local\Temp\cc36u0DG.s 			page 29


 1597 0208 0128     		cmp	r0, #1
 1598 020a F1D1     		bne	.L98
 1599              	.LVL142:
 1600              	.LBE711:
 1601              	.LBE710:
 1602              		.loc 1 284 0
 1603 020c 0246     		mov	r2, r0
 1604 020e FB68     		ldr	r3, [r7, #12]
 1605 0210 3846     		mov	r0, r7
 1606 0212 0DF10B01 		add	r1, sp, #11
 1607 0216 9847     		blx	r3
 1608              	.LVL143:
 1609 0218 0030     		adds	r0, r0, #0
 1610 021a 18BF     		it	ne
 1611 021c 0120     		movne	r0, #1
 1612 021e 0FE7     		b	.L96
 1613              	.LVL144:
 1614              	.L117:
 1615 0220 D222     		movs	r2, #210
 1616 0222 01F8422D 		strb	r2, [r1, #-66]!
 1617              	.LBE709:
 1618              	.LBE708:
 1619              		.loc 1 324 0
 1620 0226 0894     		str	r4, [sp, #32]
 1621              	.LVL145:
 1622              	.LBB714:
 1623              	.LBB715:
 1624              	.LBB716:
 1625              	.LBB717:
 1626              	.LBB718:
 1627              	.LBB719:
 1628              		.loc 1 205 0
 1629 0228 0122     		movs	r2, #1
 1630 022a 9847     		blx	r3
 1631              	.LVL146:
 1632              	.LBE719:
 1633              	.LBE718:
 1634              		.loc 1 217 0
 1635 022c 0128     		cmp	r0, #1
 1636 022e DFD1     		bne	.L98
 1637              	.LVL147:
 1638              	.LBE717:
 1639              	.LBE716:
 1640              		.loc 1 300 0
 1641 0230 089A     		ldr	r2, [sp, #32]
 1642              	.LVL148:
 1643              		.loc 1 302 0
 1644 0232 FC68     		ldr	r4, [r7, #12]
 1645              	.LBB720:
 1646              	.LBB721:
 1647              	.LBB722:
 1648              		.loc 1 119 0
 1649 0234 110E     		lsrs	r1, r2, #24
 1650 0236 0023     		movs	r3, #0
 1651 0238 61F30703 		bfi	r3, r1, #0, #8
 1652 023c C2F30741 		ubfx	r1, r2, #16, #8
 1653 0240 61F30F23 		bfi	r3, r1, #8, #8
ARM GAS  C:\Users\mathi\AppData\Local\Temp\cc36u0DG.s 			page 30


 1654 0244 C2F30721 		ubfx	r1, r2, #8, #8
 1655 0248 61F31743 		bfi	r3, r1, #16, #8
 1656              	.LBE722:
 1657              	.LBE721:
 1658              	.LBE720:
 1659              		.loc 1 300 0
 1660 024c 14A9     		add	r1, sp, #80
 1661              	.LBB727:
 1662              	.LBB725:
 1663              	.LBB723:
 1664              		.loc 1 119 0
 1665 024e 62F31F63 		bfi	r3, r2, #24, #8
 1666              	.LBE723:
 1667              	.LBE725:
 1668              	.LBE727:
 1669              		.loc 1 300 0
 1670 0252 41F8303D 		str	r3, [r1, #-48]!
 1671              		.loc 1 302 0
 1672 0256 3846     		mov	r0, r7
 1673 0258 0422     		movs	r2, #4
 1674              	.LVL149:
 1675              	.LBB728:
 1676              	.LBB726:
 1677              	.LBB724:
 1678              		.loc 1 119 0
 1679 025a 0993     		str	r3, [sp, #36]
 1680              	.LVL150:
 1681              	.LBE724:
 1682              	.LBE726:
 1683              	.LBE728:
 1684              		.loc 1 302 0
 1685 025c A047     		blx	r4
 1686              	.LVL151:
 1687 025e 0030     		adds	r0, r0, #0
 1688 0260 18BF     		it	ne
 1689 0262 0120     		movne	r0, #1
 1690 0264 ECE6     		b	.L96
 1691              	.LVL152:
 1692              	.L120:
 1693 0266 CE22     		movs	r2, #206
 1694 0268 01F8472D 		strb	r2, [r1, #-71]!
 1695              	.LBE715:
 1696              	.LBE714:
 1697              	.LBB729:
 1698              	.LBB683:
 1699              	.LBB669:
 1700              	.LBB658:
 1701              		.loc 1 375 0
 1702 026c 0694     		str	r4, [sp, #24]
 1703              	.LVL153:
 1704              	.LBB643:
 1705              	.LBB644:
 1706              	.LBB645:
 1707              	.LBB646:
 1708              	.LBB647:
 1709              	.LBB648:
 1710              		.loc 1 205 0
ARM GAS  C:\Users\mathi\AppData\Local\Temp\cc36u0DG.s 			page 31


 1711 026e 0122     		movs	r2, #1
 1712 0270 9847     		blx	r3
 1713              	.LVL154:
 1714              	.LBE648:
 1715              	.LBE647:
 1716              		.loc 1 217 0
 1717 0272 0128     		cmp	r0, #1
 1718 0274 BCD1     		bne	.L98
 1719              	.LVL155:
 1720              	.LBE646:
 1721              	.LBE645:
 1722              		.loc 1 353 0
 1723 0276 069A     		ldr	r2, [sp, #24]
 1724              	.LVL156:
 1725              		.loc 1 355 0
 1726 0278 FC68     		ldr	r4, [r7, #12]
 1727              	.LVL157:
 1728              	.LBB649:
 1729              	.LBB650:
 1730              	.LBB651:
 1731              		.loc 1 119 0
 1732 027a 110E     		lsrs	r1, r2, #24
 1733 027c 0023     		movs	r3, #0
 1734 027e 61F30703 		bfi	r3, r1, #0, #8
 1735 0282 C2F30741 		ubfx	r1, r2, #16, #8
 1736 0286 61F30F23 		bfi	r3, r1, #8, #8
 1737 028a C2F30721 		ubfx	r1, r2, #8, #8
 1738 028e 61F31743 		bfi	r3, r1, #16, #8
 1739              	.LBE651:
 1740              	.LBE650:
 1741              	.LBE649:
 1742              		.loc 1 353 0
 1743 0292 14A9     		add	r1, sp, #80
 1744              	.LBB656:
 1745              	.LBB654:
 1746              	.LBB652:
 1747              		.loc 1 119 0
 1748 0294 62F31F63 		bfi	r3, r2, #24, #8
 1749              	.LBE652:
 1750              	.LBE654:
 1751              	.LBE656:
 1752              		.loc 1 353 0
 1753 0298 41F8383D 		str	r3, [r1, #-56]!
 1754              		.loc 1 355 0
 1755 029c 3846     		mov	r0, r7
 1756 029e 0422     		movs	r2, #4
 1757              	.LVL158:
 1758              	.LBB657:
 1759              	.LBB655:
 1760              	.LBB653:
 1761              		.loc 1 119 0
 1762 02a0 0793     		str	r3, [sp, #28]
 1763              	.LVL159:
 1764              	.LBE653:
 1765              	.LBE655:
 1766              	.LBE657:
 1767              		.loc 1 355 0
ARM GAS  C:\Users\mathi\AppData\Local\Temp\cc36u0DG.s 			page 32


 1768 02a2 A047     		blx	r4
 1769              	.LVL160:
 1770 02a4 0030     		adds	r0, r0, #0
 1771 02a6 18BF     		it	ne
 1772 02a8 0120     		movne	r0, #1
 1773 02aa C9E6     		b	.L96
 1774              	.LVL161:
 1775              	.L119:
 1776 02ac 14A9     		add	r1, sp, #80
 1777 02ae CD22     		movs	r2, #205
 1778 02b0 01F8482D 		strb	r2, [r1, #-72]!
 1779              	.LBE644:
 1780              	.LBE643:
 1781              	.LBE658:
 1782              	.LBE669:
 1783              		.loc 1 373 0
 1784 02b4 ADF81040 		strh	r4, [sp, #16]	@ movhi
 1785              	.LVL162:
 1786              	.LBB670:
 1787              	.LBB671:
 1788              	.LBB672:
 1789              	.LBB673:
 1790              	.LBB674:
 1791              	.LBB675:
 1792              		.loc 1 205 0
 1793 02b8 0122     		movs	r2, #1
 1794 02ba 9847     		blx	r3
 1795              	.LVL163:
 1796              	.LBE675:
 1797              	.LBE674:
 1798              		.loc 1 217 0
 1799 02bc 0128     		cmp	r0, #1
 1800 02be 97D1     		bne	.L98
 1801              	.LVL164:
 1802              	.LBE673:
 1803              	.LBE672:
 1804              		.loc 1 344 0
 1805 02c0 BDF81030 		ldrh	r3, [sp, #16]
 1806              	.LVL165:
 1807              	.LBB676:
 1808              	.LBB677:
 1809              	.LBB678:
 1810              		.loc 1 106 0
 1811 02c4 8DF81330 		strb	r3, [sp, #19]
 1812              	.LVL166:
 1813              		.loc 1 105 0
 1814 02c8 C3F30723 		ubfx	r3, r3, #8, #8
 1815 02cc 8DF81230 		strb	r3, [sp, #18]
 1816              	.LBE678:
 1817              	.LBE677:
 1818              	.LBE676:
 1819              		.loc 1 344 0
 1820 02d0 14A9     		add	r1, sp, #80
 1821 02d2 BDF81230 		ldrh	r3, [sp, #18]
 1822 02d6 21F8403D 		strh	r3, [r1, #-64]!	@ movhi
 1823 02da 81E7     		b	.L111
 1824              	.LVL167:
ARM GAS  C:\Users\mathi\AppData\Local\Temp\cc36u0DG.s 			page 33


 1825              	.L114:
 1826              	.LBE671:
 1827              	.LBE670:
 1828              	.LBE683:
 1829              	.LBE729:
 1830              		.loc 1 327 0
 1831 02dc FFF7FEFF 		bl	__stack_chk_fail
 1832              	.LVL168:
 1833              	.L122:
 1834              		.align	2
 1835              	.L121:
 1836 02e0 00000000 		.word	__stack_chk_guard
 1837 02e4 0080FFFF 		.word	-32768
 1838              		.cfi_endproc
 1839              	.LFE21:
 1840              		.size	cmp_write_sint, .-cmp_write_sint
 1841              		.section	.text.cmp_write_ufix,"ax",%progbits
 1842              		.align	1
 1843              		.p2align 4,,15
 1844              		.global	cmp_write_ufix
 1845              		.syntax unified
 1846              		.thumb
 1847              		.thumb_func
 1848              		.fpu fpv4-sp-d16
 1849              		.type	cmp_write_ufix, %function
 1850              	cmp_write_ufix:
 1851              	.LFB22:
 1852              		.loc 1 329 0
 1853              		.cfi_startproc
 1854              		@ args = 0, pretend = 0, frame = 8
 1855              		@ frame_needed = 0, uses_anonymous_args = 0
 1856              	.LVL169:
 1857 0000 70B5     		push	{r4, r5, r6, lr}
 1858              		.cfi_def_cfa_offset 16
 1859              		.cfi_offset 4, -16
 1860              		.cfi_offset 5, -12
 1861              		.cfi_offset 6, -8
 1862              		.cfi_offset 14, -4
 1863 0002 0F4C     		ldr	r4, .L130
 1864 0004 82B0     		sub	sp, sp, #8
 1865              		.cfi_def_cfa_offset 24
 1866              		.loc 1 329 0
 1867 0006 2368     		ldr	r3, [r4]
 1868 0008 0193     		str	r3, [sp, #4]
 1869              	.LBB730:
 1870              	.LBB731:
 1871              		.loc 1 255 0
 1872 000a 0B06     		lsls	r3, r1, #24
 1873              	.LBE731:
 1874              	.LBE730:
 1875              		.loc 1 329 0
 1876 000c 0546     		mov	r5, r0
 1877              	.LVL170:
 1878              	.LBB738:
 1879              	.LBB736:
 1880              		.loc 1 255 0
 1881 000e 11D4     		bmi	.L124
ARM GAS  C:\Users\mathi\AppData\Local\Temp\cc36u0DG.s 			page 34


 1882              	.LVL171:
 1883 0010 02AB     		add	r3, sp, #8
 1884              	.LBB732:
 1885              	.LBB733:
 1886              	.LBB734:
 1887              	.LBB735:
 1888              		.loc 1 205 0
 1889 0012 C668     		ldr	r6, [r0, #12]
 1890 0014 03F8051D 		strb	r1, [r3, #-5]!
 1891              	.LVL172:
 1892 0018 0122     		movs	r2, #1
 1893 001a 1946     		mov	r1, r3
 1894              	.LVL173:
 1895 001c B047     		blx	r6
 1896              	.LVL174:
 1897              	.LBE735:
 1898              	.LBE734:
 1899              		.loc 1 225 0
 1900 001e 0128     		cmp	r0, #1
 1901 0020 02D0     		beq	.L125
 1902              		.loc 1 228 0
 1903 0022 0623     		movs	r3, #6
 1904 0024 2B70     		strb	r3, [r5]
 1905              		.loc 1 229 0
 1906 0026 0020     		movs	r0, #0
 1907              	.LVL175:
 1908              	.L125:
 1909              	.LBE733:
 1910              	.LBE732:
 1911              	.LBE736:
 1912              	.LBE738:
 1913              		.loc 1 331 0
 1914 0028 019A     		ldr	r2, [sp, #4]
 1915 002a 2368     		ldr	r3, [r4]
 1916 002c 9A42     		cmp	r2, r3
 1917 002e 05D1     		bne	.L129
 1918 0030 02B0     		add	sp, sp, #8
 1919              		.cfi_remember_state
 1920              		.cfi_def_cfa_offset 16
 1921              		@ sp needed
 1922 0032 70BD     		pop	{r4, r5, r6, pc}
 1923              	.LVL176:
 1924              	.L124:
 1925              		.cfi_restore_state
 1926              	.LBB739:
 1927              	.LBB737:
 1928              		.loc 1 258 0
 1929 0034 0523     		movs	r3, #5
 1930 0036 0370     		strb	r3, [r0]
 1931              		.loc 1 259 0
 1932 0038 0020     		movs	r0, #0
 1933              	.LVL177:
 1934 003a F5E7     		b	.L125
 1935              	.LVL178:
 1936              	.L129:
 1937              	.LBE737:
 1938              	.LBE739:
ARM GAS  C:\Users\mathi\AppData\Local\Temp\cc36u0DG.s 			page 35


 1939              		.loc 1 331 0
 1940 003c FFF7FEFF 		bl	__stack_chk_fail
 1941              	.LVL179:
 1942              	.L131:
 1943              		.align	2
 1944              	.L130:
 1945 0040 00000000 		.word	__stack_chk_guard
 1946              		.cfi_endproc
 1947              	.LFE22:
 1948              		.size	cmp_write_ufix, .-cmp_write_ufix
 1949              		.section	.text.cmp_write_u8,"ax",%progbits
 1950              		.align	1
 1951              		.p2align 4,,15
 1952              		.global	cmp_write_u8
 1953              		.syntax unified
 1954              		.thumb
 1955              		.thumb_func
 1956              		.fpu fpv4-sp-d16
 1957              		.type	cmp_write_u8, %function
 1958              	cmp_write_u8:
 1959              	.LFB23:
 1960              		.loc 1 333 0
 1961              		.cfi_startproc
 1962              		@ args = 0, pretend = 0, frame = 16
 1963              		@ frame_needed = 0, uses_anonymous_args = 0
 1964              	.LVL180:
 1965 0000 30B5     		push	{r4, r5, lr}
 1966              		.cfi_def_cfa_offset 12
 1967              		.cfi_offset 4, -12
 1968              		.cfi_offset 5, -8
 1969              		.cfi_offset 14, -4
 1970 0002 85B0     		sub	sp, sp, #20
 1971              		.cfi_def_cfa_offset 32
 1972 0004 04AB     		add	r3, sp, #16
 1973 0006 CC22     		movs	r2, #204
 1974              		.loc 1 333 0
 1975 0008 114D     		ldr	r5, .L138
 1976 000a 03F8052D 		strb	r2, [r3, #-5]!
 1977 000e 2A68     		ldr	r2, [r5]
 1978 0010 8DF80710 		strb	r1, [sp, #7]
 1979 0014 0392     		str	r2, [sp, #12]
 1980              	.LBB744:
 1981              	.LBB745:
 1982              	.LBB746:
 1983              	.LBB747:
 1984              		.loc 1 205 0
 1985 0016 1946     		mov	r1, r3
 1986              	.LVL181:
 1987 0018 0122     		movs	r2, #1
 1988 001a C368     		ldr	r3, [r0, #12]
 1989              	.LBE747:
 1990              	.LBE746:
 1991              	.LBE745:
 1992              	.LBE744:
 1993              		.loc 1 333 0
 1994 001c 0446     		mov	r4, r0
 1995              	.LVL182:
ARM GAS  C:\Users\mathi\AppData\Local\Temp\cc36u0DG.s 			page 36


 1996              	.LBB752:
 1997              	.LBB750:
 1998              	.LBB749:
 1999              	.LBB748:
 2000              		.loc 1 205 0
 2001 001e 9847     		blx	r3
 2002              	.LVL183:
 2003              	.LBE748:
 2004              	.LBE749:
 2005              		.loc 1 217 0
 2006 0020 0128     		cmp	r0, #1
 2007 0022 0ED1     		bne	.L133
 2008              	.LVL184:
 2009              	.LBE750:
 2010              	.LBE752:
 2011              		.loc 1 337 0
 2012 0024 0246     		mov	r2, r0
 2013 0026 E368     		ldr	r3, [r4, #12]
 2014 0028 2046     		mov	r0, r4
 2015 002a 0DF10701 		add	r1, sp, #7
 2016 002e 9847     		blx	r3
 2017              	.LVL185:
 2018 0030 0030     		adds	r0, r0, #0
 2019 0032 18BF     		it	ne
 2020 0034 0120     		movne	r0, #1
 2021              	.L134:
 2022              		.loc 1 338 0
 2023 0036 039A     		ldr	r2, [sp, #12]
 2024 0038 2B68     		ldr	r3, [r5]
 2025 003a 9A42     		cmp	r2, r3
 2026 003c 05D1     		bne	.L137
 2027 003e 05B0     		add	sp, sp, #20
 2028              		.cfi_remember_state
 2029              		.cfi_def_cfa_offset 12
 2030              		@ sp needed
 2031 0040 30BD     		pop	{r4, r5, pc}
 2032              	.LVL186:
 2033              	.L133:
 2034              		.cfi_restore_state
 2035              	.LBB753:
 2036              	.LBB751:
 2037              		.loc 1 220 0
 2038 0042 0823     		movs	r3, #8
 2039 0044 2370     		strb	r3, [r4]
 2040              	.LVL187:
 2041              	.LBE751:
 2042              	.LBE753:
 2043              		.loc 1 335 0
 2044 0046 0020     		movs	r0, #0
 2045 0048 F5E7     		b	.L134
 2046              	.L137:
 2047              		.loc 1 338 0
 2048 004a FFF7FEFF 		bl	__stack_chk_fail
 2049              	.LVL188:
 2050              	.L139:
 2051 004e 00BF     		.align	2
 2052              	.L138:
ARM GAS  C:\Users\mathi\AppData\Local\Temp\cc36u0DG.s 			page 37


 2053 0050 00000000 		.word	__stack_chk_guard
 2054              		.cfi_endproc
 2055              	.LFE23:
 2056              		.size	cmp_write_u8, .-cmp_write_u8
 2057              		.section	.text.cmp_write_u16,"ax",%progbits
 2058              		.align	1
 2059              		.p2align 4,,15
 2060              		.global	cmp_write_u16
 2061              		.syntax unified
 2062              		.thumb
 2063              		.thumb_func
 2064              		.fpu fpv4-sp-d16
 2065              		.type	cmp_write_u16, %function
 2066              	cmp_write_u16:
 2067              	.LFB24:
 2068              		.loc 1 340 0
 2069              		.cfi_startproc
 2070              		@ args = 0, pretend = 0, frame = 16
 2071              		@ frame_needed = 0, uses_anonymous_args = 0
 2072              	.LVL189:
 2073 0000 30B5     		push	{r4, r5, lr}
 2074              		.cfi_def_cfa_offset 12
 2075              		.cfi_offset 4, -12
 2076              		.cfi_offset 5, -8
 2077              		.cfi_offset 14, -4
 2078 0002 85B0     		sub	sp, sp, #20
 2079              		.cfi_def_cfa_offset 32
 2080 0004 04AB     		add	r3, sp, #16
 2081 0006 CD22     		movs	r2, #205
 2082              		.loc 1 340 0
 2083 0008 164D     		ldr	r5, .L146
 2084 000a 03F8072D 		strb	r2, [r3, #-7]!
 2085 000e 2A68     		ldr	r2, [r5]
 2086 0010 ADF80610 		strh	r1, [sp, #6]	@ movhi
 2087 0014 0392     		str	r2, [sp, #12]
 2088              	.LBB761:
 2089              	.LBB762:
 2090              	.LBB763:
 2091              	.LBB764:
 2092              		.loc 1 205 0
 2093 0016 1946     		mov	r1, r3
 2094              	.LVL190:
 2095 0018 0122     		movs	r2, #1
 2096 001a C368     		ldr	r3, [r0, #12]
 2097              	.LBE764:
 2098              	.LBE763:
 2099              	.LBE762:
 2100              	.LBE761:
 2101              		.loc 1 340 0
 2102 001c 0446     		mov	r4, r0
 2103              	.LVL191:
 2104              	.LBB769:
 2105              	.LBB767:
 2106              	.LBB766:
 2107              	.LBB765:
 2108              		.loc 1 205 0
 2109 001e 9847     		blx	r3
ARM GAS  C:\Users\mathi\AppData\Local\Temp\cc36u0DG.s 			page 38


 2110              	.LVL192:
 2111              	.LBE765:
 2112              	.LBE766:
 2113              		.loc 1 217 0
 2114 0020 0128     		cmp	r0, #1
 2115 0022 19D1     		bne	.L141
 2116              	.LVL193:
 2117              	.LBE767:
 2118              	.LBE769:
 2119              		.loc 1 344 0
 2120 0024 BDF80630 		ldrh	r3, [sp, #6]
 2121              	.LVL194:
 2122              	.LBB770:
 2123              	.LBB771:
 2124              	.LBB772:
 2125              		.loc 1 106 0
 2126 0028 8DF80B30 		strb	r3, [sp, #11]
 2127              	.LVL195:
 2128              		.loc 1 105 0
 2129 002c C3F30723 		ubfx	r3, r3, #8, #8
 2130 0030 8DF80A30 		strb	r3, [sp, #10]
 2131              	.LBE772:
 2132              	.LBE771:
 2133              	.LBE770:
 2134              		.loc 1 344 0
 2135 0034 04A9     		add	r1, sp, #16
 2136 0036 BDF80A30 		ldrh	r3, [sp, #10]
 2137 003a 21F80A3D 		strh	r3, [r1, #-10]!	@ movhi
 2138              		.loc 1 346 0
 2139 003e 2046     		mov	r0, r4
 2140 0040 E368     		ldr	r3, [r4, #12]
 2141 0042 0222     		movs	r2, #2
 2142 0044 9847     		blx	r3
 2143              	.LVL196:
 2144 0046 0030     		adds	r0, r0, #0
 2145 0048 18BF     		it	ne
 2146 004a 0120     		movne	r0, #1
 2147              	.LVL197:
 2148              	.L142:
 2149              		.loc 1 347 0
 2150 004c 039A     		ldr	r2, [sp, #12]
 2151 004e 2B68     		ldr	r3, [r5]
 2152 0050 9A42     		cmp	r2, r3
 2153 0052 05D1     		bne	.L145
 2154 0054 05B0     		add	sp, sp, #20
 2155              		.cfi_remember_state
 2156              		.cfi_def_cfa_offset 12
 2157              		@ sp needed
 2158 0056 30BD     		pop	{r4, r5, pc}
 2159              	.LVL198:
 2160              	.L141:
 2161              		.cfi_restore_state
 2162              	.LBB773:
 2163              	.LBB768:
 2164              		.loc 1 220 0
 2165 0058 0823     		movs	r3, #8
 2166 005a 2370     		strb	r3, [r4]
ARM GAS  C:\Users\mathi\AppData\Local\Temp\cc36u0DG.s 			page 39


 2167              	.LVL199:
 2168              	.LBE768:
 2169              	.LBE773:
 2170              		.loc 1 342 0
 2171 005c 0020     		movs	r0, #0
 2172 005e F5E7     		b	.L142
 2173              	.L145:
 2174              		.loc 1 347 0
 2175 0060 FFF7FEFF 		bl	__stack_chk_fail
 2176              	.LVL200:
 2177              	.L147:
 2178              		.align	2
 2179              	.L146:
 2180 0064 00000000 		.word	__stack_chk_guard
 2181              		.cfi_endproc
 2182              	.LFE24:
 2183              		.size	cmp_write_u16, .-cmp_write_u16
 2184              		.section	.text.cmp_write_u32,"ax",%progbits
 2185              		.align	1
 2186              		.p2align 4,,15
 2187              		.global	cmp_write_u32
 2188              		.syntax unified
 2189              		.thumb
 2190              		.thumb_func
 2191              		.fpu fpv4-sp-d16
 2192              		.type	cmp_write_u32, %function
 2193              	cmp_write_u32:
 2194              	.LFB25:
 2195              		.loc 1 349 0
 2196              		.cfi_startproc
 2197              		@ args = 0, pretend = 0, frame = 24
 2198              		@ frame_needed = 0, uses_anonymous_args = 0
 2199              	.LVL201:
 2200 0000 70B5     		push	{r4, r5, r6, lr}
 2201              		.cfi_def_cfa_offset 16
 2202              		.cfi_offset 4, -16
 2203              		.cfi_offset 5, -12
 2204              		.cfi_offset 6, -8
 2205              		.cfi_offset 14, -4
 2206 0002 86B0     		sub	sp, sp, #24
 2207              		.cfi_def_cfa_offset 40
 2208 0004 06AB     		add	r3, sp, #24
 2209 0006 CE22     		movs	r2, #206
 2210              		.loc 1 349 0
 2211 0008 194D     		ldr	r5, .L154
 2212 000a 03F8092D 		strb	r2, [r3, #-9]!
 2213 000e 2A68     		ldr	r2, [r5]
 2214 0010 0191     		str	r1, [sp, #4]
 2215 0012 0592     		str	r2, [sp, #20]
 2216              	.LBB781:
 2217              	.LBB782:
 2218              	.LBB783:
 2219              	.LBB784:
 2220              		.loc 1 205 0
 2221 0014 1946     		mov	r1, r3
 2222              	.LVL202:
 2223 0016 0122     		movs	r2, #1
ARM GAS  C:\Users\mathi\AppData\Local\Temp\cc36u0DG.s 			page 40


 2224 0018 C368     		ldr	r3, [r0, #12]
 2225              	.LBE784:
 2226              	.LBE783:
 2227              	.LBE782:
 2228              	.LBE781:
 2229              		.loc 1 349 0
 2230 001a 0446     		mov	r4, r0
 2231              	.LVL203:
 2232              	.LBB789:
 2233              	.LBB787:
 2234              	.LBB786:
 2235              	.LBB785:
 2236              		.loc 1 205 0
 2237 001c 9847     		blx	r3
 2238              	.LVL204:
 2239              	.LBE785:
 2240              	.LBE786:
 2241              		.loc 1 217 0
 2242 001e 0128     		cmp	r0, #1
 2243 0020 1FD1     		bne	.L149
 2244              	.LVL205:
 2245              	.LBE787:
 2246              	.LBE789:
 2247              		.loc 1 353 0
 2248 0022 019A     		ldr	r2, [sp, #4]
 2249              	.LVL206:
 2250              		.loc 1 355 0
 2251 0024 E668     		ldr	r6, [r4, #12]
 2252              	.LBB790:
 2253              	.LBB791:
 2254              	.LBB792:
 2255              		.loc 1 119 0
 2256 0026 110E     		lsrs	r1, r2, #24
 2257 0028 0023     		movs	r3, #0
 2258 002a 61F30703 		bfi	r3, r1, #0, #8
 2259 002e C2F30741 		ubfx	r1, r2, #16, #8
 2260 0032 61F30F23 		bfi	r3, r1, #8, #8
 2261 0036 C2F30721 		ubfx	r1, r2, #8, #8
 2262 003a 61F31743 		bfi	r3, r1, #16, #8
 2263              	.LBE792:
 2264              	.LBE791:
 2265              	.LBE790:
 2266              		.loc 1 353 0
 2267 003e 06A9     		add	r1, sp, #24
 2268              	.LBB797:
 2269              	.LBB795:
 2270              	.LBB793:
 2271              		.loc 1 119 0
 2272 0040 62F31F63 		bfi	r3, r2, #24, #8
 2273              	.LBE793:
 2274              	.LBE795:
 2275              	.LBE797:
 2276              		.loc 1 353 0
 2277 0044 41F8143D 		str	r3, [r1, #-20]!
 2278              		.loc 1 355 0
 2279 0048 2046     		mov	r0, r4
 2280 004a 0422     		movs	r2, #4
ARM GAS  C:\Users\mathi\AppData\Local\Temp\cc36u0DG.s 			page 41


 2281              	.LVL207:
 2282              	.LBB798:
 2283              	.LBB796:
 2284              	.LBB794:
 2285              		.loc 1 119 0
 2286 004c 0493     		str	r3, [sp, #16]
 2287              	.LVL208:
 2288              	.LBE794:
 2289              	.LBE796:
 2290              	.LBE798:
 2291              		.loc 1 355 0
 2292 004e B047     		blx	r6
 2293              	.LVL209:
 2294 0050 0030     		adds	r0, r0, #0
 2295 0052 18BF     		it	ne
 2296 0054 0120     		movne	r0, #1
 2297              	.LVL210:
 2298              	.L150:
 2299              		.loc 1 356 0
 2300 0056 059A     		ldr	r2, [sp, #20]
 2301 0058 2B68     		ldr	r3, [r5]
 2302 005a 9A42     		cmp	r2, r3
 2303 005c 05D1     		bne	.L153
 2304 005e 06B0     		add	sp, sp, #24
 2305              		.cfi_remember_state
 2306              		.cfi_def_cfa_offset 16
 2307              		@ sp needed
 2308 0060 70BD     		pop	{r4, r5, r6, pc}
 2309              	.LVL211:
 2310              	.L149:
 2311              		.cfi_restore_state
 2312              	.LBB799:
 2313              	.LBB788:
 2314              		.loc 1 220 0
 2315 0062 0823     		movs	r3, #8
 2316 0064 2370     		strb	r3, [r4]
 2317              	.LVL212:
 2318              	.LBE788:
 2319              	.LBE799:
 2320              		.loc 1 351 0
 2321 0066 0020     		movs	r0, #0
 2322 0068 F5E7     		b	.L150
 2323              	.L153:
 2324              		.loc 1 356 0
 2325 006a FFF7FEFF 		bl	__stack_chk_fail
 2326              	.LVL213:
 2327              	.L155:
 2328 006e 00BF     		.align	2
 2329              	.L154:
 2330 0070 00000000 		.word	__stack_chk_guard
 2331              		.cfi_endproc
 2332              	.LFE25:
 2333              		.size	cmp_write_u32, .-cmp_write_u32
 2334              		.section	.text.cmp_write_u64,"ax",%progbits
 2335              		.align	1
 2336              		.p2align 4,,15
 2337              		.global	cmp_write_u64
ARM GAS  C:\Users\mathi\AppData\Local\Temp\cc36u0DG.s 			page 42


 2338              		.syntax unified
 2339              		.thumb
 2340              		.thumb_func
 2341              		.fpu fpv4-sp-d16
 2342              		.type	cmp_write_u64, %function
 2343              	cmp_write_u64:
 2344              	.LFB26:
 2345              		.loc 1 358 0
 2346              		.cfi_startproc
 2347              		@ args = 0, pretend = 0, frame = 32
 2348              		@ frame_needed = 0, uses_anonymous_args = 0
 2349              	.LVL214:
 2350 0000 70B5     		push	{r4, r5, r6, lr}
 2351              		.cfi_def_cfa_offset 16
 2352              		.cfi_offset 4, -16
 2353              		.cfi_offset 5, -12
 2354              		.cfi_offset 6, -8
 2355              		.cfi_offset 14, -4
 2356 0002 244D     		ldr	r5, .L162
 2357 0004 88B0     		sub	sp, sp, #32
 2358              		.cfi_def_cfa_offset 48
 2359 0006 08A9     		add	r1, sp, #32
 2360              		.loc 1 358 0
 2361 0008 CDE90023 		strd	r2, [sp]
 2362 000c CF24     		movs	r4, #207
 2363 000e 2A68     		ldr	r2, [r5]
 2364              	.LVL215:
 2365 0010 01F8114D 		strb	r4, [r1, #-17]!
 2366 0014 0792     		str	r2, [sp, #28]
 2367              	.LBB807:
 2368              	.LBB808:
 2369              	.LBB809:
 2370              	.LBB810:
 2371              		.loc 1 205 0
 2372 0016 C368     		ldr	r3, [r0, #12]
 2373 0018 0122     		movs	r2, #1
 2374              	.LBE810:
 2375              	.LBE809:
 2376              	.LBE808:
 2377              	.LBE807:
 2378              		.loc 1 358 0
 2379 001a 0446     		mov	r4, r0
 2380              	.LVL216:
 2381              	.LBB815:
 2382              	.LBB813:
 2383              	.LBB812:
 2384              	.LBB811:
 2385              		.loc 1 205 0
 2386 001c 9847     		blx	r3
 2387              	.LVL217:
 2388              	.LBE811:
 2389              	.LBE812:
 2390              		.loc 1 217 0
 2391 001e 0128     		cmp	r0, #1
 2392 0020 31D1     		bne	.L157
 2393              	.LVL218:
 2394              	.LBE813:
ARM GAS  C:\Users\mathi\AppData\Local\Temp\cc36u0DG.s 			page 43


 2395              	.LBE815:
 2396              		.loc 1 362 0
 2397 0022 DDE90001 		ldrd	r0, r1, [sp]
 2398              	.LVL219:
 2399              	.LBB816:
 2400              	.LBB817:
 2401              	.LBB818:
 2402              		.loc 1 150 0
 2403 0026 0022     		movs	r2, #0
 2404 0028 030E     		lsrs	r3, r0, #24
 2405 002a 63F30702 		bfi	r2, r3, #0, #8
 2406 002e C0F30743 		ubfx	r3, r0, #16, #8
 2407 0032 63F30F22 		bfi	r2, r3, #8, #8
 2408 0036 C0F30723 		ubfx	r3, r0, #8, #8
 2409              		.loc 1 137 0
 2410 003a 0E0E     		lsrs	r6, r1, #24
 2411              		.loc 1 150 0
 2412 003c 63F31742 		bfi	r2, r3, #16, #8
 2413              		.loc 1 137 0
 2414 0040 0023     		movs	r3, #0
 2415 0042 66F30703 		bfi	r3, r6, #0, #8
 2416 0046 C1F30746 		ubfx	r6, r1, #16, #8
 2417              		.loc 1 150 0
 2418 004a 60F31F62 		bfi	r2, r0, #24, #8
 2419              		.loc 1 137 0
 2420 004e 66F30F23 		bfi	r3, r6, #8, #8
 2421 0052 C1F30720 		ubfx	r0, r1, #8, #8
 2422              	.LVL220:
 2423 0056 60F31743 		bfi	r3, r0, #16, #8
 2424 005a 61F31F63 		bfi	r3, r1, #24, #8
 2425 005e CDE90432 		strd	r3, r2, [sp, #16]
 2426              	.LVL221:
 2427              	.LBE818:
 2428              	.LBE817:
 2429              	.LBE816:
 2430              		.loc 1 362 0
 2431 0062 DDE90423 		ldrd	r2, [sp, #16]
 2432 0066 08A9     		add	r1, sp, #32
 2433              	.LVL222:
 2434 0068 61E90823 		strd	r2, [r1, #-32]!
 2435              	.LVL223:
 2436              		.loc 1 364 0
 2437 006c 2046     		mov	r0, r4
 2438 006e E368     		ldr	r3, [r4, #12]
 2439 0070 0822     		movs	r2, #8
 2440 0072 9847     		blx	r3
 2441              	.LVL224:
 2442 0074 0030     		adds	r0, r0, #0
 2443 0076 18BF     		it	ne
 2444 0078 0120     		movne	r0, #1
 2445              	.LVL225:
 2446              	.L158:
 2447              		.loc 1 365 0
 2448 007a 079A     		ldr	r2, [sp, #28]
 2449 007c 2B68     		ldr	r3, [r5]
 2450 007e 9A42     		cmp	r2, r3
 2451 0080 05D1     		bne	.L161
ARM GAS  C:\Users\mathi\AppData\Local\Temp\cc36u0DG.s 			page 44


 2452 0082 08B0     		add	sp, sp, #32
 2453              		.cfi_remember_state
 2454              		.cfi_def_cfa_offset 16
 2455              		@ sp needed
 2456 0084 70BD     		pop	{r4, r5, r6, pc}
 2457              	.LVL226:
 2458              	.L157:
 2459              		.cfi_restore_state
 2460              	.LBB819:
 2461              	.LBB814:
 2462              		.loc 1 220 0
 2463 0086 0823     		movs	r3, #8
 2464 0088 2370     		strb	r3, [r4]
 2465              	.LVL227:
 2466              	.LBE814:
 2467              	.LBE819:
 2468              		.loc 1 360 0
 2469 008a 0020     		movs	r0, #0
 2470 008c F5E7     		b	.L158
 2471              	.L161:
 2472              		.loc 1 365 0
 2473 008e FFF7FEFF 		bl	__stack_chk_fail
 2474              	.LVL228:
 2475              	.L163:
 2476 0092 00BF     		.align	2
 2477              	.L162:
 2478 0094 00000000 		.word	__stack_chk_guard
 2479              		.cfi_endproc
 2480              	.LFE26:
 2481              		.size	cmp_write_u64, .-cmp_write_u64
 2482              		.section	.text.cmp_write_uint,"ax",%progbits
 2483              		.align	1
 2484              		.p2align 4,,15
 2485              		.global	cmp_write_uint
 2486              		.syntax unified
 2487              		.thumb
 2488              		.thumb_func
 2489              		.fpu fpv4-sp-d16
 2490              		.type	cmp_write_uint, %function
 2491              	cmp_write_uint:
 2492              	.LFB27:
 2493              		.loc 1 367 0
 2494              		.cfi_startproc
 2495              		@ args = 0, pretend = 0, frame = 48
 2496              		@ frame_needed = 0, uses_anonymous_args = 0
 2497              	.LVL229:
 2498 0000 F0B5     		push	{r4, r5, r6, r7, lr}
 2499              		.cfi_def_cfa_offset 20
 2500              		.cfi_offset 4, -20
 2501              		.cfi_offset 5, -16
 2502              		.cfi_offset 6, -12
 2503              		.cfi_offset 7, -8
 2504              		.cfi_offset 14, -4
 2505 0002 1D46     		mov	r5, r3
 2506 0004 5E4E     		ldr	r6, .L178
 2507 0006 8DB0     		sub	sp, sp, #52
 2508              		.cfi_def_cfa_offset 72
ARM GAS  C:\Users\mathi\AppData\Local\Temp\cc36u0DG.s 			page 45


 2509              		.loc 1 368 0
 2510 0008 002D     		cmp	r5, #0
 2511              		.loc 1 367 0
 2512 000a 3368     		ldr	r3, [r6]
 2513 000c 0B93     		str	r3, [sp, #44]
 2514              		.loc 1 368 0
 2515 000e 08BF     		it	eq
 2516 0010 802A     		cmpeq	r2, #128
 2517              		.loc 1 367 0
 2518 0012 0746     		mov	r7, r0
 2519 0014 1446     		mov	r4, r2
 2520 0016 C368     		ldr	r3, [r0, #12]
 2521              		.loc 1 368 0
 2522 0018 10D2     		bcs	.L165
 2523              	.LVL230:
 2524              		.loc 1 369 0
 2525 001a 0CA9     		add	r1, sp, #48
 2526              	.LBB866:
 2527              	.LBB867:
 2528              	.LBB868:
 2529              	.LBB869:
 2530              	.LBB870:
 2531              		.loc 1 205 0
 2532 001c 0122     		movs	r2, #1
 2533              	.LVL231:
 2534              	.LBE870:
 2535              	.LBE869:
 2536              	.LBE868:
 2537              	.LBE867:
 2538              	.LBE866:
 2539              		.loc 1 369 0
 2540 001e 01F82A4D 		strb	r4, [r1, #-42]!
 2541              	.LVL232:
 2542              	.LBB875:
 2543              	.LBB874:
 2544              	.LBB873:
 2545              	.LBB872:
 2546              	.LBB871:
 2547              		.loc 1 205 0
 2548 0022 9847     		blx	r3
 2549              	.LVL233:
 2550              	.LBE871:
 2551              	.LBE872:
 2552              		.loc 1 225 0
 2553 0024 0128     		cmp	r0, #1
 2554 0026 02D0     		beq	.L166
 2555              		.loc 1 228 0
 2556 0028 0623     		movs	r3, #6
 2557 002a 3B70     		strb	r3, [r7]
 2558              		.loc 1 229 0
 2559 002c 0020     		movs	r0, #0
 2560              	.LVL234:
 2561              	.L166:
 2562              	.LBE873:
 2563              	.LBE874:
 2564              	.LBE875:
 2565              		.loc 1 378 0
ARM GAS  C:\Users\mathi\AppData\Local\Temp\cc36u0DG.s 			page 46


 2566 002e 0B9A     		ldr	r2, [sp, #44]
 2567 0030 3368     		ldr	r3, [r6]
 2568 0032 9A42     		cmp	r2, r3
 2569 0034 40F0A180 		bne	.L174
 2570 0038 0DB0     		add	sp, sp, #52
 2571              		.cfi_remember_state
 2572              		.cfi_def_cfa_offset 20
 2573              		@ sp needed
 2574 003a F0BD     		pop	{r4, r5, r6, r7, pc}
 2575              	.LVL235:
 2576              	.L165:
 2577              		.cfi_restore_state
 2578              		.loc 1 370 0
 2579 003c 002D     		cmp	r5, #0
 2580 003e 08BF     		it	eq
 2581 0040 B2F5807F 		cmpeq	r2, #256
 2582 0044 62D3     		bcc	.L175
 2583              		.loc 1 372 0
 2584 0046 002D     		cmp	r5, #0
 2585 0048 08BF     		it	eq
 2586 004a B2F5803F 		cmpeq	r2, #65536
 2587 004e 75D3     		bcc	.L176
 2588              	.LVL236:
 2589              	.LBB876:
 2590              	.LBB877:
 2591              		.loc 1 374 0
 2592 0050 012D     		cmp	r5, #1
 2593 0052 08BF     		it	eq
 2594 0054 002A     		cmpeq	r2, #0
 2595 0056 0CA9     		add	r1, sp, #48
 2596 0058 35D3     		bcc	.L177
 2597              	.LVL237:
 2598 005a CF22     		movs	r2, #207
 2599              	.LVL238:
 2600 005c 01F8252D 		strb	r2, [r1, #-37]!
 2601 0060 CDE90645 		strd	r4, [sp, #24]
 2602              	.LVL239:
 2603              	.LBB878:
 2604              	.LBB879:
 2605              	.LBB880:
 2606              	.LBB881:
 2607              	.LBB882:
 2608              	.LBB883:
 2609              		.loc 1 205 0
 2610 0064 0122     		movs	r2, #1
 2611 0066 9847     		blx	r3
 2612              	.LVL240:
 2613              	.LBE883:
 2614              	.LBE882:
 2615              		.loc 1 217 0
 2616 0068 0128     		cmp	r0, #1
 2617 006a 63D1     		bne	.L168
 2618              	.LVL241:
 2619              	.LBE881:
 2620              	.LBE880:
 2621              		.loc 1 362 0
 2622 006c DDE90601 		ldrd	r0, r1, [sp, #24]
ARM GAS  C:\Users\mathi\AppData\Local\Temp\cc36u0DG.s 			page 47


 2623              	.LVL242:
 2624              	.LBB884:
 2625              	.LBB885:
 2626              	.LBB886:
 2627              		.loc 1 150 0
 2628 0070 0022     		movs	r2, #0
 2629 0072 030E     		lsrs	r3, r0, #24
 2630 0074 63F30702 		bfi	r2, r3, #0, #8
 2631 0078 C0F30743 		ubfx	r3, r0, #16, #8
 2632 007c 63F30F22 		bfi	r2, r3, #8, #8
 2633 0080 C0F30723 		ubfx	r3, r0, #8, #8
 2634              		.loc 1 137 0
 2635 0084 0C0E     		lsrs	r4, r1, #24
 2636              	.LVL243:
 2637              		.loc 1 150 0
 2638 0086 63F31742 		bfi	r2, r3, #16, #8
 2639              		.loc 1 137 0
 2640 008a 0023     		movs	r3, #0
 2641 008c 64F30703 		bfi	r3, r4, #0, #8
 2642 0090 C1F30744 		ubfx	r4, r1, #16, #8
 2643              		.loc 1 150 0
 2644 0094 60F31F62 		bfi	r2, r0, #24, #8
 2645              		.loc 1 137 0
 2646 0098 64F30F23 		bfi	r3, r4, #8, #8
 2647 009c C1F30720 		ubfx	r0, r1, #8, #8
 2648              	.LVL244:
 2649 00a0 60F31743 		bfi	r3, r0, #16, #8
 2650 00a4 61F31F63 		bfi	r3, r1, #24, #8
 2651 00a8 CDE90832 		strd	r3, r2, [sp, #32]
 2652              	.LVL245:
 2653              	.LBE886:
 2654              	.LBE885:
 2655              	.LBE884:
 2656              		.loc 1 362 0
 2657 00ac DDE90823 		ldrd	r2, [sp, #32]
 2658 00b0 0CA9     		add	r1, sp, #48
 2659              	.LVL246:
 2660 00b2 61E90623 		strd	r2, [r1, #-24]!
 2661              	.LVL247:
 2662              		.loc 1 364 0
 2663 00b6 3846     		mov	r0, r7
 2664 00b8 FB68     		ldr	r3, [r7, #12]
 2665 00ba 0822     		movs	r2, #8
 2666 00bc 9847     		blx	r3
 2667              	.LVL248:
 2668 00be 0030     		adds	r0, r0, #0
 2669 00c0 18BF     		it	ne
 2670 00c2 0120     		movne	r0, #1
 2671 00c4 B3E7     		b	.L166
 2672              	.LVL249:
 2673              	.L177:
 2674 00c6 CE22     		movs	r2, #206
 2675              	.LVL250:
 2676 00c8 01F8262D 		strb	r2, [r1, #-38]!
 2677              	.LBE879:
 2678              	.LBE878:
 2679              		.loc 1 375 0
ARM GAS  C:\Users\mathi\AppData\Local\Temp\cc36u0DG.s 			page 48


 2680 00cc 0494     		str	r4, [sp, #16]
 2681              	.LVL251:
 2682              	.LBB887:
 2683              	.LBB888:
 2684              	.LBB889:
 2685              	.LBB890:
 2686              	.LBB891:
 2687              	.LBB892:
 2688              		.loc 1 205 0
 2689 00ce 0122     		movs	r2, #1
 2690 00d0 9847     		blx	r3
 2691              	.LVL252:
 2692              	.LBE892:
 2693              	.LBE891:
 2694              		.loc 1 217 0
 2695 00d2 0128     		cmp	r0, #1
 2696 00d4 2ED1     		bne	.L168
 2697              	.LVL253:
 2698              	.LBE890:
 2699              	.LBE889:
 2700              		.loc 1 353 0
 2701 00d6 049A     		ldr	r2, [sp, #16]
 2702              	.LVL254:
 2703              		.loc 1 355 0
 2704 00d8 FC68     		ldr	r4, [r7, #12]
 2705              	.LVL255:
 2706              	.LBB893:
 2707              	.LBB894:
 2708              	.LBB895:
 2709              		.loc 1 119 0
 2710 00da 110E     		lsrs	r1, r2, #24
 2711 00dc 0023     		movs	r3, #0
 2712 00de 61F30703 		bfi	r3, r1, #0, #8
 2713 00e2 C2F30741 		ubfx	r1, r2, #16, #8
 2714 00e6 61F30F23 		bfi	r3, r1, #8, #8
 2715 00ea C2F30721 		ubfx	r1, r2, #8, #8
 2716 00ee 61F31743 		bfi	r3, r1, #16, #8
 2717              	.LBE895:
 2718              	.LBE894:
 2719              	.LBE893:
 2720              		.loc 1 353 0
 2721 00f2 0CA9     		add	r1, sp, #48
 2722              	.LBB900:
 2723              	.LBB898:
 2724              	.LBB896:
 2725              		.loc 1 119 0
 2726 00f4 62F31F63 		bfi	r3, r2, #24, #8
 2727              	.LBE896:
 2728              	.LBE898:
 2729              	.LBE900:
 2730              		.loc 1 353 0
 2731 00f8 41F8203D 		str	r3, [r1, #-32]!
 2732              		.loc 1 355 0
 2733 00fc 3846     		mov	r0, r7
 2734 00fe 0422     		movs	r2, #4
 2735              	.LVL256:
 2736              	.LBB901:
ARM GAS  C:\Users\mathi\AppData\Local\Temp\cc36u0DG.s 			page 49


 2737              	.LBB899:
 2738              	.LBB897:
 2739              		.loc 1 119 0
 2740 0100 0593     		str	r3, [sp, #20]
 2741              	.LVL257:
 2742              	.LBE897:
 2743              	.LBE899:
 2744              	.LBE901:
 2745              		.loc 1 355 0
 2746 0102 A047     		blx	r4
 2747              	.LVL258:
 2748 0104 0030     		adds	r0, r0, #0
 2749 0106 18BF     		it	ne
 2750 0108 0120     		movne	r0, #1
 2751 010a 90E7     		b	.L166
 2752              	.LVL259:
 2753              	.L175:
 2754 010c 0CA9     		add	r1, sp, #48
 2755 010e CC22     		movs	r2, #204
 2756              	.LVL260:
 2757 0110 01F8282D 		strb	r2, [r1, #-40]!
 2758              	.LBE888:
 2759              	.LBE887:
 2760              	.LBE877:
 2761              	.LBE876:
 2762              		.loc 1 371 0
 2763 0114 8DF80740 		strb	r4, [sp, #7]
 2764              	.LVL261:
 2765              	.LBB902:
 2766              	.LBB903:
 2767              	.LBB904:
 2768              	.LBB905:
 2769              	.LBB906:
 2770              	.LBB907:
 2771              		.loc 1 205 0
 2772 0118 0122     		movs	r2, #1
 2773 011a 9847     		blx	r3
 2774              	.LVL262:
 2775              	.LBE907:
 2776              	.LBE906:
 2777              		.loc 1 217 0
 2778 011c 0128     		cmp	r0, #1
 2779 011e 09D1     		bne	.L168
 2780              	.LVL263:
 2781              	.LBE905:
 2782              	.LBE904:
 2783              		.loc 1 337 0
 2784 0120 0246     		mov	r2, r0
 2785 0122 FB68     		ldr	r3, [r7, #12]
 2786 0124 3846     		mov	r0, r7
 2787 0126 0DF10701 		add	r1, sp, #7
 2788 012a 9847     		blx	r3
 2789              	.LVL264:
 2790 012c 0030     		adds	r0, r0, #0
 2791 012e 18BF     		it	ne
 2792 0130 0120     		movne	r0, #1
 2793 0132 7CE7     		b	.L166
ARM GAS  C:\Users\mathi\AppData\Local\Temp\cc36u0DG.s 			page 50


 2794              	.LVL265:
 2795              	.L168:
 2796              	.LBB909:
 2797              	.LBB908:
 2798              		.loc 1 220 0
 2799 0134 0823     		movs	r3, #8
 2800 0136 3B70     		strb	r3, [r7]
 2801              	.LBE908:
 2802              	.LBE909:
 2803              		.loc 1 335 0
 2804 0138 0020     		movs	r0, #0
 2805 013a 78E7     		b	.L166
 2806              	.LVL266:
 2807              	.L176:
 2808 013c 0CA9     		add	r1, sp, #48
 2809 013e CD22     		movs	r2, #205
 2810              	.LVL267:
 2811 0140 01F8272D 		strb	r2, [r1, #-39]!
 2812              	.LBE903:
 2813              	.LBE902:
 2814              		.loc 1 373 0
 2815 0144 ADF80C40 		strh	r4, [sp, #12]	@ movhi
 2816              	.LVL268:
 2817              	.LBB910:
 2818              	.LBB911:
 2819              	.LBB912:
 2820              	.LBB913:
 2821              	.LBB914:
 2822              	.LBB915:
 2823              		.loc 1 205 0
 2824 0148 0122     		movs	r2, #1
 2825 014a 9847     		blx	r3
 2826              	.LVL269:
 2827              	.LBE915:
 2828              	.LBE914:
 2829              		.loc 1 217 0
 2830 014c 0128     		cmp	r0, #1
 2831 014e F1D1     		bne	.L168
 2832              	.LVL270:
 2833              	.LBE913:
 2834              	.LBE912:
 2835              		.loc 1 344 0
 2836 0150 BDF80C30 		ldrh	r3, [sp, #12]
 2837              	.LVL271:
 2838              	.LBB916:
 2839              	.LBB917:
 2840              	.LBB918:
 2841              		.loc 1 106 0
 2842 0154 8DF80F30 		strb	r3, [sp, #15]
 2843              	.LVL272:
 2844              		.loc 1 105 0
 2845 0158 C3F30723 		ubfx	r3, r3, #8, #8
 2846 015c 8DF80E30 		strb	r3, [sp, #14]
 2847              	.LBE918:
 2848              	.LBE917:
 2849              	.LBE916:
 2850              		.loc 1 344 0
ARM GAS  C:\Users\mathi\AppData\Local\Temp\cc36u0DG.s 			page 51


 2851 0160 0CA9     		add	r1, sp, #48
 2852 0162 BDF80E30 		ldrh	r3, [sp, #14]
 2853 0166 21F8243D 		strh	r3, [r1, #-36]!	@ movhi
 2854              		.loc 1 346 0
 2855 016a 3846     		mov	r0, r7
 2856 016c FB68     		ldr	r3, [r7, #12]
 2857 016e 0222     		movs	r2, #2
 2858 0170 9847     		blx	r3
 2859              	.LVL273:
 2860 0172 0030     		adds	r0, r0, #0
 2861 0174 18BF     		it	ne
 2862 0176 0120     		movne	r0, #1
 2863 0178 59E7     		b	.L166
 2864              	.LVL274:
 2865              	.L174:
 2866              	.LBE911:
 2867              	.LBE910:
 2868              		.loc 1 378 0
 2869 017a FFF7FEFF 		bl	__stack_chk_fail
 2870              	.LVL275:
 2871              	.L179:
 2872 017e 00BF     		.align	2
 2873              	.L178:
 2874 0180 00000000 		.word	__stack_chk_guard
 2875              		.cfi_endproc
 2876              	.LFE27:
 2877              		.size	cmp_write_uint, .-cmp_write_uint
 2878              		.section	.text.cmp_write_float,"ax",%progbits
 2879              		.align	1
 2880              		.p2align 4,,15
 2881              		.global	cmp_write_float
 2882              		.syntax unified
 2883              		.thumb
 2884              		.thumb_func
 2885              		.fpu fpv4-sp-d16
 2886              		.type	cmp_write_float, %function
 2887              	cmp_write_float:
 2888              	.LFB28:
 2889              		.loc 1 380 0
 2890              		.cfi_startproc
 2891              		@ args = 0, pretend = 0, frame = 24
 2892              		@ frame_needed = 0, uses_anonymous_args = 0
 2893              	.LVL276:
 2894 0000 70B5     		push	{r4, r5, r6, lr}
 2895              		.cfi_def_cfa_offset 16
 2896              		.cfi_offset 4, -16
 2897              		.cfi_offset 5, -12
 2898              		.cfi_offset 6, -8
 2899              		.cfi_offset 14, -4
 2900 0002 1B4D     		ldr	r5, .L186
 2901 0004 86B0     		sub	sp, sp, #24
 2902              		.cfi_def_cfa_offset 40
 2903 0006 06A9     		add	r1, sp, #24
 2904              		.loc 1 380 0
 2905 0008 2A68     		ldr	r2, [r5]
 2906 000a 0592     		str	r2, [sp, #20]
 2907 000c CA23     		movs	r3, #202
ARM GAS  C:\Users\mathi\AppData\Local\Temp\cc36u0DG.s 			page 52


 2908 000e 01F8093D 		strb	r3, [r1, #-9]!
 2909 0012 8DED010A 		vstr.32	s0, [sp, #4]
 2910              	.LBB926:
 2911              	.LBB927:
 2912              	.LBB928:
 2913              	.LBB929:
 2914              		.loc 1 205 0
 2915 0016 C368     		ldr	r3, [r0, #12]
 2916 0018 0122     		movs	r2, #1
 2917              	.LBE929:
 2918              	.LBE928:
 2919              	.LBE927:
 2920              	.LBE926:
 2921              		.loc 1 380 0
 2922 001a 0446     		mov	r4, r0
 2923              	.LVL277:
 2924              	.LBB934:
 2925              	.LBB932:
 2926              	.LBB931:
 2927              	.LBB930:
 2928              		.loc 1 205 0
 2929 001c 9847     		blx	r3
 2930              	.LVL278:
 2931              	.LBE930:
 2932              	.LBE931:
 2933              		.loc 1 217 0
 2934 001e 0128     		cmp	r0, #1
 2935 0020 20D1     		bne	.L181
 2936              	.LVL279:
 2937              	.LBE932:
 2938              	.LBE934:
 2939              	.LBB935:
 2940              	.LBB936:
 2941              	.LBB937:
 2942              		.loc 1 163 0
 2943 0022 019A     		ldr	r2, [sp, #4]
 2944              	.LBE937:
 2945              	.LBE936:
 2946              	.LBE935:
 2947              		.loc 1 386 0
 2948 0024 E668     		ldr	r6, [r4, #12]
 2949              	.LBB940:
 2950              	.LBB939:
 2951              	.LBB938:
 2952              		.loc 1 163 0
 2953 0026 110E     		lsrs	r1, r2, #24
 2954 0028 0023     		movs	r3, #0
 2955 002a 61F30703 		bfi	r3, r1, #0, #8
 2956 002e C2F30741 		ubfx	r1, r2, #16, #8
 2957 0032 61F30F23 		bfi	r3, r1, #8, #8
 2958 0036 C2F30721 		ubfx	r1, r2, #8, #8
 2959 003a 61F31743 		bfi	r3, r1, #16, #8
 2960 003e 62F31F63 		bfi	r3, r2, #24, #8
 2961 0042 0493     		str	r3, [sp, #16]
 2962              	.LVL280:
 2963              	.LBE938:
 2964              	.LBE939:
ARM GAS  C:\Users\mathi\AppData\Local\Temp\cc36u0DG.s 			page 53


 2965              	.LBE940:
 2966              		.loc 1 384 0
 2967 0044 06A9     		add	r1, sp, #24
 2968 0046 049B     		ldr	r3, [sp, #16]	@ float
 2969 0048 41F8143D 		str	r3, [r1, #-20]!	@ float
 2970              		.loc 1 386 0
 2971 004c 2046     		mov	r0, r4
 2972 004e 0422     		movs	r2, #4
 2973 0050 B047     		blx	r6
 2974              	.LVL281:
 2975 0052 0030     		adds	r0, r0, #0
 2976 0054 18BF     		it	ne
 2977 0056 0120     		movne	r0, #1
 2978              	.LVL282:
 2979              	.L182:
 2980              		.loc 1 387 0
 2981 0058 059A     		ldr	r2, [sp, #20]
 2982 005a 2B68     		ldr	r3, [r5]
 2983 005c 9A42     		cmp	r2, r3
 2984 005e 05D1     		bne	.L185
 2985 0060 06B0     		add	sp, sp, #24
 2986              		.cfi_remember_state
 2987              		.cfi_def_cfa_offset 16
 2988              		@ sp needed
 2989 0062 70BD     		pop	{r4, r5, r6, pc}
 2990              	.LVL283:
 2991              	.L181:
 2992              		.cfi_restore_state
 2993              	.LBB941:
 2994              	.LBB933:
 2995              		.loc 1 220 0
 2996 0064 0823     		movs	r3, #8
 2997 0066 2370     		strb	r3, [r4]
 2998              	.LVL284:
 2999              	.LBE933:
 3000              	.LBE941:
 3001              		.loc 1 382 0
 3002 0068 0020     		movs	r0, #0
 3003 006a F5E7     		b	.L182
 3004              	.L185:
 3005              		.loc 1 387 0
 3006 006c FFF7FEFF 		bl	__stack_chk_fail
 3007              	.LVL285:
 3008              	.L187:
 3009              		.align	2
 3010              	.L186:
 3011 0070 00000000 		.word	__stack_chk_guard
 3012              		.cfi_endproc
 3013              	.LFE28:
 3014              		.size	cmp_write_float, .-cmp_write_float
 3015              		.section	.text.cmp_write_double,"ax",%progbits
 3016              		.align	1
 3017              		.p2align 4,,15
 3018              		.global	cmp_write_double
 3019              		.syntax unified
 3020              		.thumb
 3021              		.thumb_func
ARM GAS  C:\Users\mathi\AppData\Local\Temp\cc36u0DG.s 			page 54


 3022              		.fpu fpv4-sp-d16
 3023              		.type	cmp_write_double, %function
 3024              	cmp_write_double:
 3025              	.LFB29:
 3026              		.loc 1 389 0
 3027              		.cfi_startproc
 3028              		@ args = 0, pretend = 0, frame = 32
 3029              		@ frame_needed = 0, uses_anonymous_args = 0
 3030              	.LVL286:
 3031 0000 70B5     		push	{r4, r5, r6, lr}
 3032              		.cfi_def_cfa_offset 16
 3033              		.cfi_offset 4, -16
 3034              		.cfi_offset 5, -12
 3035              		.cfi_offset 6, -8
 3036              		.cfi_offset 14, -4
 3037 0002 244D     		ldr	r5, .L194
 3038 0004 88B0     		sub	sp, sp, #32
 3039              		.cfi_def_cfa_offset 48
 3040 0006 08A9     		add	r1, sp, #32
 3041              		.loc 1 389 0
 3042 0008 2A68     		ldr	r2, [r5]
 3043 000a 0792     		str	r2, [sp, #28]
 3044 000c CB23     		movs	r3, #203
 3045 000e 01F8113D 		strb	r3, [r1, #-17]!
 3046 0012 8DED000B 		vstr.64	d0, [sp]
 3047              	.LBB949:
 3048              	.LBB950:
 3049              	.LBB951:
 3050              	.LBB952:
 3051              		.loc 1 205 0
 3052 0016 C368     		ldr	r3, [r0, #12]
 3053 0018 0122     		movs	r2, #1
 3054              	.LBE952:
 3055              	.LBE951:
 3056              	.LBE950:
 3057              	.LBE949:
 3058              		.loc 1 389 0
 3059 001a 0446     		mov	r4, r0
 3060              	.LVL287:
 3061              	.LBB957:
 3062              	.LBB955:
 3063              	.LBB954:
 3064              	.LBB953:
 3065              		.loc 1 205 0
 3066 001c 9847     		blx	r3
 3067              	.LVL288:
 3068              	.LBE953:
 3069              	.LBE954:
 3070              		.loc 1 217 0
 3071 001e 0128     		cmp	r0, #1
 3072 0020 32D1     		bne	.L189
 3073              	.LVL289:
 3074              	.LBE955:
 3075              	.LBE957:
 3076              		.loc 1 393 0
 3077 0022 DDE90023 		ldrd	r2, [sp]
 3078              	.LVL290:
ARM GAS  C:\Users\mathi\AppData\Local\Temp\cc36u0DG.s 			page 55


 3079              	.LBB958:
 3080              	.LBB959:
 3081              	.LBB960:
 3082              		.loc 1 181 0
 3083 0026 0021     		movs	r1, #0
 3084 0028 1846     		mov	r0, r3
 3085 002a 1B0E     		lsrs	r3, r3, #24
 3086 002c 63F30701 		bfi	r1, r3, #0, #8
 3087 0030 C0F30743 		ubfx	r3, r0, #16, #8
 3088              		.loc 1 194 0
 3089 0034 160E     		lsrs	r6, r2, #24
 3090              		.loc 1 181 0
 3091 0036 63F30F21 		bfi	r1, r3, #8, #8
 3092              		.loc 1 194 0
 3093 003a 0023     		movs	r3, #0
 3094 003c 66F30703 		bfi	r3, r6, #0, #8
 3095              		.loc 1 181 0
 3096 0040 C0F30726 		ubfx	r6, r0, #8, #8
 3097 0044 66F31741 		bfi	r1, r6, #16, #8
 3098              		.loc 1 194 0
 3099 0048 C2F30746 		ubfx	r6, r2, #16, #8
 3100 004c 66F30F23 		bfi	r3, r6, #8, #8
 3101 0050 C2F30726 		ubfx	r6, r2, #8, #8
 3102 0054 66F31743 		bfi	r3, r6, #16, #8
 3103              		.loc 1 181 0
 3104 0058 60F31F61 		bfi	r1, r0, #24, #8
 3105              		.loc 1 194 0
 3106 005c 62F31F63 		bfi	r3, r2, #24, #8
 3107              		.loc 1 181 0
 3108 0060 CDE90413 		strd	r1, r3, [sp, #16]
 3109              	.LVL291:
 3110              	.LBE960:
 3111              	.LBE959:
 3112              	.LBE958:
 3113              		.loc 1 393 0
 3114 0064 DDE90423 		ldrd	r2, [sp, #16]
 3115 0068 08A9     		add	r1, sp, #32
 3116 006a 61E90823 		strd	r2, [r1, #-32]!
 3117              		.loc 1 395 0
 3118 006e 2046     		mov	r0, r4
 3119 0070 E368     		ldr	r3, [r4, #12]
 3120 0072 0822     		movs	r2, #8
 3121 0074 9847     		blx	r3
 3122              	.LVL292:
 3123 0076 0030     		adds	r0, r0, #0
 3124 0078 18BF     		it	ne
 3125 007a 0120     		movne	r0, #1
 3126              	.LVL293:
 3127              	.L190:
 3128              		.loc 1 396 0
 3129 007c 079A     		ldr	r2, [sp, #28]
 3130 007e 2B68     		ldr	r3, [r5]
 3131 0080 9A42     		cmp	r2, r3
 3132 0082 05D1     		bne	.L193
 3133 0084 08B0     		add	sp, sp, #32
 3134              		.cfi_remember_state
 3135              		.cfi_def_cfa_offset 16
ARM GAS  C:\Users\mathi\AppData\Local\Temp\cc36u0DG.s 			page 56


 3136              		@ sp needed
 3137 0086 70BD     		pop	{r4, r5, r6, pc}
 3138              	.LVL294:
 3139              	.L189:
 3140              		.cfi_restore_state
 3141              	.LBB961:
 3142              	.LBB956:
 3143              		.loc 1 220 0
 3144 0088 0823     		movs	r3, #8
 3145 008a 2370     		strb	r3, [r4]
 3146              	.LVL295:
 3147              	.LBE956:
 3148              	.LBE961:
 3149              		.loc 1 391 0
 3150 008c 0020     		movs	r0, #0
 3151 008e F5E7     		b	.L190
 3152              	.L193:
 3153              		.loc 1 396 0
 3154 0090 FFF7FEFF 		bl	__stack_chk_fail
 3155              	.LVL296:
 3156              	.L195:
 3157              		.align	2
 3158              	.L194:
 3159 0094 00000000 		.word	__stack_chk_guard
 3160              		.cfi_endproc
 3161              	.LFE29:
 3162              		.size	cmp_write_double, .-cmp_write_double
 3163              		.section	.text.cmp_write_nil,"ax",%progbits
 3164              		.align	1
 3165              		.p2align 4,,15
 3166              		.global	cmp_write_nil
 3167              		.syntax unified
 3168              		.thumb
 3169              		.thumb_func
 3170              		.fpu fpv4-sp-d16
 3171              		.type	cmp_write_nil, %function
 3172              	cmp_write_nil:
 3173              	.LFB30:
 3174              		.loc 1 398 0
 3175              		.cfi_startproc
 3176              		@ args = 0, pretend = 0, frame = 8
 3177              		@ frame_needed = 0, uses_anonymous_args = 0
 3178              	.LVL297:
 3179 0000 30B5     		push	{r4, r5, lr}
 3180              		.cfi_def_cfa_offset 12
 3181              		.cfi_offset 4, -12
 3182              		.cfi_offset 5, -8
 3183              		.cfi_offset 14, -4
 3184 0002 0C4C     		ldr	r4, .L202
 3185 0004 83B0     		sub	sp, sp, #12
 3186              		.cfi_def_cfa_offset 24
 3187 0006 02A9     		add	r1, sp, #8
 3188              		.loc 1 398 0
 3189 0008 2268     		ldr	r2, [r4]
 3190 000a 0192     		str	r2, [sp, #4]
 3191 000c C023     		movs	r3, #192
 3192 000e 01F8053D 		strb	r3, [r1, #-5]!
ARM GAS  C:\Users\mathi\AppData\Local\Temp\cc36u0DG.s 			page 57


 3193              	.LBB962:
 3194              	.LBB963:
 3195              	.LBB964:
 3196              	.LBB965:
 3197              		.loc 1 205 0
 3198 0012 0122     		movs	r2, #1
 3199 0014 C368     		ldr	r3, [r0, #12]
 3200              	.LBE965:
 3201              	.LBE964:
 3202              	.LBE963:
 3203              	.LBE962:
 3204              		.loc 1 398 0
 3205 0016 0546     		mov	r5, r0
 3206              	.LVL298:
 3207              	.LBB969:
 3208              	.LBB968:
 3209              	.LBB967:
 3210              	.LBB966:
 3211              		.loc 1 205 0
 3212 0018 9847     		blx	r3
 3213              	.LVL299:
 3214              	.LBE966:
 3215              	.LBE967:
 3216              		.loc 1 217 0
 3217 001a 0128     		cmp	r0, #1
 3218 001c 02D0     		beq	.L197
 3219              		.loc 1 220 0
 3220 001e 0823     		movs	r3, #8
 3221 0020 2B70     		strb	r3, [r5]
 3222              		.loc 1 221 0
 3223 0022 0020     		movs	r0, #0
 3224              	.L197:
 3225              	.LVL300:
 3226              	.LBE968:
 3227              	.LBE969:
 3228              		.loc 1 400 0
 3229 0024 019A     		ldr	r2, [sp, #4]
 3230 0026 2368     		ldr	r3, [r4]
 3231 0028 9A42     		cmp	r2, r3
 3232 002a 01D1     		bne	.L201
 3233 002c 03B0     		add	sp, sp, #12
 3234              		.cfi_remember_state
 3235              		.cfi_def_cfa_offset 12
 3236              		@ sp needed
 3237 002e 30BD     		pop	{r4, r5, pc}
 3238              	.LVL301:
 3239              	.L201:
 3240              		.cfi_restore_state
 3241 0030 FFF7FEFF 		bl	__stack_chk_fail
 3242              	.LVL302:
 3243              	.L203:
 3244              		.align	2
 3245              	.L202:
 3246 0034 00000000 		.word	__stack_chk_guard
 3247              		.cfi_endproc
 3248              	.LFE30:
 3249              		.size	cmp_write_nil, .-cmp_write_nil
ARM GAS  C:\Users\mathi\AppData\Local\Temp\cc36u0DG.s 			page 58


 3250              		.section	.text.cmp_write_true,"ax",%progbits
 3251              		.align	1
 3252              		.p2align 4,,15
 3253              		.global	cmp_write_true
 3254              		.syntax unified
 3255              		.thumb
 3256              		.thumb_func
 3257              		.fpu fpv4-sp-d16
 3258              		.type	cmp_write_true, %function
 3259              	cmp_write_true:
 3260              	.LFB31:
 3261              		.loc 1 402 0
 3262              		.cfi_startproc
 3263              		@ args = 0, pretend = 0, frame = 8
 3264              		@ frame_needed = 0, uses_anonymous_args = 0
 3265              	.LVL303:
 3266 0000 30B5     		push	{r4, r5, lr}
 3267              		.cfi_def_cfa_offset 12
 3268              		.cfi_offset 4, -12
 3269              		.cfi_offset 5, -8
 3270              		.cfi_offset 14, -4
 3271 0002 0C4C     		ldr	r4, .L210
 3272 0004 83B0     		sub	sp, sp, #12
 3273              		.cfi_def_cfa_offset 24
 3274 0006 02A9     		add	r1, sp, #8
 3275              		.loc 1 402 0
 3276 0008 2268     		ldr	r2, [r4]
 3277 000a 0192     		str	r2, [sp, #4]
 3278 000c C323     		movs	r3, #195
 3279 000e 01F8053D 		strb	r3, [r1, #-5]!
 3280              	.LBB970:
 3281              	.LBB971:
 3282              	.LBB972:
 3283              	.LBB973:
 3284              		.loc 1 205 0
 3285 0012 0122     		movs	r2, #1
 3286 0014 C368     		ldr	r3, [r0, #12]
 3287              	.LBE973:
 3288              	.LBE972:
 3289              	.LBE971:
 3290              	.LBE970:
 3291              		.loc 1 402 0
 3292 0016 0546     		mov	r5, r0
 3293              	.LVL304:
 3294              	.LBB977:
 3295              	.LBB976:
 3296              	.LBB975:
 3297              	.LBB974:
 3298              		.loc 1 205 0
 3299 0018 9847     		blx	r3
 3300              	.LVL305:
 3301              	.LBE974:
 3302              	.LBE975:
 3303              		.loc 1 217 0
 3304 001a 0128     		cmp	r0, #1
 3305 001c 02D0     		beq	.L205
 3306              		.loc 1 220 0
ARM GAS  C:\Users\mathi\AppData\Local\Temp\cc36u0DG.s 			page 59


 3307 001e 0823     		movs	r3, #8
 3308 0020 2B70     		strb	r3, [r5]
 3309              		.loc 1 221 0
 3310 0022 0020     		movs	r0, #0
 3311              	.L205:
 3312              	.LVL306:
 3313              	.LBE976:
 3314              	.LBE977:
 3315              		.loc 1 404 0
 3316 0024 019A     		ldr	r2, [sp, #4]
 3317 0026 2368     		ldr	r3, [r4]
 3318 0028 9A42     		cmp	r2, r3
 3319 002a 01D1     		bne	.L209
 3320 002c 03B0     		add	sp, sp, #12
 3321              		.cfi_remember_state
 3322              		.cfi_def_cfa_offset 12
 3323              		@ sp needed
 3324 002e 30BD     		pop	{r4, r5, pc}
 3325              	.LVL307:
 3326              	.L209:
 3327              		.cfi_restore_state
 3328 0030 FFF7FEFF 		bl	__stack_chk_fail
 3329              	.LVL308:
 3330              	.L211:
 3331              		.align	2
 3332              	.L210:
 3333 0034 00000000 		.word	__stack_chk_guard
 3334              		.cfi_endproc
 3335              	.LFE31:
 3336              		.size	cmp_write_true, .-cmp_write_true
 3337              		.section	.text.cmp_write_false,"ax",%progbits
 3338              		.align	1
 3339              		.p2align 4,,15
 3340              		.global	cmp_write_false
 3341              		.syntax unified
 3342              		.thumb
 3343              		.thumb_func
 3344              		.fpu fpv4-sp-d16
 3345              		.type	cmp_write_false, %function
 3346              	cmp_write_false:
 3347              	.LFB32:
 3348              		.loc 1 406 0
 3349              		.cfi_startproc
 3350              		@ args = 0, pretend = 0, frame = 8
 3351              		@ frame_needed = 0, uses_anonymous_args = 0
 3352              	.LVL309:
 3353 0000 30B5     		push	{r4, r5, lr}
 3354              		.cfi_def_cfa_offset 12
 3355              		.cfi_offset 4, -12
 3356              		.cfi_offset 5, -8
 3357              		.cfi_offset 14, -4
 3358 0002 0C4C     		ldr	r4, .L218
 3359 0004 83B0     		sub	sp, sp, #12
 3360              		.cfi_def_cfa_offset 24
 3361 0006 02A9     		add	r1, sp, #8
 3362              		.loc 1 406 0
 3363 0008 2268     		ldr	r2, [r4]
ARM GAS  C:\Users\mathi\AppData\Local\Temp\cc36u0DG.s 			page 60


 3364 000a 0192     		str	r2, [sp, #4]
 3365 000c C223     		movs	r3, #194
 3366 000e 01F8053D 		strb	r3, [r1, #-5]!
 3367              	.LBB978:
 3368              	.LBB979:
 3369              	.LBB980:
 3370              	.LBB981:
 3371              		.loc 1 205 0
 3372 0012 0122     		movs	r2, #1
 3373 0014 C368     		ldr	r3, [r0, #12]
 3374              	.LBE981:
 3375              	.LBE980:
 3376              	.LBE979:
 3377              	.LBE978:
 3378              		.loc 1 406 0
 3379 0016 0546     		mov	r5, r0
 3380              	.LVL310:
 3381              	.LBB985:
 3382              	.LBB984:
 3383              	.LBB983:
 3384              	.LBB982:
 3385              		.loc 1 205 0
 3386 0018 9847     		blx	r3
 3387              	.LVL311:
 3388              	.LBE982:
 3389              	.LBE983:
 3390              		.loc 1 217 0
 3391 001a 0128     		cmp	r0, #1
 3392 001c 02D0     		beq	.L213
 3393              		.loc 1 220 0
 3394 001e 0823     		movs	r3, #8
 3395 0020 2B70     		strb	r3, [r5]
 3396              		.loc 1 221 0
 3397 0022 0020     		movs	r0, #0
 3398              	.L213:
 3399              	.LVL312:
 3400              	.LBE984:
 3401              	.LBE985:
 3402              		.loc 1 408 0
 3403 0024 019A     		ldr	r2, [sp, #4]
 3404 0026 2368     		ldr	r3, [r4]
 3405 0028 9A42     		cmp	r2, r3
 3406 002a 01D1     		bne	.L217
 3407 002c 03B0     		add	sp, sp, #12
 3408              		.cfi_remember_state
 3409              		.cfi_def_cfa_offset 12
 3410              		@ sp needed
 3411 002e 30BD     		pop	{r4, r5, pc}
 3412              	.LVL313:
 3413              	.L217:
 3414              		.cfi_restore_state
 3415 0030 FFF7FEFF 		bl	__stack_chk_fail
 3416              	.LVL314:
 3417              	.L219:
 3418              		.align	2
 3419              	.L218:
 3420 0034 00000000 		.word	__stack_chk_guard
ARM GAS  C:\Users\mathi\AppData\Local\Temp\cc36u0DG.s 			page 61


 3421              		.cfi_endproc
 3422              	.LFE32:
 3423              		.size	cmp_write_false, .-cmp_write_false
 3424              		.section	.text.cmp_write_bool,"ax",%progbits
 3425              		.align	1
 3426              		.p2align 4,,15
 3427              		.global	cmp_write_bool
 3428              		.syntax unified
 3429              		.thumb
 3430              		.thumb_func
 3431              		.fpu fpv4-sp-d16
 3432              		.type	cmp_write_bool, %function
 3433              	cmp_write_bool:
 3434              	.LFB33:
 3435              		.loc 1 410 0
 3436              		.cfi_startproc
 3437              		@ args = 0, pretend = 0, frame = 8
 3438              		@ frame_needed = 0, uses_anonymous_args = 0
 3439              	.LVL315:
 3440 0000 30B5     		push	{r4, r5, lr}
 3441              		.cfi_def_cfa_offset 12
 3442              		.cfi_offset 4, -12
 3443              		.cfi_offset 5, -8
 3444              		.cfi_offset 14, -4
 3445 0002 124C     		ldr	r4, .L231
 3446 0004 83B0     		sub	sp, sp, #12
 3447              		.cfi_def_cfa_offset 24
 3448              		.loc 1 410 0
 3449 0006 2368     		ldr	r3, [r4]
 3450 0008 0193     		str	r3, [sp, #4]
 3451 000a 0546     		mov	r5, r0
 3452 000c C368     		ldr	r3, [r0, #12]
 3453              		.loc 1 411 0
 3454 000e 81B1     		cbz	r1, .L221
 3455              	.LVL316:
 3456 0010 02A9     		add	r1, sp, #8
 3457              	.LVL317:
 3458 0012 C322     		movs	r2, #195
 3459 0014 01F8062D 		strb	r2, [r1, #-6]!
 3460              	.LVL318:
 3461              	.LBB986:
 3462              	.LBB987:
 3463              	.LBB988:
 3464              	.LBB989:
 3465              	.LBB990:
 3466              		.loc 1 205 0
 3467 0018 0122     		movs	r2, #1
 3468 001a 9847     		blx	r3
 3469              	.LVL319:
 3470              	.LBE990:
 3471              	.LBE989:
 3472              		.loc 1 217 0
 3473 001c 0128     		cmp	r0, #1
 3474 001e 10D0     		beq	.L224
 3475              	.LVL320:
 3476              	.L222:
 3477              		.loc 1 220 0
ARM GAS  C:\Users\mathi\AppData\Local\Temp\cc36u0DG.s 			page 62


 3478 0020 0823     		movs	r3, #8
 3479 0022 2B70     		strb	r3, [r5]
 3480              		.loc 1 221 0
 3481 0024 0020     		movs	r0, #0
 3482              	.L223:
 3483              	.LBE988:
 3484              	.LBE987:
 3485              	.LBE986:
 3486              		.loc 1 415 0
 3487 0026 019A     		ldr	r2, [sp, #4]
 3488 0028 2368     		ldr	r3, [r4]
 3489 002a 9A42     		cmp	r2, r3
 3490 002c 0BD1     		bne	.L230
 3491 002e 03B0     		add	sp, sp, #12
 3492              		.cfi_remember_state
 3493              		.cfi_def_cfa_offset 12
 3494              		@ sp needed
 3495 0030 30BD     		pop	{r4, r5, pc}
 3496              	.LVL321:
 3497              	.L221:
 3498              		.cfi_restore_state
 3499 0032 02A9     		add	r1, sp, #8
 3500              	.LVL322:
 3501 0034 C222     		movs	r2, #194
 3502 0036 01F8052D 		strb	r2, [r1, #-5]!
 3503              	.LVL323:
 3504              	.LBB993:
 3505              	.LBB994:
 3506              	.LBB995:
 3507              	.LBB996:
 3508              	.LBB997:
 3509              		.loc 1 205 0
 3510 003a 0122     		movs	r2, #1
 3511 003c 9847     		blx	r3
 3512              	.LVL324:
 3513              	.LBE997:
 3514              	.LBE996:
 3515              		.loc 1 217 0
 3516 003e 0128     		cmp	r0, #1
 3517 0040 EED1     		bne	.L222
 3518              	.LVL325:
 3519              	.L224:
 3520              	.LBE995:
 3521              	.LBE994:
 3522              	.LBE993:
 3523              	.LBB998:
 3524              	.LBB992:
 3525              	.LBB991:
 3526              		.loc 1 218 0
 3527 0042 0120     		movs	r0, #1
 3528 0044 EFE7     		b	.L223
 3529              	.L230:
 3530              	.LBE991:
 3531              	.LBE992:
 3532              	.LBE998:
 3533              		.loc 1 415 0
 3534 0046 FFF7FEFF 		bl	__stack_chk_fail
ARM GAS  C:\Users\mathi\AppData\Local\Temp\cc36u0DG.s 			page 63


 3535              	.LVL326:
 3536              	.L232:
 3537 004a 00BF     		.align	2
 3538              	.L231:
 3539 004c 00000000 		.word	__stack_chk_guard
 3540              		.cfi_endproc
 3541              	.LFE33:
 3542              		.size	cmp_write_bool, .-cmp_write_bool
 3543              		.section	.text.cmp_write_u8_as_bool,"ax",%progbits
 3544              		.align	1
 3545              		.p2align 4,,15
 3546              		.global	cmp_write_u8_as_bool
 3547              		.syntax unified
 3548              		.thumb
 3549              		.thumb_func
 3550              		.fpu fpv4-sp-d16
 3551              		.type	cmp_write_u8_as_bool, %function
 3552              	cmp_write_u8_as_bool:
 3553              	.LFB34:
 3554              		.loc 1 417 0
 3555              		.cfi_startproc
 3556              		@ args = 0, pretend = 0, frame = 8
 3557              		@ frame_needed = 0, uses_anonymous_args = 0
 3558              	.LVL327:
 3559 0000 30B5     		push	{r4, r5, lr}
 3560              		.cfi_def_cfa_offset 12
 3561              		.cfi_offset 4, -12
 3562              		.cfi_offset 5, -8
 3563              		.cfi_offset 14, -4
 3564 0002 124C     		ldr	r4, .L244
 3565 0004 83B0     		sub	sp, sp, #12
 3566              		.cfi_def_cfa_offset 24
 3567              		.loc 1 417 0
 3568 0006 2368     		ldr	r3, [r4]
 3569 0008 0193     		str	r3, [sp, #4]
 3570 000a 0546     		mov	r5, r0
 3571 000c C368     		ldr	r3, [r0, #12]
 3572              		.loc 1 418 0
 3573 000e 81B1     		cbz	r1, .L234
 3574              	.LVL328:
 3575 0010 02A9     		add	r1, sp, #8
 3576              	.LVL329:
 3577 0012 C322     		movs	r2, #195
 3578 0014 01F8062D 		strb	r2, [r1, #-6]!
 3579              	.LVL330:
 3580              	.LBB999:
 3581              	.LBB1000:
 3582              	.LBB1001:
 3583              	.LBB1002:
 3584              	.LBB1003:
 3585              		.loc 1 205 0
 3586 0018 0122     		movs	r2, #1
 3587 001a 9847     		blx	r3
 3588              	.LVL331:
 3589              	.LBE1003:
 3590              	.LBE1002:
 3591              		.loc 1 217 0
ARM GAS  C:\Users\mathi\AppData\Local\Temp\cc36u0DG.s 			page 64


 3592 001c 0128     		cmp	r0, #1
 3593 001e 10D0     		beq	.L237
 3594              	.LVL332:
 3595              	.L235:
 3596              		.loc 1 220 0
 3597 0020 0823     		movs	r3, #8
 3598 0022 2B70     		strb	r3, [r5]
 3599              		.loc 1 221 0
 3600 0024 0020     		movs	r0, #0
 3601              	.L236:
 3602              	.LBE1001:
 3603              	.LBE1000:
 3604              	.LBE999:
 3605              		.loc 1 422 0
 3606 0026 019A     		ldr	r2, [sp, #4]
 3607 0028 2368     		ldr	r3, [r4]
 3608 002a 9A42     		cmp	r2, r3
 3609 002c 0BD1     		bne	.L243
 3610 002e 03B0     		add	sp, sp, #12
 3611              		.cfi_remember_state
 3612              		.cfi_def_cfa_offset 12
 3613              		@ sp needed
 3614 0030 30BD     		pop	{r4, r5, pc}
 3615              	.LVL333:
 3616              	.L234:
 3617              		.cfi_restore_state
 3618 0032 02A9     		add	r1, sp, #8
 3619              	.LVL334:
 3620 0034 C222     		movs	r2, #194
 3621 0036 01F8052D 		strb	r2, [r1, #-5]!
 3622              	.LVL335:
 3623              	.LBB1006:
 3624              	.LBB1007:
 3625              	.LBB1008:
 3626              	.LBB1009:
 3627              	.LBB1010:
 3628              		.loc 1 205 0
 3629 003a 0122     		movs	r2, #1
 3630 003c 9847     		blx	r3
 3631              	.LVL336:
 3632              	.LBE1010:
 3633              	.LBE1009:
 3634              		.loc 1 217 0
 3635 003e 0128     		cmp	r0, #1
 3636 0040 EED1     		bne	.L235
 3637              	.LVL337:
 3638              	.L237:
 3639              	.LBE1008:
 3640              	.LBE1007:
 3641              	.LBE1006:
 3642              	.LBB1011:
 3643              	.LBB1005:
 3644              	.LBB1004:
 3645              		.loc 1 218 0
 3646 0042 0120     		movs	r0, #1
 3647 0044 EFE7     		b	.L236
 3648              	.L243:
ARM GAS  C:\Users\mathi\AppData\Local\Temp\cc36u0DG.s 			page 65


 3649              	.LBE1004:
 3650              	.LBE1005:
 3651              	.LBE1011:
 3652              		.loc 1 422 0
 3653 0046 FFF7FEFF 		bl	__stack_chk_fail
 3654              	.LVL338:
 3655              	.L245:
 3656 004a 00BF     		.align	2
 3657              	.L244:
 3658 004c 00000000 		.word	__stack_chk_guard
 3659              		.cfi_endproc
 3660              	.LFE34:
 3661              		.size	cmp_write_u8_as_bool, .-cmp_write_u8_as_bool
 3662              		.section	.text.cmp_write_fixstr_marker,"ax",%progbits
 3663              		.align	1
 3664              		.p2align 4,,15
 3665              		.global	cmp_write_fixstr_marker
 3666              		.syntax unified
 3667              		.thumb
 3668              		.thumb_func
 3669              		.fpu fpv4-sp-d16
 3670              		.type	cmp_write_fixstr_marker, %function
 3671              	cmp_write_fixstr_marker:
 3672              	.LFB35:
 3673              		.loc 1 424 0
 3674              		.cfi_startproc
 3675              		@ args = 0, pretend = 0, frame = 8
 3676              		@ frame_needed = 0, uses_anonymous_args = 0
 3677              	.LVL339:
 3678 0000 30B5     		push	{r4, r5, lr}
 3679              		.cfi_def_cfa_offset 12
 3680              		.cfi_offset 4, -12
 3681              		.cfi_offset 5, -8
 3682              		.cfi_offset 14, -4
 3683 0002 104C     		ldr	r4, .L253
 3684 0004 83B0     		sub	sp, sp, #12
 3685              		.cfi_def_cfa_offset 24
 3686              		.loc 1 424 0
 3687 0006 2368     		ldr	r3, [r4]
 3688 0008 0193     		str	r3, [sp, #4]
 3689              		.loc 1 425 0
 3690 000a 1F29     		cmp	r1, #31
 3691              		.loc 1 424 0
 3692 000c 0546     		mov	r5, r0
 3693              		.loc 1 425 0
 3694 000e 13D8     		bhi	.L247
 3695              	.LVL340:
 3696 0010 02AA     		add	r2, sp, #8
 3697              		.loc 1 426 0
 3698 0012 61F05F03 		orn	r3, r1, #95
 3699 0016 02F8053D 		strb	r3, [r2, #-5]!
 3700              	.LVL341:
 3701              	.LBB1012:
 3702              	.LBB1013:
 3703              	.LBB1014:
 3704              	.LBB1015:
 3705              		.loc 1 205 0
ARM GAS  C:\Users\mathi\AppData\Local\Temp\cc36u0DG.s 			page 66


 3706 001a C368     		ldr	r3, [r0, #12]
 3707 001c 1146     		mov	r1, r2
 3708              	.LVL342:
 3709 001e 0122     		movs	r2, #1
 3710 0020 9847     		blx	r3
 3711              	.LVL343:
 3712              	.LBE1015:
 3713              	.LBE1014:
 3714              		.loc 1 225 0
 3715 0022 0128     		cmp	r0, #1
 3716 0024 02D0     		beq	.L248
 3717              		.loc 1 228 0
 3718 0026 0623     		movs	r3, #6
 3719 0028 2B70     		strb	r3, [r5]
 3720              		.loc 1 229 0
 3721 002a 0020     		movs	r0, #0
 3722              	.LVL344:
 3723              	.L248:
 3724              	.LBE1013:
 3725              	.LBE1012:
 3726              		.loc 1 430 0
 3727 002c 019A     		ldr	r2, [sp, #4]
 3728 002e 2368     		ldr	r3, [r4]
 3729 0030 9A42     		cmp	r2, r3
 3730 0032 05D1     		bne	.L252
 3731 0034 03B0     		add	sp, sp, #12
 3732              		.cfi_remember_state
 3733              		.cfi_def_cfa_offset 12
 3734              		@ sp needed
 3735 0036 30BD     		pop	{r4, r5, pc}
 3736              	.LVL345:
 3737              	.L247:
 3738              		.cfi_restore_state
 3739              		.loc 1 428 0
 3740 0038 0523     		movs	r3, #5
 3741 003a 0370     		strb	r3, [r0]
 3742              		.loc 1 429 0
 3743 003c 0020     		movs	r0, #0
 3744              	.LVL346:
 3745 003e F5E7     		b	.L248
 3746              	.LVL347:
 3747              	.L252:
 3748              		.loc 1 430 0
 3749 0040 FFF7FEFF 		bl	__stack_chk_fail
 3750              	.LVL348:
 3751              	.L254:
 3752              		.align	2
 3753              	.L253:
 3754 0044 00000000 		.word	__stack_chk_guard
 3755              		.cfi_endproc
 3756              	.LFE35:
 3757              		.size	cmp_write_fixstr_marker, .-cmp_write_fixstr_marker
 3758              		.section	.text.cmp_write_fixstr,"ax",%progbits
 3759              		.align	1
 3760              		.p2align 4,,15
 3761              		.global	cmp_write_fixstr
 3762              		.syntax unified
ARM GAS  C:\Users\mathi\AppData\Local\Temp\cc36u0DG.s 			page 67


 3763              		.thumb
 3764              		.thumb_func
 3765              		.fpu fpv4-sp-d16
 3766              		.type	cmp_write_fixstr, %function
 3767              	cmp_write_fixstr:
 3768              	.LFB36:
 3769              		.loc 1 432 0
 3770              		.cfi_startproc
 3771              		@ args = 0, pretend = 0, frame = 8
 3772              		@ frame_needed = 0, uses_anonymous_args = 0
 3773              	.LVL349:
 3774 0000 F0B5     		push	{r4, r5, r6, r7, lr}
 3775              		.cfi_def_cfa_offset 20
 3776              		.cfi_offset 4, -20
 3777              		.cfi_offset 5, -16
 3778              		.cfi_offset 6, -12
 3779              		.cfi_offset 7, -8
 3780              		.cfi_offset 14, -4
 3781 0002 174E     		ldr	r6, .L265
 3782 0004 83B0     		sub	sp, sp, #12
 3783              		.cfi_def_cfa_offset 32
 3784              		.loc 1 432 0
 3785 0006 3368     		ldr	r3, [r6]
 3786 0008 0193     		str	r3, [sp, #4]
 3787              	.LBB1036:
 3788              	.LBB1037:
 3789              		.loc 1 425 0
 3790 000a 1F2A     		cmp	r2, #31
 3791              	.LBE1037:
 3792              	.LBE1036:
 3793              		.loc 1 432 0
 3794 000c 0546     		mov	r5, r0
 3795              	.LVL350:
 3796              	.LBB1044:
 3797              	.LBB1042:
 3798              		.loc 1 425 0
 3799 000e 20D8     		bhi	.L256
 3800              	.LVL351:
 3801 0010 0F46     		mov	r7, r1
 3802 0012 02A9     		add	r1, sp, #8
 3803              	.LVL352:
 3804              		.loc 1 426 0
 3805 0014 62F05F03 		orn	r3, r2, #95
 3806 0018 01F8053D 		strb	r3, [r1, #-5]!
 3807              	.LVL353:
 3808 001c 1446     		mov	r4, r2
 3809              	.LBB1038:
 3810              	.LBB1039:
 3811              	.LBB1040:
 3812              	.LBB1041:
 3813              		.loc 1 205 0
 3814 001e C368     		ldr	r3, [r0, #12]
 3815 0020 0122     		movs	r2, #1
 3816              	.LVL354:
 3817 0022 9847     		blx	r3
 3818              	.LVL355:
 3819              	.LBE1041:
ARM GAS  C:\Users\mathi\AppData\Local\Temp\cc36u0DG.s 			page 68


 3820              	.LBE1040:
 3821              		.loc 1 225 0
 3822 0024 0128     		cmp	r0, #1
 3823 0026 08D0     		beq	.L263
 3824              		.loc 1 228 0
 3825 0028 0623     		movs	r3, #6
 3826 002a 2B70     		strb	r3, [r5]
 3827              	.LVL356:
 3828              	.LBE1039:
 3829              	.LBE1038:
 3830              	.LBE1042:
 3831              	.LBE1044:
 3832              		.loc 1 434 0
 3833 002c 0020     		movs	r0, #0
 3834              	.LVL357:
 3835              	.L259:
 3836              		.loc 1 444 0
 3837 002e 019A     		ldr	r2, [sp, #4]
 3838 0030 3368     		ldr	r3, [r6]
 3839 0032 9A42     		cmp	r2, r3
 3840 0034 11D1     		bne	.L264
 3841 0036 03B0     		add	sp, sp, #12
 3842              		.cfi_remember_state
 3843              		.cfi_def_cfa_offset 20
 3844              		@ sp needed
 3845 0038 F0BD     		pop	{r4, r5, r6, r7, pc}
 3846              	.LVL358:
 3847              	.L263:
 3848              		.cfi_restore_state
 3849              		.loc 1 436 0
 3850 003a 44B1     		cbz	r4, .L260
 3851              	.LVL359:
 3852              	.LBB1045:
 3853              	.LBB1046:
 3854              		.loc 1 439 0
 3855 003c 2246     		mov	r2, r4
 3856 003e 3946     		mov	r1, r7
 3857 0040 EB68     		ldr	r3, [r5, #12]
 3858 0042 2846     		mov	r0, r5
 3859 0044 9847     		blx	r3
 3860              	.LVL360:
 3861 0046 10B9     		cbnz	r0, .L260
 3862              		.loc 1 442 0
 3863 0048 0A23     		movs	r3, #10
 3864 004a 2B70     		strb	r3, [r5]
 3865 004c EFE7     		b	.L259
 3866              	.LVL361:
 3867              	.L260:
 3868              	.LBE1046:
 3869              	.LBE1045:
 3870              		.loc 1 437 0
 3871 004e 0120     		movs	r0, #1
 3872 0050 EDE7     		b	.L259
 3873              	.LVL362:
 3874              	.L256:
 3875              	.LBB1047:
 3876              	.LBB1043:
ARM GAS  C:\Users\mathi\AppData\Local\Temp\cc36u0DG.s 			page 69


 3877              		.loc 1 428 0
 3878 0052 0523     		movs	r3, #5
 3879 0054 0370     		strb	r3, [r0]
 3880              	.LVL363:
 3881              	.LBE1043:
 3882              	.LBE1047:
 3883              		.loc 1 434 0
 3884 0056 0020     		movs	r0, #0
 3885              	.LVL364:
 3886 0058 E9E7     		b	.L259
 3887              	.LVL365:
 3888              	.L264:
 3889              		.loc 1 444 0
 3890 005a FFF7FEFF 		bl	__stack_chk_fail
 3891              	.LVL366:
 3892              	.L266:
 3893 005e 00BF     		.align	2
 3894              	.L265:
 3895 0060 00000000 		.word	__stack_chk_guard
 3896              		.cfi_endproc
 3897              	.LFE36:
 3898              		.size	cmp_write_fixstr, .-cmp_write_fixstr
 3899              		.section	.text.cmp_write_str8_marker,"ax",%progbits
 3900              		.align	1
 3901              		.p2align 4,,15
 3902              		.global	cmp_write_str8_marker
 3903              		.syntax unified
 3904              		.thumb
 3905              		.thumb_func
 3906              		.fpu fpv4-sp-d16
 3907              		.type	cmp_write_str8_marker, %function
 3908              	cmp_write_str8_marker:
 3909              	.LFB37:
 3910              		.loc 1 446 0
 3911              		.cfi_startproc
 3912              		@ args = 0, pretend = 0, frame = 16
 3913              		@ frame_needed = 0, uses_anonymous_args = 0
 3914              	.LVL367:
 3915 0000 70B5     		push	{r4, r5, r6, lr}
 3916              		.cfi_def_cfa_offset 16
 3917              		.cfi_offset 4, -16
 3918              		.cfi_offset 5, -12
 3919              		.cfi_offset 6, -8
 3920              		.cfi_offset 14, -4
 3921 0002 84B0     		sub	sp, sp, #16
 3922              		.cfi_def_cfa_offset 32
 3923 0004 04AB     		add	r3, sp, #16
 3924 0006 D922     		movs	r2, #217
 3925              		.loc 1 446 0
 3926 0008 124E     		ldr	r6, .L277
 3927 000a 03F8052D 		strb	r2, [r3, #-5]!
 3928 000e 3268     		ldr	r2, [r6]
 3929 0010 8DF80710 		strb	r1, [sp, #7]
 3930 0014 0392     		str	r2, [sp, #12]
 3931              	.LBB1052:
 3932              	.LBB1053:
 3933              	.LBB1054:
ARM GAS  C:\Users\mathi\AppData\Local\Temp\cc36u0DG.s 			page 70


 3934              	.LBB1055:
 3935              		.loc 1 205 0
 3936 0016 1946     		mov	r1, r3
 3937              	.LVL368:
 3938 0018 0122     		movs	r2, #1
 3939 001a C368     		ldr	r3, [r0, #12]
 3940              	.LBE1055:
 3941              	.LBE1054:
 3942              	.LBE1053:
 3943              	.LBE1052:
 3944              		.loc 1 446 0
 3945 001c 0446     		mov	r4, r0
 3946              	.LVL369:
 3947              	.LBB1060:
 3948              	.LBB1058:
 3949              	.LBB1057:
 3950              	.LBB1056:
 3951              		.loc 1 205 0
 3952 001e 9847     		blx	r3
 3953              	.LVL370:
 3954              	.LBE1056:
 3955              	.LBE1057:
 3956              		.loc 1 217 0
 3957 0020 0128     		cmp	r0, #1
 3958 0022 11D1     		bne	.L268
 3959              	.LVL371:
 3960 0024 0546     		mov	r5, r0
 3961              	.LBE1058:
 3962              	.LBE1060:
 3963              		.loc 1 450 0
 3964 0026 0246     		mov	r2, r0
 3965 0028 E368     		ldr	r3, [r4, #12]
 3966 002a 0DF10701 		add	r1, sp, #7
 3967 002e 2046     		mov	r0, r4
 3968 0030 9847     		blx	r3
 3969              	.LVL372:
 3970 0032 38B9     		cbnz	r0, .L275
 3971              		.loc 1 453 0
 3972 0034 0F23     		movs	r3, #15
 3973 0036 2370     		strb	r3, [r4]
 3974              	.L269:
 3975              		.loc 1 455 0
 3976 0038 039A     		ldr	r2, [sp, #12]
 3977 003a 3368     		ldr	r3, [r6]
 3978 003c 9A42     		cmp	r2, r3
 3979 003e 07D1     		bne	.L276
 3980 0040 04B0     		add	sp, sp, #16
 3981              		.cfi_remember_state
 3982              		.cfi_def_cfa_offset 16
 3983              		@ sp needed
 3984 0042 70BD     		pop	{r4, r5, r6, pc}
 3985              	.LVL373:
 3986              	.L275:
 3987              		.cfi_restore_state
 3988              		.loc 1 451 0
 3989 0044 2846     		mov	r0, r5
 3990 0046 F7E7     		b	.L269
ARM GAS  C:\Users\mathi\AppData\Local\Temp\cc36u0DG.s 			page 71


 3991              	.LVL374:
 3992              	.L268:
 3993              	.LBB1061:
 3994              	.LBB1059:
 3995              		.loc 1 220 0
 3996 0048 0823     		movs	r3, #8
 3997 004a 2370     		strb	r3, [r4]
 3998              	.LVL375:
 3999              	.LBE1059:
 4000              	.LBE1061:
 4001              		.loc 1 448 0
 4002 004c 0020     		movs	r0, #0
 4003 004e F3E7     		b	.L269
 4004              	.L276:
 4005              		.loc 1 455 0
 4006 0050 FFF7FEFF 		bl	__stack_chk_fail
 4007              	.LVL376:
 4008              	.L278:
 4009              		.align	2
 4010              	.L277:
 4011 0054 00000000 		.word	__stack_chk_guard
 4012              		.cfi_endproc
 4013              	.LFE37:
 4014              		.size	cmp_write_str8_marker, .-cmp_write_str8_marker
 4015              		.section	.text.cmp_write_str8,"ax",%progbits
 4016              		.align	1
 4017              		.p2align 4,,15
 4018              		.global	cmp_write_str8
 4019              		.syntax unified
 4020              		.thumb
 4021              		.thumb_func
 4022              		.fpu fpv4-sp-d16
 4023              		.type	cmp_write_str8, %function
 4024              	cmp_write_str8:
 4025              	.LFB38:
 4026              		.loc 1 457 0
 4027              		.cfi_startproc
 4028              		@ args = 0, pretend = 0, frame = 8
 4029              		@ frame_needed = 0, uses_anonymous_args = 0
 4030              	.LVL377:
 4031 0000 2DE9F041 		push	{r4, r5, r6, r7, r8, lr}
 4032              		.cfi_def_cfa_offset 24
 4033              		.cfi_offset 4, -24
 4034              		.cfi_offset 5, -20
 4035              		.cfi_offset 6, -16
 4036              		.cfi_offset 7, -12
 4037              		.cfi_offset 8, -8
 4038              		.cfi_offset 14, -4
 4039 0004 82B0     		sub	sp, sp, #8
 4040              		.cfi_def_cfa_offset 32
 4041 0006 02AB     		add	r3, sp, #8
 4042 0008 D924     		movs	r4, #217
 4043              		.loc 1 457 0
 4044 000a 194E     		ldr	r6, .L289
 4045 000c 03F8054D 		strb	r4, [r3, #-5]!
 4046 0010 8DF80220 		strb	r2, [sp, #2]
 4047 0014 1546     		mov	r5, r2
ARM GAS  C:\Users\mathi\AppData\Local\Temp\cc36u0DG.s 			page 72


 4048 0016 3268     		ldr	r2, [r6]
 4049              	.LVL378:
 4050 0018 0192     		str	r2, [sp, #4]
 4051 001a 8846     		mov	r8, r1
 4052              	.LBB1076:
 4053              	.LBB1077:
 4054              	.LBB1078:
 4055              	.LBB1079:
 4056              	.LBB1080:
 4057              	.LBB1081:
 4058              		.loc 1 205 0
 4059 001c C768     		ldr	r7, [r0, #12]
 4060 001e 1946     		mov	r1, r3
 4061              	.LVL379:
 4062 0020 0122     		movs	r2, #1
 4063              	.LBE1081:
 4064              	.LBE1080:
 4065              	.LBE1079:
 4066              	.LBE1078:
 4067              	.LBE1077:
 4068              	.LBE1076:
 4069              		.loc 1 457 0
 4070 0022 0446     		mov	r4, r0
 4071              	.LVL380:
 4072              	.LBB1090:
 4073              	.LBB1088:
 4074              	.LBB1086:
 4075              	.LBB1084:
 4076              	.LBB1083:
 4077              	.LBB1082:
 4078              		.loc 1 205 0
 4079 0024 B847     		blx	r7
 4080              	.LVL381:
 4081              	.LBE1082:
 4082              	.LBE1083:
 4083              		.loc 1 217 0
 4084 0026 0128     		cmp	r0, #1
 4085 0028 1BD1     		bne	.L280
 4086              	.LVL382:
 4087              	.LBE1084:
 4088              	.LBE1086:
 4089              		.loc 1 450 0
 4090 002a 0246     		mov	r2, r0
 4091 002c E368     		ldr	r3, [r4, #12]
 4092 002e 0DF10201 		add	r1, sp, #2
 4093 0032 2046     		mov	r0, r4
 4094 0034 9847     		blx	r3
 4095              	.LVL383:
 4096 0036 10B9     		cbnz	r0, .L287
 4097              		.loc 1 453 0
 4098 0038 0F23     		movs	r3, #15
 4099 003a 2370     		strb	r3, [r4]
 4100              	.LVL384:
 4101 003c 08E0     		b	.L283
 4102              	.LVL385:
 4103              	.L287:
 4104              	.LBE1088:
ARM GAS  C:\Users\mathi\AppData\Local\Temp\cc36u0DG.s 			page 73


 4105              	.LBE1090:
 4106              		.loc 1 461 0
 4107 003e 75B1     		cbz	r5, .L284
 4108              	.LVL386:
 4109              	.LBB1091:
 4110              	.LBB1092:
 4111              		.loc 1 439 0
 4112 0040 2A46     		mov	r2, r5
 4113 0042 4146     		mov	r1, r8
 4114 0044 E368     		ldr	r3, [r4, #12]
 4115 0046 2046     		mov	r0, r4
 4116 0048 9847     		blx	r3
 4117              	.LVL387:
 4118 004a 40B9     		cbnz	r0, .L284
 4119              		.loc 1 442 0
 4120 004c 0A23     		movs	r3, #10
 4121 004e 2370     		strb	r3, [r4]
 4122              	.LVL388:
 4123              	.L283:
 4124              	.LBE1092:
 4125              	.LBE1091:
 4126              		.loc 1 469 0
 4127 0050 019A     		ldr	r2, [sp, #4]
 4128 0052 3368     		ldr	r3, [r6]
 4129 0054 9A42     		cmp	r2, r3
 4130 0056 08D1     		bne	.L288
 4131 0058 02B0     		add	sp, sp, #8
 4132              		.cfi_remember_state
 4133              		.cfi_def_cfa_offset 24
 4134              		@ sp needed
 4135 005a BDE8F081 		pop	{r4, r5, r6, r7, r8, pc}
 4136              	.LVL389:
 4137              	.L284:
 4138              		.cfi_restore_state
 4139              		.loc 1 462 0
 4140 005e 0120     		movs	r0, #1
 4141 0060 F6E7     		b	.L283
 4142              	.LVL390:
 4143              	.L280:
 4144              	.LBB1093:
 4145              	.LBB1089:
 4146              	.LBB1087:
 4147              	.LBB1085:
 4148              		.loc 1 220 0
 4149 0062 0823     		movs	r3, #8
 4150 0064 2370     		strb	r3, [r4]
 4151              	.LVL391:
 4152              	.LBE1085:
 4153              	.LBE1087:
 4154              	.LBE1089:
 4155              	.LBE1093:
 4156              		.loc 1 459 0
 4157 0066 0020     		movs	r0, #0
 4158 0068 F2E7     		b	.L283
 4159              	.L288:
 4160              		.loc 1 469 0
 4161 006a FFF7FEFF 		bl	__stack_chk_fail
ARM GAS  C:\Users\mathi\AppData\Local\Temp\cc36u0DG.s 			page 74


 4162              	.LVL392:
 4163              	.L290:
 4164 006e 00BF     		.align	2
 4165              	.L289:
 4166 0070 00000000 		.word	__stack_chk_guard
 4167              		.cfi_endproc
 4168              	.LFE38:
 4169              		.size	cmp_write_str8, .-cmp_write_str8
 4170              		.section	.text.cmp_write_str16_marker,"ax",%progbits
 4171              		.align	1
 4172              		.p2align 4,,15
 4173              		.global	cmp_write_str16_marker
 4174              		.syntax unified
 4175              		.thumb
 4176              		.thumb_func
 4177              		.fpu fpv4-sp-d16
 4178              		.type	cmp_write_str16_marker, %function
 4179              	cmp_write_str16_marker:
 4180              	.LFB39:
 4181              		.loc 1 471 0
 4182              		.cfi_startproc
 4183              		@ args = 0, pretend = 0, frame = 16
 4184              		@ frame_needed = 0, uses_anonymous_args = 0
 4185              	.LVL393:
 4186 0000 70B5     		push	{r4, r5, r6, lr}
 4187              		.cfi_def_cfa_offset 16
 4188              		.cfi_offset 4, -16
 4189              		.cfi_offset 5, -12
 4190              		.cfi_offset 6, -8
 4191              		.cfi_offset 14, -4
 4192 0002 84B0     		sub	sp, sp, #16
 4193              		.cfi_def_cfa_offset 32
 4194 0004 04AB     		add	r3, sp, #16
 4195 0006 DA22     		movs	r2, #218
 4196              		.loc 1 471 0
 4197 0008 184D     		ldr	r5, .L301
 4198 000a 03F8072D 		strb	r2, [r3, #-7]!
 4199 000e 2A68     		ldr	r2, [r5]
 4200 0010 ADF80610 		strh	r1, [sp, #6]	@ movhi
 4201 0014 0392     		str	r2, [sp, #12]
 4202              	.LBB1101:
 4203              	.LBB1102:
 4204              	.LBB1103:
 4205              	.LBB1104:
 4206              		.loc 1 205 0
 4207 0016 1946     		mov	r1, r3
 4208              	.LVL394:
 4209 0018 0122     		movs	r2, #1
 4210 001a C368     		ldr	r3, [r0, #12]
 4211              	.LBE1104:
 4212              	.LBE1103:
 4213              	.LBE1102:
 4214              	.LBE1101:
 4215              		.loc 1 471 0
 4216 001c 0446     		mov	r4, r0
 4217              	.LVL395:
 4218              	.LBB1109:
ARM GAS  C:\Users\mathi\AppData\Local\Temp\cc36u0DG.s 			page 75


 4219              	.LBB1107:
 4220              	.LBB1106:
 4221              	.LBB1105:
 4222              		.loc 1 205 0
 4223 001e 9847     		blx	r3
 4224              	.LVL396:
 4225              	.LBE1105:
 4226              	.LBE1106:
 4227              		.loc 1 217 0
 4228 0020 0128     		cmp	r0, #1
 4229 0022 1CD1     		bne	.L292
 4230              	.LVL397:
 4231              	.LBE1107:
 4232              	.LBE1109:
 4233              		.loc 1 475 0
 4234 0024 BDF80630 		ldrh	r3, [sp, #6]
 4235              	.LVL398:
 4236              	.LBB1110:
 4237              	.LBB1111:
 4238              	.LBB1112:
 4239              		.loc 1 106 0
 4240 0028 8DF80B30 		strb	r3, [sp, #11]
 4241              	.LVL399:
 4242              		.loc 1 105 0
 4243 002c C3F30723 		ubfx	r3, r3, #8, #8
 4244 0030 8DF80A30 		strb	r3, [sp, #10]
 4245              	.LBE1112:
 4246              	.LBE1111:
 4247              	.LBE1110:
 4248              		.loc 1 475 0
 4249 0034 04A9     		add	r1, sp, #16
 4250 0036 BDF80A30 		ldrh	r3, [sp, #10]
 4251 003a 21F80A3D 		strh	r3, [r1, #-10]!	@ movhi
 4252 003e 0646     		mov	r6, r0
 4253              		.loc 1 477 0
 4254 0040 E368     		ldr	r3, [r4, #12]
 4255 0042 0222     		movs	r2, #2
 4256 0044 2046     		mov	r0, r4
 4257 0046 9847     		blx	r3
 4258              	.LVL400:
 4259 0048 38B9     		cbnz	r0, .L299
 4260              		.loc 1 480 0
 4261 004a 0F23     		movs	r3, #15
 4262 004c 2370     		strb	r3, [r4]
 4263              	.LVL401:
 4264              	.L293:
 4265              		.loc 1 482 0
 4266 004e 039A     		ldr	r2, [sp, #12]
 4267 0050 2B68     		ldr	r3, [r5]
 4268 0052 9A42     		cmp	r2, r3
 4269 0054 07D1     		bne	.L300
 4270 0056 04B0     		add	sp, sp, #16
 4271              		.cfi_remember_state
 4272              		.cfi_def_cfa_offset 16
 4273              		@ sp needed
 4274 0058 70BD     		pop	{r4, r5, r6, pc}
 4275              	.LVL402:
ARM GAS  C:\Users\mathi\AppData\Local\Temp\cc36u0DG.s 			page 76


 4276              	.L299:
 4277              		.cfi_restore_state
 4278              		.loc 1 478 0
 4279 005a 3046     		mov	r0, r6
 4280 005c F7E7     		b	.L293
 4281              	.LVL403:
 4282              	.L292:
 4283              	.LBB1113:
 4284              	.LBB1108:
 4285              		.loc 1 220 0
 4286 005e 0823     		movs	r3, #8
 4287 0060 2370     		strb	r3, [r4]
 4288              	.LVL404:
 4289              	.LBE1108:
 4290              	.LBE1113:
 4291              		.loc 1 473 0
 4292 0062 0020     		movs	r0, #0
 4293 0064 F3E7     		b	.L293
 4294              	.L300:
 4295              		.loc 1 482 0
 4296 0066 FFF7FEFF 		bl	__stack_chk_fail
 4297              	.LVL405:
 4298              	.L302:
 4299 006a 00BF     		.align	2
 4300              	.L301:
 4301 006c 00000000 		.word	__stack_chk_guard
 4302              		.cfi_endproc
 4303              	.LFE39:
 4304              		.size	cmp_write_str16_marker, .-cmp_write_str16_marker
 4305              		.section	.text.cmp_write_str16,"ax",%progbits
 4306              		.align	1
 4307              		.p2align 4,,15
 4308              		.global	cmp_write_str16
 4309              		.syntax unified
 4310              		.thumb
 4311              		.thumb_func
 4312              		.fpu fpv4-sp-d16
 4313              		.type	cmp_write_str16, %function
 4314              	cmp_write_str16:
 4315              	.LFB40:
 4316              		.loc 1 484 0
 4317              		.cfi_startproc
 4318              		@ args = 0, pretend = 0, frame = 16
 4319              		@ frame_needed = 0, uses_anonymous_args = 0
 4320              	.LVL406:
 4321 0000 2DE9F041 		push	{r4, r5, r6, r7, r8, lr}
 4322              		.cfi_def_cfa_offset 24
 4323              		.cfi_offset 4, -24
 4324              		.cfi_offset 5, -20
 4325              		.cfi_offset 6, -16
 4326              		.cfi_offset 7, -12
 4327              		.cfi_offset 8, -8
 4328              		.cfi_offset 14, -4
 4329 0004 84B0     		sub	sp, sp, #16
 4330              		.cfi_def_cfa_offset 40
 4331 0006 04AB     		add	r3, sp, #16
 4332 0008 DA24     		movs	r4, #218
ARM GAS  C:\Users\mathi\AppData\Local\Temp\cc36u0DG.s 			page 77


 4333              		.loc 1 484 0
 4334 000a 1E4E     		ldr	r6, .L313
 4335 000c 03F8094D 		strb	r4, [r3, #-9]!
 4336 0010 ADF80820 		strh	r2, [sp, #8]	@ movhi
 4337 0014 1546     		mov	r5, r2
 4338 0016 3268     		ldr	r2, [r6]
 4339              	.LVL407:
 4340 0018 0392     		str	r2, [sp, #12]
 4341 001a 8846     		mov	r8, r1
 4342              	.LBB1125:
 4343              	.LBB1126:
 4344              	.LBB1127:
 4345              	.LBB1128:
 4346              	.LBB1129:
 4347              	.LBB1130:
 4348              		.loc 1 205 0
 4349 001c C768     		ldr	r7, [r0, #12]
 4350 001e 1946     		mov	r1, r3
 4351              	.LVL408:
 4352 0020 0122     		movs	r2, #1
 4353              	.LBE1130:
 4354              	.LBE1129:
 4355              	.LBE1128:
 4356              	.LBE1127:
 4357              	.LBE1126:
 4358              	.LBE1125:
 4359              		.loc 1 484 0
 4360 0022 0446     		mov	r4, r0
 4361              	.LVL409:
 4362              	.LBB1142:
 4363              	.LBB1140:
 4364              	.LBB1135:
 4365              	.LBB1133:
 4366              	.LBB1132:
 4367              	.LBB1131:
 4368              		.loc 1 205 0
 4369 0024 B847     		blx	r7
 4370              	.LVL410:
 4371              	.LBE1131:
 4372              	.LBE1132:
 4373              		.loc 1 217 0
 4374 0026 0128     		cmp	r0, #1
 4375 0028 26D1     		bne	.L304
 4376              	.LVL411:
 4377              	.LBE1133:
 4378              	.LBE1135:
 4379              		.loc 1 475 0
 4380 002a BDF80830 		ldrh	r3, [sp, #8]
 4381              	.LVL412:
 4382              	.LBB1136:
 4383              	.LBB1137:
 4384              	.LBB1138:
 4385              		.loc 1 106 0
 4386 002e 8DF80B30 		strb	r3, [sp, #11]
 4387              	.LVL413:
 4388              		.loc 1 105 0
 4389 0032 C3F30723 		ubfx	r3, r3, #8, #8
ARM GAS  C:\Users\mathi\AppData\Local\Temp\cc36u0DG.s 			page 78


 4390 0036 8DF80A30 		strb	r3, [sp, #10]
 4391              	.LBE1138:
 4392              	.LBE1137:
 4393              	.LBE1136:
 4394              		.loc 1 475 0
 4395 003a 04A9     		add	r1, sp, #16
 4396 003c BDF80A30 		ldrh	r3, [sp, #10]
 4397 0040 21F8083D 		strh	r3, [r1, #-8]!	@ movhi
 4398              		.loc 1 477 0
 4399 0044 0222     		movs	r2, #2
 4400 0046 E368     		ldr	r3, [r4, #12]
 4401 0048 2046     		mov	r0, r4
 4402 004a 9847     		blx	r3
 4403              	.LVL414:
 4404 004c 10B9     		cbnz	r0, .L311
 4405              		.loc 1 480 0
 4406 004e 0F23     		movs	r3, #15
 4407 0050 2370     		strb	r3, [r4]
 4408              	.LVL415:
 4409 0052 08E0     		b	.L307
 4410              	.LVL416:
 4411              	.L311:
 4412              	.LBE1140:
 4413              	.LBE1142:
 4414              		.loc 1 488 0
 4415 0054 75B1     		cbz	r5, .L308
 4416              	.LVL417:
 4417              	.LBB1143:
 4418              	.LBB1144:
 4419              		.loc 1 491 0
 4420 0056 2A46     		mov	r2, r5
 4421 0058 4146     		mov	r1, r8
 4422 005a E368     		ldr	r3, [r4, #12]
 4423 005c 2046     		mov	r0, r4
 4424 005e 9847     		blx	r3
 4425              	.LVL418:
 4426 0060 40B9     		cbnz	r0, .L308
 4427              		.loc 1 494 0
 4428 0062 0A23     		movs	r3, #10
 4429 0064 2370     		strb	r3, [r4]
 4430              	.LVL419:
 4431              	.L307:
 4432              	.LBE1144:
 4433              	.LBE1143:
 4434              		.loc 1 496 0
 4435 0066 039A     		ldr	r2, [sp, #12]
 4436 0068 3368     		ldr	r3, [r6]
 4437 006a 9A42     		cmp	r2, r3
 4438 006c 08D1     		bne	.L312
 4439 006e 04B0     		add	sp, sp, #16
 4440              		.cfi_remember_state
 4441              		.cfi_def_cfa_offset 24
 4442              		@ sp needed
 4443 0070 BDE8F081 		pop	{r4, r5, r6, r7, r8, pc}
 4444              	.LVL420:
 4445              	.L308:
 4446              		.cfi_restore_state
ARM GAS  C:\Users\mathi\AppData\Local\Temp\cc36u0DG.s 			page 79


 4447              		.loc 1 489 0
 4448 0074 0120     		movs	r0, #1
 4449 0076 F6E7     		b	.L307
 4450              	.LVL421:
 4451              	.L304:
 4452              	.LBB1145:
 4453              	.LBB1141:
 4454              	.LBB1139:
 4455              	.LBB1134:
 4456              		.loc 1 220 0
 4457 0078 0823     		movs	r3, #8
 4458 007a 2370     		strb	r3, [r4]
 4459              	.LVL422:
 4460              	.LBE1134:
 4461              	.LBE1139:
 4462              	.LBE1141:
 4463              	.LBE1145:
 4464              		.loc 1 486 0
 4465 007c 0020     		movs	r0, #0
 4466 007e F2E7     		b	.L307
 4467              	.L312:
 4468              		.loc 1 496 0
 4469 0080 FFF7FEFF 		bl	__stack_chk_fail
 4470              	.LVL423:
 4471              	.L314:
 4472              		.align	2
 4473              	.L313:
 4474 0084 00000000 		.word	__stack_chk_guard
 4475              		.cfi_endproc
 4476              	.LFE40:
 4477              		.size	cmp_write_str16, .-cmp_write_str16
 4478              		.section	.text.cmp_write_str32_marker,"ax",%progbits
 4479              		.align	1
 4480              		.p2align 4,,15
 4481              		.global	cmp_write_str32_marker
 4482              		.syntax unified
 4483              		.thumb
 4484              		.thumb_func
 4485              		.fpu fpv4-sp-d16
 4486              		.type	cmp_write_str32_marker, %function
 4487              	cmp_write_str32_marker:
 4488              	.LFB41:
 4489              		.loc 1 498 0
 4490              		.cfi_startproc
 4491              		@ args = 0, pretend = 0, frame = 24
 4492              		@ frame_needed = 0, uses_anonymous_args = 0
 4493              	.LVL424:
 4494 0000 F0B5     		push	{r4, r5, r6, r7, lr}
 4495              		.cfi_def_cfa_offset 20
 4496              		.cfi_offset 4, -20
 4497              		.cfi_offset 5, -16
 4498              		.cfi_offset 6, -12
 4499              		.cfi_offset 7, -8
 4500              		.cfi_offset 14, -4
 4501 0002 87B0     		sub	sp, sp, #28
 4502              		.cfi_def_cfa_offset 48
 4503 0004 06AB     		add	r3, sp, #24
ARM GAS  C:\Users\mathi\AppData\Local\Temp\cc36u0DG.s 			page 80


 4504 0006 DB22     		movs	r2, #219
 4505              		.loc 1 498 0
 4506 0008 1A4D     		ldr	r5, .L325
 4507 000a 03F8092D 		strb	r2, [r3, #-9]!
 4508 000e 2A68     		ldr	r2, [r5]
 4509 0010 0191     		str	r1, [sp, #4]
 4510 0012 0592     		str	r2, [sp, #20]
 4511              	.LBB1153:
 4512              	.LBB1154:
 4513              	.LBB1155:
 4514              	.LBB1156:
 4515              		.loc 1 205 0
 4516 0014 1946     		mov	r1, r3
 4517              	.LVL425:
 4518 0016 0122     		movs	r2, #1
 4519 0018 C368     		ldr	r3, [r0, #12]
 4520              	.LBE1156:
 4521              	.LBE1155:
 4522              	.LBE1154:
 4523              	.LBE1153:
 4524              		.loc 1 498 0
 4525 001a 0446     		mov	r4, r0
 4526              	.LVL426:
 4527              	.LBB1161:
 4528              	.LBB1159:
 4529              	.LBB1158:
 4530              	.LBB1157:
 4531              		.loc 1 205 0
 4532 001c 9847     		blx	r3
 4533              	.LVL427:
 4534              	.LBE1157:
 4535              	.LBE1158:
 4536              		.loc 1 217 0
 4537 001e 0128     		cmp	r0, #1
 4538 0020 22D1     		bne	.L316
 4539              	.LVL428:
 4540              	.LBE1159:
 4541              	.LBE1161:
 4542              		.loc 1 502 0
 4543 0022 019A     		ldr	r2, [sp, #4]
 4544              	.LVL429:
 4545              		.loc 1 504 0
 4546 0024 E668     		ldr	r6, [r4, #12]
 4547              	.LBB1162:
 4548              	.LBB1163:
 4549              	.LBB1164:
 4550              		.loc 1 119 0
 4551 0026 110E     		lsrs	r1, r2, #24
 4552 0028 0023     		movs	r3, #0
 4553 002a 61F30703 		bfi	r3, r1, #0, #8
 4554 002e C2F30741 		ubfx	r1, r2, #16, #8
 4555 0032 61F30F23 		bfi	r3, r1, #8, #8
 4556 0036 C2F30721 		ubfx	r1, r2, #8, #8
 4557 003a 61F31743 		bfi	r3, r1, #16, #8
 4558              	.LBE1164:
 4559              	.LBE1163:
 4560              	.LBE1162:
ARM GAS  C:\Users\mathi\AppData\Local\Temp\cc36u0DG.s 			page 81


 4561              		.loc 1 502 0
 4562 003e 06A9     		add	r1, sp, #24
 4563              	.LBB1169:
 4564              	.LBB1167:
 4565              	.LBB1165:
 4566              		.loc 1 119 0
 4567 0040 62F31F63 		bfi	r3, r2, #24, #8
 4568 0044 0746     		mov	r7, r0
 4569              	.LBE1165:
 4570              	.LBE1167:
 4571              	.LBE1169:
 4572              		.loc 1 502 0
 4573 0046 41F8143D 		str	r3, [r1, #-20]!
 4574              		.loc 1 504 0
 4575 004a 0422     		movs	r2, #4
 4576              	.LVL430:
 4577 004c 2046     		mov	r0, r4
 4578              	.LBB1170:
 4579              	.LBB1168:
 4580              	.LBB1166:
 4581              		.loc 1 119 0
 4582 004e 0493     		str	r3, [sp, #16]
 4583              	.LVL431:
 4584              	.LBE1166:
 4585              	.LBE1168:
 4586              	.LBE1170:
 4587              		.loc 1 504 0
 4588 0050 B047     		blx	r6
 4589              	.LVL432:
 4590 0052 38B9     		cbnz	r0, .L323
 4591              		.loc 1 507 0
 4592 0054 0F23     		movs	r3, #15
 4593 0056 2370     		strb	r3, [r4]
 4594              	.LVL433:
 4595              	.L317:
 4596              		.loc 1 509 0
 4597 0058 059A     		ldr	r2, [sp, #20]
 4598 005a 2B68     		ldr	r3, [r5]
 4599 005c 9A42     		cmp	r2, r3
 4600 005e 07D1     		bne	.L324
 4601 0060 07B0     		add	sp, sp, #28
 4602              		.cfi_remember_state
 4603              		.cfi_def_cfa_offset 20
 4604              		@ sp needed
 4605 0062 F0BD     		pop	{r4, r5, r6, r7, pc}
 4606              	.LVL434:
 4607              	.L323:
 4608              		.cfi_restore_state
 4609              		.loc 1 505 0
 4610 0064 3846     		mov	r0, r7
 4611 0066 F7E7     		b	.L317
 4612              	.LVL435:
 4613              	.L316:
 4614              	.LBB1171:
 4615              	.LBB1160:
 4616              		.loc 1 220 0
 4617 0068 0823     		movs	r3, #8
ARM GAS  C:\Users\mathi\AppData\Local\Temp\cc36u0DG.s 			page 82


 4618 006a 2370     		strb	r3, [r4]
 4619              	.LVL436:
 4620              	.LBE1160:
 4621              	.LBE1171:
 4622              		.loc 1 500 0
 4623 006c 0020     		movs	r0, #0
 4624 006e F3E7     		b	.L317
 4625              	.L324:
 4626              		.loc 1 509 0
 4627 0070 FFF7FEFF 		bl	__stack_chk_fail
 4628              	.LVL437:
 4629              	.L326:
 4630              		.align	2
 4631              	.L325:
 4632 0074 00000000 		.word	__stack_chk_guard
 4633              		.cfi_endproc
 4634              	.LFE41:
 4635              		.size	cmp_write_str32_marker, .-cmp_write_str32_marker
 4636              		.section	.text.cmp_write_str32,"ax",%progbits
 4637              		.align	1
 4638              		.p2align 4,,15
 4639              		.global	cmp_write_str32
 4640              		.syntax unified
 4641              		.thumb
 4642              		.thumb_func
 4643              		.fpu fpv4-sp-d16
 4644              		.type	cmp_write_str32, %function
 4645              	cmp_write_str32:
 4646              	.LFB42:
 4647              		.loc 1 511 0
 4648              		.cfi_startproc
 4649              		@ args = 0, pretend = 0, frame = 16
 4650              		@ frame_needed = 0, uses_anonymous_args = 0
 4651              	.LVL438:
 4652 0000 2DE9F041 		push	{r4, r5, r6, r7, r8, lr}
 4653              		.cfi_def_cfa_offset 24
 4654              		.cfi_offset 4, -24
 4655              		.cfi_offset 5, -20
 4656              		.cfi_offset 6, -16
 4657              		.cfi_offset 7, -12
 4658              		.cfi_offset 8, -8
 4659              		.cfi_offset 14, -4
 4660 0004 84B0     		sub	sp, sp, #16
 4661              		.cfi_def_cfa_offset 40
 4662 0006 04AF     		add	r7, sp, #16
 4663 0008 DB23     		movs	r3, #219
 4664              		.loc 1 511 0
 4665 000a 214E     		ldr	r6, .L337
 4666 000c 07F80D3D 		strb	r3, [r7, #-13]!
 4667 0010 0192     		str	r2, [sp, #4]
 4668 0012 1546     		mov	r5, r2
 4669 0014 3268     		ldr	r2, [r6]
 4670              	.LVL439:
 4671 0016 0392     		str	r2, [sp, #12]
 4672 0018 8846     		mov	r8, r1
 4673              	.LBB1183:
 4674              	.LBB1184:
ARM GAS  C:\Users\mathi\AppData\Local\Temp\cc36u0DG.s 			page 83


 4675              	.LBB1185:
 4676              	.LBB1186:
 4677              	.LBB1187:
 4678              	.LBB1188:
 4679              		.loc 1 205 0
 4680 001a C368     		ldr	r3, [r0, #12]
 4681 001c 3946     		mov	r1, r7
 4682              	.LVL440:
 4683 001e 0122     		movs	r2, #1
 4684              	.LBE1188:
 4685              	.LBE1187:
 4686              	.LBE1186:
 4687              	.LBE1185:
 4688              	.LBE1184:
 4689              	.LBE1183:
 4690              		.loc 1 511 0
 4691 0020 0446     		mov	r4, r0
 4692              	.LVL441:
 4693              	.LBB1206:
 4694              	.LBB1204:
 4695              	.LBB1193:
 4696              	.LBB1191:
 4697              	.LBB1190:
 4698              	.LBB1189:
 4699              		.loc 1 205 0
 4700 0022 9847     		blx	r3
 4701              	.LVL442:
 4702              	.LBE1189:
 4703              	.LBE1190:
 4704              		.loc 1 217 0
 4705 0024 0128     		cmp	r0, #1
 4706 0026 2CD1     		bne	.L328
 4707              	.LVL443:
 4708              	.LBE1191:
 4709              	.LBE1193:
 4710              		.loc 1 502 0
 4711 0028 019A     		ldr	r2, [sp, #4]
 4712              	.LVL444:
 4713              		.loc 1 504 0
 4714 002a E768     		ldr	r7, [r4, #12]
 4715              	.LBB1194:
 4716              	.LBB1195:
 4717              	.LBB1196:
 4718              		.loc 1 119 0
 4719 002c 110E     		lsrs	r1, r2, #24
 4720 002e 0023     		movs	r3, #0
 4721 0030 61F30703 		bfi	r3, r1, #0, #8
 4722 0034 C2F30741 		ubfx	r1, r2, #16, #8
 4723 0038 61F30F23 		bfi	r3, r1, #8, #8
 4724 003c C2F30721 		ubfx	r1, r2, #8, #8
 4725 0040 61F31743 		bfi	r3, r1, #16, #8
 4726              	.LBE1196:
 4727              	.LBE1195:
 4728              	.LBE1194:
 4729              		.loc 1 502 0
 4730 0044 04A9     		add	r1, sp, #16
 4731              	.LBB1201:
ARM GAS  C:\Users\mathi\AppData\Local\Temp\cc36u0DG.s 			page 84


 4732              	.LBB1199:
 4733              	.LBB1197:
 4734              		.loc 1 119 0
 4735 0046 62F31F63 		bfi	r3, r2, #24, #8
 4736              	.LBE1197:
 4737              	.LBE1199:
 4738              	.LBE1201:
 4739              		.loc 1 502 0
 4740 004a 41F80C3D 		str	r3, [r1, #-12]!
 4741              		.loc 1 504 0
 4742 004e 0422     		movs	r2, #4
 4743              	.LVL445:
 4744 0050 2046     		mov	r0, r4
 4745              	.LBB1202:
 4746              	.LBB1200:
 4747              	.LBB1198:
 4748              		.loc 1 119 0
 4749 0052 0293     		str	r3, [sp, #8]
 4750              	.LVL446:
 4751              	.LBE1198:
 4752              	.LBE1200:
 4753              	.LBE1202:
 4754              		.loc 1 504 0
 4755 0054 B847     		blx	r7
 4756              	.LVL447:
 4757 0056 10B9     		cbnz	r0, .L335
 4758              		.loc 1 507 0
 4759 0058 0F23     		movs	r3, #15
 4760 005a 2370     		strb	r3, [r4]
 4761              	.LVL448:
 4762 005c 08E0     		b	.L331
 4763              	.LVL449:
 4764              	.L335:
 4765              	.LBE1204:
 4766              	.LBE1206:
 4767              		.loc 1 515 0
 4768 005e 75B1     		cbz	r5, .L332
 4769              	.LVL450:
 4770              	.LBB1207:
 4771              	.LBB1208:
 4772              		.loc 1 518 0
 4773 0060 2A46     		mov	r2, r5
 4774 0062 4146     		mov	r1, r8
 4775 0064 E368     		ldr	r3, [r4, #12]
 4776 0066 2046     		mov	r0, r4
 4777 0068 9847     		blx	r3
 4778              	.LVL451:
 4779 006a 40B9     		cbnz	r0, .L332
 4780              		.loc 1 521 0
 4781 006c 0A23     		movs	r3, #10
 4782 006e 2370     		strb	r3, [r4]
 4783              	.LVL452:
 4784              	.L331:
 4785              	.LBE1208:
 4786              	.LBE1207:
 4787              		.loc 1 523 0
 4788 0070 039A     		ldr	r2, [sp, #12]
ARM GAS  C:\Users\mathi\AppData\Local\Temp\cc36u0DG.s 			page 85


 4789 0072 3368     		ldr	r3, [r6]
 4790 0074 9A42     		cmp	r2, r3
 4791 0076 08D1     		bne	.L336
 4792 0078 04B0     		add	sp, sp, #16
 4793              		.cfi_remember_state
 4794              		.cfi_def_cfa_offset 24
 4795              		@ sp needed
 4796 007a BDE8F081 		pop	{r4, r5, r6, r7, r8, pc}
 4797              	.LVL453:
 4798              	.L332:
 4799              		.cfi_restore_state
 4800              		.loc 1 516 0
 4801 007e 0120     		movs	r0, #1
 4802 0080 F6E7     		b	.L331
 4803              	.LVL454:
 4804              	.L328:
 4805              	.LBB1209:
 4806              	.LBB1205:
 4807              	.LBB1203:
 4808              	.LBB1192:
 4809              		.loc 1 220 0
 4810 0082 0823     		movs	r3, #8
 4811 0084 2370     		strb	r3, [r4]
 4812              	.LVL455:
 4813              	.LBE1192:
 4814              	.LBE1203:
 4815              	.LBE1205:
 4816              	.LBE1209:
 4817              		.loc 1 513 0
 4818 0086 0020     		movs	r0, #0
 4819 0088 F2E7     		b	.L331
 4820              	.L336:
 4821              		.loc 1 523 0
 4822 008a FFF7FEFF 		bl	__stack_chk_fail
 4823              	.LVL456:
 4824              	.L338:
 4825 008e 00BF     		.align	2
 4826              	.L337:
 4827 0090 00000000 		.word	__stack_chk_guard
 4828              		.cfi_endproc
 4829              	.LFE42:
 4830              		.size	cmp_write_str32, .-cmp_write_str32
 4831              		.section	.text.cmp_write_str_marker,"ax",%progbits
 4832              		.align	1
 4833              		.p2align 4,,15
 4834              		.global	cmp_write_str_marker
 4835              		.syntax unified
 4836              		.thumb
 4837              		.thumb_func
 4838              		.fpu fpv4-sp-d16
 4839              		.type	cmp_write_str_marker, %function
 4840              	cmp_write_str_marker:
 4841              	.LFB43:
 4842              		.loc 1 525 0
 4843              		.cfi_startproc
 4844              		@ args = 0, pretend = 0, frame = 24
 4845              		@ frame_needed = 0, uses_anonymous_args = 0
ARM GAS  C:\Users\mathi\AppData\Local\Temp\cc36u0DG.s 			page 86


 4846              	.LVL457:
 4847 0000 F0B5     		push	{r4, r5, r6, r7, lr}
 4848              		.cfi_def_cfa_offset 20
 4849              		.cfi_offset 4, -20
 4850              		.cfi_offset 5, -16
 4851              		.cfi_offset 6, -12
 4852              		.cfi_offset 7, -8
 4853              		.cfi_offset 14, -4
 4854 0002 3E4D     		ldr	r5, .L353
 4855 0004 C768     		ldr	r7, [r0, #12]
 4856 0006 2B68     		ldr	r3, [r5]
 4857 0008 87B0     		sub	sp, sp, #28
 4858              		.cfi_def_cfa_offset 48
 4859              		.loc 1 526 0
 4860 000a 1F29     		cmp	r1, #31
 4861              		.loc 1 525 0
 4862 000c 0646     		mov	r6, r0
 4863 000e 0593     		str	r3, [sp, #20]
 4864              		.loc 1 526 0
 4865 0010 30D8     		bhi	.L340
 4866              	.LVL458:
 4867 0012 06AC     		add	r4, sp, #24
 4868              	.LBB1240:
 4869              	.LBB1241:
 4870              		.loc 1 426 0
 4871 0014 61F05F03 		orn	r3, r1, #95
 4872 0018 04F8153D 		strb	r3, [r4, #-21]!
 4873              	.LVL459:
 4874              	.LBB1242:
 4875              	.LBB1243:
 4876              	.LBB1244:
 4877              	.LBB1245:
 4878              		.loc 1 205 0
 4879 001c 0122     		movs	r2, #1
 4880 001e 2146     		mov	r1, r4
 4881              	.LVL460:
 4882 0020 B847     		blx	r7
 4883              	.LVL461:
 4884              	.LBE1245:
 4885              	.LBE1244:
 4886              		.loc 1 225 0
 4887 0022 0128     		cmp	r0, #1
 4888 0024 24D0     		beq	.L345
 4889              		.loc 1 228 0
 4890 0026 0623     		movs	r3, #6
 4891 0028 3370     		strb	r3, [r6]
 4892              		.loc 1 229 0
 4893 002a 0020     		movs	r0, #0
 4894              	.LVL462:
 4895              	.L342:
 4896              	.LBE1243:
 4897              	.LBE1242:
 4898              	.LBE1241:
 4899              	.LBE1240:
 4900              		.loc 1 534 0
 4901 002c 059A     		ldr	r2, [sp, #20]
 4902 002e 2B68     		ldr	r3, [r5]
ARM GAS  C:\Users\mathi\AppData\Local\Temp\cc36u0DG.s 			page 87


 4903 0030 9A42     		cmp	r2, r3
 4904 0032 61D1     		bne	.L350
 4905 0034 07B0     		add	sp, sp, #28
 4906              		.cfi_remember_state
 4907              		.cfi_def_cfa_offset 20
 4908              		@ sp needed
 4909 0036 F0BD     		pop	{r4, r5, r6, r7, pc}
 4910              	.LVL463:
 4911              	.L352:
 4912              		.cfi_restore_state
 4913 0038 DA22     		movs	r2, #218
 4914 003a 03F8122D 		strb	r2, [r3, #-18]!
 4915              		.loc 1 531 0
 4916 003e ADF80810 		strh	r1, [sp, #8]	@ movhi
 4917              	.LVL464:
 4918              	.LBB1249:
 4919              	.LBB1250:
 4920              	.LBB1251:
 4921              	.LBB1252:
 4922              	.LBB1253:
 4923              	.LBB1254:
 4924              		.loc 1 205 0
 4925 0042 0122     		movs	r2, #1
 4926 0044 1946     		mov	r1, r3
 4927              	.LVL465:
 4928 0046 B847     		blx	r7
 4929              	.LVL466:
 4930              	.LBE1254:
 4931              	.LBE1253:
 4932              		.loc 1 217 0
 4933 0048 0128     		cmp	r0, #1
 4934 004a 3FD1     		bne	.L344
 4935              	.LVL467:
 4936              	.LBE1252:
 4937              	.LBE1251:
 4938              		.loc 1 475 0
 4939 004c BDF80830 		ldrh	r3, [sp, #8]
 4940              	.LVL468:
 4941              	.LBB1255:
 4942              	.LBB1256:
 4943              	.LBB1257:
 4944              		.loc 1 106 0
 4945 0050 8DF80B30 		strb	r3, [sp, #11]
 4946              	.LVL469:
 4947              		.loc 1 105 0
 4948 0054 C3F30723 		ubfx	r3, r3, #8, #8
 4949 0058 8DF80A30 		strb	r3, [sp, #10]
 4950              	.LBE1257:
 4951              	.LBE1256:
 4952              	.LBE1255:
 4953              		.loc 1 475 0
 4954 005c 06A9     		add	r1, sp, #24
 4955 005e BDF80A30 		ldrh	r3, [sp, #10]
 4956 0062 21F8103D 		strh	r3, [r1, #-16]!	@ movhi
 4957              		.loc 1 477 0
 4958 0066 0222     		movs	r2, #2
 4959 0068 F368     		ldr	r3, [r6, #12]
ARM GAS  C:\Users\mathi\AppData\Local\Temp\cc36u0DG.s 			page 88


 4960 006a 3046     		mov	r0, r6
 4961 006c 9847     		blx	r3
 4962              	.LVL470:
 4963 006e 48B3     		cbz	r0, .L346
 4964              	.LVL471:
 4965              	.L345:
 4966              	.LBE1250:
 4967              	.LBE1249:
 4968              	.LBB1258:
 4969              	.LBB1248:
 4970              	.LBB1247:
 4971              	.LBB1246:
 4972              		.loc 1 226 0
 4973 0070 0120     		movs	r0, #1
 4974 0072 DBE7     		b	.L342
 4975              	.LVL472:
 4976              	.L340:
 4977              	.LBE1246:
 4978              	.LBE1247:
 4979              	.LBE1248:
 4980              	.LBE1258:
 4981              		.loc 1 528 0
 4982 0074 FF29     		cmp	r1, #255
 4983 0076 06AB     		add	r3, sp, #24
 4984 0078 2CD9     		bls	.L351
 4985              		.loc 1 530 0
 4986 007a B1F5803F 		cmp	r1, #65536
 4987 007e DBD3     		bcc	.L352
 4988              	.LVL473:
 4989 0080 DB22     		movs	r2, #219
 4990 0082 03F8112D 		strb	r2, [r3, #-17]!
 4991 0086 0391     		str	r1, [sp, #12]
 4992              	.LVL474:
 4993              	.LBB1259:
 4994              	.LBB1260:
 4995              	.LBB1261:
 4996              	.LBB1262:
 4997              	.LBB1263:
 4998              	.LBB1264:
 4999              		.loc 1 205 0
 5000 0088 0122     		movs	r2, #1
 5001 008a 1946     		mov	r1, r3
 5002              	.LVL475:
 5003 008c B847     		blx	r7
 5004              	.LVL476:
 5005              	.LBE1264:
 5006              	.LBE1263:
 5007              		.loc 1 217 0
 5008 008e 0128     		cmp	r0, #1
 5009 0090 1CD1     		bne	.L344
 5010              	.LVL477:
 5011              	.LBE1262:
 5012              	.LBE1261:
 5013              		.loc 1 502 0
 5014 0092 039A     		ldr	r2, [sp, #12]
 5015              	.LVL478:
 5016              		.loc 1 504 0
ARM GAS  C:\Users\mathi\AppData\Local\Temp\cc36u0DG.s 			page 89


 5017 0094 F468     		ldr	r4, [r6, #12]
 5018              	.LBB1265:
 5019              	.LBB1266:
 5020              	.LBB1267:
 5021              		.loc 1 119 0
 5022 0096 110E     		lsrs	r1, r2, #24
 5023 0098 0023     		movs	r3, #0
 5024 009a 61F30703 		bfi	r3, r1, #0, #8
 5025 009e C2F30741 		ubfx	r1, r2, #16, #8
 5026 00a2 61F30F23 		bfi	r3, r1, #8, #8
 5027 00a6 C2F30721 		ubfx	r1, r2, #8, #8
 5028 00aa 61F31743 		bfi	r3, r1, #16, #8
 5029              	.LBE1267:
 5030              	.LBE1266:
 5031              	.LBE1265:
 5032              		.loc 1 502 0
 5033 00ae 06A9     		add	r1, sp, #24
 5034              	.LBB1272:
 5035              	.LBB1270:
 5036              	.LBB1268:
 5037              		.loc 1 119 0
 5038 00b0 62F31F63 		bfi	r3, r2, #24, #8
 5039              	.LBE1268:
 5040              	.LBE1270:
 5041              	.LBE1272:
 5042              		.loc 1 502 0
 5043 00b4 41F80C3D 		str	r3, [r1, #-12]!
 5044              		.loc 1 504 0
 5045 00b8 0422     		movs	r2, #4
 5046              	.LVL479:
 5047 00ba 3046     		mov	r0, r6
 5048              	.LBB1273:
 5049              	.LBB1271:
 5050              	.LBB1269:
 5051              		.loc 1 119 0
 5052 00bc 0493     		str	r3, [sp, #16]
 5053              	.LVL480:
 5054              	.LBE1269:
 5055              	.LBE1271:
 5056              	.LBE1273:
 5057              		.loc 1 504 0
 5058 00be A047     		blx	r4
 5059              	.LVL481:
 5060 00c0 0028     		cmp	r0, #0
 5061 00c2 D5D1     		bne	.L345
 5062              	.LVL482:
 5063              	.L346:
 5064              	.LBE1260:
 5065              	.LBE1259:
 5066              	.LBB1274:
 5067              	.LBB1275:
 5068              		.loc 1 453 0
 5069 00c4 0F23     		movs	r3, #15
 5070 00c6 3370     		strb	r3, [r6]
 5071              		.loc 1 454 0
 5072 00c8 0020     		movs	r0, #0
 5073 00ca AFE7     		b	.L342
ARM GAS  C:\Users\mathi\AppData\Local\Temp\cc36u0DG.s 			page 90


 5074              	.L344:
 5075              	.LBB1276:
 5076              	.LBB1277:
 5077              		.loc 1 220 0
 5078 00cc 0823     		movs	r3, #8
 5079 00ce 3370     		strb	r3, [r6]
 5080              	.LBE1277:
 5081              	.LBE1276:
 5082              		.loc 1 448 0
 5083 00d0 0020     		movs	r0, #0
 5084 00d2 ABE7     		b	.L342
 5085              	.LVL483:
 5086              	.L351:
 5087 00d4 D922     		movs	r2, #217
 5088 00d6 03F8132D 		strb	r2, [r3, #-19]!
 5089              	.LBE1275:
 5090              	.LBE1274:
 5091              		.loc 1 529 0
 5092 00da 8DF80410 		strb	r1, [sp, #4]
 5093              	.LVL484:
 5094              	.LBB1283:
 5095              	.LBB1282:
 5096              	.LBB1281:
 5097              	.LBB1280:
 5098              	.LBB1278:
 5099              	.LBB1279:
 5100              		.loc 1 205 0
 5101 00de 0122     		movs	r2, #1
 5102 00e0 1946     		mov	r1, r3
 5103              	.LVL485:
 5104 00e2 B847     		blx	r7
 5105              	.LVL486:
 5106              	.LBE1279:
 5107              	.LBE1278:
 5108              		.loc 1 217 0
 5109 00e4 0128     		cmp	r0, #1
 5110 00e6 F1D1     		bne	.L344
 5111              	.LVL487:
 5112              	.LBE1280:
 5113              	.LBE1281:
 5114              		.loc 1 450 0
 5115 00e8 0246     		mov	r2, r0
 5116 00ea F368     		ldr	r3, [r6, #12]
 5117 00ec 01A9     		add	r1, sp, #4
 5118 00ee 3046     		mov	r0, r6
 5119 00f0 9847     		blx	r3
 5120              	.LVL488:
 5121 00f2 0028     		cmp	r0, #0
 5122 00f4 E6D0     		beq	.L346
 5123 00f6 BBE7     		b	.L345
 5124              	.LVL489:
 5125              	.L350:
 5126              	.LBE1282:
 5127              	.LBE1283:
 5128              		.loc 1 534 0
 5129 00f8 FFF7FEFF 		bl	__stack_chk_fail
 5130              	.LVL490:
ARM GAS  C:\Users\mathi\AppData\Local\Temp\cc36u0DG.s 			page 91


 5131              	.L354:
 5132              		.align	2
 5133              	.L353:
 5134 00fc 00000000 		.word	__stack_chk_guard
 5135              		.cfi_endproc
 5136              	.LFE43:
 5137              		.size	cmp_write_str_marker, .-cmp_write_str_marker
 5138              		.section	.text.cmp_write_str,"ax",%progbits
 5139              		.align	1
 5140              		.p2align 4,,15
 5141              		.global	cmp_write_str
 5142              		.syntax unified
 5143              		.thumb
 5144              		.thumb_func
 5145              		.fpu fpv4-sp-d16
 5146              		.type	cmp_write_str, %function
 5147              	cmp_write_str:
 5148              	.LFB44:
 5149              		.loc 1 536 0
 5150              		.cfi_startproc
 5151              		@ args = 0, pretend = 0, frame = 24
 5152              		@ frame_needed = 0, uses_anonymous_args = 0
 5153              	.LVL491:
 5154 0000 2DE9F041 		push	{r4, r5, r6, r7, r8, lr}
 5155              		.cfi_def_cfa_offset 24
 5156              		.cfi_offset 4, -24
 5157              		.cfi_offset 5, -20
 5158              		.cfi_offset 6, -16
 5159              		.cfi_offset 7, -12
 5160              		.cfi_offset 8, -8
 5161              		.cfi_offset 14, -4
 5162 0004 434E     		ldr	r6, .L386
 5163 0006 86B0     		sub	sp, sp, #24
 5164              		.cfi_def_cfa_offset 48
 5165              		.loc 1 536 0
 5166 0008 3368     		ldr	r3, [r6]
 5167 000a 0593     		str	r3, [sp, #20]
 5168              		.loc 1 537 0
 5169 000c 1F2A     		cmp	r2, #31
 5170              		.loc 1 536 0
 5171 000e 8846     		mov	r8, r1
 5172 0010 0446     		mov	r4, r0
 5173 0012 1546     		mov	r5, r2
 5174 0014 C368     		ldr	r3, [r0, #12]
 5175 0016 06A9     		add	r1, sp, #24
 5176              	.LVL492:
 5177              		.loc 1 537 0
 5178 0018 48D9     		bls	.L381
 5179              		.loc 1 539 0
 5180 001a FF2A     		cmp	r2, #255
 5181 001c 2CD9     		bls	.L382
 5182              		.loc 1 541 0
 5183 001e B2F5803F 		cmp	r2, #65536
 5184 0022 4FD3     		bcc	.L383
 5185              	.LVL493:
 5186 0024 DB22     		movs	r2, #219
 5187              	.LVL494:
ARM GAS  C:\Users\mathi\AppData\Local\Temp\cc36u0DG.s 			page 92


 5188 0026 01F8112D 		strb	r2, [r1, #-17]!
 5189 002a 0395     		str	r5, [sp, #12]
 5190              	.LVL495:
 5191              	.LBB1342:
 5192              	.LBB1343:
 5193              	.LBB1344:
 5194              	.LBB1345:
 5195              	.LBB1346:
 5196              	.LBB1347:
 5197              	.LBB1348:
 5198              		.loc 1 205 0
 5199 002c 0122     		movs	r2, #1
 5200 002e 9847     		blx	r3
 5201              	.LVL496:
 5202              	.LBE1348:
 5203              	.LBE1347:
 5204              		.loc 1 217 0
 5205 0030 0128     		cmp	r0, #1
 5206 0032 68D1     		bne	.L362
 5207              	.LVL497:
 5208              	.LBE1346:
 5209              	.LBE1345:
 5210              		.loc 1 502 0
 5211 0034 039A     		ldr	r2, [sp, #12]
 5212              	.LVL498:
 5213              		.loc 1 504 0
 5214 0036 E768     		ldr	r7, [r4, #12]
 5215              	.LBB1349:
 5216              	.LBB1350:
 5217              	.LBB1351:
 5218              		.loc 1 119 0
 5219 0038 110E     		lsrs	r1, r2, #24
 5220 003a 0023     		movs	r3, #0
 5221 003c 61F30703 		bfi	r3, r1, #0, #8
 5222 0040 C2F30741 		ubfx	r1, r2, #16, #8
 5223 0044 61F30F23 		bfi	r3, r1, #8, #8
 5224 0048 C2F30721 		ubfx	r1, r2, #8, #8
 5225 004c 61F31743 		bfi	r3, r1, #16, #8
 5226              	.LBE1351:
 5227              	.LBE1350:
 5228              	.LBE1349:
 5229              		.loc 1 502 0
 5230 0050 06A9     		add	r1, sp, #24
 5231              	.LBB1356:
 5232              	.LBB1354:
 5233              	.LBB1352:
 5234              		.loc 1 119 0
 5235 0052 62F31F63 		bfi	r3, r2, #24, #8
 5236              	.LBE1352:
 5237              	.LBE1354:
 5238              	.LBE1356:
 5239              		.loc 1 502 0
 5240 0056 41F80C3D 		str	r3, [r1, #-12]!
 5241              		.loc 1 504 0
 5242 005a 0422     		movs	r2, #4
 5243              	.LVL499:
 5244 005c 2046     		mov	r0, r4
ARM GAS  C:\Users\mathi\AppData\Local\Temp\cc36u0DG.s 			page 93


 5245              	.LBB1357:
 5246              	.LBB1355:
 5247              	.LBB1353:
 5248              		.loc 1 119 0
 5249 005e 0493     		str	r3, [sp, #16]
 5250              	.LVL500:
 5251              	.LBE1353:
 5252              	.LBE1355:
 5253              	.LBE1357:
 5254              		.loc 1 504 0
 5255 0060 B847     		blx	r7
 5256              	.LVL501:
 5257 0062 C8B9     		cbnz	r0, .L379
 5258              	.LVL502:
 5259              	.L363:
 5260              	.LBE1344:
 5261              	.LBE1343:
 5262              	.LBE1342:
 5263              	.LBB1360:
 5264              	.LBB1361:
 5265              	.LBB1362:
 5266              	.LBB1363:
 5267              		.loc 1 453 0
 5268 0064 0F23     		movs	r3, #15
 5269 0066 2370     		strb	r3, [r4]
 5270              	.LBE1363:
 5271              	.LBE1362:
 5272              		.loc 1 459 0
 5273 0068 0020     		movs	r0, #0
 5274              	.L359:
 5275              	.LBE1361:
 5276              	.LBE1360:
 5277              		.loc 1 545 0
 5278 006a 059A     		ldr	r2, [sp, #20]
 5279 006c 3368     		ldr	r3, [r6]
 5280 006e 9A42     		cmp	r2, r3
 5281 0070 4DD1     		bne	.L384
 5282 0072 06B0     		add	sp, sp, #24
 5283              		.cfi_remember_state
 5284              		.cfi_def_cfa_offset 24
 5285              		@ sp needed
 5286 0074 BDE8F081 		pop	{r4, r5, r6, r7, r8, pc}
 5287              	.LVL503:
 5288              	.L382:
 5289              		.cfi_restore_state
 5290 0078 D922     		movs	r2, #217
 5291              	.LVL504:
 5292 007a 01F8132D 		strb	r2, [r1, #-19]!
 5293              		.loc 1 540 0
 5294 007e 8DF80450 		strb	r5, [sp, #4]
 5295              	.LVL505:
 5296              	.LBB1376:
 5297              	.LBB1374:
 5298              	.LBB1372:
 5299              	.LBB1370:
 5300              	.LBB1364:
 5301              	.LBB1365:
ARM GAS  C:\Users\mathi\AppData\Local\Temp\cc36u0DG.s 			page 94


 5302              	.LBB1366:
 5303              	.LBB1367:
 5304              		.loc 1 205 0
 5305 0082 0122     		movs	r2, #1
 5306 0084 9847     		blx	r3
 5307              	.LVL506:
 5308              	.LBE1367:
 5309              	.LBE1366:
 5310              		.loc 1 217 0
 5311 0086 0128     		cmp	r0, #1
 5312 0088 3DD1     		bne	.L362
 5313              	.LVL507:
 5314              	.LBE1365:
 5315              	.LBE1364:
 5316              		.loc 1 450 0
 5317 008a 0246     		mov	r2, r0
 5318 008c E368     		ldr	r3, [r4, #12]
 5319 008e 01A9     		add	r1, sp, #4
 5320 0090 2046     		mov	r0, r4
 5321 0092 9847     		blx	r3
 5322              	.LVL508:
 5323 0094 0028     		cmp	r0, #0
 5324 0096 E5D0     		beq	.L363
 5325              	.LVL509:
 5326              	.L379:
 5327              	.LBE1370:
 5328              	.LBE1372:
 5329              	.LBE1374:
 5330              	.LBE1376:
 5331              	.LBB1377:
 5332              	.LBB1358:
 5333              	.LBB1359:
 5334              		.loc 1 518 0
 5335 0098 2A46     		mov	r2, r5
 5336 009a 4146     		mov	r1, r8
 5337 009c E368     		ldr	r3, [r4, #12]
 5338 009e 2046     		mov	r0, r4
 5339 00a0 9847     		blx	r3
 5340              	.LVL510:
 5341 00a2 70BB     		cbnz	r0, .L360
 5342              	.LBE1359:
 5343              	.LBE1358:
 5344              	.LBE1377:
 5345              	.LBB1378:
 5346              	.LBB1379:
 5347              	.LBB1380:
 5348              	.LBB1381:
 5349              		.loc 1 442 0
 5350 00a4 0A23     		movs	r3, #10
 5351 00a6 2370     		strb	r3, [r4]
 5352              		.loc 1 443 0
 5353 00a8 0020     		movs	r0, #0
 5354 00aa DEE7     		b	.L359
 5355              	.LVL511:
 5356              	.L381:
 5357              	.LBE1381:
 5358              	.LBE1380:
ARM GAS  C:\Users\mathi\AppData\Local\Temp\cc36u0DG.s 			page 95


 5359              	.LBB1382:
 5360              	.LBB1383:
 5361              		.loc 1 426 0
 5362 00ac 62F05F02 		orn	r2, r2, #95
 5363              	.LVL512:
 5364 00b0 01F8152D 		strb	r2, [r1, #-21]!
 5365              	.LVL513:
 5366              	.LBB1384:
 5367              	.LBB1385:
 5368              	.LBB1386:
 5369              	.LBB1387:
 5370              		.loc 1 205 0
 5371 00b4 0122     		movs	r2, #1
 5372 00b6 9847     		blx	r3
 5373              	.LVL514:
 5374              	.LBE1387:
 5375              	.LBE1386:
 5376              		.loc 1 225 0
 5377 00b8 0128     		cmp	r0, #1
 5378 00ba 20D0     		beq	.L385
 5379              		.loc 1 228 0
 5380 00bc 0623     		movs	r3, #6
 5381 00be 2370     		strb	r3, [r4]
 5382              	.LVL515:
 5383              	.LBE1385:
 5384              	.LBE1384:
 5385              	.LBE1383:
 5386              	.LBE1382:
 5387              		.loc 1 434 0
 5388 00c0 0020     		movs	r0, #0
 5389 00c2 D2E7     		b	.L359
 5390              	.LVL516:
 5391              	.L383:
 5392 00c4 DA22     		movs	r2, #218
 5393              	.LVL517:
 5394 00c6 01F8122D 		strb	r2, [r1, #-18]!
 5395              	.LBE1379:
 5396              	.LBE1378:
 5397              		.loc 1 542 0
 5398 00ca ADF80850 		strh	r5, [sp, #8]	@ movhi
 5399              	.LVL518:
 5400              	.LBB1389:
 5401              	.LBB1390:
 5402              	.LBB1391:
 5403              	.LBB1392:
 5404              	.LBB1393:
 5405              	.LBB1394:
 5406              	.LBB1395:
 5407              		.loc 1 205 0
 5408 00ce 0122     		movs	r2, #1
 5409 00d0 9847     		blx	r3
 5410              	.LVL519:
 5411              	.LBE1395:
 5412              	.LBE1394:
 5413              		.loc 1 217 0
 5414 00d2 0128     		cmp	r0, #1
 5415 00d4 17D1     		bne	.L362
ARM GAS  C:\Users\mathi\AppData\Local\Temp\cc36u0DG.s 			page 96


 5416              	.LVL520:
 5417              	.LBE1393:
 5418              	.LBE1392:
 5419              		.loc 1 475 0
 5420 00d6 BDF80830 		ldrh	r3, [sp, #8]
 5421              	.LVL521:
 5422              	.LBB1396:
 5423              	.LBB1397:
 5424              	.LBB1398:
 5425              		.loc 1 106 0
 5426 00da 8DF80B30 		strb	r3, [sp, #11]
 5427              	.LVL522:
 5428              		.loc 1 105 0
 5429 00de C3F30723 		ubfx	r3, r3, #8, #8
 5430 00e2 8DF80A30 		strb	r3, [sp, #10]
 5431              	.LBE1398:
 5432              	.LBE1397:
 5433              	.LBE1396:
 5434              		.loc 1 475 0
 5435 00e6 06A9     		add	r1, sp, #24
 5436 00e8 BDF80A30 		ldrh	r3, [sp, #10]
 5437 00ec 21F8103D 		strh	r3, [r1, #-16]!	@ movhi
 5438              		.loc 1 477 0
 5439 00f0 0222     		movs	r2, #2
 5440 00f2 E368     		ldr	r3, [r4, #12]
 5441 00f4 2046     		mov	r0, r4
 5442 00f6 9847     		blx	r3
 5443              	.LVL523:
 5444 00f8 0028     		cmp	r0, #0
 5445 00fa B3D0     		beq	.L363
 5446 00fc CCE7     		b	.L379
 5447              	.LVL524:
 5448              	.L385:
 5449              	.LBE1391:
 5450              	.LBE1390:
 5451              	.LBE1389:
 5452              	.LBB1399:
 5453              	.LBB1388:
 5454              		.loc 1 436 0
 5455 00fe 002D     		cmp	r5, #0
 5456 0100 CAD1     		bne	.L379
 5457              	.LVL525:
 5458              	.L360:
 5459              		.loc 1 437 0
 5460 0102 0120     		movs	r0, #1
 5461 0104 B1E7     		b	.L359
 5462              	.L362:
 5463              	.LBE1388:
 5464              	.LBE1399:
 5465              	.LBB1400:
 5466              	.LBB1375:
 5467              	.LBB1373:
 5468              	.LBB1371:
 5469              	.LBB1369:
 5470              	.LBB1368:
 5471              		.loc 1 220 0
 5472 0106 0823     		movs	r3, #8
ARM GAS  C:\Users\mathi\AppData\Local\Temp\cc36u0DG.s 			page 97


 5473 0108 2370     		strb	r3, [r4]
 5474              	.LBE1368:
 5475              	.LBE1369:
 5476              	.LBE1371:
 5477              	.LBE1373:
 5478              		.loc 1 459 0
 5479 010a 0020     		movs	r0, #0
 5480 010c ADE7     		b	.L359
 5481              	.L384:
 5482              	.LBE1375:
 5483              	.LBE1400:
 5484              		.loc 1 545 0
 5485 010e FFF7FEFF 		bl	__stack_chk_fail
 5486              	.LVL526:
 5487              	.L387:
 5488 0112 00BF     		.align	2
 5489              	.L386:
 5490 0114 00000000 		.word	__stack_chk_guard
 5491              		.cfi_endproc
 5492              	.LFE44:
 5493              		.size	cmp_write_str, .-cmp_write_str
 5494              		.section	.text.cmp_write_bin8_marker,"ax",%progbits
 5495              		.align	1
 5496              		.p2align 4,,15
 5497              		.global	cmp_write_bin8_marker
 5498              		.syntax unified
 5499              		.thumb
 5500              		.thumb_func
 5501              		.fpu fpv4-sp-d16
 5502              		.type	cmp_write_bin8_marker, %function
 5503              	cmp_write_bin8_marker:
 5504              	.LFB45:
 5505              		.loc 1 547 0
 5506              		.cfi_startproc
 5507              		@ args = 0, pretend = 0, frame = 16
 5508              		@ frame_needed = 0, uses_anonymous_args = 0
 5509              	.LVL527:
 5510 0000 70B5     		push	{r4, r5, r6, lr}
 5511              		.cfi_def_cfa_offset 16
 5512              		.cfi_offset 4, -16
 5513              		.cfi_offset 5, -12
 5514              		.cfi_offset 6, -8
 5515              		.cfi_offset 14, -4
 5516 0002 84B0     		sub	sp, sp, #16
 5517              		.cfi_def_cfa_offset 32
 5518 0004 04AB     		add	r3, sp, #16
 5519 0006 C422     		movs	r2, #196
 5520              		.loc 1 547 0
 5521 0008 124E     		ldr	r6, .L398
 5522 000a 03F8052D 		strb	r2, [r3, #-5]!
 5523 000e 3268     		ldr	r2, [r6]
 5524 0010 8DF80710 		strb	r1, [sp, #7]
 5525 0014 0392     		str	r2, [sp, #12]
 5526              	.LBB1405:
 5527              	.LBB1406:
 5528              	.LBB1407:
 5529              	.LBB1408:
ARM GAS  C:\Users\mathi\AppData\Local\Temp\cc36u0DG.s 			page 98


 5530              		.loc 1 205 0
 5531 0016 1946     		mov	r1, r3
 5532              	.LVL528:
 5533 0018 0122     		movs	r2, #1
 5534 001a C368     		ldr	r3, [r0, #12]
 5535              	.LBE1408:
 5536              	.LBE1407:
 5537              	.LBE1406:
 5538              	.LBE1405:
 5539              		.loc 1 547 0
 5540 001c 0446     		mov	r4, r0
 5541              	.LVL529:
 5542              	.LBB1413:
 5543              	.LBB1411:
 5544              	.LBB1410:
 5545              	.LBB1409:
 5546              		.loc 1 205 0
 5547 001e 9847     		blx	r3
 5548              	.LVL530:
 5549              	.LBE1409:
 5550              	.LBE1410:
 5551              		.loc 1 217 0
 5552 0020 0128     		cmp	r0, #1
 5553 0022 11D1     		bne	.L389
 5554              	.LVL531:
 5555 0024 0546     		mov	r5, r0
 5556              	.LBE1411:
 5557              	.LBE1413:
 5558              		.loc 1 551 0
 5559 0026 0246     		mov	r2, r0
 5560 0028 E368     		ldr	r3, [r4, #12]
 5561 002a 0DF10701 		add	r1, sp, #7
 5562 002e 2046     		mov	r0, r4
 5563 0030 9847     		blx	r3
 5564              	.LVL532:
 5565 0032 38B9     		cbnz	r0, .L396
 5566              		.loc 1 554 0
 5567 0034 0F23     		movs	r3, #15
 5568 0036 2370     		strb	r3, [r4]
 5569              	.L390:
 5570              		.loc 1 556 0
 5571 0038 039A     		ldr	r2, [sp, #12]
 5572 003a 3368     		ldr	r3, [r6]
 5573 003c 9A42     		cmp	r2, r3
 5574 003e 07D1     		bne	.L397
 5575 0040 04B0     		add	sp, sp, #16
 5576              		.cfi_remember_state
 5577              		.cfi_def_cfa_offset 16
 5578              		@ sp needed
 5579 0042 70BD     		pop	{r4, r5, r6, pc}
 5580              	.LVL533:
 5581              	.L396:
 5582              		.cfi_restore_state
 5583              		.loc 1 552 0
 5584 0044 2846     		mov	r0, r5
 5585 0046 F7E7     		b	.L390
 5586              	.LVL534:
ARM GAS  C:\Users\mathi\AppData\Local\Temp\cc36u0DG.s 			page 99


 5587              	.L389:
 5588              	.LBB1414:
 5589              	.LBB1412:
 5590              		.loc 1 220 0
 5591 0048 0823     		movs	r3, #8
 5592 004a 2370     		strb	r3, [r4]
 5593              	.LVL535:
 5594              	.LBE1412:
 5595              	.LBE1414:
 5596              		.loc 1 549 0
 5597 004c 0020     		movs	r0, #0
 5598 004e F3E7     		b	.L390
 5599              	.L397:
 5600              		.loc 1 556 0
 5601 0050 FFF7FEFF 		bl	__stack_chk_fail
 5602              	.LVL536:
 5603              	.L399:
 5604              		.align	2
 5605              	.L398:
 5606 0054 00000000 		.word	__stack_chk_guard
 5607              		.cfi_endproc
 5608              	.LFE45:
 5609              		.size	cmp_write_bin8_marker, .-cmp_write_bin8_marker
 5610              		.section	.text.cmp_write_bin8,"ax",%progbits
 5611              		.align	1
 5612              		.p2align 4,,15
 5613              		.global	cmp_write_bin8
 5614              		.syntax unified
 5615              		.thumb
 5616              		.thumb_func
 5617              		.fpu fpv4-sp-d16
 5618              		.type	cmp_write_bin8, %function
 5619              	cmp_write_bin8:
 5620              	.LFB46:
 5621              		.loc 1 558 0
 5622              		.cfi_startproc
 5623              		@ args = 0, pretend = 0, frame = 8
 5624              		@ frame_needed = 0, uses_anonymous_args = 0
 5625              	.LVL537:
 5626 0000 2DE9F041 		push	{r4, r5, r6, r7, r8, lr}
 5627              		.cfi_def_cfa_offset 24
 5628              		.cfi_offset 4, -24
 5629              		.cfi_offset 5, -20
 5630              		.cfi_offset 6, -16
 5631              		.cfi_offset 7, -12
 5632              		.cfi_offset 8, -8
 5633              		.cfi_offset 14, -4
 5634 0004 82B0     		sub	sp, sp, #8
 5635              		.cfi_def_cfa_offset 32
 5636 0006 02AB     		add	r3, sp, #8
 5637 0008 C424     		movs	r4, #196
 5638              		.loc 1 558 0
 5639 000a 194E     		ldr	r6, .L410
 5640 000c 03F8054D 		strb	r4, [r3, #-5]!
 5641 0010 8DF80220 		strb	r2, [sp, #2]
 5642 0014 1546     		mov	r5, r2
 5643 0016 3268     		ldr	r2, [r6]
ARM GAS  C:\Users\mathi\AppData\Local\Temp\cc36u0DG.s 			page 100


 5644              	.LVL538:
 5645 0018 0192     		str	r2, [sp, #4]
 5646 001a 8846     		mov	r8, r1
 5647              	.LBB1423:
 5648              	.LBB1424:
 5649              	.LBB1425:
 5650              	.LBB1426:
 5651              	.LBB1427:
 5652              	.LBB1428:
 5653              		.loc 1 205 0
 5654 001c C768     		ldr	r7, [r0, #12]
 5655 001e 1946     		mov	r1, r3
 5656              	.LVL539:
 5657 0020 0122     		movs	r2, #1
 5658              	.LBE1428:
 5659              	.LBE1427:
 5660              	.LBE1426:
 5661              	.LBE1425:
 5662              	.LBE1424:
 5663              	.LBE1423:
 5664              		.loc 1 558 0
 5665 0022 0446     		mov	r4, r0
 5666              	.LVL540:
 5667              	.LBB1437:
 5668              	.LBB1435:
 5669              	.LBB1433:
 5670              	.LBB1431:
 5671              	.LBB1430:
 5672              	.LBB1429:
 5673              		.loc 1 205 0
 5674 0024 B847     		blx	r7
 5675              	.LVL541:
 5676              	.LBE1429:
 5677              	.LBE1430:
 5678              		.loc 1 217 0
 5679 0026 0128     		cmp	r0, #1
 5680 0028 1BD1     		bne	.L401
 5681              	.LVL542:
 5682              	.LBE1431:
 5683              	.LBE1433:
 5684              		.loc 1 551 0
 5685 002a 0246     		mov	r2, r0
 5686 002c E368     		ldr	r3, [r4, #12]
 5687 002e 0DF10201 		add	r1, sp, #2
 5688 0032 2046     		mov	r0, r4
 5689 0034 9847     		blx	r3
 5690              	.LVL543:
 5691 0036 10B9     		cbnz	r0, .L408
 5692              		.loc 1 554 0
 5693 0038 0F23     		movs	r3, #15
 5694 003a 2370     		strb	r3, [r4]
 5695              	.LVL544:
 5696 003c 08E0     		b	.L404
 5697              	.LVL545:
 5698              	.L408:
 5699              	.LBE1435:
 5700              	.LBE1437:
ARM GAS  C:\Users\mathi\AppData\Local\Temp\cc36u0DG.s 			page 101


 5701              		.loc 1 562 0
 5702 003e 75B1     		cbz	r5, .L405
 5703              	.LVL546:
 5704              	.LBB1438:
 5705              	.LBB1439:
 5706              		.loc 1 565 0
 5707 0040 2A46     		mov	r2, r5
 5708 0042 4146     		mov	r1, r8
 5709 0044 E368     		ldr	r3, [r4, #12]
 5710 0046 2046     		mov	r0, r4
 5711 0048 9847     		blx	r3
 5712              	.LVL547:
 5713 004a 40B9     		cbnz	r0, .L405
 5714              		.loc 1 568 0
 5715 004c 0A23     		movs	r3, #10
 5716 004e 2370     		strb	r3, [r4]
 5717              	.LVL548:
 5718              	.L404:
 5719              	.LBE1439:
 5720              	.LBE1438:
 5721              		.loc 1 570 0
 5722 0050 019A     		ldr	r2, [sp, #4]
 5723 0052 3368     		ldr	r3, [r6]
 5724 0054 9A42     		cmp	r2, r3
 5725 0056 08D1     		bne	.L409
 5726 0058 02B0     		add	sp, sp, #8
 5727              		.cfi_remember_state
 5728              		.cfi_def_cfa_offset 24
 5729              		@ sp needed
 5730 005a BDE8F081 		pop	{r4, r5, r6, r7, r8, pc}
 5731              	.LVL549:
 5732              	.L405:
 5733              		.cfi_restore_state
 5734              		.loc 1 563 0
 5735 005e 0120     		movs	r0, #1
 5736 0060 F6E7     		b	.L404
 5737              	.LVL550:
 5738              	.L401:
 5739              	.LBB1440:
 5740              	.LBB1436:
 5741              	.LBB1434:
 5742              	.LBB1432:
 5743              		.loc 1 220 0
 5744 0062 0823     		movs	r3, #8
 5745 0064 2370     		strb	r3, [r4]
 5746              	.LVL551:
 5747              	.LBE1432:
 5748              	.LBE1434:
 5749              	.LBE1436:
 5750              	.LBE1440:
 5751              		.loc 1 560 0
 5752 0066 0020     		movs	r0, #0
 5753 0068 F2E7     		b	.L404
 5754              	.L409:
 5755              		.loc 1 570 0
 5756 006a FFF7FEFF 		bl	__stack_chk_fail
 5757              	.LVL552:
ARM GAS  C:\Users\mathi\AppData\Local\Temp\cc36u0DG.s 			page 102


 5758              	.L411:
 5759 006e 00BF     		.align	2
 5760              	.L410:
 5761 0070 00000000 		.word	__stack_chk_guard
 5762              		.cfi_endproc
 5763              	.LFE46:
 5764              		.size	cmp_write_bin8, .-cmp_write_bin8
 5765              		.section	.text.cmp_write_bin16_marker,"ax",%progbits
 5766              		.align	1
 5767              		.p2align 4,,15
 5768              		.global	cmp_write_bin16_marker
 5769              		.syntax unified
 5770              		.thumb
 5771              		.thumb_func
 5772              		.fpu fpv4-sp-d16
 5773              		.type	cmp_write_bin16_marker, %function
 5774              	cmp_write_bin16_marker:
 5775              	.LFB47:
 5776              		.loc 1 572 0
 5777              		.cfi_startproc
 5778              		@ args = 0, pretend = 0, frame = 16
 5779              		@ frame_needed = 0, uses_anonymous_args = 0
 5780              	.LVL553:
 5781 0000 70B5     		push	{r4, r5, r6, lr}
 5782              		.cfi_def_cfa_offset 16
 5783              		.cfi_offset 4, -16
 5784              		.cfi_offset 5, -12
 5785              		.cfi_offset 6, -8
 5786              		.cfi_offset 14, -4
 5787 0002 84B0     		sub	sp, sp, #16
 5788              		.cfi_def_cfa_offset 32
 5789 0004 04AB     		add	r3, sp, #16
 5790 0006 C522     		movs	r2, #197
 5791              		.loc 1 572 0
 5792 0008 184D     		ldr	r5, .L422
 5793 000a 03F8072D 		strb	r2, [r3, #-7]!
 5794 000e 2A68     		ldr	r2, [r5]
 5795 0010 ADF80610 		strh	r1, [sp, #6]	@ movhi
 5796 0014 0392     		str	r2, [sp, #12]
 5797              	.LBB1448:
 5798              	.LBB1449:
 5799              	.LBB1450:
 5800              	.LBB1451:
 5801              		.loc 1 205 0
 5802 0016 1946     		mov	r1, r3
 5803              	.LVL554:
 5804 0018 0122     		movs	r2, #1
 5805 001a C368     		ldr	r3, [r0, #12]
 5806              	.LBE1451:
 5807              	.LBE1450:
 5808              	.LBE1449:
 5809              	.LBE1448:
 5810              		.loc 1 572 0
 5811 001c 0446     		mov	r4, r0
 5812              	.LVL555:
 5813              	.LBB1456:
 5814              	.LBB1454:
ARM GAS  C:\Users\mathi\AppData\Local\Temp\cc36u0DG.s 			page 103


 5815              	.LBB1453:
 5816              	.LBB1452:
 5817              		.loc 1 205 0
 5818 001e 9847     		blx	r3
 5819              	.LVL556:
 5820              	.LBE1452:
 5821              	.LBE1453:
 5822              		.loc 1 217 0
 5823 0020 0128     		cmp	r0, #1
 5824 0022 1CD1     		bne	.L413
 5825              	.LVL557:
 5826              	.LBE1454:
 5827              	.LBE1456:
 5828              		.loc 1 576 0
 5829 0024 BDF80630 		ldrh	r3, [sp, #6]
 5830              	.LVL558:
 5831              	.LBB1457:
 5832              	.LBB1458:
 5833              	.LBB1459:
 5834              		.loc 1 106 0
 5835 0028 8DF80B30 		strb	r3, [sp, #11]
 5836              	.LVL559:
 5837              		.loc 1 105 0
 5838 002c C3F30723 		ubfx	r3, r3, #8, #8
 5839 0030 8DF80A30 		strb	r3, [sp, #10]
 5840              	.LBE1459:
 5841              	.LBE1458:
 5842              	.LBE1457:
 5843              		.loc 1 576 0
 5844 0034 04A9     		add	r1, sp, #16
 5845 0036 BDF80A30 		ldrh	r3, [sp, #10]
 5846 003a 21F80A3D 		strh	r3, [r1, #-10]!	@ movhi
 5847 003e 0646     		mov	r6, r0
 5848              		.loc 1 578 0
 5849 0040 E368     		ldr	r3, [r4, #12]
 5850 0042 0222     		movs	r2, #2
 5851 0044 2046     		mov	r0, r4
 5852 0046 9847     		blx	r3
 5853              	.LVL560:
 5854 0048 38B9     		cbnz	r0, .L420
 5855              		.loc 1 581 0
 5856 004a 0F23     		movs	r3, #15
 5857 004c 2370     		strb	r3, [r4]
 5858              	.LVL561:
 5859              	.L414:
 5860              		.loc 1 583 0
 5861 004e 039A     		ldr	r2, [sp, #12]
 5862 0050 2B68     		ldr	r3, [r5]
 5863 0052 9A42     		cmp	r2, r3
 5864 0054 07D1     		bne	.L421
 5865 0056 04B0     		add	sp, sp, #16
 5866              		.cfi_remember_state
 5867              		.cfi_def_cfa_offset 16
 5868              		@ sp needed
 5869 0058 70BD     		pop	{r4, r5, r6, pc}
 5870              	.LVL562:
 5871              	.L420:
ARM GAS  C:\Users\mathi\AppData\Local\Temp\cc36u0DG.s 			page 104


 5872              		.cfi_restore_state
 5873              		.loc 1 579 0
 5874 005a 3046     		mov	r0, r6
 5875 005c F7E7     		b	.L414
 5876              	.LVL563:
 5877              	.L413:
 5878              	.LBB1460:
 5879              	.LBB1455:
 5880              		.loc 1 220 0
 5881 005e 0823     		movs	r3, #8
 5882 0060 2370     		strb	r3, [r4]
 5883              	.LVL564:
 5884              	.LBE1455:
 5885              	.LBE1460:
 5886              		.loc 1 574 0
 5887 0062 0020     		movs	r0, #0
 5888 0064 F3E7     		b	.L414
 5889              	.L421:
 5890              		.loc 1 583 0
 5891 0066 FFF7FEFF 		bl	__stack_chk_fail
 5892              	.LVL565:
 5893              	.L423:
 5894 006a 00BF     		.align	2
 5895              	.L422:
 5896 006c 00000000 		.word	__stack_chk_guard
 5897              		.cfi_endproc
 5898              	.LFE47:
 5899              		.size	cmp_write_bin16_marker, .-cmp_write_bin16_marker
 5900              		.section	.text.cmp_write_bin16,"ax",%progbits
 5901              		.align	1
 5902              		.p2align 4,,15
 5903              		.global	cmp_write_bin16
 5904              		.syntax unified
 5905              		.thumb
 5906              		.thumb_func
 5907              		.fpu fpv4-sp-d16
 5908              		.type	cmp_write_bin16, %function
 5909              	cmp_write_bin16:
 5910              	.LFB48:
 5911              		.loc 1 585 0
 5912              		.cfi_startproc
 5913              		@ args = 0, pretend = 0, frame = 16
 5914              		@ frame_needed = 0, uses_anonymous_args = 0
 5915              	.LVL566:
 5916 0000 2DE9F041 		push	{r4, r5, r6, r7, r8, lr}
 5917              		.cfi_def_cfa_offset 24
 5918              		.cfi_offset 4, -24
 5919              		.cfi_offset 5, -20
 5920              		.cfi_offset 6, -16
 5921              		.cfi_offset 7, -12
 5922              		.cfi_offset 8, -8
 5923              		.cfi_offset 14, -4
 5924 0004 84B0     		sub	sp, sp, #16
 5925              		.cfi_def_cfa_offset 40
 5926 0006 04AB     		add	r3, sp, #16
 5927 0008 C524     		movs	r4, #197
 5928              		.loc 1 585 0
ARM GAS  C:\Users\mathi\AppData\Local\Temp\cc36u0DG.s 			page 105


 5929 000a 1E4E     		ldr	r6, .L434
 5930 000c 03F8094D 		strb	r4, [r3, #-9]!
 5931 0010 ADF80820 		strh	r2, [sp, #8]	@ movhi
 5932 0014 1546     		mov	r5, r2
 5933 0016 3268     		ldr	r2, [r6]
 5934              	.LVL567:
 5935 0018 0392     		str	r2, [sp, #12]
 5936 001a 8846     		mov	r8, r1
 5937              	.LBB1472:
 5938              	.LBB1473:
 5939              	.LBB1474:
 5940              	.LBB1475:
 5941              	.LBB1476:
 5942              	.LBB1477:
 5943              		.loc 1 205 0
 5944 001c C768     		ldr	r7, [r0, #12]
 5945 001e 1946     		mov	r1, r3
 5946              	.LVL568:
 5947 0020 0122     		movs	r2, #1
 5948              	.LBE1477:
 5949              	.LBE1476:
 5950              	.LBE1475:
 5951              	.LBE1474:
 5952              	.LBE1473:
 5953              	.LBE1472:
 5954              		.loc 1 585 0
 5955 0022 0446     		mov	r4, r0
 5956              	.LVL569:
 5957              	.LBB1489:
 5958              	.LBB1487:
 5959              	.LBB1482:
 5960              	.LBB1480:
 5961              	.LBB1479:
 5962              	.LBB1478:
 5963              		.loc 1 205 0
 5964 0024 B847     		blx	r7
 5965              	.LVL570:
 5966              	.LBE1478:
 5967              	.LBE1479:
 5968              		.loc 1 217 0
 5969 0026 0128     		cmp	r0, #1
 5970 0028 26D1     		bne	.L425
 5971              	.LVL571:
 5972              	.LBE1480:
 5973              	.LBE1482:
 5974              		.loc 1 576 0
 5975 002a BDF80830 		ldrh	r3, [sp, #8]
 5976              	.LVL572:
 5977              	.LBB1483:
 5978              	.LBB1484:
 5979              	.LBB1485:
 5980              		.loc 1 106 0
 5981 002e 8DF80B30 		strb	r3, [sp, #11]
 5982              	.LVL573:
 5983              		.loc 1 105 0
 5984 0032 C3F30723 		ubfx	r3, r3, #8, #8
 5985 0036 8DF80A30 		strb	r3, [sp, #10]
ARM GAS  C:\Users\mathi\AppData\Local\Temp\cc36u0DG.s 			page 106


 5986              	.LBE1485:
 5987              	.LBE1484:
 5988              	.LBE1483:
 5989              		.loc 1 576 0
 5990 003a 04A9     		add	r1, sp, #16
 5991 003c BDF80A30 		ldrh	r3, [sp, #10]
 5992 0040 21F8083D 		strh	r3, [r1, #-8]!	@ movhi
 5993              		.loc 1 578 0
 5994 0044 0222     		movs	r2, #2
 5995 0046 E368     		ldr	r3, [r4, #12]
 5996 0048 2046     		mov	r0, r4
 5997 004a 9847     		blx	r3
 5998              	.LVL574:
 5999 004c 10B9     		cbnz	r0, .L432
 6000              		.loc 1 581 0
 6001 004e 0F23     		movs	r3, #15
 6002 0050 2370     		strb	r3, [r4]
 6003              	.LVL575:
 6004 0052 08E0     		b	.L428
 6005              	.LVL576:
 6006              	.L432:
 6007              	.LBE1487:
 6008              	.LBE1489:
 6009              		.loc 1 589 0
 6010 0054 75B1     		cbz	r5, .L429
 6011              	.LVL577:
 6012              	.LBB1490:
 6013              	.LBB1491:
 6014              		.loc 1 592 0
 6015 0056 2A46     		mov	r2, r5
 6016 0058 4146     		mov	r1, r8
 6017 005a E368     		ldr	r3, [r4, #12]
 6018 005c 2046     		mov	r0, r4
 6019 005e 9847     		blx	r3
 6020              	.LVL578:
 6021 0060 40B9     		cbnz	r0, .L429
 6022              		.loc 1 595 0
 6023 0062 0A23     		movs	r3, #10
 6024 0064 2370     		strb	r3, [r4]
 6025              	.LVL579:
 6026              	.L428:
 6027              	.LBE1491:
 6028              	.LBE1490:
 6029              		.loc 1 597 0
 6030 0066 039A     		ldr	r2, [sp, #12]
 6031 0068 3368     		ldr	r3, [r6]
 6032 006a 9A42     		cmp	r2, r3
 6033 006c 08D1     		bne	.L433
 6034 006e 04B0     		add	sp, sp, #16
 6035              		.cfi_remember_state
 6036              		.cfi_def_cfa_offset 24
 6037              		@ sp needed
 6038 0070 BDE8F081 		pop	{r4, r5, r6, r7, r8, pc}
 6039              	.LVL580:
 6040              	.L429:
 6041              		.cfi_restore_state
 6042              		.loc 1 590 0
ARM GAS  C:\Users\mathi\AppData\Local\Temp\cc36u0DG.s 			page 107


 6043 0074 0120     		movs	r0, #1
 6044 0076 F6E7     		b	.L428
 6045              	.LVL581:
 6046              	.L425:
 6047              	.LBB1492:
 6048              	.LBB1488:
 6049              	.LBB1486:
 6050              	.LBB1481:
 6051              		.loc 1 220 0
 6052 0078 0823     		movs	r3, #8
 6053 007a 2370     		strb	r3, [r4]
 6054              	.LVL582:
 6055              	.LBE1481:
 6056              	.LBE1486:
 6057              	.LBE1488:
 6058              	.LBE1492:
 6059              		.loc 1 587 0
 6060 007c 0020     		movs	r0, #0
 6061 007e F2E7     		b	.L428
 6062              	.L433:
 6063              		.loc 1 597 0
 6064 0080 FFF7FEFF 		bl	__stack_chk_fail
 6065              	.LVL583:
 6066              	.L435:
 6067              		.align	2
 6068              	.L434:
 6069 0084 00000000 		.word	__stack_chk_guard
 6070              		.cfi_endproc
 6071              	.LFE48:
 6072              		.size	cmp_write_bin16, .-cmp_write_bin16
 6073              		.section	.text.cmp_write_bin32_marker,"ax",%progbits
 6074              		.align	1
 6075              		.p2align 4,,15
 6076              		.global	cmp_write_bin32_marker
 6077              		.syntax unified
 6078              		.thumb
 6079              		.thumb_func
 6080              		.fpu fpv4-sp-d16
 6081              		.type	cmp_write_bin32_marker, %function
 6082              	cmp_write_bin32_marker:
 6083              	.LFB49:
 6084              		.loc 1 599 0
 6085              		.cfi_startproc
 6086              		@ args = 0, pretend = 0, frame = 24
 6087              		@ frame_needed = 0, uses_anonymous_args = 0
 6088              	.LVL584:
 6089 0000 F0B5     		push	{r4, r5, r6, r7, lr}
 6090              		.cfi_def_cfa_offset 20
 6091              		.cfi_offset 4, -20
 6092              		.cfi_offset 5, -16
 6093              		.cfi_offset 6, -12
 6094              		.cfi_offset 7, -8
 6095              		.cfi_offset 14, -4
 6096 0002 87B0     		sub	sp, sp, #28
 6097              		.cfi_def_cfa_offset 48
 6098 0004 06AB     		add	r3, sp, #24
 6099 0006 C622     		movs	r2, #198
ARM GAS  C:\Users\mathi\AppData\Local\Temp\cc36u0DG.s 			page 108


 6100              		.loc 1 599 0
 6101 0008 1A4D     		ldr	r5, .L446
 6102 000a 03F8092D 		strb	r2, [r3, #-9]!
 6103 000e 2A68     		ldr	r2, [r5]
 6104 0010 0191     		str	r1, [sp, #4]
 6105 0012 0592     		str	r2, [sp, #20]
 6106              	.LBB1500:
 6107              	.LBB1501:
 6108              	.LBB1502:
 6109              	.LBB1503:
 6110              		.loc 1 205 0
 6111 0014 1946     		mov	r1, r3
 6112              	.LVL585:
 6113 0016 0122     		movs	r2, #1
 6114 0018 C368     		ldr	r3, [r0, #12]
 6115              	.LBE1503:
 6116              	.LBE1502:
 6117              	.LBE1501:
 6118              	.LBE1500:
 6119              		.loc 1 599 0
 6120 001a 0446     		mov	r4, r0
 6121              	.LVL586:
 6122              	.LBB1508:
 6123              	.LBB1506:
 6124              	.LBB1505:
 6125              	.LBB1504:
 6126              		.loc 1 205 0
 6127 001c 9847     		blx	r3
 6128              	.LVL587:
 6129              	.LBE1504:
 6130              	.LBE1505:
 6131              		.loc 1 217 0
 6132 001e 0128     		cmp	r0, #1
 6133 0020 22D1     		bne	.L437
 6134              	.LVL588:
 6135              	.LBE1506:
 6136              	.LBE1508:
 6137              		.loc 1 603 0
 6138 0022 019A     		ldr	r2, [sp, #4]
 6139              	.LVL589:
 6140              		.loc 1 605 0
 6141 0024 E668     		ldr	r6, [r4, #12]
 6142              	.LBB1509:
 6143              	.LBB1510:
 6144              	.LBB1511:
 6145              		.loc 1 119 0
 6146 0026 110E     		lsrs	r1, r2, #24
 6147 0028 0023     		movs	r3, #0
 6148 002a 61F30703 		bfi	r3, r1, #0, #8
 6149 002e C2F30741 		ubfx	r1, r2, #16, #8
 6150 0032 61F30F23 		bfi	r3, r1, #8, #8
 6151 0036 C2F30721 		ubfx	r1, r2, #8, #8
 6152 003a 61F31743 		bfi	r3, r1, #16, #8
 6153              	.LBE1511:
 6154              	.LBE1510:
 6155              	.LBE1509:
 6156              		.loc 1 603 0
ARM GAS  C:\Users\mathi\AppData\Local\Temp\cc36u0DG.s 			page 109


 6157 003e 06A9     		add	r1, sp, #24
 6158              	.LBB1516:
 6159              	.LBB1514:
 6160              	.LBB1512:
 6161              		.loc 1 119 0
 6162 0040 62F31F63 		bfi	r3, r2, #24, #8
 6163 0044 0746     		mov	r7, r0
 6164              	.LBE1512:
 6165              	.LBE1514:
 6166              	.LBE1516:
 6167              		.loc 1 603 0
 6168 0046 41F8143D 		str	r3, [r1, #-20]!
 6169              		.loc 1 605 0
 6170 004a 0422     		movs	r2, #4
 6171              	.LVL590:
 6172 004c 2046     		mov	r0, r4
 6173              	.LBB1517:
 6174              	.LBB1515:
 6175              	.LBB1513:
 6176              		.loc 1 119 0
 6177 004e 0493     		str	r3, [sp, #16]
 6178              	.LVL591:
 6179              	.LBE1513:
 6180              	.LBE1515:
 6181              	.LBE1517:
 6182              		.loc 1 605 0
 6183 0050 B047     		blx	r6
 6184              	.LVL592:
 6185 0052 38B9     		cbnz	r0, .L444
 6186              		.loc 1 608 0
 6187 0054 0F23     		movs	r3, #15
 6188 0056 2370     		strb	r3, [r4]
 6189              	.LVL593:
 6190              	.L438:
 6191              		.loc 1 610 0
 6192 0058 059A     		ldr	r2, [sp, #20]
 6193 005a 2B68     		ldr	r3, [r5]
 6194 005c 9A42     		cmp	r2, r3
 6195 005e 07D1     		bne	.L445
 6196 0060 07B0     		add	sp, sp, #28
 6197              		.cfi_remember_state
 6198              		.cfi_def_cfa_offset 20
 6199              		@ sp needed
 6200 0062 F0BD     		pop	{r4, r5, r6, r7, pc}
 6201              	.LVL594:
 6202              	.L444:
 6203              		.cfi_restore_state
 6204              		.loc 1 606 0
 6205 0064 3846     		mov	r0, r7
 6206 0066 F7E7     		b	.L438
 6207              	.LVL595:
 6208              	.L437:
 6209              	.LBB1518:
 6210              	.LBB1507:
 6211              		.loc 1 220 0
 6212 0068 0823     		movs	r3, #8
 6213 006a 2370     		strb	r3, [r4]
ARM GAS  C:\Users\mathi\AppData\Local\Temp\cc36u0DG.s 			page 110


 6214              	.LVL596:
 6215              	.LBE1507:
 6216              	.LBE1518:
 6217              		.loc 1 601 0
 6218 006c 0020     		movs	r0, #0
 6219 006e F3E7     		b	.L438
 6220              	.L445:
 6221              		.loc 1 610 0
 6222 0070 FFF7FEFF 		bl	__stack_chk_fail
 6223              	.LVL597:
 6224              	.L447:
 6225              		.align	2
 6226              	.L446:
 6227 0074 00000000 		.word	__stack_chk_guard
 6228              		.cfi_endproc
 6229              	.LFE49:
 6230              		.size	cmp_write_bin32_marker, .-cmp_write_bin32_marker
 6231              		.section	.text.cmp_write_bin32,"ax",%progbits
 6232              		.align	1
 6233              		.p2align 4,,15
 6234              		.global	cmp_write_bin32
 6235              		.syntax unified
 6236              		.thumb
 6237              		.thumb_func
 6238              		.fpu fpv4-sp-d16
 6239              		.type	cmp_write_bin32, %function
 6240              	cmp_write_bin32:
 6241              	.LFB50:
 6242              		.loc 1 612 0
 6243              		.cfi_startproc
 6244              		@ args = 0, pretend = 0, frame = 16
 6245              		@ frame_needed = 0, uses_anonymous_args = 0
 6246              	.LVL598:
 6247 0000 2DE9F041 		push	{r4, r5, r6, r7, r8, lr}
 6248              		.cfi_def_cfa_offset 24
 6249              		.cfi_offset 4, -24
 6250              		.cfi_offset 5, -20
 6251              		.cfi_offset 6, -16
 6252              		.cfi_offset 7, -12
 6253              		.cfi_offset 8, -8
 6254              		.cfi_offset 14, -4
 6255 0004 84B0     		sub	sp, sp, #16
 6256              		.cfi_def_cfa_offset 40
 6257 0006 04AF     		add	r7, sp, #16
 6258 0008 C623     		movs	r3, #198
 6259              		.loc 1 612 0
 6260 000a 214E     		ldr	r6, .L458
 6261 000c 07F80D3D 		strb	r3, [r7, #-13]!
 6262 0010 0192     		str	r2, [sp, #4]
 6263 0012 1546     		mov	r5, r2
 6264 0014 3268     		ldr	r2, [r6]
 6265              	.LVL599:
 6266 0016 0392     		str	r2, [sp, #12]
 6267 0018 8846     		mov	r8, r1
 6268              	.LBB1530:
 6269              	.LBB1531:
 6270              	.LBB1532:
ARM GAS  C:\Users\mathi\AppData\Local\Temp\cc36u0DG.s 			page 111


 6271              	.LBB1533:
 6272              	.LBB1534:
 6273              	.LBB1535:
 6274              		.loc 1 205 0
 6275 001a C368     		ldr	r3, [r0, #12]
 6276 001c 3946     		mov	r1, r7
 6277              	.LVL600:
 6278 001e 0122     		movs	r2, #1
 6279              	.LBE1535:
 6280              	.LBE1534:
 6281              	.LBE1533:
 6282              	.LBE1532:
 6283              	.LBE1531:
 6284              	.LBE1530:
 6285              		.loc 1 612 0
 6286 0020 0446     		mov	r4, r0
 6287              	.LVL601:
 6288              	.LBB1553:
 6289              	.LBB1551:
 6290              	.LBB1540:
 6291              	.LBB1538:
 6292              	.LBB1537:
 6293              	.LBB1536:
 6294              		.loc 1 205 0
 6295 0022 9847     		blx	r3
 6296              	.LVL602:
 6297              	.LBE1536:
 6298              	.LBE1537:
 6299              		.loc 1 217 0
 6300 0024 0128     		cmp	r0, #1
 6301 0026 2CD1     		bne	.L449
 6302              	.LVL603:
 6303              	.LBE1538:
 6304              	.LBE1540:
 6305              		.loc 1 603 0
 6306 0028 019A     		ldr	r2, [sp, #4]
 6307              	.LVL604:
 6308              		.loc 1 605 0
 6309 002a E768     		ldr	r7, [r4, #12]
 6310              	.LBB1541:
 6311              	.LBB1542:
 6312              	.LBB1543:
 6313              		.loc 1 119 0
 6314 002c 110E     		lsrs	r1, r2, #24
 6315 002e 0023     		movs	r3, #0
 6316 0030 61F30703 		bfi	r3, r1, #0, #8
 6317 0034 C2F30741 		ubfx	r1, r2, #16, #8
 6318 0038 61F30F23 		bfi	r3, r1, #8, #8
 6319 003c C2F30721 		ubfx	r1, r2, #8, #8
 6320 0040 61F31743 		bfi	r3, r1, #16, #8
 6321              	.LBE1543:
 6322              	.LBE1542:
 6323              	.LBE1541:
 6324              		.loc 1 603 0
 6325 0044 04A9     		add	r1, sp, #16
 6326              	.LBB1548:
 6327              	.LBB1546:
ARM GAS  C:\Users\mathi\AppData\Local\Temp\cc36u0DG.s 			page 112


 6328              	.LBB1544:
 6329              		.loc 1 119 0
 6330 0046 62F31F63 		bfi	r3, r2, #24, #8
 6331              	.LBE1544:
 6332              	.LBE1546:
 6333              	.LBE1548:
 6334              		.loc 1 603 0
 6335 004a 41F80C3D 		str	r3, [r1, #-12]!
 6336              		.loc 1 605 0
 6337 004e 0422     		movs	r2, #4
 6338              	.LVL605:
 6339 0050 2046     		mov	r0, r4
 6340              	.LBB1549:
 6341              	.LBB1547:
 6342              	.LBB1545:
 6343              		.loc 1 119 0
 6344 0052 0293     		str	r3, [sp, #8]
 6345              	.LVL606:
 6346              	.LBE1545:
 6347              	.LBE1547:
 6348              	.LBE1549:
 6349              		.loc 1 605 0
 6350 0054 B847     		blx	r7
 6351              	.LVL607:
 6352 0056 10B9     		cbnz	r0, .L456
 6353              		.loc 1 608 0
 6354 0058 0F23     		movs	r3, #15
 6355 005a 2370     		strb	r3, [r4]
 6356              	.LVL608:
 6357 005c 08E0     		b	.L452
 6358              	.LVL609:
 6359              	.L456:
 6360              	.LBE1551:
 6361              	.LBE1553:
 6362              		.loc 1 616 0
 6363 005e 75B1     		cbz	r5, .L453
 6364              	.LVL610:
 6365              	.LBB1554:
 6366              	.LBB1555:
 6367              		.loc 1 619 0
 6368 0060 2A46     		mov	r2, r5
 6369 0062 4146     		mov	r1, r8
 6370 0064 E368     		ldr	r3, [r4, #12]
 6371 0066 2046     		mov	r0, r4
 6372 0068 9847     		blx	r3
 6373              	.LVL611:
 6374 006a 40B9     		cbnz	r0, .L453
 6375              		.loc 1 622 0
 6376 006c 0A23     		movs	r3, #10
 6377 006e 2370     		strb	r3, [r4]
 6378              	.LVL612:
 6379              	.L452:
 6380              	.LBE1555:
 6381              	.LBE1554:
 6382              		.loc 1 624 0
 6383 0070 039A     		ldr	r2, [sp, #12]
 6384 0072 3368     		ldr	r3, [r6]
ARM GAS  C:\Users\mathi\AppData\Local\Temp\cc36u0DG.s 			page 113


 6385 0074 9A42     		cmp	r2, r3
 6386 0076 08D1     		bne	.L457
 6387 0078 04B0     		add	sp, sp, #16
 6388              		.cfi_remember_state
 6389              		.cfi_def_cfa_offset 24
 6390              		@ sp needed
 6391 007a BDE8F081 		pop	{r4, r5, r6, r7, r8, pc}
 6392              	.LVL613:
 6393              	.L453:
 6394              		.cfi_restore_state
 6395              		.loc 1 617 0
 6396 007e 0120     		movs	r0, #1
 6397 0080 F6E7     		b	.L452
 6398              	.LVL614:
 6399              	.L449:
 6400              	.LBB1556:
 6401              	.LBB1552:
 6402              	.LBB1550:
 6403              	.LBB1539:
 6404              		.loc 1 220 0
 6405 0082 0823     		movs	r3, #8
 6406 0084 2370     		strb	r3, [r4]
 6407              	.LVL615:
 6408              	.LBE1539:
 6409              	.LBE1550:
 6410              	.LBE1552:
 6411              	.LBE1556:
 6412              		.loc 1 614 0
 6413 0086 0020     		movs	r0, #0
 6414 0088 F2E7     		b	.L452
 6415              	.L457:
 6416              		.loc 1 624 0
 6417 008a FFF7FEFF 		bl	__stack_chk_fail
 6418              	.LVL616:
 6419              	.L459:
 6420 008e 00BF     		.align	2
 6421              	.L458:
 6422 0090 00000000 		.word	__stack_chk_guard
 6423              		.cfi_endproc
 6424              	.LFE50:
 6425              		.size	cmp_write_bin32, .-cmp_write_bin32
 6426              		.section	.text.cmp_write_bin_marker,"ax",%progbits
 6427              		.align	1
 6428              		.p2align 4,,15
 6429              		.global	cmp_write_bin_marker
 6430              		.syntax unified
 6431              		.thumb
 6432              		.thumb_func
 6433              		.fpu fpv4-sp-d16
 6434              		.type	cmp_write_bin_marker, %function
 6435              	cmp_write_bin_marker:
 6436              	.LFB51:
 6437              		.loc 1 626 0
 6438              		.cfi_startproc
 6439              		@ args = 0, pretend = 0, frame = 24
 6440              		@ frame_needed = 0, uses_anonymous_args = 0
 6441              	.LVL617:
ARM GAS  C:\Users\mathi\AppData\Local\Temp\cc36u0DG.s 			page 114


 6442 0000 70B5     		push	{r4, r5, r6, lr}
 6443              		.cfi_def_cfa_offset 16
 6444              		.cfi_offset 4, -16
 6445              		.cfi_offset 5, -12
 6446              		.cfi_offset 6, -8
 6447              		.cfi_offset 14, -4
 6448 0002 374D     		ldr	r5, .L475
 6449 0004 86B0     		sub	sp, sp, #24
 6450              		.cfi_def_cfa_offset 40
 6451              		.loc 1 626 0
 6452 0006 2B68     		ldr	r3, [r5]
 6453 0008 0593     		str	r3, [sp, #20]
 6454              		.loc 1 627 0
 6455 000a FF29     		cmp	r1, #255
 6456              		.loc 1 626 0
 6457 000c 0446     		mov	r4, r0
 6458 000e C368     		ldr	r3, [r0, #12]
 6459 0010 06AA     		add	r2, sp, #24
 6460              		.loc 1 627 0
 6461 0012 4BD9     		bls	.L472
 6462              		.loc 1 629 0
 6463 0014 B1F5803F 		cmp	r1, #65536
 6464 0018 29D3     		bcc	.L473
 6465              	.LVL618:
 6466 001a C626     		movs	r6, #198
 6467 001c 02F8116D 		strb	r6, [r2, #-17]!
 6468 0020 0391     		str	r1, [sp, #12]
 6469              	.LVL619:
 6470              	.LBB1581:
 6471              	.LBB1582:
 6472              	.LBB1583:
 6473              	.LBB1584:
 6474              	.LBB1585:
 6475              	.LBB1586:
 6476              		.loc 1 205 0
 6477 0022 1146     		mov	r1, r2
 6478              	.LVL620:
 6479 0024 0122     		movs	r2, #1
 6480 0026 9847     		blx	r3
 6481              	.LVL621:
 6482              	.LBE1586:
 6483              	.LBE1585:
 6484              		.loc 1 217 0
 6485 0028 0128     		cmp	r0, #1
 6486 002a 52D1     		bne	.L462
 6487              	.LVL622:
 6488              	.LBE1584:
 6489              	.LBE1583:
 6490              		.loc 1 603 0
 6491 002c 039A     		ldr	r2, [sp, #12]
 6492              	.LVL623:
 6493              		.loc 1 605 0
 6494 002e E668     		ldr	r6, [r4, #12]
 6495              	.LBB1587:
 6496              	.LBB1588:
 6497              	.LBB1589:
 6498              		.loc 1 119 0
ARM GAS  C:\Users\mathi\AppData\Local\Temp\cc36u0DG.s 			page 115


 6499 0030 110E     		lsrs	r1, r2, #24
 6500 0032 0023     		movs	r3, #0
 6501 0034 61F30703 		bfi	r3, r1, #0, #8
 6502 0038 C2F30741 		ubfx	r1, r2, #16, #8
 6503 003c 61F30F23 		bfi	r3, r1, #8, #8
 6504 0040 C2F30721 		ubfx	r1, r2, #8, #8
 6505 0044 61F31743 		bfi	r3, r1, #16, #8
 6506              	.LBE1589:
 6507              	.LBE1588:
 6508              	.LBE1587:
 6509              		.loc 1 603 0
 6510 0048 06A9     		add	r1, sp, #24
 6511              	.LBB1594:
 6512              	.LBB1592:
 6513              	.LBB1590:
 6514              		.loc 1 119 0
 6515 004a 62F31F63 		bfi	r3, r2, #24, #8
 6516              	.LBE1590:
 6517              	.LBE1592:
 6518              	.LBE1594:
 6519              		.loc 1 603 0
 6520 004e 41F80C3D 		str	r3, [r1, #-12]!
 6521              		.loc 1 605 0
 6522 0052 0422     		movs	r2, #4
 6523              	.LVL624:
 6524 0054 2046     		mov	r0, r4
 6525              	.LBB1595:
 6526              	.LBB1593:
 6527              	.LBB1591:
 6528              		.loc 1 119 0
 6529 0056 0493     		str	r3, [sp, #16]
 6530              	.LVL625:
 6531              	.LBE1591:
 6532              	.LBE1593:
 6533              	.LBE1595:
 6534              		.loc 1 605 0
 6535 0058 B047     		blx	r6
 6536              	.LVL626:
 6537 005a 28BB     		cbnz	r0, .L466
 6538              	.LVL627:
 6539              	.L463:
 6540              	.LBE1582:
 6541              	.LBE1581:
 6542              	.LBB1596:
 6543              	.LBB1597:
 6544              		.loc 1 554 0
 6545 005c 0F23     		movs	r3, #15
 6546 005e 2370     		strb	r3, [r4]
 6547              		.loc 1 555 0
 6548 0060 0020     		movs	r0, #0
 6549              	.L464:
 6550              	.LBE1597:
 6551              	.LBE1596:
 6552              		.loc 1 633 0
 6553 0062 059A     		ldr	r2, [sp, #20]
 6554 0064 2B68     		ldr	r3, [r5]
 6555 0066 9A42     		cmp	r2, r3
ARM GAS  C:\Users\mathi\AppData\Local\Temp\cc36u0DG.s 			page 116


 6556 0068 37D1     		bne	.L474
 6557 006a 06B0     		add	sp, sp, #24
 6558              		.cfi_remember_state
 6559              		.cfi_def_cfa_offset 16
 6560              		@ sp needed
 6561 006c 70BD     		pop	{r4, r5, r6, pc}
 6562              	.LVL628:
 6563              	.L473:
 6564              		.cfi_restore_state
 6565 006e C526     		movs	r6, #197
 6566 0070 02F8126D 		strb	r6, [r2, #-18]!
 6567              		.loc 1 630 0
 6568 0074 ADF80810 		strh	r1, [sp, #8]	@ movhi
 6569              	.LVL629:
 6570              	.LBB1606:
 6571              	.LBB1607:
 6572              	.LBB1608:
 6573              	.LBB1609:
 6574              	.LBB1610:
 6575              	.LBB1611:
 6576              		.loc 1 205 0
 6577 0078 1146     		mov	r1, r2
 6578              	.LVL630:
 6579 007a 0122     		movs	r2, #1
 6580 007c 9847     		blx	r3
 6581              	.LVL631:
 6582              	.LBE1611:
 6583              	.LBE1610:
 6584              		.loc 1 217 0
 6585 007e 0128     		cmp	r0, #1
 6586 0080 27D1     		bne	.L462
 6587              	.LVL632:
 6588              	.LBE1609:
 6589              	.LBE1608:
 6590              		.loc 1 576 0
 6591 0082 BDF80830 		ldrh	r3, [sp, #8]
 6592              	.LVL633:
 6593              	.LBB1612:
 6594              	.LBB1613:
 6595              	.LBB1614:
 6596              		.loc 1 106 0
 6597 0086 8DF80B30 		strb	r3, [sp, #11]
 6598              	.LVL634:
 6599              		.loc 1 105 0
 6600 008a C3F30723 		ubfx	r3, r3, #8, #8
 6601 008e 8DF80A30 		strb	r3, [sp, #10]
 6602              	.LBE1614:
 6603              	.LBE1613:
 6604              	.LBE1612:
 6605              		.loc 1 576 0
 6606 0092 06A9     		add	r1, sp, #24
 6607 0094 BDF80A30 		ldrh	r3, [sp, #10]
 6608 0098 21F8103D 		strh	r3, [r1, #-16]!	@ movhi
 6609              		.loc 1 578 0
 6610 009c 0222     		movs	r2, #2
 6611 009e E368     		ldr	r3, [r4, #12]
 6612 00a0 2046     		mov	r0, r4
ARM GAS  C:\Users\mathi\AppData\Local\Temp\cc36u0DG.s 			page 117


 6613 00a2 9847     		blx	r3
 6614              	.LVL635:
 6615 00a4 0028     		cmp	r0, #0
 6616 00a6 D9D0     		beq	.L463
 6617              	.LVL636:
 6618              	.L466:
 6619              	.LBE1607:
 6620              	.LBE1606:
 6621              	.LBB1615:
 6622              	.LBB1604:
 6623              		.loc 1 552 0
 6624 00a8 0120     		movs	r0, #1
 6625 00aa DAE7     		b	.L464
 6626              	.LVL637:
 6627              	.L472:
 6628 00ac C426     		movs	r6, #196
 6629 00ae 02F8136D 		strb	r6, [r2, #-19]!
 6630              	.LBE1604:
 6631              	.LBE1615:
 6632              		.loc 1 628 0
 6633 00b2 8DF80410 		strb	r1, [sp, #4]
 6634              	.LVL638:
 6635              	.LBB1616:
 6636              	.LBB1605:
 6637              	.LBB1598:
 6638              	.LBB1599:
 6639              	.LBB1600:
 6640              	.LBB1601:
 6641              		.loc 1 205 0
 6642 00b6 1146     		mov	r1, r2
 6643              	.LVL639:
 6644 00b8 0122     		movs	r2, #1
 6645 00ba 9847     		blx	r3
 6646              	.LVL640:
 6647              	.LBE1601:
 6648              	.LBE1600:
 6649              		.loc 1 217 0
 6650 00bc 0128     		cmp	r0, #1
 6651 00be 08D1     		bne	.L462
 6652              	.LVL641:
 6653              	.LBE1599:
 6654              	.LBE1598:
 6655              		.loc 1 551 0
 6656 00c0 0246     		mov	r2, r0
 6657 00c2 E368     		ldr	r3, [r4, #12]
 6658 00c4 01A9     		add	r1, sp, #4
 6659 00c6 2046     		mov	r0, r4
 6660 00c8 9847     		blx	r3
 6661              	.LVL642:
 6662 00ca 0028     		cmp	r0, #0
 6663 00cc C6D0     		beq	.L463
 6664              		.loc 1 552 0
 6665 00ce 0120     		movs	r0, #1
 6666 00d0 C7E7     		b	.L464
 6667              	.LVL643:
 6668              	.L462:
 6669              	.LBB1603:
ARM GAS  C:\Users\mathi\AppData\Local\Temp\cc36u0DG.s 			page 118


 6670              	.LBB1602:
 6671              		.loc 1 220 0
 6672 00d2 0823     		movs	r3, #8
 6673 00d4 2370     		strb	r3, [r4]
 6674              	.LBE1602:
 6675              	.LBE1603:
 6676              		.loc 1 549 0
 6677 00d6 0020     		movs	r0, #0
 6678 00d8 C3E7     		b	.L464
 6679              	.L474:
 6680              	.LBE1605:
 6681              	.LBE1616:
 6682              		.loc 1 633 0
 6683 00da FFF7FEFF 		bl	__stack_chk_fail
 6684              	.LVL644:
 6685              	.L476:
 6686 00de 00BF     		.align	2
 6687              	.L475:
 6688 00e0 00000000 		.word	__stack_chk_guard
 6689              		.cfi_endproc
 6690              	.LFE51:
 6691              		.size	cmp_write_bin_marker, .-cmp_write_bin_marker
 6692              		.section	.text.cmp_write_bin,"ax",%progbits
 6693              		.align	1
 6694              		.p2align 4,,15
 6695              		.global	cmp_write_bin
 6696              		.syntax unified
 6697              		.thumb
 6698              		.thumb_func
 6699              		.fpu fpv4-sp-d16
 6700              		.type	cmp_write_bin, %function
 6701              	cmp_write_bin:
 6702              	.LFB52:
 6703              		.loc 1 635 0
 6704              		.cfi_startproc
 6705              		@ args = 0, pretend = 0, frame = 24
 6706              		@ frame_needed = 0, uses_anonymous_args = 0
 6707              	.LVL645:
 6708 0000 2DE9F041 		push	{r4, r5, r6, r7, r8, lr}
 6709              		.cfi_def_cfa_offset 24
 6710              		.cfi_offset 4, -24
 6711              		.cfi_offset 5, -20
 6712              		.cfi_offset 6, -16
 6713              		.cfi_offset 7, -12
 6714              		.cfi_offset 8, -8
 6715              		.cfi_offset 14, -4
 6716 0004 3B4E     		ldr	r6, .L503
 6717 0006 86B0     		sub	sp, sp, #24
 6718              		.cfi_def_cfa_offset 48
 6719              		.loc 1 635 0
 6720 0008 3368     		ldr	r3, [r6]
 6721 000a 0593     		str	r3, [sp, #20]
 6722              		.loc 1 636 0
 6723 000c FF2A     		cmp	r2, #255
 6724              		.loc 1 635 0
 6725 000e 8846     		mov	r8, r1
 6726 0010 0446     		mov	r4, r0
ARM GAS  C:\Users\mathi\AppData\Local\Temp\cc36u0DG.s 			page 119


 6727 0012 1546     		mov	r5, r2
 6728 0014 C368     		ldr	r3, [r0, #12]
 6729 0016 06A9     		add	r1, sp, #24
 6730              	.LVL646:
 6731              		.loc 1 636 0
 6732 0018 52D9     		bls	.L500
 6733              		.loc 1 638 0
 6734 001a B2F5803F 		cmp	r2, #65536
 6735 001e 29D3     		bcc	.L501
 6736              	.LVL647:
 6737 0020 C622     		movs	r2, #198
 6738              	.LVL648:
 6739 0022 01F8112D 		strb	r2, [r1, #-17]!
 6740 0026 0395     		str	r5, [sp, #12]
 6741              	.LVL649:
 6742              	.LBB1653:
 6743              	.LBB1654:
 6744              	.LBB1655:
 6745              	.LBB1656:
 6746              	.LBB1657:
 6747              	.LBB1658:
 6748              	.LBB1659:
 6749              		.loc 1 205 0
 6750 0028 0122     		movs	r2, #1
 6751 002a 9847     		blx	r3
 6752              	.LVL650:
 6753              	.LBE1659:
 6754              	.LBE1658:
 6755              		.loc 1 217 0
 6756 002c 0128     		cmp	r0, #1
 6757 002e 5BD1     		bne	.L479
 6758              	.LVL651:
 6759              	.LBE1657:
 6760              	.LBE1656:
 6761              		.loc 1 603 0
 6762 0030 039A     		ldr	r2, [sp, #12]
 6763              	.LVL652:
 6764              		.loc 1 605 0
 6765 0032 E768     		ldr	r7, [r4, #12]
 6766              	.LBB1660:
 6767              	.LBB1661:
 6768              	.LBB1662:
 6769              		.loc 1 119 0
 6770 0034 110E     		lsrs	r1, r2, #24
 6771 0036 0023     		movs	r3, #0
 6772 0038 61F30703 		bfi	r3, r1, #0, #8
 6773 003c C2F30741 		ubfx	r1, r2, #16, #8
 6774 0040 61F30F23 		bfi	r3, r1, #8, #8
 6775 0044 C2F30721 		ubfx	r1, r2, #8, #8
 6776 0048 61F31743 		bfi	r3, r1, #16, #8
 6777              	.LBE1662:
 6778              	.LBE1661:
 6779              	.LBE1660:
 6780              		.loc 1 603 0
 6781 004c 06A9     		add	r1, sp, #24
 6782              	.LBB1667:
 6783              	.LBB1665:
ARM GAS  C:\Users\mathi\AppData\Local\Temp\cc36u0DG.s 			page 120


 6784              	.LBB1663:
 6785              		.loc 1 119 0
 6786 004e 62F31F63 		bfi	r3, r2, #24, #8
 6787              	.LBE1663:
 6788              	.LBE1665:
 6789              	.LBE1667:
 6790              		.loc 1 603 0
 6791 0052 41F80C3D 		str	r3, [r1, #-12]!
 6792              		.loc 1 605 0
 6793 0056 0422     		movs	r2, #4
 6794              	.LVL653:
 6795 0058 2046     		mov	r0, r4
 6796              	.LBB1668:
 6797              	.LBB1666:
 6798              	.LBB1664:
 6799              		.loc 1 119 0
 6800 005a 0493     		str	r3, [sp, #16]
 6801              	.LVL654:
 6802              	.LBE1664:
 6803              	.LBE1666:
 6804              	.LBE1668:
 6805              		.loc 1 605 0
 6806 005c B847     		blx	r7
 6807              	.LVL655:
 6808 005e 28BB     		cbnz	r0, .L499
 6809              	.LVL656:
 6810              	.L480:
 6811              	.LBE1655:
 6812              	.LBE1654:
 6813              	.LBE1653:
 6814              	.LBB1671:
 6815              	.LBB1672:
 6816              	.LBB1673:
 6817              	.LBB1674:
 6818              		.loc 1 554 0
 6819 0060 0F23     		movs	r3, #15
 6820 0062 2370     		strb	r3, [r4]
 6821              	.LBE1674:
 6822              	.LBE1673:
 6823              		.loc 1 560 0
 6824 0064 0020     		movs	r0, #0
 6825              	.L482:
 6826              	.LBE1672:
 6827              	.LBE1671:
 6828              		.loc 1 642 0
 6829 0066 059A     		ldr	r2, [sp, #20]
 6830 0068 3368     		ldr	r3, [r6]
 6831 006a 9A42     		cmp	r2, r3
 6832 006c 40D1     		bne	.L502
 6833 006e 06B0     		add	sp, sp, #24
 6834              		.cfi_remember_state
 6835              		.cfi_def_cfa_offset 24
 6836              		@ sp needed
 6837 0070 BDE8F081 		pop	{r4, r5, r6, r7, r8, pc}
 6838              	.LVL657:
 6839              	.L501:
 6840              		.cfi_restore_state
ARM GAS  C:\Users\mathi\AppData\Local\Temp\cc36u0DG.s 			page 121


 6841 0074 C522     		movs	r2, #197
 6842              	.LVL658:
 6843 0076 01F8122D 		strb	r2, [r1, #-18]!
 6844              		.loc 1 639 0
 6845 007a ADF80850 		strh	r5, [sp, #8]	@ movhi
 6846              	.LVL659:
 6847              	.LBB1689:
 6848              	.LBB1690:
 6849              	.LBB1691:
 6850              	.LBB1692:
 6851              	.LBB1693:
 6852              	.LBB1694:
 6853              	.LBB1695:
 6854              		.loc 1 205 0
 6855 007e 0122     		movs	r2, #1
 6856 0080 9847     		blx	r3
 6857              	.LVL660:
 6858              	.LBE1695:
 6859              	.LBE1694:
 6860              		.loc 1 217 0
 6861 0082 0128     		cmp	r0, #1
 6862 0084 30D1     		bne	.L479
 6863              	.LVL661:
 6864              	.LBE1693:
 6865              	.LBE1692:
 6866              		.loc 1 576 0
 6867 0086 BDF80830 		ldrh	r3, [sp, #8]
 6868              	.LVL662:
 6869              	.LBB1696:
 6870              	.LBB1697:
 6871              	.LBB1698:
 6872              		.loc 1 106 0
 6873 008a 8DF80B30 		strb	r3, [sp, #11]
 6874              	.LVL663:
 6875              		.loc 1 105 0
 6876 008e C3F30723 		ubfx	r3, r3, #8, #8
 6877 0092 8DF80A30 		strb	r3, [sp, #10]
 6878              	.LBE1698:
 6879              	.LBE1697:
 6880              	.LBE1696:
 6881              		.loc 1 576 0
 6882 0096 06A9     		add	r1, sp, #24
 6883 0098 BDF80A30 		ldrh	r3, [sp, #10]
 6884 009c 21F8103D 		strh	r3, [r1, #-16]!	@ movhi
 6885              		.loc 1 578 0
 6886 00a0 0222     		movs	r2, #2
 6887 00a2 E368     		ldr	r3, [r4, #12]
 6888 00a4 2046     		mov	r0, r4
 6889 00a6 9847     		blx	r3
 6890              	.LVL664:
 6891 00a8 0028     		cmp	r0, #0
 6892 00aa D9D0     		beq	.L480
 6893              	.LVL665:
 6894              	.L499:
 6895              	.LBE1691:
 6896              	.LBE1690:
 6897              	.LBE1689:
ARM GAS  C:\Users\mathi\AppData\Local\Temp\cc36u0DG.s 			page 122


 6898              	.LBB1699:
 6899              	.LBB1669:
 6900              	.LBB1670:
 6901              		.loc 1 619 0
 6902 00ac 2A46     		mov	r2, r5
 6903 00ae 4146     		mov	r1, r8
 6904 00b0 E368     		ldr	r3, [r4, #12]
 6905 00b2 2046     		mov	r0, r4
 6906 00b4 9847     		blx	r3
 6907              	.LVL666:
 6908 00b6 A8B9     		cbnz	r0, .L483
 6909              	.LBE1670:
 6910              	.LBE1669:
 6911              	.LBE1699:
 6912              	.LBB1700:
 6913              	.LBB1687:
 6914              	.LBB1683:
 6915              	.LBB1684:
 6916              		.loc 1 568 0
 6917 00b8 0A23     		movs	r3, #10
 6918 00ba 2370     		strb	r3, [r4]
 6919              		.loc 1 569 0
 6920 00bc 0020     		movs	r0, #0
 6921 00be D2E7     		b	.L482
 6922              	.LVL667:
 6923              	.L500:
 6924 00c0 C422     		movs	r2, #196
 6925              	.LVL668:
 6926 00c2 01F8132D 		strb	r2, [r1, #-19]!
 6927              	.LBE1684:
 6928              	.LBE1683:
 6929              	.LBE1687:
 6930              	.LBE1700:
 6931              		.loc 1 637 0
 6932 00c6 8DF80450 		strb	r5, [sp, #4]
 6933              	.LVL669:
 6934              	.LBB1701:
 6935              	.LBB1688:
 6936              	.LBB1685:
 6937              	.LBB1681:
 6938              	.LBB1675:
 6939              	.LBB1676:
 6940              	.LBB1677:
 6941              	.LBB1678:
 6942              		.loc 1 205 0
 6943 00ca 0122     		movs	r2, #1
 6944 00cc 9847     		blx	r3
 6945              	.LVL670:
 6946              	.LBE1678:
 6947              	.LBE1677:
 6948              		.loc 1 217 0
 6949 00ce 0128     		cmp	r0, #1
 6950 00d0 0AD1     		bne	.L479
 6951              	.LVL671:
 6952              	.LBE1676:
 6953              	.LBE1675:
 6954              		.loc 1 551 0
ARM GAS  C:\Users\mathi\AppData\Local\Temp\cc36u0DG.s 			page 123


 6955 00d2 0246     		mov	r2, r0
 6956 00d4 E368     		ldr	r3, [r4, #12]
 6957 00d6 01A9     		add	r1, sp, #4
 6958 00d8 2046     		mov	r0, r4
 6959 00da 9847     		blx	r3
 6960              	.LVL672:
 6961 00dc 0028     		cmp	r0, #0
 6962 00de BFD0     		beq	.L480
 6963              	.LVL673:
 6964              	.LBE1681:
 6965              	.LBE1685:
 6966              		.loc 1 562 0
 6967 00e0 002D     		cmp	r5, #0
 6968 00e2 E3D1     		bne	.L499
 6969              	.LVL674:
 6970              	.L483:
 6971              		.loc 1 563 0
 6972 00e4 0120     		movs	r0, #1
 6973 00e6 BEE7     		b	.L482
 6974              	.L479:
 6975              	.LBB1686:
 6976              	.LBB1682:
 6977              	.LBB1680:
 6978              	.LBB1679:
 6979              		.loc 1 220 0
 6980 00e8 0823     		movs	r3, #8
 6981 00ea 2370     		strb	r3, [r4]
 6982              	.LBE1679:
 6983              	.LBE1680:
 6984              	.LBE1682:
 6985              	.LBE1686:
 6986              		.loc 1 560 0
 6987 00ec 0020     		movs	r0, #0
 6988 00ee BAE7     		b	.L482
 6989              	.L502:
 6990              	.LBE1688:
 6991              	.LBE1701:
 6992              		.loc 1 642 0
 6993 00f0 FFF7FEFF 		bl	__stack_chk_fail
 6994              	.LVL675:
 6995              	.L504:
 6996              		.align	2
 6997              	.L503:
 6998 00f4 00000000 		.word	__stack_chk_guard
 6999              		.cfi_endproc
 7000              	.LFE52:
 7001              		.size	cmp_write_bin, .-cmp_write_bin
 7002              		.section	.text.cmp_write_fixarray,"ax",%progbits
 7003              		.align	1
 7004              		.p2align 4,,15
 7005              		.global	cmp_write_fixarray
 7006              		.syntax unified
 7007              		.thumb
 7008              		.thumb_func
 7009              		.fpu fpv4-sp-d16
 7010              		.type	cmp_write_fixarray, %function
 7011              	cmp_write_fixarray:
ARM GAS  C:\Users\mathi\AppData\Local\Temp\cc36u0DG.s 			page 124


 7012              	.LFB53:
 7013              		.loc 1 644 0
 7014              		.cfi_startproc
 7015              		@ args = 0, pretend = 0, frame = 8
 7016              		@ frame_needed = 0, uses_anonymous_args = 0
 7017              	.LVL676:
 7018 0000 30B5     		push	{r4, r5, lr}
 7019              		.cfi_def_cfa_offset 12
 7020              		.cfi_offset 4, -12
 7021              		.cfi_offset 5, -8
 7022              		.cfi_offset 14, -4
 7023 0002 104C     		ldr	r4, .L512
 7024 0004 83B0     		sub	sp, sp, #12
 7025              		.cfi_def_cfa_offset 24
 7026              		.loc 1 644 0
 7027 0006 2368     		ldr	r3, [r4]
 7028 0008 0193     		str	r3, [sp, #4]
 7029              		.loc 1 645 0
 7030 000a 0F29     		cmp	r1, #15
 7031              		.loc 1 644 0
 7032 000c 0546     		mov	r5, r0
 7033              		.loc 1 645 0
 7034 000e 13D8     		bhi	.L506
 7035              	.LVL677:
 7036 0010 02AA     		add	r2, sp, #8
 7037              		.loc 1 646 0
 7038 0012 61F06F03 		orn	r3, r1, #111
 7039 0016 02F8053D 		strb	r3, [r2, #-5]!
 7040              	.LVL678:
 7041              	.LBB1702:
 7042              	.LBB1703:
 7043              	.LBB1704:
 7044              	.LBB1705:
 7045              		.loc 1 205 0
 7046 001a C368     		ldr	r3, [r0, #12]
 7047 001c 1146     		mov	r1, r2
 7048              	.LVL679:
 7049 001e 0122     		movs	r2, #1
 7050 0020 9847     		blx	r3
 7051              	.LVL680:
 7052              	.LBE1705:
 7053              	.LBE1704:
 7054              		.loc 1 225 0
 7055 0022 0128     		cmp	r0, #1
 7056 0024 02D0     		beq	.L507
 7057              		.loc 1 228 0
 7058 0026 0623     		movs	r3, #6
 7059 0028 2B70     		strb	r3, [r5]
 7060              		.loc 1 229 0
 7061 002a 0020     		movs	r0, #0
 7062              	.LVL681:
 7063              	.L507:
 7064              	.LBE1703:
 7065              	.LBE1702:
 7066              		.loc 1 650 0
 7067 002c 019A     		ldr	r2, [sp, #4]
 7068 002e 2368     		ldr	r3, [r4]
