ARM GAS  C:\Users\mathi\AppData\Local\Temp\ccVFH8Wh.s 			page 1


   1              		.cpu cortex-m4
   2              		.eabi_attribute 27, 1
   3              		.eabi_attribute 28, 1
   4              		.eabi_attribute 20, 1
   5              		.eabi_attribute 21, 1
   6              		.eabi_attribute 23, 3
   7              		.eabi_attribute 24, 1
   8              		.eabi_attribute 25, 1
   9              		.eabi_attribute 26, 1
  10              		.eabi_attribute 30, 2
  11              		.eabi_attribute 34, 1
  12              		.eabi_attribute 18, 4
  13              		.file	"config_flash_storage.c"
  14              		.text
  15              	.Ltext0:
  16              		.cfi_sections	.debug_frame
  17              		.section	.text.err_mark_false,"ax",%progbits
  18              		.align	1
  19              		.p2align 4,,15
  20              		.syntax unified
  21              		.thumb
  22              		.thumb_func
  23              		.fpu fpv4-sp-d16
  24              		.type	err_mark_false, %function
  25              	err_mark_false:
  26              	.LFB2:
  27              		.file 1 "../../lib/e-puck2_main-processor/src/config_flash_storage.c"
  28              		.loc 1 35 0
  29              		.cfi_startproc
  30              		@ args = 0, pretend = 0, frame = 8
  31              		@ frame_needed = 0, uses_anonymous_args = 0
  32              	.LVL0:
  33 0000 00B5     		push	{lr}
  34              		.cfi_def_cfa_offset 4
  35              		.cfi_offset 14, -4
  36 0002 074B     		ldr	r3, .L6
  37 0004 83B0     		sub	sp, sp, #12
  38              		.cfi_def_cfa_offset 16
  39              		.loc 1 35 0
  40 0006 1A68     		ldr	r2, [r3]
  41              	.LVL1:
  42 0008 0192     		str	r2, [sp, #4]
  43              	.LVL2:
  44              		.loc 1 40 0
  45 000a 0022     		movs	r2, #0
  46 000c 0270     		strb	r2, [r0]
  47              		.loc 1 41 0
  48 000e 019A     		ldr	r2, [sp, #4]
  49 0010 1B68     		ldr	r3, [r3]
  50 0012 9A42     		cmp	r2, r3
  51 0014 02D1     		bne	.L5
  52 0016 03B0     		add	sp, sp, #12
  53              		.cfi_remember_state
  54              		.cfi_def_cfa_offset 4
  55              		@ sp needed
  56 0018 5DF804FB 		ldr	pc, [sp], #4
  57              	.L5:
ARM GAS  C:\Users\mathi\AppData\Local\Temp\ccVFH8Wh.s 			page 2


  58              		.cfi_restore_state
  59 001c FFF7FEFF 		bl	__stack_chk_fail
  60              	.LVL3:
  61              	.L7:
  62              		.align	2
  63              	.L6:
  64 0020 00000000 		.word	__stack_chk_guard
  65              		.cfi_endproc
  66              	.LFE2:
  67              		.size	err_mark_false, .-err_mark_false
  68              		.section	.text.cmp_flash_writer,"ax",%progbits
  69              		.align	1
  70              		.p2align 4,,15
  71              		.syntax unified
  72              		.thumb
  73              		.thumb_func
  74              		.fpu fpv4-sp-d16
  75              		.type	cmp_flash_writer, %function
  76              	cmp_flash_writer:
  77              	.LFB0:
  78              		.loc 1 16 0
  79              		.cfi_startproc
  80              		@ args = 0, pretend = 0, frame = 8
  81              		@ frame_needed = 0, uses_anonymous_args = 0
  82              	.LVL4:
  83 0000 F0B5     		push	{r4, r5, r6, r7, lr}
  84              		.cfi_def_cfa_offset 20
  85              		.cfi_offset 4, -20
  86              		.cfi_offset 5, -16
  87              		.cfi_offset 6, -12
  88              		.cfi_offset 7, -8
  89              		.cfi_offset 14, -4
  90              		.loc 1 17 0
  91 0002 4568     		ldr	r5, [r0, #4]
  92              	.LVL5:
  93              		.loc 1 16 0
  94 0004 0D4E     		ldr	r6, .L15
  95              		.loc 1 18 0
  96 0006 D5E90130 		ldrd	r3, r0, [r5, #4]
  97              	.LVL6:
  98              		.loc 1 16 0
  99 000a 83B0     		sub	sp, sp, #12
 100              		.cfi_def_cfa_offset 32
 101              		.loc 1 18 0
 102 000c 9F18     		adds	r7, r3, r2
 103              		.loc 1 16 0
 104 000e 3468     		ldr	r4, [r6]
 105 0010 0194     		str	r4, [sp, #4]
 106              		.loc 1 18 0
 107 0012 8742     		cmp	r7, r0
 108 0014 06D9     		bls	.L13
 109              		.loc 1 23 0
 110 0016 0020     		movs	r0, #0
 111              	.LVL7:
 112              	.L8:
 113              		.loc 1 25 0
 114 0018 019A     		ldr	r2, [sp, #4]
ARM GAS  C:\Users\mathi\AppData\Local\Temp\ccVFH8Wh.s 			page 3


 115 001a 3368     		ldr	r3, [r6]
 116 001c 9A42     		cmp	r2, r3
 117 001e 0BD1     		bne	.L14
 118 0020 03B0     		add	sp, sp, #12
 119              		.cfi_remember_state
 120              		.cfi_def_cfa_offset 20
 121              		@ sp needed
 122 0022 F0BD     		pop	{r4, r5, r6, r7, pc}
 123              	.LVL8:
 124              	.L13:
 125              		.cfi_restore_state
 126              		.loc 1 19 0
 127 0024 2868     		ldr	r0, [r5]
 128 0026 1844     		add	r0, r0, r3
 129 0028 1446     		mov	r4, r2
 130 002a FFF7FEFF 		bl	flash_write
 131              	.LVL9:
 132              		.loc 1 20 0
 133 002e 6B68     		ldr	r3, [r5, #4]
 134 0030 2344     		add	r3, r3, r4
 135 0032 6B60     		str	r3, [r5, #4]
 136              		.loc 1 21 0
 137 0034 2046     		mov	r0, r4
 138 0036 EFE7     		b	.L8
 139              	.LVL10:
 140              	.L14:
 141              		.loc 1 25 0
 142 0038 FFF7FEFF 		bl	__stack_chk_fail
 143              	.LVL11:
 144              	.L16:
 145              		.align	2
 146              	.L15:
 147 003c 00000000 		.word	__stack_chk_guard
 148              		.cfi_endproc
 149              	.LFE0:
 150              		.size	cmp_flash_writer, .-cmp_flash_writer
 151              		.section	.text.config_erase,"ax",%progbits
 152              		.align	1
 153              		.p2align 4,,15
 154              		.global	config_erase
 155              		.syntax unified
 156              		.thumb
 157              		.thumb_func
 158              		.fpu fpv4-sp-d16
 159              		.type	config_erase, %function
 160              	config_erase:
 161              	.LFB1:
 162              		.loc 1 28 0
 163              		.cfi_startproc
 164              		@ args = 0, pretend = 0, frame = 8
 165              		@ frame_needed = 0, uses_anonymous_args = 0
 166              	.LVL12:
 167 0000 30B5     		push	{r4, r5, lr}
 168              		.cfi_def_cfa_offset 12
 169              		.cfi_offset 4, -12
 170              		.cfi_offset 5, -8
 171              		.cfi_offset 14, -4
ARM GAS  C:\Users\mathi\AppData\Local\Temp\ccVFH8Wh.s 			page 4


 172 0002 0A4C     		ldr	r4, .L22
 173 0004 83B0     		sub	sp, sp, #12
 174              		.cfi_def_cfa_offset 24
 175              		.loc 1 28 0
 176 0006 2368     		ldr	r3, [r4]
 177 0008 0193     		str	r3, [sp, #4]
 178 000a 0546     		mov	r5, r0
 179              		.loc 1 29 0
 180 000c FFF7FEFF 		bl	flash_unlock
 181              	.LVL13:
 182              		.loc 1 30 0
 183 0010 2846     		mov	r0, r5
 184 0012 FFF7FEFF 		bl	flash_sector_erase
 185              	.LVL14:
 186              		.loc 1 31 0
 187 0016 019A     		ldr	r2, [sp, #4]
 188 0018 2368     		ldr	r3, [r4]
 189 001a 9A42     		cmp	r2, r3
 190 001c 04D1     		bne	.L21
 191              		.loc 1 32 0
 192 001e 03B0     		add	sp, sp, #12
 193              		.cfi_remember_state
 194              		.cfi_def_cfa_offset 12
 195              		@ sp needed
 196 0020 BDE83040 		pop	{r4, r5, lr}
 197              		.cfi_restore 14
 198              		.cfi_restore 5
 199              		.cfi_restore 4
 200              		.cfi_def_cfa_offset 0
 201              	.LVL15:
 202              		.loc 1 31 0
 203 0024 FFF7FEBF 		b	flash_lock
 204              	.LVL16:
 205              	.L21:
 206              		.cfi_restore_state
 207 0028 FFF7FEFF 		bl	__stack_chk_fail
 208              	.LVL17:
 209              	.L23:
 210              		.align	2
 211              	.L22:
 212 002c 00000000 		.word	__stack_chk_guard
 213              		.cfi_endproc
 214              	.LFE1:
 215              		.size	config_erase, .-config_erase
 216              		.section	.text.config_save,"ax",%progbits
 217              		.align	1
 218              		.p2align 4,,15
 219              		.global	config_save
 220              		.syntax unified
 221              		.thumb
 222              		.thumb_func
 223              		.fpu fpv4-sp-d16
 224              		.type	config_save, %function
 225              	config_save:
 226              	.LFB3:
 227              		.loc 1 44 0
 228              		.cfi_startproc
ARM GAS  C:\Users\mathi\AppData\Local\Temp\ccVFH8Wh.s 			page 5


 229              		@ args = 0, pretend = 0, frame = 48
 230              		@ frame_needed = 0, uses_anonymous_args = 0
 231              	.LVL18:
 232 0000 2DE9F04F 		push	{r4, r5, r6, r7, r8, r9, r10, fp, lr}
 233              		.cfi_def_cfa_offset 36
 234              		.cfi_offset 4, -36
 235              		.cfi_offset 5, -32
 236              		.cfi_offset 6, -28
 237              		.cfi_offset 7, -24
 238              		.cfi_offset 8, -20
 239              		.cfi_offset 9, -16
 240              		.cfi_offset 10, -12
 241              		.cfi_offset 11, -8
 242              		.cfi_offset 14, -4
 243 0004 534F     		ldr	r7, .L42
 244              	.LBB34:
 245              	.LBB35:
 246              	.LBB36:
 247              	.LBB37:
 248              		.loc 1 134 0
 249 0006 DFF85891 		ldr	r9, .L42+12
 250              	.LBE37:
 251              	.LBE36:
 252              	.LBE35:
 253              	.LBE34:
 254              		.loc 1 44 0
 255 000a 3B68     		ldr	r3, [r7]
 256 000c 8DB0     		sub	sp, sp, #52
 257              		.cfi_def_cfa_offset 88
 258              		.loc 1 44 0
 259 000e 0546     		mov	r5, r0
 260 0010 0B93     		str	r3, [sp, #44]
 261              		.loc 1 48 0
 262 0012 0123     		movs	r3, #1
 263              		.loc 1 44 0
 264 0014 0E46     		mov	r6, r1
 265 0016 9046     		mov	r8, r2
 266              		.loc 1 48 0
 267 0018 8DF80730 		strb	r3, [sp, #7]
 268              	.LVL19:
 269              		.loc 1 52 0
 270 001c FFF7FEFF 		bl	flash_unlock
 271              	.LVL20:
 272              	.LBB45:
 273              	.LBB42:
 274              		.loc 1 178 0
 275 0020 2C46     		mov	r4, r5
 276              		.loc 1 179 0
 277 0022 4FF0000A 		mov	r10, #0
 278              	.LVL21:
 279              	.L29:
 280              	.LBB40:
 281              	.LBB38:
 282              		.loc 1 130 0
 283 0026 6368     		ldr	r3, [r4, #4]	@ unaligned
 284              		.loc 1 126 0
 285 0028 D4F800B0 		ldr	fp, [r4]	@ unaligned
ARM GAS  C:\Users\mathi\AppData\Local\Temp\ccVFH8Wh.s 			page 6


 286              	.LVL22:
 287              		.loc 1 130 0
 288 002c 0793     		str	r3, [sp, #28]
 289              		.loc 1 134 0
 290 002e 0422     		movs	r2, #4
 291 0030 07A9     		add	r1, sp, #28
 292 0032 4846     		mov	r0, r9
 293 0034 FFF7FEFF 		bl	crc32
 294              	.LVL23:
 295 0038 8345     		cmp	fp, r0
 296 003a 57D0     		beq	.L25
 297              	.LVL24:
 298              	.L28:
 299              	.LBE38:
 300              	.LBE40:
 301              	.LBE42:
 302              	.LBE45:
 303              		.loc 1 56 0
 304 003c BAF1000F 		cmp	r10, #0
 305 0040 00F08280 		beq	.L37
 306              	.L27:
 307              	.LBB46:
 308              	.LBB47:
 309              	.LBB48:
 310              	.LBB49:
 311              		.loc 1 134 0
 312 0044 DFF81891 		ldr	r9, .L42+12
 313              	.LBE49:
 314              	.LBE48:
 315              	.LBE47:
 316              	.LBE46:
 317              	.LBB56:
 318              	.LBB43:
 319              		.loc 1 184 0
 320 0048 2C46     		mov	r4, r5
 321              	.LVL25:
 322              	.L31:
 323              	.LBE43:
 324              	.LBE56:
 325              	.LBB57:
 326              	.LBB54:
 327              	.LBB52:
 328              	.LBB50:
 329              		.loc 1 130 0
 330 004a 6368     		ldr	r3, [r4, #4]	@ unaligned
 331              		.loc 1 126 0
 332 004c D4F800A0 		ldr	r10, [r4]	@ unaligned
 333              	.LVL26:
 334              		.loc 1 130 0
 335 0050 0793     		str	r3, [sp, #28]
 336              		.loc 1 134 0
 337 0052 0422     		movs	r2, #4
 338 0054 07A9     		add	r1, sp, #28
 339 0056 4846     		mov	r0, r9
 340 0058 FFF7FEFF 		bl	crc32
 341              	.LVL27:
 342 005c 8245     		cmp	r10, r0
ARM GAS  C:\Users\mathi\AppData\Local\Temp\ccVFH8Wh.s 			page 7


 343 005e 54D0     		beq	.L38
 344              	.LVL28:
 345              	.L30:
 346              	.LBE50:
 347              	.LBE52:
 348              	.LBE54:
 349              	.LBE57:
 350              		.loc 1 63 0
 351 0060 631B     		subs	r3, r4, r5
 352 0062 F31A     		subs	r3, r6, r3
 353              	.LVL29:
 354              		.loc 1 66 0
 355 0064 0C2B     		cmp	r3, #12
 356 0066 5ED9     		bls	.L39
 357              	.LVL30:
 358              	.L32:
 359              		.loc 1 72 0
 360 0068 04F10C09 		add	r9, r4, #12
 361 006c 0C3B     		subs	r3, r3, #12
 362              	.LVL31:
 363 006e 4A46     		mov	r2, r9
 364 0070 04A9     		add	r1, sp, #16
 365 0072 07A8     		add	r0, sp, #28
 366 0074 FFF7FEFF 		bl	cmp_mem_access_init
 367              	.LVL32:
 368              		.loc 1 76 0
 369 0078 374B     		ldr	r3, .L42+4
 370 007a 0A93     		str	r3, [sp, #40]
 371              		.loc 1 80 0
 372 007c 07A9     		add	r1, sp, #28
 373 007e 0DF10703 		add	r3, sp, #7
 374 0082 364A     		ldr	r2, .L42+8
 375 0084 4046     		mov	r0, r8
 376 0086 FFF7FEFF 		bl	parameter_msgpack_write_cmp
 377              	.LVL33:
 378              		.loc 1 82 0
 379 008a 9DF80730 		ldrb	r3, [sp, #7]	@ zero_extendqisi2
 380 008e 002B     		cmp	r3, #0
 381 0090 4FD0     		beq	.L40
 382              		.loc 1 88 0
 383 0092 04A8     		add	r0, sp, #16
 384 0094 FFF7FEFF 		bl	cmp_mem_access_get_pos
 385              	.LVL34:
 386 0098 0CAE     		add	r6, sp, #48
 387              	.LVL35:
 388              	.LBB58:
 389              	.LBB59:
 390              		.loc 1 156 0
 391 009a 0422     		movs	r2, #4
 392 009c 46F8280D 		str	r0, [r6, #-40]!
 393              	.LVL36:
 394 00a0 2F48     		ldr	r0, .L42+12
 395              	.LVL37:
 396 00a2 3146     		mov	r1, r6
 397 00a4 FFF7FEFF 		bl	crc32
 398              	.LVL38:
 399 00a8 0CAD     		add	r5, sp, #48
ARM GAS  C:\Users\mathi\AppData\Local\Temp\ccVFH8Wh.s 			page 8


 400              	.LVL39:
 401              		.loc 1 157 0
 402 00aa 0422     		movs	r2, #4
 403              		.loc 1 156 0
 404 00ac 45F8240D 		str	r0, [r5, #-36]!
 405              		.loc 1 157 0
 406 00b0 2046     		mov	r0, r4
 407 00b2 2946     		mov	r1, r5
 408 00b4 FFF7FEFF 		bl	flash_write
 409              	.LVL40:
 410              		.loc 1 161 0
 411 00b8 0422     		movs	r2, #4
 412 00ba A018     		adds	r0, r4, r2
 413 00bc 3146     		mov	r1, r6
 414 00be FFF7FEFF 		bl	flash_write
 415              	.LVL41:
 416              		.loc 1 165 0
 417 00c2 4946     		mov	r1, r9
 418 00c4 029A     		ldr	r2, [sp, #8]
 419 00c6 2648     		ldr	r0, .L42+12
 420 00c8 FFF7FEFF 		bl	crc32
 421              	.LVL42:
 422              		.loc 1 166 0
 423 00cc 2946     		mov	r1, r5
 424              		.loc 1 165 0
 425 00ce 0390     		str	r0, [sp, #12]
 426              		.loc 1 166 0
 427 00d0 0422     		movs	r2, #4
 428 00d2 04F10800 		add	r0, r4, #8
 429 00d6 FFF7FEFF 		bl	flash_write
 430              	.LVL43:
 431              	.LBE59:
 432              	.LBE58:
 433              		.loc 1 92 0
 434 00da FFF7FEFF 		bl	flash_lock
 435              	.LVL44:
 436              	.L24:
 437              		.loc 1 93 0
 438 00de 0B9A     		ldr	r2, [sp, #44]
 439 00e0 3B68     		ldr	r3, [r7]
 440 00e2 9A42     		cmp	r2, r3
 441 00e4 34D1     		bne	.L41
 442 00e6 0DB0     		add	sp, sp, #52
 443              		.cfi_remember_state
 444              		.cfi_def_cfa_offset 36
 445              		@ sp needed
 446 00e8 BDE8F08F 		pop	{r4, r5, r6, r7, r8, r9, r10, fp, pc}
 447              	.LVL45:
 448              	.L25:
 449              		.cfi_restore_state
 450              	.LBB60:
 451              	.LBB44:
 452              	.LBB41:
 453              	.LBB39:
 454              		.loc 1 143 0
 455 00ec 079A     		ldr	r2, [sp, #28]
 456              		.loc 1 139 0
ARM GAS  C:\Users\mathi\AppData\Local\Temp\ccVFH8Wh.s 			page 9


 457 00ee D4F808B0 		ldr	fp, [r4, #8]	@ unaligned
 458              	.LVL46:
 459              		.loc 1 143 0
 460 00f2 04F10C01 		add	r1, r4, #12
 461 00f6 4846     		mov	r0, r9
 462 00f8 FFF7FEFF 		bl	crc32
 463              	.LVL47:
 464 00fc 8345     		cmp	fp, r0
 465 00fe 9DD1     		bne	.L28
 466              	.LVL48:
 467 0100 6368     		ldr	r3, [r4, #4]
 468 0102 0C33     		adds	r3, r3, #12
 469              	.LVL49:
 470 0104 A246     		mov	r10, r4
 471              	.LBE39:
 472              	.LBE41:
 473              		.loc 1 184 0
 474 0106 1C44     		add	r4, r4, r3
 475              	.LVL50:
 476 0108 8DE7     		b	.L29
 477              	.LVL51:
 478              	.L38:
 479              	.LBE44:
 480              	.LBE60:
 481              	.LBB61:
 482              	.LBB55:
 483              	.LBB53:
 484              	.LBB51:
 485              		.loc 1 143 0
 486 010a 079A     		ldr	r2, [sp, #28]
 487              		.loc 1 139 0
 488 010c D4F808A0 		ldr	r10, [r4, #8]	@ unaligned
 489              	.LVL52:
 490              		.loc 1 143 0
 491 0110 04F10C01 		add	r1, r4, #12
 492 0114 4846     		mov	r0, r9
 493 0116 FFF7FEFF 		bl	crc32
 494              	.LVL53:
 495 011a 8245     		cmp	r10, r0
 496 011c A0D1     		bne	.L30
 497              	.LVL54:
 498 011e 6368     		ldr	r3, [r4, #4]
 499 0120 0C33     		adds	r3, r3, #12
 500              	.LBE51:
 501              	.LBE53:
 502              		.loc 1 196 0
 503 0122 1C44     		add	r4, r4, r3
 504              	.LVL55:
 505 0124 91E7     		b	.L31
 506              	.LVL56:
 507              	.L39:
 508              	.LBE55:
 509              	.LBE61:
 510              		.loc 1 67 0
 511 0126 2846     		mov	r0, r5
 512 0128 FFF7FEFF 		bl	flash_sector_erase
 513              	.LVL57:
ARM GAS  C:\Users\mathi\AppData\Local\Temp\ccVFH8Wh.s 			page 10


 514              		.loc 1 68 0
 515 012c 2C46     		mov	r4, r5
 516              	.LVL58:
 517              		.loc 1 69 0
 518 012e 3346     		mov	r3, r6
 519 0130 9AE7     		b	.L32
 520              	.LVL59:
 521              	.L40:
 522              		.loc 1 83 0
 523 0132 2846     		mov	r0, r5
 524 0134 FFF7FEFF 		bl	flash_sector_erase
 525              	.LVL60:
 526              		.loc 1 84 0
 527 0138 FFF7FEFF 		bl	flash_lock
 528              	.LVL61:
 529              		.loc 1 85 0
 530 013c 4246     		mov	r2, r8
 531 013e 3146     		mov	r1, r6
 532 0140 2846     		mov	r0, r5
 533 0142 FFF7FEFF 		bl	config_save
 534              	.LVL62:
 535 0146 CAE7     		b	.L24
 536              	.LVL63:
 537              	.L37:
 538              		.loc 1 57 0
 539 0148 2846     		mov	r0, r5
 540 014a FFF7FEFF 		bl	flash_sector_erase
 541              	.LVL64:
 542 014e 79E7     		b	.L27
 543              	.LVL65:
 544              	.L41:
 545              		.loc 1 93 0
 546 0150 FFF7FEFF 		bl	__stack_chk_fail
 547              	.LVL66:
 548              	.L43:
 549              		.align	2
 550              	.L42:
 551 0154 00000000 		.word	__stack_chk_guard
 552 0158 00000000 		.word	cmp_flash_writer
 553 015c 00000000 		.word	err_mark_false
 554 0160 EFBEADDE 		.word	-559038737
 555              		.cfi_endproc
 556              	.LFE3:
 557              		.size	config_save, .-config_save
 558              		.section	.text.config_load,"ax",%progbits
 559              		.align	1
 560              		.p2align 4,,15
 561              		.global	config_load
 562              		.syntax unified
 563              		.thumb
 564              		.thumb_func
 565              		.fpu fpv4-sp-d16
 566              		.type	config_load, %function
 567              	config_load:
 568              	.LFB4:
 569              		.loc 1 96 0
 570              		.cfi_startproc
ARM GAS  C:\Users\mathi\AppData\Local\Temp\ccVFH8Wh.s 			page 11


 571              		@ args = 0, pretend = 0, frame = 8
 572              		@ frame_needed = 0, uses_anonymous_args = 0
 573              	.LVL67:
 574 0000 2DE9F043 		push	{r4, r5, r6, r7, r8, r9, lr}
 575              		.cfi_def_cfa_offset 28
 576              		.cfi_offset 4, -28
 577              		.cfi_offset 5, -24
 578              		.cfi_offset 6, -20
 579              		.cfi_offset 7, -16
 580              		.cfi_offset 8, -12
 581              		.cfi_offset 9, -8
 582              		.cfi_offset 14, -4
 583 0004 DFF87480 		ldr	r8, .L55+4
 584              	.LBB70:
 585              	.LBB71:
 586              	.LBB72:
 587              	.LBB73:
 588              		.loc 1 134 0
 589 0008 1B4F     		ldr	r7, .L55
 590              	.LBE73:
 591              	.LBE72:
 592              	.LBE71:
 593              	.LBE70:
 594              		.loc 1 96 0
 595 000a D8F80030 		ldr	r3, [r8]
 596 000e 85B0     		sub	sp, sp, #20
 597              		.cfi_def_cfa_offset 48
 598              		.loc 1 96 0
 599 0010 8146     		mov	r9, r0
 600 0012 0393     		str	r3, [sp, #12]
 601 0014 0C46     		mov	r4, r1
 602              	.LVL68:
 603              	.LBB80:
 604              	.LBB78:
 605              		.loc 1 179 0
 606 0016 0025     		movs	r5, #0
 607              	.LVL69:
 608              	.L49:
 609              	.LBB76:
 610              	.LBB74:
 611              		.loc 1 130 0
 612 0018 6368     		ldr	r3, [r4, #4]	@ unaligned
 613              		.loc 1 126 0
 614 001a 2668     		ldr	r6, [r4]	@ unaligned
 615              	.LVL70:
 616              		.loc 1 130 0
 617 001c 0293     		str	r3, [sp, #8]
 618              		.loc 1 134 0
 619 001e 0422     		movs	r2, #4
 620 0020 02A9     		add	r1, sp, #8
 621 0022 3846     		mov	r0, r7
 622 0024 FFF7FEFF 		bl	crc32
 623              	.LVL71:
 624 0028 8642     		cmp	r6, r0
 625 002a 14D0     		beq	.L45
 626              	.LVL72:
 627              	.L48:
ARM GAS  C:\Users\mathi\AppData\Local\Temp\ccVFH8Wh.s 			page 12


 628              	.LBE74:
 629              	.LBE76:
 630              	.LBE78:
 631              	.LBE80:
 632              		.loc 1 103 0
 633 002c 55B1     		cbz	r5, .L46
 634              	.LVL73:
 635              		.loc 1 109 0
 636 002e 0023     		movs	r3, #0
 637 0030 6A68     		ldr	r2, [r5, #4]
 638 0032 0093     		str	r3, [sp]
 639 0034 05F10C01 		add	r1, r5, #12
 640 0038 4846     		mov	r0, r9
 641 003a FFF7FEFF 		bl	parameter_msgpack_read
 642              	.LVL74:
 643              		.loc 1 112 0
 644 003e B0FA80F5 		clz	r5, r0
 645              	.LVL75:
 646 0042 6D09     		lsrs	r5, r5, #5
 647              	.LVL76:
 648              	.L46:
 649              		.loc 1 117 0
 650 0044 039A     		ldr	r2, [sp, #12]
 651 0046 D8F80030 		ldr	r3, [r8]
 652 004a 9A42     		cmp	r2, r3
 653 004c 2846     		mov	r0, r5
 654 004e 10D1     		bne	.L54
 655 0050 05B0     		add	sp, sp, #20
 656              		.cfi_remember_state
 657              		.cfi_def_cfa_offset 28
 658              		@ sp needed
 659 0052 BDE8F083 		pop	{r4, r5, r6, r7, r8, r9, pc}
 660              	.LVL77:
 661              	.L45:
 662              		.cfi_restore_state
 663              	.LBB81:
 664              	.LBB79:
 665              	.LBB77:
 666              	.LBB75:
 667              		.loc 1 143 0
 668 0056 029A     		ldr	r2, [sp, #8]
 669              		.loc 1 139 0
 670 0058 A668     		ldr	r6, [r4, #8]	@ unaligned
 671              	.LVL78:
 672              		.loc 1 143 0
 673 005a 04F10C01 		add	r1, r4, #12
 674 005e 3846     		mov	r0, r7
 675 0060 FFF7FEFF 		bl	crc32
 676              	.LVL79:
 677 0064 8642     		cmp	r6, r0
 678 0066 E1D1     		bne	.L48
 679              	.LVL80:
 680 0068 6368     		ldr	r3, [r4, #4]
 681 006a 0C33     		adds	r3, r3, #12
 682              	.LVL81:
 683 006c 2546     		mov	r5, r4
 684              	.LBE75:
ARM GAS  C:\Users\mathi\AppData\Local\Temp\ccVFH8Wh.s 			page 13


 685              	.LBE77:
 686              		.loc 1 184 0
 687 006e 1C44     		add	r4, r4, r3
 688              	.LVL82:
 689 0070 D2E7     		b	.L49
 690              	.LVL83:
 691              	.L54:
 692              	.LBE79:
 693              	.LBE81:
 694              		.loc 1 117 0
 695 0072 FFF7FEFF 		bl	__stack_chk_fail
 696              	.LVL84:
 697              	.L56:
 698 0076 00BF     		.align	2
 699              	.L55:
 700 0078 EFBEADDE 		.word	-559038737
 701 007c 00000000 		.word	__stack_chk_guard
 702              		.cfi_endproc
 703              	.LFE4:
 704              		.size	config_load, .-config_load
 705              		.section	.text.config_block_is_valid,"ax",%progbits
 706              		.align	1
 707              		.p2align 4,,15
 708              		.global	config_block_is_valid
 709              		.syntax unified
 710              		.thumb
 711              		.thumb_func
 712              		.fpu fpv4-sp-d16
 713              		.type	config_block_is_valid, %function
 714              	config_block_is_valid:
 715              	.LFB5:
 716              		.loc 1 120 0
 717              		.cfi_startproc
 718              		@ args = 0, pretend = 0, frame = 8
 719              		@ frame_needed = 0, uses_anonymous_args = 0
 720              	.LVL85:
 721 0000 70B5     		push	{r4, r5, r6, lr}
 722              		.cfi_def_cfa_offset 16
 723              		.cfi_offset 4, -16
 724              		.cfi_offset 5, -12
 725              		.cfi_offset 6, -8
 726              		.cfi_offset 14, -4
 727 0002 82B0     		sub	sp, sp, #8
 728              		.cfi_def_cfa_offset 24
 729              		.loc 1 130 0
 730 0004 02A9     		add	r1, sp, #8
 731              		.loc 1 120 0
 732 0006 114D     		ldr	r5, .L64
 733              		.loc 1 130 0
 734 0008 4368     		ldr	r3, [r0, #4]	@ unaligned
 735 000a 41F8083D 		str	r3, [r1, #-8]!
 736              		.loc 1 120 0
 737 000e 0446     		mov	r4, r0
 738 0010 2B68     		ldr	r3, [r5]
 739              		.loc 1 134 0
 740 0012 0F48     		ldr	r0, .L64+4
 741              	.LVL86:
ARM GAS  C:\Users\mathi\AppData\Local\Temp\ccVFH8Wh.s 			page 14


 742              		.loc 1 126 0
 743 0014 2668     		ldr	r6, [r4]	@ unaligned
 744              		.loc 1 120 0
 745 0016 0193     		str	r3, [sp, #4]
 746              	.LVL87:
 747              		.loc 1 134 0
 748 0018 0422     		movs	r2, #4
 749 001a FFF7FEFF 		bl	crc32
 750              	.LVL88:
 751 001e B042     		cmp	r0, r6
 752 0020 06D0     		beq	.L62
 753              		.loc 1 135 0
 754 0022 0020     		movs	r0, #0
 755              	.LVL89:
 756              	.L58:
 757              		.loc 1 148 0
 758 0024 019A     		ldr	r2, [sp, #4]
 759 0026 2B68     		ldr	r3, [r5]
 760 0028 9A42     		cmp	r2, r3
 761 002a 0DD1     		bne	.L63
 762 002c 02B0     		add	sp, sp, #8
 763              		.cfi_remember_state
 764              		.cfi_def_cfa_offset 16
 765              		@ sp needed
 766 002e 70BD     		pop	{r4, r5, r6, pc}
 767              	.LVL90:
 768              	.L62:
 769              		.cfi_restore_state
 770              		.loc 1 143 0
 771 0030 009A     		ldr	r2, [sp]
 772 0032 0748     		ldr	r0, .L64+4
 773              		.loc 1 139 0
 774 0034 A668     		ldr	r6, [r4, #8]	@ unaligned
 775              	.LVL91:
 776              		.loc 1 143 0
 777 0036 04F10C01 		add	r1, r4, #12
 778 003a FFF7FEFF 		bl	crc32
 779              	.LVL92:
 780 003e 801B     		subs	r0, r0, r6
 781 0040 B0FA80F0 		clz	r0, r0
 782 0044 4009     		lsrs	r0, r0, #5
 783 0046 EDE7     		b	.L58
 784              	.LVL93:
 785              	.L63:
 786              		.loc 1 148 0
 787 0048 FFF7FEFF 		bl	__stack_chk_fail
 788              	.LVL94:
 789              	.L65:
 790              		.align	2
 791              	.L64:
 792 004c 00000000 		.word	__stack_chk_guard
 793 0050 EFBEADDE 		.word	-559038737
 794              		.cfi_endproc
 795              	.LFE5:
 796              		.size	config_block_is_valid, .-config_block_is_valid
 797              		.section	.text.config_write_block_header,"ax",%progbits
 798              		.align	1
ARM GAS  C:\Users\mathi\AppData\Local\Temp\ccVFH8Wh.s 			page 15


 799              		.p2align 4,,15
 800              		.global	config_write_block_header
 801              		.syntax unified
 802              		.thumb
 803              		.thumb_func
 804              		.fpu fpv4-sp-d16
 805              		.type	config_write_block_header, %function
 806              	config_write_block_header:
 807              	.LFB6:
 808              		.loc 1 151 0
 809              		.cfi_startproc
 810              		@ args = 0, pretend = 0, frame = 16
 811              		@ frame_needed = 0, uses_anonymous_args = 0
 812              	.LVL95:
 813 0000 70B5     		push	{r4, r5, r6, lr}
 814              		.cfi_def_cfa_offset 16
 815              		.cfi_offset 4, -16
 816              		.cfi_offset 5, -12
 817              		.cfi_offset 6, -8
 818              		.cfi_offset 14, -4
 819 0002 164E     		ldr	r6, .L70
 820 0004 84B0     		sub	sp, sp, #16
 821              		.cfi_def_cfa_offset 32
 822              		.loc 1 151 0
 823 0006 3368     		ldr	r3, [r6]
 824 0008 0191     		str	r1, [sp, #4]
 825 000a 0446     		mov	r4, r0
 826              		.loc 1 156 0
 827 000c 01A9     		add	r1, sp, #4
 828              	.LVL96:
 829 000e 0422     		movs	r2, #4
 830 0010 1348     		ldr	r0, .L70+4
 831              	.LVL97:
 832              		.loc 1 151 0
 833 0012 0393     		str	r3, [sp, #12]
 834              	.LVL98:
 835              		.loc 1 156 0
 836 0014 FFF7FEFF 		bl	crc32
 837              	.LVL99:
 838 0018 04AD     		add	r5, sp, #16
 839              		.loc 1 157 0
 840 001a 0422     		movs	r2, #4
 841              		.loc 1 156 0
 842 001c 45F8080D 		str	r0, [r5, #-8]!
 843              		.loc 1 157 0
 844 0020 2046     		mov	r0, r4
 845 0022 2946     		mov	r1, r5
 846 0024 FFF7FEFF 		bl	flash_write
 847              	.LVL100:
 848              		.loc 1 161 0
 849 0028 01A9     		add	r1, sp, #4
 850 002a 201D     		adds	r0, r4, #4
 851 002c 0422     		movs	r2, #4
 852 002e FFF7FEFF 		bl	flash_write
 853              	.LVL101:
 854              		.loc 1 165 0
 855 0032 04F10C01 		add	r1, r4, #12
ARM GAS  C:\Users\mathi\AppData\Local\Temp\ccVFH8Wh.s 			page 16


 856 0036 019A     		ldr	r2, [sp, #4]
 857 0038 0948     		ldr	r0, .L70+4
 858 003a FFF7FEFF 		bl	crc32
 859              	.LVL102:
 860              		.loc 1 166 0
 861 003e 0422     		movs	r2, #4
 862              		.loc 1 165 0
 863 0040 0290     		str	r0, [sp, #8]
 864              		.loc 1 166 0
 865 0042 2946     		mov	r1, r5
 866 0044 04F10800 		add	r0, r4, #8
 867 0048 FFF7FEFF 		bl	flash_write
 868              	.LVL103:
 869              		.loc 1 167 0
 870 004c 039A     		ldr	r2, [sp, #12]
 871 004e 3368     		ldr	r3, [r6]
 872 0050 9A42     		cmp	r2, r3
 873 0052 01D1     		bne	.L69
 874 0054 04B0     		add	sp, sp, #16
 875              		.cfi_remember_state
 876              		.cfi_def_cfa_offset 16
 877              		@ sp needed
 878 0056 70BD     		pop	{r4, r5, r6, pc}
 879              	.LVL104:
 880              	.L69:
 881              		.cfi_restore_state
 882 0058 FFF7FEFF 		bl	__stack_chk_fail
 883              	.LVL105:
 884              	.L71:
 885              		.align	2
 886              	.L70:
 887 005c 00000000 		.word	__stack_chk_guard
 888 0060 EFBEADDE 		.word	-559038737
 889              		.cfi_endproc
 890              	.LFE6:
 891              		.size	config_write_block_header, .-config_write_block_header
 892              		.section	.text.config_block_get_length,"ax",%progbits
 893              		.align	1
 894              		.p2align 4,,15
 895              		.global	config_block_get_length
 896              		.syntax unified
 897              		.thumb
 898              		.thumb_func
 899              		.fpu fpv4-sp-d16
 900              		.type	config_block_get_length, %function
 901              	config_block_get_length:
 902              	.LFB7:
 903              		.loc 1 170 0
 904              		.cfi_startproc
 905              		@ args = 0, pretend = 0, frame = 8
 906              		@ frame_needed = 0, uses_anonymous_args = 0
 907              	.LVL106:
 908 0000 00B5     		push	{lr}
 909              		.cfi_def_cfa_offset 4
 910              		.cfi_offset 14, -4
 911 0002 074B     		ldr	r3, .L76
 912              		.loc 1 174 0
ARM GAS  C:\Users\mathi\AppData\Local\Temp\ccVFH8Wh.s 			page 17


 913 0004 4068     		ldr	r0, [r0, #4]
 914              	.LVL107:
 915              		.loc 1 170 0
 916 0006 1A68     		ldr	r2, [r3]
 917 0008 83B0     		sub	sp, sp, #12
 918              		.cfi_def_cfa_offset 16
 919              		.loc 1 170 0
 920 000a 0192     		str	r2, [sp, #4]
 921              		.loc 1 174 0
 922 000c 019A     		ldr	r2, [sp, #4]
 923 000e 1B68     		ldr	r3, [r3]
 924 0010 9A42     		cmp	r2, r3
 925 0012 02D1     		bne	.L75
 926 0014 03B0     		add	sp, sp, #12
 927              		.cfi_remember_state
 928              		.cfi_def_cfa_offset 4
 929              		@ sp needed
 930 0016 5DF804FB 		ldr	pc, [sp], #4
 931              	.L75:
 932              		.cfi_restore_state
 933 001a FFF7FEFF 		bl	__stack_chk_fail
 934              	.LVL108:
 935              	.L77:
 936 001e 00BF     		.align	2
 937              	.L76:
 938 0020 00000000 		.word	__stack_chk_guard
 939              		.cfi_endproc
 940              	.LFE7:
 941              		.size	config_block_get_length, .-config_block_get_length
 942              		.section	.text.config_block_find_last_used,"ax",%progbits
 943              		.align	1
 944              		.p2align 4,,15
 945              		.global	config_block_find_last_used
 946              		.syntax unified
 947              		.thumb
 948              		.thumb_func
 949              		.fpu fpv4-sp-d16
 950              		.type	config_block_find_last_used, %function
 951              	config_block_find_last_used:
 952              	.LFB8:
 953              		.loc 1 177 0
 954              		.cfi_startproc
 955              		@ args = 0, pretend = 0, frame = 8
 956              		@ frame_needed = 0, uses_anonymous_args = 0
 957              	.LVL109:
 958 0000 2DE9F041 		push	{r4, r5, r6, r7, r8, lr}
 959              		.cfi_def_cfa_offset 24
 960              		.cfi_offset 4, -24
 961              		.cfi_offset 5, -20
 962              		.cfi_offset 6, -16
 963              		.cfi_offset 7, -12
 964              		.cfi_offset 8, -8
 965              		.cfi_offset 14, -4
 966 0004 DFF85880 		ldr	r8, .L86+4
 967              	.LBB86:
 968              	.LBB87:
 969              		.loc 1 134 0
ARM GAS  C:\Users\mathi\AppData\Local\Temp\ccVFH8Wh.s 			page 18


 970 0008 144E     		ldr	r6, .L86
 971              	.LBE87:
 972              	.LBE86:
 973              		.loc 1 177 0
 974 000a D8F80030 		ldr	r3, [r8]
 975 000e 82B0     		sub	sp, sp, #8
 976              		.cfi_def_cfa_offset 32
 977              		.loc 1 177 0
 978 0010 0446     		mov	r4, r0
 979              	.LVL110:
 980 0012 0193     		str	r3, [sp, #4]
 981              		.loc 1 179 0
 982 0014 0027     		movs	r7, #0
 983              	.LVL111:
 984              	.L81:
 985              	.LBB90:
 986              	.LBB88:
 987              		.loc 1 130 0
 988 0016 6368     		ldr	r3, [r4, #4]	@ unaligned
 989              		.loc 1 126 0
 990 0018 2568     		ldr	r5, [r4]	@ unaligned
 991              	.LVL112:
 992              		.loc 1 130 0
 993 001a 0093     		str	r3, [sp]
 994              		.loc 1 134 0
 995 001c 0422     		movs	r2, #4
 996 001e 6946     		mov	r1, sp
 997 0020 3046     		mov	r0, r6
 998 0022 FFF7FEFF 		bl	crc32
 999              	.LVL113:
 1000 0026 8542     		cmp	r5, r0
 1001 0028 08D0     		beq	.L84
 1002              	.LVL114:
 1003              	.L78:
 1004              	.LBE88:
 1005              	.LBE90:
 1006              		.loc 1 188 0
 1007 002a 019A     		ldr	r2, [sp, #4]
 1008 002c D8F80030 		ldr	r3, [r8]
 1009 0030 9A42     		cmp	r2, r3
 1010 0032 3846     		mov	r0, r7
 1011 0034 10D1     		bne	.L85
 1012 0036 02B0     		add	sp, sp, #8
 1013              		.cfi_remember_state
 1014              		.cfi_def_cfa_offset 24
 1015              		@ sp needed
 1016 0038 BDE8F081 		pop	{r4, r5, r6, r7, r8, pc}
 1017              	.LVL115:
 1018              	.L84:
 1019              		.cfi_restore_state
 1020              	.LBB91:
 1021              	.LBB89:
 1022              		.loc 1 143 0
 1023 003c 009A     		ldr	r2, [sp]
 1024              		.loc 1 139 0
 1025 003e A568     		ldr	r5, [r4, #8]	@ unaligned
 1026              	.LVL116:
ARM GAS  C:\Users\mathi\AppData\Local\Temp\ccVFH8Wh.s 			page 19


 1027              		.loc 1 143 0
 1028 0040 04F10C01 		add	r1, r4, #12
 1029 0044 3046     		mov	r0, r6
 1030 0046 FFF7FEFF 		bl	crc32
 1031              	.LVL117:
 1032 004a 8542     		cmp	r5, r0
 1033 004c EDD1     		bne	.L78
 1034              	.LVL118:
 1035 004e 6368     		ldr	r3, [r4, #4]
 1036 0050 0C33     		adds	r3, r3, #12
 1037              	.LVL119:
 1038 0052 2746     		mov	r7, r4
 1039              	.LBE89:
 1040              	.LBE91:
 1041              		.loc 1 184 0
 1042 0054 1C44     		add	r4, r4, r3
 1043              	.LVL120:
 1044 0056 DEE7     		b	.L81
 1045              	.LVL121:
 1046              	.L85:
 1047              		.loc 1 188 0
 1048 0058 FFF7FEFF 		bl	__stack_chk_fail
 1049              	.LVL122:
 1050              	.L87:
 1051              		.align	2
 1052              	.L86:
 1053 005c EFBEADDE 		.word	-559038737
 1054 0060 00000000 		.word	__stack_chk_guard
 1055              		.cfi_endproc
 1056              	.LFE8:
 1057              		.size	config_block_find_last_used, .-config_block_find_last_used
 1058              		.section	.text.config_block_find_first_free,"ax",%progbits
 1059              		.align	1
 1060              		.p2align 4,,15
 1061              		.global	config_block_find_first_free
 1062              		.syntax unified
 1063              		.thumb
 1064              		.thumb_func
 1065              		.fpu fpv4-sp-d16
 1066              		.type	config_block_find_first_free, %function
 1067              	config_block_find_first_free:
 1068              	.LFB9:
 1069              		.loc 1 191 0
 1070              		.cfi_startproc
 1071              		@ args = 0, pretend = 0, frame = 8
 1072              		@ frame_needed = 0, uses_anonymous_args = 0
 1073              	.LVL123:
 1074 0000 F0B5     		push	{r4, r5, r6, r7, lr}
 1075              		.cfi_def_cfa_offset 20
 1076              		.cfi_offset 4, -20
 1077              		.cfi_offset 5, -16
 1078              		.cfi_offset 6, -12
 1079              		.cfi_offset 7, -8
 1080              		.cfi_offset 14, -4
 1081 0002 134F     		ldr	r7, .L96
 1082              	.LBB96:
 1083              	.LBB97:
ARM GAS  C:\Users\mathi\AppData\Local\Temp\ccVFH8Wh.s 			page 20


 1084              		.loc 1 134 0
 1085 0004 134E     		ldr	r6, .L96+4
 1086              	.LBE97:
 1087              	.LBE96:
 1088              		.loc 1 191 0
 1089 0006 3B68     		ldr	r3, [r7]
 1090 0008 83B0     		sub	sp, sp, #12
 1091              		.cfi_def_cfa_offset 32
 1092              		.loc 1 192 0
 1093 000a 0446     		mov	r4, r0
 1094              		.loc 1 191 0
 1095 000c 0193     		str	r3, [sp, #4]
 1096              	.LVL124:
 1097              	.L91:
 1098              	.LBB100:
 1099              	.LBB98:
 1100              		.loc 1 130 0
 1101 000e 6368     		ldr	r3, [r4, #4]	@ unaligned
 1102              		.loc 1 126 0
 1103 0010 2568     		ldr	r5, [r4]	@ unaligned
 1104              	.LVL125:
 1105              		.loc 1 130 0
 1106 0012 0093     		str	r3, [sp]
 1107              		.loc 1 134 0
 1108 0014 0422     		movs	r2, #4
 1109 0016 6946     		mov	r1, sp
 1110 0018 3046     		mov	r0, r6
 1111 001a FFF7FEFF 		bl	crc32
 1112              	.LVL126:
 1113 001e 8542     		cmp	r5, r0
 1114 0020 06D0     		beq	.L94
 1115              	.LVL127:
 1116              	.L88:
 1117              	.LBE98:
 1118              	.LBE100:
 1119              		.loc 1 200 0
 1120 0022 019A     		ldr	r2, [sp, #4]
 1121 0024 3B68     		ldr	r3, [r7]
 1122 0026 9A42     		cmp	r2, r3
 1123 0028 2046     		mov	r0, r4
 1124 002a 0ED1     		bne	.L95
 1125              	.LVL128:
 1126 002c 03B0     		add	sp, sp, #12
 1127              		.cfi_remember_state
 1128              		.cfi_def_cfa_offset 20
 1129              		@ sp needed
 1130 002e F0BD     		pop	{r4, r5, r6, r7, pc}
 1131              	.LVL129:
 1132              	.L94:
 1133              		.cfi_restore_state
 1134              	.LBB101:
 1135              	.LBB99:
 1136              		.loc 1 143 0
 1137 0030 009A     		ldr	r2, [sp]
 1138              		.loc 1 139 0
 1139 0032 A568     		ldr	r5, [r4, #8]	@ unaligned
 1140              	.LVL130:
ARM GAS  C:\Users\mathi\AppData\Local\Temp\ccVFH8Wh.s 			page 21


 1141              		.loc 1 143 0
 1142 0034 04F10C01 		add	r1, r4, #12
 1143 0038 3046     		mov	r0, r6
 1144 003a FFF7FEFF 		bl	crc32
 1145              	.LVL131:
 1146 003e 8542     		cmp	r5, r0
 1147 0040 EFD1     		bne	.L88
 1148              	.LVL132:
 1149 0042 6368     		ldr	r3, [r4, #4]
 1150 0044 0C33     		adds	r3, r3, #12
 1151              	.LBE99:
 1152              	.LBE101:
 1153              		.loc 1 196 0
 1154 0046 1C44     		add	r4, r4, r3
 1155              	.LVL133:
 1156 0048 E1E7     		b	.L91
 1157              	.LVL134:
 1158              	.L95:
 1159              		.loc 1 200 0
 1160 004a FFF7FEFF 		bl	__stack_chk_fail
 1161              	.LVL135:
 1162              	.L97:
 1163 004e 00BF     		.align	2
 1164              	.L96:
 1165 0050 00000000 		.word	__stack_chk_guard
 1166 0054 EFBEADDE 		.word	-559038737
 1167              		.cfi_endproc
 1168              	.LFE9:
 1169              		.size	config_block_find_first_free, .-config_block_find_first_free
 1170              		.text
 1171              	.Letext0:
 1172              		.file 2 "c:\\eclipse_e-puck2\\tools\\gcc-arm-none-eabi-7-2017-q4-major-win32\\lib\\gcc\\arm-none-e
 1173              		.file 3 "c:\\eclipse_e-puck2\\tools\\gcc-arm-none-eabi-7-2017-q4-major-win32\\arm-none-eabi\\inclu
 1174              		.file 4 "c:\\eclipse_e-puck2\\tools\\gcc-arm-none-eabi-7-2017-q4-major-win32\\arm-none-eabi\\inclu
 1175              		.file 5 "c:\\eclipse_e-puck2\\tools\\gcc-arm-none-eabi-7-2017-q4-major-win32\\arm-none-eabi\\inclu
 1176              		.file 6 "c:\\eclipse_e-puck2\\tools\\gcc-arm-none-eabi-7-2017-q4-major-win32\\arm-none-eabi\\inclu
 1177              		.file 7 "c:\\eclipse_e-puck2\\tools\\gcc-arm-none-eabi-7-2017-q4-major-win32\\arm-none-eabi\\inclu
 1178              		.file 8 "c:\\eclipse_e-puck2\\tools\\gcc-arm-none-eabi-7-2017-q4-major-win32\\arm-none-eabi\\inclu
 1179              		.file 9 "../../lib/e-puck2_main-processor/src/parameter/parameter.h"
 1180              		.file 10 "../../lib/e-puck2_main-processor/src/cmp/cmp.h"
 1181              		.file 11 "../../lib/e-puck2_main-processor/src/cmp_mem_access/cmp_mem_access.h"
 1182              		.file 12 "../../lib/e-puck2_main-processor/src/crc/crc32.h"
 1183              		.file 13 "../../lib/e-puck2_main-processor/src/parameter/parameter_msgpack.h"
 1184              		.file 14 "../../lib/e-puck2_main-processor/src/flash/flash.h"