ARM GAS  C:\Users\mathi\AppData\Local\Temp\ccu7R7Us.s 			page 1


   1              		.cpu cortex-m4
   2              		.eabi_attribute 27, 1
   3              		.eabi_attribute 28, 1
   4              		.eabi_attribute 20, 1
   5              		.eabi_attribute 21, 1
   6              		.eabi_attribute 23, 3
   7              		.eabi_attribute 24, 1
   8              		.eabi_attribute 25, 1
   9              		.eabi_attribute 26, 1
  10              		.eabi_attribute 30, 2
  11              		.eabi_attribute 34, 1
  12              		.eabi_attribute 18, 4
  13              		.file	"crc32.c"
  14              		.text
  15              	.Ltext0:
  16              		.cfi_sections	.debug_frame
  17              		.section	.text.crc32,"ax",%progbits
  18              		.align	1
  19              		.p2align 4,,15
  20              		.global	crc32
  21              		.syntax unified
  22              		.thumb
  23              		.thumb_func
  24              		.fpu fpv4-sp-d16
  25              		.type	crc32, %function
  26              	crc32:
  27              	.LFB0:
  28              		.file 1 "../../lib/e-puck2_main-processor/src/crc/crc32.c"
  29              		.loc 1 8 0
  30              		.cfi_startproc
  31              		@ args = 0, pretend = 0, frame = 8
  32              		@ frame_needed = 0, uses_anonymous_args = 0
  33              	.LVL0:
  34 0000 70B5     		push	{r4, r5, r6, lr}
  35              		.cfi_def_cfa_offset 16
  36              		.cfi_offset 4, -16
  37              		.cfi_offset 5, -12
  38              		.cfi_offset 6, -8
  39              		.cfi_offset 14, -4
  40 0002 284C     		ldr	r4, .L44
  41 0004 82B0     		sub	sp, sp, #8
  42              		.cfi_def_cfa_offset 24
  43              		.loc 1 8 0
  44 0006 2368     		ldr	r3, [r4]
  45 0008 0193     		str	r3, [sp, #4]
  46              	.LVL1:
  47              		.loc 1 10 0
  48 000a C043     		mvns	r0, r0
  49              	.LVL2:
  50              		.loc 1 12 0
  51 000c 002A     		cmp	r2, #0
  52 000e 3FD0     		beq	.L2
  53 0010 551E     		subs	r5, r2, #1
  54              	.LBB2:
  55              		.loc 1 16 0
  56 0012 254A     		ldr	r2, .L44+4
  57              	.LVL3:
ARM GAS  C:\Users\mathi\AppData\Local\Temp\ccu7R7Us.s 			page 2


  58 0014 0D44     		add	r5, r5, r1
  59              	.LVL4:
  60 0016 0139     		subs	r1, r1, #1
  61              	.LVL5:
  62              	.L11:
  63              		.loc 1 15 0
  64 0018 11F8013F 		ldrb	r3, [r1, #1]!	@ zero_extendqisi2
  65              	.LVL6:
  66 001c 83EA0006 		eor	r6, r3, r0
  67 0020 F607     		lsls	r6, r6, #31
  68 0022 4FEA5000 		lsr	r0, r0, #1
  69              	.LVL7:
  70              		.loc 1 16 0
  71 0026 48BF     		it	mi
  72 0028 5040     		eormi	r0, r0, r2
  73              	.LVL8:
  74              		.loc 1 15 0
  75 002a 80EA5306 		eor	r6, r0, r3, lsr #1
  76 002e F607     		lsls	r6, r6, #31
  77 0030 4FEA5000 		lsr	r0, r0, #1
  78              	.LVL9:
  79              		.loc 1 16 0
  80 0034 48BF     		it	mi
  81 0036 5040     		eormi	r0, r0, r2
  82              	.LVL10:
  83              		.loc 1 15 0
  84 0038 80EA9306 		eor	r6, r0, r3, lsr #2
  85 003c F607     		lsls	r6, r6, #31
  86 003e 4FEA5000 		lsr	r0, r0, #1
  87              	.LVL11:
  88              		.loc 1 16 0
  89 0042 48BF     		it	mi
  90 0044 5040     		eormi	r0, r0, r2
  91              	.LVL12:
  92              		.loc 1 15 0
  93 0046 80EAD306 		eor	r6, r0, r3, lsr #3
  94 004a F607     		lsls	r6, r6, #31
  95 004c 4FEA5000 		lsr	r0, r0, #1
  96              	.LVL13:
  97              		.loc 1 16 0
  98 0050 48BF     		it	mi
  99 0052 5040     		eormi	r0, r0, r2
 100              	.LVL14:
 101              		.loc 1 15 0
 102 0054 80EA1316 		eor	r6, r0, r3, lsr #4
 103 0058 F607     		lsls	r6, r6, #31
 104 005a 4FEA5000 		lsr	r0, r0, #1
 105              	.LVL15:
 106              		.loc 1 16 0
 107 005e 48BF     		it	mi
 108 0060 5040     		eormi	r0, r0, r2
 109              	.LVL16:
 110              		.loc 1 15 0
 111 0062 80EA5316 		eor	r6, r0, r3, lsr #5
 112 0066 F607     		lsls	r6, r6, #31
 113 0068 4FEA5000 		lsr	r0, r0, #1
 114              	.LVL17:
ARM GAS  C:\Users\mathi\AppData\Local\Temp\ccu7R7Us.s 			page 3


 115              		.loc 1 16 0
 116 006c 48BF     		it	mi
 117 006e 5040     		eormi	r0, r0, r2
 118              	.LVL18:
 119              		.loc 1 15 0
 120 0070 80EA9316 		eor	r6, r0, r3, lsr #6
 121 0074 F607     		lsls	r6, r6, #31
 122 0076 4FEA5000 		lsr	r0, r0, #1
 123              	.LVL19:
 124              		.loc 1 16 0
 125 007a 48BF     		it	mi
 126 007c 5040     		eormi	r0, r0, r2
 127              	.LVL20:
 128              		.loc 1 15 0
 129 007e 80EAD313 		eor	r3, r0, r3, lsr #7
 130 0082 DB07     		lsls	r3, r3, #31
 131 0084 4FEA5000 		lsr	r0, r0, #1
 132              	.LVL21:
 133              		.loc 1 16 0
 134 0088 48BF     		it	mi
 135 008a 5040     		eormi	r0, r0, r2
 136              	.LVL22:
 137              	.LBE2:
 138              		.loc 1 12 0
 139 008c 8D42     		cmp	r5, r1
 140 008e C3D1     		bne	.L11
 141              	.LVL23:
 142              	.L2:
 143              		.loc 1 23 0
 144 0090 019A     		ldr	r2, [sp, #4]
 145 0092 2368     		ldr	r3, [r4]
 146 0094 9A42     		cmp	r2, r3
 147 0096 6FEA0000 		mvn	r0, r0
 148              	.LVL24:
 149 009a 01D1     		bne	.L43
 150 009c 02B0     		add	sp, sp, #8
 151              		.cfi_remember_state
 152              		.cfi_def_cfa_offset 16
 153              		@ sp needed
 154 009e 70BD     		pop	{r4, r5, r6, pc}
 155              	.L43:
 156              		.cfi_restore_state
 157 00a0 FFF7FEFF 		bl	__stack_chk_fail
 158              	.LVL25:
 159              	.L45:
 160              		.align	2
 161              	.L44:
 162 00a4 00000000 		.word	__stack_chk_guard
 163 00a8 2083B8ED 		.word	-306674912
 164              		.cfi_endproc
 165              	.LFE0:
 166              		.size	crc32, .-crc32
 167              		.text
 168              	.Letext0:
 169              		.file 2 "c:\\eclipse_e-puck2\\tools\\gcc-arm-none-eabi-7-2017-q4-major-win32\\arm-none-eabi\\inclu
 170              		.file 3 "c:\\eclipse_e-puck2\\tools\\gcc-arm-none-eabi-7-2017-q4-major-win32\\arm-none-eabi\\inclu
 171              		.file 4 "c:\\eclipse_e-puck2\\tools\\gcc-arm-none-eabi-7-2017-q4-major-win32\\lib\\gcc\\arm-none-e
ARM GAS  C:\Users\mathi\AppData\Local\Temp\ccu7R7Us.s 			page 4


 172              		.file 5 "c:\\eclipse_e-puck2\\tools\\gcc-arm-none-eabi-7-2017-q4-major-win32\\arm-none-eabi\\inclu
 173              		.file 6 "c:\\eclipse_e-puck2\\tools\\gcc-arm-none-eabi-7-2017-q4-major-win32\\arm-none-eabi\\inclu
 174              		.file 7 "c:\\eclipse_e-puck2\\tools\\gcc-arm-none-eabi-7-2017-q4-major-win32\\arm-none-eabi\\inclu
 175              		.file 8 "c:\\eclipse_e-puck2\\tools\\gcc-arm-none-eabi-7-2017-q4-major-win32\\arm-none-eabi\\inclu
 176              		.section	.debug_info,"",%progbits
 177              	.Ldebug_info0:
 178 0000 7F090000 		.4byte	0x97f
 179 0004 0400     		.2byte	0x4
 180 0006 00000000 		.4byte	.Ldebug_abbrev0
 181 000a 04       		.byte	0x4
 182 000b 01       		.uleb128 0x1
 183 000c 2F030000 		.4byte	.LASF130
 184 0010 0C       		.byte	0xc
 185 0011 24010000 		.4byte	.LASF131
 186 0015 FB010000 		.4byte	.LASF132
 187 0019 00000000 		.4byte	.Ldebug_ranges0+0
 188 001d 00000000 		.4byte	0
 189 0021 00000000 		.4byte	.Ldebug_line0
 190 0025 02       		.uleb128 0x2
 191 0026 01       		.byte	0x1
 192 0027 06       		.byte	0x6
 193 0028 C0000000 		.4byte	.LASF0
 194 002c 03       		.uleb128 0x3
 195 002d 3A000000 		.4byte	.LASF5
 196 0031 02       		.byte	0x2
 197 0032 2B       		.byte	0x2b
 198 0033 37000000 		.4byte	0x37
 199 0037 02       		.uleb128 0x2
 200 0038 01       		.byte	0x1
 201 0039 08       		.byte	0x8
 202 003a 8B040000 		.4byte	.LASF1
 203 003e 02       		.uleb128 0x2
 204 003f 02       		.byte	0x2
 205 0040 05       		.byte	0x5
 206 0041 A7040000 		.4byte	.LASF2
 207 0045 02       		.uleb128 0x2
 208 0046 02       		.byte	0x2
 209 0047 07       		.byte	0x7
 210 0048 75020000 		.4byte	.LASF3
 211 004c 02       		.uleb128 0x2
 212 004d 04       		.byte	0x4
 213 004e 05       		.byte	0x5
 214 004f 05010000 		.4byte	.LASF4
 215 0053 03       		.uleb128 0x3
 216 0054 91010000 		.4byte	.LASF6
 217 0058 02       		.byte	0x2
 218 0059 4F       		.byte	0x4f
 219 005a 5E000000 		.4byte	0x5e
 220 005e 02       		.uleb128 0x2
 221 005f 04       		.byte	0x4
 222 0060 07       		.byte	0x7
 223 0061 51020000 		.4byte	.LASF7
 224 0065 02       		.uleb128 0x2
 225 0066 08       		.byte	0x8
 226 0067 05       		.byte	0x5
 227 0068 B2000000 		.4byte	.LASF8
 228 006c 02       		.uleb128 0x2
ARM GAS  C:\Users\mathi\AppData\Local\Temp\ccu7R7Us.s 			page 5


 229 006d 08       		.byte	0x8
 230 006e 07       		.byte	0x7
 231 006f 6F000000 		.4byte	.LASF9
 232 0073 04       		.uleb128 0x4
 233 0074 04       		.byte	0x4
 234 0075 05       		.byte	0x5
 235 0076 696E7400 		.ascii	"int\000"
 236 007a 02       		.uleb128 0x2
 237 007b 04       		.byte	0x4
 238 007c 07       		.byte	0x7
 239 007d DF010000 		.4byte	.LASF10
 240 0081 03       		.uleb128 0x3
 241 0082 2E060000 		.4byte	.LASF11
 242 0086 03       		.byte	0x3
 243 0087 18       		.byte	0x18
 244 0088 2C000000 		.4byte	0x2c
 245 008c 03       		.uleb128 0x3
 246 008d 6D050000 		.4byte	.LASF12
 247 0091 03       		.byte	0x3
 248 0092 30       		.byte	0x30
 249 0093 53000000 		.4byte	0x53
 250 0097 03       		.uleb128 0x3
 251 0098 12000000 		.4byte	.LASF13
 252 009c 04       		.byte	0x4
 253 009d D8       		.byte	0xd8
 254 009e 7A000000 		.4byte	0x7a
 255 00a2 02       		.uleb128 0x2
 256 00a3 08       		.byte	0x8
 257 00a4 04       		.byte	0x4
 258 00a5 EF020000 		.4byte	.LASF14
 259 00a9 03       		.uleb128 0x3
 260 00aa B8020000 		.4byte	.LASF15
 261 00ae 05       		.byte	0x5
 262 00af 22       		.byte	0x22
 263 00b0 B4000000 		.4byte	0xb4
 264 00b4 05       		.uleb128 0x5
 265 00b5 04       		.byte	0x4
 266 00b6 BA000000 		.4byte	0xba
 267 00ba 06       		.uleb128 0x6
 268 00bb 66050000 		.4byte	.LASF122
 269 00bf 03       		.uleb128 0x3
 270 00c0 28030000 		.4byte	.LASF16
 271 00c4 06       		.byte	0x6
 272 00c5 2C       		.byte	0x2c
 273 00c6 4C000000 		.4byte	0x4c
 274 00ca 03       		.uleb128 0x3
 275 00cb 88050000 		.4byte	.LASF17
 276 00cf 06       		.byte	0x6
 277 00d0 72       		.byte	0x72
 278 00d1 4C000000 		.4byte	0x4c
 279 00d5 07       		.uleb128 0x7
 280 00d6 C0020000 		.4byte	.LASF18
 281 00da 04       		.byte	0x4
 282 00db 6501     		.2byte	0x165
 283 00dd 7A000000 		.4byte	0x7a
 284 00e1 08       		.uleb128 0x8
 285 00e2 04       		.byte	0x4
ARM GAS  C:\Users\mathi\AppData\Local\Temp\ccu7R7Us.s 			page 6


 286 00e3 06       		.byte	0x6
 287 00e4 A6       		.byte	0xa6
 288 00e5 00010000 		.4byte	0x100
 289 00e9 09       		.uleb128 0x9
 290 00ea B2020000 		.4byte	.LASF19
 291 00ee 06       		.byte	0x6
 292 00ef A8       		.byte	0xa8
 293 00f0 D5000000 		.4byte	0xd5
 294 00f4 09       		.uleb128 0x9
 295 00f5 EC010000 		.4byte	.LASF20
 296 00f9 06       		.byte	0x6
 297 00fa A9       		.byte	0xa9
 298 00fb 00010000 		.4byte	0x100
 299 00ff 00       		.byte	0
 300 0100 0A       		.uleb128 0xa
 301 0101 37000000 		.4byte	0x37
 302 0105 10010000 		.4byte	0x110
 303 0109 0B       		.uleb128 0xb
 304 010a 7A000000 		.4byte	0x7a
 305 010e 03       		.byte	0x3
 306 010f 00       		.byte	0
 307 0110 0C       		.uleb128 0xc
 308 0111 08       		.byte	0x8
 309 0112 06       		.byte	0x6
 310 0113 A3       		.byte	0xa3
 311 0114 31010000 		.4byte	0x131
 312 0118 0D       		.uleb128 0xd
 313 0119 5E050000 		.4byte	.LASF21
 314 011d 06       		.byte	0x6
 315 011e A5       		.byte	0xa5
 316 011f 73000000 		.4byte	0x73
 317 0123 00       		.byte	0
 318 0124 0D       		.uleb128 0xd
 319 0125 CE050000 		.4byte	.LASF22
 320 0129 06       		.byte	0x6
 321 012a AA       		.byte	0xaa
 322 012b E1000000 		.4byte	0xe1
 323 012f 04       		.byte	0x4
 324 0130 00       		.byte	0
 325 0131 03       		.uleb128 0x3
 326 0132 CF040000 		.4byte	.LASF23
 327 0136 06       		.byte	0x6
 328 0137 AB       		.byte	0xab
 329 0138 10010000 		.4byte	0x110
 330 013c 03       		.uleb128 0x3
 331 013d A2010000 		.4byte	.LASF24
 332 0141 06       		.byte	0x6
 333 0142 AF       		.byte	0xaf
 334 0143 A9000000 		.4byte	0xa9
 335 0147 0E       		.uleb128 0xe
 336 0148 04       		.byte	0x4
 337 0149 05       		.uleb128 0x5
 338 014a 04       		.byte	0x4
 339 014b 4F010000 		.4byte	0x14f
 340 014f 02       		.uleb128 0x2
 341 0150 01       		.byte	0x1
 342 0151 08       		.byte	0x8
ARM GAS  C:\Users\mathi\AppData\Local\Temp\ccu7R7Us.s 			page 7


 343 0152 9E050000 		.4byte	.LASF25
 344 0156 0F       		.uleb128 0xf
 345 0157 4F010000 		.4byte	0x14f
 346 015b 03       		.uleb128 0x3
 347 015c E4050000 		.4byte	.LASF26
 348 0160 07       		.byte	0x7
 349 0161 16       		.byte	0x16
 350 0162 5E000000 		.4byte	0x5e
 351 0166 10       		.uleb128 0x10
 352 0167 B3010000 		.4byte	.LASF31
 353 016b 18       		.byte	0x18
 354 016c 07       		.byte	0x7
 355 016d 2F       		.byte	0x2f
 356 016e B9010000 		.4byte	0x1b9
 357 0172 0D       		.uleb128 0xd
 358 0173 BB050000 		.4byte	.LASF27
 359 0177 07       		.byte	0x7
 360 0178 31       		.byte	0x31
 361 0179 B9010000 		.4byte	0x1b9
 362 017d 00       		.byte	0
 363 017e 11       		.uleb128 0x11
 364 017f 5F6B00   		.ascii	"_k\000"
 365 0182 07       		.byte	0x7
 366 0183 32       		.byte	0x32
 367 0184 73000000 		.4byte	0x73
 368 0188 04       		.byte	0x4
 369 0189 0D       		.uleb128 0xd
 370 018a 49050000 		.4byte	.LASF28
 371 018e 07       		.byte	0x7
 372 018f 32       		.byte	0x32
 373 0190 73000000 		.4byte	0x73
 374 0194 08       		.byte	0x8
 375 0195 0D       		.uleb128 0xd
 376 0196 9C010000 		.4byte	.LASF29
 377 019a 07       		.byte	0x7
 378 019b 32       		.byte	0x32
 379 019c 73000000 		.4byte	0x73
 380 01a0 0C       		.byte	0xc
 381 01a1 0D       		.uleb128 0xd
 382 01a2 19060000 		.4byte	.LASF30
 383 01a6 07       		.byte	0x7
 384 01a7 32       		.byte	0x32
 385 01a8 73000000 		.4byte	0x73
 386 01ac 10       		.byte	0x10
 387 01ad 11       		.uleb128 0x11
 388 01ae 5F7800   		.ascii	"_x\000"
 389 01b1 07       		.byte	0x7
 390 01b2 33       		.byte	0x33
 391 01b3 BF010000 		.4byte	0x1bf
 392 01b7 14       		.byte	0x14
 393 01b8 00       		.byte	0
 394 01b9 05       		.uleb128 0x5
 395 01ba 04       		.byte	0x4
 396 01bb 66010000 		.4byte	0x166
 397 01bf 0A       		.uleb128 0xa
 398 01c0 5B010000 		.4byte	0x15b
 399 01c4 CF010000 		.4byte	0x1cf
ARM GAS  C:\Users\mathi\AppData\Local\Temp\ccu7R7Us.s 			page 8


 400 01c8 0B       		.uleb128 0xb
 401 01c9 7A000000 		.4byte	0x7a
 402 01cd 00       		.byte	0
 403 01ce 00       		.byte	0
 404 01cf 10       		.uleb128 0x10
 405 01d0 DA010000 		.4byte	.LASF32
 406 01d4 24       		.byte	0x24
 407 01d5 07       		.byte	0x7
 408 01d6 37       		.byte	0x37
 409 01d7 48020000 		.4byte	0x248
 410 01db 0D       		.uleb128 0xd
 411 01dc A9000000 		.4byte	.LASF33
 412 01e0 07       		.byte	0x7
 413 01e1 39       		.byte	0x39
 414 01e2 73000000 		.4byte	0x73
 415 01e6 00       		.byte	0
 416 01e7 0D       		.uleb128 0xd
 417 01e8 AC050000 		.4byte	.LASF34
 418 01ec 07       		.byte	0x7
 419 01ed 3A       		.byte	0x3a
 420 01ee 73000000 		.4byte	0x73
 421 01f2 04       		.byte	0x4
 422 01f3 0D       		.uleb128 0xd
 423 01f4 D8000000 		.4byte	.LASF35
 424 01f8 07       		.byte	0x7
 425 01f9 3B       		.byte	0x3b
 426 01fa 73000000 		.4byte	0x73
 427 01fe 08       		.byte	0x8
 428 01ff 0D       		.uleb128 0xd
 429 0200 91060000 		.4byte	.LASF36
 430 0204 07       		.byte	0x7
 431 0205 3C       		.byte	0x3c
 432 0206 73000000 		.4byte	0x73
 433 020a 0C       		.byte	0xc
 434 020b 0D       		.uleb128 0xd
 435 020c 02030000 		.4byte	.LASF37
 436 0210 07       		.byte	0x7
 437 0211 3D       		.byte	0x3d
 438 0212 73000000 		.4byte	0x73
 439 0216 10       		.byte	0x10
 440 0217 0D       		.uleb128 0xd
 441 0218 DC020000 		.4byte	.LASF38
 442 021c 07       		.byte	0x7
 443 021d 3E       		.byte	0x3e
 444 021e 73000000 		.4byte	0x73
 445 0222 14       		.byte	0x14
 446 0223 0D       		.uleb128 0xd
 447 0224 1E060000 		.4byte	.LASF39
 448 0228 07       		.byte	0x7
 449 0229 3F       		.byte	0x3f
 450 022a 73000000 		.4byte	0x73
 451 022e 18       		.byte	0x18
 452 022f 0D       		.uleb128 0xd
 453 0230 B1040000 		.4byte	.LASF40
 454 0234 07       		.byte	0x7
 455 0235 40       		.byte	0x40
 456 0236 73000000 		.4byte	0x73
ARM GAS  C:\Users\mathi\AppData\Local\Temp\ccu7R7Us.s 			page 9


 457 023a 1C       		.byte	0x1c
 458 023b 0D       		.uleb128 0xd
 459 023c 58060000 		.4byte	.LASF41
 460 0240 07       		.byte	0x7
 461 0241 41       		.byte	0x41
 462 0242 73000000 		.4byte	0x73
 463 0246 20       		.byte	0x20
 464 0247 00       		.byte	0
 465 0248 12       		.uleb128 0x12
 466 0249 E7000000 		.4byte	.LASF42
 467 024d 0801     		.2byte	0x108
 468 024f 07       		.byte	0x7
 469 0250 4A       		.byte	0x4a
 470 0251 88020000 		.4byte	0x288
 471 0255 0D       		.uleb128 0xd
 472 0256 84010000 		.4byte	.LASF43
 473 025a 07       		.byte	0x7
 474 025b 4B       		.byte	0x4b
 475 025c 88020000 		.4byte	0x288
 476 0260 00       		.byte	0
 477 0261 0D       		.uleb128 0xd
 478 0262 00000000 		.4byte	.LASF44
 479 0266 07       		.byte	0x7
 480 0267 4C       		.byte	0x4c
 481 0268 88020000 		.4byte	0x288
 482 026c 80       		.byte	0x80
 483 026d 13       		.uleb128 0x13
 484 026e D6050000 		.4byte	.LASF45
 485 0272 07       		.byte	0x7
 486 0273 4E       		.byte	0x4e
 487 0274 5B010000 		.4byte	0x15b
 488 0278 0001     		.2byte	0x100
 489 027a 13       		.uleb128 0x13
 490 027b 15010000 		.4byte	.LASF46
 491 027f 07       		.byte	0x7
 492 0280 51       		.byte	0x51
 493 0281 5B010000 		.4byte	0x15b
 494 0285 0401     		.2byte	0x104
 495 0287 00       		.byte	0
 496 0288 0A       		.uleb128 0xa
 497 0289 47010000 		.4byte	0x147
 498 028d 98020000 		.4byte	0x298
 499 0291 0B       		.uleb128 0xb
 500 0292 7A000000 		.4byte	0x7a
 501 0296 1F       		.byte	0x1f
 502 0297 00       		.byte	0
 503 0298 12       		.uleb128 0x12
 504 0299 0B030000 		.4byte	.LASF47
 505 029d 9001     		.2byte	0x190
 506 029f 07       		.byte	0x7
 507 02a0 5D       		.byte	0x5d
 508 02a1 D6020000 		.4byte	0x2d6
 509 02a5 0D       		.uleb128 0xd
 510 02a6 BB050000 		.4byte	.LASF27
 511 02aa 07       		.byte	0x7
 512 02ab 5E       		.byte	0x5e
 513 02ac D6020000 		.4byte	0x2d6
ARM GAS  C:\Users\mathi\AppData\Local\Temp\ccu7R7Us.s 			page 10


 514 02b0 00       		.byte	0
 515 02b1 0D       		.uleb128 0xd
 516 02b2 08050000 		.4byte	.LASF48
 517 02b6 07       		.byte	0x7
 518 02b7 5F       		.byte	0x5f
 519 02b8 73000000 		.4byte	0x73
 520 02bc 04       		.byte	0x4
 521 02bd 0D       		.uleb128 0xd
 522 02be 8C010000 		.4byte	.LASF49
 523 02c2 07       		.byte	0x7
 524 02c3 61       		.byte	0x61
 525 02c4 DC020000 		.4byte	0x2dc
 526 02c8 08       		.byte	0x8
 527 02c9 0D       		.uleb128 0xd
 528 02ca E7000000 		.4byte	.LASF42
 529 02ce 07       		.byte	0x7
 530 02cf 62       		.byte	0x62
 531 02d0 48020000 		.4byte	0x248
 532 02d4 88       		.byte	0x88
 533 02d5 00       		.byte	0
 534 02d6 05       		.uleb128 0x5
 535 02d7 04       		.byte	0x4
 536 02d8 98020000 		.4byte	0x298
 537 02dc 0A       		.uleb128 0xa
 538 02dd EC020000 		.4byte	0x2ec
 539 02e1 EC020000 		.4byte	0x2ec
 540 02e5 0B       		.uleb128 0xb
 541 02e6 7A000000 		.4byte	0x7a
 542 02ea 1F       		.byte	0x1f
 543 02eb 00       		.byte	0
 544 02ec 05       		.uleb128 0x5
 545 02ed 04       		.byte	0x4
 546 02ee F2020000 		.4byte	0x2f2
 547 02f2 14       		.uleb128 0x14
 548 02f3 10       		.uleb128 0x10
 549 02f4 BB040000 		.4byte	.LASF50
 550 02f8 08       		.byte	0x8
 551 02f9 07       		.byte	0x7
 552 02fa 75       		.byte	0x75
 553 02fb 18030000 		.4byte	0x318
 554 02ff 0D       		.uleb128 0xd
 555 0300 D2000000 		.4byte	.LASF51
 556 0304 07       		.byte	0x7
 557 0305 76       		.byte	0x76
 558 0306 18030000 		.4byte	0x318
 559 030a 00       		.byte	0
 560 030b 0D       		.uleb128 0xd
 561 030c 0C000000 		.4byte	.LASF52
 562 0310 07       		.byte	0x7
 563 0311 77       		.byte	0x77
 564 0312 73000000 		.4byte	0x73
 565 0316 04       		.byte	0x4
 566 0317 00       		.byte	0
 567 0318 05       		.uleb128 0x5
 568 0319 04       		.byte	0x4
 569 031a 37000000 		.4byte	0x37
 570 031e 10       		.uleb128 0x10
ARM GAS  C:\Users\mathi\AppData\Local\Temp\ccu7R7Us.s 			page 11


 571 031f DA040000 		.4byte	.LASF53
 572 0323 68       		.byte	0x68
 573 0324 07       		.byte	0x7
 574 0325 B5       		.byte	0xb5
 575 0326 48040000 		.4byte	0x448
 576 032a 11       		.uleb128 0x11
 577 032b 5F7000   		.ascii	"_p\000"
 578 032e 07       		.byte	0x7
 579 032f B6       		.byte	0xb6
 580 0330 18030000 		.4byte	0x318
 581 0334 00       		.byte	0
 582 0335 11       		.uleb128 0x11
 583 0336 5F7200   		.ascii	"_r\000"
 584 0339 07       		.byte	0x7
 585 033a B7       		.byte	0xb7
 586 033b 73000000 		.4byte	0x73
 587 033f 04       		.byte	0x4
 588 0340 11       		.uleb128 0x11
 589 0341 5F7700   		.ascii	"_w\000"
 590 0344 07       		.byte	0x7
 591 0345 B8       		.byte	0xb8
 592 0346 73000000 		.4byte	0x73
 593 034a 08       		.byte	0x8
 594 034b 0D       		.uleb128 0xd
 595 034c 0E010000 		.4byte	.LASF54
 596 0350 07       		.byte	0x7
 597 0351 B9       		.byte	0xb9
 598 0352 3E000000 		.4byte	0x3e
 599 0356 0C       		.byte	0xc
 600 0357 0D       		.uleb128 0xd
 601 0358 63020000 		.4byte	.LASF55
 602 035c 07       		.byte	0x7
 603 035d BA       		.byte	0xba
 604 035e 3E000000 		.4byte	0x3e
 605 0362 0E       		.byte	0xe
 606 0363 11       		.uleb128 0x11
 607 0364 5F626600 		.ascii	"_bf\000"
 608 0368 07       		.byte	0x7
 609 0369 BB       		.byte	0xbb
 610 036a F3020000 		.4byte	0x2f3
 611 036e 10       		.byte	0x10
 612 036f 0D       		.uleb128 0xd
 613 0370 86000000 		.4byte	.LASF56
 614 0374 07       		.byte	0x7
 615 0375 BC       		.byte	0xbc
 616 0376 73000000 		.4byte	0x73
 617 037a 18       		.byte	0x18
 618 037b 0D       		.uleb128 0xd
 619 037c F5000000 		.4byte	.LASF57
 620 0380 07       		.byte	0x7
 621 0381 C3       		.byte	0xc3
 622 0382 47010000 		.4byte	0x147
 623 0386 1C       		.byte	0x1c
 624 0387 0D       		.uleb128 0xd
 625 0388 CA010000 		.4byte	.LASF58
 626 038c 07       		.byte	0x7
 627 038d C5       		.byte	0xc5
ARM GAS  C:\Users\mathi\AppData\Local\Temp\ccu7R7Us.s 			page 12


 628 038e A3050000 		.4byte	0x5a3
 629 0392 20       		.byte	0x20
 630 0393 0D       		.uleb128 0xd
 631 0394 D5020000 		.4byte	.LASF59
 632 0398 07       		.byte	0x7
 633 0399 C7       		.byte	0xc7
 634 039a CD050000 		.4byte	0x5cd
 635 039e 24       		.byte	0x24
 636 039f 0D       		.uleb128 0xd
 637 03a0 76050000 		.4byte	.LASF60
 638 03a4 07       		.byte	0x7
 639 03a5 CA       		.byte	0xca
 640 03a6 F1050000 		.4byte	0x5f1
 641 03aa 28       		.byte	0x28
 642 03ab 0D       		.uleb128 0xd
 643 03ac 72060000 		.4byte	.LASF61
 644 03b0 07       		.byte	0x7
 645 03b1 CB       		.byte	0xcb
 646 03b2 0B060000 		.4byte	0x60b
 647 03b6 2C       		.byte	0x2c
 648 03b7 11       		.uleb128 0x11
 649 03b8 5F756200 		.ascii	"_ub\000"
 650 03bc 07       		.byte	0x7
 651 03bd CE       		.byte	0xce
 652 03be F3020000 		.4byte	0x2f3
 653 03c2 30       		.byte	0x30
 654 03c3 11       		.uleb128 0x11
 655 03c4 5F757000 		.ascii	"_up\000"
 656 03c8 07       		.byte	0x7
 657 03c9 CF       		.byte	0xcf
 658 03ca 18030000 		.4byte	0x318
 659 03ce 38       		.byte	0x38
 660 03cf 11       		.uleb128 0x11
 661 03d0 5F757200 		.ascii	"_ur\000"
 662 03d4 07       		.byte	0x7
 663 03d5 D0       		.byte	0xd0
 664 03d6 73000000 		.4byte	0x73
 665 03da 3C       		.byte	0x3c
 666 03db 0D       		.uleb128 0xd
 667 03dc CC000000 		.4byte	.LASF62
 668 03e0 07       		.byte	0x7
 669 03e1 D3       		.byte	0xd3
 670 03e2 11060000 		.4byte	0x611
 671 03e6 40       		.byte	0x40
 672 03e7 0D       		.uleb128 0xd
 673 03e8 4A060000 		.4byte	.LASF63
 674 03ec 07       		.byte	0x7
 675 03ed D4       		.byte	0xd4
 676 03ee 21060000 		.4byte	0x621
 677 03f2 43       		.byte	0x43
 678 03f3 11       		.uleb128 0x11
 679 03f4 5F6C6200 		.ascii	"_lb\000"
 680 03f8 07       		.byte	0x7
 681 03f9 D7       		.byte	0xd7
 682 03fa F3020000 		.4byte	0x2f3
 683 03fe 44       		.byte	0x44
 684 03ff 0D       		.uleb128 0xd
ARM GAS  C:\Users\mathi\AppData\Local\Temp\ccu7R7Us.s 			page 13


 685 0400 A3050000 		.4byte	.LASF64
 686 0404 07       		.byte	0x7
 687 0405 DA       		.byte	0xda
 688 0406 73000000 		.4byte	0x73
 689 040a 4C       		.byte	0x4c
 690 040b 0D       		.uleb128 0xd
 691 040c 5D010000 		.4byte	.LASF65
 692 0410 07       		.byte	0x7
 693 0411 DB       		.byte	0xdb
 694 0412 BF000000 		.4byte	0xbf
 695 0416 50       		.byte	0x50
 696 0417 0D       		.uleb128 0xd
 697 0418 44000000 		.4byte	.LASF66
 698 041c 07       		.byte	0x7
 699 041d DE       		.byte	0xde
 700 041e 66040000 		.4byte	0x466
 701 0422 54       		.byte	0x54
 702 0423 0D       		.uleb128 0xd
 703 0424 C7020000 		.4byte	.LASF67
 704 0428 07       		.byte	0x7
 705 0429 E2       		.byte	0xe2
 706 042a 3C010000 		.4byte	0x13c
 707 042e 58       		.byte	0x58
 708 042f 0D       		.uleb128 0xd
 709 0430 E2040000 		.4byte	.LASF68
 710 0434 07       		.byte	0x7
 711 0435 E4       		.byte	0xe4
 712 0436 31010000 		.4byte	0x131
 713 043a 5C       		.byte	0x5c
 714 043b 0D       		.uleb128 0xd
 715 043c CD020000 		.4byte	.LASF69
 716 0440 07       		.byte	0x7
 717 0441 E5       		.byte	0xe5
 718 0442 73000000 		.4byte	0x73
 719 0446 64       		.byte	0x64
 720 0447 00       		.byte	0
 721 0448 15       		.uleb128 0x15
 722 0449 73000000 		.4byte	0x73
 723 044d 66040000 		.4byte	0x466
 724 0451 16       		.uleb128 0x16
 725 0452 66040000 		.4byte	0x466
 726 0456 16       		.uleb128 0x16
 727 0457 47010000 		.4byte	0x147
 728 045b 16       		.uleb128 0x16
 729 045c 49010000 		.4byte	0x149
 730 0460 16       		.uleb128 0x16
 731 0461 73000000 		.4byte	0x73
 732 0465 00       		.byte	0
 733 0466 05       		.uleb128 0x5
 734 0467 04       		.byte	0x4
 735 0468 71040000 		.4byte	0x471
 736 046c 0F       		.uleb128 0xf
 737 046d 66040000 		.4byte	0x466
 738 0471 17       		.uleb128 0x17
 739 0472 51050000 		.4byte	.LASF70
 740 0476 2804     		.2byte	0x428
 741 0478 07       		.byte	0x7
ARM GAS  C:\Users\mathi\AppData\Local\Temp\ccu7R7Us.s 			page 14


 742 0479 3902     		.2byte	0x239
 743 047b A3050000 		.4byte	0x5a3
 744 047f 18       		.uleb128 0x18
 745 0480 97050000 		.4byte	.LASF71
 746 0484 07       		.byte	0x7
 747 0485 3B02     		.2byte	0x23b
 748 0487 73000000 		.4byte	0x73
 749 048b 00       		.byte	0
 750 048c 18       		.uleb128 0x18
 751 048d 1D010000 		.4byte	.LASF72
 752 0491 07       		.byte	0x7
 753 0492 4002     		.2byte	0x240
 754 0494 78060000 		.4byte	0x678
 755 0498 04       		.byte	0x4
 756 0499 18       		.uleb128 0x18
 757 049a F3010000 		.4byte	.LASF73
 758 049e 07       		.byte	0x7
 759 049f 4002     		.2byte	0x240
 760 04a1 78060000 		.4byte	0x678
 761 04a5 08       		.byte	0x8
 762 04a6 18       		.uleb128 0x18
 763 04a7 AB010000 		.4byte	.LASF74
 764 04ab 07       		.byte	0x7
 765 04ac 4002     		.2byte	0x240
 766 04ae 78060000 		.4byte	0x678
 767 04b2 0C       		.byte	0xc
 768 04b3 18       		.uleb128 0x18
 769 04b4 03050000 		.4byte	.LASF75
 770 04b8 07       		.byte	0x7
 771 04b9 4202     		.2byte	0x242
 772 04bb 73000000 		.4byte	0x73
 773 04bf 10       		.byte	0x10
 774 04c0 18       		.uleb128 0x18
 775 04c1 27000000 		.4byte	.LASF76
 776 04c5 07       		.byte	0x7
 777 04c6 4302     		.2byte	0x243
 778 04c8 5A080000 		.4byte	0x85a
 779 04cc 14       		.byte	0x14
 780 04cd 18       		.uleb128 0x18
 781 04ce 1F050000 		.4byte	.LASF77
 782 04d2 07       		.byte	0x7
 783 04d3 4602     		.2byte	0x246
 784 04d5 73000000 		.4byte	0x73
 785 04d9 30       		.byte	0x30
 786 04da 18       		.uleb128 0x18
 787 04db 0D050000 		.4byte	.LASF78
 788 04df 07       		.byte	0x7
 789 04e0 4702     		.2byte	0x247
 790 04e2 6F080000 		.4byte	0x86f
 791 04e6 34       		.byte	0x34
 792 04e7 18       		.uleb128 0x18
 793 04e8 1D030000 		.4byte	.LASF79
 794 04ec 07       		.byte	0x7
 795 04ed 4902     		.2byte	0x249
 796 04ef 73000000 		.4byte	0x73
 797 04f3 38       		.byte	0x38
 798 04f4 18       		.uleb128 0x18
ARM GAS  C:\Users\mathi\AppData\Local\Temp\ccu7R7Us.s 			page 15


 799 04f5 15050000 		.4byte	.LASF80
 800 04f9 07       		.byte	0x7
 801 04fa 4B02     		.2byte	0x24b
 802 04fc 80080000 		.4byte	0x880
 803 0500 3C       		.byte	0x3c
 804 0501 18       		.uleb128 0x18
 805 0502 AA020000 		.4byte	.LASF81
 806 0506 07       		.byte	0x7
 807 0507 4E02     		.2byte	0x24e
 808 0509 B9010000 		.4byte	0x1b9
 809 050d 40       		.byte	0x40
 810 050e 18       		.uleb128 0x18
 811 050f D0010000 		.4byte	.LASF82
 812 0513 07       		.byte	0x7
 813 0514 4F02     		.2byte	0x24f
 814 0516 73000000 		.4byte	0x73
 815 051a 44       		.byte	0x44
 816 051b 18       		.uleb128 0x18
 817 051c 8C060000 		.4byte	.LASF83
 818 0520 07       		.byte	0x7
 819 0521 5002     		.2byte	0x250
 820 0523 B9010000 		.4byte	0x1b9
 821 0527 48       		.byte	0x48
 822 0528 18       		.uleb128 0x18
 823 0529 73040000 		.4byte	.LASF84
 824 052d 07       		.byte	0x7
 825 052e 5102     		.2byte	0x251
 826 0530 86080000 		.4byte	0x886
 827 0534 4C       		.byte	0x4c
 828 0535 18       		.uleb128 0x18
 829 0536 32000000 		.4byte	.LASF85
 830 053a 07       		.byte	0x7
 831 053b 5402     		.2byte	0x254
 832 053d 73000000 		.4byte	0x73
 833 0541 50       		.byte	0x50
 834 0542 18       		.uleb128 0x18
 835 0543 55010000 		.4byte	.LASF86
 836 0547 07       		.byte	0x7
 837 0548 5502     		.2byte	0x255
 838 054a 49010000 		.4byte	0x149
 839 054e 54       		.byte	0x54
 840 054f 18       		.uleb128 0x18
 841 0550 99040000 		.4byte	.LASF87
 842 0554 07       		.byte	0x7
 843 0555 7802     		.2byte	0x278
 844 0557 38080000 		.4byte	0x838
 845 055b 58       		.byte	0x58
 846 055c 19       		.uleb128 0x19
 847 055d 0B030000 		.4byte	.LASF47
 848 0561 07       		.byte	0x7
 849 0562 7C02     		.2byte	0x27c
 850 0564 D6020000 		.4byte	0x2d6
 851 0568 4801     		.2byte	0x148
 852 056a 19       		.uleb128 0x19
 853 056b 88020000 		.4byte	.LASF88
 854 056f 07       		.byte	0x7
 855 0570 7D02     		.2byte	0x27d
ARM GAS  C:\Users\mathi\AppData\Local\Temp\ccu7R7Us.s 			page 16


 856 0572 98020000 		.4byte	0x298
 857 0576 4C01     		.2byte	0x14c
 858 0578 19       		.uleb128 0x19
 859 0579 40060000 		.4byte	.LASF89
 860 057d 07       		.byte	0x7
 861 057e 8102     		.2byte	0x281
 862 0580 97080000 		.4byte	0x897
 863 0584 DC02     		.2byte	0x2dc
 864 0586 19       		.uleb128 0x19
 865 0587 FD000000 		.4byte	.LASF90
 866 058b 07       		.byte	0x7
 867 058c 8602     		.2byte	0x286
 868 058e 3D060000 		.4byte	0x63d
 869 0592 E002     		.2byte	0x2e0
 870 0594 19       		.uleb128 0x19
 871 0595 E2000000 		.4byte	.LASF91
 872 0599 07       		.byte	0x7
 873 059a 8802     		.2byte	0x288
 874 059c A3080000 		.4byte	0x8a3
 875 05a0 EC02     		.2byte	0x2ec
 876 05a2 00       		.byte	0
 877 05a3 05       		.uleb128 0x5
 878 05a4 04       		.byte	0x4
 879 05a5 48040000 		.4byte	0x448
 880 05a9 15       		.uleb128 0x15
 881 05aa 73000000 		.4byte	0x73
 882 05ae C7050000 		.4byte	0x5c7
 883 05b2 16       		.uleb128 0x16
 884 05b3 66040000 		.4byte	0x466
 885 05b7 16       		.uleb128 0x16
 886 05b8 47010000 		.4byte	0x147
 887 05bc 16       		.uleb128 0x16
 888 05bd C7050000 		.4byte	0x5c7
 889 05c1 16       		.uleb128 0x16
 890 05c2 73000000 		.4byte	0x73
 891 05c6 00       		.byte	0
 892 05c7 05       		.uleb128 0x5
 893 05c8 04       		.byte	0x4
 894 05c9 56010000 		.4byte	0x156
 895 05cd 05       		.uleb128 0x5
 896 05ce 04       		.byte	0x4
 897 05cf A9050000 		.4byte	0x5a9
 898 05d3 15       		.uleb128 0x15
 899 05d4 CA000000 		.4byte	0xca
 900 05d8 F1050000 		.4byte	0x5f1
 901 05dc 16       		.uleb128 0x16
 902 05dd 66040000 		.4byte	0x466
 903 05e1 16       		.uleb128 0x16
 904 05e2 47010000 		.4byte	0x147
 905 05e6 16       		.uleb128 0x16
 906 05e7 CA000000 		.4byte	0xca
 907 05eb 16       		.uleb128 0x16
 908 05ec 73000000 		.4byte	0x73
 909 05f0 00       		.byte	0
 910 05f1 05       		.uleb128 0x5
 911 05f2 04       		.byte	0x4
 912 05f3 D3050000 		.4byte	0x5d3
ARM GAS  C:\Users\mathi\AppData\Local\Temp\ccu7R7Us.s 			page 17


 913 05f7 15       		.uleb128 0x15
 914 05f8 73000000 		.4byte	0x73
 915 05fc 0B060000 		.4byte	0x60b
 916 0600 16       		.uleb128 0x16
 917 0601 66040000 		.4byte	0x466
 918 0605 16       		.uleb128 0x16
 919 0606 47010000 		.4byte	0x147
 920 060a 00       		.byte	0
 921 060b 05       		.uleb128 0x5
 922 060c 04       		.byte	0x4
 923 060d F7050000 		.4byte	0x5f7
 924 0611 0A       		.uleb128 0xa
 925 0612 37000000 		.4byte	0x37
 926 0616 21060000 		.4byte	0x621
 927 061a 0B       		.uleb128 0xb
 928 061b 7A000000 		.4byte	0x7a
 929 061f 02       		.byte	0x2
 930 0620 00       		.byte	0
 931 0621 0A       		.uleb128 0xa
 932 0622 37000000 		.4byte	0x37
 933 0626 31060000 		.4byte	0x631
 934 062a 0B       		.uleb128 0xb
 935 062b 7A000000 		.4byte	0x7a
 936 062f 00       		.byte	0
 937 0630 00       		.byte	0
 938 0631 07       		.uleb128 0x7
 939 0632 C8040000 		.4byte	.LASF92
 940 0636 07       		.byte	0x7
 941 0637 1F01     		.2byte	0x11f
 942 0639 1E030000 		.4byte	0x31e
 943 063d 1A       		.uleb128 0x1a
 944 063e 28060000 		.4byte	.LASF93
 945 0642 0C       		.byte	0xc
 946 0643 07       		.byte	0x7
 947 0644 2301     		.2byte	0x123
 948 0646 72060000 		.4byte	0x672
 949 064a 18       		.uleb128 0x18
 950 064b BB050000 		.4byte	.LASF27
 951 064f 07       		.byte	0x7
 952 0650 2501     		.2byte	0x125
 953 0652 72060000 		.4byte	0x672
 954 0656 00       		.byte	0
 955 0657 18       		.uleb128 0x18
 956 0658 69020000 		.4byte	.LASF94
 957 065c 07       		.byte	0x7
 958 065d 2601     		.2byte	0x126
 959 065f 73000000 		.4byte	0x73
 960 0663 04       		.byte	0x4
 961 0664 18       		.uleb128 0x18
 962 0665 C2040000 		.4byte	.LASF95
 963 0669 07       		.byte	0x7
 964 066a 2701     		.2byte	0x127
 965 066c 78060000 		.4byte	0x678
 966 0670 08       		.byte	0x8
 967 0671 00       		.byte	0
 968 0672 05       		.uleb128 0x5
 969 0673 04       		.byte	0x4
ARM GAS  C:\Users\mathi\AppData\Local\Temp\ccu7R7Us.s 			page 18


 970 0674 3D060000 		.4byte	0x63d
 971 0678 05       		.uleb128 0x5
 972 0679 04       		.byte	0x4
 973 067a 31060000 		.4byte	0x631
 974 067e 1A       		.uleb128 0x1a
 975 067f 1F000000 		.4byte	.LASF96
 976 0683 0E       		.byte	0xe
 977 0684 07       		.byte	0x7
 978 0685 3F01     		.2byte	0x13f
 979 0687 B3060000 		.4byte	0x6b3
 980 068b 18       		.uleb128 0x18
 981 068c 58050000 		.4byte	.LASF97
 982 0690 07       		.byte	0x7
 983 0691 4001     		.2byte	0x140
 984 0693 B3060000 		.4byte	0x6b3
 985 0697 00       		.byte	0
 986 0698 18       		.uleb128 0x18
 987 0699 B5050000 		.4byte	.LASF98
 988 069d 07       		.byte	0x7
 989 069e 4101     		.2byte	0x141
 990 06a0 B3060000 		.4byte	0x6b3
 991 06a4 06       		.byte	0x6
 992 06a5 18       		.uleb128 0x18
 993 06a6 DF050000 		.4byte	.LASF99
 994 06aa 07       		.byte	0x7
 995 06ab 4201     		.2byte	0x142
 996 06ad 45000000 		.4byte	0x45
 997 06b1 0C       		.byte	0xc
 998 06b2 00       		.byte	0
 999 06b3 0A       		.uleb128 0xa
 1000 06b4 45000000 		.4byte	0x45
 1001 06b8 C3060000 		.4byte	0x6c3
 1002 06bc 0B       		.uleb128 0xb
 1003 06bd 7A000000 		.4byte	0x7a
 1004 06c1 02       		.byte	0x2
 1005 06c2 00       		.byte	0
 1006 06c3 1B       		.uleb128 0x1b
 1007 06c4 D0       		.byte	0xd0
 1008 06c5 07       		.byte	0x7
 1009 06c6 5902     		.2byte	0x259
 1010 06c8 C4070000 		.4byte	0x7c4
 1011 06cc 18       		.uleb128 0x18
 1012 06cd 0C060000 		.4byte	.LASF100
 1013 06d1 07       		.byte	0x7
 1014 06d2 5B02     		.2byte	0x25b
 1015 06d4 7A000000 		.4byte	0x7a
 1016 06d8 00       		.byte	0
 1017 06d9 18       		.uleb128 0x18
 1018 06da C1050000 		.4byte	.LASF101
 1019 06de 07       		.byte	0x7
 1020 06df 5C02     		.2byte	0x25c
 1021 06e1 49010000 		.4byte	0x149
 1022 06e5 04       		.byte	0x4
 1023 06e6 18       		.uleb128 0x18
 1024 06e7 9D020000 		.4byte	.LASF102
 1025 06eb 07       		.byte	0x7
 1026 06ec 5D02     		.2byte	0x25d
ARM GAS  C:\Users\mathi\AppData\Local\Temp\ccu7R7Us.s 			page 19


 1027 06ee C4070000 		.4byte	0x7c4
 1028 06f2 08       		.byte	0x8
 1029 06f3 18       		.uleb128 0x18
 1030 06f4 63060000 		.4byte	.LASF103
 1031 06f8 07       		.byte	0x7
 1032 06f9 5E02     		.2byte	0x25e
 1033 06fb CF010000 		.4byte	0x1cf
 1034 06ff 24       		.byte	0x24
 1035 0700 18       		.uleb128 0x18
 1036 0701 BB010000 		.4byte	.LASF104
 1037 0705 07       		.byte	0x7
 1038 0706 5F02     		.2byte	0x25f
 1039 0708 73000000 		.4byte	0x73
 1040 070c 48       		.byte	0x48
 1041 070d 18       		.uleb128 0x18
 1042 070e EB040000 		.4byte	.LASF105
 1043 0712 07       		.byte	0x7
 1044 0713 6002     		.2byte	0x260
 1045 0715 6C000000 		.4byte	0x6c
 1046 0719 50       		.byte	0x50
 1047 071a 18       		.uleb128 0x18
 1048 071b 79060000 		.4byte	.LASF106
 1049 071f 07       		.byte	0x7
 1050 0720 6102     		.2byte	0x261
 1051 0722 7E060000 		.4byte	0x67e
 1052 0726 58       		.byte	0x58
 1053 0727 18       		.uleb128 0x18
 1054 0728 F6040000 		.4byte	.LASF107
 1055 072c 07       		.byte	0x7
 1056 072d 6202     		.2byte	0x262
 1057 072f 31010000 		.4byte	0x131
 1058 0733 68       		.byte	0x68
 1059 0734 18       		.uleb128 0x18
 1060 0735 7E060000 		.4byte	.LASF108
 1061 0739 07       		.byte	0x7
 1062 073a 6302     		.2byte	0x263
 1063 073c 31010000 		.4byte	0x131
 1064 0740 70       		.byte	0x70
 1065 0741 18       		.uleb128 0x18
 1066 0742 7D040000 		.4byte	.LASF109
 1067 0746 07       		.byte	0x7
 1068 0747 6402     		.2byte	0x264
 1069 0749 31010000 		.4byte	0x131
 1070 074d 78       		.byte	0x78
 1071 074e 18       		.uleb128 0x18
 1072 074f 36060000 		.4byte	.LASF110
 1073 0753 07       		.byte	0x7
 1074 0754 6502     		.2byte	0x265
 1075 0756 D4070000 		.4byte	0x7d4
 1076 075a 80       		.byte	0x80
 1077 075b 18       		.uleb128 0x18
 1078 075c 91020000 		.4byte	.LASF111
 1079 0760 07       		.byte	0x7
 1080 0761 6602     		.2byte	0x266
 1081 0763 E4070000 		.4byte	0x7e4
 1082 0767 88       		.byte	0x88
 1083 0768 18       		.uleb128 0x18
ARM GAS  C:\Users\mathi\AppData\Local\Temp\ccu7R7Us.s 			page 20


 1084 0769 EC050000 		.4byte	.LASF112
 1085 076d 07       		.byte	0x7
 1086 076e 6702     		.2byte	0x267
 1087 0770 73000000 		.4byte	0x73
 1088 0774 A0       		.byte	0xa0
 1089 0775 18       		.uleb128 0x18
 1090 0776 76010000 		.4byte	.LASF113
 1091 077a 07       		.byte	0x7
 1092 077b 6802     		.2byte	0x268
 1093 077d 31010000 		.4byte	0x131
 1094 0781 A4       		.byte	0xa4
 1095 0782 18       		.uleb128 0x18
 1096 0783 9A000000 		.4byte	.LASF114
 1097 0787 07       		.byte	0x7
 1098 0788 6902     		.2byte	0x269
 1099 078a 31010000 		.4byte	0x131
 1100 078e AC       		.byte	0xac
 1101 078f 18       		.uleb128 0x18
 1102 0790 65010000 		.4byte	.LASF115
 1103 0794 07       		.byte	0x7
 1104 0795 6A02     		.2byte	0x26a
 1105 0797 31010000 		.4byte	0x131
 1106 079b B4       		.byte	0xb4
 1107 079c 18       		.uleb128 0x18
 1108 079d 4F000000 		.4byte	.LASF116
 1109 07a1 07       		.byte	0x7
 1110 07a2 6B02     		.2byte	0x26b
 1111 07a4 31010000 		.4byte	0x131
 1112 07a8 BC       		.byte	0xbc
 1113 07a9 18       		.uleb128 0x18
 1114 07aa 5E000000 		.4byte	.LASF117
 1115 07ae 07       		.byte	0x7
 1116 07af 6C02     		.2byte	0x26c
 1117 07b1 31010000 		.4byte	0x131
 1118 07b5 C4       		.byte	0xc4
 1119 07b6 18       		.uleb128 0x18
 1120 07b7 9E040000 		.4byte	.LASF118
 1121 07bb 07       		.byte	0x7
 1122 07bc 6D02     		.2byte	0x26d
 1123 07be 73000000 		.4byte	0x73
 1124 07c2 CC       		.byte	0xcc
 1125 07c3 00       		.byte	0
 1126 07c4 0A       		.uleb128 0xa
 1127 07c5 4F010000 		.4byte	0x14f
 1128 07c9 D4070000 		.4byte	0x7d4
 1129 07cd 0B       		.uleb128 0xb
 1130 07ce 7A000000 		.4byte	0x7a
 1131 07d2 19       		.byte	0x19
 1132 07d3 00       		.byte	0
 1133 07d4 0A       		.uleb128 0xa
 1134 07d5 4F010000 		.4byte	0x14f
 1135 07d9 E4070000 		.4byte	0x7e4
 1136 07dd 0B       		.uleb128 0xb
 1137 07de 7A000000 		.4byte	0x7a
 1138 07e2 07       		.byte	0x7
 1139 07e3 00       		.byte	0
 1140 07e4 0A       		.uleb128 0xa
ARM GAS  C:\Users\mathi\AppData\Local\Temp\ccu7R7Us.s 			page 21


 1141 07e5 4F010000 		.4byte	0x14f
 1142 07e9 F4070000 		.4byte	0x7f4
 1143 07ed 0B       		.uleb128 0xb
 1144 07ee 7A000000 		.4byte	0x7a
 1145 07f2 17       		.byte	0x17
 1146 07f3 00       		.byte	0
 1147 07f4 1B       		.uleb128 0x1b
 1148 07f5 F0       		.byte	0xf0
 1149 07f6 07       		.byte	0x7
 1150 07f7 7202     		.2byte	0x272
 1151 07f9 18080000 		.4byte	0x818
 1152 07fd 18       		.uleb128 0x18
 1153 07fe FB020000 		.4byte	.LASF119
 1154 0802 07       		.byte	0x7
 1155 0803 7502     		.2byte	0x275
 1156 0805 18080000 		.4byte	0x818
 1157 0809 00       		.byte	0
 1158 080a 18       		.uleb128 0x18
 1159 080b E6020000 		.4byte	.LASF120
 1160 080f 07       		.byte	0x7
 1161 0810 7602     		.2byte	0x276
 1162 0812 28080000 		.4byte	0x828
 1163 0816 78       		.byte	0x78
 1164 0817 00       		.byte	0
 1165 0818 0A       		.uleb128 0xa
 1166 0819 18030000 		.4byte	0x318
 1167 081d 28080000 		.4byte	0x828
 1168 0821 0B       		.uleb128 0xb
 1169 0822 7A000000 		.4byte	0x7a
 1170 0826 1D       		.byte	0x1d
 1171 0827 00       		.byte	0
 1172 0828 0A       		.uleb128 0xa
 1173 0829 7A000000 		.4byte	0x7a
 1174 082d 38080000 		.4byte	0x838
 1175 0831 0B       		.uleb128 0xb
 1176 0832 7A000000 		.4byte	0x7a
 1177 0836 1D       		.byte	0x1d
 1178 0837 00       		.byte	0
 1179 0838 1C       		.uleb128 0x1c
 1180 0839 F0       		.byte	0xf0
 1181 083a 07       		.byte	0x7
 1182 083b 5702     		.2byte	0x257
 1183 083d 5A080000 		.4byte	0x85a
 1184 0841 1D       		.uleb128 0x1d
 1185 0842 51050000 		.4byte	.LASF70
 1186 0846 07       		.byte	0x7
 1187 0847 6E02     		.2byte	0x26e
 1188 0849 C3060000 		.4byte	0x6c3
 1189 084d 1D       		.uleb128 0x1d
 1190 084e 50060000 		.4byte	.LASF121
 1191 0852 07       		.byte	0x7
 1192 0853 7702     		.2byte	0x277
 1193 0855 F4070000 		.4byte	0x7f4
 1194 0859 00       		.byte	0
 1195 085a 0A       		.uleb128 0xa
 1196 085b 4F010000 		.4byte	0x14f
 1197 085f 6A080000 		.4byte	0x86a
ARM GAS  C:\Users\mathi\AppData\Local\Temp\ccu7R7Us.s 			page 22


 1198 0863 0B       		.uleb128 0xb
 1199 0864 7A000000 		.4byte	0x7a
 1200 0868 18       		.byte	0x18
 1201 0869 00       		.byte	0
 1202 086a 06       		.uleb128 0x6
 1203 086b 8F000000 		.4byte	.LASF123
 1204 086f 05       		.uleb128 0x5
 1205 0870 04       		.byte	0x4
 1206 0871 6A080000 		.4byte	0x86a
 1207 0875 1E       		.uleb128 0x1e
 1208 0876 80080000 		.4byte	0x880
 1209 087a 16       		.uleb128 0x16
 1210 087b 66040000 		.4byte	0x466
 1211 087f 00       		.byte	0
 1212 0880 05       		.uleb128 0x5
 1213 0881 04       		.byte	0x4
 1214 0882 75080000 		.4byte	0x875
 1215 0886 05       		.uleb128 0x5
 1216 0887 04       		.byte	0x4
 1217 0888 B9010000 		.4byte	0x1b9
 1218 088c 1E       		.uleb128 0x1e
 1219 088d 97080000 		.4byte	0x897
 1220 0891 16       		.uleb128 0x16
 1221 0892 73000000 		.4byte	0x73
 1222 0896 00       		.byte	0
 1223 0897 05       		.uleb128 0x5
 1224 0898 04       		.byte	0x4
 1225 0899 9D080000 		.4byte	0x89d
 1226 089d 05       		.uleb128 0x5
 1227 089e 04       		.byte	0x4
 1228 089f 8C080000 		.4byte	0x88c
 1229 08a3 0A       		.uleb128 0xa
 1230 08a4 31060000 		.4byte	0x631
 1231 08a8 B3080000 		.4byte	0x8b3
 1232 08ac 0B       		.uleb128 0xb
 1233 08ad 7A000000 		.4byte	0x7a
 1234 08b1 02       		.byte	0x2
 1235 08b2 00       		.byte	0
 1236 08b3 1F       		.uleb128 0x1f
 1237 08b4 7C050000 		.4byte	.LASF124
 1238 08b8 07       		.byte	0x7
 1239 08b9 0703     		.2byte	0x307
 1240 08bb 66040000 		.4byte	0x466
 1241 08bf 1F       		.uleb128 0x1f
 1242 08c0 F9050000 		.4byte	.LASF125
 1243 08c4 07       		.byte	0x7
 1244 08c5 0803     		.2byte	0x308
 1245 08c7 6C040000 		.4byte	0x46c
 1246 08cb 05       		.uleb128 0x5
 1247 08cc 04       		.byte	0x4
 1248 08cd D1080000 		.4byte	0x8d1
 1249 08d1 20       		.uleb128 0x20
 1250 08d2 21       		.uleb128 0x21
 1251 08d3 13030000 		.4byte	.LASF126
 1252 08d7 08       		.byte	0x8
 1253 08d8 63       		.byte	0x63
 1254 08d9 49010000 		.4byte	0x149
ARM GAS  C:\Users\mathi\AppData\Local\Temp\ccu7R7Us.s 			page 23


 1255 08dd 22       		.uleb128 0x22
 1256 08de 19000000 		.4byte	.LASF133
 1257 08e2 01       		.byte	0x1
 1258 08e3 07       		.byte	0x7
 1259 08e4 8C000000 		.4byte	0x8c
 1260 08e8 00000000 		.4byte	.LFB0
 1261 08ec AC000000 		.4byte	.LFE0-.LFB0
 1262 08f0 01       		.uleb128 0x1
 1263 08f1 9C       		.byte	0x9c
 1264 08f2 73090000 		.4byte	0x973
 1265 08f6 23       		.uleb128 0x23
 1266 08f7 4A000000 		.4byte	.LASF127
 1267 08fb 01       		.byte	0x1
 1268 08fc 07       		.byte	0x7
 1269 08fd 8C000000 		.4byte	0x8c
 1270 0901 00000000 		.4byte	.LLST0
 1271 0905 23       		.uleb128 0x23
 1272 0906 70020000 		.4byte	.LASF128
 1273 090a 01       		.byte	0x1
 1274 090b 07       		.byte	0x7
 1275 090c CB080000 		.4byte	0x8cb
 1276 0910 2F000000 		.4byte	.LLST1
 1277 0914 23       		.uleb128 0x23
 1278 0915 90050000 		.4byte	.LASF129
 1279 0919 01       		.byte	0x1
 1280 091a 07       		.byte	0x7
 1281 091b 97000000 		.4byte	0x97
 1282 091f 50000000 		.4byte	.LLST2
 1283 0923 24       		.uleb128 0x24
 1284 0924 7000     		.ascii	"p\000"
 1285 0926 01       		.byte	0x1
 1286 0927 09       		.byte	0x9
 1287 0928 73090000 		.4byte	0x973
 1288 092c 7E000000 		.4byte	.LLST3
 1289 0930 24       		.uleb128 0x24
 1290 0931 63726300 		.ascii	"crc\000"
 1291 0935 01       		.byte	0x1
 1292 0936 0A       		.byte	0xa
 1293 0937 8C000000 		.4byte	0x8c
 1294 093b 9F000000 		.4byte	.LLST4
 1295 093f 24       		.uleb128 0x24
 1296 0940 6900     		.ascii	"i\000"
 1297 0942 01       		.byte	0x1
 1298 0943 0B       		.byte	0xb
 1299 0944 97000000 		.4byte	0x97
 1300 0948 18010000 		.4byte	.LLST5
 1301 094c 25       		.uleb128 0x25
 1302 094d 12000000 		.4byte	.LBB2
 1303 0951 7A000000 		.4byte	.LBE2-.LBB2
 1304 0955 69090000 		.4byte	0x969
 1305 0959 24       		.uleb128 0x24
 1306 095a 62697400 		.ascii	"bit\000"
 1307 095e 01       		.byte	0x1
 1308 095f 0D       		.byte	0xd
 1309 0960 73000000 		.4byte	0x73
 1310 0964 63010000 		.4byte	.LLST6
 1311 0968 00       		.byte	0
ARM GAS  C:\Users\mathi\AppData\Local\Temp\ccu7R7Us.s 			page 24


 1312 0969 26       		.uleb128 0x26
 1313 096a A4000000 		.4byte	.LVL25
 1314 096e 79090000 		.4byte	0x979
 1315 0972 00       		.byte	0
 1316 0973 05       		.uleb128 0x5
 1317 0974 04       		.byte	0x4
 1318 0975 81000000 		.4byte	0x81
 1319 0979 27       		.uleb128 0x27
 1320 097a 38050000 		.4byte	.LASF134
 1321 097e 38050000 		.4byte	.LASF134
 1322 0982 00       		.byte	0
 1323              		.section	.debug_abbrev,"",%progbits
 1324              	.Ldebug_abbrev0:
 1325 0000 01       		.uleb128 0x1
 1326 0001 11       		.uleb128 0x11
 1327 0002 01       		.byte	0x1
 1328 0003 25       		.uleb128 0x25
 1329 0004 0E       		.uleb128 0xe
 1330 0005 13       		.uleb128 0x13
 1331 0006 0B       		.uleb128 0xb
 1332 0007 03       		.uleb128 0x3
 1333 0008 0E       		.uleb128 0xe
 1334 0009 1B       		.uleb128 0x1b
 1335 000a 0E       		.uleb128 0xe
 1336 000b 55       		.uleb128 0x55
 1337 000c 17       		.uleb128 0x17
 1338 000d 11       		.uleb128 0x11
 1339 000e 01       		.uleb128 0x1
 1340 000f 10       		.uleb128 0x10
 1341 0010 17       		.uleb128 0x17
 1342 0011 00       		.byte	0
 1343 0012 00       		.byte	0
 1344 0013 02       		.uleb128 0x2
 1345 0014 24       		.uleb128 0x24
 1346 0015 00       		.byte	0
 1347 0016 0B       		.uleb128 0xb
 1348 0017 0B       		.uleb128 0xb
 1349 0018 3E       		.uleb128 0x3e
 1350 0019 0B       		.uleb128 0xb
 1351 001a 03       		.uleb128 0x3
 1352 001b 0E       		.uleb128 0xe
 1353 001c 00       		.byte	0
 1354 001d 00       		.byte	0
 1355 001e 03       		.uleb128 0x3
 1356 001f 16       		.uleb128 0x16
 1357 0020 00       		.byte	0
 1358 0021 03       		.uleb128 0x3
 1359 0022 0E       		.uleb128 0xe
 1360 0023 3A       		.uleb128 0x3a
 1361 0024 0B       		.uleb128 0xb
 1362 0025 3B       		.uleb128 0x3b
 1363 0026 0B       		.uleb128 0xb
 1364 0027 49       		.uleb128 0x49
 1365 0028 13       		.uleb128 0x13
 1366 0029 00       		.byte	0
 1367 002a 00       		.byte	0
 1368 002b 04       		.uleb128 0x4
ARM GAS  C:\Users\mathi\AppData\Local\Temp\ccu7R7Us.s 			page 25


 1369 002c 24       		.uleb128 0x24
 1370 002d 00       		.byte	0
 1371 002e 0B       		.uleb128 0xb
 1372 002f 0B       		.uleb128 0xb
 1373 0030 3E       		.uleb128 0x3e
 1374 0031 0B       		.uleb128 0xb
 1375 0032 03       		.uleb128 0x3
 1376 0033 08       		.uleb128 0x8
 1377 0034 00       		.byte	0
 1378 0035 00       		.byte	0
 1379 0036 05       		.uleb128 0x5
 1380 0037 0F       		.uleb128 0xf
 1381 0038 00       		.byte	0
 1382 0039 0B       		.uleb128 0xb
 1383 003a 0B       		.uleb128 0xb
 1384 003b 49       		.uleb128 0x49
 1385 003c 13       		.uleb128 0x13
 1386 003d 00       		.byte	0
 1387 003e 00       		.byte	0
 1388 003f 06       		.uleb128 0x6
 1389 0040 13       		.uleb128 0x13
 1390 0041 00       		.byte	0
 1391 0042 03       		.uleb128 0x3
 1392 0043 0E       		.uleb128 0xe
 1393 0044 3C       		.uleb128 0x3c
 1394 0045 19       		.uleb128 0x19
 1395 0046 00       		.byte	0
 1396 0047 00       		.byte	0
 1397 0048 07       		.uleb128 0x7
 1398 0049 16       		.uleb128 0x16
 1399 004a 00       		.byte	0
 1400 004b 03       		.uleb128 0x3
 1401 004c 0E       		.uleb128 0xe
 1402 004d 3A       		.uleb128 0x3a
 1403 004e 0B       		.uleb128 0xb
 1404 004f 3B       		.uleb128 0x3b
 1405 0050 05       		.uleb128 0x5
 1406 0051 49       		.uleb128 0x49
 1407 0052 13       		.uleb128 0x13
 1408 0053 00       		.byte	0
 1409 0054 00       		.byte	0
 1410 0055 08       		.uleb128 0x8
 1411 0056 17       		.uleb128 0x17
 1412 0057 01       		.byte	0x1
 1413 0058 0B       		.uleb128 0xb
 1414 0059 0B       		.uleb128 0xb
 1415 005a 3A       		.uleb128 0x3a
 1416 005b 0B       		.uleb128 0xb
 1417 005c 3B       		.uleb128 0x3b
 1418 005d 0B       		.uleb128 0xb
 1419 005e 01       		.uleb128 0x1
 1420 005f 13       		.uleb128 0x13
 1421 0060 00       		.byte	0
 1422 0061 00       		.byte	0
 1423 0062 09       		.uleb128 0x9
 1424 0063 0D       		.uleb128 0xd
 1425 0064 00       		.byte	0
ARM GAS  C:\Users\mathi\AppData\Local\Temp\ccu7R7Us.s 			page 26


 1426 0065 03       		.uleb128 0x3
 1427 0066 0E       		.uleb128 0xe
 1428 0067 3A       		.uleb128 0x3a
 1429 0068 0B       		.uleb128 0xb
 1430 0069 3B       		.uleb128 0x3b
 1431 006a 0B       		.uleb128 0xb
 1432 006b 49       		.uleb128 0x49
 1433 006c 13       		.uleb128 0x13
 1434 006d 00       		.byte	0
 1435 006e 00       		.byte	0
 1436 006f 0A       		.uleb128 0xa
 1437 0070 01       		.uleb128 0x1
 1438 0071 01       		.byte	0x1
 1439 0072 49       		.uleb128 0x49
 1440 0073 13       		.uleb128 0x13
 1441 0074 01       		.uleb128 0x1
 1442 0075 13       		.uleb128 0x13
 1443 0076 00       		.byte	0
 1444 0077 00       		.byte	0
 1445 0078 0B       		.uleb128 0xb
 1446 0079 21       		.uleb128 0x21
 1447 007a 00       		.byte	0
 1448 007b 49       		.uleb128 0x49
 1449 007c 13       		.uleb128 0x13
 1450 007d 2F       		.uleb128 0x2f
 1451 007e 0B       		.uleb128 0xb
 1452 007f 00       		.byte	0
 1453 0080 00       		.byte	0
 1454 0081 0C       		.uleb128 0xc
 1455 0082 13       		.uleb128 0x13
 1456 0083 01       		.byte	0x1
 1457 0084 0B       		.uleb128 0xb
 1458 0085 0B       		.uleb128 0xb
 1459 0086 3A       		.uleb128 0x3a
 1460 0087 0B       		.uleb128 0xb
 1461 0088 3B       		.uleb128 0x3b
 1462 0089 0B       		.uleb128 0xb
 1463 008a 01       		.uleb128 0x1
 1464 008b 13       		.uleb128 0x13
 1465 008c 00       		.byte	0
 1466 008d 00       		.byte	0
 1467 008e 0D       		.uleb128 0xd
 1468 008f 0D       		.uleb128 0xd
 1469 0090 00       		.byte	0
 1470 0091 03       		.uleb128 0x3
 1471 0092 0E       		.uleb128 0xe
 1472 0093 3A       		.uleb128 0x3a
 1473 0094 0B       		.uleb128 0xb
 1474 0095 3B       		.uleb128 0x3b
 1475 0096 0B       		.uleb128 0xb
 1476 0097 49       		.uleb128 0x49
 1477 0098 13       		.uleb128 0x13
 1478 0099 38       		.uleb128 0x38
 1479 009a 0B       		.uleb128 0xb
 1480 009b 00       		.byte	0
 1481 009c 00       		.byte	0
 1482 009d 0E       		.uleb128 0xe
ARM GAS  C:\Users\mathi\AppData\Local\Temp\ccu7R7Us.s 			page 27


 1483 009e 0F       		.uleb128 0xf
 1484 009f 00       		.byte	0
 1485 00a0 0B       		.uleb128 0xb
 1486 00a1 0B       		.uleb128 0xb
 1487 00a2 00       		.byte	0
 1488 00a3 00       		.byte	0
 1489 00a4 0F       		.uleb128 0xf
 1490 00a5 26       		.uleb128 0x26
 1491 00a6 00       		.byte	0
 1492 00a7 49       		.uleb128 0x49
 1493 00a8 13       		.uleb128 0x13
 1494 00a9 00       		.byte	0
 1495 00aa 00       		.byte	0
 1496 00ab 10       		.uleb128 0x10
 1497 00ac 13       		.uleb128 0x13
 1498 00ad 01       		.byte	0x1
 1499 00ae 03       		.uleb128 0x3
 1500 00af 0E       		.uleb128 0xe
 1501 00b0 0B       		.uleb128 0xb
 1502 00b1 0B       		.uleb128 0xb
 1503 00b2 3A       		.uleb128 0x3a
 1504 00b3 0B       		.uleb128 0xb
 1505 00b4 3B       		.uleb128 0x3b
 1506 00b5 0B       		.uleb128 0xb
 1507 00b6 01       		.uleb128 0x1
 1508 00b7 13       		.uleb128 0x13
 1509 00b8 00       		.byte	0
 1510 00b9 00       		.byte	0
 1511 00ba 11       		.uleb128 0x11
 1512 00bb 0D       		.uleb128 0xd
 1513 00bc 00       		.byte	0
 1514 00bd 03       		.uleb128 0x3
 1515 00be 08       		.uleb128 0x8
 1516 00bf 3A       		.uleb128 0x3a
 1517 00c0 0B       		.uleb128 0xb
 1518 00c1 3B       		.uleb128 0x3b
 1519 00c2 0B       		.uleb128 0xb
 1520 00c3 49       		.uleb128 0x49
 1521 00c4 13       		.uleb128 0x13
 1522 00c5 38       		.uleb128 0x38
 1523 00c6 0B       		.uleb128 0xb
 1524 00c7 00       		.byte	0
 1525 00c8 00       		.byte	0
 1526 00c9 12       		.uleb128 0x12
 1527 00ca 13       		.uleb128 0x13
 1528 00cb 01       		.byte	0x1
 1529 00cc 03       		.uleb128 0x3
 1530 00cd 0E       		.uleb128 0xe
 1531 00ce 0B       		.uleb128 0xb
 1532 00cf 05       		.uleb128 0x5
 1533 00d0 3A       		.uleb128 0x3a
 1534 00d1 0B       		.uleb128 0xb
 1535 00d2 3B       		.uleb128 0x3b
 1536 00d3 0B       		.uleb128 0xb
 1537 00d4 01       		.uleb128 0x1
 1538 00d5 13       		.uleb128 0x13
 1539 00d6 00       		.byte	0
ARM GAS  C:\Users\mathi\AppData\Local\Temp\ccu7R7Us.s 			page 28


 1540 00d7 00       		.byte	0
 1541 00d8 13       		.uleb128 0x13
 1542 00d9 0D       		.uleb128 0xd
 1543 00da 00       		.byte	0
 1544 00db 03       		.uleb128 0x3
 1545 00dc 0E       		.uleb128 0xe
 1546 00dd 3A       		.uleb128 0x3a
 1547 00de 0B       		.uleb128 0xb
 1548 00df 3B       		.uleb128 0x3b
 1549 00e0 0B       		.uleb128 0xb
 1550 00e1 49       		.uleb128 0x49
 1551 00e2 13       		.uleb128 0x13
 1552 00e3 38       		.uleb128 0x38
 1553 00e4 05       		.uleb128 0x5
 1554 00e5 00       		.byte	0
 1555 00e6 00       		.byte	0
 1556 00e7 14       		.uleb128 0x14
 1557 00e8 15       		.uleb128 0x15
 1558 00e9 00       		.byte	0
 1559 00ea 27       		.uleb128 0x27
 1560 00eb 19       		.uleb128 0x19
 1561 00ec 00       		.byte	0
 1562 00ed 00       		.byte	0
 1563 00ee 15       		.uleb128 0x15
 1564 00ef 15       		.uleb128 0x15
 1565 00f0 01       		.byte	0x1
 1566 00f1 27       		.uleb128 0x27
 1567 00f2 19       		.uleb128 0x19
 1568 00f3 49       		.uleb128 0x49
 1569 00f4 13       		.uleb128 0x13
 1570 00f5 01       		.uleb128 0x1
 1571 00f6 13       		.uleb128 0x13
 1572 00f7 00       		.byte	0
 1573 00f8 00       		.byte	0
 1574 00f9 16       		.uleb128 0x16
 1575 00fa 05       		.uleb128 0x5
 1576 00fb 00       		.byte	0
 1577 00fc 49       		.uleb128 0x49
 1578 00fd 13       		.uleb128 0x13
 1579 00fe 00       		.byte	0
 1580 00ff 00       		.byte	0
 1581 0100 17       		.uleb128 0x17
 1582 0101 13       		.uleb128 0x13
 1583 0102 01       		.byte	0x1
 1584 0103 03       		.uleb128 0x3
 1585 0104 0E       		.uleb128 0xe
 1586 0105 0B       		.uleb128 0xb
 1587 0106 05       		.uleb128 0x5
 1588 0107 3A       		.uleb128 0x3a
 1589 0108 0B       		.uleb128 0xb
 1590 0109 3B       		.uleb128 0x3b
 1591 010a 05       		.uleb128 0x5
 1592 010b 01       		.uleb128 0x1
 1593 010c 13       		.uleb128 0x13
 1594 010d 00       		.byte	0
 1595 010e 00       		.byte	0
 1596 010f 18       		.uleb128 0x18
ARM GAS  C:\Users\mathi\AppData\Local\Temp\ccu7R7Us.s 			page 29


 1597 0110 0D       		.uleb128 0xd
 1598 0111 00       		.byte	0
 1599 0112 03       		.uleb128 0x3
 1600 0113 0E       		.uleb128 0xe
 1601 0114 3A       		.uleb128 0x3a
 1602 0115 0B       		.uleb128 0xb
 1603 0116 3B       		.uleb128 0x3b
 1604 0117 05       		.uleb128 0x5
 1605 0118 49       		.uleb128 0x49
 1606 0119 13       		.uleb128 0x13
 1607 011a 38       		.uleb128 0x38
 1608 011b 0B       		.uleb128 0xb
 1609 011c 00       		.byte	0
 1610 011d 00       		.byte	0
 1611 011e 19       		.uleb128 0x19
 1612 011f 0D       		.uleb128 0xd
 1613 0120 00       		.byte	0
 1614 0121 03       		.uleb128 0x3
 1615 0122 0E       		.uleb128 0xe
 1616 0123 3A       		.uleb128 0x3a
 1617 0124 0B       		.uleb128 0xb
 1618 0125 3B       		.uleb128 0x3b
 1619 0126 05       		.uleb128 0x5
 1620 0127 49       		.uleb128 0x49
 1621 0128 13       		.uleb128 0x13
 1622 0129 38       		.uleb128 0x38
 1623 012a 05       		.uleb128 0x5
 1624 012b 00       		.byte	0
 1625 012c 00       		.byte	0
 1626 012d 1A       		.uleb128 0x1a
 1627 012e 13       		.uleb128 0x13
 1628 012f 01       		.byte	0x1
 1629 0130 03       		.uleb128 0x3
 1630 0131 0E       		.uleb128 0xe
 1631 0132 0B       		.uleb128 0xb
 1632 0133 0B       		.uleb128 0xb
 1633 0134 3A       		.uleb128 0x3a
 1634 0135 0B       		.uleb128 0xb
 1635 0136 3B       		.uleb128 0x3b
 1636 0137 05       		.uleb128 0x5
 1637 0138 01       		.uleb128 0x1
 1638 0139 13       		.uleb128 0x13
 1639 013a 00       		.byte	0
 1640 013b 00       		.byte	0
 1641 013c 1B       		.uleb128 0x1b
 1642 013d 13       		.uleb128 0x13
 1643 013e 01       		.byte	0x1
 1644 013f 0B       		.uleb128 0xb
 1645 0140 0B       		.uleb128 0xb
 1646 0141 3A       		.uleb128 0x3a
 1647 0142 0B       		.uleb128 0xb
 1648 0143 3B       		.uleb128 0x3b
 1649 0144 05       		.uleb128 0x5
 1650 0145 01       		.uleb128 0x1
 1651 0146 13       		.uleb128 0x13
 1652 0147 00       		.byte	0
 1653 0148 00       		.byte	0
ARM GAS  C:\Users\mathi\AppData\Local\Temp\ccu7R7Us.s 			page 30


 1654 0149 1C       		.uleb128 0x1c
 1655 014a 17       		.uleb128 0x17
 1656 014b 01       		.byte	0x1
 1657 014c 0B       		.uleb128 0xb
 1658 014d 0B       		.uleb128 0xb
 1659 014e 3A       		.uleb128 0x3a
 1660 014f 0B       		.uleb128 0xb
 1661 0150 3B       		.uleb128 0x3b
 1662 0151 05       		.uleb128 0x5
 1663 0152 01       		.uleb128 0x1
 1664 0153 13       		.uleb128 0x13
 1665 0154 00       		.byte	0
 1666 0155 00       		.byte	0
 1667 0156 1D       		.uleb128 0x1d
 1668 0157 0D       		.uleb128 0xd
 1669 0158 00       		.byte	0
 1670 0159 03       		.uleb128 0x3
 1671 015a 0E       		.uleb128 0xe
 1672 015b 3A       		.uleb128 0x3a
 1673 015c 0B       		.uleb128 0xb
 1674 015d 3B       		.uleb128 0x3b
 1675 015e 05       		.uleb128 0x5
 1676 015f 49       		.uleb128 0x49
 1677 0160 13       		.uleb128 0x13
 1678 0161 00       		.byte	0
 1679 0162 00       		.byte	0
 1680 0163 1E       		.uleb128 0x1e
 1681 0164 15       		.uleb128 0x15
 1682 0165 01       		.byte	0x1
 1683 0166 27       		.uleb128 0x27
 1684 0167 19       		.uleb128 0x19
 1685 0168 01       		.uleb128 0x1
 1686 0169 13       		.uleb128 0x13
 1687 016a 00       		.byte	0
 1688 016b 00       		.byte	0
 1689 016c 1F       		.uleb128 0x1f
 1690 016d 34       		.uleb128 0x34
 1691 016e 00       		.byte	0
 1692 016f 03       		.uleb128 0x3
 1693 0170 0E       		.uleb128 0xe
 1694 0171 3A       		.uleb128 0x3a
 1695 0172 0B       		.uleb128 0xb
 1696 0173 3B       		.uleb128 0x3b
 1697 0174 05       		.uleb128 0x5
 1698 0175 49       		.uleb128 0x49
 1699 0176 13       		.uleb128 0x13
 1700 0177 3F       		.uleb128 0x3f
 1701 0178 19       		.uleb128 0x19
 1702 0179 3C       		.uleb128 0x3c
 1703 017a 19       		.uleb128 0x19
 1704 017b 00       		.byte	0
 1705 017c 00       		.byte	0
 1706 017d 20       		.uleb128 0x20
 1707 017e 26       		.uleb128 0x26
 1708 017f 00       		.byte	0
 1709 0180 00       		.byte	0
 1710 0181 00       		.byte	0
ARM GAS  C:\Users\mathi\AppData\Local\Temp\ccu7R7Us.s 			page 31


 1711 0182 21       		.uleb128 0x21
 1712 0183 34       		.uleb128 0x34
 1713 0184 00       		.byte	0
 1714 0185 03       		.uleb128 0x3
 1715 0186 0E       		.uleb128 0xe
 1716 0187 3A       		.uleb128 0x3a
 1717 0188 0B       		.uleb128 0xb
 1718 0189 3B       		.uleb128 0x3b
 1719 018a 0B       		.uleb128 0xb
 1720 018b 49       		.uleb128 0x49
 1721 018c 13       		.uleb128 0x13
 1722 018d 3F       		.uleb128 0x3f
 1723 018e 19       		.uleb128 0x19
 1724 018f 3C       		.uleb128 0x3c
 1725 0190 19       		.uleb128 0x19
 1726 0191 00       		.byte	0
 1727 0192 00       		.byte	0
 1728 0193 22       		.uleb128 0x22
 1729 0194 2E       		.uleb128 0x2e
 1730 0195 01       		.byte	0x1
 1731 0196 3F       		.uleb128 0x3f
 1732 0197 19       		.uleb128 0x19
 1733 0198 03       		.uleb128 0x3
 1734 0199 0E       		.uleb128 0xe
 1735 019a 3A       		.uleb128 0x3a
 1736 019b 0B       		.uleb128 0xb
 1737 019c 3B       		.uleb128 0x3b
 1738 019d 0B       		.uleb128 0xb
 1739 019e 27       		.uleb128 0x27
 1740 019f 19       		.uleb128 0x19
 1741 01a0 49       		.uleb128 0x49
 1742 01a1 13       		.uleb128 0x13
 1743 01a2 11       		.uleb128 0x11
 1744 01a3 01       		.uleb128 0x1
 1745 01a4 12       		.uleb128 0x12
 1746 01a5 06       		.uleb128 0x6
 1747 01a6 40       		.uleb128 0x40
 1748 01a7 18       		.uleb128 0x18
 1749 01a8 9742     		.uleb128 0x2117
 1750 01aa 19       		.uleb128 0x19
 1751 01ab 01       		.uleb128 0x1
 1752 01ac 13       		.uleb128 0x13
 1753 01ad 00       		.byte	0
 1754 01ae 00       		.byte	0
 1755 01af 23       		.uleb128 0x23
 1756 01b0 05       		.uleb128 0x5
 1757 01b1 00       		.byte	0
 1758 01b2 03       		.uleb128 0x3
 1759 01b3 0E       		.uleb128 0xe
 1760 01b4 3A       		.uleb128 0x3a
 1761 01b5 0B       		.uleb128 0xb
 1762 01b6 3B       		.uleb128 0x3b
 1763 01b7 0B       		.uleb128 0xb
 1764 01b8 49       		.uleb128 0x49
 1765 01b9 13       		.uleb128 0x13
 1766 01ba 02       		.uleb128 0x2
 1767 01bb 17       		.uleb128 0x17
ARM GAS  C:\Users\mathi\AppData\Local\Temp\ccu7R7Us.s 			page 32


 1768 01bc 00       		.byte	0
 1769 01bd 00       		.byte	0
 1770 01be 24       		.uleb128 0x24
 1771 01bf 34       		.uleb128 0x34
 1772 01c0 00       		.byte	0
 1773 01c1 03       		.uleb128 0x3
 1774 01c2 08       		.uleb128 0x8
 1775 01c3 3A       		.uleb128 0x3a
 1776 01c4 0B       		.uleb128 0xb
 1777 01c5 3B       		.uleb128 0x3b
 1778 01c6 0B       		.uleb128 0xb
 1779 01c7 49       		.uleb128 0x49
 1780 01c8 13       		.uleb128 0x13
 1781 01c9 02       		.uleb128 0x2
 1782 01ca 17       		.uleb128 0x17
 1783 01cb 00       		.byte	0
 1784 01cc 00       		.byte	0
 1785 01cd 25       		.uleb128 0x25
 1786 01ce 0B       		.uleb128 0xb
 1787 01cf 01       		.byte	0x1
 1788 01d0 11       		.uleb128 0x11
 1789 01d1 01       		.uleb128 0x1
 1790 01d2 12       		.uleb128 0x12
 1791 01d3 06       		.uleb128 0x6
 1792 01d4 01       		.uleb128 0x1
 1793 01d5 13       		.uleb128 0x13
 1794 01d6 00       		.byte	0
 1795 01d7 00       		.byte	0
 1796 01d8 26       		.uleb128 0x26
 1797 01d9 898201   		.uleb128 0x4109
 1798 01dc 00       		.byte	0
 1799 01dd 11       		.uleb128 0x11
 1800 01de 01       		.uleb128 0x1
 1801 01df 31       		.uleb128 0x31
 1802 01e0 13       		.uleb128 0x13
 1803 01e1 00       		.byte	0
 1804 01e2 00       		.byte	0
 1805 01e3 27       		.uleb128 0x27
 1806 01e4 2E       		.uleb128 0x2e
 1807 01e5 00       		.byte	0
 1808 01e6 3F       		.uleb128 0x3f
 1809 01e7 19       		.uleb128 0x19
 1810 01e8 3C       		.uleb128 0x3c
 1811 01e9 19       		.uleb128 0x19
 1812 01ea 6E       		.uleb128 0x6e
 1813 01eb 0E       		.uleb128 0xe
 1814 01ec 03       		.uleb128 0x3
 1815 01ed 0E       		.uleb128 0xe
 1816 01ee 00       		.byte	0
 1817 01ef 00       		.byte	0
 1818 01f0 00       		.byte	0
 1819              		.section	.debug_loc,"",%progbits
 1820              	.Ldebug_loc0:
 1821              	.LLST0:
 1822 0000 00000000 		.4byte	.LVL0
 1823 0004 0C000000 		.4byte	.LVL2
 1824 0008 0100     		.2byte	0x1
ARM GAS  C:\Users\mathi\AppData\Local\Temp\ccu7R7Us.s 			page 33


 1825 000a 50       		.byte	0x50
 1826 000b 0C000000 		.4byte	.LVL2
 1827 000f 18000000 		.4byte	.LVL5
 1828 0013 0400     		.2byte	0x4
 1829 0015 70       		.byte	0x70
 1830 0016 00       		.sleb128 0
 1831 0017 20       		.byte	0x20
 1832 0018 9F       		.byte	0x9f
 1833 0019 18000000 		.4byte	.LVL5
 1834 001d AC000000 		.4byte	.LFE0
 1835 0021 0400     		.2byte	0x4
 1836 0023 F3       		.byte	0xf3
 1837 0024 01       		.uleb128 0x1
 1838 0025 50       		.byte	0x50
 1839 0026 9F       		.byte	0x9f
 1840 0027 00000000 		.4byte	0
 1841 002b 00000000 		.4byte	0
 1842              	.LLST1:
 1843 002f 00000000 		.4byte	.LVL0
 1844 0033 18000000 		.4byte	.LVL5
 1845 0037 0100     		.2byte	0x1
 1846 0039 51       		.byte	0x51
 1847 003a 18000000 		.4byte	.LVL5
 1848 003e AC000000 		.4byte	.LFE0
 1849 0042 0400     		.2byte	0x4
 1850 0044 F3       		.byte	0xf3
 1851 0045 01       		.uleb128 0x1
 1852 0046 51       		.byte	0x51
 1853 0047 9F       		.byte	0x9f
 1854 0048 00000000 		.4byte	0
 1855 004c 00000000 		.4byte	0
 1856              	.LLST2:
 1857 0050 00000000 		.4byte	.LVL0
 1858 0054 14000000 		.4byte	.LVL3
 1859 0058 0100     		.2byte	0x1
 1860 005a 52       		.byte	0x52
 1861 005b 14000000 		.4byte	.LVL3
 1862 005f 16000000 		.4byte	.LVL4
 1863 0063 0300     		.2byte	0x3
 1864 0065 75       		.byte	0x75
 1865 0066 01       		.sleb128 1
 1866 0067 9F       		.byte	0x9f
 1867 0068 16000000 		.4byte	.LVL4
 1868 006c AC000000 		.4byte	.LFE0
 1869 0070 0400     		.2byte	0x4
 1870 0072 F3       		.byte	0xf3
 1871 0073 01       		.uleb128 0x1
 1872 0074 52       		.byte	0x52
 1873 0075 9F       		.byte	0x9f
 1874 0076 00000000 		.4byte	0
 1875 007a 00000000 		.4byte	0
 1876              	.LLST3:
 1877 007e 0A000000 		.4byte	.LVL1
 1878 0082 18000000 		.4byte	.LVL5
 1879 0086 0100     		.2byte	0x1
 1880 0088 51       		.byte	0x51
 1881 0089 18000000 		.4byte	.LVL5
ARM GAS  C:\Users\mathi\AppData\Local\Temp\ccu7R7Us.s 			page 34


 1882 008d AC000000 		.4byte	.LFE0
 1883 0091 0400     		.2byte	0x4
 1884 0093 F3       		.byte	0xf3
 1885 0094 01       		.uleb128 0x1
 1886 0095 51       		.byte	0x51
 1887 0096 9F       		.byte	0x9f
 1888 0097 00000000 		.4byte	0
 1889 009b 00000000 		.4byte	0
 1890              	.LLST4:
 1891 009f 0C000000 		.4byte	.LVL2
 1892 00a3 26000000 		.4byte	.LVL7
 1893 00a7 0100     		.2byte	0x1
 1894 00a9 50       		.byte	0x50
 1895 00aa 2A000000 		.4byte	.LVL8
 1896 00ae 34000000 		.4byte	.LVL9
 1897 00b2 0100     		.2byte	0x1
 1898 00b4 50       		.byte	0x50
 1899 00b5 38000000 		.4byte	.LVL10
 1900 00b9 42000000 		.4byte	.LVL11
 1901 00bd 0100     		.2byte	0x1
 1902 00bf 50       		.byte	0x50
 1903 00c0 46000000 		.4byte	.LVL12
 1904 00c4 50000000 		.4byte	.LVL13
 1905 00c8 0100     		.2byte	0x1
 1906 00ca 50       		.byte	0x50
 1907 00cb 54000000 		.4byte	.LVL14
 1908 00cf 5E000000 		.4byte	.LVL15
 1909 00d3 0100     		.2byte	0x1
 1910 00d5 50       		.byte	0x50
 1911 00d6 62000000 		.4byte	.LVL16
 1912 00da 6C000000 		.4byte	.LVL17
 1913 00de 0100     		.2byte	0x1
 1914 00e0 50       		.byte	0x50
 1915 00e1 70000000 		.4byte	.LVL18
 1916 00e5 7A000000 		.4byte	.LVL19
 1917 00e9 0100     		.2byte	0x1
 1918 00eb 50       		.byte	0x50
 1919 00ec 7E000000 		.4byte	.LVL20
 1920 00f0 88000000 		.4byte	.LVL21
 1921 00f4 0100     		.2byte	0x1
 1922 00f6 50       		.byte	0x50
 1923 00f7 8C000000 		.4byte	.LVL22
 1924 00fb 9A000000 		.4byte	.LVL24
 1925 00ff 0100     		.2byte	0x1
 1926 0101 50       		.byte	0x50
 1927 0102 9A000000 		.4byte	.LVL24
 1928 0106 A3000000 		.4byte	.LVL25-1
 1929 010a 0400     		.2byte	0x4
 1930 010c 70       		.byte	0x70
 1931 010d 00       		.sleb128 0
 1932 010e 20       		.byte	0x20
 1933 010f 9F       		.byte	0x9f
 1934 0110 00000000 		.4byte	0
 1935 0114 00000000 		.4byte	0
 1936              	.LLST5:
 1937 0118 0C000000 		.4byte	.LVL2
 1938 011c 18000000 		.4byte	.LVL5
ARM GAS  C:\Users\mathi\AppData\Local\Temp\ccu7R7Us.s 			page 35


 1939 0120 0200     		.2byte	0x2
 1940 0122 30       		.byte	0x30
 1941 0123 9F       		.byte	0x9f
 1942 0124 18000000 		.4byte	.LVL5
 1943 0128 1C000000 		.4byte	.LVL6
 1944 012c 0900     		.2byte	0x9
 1945 012e 71       		.byte	0x71
 1946 012f 00       		.sleb128 0
 1947 0130 F3       		.byte	0xf3
 1948 0131 01       		.uleb128 0x1
 1949 0132 51       		.byte	0x51
 1950 0133 1C       		.byte	0x1c
 1951 0134 23       		.byte	0x23
 1952 0135 01       		.uleb128 0x1
 1953 0136 9F       		.byte	0x9f
 1954 0137 1C000000 		.4byte	.LVL6
 1955 013b 8C000000 		.4byte	.LVL22
 1956 013f 0700     		.2byte	0x7
 1957 0141 71       		.byte	0x71
 1958 0142 00       		.sleb128 0
 1959 0143 F3       		.byte	0xf3
 1960 0144 01       		.uleb128 0x1
 1961 0145 51       		.byte	0x51
 1962 0146 1C       		.byte	0x1c
 1963 0147 9F       		.byte	0x9f
 1964 0148 8C000000 		.4byte	.LVL22
 1965 014c 90000000 		.4byte	.LVL23
 1966 0150 0900     		.2byte	0x9
 1967 0152 71       		.byte	0x71
 1968 0153 00       		.sleb128 0
 1969 0154 F3       		.byte	0xf3
 1970 0155 01       		.uleb128 0x1
 1971 0156 51       		.byte	0x51
 1972 0157 1C       		.byte	0x1c
 1973 0158 23       		.byte	0x23
 1974 0159 01       		.uleb128 0x1
 1975 015a 9F       		.byte	0x9f
 1976 015b 00000000 		.4byte	0
 1977 015f 00000000 		.4byte	0
 1978              	.LLST6:
 1979 0163 18000000 		.4byte	.LVL5
 1980 0167 2A000000 		.4byte	.LVL8
 1981 016b 0200     		.2byte	0x2
 1982 016d 30       		.byte	0x30
 1983 016e 9F       		.byte	0x9f
 1984 016f 2A000000 		.4byte	.LVL8
 1985 0173 38000000 		.4byte	.LVL10
 1986 0177 0200     		.2byte	0x2
 1987 0179 31       		.byte	0x31
 1988 017a 9F       		.byte	0x9f
 1989 017b 38000000 		.4byte	.LVL10
 1990 017f 46000000 		.4byte	.LVL12
 1991 0183 0200     		.2byte	0x2
 1992 0185 32       		.byte	0x32
 1993 0186 9F       		.byte	0x9f
 1994 0187 46000000 		.4byte	.LVL12
 1995 018b 54000000 		.4byte	.LVL14
ARM GAS  C:\Users\mathi\AppData\Local\Temp\ccu7R7Us.s 			page 36


 1996 018f 0200     		.2byte	0x2
 1997 0191 33       		.byte	0x33
 1998 0192 9F       		.byte	0x9f
 1999 0193 54000000 		.4byte	.LVL14
 2000 0197 62000000 		.4byte	.LVL16
 2001 019b 0200     		.2byte	0x2
 2002 019d 34       		.byte	0x34
 2003 019e 9F       		.byte	0x9f
 2004 019f 62000000 		.4byte	.LVL16
 2005 01a3 70000000 		.4byte	.LVL18
 2006 01a7 0200     		.2byte	0x2
 2007 01a9 35       		.byte	0x35
 2008 01aa 9F       		.byte	0x9f
 2009 01ab 70000000 		.4byte	.LVL18
 2010 01af 7E000000 		.4byte	.LVL20
 2011 01b3 0200     		.2byte	0x2
 2012 01b5 36       		.byte	0x36
 2013 01b6 9F       		.byte	0x9f
 2014 01b7 7E000000 		.4byte	.LVL20
 2015 01bb 8C000000 		.4byte	.LVL22
 2016 01bf 0200     		.2byte	0x2
 2017 01c1 37       		.byte	0x37
 2018 01c2 9F       		.byte	0x9f
 2019 01c3 8C000000 		.4byte	.LVL22
 2020 01c7 90000000 		.4byte	.LVL23
 2021 01cb 0200     		.2byte	0x2
 2022 01cd 38       		.byte	0x38
 2023 01ce 9F       		.byte	0x9f
 2024 01cf 00000000 		.4byte	0
 2025 01d3 00000000 		.4byte	0
 2026              		.section	.debug_aranges,"",%progbits
 2027 0000 1C000000 		.4byte	0x1c
 2028 0004 0200     		.2byte	0x2
 2029 0006 00000000 		.4byte	.Ldebug_info0
 2030 000a 04       		.byte	0x4
 2031 000b 00       		.byte	0
 2032 000c 0000     		.2byte	0
 2033 000e 0000     		.2byte	0
 2034 0010 00000000 		.4byte	.LFB0
 2035 0014 AC000000 		.4byte	.LFE0-.LFB0
 2036 0018 00000000 		.4byte	0
 2037 001c 00000000 		.4byte	0
 2038              		.section	.debug_ranges,"",%progbits
 2039              	.Ldebug_ranges0:
 2040 0000 00000000 		.4byte	.LFB0
 2041 0004 AC000000 		.4byte	.LFE0
 2042 0008 00000000 		.4byte	0
 2043 000c 00000000 		.4byte	0
 2044              		.section	.debug_line,"",%progbits
 2045              	.Ldebug_line0:
 2046 0000 42020000 		.section	.debug_str,"MS",%progbits,1
 2046      02001702 
 2046      00000201 
 2046      FB0E0D00 
 2046      01010101 
 2047              	.LASF44:
 2048 0000 5F64736F 		.ascii	"_dso_handle\000"
ARM GAS  C:\Users\mathi\AppData\Local\Temp\ccu7R7Us.s 			page 37


 2048      5F68616E 
 2048      646C6500 
 2049              	.LASF52:
 2050 000c 5F73697A 		.ascii	"_size\000"
 2050      6500
 2051              	.LASF13:
 2052 0012 73697A65 		.ascii	"size_t\000"
 2052      5F7400
 2053              	.LASF133:
 2054 0019 63726333 		.ascii	"crc32\000"
 2054      3200
 2055              	.LASF96:
 2056 001f 5F72616E 		.ascii	"_rand48\000"
 2056      64343800 
 2057              	.LASF76:
 2058 0027 5F656D65 		.ascii	"_emergency\000"
 2058      7267656E 
 2058      637900
 2059              	.LASF85:
 2060 0032 5F637674 		.ascii	"_cvtlen\000"
 2060      6C656E00 
 2061              	.LASF5:
 2062 003a 5F5F7569 		.ascii	"__uint8_t\000"
 2062      6E74385F 
 2062      7400
 2063              	.LASF66:
 2064 0044 5F646174 		.ascii	"_data\000"
 2064      6100
 2065              	.LASF127:
 2066 004a 696E6974 		.ascii	"init\000"
 2066      00
 2067              	.LASF116:
 2068 004f 5F776372 		.ascii	"_wcrtomb_state\000"
 2068      746F6D62 
 2068      5F737461 
 2068      746500
 2069              	.LASF117:
 2070 005e 5F776373 		.ascii	"_wcsrtombs_state\000"
 2070      72746F6D 
 2070      62735F73 
 2070      74617465 
 2070      00
 2071              	.LASF9:
 2072 006f 6C6F6E67 		.ascii	"long long unsigned int\000"
 2072      206C6F6E 
 2072      6720756E 
 2072      7369676E 
 2072      65642069 
 2073              	.LASF56:
 2074 0086 5F6C6266 		.ascii	"_lbfsize\000"
 2074      73697A65 
 2074      00
 2075              	.LASF123:
 2076 008f 5F5F6C6F 		.ascii	"__locale_t\000"
 2076      63616C65 
 2076      5F7400
 2077              	.LASF114:
ARM GAS  C:\Users\mathi\AppData\Local\Temp\ccu7R7Us.s 			page 38


 2078 009a 5F6D6272 		.ascii	"_mbrtowc_state\000"
 2078      746F7763 
 2078      5F737461 
 2078      746500
 2079              	.LASF33:
 2080 00a9 5F5F746D 		.ascii	"__tm_sec\000"
 2080      5F736563 
 2080      00
 2081              	.LASF8:
 2082 00b2 6C6F6E67 		.ascii	"long long int\000"
 2082      206C6F6E 
 2082      6720696E 
 2082      7400
 2083              	.LASF0:
 2084 00c0 7369676E 		.ascii	"signed char\000"
 2084      65642063 
 2084      68617200 
 2085              	.LASF62:
 2086 00cc 5F756275 		.ascii	"_ubuf\000"
 2086      6600
 2087              	.LASF51:
 2088 00d2 5F626173 		.ascii	"_base\000"
 2088      6500
 2089              	.LASF35:
 2090 00d8 5F5F746D 		.ascii	"__tm_hour\000"
 2090      5F686F75 
 2090      7200
 2091              	.LASF91:
 2092 00e2 5F5F7366 		.ascii	"__sf\000"
 2092      00
 2093              	.LASF42:
 2094 00e7 5F6F6E5F 		.ascii	"_on_exit_args\000"
 2094      65786974 
 2094      5F617267 
 2094      7300
 2095              	.LASF57:
 2096 00f5 5F636F6F 		.ascii	"_cookie\000"
 2096      6B696500 
 2097              	.LASF90:
 2098 00fd 5F5F7367 		.ascii	"__sglue\000"
 2098      6C756500 
 2099              	.LASF4:
 2100 0105 6C6F6E67 		.ascii	"long int\000"
 2100      20696E74 
 2100      00
 2101              	.LASF54:
 2102 010e 5F666C61 		.ascii	"_flags\000"
 2102      677300
 2103              	.LASF46:
 2104 0115 5F69735F 		.ascii	"_is_cxa\000"
 2104      63786100 
 2105              	.LASF72:
 2106 011d 5F737464 		.ascii	"_stdin\000"
 2106      696E00
 2107              	.LASF131:
 2108 0124 2E2E2F2E 		.ascii	"../../lib/e-puck2_main-processor/src/crc/crc32.c\000"
 2108      2E2F6C69 
ARM GAS  C:\Users\mathi\AppData\Local\Temp\ccu7R7Us.s 			page 39


 2108      622F652D 
 2108      7075636B 
 2108      325F6D61 
 2109              	.LASF86:
 2110 0155 5F637674 		.ascii	"_cvtbuf\000"
 2110      62756600 
 2111              	.LASF65:
 2112 015d 5F6F6666 		.ascii	"_offset\000"
 2112      73657400 
 2113              	.LASF115:
 2114 0165 5F6D6273 		.ascii	"_mbsrtowcs_state\000"
 2114      72746F77 
 2114      63735F73 
 2114      74617465 
 2114      00
 2115              	.LASF113:
 2116 0176 5F6D6272 		.ascii	"_mbrlen_state\000"
 2116      6C656E5F 
 2116      73746174 
 2116      6500
 2117              	.LASF43:
 2118 0184 5F666E61 		.ascii	"_fnargs\000"
 2118      72677300 
 2119              	.LASF49:
 2120 018c 5F666E73 		.ascii	"_fns\000"
 2120      00
 2121              	.LASF6:
 2122 0191 5F5F7569 		.ascii	"__uint32_t\000"
 2122      6E743332 
 2122      5F7400
 2123              	.LASF29:
 2124 019c 5F736967 		.ascii	"_sign\000"
 2124      6E00
 2125              	.LASF24:
 2126 01a2 5F666C6F 		.ascii	"_flock_t\000"
 2126      636B5F74 
 2126      00
 2127              	.LASF74:
 2128 01ab 5F737464 		.ascii	"_stderr\000"
 2128      65727200 
 2129              	.LASF31:
 2130 01b3 5F426967 		.ascii	"_Bigint\000"
 2130      696E7400 
 2131              	.LASF104:
 2132 01bb 5F67616D 		.ascii	"_gamma_signgam\000"
 2132      6D615F73 
 2132      69676E67 
 2132      616D00
 2133              	.LASF58:
 2134 01ca 5F726561 		.ascii	"_read\000"
 2134      6400
 2135              	.LASF82:
 2136 01d0 5F726573 		.ascii	"_result_k\000"
 2136      756C745F 
 2136      6B00
 2137              	.LASF32:
 2138 01da 5F5F746D 		.ascii	"__tm\000"
ARM GAS  C:\Users\mathi\AppData\Local\Temp\ccu7R7Us.s 			page 40


 2138      00
 2139              	.LASF10:
 2140 01df 756E7369 		.ascii	"unsigned int\000"
 2140      676E6564 
 2140      20696E74 
 2140      00
 2141              	.LASF20:
 2142 01ec 5F5F7763 		.ascii	"__wchb\000"
 2142      686200
 2143              	.LASF73:
 2144 01f3 5F737464 		.ascii	"_stdout\000"
 2144      6F757400 
 2145              	.LASF132:
 2146 01fb 433A5C55 		.ascii	"C:\\Users\\mathi\\Documents\\robotique\\robotics_pr"
 2146      73657273 
 2146      5C6D6174 
 2146      68695C44 
 2146      6F63756D 
 2147 0229 6F6A6563 		.ascii	"oject\\robotics_project\\robotics_project\000"
 2147      745C726F 
 2147      626F7469 
 2147      63735F70 
 2147      726F6A65 
 2148              	.LASF7:
 2149 0251 6C6F6E67 		.ascii	"long unsigned int\000"
 2149      20756E73 
 2149      69676E65 
 2149      6420696E 
 2149      7400
 2150              	.LASF55:
 2151 0263 5F66696C 		.ascii	"_file\000"
 2151      6500
 2152              	.LASF94:
 2153 0269 5F6E696F 		.ascii	"_niobs\000"
 2153      627300
 2154              	.LASF128:
 2155 0270 64617461 		.ascii	"data\000"
 2155      00
 2156              	.LASF3:
 2157 0275 73686F72 		.ascii	"short unsigned int\000"
 2157      7420756E 
 2157      7369676E 
 2157      65642069 
 2157      6E7400
 2158              	.LASF88:
 2159 0288 5F617465 		.ascii	"_atexit0\000"
 2159      78697430 
 2159      00
 2160              	.LASF111:
 2161 0291 5F736967 		.ascii	"_signal_buf\000"
 2161      6E616C5F 
 2161      62756600 
 2162              	.LASF102:
 2163 029d 5F617363 		.ascii	"_asctime_buf\000"
 2163      74696D65 
 2163      5F627566 
 2163      00
ARM GAS  C:\Users\mathi\AppData\Local\Temp\ccu7R7Us.s 			page 41


 2164              	.LASF81:
 2165 02aa 5F726573 		.ascii	"_result\000"
 2165      756C7400 
 2166              	.LASF19:
 2167 02b2 5F5F7763 		.ascii	"__wch\000"
 2167      6800
 2168              	.LASF15:
 2169 02b8 5F4C4F43 		.ascii	"_LOCK_T\000"
 2169      4B5F5400 
 2170              	.LASF18:
 2171 02c0 77696E74 		.ascii	"wint_t\000"
 2171      5F7400
 2172              	.LASF67:
 2173 02c7 5F6C6F63 		.ascii	"_lock\000"
 2173      6B00
 2174              	.LASF69:
 2175 02cd 5F666C61 		.ascii	"_flags2\000"
 2175      67733200 
 2176              	.LASF59:
 2177 02d5 5F777269 		.ascii	"_write\000"
 2177      746500
 2178              	.LASF38:
 2179 02dc 5F5F746D 		.ascii	"__tm_year\000"
 2179      5F796561 
 2179      7200
 2180              	.LASF120:
 2181 02e6 5F6E6D61 		.ascii	"_nmalloc\000"
 2181      6C6C6F63 
 2181      00
 2182              	.LASF14:
 2183 02ef 6C6F6E67 		.ascii	"long double\000"
 2183      20646F75 
 2183      626C6500 
 2184              	.LASF119:
 2185 02fb 5F6E6578 		.ascii	"_nextf\000"
 2185      746600
 2186              	.LASF37:
 2187 0302 5F5F746D 		.ascii	"__tm_mon\000"
 2187      5F6D6F6E 
 2187      00
 2188              	.LASF47:
 2189 030b 5F617465 		.ascii	"_atexit\000"
 2189      78697400 
 2190              	.LASF126:
 2191 0313 7375626F 		.ascii	"suboptarg\000"
 2191      70746172 
 2191      6700
 2192              	.LASF79:
 2193 031d 5F5F7364 		.ascii	"__sdidinit\000"
 2193      6964696E 
 2193      697400
 2194              	.LASF16:
 2195 0328 5F6F6666 		.ascii	"_off_t\000"
 2195      5F7400
 2196              	.LASF130:
 2197 032f 474E5520 		.ascii	"GNU C11 7.2.1 20170904 (release) [ARM/embedded-7-br"
 2197      43313120 
ARM GAS  C:\Users\mathi\AppData\Local\Temp\ccu7R7Us.s 			page 42


 2197      372E322E 
 2197      31203230 
 2197      31373039 
 2198 0362 616E6368 		.ascii	"anch revision 255204] -mcpu=cortex-m4 -mfloat-abi=h"
 2198      20726576 
 2198      6973696F 
 2198      6E203235 
 2198      35323034 
 2199 0395 61726420 		.ascii	"ard -mfpu=fpv4-sp-d16 -mno-thumb-interwork -mthumb "
 2199      2D6D6670 
 2199      753D6670 
 2199      76342D73 
 2199      702D6431 
 2200 03c8 2D676764 		.ascii	"-ggdb -O3 -fomit-frame-pointer -falign-functions=16"
 2200      62202D4F 
 2200      33202D66 
 2200      6F6D6974 
 2200      2D667261 
 2201 03fb 202D666E 		.ascii	" -fno-strict-aliasing -fstack-protector-all -ffunct"
 2201      6F2D7374 
 2201      72696374 
 2201      2D616C69 
 2201      6173696E 
 2202 042e 696F6E2D 		.ascii	"ion-sections -fdata-sections -fno-common -fsingle-p"
 2202      73656374 
 2202      696F6E73 
 2202      202D6664 
 2202      6174612D 
 2203 0461 72656369 		.ascii	"recision-constant\000"
 2203      73696F6E 
 2203      2D636F6E 
 2203      7374616E 
 2203      7400
 2204              	.LASF84:
 2205 0473 5F667265 		.ascii	"_freelist\000"
 2205      656C6973 
 2205      7400
 2206              	.LASF109:
 2207 047d 5F776374 		.ascii	"_wctomb_state\000"
 2207      6F6D625F 
 2207      73746174 
 2207      6500
 2208              	.LASF1:
 2209 048b 756E7369 		.ascii	"unsigned char\000"
 2209      676E6564 
 2209      20636861 
 2209      7200
 2210              	.LASF87:
 2211 0499 5F6E6577 		.ascii	"_new\000"
 2211      00
 2212              	.LASF118:
 2213 049e 5F685F65 		.ascii	"_h_errno\000"
 2213      72726E6F 
 2213      00
 2214              	.LASF2:
 2215 04a7 73686F72 		.ascii	"short int\000"
 2215      7420696E 
ARM GAS  C:\Users\mathi\AppData\Local\Temp\ccu7R7Us.s 			page 43


 2215      7400
 2216              	.LASF40:
 2217 04b1 5F5F746D 		.ascii	"__tm_yday\000"
 2217      5F796461 
 2217      7900
 2218              	.LASF50:
 2219 04bb 5F5F7362 		.ascii	"__sbuf\000"
 2219      756600
 2220              	.LASF95:
 2221 04c2 5F696F62 		.ascii	"_iobs\000"
 2221      7300
 2222              	.LASF92:
 2223 04c8 5F5F4649 		.ascii	"__FILE\000"
 2223      4C4500
 2224              	.LASF23:
 2225 04cf 5F6D6273 		.ascii	"_mbstate_t\000"
 2225      74617465 
 2225      5F7400
 2226              	.LASF53:
 2227 04da 5F5F7346 		.ascii	"__sFILE\000"
 2227      494C4500 
 2228              	.LASF68:
 2229 04e2 5F6D6273 		.ascii	"_mbstate\000"
 2229      74617465 
 2229      00
 2230              	.LASF105:
 2231 04eb 5F72616E 		.ascii	"_rand_next\000"
 2231      645F6E65 
 2231      787400
 2232              	.LASF107:
 2233 04f6 5F6D626C 		.ascii	"_mblen_state\000"
 2233      656E5F73 
 2233      74617465 
 2233      00
 2234              	.LASF75:
 2235 0503 5F696E63 		.ascii	"_inc\000"
 2235      00
 2236              	.LASF48:
 2237 0508 5F696E64 		.ascii	"_ind\000"
 2237      00
 2238              	.LASF78:
 2239 050d 5F6C6F63 		.ascii	"_locale\000"
 2239      616C6500 
 2240              	.LASF80:
 2241 0515 5F5F636C 		.ascii	"__cleanup\000"
 2241      65616E75 
 2241      7000
 2242              	.LASF77:
 2243 051f 5F756E73 		.ascii	"_unspecified_locale_info\000"
 2243      70656369 
 2243      66696564 
 2243      5F6C6F63 
 2243      616C655F 
 2244              	.LASF134:
 2245 0538 5F5F7374 		.ascii	"__stack_chk_fail\000"
 2245      61636B5F 
 2245      63686B5F 
ARM GAS  C:\Users\mathi\AppData\Local\Temp\ccu7R7Us.s 			page 44


 2245      6661696C 
 2245      00
 2246              	.LASF28:
 2247 0549 5F6D6178 		.ascii	"_maxwds\000"
 2247      77647300 
 2248              	.LASF70:
 2249 0551 5F726565 		.ascii	"_reent\000"
 2249      6E7400
 2250              	.LASF97:
 2251 0558 5F736565 		.ascii	"_seed\000"
 2251      6400
 2252              	.LASF21:
 2253 055e 5F5F636F 		.ascii	"__count\000"
 2253      756E7400 
 2254              	.LASF122:
 2255 0566 5F5F6C6F 		.ascii	"__lock\000"
 2255      636B00
 2256              	.LASF12:
 2257 056d 75696E74 		.ascii	"uint32_t\000"
 2257      33325F74 
 2257      00
 2258              	.LASF60:
 2259 0576 5F736565 		.ascii	"_seek\000"
 2259      6B00
 2260              	.LASF124:
 2261 057c 5F696D70 		.ascii	"_impure_ptr\000"
 2261      7572655F 
 2261      70747200 
 2262              	.LASF17:
 2263 0588 5F66706F 		.ascii	"_fpos_t\000"
 2263      735F7400 
 2264              	.LASF129:
 2265 0590 6C656E67 		.ascii	"length\000"
 2265      746800
 2266              	.LASF71:
 2267 0597 5F657272 		.ascii	"_errno\000"
 2267      6E6F00
 2268              	.LASF25:
 2269 059e 63686172 		.ascii	"char\000"
 2269      00
 2270              	.LASF64:
 2271 05a3 5F626C6B 		.ascii	"_blksize\000"
 2271      73697A65 
 2271      00
 2272              	.LASF34:
 2273 05ac 5F5F746D 		.ascii	"__tm_min\000"
 2273      5F6D696E 
 2273      00
 2274              	.LASF98:
 2275 05b5 5F6D756C 		.ascii	"_mult\000"
 2275      7400
 2276              	.LASF27:
 2277 05bb 5F6E6578 		.ascii	"_next\000"
 2277      7400
 2278              	.LASF101:
 2279 05c1 5F737472 		.ascii	"_strtok_last\000"
 2279      746F6B5F 
ARM GAS  C:\Users\mathi\AppData\Local\Temp\ccu7R7Us.s 			page 45


 2279      6C617374 
 2279      00
 2280              	.LASF22:
 2281 05ce 5F5F7661 		.ascii	"__value\000"
 2281      6C756500 
 2282              	.LASF45:
 2283 05d6 5F666E74 		.ascii	"_fntypes\000"
 2283      79706573 
 2283      00
 2284              	.LASF99:
 2285 05df 5F616464 		.ascii	"_add\000"
 2285      00
 2286              	.LASF26:
 2287 05e4 5F5F554C 		.ascii	"__ULong\000"
 2287      6F6E6700 
 2288              	.LASF112:
 2289 05ec 5F676574 		.ascii	"_getdate_err\000"
 2289      64617465 
 2289      5F657272 
 2289      00
 2290              	.LASF125:
 2291 05f9 5F676C6F 		.ascii	"_global_impure_ptr\000"
 2291      62616C5F 
 2291      696D7075 
 2291      72655F70 
 2291      747200
 2292              	.LASF100:
 2293 060c 5F756E75 		.ascii	"_unused_rand\000"
 2293      7365645F 
 2293      72616E64 
 2293      00
 2294              	.LASF30:
 2295 0619 5F776473 		.ascii	"_wds\000"
 2295      00
 2296              	.LASF39:
 2297 061e 5F5F746D 		.ascii	"__tm_wday\000"
 2297      5F776461 
 2297      7900
 2298              	.LASF93:
 2299 0628 5F676C75 		.ascii	"_glue\000"
 2299      6500
 2300              	.LASF11:
 2301 062e 75696E74 		.ascii	"uint8_t\000"
 2301      385F7400 
 2302              	.LASF110:
 2303 0636 5F6C3634 		.ascii	"_l64a_buf\000"
 2303      615F6275 
 2303      6600
 2304              	.LASF89:
 2305 0640 5F736967 		.ascii	"_sig_func\000"
 2305      5F66756E 
 2305      6300
 2306              	.LASF63:
 2307 064a 5F6E6275 		.ascii	"_nbuf\000"
 2307      6600
 2308              	.LASF121:
 2309 0650 5F756E75 		.ascii	"_unused\000"
ARM GAS  C:\Users\mathi\AppData\Local\Temp\ccu7R7Us.s 			page 46


 2309      73656400 
 2310              	.LASF41:
 2311 0658 5F5F746D 		.ascii	"__tm_isdst\000"
 2311      5F697364 
 2311      737400
 2312              	.LASF103:
 2313 0663 5F6C6F63 		.ascii	"_localtime_buf\000"
 2313      616C7469 
 2313      6D655F62 
 2313      756600
 2314              	.LASF61:
 2315 0672 5F636C6F 		.ascii	"_close\000"
 2315      736500
 2316              	.LASF106:
 2317 0679 5F723438 		.ascii	"_r48\000"
 2317      00
 2318              	.LASF108:
 2319 067e 5F6D6274 		.ascii	"_mbtowc_state\000"
 2319      6F77635F 
 2319      73746174 
 2319      6500
 2320              	.LASF83:
 2321 068c 5F703573 		.ascii	"_p5s\000"
 2321      00
 2322              	.LASF36:
 2323 0691 5F5F746D 		.ascii	"__tm_mday\000"
 2323      5F6D6461 
 2323      7900
 2324              		.ident	"GCC: (GNU Tools for Arm Embedded Processors 7-2017-q4-major) 7.2.1 20170904 (release) [ARM
ARM GAS  C:\Users\mathi\AppData\Local\Temp\ccu7R7Us.s 			page 47


DEFINED SYMBOLS
                            *ABS*:00000000 crc32.c
C:\Users\mathi\AppData\Local\Temp\ccu7R7Us.s:18     .text.crc32:00000000 $t
C:\Users\mathi\AppData\Local\Temp\ccu7R7Us.s:26     .text.crc32:00000000 crc32
C:\Users\mathi\AppData\Local\Temp\ccu7R7Us.s:162    .text.crc32:000000a4 $d

UNDEFINED SYMBOLS
__stack_chk_fail
__stack_chk_guard
