ARM GAS  C:\Users\mathi\AppData\Local\Temp\ccu7R7Us.s 			page 1


   1              		.cpu cortex-m4
   2              		.eabi_attribute 27, 1
   3              		.eabi_attribute 28, 1
   4              		.eabi_attribute 20, 1
   5              		.eabi_attribute 21, 1
   6              		.eabi_attribute 23, 3
   7              		.eabi_attribute 24, 1
   8              		.eabi_attribute 25, 1
   9              		.eabi_attribute 26, 1
  10              		.eabi_attribute 30, 2
  11              		.eabi_attribute 34, 1
  12              		.eabi_attribute 18, 4
  13              		.file	"crc32.c"
  14              		.text
  15              	.Ltext0:
  16              		.cfi_sections	.debug_frame
  17              		.section	.text.crc32,"ax",%progbits
  18              		.align	1
  19              		.p2align 4,,15
  20              		.global	crc32
  21              		.syntax unified
  22              		.thumb
  23              		.thumb_func
  24              		.fpu fpv4-sp-d16
  25              		.type	crc32, %function
  26              	crc32:
  27              	.LFB0:
  28              		.file 1 "../../lib/e-puck2_main-processor/src/crc/crc32.c"
  29              		.loc 1 8 0
  30              		.cfi_startproc
  31              		@ args = 0, pretend = 0, frame = 8
  32              		@ frame_needed = 0, uses_anonymous_args = 0
  33              	.LVL0:
  34 0000 70B5     		push	{r4, r5, r6, lr}
  35              		.cfi_def_cfa_offset 16
  36              		.cfi_offset 4, -16
  37              		.cfi_offset 5, -12
  38              		.cfi_offset 6, -8
  39              		.cfi_offset 14, -4
  40 0002 284C     		ldr	r4, .L44
  41 0004 82B0     		sub	sp, sp, #8
  42              		.cfi_def_cfa_offset 24
  43              		.loc 1 8 0
  44 0006 2368     		ldr	r3, [r4]
  45 0008 0193     		str	r3, [sp, #4]
  46              	.LVL1:
  47              		.loc 1 10 0
  48 000a C043     		mvns	r0, r0
  49              	.LVL2:
  50              		.loc 1 12 0
  51 000c 002A     		cmp	r2, #0
  52 000e 3FD0     		beq	.L2
  53 0010 551E     		subs	r5, r2, #1
  54              	.LBB2:
  55              		.loc 1 16 0
  56 0012 254A     		ldr	r2, .L44+4
  57              	.LVL3:
ARM GAS  C:\Users\mathi\AppData\Local\Temp\ccu7R7Us.s 			page 2


  58 0014 0D44     		add	r5, r5, r1
  59              	.LVL4:
  60 0016 0139     		subs	r1, r1, #1
  61              	.LVL5:
  62              	.L11:
  63              		.loc 1 15 0
  64 0018 11F8013F 		ldrb	r3, [r1, #1]!	@ zero_extendqisi2
  65              	.LVL6:
  66 001c 83EA0006 		eor	r6, r3, r0
  67 0020 F607     		lsls	r6, r6, #31
  68 0022 4FEA5000 		lsr	r0, r0, #1
  69              	.LVL7:
  70              		.loc 1 16 0
  71 0026 48BF     		it	mi
  72 0028 5040     		eormi	r0, r0, r2
  73              	.LVL8:
  74              		.loc 1 15 0
  75 002a 80EA5306 		eor	r6, r0, r3, lsr #1
  76 002e F607     		lsls	r6, r6, #31
  77 0030 4FEA5000 		lsr	r0, r0, #1
  78              	.LVL9:
  79              		.loc 1 16 0
  80 0034 48BF     		it	mi
  81 0036 5040     		eormi	r0, r0, r2
  82              	.LVL10:
  83              		.loc 1 15 0
  84 0038 80EA9306 		eor	r6, r0, r3, lsr #2
  85 003c F607     		lsls	r6, r6, #31
  86 003e 4FEA5000 		lsr	r0, r0, #1
  87              	.LVL11:
  88              		.loc 1 16 0
  89 0042 48BF     		it	mi
  90 0044 5040     		eormi	r0, r0, r2
  91              	.LVL12:
  92              		.loc 1 15 0
  93 0046 80EAD306 		eor	r6, r0, r3, lsr #3
  94 004a F607     		lsls	r6, r6, #31
  95 004c 4FEA5000 		lsr	r0, r0, #1
  96              	.LVL13:
  97              		.loc 1 16 0
  98 0050 48BF     		it	mi
  99 0052 5040     		eormi	r0, r0, r2
 100              	.LVL14:
 101              		.loc 1 15 0
 102 0054 80EA1316 		eor	r6, r0, r3, lsr #4
 103 0058 F607     		lsls	r6, r6, #31
 104 005a 4FEA5000 		lsr	r0, r0, #1
 105              	.LVL15:
 106              		.loc 1 16 0
 107 005e 48BF     		it	mi
 108 0060 5040     		eormi	r0, r0, r2
 109              	.LVL16:
 110              		.loc 1 15 0
 111 0062 80EA5316 		eor	r6, r0, r3, lsr #5
 112 0066 F607     		lsls	r6, r6, #31
 113 0068 4FEA5000 		lsr	r0, r0, #1
 114              	.LVL17:
ARM GAS  C:\Users\mathi\AppData\Local\Temp\ccu7R7Us.s 			page 3


 115              		.loc 1 16 0
 116 006c 48BF     		it	mi
 117 006e 5040     		eormi	r0, r0, r2
 118              	.LVL18:
 119              		.loc 1 15 0
 120 0070 80EA9316 		eor	r6, r0, r3, lsr #6
 121 0074 F607     		lsls	r6, r6, #31
 122 0076 4FEA5000 		lsr	r0, r0, #1
 123              	.LVL19:
 124              		.loc 1 16 0
 125 007a 48BF     		it	mi
 126 007c 5040     		eormi	r0, r0, r2
 127              	.LVL20:
 128              		.loc 1 15 0
 129 007e 80EAD313 		eor	r3, r0, r3, lsr #7
 130 0082 DB07     		lsls	r3, r3, #31
 131 0084 4FEA5000 		lsr	r0, r0, #1
 132              	.LVL21:
 133              		.loc 1 16 0
 134 0088 48BF     		it	mi
 135 008a 5040     		eormi	r0, r0, r2
 136              	.LVL22:
 137              	.LBE2:
 138              		.loc 1 12 0
 139 008c 8D42     		cmp	r5, r1
 140 008e C3D1     		bne	.L11
 141              	.LVL23:
 142              	.L2:
 143              		.loc 1 23 0
 144 0090 019A     		ldr	r2, [sp, #4]
 145 0092 2368     		ldr	r3, [r4]
 146 0094 9A42     		cmp	r2, r3
 147 0096 6FEA0000 		mvn	r0, r0
 148              	.LVL24:
 149 009a 01D1     		bne	.L43
 150 009c 02B0     		add	sp, sp, #8
 151              		.cfi_remember_state
 152              		.cfi_def_cfa_offset 16
 153              		@ sp needed
 154 009e 70BD     		pop	{r4, r5, r6, pc}
 155              	.L43:
 156              		.cfi_restore_state
 157 00a0 FFF7FEFF 		bl	__stack_chk_fail
 158              	.LVL25:
 159              	.L45:
 160              		.align	2
 161              	.L44:
 162 00a4 00000000 		.word	__stack_chk_guard
 163 00a8 2083B8ED 		.word	-306674912
 164              		.cfi_endproc
 165              	.LFE0:
 166              		.size	crc32, .-crc32
 167              		.text
 168              	.Letext0:
 169              		.file 2 "c:\\eclipse_e-puck2\\tools\\gcc-arm-none-eabi-7-2017-q4-major-win32\\arm-none-eabi\\inclu
 170              		.file 3 "c:\\eclipse_e-puck2\\tools\\gcc-arm-none-eabi-7-2017-q4-major-win32\\arm-none-eabi\\inclu
 171              		.file 4 "c:\\eclipse_e-puck2\\tools\\gcc-arm-none-eabi-7-2017-q4-major-win32\\lib\\gcc\\arm-none-e
ARM GAS  C:\Users\mathi\AppData\Local\Temp\ccu7R7Us.s 			page 4


 172              		.file 5 "c:\\eclipse_e-puck2\\tools\\gcc-arm-none-eabi-7-2017-q4-major-win32\\arm-none-eabi\\inclu
 173              		.file 6 "c:\\eclipse_e-puck2\\tools\\gcc-arm-none-eabi-7-2017-q4-major-win32\\arm-none-eabi\\inclu
 174              		.file 7 "c:\\eclipse_e-puck2\\tools\\gcc-arm-none-eabi-7-2017-q4-major-win32\\arm-none-eabi\\inclu
 175              		.file 8 "c:\\eclipse_e-puck2\\tools\\gcc-arm-none-eabi-7-2017-q4-major-win32\\arm-none-eabi\\inclu