ARM GAS  C:\Users\mathi\AppData\Local\Temp\ccW2SDKo.s 			page 1


   1              		.cpu cortex-m4
   2              		.eabi_attribute 27, 1
   3              		.eabi_attribute 28, 1
   4              		.eabi_attribute 20, 1
   5              		.eabi_attribute 21, 1
   6              		.eabi_attribute 23, 3
   7              		.eabi_attribute 24, 1
   8              		.eabi_attribute 25, 1
   9              		.eabi_attribute 26, 1
  10              		.eabi_attribute 30, 2
  11              		.eabi_attribute 34, 1
  12              		.eabi_attribute 18, 4
  13              		.file	"dcmi_lld.c"
  14              		.text
  15              	.Ltext0:
  16              		.cfi_sections	.debug_frame
  17              		.section	.text.dcmi_lld_serve_dma_rx_interrupt,"ax",%progbits
  18              		.align	1
  19              		.p2align 4,,15
  20              		.syntax unified
  21              		.thumb
  22              		.thumb_func
  23              		.fpu fpv4-sp-d16
  24              		.type	dcmi_lld_serve_dma_rx_interrupt, %function
  25              	dcmi_lld_serve_dma_rx_interrupt:
  26              	.LFB257:
  27              		.file 1 "../../lib/e-puck2_main-processor/ChibiOS_ext/os/hal/ports/STM32/STM32F4xx/dcmi_lld.c"
  28              		.loc 1 63 0
  29              		.cfi_startproc
  30              		@ args = 0, pretend = 0, frame = 8
  31              		@ frame_needed = 0, uses_anonymous_args = 0
  32              	.LVL0:
  33 0000 30B5     		push	{r4, r5, lr}
  34              		.cfi_def_cfa_offset 12
  35              		.cfi_offset 4, -12
  36              		.cfi_offset 5, -8
  37              		.cfi_offset 14, -4
  38 0002 1C4D     		ldr	r5, .L22
  39 0004 83B0     		sub	sp, sp, #12
  40              		.cfi_def_cfa_offset 24
  41              		.loc 1 63 0
  42 0006 2B68     		ldr	r3, [r5]
  43 0008 0193     		str	r3, [sp, #4]
  44              		.loc 1 66 0
  45 000a 11F00C0F 		tst	r1, #12
  46              		.loc 1 63 0
  47 000e 0446     		mov	r4, r0
  48              		.loc 1 66 0
  49 0010 0AD0     		beq	.L17
  50              		.loc 1 67 0
  51 0012 0378     		ldrb	r3, [r0]	@ zero_extendqisi2
  52 0014 032B     		cmp	r3, #3
  53 0016 13D0     		beq	.L20
  54              	.LVL1:
  55              	.L4:
  56 0018 0622     		movs	r2, #6
  57 001a 6368     		ldr	r3, [r4, #4]
ARM GAS  C:\Users\mathi\AppData\Local\Temp\ccW2SDKo.s 			page 2


  58 001c 2270     		strb	r2, [r4]
  59 001e 9A68     		ldr	r2, [r3, #8]
  60 0020 1AB1     		cbz	r2, .L3
  61              		.loc 1 67 0 is_stmt 0 discriminator 4
  62 0022 0021     		movs	r1, #0
  63 0024 2046     		mov	r0, r4
  64 0026 9047     		blx	r2
  65              	.LVL2:
  66              	.L17:
  67 0028 6368     		ldr	r3, [r4, #4]
  68              	.L3:
  69              		.loc 1 69 0 is_stmt 1
  70 002a 5B68     		ldr	r3, [r3, #4]
  71 002c CBB1     		cbz	r3, .L1
  72              		.loc 1 70 0
  73 002e 0199     		ldr	r1, [sp, #4]
  74 0030 2A68     		ldr	r2, [r5]
  75 0032 9142     		cmp	r1, r2
  76 0034 1BD1     		bne	.L18
  77 0036 2046     		mov	r0, r4
  78              		.loc 1 73 0
  79 0038 03B0     		add	sp, sp, #12
  80              		.cfi_remember_state
  81              		.cfi_def_cfa_offset 12
  82              		@ sp needed
  83 003a BDE83040 		pop	{r4, r5, lr}
  84              		.cfi_restore 14
  85              		.cfi_restore 5
  86              		.cfi_restore 4
  87              		.cfi_def_cfa_offset 0
  88              	.LVL3:
  89              		.loc 1 70 0
  90 003e 1847     		bx	r3	@ indirect register sibling call
  91              	.LVL4:
  92              	.L20:
  93              		.cfi_restore_state
  94              	.LBB45:
  95              	.LBB46:
  96              	.LBB47:
  97              	.LBB48:
  98              		.loc 1 243 0
  99 0040 8168     		ldr	r1, [r0, #8]
 100              	.LVL5:
 101              	.LBB49:
 102              	.LBB50:
 103              	.LBB51:
 104              		.file 2 "../../lib/e-puck2_main-processor/ChibiOS//os/rt/include/chvt.h"
 105              		.loc 2 231 0
 106 0042 0D4A     		ldr	r2, .L22+4
 107              	.LBE51:
 108              	.LBE50:
 109              	.LBE49:
 110              		.loc 1 243 0
 111 0044 0B68     		ldr	r3, [r1]
 112 0046 23F00103 		bic	r3, r3, #1
 113 004a 0B60     		str	r3, [r1]
 114              	.LBB54:
ARM GAS  C:\Users\mathi\AppData\Local\Temp\ccW2SDKo.s 			page 3


 115              	.LBB53:
 116              	.LBB52:
 117              		.loc 2 231 0
 118 004c 906A     		ldr	r0, [r2, #40]
 119              	.LVL6:
 120              	.LBE52:
 121              	.LBE53:
 122              	.LBE54:
 123              		.loc 1 250 0
 124 004e A168     		ldr	r1, [r4, #8]
 125 0050 03E0     		b	.L5
 126              	.L21:
 127              	.LBB55:
 128              	.LBB56:
 129              	.LBB57:
 130              		.loc 2 231 0
 131 0052 936A     		ldr	r3, [r2, #40]
 132              	.LBE57:
 133              	.LBE56:
 134              	.LBE55:
 135              	.LBB58:
 136              	.LBB59:
 137              	.LBB60:
 138              		.loc 2 288 0
 139 0054 1B1A     		subs	r3, r3, r0
 140              	.LBE60:
 141              	.LBE59:
 142              	.LBE58:
 143              		.loc 1 254 0
 144 0056 C72B     		cmp	r3, #199
 145 0058 DED8     		bhi	.L4
 146              	.L5:
 147              		.loc 1 250 0
 148 005a 0B68     		ldr	r3, [r1]
 149 005c DB07     		lsls	r3, r3, #31
 150 005e DBD5     		bpl	.L4
 151 0060 F7E7     		b	.L21
 152              	.LVL7:
 153              	.L1:
 154              	.LBE48:
 155              	.LBE47:
 156              	.LBE46:
 157              	.LBE45:
 158              		.loc 1 73 0
 159 0062 019A     		ldr	r2, [sp, #4]
 160 0064 2B68     		ldr	r3, [r5]
 161 0066 9A42     		cmp	r2, r3
 162 0068 01D1     		bne	.L18
 163 006a 03B0     		add	sp, sp, #12
 164              		.cfi_remember_state
 165              		.cfi_def_cfa_offset 12
 166              		@ sp needed
 167 006c 30BD     		pop	{r4, r5, pc}
 168              	.LVL8:
 169              	.L18:
 170              		.cfi_restore_state
 171 006e FFF7FEFF 		bl	__stack_chk_fail
ARM GAS  C:\Users\mathi\AppData\Local\Temp\ccW2SDKo.s 			page 4


 172              	.LVL9:
 173              	.L23:
 174 0072 00BF     		.align	2
 175              	.L22:
 176 0074 00000000 		.word	__stack_chk_guard
 177 0078 00000000 		.word	ch
 178              		.cfi_endproc
 179              	.LFE257:
 180              		.size	dcmi_lld_serve_dma_rx_interrupt, .-dcmi_lld_serve_dma_rx_interrupt
 181              		.section	.text.Vector178,"ax",%progbits
 182              		.align	1
 183              		.p2align 4,,15
 184              		.global	Vector178
 185              		.syntax unified
 186              		.thumb
 187              		.thumb_func
 188              		.fpu fpv4-sp-d16
 189              		.type	Vector178, %function
 190              	Vector178:
 191              	.LFB258:
 192              		.loc 1 84 0
 193              		.cfi_startproc
 194              		@ args = 0, pretend = 0, frame = 8
 195              		@ frame_needed = 0, uses_anonymous_args = 0
 196 0000 F0B5     		push	{r4, r5, r6, r7, lr}
 197              		.cfi_def_cfa_offset 20
 198              		.cfi_offset 4, -20
 199              		.cfi_offset 5, -16
 200              		.cfi_offset 6, -12
 201              		.cfi_offset 7, -8
 202              		.cfi_offset 14, -4
 203 0002 2F4D     		ldr	r5, .L58
 204 0004 83B0     		sub	sp, sp, #12
 205              		.cfi_def_cfa_offset 32
 206              		.loc 1 84 0
 207 0006 2B68     		ldr	r3, [r5]
 208 0008 0193     		str	r3, [sp, #4]
 209              		.loc 1 85 0
 210 000a FFF7FEFF 		bl	_stats_increase_irq
 211              	.LVL10:
 212 000e FFF7FEFF 		bl	_dbg_check_enter_isr
 213              	.LVL11:
 214              		.loc 1 87 0
 215 0012 2C4B     		ldr	r3, .L58+4
 216 0014 1E69     		ldr	r6, [r3, #16]
 217              	.LVL12:
 218              		.loc 1 88 0
 219 0016 F107     		lsls	r1, r6, #31
 220 0018 15D5     		bpl	.L25
 221              		.loc 1 89 0
 222 001a 5A69     		ldr	r2, [r3, #20]
 223              	.LBB75:
 224              		.loc 1 90 0
 225 001c 2A4C     		ldr	r4, .L58+8
 226              	.LBE75:
 227              		.loc 1 89 0
 228 001e 42F00102 		orr	r2, r2, #1
ARM GAS  C:\Users\mathi\AppData\Local\Temp\ccW2SDKo.s 			page 5


 229 0022 5A61     		str	r2, [r3, #20]
 230              	.LBB76:
 231              		.loc 1 90 0
 232 0024 2778     		ldrb	r7, [r4]	@ zero_extendqisi2
 233              	.LVL13:
 234 0026 BB1F     		subs	r3, r7, #6
 235 0028 012B     		cmp	r3, #1
 236 002a 2AD9     		bls	.L24
 237              		.loc 1 90 0 is_stmt 0 discriminator 1
 238 002c 0522     		movs	r2, #5
 239 002e 6368     		ldr	r3, [r4, #4]
 240 0030 2270     		strb	r2, [r4]
 241 0032 1B68     		ldr	r3, [r3]
 242 0034 0BB1     		cbz	r3, .L27
 243              		.loc 1 90 0 discriminator 2
 244 0036 2046     		mov	r0, r4
 245 0038 9847     		blx	r3
 246              	.LVL14:
 247              	.L27:
 248              		.loc 1 90 0 discriminator 4
 249 003a 042F     		cmp	r7, #4
 250 003c 27D0     		beq	.L29
 251              		.loc 1 90 0 discriminator 6
 252 003e 022F     		cmp	r7, #2
 253 0040 25D0     		beq	.L29
 254              		.loc 1 90 0 discriminator 8
 255 0042 0323     		movs	r3, #3
 256 0044 2370     		strb	r3, [r4]
 257              	.LVL15:
 258              	.L25:
 259              	.LBE76:
 260              		.loc 1 92 0 is_stmt 1
 261 0046 B207     		lsls	r2, r6, #30
 262 0048 10D5     		bpl	.L31
 263              	.L56:
 264              		.loc 1 93 0
 265 004a 1E4A     		ldr	r2, .L58+4
 266              		.loc 1 94 0
 267 004c 1E4C     		ldr	r4, .L58+8
 268              		.loc 1 93 0
 269 004e 5369     		ldr	r3, [r2, #20]
 270 0050 43F00203 		orr	r3, r3, #2
 271 0054 5361     		str	r3, [r2, #20]
 272              		.loc 1 94 0
 273 0056 2378     		ldrb	r3, [r4]	@ zero_extendqisi2
 274 0058 032B     		cmp	r3, #3
 275 005a 1DD0     		beq	.L55
 276              	.L32:
 277 005c 6368     		ldr	r3, [r4, #4]
 278 005e 9B68     		ldr	r3, [r3, #8]
 279 0060 0622     		movs	r2, #6
 280 0062 2270     		strb	r2, [r4]
 281 0064 13B1     		cbz	r3, .L31
 282              		.loc 1 94 0 is_stmt 0 discriminator 4
 283 0066 0121     		movs	r1, #1
 284 0068 1748     		ldr	r0, .L58+8
 285 006a 9847     		blx	r3
ARM GAS  C:\Users\mathi\AppData\Local\Temp\ccW2SDKo.s 			page 6


 286              	.LVL16:
 287              	.L31:
 288              		.loc 1 98 0 is_stmt 1
 289 006c FFF7FEFF 		bl	_dbg_check_leave_isr
 290              	.LVL17:
 291 0070 019A     		ldr	r2, [sp, #4]
 292 0072 2B68     		ldr	r3, [r5]
 293 0074 9A42     		cmp	r2, r3
 294 0076 20D1     		bne	.L54
 295              		.loc 1 99 0
 296 0078 03B0     		add	sp, sp, #12
 297              		.cfi_remember_state
 298              		.cfi_def_cfa_offset 20
 299              		@ sp needed
 300 007a BDE8F040 		pop	{r4, r5, r6, r7, lr}
 301              		.cfi_restore 14
 302              		.cfi_restore 7
 303              		.cfi_restore 6
 304              		.cfi_restore 5
 305              		.cfi_restore 4
 306              		.cfi_def_cfa_offset 0
 307              	.LVL18:
 308              		.loc 1 98 0
 309 007e FFF7FEBF 		b	_port_irq_epilogue
 310              	.LVL19:
 311              	.L24:
 312              		.cfi_restore_state
 313              		.loc 1 99 0
 314 0082 019A     		ldr	r2, [sp, #4]
 315 0084 2B68     		ldr	r3, [r5]
 316 0086 9A42     		cmp	r2, r3
 317 0088 17D1     		bne	.L54
 318 008a 03B0     		add	sp, sp, #12
 319              		.cfi_remember_state
 320              		.cfi_def_cfa_offset 20
 321              		@ sp needed
 322 008c F0BD     		pop	{r4, r5, r6, r7, pc}
 323              	.LVL20:
 324              	.L29:
 325              		.cfi_restore_state
 326              	.LBB77:
 327              		.loc 1 90 0 discriminator 5
 328 008e 0223     		movs	r3, #2
 329              	.LBE77:
 330              		.loc 1 92 0 discriminator 5
 331 0090 B207     		lsls	r2, r6, #30
 332              	.LBB78:
 333              		.loc 1 90 0 discriminator 5
 334 0092 2370     		strb	r3, [r4]
 335              	.LBE78:
 336              		.loc 1 92 0 discriminator 5
 337 0094 EAD5     		bpl	.L31
 338 0096 D8E7     		b	.L56
 339              	.LVL21:
 340              	.L55:
 341              	.LBB79:
 342              	.LBB80:
ARM GAS  C:\Users\mathi\AppData\Local\Temp\ccW2SDKo.s 			page 7


 343              	.LBB81:
 344              	.LBB82:
 345              		.loc 1 243 0
 346 0098 A168     		ldr	r1, [r4, #8]
 347              	.LBB83:
 348              	.LBB84:
 349              	.LBB85:
 350              		.loc 2 231 0
 351 009a 0C4A     		ldr	r2, .L58+12
 352              	.LBE85:
 353              	.LBE84:
 354              	.LBE83:
 355              		.loc 1 243 0
 356 009c 0B68     		ldr	r3, [r1]
 357 009e 23F00103 		bic	r3, r3, #1
 358 00a2 0B60     		str	r3, [r1]
 359              	.LBB88:
 360              	.LBB87:
 361              	.LBB86:
 362              		.loc 2 231 0
 363 00a4 906A     		ldr	r0, [r2, #40]
 364              	.LVL22:
 365              	.LBE86:
 366              	.LBE87:
 367              	.LBE88:
 368              		.loc 1 250 0
 369 00a6 A168     		ldr	r1, [r4, #8]
 370 00a8 03E0     		b	.L33
 371              	.L57:
 372              	.LBB89:
 373              	.LBB90:
 374              	.LBB91:
 375              		.loc 2 231 0
 376 00aa 936A     		ldr	r3, [r2, #40]
 377              	.LBE91:
 378              	.LBE90:
 379              	.LBE89:
 380              	.LBB92:
 381              	.LBB93:
 382              	.LBB94:
 383              		.loc 2 288 0
 384 00ac 1B1A     		subs	r3, r3, r0
 385              	.LBE94:
 386              	.LBE93:
 387              	.LBE92:
 388              		.loc 1 254 0
 389 00ae C72B     		cmp	r3, #199
 390 00b0 D4D8     		bhi	.L32
 391              	.L33:
 392              		.loc 1 250 0
 393 00b2 0B68     		ldr	r3, [r1]
 394 00b4 DB07     		lsls	r3, r3, #31
 395 00b6 D1D5     		bpl	.L32
 396 00b8 F7E7     		b	.L57
 397              	.LVL23:
 398              	.L54:
 399              	.LBE82:
ARM GAS  C:\Users\mathi\AppData\Local\Temp\ccW2SDKo.s 			page 8


 400              	.LBE81:
 401              	.LBE80:
 402              	.LBE79:
 403              		.loc 1 99 0
 404 00ba FFF7FEFF 		bl	__stack_chk_fail
 405              	.LVL24:
 406              	.L59:
 407 00be 00BF     		.align	2
 408              	.L58:
 409 00c0 00000000 		.word	__stack_chk_guard
 410 00c4 00000550 		.word	1342504960
 411 00c8 00000000 		.word	.LANCHOR0
 412 00cc 00000000 		.word	ch
 413              		.cfi_endproc
 414              	.LFE258:
 415              		.size	Vector178, .-Vector178
 416              		.section	.text.dcmi_lld_init,"ax",%progbits
 417              		.align	1
 418              		.p2align 4,,15
 419              		.global	dcmi_lld_init
 420              		.syntax unified
 421              		.thumb
 422              		.thumb_func
 423              		.fpu fpv4-sp-d16
 424              		.type	dcmi_lld_init, %function
 425              	dcmi_lld_init:
 426              	.LFB259:
 427              		.loc 1 110 0
 428              		.cfi_startproc
 429              		@ args = 0, pretend = 0, frame = 8
 430              		@ frame_needed = 0, uses_anonymous_args = 0
 431 0000 30B5     		push	{r4, r5, lr}
 432              		.cfi_def_cfa_offset 12
 433              		.cfi_offset 4, -12
 434              		.cfi_offset 5, -8
 435              		.cfi_offset 14, -4
 436 0002 0B4D     		ldr	r5, .L64
 437              		.loc 1 111 0
 438 0004 0B4C     		ldr	r4, .L64+4
 439              		.loc 1 110 0
 440 0006 2B68     		ldr	r3, [r5]
 441 0008 83B0     		sub	sp, sp, #12
 442              		.cfi_def_cfa_offset 24
 443              		.loc 1 111 0
 444 000a 2046     		mov	r0, r4
 445              		.loc 1 110 0
 446 000c 0193     		str	r3, [sp, #4]
 447              		.loc 1 111 0
 448 000e FFF7FEFF 		bl	dcmiObjectInit
 449              	.LVL25:
 450              		.loc 1 127 0
 451 0012 019A     		ldr	r2, [sp, #4]
 452 0014 2B68     		ldr	r3, [r5]
 453              		.loc 1 113 0
 454 0016 0848     		ldr	r0, .L64+8
 455              		.loc 1 112 0
 456 0018 084D     		ldr	r5, .L64+12
ARM GAS  C:\Users\mathi\AppData\Local\Temp\ccW2SDKo.s 			page 9


 457              		.loc 1 114 0
 458 001a 0949     		ldr	r1, .L64+16
 459 001c 2161     		str	r1, [r4, #16]
 460              		.loc 1 127 0
 461 001e 9A42     		cmp	r2, r3
 462              		.loc 1 113 0
 463 0020 C4E90250 		strd	r5, r0, [r4, #8]
 464              		.loc 1 127 0
 465 0024 01D1     		bne	.L63
 466 0026 03B0     		add	sp, sp, #12
 467              		.cfi_remember_state
 468              		.cfi_def_cfa_offset 12
 469              		@ sp needed
 470 0028 30BD     		pop	{r4, r5, pc}
 471              	.L63:
 472              		.cfi_restore_state
 473 002a FFF7FEFF 		bl	__stack_chk_fail
 474              	.LVL26:
 475              	.L65:
 476 002e 00BF     		.align	2
 477              	.L64:
 478 0030 00000000 		.word	__stack_chk_guard
 479 0034 00000000 		.word	.LANCHOR0
 480 0038 6C000000 		.word	_stm32_dma_streams+108
 481 003c 00000550 		.word	1342504960
 482 0040 16550202 		.word	33707286
 483              		.cfi_endproc
 484              	.LFE259:
 485              		.size	dcmi_lld_init, .-dcmi_lld_init
 486              		.section	.text.dcmi_lld_prepare,"ax",%progbits
 487              		.align	1
 488              		.p2align 4,,15
 489              		.global	dcmi_lld_prepare
 490              		.syntax unified
 491              		.thumb
 492              		.thumb_func
 493              		.fpu fpv4-sp-d16
 494              		.type	dcmi_lld_prepare, %function
 495              	dcmi_lld_prepare:
 496              	.LFB260:
 497              		.loc 1 139 0
 498              		.cfi_startproc
 499              		@ args = 0, pretend = 0, frame = 8
 500              		@ frame_needed = 0, uses_anonymous_args = 0
 501              	.LVL27:
 502 0000 2DE9F041 		push	{r4, r5, r6, r7, r8, lr}
 503              		.cfi_def_cfa_offset 24
 504              		.cfi_offset 4, -24
 505              		.cfi_offset 5, -20
 506              		.cfi_offset 6, -16
 507              		.cfi_offset 7, -12
 508              		.cfi_offset 8, -8
 509              		.cfi_offset 14, -4
 510 0004 2F4C     		ldr	r4, .L80
 511              		.loc 1 142 0
 512 0006 0578     		ldrb	r5, [r0]	@ zero_extendqisi2
 513              		.loc 1 139 0
ARM GAS  C:\Users\mathi\AppData\Local\Temp\ccW2SDKo.s 			page 10


 514 0008 2668     		ldr	r6, [r4]
 515 000a 82B0     		sub	sp, sp, #8
 516              		.cfi_def_cfa_offset 32
 517              		.loc 1 142 0
 518 000c 012D     		cmp	r5, #1
 519              		.loc 1 139 0
 520 000e 0196     		str	r6, [sp, #4]
 521              		.loc 1 142 0
 522 0010 06D0     		beq	.L76
 523              	.LVL28:
 524              	.L66:
 525              		.loc 1 174 0
 526 0012 019A     		ldr	r2, [sp, #4]
 527 0014 2368     		ldr	r3, [r4]
 528 0016 9A42     		cmp	r2, r3
 529 0018 51D1     		bne	.L77
 530 001a 02B0     		add	sp, sp, #8
 531              		.cfi_remember_state
 532              		.cfi_def_cfa_offset 24
 533              		@ sp needed
 534 001c BDE8F081 		pop	{r4, r5, r6, r7, r8, pc}
 535              	.LVL29:
 536              	.L76:
 537              		.cfi_restore_state
 538              		.loc 1 143 0
 539 0020 294D     		ldr	r5, .L80+4
 540 0022 A842     		cmp	r0, r5
 541 0024 F5D1     		bne	.L66
 542 0026 0E46     		mov	r6, r1
 543 0028 9046     		mov	r8, r2
 544 002a 1F46     		mov	r7, r3
 545              	.LBB95:
 546              		.loc 1 146 0
 547 002c 274A     		ldr	r2, .L80+8
 548              	.LVL30:
 549 002e E868     		ldr	r0, [r5, #12]
 550              	.LVL31:
 551 0030 2B46     		mov	r3, r5
 552              	.LVL32:
 553 0032 0C21     		movs	r1, #12
 554              	.LVL33:
 555 0034 FFF7FEFF 		bl	dmaStreamAllocate
 556              	.LVL34:
 557              		.loc 1 147 0
 558 0038 0028     		cmp	r0, #0
 559 003a 39D1     		bne	.L78
 560              	.LVL35:
 561              	.L68:
 562              		.loc 1 148 0
 563 003c D5E90232 		ldrd	r3, r2, [r5, #8]
 564 0040 1268     		ldr	r2, [r2]
 565 0042 2833     		adds	r3, r3, #40
 566 0044 9360     		str	r3, [r2, #8]
 567              		.loc 1 149 0
 568 0046 EB68     		ldr	r3, [r5, #12]
 569 0048 1A68     		ldr	r2, [r3]
 570 004a 0421     		movs	r1, #4
ARM GAS  C:\Users\mathi\AppData\Local\Temp\ccW2SDKo.s 			page 11


 571 004c 5161     		str	r1, [r2, #20]
 572              		.loc 1 150 0
 573 004e 1B68     		ldr	r3, [r3]
 574 0050 C3F80C80 		str	r8, [r3, #12]
 575              		.loc 1 151 0
 576 0054 EB68     		ldr	r3, [r5, #12]
 577 0056 1A68     		ldr	r2, [r3]
 578 0058 1761     		str	r7, [r2, #16]
 579              		.loc 1 152 0
 580 005a 1B68     		ldr	r3, [r3]
 581 005c B608     		lsrs	r6, r6, #2
 582              	.LVL36:
 583 005e 5E60     		str	r6, [r3, #4]
 584              		.loc 1 155 0
 585 0060 2B69     		ldr	r3, [r5, #16]
 586              		.loc 1 154 0
 587 0062 4FB3     		cbz	r7, .L79
 588              		.loc 1 157 0
 589 0064 43F48023 		orr	r3, r3, #262144
 590              	.L70:
 591              		.loc 1 159 0
 592 0068 EA68     		ldr	r2, [r5, #12]
 593 006a 2B61     		str	r3, [r5, #16]
 594 006c 1168     		ldr	r1, [r2]
 595              		.loc 1 163 0
 596 006e 184A     		ldr	r2, .L80+12
 597              		.loc 1 159 0
 598 0070 0B60     		str	r3, [r1]
 599              		.loc 1 160 0
 600 0072 EB68     		ldr	r3, [r5, #12]
 601 0074 1968     		ldr	r1, [r3]
 602 0076 0B68     		ldr	r3, [r1]
 603 0078 43F00103 		orr	r3, r3, #1
 604 007c 0B60     		str	r3, [r1]
 605              		.loc 1 163 0
 606 007e 536B     		ldr	r3, [r2, #52]
 607 0080 43F00103 		orr	r3, r3, #1
 608 0084 5363     		str	r3, [r2, #52]
 609              		.loc 1 164 0
 610 0086 0B21     		movs	r1, #11
 611 0088 4E20     		movs	r0, #78
 612 008a FFF7FEFF 		bl	nvicEnableVector
 613              	.LVL37:
 614              		.loc 1 170 0
 615 008e D5E90113 		ldrd	r1, r3, [r5, #4]
 616              		.loc 1 166 0
 617 0092 DA68     		ldr	r2, [r3, #12]
 618 0094 42F00102 		orr	r2, r2, #1
 619 0098 DA60     		str	r2, [r3, #12]
 620              		.loc 1 168 0
 621 009a DA68     		ldr	r2, [r3, #12]
 622 009c 42F00202 		orr	r2, r2, #2
 623 00a0 DA60     		str	r2, [r3, #12]
 624              		.loc 1 170 0
 625 00a2 CA68     		ldr	r2, [r1, #12]
 626 00a4 22F48042 		bic	r2, r2, #16384
 627 00a8 22F00102 		bic	r2, r2, #1
ARM GAS  C:\Users\mathi\AppData\Local\Temp\ccW2SDKo.s 			page 12


 628 00ac 1A60     		str	r2, [r3]
 629              	.LBE95:
 630              		.loc 1 174 0
 631 00ae B0E7     		b	.L66
 632              	.LVL38:
 633              	.L78:
 634              	.LBB96:
 635              		.loc 1 147 0 discriminator 2
 636 00b0 0848     		ldr	r0, .L80+16
 637              	.LVL39:
 638 00b2 FFF7FEFF 		bl	chSysHalt
 639              	.LVL40:
 640 00b6 C1E7     		b	.L68
 641              	.LVL41:
 642              	.L79:
 643              		.loc 1 155 0
 644 00b8 23F48023 		bic	r3, r3, #262144
 645 00bc D4E7     		b	.L70
 646              	.LVL42:
 647              	.L77:
 648              	.LBE96:
 649              		.loc 1 174 0
 650 00be FFF7FEFF 		bl	__stack_chk_fail
 651              	.LVL43:
 652              	.L81:
 653 00c2 00BF     		.align	2
 654              	.L80:
 655 00c4 00000000 		.word	__stack_chk_guard
 656 00c8 00000000 		.word	.LANCHOR0
 657 00cc 00000000 		.word	dcmi_lld_serve_dma_rx_interrupt
 658 00d0 00380240 		.word	1073887232
 659 00d4 00000000 		.word	.LANCHOR1
 660              		.cfi_endproc
 661              	.LFE260:
 662              		.size	dcmi_lld_prepare, .-dcmi_lld_prepare
 663              		.section	.text.dcmi_lld_unprepare,"ax",%progbits
 664              		.align	1
 665              		.p2align 4,,15
 666              		.global	dcmi_lld_unprepare
 667              		.syntax unified
 668              		.thumb
 669              		.thumb_func
 670              		.fpu fpv4-sp-d16
 671              		.type	dcmi_lld_unprepare, %function
 672              	dcmi_lld_unprepare:
 673              	.LFB261:
 674              		.loc 1 183 0
 675              		.cfi_startproc
 676              		@ args = 0, pretend = 0, frame = 8
 677              		@ frame_needed = 0, uses_anonymous_args = 0
 678              	.LVL44:
 679 0000 30B5     		push	{r4, r5, lr}
 680              		.cfi_def_cfa_offset 12
 681              		.cfi_offset 4, -12
 682              		.cfi_offset 5, -8
 683              		.cfi_offset 14, -4
 684 0002 184C     		ldr	r4, .L89
ARM GAS  C:\Users\mathi\AppData\Local\Temp\ccW2SDKo.s 			page 13


 685              		.loc 1 185 0
 686 0004 0378     		ldrb	r3, [r0]	@ zero_extendqisi2
 687              		.loc 1 183 0
 688 0006 2268     		ldr	r2, [r4]
 689 0008 83B0     		sub	sp, sp, #12
 690              		.cfi_def_cfa_offset 24
 691              		.loc 1 185 0
 692 000a 022B     		cmp	r3, #2
 693              		.loc 1 183 0
 694 000c 0192     		str	r2, [sp, #4]
 695              		.loc 1 185 0
 696 000e 05D0     		beq	.L88
 697              	.L82:
 698              		.loc 1 196 0
 699 0010 019A     		ldr	r2, [sp, #4]
 700 0012 2368     		ldr	r3, [r4]
 701 0014 9A42     		cmp	r2, r3
 702 0016 23D1     		bne	.L87
 703 0018 03B0     		add	sp, sp, #12
 704              		.cfi_remember_state
 705              		.cfi_def_cfa_offset 12
 706              		@ sp needed
 707 001a 30BD     		pop	{r4, r5, pc}
 708              	.L88:
 709              		.cfi_restore_state
 710              		.loc 1 186 0
 711 001c 124B     		ldr	r3, .L89+4
 712 001e 9842     		cmp	r0, r3
 713 0020 0546     		mov	r5, r0
 714 0022 F5D1     		bne	.L82
 715              		.loc 1 188 0
 716 0024 8168     		ldr	r1, [r0, #8]
 717              		.loc 1 190 0
 718 0026 114A     		ldr	r2, .L89+8
 719              		.loc 1 188 0
 720 0028 0B68     		ldr	r3, [r1]
 721 002a 23F48043 		bic	r3, r3, #16384
 722 002e 23F00103 		bic	r3, r3, #1
 723 0032 0B60     		str	r3, [r1]
 724              		.loc 1 189 0
 725 0034 8168     		ldr	r1, [r0, #8]
 726 0036 CB68     		ldr	r3, [r1, #12]
 727 0038 23F00F03 		bic	r3, r3, #15
 728 003c CB60     		str	r3, [r1, #12]
 729              		.loc 1 190 0
 730 003e 536B     		ldr	r3, [r2, #52]
 731 0040 23F00103 		bic	r3, r3, #1
 732 0044 5363     		str	r3, [r2, #52]
 733              		.loc 1 191 0
 734 0046 4E20     		movs	r0, #78
 735              	.LVL45:
 736 0048 FFF7FEFF 		bl	nvicDisableVector
 737              	.LVL46:
 738              		.loc 1 193 0
 739 004c 019A     		ldr	r2, [sp, #4]
 740 004e 2368     		ldr	r3, [r4]
 741 0050 9A42     		cmp	r2, r3
ARM GAS  C:\Users\mathi\AppData\Local\Temp\ccW2SDKo.s 			page 14


 742 0052 05D1     		bne	.L87
 743 0054 E868     		ldr	r0, [r5, #12]
 744              		.loc 1 196 0
 745 0056 03B0     		add	sp, sp, #12
 746              		.cfi_remember_state
 747              		.cfi_def_cfa_offset 12
 748              		@ sp needed
 749 0058 BDE83040 		pop	{r4, r5, lr}
 750              		.cfi_restore 14
 751              		.cfi_restore 5
 752              		.cfi_restore 4
 753              		.cfi_def_cfa_offset 0
 754              	.LVL47:
 755              		.loc 1 193 0
 756 005c FFF7FEBF 		b	dmaStreamRelease
 757              	.LVL48:
 758              	.L87:
 759              		.cfi_restore_state
 760              		.loc 1 196 0
 761 0060 FFF7FEFF 		bl	__stack_chk_fail
 762              	.LVL49:
 763              	.L90:
 764              		.align	2
 765              	.L89:
 766 0064 00000000 		.word	__stack_chk_guard
 767 0068 00000000 		.word	.LANCHOR0
 768 006c 00380240 		.word	1073887232
 769              		.cfi_endproc
 770              	.LFE261:
 771              		.size	dcmi_lld_unprepare, .-dcmi_lld_unprepare
 772              		.section	.text.dcmi_lld_start_oneshot,"ax",%progbits
 773              		.align	1
 774              		.p2align 4,,15
 775              		.global	dcmi_lld_start_oneshot
 776              		.syntax unified
 777              		.thumb
 778              		.thumb_func
 779              		.fpu fpv4-sp-d16
 780              		.type	dcmi_lld_start_oneshot, %function
 781              	dcmi_lld_start_oneshot:
 782              	.LFB262:
 783              		.loc 1 205 0
 784              		.cfi_startproc
 785              		@ args = 0, pretend = 0, frame = 8
 786              		@ frame_needed = 0, uses_anonymous_args = 0
 787              	.LVL50:
 788 0000 00B5     		push	{lr}
 789              		.cfi_def_cfa_offset 4
 790              		.cfi_offset 14, -4
 791 0002 0F4B     		ldr	r3, .L96
 792              		.loc 1 206 0
 793 0004 0278     		ldrb	r2, [r0]	@ zero_extendqisi2
 794              		.loc 1 205 0
 795 0006 1968     		ldr	r1, [r3]
 796 0008 83B0     		sub	sp, sp, #12
 797              		.cfi_def_cfa_offset 16
 798              		.loc 1 206 0
ARM GAS  C:\Users\mathi\AppData\Local\Temp\ccW2SDKo.s 			page 15


 799 000a 022A     		cmp	r2, #2
 800              		.loc 1 205 0
 801 000c 0191     		str	r1, [sp, #4]
 802              		.loc 1 206 0
 803 000e 0ED1     		bne	.L91
 804              		.loc 1 207 0
 805 0010 8168     		ldr	r1, [r0, #8]
 806 0012 0A68     		ldr	r2, [r1]
 807 0014 42F00202 		orr	r2, r2, #2
 808 0018 0A60     		str	r2, [r1]
 809              		.loc 1 208 0
 810 001a 8168     		ldr	r1, [r0, #8]
 811 001c 0A68     		ldr	r2, [r1]
 812 001e 42F48042 		orr	r2, r2, #16384
 813 0022 0A60     		str	r2, [r1]
 814              		.loc 1 209 0
 815 0024 8168     		ldr	r1, [r0, #8]
 816 0026 0A68     		ldr	r2, [r1]
 817 0028 42F00102 		orr	r2, r2, #1
 818 002c 0A60     		str	r2, [r1]
 819              	.L91:
 820              		.loc 1 211 0
 821 002e 019A     		ldr	r2, [sp, #4]
 822 0030 1B68     		ldr	r3, [r3]
 823 0032 9A42     		cmp	r2, r3
 824 0034 02D1     		bne	.L95
 825 0036 03B0     		add	sp, sp, #12
 826              		.cfi_remember_state
 827              		.cfi_def_cfa_offset 4
 828              		@ sp needed
 829 0038 5DF804FB 		ldr	pc, [sp], #4
 830              	.L95:
 831              		.cfi_restore_state
 832 003c FFF7FEFF 		bl	__stack_chk_fail
 833              	.LVL51:
 834              	.L97:
 835              		.align	2
 836              	.L96:
 837 0040 00000000 		.word	__stack_chk_guard
 838              		.cfi_endproc
 839              	.LFE262:
 840              		.size	dcmi_lld_start_oneshot, .-dcmi_lld_start_oneshot
 841              		.section	.text.dcmi_lld_start_stream,"ax",%progbits
 842              		.align	1
 843              		.p2align 4,,15
 844              		.global	dcmi_lld_start_stream
 845              		.syntax unified
 846              		.thumb
 847              		.thumb_func
 848              		.fpu fpv4-sp-d16
 849              		.type	dcmi_lld_start_stream, %function
 850              	dcmi_lld_start_stream:
 851              	.LFB263:
 852              		.loc 1 220 0
 853              		.cfi_startproc
 854              		@ args = 0, pretend = 0, frame = 8
 855              		@ frame_needed = 0, uses_anonymous_args = 0
ARM GAS  C:\Users\mathi\AppData\Local\Temp\ccW2SDKo.s 			page 16


 856              	.LVL52:
 857 0000 00B5     		push	{lr}
 858              		.cfi_def_cfa_offset 4
 859              		.cfi_offset 14, -4
 860 0002 0F4B     		ldr	r3, .L103
 861              		.loc 1 221 0
 862 0004 0278     		ldrb	r2, [r0]	@ zero_extendqisi2
 863              		.loc 1 220 0
 864 0006 1968     		ldr	r1, [r3]
 865 0008 83B0     		sub	sp, sp, #12
 866              		.cfi_def_cfa_offset 16
 867              		.loc 1 221 0
 868 000a 022A     		cmp	r2, #2
 869              		.loc 1 220 0
 870 000c 0191     		str	r1, [sp, #4]
 871              		.loc 1 221 0
 872 000e 0ED1     		bne	.L98
 873              		.loc 1 222 0
 874 0010 8168     		ldr	r1, [r0, #8]
 875 0012 0A68     		ldr	r2, [r1]
 876 0014 22F00202 		bic	r2, r2, #2
 877 0018 0A60     		str	r2, [r1]
 878              		.loc 1 223 0
 879 001a 8168     		ldr	r1, [r0, #8]
 880 001c 0A68     		ldr	r2, [r1]
 881 001e 42F48042 		orr	r2, r2, #16384
 882 0022 0A60     		str	r2, [r1]
 883              		.loc 1 224 0
 884 0024 8168     		ldr	r1, [r0, #8]
 885 0026 0A68     		ldr	r2, [r1]
 886 0028 42F00102 		orr	r2, r2, #1
 887 002c 0A60     		str	r2, [r1]
 888              	.L98:
 889              		.loc 1 226 0
 890 002e 019A     		ldr	r2, [sp, #4]
 891 0030 1B68     		ldr	r3, [r3]
 892 0032 9A42     		cmp	r2, r3
 893 0034 02D1     		bne	.L102
 894 0036 03B0     		add	sp, sp, #12
 895              		.cfi_remember_state
 896              		.cfi_def_cfa_offset 4
 897              		@ sp needed
 898 0038 5DF804FB 		ldr	pc, [sp], #4
 899              	.L102:
 900              		.cfi_restore_state
 901 003c FFF7FEFF 		bl	__stack_chk_fail
 902              	.LVL53:
 903              	.L104:
 904              		.align	2
 905              	.L103:
 906 0040 00000000 		.word	__stack_chk_guard
 907              		.cfi_endproc
 908              	.LFE263:
 909              		.size	dcmi_lld_start_stream, .-dcmi_lld_start_stream
 910              		.section	.text.dcmi_lld_stop_stream,"ax",%progbits
 911              		.align	1
 912              		.p2align 4,,15
ARM GAS  C:\Users\mathi\AppData\Local\Temp\ccW2SDKo.s 			page 17


 913              		.global	dcmi_lld_stop_stream
 914              		.syntax unified
 915              		.thumb
 916              		.thumb_func
 917              		.fpu fpv4-sp-d16
 918              		.type	dcmi_lld_stop_stream, %function
 919              	dcmi_lld_stop_stream:
 920              	.LFB264:
 921              		.loc 1 240 0
 922              		.cfi_startproc
 923              		@ args = 0, pretend = 0, frame = 8
 924              		@ frame_needed = 0, uses_anonymous_args = 0
 925              	.LVL54:
 926 0000 10B5     		push	{r4, lr}
 927              		.cfi_def_cfa_offset 8
 928              		.cfi_offset 4, -8
 929              		.cfi_offset 14, -4
 930 0002 1149     		ldr	r1, .L117
 931              		.loc 1 242 0
 932 0004 0378     		ldrb	r3, [r0]	@ zero_extendqisi2
 933              		.loc 1 240 0
 934 0006 0A68     		ldr	r2, [r1]
 935 0008 82B0     		sub	sp, sp, #8
 936              		.cfi_def_cfa_offset 16
 937              		.loc 1 242 0
 938 000a 032B     		cmp	r3, #3
 939              		.loc 1 240 0
 940 000c 0192     		str	r2, [sp, #4]
 941              		.loc 1 242 0
 942 000e 06D0     		beq	.L115
 943              	.LVL55:
 944              	.L106:
 945              		.loc 1 259 0
 946 0010 0020     		movs	r0, #0
 947              	.L105:
 948              		.loc 1 260 0
 949 0012 019A     		ldr	r2, [sp, #4]
 950 0014 0B68     		ldr	r3, [r1]
 951 0016 9A42     		cmp	r2, r3
 952 0018 13D1     		bne	.L116
 953 001a 02B0     		add	sp, sp, #8
 954              		.cfi_remember_state
 955              		.cfi_def_cfa_offset 8
 956              		@ sp needed
 957 001c 10BD     		pop	{r4, pc}
 958              	.LVL56:
 959              	.L115:
 960              		.cfi_restore_state
 961              	.LBB108:
 962              	.LBB109:
 963              		.loc 1 243 0
 964 001e 8468     		ldr	r4, [r0, #8]
 965              	.LBB110:
 966              	.LBB111:
 967              	.LBB112:
 968              		.loc 2 231 0
 969 0020 0A4A     		ldr	r2, .L117+4
ARM GAS  C:\Users\mathi\AppData\Local\Temp\ccW2SDKo.s 			page 18


 970              	.LBE112:
 971              	.LBE111:
 972              	.LBE110:
 973              		.loc 1 243 0
 974 0022 2368     		ldr	r3, [r4]
 975 0024 23F00103 		bic	r3, r3, #1
 976 0028 2360     		str	r3, [r4]
 977              		.loc 1 250 0
 978 002a 8068     		ldr	r0, [r0, #8]
 979              	.LVL57:
 980              	.LBB115:
 981              	.LBB114:
 982              	.LBB113:
 983              		.loc 2 231 0
 984 002c 946A     		ldr	r4, [r2, #40]
 985              	.LVL58:
 986              	.L108:
 987              	.LBE113:
 988              	.LBE114:
 989              	.LBE115:
 990              		.loc 1 250 0
 991 002e 0368     		ldr	r3, [r0]
 992 0030 DB07     		lsls	r3, r3, #31
 993 0032 EDD5     		bpl	.L106
 994              	.LBB116:
 995              	.LBB117:
 996              	.LBB118:
 997              		.loc 2 231 0
 998 0034 936A     		ldr	r3, [r2, #40]
 999              	.LBE118:
 1000              	.LBE117:
 1001              	.LBE116:
 1002              	.LBB119:
 1003              	.LBB120:
 1004              	.LBB121:
 1005              		.loc 2 288 0
 1006 0036 1B1B     		subs	r3, r3, r4
 1007              	.LBE121:
 1008              	.LBE120:
 1009              	.LBE119:
 1010              		.loc 1 254 0
 1011 0038 C72B     		cmp	r3, #199
 1012 003a F8D9     		bls	.L108
 1013              		.loc 1 255 0
 1014 003c 4FF0FF30 		mov	r0, #-1
 1015 0040 E7E7     		b	.L105
 1016              	.LVL59:
 1017              	.L116:
 1018              	.LBE109:
 1019              	.LBE108:
 1020              		.loc 1 260 0
 1021 0042 FFF7FEFF 		bl	__stack_chk_fail
 1022              	.LVL60:
 1023              	.L118:
 1024 0046 00BF     		.align	2
 1025              	.L117:
 1026 0048 00000000 		.word	__stack_chk_guard
ARM GAS  C:\Users\mathi\AppData\Local\Temp\ccW2SDKo.s 			page 19


 1027 004c 00000000 		.word	ch
 1028              		.cfi_endproc
 1029              	.LFE264:
 1030              		.size	dcmi_lld_stop_stream, .-dcmi_lld_stop_stream
 1031              		.global	DCMID
 1032              		.section	.bss.DCMID,"aw",%nobits
 1033              		.align	2
 1034              		.set	.LANCHOR0,. + 0
 1035              		.type	DCMID, %object
 1036              		.size	DCMID, 20
 1037              	DCMID:
 1038 0000 00000000 		.space	20
 1038      00000000 
 1038      00000000 
 1038      00000000 
 1038      00000000 
 1039              		.section	.rodata.__func__.9942,"a",%progbits
 1040              		.align	2
 1041              		.set	.LANCHOR1,. + 0
 1042              		.type	__func__.9942, %object
 1043              		.size	__func__.9942, 17
 1044              	__func__.9942:
 1045 0000 64636D69 		.ascii	"dcmi_lld_prepare\000"
 1045      5F6C6C64 
 1045      5F707265 
 1045      70617265 
 1045      00
 1046              		.text
 1047              	.Letext0:
 1048              		.file 3 "c:\\eclipse_e-puck2\\tools\\gcc-arm-none-eabi-7-2017-q4-major-win32\\lib\\gcc\\arm-none-e
 1049              		.file 4 "c:\\eclipse_e-puck2\\tools\\gcc-arm-none-eabi-7-2017-q4-major-win32\\arm-none-eabi\\inclu
 1050              		.file 5 "c:\\eclipse_e-puck2\\tools\\gcc-arm-none-eabi-7-2017-q4-major-win32\\arm-none-eabi\\inclu
 1051              		.file 6 "../../lib/e-puck2_main-processor/ChibiOS//os/rt/ports/ARMCMx/compilers/GCC/chtypes.h"
 1052              		.file 7 "../../lib/e-puck2_main-processor/ChibiOS//os/rt/include/chsystypes.h"
 1053              		.file 8 "../../lib/e-puck2_main-processor/ChibiOS//os/rt/include/chschd.h"
 1054              		.file 9 "../../lib/e-puck2_main-processor/ChibiOS//os/ext/CMSIS/include/core_cm4.h"
 1055              		.file 10 "../../lib/e-puck2_main-processor/ChibiOS//os/ext/CMSIS/ST/system_stm32f4xx.h"
 1056              		.file 11 "../../lib/e-puck2_main-processor/ChibiOS//os/ext/CMSIS/ST/stm32f407xx.h"
 1057              		.file 12 "../../lib/e-puck2_main-processor/ChibiOS//os/rt/ports/ARMCMx/chcore.h"
 1058              		.file 13 "../../lib/e-puck2_main-processor/ChibiOS//os/rt/ports/ARMCMx/chcore_v7m.h"
 1059              		.file 14 "../../lib/e-puck2_main-processor/ChibiOS//os/rt/include/chdebug.h"
 1060              		.file 15 "../../lib/e-puck2_main-processor/ChibiOS//os/rt/include/chtm.h"
 1061              		.file 16 "../../lib/e-puck2_main-processor/ChibiOS//os/rt/include/chstats.h"
 1062              		.file 17 "../../lib/e-puck2_main-processor/ChibiOS//os/rt/include/chsem.h"
 1063              		.file 18 "../../lib/e-puck2_main-processor/ChibiOS//os/rt/include/chmtx.h"
 1064              		.file 19 "../../lib/e-puck2_main-processor/ChibiOS//os/rt/include/chregistry.h"
 1065              		.file 20 "../../lib/e-puck2_main-processor/ChibiOS//os/rt/include/chevents.h"
 1066              		.file 21 "../../lib/e-puck2_main-processor/ChibiOS//os/rt/include/chqueues.h"
 1067              		.file 22 "../../lib/e-puck2_main-processor/ChibiOS//os/hal/ports/STM32/STM32F4xx/stm32_dma.h"
 1068              		.file 23 "../../lib/e-puck2_main-processor/ChibiOS//os/hal/include/hal_ioblock.h"
 1069              		.file 24 "../../lib/e-puck2_main-processor/ChibiOS//os/hal/ports/STM32/LLD/GPIOv2/pal_lld.h"
 1070              		.file 25 "../../lib/e-puck2_main-processor/ChibiOS//os/hal/include/adc.h"
 1071              		.file 26 "../../lib/e-puck2_main-processor/ChibiOS//os/hal/ports/STM32/STM32F4xx/adc_lld.h"
 1072              		.file 27 "../../lib/e-puck2_main-processor/ChibiOS//os/hal/include/can.h"
 1073              		.file 28 "../../lib/e-puck2_main-processor/ChibiOS//os/hal/ports/STM32/LLD/can_lld.h"
 1074              		.file 29 "../../lib/e-puck2_main-processor/ChibiOS//os/hal/include/dac.h"
 1075              		.file 30 "../../lib/e-puck2_main-processor/ChibiOS//os/hal/ports/STM32/LLD/DACv1/dac_lld.h"
ARM GAS  C:\Users\mathi\AppData\Local\Temp\ccW2SDKo.s 			page 20


 1076              		.file 31 "../../lib/e-puck2_main-processor/ChibiOS//os/hal/include/ext.h"
 1077              		.file 32 "../../lib/e-puck2_main-processor/ChibiOS//os/hal/ports/STM32/LLD/ext_lld.h"
 1078              		.file 33 "../../lib/e-puck2_main-processor/ChibiOS//os/hal/include/gpt.h"
 1079              		.file 34 "../../lib/e-puck2_main-processor/ChibiOS//os/hal/ports/STM32/LLD/TIMv1/gpt_lld.h"
 1080              		.file 35 "../../lib/e-puck2_main-processor/ChibiOS//os/hal/ports/STM32/LLD/TIMv1/stm32_tim.h"
 1081              		.file 36 "../../lib/e-puck2_main-processor/ChibiOS//os/hal/include/i2c.h"
 1082              		.file 37 "../../lib/e-puck2_main-processor/ChibiOS//os/hal/ports/STM32/LLD/I2Cv1/i2c_lld.h"
 1083              		.file 38 "../../lib/e-puck2_main-processor/ChibiOS//os/hal/include/i2s.h"
 1084              		.file 39 "../../lib/e-puck2_main-processor/ChibiOS//os/hal/ports/STM32/LLD/SPIv1/i2s_lld.h"
 1085              		.file 40 "../../lib/e-puck2_main-processor/ChibiOS//os/hal/include/pwm.h"
 1086              		.file 41 "../../lib/e-puck2_main-processor/ChibiOS//os/hal/ports/STM32/LLD/TIMv1/pwm_lld.h"
 1087              		.file 42 "../../lib/e-puck2_main-processor/ChibiOS//os/hal/include/serial.h"
 1088              		.file 43 "../../lib/e-puck2_main-processor/ChibiOS//os/hal/ports/STM32/LLD/USARTv1/serial_lld.h"
 1089              		.file 44 "../../lib/e-puck2_main-processor/ChibiOS//os/hal/include/sdc.h"
 1090              		.file 45 "../../lib/e-puck2_main-processor/ChibiOS//os/hal/ports/STM32/LLD/sdc_lld.h"
 1091              		.file 46 "../../lib/e-puck2_main-processor/ChibiOS//os/hal/include/spi.h"
 1092              		.file 47 "../../lib/e-puck2_main-processor/ChibiOS//os/hal/ports/STM32/LLD/SPIv1/spi_lld.h"
 1093              		.file 48 "../../lib/e-puck2_main-processor/ChibiOS//os/hal/include/usb.h"
 1094              		.file 49 "../../lib/e-puck2_main-processor/ChibiOS//os/hal/ports/STM32/LLD/OTGv1/usb_lld.h"
 1095              		.file 50 "../../lib/e-puck2_main-processor/ChibiOS//os/hal/ports/STM32/LLD/OTGv1/stm32_otg.h"
 1096              		.file 51 "../../lib/e-puck2_main-processor/ChibiOS_ext/os/hal/ports/STM32/STM32F4xx/dcmi_lld.h"
 1097              		.file 52 "../../lib/e-puck2_main-processor/ChibiOS//os/hal/osal/rt/osal.h"
 1098              		.file 53 "../../lib/e-puck2_main-processor/ChibiOS//os/hal/ports/common/ARMCMx/nvic.h"
 1099              		.file 54 "../../lib/e-puck2_main-processor/ChibiOS//os/rt/include/chsys.h"
 1100              		.file 55 "../../lib/e-puck2_main-processor/ChibiOS_ext/os/hal/include/dcmi.h"