ARM GAS  C:\Users\mathi\AppData\Local\Temp\ccpytdP1.s 			page 1


   1              		.cpu cortex-m4
   2              		.eabi_attribute 27, 1
   3              		.eabi_attribute 28, 1
   4              		.eabi_attribute 20, 1
   5              		.eabi_attribute 21, 1
   6              		.eabi_attribute 23, 3
   7              		.eabi_attribute 24, 1
   8              		.eabi_attribute 25, 1
   9              		.eabi_attribute 26, 1
  10              		.eabi_attribute 30, 2
  11              		.eabi_attribute 34, 1
  12              		.eabi_attribute 18, 4
  13              		.file	"e_led.c"
  14              		.text
  15              	.Ltext0:
  16              		.cfi_sections	.debug_frame
  17              		.section	.text.e_set_led,"ax",%progbits
  18              		.align	1
  19              		.p2align 4,,15
  20              		.global	e_set_led
  21              		.syntax unified
  22              		.thumb
  23              		.thumb_func
  24              		.fpu fpv4-sp-d16
  25              		.type	e_set_led, %function
  26              	e_set_led:
  27              	.LFB256:
  28              		.file 1 "../../lib/e-puck2_main-processor/src/epuck1x/motor_led/advance_one_timer/e_led.c"
  29              		.loc 1 25 0
  30              		.cfi_startproc
  31              		@ args = 0, pretend = 0, frame = 8
  32              		@ frame_needed = 0, uses_anonymous_args = 0
  33              	.LVL0:
  34 0000 F0B5     		push	{r4, r5, r6, r7, lr}
  35              		.cfi_def_cfa_offset 20
  36              		.cfi_offset 4, -20
  37              		.cfi_offset 5, -16
  38              		.cfi_offset 6, -12
  39              		.cfi_offset 7, -8
  40              		.cfi_offset 14, -4
  41 0002 7F4D     		ldr	r5, .L59
  42 0004 83B0     		sub	sp, sp, #12
  43              		.cfi_def_cfa_offset 32
  44              		.loc 1 25 0
  45 0006 2B68     		ldr	r3, [r5]
  46 0008 0193     		str	r3, [sp, #4]
  47 000a 0C46     		mov	r4, r1
  48              		.loc 1 26 0
  49 000c 0728     		cmp	r0, #7
  50 000e 63D8     		bhi	.L2
  51 0010 DFE800F0 		tbb	[pc, r0]
  52              	.L4:
  53 0014 14       		.byte	(.L3-.L4)/2
  54 0015 1F       		.byte	(.L5-.L4)/2
  55 0016 2B       		.byte	(.L6-.L4)/2
  56 0017 36       		.byte	(.L7-.L4)/2
  57 0018 41       		.byte	(.L8-.L4)/2
ARM GAS  C:\Users\mathi\AppData\Local\Temp\ccpytdP1.s 			page 2


  58 0019 4C       		.byte	(.L9-.L4)/2
  59 001a 57       		.byte	(.L10-.L4)/2
  60 001b 04       		.byte	(.L11-.L4)/2
  61              		.p2align 1
  62              	.L11:
  63              		.loc 1 62 0
  64 001c 0129     		cmp	r1, #1
  65              		.loc 1 63 0
  66 001e 019A     		ldr	r2, [sp, #4]
  67 0020 2B68     		ldr	r3, [r5]
  68              		.loc 1 62 0
  69 0022 40F2C780 		bls	.L26
  70              	.LVL1:
  71              	.L56:
  72              	.LBB23:
  73              	.LBB24:
  74              	.LBB25:
  75              		.loc 1 63 0
  76 0026 9A42     		cmp	r2, r3
  77 0028 40F0E880 		bne	.L53
  78 002c 0A22     		movs	r2, #10
  79 002e 0021     		movs	r1, #0
  80 0030 0320     		movs	r0, #3
  81              	.L52:
  82              	.LBE25:
  83              	.LBE24:
  84              	.LBE23:
  85              		.loc 1 74 0
  86 0032 03B0     		add	sp, sp, #12
  87              		.cfi_remember_state
  88              		.cfi_def_cfa_offset 20
  89              		@ sp needed
  90 0034 BDE8F040 		pop	{r4, r5, r6, r7, lr}
  91              		.cfi_restore 14
  92              		.cfi_restore 7
  93              		.cfi_restore 6
  94              		.cfi_restore 5
  95              		.cfi_restore 4
  96              		.cfi_def_cfa_offset 0
  97              	.LVL2:
  98              		.loc 1 43 0
  99 0038 FFF7FEBF 		b	toggle_rgb_led
 100              	.LVL3:
 101              	.L3:
 102              		.cfi_restore_state
 103              		.loc 1 29 0
 104 003c 019A     		ldr	r2, [sp, #4]
 105 003e 2B68     		ldr	r3, [r5]
 106 0040 9A42     		cmp	r2, r3
 107 0042 40F0DB80 		bne	.L53
 108 0046 0020     		movs	r0, #0
 109              	.LVL4:
 110              		.loc 1 74 0
 111 0048 03B0     		add	sp, sp, #12
 112              		.cfi_remember_state
 113              		.cfi_def_cfa_offset 20
 114              		@ sp needed
ARM GAS  C:\Users\mathi\AppData\Local\Temp\ccpytdP1.s 			page 3


 115 004a BDE8F040 		pop	{r4, r5, r6, r7, lr}
 116              		.cfi_restore 14
 117              		.cfi_restore 7
 118              		.cfi_restore 6
 119              		.cfi_restore 5
 120              		.cfi_restore 4
 121              		.cfi_def_cfa_offset 0
 122              		.loc 1 39 0
 123 004e FFF7FEBF 		b	set_led
 124              	.LVL5:
 125              	.L5:
 126              		.cfi_restore_state
 127              		.loc 1 32 0
 128 0052 0129     		cmp	r1, #1
 129              		.loc 1 33 0
 130 0054 019A     		ldr	r2, [sp, #4]
 131 0056 2B68     		ldr	r3, [r5]
 132              		.loc 1 32 0
 133 0058 40F2A180 		bls	.L14
 134              		.loc 1 33 0
 135 005c 9A42     		cmp	r2, r3
 136 005e 40F0CD80 		bne	.L53
 137 0062 0021     		movs	r1, #0
 138              	.LVL6:
 139 0064 0846     		mov	r0, r1
 140              	.LVL7:
 141 0066 0A22     		movs	r2, #10
 142 0068 E3E7     		b	.L52
 143              	.LVL8:
 144              	.L6:
 145              		.loc 1 39 0
 146 006a 019A     		ldr	r2, [sp, #4]
 147 006c 2B68     		ldr	r3, [r5]
 148 006e 9A42     		cmp	r2, r3
 149 0070 40F0C480 		bne	.L53
 150 0074 0120     		movs	r0, #1
 151              	.LVL9:
 152              		.loc 1 74 0
 153 0076 03B0     		add	sp, sp, #12
 154              		.cfi_remember_state
 155              		.cfi_def_cfa_offset 20
 156              		@ sp needed
 157 0078 BDE8F040 		pop	{r4, r5, r6, r7, lr}
 158              		.cfi_restore 14
 159              		.cfi_restore 7
 160              		.cfi_restore 6
 161              		.cfi_restore 5
 162              		.cfi_restore 4
 163              		.cfi_def_cfa_offset 0
 164              		.loc 1 39 0
 165 007c FFF7FEBF 		b	set_led
 166              	.LVL10:
 167              	.L7:
 168              		.cfi_restore_state
 169              		.loc 1 42 0
 170 0080 0129     		cmp	r1, #1
 171              		.loc 1 43 0
ARM GAS  C:\Users\mathi\AppData\Local\Temp\ccpytdP1.s 			page 4


 172 0082 019A     		ldr	r2, [sp, #4]
 173 0084 2B68     		ldr	r3, [r5]
 174              		.loc 1 42 0
 175 0086 7FD9     		bls	.L18
 176              		.loc 1 43 0
 177 0088 9A42     		cmp	r2, r3
 178 008a 40F0B780 		bne	.L53
 179 008e 0A22     		movs	r2, #10
 180 0090 0021     		movs	r1, #0
 181              	.LVL11:
 182 0092 0120     		movs	r0, #1
 183              	.LVL12:
 184 0094 CDE7     		b	.L52
 185              	.LVL13:
 186              	.L8:
 187              		.loc 1 49 0
 188 0096 019A     		ldr	r2, [sp, #4]
 189 0098 2B68     		ldr	r3, [r5]
 190 009a 9A42     		cmp	r2, r3
 191 009c 40F0AE80 		bne	.L53
 192 00a0 0220     		movs	r0, #2
 193              	.LVL14:
 194              		.loc 1 74 0
 195 00a2 03B0     		add	sp, sp, #12
 196              		.cfi_remember_state
 197              		.cfi_def_cfa_offset 20
 198              		@ sp needed
 199 00a4 BDE8F040 		pop	{r4, r5, r6, r7, lr}
 200              		.cfi_restore 14
 201              		.cfi_restore 7
 202              		.cfi_restore 6
 203              		.cfi_restore 5
 204              		.cfi_restore 4
 205              		.cfi_def_cfa_offset 0
 206              		.loc 1 39 0
 207 00a8 FFF7FEBF 		b	set_led
 208              	.LVL15:
 209              	.L9:
 210              		.cfi_restore_state
 211              		.loc 1 52 0
 212 00ac 0129     		cmp	r1, #1
 213              		.loc 1 53 0
 214 00ae 019A     		ldr	r2, [sp, #4]
 215 00b0 2B68     		ldr	r3, [r5]
 216              		.loc 1 52 0
 217 00b2 5ED9     		bls	.L22
 218              		.loc 1 53 0
 219 00b4 9A42     		cmp	r2, r3
 220 00b6 40F0A180 		bne	.L53
 221 00ba 0A22     		movs	r2, #10
 222 00bc 0021     		movs	r1, #0
 223              	.LVL16:
 224 00be 0220     		movs	r0, #2
 225              	.LVL17:
 226 00c0 B7E7     		b	.L52
 227              	.LVL18:
 228              	.L10:
ARM GAS  C:\Users\mathi\AppData\Local\Temp\ccpytdP1.s 			page 5


 229              		.loc 1 59 0
 230 00c2 019A     		ldr	r2, [sp, #4]
 231 00c4 2B68     		ldr	r3, [r5]
 232 00c6 9A42     		cmp	r2, r3
 233 00c8 40F09880 		bne	.L53
 234 00cc 0320     		movs	r0, #3
 235              	.LVL19:
 236              		.loc 1 74 0
 237 00ce 03B0     		add	sp, sp, #12
 238              		.cfi_remember_state
 239              		.cfi_def_cfa_offset 20
 240              		@ sp needed
 241 00d0 BDE8F040 		pop	{r4, r5, r6, r7, lr}
 242              		.cfi_restore 14
 243              		.cfi_restore 7
 244              		.cfi_restore 6
 245              		.cfi_restore 5
 246              		.cfi_restore 4
 247              		.cfi_def_cfa_offset 0
 248              		.loc 1 39 0
 249 00d4 FFF7FEBF 		b	set_led
 250              	.LVL20:
 251              	.L2:
 252              	.LBB34:
 253              	.LBB30:
 254              	.LBB26:
 255              		.loc 1 55 0
 256 00d8 01EB8107 		add	r7, r1, r1, lsl #2
 257 00dc 7F00     		lsls	r7, r7, #1
 258 00de FFB2     		uxtb	r7, r7
 259 00e0 0026     		movs	r6, #0
 260              	.LVL21:
 261              	.L12:
 262              		.loc 1 26 0 discriminator 3
 263 00e2 731E     		subs	r3, r6, #1
 264 00e4 062B     		cmp	r3, #6
 265 00e6 05D8     		bhi	.L29
 266 00e8 DFE803F0 		tbb	[pc, r3]
 267              	.L31:
 268 00ec 2B       		.byte	(.L30-.L31)/2
 269 00ed 26       		.byte	(.L32-.L31)/2
 270 00ee 1E       		.byte	(.L33-.L31)/2
 271 00ef 19       		.byte	(.L34-.L31)/2
 272 00f0 11       		.byte	(.L35-.L31)/2
 273 00f1 0C       		.byte	(.L36-.L31)/2
 274 00f2 33       		.byte	(.L37-.L31)/2
 275 00f3 00       		.p2align 1
 276              	.L29:
 277              	.LVL22:
 278              		.loc 1 29 0
 279 00f4 2146     		mov	r1, r4
 280 00f6 0020     		movs	r0, #0
 281 00f8 FFF7FEFF 		bl	set_led
 282              	.LVL23:
 283              	.LBE26:
 284              	.LBE30:
 285              		.loc 1 69 0
ARM GAS  C:\Users\mathi\AppData\Local\Temp\ccpytdP1.s 			page 6


 286 00fc 072E     		cmp	r6, #7
 287 00fe 77D0     		beq	.L58
 288              	.LVL24:
 289              	.L38:
 290 0100 0136     		adds	r6, r6, #1
 291 0102 EEE7     		b	.L12
 292              	.LVL25:
 293              	.L36:
 294              	.LBB31:
 295              	.LBB27:
 296              		.loc 1 59 0
 297 0104 2146     		mov	r1, r4
 298 0106 0320     		movs	r0, #3
 299 0108 FFF7FEFF 		bl	set_led
 300              	.LVL26:
 301 010c F8E7     		b	.L38
 302              	.L35:
 303              		.loc 1 52 0
 304 010e 012C     		cmp	r4, #1
 305 0110 67D9     		bls	.L43
 306              		.loc 1 53 0
 307 0112 0A22     		movs	r2, #10
 308 0114 0021     		movs	r1, #0
 309 0116 0220     		movs	r0, #2
 310 0118 FFF7FEFF 		bl	toggle_rgb_led
 311              	.LVL27:
 312 011c F0E7     		b	.L38
 313              	.L34:
 314              		.loc 1 49 0
 315 011e 2146     		mov	r1, r4
 316 0120 0220     		movs	r0, #2
 317 0122 FFF7FEFF 		bl	set_led
 318              	.LVL28:
 319 0126 EBE7     		b	.L38
 320              	.L33:
 321              		.loc 1 42 0
 322 0128 012C     		cmp	r4, #1
 323 012a 53D9     		bls	.L42
 324              		.loc 1 43 0
 325 012c 0A22     		movs	r2, #10
 326 012e 0021     		movs	r1, #0
 327 0130 0120     		movs	r0, #1
 328 0132 FFF7FEFF 		bl	toggle_rgb_led
 329              	.LVL29:
 330 0136 E3E7     		b	.L38
 331              	.L32:
 332              		.loc 1 39 0
 333 0138 2146     		mov	r1, r4
 334 013a 0120     		movs	r0, #1
 335 013c FFF7FEFF 		bl	set_led
 336              	.LVL30:
 337 0140 DEE7     		b	.L38
 338              	.L30:
 339              		.loc 1 32 0
 340 0142 012C     		cmp	r4, #1
 341 0144 3FD9     		bls	.L40
 342              		.loc 1 33 0
ARM GAS  C:\Users\mathi\AppData\Local\Temp\ccpytdP1.s 			page 7


 343 0146 0021     		movs	r1, #0
 344 0148 0846     		mov	r0, r1
 345 014a 0A22     		movs	r2, #10
 346 014c FFF7FEFF 		bl	toggle_rgb_led
 347              	.LVL31:
 348 0150 D6E7     		b	.L38
 349              	.L37:
 350              		.loc 1 62 0
 351 0152 012C     		cmp	r4, #1
 352              		.loc 1 63 0
 353 0154 019A     		ldr	r2, [sp, #4]
 354 0156 2B68     		ldr	r3, [r5]
 355              		.loc 1 62 0
 356 0158 3FF665AF 		bhi	.L56
 357              		.loc 1 65 0
 358 015c 9A42     		cmp	r2, r3
 359 015e 4DD1     		bne	.L53
 360 0160 0023     		movs	r3, #0
 361 0162 3946     		mov	r1, r7
 362              	.LVL32:
 363              	.L55:
 364              		.cfi_restore_state
 365 0164 1A46     		mov	r2, r3
 366 0166 0320     		movs	r0, #3
 367              	.L54:
 368              	.LBE27:
 369              	.LBE31:
 370              	.LBE34:
 371              		.loc 1 74 0
 372 0168 03B0     		add	sp, sp, #12
 373              		.cfi_remember_state
 374              		.cfi_def_cfa_offset 20
 375              		@ sp needed
 376 016a BDE8F040 		pop	{r4, r5, r6, r7, lr}
 377              		.cfi_restore 14
 378              		.cfi_restore 7
 379              		.cfi_restore 6
 380              		.cfi_restore 5
 381              		.cfi_restore 4
 382              		.cfi_def_cfa_offset 0
 383              	.LBB35:
 384              	.LBB32:
 385              	.LBB28:
 386              		.loc 1 65 0
 387 016e FFF7FEBF 		b	set_rgb_led
 388              	.LVL33:
 389              	.L22:
 390              		.cfi_restore_state
 391              	.LBE28:
 392              	.LBE32:
 393              	.LBE35:
 394              		.loc 1 55 0
 395 0172 9A42     		cmp	r2, r3
 396 0174 42D1     		bne	.L53
 397 0176 01EB8104 		add	r4, r1, r1, lsl #2
 398 017a 6100     		lsls	r1, r4, #1
 399              	.LVL34:
ARM GAS  C:\Users\mathi\AppData\Local\Temp\ccpytdP1.s 			page 8


 400 017c 0023     		movs	r3, #0
 401 017e 01F0FE01 		and	r1, r1, #254
 402 0182 1A46     		mov	r2, r3
 403 0184 0220     		movs	r0, #2
 404              	.LVL35:
 405 0186 EFE7     		b	.L54
 406              	.LVL36:
 407              	.L18:
 408              		.loc 1 45 0
 409 0188 9A42     		cmp	r2, r3
 410 018a 37D1     		bne	.L53
 411 018c 01EB8104 		add	r4, r1, r1, lsl #2
 412 0190 6100     		lsls	r1, r4, #1
 413              	.LVL37:
 414 0192 0023     		movs	r3, #0
 415 0194 01F0FE01 		and	r1, r1, #254
 416 0198 1A46     		mov	r2, r3
 417 019a 0120     		movs	r0, #1
 418              	.LVL38:
 419 019c E4E7     		b	.L54
 420              	.LVL39:
 421              	.L14:
 422              		.loc 1 35 0
 423 019e 9A42     		cmp	r2, r3
 424 01a0 2CD1     		bne	.L53
 425 01a2 01EB8104 		add	r4, r1, r1, lsl #2
 426 01a6 0023     		movs	r3, #0
 427 01a8 6100     		lsls	r1, r4, #1
 428              	.LVL40:
 429 01aa 01F0FE01 		and	r1, r1, #254
 430 01ae 1A46     		mov	r2, r3
 431 01b0 1846     		mov	r0, r3
 432              	.LVL41:
 433 01b2 D9E7     		b	.L54
 434              	.LVL42:
 435              	.L26:
 436              		.loc 1 65 0
 437 01b4 9A42     		cmp	r2, r3
 438 01b6 21D1     		bne	.L53
 439 01b8 01EB8104 		add	r4, r1, r1, lsl #2
 440 01bc 6100     		lsls	r1, r4, #1
 441              	.LVL43:
 442 01be 0023     		movs	r3, #0
 443 01c0 01F0FE01 		and	r1, r1, #254
 444 01c4 CEE7     		b	.L55
 445              	.LVL44:
 446              	.L40:
 447              	.LBB36:
 448              	.LBB33:
 449              	.LBB29:
 450              		.loc 1 35 0
 451 01c6 0023     		movs	r3, #0
 452 01c8 1A46     		mov	r2, r3
 453 01ca 1846     		mov	r0, r3
 454 01cc 3946     		mov	r1, r7
 455 01ce FFF7FEFF 		bl	set_rgb_led
 456              	.LVL45:
ARM GAS  C:\Users\mathi\AppData\Local\Temp\ccpytdP1.s 			page 9


 457 01d2 95E7     		b	.L38
 458              	.L42:
 459              		.loc 1 45 0
 460 01d4 0023     		movs	r3, #0
 461 01d6 1A46     		mov	r2, r3
 462 01d8 3946     		mov	r1, r7
 463 01da 0120     		movs	r0, #1
 464 01dc FFF7FEFF 		bl	set_rgb_led
 465              	.LVL46:
 466 01e0 8EE7     		b	.L38
 467              	.L43:
 468              		.loc 1 55 0
 469 01e2 0023     		movs	r3, #0
 470 01e4 1A46     		mov	r2, r3
 471 01e6 3946     		mov	r1, r7
 472 01e8 0220     		movs	r0, #2
 473 01ea FFF7FEFF 		bl	set_rgb_led
 474              	.LVL47:
 475 01ee 87E7     		b	.L38
 476              	.LVL48:
 477              	.L58:
 478              	.LBE29:
 479              	.LBE33:
 480              	.LBE36:
 481              		.loc 1 74 0
 482 01f0 019A     		ldr	r2, [sp, #4]
 483 01f2 2B68     		ldr	r3, [r5]
 484 01f4 9A42     		cmp	r2, r3
 485 01f6 01D1     		bne	.L53
 486 01f8 03B0     		add	sp, sp, #12
 487              		@ sp needed
 488 01fa F0BD     		pop	{r4, r5, r6, r7, pc}
 489              	.LVL49:
 490              	.L53:
 491 01fc FFF7FEFF 		bl	__stack_chk_fail
 492              	.LVL50:
 493              	.L60:
 494              		.align	2
 495              	.L59:
 496 0200 00000000 		.word	__stack_chk_guard
 497              		.cfi_endproc
 498              	.LFE256:
 499              		.size	e_set_led, .-e_set_led
 500              		.section	.text.e_led_clear,"ax",%progbits
 501              		.align	1
 502              		.p2align 4,,15
 503              		.global	e_led_clear
 504              		.syntax unified
 505              		.thumb
 506              		.thumb_func
 507              		.fpu fpv4-sp-d16
 508              		.type	e_led_clear, %function
 509              	e_led_clear:
 510              	.LFB257:
 511              		.loc 1 82 0
 512              		.cfi_startproc
 513              		@ args = 0, pretend = 0, frame = 8
ARM GAS  C:\Users\mathi\AppData\Local\Temp\ccpytdP1.s 			page 10


 514              		@ frame_needed = 0, uses_anonymous_args = 0
 515 0000 00B5     		push	{lr}
 516              		.cfi_def_cfa_offset 4
 517              		.cfi_offset 14, -4
 518 0002 074B     		ldr	r3, .L66
 519 0004 83B0     		sub	sp, sp, #12
 520              		.cfi_def_cfa_offset 16
 521              		.loc 1 82 0
 522 0006 1A68     		ldr	r2, [r3]
 523 0008 0192     		str	r2, [sp, #4]
 524              		.loc 1 83 0
 525 000a 019A     		ldr	r2, [sp, #4]
 526 000c 1B68     		ldr	r3, [r3]
 527 000e 9A42     		cmp	r2, r3
 528 0010 04D1     		bne	.L65
 529              		.loc 1 84 0
 530 0012 03B0     		add	sp, sp, #12
 531              		.cfi_remember_state
 532              		.cfi_def_cfa_offset 4
 533              		@ sp needed
 534 0014 5DF804EB 		ldr	lr, [sp], #4
 535              		.cfi_restore 14
 536              		.cfi_def_cfa_offset 0
 537              		.loc 1 83 0
 538 0018 FFF7FEBF 		b	clear_leds
 539              	.LVL51:
 540              	.L65:
 541              		.cfi_restore_state
 542 001c FFF7FEFF 		bl	__stack_chk_fail
 543              	.LVL52:
 544              	.L67:
 545              		.align	2
 546              	.L66:
 547 0020 00000000 		.word	__stack_chk_guard
 548              		.cfi_endproc
 549              	.LFE257:
 550              		.size	e_led_clear, .-e_led_clear
 551              		.section	.text.e_set_body_led,"ax",%progbits
 552              		.align	1
 553              		.p2align 4,,15
 554              		.global	e_set_body_led
 555              		.syntax unified
 556              		.thumb
 557              		.thumb_func
 558              		.fpu fpv4-sp-d16
 559              		.type	e_set_body_led, %function
 560              	e_set_body_led:
 561              	.LFB258:
 562              		.loc 1 93 0
 563              		.cfi_startproc
 564              		@ args = 0, pretend = 0, frame = 8
 565              		@ frame_needed = 0, uses_anonymous_args = 0
 566              	.LVL53:
 567 0000 00B5     		push	{lr}
 568              		.cfi_def_cfa_offset 4
 569              		.cfi_offset 14, -4
 570 0002 074B     		ldr	r3, .L73
ARM GAS  C:\Users\mathi\AppData\Local\Temp\ccpytdP1.s 			page 11


 571 0004 83B0     		sub	sp, sp, #12
 572              		.cfi_def_cfa_offset 16
 573              		.loc 1 93 0
 574 0006 1A68     		ldr	r2, [r3]
 575 0008 0192     		str	r2, [sp, #4]
 576              		.loc 1 94 0
 577 000a 019A     		ldr	r2, [sp, #4]
 578 000c 1B68     		ldr	r3, [r3]
 579 000e 9A42     		cmp	r2, r3
 580 0010 04D1     		bne	.L72
 581              		.loc 1 95 0
 582 0012 03B0     		add	sp, sp, #12
 583              		.cfi_remember_state
 584              		.cfi_def_cfa_offset 4
 585              		@ sp needed
 586 0014 5DF804EB 		ldr	lr, [sp], #4
 587              		.cfi_restore 14
 588              		.cfi_def_cfa_offset 0
 589              		.loc 1 94 0
 590 0018 FFF7FEBF 		b	set_body_led
 591              	.LVL54:
 592              	.L72:
 593              		.cfi_restore_state
 594 001c FFF7FEFF 		bl	__stack_chk_fail
 595              	.LVL55:
 596              	.L74:
 597              		.align	2
 598              	.L73:
 599 0020 00000000 		.word	__stack_chk_guard
 600              		.cfi_endproc
 601              	.LFE258:
 602              		.size	e_set_body_led, .-e_set_body_led
 603              		.section	.text.e_set_front_led,"ax",%progbits
 604              		.align	1
 605              		.p2align 4,,15
 606              		.global	e_set_front_led
 607              		.syntax unified
 608              		.thumb
 609              		.thumb_func
 610              		.fpu fpv4-sp-d16
 611              		.type	e_set_front_led, %function
 612              	e_set_front_led:
 613              	.LFB259:
 614              		.loc 1 104 0
 615              		.cfi_startproc
 616              		@ args = 0, pretend = 0, frame = 8
 617              		@ frame_needed = 0, uses_anonymous_args = 0
 618              	.LVL56:
 619 0000 00B5     		push	{lr}
 620              		.cfi_def_cfa_offset 4
 621              		.cfi_offset 14, -4
 622 0002 074B     		ldr	r3, .L80
 623 0004 83B0     		sub	sp, sp, #12
 624              		.cfi_def_cfa_offset 16
 625              		.loc 1 104 0
 626 0006 1A68     		ldr	r2, [r3]
 627 0008 0192     		str	r2, [sp, #4]
ARM GAS  C:\Users\mathi\AppData\Local\Temp\ccpytdP1.s 			page 12


 628              		.loc 1 105 0
 629 000a 019A     		ldr	r2, [sp, #4]
 630 000c 1B68     		ldr	r3, [r3]
 631 000e 9A42     		cmp	r2, r3
 632 0010 04D1     		bne	.L79
 633              		.loc 1 106 0
 634 0012 03B0     		add	sp, sp, #12
 635              		.cfi_remember_state
 636              		.cfi_def_cfa_offset 4
 637              		@ sp needed
 638 0014 5DF804EB 		ldr	lr, [sp], #4
 639              		.cfi_restore 14
 640              		.cfi_def_cfa_offset 0
 641              		.loc 1 105 0
 642 0018 FFF7FEBF 		b	set_front_led
 643              	.LVL57:
 644              	.L79:
 645              		.cfi_restore_state
 646 001c FFF7FEFF 		bl	__stack_chk_fail
 647              	.LVL58:
 648              	.L81:
 649              		.align	2
 650              	.L80:
 651 0020 00000000 		.word	__stack_chk_guard
 652              		.cfi_endproc
 653              	.LFE259:
 654              		.size	e_set_front_led, .-e_set_front_led
 655              		.section	.text.e_blink_led,"ax",%progbits
 656              		.align	1
 657              		.p2align 4,,15
 658              		.global	e_blink_led
 659              		.syntax unified
 660              		.thumb
 661              		.thumb_func
 662              		.fpu fpv4-sp-d16
 663              		.type	e_blink_led, %function
 664              	e_blink_led:
 665              	.LFB260:
 666              		.loc 1 114 0
 667              		.cfi_startproc
 668              		@ args = 0, pretend = 0, frame = 8
 669              		@ frame_needed = 0, uses_anonymous_args = 0
 670 0000 00B5     		push	{lr}
 671              		.cfi_def_cfa_offset 4
 672              		.cfi_offset 14, -4
 673 0002 084B     		ldr	r3, .L87
 674 0004 83B0     		sub	sp, sp, #12
 675              		.cfi_def_cfa_offset 16
 676              		.loc 1 114 0
 677 0006 1A68     		ldr	r2, [r3]
 678 0008 0192     		str	r2, [sp, #4]
 679              		.loc 1 115 0
 680 000a 019A     		ldr	r2, [sp, #4]
 681 000c 1B68     		ldr	r3, [r3]
 682 000e 9A42     		cmp	r2, r3
 683 0010 06D1     		bne	.L86
 684 0012 0221     		movs	r1, #2
ARM GAS  C:\Users\mathi\AppData\Local\Temp\ccpytdP1.s 			page 13


 685 0014 0420     		movs	r0, #4
 686              		.loc 1 117 0
 687 0016 03B0     		add	sp, sp, #12
 688              		.cfi_remember_state
 689              		.cfi_def_cfa_offset 4
 690              		@ sp needed
 691 0018 5DF804EB 		ldr	lr, [sp], #4
 692              		.cfi_restore 14
 693              		.cfi_def_cfa_offset 0
 694              		.loc 1 115 0
 695 001c FFF7FEBF 		b	set_led
 696              	.LVL59:
 697              	.L86:
 698              		.cfi_restore_state
 699 0020 FFF7FEFF 		bl	__stack_chk_fail
 700              	.LVL60:
 701              	.L88:
 702              		.align	2
 703              	.L87:
 704 0024 00000000 		.word	__stack_chk_guard
 705              		.cfi_endproc
 706              	.LFE260:
 707              		.size	e_blink_led, .-e_blink_led
 708              		.section	.text.e_blink_led0,"ax",%progbits
 709              		.align	1
 710              		.p2align 4,,15
 711              		.global	e_blink_led0
 712              		.syntax unified
 713              		.thumb
 714              		.thumb_func
 715              		.fpu fpv4-sp-d16
 716              		.type	e_blink_led0, %function
 717              	e_blink_led0:
 718              	.LFB261:
 719              		.loc 1 125 0
 720              		.cfi_startproc
 721              		@ args = 0, pretend = 0, frame = 8
 722              		@ frame_needed = 0, uses_anonymous_args = 0
 723 0000 00B5     		push	{lr}
 724              		.cfi_def_cfa_offset 4
 725              		.cfi_offset 14, -4
 726 0002 084B     		ldr	r3, .L94
 727 0004 83B0     		sub	sp, sp, #12
 728              		.cfi_def_cfa_offset 16
 729              		.loc 1 125 0
 730 0006 1A68     		ldr	r2, [r3]
 731 0008 0192     		str	r2, [sp, #4]
 732              		.loc 1 126 0
 733 000a 019A     		ldr	r2, [sp, #4]
 734 000c 1B68     		ldr	r3, [r3]
 735 000e 9A42     		cmp	r2, r3
 736 0010 06D1     		bne	.L93
 737 0012 0221     		movs	r1, #2
 738 0014 0020     		movs	r0, #0
 739              		.loc 1 127 0
 740 0016 03B0     		add	sp, sp, #12
 741              		.cfi_remember_state
ARM GAS  C:\Users\mathi\AppData\Local\Temp\ccpytdP1.s 			page 14


 742              		.cfi_def_cfa_offset 4
 743              		@ sp needed
 744 0018 5DF804EB 		ldr	lr, [sp], #4
 745              		.cfi_restore 14
 746              		.cfi_def_cfa_offset 0
 747              		.loc 1 126 0
 748 001c FFF7FEBF 		b	set_led
 749              	.LVL61:
 750              	.L93:
 751              		.cfi_restore_state
 752 0020 FFF7FEFF 		bl	__stack_chk_fail
 753              	.LVL62:
 754              	.L95:
 755              		.align	2
 756              	.L94:
 757 0024 00000000 		.word	__stack_chk_guard
 758              		.cfi_endproc
 759              	.LFE261:
 760              		.size	e_blink_led0, .-e_blink_led0
 761              		.section	.text.e_blink_led1,"ax",%progbits
 762              		.align	1
 763              		.p2align 4,,15
 764              		.global	e_blink_led1
 765              		.syntax unified
 766              		.thumb
 767              		.thumb_func
 768              		.fpu fpv4-sp-d16
 769              		.type	e_blink_led1, %function
 770              	e_blink_led1:
 771              	.LFB262:
 772              		.loc 1 135 0
 773              		.cfi_startproc
 774              		@ args = 0, pretend = 0, frame = 8
 775              		@ frame_needed = 0, uses_anonymous_args = 0
 776 0000 00B5     		push	{lr}
 777              		.cfi_def_cfa_offset 4
 778              		.cfi_offset 14, -4
 779 0002 064B     		ldr	r3, .L100
 780 0004 83B0     		sub	sp, sp, #12
 781              		.cfi_def_cfa_offset 16
 782              		.loc 1 135 0
 783 0006 1A68     		ldr	r2, [r3]
 784 0008 0192     		str	r2, [sp, #4]
 785              		.loc 1 137 0
 786 000a 019A     		ldr	r2, [sp, #4]
 787 000c 1B68     		ldr	r3, [r3]
 788 000e 9A42     		cmp	r2, r3
 789 0010 02D1     		bne	.L99
 790 0012 03B0     		add	sp, sp, #12
 791              		.cfi_remember_state
 792              		.cfi_def_cfa_offset 4
 793              		@ sp needed
 794 0014 5DF804FB 		ldr	pc, [sp], #4
 795              	.L99:
 796              		.cfi_restore_state
 797 0018 FFF7FEFF 		bl	__stack_chk_fail
 798              	.LVL63:
ARM GAS  C:\Users\mathi\AppData\Local\Temp\ccpytdP1.s 			page 15


 799              	.L101:
 800              		.align	2
 801              	.L100:
 802 001c 00000000 		.word	__stack_chk_guard
 803              		.cfi_endproc
 804              	.LFE262:
 805              		.size	e_blink_led1, .-e_blink_led1
 806              		.section	.text.e_blink_led2,"ax",%progbits
 807              		.align	1
 808              		.p2align 4,,15
 809              		.global	e_blink_led2
 810              		.syntax unified
 811              		.thumb
 812              		.thumb_func
 813              		.fpu fpv4-sp-d16
 814              		.type	e_blink_led2, %function
 815              	e_blink_led2:
 816              	.LFB263:
 817              		.loc 1 145 0
 818              		.cfi_startproc
 819              		@ args = 0, pretend = 0, frame = 8
 820              		@ frame_needed = 0, uses_anonymous_args = 0
 821 0000 00B5     		push	{lr}
 822              		.cfi_def_cfa_offset 4
 823              		.cfi_offset 14, -4
 824 0002 084B     		ldr	r3, .L107
 825 0004 83B0     		sub	sp, sp, #12
 826              		.cfi_def_cfa_offset 16
 827              		.loc 1 145 0
 828 0006 1A68     		ldr	r2, [r3]
 829 0008 0192     		str	r2, [sp, #4]
 830              		.loc 1 146 0
 831 000a 019A     		ldr	r2, [sp, #4]
 832 000c 1B68     		ldr	r3, [r3]
 833 000e 9A42     		cmp	r2, r3
 834 0010 06D1     		bne	.L106
 835 0012 0221     		movs	r1, #2
 836 0014 0120     		movs	r0, #1
 837              		.loc 1 147 0
 838 0016 03B0     		add	sp, sp, #12
 839              		.cfi_remember_state
 840              		.cfi_def_cfa_offset 4
 841              		@ sp needed
 842 0018 5DF804EB 		ldr	lr, [sp], #4
 843              		.cfi_restore 14
 844              		.cfi_def_cfa_offset 0
 845              		.loc 1 146 0
 846 001c FFF7FEBF 		b	set_led
 847              	.LVL64:
 848              	.L106:
 849              		.cfi_restore_state
 850 0020 FFF7FEFF 		bl	__stack_chk_fail
 851              	.LVL65:
 852              	.L108:
 853              		.align	2
 854              	.L107:
 855 0024 00000000 		.word	__stack_chk_guard
ARM GAS  C:\Users\mathi\AppData\Local\Temp\ccpytdP1.s 			page 16


 856              		.cfi_endproc
 857              	.LFE263:
 858              		.size	e_blink_led2, .-e_blink_led2
 859              		.section	.text.e_blink_led3,"ax",%progbits
 860              		.align	1
 861              		.p2align 4,,15
 862              		.global	e_blink_led3
 863              		.syntax unified
 864              		.thumb
 865              		.thumb_func
 866              		.fpu fpv4-sp-d16
 867              		.type	e_blink_led3, %function
 868              	e_blink_led3:
 869              	.LFB278:
 870              		.cfi_startproc
 871              		@ args = 0, pretend = 0, frame = 8
 872              		@ frame_needed = 0, uses_anonymous_args = 0
 873 0000 00B5     		push	{lr}
 874              		.cfi_def_cfa_offset 4
 875              		.cfi_offset 14, -4
 876 0002 064B     		ldr	r3, .L113
 877 0004 83B0     		sub	sp, sp, #12
 878              		.cfi_def_cfa_offset 16
 879 0006 1A68     		ldr	r2, [r3]
 880 0008 0192     		str	r2, [sp, #4]
 881 000a 019A     		ldr	r2, [sp, #4]
 882 000c 1B68     		ldr	r3, [r3]
 883 000e 9A42     		cmp	r2, r3
 884 0010 02D1     		bne	.L112
 885 0012 03B0     		add	sp, sp, #12
 886              		.cfi_remember_state
 887              		.cfi_def_cfa_offset 4
 888              		@ sp needed
 889 0014 5DF804FB 		ldr	pc, [sp], #4
 890              	.L112:
 891              		.cfi_restore_state
 892 0018 FFF7FEFF 		bl	__stack_chk_fail
 893              	.L114:
 894              		.align	2
 895              	.L113:
 896 001c 00000000 		.word	__stack_chk_guard
 897              		.cfi_endproc
 898              	.LFE278:
 899              		.size	e_blink_led3, .-e_blink_led3
 900              		.section	.text.e_blink_led4,"ax",%progbits
 901              		.align	1
 902              		.p2align 4,,15
 903              		.global	e_blink_led4
 904              		.syntax unified
 905              		.thumb
 906              		.thumb_func
 907              		.fpu fpv4-sp-d16
 908              		.type	e_blink_led4, %function
 909              	e_blink_led4:
 910              	.LFB265:
 911              		.loc 1 165 0
 912              		.cfi_startproc
ARM GAS  C:\Users\mathi\AppData\Local\Temp\ccpytdP1.s 			page 17


 913              		@ args = 0, pretend = 0, frame = 8
 914              		@ frame_needed = 0, uses_anonymous_args = 0
 915              		.loc 1 165 0
 916 0000 00B5     		push	{lr}
 917              		.cfi_def_cfa_offset 4
 918              		.cfi_offset 14, -4
 919 0002 084B     		ldr	r3, .L120
 920 0004 83B0     		sub	sp, sp, #12
 921              		.cfi_def_cfa_offset 16
 922              		.loc 1 165 0
 923 0006 1A68     		ldr	r2, [r3]
 924 0008 0192     		str	r2, [sp, #4]
 925              		.loc 1 166 0
 926 000a 019A     		ldr	r2, [sp, #4]
 927 000c 1B68     		ldr	r3, [r3]
 928 000e 9A42     		cmp	r2, r3
 929 0010 06D1     		bne	.L119
 930 0012 0221     		movs	r1, #2
 931 0014 0846     		mov	r0, r1
 932              		.loc 1 167 0
 933 0016 03B0     		add	sp, sp, #12
 934              		.cfi_remember_state
 935              		.cfi_def_cfa_offset 4
 936              		@ sp needed
 937 0018 5DF804EB 		ldr	lr, [sp], #4
 938              		.cfi_restore 14
 939              		.cfi_def_cfa_offset 0
 940              		.loc 1 166 0
 941 001c FFF7FEBF 		b	set_led
 942              	.LVL66:
 943              	.L119:
 944              		.cfi_restore_state
 945 0020 FFF7FEFF 		bl	__stack_chk_fail
 946              	.LVL67:
 947              	.L121:
 948              		.align	2
 949              	.L120:
 950 0024 00000000 		.word	__stack_chk_guard
 951              		.cfi_endproc
 952              	.LFE265:
 953              		.size	e_blink_led4, .-e_blink_led4
 954              		.section	.text.e_blink_led5,"ax",%progbits
 955              		.align	1
 956              		.p2align 4,,15
 957              		.global	e_blink_led5
 958              		.syntax unified
 959              		.thumb
 960              		.thumb_func
 961              		.fpu fpv4-sp-d16
 962              		.type	e_blink_led5, %function
 963              	e_blink_led5:
 964              	.LFB280:
 965              		.cfi_startproc
 966              		@ args = 0, pretend = 0, frame = 8
 967              		@ frame_needed = 0, uses_anonymous_args = 0
 968 0000 00B5     		push	{lr}
 969              		.cfi_def_cfa_offset 4
ARM GAS  C:\Users\mathi\AppData\Local\Temp\ccpytdP1.s 			page 18


 970              		.cfi_offset 14, -4
 971 0002 064B     		ldr	r3, .L126
 972 0004 83B0     		sub	sp, sp, #12
 973              		.cfi_def_cfa_offset 16
 974 0006 1A68     		ldr	r2, [r3]
 975 0008 0192     		str	r2, [sp, #4]
 976 000a 019A     		ldr	r2, [sp, #4]
 977 000c 1B68     		ldr	r3, [r3]
 978 000e 9A42     		cmp	r2, r3
 979 0010 02D1     		bne	.L125
 980 0012 03B0     		add	sp, sp, #12
 981              		.cfi_remember_state
 982              		.cfi_def_cfa_offset 4
 983              		@ sp needed
 984 0014 5DF804FB 		ldr	pc, [sp], #4
 985              	.L125:
 986              		.cfi_restore_state
 987 0018 FFF7FEFF 		bl	__stack_chk_fail
 988              	.L127:
 989              		.align	2
 990              	.L126:
 991 001c 00000000 		.word	__stack_chk_guard
 992              		.cfi_endproc
 993              	.LFE280:
 994              		.size	e_blink_led5, .-e_blink_led5
 995              		.section	.text.e_blink_led6,"ax",%progbits
 996              		.align	1
 997              		.p2align 4,,15
 998              		.global	e_blink_led6
 999              		.syntax unified
 1000              		.thumb
 1001              		.thumb_func
 1002              		.fpu fpv4-sp-d16
 1003              		.type	e_blink_led6, %function
 1004              	e_blink_led6:
 1005              	.LFB267:
 1006              		.loc 1 185 0
 1007              		.cfi_startproc
 1008              		@ args = 0, pretend = 0, frame = 8
 1009              		@ frame_needed = 0, uses_anonymous_args = 0
 1010              		.loc 1 185 0
 1011 0000 00B5     		push	{lr}
 1012              		.cfi_def_cfa_offset 4
 1013              		.cfi_offset 14, -4
 1014 0002 084B     		ldr	r3, .L133
 1015 0004 83B0     		sub	sp, sp, #12
 1016              		.cfi_def_cfa_offset 16
 1017              		.loc 1 185 0
 1018 0006 1A68     		ldr	r2, [r3]
 1019 0008 0192     		str	r2, [sp, #4]
 1020              		.loc 1 186 0
 1021 000a 019A     		ldr	r2, [sp, #4]
 1022 000c 1B68     		ldr	r3, [r3]
 1023 000e 9A42     		cmp	r2, r3
 1024 0010 06D1     		bne	.L132
 1025 0012 0221     		movs	r1, #2
 1026 0014 0320     		movs	r0, #3
ARM GAS  C:\Users\mathi\AppData\Local\Temp\ccpytdP1.s 			page 19


 1027              		.loc 1 187 0
 1028 0016 03B0     		add	sp, sp, #12
 1029              		.cfi_remember_state
 1030              		.cfi_def_cfa_offset 4
 1031              		@ sp needed
 1032 0018 5DF804EB 		ldr	lr, [sp], #4
 1033              		.cfi_restore 14
 1034              		.cfi_def_cfa_offset 0
 1035              		.loc 1 186 0
 1036 001c FFF7FEBF 		b	set_led
 1037              	.LVL68:
 1038              	.L132:
 1039              		.cfi_restore_state
 1040 0020 FFF7FEFF 		bl	__stack_chk_fail
 1041              	.LVL69:
 1042              	.L134:
 1043              		.align	2
 1044              	.L133:
 1045 0024 00000000 		.word	__stack_chk_guard
 1046              		.cfi_endproc
 1047              	.LFE267:
 1048              		.size	e_blink_led6, .-e_blink_led6
 1049              		.section	.text.e_blink_led7,"ax",%progbits
 1050              		.align	1
 1051              		.p2align 4,,15
 1052              		.global	e_blink_led7
 1053              		.syntax unified
 1054              		.thumb
 1055              		.thumb_func
 1056              		.fpu fpv4-sp-d16
 1057              		.type	e_blink_led7, %function
 1058              	e_blink_led7:
 1059              	.LFB282:
 1060              		.cfi_startproc
 1061              		@ args = 0, pretend = 0, frame = 8
 1062              		@ frame_needed = 0, uses_anonymous_args = 0
 1063 0000 00B5     		push	{lr}
 1064              		.cfi_def_cfa_offset 4
 1065              		.cfi_offset 14, -4
 1066 0002 064B     		ldr	r3, .L139
 1067 0004 83B0     		sub	sp, sp, #12
 1068              		.cfi_def_cfa_offset 16
 1069 0006 1A68     		ldr	r2, [r3]
 1070 0008 0192     		str	r2, [sp, #4]
 1071 000a 019A     		ldr	r2, [sp, #4]
 1072 000c 1B68     		ldr	r3, [r3]
 1073 000e 9A42     		cmp	r2, r3
 1074 0010 02D1     		bne	.L138
 1075 0012 03B0     		add	sp, sp, #12
 1076              		.cfi_remember_state
 1077              		.cfi_def_cfa_offset 4
 1078              		@ sp needed
 1079 0014 5DF804FB 		ldr	pc, [sp], #4
 1080              	.L138:
 1081              		.cfi_restore_state
 1082 0018 FFF7FEFF 		bl	__stack_chk_fail
 1083              	.L140:
ARM GAS  C:\Users\mathi\AppData\Local\Temp\ccpytdP1.s 			page 20


 1084              		.align	2
 1085              	.L139:
 1086 001c 00000000 		.word	__stack_chk_guard
 1087              		.cfi_endproc
 1088              	.LFE282:
 1089              		.size	e_blink_led7, .-e_blink_led7
 1090              		.section	.text.e_start_led_blinking,"ax",%progbits
 1091              		.align	1
 1092              		.p2align 4,,15
 1093              		.global	e_start_led_blinking
 1094              		.syntax unified
 1095              		.thumb
 1096              		.thumb_func
 1097              		.fpu fpv4-sp-d16
 1098              		.type	e_start_led_blinking, %function
 1099              	e_start_led_blinking:
 1100              	.LFB269:
 1101              		.loc 1 205 0
 1102              		.cfi_startproc
 1103              		@ args = 0, pretend = 0, frame = 8
 1104              		@ frame_needed = 0, uses_anonymous_args = 0
 1105              	.LVL70:
 1106              		.loc 1 205 0
 1107 0000 00B5     		push	{lr}
 1108              		.cfi_def_cfa_offset 4
 1109              		.cfi_offset 14, -4
 1110 0002 064B     		ldr	r3, .L145
 1111 0004 83B0     		sub	sp, sp, #12
 1112              		.cfi_def_cfa_offset 16
 1113              		.loc 1 205 0
 1114 0006 1A68     		ldr	r2, [r3]
 1115 0008 0192     		str	r2, [sp, #4]
 1116              		.loc 1 208 0
 1117 000a 019A     		ldr	r2, [sp, #4]
 1118 000c 1B68     		ldr	r3, [r3]
 1119 000e 9A42     		cmp	r2, r3
 1120 0010 02D1     		bne	.L144
 1121 0012 03B0     		add	sp, sp, #12
 1122              		.cfi_remember_state
 1123              		.cfi_def_cfa_offset 4
 1124              		@ sp needed
 1125 0014 5DF804FB 		ldr	pc, [sp], #4
 1126              	.L144:
 1127              		.cfi_restore_state
 1128 0018 FFF7FEFF 		bl	__stack_chk_fail
 1129              	.LVL71:
 1130              	.L146:
 1131              		.align	2
 1132              	.L145:
 1133 001c 00000000 		.word	__stack_chk_guard
 1134              		.cfi_endproc
 1135              	.LFE269:
 1136              		.size	e_start_led_blinking, .-e_start_led_blinking
 1137              		.section	.text.e_stop_led_blinking,"ax",%progbits
 1138              		.align	1
 1139              		.p2align 4,,15
 1140              		.global	e_stop_led_blinking
ARM GAS  C:\Users\mathi\AppData\Local\Temp\ccpytdP1.s 			page 21


 1141              		.syntax unified
 1142              		.thumb
 1143              		.thumb_func
 1144              		.fpu fpv4-sp-d16
 1145              		.type	e_stop_led_blinking, %function
 1146              	e_stop_led_blinking:
 1147              	.LFB284:
 1148              		.cfi_startproc
 1149              		@ args = 0, pretend = 0, frame = 8
 1150              		@ frame_needed = 0, uses_anonymous_args = 0
 1151 0000 00B5     		push	{lr}
 1152              		.cfi_def_cfa_offset 4
 1153              		.cfi_offset 14, -4
 1154 0002 064B     		ldr	r3, .L151
 1155 0004 83B0     		sub	sp, sp, #12
 1156              		.cfi_def_cfa_offset 16
 1157 0006 1A68     		ldr	r2, [r3]
 1158 0008 0192     		str	r2, [sp, #4]
 1159 000a 019A     		ldr	r2, [sp, #4]
 1160 000c 1B68     		ldr	r3, [r3]
 1161 000e 9A42     		cmp	r2, r3
 1162 0010 02D1     		bne	.L150
 1163 0012 03B0     		add	sp, sp, #12
 1164              		.cfi_remember_state
 1165              		.cfi_def_cfa_offset 4
 1166              		@ sp needed
 1167 0014 5DF804FB 		ldr	pc, [sp], #4
 1168              	.L150:
 1169              		.cfi_restore_state
 1170 0018 FFF7FEFF 		bl	__stack_chk_fail
 1171              	.L152:
 1172              		.align	2
 1173              	.L151:
 1174 001c 00000000 		.word	__stack_chk_guard
 1175              		.cfi_endproc
 1176              	.LFE284:
 1177              		.size	e_stop_led_blinking, .-e_stop_led_blinking
 1178              		.section	.text.e_set_blinking_cycle,"ax",%progbits
 1179              		.align	1
 1180              		.p2align 4,,15
 1181              		.global	e_set_blinking_cycle
 1182              		.syntax unified
 1183              		.thumb
 1184              		.thumb_func
 1185              		.fpu fpv4-sp-d16
 1186              		.type	e_set_blinking_cycle, %function
 1187              	e_set_blinking_cycle:
 1188              	.LFB286:
 1189              		.cfi_startproc
 1190              		@ args = 0, pretend = 0, frame = 8
 1191              		@ frame_needed = 0, uses_anonymous_args = 0
 1192 0000 00B5     		push	{lr}
 1193              		.cfi_def_cfa_offset 4
 1194              		.cfi_offset 14, -4
 1195 0002 064B     		ldr	r3, .L157
 1196 0004 83B0     		sub	sp, sp, #12
 1197              		.cfi_def_cfa_offset 16
ARM GAS  C:\Users\mathi\AppData\Local\Temp\ccpytdP1.s 			page 22


 1198 0006 1A68     		ldr	r2, [r3]
 1199 0008 0192     		str	r2, [sp, #4]
 1200 000a 019A     		ldr	r2, [sp, #4]
 1201 000c 1B68     		ldr	r3, [r3]
 1202 000e 9A42     		cmp	r2, r3
 1203 0010 02D1     		bne	.L156
 1204 0012 03B0     		add	sp, sp, #12
 1205              		.cfi_remember_state
 1206              		.cfi_def_cfa_offset 4
 1207              		@ sp needed
 1208 0014 5DF804FB 		ldr	pc, [sp], #4
 1209              	.L156:
 1210              		.cfi_restore_state
 1211 0018 FFF7FEFF 		bl	__stack_chk_fail
 1212              	.L158:
 1213              		.align	2
 1214              	.L157:
 1215 001c 00000000 		.word	__stack_chk_guard
 1216              		.cfi_endproc
 1217              	.LFE286:
 1218              		.size	e_set_blinking_cycle, .-e_set_blinking_cycle
 1219              		.section	.text.snake_led,"ax",%progbits
 1220              		.align	1
 1221              		.p2align 4,,15
 1222              		.global	snake_led
 1223              		.syntax unified
 1224              		.thumb
 1225              		.thumb_func
 1226              		.fpu fpv4-sp-d16
 1227              		.type	snake_led, %function
 1228              	snake_led:
 1229              	.LFB272:
 1230              		.loc 1 241 0
 1231              		.cfi_startproc
 1232              		@ args = 0, pretend = 0, frame = 8
 1233              		@ frame_needed = 0, uses_anonymous_args = 0
 1234              		.loc 1 241 0
 1235 0000 70B5     		push	{r4, r5, r6, lr}
 1236              		.cfi_def_cfa_offset 16
 1237              		.cfi_offset 4, -16
 1238              		.cfi_offset 5, -12
 1239              		.cfi_offset 6, -8
 1240              		.cfi_offset 14, -4
 1241              		.loc 1 243 0
 1242 0002 994C     		ldr	r4, .L229
 1243              		.loc 1 241 0
 1244 0004 994D     		ldr	r5, .L229+4
 1245              		.loc 1 243 0
 1246 0006 2378     		ldrb	r3, [r4]	@ zero_extendqisi2
 1247              		.loc 1 241 0
 1248 0008 2A68     		ldr	r2, [r5]
 1249 000a 82B0     		sub	sp, sp, #8
 1250              		.cfi_def_cfa_offset 24
 1251              		.loc 1 241 0
 1252 000c 0192     		str	r2, [sp, #4]
 1253              		.loc 1 243 0
 1254 000e CBB1     		cbz	r3, .L226
ARM GAS  C:\Users\mathi\AppData\Local\Temp\ccpytdP1.s 			page 23


 1255              		.loc 1 249 0
 1256 0010 072B     		cmp	r3, #7
 1257 0012 09D0     		beq	.L227
 1258              	.LVL72:
 1259              		.loc 1 257 0
 1260 0014 013B     		subs	r3, r3, #1
 1261              	.LVL73:
 1262              	.LBB67:
 1263              	.LBB68:
 1264              		.loc 1 26 0
 1265 0016 072B     		cmp	r3, #7
 1266 0018 00F21C81 		bhi	.L220
 1267 001c DFE803F0 		tbb	[pc, r3]
 1268              	.L197:
 1269 0020 82       		.byte	(.L196-.L197)/2
 1270 0021 8C       		.byte	(.L198-.L197)/2
 1271 0022 87       		.byte	(.L199-.L197)/2
 1272 0023 7B       		.byte	(.L200-.L197)/2
 1273 0024 76       		.byte	(.L201-.L197)/2
 1274 0025 6F       		.byte	(.L202-.L197)/2
 1275 0026 6A       		.byte	(.L203-.L197)/2
 1276 0027 21       		.byte	(.L204-.L197)/2
 1277              	.LVL74:
 1278              		.p2align 1
 1279              	.L227:
 1280              	.LBE68:
 1281              	.LBE67:
 1282              	.LBB73:
 1283              	.LBB74:
 1284              		.loc 1 59 0
 1285 0028 0021     		movs	r1, #0
 1286 002a 0320     		movs	r0, #3
 1287 002c FFF7FEFF 		bl	set_led
 1288              	.LVL75:
 1289              	.LBE74:
 1290              	.LBE73:
 1291              	.LBB75:
 1292              	.LBB76:
 1293              		.loc 1 26 0
 1294 0030 2378     		ldrb	r3, [r4]	@ zero_extendqisi2
 1295              	.LVL76:
 1296 0032 072B     		cmp	r3, #7
 1297 0034 00F2BB80 		bhi	.L219
 1298 0038 DFE803F0 		tbb	[pc, r3]
 1299              	.L176:
 1300 003c 8E       		.byte	(.L175-.L176)/2
 1301 003d 93       		.byte	(.L177-.L176)/2
 1302 003e 9A       		.byte	(.L178-.L176)/2
 1303 003f 9F       		.byte	(.L179-.L176)/2
 1304 0040 A6       		.byte	(.L180-.L176)/2
 1305 0041 AB       		.byte	(.L181-.L176)/2
 1306 0042 B2       		.byte	(.L182-.L176)/2
 1307 0043 85       		.byte	(.L183-.L176)/2
 1308              	.LVL77:
 1309              		.p2align 1
 1310              	.L226:
 1311              	.LBE76:
ARM GAS  C:\Users\mathi\AppData\Local\Temp\ccpytdP1.s 			page 24


 1312              	.LBE75:
 1313              	.LBB85:
 1314              	.LBB86:
 1315              		.loc 1 65 0
 1316 0044 1A46     		mov	r2, r3
 1317 0046 1946     		mov	r1, r3
 1318 0048 0320     		movs	r0, #3
 1319 004a FFF7FEFF 		bl	set_rgb_led
 1320              	.LVL78:
 1321              	.LBE86:
 1322              	.LBE85:
 1323              	.LBB87:
 1324              	.LBB88:
 1325              		.loc 1 26 0
 1326 004e 2378     		ldrb	r3, [r4]	@ zero_extendqisi2
 1327              	.LVL79:
 1328 0050 072B     		cmp	r3, #7
 1329 0052 00F2F680 		bhi	.L218
 1330 0056 DFE803F0 		tbb	[pc, r3]
 1331              	.L163:
 1332 005a 3A       		.byte	(.L207-.L163)/2
 1333 005b 3F       		.byte	(.L209-.L163)/2
 1334 005c 35       		.byte	(.L210-.L163)/2
 1335 005d 2E       		.byte	(.L211-.L163)/2
 1336 005e 29       		.byte	(.L212-.L163)/2
 1337 005f 46       		.byte	(.L213-.L163)/2
 1338 0060 24       		.byte	(.L214-.L163)/2
 1339 0061 14       		.byte	(.L215-.L163)/2
 1340              	.LVL80:
 1341              		.p2align 1
 1342              	.L204:
 1343              	.LBE88:
 1344              	.LBE87:
 1345              	.LBB91:
 1346              	.LBB70:
 1347              		.loc 1 65 0
 1348 0062 0023     		movs	r3, #0
 1349              	.LVL81:
 1350 0064 1A46     		mov	r2, r3
 1351 0066 1946     		mov	r1, r3
 1352 0068 0320     		movs	r0, #3
 1353 006a FFF7FEFF 		bl	set_rgb_led
 1354              	.LVL82:
 1355              	.L205:
 1356              	.LBE70:
 1357              	.LBE91:
 1358              	.LBB92:
 1359              	.LBB93:
 1360              		.loc 1 26 0
 1361 006e 2378     		ldrb	r3, [r4]	@ zero_extendqisi2
 1362              	.LVL83:
 1363 0070 072B     		cmp	r3, #7
 1364 0072 00F2DD80 		bhi	.L221
 1365 0076 DFE803F0 		tbb	[pc, r3]
 1366              	.L208:
 1367 007a 2A       		.byte	(.L207-.L208)/2
 1368 007b 2F       		.byte	(.L209-.L208)/2
ARM GAS  C:\Users\mathi\AppData\Local\Temp\ccpytdP1.s 			page 25


 1369 007c 25       		.byte	(.L210-.L208)/2
 1370 007d 1E       		.byte	(.L211-.L208)/2
 1371 007e 19       		.byte	(.L212-.L208)/2
 1372 007f 36       		.byte	(.L213-.L208)/2
 1373 0080 14       		.byte	(.L214-.L208)/2
 1374 0081 04       		.byte	(.L215-.L208)/2
 1375              	.LVL84:
 1376              		.p2align 1
 1377              	.L215:
 1378              		.loc 1 65 0
 1379 0082 0023     		movs	r3, #0
 1380 0084 1A46     		mov	r2, r3
 1381 0086 0A21     		movs	r1, #10
 1382 0088 0320     		movs	r0, #3
 1383 008a FFF7FEFF 		bl	set_rgb_led
 1384              	.LVL85:
 1385              	.L216:
 1386              	.LBE93:
 1387              	.LBE92:
 1388              		.loc 1 259 0
 1389 008e 2378     		ldrb	r3, [r4]	@ zero_extendqisi2
 1390 0090 0133     		adds	r3, r3, #1
 1391 0092 2370     		strb	r3, [r4]
 1392              	.L159:
 1393              		.loc 1 261 0
 1394 0094 019A     		ldr	r2, [sp, #4]
 1395 0096 2B68     		ldr	r3, [r5]
 1396 0098 9A42     		cmp	r2, r3
 1397 009a 40F08680 		bne	.L228
 1398 009e 02B0     		add	sp, sp, #8
 1399              		.cfi_remember_state
 1400              		.cfi_def_cfa_offset 16
 1401              		@ sp needed
 1402 00a0 70BD     		pop	{r4, r5, r6, pc}
 1403              	.L214:
 1404              		.cfi_restore_state
 1405              	.LBB97:
 1406              	.LBB95:
 1407              		.loc 1 59 0
 1408 00a2 0121     		movs	r1, #1
 1409 00a4 0320     		movs	r0, #3
 1410 00a6 FFF7FEFF 		bl	set_led
 1411              	.LVL86:
 1412 00aa F0E7     		b	.L216
 1413              	.L212:
 1414              		.loc 1 49 0
 1415 00ac 0121     		movs	r1, #1
 1416 00ae 0220     		movs	r0, #2
 1417 00b0 FFF7FEFF 		bl	set_led
 1418              	.LVL87:
 1419 00b4 EBE7     		b	.L216
 1420              	.L211:
 1421              		.loc 1 45 0
 1422 00b6 0023     		movs	r3, #0
 1423 00b8 1A46     		mov	r2, r3
 1424 00ba 0A21     		movs	r1, #10
 1425 00bc 0120     		movs	r0, #1
ARM GAS  C:\Users\mathi\AppData\Local\Temp\ccpytdP1.s 			page 26


 1426 00be FFF7FEFF 		bl	set_rgb_led
 1427              	.LVL88:
 1428 00c2 E4E7     		b	.L216
 1429              	.L210:
 1430              		.loc 1 39 0
 1431 00c4 0121     		movs	r1, #1
 1432 00c6 0846     		mov	r0, r1
 1433 00c8 FFF7FEFF 		bl	set_led
 1434              	.LVL89:
 1435 00cc DFE7     		b	.L216
 1436              	.L207:
 1437              		.loc 1 29 0
 1438 00ce 0121     		movs	r1, #1
 1439 00d0 0020     		movs	r0, #0
 1440 00d2 FFF7FEFF 		bl	set_led
 1441              	.LVL90:
 1442 00d6 DAE7     		b	.L216
 1443              	.L209:
 1444              		.loc 1 35 0
 1445 00d8 0023     		movs	r3, #0
 1446 00da 1A46     		mov	r2, r3
 1447 00dc 1846     		mov	r0, r3
 1448 00de 0A21     		movs	r1, #10
 1449 00e0 FFF7FEFF 		bl	set_rgb_led
 1450              	.LVL91:
 1451 00e4 D3E7     		b	.L216
 1452              	.L213:
 1453              		.loc 1 55 0
 1454 00e6 0023     		movs	r3, #0
 1455 00e8 1A46     		mov	r2, r3
 1456 00ea 0A21     		movs	r1, #10
 1457 00ec 0220     		movs	r0, #2
 1458 00ee FFF7FEFF 		bl	set_rgb_led
 1459              	.LVL92:
 1460 00f2 CCE7     		b	.L216
 1461              	.LVL93:
 1462              	.L203:
 1463              	.LBE95:
 1464              	.LBE97:
 1465              	.LBB98:
 1466              	.LBB71:
 1467              		.loc 1 59 0
 1468 00f4 0021     		movs	r1, #0
 1469 00f6 0320     		movs	r0, #3
 1470 00f8 FFF7FEFF 		bl	set_led
 1471              	.LVL94:
 1472 00fc B7E7     		b	.L205
 1473              	.LVL95:
 1474              	.L202:
 1475              		.loc 1 55 0
 1476 00fe 0023     		movs	r3, #0
 1477              	.LVL96:
 1478 0100 1A46     		mov	r2, r3
 1479 0102 1946     		mov	r1, r3
 1480 0104 0220     		movs	r0, #2
 1481 0106 FFF7FEFF 		bl	set_rgb_led
 1482              	.LVL97:
ARM GAS  C:\Users\mathi\AppData\Local\Temp\ccpytdP1.s 			page 27


 1483 010a B0E7     		b	.L205
 1484              	.LVL98:
 1485              	.L201:
 1486              		.loc 1 49 0
 1487 010c 0021     		movs	r1, #0
 1488 010e 0220     		movs	r0, #2
 1489 0110 FFF7FEFF 		bl	set_led
 1490              	.LVL99:
 1491 0114 ABE7     		b	.L205
 1492              	.LVL100:
 1493              	.L200:
 1494              		.loc 1 45 0
 1495 0116 0023     		movs	r3, #0
 1496              	.LVL101:
 1497 0118 1A46     		mov	r2, r3
 1498 011a 1946     		mov	r1, r3
 1499 011c 0120     		movs	r0, #1
 1500 011e FFF7FEFF 		bl	set_rgb_led
 1501              	.LVL102:
 1502 0122 A4E7     		b	.L205
 1503              	.LVL103:
 1504              	.L196:
 1505              		.loc 1 29 0
 1506 0124 0021     		movs	r1, #0
 1507 0126 0846     		mov	r0, r1
 1508 0128 FFF7FEFF 		bl	set_led
 1509              	.LVL104:
 1510 012c 9FE7     		b	.L205
 1511              	.LVL105:
 1512              	.L199:
 1513              		.loc 1 39 0
 1514 012e 0021     		movs	r1, #0
 1515 0130 0120     		movs	r0, #1
 1516 0132 FFF7FEFF 		bl	set_led
 1517              	.LVL106:
 1518 0136 9AE7     		b	.L205
 1519              	.LVL107:
 1520              	.L198:
 1521              		.loc 1 35 0
 1522 0138 0023     		movs	r3, #0
 1523              	.LVL108:
 1524 013a 1A46     		mov	r2, r3
 1525 013c 1946     		mov	r1, r3
 1526 013e 1846     		mov	r0, r3
 1527 0140 FFF7FEFF 		bl	set_rgb_led
 1528              	.LVL109:
 1529 0144 93E7     		b	.L205
 1530              	.LVL110:
 1531              	.L183:
 1532              	.LBE71:
 1533              	.LBE98:
 1534              	.LBB99:
 1535              	.LBB82:
 1536              		.loc 1 65 0
 1537 0146 0023     		movs	r3, #0
 1538 0148 1A46     		mov	r2, r3
 1539 014a 0A21     		movs	r1, #10
ARM GAS  C:\Users\mathi\AppData\Local\Temp\ccpytdP1.s 			page 28


 1540 014c 0320     		movs	r0, #3
 1541 014e FFF7FEFF 		bl	set_rgb_led
 1542              	.LVL111:
 1543              	.L184:
 1544              	.LBE82:
 1545              	.LBE99:
 1546              		.loc 1 253 0
 1547 0152 0023     		movs	r3, #0
 1548 0154 2370     		strb	r3, [r4]
 1549 0156 9DE7     		b	.L159
 1550              	.LVL112:
 1551              	.L175:
 1552              	.LBB100:
 1553              	.LBB83:
 1554              		.loc 1 29 0
 1555 0158 0121     		movs	r1, #1
 1556 015a 0020     		movs	r0, #0
 1557 015c FFF7FEFF 		bl	set_led
 1558              	.LVL113:
 1559 0160 F7E7     		b	.L184
 1560              	.LVL114:
 1561              	.L177:
 1562              		.loc 1 35 0
 1563 0162 0023     		movs	r3, #0
 1564              	.LVL115:
 1565 0164 1A46     		mov	r2, r3
 1566 0166 1846     		mov	r0, r3
 1567 0168 0A21     		movs	r1, #10
 1568 016a FFF7FEFF 		bl	set_rgb_led
 1569              	.LVL116:
 1570 016e F0E7     		b	.L184
 1571              	.LVL117:
 1572              	.L178:
 1573              		.loc 1 39 0
 1574 0170 0121     		movs	r1, #1
 1575 0172 0846     		mov	r0, r1
 1576 0174 FFF7FEFF 		bl	set_led
 1577              	.LVL118:
 1578 0178 EBE7     		b	.L184
 1579              	.LVL119:
 1580              	.L179:
 1581              		.loc 1 45 0
 1582 017a 0023     		movs	r3, #0
 1583              	.LVL120:
 1584 017c 1A46     		mov	r2, r3
 1585 017e 0A21     		movs	r1, #10
 1586 0180 0120     		movs	r0, #1
 1587 0182 FFF7FEFF 		bl	set_rgb_led
 1588              	.LVL121:
 1589 0186 E4E7     		b	.L184
 1590              	.LVL122:
 1591              	.L180:
 1592              		.loc 1 49 0
 1593 0188 0121     		movs	r1, #1
 1594 018a 0220     		movs	r0, #2
 1595 018c FFF7FEFF 		bl	set_led
 1596              	.LVL123:
ARM GAS  C:\Users\mathi\AppData\Local\Temp\ccpytdP1.s 			page 29


 1597 0190 DFE7     		b	.L184
 1598              	.LVL124:
 1599              	.L181:
 1600              		.loc 1 55 0
 1601 0192 0023     		movs	r3, #0
 1602              	.LVL125:
 1603 0194 1A46     		mov	r2, r3
 1604 0196 0A21     		movs	r1, #10
 1605 0198 0220     		movs	r0, #2
 1606 019a FFF7FEFF 		bl	set_rgb_led
 1607              	.LVL126:
 1608 019e D8E7     		b	.L184
 1609              	.LVL127:
 1610              	.L182:
 1611              		.loc 1 59 0
 1612 01a0 0121     		movs	r1, #1
 1613 01a2 0320     		movs	r0, #3
 1614 01a4 FFF7FEFF 		bl	set_led
 1615              	.LVL128:
 1616 01a8 D3E7     		b	.L184
 1617              	.LVL129:
 1618              	.L228:
 1619              	.LBE83:
 1620              	.LBE100:
 1621              		.loc 1 261 0
 1622 01aa FFF7FEFF 		bl	__stack_chk_fail
 1623              	.LVL130:
 1624              	.L219:
 1625              	.LBB101:
 1626              	.LBB84:
 1627              		.loc 1 26 0
 1628 01ae 0026     		movs	r6, #0
 1629              	.LVL131:
 1630              	.L174:
 1631              	.LBB77:
 1632              	.LBB78:
 1633              	.LBB79:
 1634 01b0 731E     		subs	r3, r6, #1
 1635 01b2 062B     		cmp	r3, #6
 1636 01b4 10D8     		bhi	.L185
 1637 01b6 01A2     		adr	r2, .L187
 1638 01b8 52F823F0 		ldr	pc, [r2, r3, lsl #2]
 1639              		.p2align 2
 1640              	.L187:
 1641 01bc 23020000 		.word	.L186+1
 1642 01c0 19020000 		.word	.L188+1
 1643 01c4 0B020000 		.word	.L189+1
 1644 01c8 01020000 		.word	.L190+1
 1645 01cc F3010000 		.word	.L191+1
 1646 01d0 E9010000 		.word	.L192+1
 1647 01d4 47010000 		.word	.L183+1
 1648              		.p2align 1
 1649              	.L185:
 1650              		.loc 1 29 0
 1651 01d8 0121     		movs	r1, #1
 1652 01da 0020     		movs	r0, #0
 1653 01dc FFF7FEFF 		bl	set_led
ARM GAS  C:\Users\mathi\AppData\Local\Temp\ccpytdP1.s 			page 30


 1654              	.LVL132:
 1655              	.LBE79:
 1656              	.LBE78:
 1657              		.loc 1 69 0
 1658 01e0 072E     		cmp	r6, #7
 1659 01e2 B6D0     		beq	.L184
 1660              	.LVL133:
 1661              	.L193:
 1662 01e4 0136     		adds	r6, r6, #1
 1663 01e6 E3E7     		b	.L174
 1664              	.LVL134:
 1665              	.L192:
 1666              	.LBB81:
 1667              	.LBB80:
 1668              		.loc 1 59 0
 1669 01e8 0121     		movs	r1, #1
 1670 01ea 0320     		movs	r0, #3
 1671 01ec FFF7FEFF 		bl	set_led
 1672              	.LVL135:
 1673 01f0 F8E7     		b	.L193
 1674              	.L191:
 1675              		.loc 1 55 0
 1676 01f2 0023     		movs	r3, #0
 1677 01f4 1A46     		mov	r2, r3
 1678 01f6 0A21     		movs	r1, #10
 1679 01f8 0220     		movs	r0, #2
 1680 01fa FFF7FEFF 		bl	set_rgb_led
 1681              	.LVL136:
 1682 01fe F1E7     		b	.L193
 1683              	.L190:
 1684              		.loc 1 49 0
 1685 0200 0121     		movs	r1, #1
 1686 0202 0220     		movs	r0, #2
 1687 0204 FFF7FEFF 		bl	set_led
 1688              	.LVL137:
 1689 0208 ECE7     		b	.L193
 1690              	.L189:
 1691              		.loc 1 45 0
 1692 020a 0023     		movs	r3, #0
 1693 020c 1A46     		mov	r2, r3
 1694 020e 0A21     		movs	r1, #10
 1695 0210 0120     		movs	r0, #1
 1696 0212 FFF7FEFF 		bl	set_rgb_led
 1697              	.LVL138:
 1698 0216 E5E7     		b	.L193
 1699              	.L188:
 1700              		.loc 1 39 0
 1701 0218 0121     		movs	r1, #1
 1702 021a 0846     		mov	r0, r1
 1703 021c FFF7FEFF 		bl	set_led
 1704              	.LVL139:
 1705 0220 E0E7     		b	.L193
 1706              	.L186:
 1707              		.loc 1 35 0
 1708 0222 0023     		movs	r3, #0
 1709 0224 1A46     		mov	r2, r3
 1710 0226 1846     		mov	r0, r3
ARM GAS  C:\Users\mathi\AppData\Local\Temp\ccpytdP1.s 			page 31


 1711 0228 0A21     		movs	r1, #10
 1712 022a FFF7FEFF 		bl	set_rgb_led
 1713              	.LVL140:
 1714 022e D9E7     		b	.L193
 1715              	.LVL141:
 1716              	.L221:
 1717              	.LBE80:
 1718              	.LBE81:
 1719              	.LBE77:
 1720              	.LBE84:
 1721              	.LBE101:
 1722              	.LBB102:
 1723              	.LBB96:
 1724              	.LBB94:
 1725              		.loc 1 69 0
 1726 0230 0026     		movs	r6, #0
 1727              	.LVL142:
 1728              	.L206:
 1729              		.loc 1 70 0
 1730 0232 0121     		movs	r1, #1
 1731 0234 3046     		mov	r0, r6
 1732              		.loc 1 69 0
 1733 0236 0E44     		add	r6, r6, r1
 1734              	.LVL143:
 1735              		.loc 1 70 0
 1736 0238 FFF7FEFF 		bl	e_set_led
 1737              	.LVL144:
 1738              		.loc 1 69 0
 1739 023c 082E     		cmp	r6, #8
 1740 023e F8D1     		bne	.L206
 1741 0240 25E7     		b	.L216
 1742              	.LVL145:
 1743              	.L218:
 1744              	.LBE94:
 1745              	.LBE96:
 1746              	.LBE102:
 1747              	.LBB103:
 1748              	.LBB90:
 1749              	.LBB89:
 1750 0242 0026     		movs	r6, #0
 1751              	.LVL146:
 1752              	.L161:
 1753              		.loc 1 70 0
 1754 0244 0121     		movs	r1, #1
 1755 0246 3046     		mov	r0, r6
 1756              		.loc 1 69 0
 1757 0248 0E44     		add	r6, r6, r1
 1758              	.LVL147:
 1759              		.loc 1 70 0
 1760 024a FFF7FEFF 		bl	e_set_led
 1761              	.LVL148:
 1762              		.loc 1 69 0
 1763 024e 082E     		cmp	r6, #8
 1764 0250 F8D1     		bne	.L161
 1765 0252 1CE7     		b	.L216
 1766              	.LVL149:
 1767              	.L220:
ARM GAS  C:\Users\mathi\AppData\Local\Temp\ccpytdP1.s 			page 32


 1768              	.LBE89:
 1769              	.LBE90:
 1770              	.LBE103:
 1771              	.LBB104:
 1772              	.LBB72:
 1773              	.LBB69:
 1774 0254 0026     		movs	r6, #0
 1775              	.LVL150:
 1776              	.L195:
 1777              		.loc 1 70 0
 1778 0256 3046     		mov	r0, r6
 1779 0258 0021     		movs	r1, #0
 1780              		.loc 1 69 0
 1781 025a 0136     		adds	r6, r6, #1
 1782              	.LVL151:
 1783              		.loc 1 70 0
 1784 025c FFF7FEFF 		bl	e_set_led
 1785              	.LVL152:
 1786              		.loc 1 69 0
 1787 0260 082E     		cmp	r6, #8
 1788 0262 F8D1     		bne	.L195
 1789 0264 03E7     		b	.L205
 1790              	.L230:
 1791 0266 00BF     		.align	2
 1792              	.L229:
 1793 0268 00000000 		.word	.LANCHOR0
 1794 026c 00000000 		.word	__stack_chk_guard
 1795              	.LBE69:
 1796              	.LBE72:
 1797              	.LBE104:
 1798              		.cfi_endproc
 1799              	.LFE272:
 1800              		.size	snake_led, .-snake_led
 1801              		.section	.text.flow_led,"ax",%progbits
 1802              		.align	1
 1803              		.p2align 4,,15
 1804              		.global	flow_led
 1805              		.syntax unified
 1806              		.thumb
 1807              		.thumb_func
 1808              		.fpu fpv4-sp-d16
 1809              		.type	flow_led, %function
 1810              	flow_led:
 1811              	.LFB273:
 1812              		.loc 1 266 0
 1813              		.cfi_startproc
 1814              		@ args = 0, pretend = 0, frame = 8
 1815              		@ frame_needed = 0, uses_anonymous_args = 0
 1816 0000 30B5     		push	{r4, r5, lr}
 1817              		.cfi_def_cfa_offset 12
 1818              		.cfi_offset 4, -12
 1819              		.cfi_offset 5, -8
 1820              		.cfi_offset 14, -4
 1821              		.loc 1 268 0
 1822 0002 244C     		ldr	r4, .L245
 1823              		.loc 1 266 0
 1824 0004 244D     		ldr	r5, .L245+4
ARM GAS  C:\Users\mathi\AppData\Local\Temp\ccpytdP1.s 			page 33


 1825              		.loc 1 268 0
 1826 0006 2378     		ldrb	r3, [r4]	@ zero_extendqisi2
 1827              		.loc 1 266 0
 1828 0008 2A68     		ldr	r2, [r5]
 1829 000a 83B0     		sub	sp, sp, #12
 1830              		.cfi_def_cfa_offset 24
 1831              		.loc 1 266 0
 1832 000c 0192     		str	r2, [sp, #4]
 1833              		.loc 1 268 0
 1834 000e 042B     		cmp	r3, #4
 1835 0010 04D8     		bhi	.L242
 1836 0012 DFE803F0 		tbb	[pc, r3]
 1837              	.L234:
 1838 0016 15       		.byte	(.L233-.L234)/2
 1839 0017 1B       		.byte	(.L235-.L234)/2
 1840 0018 27       		.byte	(.L236-.L234)/2
 1841 0019 31       		.byte	(.L237-.L234)/2
 1842 001a 0B       		.byte	(.L238-.L234)/2
 1843 001b 00       		.p2align 1
 1844              	.L242:
 1845              		.loc 1 279 0
 1846 001c 0023     		movs	r3, #0
 1847              	.L232:
 1848              		.loc 1 280 0
 1849 001e 0199     		ldr	r1, [sp, #4]
 1850 0020 2A68     		ldr	r2, [r5]
 1851 0022 2370     		strb	r3, [r4]
 1852 0024 9142     		cmp	r1, r2
 1853 0026 33D1     		bne	.L244
 1854 0028 03B0     		add	sp, sp, #12
 1855              		.cfi_remember_state
 1856              		.cfi_def_cfa_offset 12
 1857              		@ sp needed
 1858 002a 30BD     		pop	{r4, r5, pc}
 1859              	.L238:
 1860              		.cfi_restore_state
 1861              	.LVL153:
 1862              	.LBB144:
 1863              	.LBB145:
 1864              		.loc 1 49 0
 1865 002c 0221     		movs	r1, #2
 1866 002e 0846     		mov	r0, r1
 1867 0030 FFF7FEFF 		bl	set_led
 1868              	.LVL154:
 1869 0034 2378     		ldrb	r3, [r4]	@ zero_extendqisi2
 1870              	.LVL155:
 1871              	.L239:
 1872              	.LBE145:
 1873              	.LBE144:
 1874              		.loc 1 276 0
 1875 0036 032B     		cmp	r3, #3
 1876 0038 F0D8     		bhi	.L242
 1877              		.loc 1 277 0
 1878 003a 0133     		adds	r3, r3, #1
 1879 003c DBB2     		uxtb	r3, r3
 1880 003e EEE7     		b	.L232
 1881              	.L233:
ARM GAS  C:\Users\mathi\AppData\Local\Temp\ccpytdP1.s 			page 34


 1882              	.LVL156:
 1883              	.LBB146:
 1884              	.LBB147:
 1885              		.loc 1 29 0
 1886 0040 0221     		movs	r1, #2
 1887 0042 0020     		movs	r0, #0
 1888 0044 FFF7FEFF 		bl	set_led
 1889              	.LVL157:
 1890 0048 2378     		ldrb	r3, [r4]	@ zero_extendqisi2
 1891 004a F4E7     		b	.L239
 1892              	.LVL158:
 1893              	.L235:
 1894              	.LBE147:
 1895              	.LBE146:
 1896              	.LBB148:
 1897              	.LBB149:
 1898              		.loc 1 33 0
 1899 004c 0021     		movs	r1, #0
 1900 004e 0846     		mov	r0, r1
 1901 0050 0A22     		movs	r2, #10
 1902 0052 FFF7FEFF 		bl	toggle_rgb_led
 1903              	.LVL159:
 1904              	.LBE149:
 1905              	.LBE148:
 1906              	.LBB150:
 1907              	.LBB151:
 1908              		.loc 1 63 0
 1909 0056 0A22     		movs	r2, #10
 1910 0058 0021     		movs	r1, #0
 1911 005a 0320     		movs	r0, #3
 1912 005c FFF7FEFF 		bl	toggle_rgb_led
 1913              	.LVL160:
 1914 0060 2378     		ldrb	r3, [r4]	@ zero_extendqisi2
 1915 0062 E8E7     		b	.L239
 1916              	.LVL161:
 1917              	.L236:
 1918              	.LBE151:
 1919              	.LBE150:
 1920              	.LBB152:
 1921              	.LBB153:
 1922              		.loc 1 39 0
 1923 0064 0221     		movs	r1, #2
 1924 0066 0120     		movs	r0, #1
 1925 0068 FFF7FEFF 		bl	set_led
 1926              	.LVL162:
 1927              	.LBE153:
 1928              	.LBE152:
 1929              	.LBB154:
 1930              	.LBB155:
 1931              		.loc 1 59 0
 1932 006c 0221     		movs	r1, #2
 1933 006e 0320     		movs	r0, #3
 1934 0070 FFF7FEFF 		bl	set_led
 1935              	.LVL163:
 1936 0074 2378     		ldrb	r3, [r4]	@ zero_extendqisi2
 1937 0076 DEE7     		b	.L239
 1938              	.LVL164:
ARM GAS  C:\Users\mathi\AppData\Local\Temp\ccpytdP1.s 			page 35


 1939              	.L237:
 1940              	.LBE155:
 1941              	.LBE154:
 1942              	.LBB156:
 1943              	.LBB157:
 1944              		.loc 1 43 0
 1945 0078 0A22     		movs	r2, #10
 1946 007a 0021     		movs	r1, #0
 1947 007c 0120     		movs	r0, #1
 1948 007e FFF7FEFF 		bl	toggle_rgb_led
 1949              	.LVL165:
 1950              	.LBE157:
 1951              	.LBE156:
 1952              	.LBB158:
 1953              	.LBB159:
 1954              		.loc 1 53 0
 1955 0082 0A22     		movs	r2, #10
 1956 0084 0021     		movs	r1, #0
 1957 0086 0220     		movs	r0, #2
 1958 0088 FFF7FEFF 		bl	toggle_rgb_led
 1959              	.LVL166:
 1960 008c 2378     		ldrb	r3, [r4]	@ zero_extendqisi2
 1961 008e D2E7     		b	.L239
 1962              	.LVL167:
 1963              	.L244:
 1964              	.LBE159:
 1965              	.LBE158:
 1966              		.loc 1 280 0
 1967 0090 FFF7FEFF 		bl	__stack_chk_fail
 1968              	.LVL168:
 1969              	.L246:
 1970              		.align	2
 1971              	.L245:
 1972 0094 00000000 		.word	.LANCHOR1
 1973 0098 00000000 		.word	__stack_chk_guard
 1974              		.cfi_endproc
 1975              	.LFE273:
 1976              		.size	flow_led, .-flow_led
 1977              		.section	.text.k2000_led,"ax",%progbits
 1978              		.align	1
 1979              		.p2align 4,,15
 1980              		.global	k2000_led
 1981              		.syntax unified
 1982              		.thumb
 1983              		.thumb_func
 1984              		.fpu fpv4-sp-d16
 1985              		.type	k2000_led, %function
 1986              	k2000_led:
 1987              	.LFB274:
 1988              		.loc 1 284 0
 1989              		.cfi_startproc
 1990              		@ args = 0, pretend = 0, frame = 8
 1991              		@ frame_needed = 0, uses_anonymous_args = 0
 1992 0000 70B5     		push	{r4, r5, r6, lr}
 1993              		.cfi_def_cfa_offset 16
 1994              		.cfi_offset 4, -16
 1995              		.cfi_offset 5, -12
ARM GAS  C:\Users\mathi\AppData\Local\Temp\ccpytdP1.s 			page 36


 1996              		.cfi_offset 6, -8
 1997              		.cfi_offset 14, -4
 1998              		.loc 1 287 0
 1999 0002 8F4C     		ldr	r4, .L306
 2000              		.loc 1 284 0
 2001 0004 8F4D     		ldr	r5, .L306+4
 2002              		.loc 1 287 0
 2003 0006 2378     		ldrb	r3, [r4]	@ zero_extendqisi2
 2004              		.loc 1 284 0
 2005 0008 2A68     		ldr	r2, [r5]
 2006 000a 82B0     		sub	sp, sp, #8
 2007              		.cfi_def_cfa_offset 24
 2008              		.loc 1 284 0
 2009 000c 0192     		str	r2, [sp, #4]
 2010              		.loc 1 287 0
 2011 000e 53B1     		cbz	r3, .L302
 2012              		.loc 1 293 0
 2013 0010 072B     		cmp	r3, #7
 2014 0012 39D0     		beq	.L303
 2015              		.loc 1 296 0
 2016 0014 012B     		cmp	r3, #1
 2017 0016 25D0     		beq	.L304
 2018              	.L247:
 2019              		.loc 1 299 0
 2020 0018 019A     		ldr	r2, [sp, #4]
 2021 001a 2B68     		ldr	r3, [r5]
 2022 001c 9A42     		cmp	r2, r3
 2023 001e 40F0C180 		bne	.L301
 2024 0022 02B0     		add	sp, sp, #8
 2025              		.cfi_remember_state
 2026              		.cfi_def_cfa_offset 16
 2027              		@ sp needed
 2028 0024 70BD     		pop	{r4, r5, r6, pc}
 2029              	.L302:
 2030              		.cfi_restore_state
 2031              		.loc 1 287 0 discriminator 1
 2032 0026 884E     		ldr	r6, .L306+8
 2033 0028 3178     		ldrb	r1, [r6]	@ zero_extendqisi2
 2034 002a 59B9     		cbnz	r1, .L305
 2035              		.loc 1 291 0 discriminator 1
 2036 002c 0723     		movs	r3, #7
 2037              	.LBB205:
 2038              	.LBB206:
 2039              		.loc 1 29 0 discriminator 1
 2040 002e 0846     		mov	r0, r1
 2041              	.LBE206:
 2042              	.LBE205:
 2043              		.loc 1 291 0 discriminator 1
 2044 0030 2370     		strb	r3, [r4]
 2045              	.LVL169:
 2046              	.LBB208:
 2047              	.LBB207:
 2048              		.loc 1 29 0 discriminator 1
 2049 0032 FFF7FEFF 		bl	set_led
 2050              	.LVL170:
 2051              	.LBE207:
 2052              	.LBE208:
ARM GAS  C:\Users\mathi\AppData\Local\Temp\ccpytdP1.s 			page 37


 2053              		.loc 1 291 0 discriminator 1
 2054 0036 2078     		ldrb	r0, [r4]	@ zero_extendqisi2
 2055 0038 0121     		movs	r1, #1
 2056 003a FFF7FEFF 		bl	e_set_led
 2057              	.LVL171:
 2058 003e 0123     		movs	r3, #1
 2059 0040 3370     		strb	r3, [r6]
 2060 0042 E9E7     		b	.L247
 2061              	.L305:
 2062              		.loc 1 288 0
 2063 0044 0122     		movs	r2, #1
 2064              	.LBB209:
 2065              	.LBB210:
 2066              		.loc 1 29 0
 2067 0046 1946     		mov	r1, r3
 2068 0048 1846     		mov	r0, r3
 2069              	.LBE210:
 2070              	.LBE209:
 2071              		.loc 1 288 0
 2072 004a 2270     		strb	r2, [r4]
 2073              	.LVL172:
 2074              	.LBB212:
 2075              	.LBB211:
 2076              		.loc 1 29 0
 2077 004c FFF7FEFF 		bl	set_led
 2078              	.LVL173:
 2079              	.LBE211:
 2080              	.LBE212:
 2081              	.LBB213:
 2082              	.LBB214:
 2083              		.loc 1 26 0
 2084 0050 2378     		ldrb	r3, [r4]	@ zero_extendqisi2
 2085              	.LVL174:
 2086 0052 072B     		cmp	r3, #7
 2087 0054 00F2EB80 		bhi	.L295
 2088 0058 DFE803F0 		tbb	[pc, r3]
 2089              	.L252:
 2090 005c 57       		.byte	(.L251-.L252)/2
 2091 005d 50       		.byte	(.L253-.L252)/2
 2092 005e 4B       		.byte	(.L254-.L252)/2
 2093 005f 44       		.byte	(.L255-.L252)/2
 2094 0060 3F       		.byte	(.L256-.L252)/2
 2095 0061 38       		.byte	(.L257-.L252)/2
 2096 0062 33       		.byte	(.L258-.L252)/2
 2097 0063 2A       		.byte	(.L259-.L252)/2
 2098              	.LVL175:
 2099              		.p2align 1
 2100              	.L304:
 2101              	.LBE214:
 2102              	.LBE213:
 2103              		.loc 1 297 0
 2104 0064 0026     		movs	r6, #0
 2105              	.LBB219:
 2106              	.LBB220:
 2107              		.loc 1 35 0
 2108 0066 3346     		mov	r3, r6
 2109 0068 3246     		mov	r2, r6
ARM GAS  C:\Users\mathi\AppData\Local\Temp\ccpytdP1.s 			page 38


 2110 006a 3146     		mov	r1, r6
 2111 006c 3046     		mov	r0, r6
 2112              	.LBE220:
 2113              	.LBE219:
 2114              		.loc 1 297 0
 2115 006e 2670     		strb	r6, [r4]
 2116              	.LVL176:
 2117              	.LBB222:
 2118              	.LBB221:
 2119              		.loc 1 35 0
 2120 0070 FFF7FEFF 		bl	set_rgb_led
 2121              	.LVL177:
 2122              	.LBE221:
 2123              	.LBE222:
 2124              	.LBB223:
 2125              	.LBB224:
 2126              		.loc 1 26 0
 2127 0074 2378     		ldrb	r3, [r4]	@ zero_extendqisi2
 2128              	.LVL178:
 2129 0076 072B     		cmp	r3, #7
 2130 0078 00F29680 		bhi	.L296
 2131 007c DFE803F0 		tbb	[pc, r3]
 2132              	.L267:
 2133 0080 8B       		.byte	(.L266-.L267)/2
 2134 0081 82       		.byte	(.L268-.L267)/2
 2135 0082 7B       		.byte	(.L269-.L267)/2
 2136 0083 72       		.byte	(.L270-.L267)/2
 2137 0084 6B       		.byte	(.L271-.L267)/2
 2138 0085 62       		.byte	(.L272-.L267)/2
 2139 0086 57       		.byte	(.L273-.L267)/2
 2140 0087 4A       		.byte	(.L274-.L267)/2
 2141              	.LVL179:
 2142              		.p2align 1
 2143              	.L303:
 2144              	.LBE224:
 2145              	.LBE223:
 2146              		.loc 1 294 0
 2147 0088 0026     		movs	r6, #0
 2148              	.LBB234:
 2149              	.LBB235:
 2150              		.loc 1 65 0
 2151 008a 3346     		mov	r3, r6
 2152 008c 3246     		mov	r2, r6
 2153 008e 3146     		mov	r1, r6
 2154 0090 0320     		movs	r0, #3
 2155              	.LBE235:
 2156              	.LBE234:
 2157              		.loc 1 294 0
 2158 0092 2670     		strb	r6, [r4]
 2159              	.LVL180:
 2160              	.LBB237:
 2161              	.LBB236:
 2162              		.loc 1 65 0
 2163 0094 FFF7FEFF 		bl	set_rgb_led
 2164              	.LVL181:
 2165              	.LBE236:
 2166              	.LBE237:
ARM GAS  C:\Users\mathi\AppData\Local\Temp\ccpytdP1.s 			page 39


 2167              		.loc 1 294 0
 2168 0098 019A     		ldr	r2, [sp, #4]
 2169 009a 2B68     		ldr	r3, [r5]
 2170 009c 9A42     		cmp	r2, r3
 2171 009e 40F08180 		bne	.L301
 2172 00a2 2078     		ldrb	r0, [r4]	@ zero_extendqisi2
 2173 00a4 0121     		movs	r1, #1
 2174              		.loc 1 299 0
 2175 00a6 02B0     		add	sp, sp, #8
 2176              		.cfi_remember_state
 2177              		.cfi_def_cfa_offset 16
 2178              		@ sp needed
 2179 00a8 BDE87040 		pop	{r4, r5, r6, lr}
 2180              		.cfi_restore 14
 2181              		.cfi_restore 6
 2182              		.cfi_restore 5
 2183              		.cfi_restore 4
 2184              		.cfi_def_cfa_offset 0
 2185              		.loc 1 294 0
 2186 00ac FFF7FEBF 		b	e_set_led
 2187              	.LVL182:
 2188              	.L259:
 2189              		.cfi_restore_state
 2190              	.LBB238:
 2191              	.LBB216:
 2192              		.loc 1 65 0
 2193 00b0 0023     		movs	r3, #0
 2194              	.LVL183:
 2195 00b2 1A46     		mov	r2, r3
 2196 00b4 0A21     		movs	r1, #10
 2197 00b6 0320     		movs	r0, #3
 2198 00b8 FFF7FEFF 		bl	set_rgb_led
 2199              	.LVL184:
 2200              	.L260:
 2201              	.LBE216:
 2202              	.LBE238:
 2203              		.loc 1 288 0
 2204 00bc 0023     		movs	r3, #0
 2205 00be 3370     		strb	r3, [r6]
 2206 00c0 AAE7     		b	.L247
 2207              	.LVL185:
 2208              	.L258:
 2209              	.LBB239:
 2210              	.LBB217:
 2211              		.loc 1 59 0
 2212 00c2 0121     		movs	r1, #1
 2213 00c4 0320     		movs	r0, #3
 2214 00c6 FFF7FEFF 		bl	set_led
 2215              	.LVL186:
 2216 00ca F7E7     		b	.L260
 2217              	.LVL187:
 2218              	.L257:
 2219              		.loc 1 55 0
 2220 00cc 0023     		movs	r3, #0
 2221              	.LVL188:
 2222 00ce 1A46     		mov	r2, r3
 2223 00d0 0A21     		movs	r1, #10
ARM GAS  C:\Users\mathi\AppData\Local\Temp\ccpytdP1.s 			page 40


 2224 00d2 0220     		movs	r0, #2
 2225 00d4 FFF7FEFF 		bl	set_rgb_led
 2226              	.LVL189:
 2227 00d8 F0E7     		b	.L260
 2228              	.LVL190:
 2229              	.L256:
 2230              		.loc 1 49 0
 2231 00da 0121     		movs	r1, #1
 2232 00dc 0220     		movs	r0, #2
 2233 00de FFF7FEFF 		bl	set_led
 2234              	.LVL191:
 2235 00e2 EBE7     		b	.L260
 2236              	.LVL192:
 2237              	.L255:
 2238              		.loc 1 45 0
 2239 00e4 0023     		movs	r3, #0
 2240              	.LVL193:
 2241 00e6 1A46     		mov	r2, r3
 2242 00e8 0A21     		movs	r1, #10
 2243 00ea 0120     		movs	r0, #1
 2244 00ec FFF7FEFF 		bl	set_rgb_led
 2245              	.LVL194:
 2246 00f0 E4E7     		b	.L260
 2247              	.LVL195:
 2248              	.L254:
 2249              		.loc 1 39 0
 2250 00f2 0121     		movs	r1, #1
 2251 00f4 0846     		mov	r0, r1
 2252 00f6 FFF7FEFF 		bl	set_led
 2253              	.LVL196:
 2254 00fa DFE7     		b	.L260
 2255              	.LVL197:
 2256              	.L253:
 2257              		.loc 1 35 0
 2258 00fc 0023     		movs	r3, #0
 2259              	.LVL198:
 2260 00fe 1A46     		mov	r2, r3
 2261 0100 1846     		mov	r0, r3
 2262 0102 0A21     		movs	r1, #10
 2263 0104 FFF7FEFF 		bl	set_rgb_led
 2264              	.LVL199:
 2265 0108 D8E7     		b	.L260
 2266              	.LVL200:
 2267              	.L251:
 2268              		.loc 1 29 0
 2269 010a 0121     		movs	r1, #1
 2270 010c 0020     		movs	r0, #0
 2271 010e FFF7FEFF 		bl	set_led
 2272              	.LVL201:
 2273 0112 D3E7     		b	.L260
 2274              	.LVL202:
 2275              	.L274:
 2276              	.LBE217:
 2277              	.LBE239:
 2278              	.LBB240:
 2279              	.LBB230:
 2280              		.loc 1 65 0
ARM GAS  C:\Users\mathi\AppData\Local\Temp\ccpytdP1.s 			page 41


 2281 0114 019A     		ldr	r2, [sp, #4]
 2282 0116 2B68     		ldr	r3, [r5]
 2283 0118 9A42     		cmp	r2, r3
 2284 011a 43D1     		bne	.L301
 2285 011c 0023     		movs	r3, #0
 2286 011e 1A46     		mov	r2, r3
 2287 0120 0A21     		movs	r1, #10
 2288 0122 0320     		movs	r0, #3
 2289              	.L300:
 2290              	.LBE230:
 2291              	.LBE240:
 2292              		.loc 1 299 0
 2293 0124 02B0     		add	sp, sp, #8
 2294              		.cfi_remember_state
 2295              		.cfi_def_cfa_offset 16
 2296              		@ sp needed
 2297 0126 BDE87040 		pop	{r4, r5, r6, lr}
 2298              		.cfi_restore 14
 2299              		.cfi_restore 6
 2300              		.cfi_restore 5
 2301              		.cfi_restore 4
 2302              		.cfi_def_cfa_offset 0
 2303              	.LBB241:
 2304              	.LBB231:
 2305              		.loc 1 65 0
 2306 012a FFF7FEBF 		b	set_rgb_led
 2307              	.LVL203:
 2308              	.L273:
 2309              		.cfi_restore_state
 2310              		.loc 1 59 0
 2311 012e 019A     		ldr	r2, [sp, #4]
 2312 0130 2B68     		ldr	r3, [r5]
 2313              	.LVL204:
 2314 0132 9A42     		cmp	r2, r3
 2315 0134 36D1     		bne	.L301
 2316 0136 0121     		movs	r1, #1
 2317 0138 0320     		movs	r0, #3
 2318              	.L299:
 2319              	.LBE231:
 2320              	.LBE241:
 2321              		.loc 1 299 0
 2322 013a 02B0     		add	sp, sp, #8
 2323              		.cfi_remember_state
 2324              		.cfi_def_cfa_offset 16
 2325              		@ sp needed
 2326 013c BDE87040 		pop	{r4, r5, r6, lr}
 2327              		.cfi_restore 14
 2328              		.cfi_restore 6
 2329              		.cfi_restore 5
 2330              		.cfi_restore 4
 2331              		.cfi_def_cfa_offset 0
 2332              	.LBB242:
 2333              	.LBB232:
 2334              		.loc 1 39 0
 2335 0140 FFF7FEBF 		b	set_led
 2336              	.LVL205:
 2337              	.L272:
ARM GAS  C:\Users\mathi\AppData\Local\Temp\ccpytdP1.s 			page 42


 2338              		.cfi_restore_state
 2339              		.loc 1 55 0
 2340 0144 019A     		ldr	r2, [sp, #4]
 2341 0146 2B68     		ldr	r3, [r5]
 2342              	.LVL206:
 2343 0148 9A42     		cmp	r2, r3
 2344 014a 2BD1     		bne	.L301
 2345 014c 0023     		movs	r3, #0
 2346 014e 1A46     		mov	r2, r3
 2347 0150 0A21     		movs	r1, #10
 2348 0152 0220     		movs	r0, #2
 2349 0154 E6E7     		b	.L300
 2350              	.LVL207:
 2351              	.L271:
 2352              		.loc 1 49 0
 2353 0156 019A     		ldr	r2, [sp, #4]
 2354 0158 2B68     		ldr	r3, [r5]
 2355              	.LVL208:
 2356 015a 9A42     		cmp	r2, r3
 2357 015c 22D1     		bne	.L301
 2358 015e 0121     		movs	r1, #1
 2359 0160 0220     		movs	r0, #2
 2360 0162 EAE7     		b	.L299
 2361              	.LVL209:
 2362              	.L270:
 2363              		.loc 1 45 0
 2364 0164 019A     		ldr	r2, [sp, #4]
 2365 0166 2B68     		ldr	r3, [r5]
 2366              	.LVL210:
 2367 0168 9A42     		cmp	r2, r3
 2368 016a 1BD1     		bne	.L301
 2369 016c 0023     		movs	r3, #0
 2370 016e 1A46     		mov	r2, r3
 2371 0170 0A21     		movs	r1, #10
 2372 0172 0120     		movs	r0, #1
 2373 0174 D6E7     		b	.L300
 2374              	.LVL211:
 2375              	.L269:
 2376              		.loc 1 39 0
 2377 0176 019A     		ldr	r2, [sp, #4]
 2378 0178 2B68     		ldr	r3, [r5]
 2379              	.LVL212:
 2380 017a 9A42     		cmp	r2, r3
 2381 017c 12D1     		bne	.L301
 2382 017e 0121     		movs	r1, #1
 2383 0180 0846     		mov	r0, r1
 2384 0182 DAE7     		b	.L299
 2385              	.LVL213:
 2386              	.L268:
 2387              		.loc 1 35 0
 2388 0184 019A     		ldr	r2, [sp, #4]
 2389 0186 2B68     		ldr	r3, [r5]
 2390              	.LVL214:
 2391 0188 9A42     		cmp	r2, r3
 2392 018a 0BD1     		bne	.L301
 2393 018c 0023     		movs	r3, #0
 2394 018e 1A46     		mov	r2, r3
ARM GAS  C:\Users\mathi\AppData\Local\Temp\ccpytdP1.s 			page 43


 2395 0190 1846     		mov	r0, r3
 2396 0192 0A21     		movs	r1, #10
 2397 0194 C6E7     		b	.L300
 2398              	.LVL215:
 2399              	.L266:
 2400              		.loc 1 29 0
 2401 0196 019A     		ldr	r2, [sp, #4]
 2402 0198 2B68     		ldr	r3, [r5]
 2403              	.LVL216:
 2404 019a 9A42     		cmp	r2, r3
 2405 019c 02D1     		bne	.L301
 2406 019e 0121     		movs	r1, #1
 2407 01a0 0020     		movs	r0, #0
 2408 01a2 CAE7     		b	.L299
 2409              	.LVL217:
 2410              	.L301:
 2411              	.LBE232:
 2412              	.LBE242:
 2413              		.loc 1 299 0
 2414 01a4 FFF7FEFF 		bl	__stack_chk_fail
 2415              	.LVL218:
 2416              	.L296:
 2417              	.LBB243:
 2418              	.LBB233:
 2419              		.loc 1 26 0
 2420 01a8 0024     		movs	r4, #0
 2421              	.LVL219:
 2422              	.L265:
 2423              	.LBB225:
 2424              	.LBB226:
 2425              	.LBB227:
 2426 01aa 631E     		subs	r3, r4, #1
 2427 01ac 062B     		cmp	r3, #6
 2428 01ae 11D8     		bhi	.L283
 2429 01b0 01A2     		adr	r2, .L285
 2430 01b2 52F823F0 		ldr	pc, [r2, r3, lsl #2]
 2431 01b6 00BF     		.p2align 2
 2432              	.L285:
 2433 01b8 21020000 		.word	.L284+1
 2434 01bc 17020000 		.word	.L286+1
 2435 01c0 09020000 		.word	.L287+1
 2436 01c4 FF010000 		.word	.L288+1
 2437 01c8 F1010000 		.word	.L289+1
 2438 01cc E7010000 		.word	.L290+1
 2439 01d0 15010000 		.word	.L274+1
 2440              		.p2align 1
 2441              	.L283:
 2442              		.loc 1 29 0
 2443 01d4 0121     		movs	r1, #1
 2444 01d6 0020     		movs	r0, #0
 2445 01d8 FFF7FEFF 		bl	set_led
 2446              	.LVL220:
 2447              	.LBE227:
 2448              	.LBE226:
 2449              		.loc 1 69 0
 2450 01dc 072C     		cmp	r4, #7
 2451 01de 3FF41BAF 		beq	.L247
ARM GAS  C:\Users\mathi\AppData\Local\Temp\ccpytdP1.s 			page 44


 2452              	.LVL221:
 2453              	.L291:
 2454 01e2 0134     		adds	r4, r4, #1
 2455 01e4 E1E7     		b	.L265
 2456              	.LVL222:
 2457              	.L290:
 2458              	.LBB229:
 2459              	.LBB228:
 2460              		.loc 1 59 0
 2461 01e6 0121     		movs	r1, #1
 2462 01e8 0320     		movs	r0, #3
 2463 01ea FFF7FEFF 		bl	set_led
 2464              	.LVL223:
 2465 01ee F8E7     		b	.L291
 2466              	.L289:
 2467              		.loc 1 55 0
 2468 01f0 0023     		movs	r3, #0
 2469 01f2 1A46     		mov	r2, r3
 2470 01f4 0A21     		movs	r1, #10
 2471 01f6 0220     		movs	r0, #2
 2472 01f8 FFF7FEFF 		bl	set_rgb_led
 2473              	.LVL224:
 2474 01fc F1E7     		b	.L291
 2475              	.L288:
 2476              		.loc 1 49 0
 2477 01fe 0121     		movs	r1, #1
 2478 0200 0220     		movs	r0, #2
 2479 0202 FFF7FEFF 		bl	set_led
 2480              	.LVL225:
 2481 0206 ECE7     		b	.L291
 2482              	.L287:
 2483              		.loc 1 45 0
 2484 0208 0023     		movs	r3, #0
 2485 020a 1A46     		mov	r2, r3
 2486 020c 0A21     		movs	r1, #10
 2487 020e 0120     		movs	r0, #1
 2488 0210 FFF7FEFF 		bl	set_rgb_led
 2489              	.LVL226:
 2490 0214 E5E7     		b	.L291
 2491              	.L286:
 2492              		.loc 1 39 0
 2493 0216 0121     		movs	r1, #1
 2494 0218 0846     		mov	r0, r1
 2495 021a FFF7FEFF 		bl	set_led
 2496              	.LVL227:
 2497 021e E0E7     		b	.L291
 2498              	.L284:
 2499              		.loc 1 35 0
 2500 0220 0023     		movs	r3, #0
 2501 0222 1A46     		mov	r2, r3
 2502 0224 1846     		mov	r0, r3
 2503 0226 0A21     		movs	r1, #10
 2504 0228 FFF7FEFF 		bl	set_rgb_led
 2505              	.LVL228:
 2506 022c D9E7     		b	.L291
 2507              	.LVL229:
 2508              	.L295:
ARM GAS  C:\Users\mathi\AppData\Local\Temp\ccpytdP1.s 			page 45


 2509              	.LBE228:
 2510              	.LBE229:
 2511              	.LBE225:
 2512              	.LBE233:
 2513              	.LBE243:
 2514              	.LBB244:
 2515              	.LBB218:
 2516              	.LBB215:
 2517              		.loc 1 69 0
 2518 022e 0024     		movs	r4, #0
 2519              	.LVL230:
 2520              	.L250:
 2521              		.loc 1 70 0
 2522 0230 0121     		movs	r1, #1
 2523 0232 2046     		mov	r0, r4
 2524              		.loc 1 69 0
 2525 0234 0C44     		add	r4, r4, r1
 2526              	.LVL231:
 2527              		.loc 1 70 0
 2528 0236 FFF7FEFF 		bl	e_set_led
 2529              	.LVL232:
 2530              		.loc 1 69 0
 2531 023a 082C     		cmp	r4, #8
 2532 023c F8D1     		bne	.L250
 2533 023e 3DE7     		b	.L260
 2534              	.L307:
 2535              		.align	2
 2536              	.L306:
 2537 0240 00000000 		.word	.LANCHOR2
 2538 0244 00000000 		.word	__stack_chk_guard
 2539 0248 00000000 		.word	.LANCHOR3
 2540              	.LBE215:
 2541              	.LBE218:
 2542              	.LBE244:
 2543              		.cfi_endproc
 2544              	.LFE274:
 2545              		.size	k2000_led, .-k2000_led
 2546              		.section	.text.right_led,"ax",%progbits
 2547              		.align	1
 2548              		.p2align 4,,15
 2549              		.global	right_led
 2550              		.syntax unified
 2551              		.thumb
 2552              		.thumb_func
 2553              		.fpu fpv4-sp-d16
 2554              		.type	right_led, %function
 2555              	right_led:
 2556              	.LFB275:
 2557              		.loc 1 303 0
 2558              		.cfi_startproc
 2559              		@ args = 0, pretend = 0, frame = 8
 2560              		@ frame_needed = 0, uses_anonymous_args = 0
 2561 0000 30B5     		push	{r4, r5, lr}
 2562              		.cfi_def_cfa_offset 12
 2563              		.cfi_offset 4, -12
 2564              		.cfi_offset 5, -8
 2565              		.cfi_offset 14, -4
ARM GAS  C:\Users\mathi\AppData\Local\Temp\ccpytdP1.s 			page 46


 2566              		.loc 1 305 0
 2567 0002 1D4C     		ldr	r4, .L322
 2568              		.loc 1 303 0
 2569 0004 1D4D     		ldr	r5, .L322+4
 2570              		.loc 1 305 0
 2571 0006 2378     		ldrb	r3, [r4]	@ zero_extendqisi2
 2572              		.loc 1 303 0
 2573 0008 2A68     		ldr	r2, [r5]
 2574 000a 83B0     		sub	sp, sp, #12
 2575              		.cfi_def_cfa_offset 24
 2576              		.loc 1 303 0
 2577 000c 0192     		str	r2, [sp, #4]
 2578              		.loc 1 305 0
 2579 000e 032B     		cmp	r3, #3
 2580 0010 18D8     		bhi	.L318
 2581 0012 DFE803F0 		tbb	[pc, r3]
 2582              	.L311:
 2583 0016 25       		.byte	(.L310-.L311)/2
 2584 0017 19       		.byte	(.L312-.L311)/2
 2585 0018 10       		.byte	(.L313-.L311)/2
 2586 0019 02       		.byte	(.L314-.L311)/2
 2587              		.p2align 1
 2588              	.L314:
 2589              	.LBB268:
 2590              	.LBB269:
 2591              		.loc 1 83 0
 2592 001a FFF7FEFF 		bl	clear_leds
 2593              	.LVL233:
 2594 001e 2378     		ldrb	r3, [r4]	@ zero_extendqisi2
 2595              	.L315:
 2596              	.LBE269:
 2597              	.LBE268:
 2598              		.loc 1 312 0
 2599 0020 022B     		cmp	r3, #2
 2600 0022 0FD8     		bhi	.L318
 2601              	.L321:
 2602              		.loc 1 313 0
 2603 0024 0133     		adds	r3, r3, #1
 2604 0026 DBB2     		uxtb	r3, r3
 2605              	.L309:
 2606              		.loc 1 316 0
 2607 0028 0199     		ldr	r1, [sp, #4]
 2608 002a 2A68     		ldr	r2, [r5]
 2609 002c 2370     		strb	r3, [r4]
 2610 002e 9142     		cmp	r1, r2
 2611 0030 20D1     		bne	.L320
 2612 0032 03B0     		add	sp, sp, #12
 2613              		.cfi_remember_state
 2614              		.cfi_def_cfa_offset 12
 2615              		@ sp needed
 2616 0034 30BD     		pop	{r4, r5, pc}
 2617              	.L313:
 2618              		.cfi_restore_state
 2619              	.LVL234:
 2620              	.LBB270:
 2621              	.LBB271:
 2622              		.loc 1 39 0
ARM GAS  C:\Users\mathi\AppData\Local\Temp\ccpytdP1.s 			page 47


 2623 0036 0221     		movs	r1, #2
 2624 0038 0120     		movs	r0, #1
 2625 003a FFF7FEFF 		bl	set_led
 2626              	.LVL235:
 2627 003e 2378     		ldrb	r3, [r4]	@ zero_extendqisi2
 2628              	.LBE271:
 2629              	.LBE270:
 2630              		.loc 1 312 0
 2631 0040 022B     		cmp	r3, #2
 2632 0042 EFD9     		bls	.L321
 2633              	.LVL236:
 2634              	.L318:
 2635              		.loc 1 315 0
 2636 0044 0023     		movs	r3, #0
 2637 0046 EFE7     		b	.L309
 2638              	.L312:
 2639              	.LVL237:
 2640              	.LBB272:
 2641              	.LBB273:
 2642              		.loc 1 33 0
 2643 0048 0021     		movs	r1, #0
 2644 004a 0846     		mov	r0, r1
 2645 004c 0A22     		movs	r2, #10
 2646 004e FFF7FEFF 		bl	toggle_rgb_led
 2647              	.LVL238:
 2648              	.LBE273:
 2649              	.LBE272:
 2650              	.LBB274:
 2651              	.LBB275:
 2652              		.loc 1 43 0
 2653 0052 0A22     		movs	r2, #10
 2654 0054 0021     		movs	r1, #0
 2655 0056 0120     		movs	r0, #1
 2656 0058 FFF7FEFF 		bl	toggle_rgb_led
 2657              	.LVL239:
 2658 005c 2378     		ldrb	r3, [r4]	@ zero_extendqisi2
 2659 005e DFE7     		b	.L315
 2660              	.LVL240:
 2661              	.L310:
 2662              	.LBE275:
 2663              	.LBE274:
 2664              	.LBB276:
 2665              	.LBB277:
 2666              		.loc 1 29 0
 2667 0060 0221     		movs	r1, #2
 2668 0062 0020     		movs	r0, #0
 2669 0064 FFF7FEFF 		bl	set_led
 2670              	.LVL241:
 2671              	.LBE277:
 2672              	.LBE276:
 2673              	.LBB278:
 2674              	.LBB279:
 2675              		.loc 1 49 0
 2676 0068 0221     		movs	r1, #2
 2677 006a 0846     		mov	r0, r1
 2678 006c FFF7FEFF 		bl	set_led
 2679              	.LVL242:
ARM GAS  C:\Users\mathi\AppData\Local\Temp\ccpytdP1.s 			page 48


 2680 0070 2378     		ldrb	r3, [r4]	@ zero_extendqisi2
 2681 0072 D5E7     		b	.L315
 2682              	.LVL243:
 2683              	.L320:
 2684              	.LBE279:
 2685              	.LBE278:
 2686              		.loc 1 316 0
 2687 0074 FFF7FEFF 		bl	__stack_chk_fail
 2688              	.LVL244:
 2689              	.L323:
 2690              		.align	2
 2691              	.L322:
 2692 0078 00000000 		.word	.LANCHOR4
 2693 007c 00000000 		.word	__stack_chk_guard
 2694              		.cfi_endproc
 2695              	.LFE275:
 2696              		.size	right_led, .-right_led
 2697              		.section	.text.left_led,"ax",%progbits
 2698              		.align	1
 2699              		.p2align 4,,15
 2700              		.global	left_led
 2701              		.syntax unified
 2702              		.thumb
 2703              		.thumb_func
 2704              		.fpu fpv4-sp-d16
 2705              		.type	left_led, %function
 2706              	left_led:
 2707              	.LFB276:
 2708              		.loc 1 320 0
 2709              		.cfi_startproc
 2710              		@ args = 0, pretend = 0, frame = 8
 2711              		@ frame_needed = 0, uses_anonymous_args = 0
 2712 0000 30B5     		push	{r4, r5, lr}
 2713              		.cfi_def_cfa_offset 12
 2714              		.cfi_offset 4, -12
 2715              		.cfi_offset 5, -8
 2716              		.cfi_offset 14, -4
 2717              		.loc 1 322 0
 2718 0002 1D4C     		ldr	r4, .L338
 2719              		.loc 1 320 0
 2720 0004 1D4D     		ldr	r5, .L338+4
 2721              		.loc 1 322 0
 2722 0006 2378     		ldrb	r3, [r4]	@ zero_extendqisi2
 2723              		.loc 1 320 0
 2724 0008 2A68     		ldr	r2, [r5]
 2725 000a 83B0     		sub	sp, sp, #12
 2726              		.cfi_def_cfa_offset 24
 2727              		.loc 1 320 0
 2728 000c 0192     		str	r2, [sp, #4]
 2729              		.loc 1 322 0
 2730 000e 032B     		cmp	r3, #3
 2731 0010 18D8     		bhi	.L334
 2732 0012 DFE803F0 		tbb	[pc, r3]
 2733              	.L327:
 2734 0016 25       		.byte	(.L326-.L327)/2
 2735 0017 19       		.byte	(.L328-.L327)/2
 2736 0018 10       		.byte	(.L329-.L327)/2
ARM GAS  C:\Users\mathi\AppData\Local\Temp\ccpytdP1.s 			page 49


 2737 0019 02       		.byte	(.L330-.L327)/2
 2738              		.p2align 1
 2739              	.L330:
 2740              	.LBB318:
 2741              	.LBB319:
 2742              		.loc 1 83 0
 2743 001a FFF7FEFF 		bl	clear_leds
 2744              	.LVL245:
 2745 001e 2378     		ldrb	r3, [r4]	@ zero_extendqisi2
 2746              	.L331:
 2747              	.LBE319:
 2748              	.LBE318:
 2749              		.loc 1 329 0
 2750 0020 022B     		cmp	r3, #2
 2751 0022 0FD8     		bhi	.L334
 2752              	.L337:
 2753              		.loc 1 330 0
 2754 0024 0133     		adds	r3, r3, #1
 2755 0026 DBB2     		uxtb	r3, r3
 2756              	.L325:
 2757              		.loc 1 333 0
 2758 0028 0199     		ldr	r1, [sp, #4]
 2759 002a 2A68     		ldr	r2, [r5]
 2760 002c 2370     		strb	r3, [r4]
 2761 002e 9142     		cmp	r1, r2
 2762 0030 20D1     		bne	.L336
 2763 0032 03B0     		add	sp, sp, #12
 2764              		.cfi_remember_state
 2765              		.cfi_def_cfa_offset 12
 2766              		@ sp needed
 2767 0034 30BD     		pop	{r4, r5, pc}
 2768              	.L329:
 2769              		.cfi_restore_state
 2770              	.LVL246:
 2771              	.LBB320:
 2772              	.LBB321:
 2773              		.loc 1 59 0
 2774 0036 0221     		movs	r1, #2
 2775 0038 0320     		movs	r0, #3
 2776 003a FFF7FEFF 		bl	set_led
 2777              	.LVL247:
 2778 003e 2378     		ldrb	r3, [r4]	@ zero_extendqisi2
 2779              	.LBE321:
 2780              	.LBE320:
 2781              		.loc 1 329 0
 2782 0040 022B     		cmp	r3, #2
 2783 0042 EFD9     		bls	.L337
 2784              	.LVL248:
 2785              	.L334:
 2786              		.loc 1 332 0
 2787 0044 0023     		movs	r3, #0
 2788 0046 EFE7     		b	.L325
 2789              	.L328:
 2790              	.LVL249:
 2791              	.LBB322:
 2792              	.LBB323:
 2793              		.loc 1 63 0
ARM GAS  C:\Users\mathi\AppData\Local\Temp\ccpytdP1.s 			page 50


 2794 0048 0A22     		movs	r2, #10
 2795 004a 0021     		movs	r1, #0
 2796 004c 0320     		movs	r0, #3
 2797 004e FFF7FEFF 		bl	toggle_rgb_led
 2798              	.LVL250:
 2799              	.LBE323:
 2800              	.LBE322:
 2801              	.LBB324:
 2802              	.LBB325:
 2803              		.loc 1 53 0
 2804 0052 0A22     		movs	r2, #10
 2805 0054 0021     		movs	r1, #0
 2806 0056 0220     		movs	r0, #2
 2807 0058 FFF7FEFF 		bl	toggle_rgb_led
 2808              	.LVL251:
 2809 005c 2378     		ldrb	r3, [r4]	@ zero_extendqisi2
 2810 005e DFE7     		b	.L331
 2811              	.LVL252:
 2812              	.L326:
 2813              	.LBE325:
 2814              	.LBE324:
 2815              	.LBB326:
 2816              	.LBB327:
 2817              		.loc 1 29 0
 2818 0060 0221     		movs	r1, #2
 2819 0062 0020     		movs	r0, #0
 2820 0064 FFF7FEFF 		bl	set_led
 2821              	.LVL253:
 2822              	.LBE327:
 2823              	.LBE326:
 2824              	.LBB328:
 2825              	.LBB329:
 2826              		.loc 1 49 0
 2827 0068 0221     		movs	r1, #2
 2828 006a 0846     		mov	r0, r1
 2829 006c FFF7FEFF 		bl	set_led
 2830              	.LVL254:
 2831 0070 2378     		ldrb	r3, [r4]	@ zero_extendqisi2
 2832 0072 D5E7     		b	.L331
 2833              	.LVL255:
 2834              	.L336:
 2835              	.LBE329:
 2836              	.LBE328:
 2837              		.loc 1 333 0
 2838 0074 FFF7FEFF 		bl	__stack_chk_fail
 2839              	.LVL256:
 2840              	.L339:
 2841              		.align	2
 2842              	.L338:
 2843 0078 00000000 		.word	.LANCHOR5
 2844 007c 00000000 		.word	__stack_chk_guard
 2845              		.cfi_endproc
 2846              	.LFE276:
 2847              		.size	left_led, .-left_led
 2848              		.section	.bss.no_led.10000,"aw",%nobits
 2849              		.set	.LANCHOR2,. + 0
 2850              		.type	no_led.10000, %object
ARM GAS  C:\Users\mathi\AppData\Local\Temp\ccpytdP1.s 			page 51


 2851              		.size	no_led.10000, 1
 2852              	no_led.10000:
 2853 0000 00       		.space	1
 2854              		.section	.bss.no_led.10005,"aw",%nobits
 2855              		.set	.LANCHOR4,. + 0
 2856              		.type	no_led.10005, %object
 2857              		.size	no_led.10005, 1
 2858              	no_led.10005:
 2859 0000 00       		.space	1
 2860              		.section	.bss.no_led.10014,"aw",%nobits
 2861              		.set	.LANCHOR5,. + 0
 2862              		.type	no_led.10014, %object
 2863              		.size	no_led.10014, 1
 2864              	no_led.10014:
 2865 0000 00       		.space	1
 2866              		.section	.bss.no_led.9986,"aw",%nobits
 2867              		.set	.LANCHOR0,. + 0
 2868              		.type	no_led.9986, %object
 2869              		.size	no_led.9986, 1
 2870              	no_led.9986:
 2871 0000 00       		.space	1
 2872              		.section	.bss.no_led.9990,"aw",%nobits
 2873              		.set	.LANCHOR1,. + 0
 2874              		.type	no_led.9990, %object
 2875              		.size	no_led.9990, 1
 2876              	no_led.9990:
 2877 0000 00       		.space	1
 2878              		.section	.data.right.10001,"aw",%progbits
 2879              		.set	.LANCHOR3,. + 0
 2880              		.type	right.10001, %object
 2881              		.size	right.10001, 1
 2882              	right.10001:
 2883 0000 01       		.byte	1
 2884              		.text
 2885              	.Letext0:
 2886              		.file 2 "c:\\eclipse_e-puck2\\tools\\gcc-arm-none-eabi-7-2017-q4-major-win32\\lib\\gcc\\arm-none-e
 2887              		.file 3 "c:\\eclipse_e-puck2\\tools\\gcc-arm-none-eabi-7-2017-q4-major-win32\\arm-none-eabi\\inclu
 2888              		.file 4 "c:\\eclipse_e-puck2\\tools\\gcc-arm-none-eabi-7-2017-q4-major-win32\\arm-none-eabi\\inclu
 2889              		.file 5 "../../lib/e-puck2_main-processor/ChibiOS//os/rt/ports/ARMCMx/compilers/GCC/chtypes.h"
 2890              		.file 6 "../../lib/e-puck2_main-processor/ChibiOS//os/rt/include/chsystypes.h"
 2891              		.file 7 "../../lib/e-puck2_main-processor/ChibiOS//os/rt/include/chschd.h"
 2892              		.file 8 "../../lib/e-puck2_main-processor/ChibiOS//os/ext/CMSIS/include/core_cm4.h"
 2893              		.file 9 "../../lib/e-puck2_main-processor/ChibiOS//os/ext/CMSIS/ST/system_stm32f4xx.h"
 2894              		.file 10 "../../lib/e-puck2_main-processor/ChibiOS//os/ext/CMSIS/ST/stm32f407xx.h"
 2895              		.file 11 "../../lib/e-puck2_main-processor/ChibiOS//os/rt/ports/ARMCMx/chcore.h"
 2896              		.file 12 "../../lib/e-puck2_main-processor/ChibiOS//os/rt/ports/ARMCMx/chcore_v7m.h"
 2897              		.file 13 "../../lib/e-puck2_main-processor/ChibiOS//os/rt/include/chdebug.h"
 2898              		.file 14 "../../lib/e-puck2_main-processor/ChibiOS//os/rt/include/chtm.h"
 2899              		.file 15 "../../lib/e-puck2_main-processor/ChibiOS//os/rt/include/chstats.h"
 2900              		.file 16 "../../lib/e-puck2_main-processor/ChibiOS//os/rt/include/chsem.h"
 2901              		.file 17 "../../lib/e-puck2_main-processor/ChibiOS//os/rt/include/chmtx.h"
 2902              		.file 18 "../../lib/e-puck2_main-processor/ChibiOS//os/rt/include/chregistry.h"
 2903              		.file 19 "../../lib/e-puck2_main-processor/ChibiOS//os/rt/include/chevents.h"
 2904              		.file 20 "../../lib/e-puck2_main-processor/ChibiOS//os/rt/include/chqueues.h"
 2905              		.file 21 "../../lib/e-puck2_main-processor/ChibiOS//os/hal/ports/STM32/STM32F4xx/stm32_dma.h"
 2906              		.file 22 "../../lib/e-puck2_main-processor/ChibiOS//os/hal/include/hal_ioblock.h"
 2907              		.file 23 "../../lib/e-puck2_main-processor/ChibiOS//os/hal/ports/STM32/LLD/GPIOv2/pal_lld.h"
ARM GAS  C:\Users\mathi\AppData\Local\Temp\ccpytdP1.s 			page 52


 2908              		.file 24 "../../lib/e-puck2_main-processor/ChibiOS//os/hal/include/adc.h"
 2909              		.file 25 "../../lib/e-puck2_main-processor/ChibiOS//os/hal/ports/STM32/STM32F4xx/adc_lld.h"
 2910              		.file 26 "../../lib/e-puck2_main-processor/ChibiOS//os/hal/include/can.h"
 2911              		.file 27 "../../lib/e-puck2_main-processor/ChibiOS//os/hal/ports/STM32/LLD/can_lld.h"
 2912              		.file 28 "../../lib/e-puck2_main-processor/ChibiOS//os/hal/include/dac.h"
 2913              		.file 29 "../../lib/e-puck2_main-processor/ChibiOS//os/hal/ports/STM32/LLD/DACv1/dac_lld.h"
 2914              		.file 30 "../../lib/e-puck2_main-processor/ChibiOS//os/hal/include/ext.h"
 2915              		.file 31 "../../lib/e-puck2_main-processor/ChibiOS//os/hal/ports/STM32/LLD/ext_lld.h"
 2916              		.file 32 "../../lib/e-puck2_main-processor/ChibiOS//os/hal/include/gpt.h"
 2917              		.file 33 "../../lib/e-puck2_main-processor/ChibiOS//os/hal/ports/STM32/LLD/TIMv1/gpt_lld.h"
 2918              		.file 34 "../../lib/e-puck2_main-processor/ChibiOS//os/hal/ports/STM32/LLD/TIMv1/stm32_tim.h"
 2919              		.file 35 "../../lib/e-puck2_main-processor/ChibiOS//os/hal/include/i2c.h"
 2920              		.file 36 "../../lib/e-puck2_main-processor/ChibiOS//os/hal/ports/STM32/LLD/I2Cv1/i2c_lld.h"
 2921              		.file 37 "../../lib/e-puck2_main-processor/ChibiOS//os/hal/include/i2s.h"
 2922              		.file 38 "../../lib/e-puck2_main-processor/ChibiOS//os/hal/ports/STM32/LLD/SPIv1/i2s_lld.h"
 2923              		.file 39 "../../lib/e-puck2_main-processor/ChibiOS//os/hal/include/pwm.h"
 2924              		.file 40 "../../lib/e-puck2_main-processor/ChibiOS//os/hal/ports/STM32/LLD/TIMv1/pwm_lld.h"
 2925              		.file 41 "../../lib/e-puck2_main-processor/ChibiOS//os/hal/include/serial.h"
 2926              		.file 42 "../../lib/e-puck2_main-processor/ChibiOS//os/hal/ports/STM32/LLD/USARTv1/serial_lld.h"
 2927              		.file 43 "../../lib/e-puck2_main-processor/ChibiOS//os/hal/include/sdc.h"
 2928              		.file 44 "../../lib/e-puck2_main-processor/ChibiOS//os/hal/ports/STM32/LLD/sdc_lld.h"
 2929              		.file 45 "../../lib/e-puck2_main-processor/ChibiOS//os/hal/include/spi.h"
 2930              		.file 46 "../../lib/e-puck2_main-processor/ChibiOS//os/hal/ports/STM32/LLD/SPIv1/spi_lld.h"
 2931              		.file 47 "../../lib/e-puck2_main-processor/ChibiOS//os/hal/include/usb.h"
 2932              		.file 48 "../../lib/e-puck2_main-processor/ChibiOS//os/hal/ports/STM32/LLD/OTGv1/usb_lld.h"
 2933              		.file 49 "../../lib/e-puck2_main-processor/ChibiOS//os/hal/ports/STM32/LLD/OTGv1/stm32_otg.h"
 2934              		.file 50 "../../lib/e-puck2_main-processor/src/epuck1x/../leds.h"