ARM GAS  C:\Users\mathi\AppData\Local\Temp\cce8qjZj.s 			page 1


   1              		.cpu cortex-m4
   2              		.eabi_attribute 27, 1
   3              		.eabi_attribute 28, 1
   4              		.eabi_attribute 20, 1
   5              		.eabi_attribute 21, 1
   6              		.eabi_attribute 23, 3
   7              		.eabi_attribute 24, 1
   8              		.eabi_attribute 25, 1
   9              		.eabi_attribute 26, 1
  10              		.eabi_attribute 30, 2
  11              		.eabi_attribute 34, 1
  12              		.eabi_attribute 18, 4
  13              		.file	"fatfs_diskio.c"
  14              		.text
  15              	.Ltext0:
  16              		.cfi_sections	.debug_frame
  17              		.section	.text.disk_initialize,"ax",%progbits
  18              		.align	1
  19              		.p2align 4,,15
  20              		.global	disk_initialize
  21              		.syntax unified
  22              		.thumb
  23              		.thumb_func
  24              		.fpu fpv4-sp-d16
  25              		.type	disk_initialize, %function
  26              	disk_initialize:
  27              	.LFB256:
  28              		.file 1 "../../lib/e-puck2_main-processor/ChibiOS//os/various/fatfs_bindings/fatfs_diskio.c"
  29              		.loc 1 42 0
  30              		.cfi_startproc
  31              		@ args = 0, pretend = 0, frame = 8
  32              		@ frame_needed = 0, uses_anonymous_args = 0
  33              	.LVL0:
  34 0000 30B5     		push	{r4, r5, lr}
  35              		.cfi_def_cfa_offset 12
  36              		.cfi_offset 4, -12
  37              		.cfi_offset 5, -8
  38              		.cfi_offset 14, -4
  39 0002 0D4D     		ldr	r5, .L13
  40 0004 83B0     		sub	sp, sp, #12
  41              		.cfi_def_cfa_offset 24
  42              		.loc 1 42 0
  43 0006 2B68     		ldr	r3, [r5]
  44 0008 0193     		str	r3, [sp, #4]
  45              		.loc 1 45 0
  46 000a 80B9     		cbnz	r0, .L9
  47              	.LVL1:
  48              		.loc 1 59 0
  49 000c 0B48     		ldr	r0, .L13+4
  50              	.LVL2:
  51 000e 0479     		ldrb	r4, [r0, #4]	@ zero_extendqisi2
  52              		.loc 1 57 0
  53 0010 053C     		subs	r4, r4, #5
  54 0012 18BF     		it	ne
  55 0014 0124     		movne	r4, #1
  56              	.LVL3:
  57              		.loc 1 61 0
ARM GAS  C:\Users\mathi\AppData\Local\Temp\cce8qjZj.s 			page 2


  58 0016 FFF7FEFF 		bl	sdc_lld_is_write_protected
  59              	.LVL4:
  60 001a 08B1     		cbz	r0, .L2
  61              		.loc 1 62 0
  62 001c 44F00404 		orr	r4, r4, #4
  63              	.LVL5:
  64              	.L2:
  65              		.loc 1 67 0
  66 0020 019A     		ldr	r2, [sp, #4]
  67 0022 2B68     		ldr	r3, [r5]
  68 0024 9A42     		cmp	r2, r3
  69 0026 2046     		mov	r0, r4
  70 0028 03D1     		bne	.L12
  71 002a 03B0     		add	sp, sp, #12
  72              		.cfi_remember_state
  73              		.cfi_def_cfa_offset 12
  74              		@ sp needed
  75 002c 30BD     		pop	{r4, r5, pc}
  76              	.LVL6:
  77              	.L9:
  78              		.cfi_restore_state
  79              		.loc 1 66 0
  80 002e 0124     		movs	r4, #1
  81 0030 F6E7     		b	.L2
  82              	.LVL7:
  83              	.L12:
  84              		.loc 1 67 0
  85 0032 FFF7FEFF 		bl	__stack_chk_fail
  86              	.LVL8:
  87              	.L14:
  88 0036 00BF     		.align	2
  89              	.L13:
  90 0038 00000000 		.word	__stack_chk_guard
  91 003c 00000000 		.word	SDCD1
  92              		.cfi_endproc
  93              	.LFE256:
  94              		.size	disk_initialize, .-disk_initialize
  95              		.section	.text.disk_status,"ax",%progbits
  96              		.align	1
  97              		.p2align 4,,15
  98              		.global	disk_status
  99              		.syntax unified
 100              		.thumb
 101              		.thumb_func
 102              		.fpu fpv4-sp-d16
 103              		.type	disk_status, %function
 104              	disk_status:
 105              	.LFB263:
 106              		.cfi_startproc
 107              		@ args = 0, pretend = 0, frame = 8
 108              		@ frame_needed = 0, uses_anonymous_args = 0
 109 0000 30B5     		push	{r4, r5, lr}
 110              		.cfi_def_cfa_offset 12
 111              		.cfi_offset 4, -12
 112              		.cfi_offset 5, -8
 113              		.cfi_offset 14, -4
 114 0002 0D4D     		ldr	r5, .L26
ARM GAS  C:\Users\mathi\AppData\Local\Temp\cce8qjZj.s 			page 3


 115 0004 83B0     		sub	sp, sp, #12
 116              		.cfi_def_cfa_offset 24
 117 0006 2B68     		ldr	r3, [r5]
 118 0008 0193     		str	r3, [sp, #4]
 119 000a 80B9     		cbnz	r0, .L23
 120 000c 0B48     		ldr	r0, .L26+4
 121 000e 0479     		ldrb	r4, [r0, #4]	@ zero_extendqisi2
 122 0010 053C     		subs	r4, r4, #5
 123 0012 18BF     		it	ne
 124 0014 0124     		movne	r4, #1
 125 0016 FFF7FEFF 		bl	sdc_lld_is_write_protected
 126 001a 08B1     		cbz	r0, .L16
 127 001c 44F00404 		orr	r4, r4, #4
 128              	.L16:
 129 0020 019A     		ldr	r2, [sp, #4]
 130 0022 2B68     		ldr	r3, [r5]
 131 0024 9A42     		cmp	r2, r3
 132 0026 2046     		mov	r0, r4
 133 0028 03D1     		bne	.L25
 134 002a 03B0     		add	sp, sp, #12
 135              		.cfi_remember_state
 136              		.cfi_def_cfa_offset 12
 137              		@ sp needed
 138 002c 30BD     		pop	{r4, r5, pc}
 139              	.L23:
 140              		.cfi_restore_state
 141 002e 0124     		movs	r4, #1
 142 0030 F6E7     		b	.L16
 143              	.L25:
 144 0032 FFF7FEFF 		bl	__stack_chk_fail
 145              	.L27:
 146 0036 00BF     		.align	2
 147              	.L26:
 148 0038 00000000 		.word	__stack_chk_guard
 149 003c 00000000 		.word	SDCD1
 150              		.cfi_endproc
 151              	.LFE263:
 152              		.size	disk_status, .-disk_status
 153              		.section	.text.disk_read,"ax",%progbits
 154              		.align	1
 155              		.p2align 4,,15
 156              		.global	disk_read
 157              		.syntax unified
 158              		.thumb
 159              		.thumb_func
 160              		.fpu fpv4-sp-d16
 161              		.type	disk_read, %function
 162              	disk_read:
 163              	.LFB258:
 164              		.loc 1 115 0
 165              		.cfi_startproc
 166              		@ args = 0, pretend = 0, frame = 8
 167              		@ frame_needed = 0, uses_anonymous_args = 0
 168              	.LVL9:
 169              		.loc 1 115 0
 170 0000 70B5     		push	{r4, r5, r6, lr}
 171              		.cfi_def_cfa_offset 16
ARM GAS  C:\Users\mathi\AppData\Local\Temp\cce8qjZj.s 			page 4


 172              		.cfi_offset 4, -16
 173              		.cfi_offset 5, -12
 174              		.cfi_offset 6, -8
 175              		.cfi_offset 14, -4
 176 0002 104C     		ldr	r4, .L39
 177 0004 82B0     		sub	sp, sp, #8
 178              		.cfi_def_cfa_offset 24
 179              		.loc 1 115 0
 180 0006 2568     		ldr	r5, [r4]
 181 0008 0195     		str	r5, [sp, #4]
 182              		.loc 1 116 0
 183 000a B0B9     		cbnz	r0, .L35
 184              		.loc 1 134 0
 185 000c 0E48     		ldr	r0, .L39+4
 186              	.LVL10:
 187 000e 1546     		mov	r5, r2
 188 0010 0279     		ldrb	r2, [r0, #4]	@ zero_extendqisi2
 189              	.LVL11:
 190 0012 052A     		cmp	r2, #5
 191 0014 06D0     		beq	.L38
 192              		.loc 1 135 0
 193 0016 0320     		movs	r0, #3
 194              	.LVL12:
 195              	.L29:
 196              		.loc 1 142 0
 197 0018 019A     		ldr	r2, [sp, #4]
 198 001a 2368     		ldr	r3, [r4]
 199              	.LVL13:
 200 001c 9A42     		cmp	r2, r3
 201 001e 0ED1     		bne	.L37
 202 0020 02B0     		add	sp, sp, #8
 203              		.cfi_remember_state
 204              		.cfi_def_cfa_offset 16
 205              		@ sp needed
 206 0022 70BD     		pop	{r4, r5, r6, pc}
 207              	.LVL14:
 208              	.L38:
 209              		.cfi_restore_state
 210              		.loc 1 136 0
 211 0024 019E     		ldr	r6, [sp, #4]
 212 0026 2268     		ldr	r2, [r4]
 213 0028 9642     		cmp	r6, r2
 214 002a 08D1     		bne	.L37
 215 002c 0A46     		mov	r2, r1
 216 002e 2946     		mov	r1, r5
 217              	.LVL15:
 218              		.loc 1 142 0
 219 0030 02B0     		add	sp, sp, #8
 220              		.cfi_remember_state
 221              		.cfi_def_cfa_offset 16
 222              		@ sp needed
 223 0032 BDE87040 		pop	{r4, r5, r6, lr}
 224              		.cfi_restore 14
 225              		.cfi_restore 6
 226              		.cfi_restore 5
 227              		.cfi_restore 4
 228              		.cfi_def_cfa_offset 0
ARM GAS  C:\Users\mathi\AppData\Local\Temp\cce8qjZj.s 			page 5


 229              	.LVL16:
 230              		.loc 1 136 0
 231 0036 FFF7FEBF 		b	sdcRead
 232              	.LVL17:
 233              	.L35:
 234              		.cfi_restore_state
 235              		.loc 1 141 0
 236 003a 0420     		movs	r0, #4
 237              	.LVL18:
 238 003c ECE7     		b	.L29
 239              	.LVL19:
 240              	.L37:
 241              		.loc 1 142 0
 242 003e FFF7FEFF 		bl	__stack_chk_fail
 243              	.LVL20:
 244              	.L40:
 245 0042 00BF     		.align	2
 246              	.L39:
 247 0044 00000000 		.word	__stack_chk_guard
 248 0048 00000000 		.word	SDCD1
 249              		.cfi_endproc
 250              	.LFE258:
 251              		.size	disk_read, .-disk_read
 252              		.section	.text.disk_write,"ax",%progbits
 253              		.align	1
 254              		.p2align 4,,15
 255              		.global	disk_write
 256              		.syntax unified
 257              		.thumb
 258              		.thumb_func
 259              		.fpu fpv4-sp-d16
 260              		.type	disk_write, %function
 261              	disk_write:
 262              	.LFB259:
 263              		.loc 1 156 0
 264              		.cfi_startproc
 265              		@ args = 0, pretend = 0, frame = 8
 266              		@ frame_needed = 0, uses_anonymous_args = 0
 267              	.LVL21:
 268 0000 70B5     		push	{r4, r5, r6, lr}
 269              		.cfi_def_cfa_offset 16
 270              		.cfi_offset 4, -16
 271              		.cfi_offset 5, -12
 272              		.cfi_offset 6, -8
 273              		.cfi_offset 14, -4
 274 0002 104C     		ldr	r4, .L52
 275 0004 82B0     		sub	sp, sp, #8
 276              		.cfi_def_cfa_offset 24
 277              		.loc 1 156 0
 278 0006 2568     		ldr	r5, [r4]
 279 0008 0195     		str	r5, [sp, #4]
 280              		.loc 1 157 0
 281 000a B0B9     		cbnz	r0, .L48
 282              		.loc 1 177 0
 283 000c 0E48     		ldr	r0, .L52+4
 284              	.LVL22:
 285 000e 1546     		mov	r5, r2
ARM GAS  C:\Users\mathi\AppData\Local\Temp\cce8qjZj.s 			page 6


 286 0010 0279     		ldrb	r2, [r0, #4]	@ zero_extendqisi2
 287              	.LVL23:
 288 0012 052A     		cmp	r2, #5
 289 0014 06D0     		beq	.L51
 290              		.loc 1 178 0
 291 0016 0320     		movs	r0, #3
 292              	.LVL24:
 293              	.L42:
 294              		.loc 1 185 0
 295 0018 019A     		ldr	r2, [sp, #4]
 296 001a 2368     		ldr	r3, [r4]
 297              	.LVL25:
 298 001c 9A42     		cmp	r2, r3
 299 001e 0ED1     		bne	.L50
 300 0020 02B0     		add	sp, sp, #8
 301              		.cfi_remember_state
 302              		.cfi_def_cfa_offset 16
 303              		@ sp needed
 304 0022 70BD     		pop	{r4, r5, r6, pc}
 305              	.LVL26:
 306              	.L51:
 307              		.cfi_restore_state
 308              		.loc 1 179 0
 309 0024 019E     		ldr	r6, [sp, #4]
 310 0026 2268     		ldr	r2, [r4]
 311 0028 9642     		cmp	r6, r2
 312 002a 08D1     		bne	.L50
 313 002c 0A46     		mov	r2, r1
 314 002e 2946     		mov	r1, r5
 315              	.LVL27:
 316              		.loc 1 185 0
 317 0030 02B0     		add	sp, sp, #8
 318              		.cfi_remember_state
 319              		.cfi_def_cfa_offset 16
 320              		@ sp needed
 321 0032 BDE87040 		pop	{r4, r5, r6, lr}
 322              		.cfi_restore 14
 323              		.cfi_restore 6
 324              		.cfi_restore 5
 325              		.cfi_restore 4
 326              		.cfi_def_cfa_offset 0
 327              	.LVL28:
 328              		.loc 1 179 0
 329 0036 FFF7FEBF 		b	sdcWrite
 330              	.LVL29:
 331              	.L48:
 332              		.cfi_restore_state
 333              		.loc 1 184 0
 334 003a 0420     		movs	r0, #4
 335              	.LVL30:
 336 003c ECE7     		b	.L42
 337              	.LVL31:
 338              	.L50:
 339              		.loc 1 185 0
 340 003e FFF7FEFF 		bl	__stack_chk_fail
 341              	.LVL32:
 342              	.L53:
ARM GAS  C:\Users\mathi\AppData\Local\Temp\cce8qjZj.s 			page 7


 343 0042 00BF     		.align	2
 344              	.L52:
 345 0044 00000000 		.word	__stack_chk_guard
 346 0048 00000000 		.word	SDCD1
 347              		.cfi_endproc
 348              	.LFE259:
 349              		.size	disk_write, .-disk_write
 350              		.section	.text.disk_ioctl,"ax",%progbits
 351              		.align	1
 352              		.p2align 4,,15
 353              		.global	disk_ioctl
 354              		.syntax unified
 355              		.thumb
 356              		.thumb_func
 357              		.fpu fpv4-sp-d16
 358              		.type	disk_ioctl, %function
 359              	disk_ioctl:
 360              	.LFB260:
 361              		.loc 1 199 0
 362              		.cfi_startproc
 363              		@ args = 0, pretend = 0, frame = 8
 364              		@ frame_needed = 0, uses_anonymous_args = 0
 365              	.LVL33:
 366 0000 10B5     		push	{r4, lr}
 367              		.cfi_def_cfa_offset 8
 368              		.cfi_offset 4, -8
 369              		.cfi_offset 14, -4
 370 0002 164C     		ldr	r4, .L70
 371 0004 82B0     		sub	sp, sp, #8
 372              		.cfi_def_cfa_offset 16
 373              		.loc 1 199 0
 374 0006 2368     		ldr	r3, [r4]
 375 0008 0193     		str	r3, [sp, #4]
 376              		.loc 1 200 0
 377 000a 98B9     		cbnz	r0, .L65
 378 000c 1346     		mov	r3, r2
 379              		.loc 1 219 0
 380 000e 0429     		cmp	r1, #4
 381 0010 10D8     		bhi	.L65
 382 0012 DFE801F0 		tbb	[pc, r1]
 383              	.LVL34:
 384              	.L58:
 385 0016 08       		.byte	(.L68-.L58)/2
 386 0017 11       		.byte	(.L59-.L58)/2
 387 0018 16       		.byte	(.L60-.L58)/2
 388 0019 1B       		.byte	(.L61-.L58)/2
 389 001a 03       		.byte	(.L62-.L58)/2
 390 001b 00       		.p2align 1
 391              	.L62:
 392              		.loc 1 233 0
 393 001c D3E90012 		ldrd	r1, r2, [r3]
 394              	.LVL35:
 395 0020 0F48     		ldr	r0, .L70+4
 396              	.LVL36:
 397 0022 FFF7FEFF 		bl	sdcErase
 398              	.LVL37:
 399              	.L68:
ARM GAS  C:\Users\mathi\AppData\Local\Temp\cce8qjZj.s 			page 8


 400              		.loc 1 234 0
 401 0026 0020     		movs	r0, #0
 402              	.L55:
 403              		.loc 1 242 0
 404 0028 019A     		ldr	r2, [sp, #4]
 405 002a 2368     		ldr	r3, [r4]
 406 002c 9A42     		cmp	r2, r3
 407 002e 12D1     		bne	.L69
 408 0030 02B0     		add	sp, sp, #8
 409              		.cfi_remember_state
 410              		.cfi_def_cfa_offset 8
 411              		@ sp needed
 412 0032 10BD     		pop	{r4, pc}
 413              	.LVL38:
 414              	.L65:
 415              		.cfi_restore_state
 416              		.loc 1 237 0
 417 0034 0420     		movs	r0, #4
 418              	.LVL39:
 419 0036 F7E7     		b	.L55
 420              	.LVL40:
 421              	.L59:
 422              		.loc 1 223 0
 423 0038 094A     		ldr	r2, .L70+4
 424 003a 926A     		ldr	r2, [r2, #40]
 425 003c 1A60     		str	r2, [r3]
 426              		.loc 1 224 0
 427 003e 0020     		movs	r0, #0
 428              	.LVL41:
 429 0040 F2E7     		b	.L55
 430              	.LVL42:
 431              	.L60:
 432              		.loc 1 226 0
 433 0042 4FF40072 		mov	r2, #512
 434 0046 1A80     		strh	r2, [r3]	@ movhi
 435              		.loc 1 227 0
 436 0048 0020     		movs	r0, #0
 437              	.LVL43:
 438 004a EDE7     		b	.L55
 439              	.LVL44:
 440              	.L61:
 441              		.loc 1 229 0
 442 004c 4FF48072 		mov	r2, #256
 443 0050 1A60     		str	r2, [r3]
 444              		.loc 1 230 0
 445 0052 0020     		movs	r0, #0
 446              	.LVL45:
 447 0054 E8E7     		b	.L55
 448              	.LVL46:
 449              	.L69:
 450              		.loc 1 242 0
 451 0056 FFF7FEFF 		bl	__stack_chk_fail
 452              	.LVL47:
 453              	.L71:
 454 005a 00BF     		.align	2
 455              	.L70:
 456 005c 00000000 		.word	__stack_chk_guard
ARM GAS  C:\Users\mathi\AppData\Local\Temp\cce8qjZj.s 			page 9


 457 0060 00000000 		.word	SDCD1
 458              		.cfi_endproc
 459              	.LFE260:
 460              		.size	disk_ioctl, .-disk_ioctl
 461              		.section	.text.get_fattime,"ax",%progbits
 462              		.align	1
 463              		.p2align 4,,15
 464              		.global	get_fattime
 465              		.syntax unified
 466              		.thumb
 467              		.thumb_func
 468              		.fpu fpv4-sp-d16
 469              		.type	get_fattime, %function
 470              	get_fattime:
 471              	.LFB261:
 472              		.loc 1 245 0
 473              		.cfi_startproc
 474              		@ args = 0, pretend = 0, frame = 8
 475              		@ frame_needed = 0, uses_anonymous_args = 0
 476 0000 00B5     		push	{lr}
 477              		.cfi_def_cfa_offset 4
 478              		.cfi_offset 14, -4
 479 0002 074B     		ldr	r3, .L76
 480 0004 83B0     		sub	sp, sp, #12
 481              		.cfi_def_cfa_offset 16
 482              		.loc 1 245 0
 483 0006 1A68     		ldr	r2, [r3]
 484 0008 0192     		str	r2, [sp, #4]
 485              		.loc 1 254 0
 486 000a 019A     		ldr	r2, [sp, #4]
 487 000c 1B68     		ldr	r3, [r3]
 488 000e 9A42     		cmp	r2, r3
 489 0010 04D1     		bne	.L75
 490 0012 4FF40410 		mov	r0, #2162688
 491 0016 03B0     		add	sp, sp, #12
 492              		.cfi_remember_state
 493              		.cfi_def_cfa_offset 4
 494              		@ sp needed
 495 0018 5DF804FB 		ldr	pc, [sp], #4
 496              	.L75:
 497              		.cfi_restore_state
 498 001c FFF7FEFF 		bl	__stack_chk_fail
 499              	.LVL48:
 500              	.L77:
 501              		.align	2
 502              	.L76:
 503 0020 00000000 		.word	__stack_chk_guard
 504              		.cfi_endproc
 505              	.LFE261:
 506              		.size	get_fattime, .-get_fattime
 507              		.text
 508              	.Letext0:
 509              		.file 2 "c:\\eclipse_e-puck2\\tools\\gcc-arm-none-eabi-7-2017-q4-major-win32\\lib\\gcc\\arm-none-e
 510              		.file 3 "c:\\eclipse_e-puck2\\tools\\gcc-arm-none-eabi-7-2017-q4-major-win32\\arm-none-eabi\\inclu
 511              		.file 4 "c:\\eclipse_e-puck2\\tools\\gcc-arm-none-eabi-7-2017-q4-major-win32\\arm-none-eabi\\inclu
 512              		.file 5 "../../lib/e-puck2_main-processor/ChibiOS//os/rt/ports/ARMCMx/compilers/GCC/chtypes.h"
 513              		.file 6 "../../lib/e-puck2_main-processor/ChibiOS//os/rt/include/chsystypes.h"
ARM GAS  C:\Users\mathi\AppData\Local\Temp\cce8qjZj.s 			page 10


 514              		.file 7 "../../lib/e-puck2_main-processor/ChibiOS//os/rt/include/chschd.h"
 515              		.file 8 "../../lib/e-puck2_main-processor/ChibiOS//os/ext/CMSIS/include/core_cm4.h"
 516              		.file 9 "../../lib/e-puck2_main-processor/ChibiOS//os/ext/CMSIS/ST/system_stm32f4xx.h"
 517              		.file 10 "../../lib/e-puck2_main-processor/ChibiOS//os/ext/CMSIS/ST/stm32f407xx.h"
 518              		.file 11 "../../lib/e-puck2_main-processor/ChibiOS//os/rt/ports/ARMCMx/chcore.h"
 519              		.file 12 "../../lib/e-puck2_main-processor/ChibiOS//os/rt/ports/ARMCMx/chcore_v7m.h"
 520              		.file 13 "../../lib/e-puck2_main-processor/ChibiOS//os/rt/include/chdebug.h"
 521              		.file 14 "../../lib/e-puck2_main-processor/ChibiOS//os/rt/include/chtm.h"
 522              		.file 15 "../../lib/e-puck2_main-processor/ChibiOS//os/rt/include/chstats.h"
 523              		.file 16 "../../lib/e-puck2_main-processor/ChibiOS//os/rt/include/chsem.h"
 524              		.file 17 "../../lib/e-puck2_main-processor/ChibiOS//os/rt/include/chmtx.h"
 525              		.file 18 "../../lib/e-puck2_main-processor/ChibiOS//os/rt/include/chregistry.h"
 526              		.file 19 "../../lib/e-puck2_main-processor/ChibiOS//os/rt/include/chevents.h"
 527              		.file 20 "../../lib/e-puck2_main-processor/ChibiOS//os/rt/include/chqueues.h"
 528              		.file 21 "../../lib/e-puck2_main-processor/ChibiOS//os/hal/ports/STM32/STM32F4xx/stm32_dma.h"
 529              		.file 22 "../../lib/e-puck2_main-processor/ChibiOS//os/hal/include/hal_ioblock.h"
 530              		.file 23 "../../lib/e-puck2_main-processor/ChibiOS//os/hal/ports/STM32/LLD/GPIOv2/pal_lld.h"
 531              		.file 24 "../../lib/e-puck2_main-processor/ChibiOS//os/hal/include/adc.h"
 532              		.file 25 "../../lib/e-puck2_main-processor/ChibiOS//os/hal/ports/STM32/STM32F4xx/adc_lld.h"
 533              		.file 26 "../../lib/e-puck2_main-processor/ChibiOS//os/hal/include/can.h"
 534              		.file 27 "../../lib/e-puck2_main-processor/ChibiOS//os/hal/ports/STM32/LLD/can_lld.h"
 535              		.file 28 "../../lib/e-puck2_main-processor/ChibiOS//os/hal/include/dac.h"
 536              		.file 29 "../../lib/e-puck2_main-processor/ChibiOS//os/hal/ports/STM32/LLD/DACv1/dac_lld.h"
 537              		.file 30 "../../lib/e-puck2_main-processor/ChibiOS//os/hal/include/ext.h"
 538              		.file 31 "../../lib/e-puck2_main-processor/ChibiOS//os/hal/ports/STM32/LLD/ext_lld.h"
 539              		.file 32 "../../lib/e-puck2_main-processor/ChibiOS//os/hal/include/gpt.h"
 540              		.file 33 "../../lib/e-puck2_main-processor/ChibiOS//os/hal/ports/STM32/LLD/TIMv1/gpt_lld.h"
 541              		.file 34 "../../lib/e-puck2_main-processor/ChibiOS//os/hal/ports/STM32/LLD/TIMv1/stm32_tim.h"
 542              		.file 35 "../../lib/e-puck2_main-processor/ChibiOS//os/hal/include/i2c.h"
 543              		.file 36 "../../lib/e-puck2_main-processor/ChibiOS//os/hal/ports/STM32/LLD/I2Cv1/i2c_lld.h"
 544              		.file 37 "../../lib/e-puck2_main-processor/ChibiOS//os/hal/include/i2s.h"
 545              		.file 38 "../../lib/e-puck2_main-processor/ChibiOS//os/hal/ports/STM32/LLD/SPIv1/i2s_lld.h"
 546              		.file 39 "../../lib/e-puck2_main-processor/ChibiOS//os/hal/include/pwm.h"
 547              		.file 40 "../../lib/e-puck2_main-processor/ChibiOS//os/hal/ports/STM32/LLD/TIMv1/pwm_lld.h"
 548              		.file 41 "../../lib/e-puck2_main-processor/ChibiOS//os/hal/include/serial.h"
 549              		.file 42 "../../lib/e-puck2_main-processor/ChibiOS//os/hal/ports/STM32/LLD/USARTv1/serial_lld.h"
 550              		.file 43 "../../lib/e-puck2_main-processor/ChibiOS//os/hal/include/sdc.h"
 551              		.file 44 "../../lib/e-puck2_main-processor/ChibiOS//os/hal/ports/STM32/LLD/sdc_lld.h"
 552              		.file 45 "../../lib/e-puck2_main-processor/ChibiOS//os/hal/include/spi.h"
 553              		.file 46 "../../lib/e-puck2_main-processor/ChibiOS//os/hal/ports/STM32/LLD/SPIv1/spi_lld.h"
 554              		.file 47 "../../lib/e-puck2_main-processor/ChibiOS//os/hal/include/usb.h"
 555              		.file 48 "../../lib/e-puck2_main-processor/ChibiOS//os/hal/ports/STM32/LLD/OTGv1/usb_lld.h"
 556              		.file 49 "../../lib/e-puck2_main-processor/ChibiOS//os/hal/ports/STM32/LLD/OTGv1/stm32_otg.h"
 557              		.file 50 "../../lib/e-puck2_main-processor/ChibiOS_ext//ext/fatfs/src/integer.h"
 558              		.file 51 "../../lib/e-puck2_main-processor/ChibiOS_ext//ext/fatfs/src/diskio.h"