ARM GAS  C:\Users\mathi\AppData\Local\Temp\ccjAIMZ3.s 			page 1


   1              		.cpu cortex-m4
   2              		.eabi_attribute 27, 1
   3              		.eabi_attribute 28, 1
   4              		.eabi_attribute 20, 1
   5              		.eabi_attribute 21, 1
   6              		.eabi_attribute 23, 3
   7              		.eabi_attribute 24, 1
   8              		.eabi_attribute 25, 1
   9              		.eabi_attribute 26, 1
  10              		.eabi_attribute 30, 2
  11              		.eabi_attribute 34, 1
  12              		.eabi_attribute 18, 4
  13              		.file	"ff.c"
  14              		.text
  15              	.Ltext0:
  16              		.cfi_sections	.debug_frame
  17              		.section	.text.get_fileinfo,"ax",%progbits
  18              		.align	1
  19              		.p2align 4,,15
  20              		.syntax unified
  21              		.thumb
  22              		.thumb_func
  23              		.fpu fpv4-sp-d16
  24              		.type	get_fileinfo, %function
  25              	get_fileinfo:
  26              	.LFB246:
  27              		.file 1 "../../lib/e-puck2_main-processor/ChibiOS_ext//ext/fatfs/src/ff.c"
  28              		.loc 1 1739 0
  29              		.cfi_startproc
  30              		@ args = 0, pretend = 0, frame = 8
  31              		@ frame_needed = 0, uses_anonymous_args = 0
  32              	.LVL0:
  33 0000 2DE9F041 		push	{r4, r5, r6, r7, r8, lr}
  34              		.cfi_def_cfa_offset 24
  35              		.cfi_offset 4, -24
  36              		.cfi_offset 5, -20
  37              		.cfi_offset 6, -16
  38              		.cfi_offset 7, -12
  39              		.cfi_offset 8, -8
  40              		.cfi_offset 14, -4
  41 0004 414F     		ldr	r7, .L52
  42              		.loc 1 1745 0
  43 0006 0369     		ldr	r3, [r0, #16]
  44              		.loc 1 1739 0
  45 0008 3A68     		ldr	r2, [r7]
  46 000a 82B0     		sub	sp, sp, #8
  47              		.cfi_def_cfa_offset 32
  48              		.loc 1 1739 0
  49 000c 0E46     		mov	r6, r1
  50 000e 0192     		str	r2, [sp, #4]
  51              		.loc 1 1744 0
  52 0010 0931     		adds	r1, r1, #9
  53              	.LVL1:
  54              		.loc 1 1745 0
  55 0012 002B     		cmp	r3, #0
  56 0014 3ED0     		beq	.L2
  57              	.LBB239:
ARM GAS  C:\Users\mathi\AppData\Local\Temp\ccjAIMZ3.s 			page 2


  58              		.loc 1 1746 0
  59 0016 4569     		ldr	r5, [r0, #20]
  60              	.LVL2:
  61              		.loc 1 1753 0
  62 0018 4FF02E08 		mov	r8, #46
  63 001c 05F10B0E 		add	lr, r5, #11
  64              		.loc 1 1746 0
  65 0020 2C46     		mov	r4, r5
  66 0022 19E0     		b	.L9
  67              	.LVL3:
  68              	.L47:
  69 0024 A4EB050C 		sub	ip, r4, r5
  70 0028 A3F14102 		sub	r2, r3, #65
  71              		.loc 1 1753 0
  72 002c BCF1090F 		cmp	ip, #9
  73 0030 D2B2     		uxtb	r2, r2
  74 0032 5FD0     		beq	.L45
  75              		.loc 1 1755 0
  76 0034 192A     		cmp	r2, #25
  77 0036 0BD8     		bhi	.L7
  78              		.loc 1 1755 0 is_stmt 0 discriminator 1
  79 0038 BCF1080F 		cmp	ip, #8
  80 003c 95F80CC0 		ldrb	ip, [r5, #12]	@ zero_extendqisi2
  81 0040 8CBF     		ite	hi
  82 0042 1022     		movhi	r2, #16
  83 0044 0822     		movls	r2, #8
  84              	.L8:
  85              		.loc 1 1755 0 discriminator 5
  86 0046 12EA0C0F 		tst	r2, ip
  87              		.loc 1 1756 0 is_stmt 1 discriminator 5
  88 004a 1CBF     		itt	ne
  89 004c 2033     		addne	r3, r3, #32
  90              	.LVL4:
  91 004e DBB2     		uxtbne	r3, r3
  92              	.LVL5:
  93              	.L7:
  94              		.loc 1 1764 0
  95 0050 0B70     		strb	r3, [r1]
  96 0052 0131     		adds	r1, r1, #1
  97              	.LVL6:
  98              	.L3:
  99              		.loc 1 1749 0
 100 0054 7445     		cmp	r4, lr
 101 0056 0FD0     		beq	.L46
 102              	.LVL7:
 103              	.L9:
 104              		.loc 1 1750 0
 105 0058 14F8013B 		ldrb	r3, [r4], #1	@ zero_extendqisi2
 106              	.LVL8:
 107              		.loc 1 1751 0
 108 005c 202B     		cmp	r3, #32
 109 005e F9D0     		beq	.L3
 110              		.loc 1 1752 0
 111 0060 052B     		cmp	r3, #5
 112 0062 DFD1     		bne	.L47
 113              	.LVL9:
 114              		.loc 1 1753 0
ARM GAS  C:\Users\mathi\AppData\Local\Temp\ccjAIMZ3.s 			page 3


 115 0064 631B     		subs	r3, r4, r5
 116 0066 092B     		cmp	r3, #9
 117              		.loc 1 1752 0
 118 0068 18BF     		it	ne
 119 006a E523     		movne	r3, #229
 120              		.loc 1 1753 0
 121 006c F0D1     		bne	.L7
 122 006e 81F80080 		strb	r8, [r1]
 123              		.loc 1 1752 0
 124 0072 E523     		movs	r3, #229
 125              		.loc 1 1753 0
 126 0074 0131     		adds	r1, r1, #1
 127              	.LVL10:
 128 0076 EBE7     		b	.L7
 129              	.LVL11:
 130              	.L46:
 131              		.loc 1 1766 0
 132 0078 EB7A     		ldrb	r3, [r5, #11]	@ zero_extendqisi2
 133              	.LVL12:
 134 007a 3372     		strb	r3, [r6, #8]
 135              		.loc 1 1767 0
 136 007c EB69     		ldr	r3, [r5, #28]	@ unaligned
 137 007e 3360     		str	r3, [r6]
 138              		.loc 1 1768 0
 139 0080 6A7E     		ldrb	r2, [r5, #25]	@ zero_extendqisi2
 140 0082 2B7E     		ldrb	r3, [r5, #24]	@ zero_extendqisi2
 141 0084 43EA0223 		orr	r3, r3, r2, lsl #8
 142 0088 B380     		strh	r3, [r6, #4]	@ movhi
 143              		.loc 1 1769 0
 144 008a EA7D     		ldrb	r2, [r5, #23]	@ zero_extendqisi2
 145 008c AB7D     		ldrb	r3, [r5, #22]	@ zero_extendqisi2
 146 008e 43EA0223 		orr	r3, r3, r2, lsl #8
 147 0092 F380     		strh	r3, [r6, #6]	@ movhi
 148              	.LVL13:
 149              	.L2:
 150              	.LBE239:
 151              		.loc 1 1771 0
 152 0094 0024     		movs	r4, #0
 153 0096 0C70     		strb	r4, [r1]
 154              		.loc 1 1774 0
 155 0098 B569     		ldr	r5, [r6, #24]
 156 009a 1DB1     		cbz	r5, .L1
 157              	.LVL14:
 158              	.LBB240:
 159              		.loc 1 1778 0
 160 009c 0369     		ldr	r3, [r0, #16]
 161 009e 43B9     		cbnz	r3, .L48
 162              	.LVL15:
 163              	.L11:
 164              		.loc 1 1791 0
 165 00a0 0023     		movs	r3, #0
 166 00a2 2B70     		strb	r3, [r5]
 167              	.L1:
 168              	.LBE240:
 169              		.loc 1 1794 0
 170 00a4 019A     		ldr	r2, [sp, #4]
 171 00a6 3B68     		ldr	r3, [r7]
ARM GAS  C:\Users\mathi\AppData\Local\Temp\ccjAIMZ3.s 			page 4


 172 00a8 9A42     		cmp	r2, r3
 173 00aa 2DD1     		bne	.L49
 174 00ac 02B0     		add	sp, sp, #8
 175              		.cfi_remember_state
 176              		.cfi_def_cfa_offset 24
 177              		@ sp needed
 178 00ae BDE8F081 		pop	{r4, r5, r6, r7, r8, pc}
 179              	.LVL16:
 180              	.L48:
 181              		.cfi_restore_state
 182              	.LBB241:
 183              		.loc 1 1778 0 discriminator 1
 184 00b2 F369     		ldr	r3, [r6, #28]
 185 00b4 002B     		cmp	r3, #0
 186 00b6 F3D0     		beq	.L11
 187              		.loc 1 1778 0 is_stmt 0 discriminator 2
 188 00b8 028C     		ldrh	r2, [r0, #32]
 189 00ba 4FF6FF73 		movw	r3, #65535
 190 00be 9A42     		cmp	r2, r3
 191 00c0 EED0     		beq	.L11
 192              		.loc 1 1779 0 is_stmt 1
 193 00c2 D0F81C80 		ldr	r8, [r0, #28]
 194              	.LVL17:
 195              		.loc 1 1780 0
 196 00c6 B8F80000 		ldrh	r0, [r8]
 197              	.LVL18:
 198 00ca 58B9     		cbnz	r0, .L12
 199 00cc E8E7     		b	.L11
 200              	.LVL19:
 201              	.L51:
 202              		.loc 1 1787 0
 203 00ce F369     		ldr	r3, [r6, #28]
 204 00d0 013B     		subs	r3, r3, #1
 205 00d2 A342     		cmp	r3, r4
 206 00d4 E4D9     		bls	.L11
 207              		.loc 1 1788 0
 208 00d6 0134     		adds	r4, r4, #1
 209              	.LVL20:
 210 00d8 2B19     		adds	r3, r5, r4
 211 00da 03F8010C 		strb	r0, [r3, #-1]
 212              	.LVL21:
 213              		.loc 1 1780 0
 214 00de 38F81400 		ldrh	r0, [r8, r4, lsl #1]
 215              	.LVL22:
 216 00e2 28B1     		cbz	r0, .L50
 217              	.LVL23:
 218              	.L12:
 219              		.loc 1 1782 0
 220 00e4 0021     		movs	r1, #0
 221 00e6 FFF7FEFF 		bl	ff_convert
 222              	.LVL24:
 223              		.loc 1 1783 0
 224 00ea 0028     		cmp	r0, #0
 225 00ec EFD1     		bne	.L51
 226 00ee D7E7     		b	.L11
 227              	.LVL25:
 228              	.L50:
ARM GAS  C:\Users\mathi\AppData\Local\Temp\ccjAIMZ3.s 			page 5


 229 00f0 1D46     		mov	r5, r3
 230              	.LVL26:
 231 00f2 D5E7     		b	.L11
 232              	.LVL27:
 233              	.L45:
 234              	.LBE241:
 235              	.LBB242:
 236              		.loc 1 1755 0 discriminator 1
 237 00f4 192A     		cmp	r2, #25
 238              		.loc 1 1753 0 discriminator 1
 239 00f6 81F80080 		strb	r8, [r1]
 240 00fa 01F10101 		add	r1, r1, #1
 241              	.LVL28:
 242              		.loc 1 1755 0 discriminator 1
 243 00fe A7D8     		bhi	.L7
 244              		.loc 1 1755 0 is_stmt 0
 245 0100 95F80CC0 		ldrb	ip, [r5, #12]	@ zero_extendqisi2
 246 0104 1022     		movs	r2, #16
 247 0106 9EE7     		b	.L8
 248              	.LVL29:
 249              	.L49:
 250              	.LBE242:
 251              		.loc 1 1794 0 is_stmt 1
 252 0108 FFF7FEFF 		bl	__stack_chk_fail
 253              	.LVL30:
 254              	.L53:
 255              		.align	2
 256              	.L52:
 257 010c 00000000 		.word	__stack_chk_guard
 258              		.cfi_endproc
 259              	.LFE246:
 260              		.size	get_fileinfo, .-get_fileinfo
 261              		.section	.text.move_window,"ax",%progbits
 262              		.align	1
 263              		.p2align 4,,15
 264              		.syntax unified
 265              		.thumb
 266              		.thumb_func
 267              		.fpu fpv4-sp-d16
 268              		.type	move_window, %function
 269              	move_window:
 270              	.LFB224:
 271              		.loc 1 785 0
 272              		.cfi_startproc
 273              		@ args = 0, pretend = 0, frame = 8
 274              		@ frame_needed = 0, uses_anonymous_args = 0
 275              	.LVL31:
 276 0000 2DE9F043 		push	{r4, r5, r6, r7, r8, r9, lr}
 277              		.cfi_def_cfa_offset 28
 278              		.cfi_offset 4, -28
 279              		.cfi_offset 5, -24
 280              		.cfi_offset 6, -20
 281              		.cfi_offset 7, -16
 282              		.cfi_offset 8, -12
 283              		.cfi_offset 9, -8
 284              		.cfi_offset 14, -4
 285 0004 214E     		ldr	r6, .L68
ARM GAS  C:\Users\mathi\AppData\Local\Temp\ccjAIMZ3.s 			page 6


 286              		.loc 1 786 0
 287 0006 C56A     		ldr	r5, [r0, #44]
 288              		.loc 1 785 0
 289 0008 3368     		ldr	r3, [r6]
 290 000a 83B0     		sub	sp, sp, #12
 291              		.cfi_def_cfa_offset 40
 292              		.loc 1 786 0
 293 000c 8D42     		cmp	r5, r1
 294              		.loc 1 785 0
 295 000e 0193     		str	r3, [sp, #4]
 296              		.loc 1 786 0
 297 0010 37D0     		beq	.L62
 298              	.LVL32:
 299              	.LBB253:
 300              	.LBB254:
 301              		.loc 1 763 0
 302 0012 0379     		ldrb	r3, [r0, #4]	@ zero_extendqisi2
 303 0014 0446     		mov	r4, r0
 304 0016 0F46     		mov	r7, r1
 305 0018 4078     		ldrb	r0, [r0, #1]	@ zero_extendqisi2
 306              	.LVL33:
 307 001a 04F13008 		add	r8, r4, #48
 308 001e 03B3     		cbz	r3, .L56
 309              	.LVL34:
 310              	.LBB255:
 311              	.LBB256:
 312              		.loc 1 765 0
 313 0020 0123     		movs	r3, #1
 314 0022 2A46     		mov	r2, r5
 315 0024 4146     		mov	r1, r8
 316              	.LVL35:
 317 0026 FFF7FEFF 		bl	disk_write
 318              	.LVL36:
 319 002a 40BB     		cbnz	r0, .L60
 320              		.loc 1 768 0
 321 002c 226A     		ldr	r2, [r4, #32]
 322 002e A369     		ldr	r3, [r4, #24]
 323              		.loc 1 767 0
 324 0030 2071     		strb	r0, [r4, #4]
 325              		.loc 1 768 0
 326 0032 AA1A     		subs	r2, r5, r2
 327 0034 9A42     		cmp	r2, r3
 328 0036 6078     		ldrb	r0, [r4, #1]	@ zero_extendqisi2
 329 0038 13D2     		bcs	.L56
 330              		.loc 1 769 0
 331 003a 94F80390 		ldrb	r9, [r4, #3]	@ zero_extendqisi2
 332              	.LVL37:
 333 003e B9F1010F 		cmp	r9, #1
 334 0042 02D8     		bhi	.L59
 335 0044 0DE0     		b	.L56
 336              	.L58:
 337 0046 A369     		ldr	r3, [r4, #24]
 338 0048 6078     		ldrb	r0, [r4, #1]	@ zero_extendqisi2
 339              	.L59:
 340              		.loc 1 770 0
 341 004a 1D44     		add	r5, r5, r3
 342              	.LVL38:
ARM GAS  C:\Users\mathi\AppData\Local\Temp\ccjAIMZ3.s 			page 7


 343              		.loc 1 769 0
 344 004c 09F1FF39 		add	r9, r9, #-1
 345              	.LVL39:
 346              		.loc 1 771 0
 347 0050 2A46     		mov	r2, r5
 348 0052 0123     		movs	r3, #1
 349 0054 4146     		mov	r1, r8
 350 0056 FFF7FEFF 		bl	disk_write
 351              	.LVL40:
 352              		.loc 1 769 0
 353 005a B9F1010F 		cmp	r9, #1
 354 005e F2D1     		bne	.L58
 355 0060 6078     		ldrb	r0, [r4, #1]	@ zero_extendqisi2
 356              	.LVL41:
 357              	.L56:
 358              	.LBE256:
 359              	.LBE255:
 360              	.LBE254:
 361              	.LBE253:
 362              	.LBB257:
 363              	.LBB258:
 364              		.loc 1 791 0
 365 0062 4146     		mov	r1, r8
 366 0064 0123     		movs	r3, #1
 367 0066 3A46     		mov	r2, r7
 368 0068 FFF7FEFF 		bl	disk_read
 369              	.LVL42:
 370 006c 38B9     		cbnz	r0, .L60
 371              		.loc 1 793 0
 372 006e E762     		str	r7, [r4, #44]
 373              	.LVL43:
 374              	.L55:
 375              	.LBE258:
 376              	.LBE257:
 377              		.loc 1 797 0
 378 0070 019A     		ldr	r2, [sp, #4]
 379 0072 3368     		ldr	r3, [r6]
 380 0074 9A42     		cmp	r2, r3
 381 0076 06D1     		bne	.L67
 382 0078 03B0     		add	sp, sp, #12
 383              		.cfi_remember_state
 384              		.cfi_def_cfa_offset 28
 385              		@ sp needed
 386 007a BDE8F083 		pop	{r4, r5, r6, r7, r8, r9, pc}
 387              	.LVL44:
 388              	.L60:
 389              		.cfi_restore_state
 390              		.loc 1 789 0
 391 007e 0120     		movs	r0, #1
 392 0080 F6E7     		b	.L55
 393              	.LVL45:
 394              	.L62:
 395              		.loc 1 796 0
 396 0082 0020     		movs	r0, #0
 397              	.LVL46:
 398 0084 F4E7     		b	.L55
 399              	.LVL47:
ARM GAS  C:\Users\mathi\AppData\Local\Temp\ccjAIMZ3.s 			page 8


 400              	.L67:
 401              		.loc 1 797 0
 402 0086 FFF7FEFF 		bl	__stack_chk_fail
 403              	.LVL48:
 404              	.L69:
 405 008a 00BF     		.align	2
 406              	.L68:
 407 008c 00000000 		.word	__stack_chk_guard
 408              		.cfi_endproc
 409              	.LFE224:
 410              		.size	move_window, .-move_window
 411              		.section	.text.find_volume,"ax",%progbits
 412              		.align	1
 413              		.p2align 4,,15
 414              		.syntax unified
 415              		.thumb
 416              		.thumb_func
 417              		.fpu fpv4-sp-d16
 418              		.type	find_volume, %function
 419              	find_volume:
 420              	.LFB251:
 421              		.loc 1 2169 0
 422              		.cfi_startproc
 423              		@ args = 0, pretend = 0, frame = 24
 424              		@ frame_needed = 0, uses_anonymous_args = 0
 425              	.LVL49:
 426 0000 2DE9F047 		push	{r4, r5, r6, r7, r8, r9, r10, lr}
 427              		.cfi_def_cfa_offset 32
 428              		.cfi_offset 4, -32
 429              		.cfi_offset 5, -28
 430              		.cfi_offset 6, -24
 431              		.cfi_offset 7, -20
 432              		.cfi_offset 8, -16
 433              		.cfi_offset 9, -12
 434              		.cfi_offset 10, -8
 435              		.cfi_offset 14, -4
 436 0004 DFF83083 		ldr	r8, .L189+12
 437              		.loc 1 2179 0
 438 0008 0026     		movs	r6, #0
 439              		.loc 1 2169 0
 440 000a D8F80030 		ldr	r3, [r8]
 441              		.loc 1 2179 0
 442 000e 0660     		str	r6, [r0]
 443              	.LVL50:
 444              		.loc 1 2169 0
 445 0010 86B0     		sub	sp, sp, #24
 446              		.cfi_def_cfa_offset 56
 447              	.LBB289:
 448              	.LBB290:
 449              		.loc 1 2086 0
 450 0012 0F68     		ldr	r7, [r1]
 451              	.LBE290:
 452              	.LBE289:
 453              		.loc 1 2169 0
 454 0014 0593     		str	r3, [sp, #20]
 455              	.LBB293:
 456              	.LBB291:
ARM GAS  C:\Users\mathi\AppData\Local\Temp\ccjAIMZ3.s 			page 9


 457              		.loc 1 2086 0
 458 0016 002F     		cmp	r7, #0
 459 0018 00F05881 		beq	.L178
 460 001c 9146     		mov	r9, r2
 461              	.LVL51:
 462              		.loc 1 2087 0
 463 001e 3A78     		ldrb	r2, [r7]	@ zero_extendqisi2
 464              	.LVL52:
 465 0020 1F2A     		cmp	r2, #31
 466 0022 0ED9     		bls	.L72
 467 0024 3A2A     		cmp	r2, #58
 468 0026 00F05181 		beq	.L178
 469 002a 3B46     		mov	r3, r7
 470 002c 03E0     		b	.L73
 471              	.LVL53:
 472              	.L181:
 473 002e 3A2C     		cmp	r4, #58
 474 0030 00F03381 		beq	.L180
 475 0034 2B46     		mov	r3, r5
 476              	.LVL54:
 477              	.L73:
 478 0036 5C78     		ldrb	r4, [r3, #1]	@ zero_extendqisi2
 479 0038 1F2C     		cmp	r4, #31
 480 003a 03F10105 		add	r5, r3, #1
 481              	.LVL55:
 482 003e F6D8     		bhi	.L181
 483              		.loc 1 2122 0
 484 0040 0026     		movs	r6, #0
 485              	.LVL56:
 486              	.L72:
 487              	.LBE291:
 488              	.LBE293:
 489              		.loc 1 2184 0
 490 0042 BA4B     		ldr	r3, .L189
 491 0044 53F82640 		ldr	r4, [r3, r6, lsl #2]
 492              	.LVL57:
 493              		.loc 1 2185 0
 494 0048 002C     		cmp	r4, #0
 495 004a 00F03581 		beq	.L128
 496              	.LVL58:
 497              	.L187:
 498              		.loc 1 2188 0
 499 004e 0460     		str	r4, [r0]
 500              		.loc 1 2190 0
 501 0050 2378     		ldrb	r3, [r4]	@ zero_extendqisi2
 502 0052 ABB1     		cbz	r3, .L75
 503              		.loc 1 2191 0
 504 0054 6078     		ldrb	r0, [r4, #1]	@ zero_extendqisi2
 505              	.LVL59:
 506 0056 FFF7FEFF 		bl	disk_status
 507              	.LVL60:
 508              		.loc 1 2192 0
 509 005a C707     		lsls	r7, r0, #31
 510 005c 10D4     		bmi	.L75
 511              		.loc 1 2193 0
 512 005e B9F1000F 		cmp	r9, #0
 513 0062 00F01881 		beq	.L179
ARM GAS  C:\Users\mathi\AppData\Local\Temp\ccjAIMZ3.s 			page 10


 514              		.loc 1 2193 0 is_stmt 0 discriminator 1
 515 0066 10F00400 		ands	r0, r0, #4
 516              	.LVL61:
 517 006a 40F02B81 		bne	.L77
 518              	.LVL62:
 519              	.L71:
 520              		.loc 1 2325 0 is_stmt 1
 521 006e 059A     		ldr	r2, [sp, #20]
 522 0070 D8F80030 		ldr	r3, [r8]
 523 0074 9A42     		cmp	r2, r3
 524 0076 40F0D881 		bne	.L182
 525 007a 06B0     		add	sp, sp, #24
 526              		.cfi_remember_state
 527              		.cfi_def_cfa_offset 32
 528              		@ sp needed
 529 007c BDE8F087 		pop	{r4, r5, r6, r7, r8, r9, r10, pc}
 530              	.LVL63:
 531              	.L75:
 532              		.cfi_restore_state
 533              		.loc 1 2203 0
 534 0080 F0B2     		uxtb	r0, r6
 535              		.loc 1 2202 0
 536 0082 0023     		movs	r3, #0
 537              		.loc 1 2203 0
 538 0084 6070     		strb	r0, [r4, #1]
 539              		.loc 1 2202 0
 540 0086 2370     		strb	r3, [r4]
 541              		.loc 1 2204 0
 542 0088 FFF7FEFF 		bl	disk_initialize
 543              	.LVL64:
 544              		.loc 1 2205 0
 545 008c C507     		lsls	r5, r0, #31
 546 008e 00F11581 		bmi	.L131
 547              		.loc 1 2207 0
 548 0092 B9F1000F 		cmp	r9, #0
 549 0096 02D0     		beq	.L76
 550              		.loc 1 2207 0 is_stmt 0 discriminator 1
 551 0098 4107     		lsls	r1, r0, #29
 552 009a 00F11381 		bmi	.L77
 553              	.L76:
 554              	.LVL65:
 555              	.LBB294:
 556              	.LBB295:
 557              		.loc 1 2141 0 is_stmt 1
 558 009e 4FF0FF33 		mov	r3, #-1
 559 00a2 0022     		movs	r2, #0
 560              	.LBB296:
 561              	.LBB297:
 562              	.LBB298:
 563              		.loc 1 791 0
 564 00a4 04F13006 		add	r6, r4, #48
 565              	.LBE298:
 566              	.LBE297:
 567              	.LBE296:
 568              		.loc 1 2141 0
 569 00a8 E362     		str	r3, [r4, #44]
 570              	.LVL66:
ARM GAS  C:\Users\mathi\AppData\Local\Temp\ccjAIMZ3.s 			page 11


 571 00aa 2271     		strb	r2, [r4, #4]
 572              	.LBB303:
 573              	.LBB301:
 574              	.LBB299:
 575              		.loc 1 791 0
 576 00ac 3146     		mov	r1, r6
 577 00ae 0123     		movs	r3, #1
 578 00b0 6078     		ldrb	r0, [r4, #1]	@ zero_extendqisi2
 579              	.LVL67:
 580 00b2 FFF7FEFF 		bl	disk_read
 581              	.LVL68:
 582 00b6 0028     		cmp	r0, #0
 583 00b8 40F00281 		bne	.L102
 584              	.LBE299:
 585              	.LBE301:
 586              	.LBE303:
 587              		.loc 1 2145 0
 588 00bc 94F82F22 		ldrb	r2, [r4, #559]	@ zero_extendqisi2
 589 00c0 94F82E32 		ldrb	r3, [r4, #558]	@ zero_extendqisi2
 590              	.LBB304:
 591              	.LBB302:
 592              	.LBB300:
 593              		.loc 1 793 0
 594 00c4 E062     		str	r0, [r4, #44]
 595              	.LVL69:
 596              	.LBE300:
 597              	.LBE302:
 598              	.LBE304:
 599              		.loc 1 2145 0
 600 00c6 43EA0223 		orr	r3, r3, r2, lsl #8
 601 00ca 4AF65522 		movw	r2, #43605
 602 00ce 9342     		cmp	r3, r2
 603 00d0 40F0FA80 		bne	.L99
 604              		.loc 1 2148 0
 605 00d4 D4F86610 		ldr	r1, [r4, #102]	@ unaligned
 606 00d8 954B     		ldr	r3, .L189+4
 607 00da 21F07F42 		bic	r2, r1, #-16777216
 608 00de 9A42     		cmp	r2, r3
 609 00e0 00F0F680 		beq	.L133
 610              	.LVL70:
 611              	.LBB305:
 612              	.LBB306:
 613              		.loc 1 2150 0
 614 00e4 D4F88220 		ldr	r2, [r4, #130]	@ unaligned
 615 00e8 22F07F42 		bic	r2, r2, #-16777216
 616 00ec 9A42     		cmp	r2, r3
 617 00ee 00F0EF80 		beq	.L133
 618              	.LVL71:
 619              	.LBE306:
 620              	.LBE305:
 621              	.LBE295:
 622              	.LBE294:
 623              	.LBB307:
 624              	.LBB308:
 625              		.loc 1 2222 0
 626 00f2 94F8F251 		ldrb	r5, [r4, #498]	@ zero_extendqisi2
 627 00f6 0DB1     		cbz	r5, .L81
ARM GAS  C:\Users\mathi\AppData\Local\Temp\ccjAIMZ3.s 			page 12


 628 00f8 D4F8F651 		ldr	r5, [r4, #502]	@ unaligned
 629              	.L81:
 630              	.LVL72:
 631 00fc 94F80222 		ldrb	r2, [r4, #514]	@ zero_extendqisi2
 632 0100 0AB1     		cbz	r2, .L82
 633 0102 D4F80622 		ldr	r2, [r4, #518]	@ unaligned
 634              	.L82:
 635 0106 94F81232 		ldrb	r3, [r4, #530]	@ zero_extendqisi2
 636 010a 0292     		str	r2, [sp, #8]
 637              	.LVL73:
 638 010c 002B     		cmp	r3, #0
 639 010e 00F04181 		beq	.L136
 640 0112 D4F81622 		ldr	r2, [r4, #534]	@ unaligned
 641              	.L83:
 642 0116 94F82232 		ldrb	r3, [r4, #546]	@ zero_extendqisi2
 643 011a 0392     		str	r2, [sp, #12]
 644              	.LVL74:
 645 011c 0BB1     		cbz	r3, .L84
 646              		.loc 1 2222 0 is_stmt 0 discriminator 1
 647 011e D4F82632 		ldr	r3, [r4, #550]	@ unaligned
 648              	.L84:
 649              		.loc 1 2222 0 discriminator 4
 650 0122 0493     		str	r3, [sp, #16]
 651              	.LVL75:
 652              	.LBE308:
 653              		.loc 1 2228 0 is_stmt 1 discriminator 4
 654 0124 002D     		cmp	r5, #0
 655 0126 40F0D580 		bne	.L183
 656              	.LVL76:
 657              	.L88:
 658              		.loc 1 2227 0
 659 012a 029D     		ldr	r5, [sp, #8]
 660              	.LVL77:
 661              		.loc 1 2228 0
 662 012c 002D     		cmp	r5, #0
 663 012e 40F00581 		bne	.L184
 664              	.L92:
 665              	.LVL78:
 666              		.loc 1 2227 0
 667 0132 039D     		ldr	r5, [sp, #12]
 668              	.LVL79:
 669              		.loc 1 2228 0
 670 0134 002D     		cmp	r5, #0
 671 0136 40F02F81 		bne	.L185
 672              	.L96:
 673              	.LVL80:
 674              		.loc 1 2227 0
 675 013a 049D     		ldr	r5, [sp, #16]
 676              	.LVL81:
 677              		.loc 1 2228 0
 678 013c 002D     		cmp	r5, #0
 679 013e 00F0C380 		beq	.L99
 680              	.LVL82:
 681              	.LBB309:
 682              	.LBB310:
 683              		.loc 1 2141 0
 684 0142 4FF0FF33 		mov	r3, #-1
ARM GAS  C:\Users\mathi\AppData\Local\Temp\ccjAIMZ3.s 			page 13


 685 0146 0022     		movs	r2, #0
 686              	.LBB311:
 687              	.LBB312:
 688              		.loc 1 786 0
 689 0148 9D42     		cmp	r5, r3
 690              	.LBE312:
 691              	.LBE311:
 692              		.loc 1 2141 0
 693 014a 2271     		strb	r2, [r4, #4]
 694 014c E362     		str	r3, [r4, #44]
 695              	.LVL83:
 696              	.LBB331:
 697              	.LBB323:
 698              		.loc 1 786 0
 699 014e 09D0     		beq	.L100
 700              	.LVL84:
 701              	.LBB313:
 702              	.LBB314:
 703              		.loc 1 791 0
 704 0150 3146     		mov	r1, r6
 705 0152 0123     		movs	r3, #1
 706 0154 2A46     		mov	r2, r5
 707 0156 6078     		ldrb	r0, [r4, #1]	@ zero_extendqisi2
 708 0158 FFF7FEFF 		bl	disk_read
 709              	.LVL85:
 710 015c 0028     		cmp	r0, #0
 711 015e 40F0AF80 		bne	.L102
 712              		.loc 1 793 0
 713 0162 E562     		str	r5, [r4, #44]
 714              	.LVL86:
 715              	.L100:
 716              	.LBE314:
 717              	.LBE313:
 718              	.LBE323:
 719              	.LBE331:
 720              		.loc 1 2145 0
 721 0164 94F82F22 		ldrb	r2, [r4, #559]	@ zero_extendqisi2
 722 0168 94F82E32 		ldrb	r3, [r4, #558]	@ zero_extendqisi2
 723 016c 43EA0223 		orr	r3, r3, r2, lsl #8
 724 0170 4AF65522 		movw	r2, #43605
 725 0174 9342     		cmp	r3, r2
 726 0176 40F0A780 		bne	.L99
 727              		.loc 1 2148 0
 728 017a D4F86630 		ldr	r3, [r4, #102]	@ unaligned
 729 017e 6C4A     		ldr	r2, .L189+4
 730 0180 23F07F43 		bic	r3, r3, #-16777216
 731 0184 9342     		cmp	r3, r2
 732 0186 06D0     		beq	.L80
 733              	.LVL87:
 734              	.LBB332:
 735              	.LBB333:
 736              		.loc 1 2150 0
 737 0188 D4F88230 		ldr	r3, [r4, #130]	@ unaligned
 738 018c 23F07F43 		bic	r3, r3, #-16777216
 739 0190 9342     		cmp	r3, r2
 740 0192 40F09980 		bne	.L99
 741              	.LVL88:
ARM GAS  C:\Users\mathi\AppData\Local\Temp\ccjAIMZ3.s 			page 14


 742              	.L80:
 743              	.LBE333:
 744              	.LBE332:
 745              	.LBE310:
 746              	.LBE309:
 747              	.LBE307:
 748              		.loc 1 2236 0
 749 0196 94F83C20 		ldrb	r2, [r4, #60]	@ zero_extendqisi2
 750 019a 94F83B30 		ldrb	r3, [r4, #59]	@ zero_extendqisi2
 751 019e 43EA0223 		orr	r3, r3, r2, lsl #8
 752 01a2 B3F5007F 		cmp	r3, #512
 753 01a6 40F08F80 		bne	.L99
 754              		.loc 1 2239 0
 755 01aa 94F84720 		ldrb	r2, [r4, #71]	@ zero_extendqisi2
 756              		.loc 1 2243 0
 757 01ae 94F84010 		ldrb	r1, [r4, #64]	@ zero_extendqisi2
 758              		.loc 1 2239 0
 759 01b2 94F84630 		ldrb	r3, [r4, #70]	@ zero_extendqisi2
 760              	.LVL89:
 761              		.loc 1 2243 0
 762 01b6 E170     		strb	r1, [r4, #3]
 763              		.loc 1 2240 0
 764 01b8 53EA0223 		orrs	r3, r3, r2, lsl #8
 765              	.LVL90:
 766              		.loc 1 2244 0
 767 01bc 01F1FF32 		add	r2, r1, #-1
 768              		.loc 1 2240 0
 769 01c0 08BF     		it	eq
 770 01c2 636D     		ldreq	r3, [r4, #84]
 771              	.LVL91:
 772              		.loc 1 2241 0
 773 01c4 A361     		str	r3, [r4, #24]
 774              		.loc 1 2244 0
 775 01c6 012A     		cmp	r2, #1
 776 01c8 7ED8     		bhi	.L99
 777              	.LVL92:
 778              		.loc 1 2248 0
 779 01ca 94F83D70 		ldrb	r7, [r4, #61]	@ zero_extendqisi2
 780 01ce A770     		strb	r7, [r4, #2]
 781              		.loc 1 2249 0
 782 01d0 002F     		cmp	r7, #0
 783 01d2 79D0     		beq	.L99
 784              		.loc 1 2249 0 is_stmt 0 discriminator 1
 785 01d4 7A1E     		subs	r2, r7, #1
 786 01d6 3A42     		tst	r2, r7
 787 01d8 76D1     		bne	.L99
 788              		.loc 1 2252 0 is_stmt 1
 789 01da 94F84220 		ldrb	r2, [r4, #66]	@ zero_extendqisi2
 790 01de 94F84160 		ldrb	r6, [r4, #65]	@ zero_extendqisi2
 791 01e2 46EA0226 		orr	r6, r6, r2, lsl #8
 792              		.loc 1 2253 0
 793 01e6 3207     		lsls	r2, r6, #28
 794              		.loc 1 2252 0
 795 01e8 2681     		strh	r6, [r4, #8]	@ movhi
 796              		.loc 1 2253 0
 797 01ea 6DD1     		bne	.L99
 798              		.loc 1 2256 0
ARM GAS  C:\Users\mathi\AppData\Local\Temp\ccjAIMZ3.s 			page 15


 799 01ec 94F84400 		ldrb	r0, [r4, #68]	@ zero_extendqisi2
 800 01f0 94F84320 		ldrb	r2, [r4, #67]	@ zero_extendqisi2
 801              	.LVL93:
 802              		.loc 1 2259 0
 803 01f4 94F83EC0 		ldrb	ip, [r4, #62]	@ zero_extendqisi2
 804              		.loc 1 2257 0
 805 01f8 52EA0022 		orrs	r2, r2, r0, lsl #8
 806              	.LVL94:
 807              		.loc 1 2259 0
 808 01fc 94F83F00 		ldrb	r0, [r4, #63]	@ zero_extendqisi2
 809              		.loc 1 2257 0
 810 0200 08BF     		it	eq
 811 0202 226D     		ldreq	r2, [r4, #80]
 812              	.LVL95:
 813              		.loc 1 2260 0
 814 0204 5CEA002C 		orrs	ip, ip, r0, lsl #8
 815              	.LVL96:
 816 0208 5ED0     		beq	.L99
 817              		.loc 1 2246 0
 818 020a 03FB01F0 		mul	r0, r3, r1
 819              		.loc 1 2263 0
 820 020e 0CEB1619 		add	r9, ip, r6, lsr #4
 821 0212 8144     		add	r9, r9, r0
 822              	.LVL97:
 823              		.loc 1 2264 0
 824 0214 4A45     		cmp	r2, r9
 825 0216 57D3     		bcc	.L99
 826              		.loc 1 2265 0
 827 0218 A2EB0902 		sub	r2, r2, r9
 828              	.LVL98:
 829 021c B2FBF7F1 		udiv	r1, r2, r7
 830              	.LVL99:
 831              		.loc 1 2266 0
 832 0220 0029     		cmp	r1, #0
 833 0222 51D0     		beq	.L99
 834              	.LVL100:
 835              		.loc 1 2268 0
 836 0224 40F6F57E 		movw	lr, #4085
 837              		.loc 1 2269 0
 838 0228 4FF6F57A 		movw	r10, #65525
 839 022c 0CEB0507 		add	r7, ip, r5
 840 0230 A944     		add	r9, r9, r5
 841              	.LVL101:
 842              		.loc 1 2267 0
 843 0232 7145     		cmp	r1, lr
 844 0234 8CBF     		ite	hi
 845 0236 4FF0020E 		movhi	lr, #2
 846 023a 4FF0010E 		movls	lr, #1
 847              	.LVL102:
 848 023e 8A1C     		adds	r2, r1, #2
 849              		.loc 1 2269 0
 850 0240 5145     		cmp	r1, r10
 851              		.loc 1 2272 0
 852 0242 6261     		str	r2, [r4, #20]
 853              		.loc 1 2274 0
 854 0244 C4E90757 		strd	r5, r7, [r4, #28]
 855              		.loc 1 2275 0
ARM GAS  C:\Users\mathi\AppData\Local\Temp\ccjAIMZ3.s 			page 16


 856 0248 C4F82890 		str	r9, [r4, #40]
 857              		.loc 1 2269 0
 858 024c 40F2D080 		bls	.L109
 859              	.LVL103:
 860              		.loc 1 2277 0
 861 0250 002E     		cmp	r6, #0
 862 0252 39D1     		bne	.L99
 863              		.loc 1 2279 0
 864 0254 9200     		lsls	r2, r2, #2
 865              		.loc 1 2286 0
 866 0256 02F2FF12 		addw	r2, r2, #511
 867              		.loc 1 2278 0
 868 025a E16D     		ldr	r1, [r4, #92]
 869              	.LVL104:
 870 025c 6162     		str	r1, [r4, #36]
 871              	.LVL105:
 872              		.loc 1 2286 0
 873 025e B3EB522F 		cmp	r3, r2, lsr #9
 874 0262 31D3     		bcc	.L99
 875              		.loc 1 2297 0
 876 0264 94F86120 		ldrb	r2, [r4, #97]	@ zero_extendqisi2
 877 0268 94F86030 		ldrb	r3, [r4, #96]	@ zero_extendqisi2
 878              	.LVL106:
 879 026c 43EA0223 		orr	r3, r3, r2, lsl #8
 880              		.loc 1 2294 0
 881 0270 8021     		movs	r1, #128
 882              		.loc 1 2291 0
 883 0272 4FF0FF32 		mov	r2, #-1
 884              		.loc 1 2297 0
 885 0276 012B     		cmp	r3, #1
 886              		.loc 1 2291 0
 887 0278 C4E90322 		strd	r2, r2, [r4, #12]
 888              		.loc 1 2294 0
 889 027c 6171     		strb	r1, [r4, #5]
 890              		.loc 1 2297 0
 891 027e 00F0D880 		beq	.L186
 892              	.LVL107:
 893              	.L177:
 894              		.loc 1 2309 0
 895 0282 4FF0030E 		mov	lr, #3
 896              	.LVL108:
 897              	.L116:
 898              		.loc 1 2316 0
 899 0286 2B4A     		ldr	r2, .L189+8
 900              		.loc 1 2315 0
 901 0288 84F800E0 		strb	lr, [r4]
 902              		.loc 1 2316 0
 903 028c 1388     		ldrh	r3, [r2]
 904 028e 0133     		adds	r3, r3, #1
 905 0290 9BB2     		uxth	r3, r3
 906 0292 1380     		strh	r3, [r2]	@ movhi
 907 0294 E380     		strh	r3, [r4, #6]	@ movhi
 908              	.LVL109:
 909              	.L179:
 910              		.loc 1 2324 0
 911 0296 0020     		movs	r0, #0
 912 0298 E9E6     		b	.L71
ARM GAS  C:\Users\mathi\AppData\Local\Temp\ccjAIMZ3.s 			page 17


 913              	.LVL110:
 914              	.L180:
 915              	.LBB352:
 916              	.LBB292:
 917              		.loc 1 2090 0
 918 029a 0137     		adds	r7, r7, #1
 919              	.LVL111:
 920              		.loc 1 2091 0
 921 029c BD42     		cmp	r5, r7
 922              		.loc 1 2090 0
 923 029e A2F13006 		sub	r6, r2, #48
 924              	.LVL112:
 925              		.loc 1 2091 0
 926 02a2 13D1     		bne	.L178
 927              		.loc 1 2092 0
 928 02a4 302A     		cmp	r2, #48
 929 02a6 11D1     		bne	.L178
 930              	.LVL113:
 931              		.loc 1 2094 0
 932 02a8 0233     		adds	r3, r3, #2
 933              	.LVL114:
 934 02aa 0B60     		str	r3, [r1]
 935              	.LVL115:
 936              	.LBE292:
 937              	.LBE352:
 938              		.loc 1 2184 0
 939 02ac 1F4B     		ldr	r3, .L189
 940 02ae 53F82640 		ldr	r4, [r3, r6, lsl #2]
 941              	.LVL116:
 942              		.loc 1 2185 0
 943 02b2 002C     		cmp	r4, #0
 944 02b4 7FF4CBAE 		bne	.L187
 945              	.LVL117:
 946              	.L128:
 947 02b8 0C20     		movs	r0, #12
 948              	.LVL118:
 949 02ba D8E6     		b	.L71
 950              	.LVL119:
 951              	.L131:
 952              		.loc 1 2206 0
 953 02bc 0320     		movs	r0, #3
 954              	.LVL120:
 955 02be D6E6     		b	.L71
 956              	.LVL121:
 957              	.L102:
 958              		.loc 1 2231 0
 959 02c0 0120     		movs	r0, #1
 960 02c2 D4E6     		b	.L71
 961              	.LVL122:
 962              	.L77:
 963              		.loc 1 2194 0
 964 02c4 0A20     		movs	r0, #10
 965 02c6 D2E6     		b	.L71
 966              	.LVL123:
 967              	.L99:
 968              		.loc 1 2232 0
 969 02c8 0D20     		movs	r0, #13
ARM GAS  C:\Users\mathi\AppData\Local\Temp\ccjAIMZ3.s 			page 18


 970 02ca D0E6     		b	.L71
 971              	.LVL124:
 972              	.L178:
 973              		.loc 1 2181 0
 974 02cc 0B20     		movs	r0, #11
 975              	.LVL125:
 976 02ce CEE6     		b	.L71
 977              	.LVL126:
 978              	.L133:
 979              		.loc 1 2214 0
 980 02d0 0546     		mov	r5, r0
 981 02d2 60E7     		b	.L80
 982              	.LVL127:
 983              	.L183:
 984              	.LBB353:
 985              	.LBB349:
 986              	.LBB347:
 987              		.loc 1 2141 0
 988 02d4 4FF0FF33 		mov	r3, #-1
 989 02d8 0022     		movs	r2, #0
 990              	.LBB337:
 991              	.LBB324:
 992              		.loc 1 786 0
 993 02da 9D42     		cmp	r5, r3
 994              	.LBE324:
 995              	.LBE337:
 996              		.loc 1 2141 0
 997 02dc 2271     		strb	r2, [r4, #4]
 998 02de E362     		str	r3, [r4, #44]
 999              	.LVL128:
 1000              	.LBB338:
 1001              	.LBB325:
 1002              		.loc 1 786 0
 1003 02e0 16D0     		beq	.L89
 1004              	.LVL129:
 1005              	.LBB319:
 1006              	.LBB315:
 1007              		.loc 1 791 0
 1008 02e2 0123     		movs	r3, #1
 1009 02e4 2A46     		mov	r2, r5
 1010 02e6 3146     		mov	r1, r6
 1011 02e8 6078     		ldrb	r0, [r4, #1]	@ zero_extendqisi2
 1012 02ea FFF7FEFF 		bl	disk_read
 1013              	.LVL130:
 1014 02ee 0028     		cmp	r0, #0
 1015 02f0 7FF41BAF 		bne	.L88
 1016              	.LBE315:
 1017              	.LBE319:
 1018              	.LBE325:
 1019              	.LBE338:
 1020              		.loc 1 2145 0
 1021 02f4 94F82F22 		ldrb	r2, [r4, #559]	@ zero_extendqisi2
 1022 02f8 94F82E32 		ldrb	r3, [r4, #558]	@ zero_extendqisi2
 1023              	.LBB339:
 1024              	.LBB326:
 1025              	.LBB320:
 1026              	.LBB316:
ARM GAS  C:\Users\mathi\AppData\Local\Temp\ccjAIMZ3.s 			page 19


 1027              		.loc 1 793 0
 1028 02fc E562     		str	r5, [r4, #44]
 1029              	.LVL131:
 1030              	.LBE316:
 1031              	.LBE320:
 1032              	.LBE326:
 1033              	.LBE339:
 1034              		.loc 1 2145 0
 1035 02fe 43EA0223 		orr	r3, r3, r2, lsl #8
 1036 0302 4AF65522 		movw	r2, #43605
 1037 0306 9342     		cmp	r3, r2
 1038 0308 7FF40FAF 		bne	.L88
 1039 030c D4F86610 		ldr	r1, [r4, #102]	@ unaligned
 1040              	.LVL132:
 1041              	.L89:
 1042              		.loc 1 2148 0
 1043 0310 074A     		ldr	r2, .L189+4
 1044 0312 21F07F41 		bic	r1, r1, #-16777216
 1045 0316 9142     		cmp	r1, r2
 1046 0318 3FF43DAF 		beq	.L80
 1047              	.LVL133:
 1048              	.LBB340:
 1049              	.LBB334:
 1050              		.loc 1 2150 0
 1051 031c D4F88230 		ldr	r3, [r4, #130]	@ unaligned
 1052 0320 23F07F43 		bic	r3, r3, #-16777216
 1053 0324 9342     		cmp	r3, r2
 1054 0326 7FF400AF 		bne	.L88
 1055 032a 34E7     		b	.L80
 1056              	.L190:
 1057              		.align	2
 1058              	.L189:
 1059 032c 00000000 		.word	.LANCHOR0
 1060 0330 46415400 		.word	5521734
 1061 0334 00000000 		.word	.LANCHOR1
 1062 0338 00000000 		.word	__stack_chk_guard
 1063              	.LVL134:
 1064              	.L184:
 1065              	.LBE334:
 1066              	.LBE340:
 1067              		.loc 1 2141 0
 1068 033c 4FF0FF33 		mov	r3, #-1
 1069 0340 0022     		movs	r2, #0
 1070              	.LBB341:
 1071              	.LBB327:
 1072              		.loc 1 786 0
 1073 0342 9D42     		cmp	r5, r3
 1074              	.LBE327:
 1075              	.LBE341:
 1076              		.loc 1 2141 0
 1077 0344 2271     		strb	r2, [r4, #4]
 1078 0346 E362     		str	r3, [r4, #44]
 1079              	.LVL135:
 1080              	.LBB342:
 1081              	.LBB328:
 1082              		.loc 1 786 0
 1083 0348 09D0     		beq	.L93
ARM GAS  C:\Users\mathi\AppData\Local\Temp\ccjAIMZ3.s 			page 20


 1084              	.LVL136:
 1085              	.LBB321:
 1086              	.LBB317:
 1087              		.loc 1 791 0
 1088 034a 0123     		movs	r3, #1
 1089 034c 2A46     		mov	r2, r5
 1090 034e 3146     		mov	r1, r6
 1091 0350 6078     		ldrb	r0, [r4, #1]	@ zero_extendqisi2
 1092 0352 FFF7FEFF 		bl	disk_read
 1093              	.LVL137:
 1094 0356 0028     		cmp	r0, #0
 1095 0358 7FF4EBAE 		bne	.L92
 1096              		.loc 1 793 0
 1097 035c E562     		str	r5, [r4, #44]
 1098              	.LVL138:
 1099              	.L93:
 1100              	.LBE317:
 1101              	.LBE321:
 1102              	.LBE328:
 1103              	.LBE342:
 1104              		.loc 1 2145 0
 1105 035e 94F82F22 		ldrb	r2, [r4, #559]	@ zero_extendqisi2
 1106 0362 94F82E32 		ldrb	r3, [r4, #558]	@ zero_extendqisi2
 1107 0366 43EA0223 		orr	r3, r3, r2, lsl #8
 1108 036a 4AF65522 		movw	r2, #43605
 1109 036e 9342     		cmp	r3, r2
 1110 0370 7FF4DFAE 		bne	.L92
 1111              		.loc 1 2148 0
 1112 0374 D4F86630 		ldr	r3, [r4, #102]	@ unaligned
 1113 0378 424A     		ldr	r2, .L191
 1114 037a 23F07F43 		bic	r3, r3, #-16777216
 1115 037e 9342     		cmp	r3, r2
 1116 0380 3FF409AF 		beq	.L80
 1117              	.LVL139:
 1118              	.LBB343:
 1119              	.LBB335:
 1120              		.loc 1 2150 0
 1121 0384 D4F88230 		ldr	r3, [r4, #130]	@ unaligned
 1122 0388 23F07F43 		bic	r3, r3, #-16777216
 1123 038c 9342     		cmp	r3, r2
 1124 038e 7FF4D0AE 		bne	.L92
 1125 0392 00E7     		b	.L80
 1126              	.LVL140:
 1127              	.L136:
 1128              	.LBE335:
 1129              	.LBE343:
 1130              	.LBE347:
 1131              	.LBE349:
 1132              	.LBB350:
 1133              		.loc 1 2222 0
 1134 0394 1A46     		mov	r2, r3
 1135 0396 BEE6     		b	.L83
 1136              	.LVL141:
 1137              	.L185:
 1138              	.LBE350:
 1139              	.LBB351:
 1140              	.LBB348:
ARM GAS  C:\Users\mathi\AppData\Local\Temp\ccjAIMZ3.s 			page 21


 1141              		.loc 1 2141 0
 1142 0398 4FF0FF33 		mov	r3, #-1
 1143 039c 0022     		movs	r2, #0
 1144              	.LBB344:
 1145              	.LBB329:
 1146              		.loc 1 786 0
 1147 039e 9D42     		cmp	r5, r3
 1148              	.LBE329:
 1149              	.LBE344:
 1150              		.loc 1 2141 0
 1151 03a0 2271     		strb	r2, [r4, #4]
 1152 03a2 E362     		str	r3, [r4, #44]
 1153              	.LVL142:
 1154              	.LBB345:
 1155              	.LBB330:
 1156              		.loc 1 786 0
 1157 03a4 09D0     		beq	.L97
 1158              	.LVL143:
 1159              	.LBB322:
 1160              	.LBB318:
 1161              		.loc 1 791 0
 1162 03a6 0123     		movs	r3, #1
 1163 03a8 2A46     		mov	r2, r5
 1164 03aa 3146     		mov	r1, r6
 1165 03ac 6078     		ldrb	r0, [r4, #1]	@ zero_extendqisi2
 1166 03ae FFF7FEFF 		bl	disk_read
 1167              	.LVL144:
 1168 03b2 0028     		cmp	r0, #0
 1169 03b4 7FF4C1AE 		bne	.L96
 1170              		.loc 1 793 0
 1171 03b8 E562     		str	r5, [r4, #44]
 1172              	.LVL145:
 1173              	.L97:
 1174              	.LBE318:
 1175              	.LBE322:
 1176              	.LBE330:
 1177              	.LBE345:
 1178              		.loc 1 2145 0
 1179 03ba 94F82F22 		ldrb	r2, [r4, #559]	@ zero_extendqisi2
 1180 03be 94F82E32 		ldrb	r3, [r4, #558]	@ zero_extendqisi2
 1181 03c2 43EA0223 		orr	r3, r3, r2, lsl #8
 1182 03c6 4AF65522 		movw	r2, #43605
 1183 03ca 9342     		cmp	r3, r2
 1184 03cc 7FF4B5AE 		bne	.L96
 1185              		.loc 1 2148 0
 1186 03d0 D4F86630 		ldr	r3, [r4, #102]	@ unaligned
 1187 03d4 2B4A     		ldr	r2, .L191
 1188 03d6 23F07F43 		bic	r3, r3, #-16777216
 1189 03da 9342     		cmp	r3, r2
 1190 03dc 3FF4DBAE 		beq	.L80
 1191              	.LVL146:
 1192              	.LBB346:
 1193              	.LBB336:
 1194              		.loc 1 2150 0
 1195 03e0 D4F88230 		ldr	r3, [r4, #130]	@ unaligned
 1196 03e4 23F07F43 		bic	r3, r3, #-16777216
 1197 03e8 9342     		cmp	r3, r2
ARM GAS  C:\Users\mathi\AppData\Local\Temp\ccjAIMZ3.s 			page 22


 1198 03ea 7FF4A6AE 		bne	.L96
 1199 03ee D2E6     		b	.L80
 1200              	.LVL147:
 1201              	.L109:
 1202              	.LBE336:
 1203              	.LBE346:
 1204              	.LBE348:
 1205              	.LBE351:
 1206              	.LBE353:
 1207              		.loc 1 2281 0
 1208 03f0 002E     		cmp	r6, #0
 1209 03f2 3FF469AF 		beq	.L99
 1210              		.loc 1 2282 0
 1211 03f6 3844     		add	r0, r0, r7
 1212              	.LVL148:
 1213              		.loc 1 2284 0
 1214 03f8 BEF1020F 		cmp	lr, #2
 1215              		.loc 1 2282 0
 1216 03fc 6062     		str	r0, [r4, #36]
 1217              		.loc 1 2284 0
 1218 03fe 16D0     		beq	.L188
 1219              		.loc 1 2284 0 is_stmt 0 discriminator 2
 1220 0400 02EB4201 		add	r1, r2, r2, lsl #1
 1221              	.LVL149:
 1222 0404 02F00102 		and	r2, r2, #1
 1223              	.LVL150:
 1224 0408 02EB5102 		add	r2, r2, r1, lsr #1
 1225 040c 4FF0010E 		mov	lr, #1
 1226              	.LVL151:
 1227              	.L114:
 1228              		.loc 1 2286 0 is_stmt 1
 1229 0410 02F2FF12 		addw	r2, r2, #511
 1230              	.LVL152:
 1231 0414 B3EB522F 		cmp	r3, r2, lsr #9
 1232 0418 FFF456AF 		bcc	.L99
 1233              		.loc 1 2291 0
 1234 041c 4FF0FF33 		mov	r3, #-1
 1235              	.LVL153:
 1236              		.loc 1 2294 0
 1237 0420 8022     		movs	r2, #128
 1238              	.LVL154:
 1239              		.loc 1 2291 0
 1240 0422 C4E90333 		strd	r3, r3, [r4, #12]
 1241              		.loc 1 2294 0
 1242 0426 6271     		strb	r2, [r4, #5]
 1243 0428 2DE7     		b	.L116
 1244              	.LVL155:
 1245              	.L182:
 1246              		.loc 1 2325 0
 1247 042a FFF7FEFF 		bl	__stack_chk_fail
 1248              	.LVL156:
 1249              	.L188:
 1250              		.loc 1 2284 0 discriminator 1
 1251 042e 5200     		lsls	r2, r2, #1
 1252 0430 EEE7     		b	.L114
 1253              	.LVL157:
 1254              	.L186:
ARM GAS  C:\Users\mathi\AppData\Local\Temp\ccjAIMZ3.s 			page 23


 1255              		.loc 1 2298 0
 1256 0432 691C     		adds	r1, r5, #1
 1257 0434 2046     		mov	r0, r4
 1258              	.LVL158:
 1259 0436 FFF7FEFF 		bl	move_window
 1260              	.LVL159:
 1261 043a 0028     		cmp	r0, #0
 1262 043c 7FF421AF 		bne	.L177
 1263              		.loc 1 2301 0
 1264 0440 94F82F22 		ldrb	r2, [r4, #559]	@ zero_extendqisi2
 1265 0444 94F82E32 		ldrb	r3, [r4, #558]	@ zero_extendqisi2
 1266              		.loc 1 2300 0
 1267 0448 6671     		strb	r6, [r4, #5]
 1268              		.loc 1 2301 0
 1269 044a 43EA0223 		orr	r3, r3, r2, lsl #8
 1270 044e 4AF65522 		movw	r2, #43605
 1271 0452 9342     		cmp	r3, r2
 1272 0454 7FF415AF 		bne	.L177
 1273              		.loc 1 2302 0
 1274 0458 0B4B     		ldr	r3, .L191+4
 1275 045a 226B     		ldr	r2, [r4, #48]
 1276 045c 9A42     		cmp	r2, r3
 1277 045e 7FF410AF 		bne	.L177
 1278              		.loc 1 2303 0
 1279 0462 03F1FF53 		add	r3, r3, #534773760
 1280 0466 03F50053 		add	r3, r3, #8192
 1281 046a D4F81422 		ldr	r2, [r4, #532]
 1282 046e 2033     		adds	r3, r3, #32
 1283 0470 9A42     		cmp	r2, r3
 1284 0472 7FF406AF 		bne	.L177
 1285              		.loc 1 2306 0
 1286 0476 D4F81822 		ldr	r2, [r4, #536]
 1287              		.loc 1 2309 0
 1288 047a D4F81C32 		ldr	r3, [r4, #540]
 1289 047e C4E90332 		strd	r3, r2, [r4, #12]
 1290 0482 FEE6     		b	.L177
 1291              	.L192:
 1292              		.align	2
 1293              	.L191:
 1294 0484 46415400 		.word	5521734
 1295 0488 52526141 		.word	1096897106
 1296              		.cfi_endproc
 1297              	.LFE251:
 1298              		.size	find_volume, .-find_volume
 1299              		.section	.text.sync_fs,"ax",%progbits
 1300              		.align	1
 1301              		.p2align 4,,15
 1302              		.syntax unified
 1303              		.thumb
 1304              		.thumb_func
 1305              		.fpu fpv4-sp-d16
 1306              		.type	sync_fs, %function
 1307              	sync_fs:
 1308              	.LFB225:
 1309              		.loc 1 810 0
 1310              		.cfi_startproc
 1311              		@ args = 0, pretend = 0, frame = 8
ARM GAS  C:\Users\mathi\AppData\Local\Temp\ccjAIMZ3.s 			page 24


 1312              		@ frame_needed = 0, uses_anonymous_args = 0
 1313              	.LVL160:
 1314 0000 2DE9F041 		push	{r4, r5, r6, r7, r8, lr}
 1315              		.cfi_def_cfa_offset 24
 1316              		.cfi_offset 4, -24
 1317              		.cfi_offset 5, -20
 1318              		.cfi_offset 6, -16
 1319              		.cfi_offset 7, -12
 1320              		.cfi_offset 8, -8
 1321              		.cfi_offset 14, -4
 1322 0004 3B4D     		ldr	r5, .L211
 1323              	.LBB360:
 1324              	.LBB361:
 1325              		.loc 1 763 0
 1326 0006 0379     		ldrb	r3, [r0, #4]	@ zero_extendqisi2
 1327              	.LBE361:
 1328              	.LBE360:
 1329              		.loc 1 810 0
 1330 0008 2A68     		ldr	r2, [r5]
 1331 000a 82B0     		sub	sp, sp, #8
 1332              		.cfi_def_cfa_offset 32
 1333              		.loc 1 810 0
 1334 000c 0446     		mov	r4, r0
 1335 000e 0192     		str	r2, [sp, #4]
 1336              	.LVL161:
 1337              	.LBB372:
 1338              	.LBB368:
 1339              		.loc 1 763 0
 1340 0010 8BB9     		cbnz	r3, .L207
 1341              	.LVL162:
 1342              	.L194:
 1343              	.LBE368:
 1344              	.LBE372:
 1345              		.loc 1 817 0
 1346 0012 2378     		ldrb	r3, [r4]	@ zero_extendqisi2
 1347 0014 032B     		cmp	r3, #3
 1348 0016 2FD0     		beq	.L208
 1349              	.L197:
 1350              		.loc 1 831 0
 1351 0018 0022     		movs	r2, #0
 1352 001a 6078     		ldrb	r0, [r4, #1]	@ zero_extendqisi2
 1353 001c 1146     		mov	r1, r2
 1354 001e FFF7FEFF 		bl	disk_ioctl
 1355              	.LVL163:
 1356              	.LBB373:
 1357              	.LBB369:
 1358              	.LBB362:
 1359              	.LBB363:
 1360              		.loc 1 766 0
 1361 0022 0030     		adds	r0, r0, #0
 1362 0024 18BF     		it	ne
 1363 0026 0120     		movne	r0, #1
 1364              	.L195:
 1365              	.LVL164:
 1366              	.LBE363:
 1367              	.LBE362:
 1368              	.LBE369:
ARM GAS  C:\Users\mathi\AppData\Local\Temp\ccjAIMZ3.s 			page 25


 1369              	.LBE373:
 1370              		.loc 1 836 0
 1371 0028 019A     		ldr	r2, [sp, #4]
 1372 002a 2B68     		ldr	r3, [r5]
 1373 002c 9A42     		cmp	r2, r3
 1374 002e 5FD1     		bne	.L209
 1375 0030 02B0     		add	sp, sp, #8
 1376              		.cfi_remember_state
 1377              		.cfi_def_cfa_offset 24
 1378              		@ sp needed
 1379 0032 BDE8F081 		pop	{r4, r5, r6, r7, r8, pc}
 1380              	.LVL165:
 1381              	.L207:
 1382              		.cfi_restore_state
 1383              	.LBB374:
 1384              	.LBB370:
 1385              	.LBB366:
 1386              	.LBB364:
 1387              		.loc 1 764 0
 1388 0036 C66A     		ldr	r6, [r0, #44]
 1389              	.LVL166:
 1390              		.loc 1 765 0
 1391 0038 4078     		ldrb	r0, [r0, #1]	@ zero_extendqisi2
 1392              	.LVL167:
 1393 003a 04F13008 		add	r8, r4, #48
 1394 003e 3246     		mov	r2, r6
 1395 0040 4146     		mov	r1, r8
 1396 0042 0123     		movs	r3, #1
 1397 0044 FFF7FEFF 		bl	disk_write
 1398              	.LVL168:
 1399 0048 0028     		cmp	r0, #0
 1400 004a 4FD1     		bne	.L199
 1401              		.loc 1 768 0
 1402 004c 226A     		ldr	r2, [r4, #32]
 1403 004e A369     		ldr	r3, [r4, #24]
 1404              		.loc 1 767 0
 1405 0050 2071     		strb	r0, [r4, #4]
 1406              		.loc 1 768 0
 1407 0052 B21A     		subs	r2, r6, r2
 1408 0054 9A42     		cmp	r2, r3
 1409 0056 DCD2     		bcs	.L194
 1410              		.loc 1 769 0
 1411 0058 E778     		ldrb	r7, [r4, #3]	@ zero_extendqisi2
 1412              	.LVL169:
 1413 005a 012F     		cmp	r7, #1
 1414 005c 01D8     		bhi	.L196
 1415 005e D8E7     		b	.L194
 1416              	.L210:
 1417 0060 A369     		ldr	r3, [r4, #24]
 1418              	.L196:
 1419              		.loc 1 771 0
 1420 0062 6078     		ldrb	r0, [r4, #1]	@ zero_extendqisi2
 1421              		.loc 1 770 0
 1422 0064 1E44     		add	r6, r6, r3
 1423              	.LVL170:
 1424              		.loc 1 769 0
 1425 0066 013F     		subs	r7, r7, #1
ARM GAS  C:\Users\mathi\AppData\Local\Temp\ccjAIMZ3.s 			page 26


 1426              	.LVL171:
 1427              		.loc 1 771 0
 1428 0068 3246     		mov	r2, r6
 1429 006a 0123     		movs	r3, #1
 1430 006c 4146     		mov	r1, r8
 1431 006e FFF7FEFF 		bl	disk_write
 1432              	.LVL172:
 1433              		.loc 1 769 0
 1434 0072 012F     		cmp	r7, #1
 1435 0074 F4D1     		bne	.L210
 1436 0076 CCE7     		b	.L194
 1437              	.LVL173:
 1438              	.L208:
 1439              	.LBE364:
 1440              	.LBE366:
 1441              	.LBE370:
 1442              	.LBE374:
 1443              		.loc 1 817 0 discriminator 1
 1444 0078 6779     		ldrb	r7, [r4, #5]	@ zero_extendqisi2
 1445 007a 012F     		cmp	r7, #1
 1446 007c CCD1     		bne	.L197
 1447              	.LVL174:
 1448              	.LBB375:
 1449              	.LBB376:
 1450              		.loc 1 583 0
 1451 007e 04F13003 		add	r3, r4, #48
 1452              	.LVL175:
 1453 0082 1846     		mov	r0, r3
 1454 0084 4FF40072 		mov	r2, #512
 1455 0088 0021     		movs	r1, #0
 1456 008a FFF7FEFF 		bl	memset
 1457              	.LVL176:
 1458 008e 0346     		mov	r3, r0
 1459              	.LVL177:
 1460              	.LBE376:
 1461              	.LBE375:
 1462              		.loc 1 824 0
 1463 0090 D4E90306 		ldrd	r0, r6, [r4, #12]
 1464              		.loc 1 826 0
 1465 0094 E269     		ldr	r2, [r4, #28]
 1466              		.loc 1 823 0
 1467 0096 84F81862 		strb	r6, [r4, #536]
 1468 009a C6F3072C 		ubfx	ip, r6, #8, #8
 1469              		.loc 1 827 0
 1470 009e 1946     		mov	r1, r3
 1471 00a0 3B46     		mov	r3, r7
 1472              		.loc 1 823 0
 1473 00a2 370C     		lsrs	r7, r6, #16
 1474 00a4 360E     		lsrs	r6, r6, #24
 1475 00a6 84F81A72 		strb	r7, [r4, #538]
 1476 00aa 84F81B62 		strb	r6, [r4, #539]
 1477              		.loc 1 824 0
 1478 00ae C0F30727 		ubfx	r7, r0, #8, #8
 1479 00b2 060C     		lsrs	r6, r0, #16
 1480 00b4 84F81C02 		strb	r0, [r4, #540]
 1481 00b8 000E     		lsrs	r0, r0, #24
 1482              		.loc 1 826 0
ARM GAS  C:\Users\mathi\AppData\Local\Temp\ccjAIMZ3.s 			page 27


 1483 00ba 0132     		adds	r2, r2, #1
 1484              		.loc 1 824 0
 1485 00bc 84F81D72 		strb	r7, [r4, #541]
 1486 00c0 84F81E62 		strb	r6, [r4, #542]
 1487 00c4 84F81F02 		strb	r0, [r4, #543]
 1488              		.loc 1 820 0
 1489 00c8 4AF65527 		movw	r7, #43605
 1490              		.loc 1 822 0
 1491 00cc 0A48     		ldr	r0, .L211+4
 1492              		.loc 1 821 0
 1493 00ce 0B4E     		ldr	r6, .L211+8
 1494              		.loc 1 822 0
 1495 00d0 C4F81402 		str	r0, [r4, #532]
 1496              		.loc 1 823 0
 1497 00d4 84F819C2 		strb	ip, [r4, #537]
 1498              		.loc 1 826 0
 1499 00d8 E262     		str	r2, [r4, #44]
 1500              		.loc 1 820 0
 1501 00da A4F82E72 		strh	r7, [r4, #558]	@ movhi
 1502              		.loc 1 821 0
 1503 00de 2663     		str	r6, [r4, #48]
 1504              		.loc 1 827 0
 1505 00e0 6078     		ldrb	r0, [r4, #1]	@ zero_extendqisi2
 1506 00e2 FFF7FEFF 		bl	disk_write
 1507              	.LVL178:
 1508              		.loc 1 828 0
 1509 00e6 0023     		movs	r3, #0
 1510 00e8 6371     		strb	r3, [r4, #5]
 1511 00ea 95E7     		b	.L197
 1512              	.LVL179:
 1513              	.L199:
 1514              	.LBB377:
 1515              	.LBB371:
 1516              	.LBB367:
 1517              	.LBB365:
 1518              		.loc 1 766 0
 1519 00ec 0120     		movs	r0, #1
 1520 00ee 9BE7     		b	.L195
 1521              	.LVL180:
 1522              	.L209:
 1523              	.LBE365:
 1524              	.LBE367:
 1525              	.LBE371:
 1526              	.LBE377:
 1527              		.loc 1 836 0
 1528 00f0 FFF7FEFF 		bl	__stack_chk_fail
 1529              	.LVL181:
 1530              	.L212:
 1531              		.align	2
 1532              	.L211:
 1533 00f4 00000000 		.word	__stack_chk_guard
 1534 00f8 72724161 		.word	1631679090
 1535 00fc 52526141 		.word	1096897106
 1536              		.cfi_endproc
 1537              	.LFE225:
 1538              		.size	sync_fs, .-sync_fs
 1539              		.section	.text.remove_chain.part.9,"ax",%progbits
ARM GAS  C:\Users\mathi\AppData\Local\Temp\ccjAIMZ3.s 			page 28


 1540              		.align	1
 1541              		.p2align 4,,15
 1542              		.syntax unified
 1543              		.thumb
 1544              		.thumb_func
 1545              		.fpu fpv4-sp-d16
 1546              		.type	remove_chain.part.9, %function
 1547              	remove_chain.part.9:
 1548              	.LFB288:
 1549              		.loc 1 974 0
 1550              		.cfi_startproc
 1551              		@ args = 0, pretend = 0, frame = 24
 1552              		@ frame_needed = 0, uses_anonymous_args = 0
 1553              	.LVL182:
 1554 0000 2DE9F04F 		push	{r4, r5, r6, r7, r8, r9, r10, fp, lr}
 1555              		.cfi_def_cfa_offset 36
 1556              		.cfi_offset 4, -36
 1557              		.cfi_offset 5, -32
 1558              		.cfi_offset 6, -28
 1559              		.cfi_offset 7, -24
 1560              		.cfi_offset 8, -20
 1561              		.cfi_offset 9, -16
 1562              		.cfi_offset 10, -12
 1563              		.cfi_offset 11, -8
 1564              		.cfi_offset 14, -4
 1565 0004 B14B     		ldr	r3, .L351
 1566 0006 87B0     		sub	sp, sp, #28
 1567              		.cfi_def_cfa_offset 64
 1568              		.loc 1 974 0
 1569 0008 1B68     		ldr	r3, [r3]
 1570 000a 0593     		str	r3, [sp, #20]
 1571 000c 4369     		ldr	r3, [r0, #20]
 1572 000e 0D46     		mov	r5, r1
 1573              	.LVL183:
 1574              		.loc 1 990 0
 1575 0010 9D42     		cmp	r5, r3
 1576              		.loc 1 974 0
 1577 0012 0446     		mov	r4, r0
 1578              		.loc 1 982 0
 1579 0014 8A46     		mov	r10, r1
 1580              	.LVL184:
 1581 0016 00F1300B 		add	fp, r0, #48
 1582              		.loc 1 990 0
 1583 001a 80F05481 		bcs	.L279
 1584              	.LVL185:
 1585              	.L278:
 1586              	.LBB470:
 1587              	.LBB471:
 1588              		.loc 1 874 0
 1589 001e 012D     		cmp	r5, #1
 1590 0020 07D9     		bls	.L323
 1591              	.LVL186:
 1592              	.LBB472:
 1593              	.LBB473:
 1594              		.loc 1 877 0
 1595 0022 2378     		ldrb	r3, [r4]	@ zero_extendqisi2
 1596 0024 022B     		cmp	r3, #2
ARM GAS  C:\Users\mathi\AppData\Local\Temp\ccjAIMZ3.s 			page 29


 1597 0026 7FD0     		beq	.L217
 1598 0028 032B     		cmp	r3, #3
 1599 002a 00F09380 		beq	.L218
 1600 002e 012B     		cmp	r3, #1
 1601 0030 09D0     		beq	.L343
 1602              	.LVL187:
 1603              	.L323:
 1604              	.LBE473:
 1605              	.LBE472:
 1606              	.LBE471:
 1607              	.LBE470:
 1608              		.loc 1 993 0
 1609 0032 0220     		movs	r0, #2
 1610              	.LVL188:
 1611              	.L216:
 1612              		.loc 1 1016 0
 1613 0034 A54B     		ldr	r3, .L351
 1614 0036 059A     		ldr	r2, [sp, #20]
 1615 0038 1B68     		ldr	r3, [r3]
 1616 003a 9A42     		cmp	r2, r3
 1617 003c 40F08A82 		bne	.L344
 1618 0040 07B0     		add	sp, sp, #28
 1619              		.cfi_remember_state
 1620              		.cfi_def_cfa_offset 36
 1621              		@ sp needed
 1622 0042 BDE8F08F 		pop	{r4, r5, r6, r7, r8, r9, r10, fp, pc}
 1623              	.LVL189:
 1624              	.L343:
 1625              		.cfi_restore_state
 1626              	.LBB543:
 1627              	.LBB538:
 1628              	.LBB533:
 1629              	.LBB528:
 1630              		.loc 1 880 0
 1631 0046 226A     		ldr	r2, [r4, #32]
 1632              	.LBB474:
 1633              	.LBB475:
 1634              		.loc 1 786 0
 1635 0048 E76A     		ldr	r7, [r4, #44]
 1636              	.LBE475:
 1637              	.LBE474:
 1638              		.loc 1 879 0
 1639 004a 05EB5508 		add	r8, r5, r5, lsr #1
 1640              	.LVL190:
 1641              		.loc 1 880 0
 1642 004e 02EB5826 		add	r6, r2, r8, lsr #9
 1643              	.LVL191:
 1644              	.LBB483:
 1645              	.LBB482:
 1646              		.loc 1 786 0
 1647 0052 BE42     		cmp	r6, r7
 1648 0054 2CD0     		beq	.L220
 1649              	.LVL192:
 1650              	.LBB476:
 1651              	.LBB477:
 1652              		.loc 1 763 0
 1653 0056 2279     		ldrb	r2, [r4, #4]	@ zero_extendqisi2
ARM GAS  C:\Users\mathi\AppData\Local\Temp\ccjAIMZ3.s 			page 30


 1654 0058 6078     		ldrb	r0, [r4, #1]	@ zero_extendqisi2
 1655 005a FAB1     		cbz	r2, .L221
 1656              	.LVL193:
 1657              	.LBB478:
 1658              	.LBB479:
 1659              		.loc 1 765 0
 1660 005c 3A46     		mov	r2, r7
 1661 005e 5946     		mov	r1, fp
 1662 0060 FFF7FEFF 		bl	disk_write
 1663              	.LVL194:
 1664 0064 0028     		cmp	r0, #0
 1665 0066 73D1     		bne	.L227
 1666              		.loc 1 768 0
 1667 0068 226A     		ldr	r2, [r4, #32]
 1668 006a A369     		ldr	r3, [r4, #24]
 1669              		.loc 1 767 0
 1670 006c 2071     		strb	r0, [r4, #4]
 1671              		.loc 1 768 0
 1672 006e BA1A     		subs	r2, r7, r2
 1673 0070 9A42     		cmp	r2, r3
 1674 0072 12D2     		bcs	.L339
 1675              		.loc 1 769 0
 1676 0074 94F80390 		ldrb	r9, [r4, #3]	@ zero_extendqisi2
 1677              	.LVL195:
 1678 0078 B9F1010F 		cmp	r9, #1
 1679 007c 01D8     		bhi	.L226
 1680 007e 0CE0     		b	.L339
 1681              	.L225:
 1682 0080 A369     		ldr	r3, [r4, #24]
 1683              	.L226:
 1684              		.loc 1 771 0
 1685 0082 6078     		ldrb	r0, [r4, #1]	@ zero_extendqisi2
 1686              		.loc 1 770 0
 1687 0084 1F44     		add	r7, r7, r3
 1688              	.LVL196:
 1689              		.loc 1 769 0
 1690 0086 09F1FF39 		add	r9, r9, #-1
 1691              	.LVL197:
 1692              		.loc 1 771 0
 1693 008a 3A46     		mov	r2, r7
 1694 008c 0123     		movs	r3, #1
 1695 008e 5946     		mov	r1, fp
 1696 0090 FFF7FEFF 		bl	disk_write
 1697              	.LVL198:
 1698              		.loc 1 769 0
 1699 0094 B9F1010F 		cmp	r9, #1
 1700 0098 F2D1     		bne	.L225
 1701              	.LVL199:
 1702              	.L339:
 1703 009a 6078     		ldrb	r0, [r4, #1]	@ zero_extendqisi2
 1704              	.LVL200:
 1705              	.L221:
 1706              	.LBE479:
 1707              	.LBE478:
 1708              	.LBE477:
 1709              	.LBE476:
 1710              	.LBB480:
ARM GAS  C:\Users\mathi\AppData\Local\Temp\ccjAIMZ3.s 			page 31


 1711              	.LBB481:
 1712              		.loc 1 791 0
 1713 009c 0123     		movs	r3, #1
 1714 009e 3246     		mov	r2, r6
 1715 00a0 5946     		mov	r1, fp
 1716 00a2 FFF7FEFF 		bl	disk_read
 1717              	.LVL201:
 1718 00a6 0028     		cmp	r0, #0
 1719 00a8 52D1     		bne	.L227
 1720 00aa 226A     		ldr	r2, [r4, #32]
 1721              		.loc 1 793 0
 1722 00ac E662     		str	r6, [r4, #44]
 1723              	.LVL202:
 1724 00ae 3746     		mov	r7, r6
 1725              	.LVL203:
 1726              	.L220:
 1727              	.LBE481:
 1728              	.LBE480:
 1729              	.LBE482:
 1730              	.LBE483:
 1731              		.loc 1 881 0
 1732 00b0 C8F30803 		ubfx	r3, r8, #0, #9
 1733 00b4 2344     		add	r3, r3, r4
 1734 00b6 08F10108 		add	r8, r8, #1
 1735              	.LVL204:
 1736              		.loc 1 882 0
 1737 00ba 02EB5829 		add	r9, r2, r8, lsr #9
 1738              		.loc 1 881 0
 1739 00be 93F83030 		ldrb	r3, [r3, #48]	@ zero_extendqisi2
 1740 00c2 0093     		str	r3, [sp]
 1741              	.LVL205:
 1742              	.LBB484:
 1743              	.LBB485:
 1744              		.loc 1 786 0
 1745 00c4 B945     		cmp	r9, r7
 1746 00c6 0DD0     		beq	.L228
 1747              	.LVL206:
 1748              	.LBB486:
 1749              	.LBB487:
 1750              		.loc 1 763 0
 1751 00c8 2379     		ldrb	r3, [r4, #4]	@ zero_extendqisi2
 1752 00ca 6078     		ldrb	r0, [r4, #1]	@ zero_extendqisi2
 1753 00cc 002B     		cmp	r3, #0
 1754 00ce 40F00882 		bne	.L345
 1755              	.L229:
 1756              	.LVL207:
 1757              	.LBE487:
 1758              	.LBE486:
 1759              	.LBB491:
 1760              	.LBB492:
 1761              		.loc 1 791 0
 1762 00d2 0123     		movs	r3, #1
 1763 00d4 4A46     		mov	r2, r9
 1764 00d6 5946     		mov	r1, fp
 1765 00d8 FFF7FEFF 		bl	disk_read
 1766              	.LVL208:
 1767 00dc 0028     		cmp	r0, #0
ARM GAS  C:\Users\mathi\AppData\Local\Temp\ccjAIMZ3.s 			page 32


 1768 00de 37D1     		bne	.L227
 1769              		.loc 1 793 0
 1770 00e0 C4F82C90 		str	r9, [r4, #44]
 1771              	.LVL209:
 1772              	.L228:
 1773              	.LBE492:
 1774              	.LBE491:
 1775              	.LBE485:
 1776              	.LBE484:
 1777              		.loc 1 883 0
 1778 00e4 C8F30808 		ubfx	r8, r8, #0, #9
 1779              	.LVL210:
 1780 00e8 A044     		add	r8, r8, r4
 1781 00ea 009A     		ldr	r2, [sp]
 1782 00ec 98F83030 		ldrb	r3, [r8, #48]	@ zero_extendqisi2
 1783              		.loc 1 884 0
 1784 00f0 E907     		lsls	r1, r5, #31
 1785              		.loc 1 883 0
 1786 00f2 42EA0326 		orr	r6, r2, r3, lsl #8
 1787              	.LVL211:
 1788              		.loc 1 884 0
 1789 00f6 4CBF     		ite	mi
 1790 00f8 3609     		lsrmi	r6, r6, #4
 1791              	.LVL212:
 1792 00fa C6F30B06 		ubfxpl	r6, r6, #0, #12
 1793              	.LVL213:
 1794              	.L233:
 1795              	.LBE528:
 1796              	.LBE533:
 1797              	.LBE538:
 1798              	.LBE543:
 1799              		.loc 1 992 0
 1800 00fe 002E     		cmp	r6, #0
 1801 0100 00F0E180 		beq	.L279
 1802              		.loc 1 993 0
 1803 0104 012E     		cmp	r6, #1
 1804 0106 94D0     		beq	.L323
 1805              	.LVL214:
 1806              	.LBB544:
 1807              	.LBB545:
 1808              		.loc 1 922 0
 1809 0108 6369     		ldr	r3, [r4, #20]
 1810 010a 9D42     		cmp	r5, r3
 1811 010c 91D2     		bcs	.L323
 1812              	.LVL215:
 1813              	.LBB546:
 1814              	.LBB547:
 1815              		.loc 1 926 0
 1816 010e 2378     		ldrb	r3, [r4]	@ zero_extendqisi2
 1817 0110 022B     		cmp	r3, #2
 1818 0112 67D0     		beq	.L248
 1819 0114 032B     		cmp	r3, #3
 1820 0116 00F0F280 		beq	.L249
 1821 011a 012B     		cmp	r3, #1
 1822 011c 00F0D880 		beq	.L346
 1823              	.LVL216:
 1824              		.loc 1 959 0
ARM GAS  C:\Users\mathi\AppData\Local\Temp\ccjAIMZ3.s 			page 33


 1825 0120 0123     		movs	r3, #1
 1826 0122 2371     		strb	r3, [r4, #4]
 1827              	.LVL217:
 1828              		.loc 1 957 0
 1829 0124 0220     		movs	r0, #2
 1830 0126 85E7     		b	.L216
 1831              	.LVL218:
 1832              	.L217:
 1833              	.LBE547:
 1834              	.LBE546:
 1835              	.LBE545:
 1836              	.LBE544:
 1837              	.LBB611:
 1838              	.LBB539:
 1839              	.LBB534:
 1840              	.LBB529:
 1841              		.loc 1 887 0
 1842 0128 266A     		ldr	r6, [r4, #32]
 1843              	.LBB495:
 1844              	.LBB496:
 1845              		.loc 1 786 0
 1846 012a E76A     		ldr	r7, [r4, #44]
 1847              	.LBE496:
 1848              	.LBE495:
 1849              		.loc 1 887 0
 1850 012c 06EB1526 		add	r6, r6, r5, lsr #8
 1851              	.LVL219:
 1852              	.LBB514:
 1853              	.LBB511:
 1854              		.loc 1 786 0
 1855 0130 BE42     		cmp	r6, r7
 1856 0132 00F03F81 		beq	.L234
 1857              	.LVL220:
 1858              	.LBB497:
 1859              	.LBB498:
 1860              		.loc 1 763 0
 1861 0136 2379     		ldrb	r3, [r4, #4]	@ zero_extendqisi2
 1862 0138 6078     		ldrb	r0, [r4, #1]	@ zero_extendqisi2
 1863 013a 002B     		cmp	r3, #0
 1864 013c 00F03181 		beq	.L235
 1865              	.LVL221:
 1866              	.LBB499:
 1867              	.LBB500:
 1868              		.loc 1 765 0
 1869 0140 0123     		movs	r3, #1
 1870 0142 3A46     		mov	r2, r7
 1871 0144 5946     		mov	r1, fp
 1872 0146 FFF7FEFF 		bl	disk_write
 1873              	.LVL222:
 1874 014a 0028     		cmp	r0, #0
 1875 014c 00F02181 		beq	.L347
 1876              	.LVL223:
 1877              	.L227:
 1878              	.LBE500:
 1879              	.LBE499:
 1880              	.LBE498:
 1881              	.LBE497:
ARM GAS  C:\Users\mathi\AppData\Local\Temp\ccjAIMZ3.s 			page 34


 1882              	.LBE511:
 1883              	.LBE514:
 1884              	.LBE529:
 1885              	.LBE534:
 1886              	.LBE539:
 1887              	.LBE611:
 1888              		.loc 1 994 0
 1889 0150 0120     		movs	r0, #1
 1890 0152 6FE7     		b	.L216
 1891              	.L218:
 1892              	.LBB612:
 1893              	.LBB540:
 1894              	.LBB535:
 1895              	.LBB530:
 1896              		.loc 1 892 0
 1897 0154 266A     		ldr	r6, [r4, #32]
 1898              	.LBB515:
 1899              	.LBB516:
 1900              		.loc 1 786 0
 1901 0156 E76A     		ldr	r7, [r4, #44]
 1902              	.LBE516:
 1903              	.LBE515:
 1904              		.loc 1 892 0
 1905 0158 06EBD516 		add	r6, r6, r5, lsr #7
 1906              	.LVL224:
 1907              	.LBB524:
 1908              	.LBB523:
 1909              		.loc 1 786 0
 1910 015c BE42     		cmp	r6, r7
 1911 015e 2CD0     		beq	.L240
 1912              	.LVL225:
 1913              	.LBB517:
 1914              	.LBB518:
 1915              		.loc 1 763 0
 1916 0160 2379     		ldrb	r3, [r4, #4]	@ zero_extendqisi2
 1917 0162 6078     		ldrb	r0, [r4, #1]	@ zero_extendqisi2
 1918 0164 0BB3     		cbz	r3, .L241
 1919              	.LVL226:
 1920              	.LBB519:
 1921              	.LBB520:
 1922              		.loc 1 765 0
 1923 0166 0123     		movs	r3, #1
 1924 0168 3A46     		mov	r2, r7
 1925 016a 5946     		mov	r1, fp
 1926 016c FFF7FEFF 		bl	disk_write
 1927              	.LVL227:
 1928 0170 0028     		cmp	r0, #0
 1929 0172 EDD1     		bne	.L227
 1930              		.loc 1 768 0
 1931 0174 226A     		ldr	r2, [r4, #32]
 1932 0176 A369     		ldr	r3, [r4, #24]
 1933              		.loc 1 767 0
 1934 0178 2071     		strb	r0, [r4, #4]
 1935              		.loc 1 768 0
 1936 017a BA1A     		subs	r2, r7, r2
 1937 017c 9A42     		cmp	r2, r3
 1938 017e 6078     		ldrb	r0, [r4, #1]	@ zero_extendqisi2
ARM GAS  C:\Users\mathi\AppData\Local\Temp\ccjAIMZ3.s 			page 35


 1939 0180 13D2     		bcs	.L241
 1940              		.loc 1 769 0
 1941 0182 94F80380 		ldrb	r8, [r4, #3]	@ zero_extendqisi2
 1942              	.LVL228:
 1943 0186 B8F1010F 		cmp	r8, #1
 1944 018a 02D8     		bhi	.L243
 1945 018c 0DE0     		b	.L241
 1946              	.L242:
 1947 018e A369     		ldr	r3, [r4, #24]
 1948 0190 6078     		ldrb	r0, [r4, #1]	@ zero_extendqisi2
 1949              	.L243:
 1950              		.loc 1 770 0
 1951 0192 1F44     		add	r7, r7, r3
 1952              	.LVL229:
 1953              		.loc 1 769 0
 1954 0194 08F1FF38 		add	r8, r8, #-1
 1955              	.LVL230:
 1956              		.loc 1 771 0
 1957 0198 3A46     		mov	r2, r7
 1958 019a 0123     		movs	r3, #1
 1959 019c 5946     		mov	r1, fp
 1960 019e FFF7FEFF 		bl	disk_write
 1961              	.LVL231:
 1962              		.loc 1 769 0
 1963 01a2 B8F1010F 		cmp	r8, #1
 1964 01a6 F2D1     		bne	.L242
 1965 01a8 6078     		ldrb	r0, [r4, #1]	@ zero_extendqisi2
 1966              	.LVL232:
 1967              	.L241:
 1968              	.LBE520:
 1969              	.LBE519:
 1970              	.LBE518:
 1971              	.LBE517:
 1972              	.LBB521:
 1973              	.LBB522:
 1974              		.loc 1 791 0
 1975 01aa 0123     		movs	r3, #1
 1976 01ac 3246     		mov	r2, r6
 1977 01ae 5946     		mov	r1, fp
 1978 01b0 FFF7FEFF 		bl	disk_read
 1979              	.LVL233:
 1980 01b4 0028     		cmp	r0, #0
 1981 01b6 CBD1     		bne	.L227
 1982              		.loc 1 793 0
 1983 01b8 E662     		str	r6, [r4, #44]
 1984              	.LVL234:
 1985              	.L240:
 1986              	.LBE522:
 1987              	.LBE521:
 1988              	.LBE523:
 1989              	.LBE524:
 1990              		.loc 1 893 0
 1991 01ba AB00     		lsls	r3, r5, #2
 1992 01bc 03F4FE73 		and	r3, r3, #508
 1993 01c0 03F13002 		add	r2, r3, #48
 1994 01c4 2244     		add	r2, r2, r4
 1995              	.LVL235:
ARM GAS  C:\Users\mathi\AppData\Local\Temp\ccjAIMZ3.s 			page 36


 1996              		.loc 1 894 0
 1997 01c6 2344     		add	r3, r3, r4
 1998 01c8 9678     		ldrb	r6, [r2, #2]	@ zero_extendqisi2
 1999 01ca D078     		ldrb	r0, [r2, #3]	@ zero_extendqisi2
 2000 01cc 93F83010 		ldrb	r1, [r3, #48]	@ zero_extendqisi2
 2001 01d0 5378     		ldrb	r3, [r2, #1]	@ zero_extendqisi2
 2002 01d2 3604     		lsls	r6, r6, #16
 2003 01d4 46EA0066 		orr	r6, r6, r0, lsl #24
 2004 01d8 0E43     		orrs	r6, r6, r1
 2005 01da 46EA0326 		orr	r6, r6, r3, lsl #8
 2006 01de 26F07046 		bic	r6, r6, #-268435456
 2007 01e2 8CE7     		b	.L233
 2008              	.LVL236:
 2009              	.L248:
 2010              	.LBE530:
 2011              	.LBE535:
 2012              	.LBE540:
 2013              	.LBE612:
 2014              	.LBB613:
 2015              	.LBB606:
 2016              	.LBB601:
 2017              	.LBB596:
 2018              		.loc 1 942 0
 2019 01e4 276A     		ldr	r7, [r4, #32]
 2020              	.LBB548:
 2021              	.LBB549:
 2022              		.loc 1 786 0
 2023 01e6 D4F82C80 		ldr	r8, [r4, #44]
 2024              	.LBE549:
 2025              	.LBE548:
 2026              		.loc 1 942 0
 2027 01ea 07EB1527 		add	r7, r7, r5, lsr #8
 2028              	.LVL237:
 2029              	.LBB557:
 2030              	.LBB556:
 2031              		.loc 1 786 0
 2032 01ee 4745     		cmp	r7, r8
 2033 01f0 2CD0     		beq	.L264
 2034              	.LVL238:
 2035              	.LBB550:
 2036              	.LBB551:
 2037              		.loc 1 763 0
 2038 01f2 2379     		ldrb	r3, [r4, #4]	@ zero_extendqisi2
 2039 01f4 6078     		ldrb	r0, [r4, #1]	@ zero_extendqisi2
 2040 01f6 0BB3     		cbz	r3, .L265
 2041              	.LVL239:
 2042              	.LBB552:
 2043              	.LBB553:
 2044              		.loc 1 765 0
 2045 01f8 0123     		movs	r3, #1
 2046 01fa 4246     		mov	r2, r8
 2047 01fc 5946     		mov	r1, fp
 2048 01fe FFF7FEFF 		bl	disk_write
 2049              	.LVL240:
 2050 0202 0028     		cmp	r0, #0
 2051 0204 78D1     		bne	.L253
 2052              		.loc 1 768 0
ARM GAS  C:\Users\mathi\AppData\Local\Temp\ccjAIMZ3.s 			page 37


 2053 0206 226A     		ldr	r2, [r4, #32]
 2054 0208 A369     		ldr	r3, [r4, #24]
 2055              		.loc 1 767 0
 2056 020a 2071     		strb	r0, [r4, #4]
 2057              		.loc 1 768 0
 2058 020c A8EB0202 		sub	r2, r8, r2
 2059 0210 9A42     		cmp	r2, r3
 2060 0212 12D2     		bcs	.L342
 2061              		.loc 1 769 0
 2062 0214 94F80390 		ldrb	r9, [r4, #3]	@ zero_extendqisi2
 2063              	.LVL241:
 2064 0218 B9F1010F 		cmp	r9, #1
 2065 021c 01D8     		bhi	.L269
 2066 021e 0CE0     		b	.L342
 2067              	.L268:
 2068 0220 A369     		ldr	r3, [r4, #24]
 2069              	.L269:
 2070              		.loc 1 771 0
 2071 0222 6078     		ldrb	r0, [r4, #1]	@ zero_extendqisi2
 2072              		.loc 1 770 0
 2073 0224 9844     		add	r8, r8, r3
 2074              	.LVL242:
 2075              		.loc 1 769 0
 2076 0226 09F1FF39 		add	r9, r9, #-1
 2077              	.LVL243:
 2078              		.loc 1 771 0
 2079 022a 4246     		mov	r2, r8
 2080 022c 0123     		movs	r3, #1
 2081 022e 5946     		mov	r1, fp
 2082 0230 FFF7FEFF 		bl	disk_write
 2083              	.LVL244:
 2084              		.loc 1 769 0
 2085 0234 B9F1010F 		cmp	r9, #1
 2086 0238 F2D1     		bne	.L268
 2087              	.LVL245:
 2088              	.L342:
 2089 023a 6078     		ldrb	r0, [r4, #1]	@ zero_extendqisi2
 2090              	.LVL246:
 2091              	.L265:
 2092              	.LBE553:
 2093              	.LBE552:
 2094              	.LBE551:
 2095              	.LBE550:
 2096              	.LBB554:
 2097              	.LBB555:
 2098              		.loc 1 791 0
 2099 023c 0123     		movs	r3, #1
 2100 023e 3A46     		mov	r2, r7
 2101 0240 5946     		mov	r1, fp
 2102 0242 FFF7FEFF 		bl	disk_read
 2103              	.LVL247:
 2104 0246 0028     		cmp	r0, #0
 2105 0248 56D1     		bne	.L253
 2106              		.loc 1 793 0
 2107 024a E762     		str	r7, [r4, #44]
 2108              	.LVL248:
 2109              	.L264:
ARM GAS  C:\Users\mathi\AppData\Local\Temp\ccjAIMZ3.s 			page 38


 2110              	.LBE555:
 2111              	.LBE554:
 2112              	.LBE556:
 2113              	.LBE557:
 2114              		.loc 1 944 0
 2115 024c 6B00     		lsls	r3, r5, #1
 2116 024e 03F4FF73 		and	r3, r3, #510
 2117              	.LVL249:
 2118              		.loc 1 945 0
 2119 0252 2344     		add	r3, r3, r4
 2120              	.LVL250:
 2121 0254 4FF00002 		mov	r2, #0
 2122 0258 83F83020 		strb	r2, [r3, #48]
 2123 025c 83F83120 		strb	r2, [r3, #49]
 2124              	.LVL251:
 2125              		.loc 1 959 0
 2126 0260 4FF00103 		mov	r3, #1
 2127 0264 2371     		strb	r3, [r4, #4]
 2128              	.LVL252:
 2129              	.L263:
 2130              	.LBE596:
 2131              	.LBE601:
 2132              	.LBE606:
 2133              	.LBE613:
 2134              		.loc 1 997 0
 2135 0266 2369     		ldr	r3, [r4, #16]
 2136 0268 5A1C     		adds	r2, r3, #1
 2137 026a 05D0     		beq	.L274
 2138              		.loc 1 999 0
 2139 026c 6279     		ldrb	r2, [r4, #5]	@ zero_extendqisi2
 2140              		.loc 1 998 0
 2141 026e 0133     		adds	r3, r3, #1
 2142              		.loc 1 999 0
 2143 0270 42F00102 		orr	r2, r2, #1
 2144              		.loc 1 998 0
 2145 0274 2361     		str	r3, [r4, #16]
 2146              		.loc 1 999 0
 2147 0276 6271     		strb	r2, [r4, #5]
 2148              	.L274:
 2149              		.loc 1 1002 0
 2150 0278 6A1C     		adds	r2, r5, #1
 2151 027a B242     		cmp	r2, r6
 2152 027c 6369     		ldr	r3, [r4, #20]
 2153 027e 1ED0     		beq	.L275
 2154              	.LVL253:
 2155              	.LBB614:
 2156              	.LBB615:
 2157              		.loc 1 852 0
 2158 0280 AAF10201 		sub	r1, r10, #2
 2159              	.LVL254:
 2160              		.loc 1 853 0
 2161 0284 023B     		subs	r3, r3, #2
 2162 0286 9942     		cmp	r1, r3
 2163 0288 A278     		ldrb	r2, [r4, #2]	@ zero_extendqisi2
 2164              		.loc 1 854 0
 2165 028a 38BF     		it	cc
 2166 028c A06A     		ldrcc	r0, [r4, #40]
ARM GAS  C:\Users\mathi\AppData\Local\Temp\ccjAIMZ3.s 			page 39


 2167              	.LBE615:
 2168              	.LBE614:
 2169              	.LBB617:
 2170              	.LBB618:
 2171              		.loc 1 852 0
 2172 028e A5F10205 		sub	r5, r5, #2
 2173              	.LVL255:
 2174              	.LBE618:
 2175              	.LBE617:
 2176              	.LBB621:
 2177              	.LBB616:
 2178              		.loc 1 854 0
 2179 0292 34BF     		ite	cc
 2180 0294 02FB0101 		mlacc	r1, r2, r1, r0
 2181              	.LVL256:
 2182              		.loc 1 853 0
 2183 0298 0021     		movcs	r1, #0
 2184              	.LVL257:
 2185              	.LBE616:
 2186              	.LBE621:
 2187              	.LBB622:
 2188              	.LBB619:
 2189 029a AB42     		cmp	r3, r5
 2190              		.loc 1 854 0
 2191 029c 88BF     		it	hi
 2192 029e A36A     		ldrhi	r3, [r4, #40]
 2193              	.LBE619:
 2194              	.LBE622:
 2195              		.loc 1 1005 0
 2196 02a0 0391     		str	r1, [sp, #12]
 2197              	.LVL258:
 2198              	.LBB623:
 2199              	.LBB620:
 2200              		.loc 1 854 0
 2201 02a2 8CBF     		ite	hi
 2202 02a4 02FB0535 		mlahi	r5, r2, r5, r3
 2203              	.LVL259:
 2204              		.loc 1 853 0
 2205 02a8 0025     		movls	r5, #0
 2206              	.LBE620:
 2207              	.LBE623:
 2208              		.loc 1 1006 0
 2209 02aa 013A     		subs	r2, r2, #1
 2210 02ac 1544     		add	r5, r5, r2
 2211              		.loc 1 1007 0
 2212 02ae 0421     		movs	r1, #4
 2213 02b0 03AA     		add	r2, sp, #12
 2214 02b2 6078     		ldrb	r0, [r4, #1]	@ zero_extendqisi2
 2215              		.loc 1 1006 0
 2216 02b4 0495     		str	r5, [sp, #16]
 2217              		.loc 1 1007 0
 2218 02b6 FFF7FEFF 		bl	disk_ioctl
 2219              	.LVL260:
 2220 02ba 6369     		ldr	r3, [r4, #20]
 2221 02bc B246     		mov	r10, r6
 2222              	.LVL261:
 2223              	.L275:
ARM GAS  C:\Users\mathi\AppData\Local\Temp\ccjAIMZ3.s 			page 40


 2224 02be 3546     		mov	r5, r6
 2225              	.LVL262:
 2226              		.loc 1 990 0
 2227 02c0 9D42     		cmp	r5, r3
 2228 02c2 FFF4ACAE 		bcc	.L278
 2229              	.L279:
 2230              		.loc 1 982 0
 2231 02c6 0020     		movs	r0, #0
 2232 02c8 B4E6     		b	.L216
 2233              	.L352:
 2234 02ca 00BF     		.align	2
 2235              	.L351:
 2236 02cc 00000000 		.word	__stack_chk_guard
 2237              	.LVL263:
 2238              	.L346:
 2239              	.LBB624:
 2240              	.LBB607:
 2241              	.LBB602:
 2242              	.LBB597:
 2243              		.loc 1 929 0
 2244 02d0 226A     		ldr	r2, [r4, #32]
 2245              	.LBB558:
 2246              	.LBB559:
 2247              		.loc 1 786 0
 2248 02d2 E76A     		ldr	r7, [r4, #44]
 2249              	.LBE559:
 2250              	.LBE558:
 2251              		.loc 1 928 0
 2252 02d4 05EB5508 		add	r8, r5, r5, lsr #1
 2253              	.LVL264:
 2254              		.loc 1 929 0
 2255 02d8 02EB5829 		add	r9, r2, r8, lsr #9
 2256              	.LVL265:
 2257              	.LBB572:
 2258              	.LBB570:
 2259              		.loc 1 786 0
 2260 02dc B945     		cmp	r9, r7
 2261 02de 00F09D80 		beq	.L251
 2262              	.LVL266:
 2263              	.LBB560:
 2264              	.LBB561:
 2265              		.loc 1 763 0
 2266 02e2 2279     		ldrb	r2, [r4, #4]	@ zero_extendqisi2
 2267 02e4 6078     		ldrb	r0, [r4, #1]	@ zero_extendqisi2
 2268 02e6 002A     		cmp	r2, #0
 2269 02e8 00F08C80 		beq	.L252
 2270              	.LVL267:
 2271              	.LBB562:
 2272              	.LBB563:
 2273              		.loc 1 765 0
 2274 02ec 3A46     		mov	r2, r7
 2275 02ee 5946     		mov	r1, fp
 2276 02f0 FFF7FEFF 		bl	disk_write
 2277              	.LVL268:
 2278 02f4 0028     		cmp	r0, #0
 2279 02f6 68D0     		beq	.L348
 2280              	.LVL269:
ARM GAS  C:\Users\mathi\AppData\Local\Temp\ccjAIMZ3.s 			page 41


 2281              	.L253:
 2282              	.LBE563:
 2283              	.LBE562:
 2284              	.LBE561:
 2285              	.LBE560:
 2286              	.LBE570:
 2287              	.LBE572:
 2288              		.loc 1 959 0
 2289 02f8 0120     		movs	r0, #1
 2290 02fa 2071     		strb	r0, [r4, #4]
 2291              	.LVL270:
 2292 02fc 9AE6     		b	.L216
 2293              	.LVL271:
 2294              	.L249:
 2295              		.loc 1 949 0
 2296 02fe 276A     		ldr	r7, [r4, #32]
 2297              	.LBB573:
 2298              	.LBB574:
 2299              		.loc 1 786 0
 2300 0300 D4F82C80 		ldr	r8, [r4, #44]
 2301              	.LBE574:
 2302              	.LBE573:
 2303              		.loc 1 949 0
 2304 0304 07EBD517 		add	r7, r7, r5, lsr #7
 2305              	.LVL272:
 2306              	.LBB582:
 2307              	.LBB581:
 2308              		.loc 1 786 0
 2309 0308 4745     		cmp	r7, r8
 2310 030a 2DD0     		beq	.L270
 2311              	.LVL273:
 2312              	.LBB575:
 2313              	.LBB576:
 2314              		.loc 1 763 0
 2315 030c 2379     		ldrb	r3, [r4, #4]	@ zero_extendqisi2
 2316 030e 6078     		ldrb	r0, [r4, #1]	@ zero_extendqisi2
 2317 0310 13B3     		cbz	r3, .L271
 2318              	.LVL274:
 2319              	.LBB577:
 2320              	.LBB578:
 2321              		.loc 1 765 0
 2322 0312 0123     		movs	r3, #1
 2323 0314 4246     		mov	r2, r8
 2324 0316 5946     		mov	r1, fp
 2325 0318 FFF7FEFF 		bl	disk_write
 2326              	.LVL275:
 2327 031c 0028     		cmp	r0, #0
 2328 031e EBD1     		bne	.L253
 2329              		.loc 1 768 0
 2330 0320 226A     		ldr	r2, [r4, #32]
 2331 0322 A369     		ldr	r3, [r4, #24]
 2332              		.loc 1 767 0
 2333 0324 2071     		strb	r0, [r4, #4]
 2334              		.loc 1 768 0
 2335 0326 A8EB0202 		sub	r2, r8, r2
 2336 032a 9A42     		cmp	r2, r3
 2337 032c 6078     		ldrb	r0, [r4, #1]	@ zero_extendqisi2
ARM GAS  C:\Users\mathi\AppData\Local\Temp\ccjAIMZ3.s 			page 42


 2338 032e 13D2     		bcs	.L271
 2339              		.loc 1 769 0
 2340 0330 94F80390 		ldrb	r9, [r4, #3]	@ zero_extendqisi2
 2341              	.LVL276:
 2342 0334 B9F1010F 		cmp	r9, #1
 2343 0338 02D8     		bhi	.L273
 2344 033a 0DE0     		b	.L271
 2345              	.L272:
 2346 033c A369     		ldr	r3, [r4, #24]
 2347 033e 6078     		ldrb	r0, [r4, #1]	@ zero_extendqisi2
 2348              	.L273:
 2349              		.loc 1 770 0
 2350 0340 9844     		add	r8, r8, r3
 2351              	.LVL277:
 2352              		.loc 1 769 0
 2353 0342 09F1FF39 		add	r9, r9, #-1
 2354              	.LVL278:
 2355              		.loc 1 771 0
 2356 0346 4246     		mov	r2, r8
 2357 0348 0123     		movs	r3, #1
 2358 034a 5946     		mov	r1, fp
 2359 034c FFF7FEFF 		bl	disk_write
 2360              	.LVL279:
 2361              		.loc 1 769 0
 2362 0350 B9F1010F 		cmp	r9, #1
 2363 0354 F2D1     		bne	.L272
 2364 0356 6078     		ldrb	r0, [r4, #1]	@ zero_extendqisi2
 2365              	.LVL280:
 2366              	.L271:
 2367              	.LBE578:
 2368              	.LBE577:
 2369              	.LBE576:
 2370              	.LBE575:
 2371              	.LBB579:
 2372              	.LBB580:
 2373              		.loc 1 791 0
 2374 0358 0123     		movs	r3, #1
 2375 035a 3A46     		mov	r2, r7
 2376 035c 5946     		mov	r1, fp
 2377 035e FFF7FEFF 		bl	disk_read
 2378              	.LVL281:
 2379 0362 0028     		cmp	r0, #0
 2380 0364 C8D1     		bne	.L253
 2381              		.loc 1 793 0
 2382 0366 E762     		str	r7, [r4, #44]
 2383              	.LVL282:
 2384              	.L270:
 2385              	.LBE580:
 2386              	.LBE579:
 2387              	.LBE581:
 2388              	.LBE582:
 2389              		.loc 1 951 0
 2390 0368 AA00     		lsls	r2, r5, #2
 2391 036a 02F4FE72 		and	r2, r2, #508
 2392 036e 02F13003 		add	r3, r2, #48
 2393 0372 2344     		add	r3, r3, r4
 2394              	.LVL283:
ARM GAS  C:\Users\mathi\AppData\Local\Temp\ccjAIMZ3.s 			page 43


 2395              		.loc 1 952 0
 2396 0374 2244     		add	r2, r2, r4
 2397 0376 D978     		ldrb	r1, [r3, #3]	@ zero_extendqisi2
 2398              	.LVL284:
 2399              		.loc 1 953 0
 2400 0378 4FF00000 		mov	r0, #0
 2401 037c 82F83000 		strb	r0, [r2, #48]
 2402 0380 01F0F002 		and	r2, r1, #240
 2403 0384 DA70     		strb	r2, [r3, #3]
 2404              	.LVL285:
 2405 0386 5870     		strb	r0, [r3, #1]
 2406 0388 9870     		strb	r0, [r3, #2]
 2407              		.loc 1 959 0
 2408 038a 4FF00103 		mov	r3, #1
 2409              	.LVL286:
 2410 038e 2371     		strb	r3, [r4, #4]
 2411              	.LVL287:
 2412 0390 69E7     		b	.L263
 2413              	.LVL288:
 2414              	.L347:
 2415              	.LBE597:
 2416              	.LBE602:
 2417              	.LBE607:
 2418              	.LBE624:
 2419              	.LBB625:
 2420              	.LBB541:
 2421              	.LBB536:
 2422              	.LBB531:
 2423              	.LBB525:
 2424              	.LBB512:
 2425              	.LBB507:
 2426              	.LBB505:
 2427              	.LBB503:
 2428              	.LBB501:
 2429              		.loc 1 768 0
 2430 0392 226A     		ldr	r2, [r4, #32]
 2431 0394 A369     		ldr	r3, [r4, #24]
 2432              		.loc 1 767 0
 2433 0396 2071     		strb	r0, [r4, #4]
 2434              		.loc 1 768 0
 2435 0398 BA1A     		subs	r2, r7, r2
 2436 039a 9A42     		cmp	r2, r3
 2437 039c C0F0C280 		bcc	.L236
 2438              	.L340:
 2439 03a0 6078     		ldrb	r0, [r4, #1]	@ zero_extendqisi2
 2440              	.LVL289:
 2441              	.L235:
 2442              	.LBE501:
 2443              	.LBE503:
 2444              	.LBE505:
 2445              	.LBE507:
 2446              	.LBB508:
 2447              	.LBB509:
 2448              		.loc 1 791 0
 2449 03a2 0123     		movs	r3, #1
 2450 03a4 3246     		mov	r2, r6
 2451 03a6 5946     		mov	r1, fp
ARM GAS  C:\Users\mathi\AppData\Local\Temp\ccjAIMZ3.s 			page 44


 2452 03a8 FFF7FEFF 		bl	disk_read
 2453              	.LVL290:
 2454 03ac 0028     		cmp	r0, #0
 2455 03ae 7FF4CFAE 		bne	.L227
 2456              		.loc 1 793 0
 2457 03b2 E662     		str	r6, [r4, #44]
 2458              	.LVL291:
 2459              	.L234:
 2460              	.LBE509:
 2461              	.LBE508:
 2462              	.LBE512:
 2463              	.LBE525:
 2464              		.loc 1 888 0
 2465 03b4 6B00     		lsls	r3, r5, #1
 2466 03b6 03F4FF73 		and	r3, r3, #510
 2467              	.LVL292:
 2468              		.loc 1 889 0
 2469 03ba 2344     		add	r3, r3, r4
 2470              	.LVL293:
 2471 03bc 93F83120 		ldrb	r2, [r3, #49]	@ zero_extendqisi2
 2472 03c0 93F83060 		ldrb	r6, [r3, #48]	@ zero_extendqisi2
 2473 03c4 46EA0226 		orr	r6, r6, r2, lsl #8
 2474 03c8 99E6     		b	.L233
 2475              	.LVL294:
 2476              	.L348:
 2477              	.LBE531:
 2478              	.LBE536:
 2479              	.LBE541:
 2480              	.LBE625:
 2481              	.LBB626:
 2482              	.LBB608:
 2483              	.LBB603:
 2484              	.LBB598:
 2485              	.LBB583:
 2486              	.LBB571:
 2487              	.LBB567:
 2488              	.LBB566:
 2489              	.LBB565:
 2490              	.LBB564:
 2491              		.loc 1 768 0
 2492 03ca 226A     		ldr	r2, [r4, #32]
 2493 03cc A369     		ldr	r3, [r4, #24]
 2494              		.loc 1 767 0
 2495 03ce 2071     		strb	r0, [r4, #4]
 2496              		.loc 1 768 0
 2497 03d0 BA1A     		subs	r2, r7, r2
 2498 03d2 9A42     		cmp	r2, r3
 2499 03d4 15D2     		bcs	.L341
 2500              		.loc 1 769 0
 2501 03d6 E278     		ldrb	r2, [r4, #3]	@ zero_extendqisi2
 2502              	.LVL295:
 2503 03d8 012A     		cmp	r2, #1
 2504 03da 12D9     		bls	.L341
 2505 03dc CDF800A0 		str	r10, [sp]
 2506 03e0 9246     		mov	r10, r2
 2507              	.LVL296:
 2508 03e2 00E0     		b	.L257
ARM GAS  C:\Users\mathi\AppData\Local\Temp\ccjAIMZ3.s 			page 45


 2509              	.LVL297:
 2510              	.L256:
 2511 03e4 A369     		ldr	r3, [r4, #24]
 2512              	.L257:
 2513              		.loc 1 771 0
 2514 03e6 6078     		ldrb	r0, [r4, #1]	@ zero_extendqisi2
 2515              		.loc 1 770 0
 2516 03e8 1F44     		add	r7, r7, r3
 2517              	.LVL298:
 2518              		.loc 1 769 0
 2519 03ea 0AF1FF3A 		add	r10, r10, #-1
 2520              	.LVL299:
 2521              		.loc 1 771 0
 2522 03ee 3A46     		mov	r2, r7
 2523 03f0 0123     		movs	r3, #1
 2524 03f2 5946     		mov	r1, fp
 2525 03f4 FFF7FEFF 		bl	disk_write
 2526              	.LVL300:
 2527              		.loc 1 769 0
 2528 03f8 BAF1010F 		cmp	r10, #1
 2529 03fc F2D1     		bne	.L256
 2530 03fe DDF800A0 		ldr	r10, [sp]
 2531              	.LVL301:
 2532              	.L341:
 2533 0402 6078     		ldrb	r0, [r4, #1]	@ zero_extendqisi2
 2534              	.LVL302:
 2535              	.L252:
 2536              	.LBE564:
 2537              	.LBE565:
 2538              	.LBE566:
 2539              	.LBE567:
 2540              	.LBB568:
 2541              	.LBB569:
 2542              		.loc 1 791 0
 2543 0404 0123     		movs	r3, #1
 2544 0406 4A46     		mov	r2, r9
 2545 0408 5946     		mov	r1, fp
 2546 040a FFF7FEFF 		bl	disk_read
 2547              	.LVL303:
 2548 040e 0028     		cmp	r0, #0
 2549 0410 7FF472AF 		bne	.L253
 2550 0414 226A     		ldr	r2, [r4, #32]
 2551              		.loc 1 793 0
 2552 0416 C4F82C90 		str	r9, [r4, #44]
 2553              	.LVL304:
 2554 041a 4F46     		mov	r7, r9
 2555              	.LVL305:
 2556              	.L251:
 2557 041c 08F10109 		add	r9, r8, #1
 2558 0420 02EB5922 		add	r2, r2, r9, lsr #9
 2559              	.LBE569:
 2560              	.LBE568:
 2561              	.LBE571:
 2562              	.LBE583:
 2563              		.loc 1 931 0
 2564 0424 C8F30808 		ubfx	r8, r8, #0, #9
 2565              	.LVL306:
ARM GAS  C:\Users\mathi\AppData\Local\Temp\ccjAIMZ3.s 			page 46


 2566              		.loc 1 932 0
 2567 0428 15F00103 		ands	r3, r5, #1
 2568 042c 0092     		str	r2, [sp]
 2569 042e A044     		add	r8, r8, r4
 2570 0430 0193     		str	r3, [sp, #4]
 2571 0432 14D0     		beq	.L258
 2572 0434 98F83030 		ldrb	r3, [r8, #48]	@ zero_extendqisi2
 2573 0438 03F00F03 		and	r3, r3, #15
 2574 043c 88F83030 		strb	r3, [r8, #48]
 2575              	.LVL307:
 2576              	.LBB584:
 2577              	.LBB585:
 2578              		.loc 1 786 0
 2579 0440 9742     		cmp	r7, r2
 2580              	.LBE585:
 2581              	.LBE584:
 2582              		.loc 1 934 0
 2583 0442 4FF00103 		mov	r3, #1
 2584 0446 2371     		strb	r3, [r4, #4]
 2585              	.LVL308:
 2586              	.LBB594:
 2587              	.LBB592:
 2588              		.loc 1 786 0
 2589 0448 13D1     		bne	.L286
 2590              	.LBE592:
 2591              	.LBE594:
 2592              		.loc 1 937 0
 2593 044a C9F30809 		ubfx	r9, r9, #0, #9
 2594              	.LVL309:
 2595 044e A144     		add	r9, r9, r4
 2596              	.LVL310:
 2597              		.loc 1 938 0
 2598 0450 0023     		movs	r3, #0
 2599              	.LVL311:
 2600              	.L262:
 2601 0452 89F83030 		strb	r3, [r9, #48]
 2602              	.LVL312:
 2603              		.loc 1 959 0
 2604 0456 4FF00103 		mov	r3, #1
 2605 045a 2371     		strb	r3, [r4, #4]
 2606              	.LVL313:
 2607 045c 03E7     		b	.L263
 2608              	.LVL314:
 2609              	.L258:
 2610              		.loc 1 932 0
 2611 045e 9DF80430 		ldrb	r3, [sp, #4]	@ zero_extendqisi2
 2612 0462 88F83030 		strb	r3, [r8, #48]
 2613              	.LVL315:
 2614              		.loc 1 934 0
 2615 0466 4FF00103 		mov	r3, #1
 2616 046a 2371     		strb	r3, [r4, #4]
 2617              	.LVL316:
 2618              	.LBB595:
 2619              	.LBB593:
 2620              		.loc 1 786 0
 2621 046c 009B     		ldr	r3, [sp]
 2622 046e 9F42     		cmp	r7, r3
ARM GAS  C:\Users\mathi\AppData\Local\Temp\ccjAIMZ3.s 			page 47


 2623 0470 6DD0     		beq	.L349
 2624              	.LVL317:
 2625              	.L286:
 2626              	.LBB586:
 2627              	.LBB587:
 2628              	.LBB588:
 2629              	.LBB589:
 2630              		.loc 1 765 0
 2631 0472 0123     		movs	r3, #1
 2632 0474 3A46     		mov	r2, r7
 2633 0476 5946     		mov	r1, fp
 2634 0478 6078     		ldrb	r0, [r4, #1]	@ zero_extendqisi2
 2635 047a FFF7FEFF 		bl	disk_write
 2636              	.LVL318:
 2637 047e 0028     		cmp	r0, #0
 2638 0480 7FF43AAF 		bne	.L253
 2639              		.loc 1 768 0
 2640 0484 226A     		ldr	r2, [r4, #32]
 2641 0486 A369     		ldr	r3, [r4, #24]
 2642              		.loc 1 767 0
 2643 0488 2071     		strb	r0, [r4, #4]
 2644              		.loc 1 768 0
 2645 048a BA1A     		subs	r2, r7, r2
 2646 048c 9A42     		cmp	r2, r3
 2647 048e 12D2     		bcs	.L260
 2648              		.loc 1 769 0
 2649 0490 94F80380 		ldrb	r8, [r4, #3]	@ zero_extendqisi2
 2650              	.LVL319:
 2651 0494 B8F1010F 		cmp	r8, #1
 2652 0498 01D8     		bhi	.L261
 2653 049a 0CE0     		b	.L260
 2654              	.L350:
 2655 049c A369     		ldr	r3, [r4, #24]
 2656              	.L261:
 2657              		.loc 1 771 0
 2658 049e 6078     		ldrb	r0, [r4, #1]	@ zero_extendqisi2
 2659              		.loc 1 770 0
 2660 04a0 1F44     		add	r7, r7, r3
 2661              	.LVL320:
 2662              		.loc 1 769 0
 2663 04a2 08F1FF38 		add	r8, r8, #-1
 2664              	.LVL321:
 2665              		.loc 1 771 0
 2666 04a6 3A46     		mov	r2, r7
 2667 04a8 0123     		movs	r3, #1
 2668 04aa 5946     		mov	r1, fp
 2669 04ac FFF7FEFF 		bl	disk_write
 2670              	.LVL322:
 2671              		.loc 1 769 0
 2672 04b0 B8F1010F 		cmp	r8, #1
 2673 04b4 F2D1     		bne	.L350
 2674              	.LVL323:
 2675              	.L260:
 2676              	.LBE589:
 2677              	.LBE588:
 2678              	.LBE587:
 2679              	.LBE586:
ARM GAS  C:\Users\mathi\AppData\Local\Temp\ccjAIMZ3.s 			page 48


 2680              	.LBB590:
 2681              	.LBB591:
 2682              		.loc 1 791 0
 2683 04b6 0123     		movs	r3, #1
 2684 04b8 009A     		ldr	r2, [sp]
 2685 04ba 6078     		ldrb	r0, [r4, #1]	@ zero_extendqisi2
 2686 04bc 5946     		mov	r1, fp
 2687 04be FFF7FEFF 		bl	disk_read
 2688              	.LVL324:
 2689 04c2 0028     		cmp	r0, #0
 2690 04c4 7FF418AF 		bne	.L253
 2691              		.loc 1 793 0
 2692 04c8 009B     		ldr	r3, [sp]
 2693 04ca E362     		str	r3, [r4, #44]
 2694              	.LBE591:
 2695              	.LBE590:
 2696              	.LBE593:
 2697              	.LBE595:
 2698              		.loc 1 938 0
 2699 04cc 019B     		ldr	r3, [sp, #4]
 2700              		.loc 1 937 0
 2701 04ce C9F30809 		ubfx	r9, r9, #0, #9
 2702              	.LVL325:
 2703              		.loc 1 938 0
 2704 04d2 002B     		cmp	r3, #0
 2705 04d4 40D1     		bne	.L290
 2706              	.LVL326:
 2707              	.L285:
 2708 04d6 A144     		add	r9, r9, r4
 2709              	.LVL327:
 2710 04d8 99F83030 		ldrb	r3, [r9, #48]	@ zero_extendqisi2
 2711 04dc 03F0F003 		and	r3, r3, #240
 2712 04e0 B7E7     		b	.L262
 2713              	.LVL328:
 2714              	.L345:
 2715              	.LBE598:
 2716              	.LBE603:
 2717              	.LBE608:
 2718              	.LBE626:
 2719              	.LBB627:
 2720              	.LBB542:
 2721              	.LBB537:
 2722              	.LBB532:
 2723              	.LBB526:
 2724              	.LBB494:
 2725              	.LBB493:
 2726              	.LBB490:
 2727              	.LBB488:
 2728              	.LBB489:
 2729              		.loc 1 765 0
 2730 04e2 0123     		movs	r3, #1
 2731 04e4 3A46     		mov	r2, r7
 2732 04e6 5946     		mov	r1, fp
 2733 04e8 FFF7FEFF 		bl	disk_write
 2734              	.LVL329:
 2735 04ec 0028     		cmp	r0, #0
 2736 04ee 7FF42FAE 		bne	.L227
ARM GAS  C:\Users\mathi\AppData\Local\Temp\ccjAIMZ3.s 			page 49


 2737              		.loc 1 768 0
 2738 04f2 226A     		ldr	r2, [r4, #32]
 2739 04f4 A369     		ldr	r3, [r4, #24]
 2740              		.loc 1 767 0
 2741 04f6 2071     		strb	r0, [r4, #4]
 2742              		.loc 1 768 0
 2743 04f8 BA1A     		subs	r2, r7, r2
 2744 04fa 9A42     		cmp	r2, r3
 2745 04fc 6078     		ldrb	r0, [r4, #1]	@ zero_extendqisi2
 2746 04fe BFF4E8AD 		bcs	.L229
 2747              		.loc 1 769 0
 2748 0502 E678     		ldrb	r6, [r4, #3]	@ zero_extendqisi2
 2749              	.LVL330:
 2750 0504 012E     		cmp	r6, #1
 2751 0506 02D8     		bhi	.L231
 2752 0508 E3E5     		b	.L229
 2753              	.LVL331:
 2754              	.L230:
 2755 050a A369     		ldr	r3, [r4, #24]
 2756 050c 6078     		ldrb	r0, [r4, #1]	@ zero_extendqisi2
 2757              	.LVL332:
 2758              	.L231:
 2759              		.loc 1 770 0
 2760 050e 1F44     		add	r7, r7, r3
 2761              	.LVL333:
 2762              		.loc 1 769 0
 2763 0510 013E     		subs	r6, r6, #1
 2764              	.LVL334:
 2765              		.loc 1 771 0
 2766 0512 3A46     		mov	r2, r7
 2767 0514 0123     		movs	r3, #1
 2768 0516 5946     		mov	r1, fp
 2769 0518 FFF7FEFF 		bl	disk_write
 2770              	.LVL335:
 2771              		.loc 1 769 0
 2772 051c 012E     		cmp	r6, #1
 2773 051e F4D1     		bne	.L230
 2774 0520 6078     		ldrb	r0, [r4, #1]	@ zero_extendqisi2
 2775 0522 D6E5     		b	.L229
 2776              	.LVL336:
 2777              	.L236:
 2778              	.LBE489:
 2779              	.LBE488:
 2780              	.LBE490:
 2781              	.LBE493:
 2782              	.LBE494:
 2783              	.LBE526:
 2784              	.LBB527:
 2785              	.LBB513:
 2786              	.LBB510:
 2787              	.LBB506:
 2788              	.LBB504:
 2789              	.LBB502:
 2790 0524 94F80380 		ldrb	r8, [r4, #3]	@ zero_extendqisi2
 2791              	.LVL337:
 2792 0528 B8F1010F 		cmp	r8, #1
 2793 052c 01D8     		bhi	.L239
ARM GAS  C:\Users\mathi\AppData\Local\Temp\ccjAIMZ3.s 			page 50


 2794 052e 37E7     		b	.L340
 2795              	.L238:
 2796 0530 A369     		ldr	r3, [r4, #24]
 2797              	.L239:
 2798              		.loc 1 771 0
 2799 0532 6078     		ldrb	r0, [r4, #1]	@ zero_extendqisi2
 2800              		.loc 1 770 0
 2801 0534 1F44     		add	r7, r7, r3
 2802              	.LVL338:
 2803              		.loc 1 769 0
 2804 0536 08F1FF38 		add	r8, r8, #-1
 2805              	.LVL339:
 2806              		.loc 1 771 0
 2807 053a 3A46     		mov	r2, r7
 2808 053c 0123     		movs	r3, #1
 2809 053e 5946     		mov	r1, fp
 2810 0540 FFF7FEFF 		bl	disk_write
 2811              	.LVL340:
 2812              		.loc 1 769 0
 2813 0544 B8F1010F 		cmp	r8, #1
 2814 0548 F2D1     		bne	.L238
 2815 054a 6078     		ldrb	r0, [r4, #1]	@ zero_extendqisi2
 2816 054c 29E7     		b	.L235
 2817              	.LVL341:
 2818              	.L349:
 2819              	.LBE502:
 2820              	.LBE504:
 2821              	.LBE506:
 2822              	.LBE510:
 2823              	.LBE513:
 2824              	.LBE527:
 2825              	.LBE532:
 2826              	.LBE537:
 2827              	.LBE542:
 2828              	.LBE627:
 2829              	.LBB628:
 2830              	.LBB609:
 2831              	.LBB604:
 2832              	.LBB599:
 2833              		.loc 1 937 0
 2834 054e C9F30809 		ubfx	r9, r9, #0, #9
 2835              	.LVL342:
 2836 0552 C0E7     		b	.L285
 2837              	.LVL343:
 2838              	.L344:
 2839              	.LBE599:
 2840              	.LBE604:
 2841              	.LBE609:
 2842              	.LBE628:
 2843              		.loc 1 1016 0
 2844 0554 FFF7FEFF 		bl	__stack_chk_fail
 2845              	.LVL344:
 2846              	.L290:
 2847              	.LBB629:
 2848              	.LBB610:
 2849              	.LBB605:
 2850              	.LBB600:
ARM GAS  C:\Users\mathi\AppData\Local\Temp\ccjAIMZ3.s 			page 51


 2851              		.loc 1 938 0
 2852 0558 0346     		mov	r3, r0
 2853 055a A144     		add	r9, r9, r4
 2854              	.LVL345:
 2855 055c 79E7     		b	.L262
 2856              	.LBE600:
 2857              	.LBE605:
 2858              	.LBE610:
 2859              	.LBE629:
 2860              		.cfi_endproc
 2861              	.LFE288:
 2862              		.size	remove_chain.part.9, .-remove_chain.part.9
 2863 055e 00BF     		.section	.text.put_fat.part.7,"ax",%progbits
 2864              		.align	1
 2865              		.p2align 4,,15
 2866              		.syntax unified
 2867              		.thumb
 2868              		.thumb_func
 2869              		.fpu fpv4-sp-d16
 2870              		.type	put_fat.part.7, %function
 2871              	put_fat.part.7:
 2872              	.LFB286:
 2873              		.loc 1 911 0
 2874              		.cfi_startproc
 2875              		@ args = 0, pretend = 0, frame = 16
 2876              		@ frame_needed = 0, uses_anonymous_args = 0
 2877              	.LVL346:
 2878 0000 2DE9F04F 		push	{r4, r5, r6, r7, r8, r9, r10, fp, lr}
 2879              		.cfi_def_cfa_offset 36
 2880              		.cfi_offset 4, -36
 2881              		.cfi_offset 5, -32
 2882              		.cfi_offset 6, -28
 2883              		.cfi_offset 7, -24
 2884              		.cfi_offset 8, -20
 2885              		.cfi_offset 9, -16
 2886              		.cfi_offset 10, -12
 2887              		.cfi_offset 11, -8
 2888              		.cfi_offset 14, -4
 2889 0004 AC4E     		ldr	r6, .L414
 2890              		.loc 1 926 0
 2891 0006 0378     		ldrb	r3, [r0]	@ zero_extendqisi2
 2892              		.loc 1 911 0
 2893 0008 85B0     		sub	sp, sp, #20
 2894              		.cfi_def_cfa_offset 56
 2895              		.loc 1 911 0
 2896 000a 0446     		mov	r4, r0
 2897              		.loc 1 926 0
 2898 000c 022B     		cmp	r3, #2
 2899              		.loc 1 911 0
 2900 000e 3068     		ldr	r0, [r6]
 2901              	.LVL347:
 2902 0010 0390     		str	r0, [sp, #12]
 2903 0012 0D46     		mov	r5, r1
 2904 0014 1746     		mov	r7, r2
 2905              		.loc 1 926 0
 2906 0016 00F0F180 		beq	.L355
 2907 001a 032B     		cmp	r3, #3
ARM GAS  C:\Users\mathi\AppData\Local\Temp\ccjAIMZ3.s 			page 52


 2908 001c 00F09F80 		beq	.L356
 2909 0020 012B     		cmp	r3, #1
 2910 0022 0AD0     		beq	.L411
 2911              		.loc 1 957 0
 2912 0024 0220     		movs	r0, #2
 2913              	.LVL348:
 2914              	.L354:
 2915              		.loc 1 963 0
 2916 0026 039A     		ldr	r2, [sp, #12]
 2917 0028 3368     		ldr	r3, [r6]
 2918              		.loc 1 959 0
 2919 002a 0121     		movs	r1, #1
 2920              		.loc 1 963 0
 2921 002c 9A42     		cmp	r2, r3
 2922              		.loc 1 959 0
 2923 002e 2171     		strb	r1, [r4, #4]
 2924              		.loc 1 963 0
 2925 0030 40F03F81 		bne	.L412
 2926 0034 05B0     		add	sp, sp, #20
 2927              		.cfi_remember_state
 2928              		.cfi_def_cfa_offset 36
 2929              		@ sp needed
 2930 0036 BDE8F08F 		pop	{r4, r5, r6, r7, r8, r9, r10, fp, pc}
 2931              	.LVL349:
 2932              	.L411:
 2933              		.cfi_restore_state
 2934              		.loc 1 929 0
 2935 003a 226A     		ldr	r2, [r4, #32]
 2936              	.LVL350:
 2937              	.LBB670:
 2938              	.LBB671:
 2939              		.loc 1 786 0
 2940 003c D4F82C80 		ldr	r8, [r4, #44]
 2941              	.LBE671:
 2942              	.LBE670:
 2943              		.loc 1 928 0
 2944 0040 01EB5109 		add	r9, r1, r1, lsr #1
 2945              	.LVL351:
 2946              		.loc 1 929 0
 2947 0044 02EB592A 		add	r10, r2, r9, lsr #9
 2948              	.LVL352:
 2949              	.LBB679:
 2950              	.LBB678:
 2951              		.loc 1 786 0
 2952 0048 C245     		cmp	r10, r8
 2953 004a 35D0     		beq	.L358
 2954              	.LVL353:
 2955              	.LBB672:
 2956              	.LBB673:
 2957              		.loc 1 763 0
 2958 004c 2279     		ldrb	r2, [r4, #4]	@ zero_extendqisi2
 2959 004e 6078     		ldrb	r0, [r4, #1]	@ zero_extendqisi2
 2960 0050 04F1300B 		add	fp, r4, #48
 2961 0054 22B3     		cbz	r2, .L359
 2962              	.LVL354:
 2963              	.LBB674:
 2964              	.LBB675:
ARM GAS  C:\Users\mathi\AppData\Local\Temp\ccjAIMZ3.s 			page 53


 2965              		.loc 1 765 0
 2966 0056 4246     		mov	r2, r8
 2967 0058 5946     		mov	r1, fp
 2968              	.LVL355:
 2969 005a FFF7FEFF 		bl	disk_write
 2970              	.LVL356:
 2971 005e 0028     		cmp	r0, #0
 2972 0060 40F00D81 		bne	.L365
 2973              		.loc 1 768 0
 2974 0064 226A     		ldr	r2, [r4, #32]
 2975 0066 A369     		ldr	r3, [r4, #24]
 2976              		.loc 1 767 0
 2977 0068 2071     		strb	r0, [r4, #4]
 2978              		.loc 1 768 0
 2979 006a A8EB0202 		sub	r2, r8, r2
 2980 006e 9A42     		cmp	r2, r3
 2981 0070 15D2     		bcs	.L409
 2982              		.loc 1 769 0
 2983 0072 E278     		ldrb	r2, [r4, #3]	@ zero_extendqisi2
 2984              	.LVL357:
 2985 0074 012A     		cmp	r2, #1
 2986 0076 12D9     		bls	.L409
 2987 0078 CDF80490 		str	r9, [sp, #4]
 2988 007c 9146     		mov	r9, r2
 2989              	.LVL358:
 2990 007e 00E0     		b	.L364
 2991              	.LVL359:
 2992              	.L363:
 2993 0080 A369     		ldr	r3, [r4, #24]
 2994              	.L364:
 2995              		.loc 1 771 0
 2996 0082 6078     		ldrb	r0, [r4, #1]	@ zero_extendqisi2
 2997              		.loc 1 770 0
 2998 0084 9844     		add	r8, r8, r3
 2999              	.LVL360:
 3000              		.loc 1 769 0
 3001 0086 09F1FF39 		add	r9, r9, #-1
 3002              	.LVL361:
 3003              		.loc 1 771 0
 3004 008a 4246     		mov	r2, r8
 3005 008c 0123     		movs	r3, #1
 3006 008e 5946     		mov	r1, fp
 3007 0090 FFF7FEFF 		bl	disk_write
 3008              	.LVL362:
 3009              		.loc 1 769 0
 3010 0094 B9F1010F 		cmp	r9, #1
 3011 0098 F2D1     		bne	.L363
 3012 009a DDF80490 		ldr	r9, [sp, #4]
 3013              	.LVL363:
 3014              	.L409:
 3015 009e 6078     		ldrb	r0, [r4, #1]	@ zero_extendqisi2
 3016              	.LVL364:
 3017              	.L359:
 3018              	.LBE675:
 3019              	.LBE674:
 3020              	.LBE673:
 3021              	.LBE672:
ARM GAS  C:\Users\mathi\AppData\Local\Temp\ccjAIMZ3.s 			page 54


 3022              	.LBB676:
 3023              	.LBB677:
 3024              		.loc 1 791 0
 3025 00a0 5946     		mov	r1, fp
 3026 00a2 0123     		movs	r3, #1
 3027 00a4 5246     		mov	r2, r10
 3028 00a6 FFF7FEFF 		bl	disk_read
 3029              	.LVL365:
 3030 00aa 0028     		cmp	r0, #0
 3031 00ac 40F0E780 		bne	.L365
 3032 00b0 226A     		ldr	r2, [r4, #32]
 3033              		.loc 1 793 0
 3034 00b2 C4F82CA0 		str	r10, [r4, #44]
 3035              	.LVL366:
 3036 00b6 D046     		mov	r8, r10
 3037              	.LVL367:
 3038              	.L358:
 3039 00b8 09F1010B 		add	fp, r9, #1
 3040              	.LBE677:
 3041              	.LBE676:
 3042              	.LBE678:
 3043              	.LBE679:
 3044              		.loc 1 932 0
 3045 00bc 15F00103 		ands	r3, r5, #1
 3046              		.loc 1 931 0
 3047 00c0 C9F30809 		ubfx	r9, r9, #0, #9
 3048              	.LVL368:
 3049 00c4 02EB5B2A 		add	r10, r2, fp, lsr #9
 3050              		.loc 1 932 0
 3051 00c8 A144     		add	r9, r9, r4
 3052              	.LVL369:
 3053 00ca 0193     		str	r3, [sp, #4]
 3054 00cc 00F0D980 		beq	.L366
 3055 00d0 99F83030 		ldrb	r3, [r9, #48]	@ zero_extendqisi2
 3056 00d4 03F00F03 		and	r3, r3, #15
 3057              		.loc 1 934 0
 3058 00d8 0122     		movs	r2, #1
 3059              		.loc 1 932 0
 3060 00da 43EA0713 		orr	r3, r3, r7, lsl #4
 3061              	.LBB680:
 3062              	.LBB681:
 3063              		.loc 1 786 0
 3064 00de D045     		cmp	r8, r10
 3065              	.LBE681:
 3066              	.LBE680:
 3067              		.loc 1 932 0
 3068 00e0 89F83030 		strb	r3, [r9, #48]
 3069              	.LVL370:
 3070              		.loc 1 934 0
 3071 00e4 2271     		strb	r2, [r4, #4]
 3072              	.LVL371:
 3073              	.LBB694:
 3074              	.LBB690:
 3075              		.loc 1 786 0
 3076 00e6 00F0E180 		beq	.L367
 3077              	.LVL372:
 3078              	.L369:
ARM GAS  C:\Users\mathi\AppData\Local\Temp\ccjAIMZ3.s 			page 55


 3079              	.LBB682:
 3080              	.LBB683:
 3081              	.LBB684:
 3082              	.LBB685:
 3083              		.loc 1 765 0
 3084 00ea 04F13005 		add	r5, r4, #48
 3085              	.LVL373:
 3086 00ee 2946     		mov	r1, r5
 3087 00f0 0123     		movs	r3, #1
 3088 00f2 4246     		mov	r2, r8
 3089 00f4 6078     		ldrb	r0, [r4, #1]	@ zero_extendqisi2
 3090 00f6 FFF7FEFF 		bl	disk_write
 3091              	.LVL374:
 3092 00fa 0028     		cmp	r0, #0
 3093 00fc 40F0BF80 		bne	.L365
 3094              		.loc 1 768 0
 3095 0100 226A     		ldr	r2, [r4, #32]
 3096 0102 A369     		ldr	r3, [r4, #24]
 3097              		.loc 1 767 0
 3098 0104 2071     		strb	r0, [r4, #4]
 3099              		.loc 1 768 0
 3100 0106 A8EB0202 		sub	r2, r8, r2
 3101 010a 9A42     		cmp	r2, r3
 3102 010c 12D2     		bcs	.L371
 3103              		.loc 1 769 0
 3104 010e 94F80390 		ldrb	r9, [r4, #3]	@ zero_extendqisi2
 3105              	.LVL375:
 3106 0112 B9F1010F 		cmp	r9, #1
 3107 0116 01D8     		bhi	.L372
 3108 0118 0CE0     		b	.L371
 3109              	.L413:
 3110 011a A369     		ldr	r3, [r4, #24]
 3111              	.L372:
 3112              		.loc 1 771 0
 3113 011c 6078     		ldrb	r0, [r4, #1]	@ zero_extendqisi2
 3114              		.loc 1 770 0
 3115 011e 9844     		add	r8, r8, r3
 3116              	.LVL376:
 3117              		.loc 1 769 0
 3118 0120 09F1FF39 		add	r9, r9, #-1
 3119              	.LVL377:
 3120              		.loc 1 771 0
 3121 0124 4246     		mov	r2, r8
 3122 0126 0123     		movs	r3, #1
 3123 0128 2946     		mov	r1, r5
 3124 012a FFF7FEFF 		bl	disk_write
 3125              	.LVL378:
 3126              		.loc 1 769 0
 3127 012e B9F1010F 		cmp	r9, #1
 3128 0132 F2D1     		bne	.L413
 3129              	.LVL379:
 3130              	.L371:
 3131              	.LBE685:
 3132              	.LBE684:
 3133              	.LBE683:
 3134              	.LBE682:
 3135              	.LBB686:
ARM GAS  C:\Users\mathi\AppData\Local\Temp\ccjAIMZ3.s 			page 56


 3136              	.LBB687:
 3137              		.loc 1 791 0
 3138 0134 2946     		mov	r1, r5
 3139 0136 0123     		movs	r3, #1
 3140 0138 5246     		mov	r2, r10
 3141 013a 6078     		ldrb	r0, [r4, #1]	@ zero_extendqisi2
 3142 013c FFF7FEFF 		bl	disk_read
 3143              	.LVL380:
 3144 0140 0028     		cmp	r0, #0
 3145 0142 40F09C80 		bne	.L365
 3146              	.LBE687:
 3147              	.LBE686:
 3148              	.LBE690:
 3149              	.LBE694:
 3150              		.loc 1 938 0
 3151 0146 019B     		ldr	r3, [sp, #4]
 3152              	.LBB695:
 3153              	.LBB691:
 3154              	.LBB689:
 3155              	.LBB688:
 3156              		.loc 1 793 0
 3157 0148 C4F82CA0 		str	r10, [r4, #44]
 3158              	.LVL381:
 3159              	.LBE688:
 3160              	.LBE689:
 3161              	.LBE691:
 3162              	.LBE695:
 3163              		.loc 1 937 0
 3164 014c CBF3080B 		ubfx	fp, fp, #0, #9
 3165              	.LVL382:
 3166              		.loc 1 938 0
 3167 0150 002B     		cmp	r3, #0
 3168 0152 00F09F80 		beq	.L373
 3169              	.LVL383:
 3170              	.L385:
 3171 0156 C7F30717 		ubfx	r7, r7, #4, #8
 3172              	.LVL384:
 3173 015a A344     		add	fp, fp, r4
 3174              	.LVL385:
 3175 015c A2E0     		b	.L374
 3176              	.LVL386:
 3177              	.L356:
 3178              		.loc 1 949 0
 3179 015e 236A     		ldr	r3, [r4, #32]
 3180              	.LBB696:
 3181              	.LBB697:
 3182              		.loc 1 786 0
 3183 0160 D4F82C90 		ldr	r9, [r4, #44]
 3184              	.LBE697:
 3185              	.LBE696:
 3186              		.loc 1 949 0
 3187 0164 03EBD118 		add	r8, r3, r1, lsr #7
 3188              	.LVL387:
 3189              	.LBB705:
 3190              	.LBB704:
 3191              		.loc 1 786 0
 3192 0168 C845     		cmp	r8, r9
ARM GAS  C:\Users\mathi\AppData\Local\Temp\ccjAIMZ3.s 			page 57


 3193 016a 30D0     		beq	.L381
 3194              	.LVL388:
 3195              	.LBB698:
 3196              	.LBB699:
 3197              		.loc 1 763 0
 3198 016c 2379     		ldrb	r3, [r4, #4]	@ zero_extendqisi2
 3199 016e 6078     		ldrb	r0, [r4, #1]	@ zero_extendqisi2
 3200 0170 04F1300A 		add	r10, r4, #48
 3201 0174 13B3     		cbz	r3, .L382
 3202              	.LVL389:
 3203              	.LBB700:
 3204              	.LBB701:
 3205              		.loc 1 765 0
 3206 0176 0123     		movs	r3, #1
 3207 0178 4A46     		mov	r2, r9
 3208              	.LVL390:
 3209 017a 5146     		mov	r1, r10
 3210              	.LVL391:
 3211 017c FFF7FEFF 		bl	disk_write
 3212              	.LVL392:
 3213 0180 0028     		cmp	r0, #0
 3214 0182 7CD1     		bne	.L365
 3215              		.loc 1 768 0
 3216 0184 226A     		ldr	r2, [r4, #32]
 3217 0186 A369     		ldr	r3, [r4, #24]
 3218              		.loc 1 767 0
 3219 0188 2071     		strb	r0, [r4, #4]
 3220              		.loc 1 768 0
 3221 018a A9EB0202 		sub	r2, r9, r2
 3222 018e 9A42     		cmp	r2, r3
 3223 0190 6078     		ldrb	r0, [r4, #1]	@ zero_extendqisi2
 3224 0192 13D2     		bcs	.L382
 3225              		.loc 1 769 0
 3226 0194 94F803B0 		ldrb	fp, [r4, #3]	@ zero_extendqisi2
 3227              	.LVL393:
 3228 0198 BBF1010F 		cmp	fp, #1
 3229 019c 02D8     		bhi	.L384
 3230 019e 0DE0     		b	.L382
 3231              	.L383:
 3232 01a0 A369     		ldr	r3, [r4, #24]
 3233 01a2 6078     		ldrb	r0, [r4, #1]	@ zero_extendqisi2
 3234              	.L384:
 3235              		.loc 1 770 0
 3236 01a4 9944     		add	r9, r9, r3
 3237              	.LVL394:
 3238              		.loc 1 769 0
 3239 01a6 0BF1FF3B 		add	fp, fp, #-1
 3240              	.LVL395:
 3241              		.loc 1 771 0
 3242 01aa 4A46     		mov	r2, r9
 3243 01ac 0123     		movs	r3, #1
 3244 01ae 5146     		mov	r1, r10
 3245 01b0 FFF7FEFF 		bl	disk_write
 3246              	.LVL396:
 3247              		.loc 1 769 0
 3248 01b4 BBF1010F 		cmp	fp, #1
 3249 01b8 F2D1     		bne	.L383
ARM GAS  C:\Users\mathi\AppData\Local\Temp\ccjAIMZ3.s 			page 58


 3250 01ba 6078     		ldrb	r0, [r4, #1]	@ zero_extendqisi2
 3251              	.LVL397:
 3252              	.L382:
 3253              	.LBE701:
 3254              	.LBE700:
 3255              	.LBE699:
 3256              	.LBE698:
 3257              	.LBB702:
 3258              	.LBB703:
 3259              		.loc 1 791 0
 3260 01bc 5146     		mov	r1, r10
 3261 01be 0123     		movs	r3, #1
 3262 01c0 4246     		mov	r2, r8
 3263 01c2 FFF7FEFF 		bl	disk_read
 3264              	.LVL398:
 3265 01c6 0028     		cmp	r0, #0
 3266 01c8 59D1     		bne	.L365
 3267              		.loc 1 793 0
 3268 01ca C4F82C80 		str	r8, [r4, #44]
 3269              	.LVL399:
 3270              	.L381:
 3271              	.LBE703:
 3272              	.LBE702:
 3273              	.LBE704:
 3274              	.LBE705:
 3275              		.loc 1 951 0
 3276 01ce AD00     		lsls	r5, r5, #2
 3277              	.LVL400:
 3278 01d0 05F4FE75 		and	r5, r5, #508
 3279 01d4 05F13002 		add	r2, r5, #48
 3280 01d8 2244     		add	r2, r2, r4
 3281              	.LVL401:
 3282              		.loc 1 952 0
 3283 01da 2544     		add	r5, r5, r4
 3284 01dc D378     		ldrb	r3, [r2, #3]	@ zero_extendqisi2
 3285 01de 1B06     		lsls	r3, r3, #24
 3286 01e0 03F07043 		and	r3, r3, #-268435456
 3287 01e4 1F43     		orrs	r7, r7, r3
 3288              	.LVL402:
 3289              		.loc 1 953 0
 3290 01e6 85F83070 		strb	r7, [r5, #48]
 3291 01ea C7F30721 		ubfx	r1, r7, #8, #8
 3292 01ee 3B0C     		lsrs	r3, r7, #16
 3293 01f0 3F0E     		lsrs	r7, r7, #24
 3294              	.LVL403:
 3295 01f2 5170     		strb	r1, [r2, #1]
 3296 01f4 9370     		strb	r3, [r2, #2]
 3297 01f6 D770     		strb	r7, [r2, #3]
 3298              	.LVL404:
 3299              		.loc 1 949 0
 3300 01f8 0020     		movs	r0, #0
 3301 01fa 14E7     		b	.L354
 3302              	.LVL405:
 3303              	.L355:
 3304              		.loc 1 942 0
 3305 01fc 236A     		ldr	r3, [r4, #32]
 3306              	.LBB706:
ARM GAS  C:\Users\mathi\AppData\Local\Temp\ccjAIMZ3.s 			page 59


 3307              	.LBB707:
 3308              		.loc 1 786 0
 3309 01fe D4F82C90 		ldr	r9, [r4, #44]
 3310              	.LBE707:
 3311              	.LBE706:
 3312              		.loc 1 942 0
 3313 0202 03EB1128 		add	r8, r3, r1, lsr #8
 3314              	.LVL406:
 3315              	.LBB715:
 3316              	.LBB714:
 3317              		.loc 1 786 0
 3318 0206 C845     		cmp	r8, r9
 3319 0208 2DD0     		beq	.L375
 3320              	.LVL407:
 3321              	.LBB708:
 3322              	.LBB709:
 3323              		.loc 1 763 0
 3324 020a 2379     		ldrb	r3, [r4, #4]	@ zero_extendqisi2
 3325 020c 6078     		ldrb	r0, [r4, #1]	@ zero_extendqisi2
 3326 020e 04F1300A 		add	r10, r4, #48
 3327 0212 03B3     		cbz	r3, .L376
 3328              	.LVL408:
 3329              	.LBB710:
 3330              	.LBB711:
 3331              		.loc 1 765 0
 3332 0214 0123     		movs	r3, #1
 3333 0216 4A46     		mov	r2, r9
 3334              	.LVL409:
 3335 0218 5146     		mov	r1, r10
 3336              	.LVL410:
 3337 021a FFF7FEFF 		bl	disk_write
 3338              	.LVL411:
 3339 021e 70BB     		cbnz	r0, .L365
 3340              		.loc 1 768 0
 3341 0220 226A     		ldr	r2, [r4, #32]
 3342 0222 A369     		ldr	r3, [r4, #24]
 3343              		.loc 1 767 0
 3344 0224 2071     		strb	r0, [r4, #4]
 3345              		.loc 1 768 0
 3346 0226 A9EB0202 		sub	r2, r9, r2
 3347 022a 9A42     		cmp	r2, r3
 3348 022c 12D2     		bcs	.L410
 3349              		.loc 1 769 0
 3350 022e 94F803B0 		ldrb	fp, [r4, #3]	@ zero_extendqisi2
 3351              	.LVL412:
 3352 0232 BBF1010F 		cmp	fp, #1
 3353 0236 01D8     		bhi	.L380
 3354 0238 0CE0     		b	.L410
 3355              	.L379:
 3356 023a A369     		ldr	r3, [r4, #24]
 3357              	.L380:
 3358              		.loc 1 771 0
 3359 023c 6078     		ldrb	r0, [r4, #1]	@ zero_extendqisi2
 3360              		.loc 1 770 0
 3361 023e 9944     		add	r9, r9, r3
 3362              	.LVL413:
 3363              		.loc 1 769 0
ARM GAS  C:\Users\mathi\AppData\Local\Temp\ccjAIMZ3.s 			page 60


 3364 0240 0BF1FF3B 		add	fp, fp, #-1
 3365              	.LVL414:
 3366              		.loc 1 771 0
 3367 0244 4A46     		mov	r2, r9
 3368 0246 0123     		movs	r3, #1
 3369 0248 5146     		mov	r1, r10
 3370 024a FFF7FEFF 		bl	disk_write
 3371              	.LVL415:
 3372              		.loc 1 769 0
 3373 024e BBF1010F 		cmp	fp, #1
 3374 0252 F2D1     		bne	.L379
 3375              	.LVL416:
 3376              	.L410:
 3377 0254 6078     		ldrb	r0, [r4, #1]	@ zero_extendqisi2
 3378              	.LVL417:
 3379              	.L376:
 3380              	.LBE711:
 3381              	.LBE710:
 3382              	.LBE709:
 3383              	.LBE708:
 3384              	.LBB712:
 3385              	.LBB713:
 3386              		.loc 1 791 0
 3387 0256 5146     		mov	r1, r10
 3388 0258 0123     		movs	r3, #1
 3389 025a 4246     		mov	r2, r8
 3390 025c FFF7FEFF 		bl	disk_read
 3391              	.LVL418:
 3392 0260 68B9     		cbnz	r0, .L365
 3393              		.loc 1 793 0
 3394 0262 C4F82C80 		str	r8, [r4, #44]
 3395              	.LVL419:
 3396              	.L375:
 3397              	.LBE713:
 3398              	.LBE712:
 3399              	.LBE714:
 3400              	.LBE715:
 3401              		.loc 1 944 0
 3402 0266 6D00     		lsls	r5, r5, #1
 3403              	.LVL420:
 3404 0268 05F4FF75 		and	r5, r5, #510
 3405              	.LVL421:
 3406              		.loc 1 945 0
 3407 026c 2544     		add	r5, r5, r4
 3408              	.LVL422:
 3409 026e C7F30723 		ubfx	r3, r7, #8, #8
 3410 0272 85F83070 		strb	r7, [r5, #48]
 3411 0276 85F83130 		strb	r3, [r5, #49]
 3412              		.loc 1 942 0
 3413 027a 0020     		movs	r0, #0
 3414 027c D3E6     		b	.L354
 3415              	.LVL423:
 3416              	.L365:
 3417              		.loc 1 957 0
 3418 027e 0120     		movs	r0, #1
 3419 0280 D1E6     		b	.L354
 3420              	.LVL424:
ARM GAS  C:\Users\mathi\AppData\Local\Temp\ccjAIMZ3.s 			page 61


 3421              	.L366:
 3422              		.loc 1 934 0
 3423 0282 0123     		movs	r3, #1
 3424              	.LBB716:
 3425              	.LBB692:
 3426              		.loc 1 786 0
 3427 0284 D045     		cmp	r8, r10
 3428              	.LBE692:
 3429              	.LBE716:
 3430              		.loc 1 932 0
 3431 0286 89F83070 		strb	r7, [r9, #48]
 3432              	.LVL425:
 3433              		.loc 1 934 0
 3434 028a 2371     		strb	r3, [r4, #4]
 3435              	.LVL426:
 3436              	.LBB717:
 3437              	.LBB693:
 3438              		.loc 1 786 0
 3439 028c 7FF42DAF 		bne	.L369
 3440              	.LBE693:
 3441              	.LBE717:
 3442              		.loc 1 937 0
 3443 0290 CBF3080B 		ubfx	fp, fp, #0, #9
 3444              	.LVL427:
 3445              	.L373:
 3446              		.loc 1 938 0
 3447 0294 A344     		add	fp, fp, r4
 3448              	.LVL428:
 3449 0296 C7F30323 		ubfx	r3, r7, #8, #4
 3450 029a 9BF83070 		ldrb	r7, [fp, #48]	@ zero_extendqisi2
 3451              	.LVL429:
 3452 029e 27F00F07 		bic	r7, r7, #15
 3453 02a2 1F43     		orrs	r7, r7, r3
 3454              	.L374:
 3455 02a4 8BF83070 		strb	r7, [fp, #48]
 3456              		.loc 1 935 0
 3457 02a8 0020     		movs	r0, #0
 3458 02aa BCE6     		b	.L354
 3459              	.LVL430:
 3460              	.L367:
 3461              		.loc 1 937 0
 3462 02ac CBF3080B 		ubfx	fp, fp, #0, #9
 3463              	.LVL431:
 3464 02b0 51E7     		b	.L385
 3465              	.LVL432:
 3466              	.L412:
 3467              		.loc 1 963 0
 3468 02b2 FFF7FEFF 		bl	__stack_chk_fail
 3469              	.LVL433:
 3470              	.L415:
 3471 02b6 00BF     		.align	2
 3472              	.L414:
 3473 02b8 00000000 		.word	__stack_chk_guard
 3474              		.cfi_endproc
 3475              	.LFE286:
 3476              		.size	put_fat.part.7, .-put_fat.part.7
 3477              		.section	.text.get_fat.part.6,"ax",%progbits
ARM GAS  C:\Users\mathi\AppData\Local\Temp\ccjAIMZ3.s 			page 62


 3478              		.align	1
 3479              		.p2align 4,,15
 3480              		.syntax unified
 3481              		.thumb
 3482              		.thumb_func
 3483              		.fpu fpv4-sp-d16
 3484              		.type	get_fat.part.6, %function
 3485              	get_fat.part.6:
 3486              	.LFB285:
 3487              		.loc 1 865 0
 3488              		.cfi_startproc
 3489              		@ args = 0, pretend = 0, frame = 16
 3490              		@ frame_needed = 0, uses_anonymous_args = 0
 3491              	.LVL434:
 3492 0000 2DE9F04F 		push	{r4, r5, r6, r7, r8, r9, r10, fp, lr}
 3493              		.cfi_def_cfa_offset 36
 3494              		.cfi_offset 4, -36
 3495              		.cfi_offset 5, -32
 3496              		.cfi_offset 6, -28
 3497              		.cfi_offset 7, -24
 3498              		.cfi_offset 8, -20
 3499              		.cfi_offset 9, -16
 3500              		.cfi_offset 10, -12
 3501              		.cfi_offset 11, -8
 3502              		.cfi_offset 14, -4
 3503 0004 964E     		ldr	r6, .L464
 3504              		.loc 1 877 0
 3505 0006 0378     		ldrb	r3, [r0]	@ zero_extendqisi2
 3506              		.loc 1 865 0
 3507 0008 3268     		ldr	r2, [r6]
 3508 000a 85B0     		sub	sp, sp, #20
 3509              		.cfi_def_cfa_offset 56
 3510              		.loc 1 877 0
 3511 000c 022B     		cmp	r3, #2
 3512              		.loc 1 865 0
 3513 000e 0446     		mov	r4, r0
 3514 0010 0392     		str	r2, [sp, #12]
 3515 0012 0D46     		mov	r5, r1
 3516              		.loc 1 877 0
 3517 0014 00F0E080 		beq	.L418
 3518 0018 032B     		cmp	r3, #3
 3519 001a 00F09180 		beq	.L419
 3520 001e 012B     		cmp	r3, #1
 3521 0020 08D0     		beq	.L462
 3522              		.loc 1 897 0
 3523 0022 0120     		movs	r0, #1
 3524              	.LVL435:
 3525              	.L416:
 3526              		.loc 1 901 0
 3527 0024 039A     		ldr	r2, [sp, #12]
 3528 0026 3368     		ldr	r3, [r6]
 3529 0028 9A42     		cmp	r2, r3
 3530 002a 40F01781 		bne	.L463
 3531 002e 05B0     		add	sp, sp, #20
 3532              		.cfi_remember_state
 3533              		.cfi_def_cfa_offset 36
 3534              		@ sp needed
ARM GAS  C:\Users\mathi\AppData\Local\Temp\ccjAIMZ3.s 			page 63


 3535 0030 BDE8F08F 		pop	{r4, r5, r6, r7, r8, r9, r10, fp, pc}
 3536              	.LVL436:
 3537              	.L462:
 3538              		.cfi_restore_state
 3539              		.loc 1 880 0
 3540 0034 026A     		ldr	r2, [r0, #32]
 3541              	.LBB758:
 3542              	.LBB759:
 3543              		.loc 1 786 0
 3544 0036 C76A     		ldr	r7, [r0, #44]
 3545              	.LBE759:
 3546              	.LBE758:
 3547              		.loc 1 879 0
 3548 0038 01EB5108 		add	r8, r1, r1, lsr #1
 3549              	.LVL437:
 3550              		.loc 1 880 0
 3551 003c 02EB5829 		add	r9, r2, r8, lsr #9
 3552              	.LVL438:
 3553              	.LBB767:
 3554              	.LBB766:
 3555              		.loc 1 786 0
 3556 0040 B945     		cmp	r9, r7
 3557 0042 31D0     		beq	.L421
 3558              	.LVL439:
 3559              	.LBB760:
 3560              	.LBB761:
 3561              		.loc 1 763 0
 3562 0044 0279     		ldrb	r2, [r0, #4]	@ zero_extendqisi2
 3563 0046 4078     		ldrb	r0, [r0, #1]	@ zero_extendqisi2
 3564              	.LVL440:
 3565 0048 04F1300A 		add	r10, r4, #48
 3566 004c 02B3     		cbz	r2, .L422
 3567              	.LVL441:
 3568              	.LBB762:
 3569              	.LBB763:
 3570              		.loc 1 765 0
 3571 004e 3A46     		mov	r2, r7
 3572 0050 5146     		mov	r1, r10
 3573              	.LVL442:
 3574 0052 FFF7FEFF 		bl	disk_write
 3575              	.LVL443:
 3576 0056 0028     		cmp	r0, #0
 3577 0058 40F0FD80 		bne	.L428
 3578              		.loc 1 768 0
 3579 005c 226A     		ldr	r2, [r4, #32]
 3580 005e A369     		ldr	r3, [r4, #24]
 3581              		.loc 1 767 0
 3582 0060 2071     		strb	r0, [r4, #4]
 3583              		.loc 1 768 0
 3584 0062 BA1A     		subs	r2, r7, r2
 3585 0064 9A42     		cmp	r2, r3
 3586 0066 12D2     		bcs	.L460
 3587              		.loc 1 769 0
 3588 0068 94F803B0 		ldrb	fp, [r4, #3]	@ zero_extendqisi2
 3589              	.LVL444:
 3590 006c BBF1010F 		cmp	fp, #1
 3591 0070 01D8     		bhi	.L427
ARM GAS  C:\Users\mathi\AppData\Local\Temp\ccjAIMZ3.s 			page 64


 3592 0072 0CE0     		b	.L460
 3593              	.L426:
 3594 0074 A369     		ldr	r3, [r4, #24]
 3595              	.L427:
 3596              		.loc 1 771 0
 3597 0076 6078     		ldrb	r0, [r4, #1]	@ zero_extendqisi2
 3598              		.loc 1 770 0
 3599 0078 1F44     		add	r7, r7, r3
 3600              	.LVL445:
 3601              		.loc 1 769 0
 3602 007a 0BF1FF3B 		add	fp, fp, #-1
 3603              	.LVL446:
 3604              		.loc 1 771 0
 3605 007e 3A46     		mov	r2, r7
 3606 0080 0123     		movs	r3, #1
 3607 0082 5146     		mov	r1, r10
 3608 0084 FFF7FEFF 		bl	disk_write
 3609              	.LVL447:
 3610              		.loc 1 769 0
 3611 0088 BBF1010F 		cmp	fp, #1
 3612 008c F2D1     		bne	.L426
 3613              	.LVL448:
 3614              	.L460:
 3615 008e 6078     		ldrb	r0, [r4, #1]	@ zero_extendqisi2
 3616              	.LVL449:
 3617              	.L422:
 3618              	.LBE763:
 3619              	.LBE762:
 3620              	.LBE761:
 3621              	.LBE760:
 3622              	.LBB764:
 3623              	.LBB765:
 3624              		.loc 1 791 0
 3625 0090 5146     		mov	r1, r10
 3626 0092 0123     		movs	r3, #1
 3627 0094 4A46     		mov	r2, r9
 3628 0096 FFF7FEFF 		bl	disk_read
 3629              	.LVL450:
 3630 009a 0028     		cmp	r0, #0
 3631 009c 40F0DB80 		bne	.L428
 3632 00a0 226A     		ldr	r2, [r4, #32]
 3633              		.loc 1 793 0
 3634 00a2 C4F82C90 		str	r9, [r4, #44]
 3635              	.LVL451:
 3636 00a6 4F46     		mov	r7, r9
 3637              	.LVL452:
 3638              	.L421:
 3639              	.LBE765:
 3640              	.LBE764:
 3641              	.LBE766:
 3642              	.LBE767:
 3643              		.loc 1 881 0
 3644 00a8 C8F30803 		ubfx	r3, r8, #0, #9
 3645 00ac 2344     		add	r3, r3, r4
 3646 00ae 08F10108 		add	r8, r8, #1
 3647              	.LVL453:
 3648              		.loc 1 882 0
ARM GAS  C:\Users\mathi\AppData\Local\Temp\ccjAIMZ3.s 			page 65


 3649 00b2 02EB5829 		add	r9, r2, r8, lsr #9
 3650              		.loc 1 881 0
 3651 00b6 93F83030 		ldrb	r3, [r3, #48]	@ zero_extendqisi2
 3652 00ba 0193     		str	r3, [sp, #4]
 3653              	.LVL454:
 3654              	.LBB768:
 3655              	.LBB769:
 3656              		.loc 1 786 0
 3657 00bc B945     		cmp	r9, r7
 3658 00be 32D0     		beq	.L429
 3659              	.LVL455:
 3660              	.LBB770:
 3661              	.LBB771:
 3662              		.loc 1 763 0
 3663 00c0 2379     		ldrb	r3, [r4, #4]	@ zero_extendqisi2
 3664 00c2 6078     		ldrb	r0, [r4, #1]	@ zero_extendqisi2
 3665 00c4 04F1300A 		add	r10, r4, #48
 3666 00c8 13B3     		cbz	r3, .L430
 3667              	.LVL456:
 3668              	.LBB772:
 3669              	.LBB773:
 3670              		.loc 1 765 0
 3671 00ca 0123     		movs	r3, #1
 3672 00cc 3A46     		mov	r2, r7
 3673 00ce 5146     		mov	r1, r10
 3674 00d0 FFF7FEFF 		bl	disk_write
 3675              	.LVL457:
 3676 00d4 0028     		cmp	r0, #0
 3677 00d6 40F0BE80 		bne	.L428
 3678              		.loc 1 768 0
 3679 00da 226A     		ldr	r2, [r4, #32]
 3680 00dc A369     		ldr	r3, [r4, #24]
 3681              		.loc 1 767 0
 3682 00de 2071     		strb	r0, [r4, #4]
 3683              		.loc 1 768 0
 3684 00e0 BA1A     		subs	r2, r7, r2
 3685 00e2 9A42     		cmp	r2, r3
 3686 00e4 6078     		ldrb	r0, [r4, #1]	@ zero_extendqisi2
 3687 00e6 13D2     		bcs	.L430
 3688              		.loc 1 769 0
 3689 00e8 94F803B0 		ldrb	fp, [r4, #3]	@ zero_extendqisi2
 3690              	.LVL458:
 3691 00ec BBF1010F 		cmp	fp, #1
 3692 00f0 02D8     		bhi	.L432
 3693 00f2 0DE0     		b	.L430
 3694              	.LVL459:
 3695              	.L431:
 3696 00f4 A369     		ldr	r3, [r4, #24]
 3697 00f6 6078     		ldrb	r0, [r4, #1]	@ zero_extendqisi2
 3698              	.LVL460:
 3699              	.L432:
 3700              		.loc 1 770 0
 3701 00f8 1F44     		add	r7, r7, r3
 3702              	.LVL461:
 3703              		.loc 1 769 0
 3704 00fa 0BF1FF3B 		add	fp, fp, #-1
 3705              	.LVL462:
ARM GAS  C:\Users\mathi\AppData\Local\Temp\ccjAIMZ3.s 			page 66


 3706              		.loc 1 771 0
 3707 00fe 3A46     		mov	r2, r7
 3708 0100 0123     		movs	r3, #1
 3709 0102 5146     		mov	r1, r10
 3710 0104 FFF7FEFF 		bl	disk_write
 3711              	.LVL463:
 3712              		.loc 1 769 0
 3713 0108 BBF1010F 		cmp	fp, #1
 3714 010c F2D1     		bne	.L431
 3715 010e 6078     		ldrb	r0, [r4, #1]	@ zero_extendqisi2
 3716              	.LVL464:
 3717              	.L430:
 3718              	.LBE773:
 3719              	.LBE772:
 3720              	.LBE771:
 3721              	.LBE770:
 3722              	.LBB774:
 3723              	.LBB775:
 3724              		.loc 1 791 0
 3725 0110 5146     		mov	r1, r10
 3726 0112 0123     		movs	r3, #1
 3727 0114 4A46     		mov	r2, r9
 3728 0116 FFF7FEFF 		bl	disk_read
 3729              	.LVL465:
 3730 011a 0028     		cmp	r0, #0
 3731 011c 40F09B80 		bne	.L428
 3732 0120 019B     		ldr	r3, [sp, #4]
 3733              		.loc 1 793 0
 3734 0122 C4F82C90 		str	r9, [r4, #44]
 3735              	.LVL466:
 3736              	.L429:
 3737              	.LBE775:
 3738              	.LBE774:
 3739              	.LBE769:
 3740              	.LBE768:
 3741              		.loc 1 883 0
 3742 0126 C8F30808 		ubfx	r8, r8, #0, #9
 3743              	.LVL467:
 3744 012a 4444     		add	r4, r4, r8
 3745              	.LVL468:
 3746 012c 94F83000 		ldrb	r0, [r4, #48]	@ zero_extendqisi2
 3747 0130 43EA0020 		orr	r0, r3, r0, lsl #8
 3748              	.LVL469:
 3749              		.loc 1 884 0
 3750 0134 EB07     		lsls	r3, r5, #31
 3751 0136 4CBF     		ite	mi
 3752 0138 0009     		lsrmi	r0, r0, #4
 3753              	.LVL470:
 3754 013a C0F30B00 		ubfxpl	r0, r0, #0, #12
 3755 013e 71E7     		b	.L416
 3756              	.LVL471:
 3757              	.L419:
 3758              		.loc 1 892 0
 3759 0140 076A     		ldr	r7, [r0, #32]
 3760              	.LBB776:
 3761              	.LBB777:
 3762              		.loc 1 786 0
ARM GAS  C:\Users\mathi\AppData\Local\Temp\ccjAIMZ3.s 			page 67


 3763 0142 D0F82C80 		ldr	r8, [r0, #44]
 3764              	.LBE777:
 3765              	.LBE776:
 3766              		.loc 1 892 0
 3767 0146 07EBD117 		add	r7, r7, r1, lsr #7
 3768              	.LVL472:
 3769              	.LBB785:
 3770              	.LBB784:
 3771              		.loc 1 786 0
 3772 014a 4745     		cmp	r7, r8
 3773 014c 2FD0     		beq	.L440
 3774              	.LVL473:
 3775              	.LBB778:
 3776              	.LBB779:
 3777              		.loc 1 763 0
 3778 014e 0379     		ldrb	r3, [r0, #4]	@ zero_extendqisi2
 3779 0150 4078     		ldrb	r0, [r0, #1]	@ zero_extendqisi2
 3780              	.LVL474:
 3781 0152 04F13009 		add	r9, r4, #48
 3782 0156 13B3     		cbz	r3, .L441
 3783              	.LVL475:
 3784              	.LBB780:
 3785              	.LBB781:
 3786              		.loc 1 765 0
 3787 0158 0123     		movs	r3, #1
 3788 015a 4246     		mov	r2, r8
 3789 015c 4946     		mov	r1, r9
 3790              	.LVL476:
 3791 015e FFF7FEFF 		bl	disk_write
 3792              	.LVL477:
 3793 0162 0028     		cmp	r0, #0
 3794 0164 77D1     		bne	.L428
 3795              		.loc 1 768 0
 3796 0166 226A     		ldr	r2, [r4, #32]
 3797 0168 A369     		ldr	r3, [r4, #24]
 3798              		.loc 1 767 0
 3799 016a 2071     		strb	r0, [r4, #4]
 3800              		.loc 1 768 0
 3801 016c A8EB0202 		sub	r2, r8, r2
 3802 0170 9A42     		cmp	r2, r3
 3803 0172 6078     		ldrb	r0, [r4, #1]	@ zero_extendqisi2
 3804 0174 13D2     		bcs	.L441
 3805              		.loc 1 769 0
 3806 0176 94F803A0 		ldrb	r10, [r4, #3]	@ zero_extendqisi2
 3807              	.LVL478:
 3808 017a BAF1010F 		cmp	r10, #1
 3809 017e 02D8     		bhi	.L443
 3810 0180 0DE0     		b	.L441
 3811              	.L442:
 3812 0182 A369     		ldr	r3, [r4, #24]
 3813 0184 6078     		ldrb	r0, [r4, #1]	@ zero_extendqisi2
 3814              	.L443:
 3815              		.loc 1 770 0
 3816 0186 9844     		add	r8, r8, r3
 3817              	.LVL479:
 3818              		.loc 1 769 0
 3819 0188 0AF1FF3A 		add	r10, r10, #-1
ARM GAS  C:\Users\mathi\AppData\Local\Temp\ccjAIMZ3.s 			page 68


 3820              	.LVL480:
 3821              		.loc 1 771 0
 3822 018c 4246     		mov	r2, r8
 3823 018e 0123     		movs	r3, #1
 3824 0190 4946     		mov	r1, r9
 3825 0192 FFF7FEFF 		bl	disk_write
 3826              	.LVL481:
 3827              		.loc 1 769 0
 3828 0196 BAF1010F 		cmp	r10, #1
 3829 019a F2D1     		bne	.L442
 3830 019c 6078     		ldrb	r0, [r4, #1]	@ zero_extendqisi2
 3831              	.LVL482:
 3832              	.L441:
 3833              	.LBE781:
 3834              	.LBE780:
 3835              	.LBE779:
 3836              	.LBE778:
 3837              	.LBB782:
 3838              	.LBB783:
 3839              		.loc 1 791 0
 3840 019e 4946     		mov	r1, r9
 3841 01a0 0123     		movs	r3, #1
 3842 01a2 3A46     		mov	r2, r7
 3843 01a4 FFF7FEFF 		bl	disk_read
 3844              	.LVL483:
 3845 01a8 0028     		cmp	r0, #0
 3846 01aa 54D1     		bne	.L428
 3847              		.loc 1 793 0
 3848 01ac E762     		str	r7, [r4, #44]
 3849              	.LVL484:
 3850              	.L440:
 3851              	.LBE783:
 3852              	.LBE782:
 3853              	.LBE784:
 3854              	.LBE785:
 3855              		.loc 1 893 0
 3856 01ae AD00     		lsls	r5, r5, #2
 3857              	.LVL485:
 3858 01b0 05F4FE75 		and	r5, r5, #508
 3859 01b4 05F13003 		add	r3, r5, #48
 3860 01b8 2344     		add	r3, r3, r4
 3861              	.LVL486:
 3862              		.loc 1 894 0
 3863 01ba 2C44     		add	r4, r4, r5
 3864              	.LVL487:
 3865 01bc 9878     		ldrb	r0, [r3, #2]	@ zero_extendqisi2
 3866 01be D978     		ldrb	r1, [r3, #3]	@ zero_extendqisi2
 3867 01c0 94F83020 		ldrb	r2, [r4, #48]	@ zero_extendqisi2
 3868 01c4 5B78     		ldrb	r3, [r3, #1]	@ zero_extendqisi2
 3869              	.LVL488:
 3870 01c6 0004     		lsls	r0, r0, #16
 3871 01c8 40EA0160 		orr	r0, r0, r1, lsl #24
 3872 01cc 1043     		orrs	r0, r0, r2
 3873 01ce 40EA0320 		orr	r0, r0, r3, lsl #8
 3874 01d2 20F07040 		bic	r0, r0, #-268435456
 3875 01d6 25E7     		b	.L416
 3876              	.LVL489:
ARM GAS  C:\Users\mathi\AppData\Local\Temp\ccjAIMZ3.s 			page 69


 3877              	.L418:
 3878              		.loc 1 887 0
 3879 01d8 076A     		ldr	r7, [r0, #32]
 3880              	.LBB786:
 3881              	.LBB787:
 3882              		.loc 1 786 0
 3883 01da D0F82C80 		ldr	r8, [r0, #44]
 3884              	.LBE787:
 3885              	.LBE786:
 3886              		.loc 1 887 0
 3887 01de 07EB1127 		add	r7, r7, r1, lsr #8
 3888              	.LVL490:
 3889              	.LBB795:
 3890              	.LBB794:
 3891              		.loc 1 786 0
 3892 01e2 4745     		cmp	r7, r8
 3893 01e4 2CD0     		beq	.L434
 3894              	.LVL491:
 3895              	.LBB788:
 3896              	.LBB789:
 3897              		.loc 1 763 0
 3898 01e6 0379     		ldrb	r3, [r0, #4]	@ zero_extendqisi2
 3899 01e8 4078     		ldrb	r0, [r0, #1]	@ zero_extendqisi2
 3900              	.LVL492:
 3901 01ea 04F13009 		add	r9, r4, #48
 3902 01ee 03B3     		cbz	r3, .L435
 3903              	.LVL493:
 3904              	.LBB790:
 3905              	.LBB791:
 3906              		.loc 1 765 0
 3907 01f0 0123     		movs	r3, #1
 3908 01f2 4246     		mov	r2, r8
 3909 01f4 4946     		mov	r1, r9
 3910              	.LVL494:
 3911 01f6 FFF7FEFF 		bl	disk_write
 3912              	.LVL495:
 3913 01fa 60BB     		cbnz	r0, .L428
 3914              		.loc 1 768 0
 3915 01fc 226A     		ldr	r2, [r4, #32]
 3916 01fe A369     		ldr	r3, [r4, #24]
 3917              		.loc 1 767 0
 3918 0200 2071     		strb	r0, [r4, #4]
 3919              		.loc 1 768 0
 3920 0202 A8EB0202 		sub	r2, r8, r2
 3921 0206 9A42     		cmp	r2, r3
 3922 0208 12D2     		bcs	.L461
 3923              		.loc 1 769 0
 3924 020a 94F803A0 		ldrb	r10, [r4, #3]	@ zero_extendqisi2
 3925              	.LVL496:
 3926 020e BAF1010F 		cmp	r10, #1
 3927 0212 01D8     		bhi	.L439
 3928 0214 0CE0     		b	.L461
 3929              	.L438:
 3930 0216 A369     		ldr	r3, [r4, #24]
 3931              	.L439:
 3932              		.loc 1 771 0
 3933 0218 6078     		ldrb	r0, [r4, #1]	@ zero_extendqisi2
ARM GAS  C:\Users\mathi\AppData\Local\Temp\ccjAIMZ3.s 			page 70


 3934              		.loc 1 770 0
 3935 021a 9844     		add	r8, r8, r3
 3936              	.LVL497:
 3937              		.loc 1 769 0
 3938 021c 0AF1FF3A 		add	r10, r10, #-1
 3939              	.LVL498:
 3940              		.loc 1 771 0
 3941 0220 4246     		mov	r2, r8
 3942 0222 0123     		movs	r3, #1
 3943 0224 4946     		mov	r1, r9
 3944 0226 FFF7FEFF 		bl	disk_write
 3945              	.LVL499:
 3946              		.loc 1 769 0
 3947 022a BAF1010F 		cmp	r10, #1
 3948 022e F2D1     		bne	.L438
 3949              	.LVL500:
 3950              	.L461:
 3951 0230 6078     		ldrb	r0, [r4, #1]	@ zero_extendqisi2
 3952              	.LVL501:
 3953              	.L435:
 3954              	.LBE791:
 3955              	.LBE790:
 3956              	.LBE789:
 3957              	.LBE788:
 3958              	.LBB792:
 3959              	.LBB793:
 3960              		.loc 1 791 0
 3961 0232 4946     		mov	r1, r9
 3962 0234 0123     		movs	r3, #1
 3963 0236 3A46     		mov	r2, r7
 3964 0238 FFF7FEFF 		bl	disk_read
 3965              	.LVL502:
 3966 023c 58B9     		cbnz	r0, .L428
 3967              		.loc 1 793 0
 3968 023e E762     		str	r7, [r4, #44]
 3969              	.LVL503:
 3970              	.L434:
 3971              	.LBE793:
 3972              	.LBE792:
 3973              	.LBE794:
 3974              	.LBE795:
 3975              		.loc 1 888 0
 3976 0240 6D00     		lsls	r5, r5, #1
 3977              	.LVL504:
 3978 0242 05F4FF75 		and	r5, r5, #510
 3979              	.LVL505:
 3980              		.loc 1 889 0
 3981 0246 2C44     		add	r4, r4, r5
 3982              	.LVL506:
 3983 0248 94F83130 		ldrb	r3, [r4, #49]	@ zero_extendqisi2
 3984 024c 94F83000 		ldrb	r0, [r4, #48]	@ zero_extendqisi2
 3985 0250 40EA0320 		orr	r0, r0, r3, lsl #8
 3986 0254 E6E6     		b	.L416
 3987              	.LVL507:
 3988              	.L428:
 3989              		.loc 1 900 0
 3990 0256 4FF0FF30 		mov	r0, #-1
ARM GAS  C:\Users\mathi\AppData\Local\Temp\ccjAIMZ3.s 			page 71


 3991 025a E3E6     		b	.L416
 3992              	.LVL508:
 3993              	.L463:
 3994              		.loc 1 901 0
 3995 025c FFF7FEFF 		bl	__stack_chk_fail
 3996              	.LVL509:
 3997              	.L465:
 3998              		.align	2
 3999              	.L464:
 4000 0260 00000000 		.word	__stack_chk_guard
 4001              		.cfi_endproc
 4002              	.LFE285:
 4003              		.size	get_fat.part.6, .-get_fat.part.6
 4004              		.section	.text.create_chain,"ax",%progbits
 4005              		.align	1
 4006              		.p2align 4,,15
 4007              		.syntax unified
 4008              		.thumb
 4009              		.thumb_func
 4010              		.fpu fpv4-sp-d16
 4011              		.type	create_chain, %function
 4012              	create_chain:
 4013              	.LFB230:
 4014              		.loc 1 1031 0
 4015              		.cfi_startproc
 4016              		@ args = 0, pretend = 0, frame = 24
 4017              		@ frame_needed = 0, uses_anonymous_args = 0
 4018              	.LVL510:
 4019 0000 2DE9F04F 		push	{r4, r5, r6, r7, r8, r9, r10, fp, lr}
 4020              		.cfi_def_cfa_offset 36
 4021              		.cfi_offset 4, -36
 4022              		.cfi_offset 5, -32
 4023              		.cfi_offset 6, -28
 4024              		.cfi_offset 7, -24
 4025              		.cfi_offset 8, -20
 4026              		.cfi_offset 9, -16
 4027              		.cfi_offset 10, -12
 4028              		.cfi_offset 11, -8
 4029              		.cfi_offset 14, -4
 4030 0004 DFF81CB3 		ldr	fp, .L544
 4031 0008 87B0     		sub	sp, sp, #28
 4032              		.cfi_def_cfa_offset 64
 4033              		.loc 1 1031 0
 4034 000a DBF80030 		ldr	r3, [fp]
 4035 000e 0593     		str	r3, [sp, #20]
 4036 0010 0546     		mov	r5, r0
 4037              		.loc 1 1036 0
 4038 0012 0191     		str	r1, [sp, #4]
 4039 0014 0029     		cmp	r1, #0
 4040 0016 40F0B480 		bne	.L467
 4041              		.loc 1 1037 0
 4042 001a C768     		ldr	r7, [r0, #12]
 4043              	.LVL511:
 4044 001c 4369     		ldr	r3, [r0, #20]
 4045              		.loc 1 1038 0
 4046 001e 002F     		cmp	r7, #0
 4047 0020 40F0C080 		bne	.L540
ARM GAS  C:\Users\mathi\AppData\Local\Temp\ccjAIMZ3.s 			page 72


 4048 0024 0127     		movs	r7, #1
 4049              	.LVL512:
 4050              	.L468:
 4051 0026 3C46     		mov	r4, r7
 4052              		.loc 1 1050 0
 4053 0028 0134     		adds	r4, r4, #1
 4054              		.loc 1 1051 0
 4055 002a 9C42     		cmp	r4, r3
 4056 002c 05F1300A 		add	r10, r5, #48
 4057              	.LVL513:
 4058 0030 C0F09980 		bcc	.L472
 4059              	.LVL514:
 4060              	.L541:
 4061              		.loc 1 1053 0
 4062 0034 012F     		cmp	r7, #1
 4063 0036 40F25381 		bls	.L512
 4064              	.LBB846:
 4065              	.LBB847:
 4066              		.loc 1 874 0
 4067 003a 022B     		cmp	r3, #2
 4068 003c 40F29680 		bls	.L535
 4069              	.LBE847:
 4070              	.LBE846:
 4071              		.loc 1 1052 0
 4072 0040 0224     		movs	r4, #2
 4073              	.LVL515:
 4074              	.L474:
 4075              	.LBB895:
 4076              	.LBB892:
 4077              	.LBB848:
 4078              	.LBB849:
 4079              		.loc 1 877 0
 4080 0042 2B78     		ldrb	r3, [r5]	@ zero_extendqisi2
 4081 0044 022B     		cmp	r3, #2
 4082 0046 00F0C280 		beq	.L475
 4083 004a 032B     		cmp	r3, #3
 4084 004c 00F0FE80 		beq	.L476
 4085 0050 012B     		cmp	r3, #1
 4086 0052 40F08B80 		bne	.L535
 4087              	.LVL516:
 4088              		.loc 1 880 0
 4089 0056 2A6A     		ldr	r2, [r5, #32]
 4090              	.LBB850:
 4091              	.LBB851:
 4092              		.loc 1 786 0
 4093 0058 EE6A     		ldr	r6, [r5, #44]
 4094              	.LBE851:
 4095              	.LBE850:
 4096              		.loc 1 879 0
 4097 005a 04EB5409 		add	r9, r4, r4, lsr #1
 4098              	.LVL517:
 4099              		.loc 1 880 0
 4100 005e 02EB5928 		add	r8, r2, r9, lsr #9
 4101              	.LVL518:
 4102              	.LBB859:
 4103              	.LBB858:
 4104              		.loc 1 786 0
ARM GAS  C:\Users\mathi\AppData\Local\Temp\ccjAIMZ3.s 			page 73


 4105 0062 B045     		cmp	r8, r6
 4106 0064 2ED0     		beq	.L478
 4107              	.LVL519:
 4108              	.LBB852:
 4109              	.LBB853:
 4110              		.loc 1 763 0
 4111 0066 2A79     		ldrb	r2, [r5, #4]	@ zero_extendqisi2
 4112 0068 6878     		ldrb	r0, [r5, #1]	@ zero_extendqisi2
 4113 006a FAB1     		cbz	r2, .L479
 4114              	.LVL520:
 4115              	.LBB854:
 4116              	.LBB855:
 4117              		.loc 1 765 0
 4118 006c 3246     		mov	r2, r6
 4119 006e 5146     		mov	r1, r10
 4120 0070 FFF7FEFF 		bl	disk_write
 4121              	.LVL521:
 4122 0074 0028     		cmp	r0, #0
 4123 0076 40F0A780 		bne	.L480
 4124              		.loc 1 768 0
 4125 007a 2A6A     		ldr	r2, [r5, #32]
 4126 007c AB69     		ldr	r3, [r5, #24]
 4127              		.loc 1 767 0
 4128 007e 2871     		strb	r0, [r5, #4]
 4129              		.loc 1 768 0
 4130 0080 B21A     		subs	r2, r6, r2
 4131 0082 9A42     		cmp	r2, r3
 4132 0084 11D2     		bcs	.L538
 4133              		.loc 1 769 0
 4134 0086 EA78     		ldrb	r2, [r5, #3]	@ zero_extendqisi2
 4135              	.LVL522:
 4136 0088 012A     		cmp	r2, #1
 4137 008a 0ED9     		bls	.L538
 4138 008c 0297     		str	r7, [sp, #8]
 4139 008e 1746     		mov	r7, r2
 4140 0090 00E0     		b	.L484
 4141              	.LVL523:
 4142              	.L483:
 4143 0092 AB69     		ldr	r3, [r5, #24]
 4144              	.L484:
 4145              		.loc 1 771 0
 4146 0094 6878     		ldrb	r0, [r5, #1]	@ zero_extendqisi2
 4147              		.loc 1 770 0
 4148 0096 1E44     		add	r6, r6, r3
 4149              	.LVL524:
 4150              		.loc 1 769 0
 4151 0098 013F     		subs	r7, r7, #1
 4152              	.LVL525:
 4153              		.loc 1 771 0
 4154 009a 3246     		mov	r2, r6
 4155 009c 0123     		movs	r3, #1
 4156 009e 5146     		mov	r1, r10
 4157 00a0 FFF7FEFF 		bl	disk_write
 4158              	.LVL526:
 4159              		.loc 1 769 0
 4160 00a4 012F     		cmp	r7, #1
 4161 00a6 F4D1     		bne	.L483
ARM GAS  C:\Users\mathi\AppData\Local\Temp\ccjAIMZ3.s 			page 74


 4162 00a8 029F     		ldr	r7, [sp, #8]
 4163              	.LVL527:
 4164              	.L538:
 4165 00aa 6878     		ldrb	r0, [r5, #1]	@ zero_extendqisi2
 4166              	.LVL528:
 4167              	.L479:
 4168              	.LBE855:
 4169              	.LBE854:
 4170              	.LBE853:
 4171              	.LBE852:
 4172              	.LBB856:
 4173              	.LBB857:
 4174              		.loc 1 791 0
 4175 00ac 0123     		movs	r3, #1
 4176 00ae 4246     		mov	r2, r8
 4177 00b0 5146     		mov	r1, r10
 4178 00b2 FFF7FEFF 		bl	disk_read
 4179              	.LVL529:
 4180 00b6 0028     		cmp	r0, #0
 4181 00b8 40F08680 		bne	.L480
 4182 00bc 2A6A     		ldr	r2, [r5, #32]
 4183              		.loc 1 793 0
 4184 00be C5F82C80 		str	r8, [r5, #44]
 4185              	.LVL530:
 4186 00c2 4646     		mov	r6, r8
 4187              	.LVL531:
 4188              	.L478:
 4189              	.LBE857:
 4190              	.LBE856:
 4191              	.LBE858:
 4192              	.LBE859:
 4193              		.loc 1 881 0
 4194 00c4 C9F30803 		ubfx	r3, r9, #0, #9
 4195 00c8 2B44     		add	r3, r3, r5
 4196 00ca 09F10109 		add	r9, r9, #1
 4197              	.LVL532:
 4198              		.loc 1 882 0
 4199 00ce 02EB5928 		add	r8, r2, r9, lsr #9
 4200              		.loc 1 881 0
 4201 00d2 93F83030 		ldrb	r3, [r3, #48]	@ zero_extendqisi2
 4202 00d6 0293     		str	r3, [sp, #8]
 4203              	.LVL533:
 4204              	.LBB860:
 4205              	.LBB861:
 4206              		.loc 1 786 0
 4207 00d8 B045     		cmp	r8, r6
 4208 00da 2CD0     		beq	.L485
 4209              	.LVL534:
 4210              	.LBB862:
 4211              	.LBB863:
 4212              		.loc 1 763 0
 4213 00dc 2B79     		ldrb	r3, [r5, #4]	@ zero_extendqisi2
 4214 00de 6878     		ldrb	r0, [r5, #1]	@ zero_extendqisi2
 4215 00e0 03B3     		cbz	r3, .L486
 4216              	.LVL535:
 4217              	.LBB864:
 4218              	.LBB865:
ARM GAS  C:\Users\mathi\AppData\Local\Temp\ccjAIMZ3.s 			page 75


 4219              		.loc 1 765 0
 4220 00e2 0123     		movs	r3, #1
 4221 00e4 3246     		mov	r2, r6
 4222 00e6 5146     		mov	r1, r10
 4223 00e8 FFF7FEFF 		bl	disk_write
 4224              	.LVL536:
 4225 00ec 0028     		cmp	r0, #0
 4226 00ee 6BD1     		bne	.L480
 4227              		.loc 1 768 0
 4228 00f0 2A6A     		ldr	r2, [r5, #32]
 4229 00f2 AB69     		ldr	r3, [r5, #24]
 4230              		.loc 1 767 0
 4231 00f4 2871     		strb	r0, [r5, #4]
 4232              		.loc 1 768 0
 4233 00f6 B21A     		subs	r2, r6, r2
 4234 00f8 9A42     		cmp	r2, r3
 4235 00fa 6878     		ldrb	r0, [r5, #1]	@ zero_extendqisi2
 4236 00fc 12D2     		bcs	.L486
 4237              		.loc 1 769 0
 4238 00fe EA78     		ldrb	r2, [r5, #3]	@ zero_extendqisi2
 4239              	.LVL537:
 4240 0100 012A     		cmp	r2, #1
 4241 0102 0FD9     		bls	.L486
 4242 0104 0397     		str	r7, [sp, #12]
 4243 0106 1746     		mov	r7, r2
 4244 0108 01E0     		b	.L488
 4245              	.LVL538:
 4246              	.L487:
 4247 010a AB69     		ldr	r3, [r5, #24]
 4248 010c 6878     		ldrb	r0, [r5, #1]	@ zero_extendqisi2
 4249              	.LVL539:
 4250              	.L488:
 4251              		.loc 1 770 0
 4252 010e 1E44     		add	r6, r6, r3
 4253              	.LVL540:
 4254              		.loc 1 769 0
 4255 0110 013F     		subs	r7, r7, #1
 4256              	.LVL541:
 4257              		.loc 1 771 0
 4258 0112 3246     		mov	r2, r6
 4259 0114 0123     		movs	r3, #1
 4260 0116 5146     		mov	r1, r10
 4261 0118 FFF7FEFF 		bl	disk_write
 4262              	.LVL542:
 4263              		.loc 1 769 0
 4264 011c 012F     		cmp	r7, #1
 4265 011e F4D1     		bne	.L487
 4266 0120 039F     		ldr	r7, [sp, #12]
 4267              	.LVL543:
 4268 0122 6878     		ldrb	r0, [r5, #1]	@ zero_extendqisi2
 4269              	.LVL544:
 4270              	.L486:
 4271              	.LBE865:
 4272              	.LBE864:
 4273              	.LBE863:
 4274              	.LBE862:
 4275              	.LBB866:
ARM GAS  C:\Users\mathi\AppData\Local\Temp\ccjAIMZ3.s 			page 76


 4276              	.LBB867:
 4277              		.loc 1 791 0
 4278 0124 0123     		movs	r3, #1
 4279 0126 4246     		mov	r2, r8
 4280 0128 5146     		mov	r1, r10
 4281 012a FFF7FEFF 		bl	disk_read
 4282              	.LVL545:
 4283 012e 0028     		cmp	r0, #0
 4284 0130 4AD1     		bne	.L480
 4285              		.loc 1 793 0
 4286 0132 C5F82C80 		str	r8, [r5, #44]
 4287              	.LVL546:
 4288              	.L485:
 4289              	.LBE867:
 4290              	.LBE866:
 4291              	.LBE861:
 4292              	.LBE860:
 4293              		.loc 1 883 0
 4294 0136 C9F30809 		ubfx	r9, r9, #0, #9
 4295              	.LVL547:
 4296 013a A944     		add	r9, r9, r5
 4297 013c 029A     		ldr	r2, [sp, #8]
 4298 013e 99F83030 		ldrb	r3, [r9, #48]	@ zero_extendqisi2
 4299              		.loc 1 884 0
 4300 0142 E107     		lsls	r1, r4, #31
 4301              		.loc 1 883 0
 4302 0144 42EA0323 		orr	r3, r2, r3, lsl #8
 4303              	.LVL548:
 4304              		.loc 1 884 0
 4305 0148 4CBF     		ite	mi
 4306 014a 1B09     		lsrmi	r3, r3, #4
 4307              	.LVL549:
 4308 014c C3F30B03 		ubfxpl	r3, r3, #0, #12
 4309              	.LVL550:
 4310              	.L490:
 4311              	.LBE849:
 4312              	.LBE848:
 4313              	.LBE892:
 4314              	.LBE895:
 4315              		.loc 1 1056 0
 4316 0150 63B3     		cbz	r3, .L501
 4317              		.loc 1 1057 0
 4318 0152 012B     		cmp	r3, #1
 4319 0154 0AD0     		beq	.L535
 4320              		.loc 1 1059 0
 4321 0156 A742     		cmp	r7, r4
 4322 0158 00F0C280 		beq	.L512
 4323 015c 6B69     		ldr	r3, [r5, #20]
 4324              	.LVL551:
 4325              		.loc 1 1050 0
 4326 015e 0134     		adds	r4, r4, #1
 4327              	.LVL552:
 4328              		.loc 1 1051 0
 4329 0160 9C42     		cmp	r4, r3
 4330 0162 BFF467AF 		bcs	.L541
 4331              	.L472:
 4332              	.LVL553:
ARM GAS  C:\Users\mathi\AppData\Local\Temp\ccjAIMZ3.s 			page 77


 4333              	.LBB896:
 4334              	.LBB893:
 4335              		.loc 1 874 0
 4336 0166 012C     		cmp	r4, #1
 4337 0168 3FF66BAF 		bhi	.L474
 4338              	.LVL554:
 4339              	.L535:
 4340              	.LBB890:
 4341              	.LBB888:
 4342              		.loc 1 897 0
 4343 016c 0124     		movs	r4, #1
 4344              	.L466:
 4345              	.LBE888:
 4346              	.LBE890:
 4347              	.LBE893:
 4348              	.LBE896:
 4349              		.loc 1 1077 0
 4350 016e 059A     		ldr	r2, [sp, #20]
 4351 0170 DBF80030 		ldr	r3, [fp]
 4352 0174 9A42     		cmp	r2, r3
 4353 0176 2046     		mov	r0, r4
 4354 0178 40F0D280 		bne	.L542
 4355 017c 07B0     		add	sp, sp, #28
 4356              		.cfi_remember_state
 4357              		.cfi_def_cfa_offset 36
 4358              		@ sp needed
 4359 017e BDE8F08F 		pop	{r4, r5, r6, r7, r8, r9, r10, fp, pc}
 4360              	.LVL555:
 4361              	.L467:
 4362              		.cfi_restore_state
 4363              	.LBB897:
 4364              	.LBB898:
 4365              		.loc 1 874 0
 4366 0182 0129     		cmp	r1, #1
 4367 0184 F2D9     		bls	.L535
 4368 0186 4369     		ldr	r3, [r0, #20]
 4369 0188 9942     		cmp	r1, r3
 4370 018a EFD2     		bcs	.L535
 4371 018c FFF7FEFF 		bl	get_fat.part.6
 4372              	.LVL556:
 4373              	.LBE898:
 4374              	.LBE897:
 4375              		.loc 1 1042 0
 4376 0190 0128     		cmp	r0, #1
 4377              	.LBB900:
 4378              	.LBB899:
 4379 0192 0446     		mov	r4, r0
 4380              	.LVL557:
 4381              	.LBE899:
 4382              	.LBE900:
 4383 0194 EAD9     		bls	.L535
 4384              		.loc 1 1043 0
 4385 0196 0130     		adds	r0, r0, #1
 4386 0198 16D0     		beq	.L480
 4387              		.loc 1 1044 0
 4388 019a 6B69     		ldr	r3, [r5, #20]
 4389 019c A342     		cmp	r3, r4
ARM GAS  C:\Users\mathi\AppData\Local\Temp\ccjAIMZ3.s 			page 78


 4390 019e E6D8     		bhi	.L466
 4391 01a0 019F     		ldr	r7, [sp, #4]
 4392 01a2 40E7     		b	.L468
 4393              	.LVL558:
 4394              	.L540:
 4395              		.loc 1 1038 0 discriminator 2
 4396 01a4 9F42     		cmp	r7, r3
 4397 01a6 28BF     		it	cs
 4398 01a8 0127     		movcs	r7, #1
 4399              	.LVL559:
 4400 01aa 3CE7     		b	.L468
 4401              	.LVL560:
 4402              	.L501:
 4403              	.LBB901:
 4404              	.LBB902:
 4405              		.loc 1 922 0
 4406 01ac 6B69     		ldr	r3, [r5, #20]
 4407 01ae A342     		cmp	r3, r4
 4408 01b0 DCD9     		bls	.L535
 4409 01b2 6FF07042 		mvn	r2, #-268435456
 4410 01b6 2146     		mov	r1, r4
 4411 01b8 2846     		mov	r0, r5
 4412 01ba FFF7FEFF 		bl	put_fat.part.7
 4413              	.LVL561:
 4414              	.LBE902:
 4415              	.LBE901:
 4416              		.loc 1 1063 0
 4417 01be 0028     		cmp	r0, #0
 4418 01c0 00F09080 		beq	.L543
 4419              	.L503:
 4420              		.loc 1 1073 0
 4421 01c4 0128     		cmp	r0, #1
 4422 01c6 D1D1     		bne	.L535
 4423              	.L480:
 4424 01c8 4FF0FF34 		mov	r4, #-1
 4425 01cc CFE7     		b	.L466
 4426              	.LVL562:
 4427              	.L475:
 4428              	.LBB903:
 4429              	.LBB894:
 4430              	.LBB891:
 4431              	.LBB889:
 4432              		.loc 1 887 0
 4433 01ce 2E6A     		ldr	r6, [r5, #32]
 4434              	.LBB868:
 4435              	.LBB869:
 4436              		.loc 1 786 0
 4437 01d0 D5F82C80 		ldr	r8, [r5, #44]
 4438              	.LBE869:
 4439              	.LBE868:
 4440              		.loc 1 887 0
 4441 01d4 06EB1426 		add	r6, r6, r4, lsr #8
 4442              	.LVL563:
 4443              	.LBB877:
 4444              	.LBB876:
 4445              		.loc 1 786 0
 4446 01d8 4645     		cmp	r6, r8
ARM GAS  C:\Users\mathi\AppData\Local\Temp\ccjAIMZ3.s 			page 79


 4447 01da 2CD0     		beq	.L491
 4448              	.LVL564:
 4449              	.LBB870:
 4450              	.LBB871:
 4451              		.loc 1 763 0
 4452 01dc 2B79     		ldrb	r3, [r5, #4]	@ zero_extendqisi2
 4453 01de 6878     		ldrb	r0, [r5, #1]	@ zero_extendqisi2
 4454 01e0 0BB3     		cbz	r3, .L492
 4455              	.LVL565:
 4456              	.LBB872:
 4457              	.LBB873:
 4458              		.loc 1 765 0
 4459 01e2 0123     		movs	r3, #1
 4460 01e4 4246     		mov	r2, r8
 4461 01e6 5146     		mov	r1, r10
 4462 01e8 FFF7FEFF 		bl	disk_write
 4463              	.LVL566:
 4464 01ec 0028     		cmp	r0, #0
 4465 01ee EBD1     		bne	.L480
 4466              		.loc 1 768 0
 4467 01f0 2A6A     		ldr	r2, [r5, #32]
 4468 01f2 AB69     		ldr	r3, [r5, #24]
 4469              		.loc 1 767 0
 4470 01f4 2871     		strb	r0, [r5, #4]
 4471              		.loc 1 768 0
 4472 01f6 A8EB0202 		sub	r2, r8, r2
 4473 01fa 9A42     		cmp	r2, r3
 4474 01fc 12D2     		bcs	.L539
 4475              		.loc 1 769 0
 4476 01fe 95F80390 		ldrb	r9, [r5, #3]	@ zero_extendqisi2
 4477              	.LVL567:
 4478 0202 B9F1010F 		cmp	r9, #1
 4479 0206 01D8     		bhi	.L496
 4480 0208 0CE0     		b	.L539
 4481              	.L495:
 4482 020a AB69     		ldr	r3, [r5, #24]
 4483              	.L496:
 4484              		.loc 1 771 0
 4485 020c 6878     		ldrb	r0, [r5, #1]	@ zero_extendqisi2
 4486              		.loc 1 770 0
 4487 020e 9844     		add	r8, r8, r3
 4488              	.LVL568:
 4489              		.loc 1 769 0
 4490 0210 09F1FF39 		add	r9, r9, #-1
 4491              	.LVL569:
 4492              		.loc 1 771 0
 4493 0214 4246     		mov	r2, r8
 4494 0216 0123     		movs	r3, #1
 4495 0218 5146     		mov	r1, r10
 4496 021a FFF7FEFF 		bl	disk_write
 4497              	.LVL570:
 4498              		.loc 1 769 0
 4499 021e B9F1010F 		cmp	r9, #1
 4500 0222 F2D1     		bne	.L495
 4501              	.LVL571:
 4502              	.L539:
 4503 0224 6878     		ldrb	r0, [r5, #1]	@ zero_extendqisi2
ARM GAS  C:\Users\mathi\AppData\Local\Temp\ccjAIMZ3.s 			page 80


 4504              	.LVL572:
 4505              	.L492:
 4506              	.LBE873:
 4507              	.LBE872:
 4508              	.LBE871:
 4509              	.LBE870:
 4510              	.LBB874:
 4511              	.LBB875:
 4512              		.loc 1 791 0
 4513 0226 0123     		movs	r3, #1
 4514 0228 3246     		mov	r2, r6
 4515 022a 5146     		mov	r1, r10
 4516 022c FFF7FEFF 		bl	disk_read
 4517              	.LVL573:
 4518 0230 0028     		cmp	r0, #0
 4519 0232 C9D1     		bne	.L480
 4520              		.loc 1 793 0
 4521 0234 EE62     		str	r6, [r5, #44]
 4522              	.LVL574:
 4523              	.L491:
 4524              	.LBE875:
 4525              	.LBE874:
 4526              	.LBE876:
 4527              	.LBE877:
 4528              		.loc 1 888 0
 4529 0236 6200     		lsls	r2, r4, #1
 4530 0238 02F4FF72 		and	r2, r2, #510
 4531              	.LVL575:
 4532              		.loc 1 889 0
 4533 023c 2A44     		add	r2, r2, r5
 4534              	.LVL576:
 4535 023e 92F83110 		ldrb	r1, [r2, #49]	@ zero_extendqisi2
 4536 0242 92F83030 		ldrb	r3, [r2, #48]	@ zero_extendqisi2
 4537 0246 43EA0123 		orr	r3, r3, r1, lsl #8
 4538 024a 81E7     		b	.L490
 4539              	.LVL577:
 4540              	.L476:
 4541              		.loc 1 892 0
 4542 024c 2E6A     		ldr	r6, [r5, #32]
 4543              	.LBB878:
 4544              	.LBB879:
 4545              		.loc 1 786 0
 4546 024e D5F82C80 		ldr	r8, [r5, #44]
 4547              	.LBE879:
 4548              	.LBE878:
 4549              		.loc 1 892 0
 4550 0252 06EBD416 		add	r6, r6, r4, lsr #7
 4551              	.LVL578:
 4552              	.LBB887:
 4553              	.LBB886:
 4554              		.loc 1 786 0
 4555 0256 4645     		cmp	r6, r8
 4556 0258 2DD0     		beq	.L497
 4557              	.LVL579:
 4558              	.LBB880:
 4559              	.LBB881:
 4560              		.loc 1 763 0
ARM GAS  C:\Users\mathi\AppData\Local\Temp\ccjAIMZ3.s 			page 81


 4561 025a 2B79     		ldrb	r3, [r5, #4]	@ zero_extendqisi2
 4562 025c 6878     		ldrb	r0, [r5, #1]	@ zero_extendqisi2
 4563 025e 13B3     		cbz	r3, .L498
 4564              	.LVL580:
 4565              	.LBB882:
 4566              	.LBB883:
 4567              		.loc 1 765 0
 4568 0260 0123     		movs	r3, #1
 4569 0262 4246     		mov	r2, r8
 4570 0264 5146     		mov	r1, r10
 4571 0266 FFF7FEFF 		bl	disk_write
 4572              	.LVL581:
 4573 026a 0028     		cmp	r0, #0
 4574 026c ACD1     		bne	.L480
 4575              		.loc 1 768 0
 4576 026e 2A6A     		ldr	r2, [r5, #32]
 4577 0270 AB69     		ldr	r3, [r5, #24]
 4578              		.loc 1 767 0
 4579 0272 2871     		strb	r0, [r5, #4]
 4580              		.loc 1 768 0
 4581 0274 A8EB0202 		sub	r2, r8, r2
 4582 0278 9A42     		cmp	r2, r3
 4583 027a 6878     		ldrb	r0, [r5, #1]	@ zero_extendqisi2
 4584 027c 13D2     		bcs	.L498
 4585              		.loc 1 769 0
 4586 027e 95F80390 		ldrb	r9, [r5, #3]	@ zero_extendqisi2
 4587              	.LVL582:
 4588 0282 B9F1010F 		cmp	r9, #1
 4589 0286 02D8     		bhi	.L500
 4590 0288 0DE0     		b	.L498
 4591              	.L499:
 4592 028a AB69     		ldr	r3, [r5, #24]
 4593 028c 6878     		ldrb	r0, [r5, #1]	@ zero_extendqisi2
 4594              	.L500:
 4595              		.loc 1 770 0
 4596 028e 9844     		add	r8, r8, r3
 4597              	.LVL583:
 4598              		.loc 1 769 0
 4599 0290 09F1FF39 		add	r9, r9, #-1
 4600              	.LVL584:
 4601              		.loc 1 771 0
 4602 0294 4246     		mov	r2, r8
 4603 0296 0123     		movs	r3, #1
 4604 0298 5146     		mov	r1, r10
 4605 029a FFF7FEFF 		bl	disk_write
 4606              	.LVL585:
 4607              		.loc 1 769 0
 4608 029e B9F1010F 		cmp	r9, #1
 4609 02a2 F2D1     		bne	.L499
 4610 02a4 6878     		ldrb	r0, [r5, #1]	@ zero_extendqisi2
 4611              	.LVL586:
 4612              	.L498:
 4613              	.LBE883:
 4614              	.LBE882:
 4615              	.LBE881:
 4616              	.LBE880:
 4617              	.LBB884:
ARM GAS  C:\Users\mathi\AppData\Local\Temp\ccjAIMZ3.s 			page 82


 4618              	.LBB885:
 4619              		.loc 1 791 0
 4620 02a6 0123     		movs	r3, #1
 4621 02a8 3246     		mov	r2, r6
 4622 02aa 5146     		mov	r1, r10
 4623 02ac FFF7FEFF 		bl	disk_read
 4624              	.LVL587:
 4625 02b0 0028     		cmp	r0, #0
 4626 02b2 89D1     		bne	.L480
 4627              		.loc 1 793 0
 4628 02b4 EE62     		str	r6, [r5, #44]
 4629              	.LVL588:
 4630              	.L497:
 4631              	.LBE885:
 4632              	.LBE884:
 4633              	.LBE886:
 4634              	.LBE887:
 4635              		.loc 1 893 0
 4636 02b6 A300     		lsls	r3, r4, #2
 4637 02b8 03F4FE73 		and	r3, r3, #508
 4638 02bc 03F13001 		add	r1, r3, #48
 4639 02c0 2944     		add	r1, r1, r5
 4640              	.LVL589:
 4641              		.loc 1 894 0
 4642 02c2 EA18     		adds	r2, r5, r3
 4643 02c4 8B78     		ldrb	r3, [r1, #2]	@ zero_extendqisi2
 4644 02c6 CE78     		ldrb	r6, [r1, #3]	@ zero_extendqisi2
 4645 02c8 92F83000 		ldrb	r0, [r2, #48]	@ zero_extendqisi2
 4646 02cc 4A78     		ldrb	r2, [r1, #1]	@ zero_extendqisi2
 4647 02ce 1B04     		lsls	r3, r3, #16
 4648 02d0 43EA0663 		orr	r3, r3, r6, lsl #24
 4649 02d4 0343     		orrs	r3, r3, r0
 4650 02d6 43EA0223 		orr	r3, r3, r2, lsl #8
 4651 02da 23F07043 		bic	r3, r3, #-268435456
 4652 02de 37E7     		b	.L490
 4653              	.LVL590:
 4654              	.L512:
 4655              	.LBE889:
 4656              	.LBE891:
 4657              	.LBE894:
 4658              	.LBE903:
 4659              		.loc 1 1059 0
 4660 02e0 0024     		movs	r4, #0
 4661 02e2 44E7     		b	.L466
 4662              	.L543:
 4663              		.loc 1 1063 0 discriminator 1
 4664 02e4 019B     		ldr	r3, [sp, #4]
 4665 02e6 7BB1     		cbz	r3, .L506
 4666              	.LBB904:
 4667              	.LBB905:
 4668              		.loc 1 922 0
 4669 02e8 012B     		cmp	r3, #1
 4670 02ea 1A46     		mov	r2, r3
 4671              	.LVL591:
 4672 02ec 7FF63EAF 		bls	.L535
 4673 02f0 6B69     		ldr	r3, [r5, #20]
 4674 02f2 9A42     		cmp	r2, r3
ARM GAS  C:\Users\mathi\AppData\Local\Temp\ccjAIMZ3.s 			page 83


 4675 02f4 BFF43AAF 		bcs	.L535
 4676 02f8 1146     		mov	r1, r2
 4677 02fa 2846     		mov	r0, r5
 4678 02fc 2246     		mov	r2, r4
 4679              	.LVL592:
 4680 02fe FFF7FEFF 		bl	put_fat.part.7
 4681              	.LVL593:
 4682              	.LBE905:
 4683              	.LBE904:
 4684              		.loc 1 1066 0
 4685 0302 0028     		cmp	r0, #0
 4686 0304 7FF45EAF 		bne	.L503
 4687              	.LVL594:
 4688              	.L506:
 4689              		.loc 1 1068 0
 4690 0308 2B69     		ldr	r3, [r5, #16]
 4691              		.loc 1 1067 0
 4692 030a EC60     		str	r4, [r5, #12]
 4693              		.loc 1 1068 0
 4694 030c 5A1C     		adds	r2, r3, #1
 4695 030e 3FF42EAF 		beq	.L466
 4696              		.loc 1 1070 0
 4697 0312 6A79     		ldrb	r2, [r5, #5]	@ zero_extendqisi2
 4698              		.loc 1 1069 0
 4699 0314 013B     		subs	r3, r3, #1
 4700              		.loc 1 1070 0
 4701 0316 42F00102 		orr	r2, r2, #1
 4702              		.loc 1 1069 0
 4703 031a 2B61     		str	r3, [r5, #16]
 4704              		.loc 1 1070 0
 4705 031c 6A71     		strb	r2, [r5, #5]
 4706 031e 26E7     		b	.L466
 4707              	.L542:
 4708              		.loc 1 1077 0
 4709 0320 FFF7FEFF 		bl	__stack_chk_fail
 4710              	.LVL595:
 4711              	.L545:
 4712              		.align	2
 4713              	.L544:
 4714 0324 00000000 		.word	__stack_chk_guard
 4715              		.cfi_endproc
 4716              	.LFE230:
 4717              		.size	create_chain, .-create_chain
 4718              		.section	.text.f_write.part.11,"ax",%progbits
 4719              		.align	1
 4720              		.p2align 4,,15
 4721              		.syntax unified
 4722              		.thumb
 4723              		.thumb_func
 4724              		.fpu fpv4-sp-d16
 4725              		.type	f_write.part.11, %function
 4726              	f_write.part.11:
 4727              	.LFB290:
 4728              		.loc 1 2651 0
 4729              		.cfi_startproc
 4730              		@ args = 0, pretend = 0, frame = 40
 4731              		@ frame_needed = 0, uses_anonymous_args = 0
ARM GAS  C:\Users\mathi\AppData\Local\Temp\ccjAIMZ3.s 			page 84


 4732              	.LVL596:
 4733 0000 2DE9F04F 		push	{r4, r5, r6, r7, r8, r9, r10, fp, lr}
 4734              		.cfi_def_cfa_offset 36
 4735              		.cfi_offset 4, -36
 4736              		.cfi_offset 5, -32
 4737              		.cfi_offset 6, -28
 4738              		.cfi_offset 7, -24
 4739              		.cfi_offset 8, -20
 4740              		.cfi_offset 9, -16
 4741              		.cfi_offset 10, -12
 4742              		.cfi_offset 11, -8
 4743              		.cfi_offset 14, -4
 4744 0004 0746     		mov	r7, r0
 4745              		.loc 1 2673 0
 4746 0006 8468     		ldr	r4, [r0, #8]
 4747              		.loc 1 2651 0
 4748 0008 B148     		ldr	r0, .L659
 4749              	.LVL597:
 4750 000a 8BB0     		sub	sp, sp, #44
 4751              		.cfi_def_cfa_offset 80
 4752              		.loc 1 2651 0
 4753 000c 0068     		ldr	r0, [r0]
 4754 000e 0990     		str	r0, [sp, #36]
 4755              		.loc 1 2673 0
 4756 0010 D442     		cmn	r4, r2
 4757 0012 11D3     		bcc	.L651
 4758              	.LVL598:
 4759              	.L547:
 4760              		.loc 1 2760 0
 4761 0014 FB68     		ldr	r3, [r7, #12]
 4762 0016 A342     		cmp	r3, r4
 4763              		.loc 1 2761 0
 4764 0018 BB79     		ldrb	r3, [r7, #6]	@ zero_extendqisi2
 4765              		.loc 1 2760 0
 4766 001a 38BF     		it	cc
 4767 001c FC60     		strcc	r4, [r7, #12]
 4768              		.loc 1 2761 0
 4769 001e 43F02003 		orr	r3, r3, #32
 4770 0022 BB71     		strb	r3, [r7, #6]
 4771              		.loc 1 2763 0
 4772 0024 0020     		movs	r0, #0
 4773              	.L558:
 4774              		.loc 1 2764 0
 4775 0026 AA4B     		ldr	r3, .L659
 4776 0028 099A     		ldr	r2, [sp, #36]
 4777 002a 1B68     		ldr	r3, [r3]
 4778 002c 9A42     		cmp	r2, r3
 4779 002e 40F0C681 		bne	.L652
 4780 0032 0BB0     		add	sp, sp, #44
 4781              		.cfi_remember_state
 4782              		.cfi_def_cfa_offset 36
 4783              		@ sp needed
 4784 0034 BDE8F08F 		pop	{r4, r5, r6, r7, r8, r9, r10, fp, pc}
 4785              	.LVL599:
 4786              	.L651:
 4787              		.cfi_restore_state
 4788 0038 9346     		mov	fp, r2
ARM GAS  C:\Users\mathi\AppData\Local\Temp\ccjAIMZ3.s 			page 85


 4789              		.loc 1 2675 0
 4790 003a 002A     		cmp	r2, #0
 4791 003c EAD0     		beq	.L547
 4792 003e 07F12802 		add	r2, r7, #40
 4793              	.LVL600:
 4794 0042 9A46     		mov	r10, r3
 4795 0044 5342     		negs	r3, r2
 4796              	.LVL601:
 4797 0046 0192     		str	r2, [sp, #4]
 4798 0048 03F00302 		and	r2, r3, #3
 4799 004c 8946     		mov	r9, r1
 4800 004e 0292     		str	r2, [sp, #8]
 4801 0050 C2F50071 		rsb	r1, r2, #512
 4802              	.LVL602:
 4803 0054 2832     		adds	r2, r2, #40
 4804 0056 8808     		lsrs	r0, r1, #2
 4805 0058 0691     		str	r1, [sp, #24]
 4806 005a 0792     		str	r2, [sp, #28]
 4807 005c 21F00301 		bic	r1, r1, #3
 4808 0060 07F12C02 		add	r2, r7, #44
 4809 0064 0590     		str	r0, [sp, #20]
 4810 0066 0491     		str	r1, [sp, #16]
 4811 0068 0392     		str	r2, [sp, #12]
 4812              	.LVL603:
 4813              	.L585:
 4814              		.loc 1 2677 0
 4815 006a C4F30801 		ubfx	r1, r4, #0, #9
 4816 006e 0029     		cmp	r1, #0
 4817 0070 4CD1     		bne	.L548
 4818              		.loc 1 2678 0
 4819 0072 3868     		ldr	r0, [r7]
 4820 0074 8278     		ldrb	r2, [r0, #2]	@ zero_extendqisi2
 4821 0076 630A     		lsrs	r3, r4, #9
 4822 0078 561E     		subs	r6, r2, #1
 4823 007a 1E40     		ands	r6, r6, r3
 4824              	.LVL604:
 4825              		.loc 1 2679 0
 4826 007c 16F0FF06 		ands	r6, r6, #255
 4827              	.LVL605:
 4828 0080 10D1     		bne	.L549
 4829              		.loc 1 2680 0
 4830 0082 002C     		cmp	r4, #0
 4831 0084 40F0D680 		bne	.L550
 4832              		.loc 1 2681 0
 4833 0088 3B69     		ldr	r3, [r7, #16]
 4834              	.LVL606:
 4835              		.loc 1 2682 0
 4836 008a 002B     		cmp	r3, #0
 4837 008c 00F00E81 		beq	.L653
 4838              	.LVL607:
 4839              	.L551:
 4840              		.loc 1 2693 0
 4841 0090 012B     		cmp	r3, #1
 4842 0092 00F07981 		beq	.L563
 4843              		.loc 1 2694 0
 4844 0096 5A1C     		adds	r2, r3, #1
 4845 0098 2AD0     		beq	.L562
ARM GAS  C:\Users\mathi\AppData\Local\Temp\ccjAIMZ3.s 			page 86


 4846              		.loc 1 2696 0
 4847 009a 3A69     		ldr	r2, [r7, #16]
 4848              		.loc 1 2695 0
 4849 009c 7B61     		str	r3, [r7, #20]
 4850 009e 3868     		ldr	r0, [r7]
 4851              		.loc 1 2696 0
 4852 00a0 02B9     		cbnz	r2, .L549
 4853 00a2 3B61     		str	r3, [r7, #16]
 4854              	.LVL608:
 4855              	.L549:
 4856              		.loc 1 2702 0
 4857 00a4 BB79     		ldrb	r3, [r7, #6]	@ zero_extendqisi2
 4858 00a6 5B06     		lsls	r3, r3, #25
 4859 00a8 00F1B580 		bmi	.L654
 4860              	.L561:
 4861              	.LVL609:
 4862              	.LBB906:
 4863              	.LBB907:
 4864              		.loc 1 852 0
 4865 00ac 7B69     		ldr	r3, [r7, #20]
 4866              		.loc 1 853 0
 4867 00ae 4269     		ldr	r2, [r0, #20]
 4868              		.loc 1 852 0
 4869 00b0 A3F10208 		sub	r8, r3, #2
 4870              	.LVL610:
 4871              		.loc 1 853 0
 4872 00b4 023A     		subs	r2, r2, #2
 4873 00b6 9045     		cmp	r8, r2
 4874 00b8 80F06681 		bcs	.L563
 4875              	.LVL611:
 4876              		.loc 1 854 0
 4877 00bc 8378     		ldrb	r3, [r0, #2]	@ zero_extendqisi2
 4878 00be 826A     		ldr	r2, [r0, #40]
 4879 00c0 0092     		str	r2, [sp]
 4880 00c2 03FB08F8 		mul	r8, r3, r8
 4881              	.LBE907:
 4882              	.LBE906:
 4883              		.loc 1 2709 0
 4884 00c6 18EB0205 		adds	r5, r8, r2
 4885 00ca 00F05D81 		beq	.L563
 4886              		.loc 1 2712 0
 4887 00ce 5FEA5B24 		lsrs	r4, fp, #9
 4888              		.loc 1 2710 0
 4889 00d2 3544     		add	r5, r5, r6
 4890              	.LVL612:
 4891              		.loc 1 2712 0
 4892 00d4 0FD0     		beq	.L564
 4893              		.loc 1 2713 0
 4894 00d6 3219     		adds	r2, r6, r4
 4895 00d8 9342     		cmp	r3, r2
 4896              		.loc 1 2714 0
 4897 00da 38BF     		it	cc
 4898 00dc 9C1B     		subcc	r4, r3, r6
 4899              	.LVL613:
 4900              		.loc 1 2715 0
 4901 00de 4078     		ldrb	r0, [r0, #1]	@ zero_extendqisi2
 4902 00e0 2346     		mov	r3, r4
ARM GAS  C:\Users\mathi\AppData\Local\Temp\ccjAIMZ3.s 			page 87


 4903 00e2 2A46     		mov	r2, r5
 4904 00e4 4946     		mov	r1, r9
 4905 00e6 FFF7FEFF 		bl	disk_write
 4906              	.LVL614:
 4907 00ea 0028     		cmp	r0, #0
 4908 00ec 00F0BD80 		beq	.L655
 4909              	.LVL615:
 4910              	.L562:
 4911              		.loc 1 2694 0
 4912 00f0 0120     		movs	r0, #1
 4913 00f2 F871     		strb	r0, [r7, #7]
 4914 00f4 97E7     		b	.L558
 4915              	.LVL616:
 4916              	.L564:
 4917              		.loc 1 2739 0
 4918 00f6 BB69     		ldr	r3, [r7, #24]
 4919 00f8 B968     		ldr	r1, [r7, #8]
 4920 00fa 9D42     		cmp	r5, r3
 4921 00fc 03D0     		beq	.L576
 4922              		.loc 1 2740 0
 4923 00fe FB68     		ldr	r3, [r7, #12]
 4924 0100 8B42     		cmp	r3, r1
 4925 0102 00F2C880 		bhi	.L656
 4926              	.L576:
 4927              		.loc 1 2745 0
 4928 0106 BD61     		str	r5, [r7, #24]
 4929 0108 C1F30801 		ubfx	r1, r1, #0, #9
 4930              	.LVL617:
 4931              	.L548:
 4932              		.loc 1 2747 0
 4933 010c C1F50074 		rsb	r4, r1, #512
 4934              		.loc 1 2755 0
 4935 0110 01F12800 		add	r0, r1, #40
 4936 0114 01F12C03 		add	r3, r1, #44
 4937 0118 5C45     		cmp	r4, fp
 4938 011a 07EB0002 		add	r2, r7, r0
 4939 011e 3B44     		add	r3, r3, r7
 4940 0120 09F10406 		add	r6, r9, #4
 4941 0124 28BF     		it	cs
 4942 0126 5C46     		movcs	r4, fp
 4943              	.LVL618:
 4944 0128 B242     		cmp	r2, r6
 4945 012a 38BF     		it	cc
 4946 012c 9945     		cmpcc	r9, r3
 4947              	.LBB908:
 4948              	.LBB909:
 4949              		.loc 1 573 0
 4950 012e 04F1FF35 		add	r5, r4, #-1
 4951              	.LVL619:
 4952 0132 C0F0A380 		bcc	.L589
 4953 0136 0B2C     		cmp	r4, #11
 4954 0138 40F2A080 		bls	.L589
 4955 013c C9F10003 		rsb	r3, r9, #0
 4956 0140 03F00303 		and	r3, r3, #3
 4957 0144 DE1C     		adds	r6, r3, #3
 4958 0146 AE42     		cmp	r6, r5
 4959 0148 00F2C080 		bhi	.L594
ARM GAS  C:\Users\mathi\AppData\Local\Temp\ccjAIMZ3.s 			page 88


 4960 014c 002B     		cmp	r3, #0
 4961 014e 00F09F80 		beq	.L595
 4962              		.loc 1 574 0
 4963 0152 99F80050 		ldrb	r5, [r9]	@ zero_extendqisi2
 4964              	.LVL620:
 4965 0156 3D54     		strb	r5, [r7, r0]
 4966 0158 012B     		cmp	r3, #1
 4967 015a 09F10106 		add	r6, r9, #1
 4968              	.LVL621:
 4969 015e 02F10108 		add	r8, r2, #1
 4970              	.LVL622:
 4971              		.loc 1 573 0
 4972 0162 A4F10205 		sub	r5, r4, #2
 4973              	.LVL623:
 4974 0166 12D0     		beq	.L578
 4975              	.LVL624:
 4976              		.loc 1 574 0
 4977 0168 99F80100 		ldrb	r0, [r9, #1]	@ zero_extendqisi2
 4978 016c 5070     		strb	r0, [r2, #1]
 4979 016e 032B     		cmp	r3, #3
 4980 0170 09F10206 		add	r6, r9, #2
 4981              	.LVL625:
 4982 0174 02F10208 		add	r8, r2, #2
 4983              	.LVL626:
 4984              		.loc 1 573 0
 4985 0178 A4F10305 		sub	r5, r4, #3
 4986              	.LVL627:
 4987 017c 07D1     		bne	.L578
 4988              	.LVL628:
 4989              		.loc 1 574 0
 4990 017e 99F80200 		ldrb	r0, [r9, #2]	@ zero_extendqisi2
 4991 0182 9070     		strb	r0, [r2, #2]
 4992 0184 02F10308 		add	r8, r2, #3
 4993              	.LVL629:
 4994 0188 09F10306 		add	r6, r9, #3
 4995              	.LVL630:
 4996              		.loc 1 573 0
 4997 018c 251F     		subs	r5, r4, #4
 4998              	.LVL631:
 4999              	.L578:
 5000 018e 03F12802 		add	r2, r3, #40
 5001              	.LVL632:
 5002 0192 1144     		add	r1, r1, r2
 5003              	.LVL633:
 5004 0194 A4EB030E 		sub	lr, r4, r3
 5005 0198 3944     		add	r1, r1, r7
 5006 019a 4B44     		add	r3, r3, r9
 5007 019c 4FEA9E0C 		lsr	ip, lr, #2
 5008 01a0 0022     		movs	r2, #0
 5009              	.LVL634:
 5010              	.L580:
 5011 01a2 0132     		adds	r2, r2, #1
 5012              		.loc 1 574 0
 5013 01a4 53F8040B 		ldr	r0, [r3], #4
 5014 01a8 41F8040B 		str	r0, [r1], #4	@ unaligned
 5015 01ac 9445     		cmp	ip, r2
 5016 01ae F8D8     		bhi	.L580
ARM GAS  C:\Users\mathi\AppData\Local\Temp\ccjAIMZ3.s 			page 89


 5017 01b0 2EF00303 		bic	r3, lr, #3
 5018 01b4 9E45     		cmp	lr, r3
 5019 01b6 1E44     		add	r6, r6, r3
 5020 01b8 08EB0302 		add	r2, r8, r3
 5021 01bc A5EB0305 		sub	r5, r5, r3
 5022 01c0 14D0     		beq	.L650
 5023              	.L577:
 5024              	.LVL635:
 5025 01c2 3378     		ldrb	r3, [r6]	@ zero_extendqisi2
 5026 01c4 1370     		strb	r3, [r2]
 5027              	.LVL636:
 5028              		.loc 1 573 0
 5029 01c6 8DB1     		cbz	r5, .L650
 5030              	.LVL637:
 5031              		.loc 1 574 0
 5032 01c8 7378     		ldrb	r3, [r6, #1]	@ zero_extendqisi2
 5033 01ca 5370     		strb	r3, [r2, #1]
 5034              	.LVL638:
 5035              		.loc 1 573 0
 5036 01cc 012D     		cmp	r5, #1
 5037 01ce 0DD0     		beq	.L650
 5038              	.LVL639:
 5039              		.loc 1 574 0
 5040 01d0 B378     		ldrb	r3, [r6, #2]	@ zero_extendqisi2
 5041 01d2 9370     		strb	r3, [r2, #2]
 5042              	.LVL640:
 5043              		.loc 1 573 0
 5044 01d4 022D     		cmp	r5, #2
 5045 01d6 09D0     		beq	.L650
 5046              	.LVL641:
 5047              		.loc 1 574 0
 5048 01d8 F378     		ldrb	r3, [r6, #3]	@ zero_extendqisi2
 5049 01da D370     		strb	r3, [r2, #3]
 5050              	.LVL642:
 5051              		.loc 1 573 0
 5052 01dc 032D     		cmp	r5, #3
 5053 01de 05D0     		beq	.L650
 5054              	.LVL643:
 5055              		.loc 1 574 0
 5056 01e0 3379     		ldrb	r3, [r6, #4]	@ zero_extendqisi2
 5057 01e2 1371     		strb	r3, [r2, #4]
 5058              	.LVL644:
 5059              		.loc 1 573 0
 5060 01e4 042D     		cmp	r5, #4
 5061              	.LVL645:
 5062              		.loc 1 574 0
 5063 01e6 1CBF     		itt	ne
 5064 01e8 7379     		ldrbne	r3, [r6, #5]	@ zero_extendqisi2
 5065 01ea 5371     		strbne	r3, [r2, #5]
 5066              	.LVL646:
 5067              	.L650:
 5068 01ec 09EB0401 		add	r1, r9, r4
 5069              	.LVL647:
 5070              	.L583:
 5071              	.LBE909:
 5072              	.LBE908:
 5073              		.loc 1 2756 0
ARM GAS  C:\Users\mathi\AppData\Local\Temp\ccjAIMZ3.s 			page 90


 5074 01f0 BA79     		ldrb	r2, [r7, #6]	@ zero_extendqisi2
 5075 01f2 BB68     		ldr	r3, [r7, #8]
 5076 01f4 42F04002 		orr	r2, r2, #64
 5077 01f8 BA71     		strb	r2, [r7, #6]
 5078              	.L575:
 5079              	.LVL648:
 5080              		.loc 1 2676 0
 5081 01fa 2344     		add	r3, r3, r4
 5082 01fc BB60     		str	r3, [r7, #8]
 5083 01fe DAF80030 		ldr	r3, [r10]
 5084 0202 2344     		add	r3, r3, r4
 5085 0204 CAF80030 		str	r3, [r10]
 5086              		.loc 1 2675 0
 5087 0208 BBEB040B 		subs	fp, fp, r4
 5088              	.LVL649:
 5089              		.loc 1 2676 0
 5090 020c 8946     		mov	r9, r1
 5091 020e BC68     		ldr	r4, [r7, #8]
 5092              	.LVL650:
 5093              		.loc 1 2675 0
 5094 0210 7FF42BAF 		bne	.L585
 5095 0214 FEE6     		b	.L547
 5096              	.LVL651:
 5097              	.L654:
 5098              		.loc 1 2703 0
 5099 0216 4078     		ldrb	r0, [r0, #1]	@ zero_extendqisi2
 5100 0218 BA69     		ldr	r2, [r7, #24]
 5101 021a 0199     		ldr	r1, [sp, #4]
 5102 021c 0123     		movs	r3, #1
 5103 021e FFF7FEFF 		bl	disk_write
 5104              	.LVL652:
 5105 0222 0028     		cmp	r0, #0
 5106 0224 7FF464AF 		bne	.L562
 5107              		.loc 1 2705 0
 5108 0228 BB79     		ldrb	r3, [r7, #6]	@ zero_extendqisi2
 5109 022a 3868     		ldr	r0, [r7]
 5110 022c 23F04003 		bic	r3, r3, #64
 5111 0230 BB71     		strb	r3, [r7, #6]
 5112 0232 3BE7     		b	.L561
 5113              	.LVL653:
 5114              	.L550:
 5115              		.loc 1 2686 0
 5116 0234 796A     		ldr	r1, [r7, #36]
 5117 0236 0029     		cmp	r1, #0
 5118 0238 40D0     		beq	.L553
 5119              	.LVL654:
 5120              	.LBB913:
 5121              	.LBB914:
 5122              		.loc 1 1098 0
 5123 023a B3FBF2F3 		udiv	r3, r3, r2
 5124              	.LVL655:
 5125              		.loc 1 1100 0
 5126 023e 4A68     		ldr	r2, [r1, #4]
 5127              	.LVL656:
 5128              		.loc 1 1097 0
 5129 0240 0431     		adds	r1, r1, #4
 5130              	.LVL657:
ARM GAS  C:\Users\mathi\AppData\Local\Temp\ccjAIMZ3.s 			page 91


 5131              		.loc 1 1101 0
 5132 0242 002A     		cmp	r2, #0
 5133 0244 3FF4E6AE 		beq	.L547
 5134              		.loc 1 1102 0
 5135 0248 9342     		cmp	r3, r2
 5136 024a 07D3     		bcc	.L554
 5137              	.LVL658:
 5138              	.L555:
 5139              		.loc 1 1103 0
 5140 024c 9B1A     		subs	r3, r3, r2
 5141              	.LVL659:
 5142              		.loc 1 1100 0
 5143 024e 51F8082F 		ldr	r2, [r1, #8]!
 5144              	.LVL660:
 5145              		.loc 1 1101 0
 5146 0252 002A     		cmp	r2, #0
 5147 0254 3FF4DEAE 		beq	.L547
 5148              		.loc 1 1102 0
 5149 0258 9A42     		cmp	r2, r3
 5150 025a F7D9     		bls	.L555
 5151              	.LVL661:
 5152              	.L554:
 5153              		.loc 1 1105 0
 5154 025c 4A68     		ldr	r2, [r1, #4]
 5155              	.LVL662:
 5156 025e 1344     		add	r3, r3, r2
 5157              	.LVL663:
 5158              	.LBE914:
 5159              	.LBE913:
 5160              		.loc 1 2692 0
 5161 0260 002B     		cmp	r3, #0
 5162 0262 7FF415AF 		bne	.L551
 5163              	.LVL664:
 5164              	.L658:
 5165 0266 BC68     		ldr	r4, [r7, #8]
 5166 0268 D4E6     		b	.L547
 5167              	.LVL665:
 5168              	.L655:
 5169              		.loc 1 2724 0
 5170 026a BA69     		ldr	r2, [r7, #24]
 5171 026c 551B     		subs	r5, r2, r5
 5172              	.LVL666:
 5173 026e AC42     		cmp	r4, r5
 5174 0270 30D8     		bhi	.L657
 5175              	.LVL667:
 5176              	.L566:
 5177              		.loc 1 2730 0
 5178 0272 6402     		lsls	r4, r4, #9
 5179              	.LVL668:
 5180 0274 09EB0401 		add	r1, r9, r4
 5181 0278 BB68     		ldr	r3, [r7, #8]
 5182 027a BEE7     		b	.L575
 5183              	.LVL669:
 5184              	.L589:
 5185 027c 013A     		subs	r2, r2, #1
 5186              	.LVL670:
 5187 027e 09EB0401 		add	r1, r9, r4
ARM GAS  C:\Users\mathi\AppData\Local\Temp\ccjAIMZ3.s 			page 92


 5188              	.LVL671:
 5189              	.L582:
 5190              	.LBB915:
 5191              	.LBB910:
 5192              		.loc 1 574 0
 5193 0282 19F8013B 		ldrb	r3, [r9], #1	@ zero_extendqisi2
 5194              	.LVL672:
 5195 0286 02F8013F 		strb	r3, [r2, #1]!
 5196              	.LVL673:
 5197              		.loc 1 573 0
 5198 028a 8945     		cmp	r9, r1
 5199 028c F9D1     		bne	.L582
 5200 028e AFE7     		b	.L583
 5201              	.LVL674:
 5202              	.L595:
 5203              	.LBE910:
 5204              	.LBE915:
 5205              		.loc 1 2755 0
 5206 0290 9046     		mov	r8, r2
 5207              	.LBB916:
 5208              	.LBB911:
 5209              		.loc 1 573 0
 5210 0292 4E46     		mov	r6, r9
 5211 0294 7BE7     		b	.L578
 5212              	.LVL675:
 5213              	.L656:
 5214              	.LBE911:
 5215              	.LBE916:
 5216              		.loc 1 2741 0
 5217 0296 4078     		ldrb	r0, [r0, #1]	@ zero_extendqisi2
 5218 0298 0199     		ldr	r1, [sp, #4]
 5219 029a 0123     		movs	r3, #1
 5220 029c 2A46     		mov	r2, r5
 5221 029e FFF7FEFF 		bl	disk_read
 5222              	.LVL676:
 5223              		.loc 1 2740 0
 5224 02a2 0028     		cmp	r0, #0
 5225 02a4 7FF424AF 		bne	.L562
 5226 02a8 B968     		ldr	r1, [r7, #8]
 5227 02aa 2CE7     		b	.L576
 5228              	.LVL677:
 5229              	.L653:
 5230              		.loc 1 2683 0
 5231 02ac 3146     		mov	r1, r6
 5232 02ae FFF7FEFF 		bl	create_chain
 5233              	.LVL678:
 5234 02b2 0346     		mov	r3, r0
 5235              	.LVL679:
 5236              		.loc 1 2692 0
 5237 02b4 002B     		cmp	r3, #0
 5238 02b6 7FF4EBAE 		bne	.L551
 5239 02ba D4E7     		b	.L658
 5240              	.LVL680:
 5241              	.L553:
 5242              		.loc 1 2690 0
 5243 02bc 7969     		ldr	r1, [r7, #20]
 5244 02be FFF7FEFF 		bl	create_chain
ARM GAS  C:\Users\mathi\AppData\Local\Temp\ccjAIMZ3.s 			page 93


 5245              	.LVL681:
 5246 02c2 0346     		mov	r3, r0
 5247              	.LVL682:
 5248              		.loc 1 2692 0
 5249 02c4 002B     		cmp	r3, #0
 5250 02c6 7FF4E3AE 		bne	.L551
 5251 02ca CCE7     		b	.L658
 5252              	.LVL683:
 5253              	.L594:
 5254              	.LBB917:
 5255              	.LBB912:
 5256              		.loc 1 573 0
 5257 02cc 4E46     		mov	r6, r9
 5258 02ce 78E7     		b	.L577
 5259              	.L660:
 5260              		.align	2
 5261              	.L659:
 5262 02d0 00000000 		.word	__stack_chk_guard
 5263              	.LVL684:
 5264              	.L657:
 5265 02d4 009B     		ldr	r3, [sp]
 5266 02d6 0398     		ldr	r0, [sp, #12]
 5267 02d8 921B     		subs	r2, r2, r6
 5268 02da D21A     		subs	r2, r2, r3
 5269 02dc A2EB0802 		sub	r2, r2, r8
 5270 02e0 5202     		lsls	r2, r2, #9
 5271 02e2 09EB0201 		add	r1, r9, r2
 5272              	.LBE912:
 5273              	.LBE917:
 5274              		.loc 1 2725 0
 5275 02e6 019E     		ldr	r6, [sp, #4]
 5276              	.LVL685:
 5277 02e8 8842     		cmp	r0, r1
 5278 02ea 09EB4523 		add	r3, r9, r5, lsl #9
 5279              	.LVL686:
 5280 02ee 3546     		mov	r5, r6
 5281 02f0 03D9     		bls	.L596
 5282 02f2 111D     		adds	r1, r2, #4
 5283 02f4 4944     		add	r1, r1, r9
 5284 02f6 8E42     		cmp	r6, r1
 5285 02f8 56D3     		bcc	.L567
 5286              	.L596:
 5287 02fa 0298     		ldr	r0, [sp, #8]
 5288 02fc 0028     		cmp	r0, #0
 5289 02fe 4ED0     		beq	.L591
 5290              	.LVL687:
 5291              	.LBB918:
 5292              	.LBB919:
 5293              		.loc 1 574 0
 5294 0300 1978     		ldrb	r1, [r3]	@ zero_extendqisi2
 5295 0302 87F82810 		strb	r1, [r7, #40]
 5296 0306 0128     		cmp	r0, #1
 5297 0308 03F1010C 		add	ip, r3, #1
 5298              	.LVL688:
 5299 030c 07F12905 		add	r5, r7, #41
 5300              	.LVL689:
 5301 0310 41D0     		beq	.L592
ARM GAS  C:\Users\mathi\AppData\Local\Temp\ccjAIMZ3.s 			page 94


 5302              	.LVL690:
 5303 0312 5978     		ldrb	r1, [r3, #1]	@ zero_extendqisi2
 5304 0314 87F82910 		strb	r1, [r7, #41]
 5305 0318 0328     		cmp	r0, #3
 5306 031a 03F1020C 		add	ip, r3, #2
 5307              	.LVL691:
 5308 031e 07F12A05 		add	r5, r7, #42
 5309              	.LVL692:
 5310 0322 34D1     		bne	.L593
 5311              	.LVL693:
 5312 0324 9978     		ldrb	r1, [r3, #2]	@ zero_extendqisi2
 5313 0326 87F82A10 		strb	r1, [r7, #42]
 5314 032a 03F1030C 		add	ip, r3, #3
 5315              	.LVL694:
 5316 032e 07F12B05 		add	r5, r7, #43
 5317              	.LVL695:
 5318 0332 40F2FD16 		movw	r6, #509
 5319 0336 0346     		mov	r3, r0
 5320              	.LVL696:
 5321              	.L569:
 5322 0338 1A44     		add	r2, r2, r3
 5323 033a 079B     		ldr	r3, [sp, #28]
 5324              	.LBE919:
 5325              	.LBE918:
 5326              		.loc 1 2725 0
 5327 033c DDF814E0 		ldr	lr, [sp, #20]
 5328 0340 F918     		adds	r1, r7, r3
 5329 0342 4A44     		add	r2, r2, r9
 5330 0344 0023     		movs	r3, #0
 5331              	.L571:
 5332 0346 0133     		adds	r3, r3, #1
 5333              	.LBB923:
 5334              	.LBB920:
 5335              		.loc 1 574 0
 5336 0348 52F8040B 		ldr	r0, [r2], #4	@ unaligned
 5337 034c 41F8040B 		str	r0, [r1], #4
 5338 0350 9E45     		cmp	lr, r3
 5339 0352 F8D8     		bhi	.L571
 5340 0354 0498     		ldr	r0, [sp, #16]
 5341 0356 0699     		ldr	r1, [sp, #24]
 5342 0358 8842     		cmp	r0, r1
 5343 035a A6EB0006 		sub	r6, r6, r0
 5344 035e 0CEB0002 		add	r2, ip, r0
 5345 0362 05EB0003 		add	r3, r5, r0
 5346 0366 0AD0     		beq	.L574
 5347              	.LVL697:
 5348 0368 1CF80010 		ldrb	r1, [ip, r0]	@ zero_extendqisi2
 5349 036c 2954     		strb	r1, [r5, r0]
 5350              		.loc 1 573 0
 5351 036e 012E     		cmp	r6, #1
 5352 0370 05D0     		beq	.L574
 5353              	.LVL698:
 5354              		.loc 1 574 0
 5355 0372 5178     		ldrb	r1, [r2, #1]	@ zero_extendqisi2
 5356 0374 5970     		strb	r1, [r3, #1]
 5357              		.loc 1 573 0
 5358 0376 022E     		cmp	r6, #2
ARM GAS  C:\Users\mathi\AppData\Local\Temp\ccjAIMZ3.s 			page 95


 5359 0378 01D0     		beq	.L574
 5360              	.LVL699:
 5361              		.loc 1 574 0
 5362 037a 9278     		ldrb	r2, [r2, #2]	@ zero_extendqisi2
 5363              	.LVL700:
 5364 037c 9A70     		strb	r2, [r3, #2]
 5365              	.LVL701:
 5366              	.L574:
 5367              	.LBE920:
 5368              	.LBE923:
 5369              		.loc 1 2726 0
 5370 037e BB79     		ldrb	r3, [r7, #6]	@ zero_extendqisi2
 5371 0380 23F04003 		bic	r3, r3, #64
 5372 0384 BB71     		strb	r3, [r7, #6]
 5373 0386 74E7     		b	.L566
 5374              	.LVL702:
 5375              	.L563:
 5376              		.loc 1 2693 0
 5377 0388 0220     		movs	r0, #2
 5378 038a F871     		strb	r0, [r7, #7]
 5379 038c 4BE6     		b	.L558
 5380              	.LVL703:
 5381              	.L593:
 5382              	.LBB924:
 5383              	.LBB921:
 5384              		.loc 1 574 0
 5385 038e 4FF4FF76 		mov	r6, #510
 5386 0392 0346     		mov	r3, r0
 5387              	.LVL704:
 5388 0394 D0E7     		b	.L569
 5389              	.LVL705:
 5390              	.L592:
 5391 0396 40F2FF16 		movw	r6, #511
 5392 039a 0346     		mov	r3, r0
 5393              	.LVL706:
 5394 039c CCE7     		b	.L569
 5395              	.LVL707:
 5396              	.L591:
 5397              	.LBE921:
 5398              	.LBE924:
 5399              		.loc 1 2725 0
 5400 039e 9C46     		mov	ip, r3
 5401 03a0 4FF40076 		mov	r6, #512
 5402 03a4 0346     		mov	r3, r0
 5403              	.LVL708:
 5404 03a6 C7E7     		b	.L569
 5405              	.LVL709:
 5406              	.L567:
 5407 03a8 07F12702 		add	r2, r7, #39
 5408 03ac 03F50070 		add	r0, r3, #512
 5409              	.LVL710:
 5410              	.L573:
 5411              	.LBB925:
 5412              	.LBB922:
 5413              		.loc 1 574 0
 5414 03b0 13F8011B 		ldrb	r1, [r3], #1	@ zero_extendqisi2
 5415              	.LVL711:
ARM GAS  C:\Users\mathi\AppData\Local\Temp\ccjAIMZ3.s 			page 96


 5416 03b4 02F8011F 		strb	r1, [r2, #1]!
 5417              	.LVL712:
 5418              		.loc 1 573 0
 5419 03b8 9842     		cmp	r0, r3
 5420 03ba F9D1     		bne	.L573
 5421 03bc DFE7     		b	.L574
 5422              	.LVL713:
 5423              	.L652:
 5424              	.LBE922:
 5425              	.LBE925:
 5426              		.loc 1 2764 0
 5427 03be FFF7FEFF 		bl	__stack_chk_fail
 5428              	.LVL714:
 5429              		.cfi_endproc
 5430              	.LFE290:
 5431              		.size	f_write.part.11, .-f_write.part.11
 5432 03c2 00BF     		.section	.text.putc_bfd,"ax",%progbits
 5433              		.align	1
 5434              		.p2align 4,,15
 5435              		.syntax unified
 5436              		.thumb
 5437              		.thumb_func
 5438              		.fpu fpv4-sp-d16
 5439              		.type	putc_bfd, %function
 5440              	putc_bfd:
 5441              	.LFB275:
 5442              		.loc 1 4384 0
 5443              		.cfi_startproc
 5444              		@ args = 0, pretend = 0, frame = 8
 5445              		@ frame_needed = 0, uses_anonymous_args = 0
 5446              	.LVL715:
 5447 0000 F0B5     		push	{r4, r5, r6, r7, lr}
 5448              		.cfi_def_cfa_offset 20
 5449              		.cfi_offset 4, -20
 5450              		.cfi_offset 5, -16
 5451              		.cfi_offset 6, -12
 5452              		.cfi_offset 7, -8
 5453              		.cfi_offset 14, -4
 5454 0002 214E     		ldr	r6, .L681
 5455              		.loc 1 4392 0
 5456 0004 4468     		ldr	r4, [r0, #4]
 5457              	.LVL716:
 5458              		.loc 1 4384 0
 5459 0006 3268     		ldr	r2, [r6]
 5460 0008 83B0     		sub	sp, sp, #12
 5461              		.cfi_def_cfa_offset 32
 5462              		.loc 1 4393 0
 5463 000a 002C     		cmp	r4, #0
 5464              		.loc 1 4384 0
 5465 000c 0192     		str	r2, [sp, #4]
 5466              		.loc 1 4393 0
 5467 000e 09DB     		blt	.L661
 5468              		.loc 1 4422 0
 5469 0010 0219     		adds	r2, r0, r4
 5470 0012 0134     		adds	r4, r4, #1
 5471              	.LVL717:
 5472              		.loc 1 4425 0
ARM GAS  C:\Users\mathi\AppData\Local\Temp\ccjAIMZ3.s 			page 97


 5473 0014 3C2C     		cmp	r4, #60
 5474 0016 0546     		mov	r5, r0
 5475              	.LVL718:
 5476              		.loc 1 4422 0
 5477 0018 1173     		strb	r1, [r2, #12]
 5478              		.loc 1 4425 0
 5479 001a 09DC     		bgt	.L678
 5480              	.LVL719:
 5481              	.L663:
 5482              		.loc 1 4430 0
 5483 001c AB68     		ldr	r3, [r5, #8]
 5484              		.loc 1 4429 0
 5485 001e 6C60     		str	r4, [r5, #4]
 5486              		.loc 1 4430 0
 5487 0020 0133     		adds	r3, r3, #1
 5488 0022 AB60     		str	r3, [r5, #8]
 5489              	.LVL720:
 5490              	.L661:
 5491              		.loc 1 4431 0
 5492 0024 019A     		ldr	r2, [sp, #4]
 5493 0026 3368     		ldr	r3, [r6]
 5494 0028 9A42     		cmp	r2, r3
 5495 002a 2BD1     		bne	.L679
 5496 002c 03B0     		add	sp, sp, #12
 5497              		.cfi_remember_state
 5498              		.cfi_def_cfa_offset 20
 5499              		@ sp needed
 5500 002e F0BD     		pop	{r4, r5, r6, r7, pc}
 5501              	.LVL721:
 5502              	.L678:
 5503              		.cfi_restore_state
 5504              		.loc 1 4426 0
 5505 0030 0768     		ldr	r7, [r0]
 5506              	.LVL722:
 5507              	.LBB930:
 5508              	.LBB931:
 5509              		.loc 1 2665 0
 5510 0032 0020     		movs	r0, #0
 5511              	.LVL723:
 5512 0034 0090     		str	r0, [sp]
 5513              	.LVL724:
 5514              	.LBB932:
 5515              	.LBB933:
 5516              		.loc 1 2342 0
 5517 0036 77B1     		cbz	r7, .L669
 5518 0038 3B68     		ldr	r3, [r7]
 5519 003a 0BB3     		cbz	r3, .L670
 5520 003c 1A78     		ldrb	r2, [r3]	@ zero_extendqisi2
 5521 003e 42B1     		cbz	r2, .L671
 5522 0040 D988     		ldrh	r1, [r3, #6]
 5523              	.LVL725:
 5524 0042 BA88     		ldrh	r2, [r7, #4]
 5525 0044 9142     		cmp	r1, r2
 5526 0046 08D0     		beq	.L680
 5527              	.LVL726:
 5528              	.L664:
 5529              	.LBE933:
ARM GAS  C:\Users\mathi\AppData\Local\Temp\ccjAIMZ3.s 			page 98


 5530              	.LBE932:
 5531              	.LBE931:
 5532              	.LBE930:
 5533              		.loc 1 4427 0
 5534 0048 241A     		subs	r4, r4, r0
 5535              	.LVL727:
 5536 004a 18BF     		it	ne
 5537 004c 4FF0FF34 		movne	r4, #-1
 5538 0050 E4E7     		b	.L663
 5539              	.LVL728:
 5540              	.L671:
 5541              	.LBB939:
 5542              	.LBB938:
 5543              	.LBB936:
 5544              	.LBB934:
 5545              		.loc 1 2342 0
 5546 0052 1046     		mov	r0, r2
 5547 0054 F8E7     		b	.L664
 5548              	.L669:
 5549 0056 3846     		mov	r0, r7
 5550 0058 F6E7     		b	.L664
 5551              	.LVL729:
 5552              	.L680:
 5553              		.loc 1 2347 0
 5554 005a 5878     		ldrb	r0, [r3, #1]	@ zero_extendqisi2
 5555 005c FFF7FEFF 		bl	disk_status
 5556              	.LVL730:
 5557 0060 C207     		lsls	r2, r0, #31
 5558 0062 0BD4     		bmi	.L677
 5559              	.LVL731:
 5560              	.LBE934:
 5561              	.LBE936:
 5562              		.loc 1 2669 0
 5563 0064 FB79     		ldrb	r3, [r7, #7]	@ zero_extendqisi2
 5564 0066 4BB9     		cbnz	r3, .L677
 5565              		.loc 1 2671 0
 5566 0068 BB79     		ldrb	r3, [r7, #6]	@ zero_extendqisi2
 5567 006a 9B07     		lsls	r3, r3, #30
 5568 006c 06D5     		bpl	.L677
 5569 006e 3846     		mov	r0, r7
 5570 0070 6B46     		mov	r3, sp
 5571 0072 2246     		mov	r2, r4
 5572 0074 05F10C01 		add	r1, r5, #12
 5573 0078 FFF7FEFF 		bl	f_write.part.11
 5574              	.LVL732:
 5575              	.L677:
 5576 007c 0098     		ldr	r0, [sp]
 5577 007e E3E7     		b	.L664
 5578              	.LVL733:
 5579              	.L670:
 5580              	.LBB937:
 5581              	.LBB935:
 5582              		.loc 1 2342 0
 5583 0080 1846     		mov	r0, r3
 5584 0082 E1E7     		b	.L664
 5585              	.LVL734:
 5586              	.L679:
ARM GAS  C:\Users\mathi\AppData\Local\Temp\ccjAIMZ3.s 			page 99


 5587              	.LBE935:
 5588              	.LBE937:
 5589              	.LBE938:
 5590              	.LBE939:
 5591              		.loc 1 4431 0
 5592 0084 FFF7FEFF 		bl	__stack_chk_fail
 5593              	.LVL735:
 5594              	.L682:
 5595              		.align	2
 5596              	.L681:
 5597 0088 00000000 		.word	__stack_chk_guard
 5598              		.cfi_endproc
 5599              	.LFE275:
 5600              		.size	putc_bfd, .-putc_bfd
 5601              		.section	.text.f_read.part.10,"ax",%progbits
 5602              		.align	1
 5603              		.p2align 4,,15
 5604              		.syntax unified
 5605              		.thumb
 5606              		.thumb_func
 5607              		.fpu fpv4-sp-d16
 5608              		.type	f_read.part.10, %function
 5609              	f_read.part.10:
 5610              	.LFB289:
 5611              		.loc 1 2550 0
 5612              		.cfi_startproc
 5613              		@ args = 0, pretend = 0, frame = 40
 5614              		@ frame_needed = 0, uses_anonymous_args = 0
 5615              	.LVL736:
 5616 0000 2DE9F04F 		push	{r4, r5, r6, r7, r8, r9, r10, fp, lr}
 5617              		.cfi_def_cfa_offset 36
 5618              		.cfi_offset 4, -36
 5619              		.cfi_offset 5, -32
 5620              		.cfi_offset 6, -28
 5621              		.cfi_offset 7, -24
 5622              		.cfi_offset 8, -20
 5623              		.cfi_offset 9, -16
 5624              		.cfi_offset 10, -12
 5625              		.cfi_offset 11, -8
 5626              		.cfi_offset 14, -4
 5627 0004 8046     		mov	r8, r0
 5628              		.loc 1 2571 0
 5629 0006 D0E90250 		ldrd	r5, r0, [r0, #8]
 5630              	.LVL737:
 5631              		.loc 1 2550 0
 5632 000a B64C     		ldr	r4, .L793
 5633              		.loc 1 2571 0
 5634 000c A0EB0509 		sub	r9, r0, r5
 5635              		.loc 1 2550 0
 5636 0010 8BB0     		sub	sp, sp, #44
 5637              		.cfi_def_cfa_offset 80
 5638 0012 9145     		cmp	r9, r2
 5639              		.loc 1 2550 0
 5640 0014 2468     		ldr	r4, [r4]
 5641 0016 0994     		str	r4, [sp, #36]
 5642 0018 28BF     		it	cs
 5643 001a 9146     		movcs	r9, r2
ARM GAS  C:\Users\mathi\AppData\Local\Temp\ccjAIMZ3.s 			page 100


 5644              	.LVL738:
 5645              		.loc 1 2574 0
 5646 001c B9F1000F 		cmp	r9, #0
 5647 0020 00F0A881 		beq	.L684
 5648 0024 08F12802 		add	r2, r8, #40
 5649 0028 9B46     		mov	fp, r3
 5650 002a 5342     		negs	r3, r2
 5651              	.LVL739:
 5652 002c 0192     		str	r2, [sp, #4]
 5653 002e 03F00302 		and	r2, r3, #3
 5654 0032 8A46     		mov	r10, r1
 5655 0034 0292     		str	r2, [sp, #8]
 5656 0036 C2F50071 		rsb	r1, r2, #512
 5657              	.LVL740:
 5658 003a 2832     		adds	r2, r2, #40
 5659 003c 8808     		lsrs	r0, r1, #2
 5660 003e 0691     		str	r1, [sp, #24]
 5661 0040 0792     		str	r2, [sp, #28]
 5662 0042 21F00301 		bic	r1, r1, #3
 5663 0046 08F12C02 		add	r2, r8, #44
 5664 004a 0590     		str	r0, [sp, #20]
 5665 004c 0491     		str	r1, [sp, #16]
 5666 004e 0392     		str	r2, [sp, #12]
 5667              	.LVL741:
 5668              	.L720:
 5669              		.loc 1 2576 0
 5670 0050 C5F30803 		ubfx	r3, r5, #0, #9
 5671 0054 002B     		cmp	r3, #0
 5672 0056 5BD1     		bne	.L685
 5673              		.loc 1 2577 0
 5674 0058 D8F80000 		ldr	r0, [r8]
 5675 005c 8378     		ldrb	r3, [r0, #2]	@ zero_extendqisi2
 5676 005e 6C0A     		lsrs	r4, r5, #9
 5677 0060 5E1E     		subs	r6, r3, #1
 5678 0062 2640     		ands	r6, r6, r4
 5679              	.LVL742:
 5680              		.loc 1 2578 0
 5681 0064 16F0FF06 		ands	r6, r6, #255
 5682              	.LVL743:
 5683 0068 00F0D380 		beq	.L686
 5684 006c D8F81440 		ldr	r4, [r8, #20]
 5685              	.LVL744:
 5686              	.L687:
 5687              	.LBB940:
 5688              	.LBB941:
 5689              		.loc 1 853 0
 5690 0070 4369     		ldr	r3, [r0, #20]
 5691              		.loc 1 852 0
 5692 0072 023C     		subs	r4, r4, #2
 5693              	.LVL745:
 5694              		.loc 1 853 0
 5695 0074 023B     		subs	r3, r3, #2
 5696 0076 9C42     		cmp	r4, r3
 5697 0078 80F0EB80 		bcs	.L695
 5698              	.LVL746:
 5699              		.loc 1 854 0
 5700 007c 8378     		ldrb	r3, [r0, #2]	@ zero_extendqisi2
ARM GAS  C:\Users\mathi\AppData\Local\Temp\ccjAIMZ3.s 			page 101


 5701 007e 826A     		ldr	r2, [r0, #40]
 5702 0080 0092     		str	r2, [sp]
 5703 0082 03FB04F4 		mul	r4, r3, r4
 5704              	.LBE941:
 5705              	.LBE940:
 5706              		.loc 1 2594 0
 5707 0086 A718     		adds	r7, r4, r2
 5708 0088 00F0E380 		beq	.L695
 5709              		.loc 1 2597 0
 5710 008c 5FEA5925 		lsrs	r5, r9, #9
 5711              		.loc 1 2595 0
 5712 0090 3744     		add	r7, r7, r6
 5713              	.LVL747:
 5714              		.loc 1 2597 0
 5715 0092 18D0     		beq	.L698
 5716              		.loc 1 2598 0
 5717 0094 7219     		adds	r2, r6, r5
 5718 0096 9342     		cmp	r3, r2
 5719              		.loc 1 2599 0
 5720 0098 38BF     		it	cc
 5721 009a 9D1B     		subcc	r5, r3, r6
 5722              	.LVL748:
 5723              		.loc 1 2600 0
 5724 009c 4078     		ldrb	r0, [r0, #1]	@ zero_extendqisi2
 5725 009e 2B46     		mov	r3, r5
 5726 00a0 3A46     		mov	r2, r7
 5727 00a2 5146     		mov	r1, r10
 5728 00a4 FFF7FEFF 		bl	disk_read
 5729              	.LVL749:
 5730 00a8 0028     		cmp	r0, #0
 5731 00aa 00F0E180 		beq	.L790
 5732              	.LVL750:
 5733              	.L700:
 5734              		.loc 1 2590 0
 5735 00ae 0120     		movs	r0, #1
 5736 00b0 88F80700 		strb	r0, [r8, #7]
 5737              	.LVL751:
 5738              	.L692:
 5739              		.loc 1 2641 0
 5740 00b4 8B4B     		ldr	r3, .L793
 5741 00b6 099A     		ldr	r2, [sp, #36]
 5742 00b8 1B68     		ldr	r3, [r3]
 5743 00ba 9A42     		cmp	r2, r3
 5744 00bc 40F06681 		bne	.L791
 5745 00c0 0BB0     		add	sp, sp, #44
 5746              		.cfi_remember_state
 5747              		.cfi_def_cfa_offset 36
 5748              		@ sp needed
 5749 00c2 BDE8F08F 		pop	{r4, r5, r6, r7, r8, r9, r10, fp, pc}
 5750              	.LVL752:
 5751              	.L698:
 5752              		.cfi_restore_state
 5753              		.loc 1 2615 0
 5754 00c6 D8F81820 		ldr	r2, [r8, #24]
 5755 00ca 9742     		cmp	r7, r2
 5756 00cc 1AD0     		beq	.L711
 5757              		.loc 1 2617 0
ARM GAS  C:\Users\mathi\AppData\Local\Temp\ccjAIMZ3.s 			page 102


 5758 00ce 98F80630 		ldrb	r3, [r8, #6]	@ zero_extendqisi2
 5759 00d2 4078     		ldrb	r0, [r0, #1]	@ zero_extendqisi2
 5760 00d4 5B06     		lsls	r3, r3, #25
 5761 00d6 0ED5     		bpl	.L712
 5762              		.loc 1 2618 0
 5763 00d8 0123     		movs	r3, #1
 5764 00da 0199     		ldr	r1, [sp, #4]
 5765 00dc FFF7FEFF 		bl	disk_write
 5766              	.LVL753:
 5767 00e0 0028     		cmp	r0, #0
 5768 00e2 E4D1     		bne	.L700
 5769              		.loc 1 2620 0
 5770 00e4 98F80630 		ldrb	r3, [r8, #6]	@ zero_extendqisi2
 5771 00e8 D8F80020 		ldr	r2, [r8]
 5772 00ec 23F04003 		bic	r3, r3, #64
 5773 00f0 88F80630 		strb	r3, [r8, #6]
 5774 00f4 5078     		ldrb	r0, [r2, #1]	@ zero_extendqisi2
 5775              	.L712:
 5776              		.loc 1 2623 0
 5777 00f6 0199     		ldr	r1, [sp, #4]
 5778 00f8 0123     		movs	r3, #1
 5779 00fa 3A46     		mov	r2, r7
 5780 00fc FFF7FEFF 		bl	disk_read
 5781              	.LVL754:
 5782 0100 0028     		cmp	r0, #0
 5783 0102 D4D1     		bne	.L700
 5784              	.L711:
 5785 0104 D8F80830 		ldr	r3, [r8, #8]
 5786              		.loc 1 2627 0
 5787 0108 C8F81870 		str	r7, [r8, #24]
 5788 010c C3F30803 		ubfx	r3, r3, #0, #9
 5789              	.LVL755:
 5790              	.L685:
 5791              		.loc 1 2629 0
 5792 0110 C3F50075 		rsb	r5, r3, #512
 5793              	.LVL756:
 5794 0114 03F12802 		add	r2, r3, #40
 5795 0118 2C33     		adds	r3, r3, #44
 5796 011a 4D45     		cmp	r5, r9
 5797 011c 4344     		add	r3, r3, r8
 5798              		.loc 1 2636 0
 5799 011e 08EB0201 		add	r1, r8, r2
 5800 0122 0AF10400 		add	r0, r10, #4
 5801 0126 28BF     		it	cs
 5802 0128 4D46     		movcs	r5, r9
 5803              	.LVL757:
 5804 012a 8142     		cmp	r1, r0
 5805 012c 38BF     		it	cc
 5806 012e 9A45     		cmpcc	r10, r3
 5807              	.LBB942:
 5808              	.LBB943:
 5809              		.loc 1 573 0
 5810 0130 05F1FF34 		add	r4, r5, #-1
 5811              	.LVL758:
 5812 0134 C0F0AC80 		bcc	.L723
 5813 0138 0B2D     		cmp	r5, #11
 5814 013a 40F2A980 		bls	.L723
ARM GAS  C:\Users\mathi\AppData\Local\Temp\ccjAIMZ3.s 			page 103


 5815 013e 4B42     		negs	r3, r1
 5816 0140 03F00303 		and	r3, r3, #3
 5817 0144 D81C     		adds	r0, r3, #3
 5818 0146 A042     		cmp	r0, r4
 5819 0148 00F20F81 		bhi	.L728
 5820 014c 002B     		cmp	r3, #0
 5821 014e 00F0A980 		beq	.L729
 5822              		.loc 1 574 0
 5823 0152 18F80200 		ldrb	r0, [r8, r2]	@ zero_extendqisi2
 5824 0156 8AF80000 		strb	r0, [r10]
 5825 015a 012B     		cmp	r3, #1
 5826 015c 01F1010E 		add	lr, r1, #1
 5827              	.LVL759:
 5828 0160 0AF10106 		add	r6, r10, #1
 5829              	.LVL760:
 5830              		.loc 1 573 0
 5831 0164 A5F10204 		sub	r4, r5, #2
 5832              	.LVL761:
 5833 0168 12D0     		beq	.L714
 5834              	.LVL762:
 5835              		.loc 1 574 0
 5836 016a 4878     		ldrb	r0, [r1, #1]	@ zero_extendqisi2
 5837 016c 8AF80100 		strb	r0, [r10, #1]
 5838 0170 032B     		cmp	r3, #3
 5839 0172 01F1020E 		add	lr, r1, #2
 5840              	.LVL763:
 5841 0176 0AF10206 		add	r6, r10, #2
 5842              	.LVL764:
 5843              		.loc 1 573 0
 5844 017a A5F10304 		sub	r4, r5, #3
 5845              	.LVL765:
 5846 017e 07D1     		bne	.L714
 5847              	.LVL766:
 5848              		.loc 1 574 0
 5849 0180 8878     		ldrb	r0, [r1, #2]	@ zero_extendqisi2
 5850 0182 8AF80200 		strb	r0, [r10, #2]
 5851 0186 01F1030E 		add	lr, r1, #3
 5852              	.LVL767:
 5853 018a 0AF10306 		add	r6, r10, #3
 5854              	.LVL768:
 5855              		.loc 1 573 0
 5856 018e 2C1F     		subs	r4, r5, #4
 5857              	.LVL769:
 5858              	.L714:
 5859 0190 1A44     		add	r2, r2, r3
 5860              	.LVL770:
 5861 0192 A5EB030C 		sub	ip, r5, r3
 5862 0196 4244     		add	r2, r2, r8
 5863 0198 5344     		add	r3, r3, r10
 5864 019a 4FEA9C07 		lsr	r7, ip, #2
 5865              	.LBE943:
 5866              	.LBE942:
 5867              		.loc 1 2636 0
 5868 019e 0021     		movs	r1, #0
 5869              	.LVL771:
 5870              	.L716:
 5871 01a0 0131     		adds	r1, r1, #1
ARM GAS  C:\Users\mathi\AppData\Local\Temp\ccjAIMZ3.s 			page 104


 5872              	.LBB948:
 5873              	.LBB944:
 5874              		.loc 1 574 0
 5875 01a2 52F8040B 		ldr	r0, [r2], #4
 5876 01a6 43F8040B 		str	r0, [r3], #4	@ unaligned
 5877 01aa 8F42     		cmp	r7, r1
 5878 01ac F8D8     		bhi	.L716
 5879 01ae 2CF00303 		bic	r3, ip, #3
 5880 01b2 9C45     		cmp	ip, r3
 5881 01b4 0EEB0301 		add	r1, lr, r3
 5882 01b8 1E44     		add	r6, r6, r3
 5883 01ba A4EB0304 		sub	r4, r4, r3
 5884 01be 14D0     		beq	.L719
 5885              	.L713:
 5886              	.LVL772:
 5887 01c0 0B78     		ldrb	r3, [r1]	@ zero_extendqisi2
 5888 01c2 3370     		strb	r3, [r6]
 5889              	.LVL773:
 5890              		.loc 1 573 0
 5891 01c4 8CB1     		cbz	r4, .L719
 5892              	.LVL774:
 5893              		.loc 1 574 0
 5894 01c6 4B78     		ldrb	r3, [r1, #1]	@ zero_extendqisi2
 5895 01c8 7370     		strb	r3, [r6, #1]
 5896              	.LVL775:
 5897              		.loc 1 573 0
 5898 01ca 012C     		cmp	r4, #1
 5899 01cc 0DD0     		beq	.L719
 5900              	.LVL776:
 5901              		.loc 1 574 0
 5902 01ce 8B78     		ldrb	r3, [r1, #2]	@ zero_extendqisi2
 5903 01d0 B370     		strb	r3, [r6, #2]
 5904              	.LVL777:
 5905              		.loc 1 573 0
 5906 01d2 022C     		cmp	r4, #2
 5907 01d4 09D0     		beq	.L719
 5908              	.LVL778:
 5909              		.loc 1 574 0
 5910 01d6 CB78     		ldrb	r3, [r1, #3]	@ zero_extendqisi2
 5911 01d8 F370     		strb	r3, [r6, #3]
 5912              	.LVL779:
 5913              		.loc 1 573 0
 5914 01da 032C     		cmp	r4, #3
 5915 01dc 05D0     		beq	.L719
 5916              	.LVL780:
 5917              		.loc 1 574 0
 5918 01de 0B79     		ldrb	r3, [r1, #4]	@ zero_extendqisi2
 5919 01e0 3371     		strb	r3, [r6, #4]
 5920              	.LVL781:
 5921              		.loc 1 573 0
 5922 01e2 042C     		cmp	r4, #4
 5923 01e4 01D0     		beq	.L719
 5924              	.LVL782:
 5925              		.loc 1 574 0
 5926 01e6 4B79     		ldrb	r3, [r1, #5]	@ zero_extendqisi2
 5927 01e8 7371     		strb	r3, [r6, #5]
 5928              	.LVL783:
ARM GAS  C:\Users\mathi\AppData\Local\Temp\ccjAIMZ3.s 			page 105


 5929              	.L719:
 5930 01ea D8F80830 		ldr	r3, [r8, #8]
 5931 01ee AA44     		add	r10, r10, r5
 5932              	.LVL784:
 5933 01f0 A9EB0509 		sub	r9, r9, r5
 5934              	.LVL785:
 5935              	.L710:
 5936              	.LBE944:
 5937              	.LBE948:
 5938              		.loc 1 2575 0
 5939 01f4 2B44     		add	r3, r3, r5
 5940 01f6 C8F80830 		str	r3, [r8, #8]
 5941 01fa DBF80030 		ldr	r3, [fp]
 5942 01fe 1D44     		add	r5, r5, r3
 5943 0200 CBF80050 		str	r5, [fp]
 5944              		.loc 1 2574 0
 5945 0204 B9F1000F 		cmp	r9, #0
 5946 0208 00F0B480 		beq	.L684
 5947 020c D8F80850 		ldr	r5, [r8, #8]
 5948 0210 1EE7     		b	.L720
 5949              	.LVL786:
 5950              	.L686:
 5951              		.loc 1 2579 0
 5952 0212 5DB9     		cbnz	r5, .L688
 5953              		.loc 1 2580 0
 5954 0214 D8F81040 		ldr	r4, [r8, #16]
 5955              	.LVL787:
 5956              	.L689:
 5957              		.loc 1 2589 0
 5958 0218 012C     		cmp	r4, #1
 5959 021a 1AD9     		bls	.L695
 5960              		.loc 1 2590 0
 5961 021c 611C     		adds	r1, r4, #1
 5962 021e 3FF446AF 		beq	.L700
 5963 0222 D8F80000 		ldr	r0, [r8]
 5964              		.loc 1 2591 0
 5965 0226 C8F81440 		str	r4, [r8, #20]
 5966 022a 21E7     		b	.L687
 5967              	.LVL788:
 5968              	.L688:
 5969              		.loc 1 2583 0
 5970 022c D8F82420 		ldr	r2, [r8, #36]
 5971 0230 9AB1     		cbz	r2, .L690
 5972              	.LVL789:
 5973              	.LBB949:
 5974              	.LBB950:
 5975              		.loc 1 1098 0
 5976 0232 B4FBF3F4 		udiv	r4, r4, r3
 5977              	.LVL790:
 5978              		.loc 1 1100 0
 5979 0236 5368     		ldr	r3, [r2, #4]
 5980              	.LVL791:
 5981              		.loc 1 1097 0
 5982 0238 0432     		adds	r2, r2, #4
 5983              	.LVL792:
 5984              		.loc 1 1101 0
 5985 023a 53B1     		cbz	r3, .L695
ARM GAS  C:\Users\mathi\AppData\Local\Temp\ccjAIMZ3.s 			page 106


 5986              		.loc 1 1102 0
 5987 023c 9C42     		cmp	r4, r3
 5988 023e 03D2     		bcs	.L694
 5989 0240 95E0     		b	.L693
 5990              	.LVL793:
 5991              	.L780:
 5992 0242 A342     		cmp	r3, r4
 5993 0244 00F29380 		bhi	.L693
 5994              	.LVL794:
 5995              	.L694:
 5996              		.loc 1 1103 0
 5997 0248 E41A     		subs	r4, r4, r3
 5998              	.LVL795:
 5999              		.loc 1 1100 0
 6000 024a 52F8083F 		ldr	r3, [r2, #8]!
 6001              	.LVL796:
 6002              		.loc 1 1101 0
 6003 024e 002B     		cmp	r3, #0
 6004 0250 F7D1     		bne	.L780
 6005              	.LVL797:
 6006              	.L695:
 6007              	.LBE950:
 6008              	.LBE949:
 6009              		.loc 1 2589 0
 6010 0252 0220     		movs	r0, #2
 6011 0254 88F80700 		strb	r0, [r8, #7]
 6012 0258 2CE7     		b	.L692
 6013              	.LVL798:
 6014              	.L690:
 6015              		.loc 1 2587 0
 6016 025a D8F81410 		ldr	r1, [r8, #20]
 6017              	.LVL799:
 6018              	.LBB952:
 6019              	.LBB953:
 6020              		.loc 1 874 0
 6021 025e 0129     		cmp	r1, #1
 6022 0260 F7D9     		bls	.L695
 6023 0262 4369     		ldr	r3, [r0, #20]
 6024              	.LVL800:
 6025 0264 9942     		cmp	r1, r3
 6026 0266 F4D2     		bcs	.L695
 6027 0268 FFF7FEFF 		bl	get_fat.part.6
 6028              	.LVL801:
 6029 026c 0446     		mov	r4, r0
 6030 026e D3E7     		b	.L689
 6031              	.LVL802:
 6032              	.L790:
 6033              	.LBE953:
 6034              	.LBE952:
 6035              		.loc 1 2607 0
 6036 0270 98F80630 		ldrb	r3, [r8, #6]	@ zero_extendqisi2
 6037 0274 5A06     		lsls	r2, r3, #25
 6038 0276 04D5     		bpl	.L701
 6039 0278 D8F81810 		ldr	r1, [r8, #24]
 6040 027c CF1B     		subs	r7, r1, r7
 6041              	.LVL803:
 6042 027e BD42     		cmp	r5, r7
ARM GAS  C:\Users\mathi\AppData\Local\Temp\ccjAIMZ3.s 			page 107


 6043 0280 13D8     		bhi	.L792
 6044              	.LVL804:
 6045              	.L701:
 6046              		.loc 1 2611 0
 6047 0282 6D02     		lsls	r5, r5, #9
 6048              	.LVL805:
 6049 0284 AA44     		add	r10, r10, r5
 6050              	.LVL806:
 6051 0286 A9EB0509 		sub	r9, r9, r5
 6052              	.LVL807:
 6053 028a D8F80830 		ldr	r3, [r8, #8]
 6054 028e B1E7     		b	.L710
 6055              	.LVL808:
 6056              	.L723:
 6057 0290 0AF1FF33 		add	r3, r10, #-1
 6058 0294 4819     		adds	r0, r1, r5
 6059              	.LVL809:
 6060              	.L718:
 6061              	.LBB954:
 6062              	.LBB945:
 6063              		.loc 1 574 0
 6064 0296 11F8012B 		ldrb	r2, [r1], #1	@ zero_extendqisi2
 6065              	.LVL810:
 6066 029a 03F8012F 		strb	r2, [r3, #1]!
 6067              	.LVL811:
 6068              		.loc 1 573 0
 6069 029e 8142     		cmp	r1, r0
 6070 02a0 F9D1     		bne	.L718
 6071 02a2 A2E7     		b	.L719
 6072              	.LVL812:
 6073              	.L729:
 6074              	.LBE945:
 6075              	.LBE954:
 6076              		.loc 1 2636 0
 6077 02a4 8E46     		mov	lr, r1
 6078              	.LBB955:
 6079              	.LBB946:
 6080              		.loc 1 573 0
 6081 02a6 5646     		mov	r6, r10
 6082 02a8 72E7     		b	.L714
 6083              	.LVL813:
 6084              	.L792:
 6085 02aa 009B     		ldr	r3, [sp]
 6086 02ac 0398     		ldr	r0, [sp, #12]
 6087 02ae 891B     		subs	r1, r1, r6
 6088 02b0 C91A     		subs	r1, r1, r3
 6089 02b2 091B     		subs	r1, r1, r4
 6090 02b4 4902     		lsls	r1, r1, #9
 6091 02b6 0AEB0102 		add	r2, r10, r1
 6092              	.LBE946:
 6093              	.LBE955:
 6094              		.loc 1 2608 0
 6095 02ba 019C     		ldr	r4, [sp, #4]
 6096              	.LVL814:
 6097 02bc 9042     		cmp	r0, r2
 6098 02be 0AEB4727 		add	r7, r10, r7, lsl #9
 6099 02c2 2346     		mov	r3, r4
ARM GAS  C:\Users\mathi\AppData\Local\Temp\ccjAIMZ3.s 			page 108


 6100              	.LVL815:
 6101 02c4 10D9     		bls	.L730
 6102 02c6 0A1D     		adds	r2, r1, #4
 6103 02c8 5244     		add	r2, r2, r10
 6104 02ca 9442     		cmp	r4, r2
 6105 02cc 0CD2     		bcs	.L730
 6106 02ce 7A1E     		subs	r2, r7, #1
 6107 02d0 08F50A70 		add	r0, r8, #552
 6108              	.LVL816:
 6109              	.L708:
 6110              	.LBB956:
 6111              	.LBB957:
 6112              		.loc 1 574 0
 6113 02d4 13F8011B 		ldrb	r1, [r3], #1	@ zero_extendqisi2
 6114              	.LVL817:
 6115 02d8 02F8011F 		strb	r1, [r2, #1]!
 6116              		.loc 1 573 0
 6117 02dc 9842     		cmp	r0, r3
 6118 02de F9D1     		bne	.L708
 6119 02e0 CFE7     		b	.L701
 6120              	.L794:
 6121 02e2 00BF     		.align	2
 6122              	.L793:
 6123 02e4 00000000 		.word	__stack_chk_guard
 6124              	.LVL818:
 6125              	.L730:
 6126 02e8 029A     		ldr	r2, [sp, #8]
 6127 02ea 002A     		cmp	r2, #0
 6128 02ec 44D0     		beq	.L725
 6129              	.LVL819:
 6130              		.loc 1 574 0
 6131 02ee 98F82830 		ldrb	r3, [r8, #40]	@ zero_extendqisi2
 6132 02f2 3B70     		strb	r3, [r7]
 6133 02f4 012A     		cmp	r2, #1
 6134 02f6 08F12903 		add	r3, r8, #41
 6135              	.LVL820:
 6136 02fa 07F10104 		add	r4, r7, #1
 6137              	.LVL821:
 6138 02fe 3FD0     		beq	.L726
 6139              	.LVL822:
 6140 0300 98F82930 		ldrb	r3, [r8, #41]	@ zero_extendqisi2
 6141 0304 7B70     		strb	r3, [r7, #1]
 6142 0306 032A     		cmp	r2, #3
 6143 0308 08F12A03 		add	r3, r8, #42
 6144              	.LVL823:
 6145 030c 07F10204 		add	r4, r7, #2
 6146 0310 39D1     		bne	.L727
 6147              	.LVL824:
 6148 0312 98F82A30 		ldrb	r3, [r8, #42]	@ zero_extendqisi2
 6149 0316 BB70     		strb	r3, [r7, #2]
 6150 0318 FC1C     		adds	r4, r7, #3
 6151 031a 08F12B03 		add	r3, r8, #43
 6152              	.LVL825:
 6153 031e 40F2FD16 		movw	r6, #509
 6154              	.LVL826:
 6155              	.L704:
 6156 0322 1144     		add	r1, r1, r2
ARM GAS  C:\Users\mathi\AppData\Local\Temp\ccjAIMZ3.s 			page 109


 6157 0324 079A     		ldr	r2, [sp, #28]
 6158              	.LBE957:
 6159              	.LBE956:
 6160              		.loc 1 2608 0
 6161 0326 DDF814C0 		ldr	ip, [sp, #20]
 6162 032a 08EB0200 		add	r0, r8, r2
 6163 032e 5144     		add	r1, r1, r10
 6164 0330 0022     		movs	r2, #0
 6165              	.LVL827:
 6166              	.L706:
 6167 0332 0132     		adds	r2, r2, #1
 6168              	.LBB960:
 6169              	.LBB958:
 6170              		.loc 1 574 0
 6171 0334 50F8047B 		ldr	r7, [r0], #4
 6172 0338 41F8047B 		str	r7, [r1], #4	@ unaligned
 6173 033c 9445     		cmp	ip, r2
 6174 033e F8D8     		bhi	.L706
 6175 0340 0498     		ldr	r0, [sp, #16]
 6176 0342 069F     		ldr	r7, [sp, #24]
 6177 0344 B842     		cmp	r0, r7
 6178 0346 A6EB0006 		sub	r6, r6, r0
 6179 034a 03EB0001 		add	r1, r3, r0
 6180 034e 04EB0002 		add	r2, r4, r0
 6181 0352 96D0     		beq	.L701
 6182              	.LVL828:
 6183 0354 1B5C     		ldrb	r3, [r3, r0]	@ zero_extendqisi2
 6184 0356 2354     		strb	r3, [r4, r0]
 6185              		.loc 1 573 0
 6186 0358 012E     		cmp	r6, #1
 6187 035a 92D0     		beq	.L701
 6188              	.LVL829:
 6189              		.loc 1 574 0
 6190 035c 4B78     		ldrb	r3, [r1, #1]	@ zero_extendqisi2
 6191 035e 5370     		strb	r3, [r2, #1]
 6192              		.loc 1 573 0
 6193 0360 022E     		cmp	r6, #2
 6194 0362 8ED0     		beq	.L701
 6195              	.LVL830:
 6196              		.loc 1 574 0
 6197 0364 8B78     		ldrb	r3, [r1, #2]	@ zero_extendqisi2
 6198 0366 9370     		strb	r3, [r2, #2]
 6199 0368 8BE7     		b	.L701
 6200              	.LVL831:
 6201              	.L728:
 6202              	.LBE958:
 6203              	.LBE960:
 6204              	.LBB961:
 6205              	.LBB947:
 6206              		.loc 1 573 0
 6207 036a 5646     		mov	r6, r10
 6208 036c 28E7     		b	.L713
 6209              	.LVL832:
 6210              	.L693:
 6211              	.LBE947:
 6212              	.LBE961:
 6213              	.LBB962:
ARM GAS  C:\Users\mathi\AppData\Local\Temp\ccjAIMZ3.s 			page 110


 6214              	.LBB951:
 6215              		.loc 1 1105 0
 6216 036e 5368     		ldr	r3, [r2, #4]
 6217              	.LVL833:
 6218 0370 1C44     		add	r4, r4, r3
 6219              	.LVL834:
 6220 0372 51E7     		b	.L689
 6221              	.LVL835:
 6222              	.L684:
 6223              	.LBE951:
 6224              	.LBE962:
 6225              		.loc 1 2640 0
 6226 0374 0020     		movs	r0, #0
 6227 0376 9DE6     		b	.L692
 6228              	.LVL836:
 6229              	.L725:
 6230              		.loc 1 2608 0
 6231 0378 3C46     		mov	r4, r7
 6232 037a 4FF40076 		mov	r6, #512
 6233 037e D0E7     		b	.L704
 6234              	.LVL837:
 6235              	.L726:
 6236              	.LBB963:
 6237              	.LBB959:
 6238              		.loc 1 574 0
 6239 0380 40F2FF16 		movw	r6, #511
 6240 0384 CDE7     		b	.L704
 6241              	.LVL838:
 6242              	.L727:
 6243 0386 4FF4FF76 		mov	r6, #510
 6244 038a CAE7     		b	.L704
 6245              	.LVL839:
 6246              	.L791:
 6247              	.LBE959:
 6248              	.LBE963:
 6249              		.loc 1 2641 0
 6250 038c FFF7FEFF 		bl	__stack_chk_fail
 6251              	.LVL840:
 6252              		.cfi_endproc
 6253              	.LFE289:
 6254              		.size	f_read.part.10, .-f_read.part.10
 6255              		.section	.text.dir_find.part.8,"ax",%progbits
 6256              		.align	1
 6257              		.p2align 4,,15
 6258              		.syntax unified
 6259              		.thumb
 6260              		.thumb_func
 6261              		.fpu fpv4-sp-d16
 6262              		.type	dir_find.part.8, %function
 6263              	dir_find.part.8:
 6264              	.LFB287:
 6265              		.loc 1 1490 0
 6266              		.cfi_startproc
 6267              		@ args = 0, pretend = 0, frame = 16
 6268              		@ frame_needed = 0, uses_anonymous_args = 0
 6269              	.LVL841:
 6270 0000 2DE9F04F 		push	{r4, r5, r6, r7, r8, r9, r10, fp, lr}
ARM GAS  C:\Users\mathi\AppData\Local\Temp\ccjAIMZ3.s 			page 111


 6271              		.cfi_def_cfa_offset 36
 6272              		.cfi_offset 4, -36
 6273              		.cfi_offset 5, -32
 6274              		.cfi_offset 6, -28
 6275              		.cfi_offset 7, -24
 6276              		.cfi_offset 8, -20
 6277              		.cfi_offset 9, -16
 6278              		.cfi_offset 10, -12
 6279              		.cfi_offset 11, -8
 6280              		.cfi_offset 14, -4
 6281 0004 A24B     		ldr	r3, .L868
 6282 0006 0468     		ldr	r4, [r0]
 6283 0008 1B68     		ldr	r3, [r3]
 6284 000a 0769     		ldr	r7, [r0, #16]
 6285 000c 85B0     		sub	sp, sp, #20
 6286              		.cfi_def_cfa_offset 56
 6287              		.loc 1 1504 0
 6288 000e 4FF6FF7B 		movw	fp, #65535
 6289              		.loc 1 1490 0
 6290 0012 0393     		str	r3, [sp, #12]
 6291              	.LVL842:
 6292              		.loc 1 1504 0
 6293 0014 FF23     		movs	r3, #255
 6294              		.loc 1 1490 0
 6295 0016 0546     		mov	r5, r0
 6296              		.loc 1 1504 0
 6297 0018 0093     		str	r3, [sp]
 6298 001a A0F820B0 		strh	fp, [r0, #32]	@ movhi
 6299 001e 9846     		mov	r8, r3
 6300              	.LVL843:
 6301              	.L822:
 6302              	.LBB995:
 6303              	.LBB996:
 6304              		.loc 1 786 0
 6305 0020 E66A     		ldr	r6, [r4, #44]
 6306 0022 BE42     		cmp	r6, r7
 6307 0024 2ED0     		beq	.L796
 6308              	.LVL844:
 6309              	.LBB997:
 6310              	.LBB998:
 6311              		.loc 1 763 0
 6312 0026 2379     		ldrb	r3, [r4, #4]	@ zero_extendqisi2
 6313 0028 6078     		ldrb	r0, [r4, #1]	@ zero_extendqisi2
 6314 002a 04F13009 		add	r9, r4, #48
 6315 002e 0BB3     		cbz	r3, .L797
 6316              	.LVL845:
 6317              	.LBB999:
 6318              	.LBB1000:
 6319              		.loc 1 765 0
 6320 0030 0123     		movs	r3, #1
 6321 0032 3246     		mov	r2, r6
 6322 0034 4946     		mov	r1, r9
 6323 0036 FFF7FEFF 		bl	disk_write
 6324              	.LVL846:
 6325 003a 0028     		cmp	r0, #0
 6326 003c 69D1     		bne	.L798
 6327              		.loc 1 768 0
ARM GAS  C:\Users\mathi\AppData\Local\Temp\ccjAIMZ3.s 			page 112


 6328 003e 226A     		ldr	r2, [r4, #32]
 6329 0040 A369     		ldr	r3, [r4, #24]
 6330              		.loc 1 767 0
 6331 0042 2071     		strb	r0, [r4, #4]
 6332              		.loc 1 768 0
 6333 0044 B21A     		subs	r2, r6, r2
 6334 0046 9A42     		cmp	r2, r3
 6335 0048 6078     		ldrb	r0, [r4, #1]	@ zero_extendqisi2
 6336 004a 13D2     		bcs	.L797
 6337              		.loc 1 769 0
 6338 004c 94F803A0 		ldrb	r10, [r4, #3]	@ zero_extendqisi2
 6339              	.LVL847:
 6340 0050 BAF1010F 		cmp	r10, #1
 6341 0054 02D8     		bhi	.L800
 6342 0056 0DE0     		b	.L797
 6343              	.L799:
 6344 0058 A369     		ldr	r3, [r4, #24]
 6345 005a 6078     		ldrb	r0, [r4, #1]	@ zero_extendqisi2
 6346              	.L800:
 6347              		.loc 1 770 0
 6348 005c 1E44     		add	r6, r6, r3
 6349              	.LVL848:
 6350              		.loc 1 769 0
 6351 005e 0AF1FF3A 		add	r10, r10, #-1
 6352              	.LVL849:
 6353              		.loc 1 771 0
 6354 0062 3246     		mov	r2, r6
 6355 0064 0123     		movs	r3, #1
 6356 0066 4946     		mov	r1, r9
 6357 0068 FFF7FEFF 		bl	disk_write
 6358              	.LVL850:
 6359              		.loc 1 769 0
 6360 006c BAF1010F 		cmp	r10, #1
 6361 0070 F2D1     		bne	.L799
 6362 0072 6078     		ldrb	r0, [r4, #1]	@ zero_extendqisi2
 6363              	.LVL851:
 6364              	.L797:
 6365              	.LBE1000:
 6366              	.LBE999:
 6367              	.LBE998:
 6368              	.LBE997:
 6369              	.LBB1001:
 6370              	.LBB1002:
 6371              		.loc 1 791 0
 6372 0074 4946     		mov	r1, r9
 6373 0076 0123     		movs	r3, #1
 6374 0078 3A46     		mov	r2, r7
 6375 007a FFF7FEFF 		bl	disk_read
 6376              	.LVL852:
 6377 007e 0028     		cmp	r0, #0
 6378 0080 47D1     		bne	.L798
 6379              		.loc 1 793 0
 6380 0082 E762     		str	r7, [r4, #44]
 6381              	.L796:
 6382              	.LBE1002:
 6383              	.LBE1001:
 6384              	.LBE996:
ARM GAS  C:\Users\mathi\AppData\Local\Temp\ccjAIMZ3.s 			page 113


 6385              	.LBE995:
 6386              		.loc 1 1509 0
 6387 0084 6C69     		ldr	r4, [r5, #20]
 6388              	.LVL853:
 6389              		.loc 1 1510 0
 6390 0086 2378     		ldrb	r3, [r4]	@ zero_extendqisi2
 6391              	.LVL854:
 6392              		.loc 1 1511 0
 6393 0088 23B3     		cbz	r3, .L816
 6394              	.LVL855:
 6395              		.loc 1 1514 0
 6396 008a E52B     		cmp	r3, #229
 6397 008c 06D0     		beq	.L815
 6398              		.loc 1 1513 0
 6399 008e E27A     		ldrb	r2, [r4, #11]	@ zero_extendqisi2
 6400              		.loc 1 1514 0
 6401 0090 1707     		lsls	r7, r2, #28
 6402              		.loc 1 1513 0
 6403 0092 02F03F01 		and	r1, r2, #63
 6404              		.loc 1 1514 0
 6405 0096 3ED5     		bpl	.L804
 6406 0098 0F29     		cmp	r1, #15
 6407 009a 72D0     		beq	.L805
 6408              	.LVL856:
 6409              	.L815:
 6410              		.loc 1 1530 0
 6411 009c A5F820B0 		strh	fp, [r5, #32]	@ movhi
 6412              	.LVL857:
 6413 00a0 4FF0FF08 		mov	r8, #255
 6414              	.LVL858:
 6415              	.L806:
 6416              	.LBB1003:
 6417              	.LBB1004:
 6418              		.loc 1 1174 0
 6419 00a4 EE88     		ldrh	r6, [r5, #6]
 6420 00a6 0136     		adds	r6, r6, #1
 6421              	.LVL859:
 6422              		.loc 1 1175 0
 6423 00a8 B3B2     		uxth	r3, r6
 6424 00aa 9BB1     		cbz	r3, .L816
 6425 00ac 2F69     		ldr	r7, [r5, #16]
 6426 00ae 8FB1     		cbz	r7, .L816
 6427              		.loc 1 1178 0
 6428 00b0 16F00F09 		ands	r9, r6, #15
 6429 00b4 2C68     		ldr	r4, [r5]
 6430 00b6 06D1     		bne	.L817
 6431              		.loc 1 1181 0
 6432 00b8 E968     		ldr	r1, [r5, #12]
 6433              		.loc 1 1179 0
 6434 00ba 0137     		adds	r7, r7, #1
 6435 00bc 2F61     		str	r7, [r5, #16]
 6436              		.loc 1 1181 0
 6437 00be 99B9     		cbnz	r1, .L818
 6438              		.loc 1 1182 0
 6439 00c0 2389     		ldrh	r3, [r4, #8]
 6440 00c2 9E42     		cmp	r6, r3
 6441 00c4 06D2     		bcs	.L816
ARM GAS  C:\Users\mathi\AppData\Local\Temp\ccjAIMZ3.s 			page 114


 6442              	.L817:
 6443              		.loc 1 1220 0
 6444 00c6 04F13003 		add	r3, r4, #48
 6445 00ca 03EB4913 		add	r3, r3, r9, lsl #5
 6446              		.loc 1 1219 0
 6447 00ce EE80     		strh	r6, [r5, #6]	@ movhi
 6448              		.loc 1 1220 0
 6449 00d0 6B61     		str	r3, [r5, #20]
 6450              	.LVL860:
 6451 00d2 A5E7     		b	.L822
 6452              	.L816:
 6453              	.LBE1004:
 6454              	.LBE1003:
 6455              		.loc 1 1511 0
 6456 00d4 0420     		movs	r0, #4
 6457              	.L802:
 6458              		.loc 1 1541 0
 6459 00d6 6E4B     		ldr	r3, .L868
 6460 00d8 039A     		ldr	r2, [sp, #12]
 6461 00da 1B68     		ldr	r3, [r3]
 6462 00dc 9A42     		cmp	r2, r3
 6463 00de 40F00981 		bne	.L863
 6464 00e2 05B0     		add	sp, sp, #20
 6465              		.cfi_remember_state
 6466              		.cfi_def_cfa_offset 36
 6467              	.LVL861:
 6468              		@ sp needed
 6469 00e4 BDE8F08F 		pop	{r4, r5, r6, r7, r8, r9, r10, fp, pc}
 6470              	.LVL862:
 6471              	.L818:
 6472              		.cfi_restore_state
 6473              	.LBB1013:
 6474              	.LBB1011:
 6475              		.loc 1 1186 0
 6476 00e8 A378     		ldrb	r3, [r4, #2]	@ zero_extendqisi2
 6477 00ea 013B     		subs	r3, r3, #1
 6478 00ec 13EA1613 		ands	r3, r3, r6, lsr #4
 6479 00f0 E9D1     		bne	.L817
 6480              	.LVL863:
 6481              	.LBB1005:
 6482              	.LBB1006:
 6483              		.loc 1 874 0
 6484 00f2 0129     		cmp	r1, #1
 6485 00f4 40F2A680 		bls	.L820
 6486 00f8 6369     		ldr	r3, [r4, #20]
 6487 00fa 9942     		cmp	r1, r3
 6488 00fc 80F0A280 		bcs	.L820
 6489 0100 2046     		mov	r0, r4
 6490 0102 FFF7FEFF 		bl	get_fat.part.6
 6491              	.LVL864:
 6492              	.LBE1006:
 6493              	.LBE1005:
 6494              		.loc 1 1188 0
 6495 0106 0128     		cmp	r0, #1
 6496 0108 40F29C80 		bls	.L820
 6497              		.loc 1 1189 0
 6498 010c 431C     		adds	r3, r0, #1
ARM GAS  C:\Users\mathi\AppData\Local\Temp\ccjAIMZ3.s 			page 115


 6499 010e 40F09B80 		bne	.L864
 6500              	.LVL865:
 6501              	.L798:
 6502              	.LBB1007:
 6503              	.LBB1008:
 6504              		.loc 1 853 0
 6505 0112 0120     		movs	r0, #1
 6506 0114 DFE7     		b	.L802
 6507              	.LVL866:
 6508              	.L804:
 6509              	.LBE1008:
 6510              	.LBE1007:
 6511              	.LBE1011:
 6512              	.LBE1013:
 6513              		.loc 1 1517 0
 6514 0116 0F29     		cmp	r1, #15
 6515 0118 33D0     		beq	.L805
 6516              		.loc 1 1528 0
 6517 011a B8F1000F 		cmp	r8, #0
 6518 011e 42D0     		beq	.L865
 6519              	.L814:
 6520              		.loc 1 1529 0
 6521 0120 AA69     		ldr	r2, [r5, #24]
 6522 0122 D17A     		ldrb	r1, [r2, #11]	@ zero_extendqisi2
 6523 0124 C907     		lsls	r1, r1, #31
 6524 0126 B9D4     		bmi	.L815
 6525              	.LVL867:
 6526              	.LBB1014:
 6527              	.LBB1015:
 6528              		.loc 1 592 0
 6529 0128 1178     		ldrb	r1, [r2]	@ zero_extendqisi2
 6530              	.LVL868:
 6531 012a 9942     		cmp	r1, r3
 6532 012c B6D1     		bne	.L815
 6533              	.LVL869:
 6534 012e 6178     		ldrb	r1, [r4, #1]	@ zero_extendqisi2
 6535              	.LVL870:
 6536 0130 5378     		ldrb	r3, [r2, #1]	@ zero_extendqisi2
 6537              	.LVL871:
 6538 0132 9942     		cmp	r1, r3
 6539 0134 B2D1     		bne	.L815
 6540              	.LVL872:
 6541 0136 A178     		ldrb	r1, [r4, #2]	@ zero_extendqisi2
 6542              	.LVL873:
 6543 0138 9378     		ldrb	r3, [r2, #2]	@ zero_extendqisi2
 6544              	.LVL874:
 6545 013a 9942     		cmp	r1, r3
 6546 013c AED1     		bne	.L815
 6547              	.LVL875:
 6548 013e E178     		ldrb	r1, [r4, #3]	@ zero_extendqisi2
 6549              	.LVL876:
 6550 0140 D378     		ldrb	r3, [r2, #3]	@ zero_extendqisi2
 6551              	.LVL877:
 6552 0142 9942     		cmp	r1, r3
 6553 0144 AAD1     		bne	.L815
 6554              	.LVL878:
 6555 0146 2179     		ldrb	r1, [r4, #4]	@ zero_extendqisi2
ARM GAS  C:\Users\mathi\AppData\Local\Temp\ccjAIMZ3.s 			page 116


 6556              	.LVL879:
 6557 0148 1379     		ldrb	r3, [r2, #4]	@ zero_extendqisi2
 6558              	.LVL880:
 6559 014a 9942     		cmp	r1, r3
 6560 014c A6D1     		bne	.L815
 6561              	.LVL881:
 6562 014e 6179     		ldrb	r1, [r4, #5]	@ zero_extendqisi2
 6563              	.LVL882:
 6564 0150 5379     		ldrb	r3, [r2, #5]	@ zero_extendqisi2
 6565              	.LVL883:
 6566 0152 9942     		cmp	r1, r3
 6567 0154 A2D1     		bne	.L815
 6568              	.LVL884:
 6569 0156 A179     		ldrb	r1, [r4, #6]	@ zero_extendqisi2
 6570              	.LVL885:
 6571 0158 9379     		ldrb	r3, [r2, #6]	@ zero_extendqisi2
 6572              	.LVL886:
 6573 015a 9942     		cmp	r1, r3
 6574 015c 9ED1     		bne	.L815
 6575              	.LVL887:
 6576 015e E179     		ldrb	r1, [r4, #7]	@ zero_extendqisi2
 6577              	.LVL888:
 6578 0160 D379     		ldrb	r3, [r2, #7]	@ zero_extendqisi2
 6579              	.LVL889:
 6580 0162 9942     		cmp	r1, r3
 6581 0164 9AD1     		bne	.L815
 6582              	.LVL890:
 6583 0166 217A     		ldrb	r1, [r4, #8]	@ zero_extendqisi2
 6584              	.LVL891:
 6585 0168 137A     		ldrb	r3, [r2, #8]	@ zero_extendqisi2
 6586              	.LVL892:
 6587 016a 9942     		cmp	r1, r3
 6588 016c 96D1     		bne	.L815
 6589              	.LVL893:
 6590 016e 617A     		ldrb	r1, [r4, #9]	@ zero_extendqisi2
 6591              	.LVL894:
 6592 0170 537A     		ldrb	r3, [r2, #9]	@ zero_extendqisi2
 6593              	.LVL895:
 6594 0172 9942     		cmp	r1, r3
 6595 0174 92D1     		bne	.L815
 6596              	.LVL896:
 6597 0176 A17A     		ldrb	r1, [r4, #10]	@ zero_extendqisi2
 6598              	.LVL897:
 6599 0178 937A     		ldrb	r3, [r2, #10]	@ zero_extendqisi2
 6600              	.LVL898:
 6601 017a 9942     		cmp	r1, r3
 6602 017c 8ED1     		bne	.L815
 6603              	.LVL899:
 6604              	.L831:
 6605              	.LBE1015:
 6606              	.LBE1014:
 6607              		.loc 1 1507 0
 6608 017e 0020     		movs	r0, #0
 6609 0180 A9E7     		b	.L802
 6610              	.LVL900:
 6611              	.L805:
 6612              		.loc 1 1518 0
ARM GAS  C:\Users\mathi\AppData\Local\Temp\ccjAIMZ3.s 			page 117


 6613 0182 EF69     		ldr	r7, [r5, #28]
 6614 0184 002F     		cmp	r7, #0
 6615 0186 8DD0     		beq	.L806
 6616              		.loc 1 1519 0
 6617 0188 5E06     		lsls	r6, r3, #25
 6618 018a 56D5     		bpl	.L808
 6619              		.loc 1 1520 0
 6620 018c 617B     		ldrb	r1, [r4, #13]	@ zero_extendqisi2
 6621              		.loc 1 1522 0
 6622 018e EA88     		ldrh	r2, [r5, #6]
 6623              		.loc 1 1520 0
 6624 0190 0091     		str	r1, [sp]
 6625              	.LVL901:
 6626              		.loc 1 1522 0
 6627 0192 2A84     		strh	r2, [r5, #32]	@ movhi
 6628              	.LVL902:
 6629              		.loc 1 1521 0
 6630 0194 03F0BF08 		and	r8, r3, #191
 6631              	.LVL903:
 6632              	.L809:
 6633              		.loc 1 1525 0
 6634 0198 637B     		ldrb	r3, [r4, #13]	@ zero_extendqisi2
 6635 019a 009A     		ldr	r2, [sp]
 6636 019c 9342     		cmp	r3, r2
 6637 019e 65D0     		beq	.L866
 6638              	.LVL904:
 6639              	.L829:
 6640 01a0 4FF0FF08 		mov	r8, #255
 6641 01a4 7EE7     		b	.L806
 6642              	.LVL905:
 6643              	.L865:
 6644              	.LBB1016:
 6645              	.LBB1017:
 6646              		.loc 1 1477 0
 6647 01a6 6178     		ldrb	r1, [r4, #1]	@ zero_extendqisi2
 6648 01a8 A078     		ldrb	r0, [r4, #2]	@ zero_extendqisi2
 6649 01aa DA01     		lsls	r2, r3, #7
 6650 01ac 42EA5302 		orr	r2, r2, r3, lsr #1
 6651 01b0 0A44     		add	r2, r2, r1
 6652 01b2 C2F34601 		ubfx	r1, r2, #1, #7
 6653 01b6 41EAC212 		orr	r2, r1, r2, lsl #7
 6654              	.LVL906:
 6655 01ba 50FA82F2 		uxtab	r2, r0, r2
 6656              	.LVL907:
 6657 01be C2F34601 		ubfx	r1, r2, #1, #7
 6658              	.LVL908:
 6659 01c2 E078     		ldrb	r0, [r4, #3]	@ zero_extendqisi2
 6660 01c4 41EAC211 		orr	r1, r1, r2, lsl #7
 6661              	.LVL909:
 6662 01c8 50FA81F2 		uxtab	r2, r0, r1
 6663 01cc C2F34601 		ubfx	r1, r2, #1, #7
 6664              	.LVL910:
 6665 01d0 2079     		ldrb	r0, [r4, #4]	@ zero_extendqisi2
 6666 01d2 41EAC211 		orr	r1, r1, r2, lsl #7
 6667              	.LVL911:
 6668 01d6 50FA81F1 		uxtab	r1, r0, r1
 6669              	.LVL912:
ARM GAS  C:\Users\mathi\AppData\Local\Temp\ccjAIMZ3.s 			page 118


 6670 01da C1F34602 		ubfx	r2, r1, #1, #7
 6671              	.LVL913:
 6672 01de 6079     		ldrb	r0, [r4, #5]	@ zero_extendqisi2
 6673 01e0 42EAC112 		orr	r2, r2, r1, lsl #7
 6674              	.LVL914:
 6675 01e4 50FA82F1 		uxtab	r1, r0, r2
 6676 01e8 C1F34602 		ubfx	r2, r1, #1, #7
 6677              	.LVL915:
 6678 01ec A079     		ldrb	r0, [r4, #6]	@ zero_extendqisi2
 6679 01ee 42EAC112 		orr	r2, r2, r1, lsl #7
 6680              	.LVL916:
 6681 01f2 50FA82F2 		uxtab	r2, r0, r2
 6682              	.LVL917:
 6683 01f6 C2F34601 		ubfx	r1, r2, #1, #7
 6684              	.LVL918:
 6685 01fa E079     		ldrb	r0, [r4, #7]	@ zero_extendqisi2
 6686 01fc 41EAC211 		orr	r1, r1, r2, lsl #7
 6687              	.LVL919:
 6688 0200 50FA81F2 		uxtab	r2, r0, r1
 6689 0204 C2F34601 		ubfx	r1, r2, #1, #7
 6690              	.LVL920:
 6691 0208 207A     		ldrb	r0, [r4, #8]	@ zero_extendqisi2
 6692 020a 41EAC211 		orr	r1, r1, r2, lsl #7
 6693              	.LVL921:
 6694 020e 50FA81F1 		uxtab	r1, r0, r1
 6695              	.LVL922:
 6696 0212 C1F34602 		ubfx	r2, r1, #1, #7
 6697              	.LVL923:
 6698 0216 607A     		ldrb	r0, [r4, #9]	@ zero_extendqisi2
 6699 0218 42EAC112 		orr	r2, r2, r1, lsl #7
 6700              	.LVL924:
 6701 021c 50FA82F1 		uxtab	r1, r0, r2
 6702 0220 C1F34602 		ubfx	r2, r1, #1, #7
 6703 0224 A07A     		ldrb	r0, [r4, #10]	@ zero_extendqisi2
 6704 0226 42EAC112 		orr	r2, r2, r1, lsl #7
 6705 022a 50FA82F2 		uxtab	r2, r0, r2
 6706              	.LBE1017:
 6707              	.LBE1016:
 6708              		.loc 1 1528 0
 6709 022e 0099     		ldr	r1, [sp]
 6710 0230 D2B2     		uxtb	r2, r2
 6711 0232 8A42     		cmp	r2, r1
 6712 0234 7FF474AF 		bne	.L814
 6713 0238 A1E7     		b	.L831
 6714              	.L808:
 6715              		.loc 1 1525 0
 6716 023a 4345     		cmp	r3, r8
 6717 023c ACD0     		beq	.L809
 6718 023e 4FF0FF08 		mov	r8, #255
 6719              	.LVL925:
 6720 0242 2FE7     		b	.L806
 6721              	.LVL926:
 6722              	.L820:
 6723              	.LBB1018:
 6724              	.LBB1012:
 6725              		.loc 1 1188 0
 6726 0244 0220     		movs	r0, #2
ARM GAS  C:\Users\mathi\AppData\Local\Temp\ccjAIMZ3.s 			page 119


 6727 0246 46E7     		b	.L802
 6728              	.L864:
 6729              		.loc 1 1190 0
 6730 0248 2C68     		ldr	r4, [r5]
 6731 024a 6369     		ldr	r3, [r4, #20]
 6732 024c 9842     		cmp	r0, r3
 6733 024e BFF441AF 		bcs	.L816
 6734              	.LVL927:
 6735              		.loc 1 1213 0
 6736 0252 E860     		str	r0, [r5, #12]
 6737              	.LVL928:
 6738              	.LBB1010:
 6739              	.LBB1009:
 6740              		.loc 1 853 0
 6741 0254 6369     		ldr	r3, [r4, #20]
 6742              		.loc 1 852 0
 6743 0256 0238     		subs	r0, r0, #2
 6744              	.LVL929:
 6745              		.loc 1 853 0
 6746 0258 023B     		subs	r3, r3, #2
 6747 025a 9842     		cmp	r0, r3
 6748              		.loc 1 854 0
 6749 025c 3BBF     		ittet	cc
 6750 025e A778     		ldrbcc	r7, [r4, #2]	@ zero_extendqisi2
 6751 0260 A36A     		ldrcc	r3, [r4, #40]
 6752              		.loc 1 853 0
 6753 0262 0027     		movcs	r7, #0
 6754              	.LVL930:
 6755              		.loc 1 854 0
 6756 0264 00FB0737 		mlacc	r7, r0, r7, r3
 6757              	.LBE1009:
 6758              	.LBE1010:
 6759              		.loc 1 1214 0
 6760 0268 2F61     		str	r7, [r5, #16]
 6761 026a 2CE7     		b	.L817
 6762              	.LVL931:
 6763              	.L866:
 6764              	.LBE1012:
 6765              	.LBE1018:
 6766              	.LBB1019:
 6767              	.LBB1020:
 6768              		.loc 1 1318 0
 6769 026c 94F800A0 		ldrb	r10, [r4]	@ zero_extendqisi2
 6770 0270 DFF82090 		ldr	r9, .L868+4
 6771              		.loc 1 1319 0
 6772 0274 CDF80480 		str	r8, [sp, #4]
 6773              		.loc 1 1318 0
 6774 0278 2AF0400A 		bic	r10, r10, #64
 6775 027c 0AF1FF3A 		add	r10, r10, #-1
 6776 0280 0AEB4A03 		add	r3, r10, r10, lsl #1
 6777 0284 0AEB830A 		add	r10, r10, r3, lsl #2
 6778              	.LVL932:
 6779 0288 09F10D06 		add	r6, r9, #13
 6780              		.loc 1 1319 0
 6781 028c 0120     		movs	r0, #1
 6782 028e 07E0     		b	.L812
 6783              	.L869:
ARM GAS  C:\Users\mathi\AppData\Local\Temp\ccjAIMZ3.s 			page 120


 6784              		.align	2
 6785              	.L868:
 6786 0290 00000000 		.word	__stack_chk_guard
 6787 0294 00000000 		.word	.LANCHOR2
 6788              	.LVL933:
 6789              	.L810:
 6790              		.loc 1 1327 0
 6791 0298 5B45     		cmp	r3, fp
 6792 029a 81D1     		bne	.L829
 6793              	.LVL934:
 6794              	.L811:
 6795              		.loc 1 1329 0
 6796 029c B145     		cmp	r9, r6
 6797 029e 19D0     		beq	.L867
 6798              	.LVL935:
 6799              	.L812:
 6800              		.loc 1 1321 0
 6801 02a0 19F8013B 		ldrb	r3, [r9], #1	@ zero_extendqisi2
 6802              	.LVL936:
 6803 02a4 E218     		adds	r2, r4, r3
 6804 02a6 E35C     		ldrb	r3, [r4, r3]	@ zero_extendqisi2
 6805 02a8 5278     		ldrb	r2, [r2, #1]	@ zero_extendqisi2
 6806 02aa 43EA0223 		orr	r3, r3, r2, lsl #8
 6807              	.LVL937:
 6808              		.loc 1 1322 0
 6809 02ae 0028     		cmp	r0, #0
 6810 02b0 F2D0     		beq	.L810
 6811              		.loc 1 1323 0
 6812 02b2 1846     		mov	r0, r3
 6813              	.LVL938:
 6814 02b4 FFF7FEFF 		bl	ff_wtoupper
 6815              	.LVL939:
 6816              		.loc 1 1324 0
 6817 02b8 BAF1FE0F 		cmp	r10, #254
 6818              		.loc 1 1323 0
 6819 02bc 8046     		mov	r8, r0
 6820              	.LVL940:
 6821              		.loc 1 1324 0
 6822 02be 3FF66FAF 		bhi	.L829
 6823 02c2 37F81A00 		ldrh	r0, [r7, r10, lsl #1]
 6824 02c6 FFF7FEFF 		bl	ff_wtoupper
 6825              	.LVL941:
 6826 02ca 8045     		cmp	r8, r0
 6827 02cc 0AF1010A 		add	r10, r10, #1
 6828              	.LVL942:
 6829 02d0 E4D0     		beq	.L811
 6830 02d2 65E7     		b	.L829
 6831              	.LVL943:
 6832              	.L867:
 6833              		.loc 1 1331 0
 6834 02d4 2378     		ldrb	r3, [r4]	@ zero_extendqisi2
 6835 02d6 DDF80480 		ldr	r8, [sp, #4]
 6836 02da 5C06     		lsls	r4, r3, #25
 6837              	.LVL944:
 6838 02dc 05D5     		bpl	.L813
 6839 02de 20B1     		cbz	r0, .L813
 6840 02e0 37F81A30 		ldrh	r3, [r7, r10, lsl #1]
ARM GAS  C:\Users\mathi\AppData\Local\Temp\ccjAIMZ3.s 			page 121


 6841 02e4 002B     		cmp	r3, #0
 6842 02e6 7FF45BAF 		bne	.L829
 6843              	.L813:
 6844              	.LVL945:
 6845              	.LBE1020:
 6846              	.LBE1019:
 6847              		.loc 1 1525 0
 6848 02ea 08F1FF38 		add	r8, r8, #-1
 6849 02ee 5FFA88F8 		uxtb	r8, r8
 6850 02f2 D7E6     		b	.L806
 6851              	.LVL946:
 6852              	.L863:
 6853              		.loc 1 1541 0
 6854 02f4 FFF7FEFF 		bl	__stack_chk_fail
 6855              	.LVL947:
 6856              		.cfi_endproc
 6857              	.LFE287:
 6858              		.size	dir_find.part.8, .-dir_find.part.8
 6859              		.section	.text.dir_read,"ax",%progbits
 6860              		.align	1
 6861              		.p2align 4,,15
 6862              		.syntax unified
 6863              		.thumb
 6864              		.thumb_func
 6865              		.fpu fpv4-sp-d16
 6866              		.type	dir_read, %function
 6867              	dir_read:
 6868              	.LFB243:
 6869              		.loc 1 1555 0
 6870              		.cfi_startproc
 6871              		@ args = 0, pretend = 0, frame = 16
 6872              		@ frame_needed = 0, uses_anonymous_args = 0
 6873              	.LVL948:
 6874 0000 2DE9F04F 		push	{r4, r5, r6, r7, r8, r9, r10, fp, lr}
 6875              		.cfi_def_cfa_offset 36
 6876              		.cfi_offset 4, -36
 6877              		.cfi_offset 5, -32
 6878              		.cfi_offset 6, -28
 6879              		.cfi_offset 7, -24
 6880              		.cfi_offset 8, -20
 6881              		.cfi_offset 9, -16
 6882              		.cfi_offset 10, -12
 6883              		.cfi_offset 11, -8
 6884              		.cfi_offset 14, -4
 6885 0004 A34B     		ldr	r3, .L1006
 6886              		.loc 1 1563 0
 6887 0006 0669     		ldr	r6, [r0, #16]
 6888              		.loc 1 1555 0
 6889 0008 1B68     		ldr	r3, [r3]
 6890 000a 85B0     		sub	sp, sp, #20
 6891              		.cfi_def_cfa_offset 56
 6892              		.loc 1 1555 0
 6893 000c 0546     		mov	r5, r0
 6894 000e 0393     		str	r3, [sp, #12]
 6895              	.LVL949:
 6896              		.loc 1 1563 0
 6897 0010 002E     		cmp	r6, #0
ARM GAS  C:\Users\mathi\AppData\Local\Temp\ccjAIMZ3.s 			page 122


 6898 0012 64D0     		beq	.L871
 6899              		.loc 1 1559 0
 6900 0014 FF23     		movs	r3, #255
 6901 0016 0468     		ldr	r4, [r0]
 6902 0018 0193     		str	r3, [sp, #4]
 6903 001a 8B46     		mov	fp, r1
 6904 001c 9A46     		mov	r10, r3
 6905              	.LVL950:
 6906              	.L872:
 6907              	.LBB1050:
 6908              	.LBB1051:
 6909              		.loc 1 786 0
 6910 001e E76A     		ldr	r7, [r4, #44]
 6911 0020 BE42     		cmp	r6, r7
 6912 0022 2ED0     		beq	.L873
 6913              	.LVL951:
 6914              	.LBB1052:
 6915              	.LBB1053:
 6916              		.loc 1 763 0
 6917 0024 2379     		ldrb	r3, [r4, #4]	@ zero_extendqisi2
 6918 0026 6078     		ldrb	r0, [r4, #1]	@ zero_extendqisi2
 6919 0028 04F13008 		add	r8, r4, #48
 6920 002c 0BB3     		cbz	r3, .L874
 6921              	.LVL952:
 6922              	.LBB1054:
 6923              	.LBB1055:
 6924              		.loc 1 765 0
 6925 002e 0123     		movs	r3, #1
 6926 0030 3A46     		mov	r2, r7
 6927 0032 4146     		mov	r1, r8
 6928 0034 FFF7FEFF 		bl	disk_write
 6929              	.LVL953:
 6930 0038 0028     		cmp	r0, #0
 6931 003a 5CD1     		bne	.L879
 6932              		.loc 1 768 0
 6933 003c 226A     		ldr	r2, [r4, #32]
 6934 003e A369     		ldr	r3, [r4, #24]
 6935              		.loc 1 767 0
 6936 0040 2071     		strb	r0, [r4, #4]
 6937              		.loc 1 768 0
 6938 0042 BA1A     		subs	r2, r7, r2
 6939 0044 9A42     		cmp	r2, r3
 6940 0046 6078     		ldrb	r0, [r4, #1]	@ zero_extendqisi2
 6941 0048 13D2     		bcs	.L874
 6942              		.loc 1 769 0
 6943 004a 94F80390 		ldrb	r9, [r4, #3]	@ zero_extendqisi2
 6944              	.LVL954:
 6945 004e B9F1010F 		cmp	r9, #1
 6946 0052 02D8     		bhi	.L878
 6947 0054 0DE0     		b	.L874
 6948              	.L877:
 6949 0056 A369     		ldr	r3, [r4, #24]
 6950 0058 6078     		ldrb	r0, [r4, #1]	@ zero_extendqisi2
 6951              	.L878:
 6952              		.loc 1 770 0
 6953 005a 1F44     		add	r7, r7, r3
 6954              	.LVL955:
ARM GAS  C:\Users\mathi\AppData\Local\Temp\ccjAIMZ3.s 			page 123


 6955              		.loc 1 769 0
 6956 005c 09F1FF39 		add	r9, r9, #-1
 6957              	.LVL956:
 6958              		.loc 1 771 0
 6959 0060 3A46     		mov	r2, r7
 6960 0062 0123     		movs	r3, #1
 6961 0064 4146     		mov	r1, r8
 6962 0066 FFF7FEFF 		bl	disk_write
 6963              	.LVL957:
 6964              		.loc 1 769 0
 6965 006a B9F1010F 		cmp	r9, #1
 6966 006e F2D1     		bne	.L877
 6967 0070 6078     		ldrb	r0, [r4, #1]	@ zero_extendqisi2
 6968              	.LVL958:
 6969              	.L874:
 6970              	.LBE1055:
 6971              	.LBE1054:
 6972              	.LBE1053:
 6973              	.LBE1052:
 6974              	.LBB1056:
 6975              	.LBB1057:
 6976              		.loc 1 791 0
 6977 0072 4146     		mov	r1, r8
 6978 0074 0123     		movs	r3, #1
 6979 0076 3246     		mov	r2, r6
 6980 0078 FFF7FEFF 		bl	disk_read
 6981              	.LVL959:
 6982 007c 0028     		cmp	r0, #0
 6983 007e 3AD1     		bne	.L879
