ARM GAS  C:\Users\mathi\AppData\Local\Temp\ccU2LJu4.s 			page 1


   1              		.cpu cortex-m4
   2              		.eabi_attribute 27, 1
   3              		.eabi_attribute 28, 1
   4              		.eabi_attribute 20, 1
   5              		.eabi_attribute 21, 1
   6              		.eabi_attribute 23, 3
   7              		.eabi_attribute 24, 1
   8              		.eabi_attribute 25, 1
   9              		.eabi_attribute 26, 1
  10              		.eabi_attribute 30, 2
  11              		.eabi_attribute 34, 1
  12              		.eabi_attribute 18, 4
  13              		.file	"gpt.c"
  14              		.text
  15              	.Ltext0:
  16              		.cfi_sections	.debug_frame
  17              		.section	.text.gptInit,"ax",%progbits
  18              		.align	1
  19              		.p2align 4,,15
  20              		.global	gptInit
  21              		.syntax unified
  22              		.thumb
  23              		.thumb_func
  24              		.fpu fpv4-sp-d16
  25              		.type	gptInit, %function
  26              	gptInit:
  27              	.LFB256:
  28              		.file 1 "../../lib/e-puck2_main-processor/ChibiOS//os/hal/src/gpt.c"
  29              		.loc 1 56 0
  30              		.cfi_startproc
  31              		@ args = 0, pretend = 0, frame = 8
  32              		@ frame_needed = 0, uses_anonymous_args = 0
  33 0000 00B5     		push	{lr}
  34              		.cfi_def_cfa_offset 4
  35              		.cfi_offset 14, -4
  36 0002 074B     		ldr	r3, .L7
  37 0004 83B0     		sub	sp, sp, #12
  38              		.cfi_def_cfa_offset 16
  39              		.loc 1 56 0
  40 0006 1A68     		ldr	r2, [r3]
  41 0008 0192     		str	r2, [sp, #4]
  42              		.loc 1 58 0
  43 000a 019A     		ldr	r2, [sp, #4]
  44 000c 1B68     		ldr	r3, [r3]
  45 000e 9A42     		cmp	r2, r3
  46 0010 04D1     		bne	.L6
  47              		.loc 1 59 0
  48 0012 03B0     		add	sp, sp, #12
  49              		.cfi_remember_state
  50              		.cfi_def_cfa_offset 4
  51              		@ sp needed
  52 0014 5DF804EB 		ldr	lr, [sp], #4
  53              		.cfi_restore 14
  54              		.cfi_def_cfa_offset 0
  55              		.loc 1 58 0
  56 0018 FFF7FEBF 		b	gpt_lld_init
  57              	.LVL0:
ARM GAS  C:\Users\mathi\AppData\Local\Temp\ccU2LJu4.s 			page 2


  58              	.L6:
  59              		.cfi_restore_state
  60 001c FFF7FEFF 		bl	__stack_chk_fail
  61              	.LVL1:
  62              	.L8:
  63              		.align	2
  64              	.L7:
  65 0020 00000000 		.word	__stack_chk_guard
  66              		.cfi_endproc
  67              	.LFE256:
  68              		.size	gptInit, .-gptInit
  69              		.section	.text.gptObjectInit,"ax",%progbits
  70              		.align	1
  71              		.p2align 4,,15
  72              		.global	gptObjectInit
  73              		.syntax unified
  74              		.thumb
  75              		.thumb_func
  76              		.fpu fpv4-sp-d16
  77              		.type	gptObjectInit, %function
  78              	gptObjectInit:
  79              	.LFB257:
  80              		.loc 1 68 0
  81              		.cfi_startproc
  82              		@ args = 0, pretend = 0, frame = 8
  83              		@ frame_needed = 0, uses_anonymous_args = 0
  84              	.LVL2:
  85 0000 00B5     		push	{lr}
  86              		.cfi_def_cfa_offset 4
  87              		.cfi_offset 14, -4
  88 0002 084B     		ldr	r3, .L13
  89 0004 83B0     		sub	sp, sp, #12
  90              		.cfi_def_cfa_offset 16
  91              		.loc 1 68 0
  92 0006 1A68     		ldr	r2, [r3]
  93 0008 0192     		str	r2, [sp, #4]
  94              		.loc 1 70 0
  95 000a 0122     		movs	r2, #1
  96 000c 0270     		strb	r2, [r0]
  97              		.loc 1 72 0
  98 000e 019A     		ldr	r2, [sp, #4]
  99 0010 1B68     		ldr	r3, [r3]
 100              		.loc 1 71 0
 101 0012 0021     		movs	r1, #0
 102              		.loc 1 72 0
 103 0014 9A42     		cmp	r2, r3
 104              		.loc 1 71 0
 105 0016 4160     		str	r1, [r0, #4]
 106              		.loc 1 72 0
 107 0018 02D1     		bne	.L12
 108 001a 03B0     		add	sp, sp, #12
 109              		.cfi_remember_state
 110              		.cfi_def_cfa_offset 4
 111              		@ sp needed
 112 001c 5DF804FB 		ldr	pc, [sp], #4
 113              	.L12:
 114              		.cfi_restore_state
ARM GAS  C:\Users\mathi\AppData\Local\Temp\ccU2LJu4.s 			page 3


 115 0020 FFF7FEFF 		bl	__stack_chk_fail
 116              	.LVL3:
 117              	.L14:
 118              		.align	2
 119              	.L13:
 120 0024 00000000 		.word	__stack_chk_guard
 121              		.cfi_endproc
 122              	.LFE257:
 123              		.size	gptObjectInit, .-gptObjectInit
 124              		.section	.text.gptStart,"ax",%progbits
 125              		.align	1
 126              		.p2align 4,,15
 127              		.global	gptStart
 128              		.syntax unified
 129              		.thumb
 130              		.thumb_func
 131              		.fpu fpv4-sp-d16
 132              		.type	gptStart, %function
 133              	gptStart:
 134              	.LFB258:
 135              		.loc 1 82 0
 136              		.cfi_startproc
 137              		@ args = 0, pretend = 0, frame = 8
 138              		@ frame_needed = 0, uses_anonymous_args = 0
 139              	.LVL4:
 140 0000 70B5     		push	{r4, r5, r6, lr}
 141              		.cfi_def_cfa_offset 16
 142              		.cfi_offset 4, -16
 143              		.cfi_offset 5, -12
 144              		.cfi_offset 6, -8
 145              		.cfi_offset 14, -4
 146 0002 1E4D     		ldr	r5, .L27
 147 0004 82B0     		sub	sp, sp, #8
 148              		.cfi_def_cfa_offset 24
 149              		.loc 1 82 0
 150 0006 2B68     		ldr	r3, [r5]
 151 0008 0193     		str	r3, [sp, #4]
 152 000a 0E46     		mov	r6, r1
 153              		.loc 1 84 0
 154 000c 0446     		mov	r4, r0
 155 000e 70B3     		cbz	r0, .L16
 156              		.loc 1 84 0 is_stmt 0 discriminator 3
 157 0010 69B3     		cbz	r1, .L16
 158              	.LVL5:
 159              	.L17:
 160              	.LBB86:
 161              	.LBB87:
 162              	.LBB88:
 163              	.LBB89:
 164              	.LBB90:
 165              	.LBB91:
 166              		.file 2 "../../lib/e-puck2_main-processor/ChibiOS//os/ext/CMSIS/include/core_cmFunc.h"
 167              		.loc 2 546 0 is_stmt 1
 168 0012 2023     		movs	r3, #32
 169              		.syntax unified
 170              	@ 546 "../../lib/e-puck2_main-processor/ChibiOS//os/ext/CMSIS/include/core_cmFunc.h" 1
 171 0014 83F31188 		MSR basepri, r3
ARM GAS  C:\Users\mathi\AppData\Local\Temp\ccU2LJu4.s 			page 4


 172              	@ 0 "" 2
 173              	.LVL6:
 174              		.thumb
 175              		.syntax unified
 176              	.LBE91:
 177              	.LBE90:
 178              	.LBE89:
 179              		.file 3 "../../lib/e-puck2_main-processor/ChibiOS//os/rt/include/chsys.h"
 180              		.loc 3 349 0
 181 0018 FFF7FEFF 		bl	_stats_start_measure_crit_thd
 182              	.LVL7:
 183              		.loc 3 350 0
 184 001c FFF7FEFF 		bl	_dbg_check_lock
 185              	.LVL8:
 186              	.LBE88:
 187              	.LBE87:
 188              	.LBE86:
 189              		.loc 1 87 0
 190 0020 2378     		ldrb	r3, [r4]	@ zero_extendqisi2
 191 0022 013B     		subs	r3, r3, #1
 192 0024 012B     		cmp	r3, #1
 193 0026 02D9     		bls	.L18
 194              		.loc 1 87 0 is_stmt 0 discriminator 2
 195 0028 1548     		ldr	r0, .L27+4
 196 002a FFF7FEFF 		bl	chSysHalt
 197              	.LVL9:
 198              	.L18:
 199              		.loc 1 90 0 is_stmt 1
 200 002e 2046     		mov	r0, r4
 201              		.loc 1 89 0
 202 0030 6660     		str	r6, [r4, #4]
 203              		.loc 1 90 0
 204 0032 FFF7FEFF 		bl	gpt_lld_start
 205              	.LVL10:
 206              		.loc 1 91 0
 207 0036 0223     		movs	r3, #2
 208 0038 2370     		strb	r3, [r4]
 209              	.LBB92:
 210              	.LBB93:
 211              	.LBB94:
 212              		.loc 3 360 0
 213 003a FFF7FEFF 		bl	_dbg_check_unlock
 214              	.LVL11:
 215              		.loc 3 361 0
 216 003e FFF7FEFF 		bl	_stats_stop_measure_crit_thd
 217              	.LVL12:
 218              		.loc 3 367 0
 219 0042 104B     		ldr	r3, .L27+8
 220 0044 1A68     		ldr	r2, [r3]
 221 0046 9A42     		cmp	r2, r3
 222 0048 04D0     		beq	.L19
 223 004a 9969     		ldr	r1, [r3, #24]
 224 004c 9368     		ldr	r3, [r2, #8]
 225 004e 8A68     		ldr	r2, [r1, #8]
 226 0050 9A42     		cmp	r2, r3
 227 0052 08D3     		bcc	.L25
 228              	.L19:
ARM GAS  C:\Users\mathi\AppData\Local\Temp\ccU2LJu4.s 			page 5


 229              	.LVL13:
 230              	.LBB95:
 231              	.LBB96:
 232              	.LBB97:
 233              		.loc 2 546 0
 234 0054 0023     		movs	r3, #0
 235              		.syntax unified
 236              	@ 546 "../../lib/e-puck2_main-processor/ChibiOS//os/ext/CMSIS/include/core_cmFunc.h" 1
 237 0056 83F31188 		MSR basepri, r3
 238              	@ 0 "" 2
 239              	.LVL14:
 240              		.thumb
 241              		.syntax unified
 242              	.LBE97:
 243              	.LBE96:
 244              	.LBE95:
 245              	.LBE94:
 246              	.LBE93:
 247              	.LBE92:
 248              		.loc 1 93 0
 249 005a 019A     		ldr	r2, [sp, #4]
 250 005c 2B68     		ldr	r3, [r5]
 251 005e 9A42     		cmp	r2, r3
 252 0060 09D1     		bne	.L26
 253 0062 02B0     		add	sp, sp, #8
 254              		.cfi_remember_state
 255              		.cfi_def_cfa_offset 16
 256              		@ sp needed
 257 0064 70BD     		pop	{r4, r5, r6, pc}
 258              	.LVL15:
 259              	.L25:
 260              		.cfi_restore_state
 261              	.LBB100:
 262              	.LBB99:
 263              	.LBB98:
 264              		.loc 3 367 0
 265 0066 0848     		ldr	r0, .L27+12
 266 0068 FFF7FEFF 		bl	chSysHalt
 267              	.LVL16:
 268 006c F2E7     		b	.L19
 269              	.LVL17:
 270              	.L16:
 271              	.LBE98:
 272              	.LBE99:
 273              	.LBE100:
 274              		.loc 1 84 0 discriminator 4
 275 006e 0448     		ldr	r0, .L27+4
 276              	.LVL18:
 277 0070 FFF7FEFF 		bl	chSysHalt
 278              	.LVL19:
 279 0074 CDE7     		b	.L17
 280              	.L26:
 281              		.loc 1 93 0
 282 0076 FFF7FEFF 		bl	__stack_chk_fail
 283              	.LVL20:
 284              	.L28:
 285 007a 00BF     		.align	2
ARM GAS  C:\Users\mathi\AppData\Local\Temp\ccU2LJu4.s 			page 6


 286              	.L27:
 287 007c 00000000 		.word	__stack_chk_guard
 288 0080 00000000 		.word	.LANCHOR0
 289 0084 00000000 		.word	ch
 290 0088 00000000 		.word	.LANCHOR1
 291              		.cfi_endproc
 292              	.LFE258:
 293              		.size	gptStart, .-gptStart
 294              		.section	.text.gptStop,"ax",%progbits
 295              		.align	1
 296              		.p2align 4,,15
 297              		.global	gptStop
 298              		.syntax unified
 299              		.thumb
 300              		.thumb_func
 301              		.fpu fpv4-sp-d16
 302              		.type	gptStop, %function
 303              	gptStop:
 304              	.LFB259:
 305              		.loc 1 102 0
 306              		.cfi_startproc
 307              		@ args = 0, pretend = 0, frame = 8
 308              		@ frame_needed = 0, uses_anonymous_args = 0
 309              	.LVL21:
 310 0000 30B5     		push	{r4, r5, lr}
 311              		.cfi_def_cfa_offset 12
 312              		.cfi_offset 4, -12
 313              		.cfi_offset 5, -8
 314              		.cfi_offset 14, -4
 315 0002 1C4D     		ldr	r5, .L38
 316 0004 83B0     		sub	sp, sp, #12
 317              		.cfi_def_cfa_offset 24
 318              		.loc 1 102 0
 319 0006 2B68     		ldr	r3, [r5]
 320 0008 0193     		str	r3, [sp, #4]
 321              		.loc 1 104 0
 322 000a 0446     		mov	r4, r0
 323 000c 60B3     		cbz	r0, .L35
 324              	.LVL22:
 325              	.L30:
 326              	.LBB114:
 327              	.LBB115:
 328              	.LBB116:
 329              	.LBB117:
 330              	.LBB118:
 331              	.LBB119:
 332              		.loc 2 546 0
 333 000e 2023     		movs	r3, #32
 334              		.syntax unified
 335              	@ 546 "../../lib/e-puck2_main-processor/ChibiOS//os/ext/CMSIS/include/core_cmFunc.h" 1
 336 0010 83F31188 		MSR basepri, r3
 337              	@ 0 "" 2
 338              	.LVL23:
 339              		.thumb
 340              		.syntax unified
 341              	.LBE119:
 342              	.LBE118:
ARM GAS  C:\Users\mathi\AppData\Local\Temp\ccU2LJu4.s 			page 7


 343              	.LBE117:
 344              		.loc 3 349 0
 345 0014 FFF7FEFF 		bl	_stats_start_measure_crit_thd
 346              	.LVL24:
 347              		.loc 3 350 0
 348 0018 FFF7FEFF 		bl	_dbg_check_lock
 349              	.LVL25:
 350              	.LBE116:
 351              	.LBE115:
 352              	.LBE114:
 353              		.loc 1 107 0
 354 001c 2378     		ldrb	r3, [r4]	@ zero_extendqisi2
 355 001e 013B     		subs	r3, r3, #1
 356 0020 012B     		cmp	r3, #1
 357 0022 02D9     		bls	.L31
 358              		.loc 1 107 0 is_stmt 0 discriminator 2
 359 0024 1448     		ldr	r0, .L38+4
 360 0026 FFF7FEFF 		bl	chSysHalt
 361              	.LVL26:
 362              	.L31:
 363              		.loc 1 109 0 is_stmt 1
 364 002a 2046     		mov	r0, r4
 365 002c FFF7FEFF 		bl	gpt_lld_stop
 366              	.LVL27:
 367              		.loc 1 110 0
 368 0030 0123     		movs	r3, #1
 369 0032 2370     		strb	r3, [r4]
 370              	.LBB120:
 371              	.LBB121:
 372              	.LBB122:
 373              		.loc 3 360 0
 374 0034 FFF7FEFF 		bl	_dbg_check_unlock
 375              	.LVL28:
 376              		.loc 3 361 0
 377 0038 FFF7FEFF 		bl	_stats_stop_measure_crit_thd
 378              	.LVL29:
 379              		.loc 3 367 0
 380 003c 0F4B     		ldr	r3, .L38+8
 381 003e 1A68     		ldr	r2, [r3]
 382 0040 9A42     		cmp	r2, r3
 383 0042 04D0     		beq	.L32
 384 0044 9969     		ldr	r1, [r3, #24]
 385 0046 9368     		ldr	r3, [r2, #8]
 386 0048 8A68     		ldr	r2, [r1, #8]
 387 004a 9A42     		cmp	r2, r3
 388 004c 08D3     		bcc	.L36
 389              	.L32:
 390              	.LVL30:
 391              	.LBB123:
 392              	.LBB124:
 393              	.LBB125:
 394              		.loc 2 546 0
 395 004e 0023     		movs	r3, #0
 396              		.syntax unified
 397              	@ 546 "../../lib/e-puck2_main-processor/ChibiOS//os/ext/CMSIS/include/core_cmFunc.h" 1
 398 0050 83F31188 		MSR basepri, r3
 399              	@ 0 "" 2
ARM GAS  C:\Users\mathi\AppData\Local\Temp\ccU2LJu4.s 			page 8


 400              	.LVL31:
 401              		.thumb
 402              		.syntax unified
 403              	.LBE125:
 404              	.LBE124:
 405              	.LBE123:
 406              	.LBE122:
 407              	.LBE121:
 408              	.LBE120:
 409              		.loc 1 112 0
 410 0054 019A     		ldr	r2, [sp, #4]
 411 0056 2B68     		ldr	r3, [r5]
 412 0058 9A42     		cmp	r2, r3
 413 005a 09D1     		bne	.L37
 414 005c 03B0     		add	sp, sp, #12
 415              		.cfi_remember_state
 416              		.cfi_def_cfa_offset 12
 417              		@ sp needed
 418 005e 30BD     		pop	{r4, r5, pc}
 419              	.LVL32:
 420              	.L36:
 421              		.cfi_restore_state
 422              	.LBB128:
 423              	.LBB127:
 424              	.LBB126:
 425              		.loc 3 367 0
 426 0060 0748     		ldr	r0, .L38+12
 427 0062 FFF7FEFF 		bl	chSysHalt
 428              	.LVL33:
 429 0066 F2E7     		b	.L32
 430              	.LVL34:
 431              	.L35:
 432              	.LBE126:
 433              	.LBE127:
 434              	.LBE128:
 435              		.loc 1 104 0 discriminator 2
 436 0068 0348     		ldr	r0, .L38+4
 437              	.LVL35:
 438 006a FFF7FEFF 		bl	chSysHalt
 439              	.LVL36:
 440 006e CEE7     		b	.L30
 441              	.L37:
 442              		.loc 1 112 0
 443 0070 FFF7FEFF 		bl	__stack_chk_fail
 444              	.LVL37:
 445              	.L39:
 446              		.align	2
 447              	.L38:
 448 0074 00000000 		.word	__stack_chk_guard
 449 0078 00000000 		.word	.LANCHOR2
 450 007c 00000000 		.word	ch
 451 0080 00000000 		.word	.LANCHOR1
 452              		.cfi_endproc
 453              	.LFE259:
 454              		.size	gptStop, .-gptStop
 455              		.section	.text.gptChangeInterval,"ax",%progbits
 456              		.align	1
ARM GAS  C:\Users\mathi\AppData\Local\Temp\ccU2LJu4.s 			page 9


 457              		.p2align 4,,15
 458              		.global	gptChangeInterval
 459              		.syntax unified
 460              		.thumb
 461              		.thumb_func
 462              		.fpu fpv4-sp-d16
 463              		.type	gptChangeInterval, %function
 464              	gptChangeInterval:
 465              	.LFB260:
 466              		.loc 1 125 0
 467              		.cfi_startproc
 468              		@ args = 0, pretend = 0, frame = 8
 469              		@ frame_needed = 0, uses_anonymous_args = 0
 470              	.LVL38:
 471 0000 70B5     		push	{r4, r5, r6, lr}
 472              		.cfi_def_cfa_offset 16
 473              		.cfi_offset 4, -16
 474              		.cfi_offset 5, -12
 475              		.cfi_offset 6, -8
 476              		.cfi_offset 14, -4
 477 0002 1B4E     		ldr	r6, .L52
 478 0004 82B0     		sub	sp, sp, #8
 479              		.cfi_def_cfa_offset 24
 480              		.loc 1 125 0
 481 0006 3368     		ldr	r3, [r6]
 482 0008 0193     		str	r3, [sp, #4]
 483 000a 0C46     		mov	r4, r1
 484              		.loc 1 127 0
 485 000c 0546     		mov	r5, r0
 486 000e 48B3     		cbz	r0, .L49
 487              	.LVL39:
 488              	.L41:
 489              	.LBB142:
 490              	.LBB143:
 491              	.LBB144:
 492              	.LBB145:
 493              	.LBB146:
 494              	.LBB147:
 495              		.loc 2 546 0
 496 0010 2023     		movs	r3, #32
 497              		.syntax unified
 498              	@ 546 "../../lib/e-puck2_main-processor/ChibiOS//os/ext/CMSIS/include/core_cmFunc.h" 1
 499 0012 83F31188 		MSR basepri, r3
 500              	@ 0 "" 2
 501              	.LVL40:
 502              		.thumb
 503              		.syntax unified
 504              	.LBE147:
 505              	.LBE146:
 506              	.LBE145:
 507              		.loc 3 349 0
 508 0016 FFF7FEFF 		bl	_stats_start_measure_crit_thd
 509              	.LVL41:
 510              		.loc 3 350 0
 511 001a FFF7FEFF 		bl	_dbg_check_lock
 512              	.LVL42:
 513              	.LBE144:
ARM GAS  C:\Users\mathi\AppData\Local\Temp\ccU2LJu4.s 			page 10


 514              	.LBE143:
 515              	.LBE142:
 516              		.loc 1 130 0
 517 001e 2B78     		ldrb	r3, [r5]	@ zero_extendqisi2
 518 0020 032B     		cmp	r3, #3
 519 0022 02D0     		beq	.L42
 520              		.loc 1 130 0 is_stmt 0 discriminator 2
 521 0024 1348     		ldr	r0, .L52+4
 522 0026 FFF7FEFF 		bl	chSysHalt
 523              	.LVL43:
 524              	.L42:
 525              		.loc 1 132 0 is_stmt 1
 526 002a EB68     		ldr	r3, [r5, #12]
 527 002c 013C     		subs	r4, r4, #1
 528              	.LVL44:
 529 002e DC62     		str	r4, [r3, #44]
 530              	.LBB148:
 531              	.LBB149:
 532              	.LBB150:
 533              		.loc 3 360 0
 534 0030 FFF7FEFF 		bl	_dbg_check_unlock
 535              	.LVL45:
 536              		.loc 3 361 0
 537 0034 FFF7FEFF 		bl	_stats_stop_measure_crit_thd
 538              	.LVL46:
 539              		.loc 3 367 0
 540 0038 0F4B     		ldr	r3, .L52+8
 541 003a 1A68     		ldr	r2, [r3]
 542 003c 9A42     		cmp	r2, r3
 543 003e 04D0     		beq	.L43
 544 0040 9969     		ldr	r1, [r3, #24]
 545 0042 9368     		ldr	r3, [r2, #8]
 546 0044 8A68     		ldr	r2, [r1, #8]
 547 0046 9A42     		cmp	r2, r3
 548 0048 08D3     		bcc	.L50
 549              	.L43:
 550              	.LVL47:
 551              	.LBB151:
 552              	.LBB152:
 553              	.LBB153:
 554              		.loc 2 546 0
 555 004a 0023     		movs	r3, #0
 556              		.syntax unified
 557              	@ 546 "../../lib/e-puck2_main-processor/ChibiOS//os/ext/CMSIS/include/core_cmFunc.h" 1
 558 004c 83F31188 		MSR basepri, r3
 559              	@ 0 "" 2
 560              	.LVL48:
 561              		.thumb
 562              		.syntax unified
 563              	.LBE153:
 564              	.LBE152:
 565              	.LBE151:
 566              	.LBE150:
 567              	.LBE149:
 568              	.LBE148:
 569              		.loc 1 134 0
 570 0050 019A     		ldr	r2, [sp, #4]
ARM GAS  C:\Users\mathi\AppData\Local\Temp\ccU2LJu4.s 			page 11


 571 0052 3368     		ldr	r3, [r6]
 572 0054 9A42     		cmp	r2, r3
 573 0056 09D1     		bne	.L51
 574 0058 02B0     		add	sp, sp, #8
 575              		.cfi_remember_state
 576              		.cfi_def_cfa_offset 16
 577              		@ sp needed
 578 005a 70BD     		pop	{r4, r5, r6, pc}
 579              	.LVL49:
 580              	.L50:
 581              		.cfi_restore_state
 582              	.LBB156:
 583              	.LBB155:
 584              	.LBB154:
 585              		.loc 3 367 0
 586 005c 0748     		ldr	r0, .L52+12
 587 005e FFF7FEFF 		bl	chSysHalt
 588              	.LVL50:
 589 0062 F2E7     		b	.L43
 590              	.LVL51:
 591              	.L49:
 592              	.LBE154:
 593              	.LBE155:
 594              	.LBE156:
 595              		.loc 1 127 0 discriminator 2
 596 0064 0348     		ldr	r0, .L52+4
 597              	.LVL52:
 598 0066 FFF7FEFF 		bl	chSysHalt
 599              	.LVL53:
 600 006a D1E7     		b	.L41
 601              	.LVL54:
 602              	.L51:
 603              		.loc 1 134 0
 604 006c FFF7FEFF 		bl	__stack_chk_fail
 605              	.LVL55:
 606              	.L53:
 607              		.align	2
 608              	.L52:
 609 0070 00000000 		.word	__stack_chk_guard
 610 0074 00000000 		.word	.LANCHOR3
 611 0078 00000000 		.word	ch
 612 007c 00000000 		.word	.LANCHOR1
 613              		.cfi_endproc
 614              	.LFE260:
 615              		.size	gptChangeInterval, .-gptChangeInterval
 616              		.section	.text.gptStartContinuous,"ax",%progbits
 617              		.align	1
 618              		.p2align 4,,15
 619              		.global	gptStartContinuous
 620              		.syntax unified
 621              		.thumb
 622              		.thumb_func
 623              		.fpu fpv4-sp-d16
 624              		.type	gptStartContinuous, %function
 625              	gptStartContinuous:
 626              	.LFB261:
 627              		.loc 1 144 0
ARM GAS  C:\Users\mathi\AppData\Local\Temp\ccU2LJu4.s 			page 12


 628              		.cfi_startproc
 629              		@ args = 0, pretend = 0, frame = 8
 630              		@ frame_needed = 0, uses_anonymous_args = 0
 631              	.LVL56:
 632 0000 70B5     		push	{r4, r5, r6, lr}
 633              		.cfi_def_cfa_offset 16
 634              		.cfi_offset 4, -16
 635              		.cfi_offset 5, -12
 636              		.cfi_offset 6, -8
 637              		.cfi_offset 14, -4
 638 0002 1E4D     		ldr	r5, .L66
 639 0004 82B0     		sub	sp, sp, #8
 640              		.cfi_def_cfa_offset 24
 641              		.loc 1 144 0
 642 0006 2B68     		ldr	r3, [r5]
 643 0008 0193     		str	r3, [sp, #4]
 644              	.LVL57:
 645 000a 0446     		mov	r4, r0
 646 000c 0E46     		mov	r6, r1
 647              	.LBB172:
 648              	.LBB173:
 649              	.LBB174:
 650              	.LBB175:
 651              	.LBB176:
 652              	.LBB177:
 653              		.loc 2 546 0
 654 000e 2023     		movs	r3, #32
 655              		.syntax unified
 656              	@ 546 "../../lib/e-puck2_main-processor/ChibiOS//os/ext/CMSIS/include/core_cmFunc.h" 1
 657 0010 83F31188 		MSR basepri, r3
 658              	@ 0 "" 2
 659              	.LVL58:
 660              		.thumb
 661              		.syntax unified
 662              	.LBE177:
 663              	.LBE176:
 664              	.LBE175:
 665              		.loc 3 349 0
 666 0014 FFF7FEFF 		bl	_stats_start_measure_crit_thd
 667              	.LVL59:
 668              		.loc 3 350 0
 669 0018 FFF7FEFF 		bl	_dbg_check_lock
 670              	.LVL60:
 671              	.LBE174:
 672              	.LBE173:
 673              	.LBE172:
 674              	.LBB178:
 675              	.LBB179:
 676              		.loc 1 161 0
 677 001c FFF7FEFF 		bl	chDbgCheckClassI
 678              	.LVL61:
 679              		.loc 1 162 0
 680 0020 2CB3     		cbz	r4, .L63
 681              	.L55:
 682              		.loc 1 163 0
 683 0022 2378     		ldrb	r3, [r4]	@ zero_extendqisi2
 684 0024 022B     		cmp	r3, #2
ARM GAS  C:\Users\mathi\AppData\Local\Temp\ccU2LJu4.s 			page 13


 685 0026 02D0     		beq	.L56
 686 0028 1548     		ldr	r0, .L66+4
 687 002a FFF7FEFF 		bl	chSysHalt
 688              	.LVL62:
 689              	.L56:
 690              		.loc 1 166 0
 691 002e 0323     		movs	r3, #3
 692 0030 2370     		strb	r3, [r4]
 693              		.loc 1 167 0
 694 0032 3146     		mov	r1, r6
 695 0034 2046     		mov	r0, r4
 696 0036 FFF7FEFF 		bl	gpt_lld_start_timer
 697              	.LVL63:
 698              	.LBE179:
 699              	.LBE178:
 700              	.LBB181:
 701              	.LBB182:
 702              	.LBB183:
 703              		.loc 3 360 0
 704 003a FFF7FEFF 		bl	_dbg_check_unlock
 705              	.LVL64:
 706              		.loc 3 361 0
 707 003e FFF7FEFF 		bl	_stats_stop_measure_crit_thd
 708              	.LVL65:
 709              		.loc 3 367 0
 710 0042 104B     		ldr	r3, .L66+8
 711 0044 1A68     		ldr	r2, [r3]
 712 0046 9A42     		cmp	r2, r3
 713 0048 04D0     		beq	.L57
 714 004a 9969     		ldr	r1, [r3, #24]
 715 004c 9368     		ldr	r3, [r2, #8]
 716 004e 8A68     		ldr	r2, [r1, #8]
 717 0050 9A42     		cmp	r2, r3
 718 0052 08D3     		bcc	.L64
 719              	.L57:
 720              	.LVL66:
 721              	.LBB184:
 722              	.LBB185:
 723              	.LBB186:
 724              		.loc 2 546 0
 725 0054 0023     		movs	r3, #0
 726              		.syntax unified
 727              	@ 546 "../../lib/e-puck2_main-processor/ChibiOS//os/ext/CMSIS/include/core_cmFunc.h" 1
 728 0056 83F31188 		MSR basepri, r3
 729              	@ 0 "" 2
 730              	.LVL67:
 731              		.thumb
 732              		.syntax unified
 733              	.LBE186:
 734              	.LBE185:
 735              	.LBE184:
 736              	.LBE183:
 737              	.LBE182:
 738              	.LBE181:
 739              		.loc 1 149 0
 740 005a 019A     		ldr	r2, [sp, #4]
 741 005c 2B68     		ldr	r3, [r5]
ARM GAS  C:\Users\mathi\AppData\Local\Temp\ccU2LJu4.s 			page 14


 742 005e 9A42     		cmp	r2, r3
 743 0060 09D1     		bne	.L65
 744 0062 02B0     		add	sp, sp, #8
 745              		.cfi_remember_state
 746              		.cfi_def_cfa_offset 16
 747              		@ sp needed
 748 0064 70BD     		pop	{r4, r5, r6, pc}
 749              	.LVL68:
 750              	.L64:
 751              		.cfi_restore_state
 752              	.LBB189:
 753              	.LBB188:
 754              	.LBB187:
 755              		.loc 3 367 0
 756 0066 0848     		ldr	r0, .L66+12
 757 0068 FFF7FEFF 		bl	chSysHalt
 758              	.LVL69:
 759 006c F2E7     		b	.L57
 760              	.LVL70:
 761              	.L63:
 762              	.LBE187:
 763              	.LBE188:
 764              	.LBE189:
 765              	.LBB190:
 766              	.LBB180:
 767              		.loc 1 162 0
 768 006e 0448     		ldr	r0, .L66+4
 769 0070 FFF7FEFF 		bl	chSysHalt
 770              	.LVL71:
 771 0074 D5E7     		b	.L55
 772              	.LVL72:
 773              	.L65:
 774              	.LBE180:
 775              	.LBE190:
 776              		.loc 1 149 0
 777 0076 FFF7FEFF 		bl	__stack_chk_fail
 778              	.LVL73:
 779              	.L67:
 780 007a 00BF     		.align	2
 781              	.L66:
 782 007c 00000000 		.word	__stack_chk_guard
 783 0080 00000000 		.word	.LANCHOR4
 784 0084 00000000 		.word	ch
 785 0088 00000000 		.word	.LANCHOR1
 786              		.cfi_endproc
 787              	.LFE261:
 788              		.size	gptStartContinuous, .-gptStartContinuous
 789              		.section	.text.gptStartContinuousI,"ax",%progbits
 790              		.align	1
 791              		.p2align 4,,15
 792              		.global	gptStartContinuousI
 793              		.syntax unified
 794              		.thumb
 795              		.thumb_func
 796              		.fpu fpv4-sp-d16
 797              		.type	gptStartContinuousI, %function
 798              	gptStartContinuousI:
ARM GAS  C:\Users\mathi\AppData\Local\Temp\ccU2LJu4.s 			page 15


 799              	.LFB262:
 800              		.loc 1 159 0
 801              		.cfi_startproc
 802              		@ args = 0, pretend = 0, frame = 8
 803              		@ frame_needed = 0, uses_anonymous_args = 0
 804              	.LVL74:
 805 0000 70B5     		push	{r4, r5, r6, lr}
 806              		.cfi_def_cfa_offset 16
 807              		.cfi_offset 4, -16
 808              		.cfi_offset 5, -12
 809              		.cfi_offset 6, -8
 810              		.cfi_offset 14, -4
 811 0002 114D     		ldr	r5, .L79
 812 0004 82B0     		sub	sp, sp, #8
 813              		.cfi_def_cfa_offset 24
 814              		.loc 1 159 0
 815 0006 0446     		mov	r4, r0
 816 0008 2B68     		ldr	r3, [r5]
 817 000a 0193     		str	r3, [sp, #4]
 818 000c 0E46     		mov	r6, r1
 819              		.loc 1 161 0
 820 000e FFF7FEFF 		bl	chDbgCheckClassI
 821              	.LVL75:
 822              		.loc 1 162 0
 823 0012 94B1     		cbz	r4, .L77
 824              	.L69:
 825              		.loc 1 163 0 discriminator 1
 826 0014 2378     		ldrb	r3, [r4]	@ zero_extendqisi2
 827 0016 022B     		cmp	r3, #2
 828 0018 02D0     		beq	.L70
 829              		.loc 1 163 0 is_stmt 0 discriminator 2
 830 001a 0C48     		ldr	r0, .L79+4
 831 001c FFF7FEFF 		bl	chSysHalt
 832              	.LVL76:
 833              	.L70:
 834              		.loc 1 166 0 is_stmt 1
 835 0020 0323     		movs	r3, #3
 836 0022 2370     		strb	r3, [r4]
 837              		.loc 1 167 0
 838 0024 019A     		ldr	r2, [sp, #4]
 839 0026 2B68     		ldr	r3, [r5]
 840 0028 9A42     		cmp	r2, r3
 841 002a 0AD1     		bne	.L78
 842 002c 3146     		mov	r1, r6
 843 002e 2046     		mov	r0, r4
 844              		.loc 1 168 0
 845 0030 02B0     		add	sp, sp, #8
 846              		.cfi_remember_state
 847              		.cfi_def_cfa_offset 16
 848              		@ sp needed
 849 0032 BDE87040 		pop	{r4, r5, r6, lr}
 850              		.cfi_restore 14
 851              		.cfi_restore 6
 852              		.cfi_restore 5
 853              		.cfi_restore 4
 854              		.cfi_def_cfa_offset 0
 855              	.LVL77:
ARM GAS  C:\Users\mathi\AppData\Local\Temp\ccU2LJu4.s 			page 16


 856              		.loc 1 167 0
 857 0036 FFF7FEBF 		b	gpt_lld_start_timer
 858              	.LVL78:
 859              	.L77:
 860              		.cfi_restore_state
 861              		.loc 1 162 0 discriminator 2
 862 003a 0448     		ldr	r0, .L79+4
 863 003c FFF7FEFF 		bl	chSysHalt
 864              	.LVL79:
 865 0040 E8E7     		b	.L69
 866              	.L78:
 867              		.loc 1 167 0
 868 0042 FFF7FEFF 		bl	__stack_chk_fail
 869              	.LVL80:
 870              	.L80:
 871 0046 00BF     		.align	2
 872              	.L79:
 873 0048 00000000 		.word	__stack_chk_guard
 874 004c 00000000 		.word	.LANCHOR4
 875              		.cfi_endproc
 876              	.LFE262:
 877              		.size	gptStartContinuousI, .-gptStartContinuousI
 878              		.section	.text.gptStartOneShot,"ax",%progbits
 879              		.align	1
 880              		.p2align 4,,15
 881              		.global	gptStartOneShot
 882              		.syntax unified
 883              		.thumb
 884              		.thumb_func
 885              		.fpu fpv4-sp-d16
 886              		.type	gptStartOneShot, %function
 887              	gptStartOneShot:
 888              	.LFB263:
 889              		.loc 1 178 0
 890              		.cfi_startproc
 891              		@ args = 0, pretend = 0, frame = 8
 892              		@ frame_needed = 0, uses_anonymous_args = 0
 893              	.LVL81:
 894 0000 70B5     		push	{r4, r5, r6, lr}
 895              		.cfi_def_cfa_offset 16
 896              		.cfi_offset 4, -16
 897              		.cfi_offset 5, -12
 898              		.cfi_offset 6, -8
 899              		.cfi_offset 14, -4
 900 0002 214D     		ldr	r5, .L95
 901 0004 82B0     		sub	sp, sp, #8
 902              		.cfi_def_cfa_offset 24
 903              		.loc 1 178 0
 904 0006 2B68     		ldr	r3, [r5]
 905 0008 0193     		str	r3, [sp, #4]
 906              	.LVL82:
 907 000a 0446     		mov	r4, r0
 908 000c 0E46     		mov	r6, r1
 909              	.LBB206:
 910              	.LBB207:
 911              	.LBB208:
 912              	.LBB209:
ARM GAS  C:\Users\mathi\AppData\Local\Temp\ccU2LJu4.s 			page 17


 913              	.LBB210:
 914              	.LBB211:
 915              		.loc 2 546 0
 916 000e 2023     		movs	r3, #32
 917              		.syntax unified
 918              	@ 546 "../../lib/e-puck2_main-processor/ChibiOS//os/ext/CMSIS/include/core_cmFunc.h" 1
 919 0010 83F31188 		MSR basepri, r3
 920              	@ 0 "" 2
 921              	.LVL83:
 922              		.thumb
 923              		.syntax unified
 924              	.LBE211:
 925              	.LBE210:
 926              	.LBE209:
 927              		.loc 3 349 0
 928 0014 FFF7FEFF 		bl	_stats_start_measure_crit_thd
 929              	.LVL84:
 930              		.loc 3 350 0
 931 0018 FFF7FEFF 		bl	_dbg_check_lock
 932              	.LVL85:
 933              	.LBE208:
 934              	.LBE207:
 935              	.LBE206:
 936              	.LBB212:
 937              	.LBB213:
 938              		.loc 1 195 0
 939 001c FFF7FEFF 		bl	chDbgCheckClassI
 940              	.LVL86:
 941              		.loc 1 196 0
 942 0020 64B3     		cbz	r4, .L91
 943              	.L82:
 944              		.loc 1 197 0
 945 0022 6368     		ldr	r3, [r4, #4]
 946 0024 5B68     		ldr	r3, [r3, #4]
 947 0026 2BB3     		cbz	r3, .L92
 948              	.L83:
 949              		.loc 1 198 0
 950 0028 2378     		ldrb	r3, [r4]	@ zero_extendqisi2
 951 002a 022B     		cmp	r3, #2
 952 002c 02D0     		beq	.L84
 953 002e 1748     		ldr	r0, .L95+4
 954 0030 FFF7FEFF 		bl	chSysHalt
 955              	.LVL87:
 956              	.L84:
 957              		.loc 1 201 0
 958 0034 0423     		movs	r3, #4
 959 0036 2370     		strb	r3, [r4]
 960              		.loc 1 202 0
 961 0038 3146     		mov	r1, r6
 962 003a 2046     		mov	r0, r4
 963 003c FFF7FEFF 		bl	gpt_lld_start_timer
 964              	.LVL88:
 965              	.LBE213:
 966              	.LBE212:
 967              	.LBB215:
 968              	.LBB216:
 969              	.LBB217:
ARM GAS  C:\Users\mathi\AppData\Local\Temp\ccU2LJu4.s 			page 18


 970              		.loc 3 360 0
 971 0040 FFF7FEFF 		bl	_dbg_check_unlock
 972              	.LVL89:
 973              		.loc 3 361 0
 974 0044 FFF7FEFF 		bl	_stats_stop_measure_crit_thd
 975              	.LVL90:
 976              		.loc 3 367 0
 977 0048 114B     		ldr	r3, .L95+8
 978 004a 1A68     		ldr	r2, [r3]
 979 004c 9A42     		cmp	r2, r3
 980 004e 04D0     		beq	.L85
 981 0050 9969     		ldr	r1, [r3, #24]
 982 0052 9368     		ldr	r3, [r2, #8]
 983 0054 8A68     		ldr	r2, [r1, #8]
 984 0056 9A42     		cmp	r2, r3
 985 0058 08D3     		bcc	.L93
 986              	.L85:
 987              	.LVL91:
 988              	.LBB218:
 989              	.LBB219:
 990              	.LBB220:
 991              		.loc 2 546 0
 992 005a 0023     		movs	r3, #0
 993              		.syntax unified
 994              	@ 546 "../../lib/e-puck2_main-processor/ChibiOS//os/ext/CMSIS/include/core_cmFunc.h" 1
 995 005c 83F31188 		MSR basepri, r3
 996              	@ 0 "" 2
 997              	.LVL92:
 998              		.thumb
 999              		.syntax unified
 1000              	.LBE220:
 1001              	.LBE219:
 1002              	.LBE218:
 1003              	.LBE217:
 1004              	.LBE216:
 1005              	.LBE215:
 1006              		.loc 1 183 0
 1007 0060 019A     		ldr	r2, [sp, #4]
 1008 0062 2B68     		ldr	r3, [r5]
 1009 0064 9A42     		cmp	r2, r3
 1010 0066 0DD1     		bne	.L94
 1011 0068 02B0     		add	sp, sp, #8
 1012              		.cfi_remember_state
 1013              		.cfi_def_cfa_offset 16
 1014              		@ sp needed
 1015 006a 70BD     		pop	{r4, r5, r6, pc}
 1016              	.LVL93:
 1017              	.L93:
 1018              		.cfi_restore_state
 1019              	.LBB223:
 1020              	.LBB222:
 1021              	.LBB221:
 1022              		.loc 3 367 0
 1023 006c 0948     		ldr	r0, .L95+12
 1024 006e FFF7FEFF 		bl	chSysHalt
 1025              	.LVL94:
 1026 0072 F2E7     		b	.L85
ARM GAS  C:\Users\mathi\AppData\Local\Temp\ccU2LJu4.s 			page 19


 1027              	.LVL95:
 1028              	.L92:
 1029              	.LBE221:
 1030              	.LBE222:
 1031              	.LBE223:
 1032              	.LBB224:
 1033              	.LBB214:
 1034              		.loc 1 197 0
 1035 0074 0548     		ldr	r0, .L95+4
 1036 0076 FFF7FEFF 		bl	chSysHalt
 1037              	.LVL96:
 1038 007a D5E7     		b	.L83
 1039              	.L91:
 1040              		.loc 1 196 0
 1041 007c 0348     		ldr	r0, .L95+4
 1042 007e FFF7FEFF 		bl	chSysHalt
 1043              	.LVL97:
 1044 0082 CEE7     		b	.L82
 1045              	.LVL98:
 1046              	.L94:
 1047              	.LBE214:
 1048              	.LBE224:
 1049              		.loc 1 183 0
 1050 0084 FFF7FEFF 		bl	__stack_chk_fail
 1051              	.LVL99:
 1052              	.L96:
 1053              		.align	2
 1054              	.L95:
 1055 0088 00000000 		.word	__stack_chk_guard
 1056 008c 00000000 		.word	.LANCHOR5
 1057 0090 00000000 		.word	ch
 1058 0094 00000000 		.word	.LANCHOR1
 1059              		.cfi_endproc
 1060              	.LFE263:
 1061              		.size	gptStartOneShot, .-gptStartOneShot
 1062              		.section	.text.gptStartOneShotI,"ax",%progbits
 1063              		.align	1
 1064              		.p2align 4,,15
 1065              		.global	gptStartOneShotI
 1066              		.syntax unified
 1067              		.thumb
 1068              		.thumb_func
 1069              		.fpu fpv4-sp-d16
 1070              		.type	gptStartOneShotI, %function
 1071              	gptStartOneShotI:
 1072              	.LFB264:
 1073              		.loc 1 193 0
 1074              		.cfi_startproc
 1075              		@ args = 0, pretend = 0, frame = 8
 1076              		@ frame_needed = 0, uses_anonymous_args = 0
 1077              	.LVL100:
 1078 0000 70B5     		push	{r4, r5, r6, lr}
 1079              		.cfi_def_cfa_offset 16
 1080              		.cfi_offset 4, -16
 1081              		.cfi_offset 5, -12
 1082              		.cfi_offset 6, -8
 1083              		.cfi_offset 14, -4
ARM GAS  C:\Users\mathi\AppData\Local\Temp\ccU2LJu4.s 			page 20


 1084 0002 164D     		ldr	r5, .L110
 1085 0004 82B0     		sub	sp, sp, #8
 1086              		.cfi_def_cfa_offset 24
 1087              		.loc 1 193 0
 1088 0006 0446     		mov	r4, r0
 1089 0008 2B68     		ldr	r3, [r5]
 1090 000a 0193     		str	r3, [sp, #4]
 1091 000c 0E46     		mov	r6, r1
 1092              		.loc 1 195 0
 1093 000e FFF7FEFF 		bl	chDbgCheckClassI
 1094              	.LVL101:
 1095              		.loc 1 196 0
 1096 0012 ACB1     		cbz	r4, .L107
 1097              		.loc 1 197 0 discriminator 1
 1098 0014 6368     		ldr	r3, [r4, #4]
 1099 0016 5B68     		ldr	r3, [r3, #4]
 1100 0018 CBB1     		cbz	r3, .L108
 1101              	.L99:
 1102              		.loc 1 198 0 discriminator 1
 1103 001a 2378     		ldrb	r3, [r4]	@ zero_extendqisi2
 1104 001c 022B     		cmp	r3, #2
 1105 001e 02D0     		beq	.L100
 1106              		.loc 1 198 0 is_stmt 0 discriminator 2
 1107 0020 0F48     		ldr	r0, .L110+4
 1108 0022 FFF7FEFF 		bl	chSysHalt
 1109              	.LVL102:
 1110              	.L100:
 1111              		.loc 1 201 0 is_stmt 1
 1112 0026 0423     		movs	r3, #4
 1113 0028 2370     		strb	r3, [r4]
 1114              		.loc 1 202 0
 1115 002a 019A     		ldr	r2, [sp, #4]
 1116 002c 2B68     		ldr	r3, [r5]
 1117 002e 9A42     		cmp	r2, r3
 1118 0030 11D1     		bne	.L109
 1119 0032 3146     		mov	r1, r6
 1120 0034 2046     		mov	r0, r4
 1121              		.loc 1 203 0
 1122 0036 02B0     		add	sp, sp, #8
 1123              		.cfi_remember_state
 1124              		.cfi_def_cfa_offset 16
 1125              		@ sp needed
 1126 0038 BDE87040 		pop	{r4, r5, r6, lr}
 1127              		.cfi_restore 14
 1128              		.cfi_restore 6
 1129              		.cfi_restore 5
 1130              		.cfi_restore 4
 1131              		.cfi_def_cfa_offset 0
 1132              	.LVL103:
 1133              		.loc 1 202 0
 1134 003c FFF7FEBF 		b	gpt_lld_start_timer
 1135              	.LVL104:
 1136              	.L107:
 1137              		.cfi_restore_state
 1138              		.loc 1 196 0 discriminator 2
 1139 0040 0748     		ldr	r0, .L110+4
 1140 0042 FFF7FEFF 		bl	chSysHalt
ARM GAS  C:\Users\mathi\AppData\Local\Temp\ccU2LJu4.s 			page 21


 1141              	.LVL105:
 1142              		.loc 1 197 0 discriminator 2
 1143 0046 6368     		ldr	r3, [r4, #4]
 1144 0048 5B68     		ldr	r3, [r3, #4]
 1145 004a 002B     		cmp	r3, #0
 1146 004c E5D1     		bne	.L99
 1147              	.L108:
 1148 004e 0448     		ldr	r0, .L110+4
 1149 0050 FFF7FEFF 		bl	chSysHalt
 1150              	.LVL106:
 1151 0054 E1E7     		b	.L99
 1152              	.L109:
 1153              		.loc 1 202 0
 1154 0056 FFF7FEFF 		bl	__stack_chk_fail
 1155              	.LVL107:
 1156              	.L111:
 1157 005a 00BF     		.align	2
 1158              	.L110:
 1159 005c 00000000 		.word	__stack_chk_guard
 1160 0060 00000000 		.word	.LANCHOR5
 1161              		.cfi_endproc
 1162              	.LFE264:
 1163              		.size	gptStartOneShotI, .-gptStartOneShotI
 1164              		.section	.text.gptStopTimer,"ax",%progbits
 1165              		.align	1
 1166              		.p2align 4,,15
 1167              		.global	gptStopTimer
 1168              		.syntax unified
 1169              		.thumb
 1170              		.thumb_func
 1171              		.fpu fpv4-sp-d16
 1172              		.type	gptStopTimer, %function
 1173              	gptStopTimer:
 1174              	.LFB265:
 1175              		.loc 1 212 0
 1176              		.cfi_startproc
 1177              		@ args = 0, pretend = 0, frame = 8
 1178              		@ frame_needed = 0, uses_anonymous_args = 0
 1179              	.LVL108:
 1180 0000 30B5     		push	{r4, r5, lr}
 1181              		.cfi_def_cfa_offset 12
 1182              		.cfi_offset 4, -12
 1183              		.cfi_offset 5, -8
 1184              		.cfi_offset 14, -4
 1185 0002 1D4D     		ldr	r5, .L121
 1186 0004 83B0     		sub	sp, sp, #12
 1187              		.cfi_def_cfa_offset 24
 1188              		.loc 1 212 0
 1189 0006 2B68     		ldr	r3, [r5]
 1190 0008 0193     		str	r3, [sp, #4]
 1191              	.LVL109:
 1192 000a 0446     		mov	r4, r0
 1193              	.LBB240:
 1194              	.LBB241:
 1195              	.LBB242:
 1196              	.LBB243:
 1197              	.LBB244:
ARM GAS  C:\Users\mathi\AppData\Local\Temp\ccU2LJu4.s 			page 22


 1198              	.LBB245:
 1199              		.loc 2 546 0
 1200 000c 2023     		movs	r3, #32
 1201              		.syntax unified
 1202              	@ 546 "../../lib/e-puck2_main-processor/ChibiOS//os/ext/CMSIS/include/core_cmFunc.h" 1
 1203 000e 83F31188 		MSR basepri, r3
 1204              	@ 0 "" 2
 1205              	.LVL110:
 1206              		.thumb
 1207              		.syntax unified
 1208              	.LBE245:
 1209              	.LBE244:
 1210              	.LBE243:
 1211              		.loc 3 349 0
 1212 0012 FFF7FEFF 		bl	_stats_start_measure_crit_thd
 1213              	.LVL111:
 1214              		.loc 3 350 0
 1215 0016 FFF7FEFF 		bl	_dbg_check_lock
 1216              	.LVL112:
 1217              	.LBE242:
 1218              	.LBE241:
 1219              	.LBE240:
 1220              	.LBB246:
 1221              	.LBB247:
 1222              		.loc 1 228 0
 1223 001a FFF7FEFF 		bl	chDbgCheckClassI
 1224              	.LVL113:
 1225              		.loc 1 229 0
 1226 001e 2CB3     		cbz	r4, .L118
 1227              	.L113:
 1228              		.loc 1 230 0
 1229 0020 2378     		ldrb	r3, [r4]	@ zero_extendqisi2
 1230 0022 023B     		subs	r3, r3, #2
 1231 0024 022B     		cmp	r3, #2
 1232 0026 02D9     		bls	.L114
 1233 0028 1448     		ldr	r0, .L121+4
 1234 002a FFF7FEFF 		bl	chSysHalt
 1235              	.LVL114:
 1236              	.L114:
 1237              		.loc 1 234 0
 1238 002e 0223     		movs	r3, #2
 1239 0030 2370     		strb	r3, [r4]
 1240              		.loc 1 235 0
 1241 0032 2046     		mov	r0, r4
 1242 0034 FFF7FEFF 		bl	gpt_lld_stop_timer
 1243              	.LVL115:
 1244              	.LBE247:
 1245              	.LBE246:
 1246              	.LBB249:
 1247              	.LBB250:
 1248              	.LBB251:
 1249              		.loc 3 360 0
 1250 0038 FFF7FEFF 		bl	_dbg_check_unlock
 1251              	.LVL116:
 1252              		.loc 3 361 0
 1253 003c FFF7FEFF 		bl	_stats_stop_measure_crit_thd
 1254              	.LVL117:
ARM GAS  C:\Users\mathi\AppData\Local\Temp\ccU2LJu4.s 			page 23


 1255              		.loc 3 367 0
 1256 0040 0F4B     		ldr	r3, .L121+8
 1257 0042 1A68     		ldr	r2, [r3]
 1258 0044 9A42     		cmp	r2, r3
 1259 0046 04D0     		beq	.L115
 1260 0048 9969     		ldr	r1, [r3, #24]
 1261 004a 9368     		ldr	r3, [r2, #8]
 1262 004c 8A68     		ldr	r2, [r1, #8]
 1263 004e 9A42     		cmp	r2, r3
 1264 0050 08D3     		bcc	.L119
 1265              	.L115:
 1266              	.LVL118:
 1267              	.LBB252:
 1268              	.LBB253:
 1269              	.LBB254:
 1270              		.loc 2 546 0
 1271 0052 0023     		movs	r3, #0
 1272              		.syntax unified
 1273              	@ 546 "../../lib/e-puck2_main-processor/ChibiOS//os/ext/CMSIS/include/core_cmFunc.h" 1
 1274 0054 83F31188 		MSR basepri, r3
 1275              	@ 0 "" 2
 1276              	.LVL119:
 1277              		.thumb
 1278              		.syntax unified
 1279              	.LBE254:
 1280              	.LBE253:
 1281              	.LBE252:
 1282              	.LBE251:
 1283              	.LBE250:
 1284              	.LBE249:
 1285              		.loc 1 217 0
 1286 0058 019A     		ldr	r2, [sp, #4]
 1287 005a 2B68     		ldr	r3, [r5]
 1288 005c 9A42     		cmp	r2, r3
 1289 005e 09D1     		bne	.L120
 1290 0060 03B0     		add	sp, sp, #12
 1291              		.cfi_remember_state
 1292              		.cfi_def_cfa_offset 12
 1293              		@ sp needed
 1294 0062 30BD     		pop	{r4, r5, pc}
 1295              	.LVL120:
 1296              	.L119:
 1297              		.cfi_restore_state
 1298              	.LBB257:
 1299              	.LBB256:
 1300              	.LBB255:
 1301              		.loc 3 367 0
 1302 0064 0748     		ldr	r0, .L121+12
 1303 0066 FFF7FEFF 		bl	chSysHalt
 1304              	.LVL121:
 1305 006a F2E7     		b	.L115
 1306              	.LVL122:
 1307              	.L118:
 1308              	.LBE255:
 1309              	.LBE256:
 1310              	.LBE257:
 1311              	.LBB258:
ARM GAS  C:\Users\mathi\AppData\Local\Temp\ccU2LJu4.s 			page 24


 1312              	.LBB248:
 1313              		.loc 1 229 0
 1314 006c 0348     		ldr	r0, .L121+4
 1315 006e FFF7FEFF 		bl	chSysHalt
 1316              	.LVL123:
 1317 0072 D5E7     		b	.L113
 1318              	.LVL124:
 1319              	.L120:
 1320              	.LBE248:
 1321              	.LBE258:
 1322              		.loc 1 217 0
 1323 0074 FFF7FEFF 		bl	__stack_chk_fail
 1324              	.LVL125:
 1325              	.L122:
 1326              		.align	2
 1327              	.L121:
 1328 0078 00000000 		.word	__stack_chk_guard
 1329 007c 00000000 		.word	.LANCHOR6
 1330 0080 00000000 		.word	ch
 1331 0084 00000000 		.word	.LANCHOR1
 1332              		.cfi_endproc
 1333              	.LFE265:
 1334              		.size	gptStopTimer, .-gptStopTimer
 1335              		.section	.text.gptStopTimerI,"ax",%progbits
 1336              		.align	1
 1337              		.p2align 4,,15
 1338              		.global	gptStopTimerI
 1339              		.syntax unified
 1340              		.thumb
 1341              		.thumb_func
 1342              		.fpu fpv4-sp-d16
 1343              		.type	gptStopTimerI, %function
 1344              	gptStopTimerI:
 1345              	.LFB266:
 1346              		.loc 1 226 0
 1347              		.cfi_startproc
 1348              		@ args = 0, pretend = 0, frame = 8
 1349              		@ frame_needed = 0, uses_anonymous_args = 0
 1350              	.LVL126:
 1351 0000 30B5     		push	{r4, r5, lr}
 1352              		.cfi_def_cfa_offset 12
 1353              		.cfi_offset 4, -12
 1354              		.cfi_offset 5, -8
 1355              		.cfi_offset 14, -4
 1356 0002 104D     		ldr	r5, .L131
 1357 0004 83B0     		sub	sp, sp, #12
 1358              		.cfi_def_cfa_offset 24
 1359              		.loc 1 226 0
 1360 0006 0446     		mov	r4, r0
 1361 0008 2B68     		ldr	r3, [r5]
 1362 000a 0193     		str	r3, [sp, #4]
 1363              		.loc 1 228 0
 1364 000c FFF7FEFF 		bl	chDbgCheckClassI
 1365              	.LVL127:
 1366              		.loc 1 229 0
 1367 0010 94B1     		cbz	r4, .L129
 1368              	.L124:
ARM GAS  C:\Users\mathi\AppData\Local\Temp\ccU2LJu4.s 			page 25


 1369              		.loc 1 230 0 discriminator 1
 1370 0012 2378     		ldrb	r3, [r4]	@ zero_extendqisi2
 1371 0014 023B     		subs	r3, r3, #2
 1372 0016 022B     		cmp	r3, #2
 1373 0018 02D9     		bls	.L125
 1374              		.loc 1 230 0 is_stmt 0 discriminator 2
 1375 001a 0B48     		ldr	r0, .L131+4
 1376 001c FFF7FEFF 		bl	chSysHalt
 1377              	.LVL128:
 1378              	.L125:
 1379              		.loc 1 234 0 is_stmt 1
 1380 0020 0223     		movs	r3, #2
 1381 0022 2370     		strb	r3, [r4]
 1382              		.loc 1 235 0
 1383 0024 019A     		ldr	r2, [sp, #4]
 1384 0026 2B68     		ldr	r3, [r5]
 1385 0028 9A42     		cmp	r2, r3
 1386 002a 09D1     		bne	.L130
 1387 002c 2046     		mov	r0, r4
 1388              		.loc 1 236 0
 1389 002e 03B0     		add	sp, sp, #12
 1390              		.cfi_remember_state
 1391              		.cfi_def_cfa_offset 12
 1392              		@ sp needed
 1393 0030 BDE83040 		pop	{r4, r5, lr}
 1394              		.cfi_restore 14
 1395              		.cfi_restore 5
 1396              		.cfi_restore 4
 1397              		.cfi_def_cfa_offset 0
 1398              	.LVL129:
 1399              		.loc 1 235 0
 1400 0034 FFF7FEBF 		b	gpt_lld_stop_timer
 1401              	.LVL130:
 1402              	.L129:
 1403              		.cfi_restore_state
 1404              		.loc 1 229 0 discriminator 2
 1405 0038 0348     		ldr	r0, .L131+4
 1406 003a FFF7FEFF 		bl	chSysHalt
 1407              	.LVL131:
 1408 003e E8E7     		b	.L124
 1409              	.L130:
 1410              		.loc 1 235 0
 1411 0040 FFF7FEFF 		bl	__stack_chk_fail
 1412              	.LVL132:
 1413              	.L132:
 1414              		.align	2
 1415              	.L131:
 1416 0044 00000000 		.word	__stack_chk_guard
 1417 0048 00000000 		.word	.LANCHOR6
 1418              		.cfi_endproc
 1419              	.LFE266:
 1420              		.size	gptStopTimerI, .-gptStopTimerI
 1421              		.section	.text.gptPolledDelay,"ax",%progbits
 1422              		.align	1
 1423              		.p2align 4,,15
 1424              		.global	gptPolledDelay
 1425              		.syntax unified
ARM GAS  C:\Users\mathi\AppData\Local\Temp\ccU2LJu4.s 			page 26


 1426              		.thumb
 1427              		.thumb_func
 1428              		.fpu fpv4-sp-d16
 1429              		.type	gptPolledDelay, %function
 1430              	gptPolledDelay:
 1431              	.LFB267:
 1432              		.loc 1 250 0
 1433              		.cfi_startproc
 1434              		@ args = 0, pretend = 0, frame = 8
 1435              		@ frame_needed = 0, uses_anonymous_args = 0
 1436              	.LVL133:
 1437 0000 70B5     		push	{r4, r5, r6, lr}
 1438              		.cfi_def_cfa_offset 16
 1439              		.cfi_offset 4, -16
 1440              		.cfi_offset 5, -12
 1441              		.cfi_offset 6, -8
 1442              		.cfi_offset 14, -4
 1443 0002 0E4D     		ldr	r5, .L141
 1444              		.loc 1 252 0
 1445 0004 0378     		ldrb	r3, [r0]	@ zero_extendqisi2
 1446              		.loc 1 250 0
 1447 0006 2A68     		ldr	r2, [r5]
 1448 0008 82B0     		sub	sp, sp, #8
 1449              		.cfi_def_cfa_offset 24
 1450              		.loc 1 252 0
 1451 000a 022B     		cmp	r3, #2
 1452              		.loc 1 250 0
 1453 000c 0446     		mov	r4, r0
 1454 000e 0192     		str	r2, [sp, #4]
 1455 0010 0E46     		mov	r6, r1
 1456              		.loc 1 252 0
 1457 0012 02D0     		beq	.L134
 1458              		.loc 1 252 0 is_stmt 0 discriminator 2
 1459 0014 0A48     		ldr	r0, .L141+4
 1460              	.LVL134:
 1461 0016 FFF7FEFF 		bl	chSysHalt
 1462              	.LVL135:
 1463              	.L134:
 1464              		.loc 1 255 0 is_stmt 1
 1465 001a 0423     		movs	r3, #4
 1466 001c 2370     		strb	r3, [r4]
 1467              		.loc 1 256 0
 1468 001e 3146     		mov	r1, r6
 1469 0020 2046     		mov	r0, r4
 1470 0022 FFF7FEFF 		bl	gpt_lld_polled_delay
 1471              	.LVL136:
 1472              		.loc 1 257 0
 1473 0026 0223     		movs	r3, #2
 1474 0028 2370     		strb	r3, [r4]
 1475              		.loc 1 258 0
 1476 002a 019A     		ldr	r2, [sp, #4]
 1477 002c 2B68     		ldr	r3, [r5]
 1478 002e 9A42     		cmp	r2, r3
 1479 0030 01D1     		bne	.L140
 1480 0032 02B0     		add	sp, sp, #8
 1481              		.cfi_remember_state
 1482              		.cfi_def_cfa_offset 16
ARM GAS  C:\Users\mathi\AppData\Local\Temp\ccU2LJu4.s 			page 27


 1483              		@ sp needed
 1484 0034 70BD     		pop	{r4, r5, r6, pc}
 1485              	.LVL137:
 1486              	.L140:
 1487              		.cfi_restore_state
 1488 0036 FFF7FEFF 		bl	__stack_chk_fail
 1489              	.LVL138:
 1490              	.L142:
 1491 003a 00BF     		.align	2
 1492              	.L141:
 1493 003c 00000000 		.word	__stack_chk_guard
 1494 0040 00000000 		.word	.LANCHOR7
 1495              		.cfi_endproc
 1496              	.LFE267:
 1497              		.size	gptPolledDelay, .-gptPolledDelay
 1498              		.section	.rodata.__func__.7153,"a",%progbits
 1499              		.align	2
 1500              		.set	.LANCHOR1,. + 0
 1501              		.type	__func__.7153, %object
 1502              		.size	__func__.7153, 12
 1503              	__func__.7153:
 1504 0000 63685379 		.ascii	"chSysUnlock\000"
 1504      73556E6C 
 1504      6F636B00 
 1505              		.section	.rodata.__func__.9849,"a",%progbits
 1506              		.align	2
 1507              		.set	.LANCHOR0,. + 0
 1508              		.type	__func__.9849, %object
 1509              		.size	__func__.9849, 9
 1510              	__func__.9849:
 1511 0000 67707453 		.ascii	"gptStart\000"
 1511      74617274 
 1511      00
 1512              		.section	.rodata.__func__.9853,"a",%progbits
 1513              		.align	2
 1514              		.set	.LANCHOR2,. + 0
 1515              		.type	__func__.9853, %object
 1516              		.size	__func__.9853, 8
 1517              	__func__.9853:
 1518 0000 67707453 		.ascii	"gptStop\000"
 1518      746F7000 
 1519              		.section	.rodata.__func__.9858,"a",%progbits
 1520              		.align	2
 1521              		.set	.LANCHOR3,. + 0
 1522              		.type	__func__.9858, %object
 1523              		.size	__func__.9858, 18
 1524              	__func__.9858:
 1525 0000 67707443 		.ascii	"gptChangeInterval\000"
 1525      68616E67 
 1525      65496E74 
 1525      65727661 
 1525      6C00
 1526              		.section	.rodata.__func__.9867,"a",%progbits
 1527              		.align	2
 1528              		.set	.LANCHOR4,. + 0
 1529              		.type	__func__.9867, %object
 1530              		.size	__func__.9867, 20
ARM GAS  C:\Users\mathi\AppData\Local\Temp\ccU2LJu4.s 			page 28


 1531              	__func__.9867:
 1532 0000 67707453 		.ascii	"gptStartContinuousI\000"
 1532      74617274 
 1532      436F6E74 
 1532      696E756F 
 1532      75734900 
 1533              		.section	.rodata.__func__.9876,"a",%progbits
 1534              		.align	2
 1535              		.set	.LANCHOR5,. + 0
 1536              		.type	__func__.9876, %object
 1537              		.size	__func__.9876, 17
 1538              	__func__.9876:
 1539 0000 67707453 		.ascii	"gptStartOneShotI\000"
 1539      74617274 
 1539      4F6E6553 
 1539      686F7449 
 1539      00
 1540              		.section	.rodata.__func__.9883,"a",%progbits
 1541              		.align	2
 1542              		.set	.LANCHOR6,. + 0
 1543              		.type	__func__.9883, %object
 1544              		.size	__func__.9883, 14
 1545              	__func__.9883:
 1546 0000 67707453 		.ascii	"gptStopTimerI\000"
 1546      746F7054 
 1546      696D6572 
 1546      4900
 1547              		.section	.rodata.__func__.9888,"a",%progbits
 1548              		.align	2
 1549              		.set	.LANCHOR7,. + 0
 1550              		.type	__func__.9888, %object
 1551              		.size	__func__.9888, 15
 1552              	__func__.9888:
 1553 0000 67707450 		.ascii	"gptPolledDelay\000"
 1553      6F6C6C65 
 1553      6444656C 
 1553      617900
 1554              		.text
 1555              	.Letext0:
 1556              		.file 4 "c:\\eclipse_e-puck2\\tools\\gcc-arm-none-eabi-7-2017-q4-major-win32\\lib\\gcc\\arm-none-e
 1557              		.file 5 "c:\\eclipse_e-puck2\\tools\\gcc-arm-none-eabi-7-2017-q4-major-win32\\arm-none-eabi\\inclu
 1558              		.file 6 "c:\\eclipse_e-puck2\\tools\\gcc-arm-none-eabi-7-2017-q4-major-win32\\arm-none-eabi\\inclu
 1559              		.file 7 "../../lib/e-puck2_main-processor/ChibiOS//os/rt/ports/ARMCMx/compilers/GCC/chtypes.h"
 1560              		.file 8 "../../lib/e-puck2_main-processor/ChibiOS//os/rt/include/chsystypes.h"
 1561              		.file 9 "../../lib/e-puck2_main-processor/ChibiOS//os/rt/include/chschd.h"
 1562              		.file 10 "../../lib/e-puck2_main-processor/ChibiOS//os/ext/CMSIS/include/core_cm4.h"
 1563              		.file 11 "../../lib/e-puck2_main-processor/ChibiOS//os/ext/CMSIS/ST/system_stm32f4xx.h"
 1564              		.file 12 "../../lib/e-puck2_main-processor/ChibiOS//os/ext/CMSIS/ST/stm32f407xx.h"
 1565              		.file 13 "../../lib/e-puck2_main-processor/ChibiOS//os/rt/ports/ARMCMx/chcore.h"
 1566              		.file 14 "../../lib/e-puck2_main-processor/ChibiOS//os/rt/ports/ARMCMx/chcore_v7m.h"
 1567              		.file 15 "../../lib/e-puck2_main-processor/ChibiOS//os/rt/include/chdebug.h"
 1568              		.file 16 "../../lib/e-puck2_main-processor/ChibiOS//os/rt/include/chtm.h"
 1569              		.file 17 "../../lib/e-puck2_main-processor/ChibiOS//os/rt/include/chstats.h"
 1570              		.file 18 "../../lib/e-puck2_main-processor/ChibiOS//os/rt/include/chsem.h"
 1571              		.file 19 "../../lib/e-puck2_main-processor/ChibiOS//os/rt/include/chmtx.h"
 1572              		.file 20 "../../lib/e-puck2_main-processor/ChibiOS//os/rt/include/chregistry.h"
 1573              		.file 21 "../../lib/e-puck2_main-processor/ChibiOS//os/rt/include/chevents.h"
ARM GAS  C:\Users\mathi\AppData\Local\Temp\ccU2LJu4.s 			page 29


 1574              		.file 22 "../../lib/e-puck2_main-processor/ChibiOS//os/rt/include/chqueues.h"
 1575              		.file 23 "../../lib/e-puck2_main-processor/ChibiOS//os/hal/ports/STM32/STM32F4xx/stm32_dma.h"
 1576              		.file 24 "../../lib/e-puck2_main-processor/ChibiOS//os/hal/include/hal_ioblock.h"
 1577              		.file 25 "../../lib/e-puck2_main-processor/ChibiOS//os/hal/ports/STM32/LLD/GPIOv2/pal_lld.h"
 1578              		.file 26 "../../lib/e-puck2_main-processor/ChibiOS//os/hal/include/adc.h"
 1579              		.file 27 "../../lib/e-puck2_main-processor/ChibiOS//os/hal/ports/STM32/STM32F4xx/adc_lld.h"
 1580              		.file 28 "../../lib/e-puck2_main-processor/ChibiOS//os/hal/include/can.h"
 1581              		.file 29 "../../lib/e-puck2_main-processor/ChibiOS//os/hal/ports/STM32/LLD/can_lld.h"
 1582              		.file 30 "../../lib/e-puck2_main-processor/ChibiOS//os/hal/include/dac.h"
 1583              		.file 31 "../../lib/e-puck2_main-processor/ChibiOS//os/hal/ports/STM32/LLD/DACv1/dac_lld.h"
 1584              		.file 32 "../../lib/e-puck2_main-processor/ChibiOS//os/hal/include/ext.h"
 1585              		.file 33 "../../lib/e-puck2_main-processor/ChibiOS//os/hal/ports/STM32/LLD/ext_lld.h"
 1586              		.file 34 "../../lib/e-puck2_main-processor/ChibiOS//os/hal/include/gpt.h"
 1587              		.file 35 "../../lib/e-puck2_main-processor/ChibiOS//os/hal/ports/STM32/LLD/TIMv1/gpt_lld.h"
 1588              		.file 36 "../../lib/e-puck2_main-processor/ChibiOS//os/hal/ports/STM32/LLD/TIMv1/stm32_tim.h"
 1589              		.file 37 "../../lib/e-puck2_main-processor/ChibiOS//os/hal/include/i2c.h"
 1590              		.file 38 "../../lib/e-puck2_main-processor/ChibiOS//os/hal/ports/STM32/LLD/I2Cv1/i2c_lld.h"
 1591              		.file 39 "../../lib/e-puck2_main-processor/ChibiOS//os/hal/include/i2s.h"
 1592              		.file 40 "../../lib/e-puck2_main-processor/ChibiOS//os/hal/ports/STM32/LLD/SPIv1/i2s_lld.h"
 1593              		.file 41 "../../lib/e-puck2_main-processor/ChibiOS//os/hal/include/pwm.h"
 1594              		.file 42 "../../lib/e-puck2_main-processor/ChibiOS//os/hal/ports/STM32/LLD/TIMv1/pwm_lld.h"
 1595              		.file 43 "../../lib/e-puck2_main-processor/ChibiOS//os/hal/include/serial.h"
 1596              		.file 44 "../../lib/e-puck2_main-processor/ChibiOS//os/hal/ports/STM32/LLD/USARTv1/serial_lld.h"
 1597              		.file 45 "../../lib/e-puck2_main-processor/ChibiOS//os/hal/include/sdc.h"
 1598              		.file 46 "../../lib/e-puck2_main-processor/ChibiOS//os/hal/ports/STM32/LLD/sdc_lld.h"
 1599              		.file 47 "../../lib/e-puck2_main-processor/ChibiOS//os/hal/include/spi.h"
 1600              		.file 48 "../../lib/e-puck2_main-processor/ChibiOS//os/hal/ports/STM32/LLD/SPIv1/spi_lld.h"
 1601              		.file 49 "../../lib/e-puck2_main-processor/ChibiOS//os/hal/include/usb.h"
 1602              		.file 50 "../../lib/e-puck2_main-processor/ChibiOS//os/hal/ports/STM32/LLD/OTGv1/usb_lld.h"
 1603              		.file 51 "../../lib/e-puck2_main-processor/ChibiOS//os/hal/ports/STM32/LLD/OTGv1/stm32_otg.h"
 1604              		.file 52 "../../lib/e-puck2_main-processor/ChibiOS//os/hal/osal/rt/osal.h"