ARM GAS  C:\Users\mathi\AppData\Local\Temp\ccWRVaI9.s 			page 1


   1              		.cpu cortex-m4
   2              		.eabi_attribute 27, 1
   3              		.eabi_attribute 28, 1
   4              		.eabi_attribute 20, 1
   5              		.eabi_attribute 21, 1
   6              		.eabi_attribute 23, 3
   7              		.eabi_attribute 24, 1
   8              		.eabi_attribute 25, 1
   9              		.eabi_attribute 26, 1
  10              		.eabi_attribute 30, 2
  11              		.eabi_attribute 34, 1
  12              		.eabi_attribute 18, 4
  13              		.file	"gpt_lld.c"
  14              		.text
  15              	.Ltext0:
  16              		.cfi_sections	.debug_frame
  17              		.section	.text.Vector118,"ax",%progbits
  18              		.align	1
  19              		.p2align 4,,15
  20              		.global	Vector118
  21              		.syntax unified
  22              		.thumb
  23              		.thumb_func
  24              		.fpu fpv4-sp-d16
  25              		.type	Vector118, %function
  26              	Vector118:
  27              	.LFB257:
  28              		.file 1 "../../lib/e-puck2_main-processor/ChibiOS//os/hal/ports/STM32/LLD/TIMv1/gpt_lld.c"
  29              		.loc 1 264 0
  30              		.cfi_startproc
  31              		@ args = 0, pretend = 0, frame = 8
  32              		@ frame_needed = 0, uses_anonymous_args = 0
  33 0000 10B5     		push	{r4, lr}
  34              		.cfi_def_cfa_offset 8
  35              		.cfi_offset 4, -8
  36              		.cfi_offset 14, -4
  37 0002 144C     		ldr	r4, .L8
  38 0004 82B0     		sub	sp, sp, #8
  39              		.cfi_def_cfa_offset 16
  40              		.loc 1 264 0
  41 0006 2368     		ldr	r3, [r4]
  42 0008 0193     		str	r3, [sp, #4]
  43              		.loc 1 266 0
  44 000a FFF7FEFF 		bl	_stats_increase_irq
  45              	.LVL0:
  46 000e FFF7FEFF 		bl	_dbg_check_enter_isr
  47              	.LVL1:
  48              	.LBB8:
  49              	.LBB9:
  50              		.loc 1 148 0
  51 0012 114B     		ldr	r3, .L8+4
  52              		.loc 1 149 0
  53 0014 1878     		ldrb	r0, [r3]	@ zero_extendqisi2
  54              		.loc 1 148 0
  55 0016 D968     		ldr	r1, [r3, #12]
  56 0018 0022     		movs	r2, #0
  57              		.loc 1 149 0
ARM GAS  C:\Users\mathi\AppData\Local\Temp\ccWRVaI9.s 			page 2


  58 001a 0428     		cmp	r0, #4
  59              		.loc 1 148 0
  60 001c 0A61     		str	r2, [r1, #16]
  61              		.loc 1 149 0
  62 001e 08D1     		bne	.L2
  63              		.loc 1 150 0
  64 0020 0220     		movs	r0, #2
  65 0022 1870     		strb	r0, [r3]
  66              	.LVL2:
  67              	.LBB10:
  68              	.LBB11:
  69              		.loc 1 733 0
  70 0024 0A60     		str	r2, [r1]
  71              		.loc 1 734 0
  72 0026 D968     		ldr	r1, [r3, #12]
  73 0028 0A61     		str	r2, [r1, #16]
  74              		.loc 1 737 0
  75 002a CA68     		ldr	r2, [r1, #12]
  76 002c 22F0FF02 		bic	r2, r2, #255
  77 0030 CA60     		str	r2, [r1, #12]
  78              	.LVL3:
  79              	.L2:
  80              	.LBE11:
  81              	.LBE10:
  82              		.loc 1 153 0
  83 0032 5B68     		ldr	r3, [r3, #4]
  84 0034 0848     		ldr	r0, .L8+4
  85 0036 5B68     		ldr	r3, [r3, #4]
  86 0038 9847     		blx	r3
  87              	.LVL4:
  88              	.LBE9:
  89              	.LBE8:
  90              		.loc 1 270 0
  91 003a FFF7FEFF 		bl	_dbg_check_leave_isr
  92              	.LVL5:
  93 003e 019A     		ldr	r2, [sp, #4]
  94 0040 2368     		ldr	r3, [r4]
  95 0042 9A42     		cmp	r2, r3
  96 0044 04D1     		bne	.L7
  97              		.loc 1 271 0
  98 0046 02B0     		add	sp, sp, #8
  99              		.cfi_remember_state
 100              		.cfi_def_cfa_offset 8
 101              		@ sp needed
 102 0048 BDE81040 		pop	{r4, lr}
 103              		.cfi_restore 14
 104              		.cfi_restore 4
 105              		.cfi_def_cfa_offset 0
 106              		.loc 1 270 0
 107 004c FFF7FEBF 		b	_port_irq_epilogue
 108              	.LVL6:
 109              	.L7:
 110              		.cfi_restore_state
 111 0050 FFF7FEFF 		bl	__stack_chk_fail
 112              	.LVL7:
 113              	.L9:
 114              		.align	2
ARM GAS  C:\Users\mathi\AppData\Local\Temp\ccWRVaI9.s 			page 3


 115              	.L8:
 116 0054 00000000 		.word	__stack_chk_guard
 117 0058 00000000 		.word	.LANCHOR0
 118              		.cfi_endproc
 119              	.LFE257:
 120              		.size	Vector118, .-Vector118
 121              		.section	.text.VectorA8,"ax",%progbits
 122              		.align	1
 123              		.p2align 4,,15
 124              		.global	VectorA8
 125              		.syntax unified
 126              		.thumb
 127              		.thumb_func
 128              		.fpu fpv4-sp-d16
 129              		.type	VectorA8, %function
 130              	VectorA8:
 131              	.LFB258:
 132              		.loc 1 340 0
 133              		.cfi_startproc
 134              		@ args = 0, pretend = 0, frame = 8
 135              		@ frame_needed = 0, uses_anonymous_args = 0
 136 0000 10B5     		push	{r4, lr}
 137              		.cfi_def_cfa_offset 8
 138              		.cfi_offset 4, -8
 139              		.cfi_offset 14, -4
 140 0002 144C     		ldr	r4, .L16
 141 0004 82B0     		sub	sp, sp, #8
 142              		.cfi_def_cfa_offset 16
 143              		.loc 1 340 0
 144 0006 2368     		ldr	r3, [r4]
 145 0008 0193     		str	r3, [sp, #4]
 146              		.loc 1 342 0
 147 000a FFF7FEFF 		bl	_stats_increase_irq
 148              	.LVL8:
 149 000e FFF7FEFF 		bl	_dbg_check_enter_isr
 150              	.LVL9:
 151              	.LBB16:
 152              	.LBB17:
 153              		.loc 1 148 0
 154 0012 114B     		ldr	r3, .L16+4
 155              		.loc 1 149 0
 156 0014 1878     		ldrb	r0, [r3]	@ zero_extendqisi2
 157              		.loc 1 148 0
 158 0016 D968     		ldr	r1, [r3, #12]
 159 0018 0022     		movs	r2, #0
 160              		.loc 1 149 0
 161 001a 0428     		cmp	r0, #4
 162              		.loc 1 148 0
 163 001c 0A61     		str	r2, [r1, #16]
 164              		.loc 1 149 0
 165 001e 08D1     		bne	.L11
 166              		.loc 1 150 0
 167 0020 0220     		movs	r0, #2
 168 0022 1870     		strb	r0, [r3]
 169              	.LVL10:
 170              	.LBB18:
 171              	.LBB19:
ARM GAS  C:\Users\mathi\AppData\Local\Temp\ccWRVaI9.s 			page 4


 172              		.loc 1 733 0
 173 0024 0A60     		str	r2, [r1]
 174              		.loc 1 734 0
 175 0026 D968     		ldr	r1, [r3, #12]
 176 0028 0A61     		str	r2, [r1, #16]
 177              		.loc 1 737 0
 178 002a CA68     		ldr	r2, [r1, #12]
 179 002c 22F0FF02 		bic	r2, r2, #255
 180 0030 CA60     		str	r2, [r1, #12]
 181              	.LVL11:
 182              	.L11:
 183              	.LBE19:
 184              	.LBE18:
 185              		.loc 1 153 0
 186 0032 5B68     		ldr	r3, [r3, #4]
 187 0034 0848     		ldr	r0, .L16+4
 188 0036 5B68     		ldr	r3, [r3, #4]
 189 0038 9847     		blx	r3
 190              	.LVL12:
 191              	.LBE17:
 192              	.LBE16:
 193              		.loc 1 346 0
 194 003a FFF7FEFF 		bl	_dbg_check_leave_isr
 195              	.LVL13:
 196 003e 019A     		ldr	r2, [sp, #4]
 197 0040 2368     		ldr	r3, [r4]
 198 0042 9A42     		cmp	r2, r3
 199 0044 04D1     		bne	.L15
 200              		.loc 1 347 0
 201 0046 02B0     		add	sp, sp, #8
 202              		.cfi_remember_state
 203              		.cfi_def_cfa_offset 8
 204              		@ sp needed
 205 0048 BDE81040 		pop	{r4, lr}
 206              		.cfi_restore 14
 207              		.cfi_restore 4
 208              		.cfi_def_cfa_offset 0
 209              		.loc 1 346 0
 210 004c FFF7FEBF 		b	_port_irq_epilogue
 211              	.LVL14:
 212              	.L15:
 213              		.cfi_restore_state
 214 0050 FFF7FEFF 		bl	__stack_chk_fail
 215              	.LVL15:
 216              	.L17:
 217              		.align	2
 218              	.L16:
 219 0054 00000000 		.word	__stack_chk_guard
 220 0058 00000000 		.word	.LANCHOR1
 221              		.cfi_endproc
 222              	.LFE258:
 223              		.size	VectorA8, .-VectorA8
 224              		.section	.text.VectorEC,"ax",%progbits
 225              		.align	1
 226              		.p2align 4,,15
 227              		.global	VectorEC
 228              		.syntax unified
ARM GAS  C:\Users\mathi\AppData\Local\Temp\ccWRVaI9.s 			page 5


 229              		.thumb
 230              		.thumb_func
 231              		.fpu fpv4-sp-d16
 232              		.type	VectorEC, %function
 233              	VectorEC:
 234              	.LFB259:
 235              		.loc 1 359 0
 236              		.cfi_startproc
 237              		@ args = 0, pretend = 0, frame = 8
 238              		@ frame_needed = 0, uses_anonymous_args = 0
 239 0000 10B5     		push	{r4, lr}
 240              		.cfi_def_cfa_offset 8
 241              		.cfi_offset 4, -8
 242              		.cfi_offset 14, -4
 243 0002 144C     		ldr	r4, .L24
 244 0004 82B0     		sub	sp, sp, #8
 245              		.cfi_def_cfa_offset 16
 246              		.loc 1 359 0
 247 0006 2368     		ldr	r3, [r4]
 248 0008 0193     		str	r3, [sp, #4]
 249              		.loc 1 361 0
 250 000a FFF7FEFF 		bl	_stats_increase_irq
 251              	.LVL16:
 252 000e FFF7FEFF 		bl	_dbg_check_enter_isr
 253              	.LVL17:
 254              	.LBB24:
 255              	.LBB25:
 256              		.loc 1 148 0
 257 0012 114B     		ldr	r3, .L24+4
 258              		.loc 1 149 0
 259 0014 1878     		ldrb	r0, [r3]	@ zero_extendqisi2
 260              		.loc 1 148 0
 261 0016 D968     		ldr	r1, [r3, #12]
 262 0018 0022     		movs	r2, #0
 263              		.loc 1 149 0
 264 001a 0428     		cmp	r0, #4
 265              		.loc 1 148 0
 266 001c 0A61     		str	r2, [r1, #16]
 267              		.loc 1 149 0
 268 001e 08D1     		bne	.L19
 269              		.loc 1 150 0
 270 0020 0220     		movs	r0, #2
 271 0022 1870     		strb	r0, [r3]
 272              	.LVL18:
 273              	.LBB26:
 274              	.LBB27:
 275              		.loc 1 733 0
 276 0024 0A60     		str	r2, [r1]
 277              		.loc 1 734 0
 278 0026 D968     		ldr	r1, [r3, #12]
 279 0028 0A61     		str	r2, [r1, #16]
 280              		.loc 1 737 0
 281 002a CA68     		ldr	r2, [r1, #12]
 282 002c 22F0FF02 		bic	r2, r2, #255
 283 0030 CA60     		str	r2, [r1, #12]
 284              	.LVL19:
 285              	.L19:
ARM GAS  C:\Users\mathi\AppData\Local\Temp\ccWRVaI9.s 			page 6


 286              	.LBE27:
 287              	.LBE26:
 288              		.loc 1 153 0
 289 0032 5B68     		ldr	r3, [r3, #4]
 290 0034 0848     		ldr	r0, .L24+4
 291 0036 5B68     		ldr	r3, [r3, #4]
 292 0038 9847     		blx	r3
 293              	.LVL20:
 294              	.LBE25:
 295              	.LBE24:
 296              		.loc 1 365 0
 297 003a FFF7FEFF 		bl	_dbg_check_leave_isr
 298              	.LVL21:
 299 003e 019A     		ldr	r2, [sp, #4]
 300 0040 2368     		ldr	r3, [r4]
 301 0042 9A42     		cmp	r2, r3
 302 0044 04D1     		bne	.L23
 303              		.loc 1 366 0
 304 0046 02B0     		add	sp, sp, #8
 305              		.cfi_remember_state
 306              		.cfi_def_cfa_offset 8
 307              		@ sp needed
 308 0048 BDE81040 		pop	{r4, lr}
 309              		.cfi_restore 14
 310              		.cfi_restore 4
 311              		.cfi_def_cfa_offset 0
 312              		.loc 1 365 0
 313 004c FFF7FEBF 		b	_port_irq_epilogue
 314              	.LVL22:
 315              	.L23:
 316              		.cfi_restore_state
 317 0050 FFF7FEFF 		bl	__stack_chk_fail
 318              	.LVL23:
 319              	.L25:
 320              		.align	2
 321              	.L24:
 322 0054 00000000 		.word	__stack_chk_guard
 323 0058 00000000 		.word	.LANCHOR2
 324              		.cfi_endproc
 325              	.LFE259:
 326              		.size	VectorEC, .-VectorEC
 327              		.section	.text.gpt_lld_init,"ax",%progbits
 328              		.align	1
 329              		.p2align 4,,15
 330              		.global	gpt_lld_init
 331              		.syntax unified
 332              		.thumb
 333              		.thumb_func
 334              		.fpu fpv4-sp-d16
 335              		.type	gpt_lld_init, %function
 336              	gpt_lld_init:
 337              	.LFB260:
 338              		.loc 1 397 0
 339              		.cfi_startproc
 340              		@ args = 0, pretend = 0, frame = 8
 341              		@ frame_needed = 0, uses_anonymous_args = 0
 342 0000 10B5     		push	{r4, lr}
ARM GAS  C:\Users\mathi\AppData\Local\Temp\ccWRVaI9.s 			page 7


 343              		.cfi_def_cfa_offset 8
 344              		.cfi_offset 4, -8
 345              		.cfi_offset 14, -4
 346              		.loc 1 431 0
 347 0002 0E4B     		ldr	r3, .L31
 348              		.loc 1 397 0
 349 0004 0E4C     		ldr	r4, .L31+4
 350              		.loc 1 431 0
 351 0006 0F4A     		ldr	r2, .L31+8
 352              		.loc 1 397 0
 353 0008 2168     		ldr	r1, [r4]
 354              		.loc 1 431 0
 355 000a DA60     		str	r2, [r3, #12]
 356              		.loc 1 397 0
 357 000c 82B0     		sub	sp, sp, #8
 358              		.cfi_def_cfa_offset 16
 359              		.loc 1 432 0
 360 000e 1846     		mov	r0, r3
 361              		.loc 1 397 0
 362 0010 0191     		str	r1, [sp, #4]
 363              		.loc 1 432 0
 364 0012 FFF7FEFF 		bl	gptObjectInit
 365              	.LVL24:
 366              		.loc 1 455 0
 367 0016 0C48     		ldr	r0, .L31+12
 368 0018 0C4B     		ldr	r3, .L31+16
 369 001a C360     		str	r3, [r0, #12]
 370              		.loc 1 456 0
 371 001c FFF7FEFF 		bl	gptObjectInit
 372              	.LVL25:
 373              		.loc 1 462 0
 374 0020 019A     		ldr	r2, [sp, #4]
 375 0022 2368     		ldr	r3, [r4]
 376              		.loc 1 461 0
 377 0024 0A48     		ldr	r0, .L31+20
 378 0026 0B49     		ldr	r1, .L31+24
 379 0028 C160     		str	r1, [r0, #12]
 380              		.loc 1 462 0
 381 002a 9A42     		cmp	r2, r3
 382 002c 04D1     		bne	.L30
 383              		.loc 1 470 0
 384 002e 02B0     		add	sp, sp, #8
 385              		.cfi_remember_state
 386              		.cfi_def_cfa_offset 8
 387              		@ sp needed
 388 0030 BDE81040 		pop	{r4, lr}
 389              		.cfi_restore 14
 390              		.cfi_restore 4
 391              		.cfi_def_cfa_offset 0
 392              		.loc 1 462 0
 393 0034 FFF7FEBF 		b	gptObjectInit
 394              	.LVL26:
 395              	.L30:
 396              		.cfi_restore_state
 397 0038 FFF7FEFF 		bl	__stack_chk_fail
 398              	.LVL27:
 399              	.L32:
ARM GAS  C:\Users\mathi\AppData\Local\Temp\ccWRVaI9.s 			page 8


 400              		.align	2
 401              	.L31:
 402 003c 00000000 		.word	.LANCHOR0
 403 0040 00000000 		.word	__stack_chk_guard
 404 0044 00100040 		.word	1073745920
 405 0048 00000000 		.word	.LANCHOR1
 406 004c 00480140 		.word	1073825792
 407 0050 00000000 		.word	.LANCHOR2
 408 0054 00180040 		.word	1073747968
 409              		.cfi_endproc
 410              	.LFE260:
 411              		.size	gpt_lld_init, .-gpt_lld_init
 412              		.section	.text.gpt_lld_start,"ax",%progbits
 413              		.align	1
 414              		.p2align 4,,15
 415              		.global	gpt_lld_start
 416              		.syntax unified
 417              		.thumb
 418              		.thumb_func
 419              		.fpu fpv4-sp-d16
 420              		.type	gpt_lld_start, %function
 421              	gpt_lld_start:
 422              	.LFB261:
 423              		.loc 1 479 0
 424              		.cfi_startproc
 425              		@ args = 0, pretend = 0, frame = 8
 426              		@ frame_needed = 0, uses_anonymous_args = 0
 427              	.LVL28:
 428 0000 70B5     		push	{r4, r5, r6, lr}
 429              		.cfi_def_cfa_offset 16
 430              		.cfi_offset 4, -16
 431              		.cfi_offset 5, -12
 432              		.cfi_offset 6, -8
 433              		.cfi_offset 14, -4
 434 0002 374E     		ldr	r6, .L44
 435              		.loc 1 482 0
 436 0004 0378     		ldrb	r3, [r0]	@ zero_extendqisi2
 437              		.loc 1 479 0
 438 0006 3268     		ldr	r2, [r6]
 439 0008 82B0     		sub	sp, sp, #8
 440              		.cfi_def_cfa_offset 24
 441              		.loc 1 482 0
 442 000a 012B     		cmp	r3, #1
 443              		.loc 1 479 0
 444 000c 0446     		mov	r4, r0
 445 000e 0192     		str	r2, [sp, #4]
 446              		.loc 1 482 0
 447 0010 24D0     		beq	.L40
 448              	.LVL29:
 449              	.L34:
 450              		.loc 1 599 0
 451 0012 D4E90132 		ldrd	r3, r2, [r4, #4]
 452 0016 1B68     		ldr	r3, [r3]
 453 0018 B2FBF3F5 		udiv	r5, r2, r3
 454 001c 013D     		subs	r5, r5, #1
 455 001e ADB2     		uxth	r5, r5
 456              	.LVL30:
ARM GAS  C:\Users\mathi\AppData\Local\Temp\ccWRVaI9.s 			page 9


 457              		.loc 1 600 0
 458 0020 05FB0333 		mla	r3, r5, r3, r3
 459 0024 9A42     		cmp	r2, r3
 460 0026 02D0     		beq	.L37
 461              		.loc 1 600 0 is_stmt 0 discriminator 2
 462 0028 2E48     		ldr	r0, .L44+4
 463 002a FFF7FEFF 		bl	chSysHalt
 464              	.LVL31:
 465              	.L37:
 466              		.loc 1 604 0 is_stmt 1
 467 002e E268     		ldr	r2, [r4, #12]
 468 0030 0023     		movs	r3, #0
 469 0032 1360     		str	r3, [r2]
 470              		.loc 1 605 0
 471 0034 6168     		ldr	r1, [r4, #4]
 472 0036 E268     		ldr	r2, [r4, #12]
 473 0038 8968     		ldr	r1, [r1, #8]
 474 003a 5160     		str	r1, [r2, #4]
 475              		.loc 1 606 0
 476 003c E268     		ldr	r2, [r4, #12]
 477 003e 9562     		str	r5, [r2, #40]
 478              		.loc 1 607 0
 479 0040 E268     		ldr	r2, [r4, #12]
 480 0042 1361     		str	r3, [r2, #16]
 481              		.loc 1 608 0
 482 0044 6368     		ldr	r3, [r4, #4]
 483 0046 E268     		ldr	r2, [r4, #12]
 484 0048 DB68     		ldr	r3, [r3, #12]
 485 004a 23F0FF03 		bic	r3, r3, #255
 486 004e D360     		str	r3, [r2, #12]
 487              		.loc 1 610 0
 488 0050 019A     		ldr	r2, [sp, #4]
 489 0052 3368     		ldr	r3, [r6]
 490 0054 9A42     		cmp	r2, r3
 491 0056 40D1     		bne	.L41
 492 0058 02B0     		add	sp, sp, #8
 493              		.cfi_remember_state
 494              		.cfi_def_cfa_offset 16
 495              		@ sp needed
 496 005a 70BD     		pop	{r4, r5, r6, pc}
 497              	.LVL32:
 498              	.L40:
 499              		.cfi_restore_state
 500              		.loc 1 531 0
 501 005c 224B     		ldr	r3, .L44+8
 502 005e 9842     		cmp	r0, r3
 503 0060 29D0     		beq	.L42
 504              		.loc 1 571 0
 505 0062 224B     		ldr	r3, .L44+12
 506 0064 9842     		cmp	r0, r3
 507 0066 14D0     		beq	.L43
 508              		.loc 1 580 0
 509 0068 214B     		ldr	r3, .L44+16
 510 006a 9842     		cmp	r0, r3
 511 006c D1D1     		bne	.L34
 512              		.loc 1 581 0
 513 006e 214B     		ldr	r3, .L44+20
ARM GAS  C:\Users\mathi\AppData\Local\Temp\ccWRVaI9.s 			page 10


 514 0070 1A6C     		ldr	r2, [r3, #64]
 515 0072 42F04002 		orr	r2, r2, #64
 516 0076 1A64     		str	r2, [r3, #64]
 517              		.loc 1 582 0
 518 0078 1A6A     		ldr	r2, [r3, #32]
 519 007a 0020     		movs	r0, #0
 520              	.LVL33:
 521 007c 42F04002 		orr	r2, r2, #64
 522 0080 1A62     		str	r2, [r3, #32]
 523              		.loc 1 583 0
 524 0082 0721     		movs	r1, #7
 525              		.loc 1 582 0
 526 0084 1862     		str	r0, [r3, #32]
 527              		.loc 1 583 0
 528 0086 2B20     		movs	r0, #43
 529 0088 FFF7FEFF 		bl	nvicEnableVector
 530              	.LVL34:
 531              		.loc 1 584 0
 532 008c 1A4B     		ldr	r3, .L44+24
 533 008e A360     		str	r3, [r4, #8]
 534 0090 BFE7     		b	.L34
 535              	.LVL35:
 536              	.L43:
 537              		.loc 1 572 0
 538 0092 184B     		ldr	r3, .L44+20
 539 0094 5A6C     		ldr	r2, [r3, #68]
 540 0096 42F48022 		orr	r2, r2, #262144
 541 009a 5A64     		str	r2, [r3, #68]
 542              		.loc 1 573 0
 543 009c 5A6A     		ldr	r2, [r3, #36]
 544 009e 0020     		movs	r0, #0
 545              	.LVL36:
 546 00a0 42F48022 		orr	r2, r2, #262144
 547 00a4 5A62     		str	r2, [r3, #36]
 548              		.loc 1 574 0
 549 00a6 0721     		movs	r1, #7
 550              		.loc 1 573 0
 551 00a8 5862     		str	r0, [r3, #36]
 552              		.loc 1 574 0
 553 00aa 1A20     		movs	r0, #26
 554 00ac FFF7FEFF 		bl	nvicEnableVector
 555              	.LVL37:
 556              		.loc 1 575 0
 557 00b0 124B     		ldr	r3, .L44+28
 558 00b2 A360     		str	r3, [r4, #8]
 559 00b4 ADE7     		b	.L34
 560              	.LVL38:
 561              	.L42:
 562              		.loc 1 532 0
 563 00b6 0F4B     		ldr	r3, .L44+20
 564 00b8 1A6C     		ldr	r2, [r3, #64]
 565 00ba 42F01002 		orr	r2, r2, #16
 566 00be 1A64     		str	r2, [r3, #64]
 567              		.loc 1 533 0
 568 00c0 1A6A     		ldr	r2, [r3, #32]
 569 00c2 0020     		movs	r0, #0
 570              	.LVL39:
ARM GAS  C:\Users\mathi\AppData\Local\Temp\ccWRVaI9.s 			page 11


 571 00c4 42F01002 		orr	r2, r2, #16
 572 00c8 1A62     		str	r2, [r3, #32]
 573              		.loc 1 534 0
 574 00ca 0721     		movs	r1, #7
 575              		.loc 1 533 0
 576 00cc 1862     		str	r0, [r3, #32]
 577              		.loc 1 534 0
 578 00ce 3620     		movs	r0, #54
 579 00d0 FFF7FEFF 		bl	nvicEnableVector
 580              	.LVL40:
 581              		.loc 1 535 0
 582 00d4 084B     		ldr	r3, .L44+24
 583 00d6 A360     		str	r3, [r4, #8]
 584 00d8 9BE7     		b	.L34
 585              	.LVL41:
 586              	.L41:
 587              		.loc 1 610 0
 588 00da FFF7FEFF 		bl	__stack_chk_fail
 589              	.LVL42:
 590              	.L45:
 591 00de 00BF     		.align	2
 592              	.L44:
 593 00e0 00000000 		.word	__stack_chk_guard
 594 00e4 00000000 		.word	.LANCHOR3
 595 00e8 00000000 		.word	.LANCHOR0
 596 00ec 00000000 		.word	.LANCHOR1
 597 00f0 00000000 		.word	.LANCHOR2
 598 00f4 00380240 		.word	1073887232
 599 00f8 00BD0105 		.word	84000000
 600 00fc 007A030A 		.word	168000000
 601              		.cfi_endproc
 602              	.LFE261:
 603              		.size	gpt_lld_start, .-gpt_lld_start
 604              		.section	.text.gpt_lld_stop,"ax",%progbits
 605              		.align	1
 606              		.p2align 4,,15
 607              		.global	gpt_lld_stop
 608              		.syntax unified
 609              		.thumb
 610              		.thumb_func
 611              		.fpu fpv4-sp-d16
 612              		.type	gpt_lld_stop, %function
 613              	gpt_lld_stop:
 614              	.LFB262:
 615              		.loc 1 619 0
 616              		.cfi_startproc
 617              		@ args = 0, pretend = 0, frame = 8
 618              		@ frame_needed = 0, uses_anonymous_args = 0
 619              	.LVL43:
 620 0000 10B5     		push	{r4, lr}
 621              		.cfi_def_cfa_offset 8
 622              		.cfi_offset 4, -8
 623              		.cfi_offset 14, -4
 624 0002 1D4C     		ldr	r4, .L58
 625              		.loc 1 621 0
 626 0004 0378     		ldrb	r3, [r0]	@ zero_extendqisi2
 627              		.loc 1 619 0
ARM GAS  C:\Users\mathi\AppData\Local\Temp\ccWRVaI9.s 			page 12


 628 0006 2268     		ldr	r2, [r4]
 629 0008 82B0     		sub	sp, sp, #8
 630              		.cfi_def_cfa_offset 16
 631              		.loc 1 621 0
 632 000a 022B     		cmp	r3, #2
 633              		.loc 1 619 0
 634 000c 0192     		str	r2, [sp, #4]
 635              		.loc 1 621 0
 636 000e 05D0     		beq	.L54
 637              	.LVL44:
 638              	.L46:
 639              		.loc 1 699 0
 640 0010 019A     		ldr	r2, [sp, #4]
 641 0012 2368     		ldr	r3, [r4]
 642 0014 9A42     		cmp	r2, r3
 643 0016 2CD1     		bne	.L55
 644 0018 02B0     		add	sp, sp, #8
 645              		.cfi_remember_state
 646              		.cfi_def_cfa_offset 8
 647              		@ sp needed
 648 001a 10BD     		pop	{r4, pc}
 649              	.LVL45:
 650              	.L54:
 651              		.cfi_restore_state
 652              		.loc 1 622 0
 653 001c C168     		ldr	r1, [r0, #12]
 654              		.loc 1 657 0
 655 001e 174A     		ldr	r2, .L58+4
 656              		.loc 1 622 0
 657 0020 0023     		movs	r3, #0
 658 0022 0B60     		str	r3, [r1]
 659              		.loc 1 623 0
 660 0024 C168     		ldr	r1, [r0, #12]
 661 0026 CB60     		str	r3, [r1, #12]
 662              		.loc 1 624 0
 663 0028 C168     		ldr	r1, [r0, #12]
 664              		.loc 1 657 0
 665 002a 9042     		cmp	r0, r2
 666              		.loc 1 624 0
 667 002c 0B61     		str	r3, [r1, #16]
 668              		.loc 1 657 0
 669 002e 17D0     		beq	.L56
 670              		.loc 1 681 0
 671 0030 134B     		ldr	r3, .L58+8
 672 0032 9842     		cmp	r0, r3
 673 0034 0BD0     		beq	.L57
 674              		.loc 1 687 0
 675 0036 134B     		ldr	r3, .L58+12
 676 0038 9842     		cmp	r0, r3
 677 003a E9D1     		bne	.L46
 678              		.loc 1 688 0
 679 003c 2B20     		movs	r0, #43
 680              	.LVL46:
 681 003e FFF7FEFF 		bl	nvicDisableVector
 682              	.LVL47:
 683              		.loc 1 689 0
 684 0042 114A     		ldr	r2, .L58+16
ARM GAS  C:\Users\mathi\AppData\Local\Temp\ccWRVaI9.s 			page 13


 685 0044 136C     		ldr	r3, [r2, #64]
 686 0046 23F04003 		bic	r3, r3, #64
 687 004a 1364     		str	r3, [r2, #64]
 688              		.loc 1 699 0
 689 004c E0E7     		b	.L46
 690              	.LVL48:
 691              	.L57:
 692              		.loc 1 682 0
 693 004e 1A20     		movs	r0, #26
 694              	.LVL49:
 695 0050 FFF7FEFF 		bl	nvicDisableVector
 696              	.LVL50:
 697              		.loc 1 683 0
 698 0054 0C4A     		ldr	r2, .L58+16
 699 0056 536C     		ldr	r3, [r2, #68]
 700 0058 23F48023 		bic	r3, r3, #262144
 701 005c 5364     		str	r3, [r2, #68]
 702 005e D7E7     		b	.L46
 703              	.LVL51:
 704              	.L56:
 705              		.loc 1 658 0
 706 0060 3620     		movs	r0, #54
 707              	.LVL52:
 708 0062 FFF7FEFF 		bl	nvicDisableVector
 709              	.LVL53:
 710              		.loc 1 659 0
 711 0066 084A     		ldr	r2, .L58+16
 712 0068 136C     		ldr	r3, [r2, #64]
 713 006a 23F01003 		bic	r3, r3, #16
 714 006e 1364     		str	r3, [r2, #64]
 715 0070 CEE7     		b	.L46
 716              	.L55:
 717              		.loc 1 699 0
 718 0072 FFF7FEFF 		bl	__stack_chk_fail
 719              	.LVL54:
 720              	.L59:
 721 0076 00BF     		.align	2
 722              	.L58:
 723 0078 00000000 		.word	__stack_chk_guard
 724 007c 00000000 		.word	.LANCHOR0
 725 0080 00000000 		.word	.LANCHOR1
 726 0084 00000000 		.word	.LANCHOR2
 727 0088 00380240 		.word	1073887232
 728              		.cfi_endproc
 729              	.LFE262:
 730              		.size	gpt_lld_stop, .-gpt_lld_stop
 731              		.section	.text.gpt_lld_start_timer,"ax",%progbits
 732              		.align	1
 733              		.p2align 4,,15
 734              		.global	gpt_lld_start_timer
 735              		.syntax unified
 736              		.thumb
 737              		.thumb_func
 738              		.fpu fpv4-sp-d16
 739              		.type	gpt_lld_start_timer, %function
 740              	gpt_lld_start_timer:
 741              	.LFB263:
ARM GAS  C:\Users\mathi\AppData\Local\Temp\ccWRVaI9.s 			page 14


 742              		.loc 1 709 0
 743              		.cfi_startproc
 744              		@ args = 0, pretend = 0, frame = 8
 745              		@ frame_needed = 0, uses_anonymous_args = 0
 746              	.LVL55:
 747 0000 10B5     		push	{r4, lr}
 748              		.cfi_def_cfa_offset 8
 749              		.cfi_offset 4, -8
 750              		.cfi_offset 14, -4
 751 0002 114B     		ldr	r3, .L68
 752              		.loc 1 711 0
 753 0004 C268     		ldr	r2, [r0, #12]
 754              		.loc 1 709 0
 755 0006 1C68     		ldr	r4, [r3]
 756 0008 82B0     		sub	sp, sp, #8
 757              		.cfi_def_cfa_offset 16
 758              		.loc 1 711 0
 759 000a 0139     		subs	r1, r1, #1
 760              	.LVL56:
 761              		.loc 1 709 0
 762 000c 0194     		str	r4, [sp, #4]
 763              		.loc 1 711 0
 764 000e D162     		str	r1, [r2, #44]
 765              		.loc 1 712 0
 766 0010 C268     		ldr	r2, [r0, #12]
 767 0012 0121     		movs	r1, #1
 768              	.LVL57:
 769 0014 5161     		str	r1, [r2, #20]
 770              		.loc 1 713 0
 771 0016 C168     		ldr	r1, [r0, #12]
 772 0018 0022     		movs	r2, #0
 773 001a 4A62     		str	r2, [r1, #36]
 774              		.loc 1 718 0
 775 001c C168     		ldr	r1, [r0, #12]
 776 001e 0A61     		str	r2, [r1, #16]
 777              		.loc 1 719 0
 778 0020 4268     		ldr	r2, [r0, #4]
 779 0022 5268     		ldr	r2, [r2, #4]
 780 0024 22B1     		cbz	r2, .L61
 781              		.loc 1 720 0
 782 0026 C168     		ldr	r1, [r0, #12]
 783 0028 CA68     		ldr	r2, [r1, #12]
 784 002a 42F00102 		orr	r2, r2, #1
 785 002e CA60     		str	r2, [r1, #12]
 786              	.L61:
 787              		.loc 1 721 0
 788 0030 C268     		ldr	r2, [r0, #12]
 789 0032 0521     		movs	r1, #5
 790 0034 1160     		str	r1, [r2]
 791              		.loc 1 722 0
 792 0036 019A     		ldr	r2, [sp, #4]
 793 0038 1B68     		ldr	r3, [r3]
 794 003a 9A42     		cmp	r2, r3
 795 003c 01D1     		bne	.L67
 796 003e 02B0     		add	sp, sp, #8
 797              		.cfi_remember_state
 798              		.cfi_def_cfa_offset 8
ARM GAS  C:\Users\mathi\AppData\Local\Temp\ccWRVaI9.s 			page 15


 799              		@ sp needed
 800 0040 10BD     		pop	{r4, pc}
 801              	.L67:
 802              		.cfi_restore_state
 803 0042 FFF7FEFF 		bl	__stack_chk_fail
 804              	.LVL58:
 805              	.L69:
 806 0046 00BF     		.align	2
 807              	.L68:
 808 0048 00000000 		.word	__stack_chk_guard
 809              		.cfi_endproc
 810              	.LFE263:
 811              		.size	gpt_lld_start_timer, .-gpt_lld_start_timer
 812              		.section	.text.gpt_lld_stop_timer,"ax",%progbits
 813              		.align	1
 814              		.p2align 4,,15
 815              		.global	gpt_lld_stop_timer
 816              		.syntax unified
 817              		.thumb
 818              		.thumb_func
 819              		.fpu fpv4-sp-d16
 820              		.type	gpt_lld_stop_timer, %function
 821              	gpt_lld_stop_timer:
 822              	.LFB264:
 823              		.loc 1 731 0
 824              		.cfi_startproc
 825              		@ args = 0, pretend = 0, frame = 8
 826              		@ frame_needed = 0, uses_anonymous_args = 0
 827              	.LVL59:
 828 0000 00B5     		push	{lr}
 829              		.cfi_def_cfa_offset 4
 830              		.cfi_offset 14, -4
 831 0002 0B4A     		ldr	r2, .L74
 832              		.loc 1 733 0
 833 0004 C168     		ldr	r1, [r0, #12]
 834              		.loc 1 731 0
 835 0006 1368     		ldr	r3, [r2]
 836 0008 83B0     		sub	sp, sp, #12
 837              		.cfi_def_cfa_offset 16
 838              		.loc 1 731 0
 839 000a 0193     		str	r3, [sp, #4]
 840              		.loc 1 733 0
 841 000c 0023     		movs	r3, #0
 842 000e 0B60     		str	r3, [r1]
 843              		.loc 1 734 0
 844 0010 C168     		ldr	r1, [r0, #12]
 845 0012 0B61     		str	r3, [r1, #16]
 846              		.loc 1 737 0
 847 0014 C168     		ldr	r1, [r0, #12]
 848 0016 CB68     		ldr	r3, [r1, #12]
 849 0018 23F0FF03 		bic	r3, r3, #255
 850 001c CB60     		str	r3, [r1, #12]
 851              		.loc 1 738 0
 852 001e 0199     		ldr	r1, [sp, #4]
 853 0020 1368     		ldr	r3, [r2]
 854 0022 9942     		cmp	r1, r3
 855 0024 02D1     		bne	.L73
ARM GAS  C:\Users\mathi\AppData\Local\Temp\ccWRVaI9.s 			page 16


 856 0026 03B0     		add	sp, sp, #12
 857              		.cfi_remember_state
 858              		.cfi_def_cfa_offset 4
 859              		@ sp needed
 860 0028 5DF804FB 		ldr	pc, [sp], #4
 861              	.L73:
 862              		.cfi_restore_state
 863 002c FFF7FEFF 		bl	__stack_chk_fail
 864              	.LVL60:
 865              	.L75:
 866              		.align	2
 867              	.L74:
 868 0030 00000000 		.word	__stack_chk_guard
 869              		.cfi_endproc
 870              	.LFE264:
 871              		.size	gpt_lld_stop_timer, .-gpt_lld_stop_timer
 872              		.section	.text.gpt_lld_polled_delay,"ax",%progbits
 873              		.align	1
 874              		.p2align 4,,15
 875              		.global	gpt_lld_polled_delay
 876              		.syntax unified
 877              		.thumb
 878              		.thumb_func
 879              		.fpu fpv4-sp-d16
 880              		.type	gpt_lld_polled_delay, %function
 881              	gpt_lld_polled_delay:
 882              	.LFB265:
 883              		.loc 1 751 0
 884              		.cfi_startproc
 885              		@ args = 0, pretend = 0, frame = 8
 886              		@ frame_needed = 0, uses_anonymous_args = 0
 887              	.LVL61:
 888 0000 10B5     		push	{r4, lr}
 889              		.cfi_def_cfa_offset 8
 890              		.cfi_offset 4, -8
 891              		.cfi_offset 14, -4
 892 0002 0D4C     		ldr	r4, .L83
 893              		.loc 1 753 0
 894 0004 C368     		ldr	r3, [r0, #12]
 895              		.loc 1 751 0
 896 0006 2268     		ldr	r2, [r4]
 897 0008 82B0     		sub	sp, sp, #8
 898              		.cfi_def_cfa_offset 16
 899              		.loc 1 753 0
 900 000a 0139     		subs	r1, r1, #1
 901              	.LVL62:
 902              		.loc 1 751 0
 903 000c 0192     		str	r2, [sp, #4]
 904              		.loc 1 753 0
 905 000e D962     		str	r1, [r3, #44]
 906              		.loc 1 754 0
 907 0010 C368     		ldr	r3, [r0, #12]
 908 0012 0122     		movs	r2, #1
 909 0014 5A61     		str	r2, [r3, #20]
 910              		.loc 1 755 0
 911 0016 C368     		ldr	r3, [r0, #12]
 912 0018 0D22     		movs	r2, #13
ARM GAS  C:\Users\mathi\AppData\Local\Temp\ccWRVaI9.s 			page 17


 913 001a 1A60     		str	r2, [r3]
 914              		.loc 1 756 0
 915 001c C268     		ldr	r2, [r0, #12]
 916              	.L77:
 917              		.loc 1 756 0 is_stmt 0 discriminator 1
 918 001e 1369     		ldr	r3, [r2, #16]
 919 0020 DB07     		lsls	r3, r3, #31
 920 0022 FCD5     		bpl	.L77
 921              		.loc 1 758 0 is_stmt 1
 922 0024 0023     		movs	r3, #0
 923 0026 1361     		str	r3, [r2, #16]
 924              		.loc 1 759 0
 925 0028 019A     		ldr	r2, [sp, #4]
 926 002a 2368     		ldr	r3, [r4]
 927 002c 9A42     		cmp	r2, r3
 928 002e 01D1     		bne	.L82
 929 0030 02B0     		add	sp, sp, #8
 930              		.cfi_remember_state
 931              		.cfi_def_cfa_offset 8
 932              		@ sp needed
 933 0032 10BD     		pop	{r4, pc}
 934              	.L82:
 935              		.cfi_restore_state
 936 0034 FFF7FEFF 		bl	__stack_chk_fail
 937              	.LVL63:
 938              	.L84:
 939              		.align	2
 940              	.L83:
 941 0038 00000000 		.word	__stack_chk_guard
 942              		.cfi_endproc
 943              	.LFE265:
 944              		.size	gpt_lld_polled_delay, .-gpt_lld_polled_delay
 945              		.global	GPTD12
 946              		.global	GPTD11
 947              		.global	GPTD6
 948              		.section	.bss.GPTD11,"aw",%nobits
 949              		.align	2
 950              		.set	.LANCHOR1,. + 0
 951              		.type	GPTD11, %object
 952              		.size	GPTD11, 16
 953              	GPTD11:
 954 0000 00000000 		.space	16
 954      00000000 
 954      00000000 
 954      00000000 
 955              		.section	.bss.GPTD12,"aw",%nobits
 956              		.align	2
 957              		.set	.LANCHOR2,. + 0
 958              		.type	GPTD12, %object
 959              		.size	GPTD12, 16
 960              	GPTD12:
 961 0000 00000000 		.space	16
 961      00000000 
 961      00000000 
 961      00000000 
 962              		.section	.bss.GPTD6,"aw",%nobits
 963              		.align	2
ARM GAS  C:\Users\mathi\AppData\Local\Temp\ccWRVaI9.s 			page 18


 964              		.set	.LANCHOR0,. + 0
 965              		.type	GPTD6, %object
 966              		.size	GPTD6, 16
 967              	GPTD6:
 968 0000 00000000 		.space	16
 968      00000000 
 968      00000000 
 968      00000000 
 969              		.section	.rodata.__func__.9861,"a",%progbits
 970              		.align	2
 971              		.set	.LANCHOR3,. + 0
 972              		.type	__func__.9861, %object
 973              		.size	__func__.9861, 14
 974              	__func__.9861:
 975 0000 6770745F 		.ascii	"gpt_lld_start\000"
 975      6C6C645F 
 975      73746172 
 975      7400
 976              		.text
 977              	.Letext0:
 978              		.file 2 "c:\\eclipse_e-puck2\\tools\\gcc-arm-none-eabi-7-2017-q4-major-win32\\lib\\gcc\\arm-none-e
 979              		.file 3 "c:\\eclipse_e-puck2\\tools\\gcc-arm-none-eabi-7-2017-q4-major-win32\\arm-none-eabi\\inclu
 980              		.file 4 "c:\\eclipse_e-puck2\\tools\\gcc-arm-none-eabi-7-2017-q4-major-win32\\arm-none-eabi\\inclu
 981              		.file 5 "../../lib/e-puck2_main-processor/ChibiOS//os/rt/ports/ARMCMx/compilers/GCC/chtypes.h"
 982              		.file 6 "../../lib/e-puck2_main-processor/ChibiOS//os/rt/include/chsystypes.h"
 983              		.file 7 "../../lib/e-puck2_main-processor/ChibiOS//os/rt/include/chschd.h"
 984              		.file 8 "../../lib/e-puck2_main-processor/ChibiOS//os/ext/CMSIS/include/core_cm4.h"
 985              		.file 9 "../../lib/e-puck2_main-processor/ChibiOS//os/ext/CMSIS/ST/system_stm32f4xx.h"
 986              		.file 10 "../../lib/e-puck2_main-processor/ChibiOS//os/ext/CMSIS/ST/stm32f407xx.h"
 987              		.file 11 "../../lib/e-puck2_main-processor/ChibiOS//os/rt/ports/ARMCMx/chcore.h"
 988              		.file 12 "../../lib/e-puck2_main-processor/ChibiOS//os/rt/ports/ARMCMx/chcore_v7m.h"
 989              		.file 13 "../../lib/e-puck2_main-processor/ChibiOS//os/rt/include/chdebug.h"
 990              		.file 14 "../../lib/e-puck2_main-processor/ChibiOS//os/rt/include/chtm.h"
 991              		.file 15 "../../lib/e-puck2_main-processor/ChibiOS//os/rt/include/chstats.h"
 992              		.file 16 "../../lib/e-puck2_main-processor/ChibiOS//os/rt/include/chsem.h"
 993              		.file 17 "../../lib/e-puck2_main-processor/ChibiOS//os/rt/include/chmtx.h"
 994              		.file 18 "../../lib/e-puck2_main-processor/ChibiOS//os/rt/include/chregistry.h"
 995              		.file 19 "../../lib/e-puck2_main-processor/ChibiOS//os/rt/include/chevents.h"
 996              		.file 20 "../../lib/e-puck2_main-processor/ChibiOS//os/rt/include/chqueues.h"
 997              		.file 21 "../../lib/e-puck2_main-processor/ChibiOS//os/hal/ports/STM32/STM32F4xx/stm32_dma.h"
 998              		.file 22 "../../lib/e-puck2_main-processor/ChibiOS//os/hal/include/hal_ioblock.h"
 999              		.file 23 "../../lib/e-puck2_main-processor/ChibiOS//os/hal/ports/STM32/LLD/GPIOv2/pal_lld.h"
 1000              		.file 24 "../../lib/e-puck2_main-processor/ChibiOS//os/hal/include/adc.h"
 1001              		.file 25 "../../lib/e-puck2_main-processor/ChibiOS//os/hal/ports/STM32/STM32F4xx/adc_lld.h"
 1002              		.file 26 "../../lib/e-puck2_main-processor/ChibiOS//os/hal/include/can.h"
 1003              		.file 27 "../../lib/e-puck2_main-processor/ChibiOS//os/hal/ports/STM32/LLD/can_lld.h"
 1004              		.file 28 "../../lib/e-puck2_main-processor/ChibiOS//os/hal/include/dac.h"
 1005              		.file 29 "../../lib/e-puck2_main-processor/ChibiOS//os/hal/ports/STM32/LLD/DACv1/dac_lld.h"
 1006              		.file 30 "../../lib/e-puck2_main-processor/ChibiOS//os/hal/include/ext.h"
 1007              		.file 31 "../../lib/e-puck2_main-processor/ChibiOS//os/hal/ports/STM32/LLD/ext_lld.h"
 1008              		.file 32 "../../lib/e-puck2_main-processor/ChibiOS//os/hal/include/gpt.h"
 1009              		.file 33 "../../lib/e-puck2_main-processor/ChibiOS//os/hal/ports/STM32/LLD/TIMv1/gpt_lld.h"
 1010              		.file 34 "../../lib/e-puck2_main-processor/ChibiOS//os/hal/ports/STM32/LLD/TIMv1/stm32_tim.h"
 1011              		.file 35 "../../lib/e-puck2_main-processor/ChibiOS//os/hal/include/i2c.h"
 1012              		.file 36 "../../lib/e-puck2_main-processor/ChibiOS//os/hal/ports/STM32/LLD/I2Cv1/i2c_lld.h"
 1013              		.file 37 "../../lib/e-puck2_main-processor/ChibiOS//os/hal/include/i2s.h"
 1014              		.file 38 "../../lib/e-puck2_main-processor/ChibiOS//os/hal/ports/STM32/LLD/SPIv1/i2s_lld.h"
ARM GAS  C:\Users\mathi\AppData\Local\Temp\ccWRVaI9.s 			page 19


 1015              		.file 39 "../../lib/e-puck2_main-processor/ChibiOS//os/hal/include/pwm.h"
 1016              		.file 40 "../../lib/e-puck2_main-processor/ChibiOS//os/hal/ports/STM32/LLD/TIMv1/pwm_lld.h"
 1017              		.file 41 "../../lib/e-puck2_main-processor/ChibiOS//os/hal/include/serial.h"
 1018              		.file 42 "../../lib/e-puck2_main-processor/ChibiOS//os/hal/ports/STM32/LLD/USARTv1/serial_lld.h"
 1019              		.file 43 "../../lib/e-puck2_main-processor/ChibiOS//os/hal/include/sdc.h"
 1020              		.file 44 "../../lib/e-puck2_main-processor/ChibiOS//os/hal/ports/STM32/LLD/sdc_lld.h"
 1021              		.file 45 "../../lib/e-puck2_main-processor/ChibiOS//os/hal/include/spi.h"
 1022              		.file 46 "../../lib/e-puck2_main-processor/ChibiOS//os/hal/ports/STM32/LLD/SPIv1/spi_lld.h"
 1023              		.file 47 "../../lib/e-puck2_main-processor/ChibiOS//os/hal/include/usb.h"
 1024              		.file 48 "../../lib/e-puck2_main-processor/ChibiOS//os/hal/ports/STM32/LLD/OTGv1/usb_lld.h"
 1025              		.file 49 "../../lib/e-puck2_main-processor/ChibiOS//os/hal/ports/STM32/LLD/OTGv1/stm32_otg.h"
 1026              		.file 50 "../../lib/e-puck2_main-processor/ChibiOS//os/hal/ports/common/ARMCMx/nvic.h"
 1027              		.file 51 "../../lib/e-puck2_main-processor/ChibiOS//os/rt/include/chsys.h"