ARM GAS  C:\Users\mathi\AppData\Local\Temp\ccYJ7cqk.s 			page 1


   1              		.cpu cortex-m4
   2              		.eabi_attribute 27, 1
   3              		.eabi_attribute 28, 1
   4              		.eabi_attribute 20, 1
   5              		.eabi_attribute 21, 1
   6              		.eabi_attribute 23, 3
   7              		.eabi_attribute 24, 1
   8              		.eabi_attribute 25, 1
   9              		.eabi_attribute 26, 1
  10              		.eabi_attribute 30, 2
  11              		.eabi_attribute 34, 1
  12              		.eabi_attribute 18, 4
  13              		.file	"hal_mmcsd.c"
  14              		.text
  15              	.Ltext0:
  16              		.cfi_sections	.debug_frame
  17              		.section	.text._mmcsd_get_slice,"ax",%progbits
  18              		.align	1
  19              		.p2align 4,,15
  20              		.global	_mmcsd_get_slice
  21              		.syntax unified
  22              		.thumb
  23              		.thumb_func
  24              		.fpu fpv4-sp-d16
  25              		.type	_mmcsd_get_slice, %function
  26              	_mmcsd_get_slice:
  27              	.LFB256:
  28              		.file 1 "../../lib/e-puck2_main-processor/ChibiOS//os/hal/src/hal_mmcsd.c"
  29              		.loc 1 63 0
  30              		.cfi_startproc
  31              		@ args = 0, pretend = 0, frame = 8
  32              		@ frame_needed = 0, uses_anonymous_args = 0
  33              	.LVL0:
  34 0000 F0B5     		push	{r4, r5, r6, r7, lr}
  35              		.cfi_def_cfa_offset 20
  36              		.cfi_offset 4, -20
  37              		.cfi_offset 5, -16
  38              		.cfi_offset 6, -12
  39              		.cfi_offset 7, -8
  40              		.cfi_offset 14, -4
  41 0002 1A4D     		ldr	r5, .L11
  42 0004 83B0     		sub	sp, sp, #12
  43              		.cfi_def_cfa_offset 32
  44              		.loc 1 63 0
  45 0006 2B68     		ldr	r3, [r5]
  46 0008 0193     		str	r3, [sp, #4]
  47              		.loc 1 67 0
  48 000a 9142     		cmp	r1, r2
  49              		.loc 1 63 0
  50 000c 0E46     		mov	r6, r1
  51 000e 1446     		mov	r4, r2
  52 0010 0746     		mov	r7, r0
  53              		.loc 1 67 0
  54 0012 19D3     		bcc	.L2
  55              		.loc 1 67 0 is_stmt 0 discriminator 3
  56 0014 8B1A     		subs	r3, r1, r2
  57 0016 1F2B     		cmp	r3, #31
ARM GAS  C:\Users\mathi\AppData\Local\Temp\ccYJ7cqk.s 			page 2


  58 0018 16D8     		bhi	.L2
  59              	.LVL1:
  60              	.L3:
  61              		.loc 1 72 0 is_stmt 1
  62 001a 06F01F03 		and	r3, r6, #31
  63 001e 581C     		adds	r0, r3, #1
  64              		.loc 1 69 0
  65 0020 6209     		lsrs	r2, r4, #5
  66              	.LVL2:
  67              		.loc 1 72 0
  68 0022 0123     		movs	r3, #1
  69              		.loc 1 71 0
  70 0024 7609     		lsrs	r6, r6, #5
  71              	.LVL3:
  72              		.loc 1 72 0
  73 0026 8340     		lsls	r3, r3, r0
  74              		.loc 1 75 0
  75 0028 B242     		cmp	r2, r6
  76              		.loc 1 72 0
  77 002a 03F1FF33 		add	r3, r3, #-1
  78              		.loc 1 70 0
  79 002e 04F01F04 		and	r4, r4, #31
  80              	.LVL4:
  81 0032 57F82200 		ldr	r0, [r7, r2, lsl #2]
  82              		.loc 1 75 0
  83 0036 0BD3     		bcc	.L9
  84              		.loc 1 79 0
  85 0038 1840     		ands	r0, r0, r3
  86 003a E040     		lsrs	r0, r0, r4
  87              	.LVL5:
  88              	.L1:
  89              		.loc 1 80 0
  90 003c 019A     		ldr	r2, [sp, #4]
  91 003e 2B68     		ldr	r3, [r5]
  92 0040 9A42     		cmp	r2, r3
  93 0042 10D1     		bne	.L10
  94 0044 03B0     		add	sp, sp, #12
  95              		.cfi_remember_state
  96              		.cfi_def_cfa_offset 20
  97              		@ sp needed
  98 0046 F0BD     		pop	{r4, r5, r6, r7, pc}
  99              	.LVL6:
 100              	.L2:
 101              		.cfi_restore_state
 102              		.loc 1 67 0 discriminator 4
 103 0048 0948     		ldr	r0, .L11+4
 104              	.LVL7:
 105 004a FFF7FEFF 		bl	chSysHalt
 106              	.LVL8:
 107 004e E4E7     		b	.L3
 108              	.LVL9:
 109              	.L9:
 110              		.loc 1 77 0
 111 0050 57F82610 		ldr	r1, [r7, r6, lsl #2]
 112 0054 C4F12002 		rsb	r2, r4, #32
 113              	.LVL10:
 114 0058 0B40     		ands	r3, r3, r1
ARM GAS  C:\Users\mathi\AppData\Local\Temp\ccYJ7cqk.s 			page 3


 115              	.LVL11:
 116              		.loc 1 76 0
 117 005a 20FA04F4 		lsr	r4, r0, r4
 118              	.LVL12:
 119              		.loc 1 77 0
 120 005e 03FA02F0 		lsl	r0, r3, r2
 121              		.loc 1 76 0
 122 0062 2043     		orrs	r0, r0, r4
 123 0064 EAE7     		b	.L1
 124              	.L10:
 125              		.loc 1 80 0
 126 0066 FFF7FEFF 		bl	__stack_chk_fail
 127              	.LVL13:
 128              	.L12:
 129 006a 00BF     		.align	2
 130              	.L11:
 131 006c 00000000 		.word	__stack_chk_guard
 132 0070 00000000 		.word	.LANCHOR0
 133              		.cfi_endproc
 134              	.LFE256:
 135              		.size	_mmcsd_get_slice, .-_mmcsd_get_slice
 136              		.section	.text._mmcsd_get_capacity,"ax",%progbits
 137              		.align	1
 138              		.p2align 4,,15
 139              		.global	_mmcsd_get_capacity
 140              		.syntax unified
 141              		.thumb
 142              		.thumb_func
 143              		.fpu fpv4-sp-d16
 144              		.type	_mmcsd_get_capacity, %function
 145              	_mmcsd_get_capacity:
 146              	.LFB257:
 147              		.loc 1 93 0
 148              		.cfi_startproc
 149              		@ args = 0, pretend = 0, frame = 8
 150              		@ frame_needed = 0, uses_anonymous_args = 0
 151              	.LVL14:
 152 0000 30B5     		push	{r4, r5, lr}
 153              		.cfi_def_cfa_offset 12
 154              		.cfi_offset 4, -12
 155              		.cfi_offset 5, -8
 156              		.cfi_offset 14, -4
 157 0002 194C     		ldr	r4, .L24
 158 0004 83B0     		sub	sp, sp, #12
 159              		.cfi_def_cfa_offset 24
 160              		.loc 1 93 0
 161 0006 2368     		ldr	r3, [r4]
 162 0008 0193     		str	r3, [sp, #4]
 163              		.loc 1 96 0
 164 000a 0546     		mov	r5, r0
 165 000c 30B3     		cbz	r0, .L22
 166              	.LVL15:
 167              	.L14:
 168              	.LBB12:
 169              	.LBB13:
 170              		.loc 1 79 0
 171 000e EB68     		ldr	r3, [r5, #12]
ARM GAS  C:\Users\mathi\AppData\Local\Temp\ccYJ7cqk.s 			page 4


 172              	.LBE13:
 173              	.LBE12:
 174              		.loc 1 98 0
 175 0010 9B0F     		lsrs	r3, r3, #30
 176 0012 11D0     		beq	.L16
 177 0014 012B     		cmp	r3, #1
 178 0016 06D0     		beq	.L17
 179              		.loc 1 112 0
 180 0018 0020     		movs	r0, #0
 181              	.L13:
 182              		.loc 1 113 0
 183 001a 019A     		ldr	r2, [sp, #4]
 184 001c 2368     		ldr	r3, [r4]
 185 001e 9A42     		cmp	r2, r3
 186 0020 20D1     		bne	.L23
 187 0022 03B0     		add	sp, sp, #12
 188              		.cfi_remember_state
 189              		.cfi_def_cfa_offset 12
 190              		@ sp needed
 191 0024 30BD     		pop	{r4, r5, pc}
 192              	.LVL16:
 193              	.L17:
 194              		.cfi_restore_state
 195              	.LBB14:
 196              	.LBB15:
 197              		.loc 1 77 0
 198 0026 A868     		ldr	r0, [r5, #8]
 199              		.loc 1 76 0
 200 0028 EB88     		ldrh	r3, [r5, #6]
 201              		.loc 1 77 0
 202 002a 0004     		lsls	r0, r0, #16
 203 002c 00F47C10 		and	r0, r0, #4128768
 204              		.loc 1 76 0
 205 0030 1843     		orrs	r0, r0, r3
 206              	.LBE15:
 207              	.LBE14:
 208              		.loc 1 107 0
 209 0032 0130     		adds	r0, r0, #1
 210 0034 8002     		lsls	r0, r0, #10
 211 0036 F0E7     		b	.L13
 212              	.L16:
 213              	.LVL17:
 214              	.LBB16:
 215              	.LBB17:
 216              		.loc 1 76 0
 217 0038 D5E90123 		ldrd	r2, r3, [r5, #4]
 218              		.loc 1 77 0
 219 003c 40F6FC70 		movw	r0, #4092
 220 0040 00EA8300 		and	r0, r0, r3, lsl #2
 221              		.loc 1 76 0
 222 0044 40EA9270 		orr	r0, r0, r2, lsr #30
 223              	.LBE17:
 224              	.LBE16:
 225              	.LBB18:
 226              	.LBB19:
 227              		.loc 1 79 0
 228 0048 C2F3C232 		ubfx	r2, r2, #15, #3
ARM GAS  C:\Users\mathi\AppData\Local\Temp\ccYJ7cqk.s 			page 5


 229              	.LBE19:
 230              	.LBE18:
 231              		.loc 1 104 0
 232 004c 0130     		adds	r0, r0, #1
 233 004e 0232     		adds	r2, r2, #2
 234              	.LBB20:
 235              	.LBB21:
 236              		.loc 1 79 0
 237 0050 C3F30343 		ubfx	r3, r3, #16, #4
 238              	.LBE21:
 239              	.LBE20:
 240              		.loc 1 104 0
 241 0054 9040     		lsls	r0, r0, r2
 242 0056 093B     		subs	r3, r3, #9
 243 0058 9840     		lsls	r0, r0, r3
 244 005a DEE7     		b	.L13
 245              	.LVL18:
 246              	.L22:
 247              		.loc 1 96 0 discriminator 2
 248 005c 0348     		ldr	r0, .L24+4
 249              	.LVL19:
 250 005e FFF7FEFF 		bl	chSysHalt
 251              	.LVL20:
 252 0062 D4E7     		b	.L14
 253              	.L23:
 254              		.loc 1 113 0
 255 0064 FFF7FEFF 		bl	__stack_chk_fail
 256              	.LVL21:
 257              	.L25:
 258              		.align	2
 259              	.L24:
 260 0068 00000000 		.word	__stack_chk_guard
 261 006c 00000000 		.word	.LANCHOR1
 262              		.cfi_endproc
 263              	.LFE257:
 264              		.size	_mmcsd_get_capacity, .-_mmcsd_get_capacity
 265              		.section	.text._mmcsd_get_capacity_ext,"ax",%progbits
 266              		.align	1
 267              		.p2align 4,,15
 268              		.global	_mmcsd_get_capacity_ext
 269              		.syntax unified
 270              		.thumb
 271              		.thumb_func
 272              		.fpu fpv4-sp-d16
 273              		.type	_mmcsd_get_capacity_ext, %function
 274              	_mmcsd_get_capacity_ext:
 275              	.LFB258:
 276              		.loc 1 125 0
 277              		.cfi_startproc
 278              		@ args = 0, pretend = 0, frame = 8
 279              		@ frame_needed = 0, uses_anonymous_args = 0
 280              	.LVL22:
 281 0000 F0B5     		push	{r4, r5, r6, r7, lr}
 282              		.cfi_def_cfa_offset 20
 283              		.cfi_offset 4, -20
 284              		.cfi_offset 5, -16
 285              		.cfi_offset 6, -12
ARM GAS  C:\Users\mathi\AppData\Local\Temp\ccYJ7cqk.s 			page 6


 286              		.cfi_offset 7, -8
 287              		.cfi_offset 14, -4
 288 0002 104D     		ldr	r5, .L32
 289 0004 83B0     		sub	sp, sp, #12
 290              		.cfi_def_cfa_offset 32
 291              		.loc 1 125 0
 292 0006 2B68     		ldr	r3, [r5]
 293 0008 0193     		str	r3, [sp, #4]
 294              		.loc 1 127 0
 295 000a 0446     		mov	r4, r0
 296 000c 98B1     		cbz	r0, .L30
 297              	.LVL23:
 298              	.L27:
 299              		.loc 1 130 0
 300 000e 94F8D630 		ldrb	r3, [r4, #214]	@ zero_extendqisi2
 301              		.loc 1 129 0
 302 0012 94F8D770 		ldrb	r7, [r4, #215]	@ zero_extendqisi2
 303              		.loc 1 133 0
 304 0016 0199     		ldr	r1, [sp, #4]
 305              		.loc 1 132 0
 306 0018 94F8D460 		ldrb	r6, [r4, #212]	@ zero_extendqisi2
 307              		.loc 1 133 0
 308 001c 2A68     		ldr	r2, [r5]
 309              		.loc 1 131 0
 310 001e 94F8D500 		ldrb	r0, [r4, #213]	@ zero_extendqisi2
 311              		.loc 1 130 0
 312 0022 1B04     		lsls	r3, r3, #16
 313              		.loc 1 129 0
 314 0024 03EB0763 		add	r3, r3, r7, lsl #24
 315              		.loc 1 131 0
 316 0028 3344     		add	r3, r3, r6
 317              		.loc 1 133 0
 318 002a 9142     		cmp	r1, r2
 319 002c 03EB0020 		add	r0, r3, r0, lsl #8
 320 0030 05D1     		bne	.L31
 321 0032 03B0     		add	sp, sp, #12
 322              		.cfi_remember_state
 323              		.cfi_def_cfa_offset 20
 324              		@ sp needed
 325 0034 F0BD     		pop	{r4, r5, r6, r7, pc}
 326              	.LVL24:
 327              	.L30:
 328              		.cfi_restore_state
 329              		.loc 1 127 0 discriminator 2
 330 0036 0448     		ldr	r0, .L32+4
 331              	.LVL25:
 332 0038 FFF7FEFF 		bl	chSysHalt
 333              	.LVL26:
 334 003c E7E7     		b	.L27
 335              	.L31:
 336              		.loc 1 133 0
 337 003e FFF7FEFF 		bl	__stack_chk_fail
 338              	.LVL27:
 339              	.L33:
 340 0042 00BF     		.align	2
 341              	.L32:
 342 0044 00000000 		.word	__stack_chk_guard
ARM GAS  C:\Users\mathi\AppData\Local\Temp\ccYJ7cqk.s 			page 7


 343 0048 00000000 		.word	.LANCHOR2
 344              		.cfi_endproc
 345              	.LFE258:
 346              		.size	_mmcsd_get_capacity_ext, .-_mmcsd_get_capacity_ext
 347              		.section	.text._mmcsd_unpack_sdc_cid,"ax",%progbits
 348              		.align	1
 349              		.p2align 4,,15
 350              		.global	_mmcsd_unpack_sdc_cid
 351              		.syntax unified
 352              		.thumb
 353              		.thumb_func
 354              		.fpu fpv4-sp-d16
 355              		.type	_mmcsd_unpack_sdc_cid, %function
 356              	_mmcsd_unpack_sdc_cid:
 357              	.LFB259:
 358              		.loc 1 144 0
 359              		.cfi_startproc
 360              		@ args = 0, pretend = 0, frame = 8
 361              		@ frame_needed = 0, uses_anonymous_args = 0
 362              	.LVL28:
 363 0000 70B5     		push	{r4, r5, r6, lr}
 364              		.cfi_def_cfa_offset 16
 365              		.cfi_offset 4, -16
 366              		.cfi_offset 5, -12
 367              		.cfi_offset 6, -8
 368              		.cfi_offset 14, -4
 369 0002 204E     		ldr	r6, .L43
 370 0004 82B0     		sub	sp, sp, #8
 371              		.cfi_def_cfa_offset 24
 372              		.loc 1 144 0
 373 0006 3368     		ldr	r3, [r6]
 374 0008 0193     		str	r3, [sp, #4]
 375 000a 0D46     		mov	r5, r1
 376              		.loc 1 147 0
 377 000c 0446     		mov	r4, r0
 378 000e 0028     		cmp	r0, #0
 379 0010 31D0     		beq	.L35
 380              		.loc 1 147 0 is_stmt 0 discriminator 3
 381 0012 0029     		cmp	r1, #0
 382 0014 2FD0     		beq	.L35
 383              	.LVL29:
 384              	.L36:
 385              	.LBB48:
 386              	.LBB49:
 387              		.loc 1 79 0 is_stmt 1
 388 0016 A368     		ldr	r3, [r4, #8]
 389              	.LBE49:
 390              	.LBE48:
 391              		.loc 1 164 0
 392 0018 019A     		ldr	r2, [sp, #4]
 393              	.LBB51:
 394              	.LBB50:
 395              		.loc 1 79 0
 396 001a C3F34603 		ubfx	r3, r3, #1, #7
 397              	.LBE50:
 398              	.LBE51:
 399              		.loc 1 150 0
ARM GAS  C:\Users\mathi\AppData\Local\Temp\ccYJ7cqk.s 			page 8


 400 001e 2B75     		strb	r3, [r5, #20]
 401              	.LBB52:
 402              	.LBB53:
 403              		.loc 1 79 0
 404 0020 A368     		ldr	r3, [r4, #8]
 405 0022 C3F30733 		ubfx	r3, r3, #12, #8
 406              	.LBE53:
 407              	.LBE52:
 408              		.loc 1 151 0
 409 0026 03F5FA63 		add	r3, r3, #2000
 410 002a 6B82     		strh	r3, [r5, #18]	@ movhi
 411              	.LBB54:
 412              	.LBB55:
 413              		.loc 1 79 0
 414 002c A368     		ldr	r3, [r4, #8]
 415 002e C3F30323 		ubfx	r3, r3, #8, #4
 416              	.LBE55:
 417              	.LBE54:
 418              		.loc 1 153 0
 419 0032 2B74     		strb	r3, [r5, #16]
 420              	.LBB56:
 421              	.LBB57:
 422              		.loc 1 79 0
 423 0034 E37D     		ldrb	r3, [r4, #23]	@ zero_extendqisi2
 424              	.LBE57:
 425              	.LBE56:
 426              		.loc 1 154 0
 427 0036 2B70     		strb	r3, [r5]
 428              		.loc 1 155 0
 429 0038 6369     		ldr	r3, [r4, #20]
 430 003a 1B0A     		lsrs	r3, r3, #8
 431 003c 6B80     		strh	r3, [r5, #2]	@ movhi
 432              		.loc 1 156 0
 433 003e 2369     		ldr	r3, [r4, #16]
 434 0040 2B72     		strb	r3, [r5, #8]
 435              		.loc 1 157 0
 436 0042 2369     		ldr	r3, [r4, #16]
 437              		.loc 1 164 0
 438 0044 3168     		ldr	r1, [r6]
 439              		.loc 1 157 0
 440 0046 1B0A     		lsrs	r3, r3, #8
 441 0048 EB71     		strb	r3, [r5, #7]
 442              		.loc 1 158 0
 443 004a 638A     		ldrh	r3, [r4, #18]
 444 004c AB71     		strb	r3, [r5, #6]
 445              	.LBB58:
 446              	.LBB59:
 447              		.loc 1 79 0
 448 004e E37C     		ldrb	r3, [r4, #19]	@ zero_extendqisi2
 449              	.LBE59:
 450              	.LBE58:
 451              		.loc 1 159 0
 452 0050 6B71     		strb	r3, [r5, #5]
 453              		.loc 1 160 0
 454 0052 6369     		ldr	r3, [r4, #20]
 455 0054 2B71     		strb	r3, [r5, #4]
 456              	.LBB60:
ARM GAS  C:\Users\mathi\AppData\Local\Temp\ccYJ7cqk.s 			page 9


 457              	.LBB61:
 458              		.loc 1 79 0
 459 0056 E368     		ldr	r3, [r4, #12]
 460 0058 1B0F     		lsrs	r3, r3, #28
 461              	.LBE61:
 462              	.LBE60:
 463              		.loc 1 161 0
 464 005a 6B72     		strb	r3, [r5, #9]
 465              	.LBB62:
 466              	.LBB63:
 467              		.loc 1 79 0
 468 005c E37B     		ldrb	r3, [r4, #15]	@ zero_extendqisi2
 469 005e 03F00F03 		and	r3, r3, #15
 470              	.LBE63:
 471              	.LBE62:
 472              		.loc 1 162 0
 473 0062 AB72     		strb	r3, [r5, #10]
 474              	.LBB64:
 475              	.LBB65:
 476              		.loc 1 76 0
 477 0064 E068     		ldr	r0, [r4, #12]
 478 0066 E37A     		ldrb	r3, [r4, #11]	@ zero_extendqisi2
 479              	.LBE65:
 480              	.LBE64:
 481              		.loc 1 164 0
 482 0068 8A42     		cmp	r2, r1
 483              	.LBB67:
 484              	.LBB66:
 485              		.loc 1 76 0
 486 006a 43EA0023 		orr	r3, r3, r0, lsl #8
 487              	.LBE66:
 488              	.LBE67:
 489              		.loc 1 163 0
 490 006e EB60     		str	r3, [r5, #12]
 491              		.loc 1 164 0
 492 0070 05D1     		bne	.L42
 493 0072 02B0     		add	sp, sp, #8
 494              		.cfi_remember_state
 495              		.cfi_def_cfa_offset 16
 496              		@ sp needed
 497 0074 70BD     		pop	{r4, r5, r6, pc}
 498              	.LVL30:
 499              	.L35:
 500              		.cfi_restore_state
 501              		.loc 1 147 0 discriminator 4
 502 0076 0448     		ldr	r0, .L43+4
 503              	.LVL31:
 504 0078 FFF7FEFF 		bl	chSysHalt
 505              	.LVL32:
 506 007c CBE7     		b	.L36
 507              	.LVL33:
 508              	.L42:
 509              		.loc 1 164 0
 510 007e FFF7FEFF 		bl	__stack_chk_fail
 511              	.LVL34:
 512              	.L44:
 513 0082 00BF     		.align	2
ARM GAS  C:\Users\mathi\AppData\Local\Temp\ccYJ7cqk.s 			page 10


 514              	.L43:
 515 0084 00000000 		.word	__stack_chk_guard
 516 0088 00000000 		.word	.LANCHOR3
 517              		.cfi_endproc
 518              	.LFE259:
 519              		.size	_mmcsd_unpack_sdc_cid, .-_mmcsd_unpack_sdc_cid
 520              		.section	.text._mmcsd_unpack_mmc_cid,"ax",%progbits
 521              		.align	1
 522              		.p2align 4,,15
 523              		.global	_mmcsd_unpack_mmc_cid
 524              		.syntax unified
 525              		.thumb
 526              		.thumb_func
 527              		.fpu fpv4-sp-d16
 528              		.type	_mmcsd_unpack_mmc_cid, %function
 529              	_mmcsd_unpack_mmc_cid:
 530              	.LFB260:
 531              		.loc 1 175 0
 532              		.cfi_startproc
 533              		@ args = 0, pretend = 0, frame = 8
 534              		@ frame_needed = 0, uses_anonymous_args = 0
 535              	.LVL35:
 536 0000 70B5     		push	{r4, r5, r6, lr}
 537              		.cfi_def_cfa_offset 16
 538              		.cfi_offset 4, -16
 539              		.cfi_offset 5, -12
 540              		.cfi_offset 6, -8
 541              		.cfi_offset 14, -4
 542 0002 214E     		ldr	r6, .L54
 543 0004 82B0     		sub	sp, sp, #8
 544              		.cfi_def_cfa_offset 24
 545              		.loc 1 175 0
 546 0006 3368     		ldr	r3, [r6]
 547 0008 0193     		str	r3, [sp, #4]
 548 000a 0D46     		mov	r5, r1
 549              		.loc 1 178 0
 550 000c 0446     		mov	r4, r0
 551 000e 0028     		cmp	r0, #0
 552 0010 34D0     		beq	.L46
 553              		.loc 1 178 0 is_stmt 0 discriminator 3
 554 0012 0029     		cmp	r1, #0
 555 0014 32D0     		beq	.L46
 556              	.LVL36:
 557              	.L47:
 558              	.LBB96:
 559              	.LBB97:
 560              		.loc 1 79 0 is_stmt 1
 561 0016 A368     		ldr	r3, [r4, #8]
 562              	.LBE97:
 563              	.LBE96:
 564              		.loc 1 196 0
 565 0018 019A     		ldr	r2, [sp, #4]
 566              	.LBB99:
 567              	.LBB98:
 568              		.loc 1 79 0
 569 001a C3F34603 		ubfx	r3, r3, #1, #7
 570              	.LBE98:
ARM GAS  C:\Users\mathi\AppData\Local\Temp\ccYJ7cqk.s 			page 11


 571              	.LBE99:
 572              		.loc 1 181 0
 573 001e 2B75     		strb	r3, [r5, #20]
 574              	.LBB100:
 575              	.LBB101:
 576              		.loc 1 79 0
 577 0020 A368     		ldr	r3, [r4, #8]
 578 0022 C3F30323 		ubfx	r3, r3, #8, #4
 579              	.LBE101:
 580              	.LBE100:
 581              		.loc 1 182 0
 582 0026 03F2CD73 		addw	r3, r3, #1997
 583 002a 6B82     		strh	r3, [r5, #18]	@ movhi
 584              	.LBB102:
 585              	.LBB103:
 586              		.loc 1 79 0
 587 002c A368     		ldr	r3, [r4, #8]
 588 002e C3F30333 		ubfx	r3, r3, #12, #4
 589              	.LBE103:
 590              	.LBE102:
 591              		.loc 1 184 0
 592 0032 2B74     		strb	r3, [r5, #16]
 593              	.LBB104:
 594              	.LBB105:
 595              		.loc 1 79 0
 596 0034 E37D     		ldrb	r3, [r4, #23]	@ zero_extendqisi2
 597              	.LBE105:
 598              	.LBE104:
 599              		.loc 1 185 0
 600 0036 2B70     		strb	r3, [r5]
 601              		.loc 1 186 0
 602 0038 6369     		ldr	r3, [r4, #20]
 603 003a 1B0A     		lsrs	r3, r3, #8
 604 003c 6B80     		strh	r3, [r5, #2]	@ movhi
 605              	.LBB106:
 606              	.LBB107:
 607              		.loc 1 79 0
 608 003e E37B     		ldrb	r3, [r4, #15]	@ zero_extendqisi2
 609              	.LBE107:
 610              	.LBE106:
 611              		.loc 1 187 0
 612 0040 6B72     		strb	r3, [r5, #9]
 613              		.loc 1 188 0
 614 0042 2369     		ldr	r3, [r4, #16]
 615 0044 2B72     		strb	r3, [r5, #8]
 616              		.loc 1 189 0
 617 0046 2369     		ldr	r3, [r4, #16]
 618              		.loc 1 196 0
 619 0048 3168     		ldr	r1, [r6]
 620              		.loc 1 189 0
 621 004a 1B0A     		lsrs	r3, r3, #8
 622 004c EB71     		strb	r3, [r5, #7]
 623              		.loc 1 190 0
 624 004e 638A     		ldrh	r3, [r4, #18]
 625 0050 AB71     		strb	r3, [r5, #6]
 626              	.LBB108:
 627              	.LBB109:
ARM GAS  C:\Users\mathi\AppData\Local\Temp\ccYJ7cqk.s 			page 12


 628              		.loc 1 79 0
 629 0052 E37C     		ldrb	r3, [r4, #19]	@ zero_extendqisi2
 630              	.LBE109:
 631              	.LBE108:
 632              		.loc 1 191 0
 633 0054 6B71     		strb	r3, [r5, #5]
 634              		.loc 1 192 0
 635 0056 6369     		ldr	r3, [r4, #20]
 636 0058 2B71     		strb	r3, [r5, #4]
 637              	.LBB110:
 638              	.LBB111:
 639              		.loc 1 79 0
 640 005a E368     		ldr	r3, [r4, #12]
 641 005c C3F30353 		ubfx	r3, r3, #20, #4
 642              	.LBE111:
 643              	.LBE110:
 644              		.loc 1 193 0
 645 0060 AB72     		strb	r3, [r5, #10]
 646              	.LBB112:
 647              	.LBB113:
 648              		.loc 1 79 0
 649 0062 E389     		ldrh	r3, [r4, #14]
 650 0064 03F00F03 		and	r3, r3, #15
 651              	.LBE113:
 652              	.LBE112:
 653              		.loc 1 194 0
 654 0068 EB72     		strb	r3, [r5, #11]
 655              	.LBB114:
 656              	.LBB115:
 657              		.loc 1 76 0
 658 006a E068     		ldr	r0, [r4, #12]
 659 006c 6389     		ldrh	r3, [r4, #10]
 660              	.LBE115:
 661              	.LBE114:
 662              		.loc 1 196 0
 663 006e 8A42     		cmp	r2, r1
 664              	.LBB117:
 665              	.LBB116:
 666              		.loc 1 76 0
 667 0070 43EA0043 		orr	r3, r3, r0, lsl #16
 668              	.LBE116:
 669              	.LBE117:
 670              		.loc 1 195 0
 671 0074 EB60     		str	r3, [r5, #12]
 672              		.loc 1 196 0
 673 0076 05D1     		bne	.L53
 674 0078 02B0     		add	sp, sp, #8
 675              		.cfi_remember_state
 676              		.cfi_def_cfa_offset 16
 677              		@ sp needed
 678 007a 70BD     		pop	{r4, r5, r6, pc}
 679              	.LVL37:
 680              	.L46:
 681              		.cfi_restore_state
 682              		.loc 1 178 0 discriminator 4
 683 007c 0348     		ldr	r0, .L54+4
 684              	.LVL38:
ARM GAS  C:\Users\mathi\AppData\Local\Temp\ccYJ7cqk.s 			page 13


 685 007e FFF7FEFF 		bl	chSysHalt
 686              	.LVL39:
 687 0082 C8E7     		b	.L47
 688              	.LVL40:
 689              	.L53:
 690              		.loc 1 196 0
 691 0084 FFF7FEFF 		bl	__stack_chk_fail
 692              	.LVL41:
 693              	.L55:
 694              		.align	2
 695              	.L54:
 696 0088 00000000 		.word	__stack_chk_guard
 697 008c 00000000 		.word	.LANCHOR4
 698              		.cfi_endproc
 699              	.LFE260:
 700              		.size	_mmcsd_unpack_mmc_cid, .-_mmcsd_unpack_mmc_cid
 701              		.section	.text._mmcsd_unpack_csd_mmc,"ax",%progbits
 702              		.align	1
 703              		.p2align 4,,15
 704              		.global	_mmcsd_unpack_csd_mmc
 705              		.syntax unified
 706              		.thumb
 707              		.thumb_func
 708              		.fpu fpv4-sp-d16
 709              		.type	_mmcsd_unpack_csd_mmc, %function
 710              	_mmcsd_unpack_csd_mmc:
 711              	.LFB261:
 712              		.loc 1 207 0
 713              		.cfi_startproc
 714              		@ args = 0, pretend = 0, frame = 8
 715              		@ frame_needed = 0, uses_anonymous_args = 0
 716              	.LVL42:
 717 0000 70B5     		push	{r4, r5, r6, lr}
 718              		.cfi_def_cfa_offset 16
 719              		.cfi_offset 4, -16
 720              		.cfi_offset 5, -12
 721              		.cfi_offset 6, -8
 722              		.cfi_offset 14, -4
 723 0002 4B4E     		ldr	r6, .L65
 724 0004 82B0     		sub	sp, sp, #8
 725              		.cfi_def_cfa_offset 24
 726              		.loc 1 207 0
 727 0006 3368     		ldr	r3, [r6]
 728 0008 0193     		str	r3, [sp, #4]
 729 000a 0D46     		mov	r5, r1
 730              		.loc 1 210 0
 731 000c 0446     		mov	r4, r0
 732 000e 0028     		cmp	r0, #0
 733 0010 00F08780 		beq	.L57
 734              		.loc 1 210 0 is_stmt 0 discriminator 3
 735 0014 0029     		cmp	r1, #0
 736 0016 00F08480 		beq	.L57
 737              	.LVL43:
 738              	.L58:
 739              	.LBB180:
 740              	.LBB181:
 741              		.loc 1 76 0 is_stmt 1
ARM GAS  C:\Users\mathi\AppData\Local\Temp\ccYJ7cqk.s 			page 14


 742 001a D4E90721 		ldrd	r2, r1, [r4, #28]
 743              		.loc 1 77 0
 744 001e 40F6FC73 		movw	r3, #4092
 745 0022 03EA8103 		and	r3, r3, r1, lsl #2
 746              		.loc 1 76 0
 747 0026 43EA9273 		orr	r3, r3, r2, lsr #30
 748              	.LBE181:
 749              	.LBE180:
 750              		.loc 1 213 0
 751 002a EB81     		strh	r3, [r5, #14]	@ movhi
 752              	.LBB182:
 753              	.LBB183:
 754              		.loc 1 79 0
 755 002c E369     		ldr	r3, [r4, #28]
 756 002e C3F3C233 		ubfx	r3, r3, #15, #3
 757              	.LBE183:
 758              	.LBE182:
 759              		.loc 1 214 0
 760 0032 2B75     		strb	r3, [r5, #20]
 761              	.LBB184:
 762              	.LBB185:
 763              		.loc 1 79 0
 764 0034 236A     		ldr	r3, [r4, #32]
 765 0036 1B0D     		lsrs	r3, r3, #20
 766              	.LBE185:
 767              	.LBE184:
 768              		.loc 1 215 0
 769 0038 EB80     		strh	r3, [r5, #6]	@ movhi
 770              	.LBB186:
 771              	.LBB187:
 772              		.loc 1 79 0
 773 003a A369     		ldr	r3, [r4, #24]
 774 003c C3F38033 		ubfx	r3, r3, #14, #1
 775              	.LBE187:
 776              	.LBE186:
 777              		.loc 1 216 0
 778 0040 EB77     		strb	r3, [r5, #31]
 779              	.LBB188:
 780              	.LBB189:
 781              		.loc 1 79 0
 782 0042 A369     		ldr	r3, [r4, #24]
 783 0044 C3F34603 		ubfx	r3, r3, #1, #7
 784              	.LBE189:
 785              	.LBE188:
 786              		.loc 1 217 0
 787 0048 85F82430 		strb	r3, [r5, #36]
 788              	.LBB190:
 789              	.LBB191:
 790              		.loc 1 79 0
 791 004c 636A     		ldr	r3, [r4, #36]
 792 004e 9B0F     		lsrs	r3, r3, #30
 793              	.LBE191:
 794              	.LBE190:
 795              		.loc 1 218 0
 796 0050 2B70     		strb	r3, [r5]
 797              	.LBB192:
 798              	.LBB193:
ARM GAS  C:\Users\mathi\AppData\Local\Temp\ccYJ7cqk.s 			page 15


 799              		.loc 1 79 0
 800 0052 236A     		ldr	r3, [r4, #32]
 801 0054 C3F30033 		ubfx	r3, r3, #12, #1
 802              	.LBE193:
 803              	.LBE192:
 804              		.loc 1 219 0
 805 0058 2B73     		strb	r3, [r5, #12]
 806              	.LBB194:
 807              	.LBB195:
 808              		.loc 1 79 0
 809 005a A369     		ldr	r3, [r4, #24]
 810 005c C3F30123 		ubfx	r3, r3, #8, #2
 811              	.LBE195:
 812              	.LBE194:
 813              		.loc 1 220 0
 814 0060 85F82330 		strb	r3, [r5, #35]
 815              	.LBB196:
 816              	.LBB197:
 817              		.loc 1 79 0
 818 0064 E369     		ldr	r3, [r4, #28]
 819 0066 C3F34413 		ubfx	r3, r3, #5, #5
 820              	.LBE197:
 821              	.LBE196:
 822              		.loc 1 221 0
 823 006a AB75     		strb	r3, [r5, #22]
 824              	.LBB198:
 825              	.LBB199:
 826              		.loc 1 79 0
 827 006c E369     		ldr	r3, [r4, #28]
 828 006e C3F38423 		ubfx	r3, r3, #10, #5
 829              	.LBE199:
 830              	.LBE198:
 831              		.loc 1 222 0
 832 0072 6B75     		strb	r3, [r5, #21]
 833              	.LBB200:
 834              	.LBB201:
 835              		.loc 1 79 0
 836 0074 A369     		ldr	r3, [r4, #24]
 837 0076 C3F38123 		ubfx	r3, r3, #10, #2
 838              	.LBE201:
 839              	.LBE200:
 840              		.loc 1 223 0
 841 007a 85F82230 		strb	r3, [r5, #34]
 842              	.LBB202:
 843              	.LBB203:
 844              		.loc 1 79 0
 845 007e A369     		ldr	r3, [r4, #24]
 846 0080 C3F3C033 		ubfx	r3, r3, #15, #1
 847              	.LBE203:
 848              	.LBE202:
 849              		.loc 1 224 0
 850 0084 AB77     		strb	r3, [r5, #30]
 851              		.loc 1 225 0
 852 0086 636A     		ldr	r3, [r4, #36]
 853 0088 1B0A     		lsrs	r3, r3, #8
 854 008a EB70     		strb	r3, [r5, #3]
 855              	.LBB204:
ARM GAS  C:\Users\mathi\AppData\Local\Temp\ccYJ7cqk.s 			page 16


 856              	.LBB205:
 857              		.loc 1 79 0
 858 008c A369     		ldr	r3, [r4, #24]
 859 008e C3F34033 		ubfx	r3, r3, #13, #1
 860              	.LBE205:
 861              	.LBE204:
 862              		.loc 1 226 0
 863 0092 85F82030 		strb	r3, [r5, #32]
 864              	.LBB206:
 865              	.LBB207:
 866              		.loc 1 79 0
 867 0096 A369     		ldr	r3, [r4, #24]
 868 0098 C3F38263 		ubfx	r3, r3, #26, #3
 869              	.LBE207:
 870              	.LBE206:
 871              		.loc 1 227 0
 872 009c AB76     		strb	r3, [r5, #26]
 873              	.LBB208:
 874              	.LBB209:
 875              		.loc 1 79 0
 876 009e 638C     		ldrh	r3, [r4, #34]
 877 00a0 03F00F03 		and	r3, r3, #15
 878              	.LBE209:
 879              	.LBE208:
 880              		.loc 1 228 0
 881 00a4 2B72     		strb	r3, [r5, #8]
 882              	.LBB210:
 883              	.LBB211:
 884              		.loc 1 79 0
 885 00a6 236A     		ldr	r3, [r4, #32]
 886              	.LBE211:
 887              	.LBE210:
 888              		.loc 1 244 0
 889 00a8 0199     		ldr	r1, [sp, #4]
 890              	.LBB213:
 891              	.LBB212:
 892              		.loc 1 79 0
 893 00aa C3F3C033 		ubfx	r3, r3, #15, #1
 894              	.LBE212:
 895              	.LBE213:
 896              		.loc 1 229 0
 897 00ae 6B72     		strb	r3, [r5, #9]
 898              	.LBB214:
 899              	.LBB215:
 900              		.loc 1 79 0
 901 00b0 236A     		ldr	r3, [r4, #32]
 902 00b2 C3F34033 		ubfx	r3, r3, #13, #1
 903              	.LBE215:
 904              	.LBE214:
 905              		.loc 1 230 0
 906 00b6 EB72     		strb	r3, [r5, #11]
 907              	.LBB216:
 908              	.LBB217:
 909              		.loc 1 79 0
 910 00b8 636A     		ldr	r3, [r4, #36]
 911 00ba C3F38363 		ubfx	r3, r3, #26, #4
 912              	.LBE217:
ARM GAS  C:\Users\mathi\AppData\Local\Temp\ccYJ7cqk.s 			page 17


 913              	.LBE216:
 914              		.loc 1 231 0
 915 00be 6B70     		strb	r3, [r5, #1]
 916              		.loc 1 232 0
 917 00c0 E38C     		ldrh	r3, [r4, #38]
 918 00c2 AB70     		strb	r3, [r5, #2]
 919              	.LBB218:
 920              	.LBB219:
 921              		.loc 1 79 0
 922 00c4 A369     		ldr	r3, [r4, #24]
 923              	.LBE219:
 924              	.LBE218:
 925              		.loc 1 244 0
 926 00c6 3268     		ldr	r2, [r6]
 927              	.LBB221:
 928              	.LBB220:
 929              		.loc 1 79 0
 930 00c8 C3F30033 		ubfx	r3, r3, #12, #1
 931              	.LBE220:
 932              	.LBE221:
 933              		.loc 1 233 0
 934 00cc 85F82130 		strb	r3, [r5, #33]
 935              		.loc 1 234 0
 936 00d0 636A     		ldr	r3, [r4, #36]
 937 00d2 2B71     		strb	r3, [r5, #4]
 938              	.LBB222:
 939              	.LBB223:
 940              		.loc 1 79 0
 941 00d4 E37F     		ldrb	r3, [r4, #31]	@ zero_extendqisi2
 942 00d6 03F00703 		and	r3, r3, #7
 943              	.LBE223:
 944              	.LBE222:
 945              		.loc 1 235 0
 946 00da 6B74     		strb	r3, [r5, #17]
 947              	.LBB224:
 948              	.LBB225:
 949              		.loc 1 79 0
 950 00dc E369     		ldr	r3, [r4, #28]
 951 00de C3F3C263 		ubfx	r3, r3, #27, #3
 952              	.LBE225:
 953              	.LBE224:
 954              		.loc 1 236 0
 955 00e2 2B74     		strb	r3, [r5, #16]
 956              	.LBB226:
 957              	.LBB227:
 958              		.loc 1 79 0
 959 00e4 E369     		ldr	r3, [r4, #28]
 960 00e6 C3F38243 		ubfx	r3, r3, #18, #3
 961              	.LBE227:
 962              	.LBE226:
 963              		.loc 1 237 0
 964 00ea EB74     		strb	r3, [r5, #19]
 965              	.LBB228:
 966              	.LBB229:
 967              		.loc 1 79 0
 968 00ec E369     		ldr	r3, [r4, #28]
 969 00ee C3F34253 		ubfx	r3, r3, #21, #3
ARM GAS  C:\Users\mathi\AppData\Local\Temp\ccYJ7cqk.s 			page 18


 970              	.LBE229:
 971              	.LBE228:
 972              		.loc 1 238 0
 973 00f2 AB74     		strb	r3, [r5, #18]
 974              	.LBB230:
 975              	.LBB231:
 976              		.loc 1 79 0
 977 00f4 A369     		ldr	r3, [r4, #24]
 978 00f6 DB0F     		lsrs	r3, r3, #31
 979              	.LBE231:
 980              	.LBE230:
 981              		.loc 1 239 0
 982 00f8 2B76     		strb	r3, [r5, #24]
 983              	.LBB232:
 984              	.LBB233:
 985              		.loc 1 79 0
 986 00fa E369     		ldr	r3, [r4, #28]
 987 00fc 03F01F03 		and	r3, r3, #31
 988              	.LBE233:
 989              	.LBE232:
 990              		.loc 1 240 0
 991 0100 EB75     		strb	r3, [r5, #23]
 992              	.LBB234:
 993              	.LBB235:
 994              		.loc 1 79 0
 995 0102 A369     		ldr	r3, [r4, #24]
 996 0104 C3F38353 		ubfx	r3, r3, #22, #4
 997              	.LBE235:
 998              	.LBE234:
 999              		.loc 1 241 0
 1000 0108 EB76     		strb	r3, [r5, #27]
 1001              	.LBB236:
 1002              	.LBB237:
 1003              		.loc 1 79 0
 1004 010a A369     		ldr	r3, [r4, #24]
 1005 010c C3F34053 		ubfx	r3, r3, #21, #1
 1006              	.LBE237:
 1007              	.LBE236:
 1008              		.loc 1 242 0
 1009 0110 2B77     		strb	r3, [r5, #28]
 1010              	.LBB238:
 1011              	.LBB239:
 1012              		.loc 1 79 0
 1013 0112 236A     		ldr	r3, [r4, #32]
 1014              	.LBE239:
 1015              	.LBE238:
 1016              		.loc 1 244 0
 1017 0114 9142     		cmp	r1, r2
 1018              	.LBB241:
 1019              	.LBB240:
 1020              		.loc 1 79 0
 1021 0116 C3F38033 		ubfx	r3, r3, #14, #1
 1022              	.LBE240:
 1023              	.LBE241:
 1024              		.loc 1 243 0
 1025 011a AB72     		strb	r3, [r5, #10]
 1026              		.loc 1 244 0
ARM GAS  C:\Users\mathi\AppData\Local\Temp\ccYJ7cqk.s 			page 19


 1027 011c 05D1     		bne	.L64
 1028 011e 02B0     		add	sp, sp, #8
 1029              		.cfi_remember_state
 1030              		.cfi_def_cfa_offset 16
 1031              		@ sp needed
 1032 0120 70BD     		pop	{r4, r5, r6, pc}
 1033              	.LVL44:
 1034              	.L57:
 1035              		.cfi_restore_state
 1036              		.loc 1 210 0 discriminator 4
 1037 0122 0448     		ldr	r0, .L65+4
 1038              	.LVL45:
 1039 0124 FFF7FEFF 		bl	chSysHalt
 1040              	.LVL46:
 1041 0128 77E7     		b	.L58
 1042              	.LVL47:
 1043              	.L64:
 1044              		.loc 1 244 0
 1045 012a FFF7FEFF 		bl	__stack_chk_fail
 1046              	.LVL48:
 1047              	.L66:
 1048 012e 00BF     		.align	2
 1049              	.L65:
 1050 0130 00000000 		.word	__stack_chk_guard
 1051 0134 00000000 		.word	.LANCHOR5
 1052              		.cfi_endproc
 1053              	.LFE261:
 1054              		.size	_mmcsd_unpack_csd_mmc, .-_mmcsd_unpack_csd_mmc
 1055              		.section	.text._mmcsd_unpack_csd_v10,"ax",%progbits
 1056              		.align	1
 1057              		.p2align 4,,15
 1058              		.global	_mmcsd_unpack_csd_v10
 1059              		.syntax unified
 1060              		.thumb
 1061              		.thumb_func
 1062              		.fpu fpv4-sp-d16
 1063              		.type	_mmcsd_unpack_csd_v10, %function
 1064              	_mmcsd_unpack_csd_v10:
 1065              	.LFB262:
 1066              		.loc 1 255 0
 1067              		.cfi_startproc
 1068              		@ args = 0, pretend = 0, frame = 16
 1069              		@ frame_needed = 0, uses_anonymous_args = 0
 1070              	.LVL49:
 1071 0000 30B5     		push	{r4, r5, lr}
 1072              		.cfi_def_cfa_offset 12
 1073              		.cfi_offset 4, -12
 1074              		.cfi_offset 5, -8
 1075              		.cfi_offset 14, -4
 1076 0002 3B4D     		ldr	r5, .L73
 1077 0004 85B0     		sub	sp, sp, #20
 1078              		.cfi_def_cfa_offset 32
 1079              		.loc 1 255 0
 1080 0006 2B68     		ldr	r3, [r5]
 1081 0008 0393     		str	r3, [sp, #12]
 1082              		.loc 1 258 0
 1083 000a 0446     		mov	r4, r0
ARM GAS  C:\Users\mathi\AppData\Local\Temp\ccYJ7cqk.s 			page 20


 1084 000c 0028     		cmp	r0, #0
 1085 000e 66D0     		beq	.L71
 1086              	.LVL50:
 1087              	.L68:
 1088              	.LBB292:
 1089              	.LBB293:
 1090              		.loc 1 76 0
 1091 0010 D4E90720 		ldrd	r2, r0, [r4, #28]
 1092              		.loc 1 77 0
 1093 0014 40F6FC73 		movw	r3, #4092
 1094 0018 03EA8003 		and	r3, r3, r0, lsl #2
 1095              		.loc 1 76 0
 1096 001c 43EA9273 		orr	r3, r3, r2, lsr #30
 1097              	.LBE293:
 1098              	.LBE292:
 1099              		.loc 1 261 0
 1100 0020 8B81     		strh	r3, [r1, #12]	@ movhi
 1101              	.LBB294:
 1102              	.LBB295:
 1103              		.loc 1 79 0
 1104 0022 E369     		ldr	r3, [r4, #28]
 1105 0024 C3F3C233 		ubfx	r3, r3, #15, #3
 1106              	.LBE295:
 1107              	.LBE294:
 1108              		.loc 1 262 0
 1109 0028 8B74     		strb	r3, [r1, #18]
 1110              	.LBB296:
 1111              	.LBB297:
 1112              		.loc 1 79 0
 1113 002a 236A     		ldr	r3, [r4, #32]
 1114 002c 1B0D     		lsrs	r3, r3, #20
 1115              	.LBE297:
 1116              	.LBE296:
 1117              		.loc 1 263 0
 1118 002e 8B80     		strh	r3, [r1, #4]	@ movhi
 1119              	.LBB298:
 1120              	.LBB299:
 1121              		.loc 1 79 0
 1122 0030 A369     		ldr	r3, [r4, #24]
 1123 0032 C3F38033 		ubfx	r3, r3, #14, #1
 1124              	.LBE299:
 1125              	.LBE298:
 1126              		.loc 1 264 0
 1127 0036 CB76     		strb	r3, [r1, #27]
 1128              	.LBB300:
 1129              	.LBB301:
 1130              		.loc 1 79 0
 1131 0038 A369     		ldr	r3, [r4, #24]
 1132 003a C3F34603 		ubfx	r3, r3, #1, #7
 1133              	.LBE301:
 1134              	.LBE300:
 1135              		.loc 1 265 0
 1136 003e CB77     		strb	r3, [r1, #31]
 1137              	.LBB302:
 1138              	.LBB303:
 1139              		.loc 1 79 0
 1140 0040 636A     		ldr	r3, [r4, #36]
ARM GAS  C:\Users\mathi\AppData\Local\Temp\ccYJ7cqk.s 			page 21


 1141 0042 9B0F     		lsrs	r3, r3, #30
 1142              	.LBE303:
 1143              	.LBE302:
 1144              		.loc 1 266 0
 1145 0044 0B70     		strb	r3, [r1]
 1146              	.LBB304:
 1147              	.LBB305:
 1148              		.loc 1 79 0
 1149 0046 236A     		ldr	r3, [r4, #32]
 1150 0048 C3F30033 		ubfx	r3, r3, #12, #1
 1151              	.LBE305:
 1152              	.LBE304:
 1153              		.loc 1 267 0
 1154 004c 8B72     		strb	r3, [r1, #10]
 1155              	.LBB306:
 1156              	.LBB307:
 1157              		.loc 1 79 0
 1158 004e E369     		ldr	r3, [r4, #28]
 1159 0050 C3F38033 		ubfx	r3, r3, #14, #1
 1160              	.LBE307:
 1161              	.LBE306:
 1162              		.loc 1 268 0
 1163 0054 CB74     		strb	r3, [r1, #19]
 1164              	.LBB308:
 1165              	.LBB309:
 1166              		.loc 1 79 0
 1167 0056 E369     		ldr	r3, [r4, #28]
 1168 0058 C3F3C613 		ubfx	r3, r3, #7, #7
 1169              	.LBE309:
 1170              	.LBE308:
 1171              		.loc 1 269 0
 1172 005c 0B75     		strb	r3, [r1, #20]
 1173              	.LBB310:
 1174              	.LBB311:
 1175              		.loc 1 79 0
 1176 005e A369     		ldr	r3, [r4, #24]
 1177 0060 C3F38123 		ubfx	r3, r3, #10, #2
 1178              	.LBE311:
 1179              	.LBE310:
 1180              		.loc 1 270 0
 1181 0064 8B77     		strb	r3, [r1, #30]
 1182              	.LBB312:
 1183              	.LBB313:
 1184              		.loc 1 79 0
 1185 0066 A369     		ldr	r3, [r4, #24]
 1186 0068 C3F3C033 		ubfx	r3, r3, #15, #1
 1187              	.LBE313:
 1188              	.LBE312:
 1189              		.loc 1 271 0
 1190 006c 8B76     		strb	r3, [r1, #26]
 1191              		.loc 1 272 0
 1192 006e 636A     		ldr	r3, [r4, #36]
 1193 0070 1B0A     		lsrs	r3, r3, #8
 1194 0072 8B70     		strb	r3, [r1, #2]
 1195              	.LBB314:
 1196              	.LBB315:
 1197              		.loc 1 79 0
ARM GAS  C:\Users\mathi\AppData\Local\Temp\ccYJ7cqk.s 			page 22


 1198 0074 A369     		ldr	r3, [r4, #24]
 1199 0076 C3F34033 		ubfx	r3, r3, #13, #1
 1200              	.LBE315:
 1201              	.LBE314:
 1202              		.loc 1 273 0
 1203 007a 0B77     		strb	r3, [r1, #28]
 1204              	.LBB316:
 1205              	.LBB317:
 1206              		.loc 1 79 0
 1207 007c A369     		ldr	r3, [r4, #24]
 1208 007e C3F38263 		ubfx	r3, r3, #26, #3
 1209              	.LBE317:
 1210              	.LBE316:
 1211              		.loc 1 274 0
 1212 0082 CB75     		strb	r3, [r1, #23]
 1213              	.LBB318:
 1214              	.LBB319:
 1215              		.loc 1 79 0
 1216 0084 638C     		ldrh	r3, [r4, #34]
 1217 0086 03F00F03 		and	r3, r3, #15
 1218              	.LBE319:
 1219              	.LBE318:
 1220              		.loc 1 275 0
 1221 008a 8B71     		strb	r3, [r1, #6]
 1222              	.LBB320:
 1223              	.LBB321:
 1224              		.loc 1 79 0
 1225 008c 236A     		ldr	r3, [r4, #32]
 1226 008e C3F3C033 		ubfx	r3, r3, #15, #1
 1227              	.LBE321:
 1228              	.LBE320:
 1229              		.loc 1 276 0
 1230 0092 CB71     		strb	r3, [r1, #7]
 1231              	.LBB322:
 1232              	.LBB323:
 1233              		.loc 1 79 0
 1234 0094 236A     		ldr	r3, [r4, #32]
 1235              	.LBE323:
 1236              	.LBE322:
 1237              		.loc 1 286 0
 1238 0096 039A     		ldr	r2, [sp, #12]
 1239              	.LBB325:
 1240              	.LBB324:
 1241              		.loc 1 79 0
 1242 0098 C3F34033 		ubfx	r3, r3, #13, #1
 1243              	.LBE324:
 1244              	.LBE325:
 1245              		.loc 1 277 0
 1246 009c 4B72     		strb	r3, [r1, #9]
 1247              		.loc 1 278 0
 1248 009e E38C     		ldrh	r3, [r4, #38]
 1249 00a0 4B70     		strb	r3, [r1, #1]
 1250              	.LBB326:
 1251              	.LBB327:
 1252              		.loc 1 79 0
 1253 00a2 A369     		ldr	r3, [r4, #24]
 1254 00a4 C3F30033 		ubfx	r3, r3, #12, #1
ARM GAS  C:\Users\mathi\AppData\Local\Temp\ccYJ7cqk.s 			page 23


 1255              	.LBE327:
 1256              	.LBE326:
 1257              		.loc 1 279 0
 1258 00a8 4B77     		strb	r3, [r1, #29]
 1259              		.loc 1 280 0
 1260 00aa 636A     		ldr	r3, [r4, #36]
 1261 00ac CB70     		strb	r3, [r1, #3]
 1262              	.LBB328:
 1263              	.LBB329:
 1264              		.loc 1 79 0
 1265 00ae A369     		ldr	r3, [r4, #24]
 1266              	.LBE329:
 1267              	.LBE328:
 1268              		.loc 1 286 0
 1269 00b0 2868     		ldr	r0, [r5]
 1270              	.LBB331:
 1271              	.LBB330:
 1272              		.loc 1 79 0
 1273 00b2 DB0F     		lsrs	r3, r3, #31
 1274              	.LBE330:
 1275              	.LBE331:
 1276              		.loc 1 281 0
 1277 00b4 8B75     		strb	r3, [r1, #22]
 1278              	.LBB332:
 1279              	.LBB333:
 1280              		.loc 1 79 0
 1281 00b6 E369     		ldr	r3, [r4, #28]
 1282 00b8 03F07F03 		and	r3, r3, #127
 1283              	.LBE333:
 1284              	.LBE332:
 1285              		.loc 1 282 0
 1286 00bc 4B75     		strb	r3, [r1, #21]
 1287              	.LBB334:
 1288              	.LBB335:
 1289              		.loc 1 79 0
 1290 00be A369     		ldr	r3, [r4, #24]
 1291 00c0 C3F30D33 		ubfx	r3, r3, #12, #14
 1292              	.LBE335:
 1293              	.LBE334:
 1294              		.loc 1 283 0
 1295 00c4 0B76     		strb	r3, [r1, #24]
 1296              	.LBB336:
 1297              	.LBB337:
 1298              		.loc 1 79 0
 1299 00c6 A369     		ldr	r3, [r4, #24]
 1300 00c8 C3F34053 		ubfx	r3, r3, #21, #1
 1301              	.LBE337:
 1302              	.LBE336:
 1303              		.loc 1 284 0
 1304 00cc 4B76     		strb	r3, [r1, #25]
 1305              	.LBB338:
 1306              	.LBB339:
 1307              		.loc 1 79 0
 1308 00ce 236A     		ldr	r3, [r4, #32]
 1309              	.LBE339:
 1310              	.LBE338:
 1311              		.loc 1 286 0
ARM GAS  C:\Users\mathi\AppData\Local\Temp\ccYJ7cqk.s 			page 24


 1312 00d0 8242     		cmp	r2, r0
 1313              	.LBB341:
 1314              	.LBB340:
 1315              		.loc 1 79 0
 1316 00d2 C3F38033 		ubfx	r3, r3, #14, #1
 1317              	.LBE340:
 1318              	.LBE341:
 1319              		.loc 1 285 0
 1320 00d6 0B72     		strb	r3, [r1, #8]
 1321              		.loc 1 286 0
 1322 00d8 07D1     		bne	.L72
 1323 00da 05B0     		add	sp, sp, #20
 1324              		.cfi_remember_state
 1325              		.cfi_def_cfa_offset 12
 1326              		@ sp needed
 1327 00dc 30BD     		pop	{r4, r5, pc}
 1328              	.LVL51:
 1329              	.L71:
 1330              		.cfi_restore_state
 1331              		.loc 1 258 0 discriminator 2
 1332 00de 0548     		ldr	r0, .L73+4
 1333              	.LVL52:
 1334 00e0 0191     		str	r1, [sp, #4]
 1335 00e2 FFF7FEFF 		bl	chSysHalt
 1336              	.LVL53:
 1337 00e6 0199     		ldr	r1, [sp, #4]
 1338 00e8 92E7     		b	.L68
 1339              	.LVL54:
 1340              	.L72:
 1341              		.loc 1 286 0
 1342 00ea FFF7FEFF 		bl	__stack_chk_fail
 1343              	.LVL55:
 1344              	.L74:
 1345 00ee 00BF     		.align	2
 1346              	.L73:
 1347 00f0 00000000 		.word	__stack_chk_guard
 1348 00f4 00000000 		.word	.LANCHOR6
 1349              		.cfi_endproc
 1350              	.LFE262:
 1351              		.size	_mmcsd_unpack_csd_v10, .-_mmcsd_unpack_csd_v10
 1352              		.section	.text._mmcsd_unpack_csd_v20,"ax",%progbits
 1353              		.align	1
 1354              		.p2align 4,,15
 1355              		.global	_mmcsd_unpack_csd_v20
 1356              		.syntax unified
 1357              		.thumb
 1358              		.thumb_func
 1359              		.fpu fpv4-sp-d16
 1360              		.type	_mmcsd_unpack_csd_v20, %function
 1361              	_mmcsd_unpack_csd_v20:
 1362              	.LFB263:
 1363              		.loc 1 297 0
 1364              		.cfi_startproc
 1365              		@ args = 0, pretend = 0, frame = 16
 1366              		@ frame_needed = 0, uses_anonymous_args = 0
 1367              	.LVL56:
 1368 0000 30B5     		push	{r4, r5, lr}
ARM GAS  C:\Users\mathi\AppData\Local\Temp\ccYJ7cqk.s 			page 25


 1369              		.cfi_def_cfa_offset 12
 1370              		.cfi_offset 4, -12
 1371              		.cfi_offset 5, -8
 1372              		.cfi_offset 14, -4
 1373 0002 384D     		ldr	r5, .L81
 1374 0004 85B0     		sub	sp, sp, #20
 1375              		.cfi_def_cfa_offset 32
 1376              		.loc 1 297 0
 1377 0006 2B68     		ldr	r3, [r5]
 1378 0008 0393     		str	r3, [sp, #12]
 1379              		.loc 1 300 0
 1380 000a 0446     		mov	r4, r0
 1381 000c 0028     		cmp	r0, #0
 1382 000e 60D0     		beq	.L79
 1383              	.LVL57:
 1384              	.L76:
 1385              	.LBB390:
 1386              	.LBB391:
 1387              		.loc 1 77 0
 1388 0010 236A     		ldr	r3, [r4, #32]
 1389              		.loc 1 76 0
 1390 0012 E28B     		ldrh	r2, [r4, #30]
 1391              		.loc 1 77 0
 1392 0014 1B04     		lsls	r3, r3, #16
 1393 0016 03F47C13 		and	r3, r3, #4128768
 1394              		.loc 1 76 0
 1395 001a 1343     		orrs	r3, r3, r2
 1396              	.LBE391:
 1397              	.LBE390:
 1398              		.loc 1 303 0
 1399 001c CB60     		str	r3, [r1, #12]
 1400              	.LBB392:
 1401              	.LBB393:
 1402              		.loc 1 79 0
 1403 001e A369     		ldr	r3, [r4, #24]
 1404 0020 C3F34603 		ubfx	r3, r3, #1, #7
 1405              	.LBE393:
 1406              	.LBE392:
 1407              		.loc 1 304 0
 1408 0024 0B77     		strb	r3, [r1, #28]
 1409              	.LBB394:
 1410              	.LBB395:
 1411              		.loc 1 79 0
 1412 0026 236A     		ldr	r3, [r4, #32]
 1413 0028 1B0D     		lsrs	r3, r3, #20
 1414              	.LBE395:
 1415              	.LBE394:
 1416              		.loc 1 305 0
 1417 002a 8B80     		strh	r3, [r1, #4]	@ movhi
 1418              	.LBB396:
 1419              	.LBB397:
 1420              		.loc 1 79 0
 1421 002c A369     		ldr	r3, [r4, #24]
 1422 002e C3F38033 		ubfx	r3, r3, #14, #1
 1423              	.LBE397:
 1424              	.LBE396:
 1425              		.loc 1 306 0
ARM GAS  C:\Users\mathi\AppData\Local\Temp\ccYJ7cqk.s 			page 26


 1426 0032 0B76     		strb	r3, [r1, #24]
 1427              	.LBB398:
 1428              	.LBB399:
 1429              		.loc 1 79 0
 1430 0034 636A     		ldr	r3, [r4, #36]
 1431 0036 9B0F     		lsrs	r3, r3, #30
 1432              	.LBE399:
 1433              	.LBE398:
 1434              		.loc 1 307 0
 1435 0038 0B70     		strb	r3, [r1]
 1436              	.LBB400:
 1437              	.LBB401:
 1438              		.loc 1 79 0
 1439 003a 236A     		ldr	r3, [r4, #32]
 1440 003c C3F30033 		ubfx	r3, r3, #12, #1
 1441              	.LBE401:
 1442              	.LBE400:
 1443              		.loc 1 308 0
 1444 0040 8B72     		strb	r3, [r1, #10]
 1445              	.LBB402:
 1446              	.LBB403:
 1447              		.loc 1 79 0
 1448 0042 E369     		ldr	r3, [r4, #28]
 1449 0044 C3F38033 		ubfx	r3, r3, #14, #1
 1450              	.LBE403:
 1451              	.LBE402:
 1452              		.loc 1 309 0
 1453 0048 0B74     		strb	r3, [r1, #16]
 1454              	.LBB404:
 1455              	.LBB405:
 1456              		.loc 1 79 0
 1457 004a A369     		ldr	r3, [r4, #24]
 1458 004c C3F38123 		ubfx	r3, r3, #10, #2
 1459              	.LBE405:
 1460              	.LBE404:
 1461              		.loc 1 310 0
 1462 0050 CB76     		strb	r3, [r1, #27]
 1463              	.LBB406:
 1464              	.LBB407:
 1465              		.loc 1 79 0
 1466 0052 A369     		ldr	r3, [r4, #24]
 1467 0054 C3F3C033 		ubfx	r3, r3, #15, #1
 1468              	.LBE407:
 1469              	.LBE406:
 1470              		.loc 1 311 0
 1471 0058 CB75     		strb	r3, [r1, #23]
 1472              		.loc 1 312 0
 1473 005a 636A     		ldr	r3, [r4, #36]
 1474 005c 1B0A     		lsrs	r3, r3, #8
 1475 005e 8B70     		strb	r3, [r1, #2]
 1476              	.LBB408:
 1477              	.LBB409:
 1478              		.loc 1 79 0
 1479 0060 A369     		ldr	r3, [r4, #24]
 1480 0062 C3F34033 		ubfx	r3, r3, #13, #1
 1481              	.LBE409:
 1482              	.LBE408:
ARM GAS  C:\Users\mathi\AppData\Local\Temp\ccYJ7cqk.s 			page 27


 1483              		.loc 1 313 0
 1484 0066 4B76     		strb	r3, [r1, #25]
 1485              	.LBB410:
 1486              	.LBB411:
 1487              		.loc 1 79 0
 1488 0068 A369     		ldr	r3, [r4, #24]
 1489 006a C3F38263 		ubfx	r3, r3, #26, #3
 1490              	.LBE411:
 1491              	.LBE410:
 1492              		.loc 1 314 0
 1493 006e 0B75     		strb	r3, [r1, #20]
 1494              	.LBB412:
 1495              	.LBB413:
 1496              		.loc 1 79 0
 1497 0070 638C     		ldrh	r3, [r4, #34]
 1498 0072 03F00F03 		and	r3, r3, #15
 1499              	.LBE413:
 1500              	.LBE412:
 1501              		.loc 1 315 0
 1502 0076 8B71     		strb	r3, [r1, #6]
 1503              	.LBB414:
 1504              	.LBB415:
 1505              		.loc 1 79 0
 1506 0078 236A     		ldr	r3, [r4, #32]
 1507 007a C3F3C033 		ubfx	r3, r3, #15, #1
 1508              	.LBE415:
 1509              	.LBE414:
 1510              		.loc 1 316 0
 1511 007e CB71     		strb	r3, [r1, #7]
 1512              	.LBB416:
 1513              	.LBB417:
 1514              		.loc 1 79 0
 1515 0080 236A     		ldr	r3, [r4, #32]
 1516 0082 C3F34033 		ubfx	r3, r3, #13, #1
 1517              	.LBE417:
 1518              	.LBE416:
 1519              		.loc 1 317 0
 1520 0086 4B72     		strb	r3, [r1, #9]
 1521              	.LBB418:
 1522              	.LBB419:
 1523              		.loc 1 79 0
 1524 0088 E369     		ldr	r3, [r4, #28]
 1525 008a C3F3C613 		ubfx	r3, r3, #7, #7
 1526              	.LBE419:
 1527              	.LBE418:
 1528              		.loc 1 318 0
 1529 008e 4B74     		strb	r3, [r1, #17]
 1530              		.loc 1 319 0
 1531 0090 E38C     		ldrh	r3, [r4, #38]
 1532 0092 4B70     		strb	r3, [r1, #1]
 1533              	.LBB420:
 1534              	.LBB421:
 1535              		.loc 1 79 0
 1536 0094 A369     		ldr	r3, [r4, #24]
 1537              	.LBE421:
 1538              	.LBE420:
 1539              		.loc 1 327 0
ARM GAS  C:\Users\mathi\AppData\Local\Temp\ccYJ7cqk.s 			page 28


 1540 0096 039A     		ldr	r2, [sp, #12]
 1541              	.LBB423:
 1542              	.LBB422:
 1543              		.loc 1 79 0
 1544 0098 C3F30033 		ubfx	r3, r3, #12, #1
 1545              	.LBE422:
 1546              	.LBE423:
 1547              		.loc 1 320 0
 1548 009c 8B76     		strb	r3, [r1, #26]
 1549              		.loc 1 321 0
 1550 009e 636A     		ldr	r3, [r4, #36]
 1551 00a0 CB70     		strb	r3, [r1, #3]
 1552              	.LBB424:
 1553              	.LBB425:
 1554              		.loc 1 79 0
 1555 00a2 A369     		ldr	r3, [r4, #24]
 1556              	.LBE425:
 1557              	.LBE424:
 1558              		.loc 1 327 0
 1559 00a4 2868     		ldr	r0, [r5]
 1560              	.LBB427:
 1561              	.LBB426:
 1562              		.loc 1 79 0
 1563 00a6 DB0F     		lsrs	r3, r3, #31
 1564              	.LBE426:
 1565              	.LBE427:
 1566              		.loc 1 322 0
 1567 00a8 CB74     		strb	r3, [r1, #19]
 1568              	.LBB428:
 1569              	.LBB429:
 1570              		.loc 1 79 0
 1571 00aa E369     		ldr	r3, [r4, #28]
 1572 00ac 03F07F03 		and	r3, r3, #127
 1573              	.LBE429:
 1574              	.LBE428:
 1575              		.loc 1 323 0
 1576 00b0 8B74     		strb	r3, [r1, #18]
 1577              	.LBB430:
 1578              	.LBB431:
 1579              		.loc 1 79 0
 1580 00b2 A369     		ldr	r3, [r4, #24]
 1581 00b4 C3F30D33 		ubfx	r3, r3, #12, #14
 1582              	.LBE431:
 1583              	.LBE430:
 1584              		.loc 1 324 0
 1585 00b8 4B75     		strb	r3, [r1, #21]
 1586              	.LBB432:
 1587              	.LBB433:
 1588              		.loc 1 79 0
 1589 00ba A369     		ldr	r3, [r4, #24]
 1590 00bc C3F34053 		ubfx	r3, r3, #21, #1
 1591              	.LBE433:
 1592              	.LBE432:
 1593              		.loc 1 325 0
 1594 00c0 8B75     		strb	r3, [r1, #22]
 1595              	.LBB434:
 1596              	.LBB435:
ARM GAS  C:\Users\mathi\AppData\Local\Temp\ccYJ7cqk.s 			page 29


 1597              		.loc 1 79 0
 1598 00c2 236A     		ldr	r3, [r4, #32]
 1599              	.LBE435:
 1600              	.LBE434:
 1601              		.loc 1 327 0
 1602 00c4 8242     		cmp	r2, r0
 1603              	.LBB437:
 1604              	.LBB436:
 1605              		.loc 1 79 0
 1606 00c6 C3F38033 		ubfx	r3, r3, #14, #1
 1607              	.LBE436:
 1608              	.LBE437:
 1609              		.loc 1 326 0
 1610 00ca 0B72     		strb	r3, [r1, #8]
 1611              		.loc 1 327 0
 1612 00cc 07D1     		bne	.L80
 1613 00ce 05B0     		add	sp, sp, #20
 1614              		.cfi_remember_state
 1615              		.cfi_def_cfa_offset 12
 1616              		@ sp needed
 1617 00d0 30BD     		pop	{r4, r5, pc}
 1618              	.LVL58:
 1619              	.L79:
 1620              		.cfi_restore_state
 1621              		.loc 1 300 0 discriminator 2
 1622 00d2 0548     		ldr	r0, .L81+4
 1623              	.LVL59:
 1624 00d4 0191     		str	r1, [sp, #4]
 1625 00d6 FFF7FEFF 		bl	chSysHalt
 1626              	.LVL60:
 1627 00da 0199     		ldr	r1, [sp, #4]
 1628 00dc 98E7     		b	.L76
 1629              	.LVL61:
 1630              	.L80:
 1631              		.loc 1 327 0
 1632 00de FFF7FEFF 		bl	__stack_chk_fail
 1633              	.LVL62:
 1634              	.L82:
 1635 00e2 00BF     		.align	2
 1636              	.L81:
 1637 00e4 00000000 		.word	__stack_chk_guard
 1638 00e8 00000000 		.word	.LANCHOR7
 1639              		.cfi_endproc
 1640              	.LFE263:
 1641              		.size	_mmcsd_unpack_csd_v20, .-_mmcsd_unpack_csd_v20
 1642              		.section	.rodata.__func__.9848,"a",%progbits
 1643              		.align	2
 1644              		.set	.LANCHOR0,. + 0
 1645              		.type	__func__.9848, %object
 1646              		.size	__func__.9848, 17
 1647              	__func__.9848:
 1648 0000 5F6D6D63 		.ascii	"_mmcsd_get_slice\000"
 1648      73645F67 
 1648      65745F73 
 1648      6C696365 
 1648      00
 1649              		.section	.rodata.__func__.9855,"a",%progbits
ARM GAS  C:\Users\mathi\AppData\Local\Temp\ccYJ7cqk.s 			page 30


 1650              		.align	2
 1651              		.set	.LANCHOR1,. + 0
 1652              		.type	__func__.9855, %object
 1653              		.size	__func__.9855, 20
 1654              	__func__.9855:
 1655 0000 5F6D6D63 		.ascii	"_mmcsd_get_capacity\000"
 1655      73645F67 
 1655      65745F63 
 1655      61706163 
 1655      69747900 
 1656              		.section	.rodata.__func__.9863,"a",%progbits
 1657              		.align	2
 1658              		.set	.LANCHOR2,. + 0
 1659              		.type	__func__.9863, %object
 1660              		.size	__func__.9863, 24
 1661              	__func__.9863:
 1662 0000 5F6D6D63 		.ascii	"_mmcsd_get_capacity_ext\000"
 1662      73645F67 
 1662      65745F63 
 1662      61706163 
 1662      6974795F 
 1663              		.section	.rodata.__func__.9869,"a",%progbits
 1664              		.align	2
 1665              		.set	.LANCHOR3,. + 0
 1666              		.type	__func__.9869, %object
 1667              		.size	__func__.9869, 22
 1668              	__func__.9869:
 1669 0000 5F6D6D63 		.ascii	"_mmcsd_unpack_sdc_cid\000"
 1669      73645F75 
 1669      6E706163 
 1669      6B5F7364 
 1669      635F6369 
 1670              		.section	.rodata.__func__.9875,"a",%progbits
 1671              		.align	2
 1672              		.set	.LANCHOR4,. + 0
 1673              		.type	__func__.9875, %object
 1674              		.size	__func__.9875, 22
 1675              	__func__.9875:
 1676 0000 5F6D6D63 		.ascii	"_mmcsd_unpack_mmc_cid\000"
 1676      73645F75 
 1676      6E706163 
 1676      6B5F6D6D 
 1676      635F6369 
 1677              		.section	.rodata.__func__.9881,"a",%progbits
 1678              		.align	2
 1679              		.set	.LANCHOR5,. + 0
 1680              		.type	__func__.9881, %object
 1681              		.size	__func__.9881, 22
 1682              	__func__.9881:
 1683 0000 5F6D6D63 		.ascii	"_mmcsd_unpack_csd_mmc\000"
 1683      73645F75 
 1683      6E706163 
 1683      6B5F6373 
 1683      645F6D6D 
 1684              		.section	.rodata.__func__.9887,"a",%progbits
 1685              		.align	2
 1686              		.set	.LANCHOR6,. + 0
ARM GAS  C:\Users\mathi\AppData\Local\Temp\ccYJ7cqk.s 			page 31


 1687              		.type	__func__.9887, %object
 1688              		.size	__func__.9887, 22
 1689              	__func__.9887:
 1690 0000 5F6D6D63 		.ascii	"_mmcsd_unpack_csd_v10\000"
 1690      73645F75 
 1690      6E706163 
 1690      6B5F6373 
 1690      645F7631 
 1691              		.section	.rodata.__func__.9893,"a",%progbits
 1692              		.align	2
 1693              		.set	.LANCHOR7,. + 0
 1694              		.type	__func__.9893, %object
 1695              		.size	__func__.9893, 22
 1696              	__func__.9893:
 1697 0000 5F6D6D63 		.ascii	"_mmcsd_unpack_csd_v20\000"
 1697      73645F75 
 1697      6E706163 
 1697      6B5F6373 
 1697      645F7632 
 1698              		.text
 1699              	.Letext0:
 1700              		.file 2 "c:\\eclipse_e-puck2\\tools\\gcc-arm-none-eabi-7-2017-q4-major-win32\\lib\\gcc\\arm-none-e
 1701              		.file 3 "c:\\eclipse_e-puck2\\tools\\gcc-arm-none-eabi-7-2017-q4-major-win32\\arm-none-eabi\\inclu
 1702              		.file 4 "c:\\eclipse_e-puck2\\tools\\gcc-arm-none-eabi-7-2017-q4-major-win32\\arm-none-eabi\\inclu
 1703              		.file 5 "../../lib/e-puck2_main-processor/ChibiOS//os/rt/ports/ARMCMx/compilers/GCC/chtypes.h"
 1704              		.file 6 "../../lib/e-puck2_main-processor/ChibiOS//os/rt/include/chsystypes.h"
 1705              		.file 7 "../../lib/e-puck2_main-processor/ChibiOS//os/rt/include/chschd.h"
 1706              		.file 8 "../../lib/e-puck2_main-processor/ChibiOS//os/ext/CMSIS/include/core_cm4.h"
 1707              		.file 9 "../../lib/e-puck2_main-processor/ChibiOS//os/ext/CMSIS/ST/system_stm32f4xx.h"
 1708              		.file 10 "../../lib/e-puck2_main-processor/ChibiOS//os/ext/CMSIS/ST/stm32f407xx.h"
 1709              		.file 11 "../../lib/e-puck2_main-processor/ChibiOS//os/rt/ports/ARMCMx/chcore.h"
 1710              		.file 12 "../../lib/e-puck2_main-processor/ChibiOS//os/rt/ports/ARMCMx/chcore_v7m.h"
 1711              		.file 13 "../../lib/e-puck2_main-processor/ChibiOS//os/rt/include/chdebug.h"
 1712              		.file 14 "../../lib/e-puck2_main-processor/ChibiOS//os/rt/include/chtm.h"
 1713              		.file 15 "../../lib/e-puck2_main-processor/ChibiOS//os/rt/include/chstats.h"
 1714              		.file 16 "../../lib/e-puck2_main-processor/ChibiOS//os/rt/include/chsem.h"
 1715              		.file 17 "../../lib/e-puck2_main-processor/ChibiOS//os/rt/include/chmtx.h"
 1716              		.file 18 "../../lib/e-puck2_main-processor/ChibiOS//os/rt/include/chregistry.h"
 1717              		.file 19 "../../lib/e-puck2_main-processor/ChibiOS//os/rt/include/chevents.h"
 1718              		.file 20 "../../lib/e-puck2_main-processor/ChibiOS//os/rt/include/chqueues.h"
 1719              		.file 21 "../../lib/e-puck2_main-processor/ChibiOS//os/hal/ports/STM32/STM32F4xx/stm32_dma.h"
 1720              		.file 22 "../../lib/e-puck2_main-processor/ChibiOS//os/hal/include/hal_ioblock.h"
 1721              		.file 23 "../../lib/e-puck2_main-processor/ChibiOS//os/hal/include/hal_mmcsd.h"
 1722              		.file 24 "../../lib/e-puck2_main-processor/ChibiOS//os/hal/ports/STM32/LLD/GPIOv2/pal_lld.h"
 1723              		.file 25 "../../lib/e-puck2_main-processor/ChibiOS//os/hal/include/adc.h"
 1724              		.file 26 "../../lib/e-puck2_main-processor/ChibiOS//os/hal/ports/STM32/STM32F4xx/adc_lld.h"
 1725              		.file 27 "../../lib/e-puck2_main-processor/ChibiOS//os/hal/include/can.h"
 1726              		.file 28 "../../lib/e-puck2_main-processor/ChibiOS//os/hal/ports/STM32/LLD/can_lld.h"
 1727              		.file 29 "../../lib/e-puck2_main-processor/ChibiOS//os/hal/include/dac.h"
 1728              		.file 30 "../../lib/e-puck2_main-processor/ChibiOS//os/hal/ports/STM32/LLD/DACv1/dac_lld.h"
 1729              		.file 31 "../../lib/e-puck2_main-processor/ChibiOS//os/hal/include/ext.h"
 1730              		.file 32 "../../lib/e-puck2_main-processor/ChibiOS//os/hal/ports/STM32/LLD/ext_lld.h"
 1731              		.file 33 "../../lib/e-puck2_main-processor/ChibiOS//os/hal/include/gpt.h"
 1732              		.file 34 "../../lib/e-puck2_main-processor/ChibiOS//os/hal/ports/STM32/LLD/TIMv1/gpt_lld.h"
 1733              		.file 35 "../../lib/e-puck2_main-processor/ChibiOS//os/hal/ports/STM32/LLD/TIMv1/stm32_tim.h"
 1734              		.file 36 "../../lib/e-puck2_main-processor/ChibiOS//os/hal/include/i2c.h"
 1735              		.file 37 "../../lib/e-puck2_main-processor/ChibiOS//os/hal/ports/STM32/LLD/I2Cv1/i2c_lld.h"
ARM GAS  C:\Users\mathi\AppData\Local\Temp\ccYJ7cqk.s 			page 32


 1736              		.file 38 "../../lib/e-puck2_main-processor/ChibiOS//os/hal/include/i2s.h"
 1737              		.file 39 "../../lib/e-puck2_main-processor/ChibiOS//os/hal/ports/STM32/LLD/SPIv1/i2s_lld.h"
 1738              		.file 40 "../../lib/e-puck2_main-processor/ChibiOS//os/hal/include/pwm.h"
 1739              		.file 41 "../../lib/e-puck2_main-processor/ChibiOS//os/hal/ports/STM32/LLD/TIMv1/pwm_lld.h"
 1740              		.file 42 "../../lib/e-puck2_main-processor/ChibiOS//os/hal/include/serial.h"
 1741              		.file 43 "../../lib/e-puck2_main-processor/ChibiOS//os/hal/ports/STM32/LLD/USARTv1/serial_lld.h"
 1742              		.file 44 "../../lib/e-puck2_main-processor/ChibiOS//os/hal/include/sdc.h"
 1743              		.file 45 "../../lib/e-puck2_main-processor/ChibiOS//os/hal/ports/STM32/LLD/sdc_lld.h"
 1744              		.file 46 "../../lib/e-puck2_main-processor/ChibiOS//os/hal/include/spi.h"
 1745              		.file 47 "../../lib/e-puck2_main-processor/ChibiOS//os/hal/ports/STM32/LLD/SPIv1/spi_lld.h"
 1746              		.file 48 "../../lib/e-puck2_main-processor/ChibiOS//os/hal/include/usb.h"
 1747              		.file 49 "../../lib/e-puck2_main-processor/ChibiOS//os/hal/ports/STM32/LLD/OTGv1/usb_lld.h"
 1748              		.file 50 "../../lib/e-puck2_main-processor/ChibiOS//os/hal/ports/STM32/LLD/OTGv1/stm32_otg.h"
 1749              		.file 51 "../../lib/e-puck2_main-processor/ChibiOS//os/rt/include/chsys.h"