ARM GAS  C:\Users\mathi\AppData\Local\Temp\ccXQHLKW.s 			page 1


   1              		.cpu cortex-m4
   2              		.eabi_attribute 27, 1
   3              		.eabi_attribute 28, 1
   4              		.eabi_attribute 20, 1
   5              		.eabi_attribute 21, 1
   6              		.eabi_attribute 23, 3
   7              		.eabi_attribute 24, 1
   8              		.eabi_attribute 25, 1
   9              		.eabi_attribute 26, 1
  10              		.eabi_attribute 30, 2
  11              		.eabi_attribute 34, 1
  12              		.eabi_attribute 18, 4
  13              		.file	"imu.c"
  14              		.text
  15              	.Ltext0:
  16              		.cfi_sections	.debug_frame
  17              		.section	.text.imu_reader_thd,"ax",%progbits
  18              		.align	1
  19              		.p2align 4,,15
  20              		.syntax unified
  21              		.thumb
  22              		.thumb_func
  23              		.fpu fpv4-sp-d16
  24              		.type	imu_reader_thd, %function
  25              	imu_reader_thd:
  26              	.LFB257:
  27              		.file 1 "../../lib/e-puck2_main-processor/src/sensors/imu.c"
  28              		.loc 1 33 0
  29              		.cfi_startproc
  30              		@ args = 0, pretend = 0, frame = 160
  31              		@ frame_needed = 0, uses_anonymous_args = 0
  32              	.LVL0:
  33 0000 2DE9F04F 		push	{r4, r5, r6, r7, r8, r9, r10, fp, lr}
  34              		.cfi_def_cfa_offset 36
  35              		.cfi_offset 4, -36
  36              		.cfi_offset 5, -32
  37              		.cfi_offset 6, -28
  38              		.cfi_offset 7, -24
  39              		.cfi_offset 8, -20
  40              		.cfi_offset 9, -16
  41              		.cfi_offset 10, -12
  42              		.cfi_offset 11, -8
  43              		.cfi_offset 14, -4
  44              	.LBB70:
  45              	.LBB71:
  46              		.file 2 "../../lib/e-puck2_main-processor/ChibiOS//os/rt/include/chregistry.h"
  47              		.loc 2 135 0
  48 0004 7D4C     		ldr	r4, .L29
  49 0006 7E4A     		ldr	r2, .L29+4
  50 0008 A369     		ldr	r3, [r4, #24]
  51              	.LBE71:
  52              	.LBE70:
  53              		.loc 1 40 0
  54 000a 7E48     		ldr	r0, .L29+8
  55              	.LVL1:
  56              	.LBB73:
  57              	.LBB72:
ARM GAS  C:\Users\mathi\AppData\Local\Temp\ccXQHLKW.s 			page 2


  58              		.loc 2 135 0
  59 000c 9A61     		str	r2, [r3, #24]
  60              	.LBE72:
  61              	.LBE73:
  62              		.loc 1 33 0
  63 000e 7E4A     		ldr	r2, .L29+12
  64 0010 AFB0     		sub	sp, sp, #188
  65              		.cfi_def_cfa_offset 224
  66              		.loc 1 40 0
  67 0012 0123     		movs	r3, #1
  68              		.loc 1 33 0
  69 0014 1268     		ldr	r2, [r2]
  70 0016 2D92     		str	r2, [sp, #180]
  71              		.loc 1 40 0
  72 0018 0CA9     		add	r1, sp, #48
  73 001a 1A46     		mov	r2, r3
  74 001c FFF7FEFF 		bl	chEvtRegisterMaskWithFlags
  75              	.LVL2:
  76              		.loc 1 46 0
  77 0020 11AD     		add	r5, sp, #68
  78              		.loc 1 47 0
  79 0022 0AAB     		add	r3, sp, #40
  80              		.loc 1 48 0
  81 0024 5022     		movs	r2, #80
  82 0026 2946     		mov	r1, r5
  83 0028 0092     		str	r2, [sp]
  84 002a 16A8     		add	r0, sp, #88
  85 002c 1A46     		mov	r2, r3
  86              		.loc 1 46 0
  87 002e CDE91155 		strd	r5, r5, [sp, #68]
  88              		.loc 1 47 0
  89 0032 CDE90A33 		strd	r3, r3, [sp, #40]
  90              		.loc 1 46 0
  91 0036 0025     		movs	r5, #0
  92              		.loc 1 48 0
  93 0038 744B     		ldr	r3, .L29+16
  94              		.loc 1 46 0
  95 003a 1595     		str	r5, [sp, #84]
  96 003c CDE91355 		strd	r5, r5, [sp, #76]
  97              		.loc 1 48 0
  98 0040 FFF7FEFF 		bl	messagebus_topic_init
  99              	.LVL3:
 100              		.loc 1 49 0
 101 0044 16A9     		add	r1, sp, #88
 102 0046 724A     		ldr	r2, .L29+20
 103 0048 7248     		ldr	r0, .L29+24
 104 004a FFF7FEFF 		bl	messagebus_advertise_topic
 105              	.LVL4:
 106              	.LBB74:
 107              	.LBB75:
 108              		.file 3 "../../lib/e-puck2_main-processor/ChibiOS//os/rt/include/chthreads.h"
 109              		.loc 3 233 0
 110 004e A369     		ldr	r3, [r4, #24]
 111              	.LBE75:
 112              	.LBE74:
 113              		.loc 1 57 0
 114 0050 93F82160 		ldrb	r6, [r3, #33]	@ zero_extendqisi2
ARM GAS  C:\Users\mathi\AppData\Local\Temp\ccXQHLKW.s 			page 3


 115 0054 16F00406 		ands	r6, r6, #4
 116 0058 40F08380 		bne	.L1
 117 005c 6B4F     		ldr	r7, .L29+16
 118 005e DFF8E0B1 		ldr	fp, .L29+68
 119 0062 DFF8E091 		ldr	r9, .L29+72
 120 0066 DFF8E081 		ldr	r8, .L29+76
 121              		.loc 1 67 0
 122 006a 07F13403 		add	r3, r7, #52
 123              		.loc 1 53 0
 124 006e B246     		mov	r10, r6
 125              		.loc 1 51 0
 126 0070 CDE90766 		strd	r6, r6, [sp, #28]
 127              		.loc 1 67 0
 128 0074 0993     		str	r3, [sp, #36]
 129 0076 3FE0     		b	.L11
 130              	.LVL5:
 131              	.L4:
 132              		.loc 1 74 0
 133 0078 5022     		movs	r2, #80
 134 007a 6449     		ldr	r1, .L29+16
 135 007c 16A8     		add	r0, sp, #88
 136 007e FFF7FEFF 		bl	messagebus_topic_publish
 137              	.LVL6:
 138              		.loc 1 76 0
 139 0082 99F80030 		ldrb	r3, [r9]	@ zero_extendqisi2
 140 0086 B3B1     		cbz	r3, .L5
 141              		.loc 1 77 0
 142 0088 634A     		ldr	r2, .L29+28
 143 008a 1378     		ldrb	r3, [r2]	@ zero_extendqisi2
 144 008c 002B     		cmp	r3, #0
 145 008e 70D0     		beq	.L6
 146 0090 012B     		cmp	r3, #1
 147 0092 10D1     		bne	.L5
 148              		.loc 1 86 0
 149 0094 614B     		ldr	r3, .L29+32
 150              		.loc 1 87 0
 151 0096 0798     		ldr	r0, [sp, #28]
 152              		.loc 1 86 0
 153 0098 1B78     		ldrb	r3, [r3]	@ zero_extendqisi2
 154              		.loc 1 88 0
 155 009a 614A     		ldr	r2, .L29+36
 156              		.loc 1 86 0
 157 009c 03F11401 		add	r1, r3, #20
 158              		.loc 1 88 0
 159 00a0 1278     		ldrb	r2, [r2]	@ zero_extendqisi2
 160              		.loc 1 86 0
 161 00a2 37F911C0 		ldrsh	ip, [r7, r1, lsl #1]
 162 00a6 0899     		ldr	r1, [sp, #32]
 163              		.loc 1 87 0
 164 00a8 0130     		adds	r0, r0, #1
 165 00aa C0B2     		uxtb	r0, r0
 166              		.loc 1 86 0
 167 00ac 6144     		add	r1, r1, ip
 168              		.loc 1 88 0
 169 00ae 8242     		cmp	r2, r0
 170              		.loc 1 87 0
 171 00b0 0790     		str	r0, [sp, #28]
ARM GAS  C:\Users\mathi\AppData\Local\Temp\ccXQHLKW.s 			page 4


 172              	.LVL7:
 173              		.loc 1 86 0
 174 00b2 0891     		str	r1, [sp, #32]
 175              	.LVL8:
 176              		.loc 1 88 0
 177 00b4 71D0     		beq	.L26
 178              	.LVL9:
 179              	.L5:
 180              		.loc 1 100 0
 181 00b6 98F80030 		ldrb	r3, [r8]	@ zero_extendqisi2
 182 00ba A3B1     		cbz	r3, .L8
 183              		.loc 1 101 0
 184 00bc 594A     		ldr	r2, .L29+40
 185 00be 1378     		ldrb	r3, [r2]	@ zero_extendqisi2
 186 00c0 002B     		cmp	r3, #0
 187 00c2 60D0     		beq	.L9
 188 00c4 012B     		cmp	r3, #1
 189 00c6 0ED1     		bne	.L8
 190              		.loc 1 110 0
 191 00c8 574B     		ldr	r3, .L29+44
 192              		.loc 1 112 0
 193 00ca 584A     		ldr	r2, .L29+48
 194              		.loc 1 110 0
 195 00cc 1B78     		ldrb	r3, [r3]	@ zero_extendqisi2
 196              		.loc 1 112 0
 197 00ce 1278     		ldrb	r2, [r2]	@ zero_extendqisi2
 198              		.loc 1 110 0
 199 00d0 07EB4301 		add	r1, r7, r3, lsl #1
 200              		.loc 1 111 0
 201 00d4 0AF1010A 		add	r10, r10, #1
 202              	.LVL10:
 203              		.loc 1 110 0
 204 00d8 B1F92E10 		ldrsh	r1, [r1, #46]
 205              		.loc 1 111 0
 206 00dc 5FFA8AFA 		uxtb	r10, r10
 207              		.loc 1 112 0
 208 00e0 5245     		cmp	r2, r10
 209              		.loc 1 110 0
 210 00e2 0E44     		add	r6, r6, r1
 211              	.LVL11:
 212              		.loc 1 112 0
 213 00e4 72D0     		beq	.L27
 214              	.LVL12:
 215              	.L8:
 216              		.loc 1 124 0
 217 00e6 291D     		adds	r1, r5, #4
 218 00e8 2846     		mov	r0, r5
 219 00ea FFF7FEFF 		bl	chThdSleepUntilWindowed
 220              	.LVL13:
 221              	.LBB77:
 222              	.LBB76:
 223              		.loc 3 233 0
 224 00ee A369     		ldr	r3, [r4, #24]
 225              	.LBE76:
 226              	.LBE77:
 227              		.loc 1 57 0
 228 00f0 93F82130 		ldrb	r3, [r3, #33]	@ zero_extendqisi2
ARM GAS  C:\Users\mathi\AppData\Local\Temp\ccXQHLKW.s 			page 5


 229 00f4 5B07     		lsls	r3, r3, #29
 230 00f6 34D4     		bmi	.L1
 231              	.LVL14:
 232              	.L11:
 233              	.LBB78:
 234              	.LBB79:
 235              	.LBB80:
 236              	.LBB81:
 237              	.LBB82:
 238              	.LBB83:
 239              	.LBB84:
 240              		.file 4 "../../lib/e-puck2_main-processor/ChibiOS//os/ext/CMSIS/include/core_cmFunc.h"
 241              		.loc 4 546 0
 242 00f8 2023     		movs	r3, #32
 243              		.syntax unified
 244              	@ 546 "../../lib/e-puck2_main-processor/ChibiOS//os/ext/CMSIS/include/core_cmFunc.h" 1
 245 00fa 83F31188 		MSR basepri, r3
 246              	@ 0 "" 2
 247              	.LVL15:
 248              		.thumb
 249              		.syntax unified
 250              	.LBE84:
 251              	.LBE83:
 252              	.LBE82:
 253              		.file 5 "../../lib/e-puck2_main-processor/ChibiOS//os/rt/include/chsys.h"
 254              		.loc 5 349 0
 255 00fe FFF7FEFF 		bl	_stats_start_measure_crit_thd
 256              	.LVL16:
 257              		.loc 5 350 0
 258 0102 FFF7FEFF 		bl	_dbg_check_lock
 259              	.LVL17:
 260              	.LBE81:
 261              	.LBE80:
 262              	.LBB85:
 263              	.LBB86:
 264              		.file 6 "../../lib/e-puck2_main-processor/ChibiOS//os/rt/include/chvt.h"
 265              		.loc 6 231 0
 266 0106 A56A     		ldr	r5, [r4, #40]
 267              	.LBE86:
 268              	.LBE85:
 269              	.LBB87:
 270              	.LBB88:
 271              		.loc 5 360 0
 272 0108 FFF7FEFF 		bl	_dbg_check_unlock
 273              	.LVL18:
 274              		.loc 5 361 0
 275 010c FFF7FEFF 		bl	_stats_stop_measure_crit_thd
 276              	.LVL19:
 277              		.loc 5 367 0
 278 0110 2368     		ldr	r3, [r4]
 279 0112 A342     		cmp	r3, r4
 280 0114 07D0     		beq	.L3
 281 0116 A269     		ldr	r2, [r4, #24]
 282 0118 9B68     		ldr	r3, [r3, #8]
 283 011a 9268     		ldr	r2, [r2, #8]
 284 011c 9A42     		cmp	r2, r3
 285 011e 02D2     		bcs	.L3
ARM GAS  C:\Users\mathi\AppData\Local\Temp\ccXQHLKW.s 			page 6


 286 0120 4348     		ldr	r0, .L29+52
 287 0122 FFF7FEFF 		bl	chSysHalt
 288              	.LVL20:
 289              	.L3:
 290              	.LBB89:
 291              	.LBB90:
 292              	.LBB91:
 293              		.loc 4 546 0
 294 0126 0023     		movs	r3, #0
 295              		.syntax unified
 296              	@ 546 "../../lib/e-puck2_main-processor/ChibiOS//os/ext/CMSIS/include/core_cmFunc.h" 1
 297 0128 83F31188 		MSR basepri, r3
 298              	@ 0 "" 2
 299              	.LVL21:
 300              		.thumb
 301              		.syntax unified
 302              	.LBE91:
 303              	.LBE90:
 304              	.LBE89:
 305              	.LBE88:
 306              	.LBE87:
 307              	.LBE79:
 308              	.LBE78:
 309              		.loc 1 65 0
 310 012c 9BF80030 		ldrb	r3, [fp]	@ zero_extendqisi2
 311 0130 002B     		cmp	r3, #0
 312 0132 A1D0     		beq	.L4
 313              		.loc 1 67 0
 314 0134 3F48     		ldr	r0, .L29+56
 315 0136 0999     		ldr	r1, [sp, #36]
 316 0138 00F11203 		add	r3, r0, #18
 317 013c A0F11202 		sub	r2, r0, #18
 318 0140 0493     		str	r3, [sp, #16]
 319 0142 A0F10C03 		sub	r3, r0, #12
 320 0146 CDE90201 		strd	r0, r1, [sp, #8]
 321 014a CDE90032 		strd	r3, r2, [sp]
 322 014e A0F13A01 		sub	r1, r0, #58
 323 0152 A0F11E03 		sub	r3, r0, #30
 324 0156 A0F12202 		sub	r2, r0, #34
 325 015a 2E38     		subs	r0, r0, #46
 326 015c FFF7FEFF 		bl	mpu9250_read
 327              	.LVL22:
 328 0160 8AE7     		b	.L4
 329              	.LVL23:
 330              	.L1:
 331              		.loc 1 127 0
 332 0162 294B     		ldr	r3, .L29+12
 333 0164 2D9A     		ldr	r2, [sp, #180]
 334 0166 1B68     		ldr	r3, [r3]
 335 0168 9A42     		cmp	r2, r3
 336 016a 45D1     		bne	.L28
 337 016c 2FB0     		add	sp, sp, #188
 338              		.cfi_remember_state
 339              		.cfi_def_cfa_offset 36
 340              		@ sp needed
 341 016e BDE8F08F 		pop	{r4, r5, r6, r7, r8, r9, r10, fp, pc}
 342              	.LVL24:
ARM GAS  C:\Users\mathi\AppData\Local\Temp\ccXQHLKW.s 			page 7


 343              	.L6:
 344              		.cfi_restore_state
 345              		.loc 1 79 0
 346 0172 2A49     		ldr	r1, .L29+32
 347              		.loc 1 80 0
 348 0174 0893     		str	r3, [sp, #32]
 349              	.LVL25:
 350              		.loc 1 79 0
 351 0176 0978     		ldrb	r1, [r1]	@ zero_extendqisi2
 352              		.loc 1 81 0
 353 0178 0793     		str	r3, [sp, #28]
 354              	.LVL26:
 355              		.loc 1 79 0
 356 017a 07EB4101 		add	r1, r7, r1, lsl #1
 357              		.loc 1 82 0
 358 017e 0120     		movs	r0, #1
 359              		.loc 1 79 0
 360 0180 8B86     		strh	r3, [r1, #52]	@ movhi
 361              	.LVL27:
 362              		.loc 1 82 0
 363 0182 1070     		strb	r0, [r2]
 364              		.loc 1 83 0
 365 0184 97E7     		b	.L5
 366              	.LVL28:
 367              	.L9:
 368              		.loc 1 103 0
 369 0186 2849     		ldr	r1, .L29+44
 370 0188 0978     		ldrb	r1, [r1]	@ zero_extendqisi2
 371 018a 07EB4101 		add	r1, r7, r1, lsl #1
 372              		.loc 1 106 0
 373 018e 0120     		movs	r0, #1
 374              		.loc 1 104 0
 375 0190 1E46     		mov	r6, r3
 376              	.LVL29:
 377              		.loc 1 103 0
 378 0192 4B87     		strh	r3, [r1, #58]	@ movhi
 379              	.LVL30:
 380              		.loc 1 105 0
 381 0194 9A46     		mov	r10, r3
 382              		.loc 1 106 0
 383 0196 1070     		strb	r0, [r2]
 384              		.loc 1 107 0
 385 0198 A5E7     		b	.L8
 386              	.LVL31:
 387              	.L26:
 388              		.loc 1 89 0
 389 019a 0A46     		mov	r2, r1
 390 019c 92FBF0F2 		sdiv	r2, r2, r0
 391              		.loc 1 91 0
 392 01a0 2548     		ldr	r0, .L29+60
 393              	.LVL32:
 394 01a2 90F800E0 		ldrb	lr, [r0]	@ zero_extendqisi2
 395              		.loc 1 89 0
 396 01a6 03F12001 		add	r1, r3, #32
 397              	.LVL33:
 398 01aa 12B2     		sxth	r2, r2
 399              		.loc 1 90 0
ARM GAS  C:\Users\mathi\AppData\Local\Temp\ccXQHLKW.s 			page 8


 400 01ac 4FF0000C 		mov	ip, #0
 401              		.loc 1 91 0
 402 01b0 BEF1010F 		cmp	lr, #1
 403              		.loc 1 89 0
 404 01b4 27F81120 		strh	r2, [r7, r1, lsl #1]	@ movhi
 405              		.loc 1 90 0
 406 01b8 89F800C0 		strb	ip, [r9]
 407              		.loc 1 91 0
 408 01bc 7FF47BAF 		bne	.L5
 409              		.loc 1 92 0
 410 01c0 07EB4303 		add	r3, r7, r3, lsl #1
 411              		.loc 1 93 0
 412 01c4 80F800C0 		strb	ip, [r0]
 413              		.loc 1 92 0
 414 01c8 9A86     		strh	r2, [r3, #52]	@ movhi
 415 01ca 74E7     		b	.L5
 416              	.L27:
 417              		.loc 1 115 0
 418 01cc 1B48     		ldr	r0, .L29+64
 419              		.loc 1 113 0
 420 01ce 96FBFAF2 		sdiv	r2, r6, r10
 421              		.loc 1 115 0
 422 01d2 90F800E0 		ldrb	lr, [r0]	@ zero_extendqisi2
 423              		.loc 1 113 0
 424 01d6 07EB4301 		add	r1, r7, r3, lsl #1
 425 01da 12B2     		sxth	r2, r2
 426              		.loc 1 114 0
 427 01dc 4FF0000C 		mov	ip, #0
 428              		.loc 1 115 0
 429 01e0 BEF1010F 		cmp	lr, #1
 430              		.loc 1 113 0
 431 01e4 A1F84620 		strh	r2, [r1, #70]	@ movhi
 432              		.loc 1 114 0
 433 01e8 88F800C0 		strb	ip, [r8]
 434              		.loc 1 115 0
 435 01ec 7FF47BAF 		bne	.L8
 436              		.loc 1 117 0
 437 01f0 80F800C0 		strb	ip, [r0]
 438              		.loc 1 116 0
 439 01f4 4A87     		strh	r2, [r1, #58]	@ movhi
 440 01f6 76E7     		b	.L8
 441              	.LVL34:
 442              	.L28:
 443              		.loc 1 127 0
 444 01f8 FFF7FEFF 		bl	__stack_chk_fail
 445              	.LVL35:
 446              	.L30:
 447              		.align	2
 448              	.L29:
 449 01fc 00000000 		.word	ch
 450 0200 00000000 		.word	.LANCHOR0
 451 0204 00000000 		.word	exti_events
 452 0208 00000000 		.word	__stack_chk_guard
 453 020c 00000000 		.word	.LANCHOR1
 454 0210 00000000 		.word	.LC0
 455 0214 00000000 		.word	bus
 456 0218 00000000 		.word	.LANCHOR5
ARM GAS  C:\Users\mathi\AppData\Local\Temp\ccXQHLKW.s 			page 9


 457 021c 00000000 		.word	.LANCHOR6
 458 0220 00000000 		.word	.LANCHOR7
 459 0224 00000000 		.word	.LANCHOR10
 460 0228 00000000 		.word	.LANCHOR11
 461 022c 00000000 		.word	.LANCHOR12
 462 0230 00000000 		.word	.LANCHOR2
 463 0234 3A000000 		.word	.LANCHOR1+58
 464 0238 00000000 		.word	.LANCHOR8
 465 023c 00000000 		.word	.LANCHOR13
 466 0240 00000000 		.word	.LANCHOR3
 467 0244 00000000 		.word	.LANCHOR4
 468 0248 00000000 		.word	.LANCHOR9
 469              		.cfi_endproc
 470              	.LFE257:
 471              		.size	imu_reader_thd, .-imu_reader_thd
 472              		.section	.text.imu_start,"ax",%progbits
 473              		.align	1
 474              		.p2align 4,,15
 475              		.global	imu_start
 476              		.syntax unified
 477              		.thumb
 478              		.thumb_func
 479              		.fpu fpv4-sp-d16
 480              		.type	imu_start, %function
 481              	imu_start:
 482              	.LFB258:
 483              		.loc 1 135 0
 484              		.cfi_startproc
 485              		@ args = 0, pretend = 0, frame = 8
 486              		@ frame_needed = 0, uses_anonymous_args = 0
 487 0000 30B5     		push	{r4, r5, lr}
 488              		.cfi_def_cfa_offset 12
 489              		.cfi_offset 4, -12
 490              		.cfi_offset 5, -8
 491              		.cfi_offset 14, -4
 492              		.loc 1 138 0
 493 0002 124D     		ldr	r5, .L38
 494              		.loc 1 135 0
 495 0004 124C     		ldr	r4, .L38+4
 496              		.loc 1 138 0
 497 0006 2B78     		ldrb	r3, [r5]	@ zero_extendqisi2
 498              		.loc 1 135 0
 499 0008 2268     		ldr	r2, [r4]
 500 000a 85B0     		sub	sp, sp, #20
 501              		.cfi_def_cfa_offset 32
 502              		.loc 1 135 0
 503 000c 0392     		str	r2, [sp, #12]
 504              	.LVL36:
 505              		.loc 1 138 0
 506 000e 2BB1     		cbz	r3, .L36
 507              	.LVL37:
 508              	.L31:
 509              		.loc 1 160 0
 510 0010 039A     		ldr	r2, [sp, #12]
 511 0012 2368     		ldr	r3, [r4]
 512 0014 9A42     		cmp	r2, r3
 513 0016 16D1     		bne	.L37
ARM GAS  C:\Users\mathi\AppData\Local\Temp\ccXQHLKW.s 			page 10


 514 0018 05B0     		add	sp, sp, #20
 515              		.cfi_remember_state
 516              		.cfi_def_cfa_offset 12
 517              		@ sp needed
 518 001a 30BD     		pop	{r4, r5, pc}
 519              	.LVL38:
 520              	.L36:
 521              		.cfi_restore_state
 522              		.loc 1 142 0
 523 001c FFF7FEFF 		bl	i2c_start
 524              	.LVL39:
 525              		.loc 1 144 0
 526 0020 4FF4C840 		mov	r0, #25600
 527 0024 FFF7FEFF 		bl	mpu9250_setup
 528              	.LVL40:
 529              		.loc 1 155 0
 530 0028 08B9     		cbnz	r0, .L33
 531              		.loc 1 156 0
 532 002a 0123     		movs	r3, #1
 533 002c 2B70     		strb	r3, [r5]
 534              	.L33:
 535              		.loc 1 159 0
 536 002e 0023     		movs	r3, #0
 537 0030 0093     		str	r3, [sp]
 538 0032 0848     		ldr	r0, .L38+8
 539              	.LVL41:
 540 0034 084B     		ldr	r3, .L38+12
 541 0036 4022     		movs	r2, #64
 542 0038 4FF45E71 		mov	r1, #888
 543 003c FFF7FEFF 		bl	chThdCreateStatic
 544              	.LVL42:
 545 0040 064B     		ldr	r3, .L38+16
 546 0042 1860     		str	r0, [r3]
 547 0044 E4E7     		b	.L31
 548              	.L37:
 549              		.loc 1 160 0
 550 0046 FFF7FEFF 		bl	__stack_chk_fail
 551              	.LVL43:
 552              	.L39:
 553 004a 00BF     		.align	2
 554              	.L38:
 555 004c 00000000 		.word	.LANCHOR3
 556 0050 00000000 		.word	__stack_chk_guard
 557 0054 00000000 		.word	.LANCHOR14
 558 0058 00000000 		.word	imu_reader_thd
 559 005c 00000000 		.word	.LANCHOR15
 560              		.cfi_endproc
 561              	.LFE258:
 562              		.size	imu_start, .-imu_start
 563              		.section	.text.imu_stop,"ax",%progbits
 564              		.align	1
 565              		.p2align 4,,15
 566              		.global	imu_stop
 567              		.syntax unified
 568              		.thumb
 569              		.thumb_func
 570              		.fpu fpv4-sp-d16
ARM GAS  C:\Users\mathi\AppData\Local\Temp\ccXQHLKW.s 			page 11


 571              		.type	imu_stop, %function
 572              	imu_stop:
 573              	.LFB259:
 574              		.loc 1 162 0
 575              		.cfi_startproc
 576              		@ args = 0, pretend = 0, frame = 8
 577              		@ frame_needed = 0, uses_anonymous_args = 0
 578 0000 30B5     		push	{r4, r5, lr}
 579              		.cfi_def_cfa_offset 12
 580              		.cfi_offset 4, -12
 581              		.cfi_offset 5, -8
 582              		.cfi_offset 14, -4
 583              		.loc 1 163 0
 584 0002 0B4C     		ldr	r4, .L44
 585              		.loc 1 162 0
 586 0004 0B4D     		ldr	r5, .L44+4
 587              		.loc 1 163 0
 588 0006 2068     		ldr	r0, [r4]
 589              		.loc 1 162 0
 590 0008 2B68     		ldr	r3, [r5]
 591 000a 83B0     		sub	sp, sp, #12
 592              		.cfi_def_cfa_offset 24
 593              		.loc 1 162 0
 594 000c 0193     		str	r3, [sp, #4]
 595              		.loc 1 163 0
 596 000e FFF7FEFF 		bl	chThdTerminate
 597              	.LVL44:
 598              		.loc 1 164 0
 599 0012 2068     		ldr	r0, [r4]
 600 0014 FFF7FEFF 		bl	chThdWait
 601              	.LVL45:
 602              		.loc 1 167 0
 603 0018 0199     		ldr	r1, [sp, #4]
 604 001a 2A68     		ldr	r2, [r5]
 605              		.loc 1 166 0
 606 001c 0648     		ldr	r0, .L44+8
 607              		.loc 1 165 0
 608 001e 0023     		movs	r3, #0
 609              		.loc 1 167 0
 610 0020 9142     		cmp	r1, r2
 611              		.loc 1 165 0
 612 0022 2360     		str	r3, [r4]
 613              		.loc 1 166 0
 614 0024 0370     		strb	r3, [r0]
 615              		.loc 1 167 0
 616 0026 01D1     		bne	.L43
 617 0028 03B0     		add	sp, sp, #12
 618              		.cfi_remember_state
 619              		.cfi_def_cfa_offset 12
 620              		@ sp needed
 621 002a 30BD     		pop	{r4, r5, pc}
 622              	.L43:
 623              		.cfi_restore_state
 624 002c FFF7FEFF 		bl	__stack_chk_fail
 625              	.LVL46:
 626              	.L45:
 627              		.align	2
ARM GAS  C:\Users\mathi\AppData\Local\Temp\ccXQHLKW.s 			page 12


 628              	.L44:
 629 0030 00000000 		.word	.LANCHOR15
 630 0034 00000000 		.word	__stack_chk_guard
 631 0038 00000000 		.word	.LANCHOR3
 632              		.cfi_endproc
 633              	.LFE259:
 634              		.size	imu_stop, .-imu_stop
 635              		.section	.text.get_acc,"ax",%progbits
 636              		.align	1
 637              		.p2align 4,,15
 638              		.global	get_acc
 639              		.syntax unified
 640              		.thumb
 641              		.thumb_func
 642              		.fpu fpv4-sp-d16
 643              		.type	get_acc, %function
 644              	get_acc:
 645              	.LFB260:
 646              		.loc 1 170 0
 647              		.cfi_startproc
 648              		@ args = 0, pretend = 0, frame = 8
 649              		@ frame_needed = 0, uses_anonymous_args = 0
 650              	.LVL47:
 651 0000 00B5     		push	{lr}
 652              		.cfi_def_cfa_offset 4
 653              		.cfi_offset 14, -4
 654 0002 0A4B     		ldr	r3, .L52
 655 0004 83B0     		sub	sp, sp, #12
 656              		.cfi_def_cfa_offset 16
 657              		.loc 1 170 0
 658 0006 1A68     		ldr	r2, [r3]
 659 0008 0192     		str	r2, [sp, #4]
 660              		.loc 1 171 0
 661 000a 0228     		cmp	r0, #2
 662              		.loc 1 172 0
 663 000c 9BBF     		ittet	ls
 664 000e 084A     		ldrls	r2, .L52+4
 665 0010 1430     		addls	r0, r0, #20
 666              	.LVL48:
 667              		.loc 1 174 0
 668 0012 0020     		movhi	r0, #0
 669              		.loc 1 172 0
 670 0014 32F91000 		ldrshls	r0, [r2, r0, lsl #1]
 671              		.loc 1 175 0
 672 0018 019A     		ldr	r2, [sp, #4]
 673 001a 1B68     		ldr	r3, [r3]
 674 001c 9A42     		cmp	r2, r3
 675 001e 02D1     		bne	.L51
 676 0020 03B0     		add	sp, sp, #12
 677              		.cfi_remember_state
 678              		.cfi_def_cfa_offset 4
 679              		@ sp needed
 680 0022 5DF804FB 		ldr	pc, [sp], #4
 681              	.L51:
 682              		.cfi_restore_state
 683 0026 FFF7FEFF 		bl	__stack_chk_fail
 684              	.LVL49:
ARM GAS  C:\Users\mathi\AppData\Local\Temp\ccXQHLKW.s 			page 13


 685              	.L53:
 686 002a 00BF     		.align	2
 687              	.L52:
 688 002c 00000000 		.word	__stack_chk_guard
 689 0030 00000000 		.word	.LANCHOR1
 690              		.cfi_endproc
 691              	.LFE260:
 692              		.size	get_acc, .-get_acc
 693              		.section	.text.get_acc_all,"ax",%progbits
 694              		.align	1
 695              		.p2align 4,,15
 696              		.global	get_acc_all
 697              		.syntax unified
 698              		.thumb
 699              		.thumb_func
 700              		.fpu fpv4-sp-d16
 701              		.type	get_acc_all, %function
 702              	get_acc_all:
 703              	.LFB261:
 704              		.loc 1 177 0
 705              		.cfi_startproc
 706              		@ args = 0, pretend = 0, frame = 8
 707              		@ frame_needed = 0, uses_anonymous_args = 0
 708              	.LVL50:
 709 0000 10B5     		push	{r4, lr}
 710              		.cfi_def_cfa_offset 8
 711              		.cfi_offset 4, -8
 712              		.cfi_offset 14, -4
 713              		.loc 1 178 0
 714 0002 0B4B     		ldr	r3, .L58
 715              		.loc 1 177 0
 716 0004 0B4A     		ldr	r2, .L58+4
 717              		.loc 1 178 0
 718 0006 B3F92840 		ldrsh	r4, [r3, #40]
 719              		.loc 1 177 0
 720 000a 1168     		ldr	r1, [r2]
 721              		.loc 1 178 0
 722 000c 0480     		strh	r4, [r0]	@ movhi
 723              		.loc 1 177 0
 724 000e 82B0     		sub	sp, sp, #8
 725              		.cfi_def_cfa_offset 16
 726              		.loc 1 179 0
 727 0010 B3F92A40 		ldrsh	r4, [r3, #42]
 728              		.loc 1 177 0
 729 0014 0191     		str	r1, [sp, #4]
 730              		.loc 1 179 0
 731 0016 4480     		strh	r4, [r0, #2]	@ movhi
 732              		.loc 1 181 0
 733 0018 0199     		ldr	r1, [sp, #4]
 734 001a 1268     		ldr	r2, [r2]
 735              		.loc 1 180 0
 736 001c B3F92C30 		ldrsh	r3, [r3, #44]
 737 0020 8380     		strh	r3, [r0, #4]	@ movhi
 738              		.loc 1 181 0
 739 0022 9142     		cmp	r1, r2
 740 0024 01D1     		bne	.L57
 741 0026 02B0     		add	sp, sp, #8
ARM GAS  C:\Users\mathi\AppData\Local\Temp\ccXQHLKW.s 			page 14


 742              		.cfi_remember_state
 743              		.cfi_def_cfa_offset 8
 744              		@ sp needed
 745 0028 10BD     		pop	{r4, pc}
 746              	.L57:
 747              		.cfi_restore_state
 748 002a FFF7FEFF 		bl	__stack_chk_fail
 749              	.LVL51:
 750              	.L59:
 751 002e 00BF     		.align	2
 752              	.L58:
 753 0030 00000000 		.word	.LANCHOR1
 754 0034 00000000 		.word	__stack_chk_guard
 755              		.cfi_endproc
 756              	.LFE261:
 757              		.size	get_acc_all, .-get_acc_all
 758              		.section	.text.get_acc_filtered,"ax",%progbits
 759              		.align	1
 760              		.p2align 4,,15
 761              		.global	get_acc_filtered
 762              		.syntax unified
 763              		.thumb
 764              		.thumb_func
 765              		.fpu fpv4-sp-d16
 766              		.type	get_acc_filtered, %function
 767              	get_acc_filtered:
 768              	.LFB262:
 769              		.loc 1 184 0
 770              		.cfi_startproc
 771              		@ args = 0, pretend = 0, frame = 8
 772              		@ frame_needed = 0, uses_anonymous_args = 0
 773              	.LVL52:
 774 0000 70B5     		push	{r4, r5, r6, lr}
 775              		.cfi_def_cfa_offset 16
 776              		.cfi_offset 4, -16
 777              		.cfi_offset 5, -12
 778              		.cfi_offset 6, -8
 779              		.cfi_offset 14, -4
 780 0002 144D     		ldr	r5, .L73
 781 0004 82B0     		sub	sp, sp, #8
 782              		.cfi_def_cfa_offset 24
 783              		.loc 1 184 0
 784 0006 2B68     		ldr	r3, [r5]
 785 0008 0193     		str	r3, [sp, #4]
 786              		.loc 1 185 0
 787 000a 0228     		cmp	r0, #2
 788 000c 1ED8     		bhi	.L65
 789              	.LBB94:
 790              	.LBB95:
 791              		.loc 1 186 0
 792 000e 124B     		ldr	r3, .L73+4
 793 0010 1B78     		ldrb	r3, [r3]	@ zero_extendqisi2
 794 0012 0446     		mov	r4, r0
 795              	.LVL53:
 796 0014 4BB9     		cbnz	r3, .L71
 797              	.LVL54:
 798              	.L62:
ARM GAS  C:\Users\mathi\AppData\Local\Temp\ccXQHLKW.s 			page 15


 799              		.loc 1 195 0
 800 0016 2034     		adds	r4, r4, #32
 801              	.LVL55:
 802 0018 104B     		ldr	r3, .L73+8
 803 001a 33F91400 		ldrsh	r0, [r3, r4, lsl #1]
 804              	.LVL56:
 805              	.L61:
 806              	.LBE95:
 807              	.LBE94:
 808              		.loc 1 198 0
 809 001e 019A     		ldr	r2, [sp, #4]
 810 0020 2B68     		ldr	r3, [r5]
 811 0022 9A42     		cmp	r2, r3
 812 0024 14D1     		bne	.L72
 813 0026 02B0     		add	sp, sp, #8
 814              		.cfi_remember_state
 815              		.cfi_def_cfa_offset 16
 816              		@ sp needed
 817 0028 70BD     		pop	{r4, r5, r6, pc}
 818              	.LVL57:
 819              	.L71:
 820              		.cfi_restore_state
 821              	.LBB97:
 822              	.LBB96:
 823              		.loc 1 189 0
 824 002a 0D48     		ldr	r0, .L73+12
 825              	.LVL58:
 826              		.loc 1 187 0
 827 002c 0D4A     		ldr	r2, .L73+16
 828              		.loc 1 188 0
 829 002e 0E4E     		ldr	r6, .L73+20
 830              		.loc 1 190 0
 831 0030 0E4B     		ldr	r3, .L73+24
 832              		.loc 1 189 0
 833 0032 0470     		strb	r4, [r0]
 834              		.loc 1 187 0
 835 0034 0020     		movs	r0, #0
 836 0036 1070     		strb	r0, [r2]
 837              		.loc 1 188 0
 838 0038 0122     		movs	r2, #1
 839 003a 3270     		strb	r2, [r6]
 840              		.loc 1 190 0
 841 003c 1970     		strb	r1, [r3]
 842              	.LVL59:
 843              	.L63:
 844              		.loc 1 192 0
 845 003e 1420     		movs	r0, #20
 846 0040 FFF7FEFF 		bl	chThdSleep
 847              	.LVL60:
 848              		.loc 1 191 0
 849 0044 3378     		ldrb	r3, [r6]	@ zero_extendqisi2
 850 0046 002B     		cmp	r3, #0
 851 0048 F9D1     		bne	.L63
 852 004a E4E7     		b	.L62
 853              	.LVL61:
 854              	.L65:
 855              	.LBE96:
ARM GAS  C:\Users\mathi\AppData\Local\Temp\ccXQHLKW.s 			page 16


 856              	.LBE97:
 857              		.loc 1 197 0
 858 004c 0020     		movs	r0, #0
 859              	.LVL62:
 860 004e E6E7     		b	.L61
 861              	.LVL63:
 862              	.L72:
 863              		.loc 1 198 0
 864 0050 FFF7FEFF 		bl	__stack_chk_fail
 865              	.LVL64:
 866              	.L74:
 867              		.align	2
 868              	.L73:
 869 0054 00000000 		.word	__stack_chk_guard
 870 0058 00000000 		.word	.LANCHOR3
 871 005c 00000000 		.word	.LANCHOR1
 872 0060 00000000 		.word	.LANCHOR6
 873 0064 00000000 		.word	.LANCHOR5
 874 0068 00000000 		.word	.LANCHOR4
 875 006c 00000000 		.word	.LANCHOR7
 876              		.cfi_endproc
 877              	.LFE262:
 878              		.size	get_acc_filtered, .-get_acc_filtered
 879              		.section	.text.calibrate_acc,"ax",%progbits
 880              		.align	1
 881              		.p2align 4,,15
 882              		.global	calibrate_acc
 883              		.syntax unified
 884              		.thumb
 885              		.thumb_func
 886              		.fpu fpv4-sp-d16
 887              		.type	calibrate_acc, %function
 888              	calibrate_acc:
 889              	.LFB263:
 890              		.loc 1 201 0
 891              		.cfi_startproc
 892              		@ args = 0, pretend = 0, frame = 8
 893              		@ frame_needed = 0, uses_anonymous_args = 0
 894 0000 2DE9F047 		push	{r4, r5, r6, r7, r8, r9, r10, lr}
 895              		.cfi_def_cfa_offset 32
 896              		.cfi_offset 4, -32
 897              		.cfi_offset 5, -28
 898              		.cfi_offset 6, -24
 899              		.cfi_offset 7, -20
 900              		.cfi_offset 8, -16
 901              		.cfi_offset 9, -12
 902              		.cfi_offset 10, -8
 903              		.cfi_offset 14, -4
 904              		.loc 1 202 0
 905 0004 284E     		ldr	r6, .L97
 906              		.loc 1 201 0
 907 0006 294D     		ldr	r5, .L97+4
 908              		.loc 1 202 0
 909 0008 3378     		ldrb	r3, [r6]	@ zero_extendqisi2
 910              		.loc 1 201 0
 911 000a 2A68     		ldr	r2, [r5]
 912 000c 82B0     		sub	sp, sp, #8
ARM GAS  C:\Users\mathi\AppData\Local\Temp\ccXQHLKW.s 			page 17


 913              		.cfi_def_cfa_offset 40
 914              		.loc 1 201 0
 915 000e 0192     		str	r2, [sp, #4]
 916              		.loc 1 202 0
 917 0010 33B9     		cbnz	r3, .L95
 918              	.L75:
 919              		.loc 1 211 0
 920 0012 019A     		ldr	r2, [sp, #4]
 921 0014 2B68     		ldr	r3, [r5]
 922 0016 9A42     		cmp	r2, r3
 923 0018 43D1     		bne	.L96
 924 001a 02B0     		add	sp, sp, #8
 925              		.cfi_remember_state
 926              		.cfi_def_cfa_offset 32
 927              		@ sp needed
 928 001c BDE8F087 		pop	{r4, r5, r6, r7, r8, r9, r10, pc}
 929              	.L95:
 930              		.cfi_restore_state
 931              		.loc 1 203 0
 932 0020 234F     		ldr	r7, .L97+8
 933              	.LBB110:
 934              	.LBB111:
 935              	.LBB112:
 936              		.loc 1 188 0
 937 0022 244C     		ldr	r4, .L97+12
 938              		.loc 1 187 0
 939 0024 DFF890A0 		ldr	r10, .L97+16
 940              		.loc 1 189 0
 941 0028 DFF89090 		ldr	r9, .L97+20
 942              		.loc 1 190 0
 943 002c DFF89080 		ldr	r8, .L97+24
 944              	.LBE112:
 945              	.LBE111:
 946              	.LBE110:
 947              		.loc 1 203 0
 948 0030 0122     		movs	r2, #1
 949              	.LBB117:
 950              	.LBB115:
 951              	.LBB113:
 952              		.loc 1 187 0
 953 0032 0023     		movs	r3, #0
 954              	.LBE113:
 955              	.LBE115:
 956              	.LBE117:
 957              		.loc 1 203 0
 958 0034 3A70     		strb	r2, [r7]
 959              	.LVL65:
 960              	.LBB118:
 961              	.LBB116:
 962              	.LBB114:
 963              		.loc 1 188 0
 964 0036 2270     		strb	r2, [r4]
 965              		.loc 1 190 0
 966 0038 3222     		movs	r2, #50
 967              		.loc 1 187 0
 968 003a 8AF80030 		strb	r3, [r10]
 969              		.loc 1 189 0
ARM GAS  C:\Users\mathi\AppData\Local\Temp\ccXQHLKW.s 			page 18


 970 003e 89F80030 		strb	r3, [r9]
 971              		.loc 1 190 0
 972 0042 88F80020 		strb	r2, [r8]
 973              	.L77:
 974              		.loc 1 192 0
 975 0046 1420     		movs	r0, #20
 976 0048 FFF7FEFF 		bl	chThdSleep
 977              	.LVL66:
 978              		.loc 1 191 0
 979 004c 2378     		ldrb	r3, [r4]	@ zero_extendqisi2
 980 004e 002B     		cmp	r3, #0
 981 0050 F9D1     		bne	.L77
 982              	.LVL67:
 983              	.LBE114:
 984              	.LBE116:
 985              	.LBE118:
 986              	.LBB119:
 987              	.LBB120:
 988              	.LBB121:
 989              		.loc 1 186 0
 990 0052 3178     		ldrb	r1, [r6]	@ zero_extendqisi2
 991              	.LBE121:
 992              	.LBE120:
 993              	.LBE119:
 994              		.loc 1 205 0
 995 0054 0122     		movs	r2, #1
 996 0056 3A70     		strb	r2, [r7]
 997              	.LVL68:
 998              	.LBB124:
 999              	.LBB123:
 1000              	.LBB122:
 1001              		.loc 1 186 0
 1002 0058 01B3     		cbz	r1, .L78
 1003              		.loc 1 190 0
 1004 005a 3221     		movs	r1, #50
 1005              		.loc 1 187 0
 1006 005c 8AF80030 		strb	r3, [r10]
 1007              		.loc 1 188 0
 1008 0060 2270     		strb	r2, [r4]
 1009              		.loc 1 189 0
 1010 0062 89F80020 		strb	r2, [r9]
 1011              		.loc 1 190 0
 1012 0066 88F80010 		strb	r1, [r8]
 1013              	.L79:
 1014              		.loc 1 192 0
 1015 006a 1420     		movs	r0, #20
 1016 006c FFF7FEFF 		bl	chThdSleep
 1017              	.LVL69:
 1018              		.loc 1 191 0
 1019 0070 2378     		ldrb	r3, [r4]	@ zero_extendqisi2
 1020 0072 002B     		cmp	r3, #0
 1021 0074 F9D1     		bne	.L79
 1022 0076 3178     		ldrb	r1, [r6]	@ zero_extendqisi2
 1023              	.LVL70:
 1024              	.LBE122:
 1025              	.LBE123:
 1026              	.LBE124:
ARM GAS  C:\Users\mathi\AppData\Local\Temp\ccXQHLKW.s 			page 19


 1027              		.loc 1 207 0
 1028 0078 0122     		movs	r2, #1
 1029 007a 3A70     		strb	r2, [r7]
 1030              	.LVL71:
 1031              	.LBB125:
 1032              	.LBB126:
 1033              	.LBB127:
 1034              		.loc 1 186 0
 1035 007c 71B1     		cbz	r1, .L78
 1036              		.loc 1 189 0
 1037 007e 0221     		movs	r1, #2
 1038              		.loc 1 187 0
 1039 0080 8AF80030 		strb	r3, [r10]
 1040              		.loc 1 190 0
 1041 0084 3223     		movs	r3, #50
 1042              		.loc 1 188 0
 1043 0086 2270     		strb	r2, [r4]
 1044              		.loc 1 189 0
 1045 0088 89F80010 		strb	r1, [r9]
 1046              		.loc 1 190 0
 1047 008c 88F80030 		strb	r3, [r8]
 1048              	.L80:
 1049              		.loc 1 192 0
 1050 0090 1420     		movs	r0, #20
 1051 0092 FFF7FEFF 		bl	chThdSleep
 1052              	.LVL72:
 1053              		.loc 1 191 0
 1054 0096 2378     		ldrb	r3, [r4]	@ zero_extendqisi2
 1055 0098 002B     		cmp	r3, #0
 1056 009a F9D1     		bne	.L80
 1057              	.LVL73:
 1058              	.L78:
 1059              	.LBE127:
 1060              	.LBE126:
 1061              	.LBE125:
 1062              		.loc 1 209 0
 1063 009c 0023     		movs	r3, #0
 1064 009e 3B70     		strb	r3, [r7]
 1065              		.loc 1 211 0
 1066 00a0 B7E7     		b	.L75
 1067              	.L96:
 1068 00a2 FFF7FEFF 		bl	__stack_chk_fail
 1069              	.LVL74:
 1070              	.L98:
 1071 00a6 00BF     		.align	2
 1072              	.L97:
 1073 00a8 00000000 		.word	.LANCHOR3
 1074 00ac 00000000 		.word	__stack_chk_guard
 1075 00b0 00000000 		.word	.LANCHOR8
 1076 00b4 00000000 		.word	.LANCHOR4
 1077 00b8 00000000 		.word	.LANCHOR5
 1078 00bc 00000000 		.word	.LANCHOR6
 1079 00c0 00000000 		.word	.LANCHOR7
 1080              		.cfi_endproc
 1081              	.LFE263:
 1082              		.size	calibrate_acc, .-calibrate_acc
 1083              		.section	.text.get_acc_offset,"ax",%progbits
ARM GAS  C:\Users\mathi\AppData\Local\Temp\ccXQHLKW.s 			page 20


 1084              		.align	1
 1085              		.p2align 4,,15
 1086              		.global	get_acc_offset
 1087              		.syntax unified
 1088              		.thumb
 1089              		.thumb_func
 1090              		.fpu fpv4-sp-d16
 1091              		.type	get_acc_offset, %function
 1092              	get_acc_offset:
 1093              	.LFB264:
 1094              		.loc 1 214 0
 1095              		.cfi_startproc
 1096              		@ args = 0, pretend = 0, frame = 8
 1097              		@ frame_needed = 0, uses_anonymous_args = 0
 1098              	.LVL75:
 1099 0000 00B5     		push	{lr}
 1100              		.cfi_def_cfa_offset 4
 1101              		.cfi_offset 14, -4
 1102 0002 0B4B     		ldr	r3, .L105
 1103 0004 83B0     		sub	sp, sp, #12
 1104              		.cfi_def_cfa_offset 16
 1105              		.loc 1 214 0
 1106 0006 1A68     		ldr	r2, [r3]
 1107 0008 0192     		str	r2, [sp, #4]
 1108              		.loc 1 215 0
 1109 000a 0228     		cmp	r0, #2
 1110              		.loc 1 216 0
 1111 000c 9CBF     		itt	ls
 1112 000e 094A     		ldrls	r2, .L105+4
 1113 0010 02EB4000 		addls	r0, r2, r0, lsl #1
 1114              	.LVL76:
 1115              		.loc 1 219 0
 1116 0014 019A     		ldr	r2, [sp, #4]
 1117 0016 1B68     		ldr	r3, [r3]
 1118              		.loc 1 216 0
 1119 0018 94BF     		ite	ls
 1120 001a B0F93400 		ldrshls	r0, [r0, #52]
 1121              		.loc 1 218 0
 1122 001e 0020     		movhi	r0, #0
 1123              		.loc 1 219 0
 1124 0020 9A42     		cmp	r2, r3
 1125 0022 02D1     		bne	.L104
 1126 0024 03B0     		add	sp, sp, #12
 1127              		.cfi_remember_state
 1128              		.cfi_def_cfa_offset 4
 1129              		@ sp needed
 1130 0026 5DF804FB 		ldr	pc, [sp], #4
 1131              	.L104:
 1132              		.cfi_restore_state
 1133 002a FFF7FEFF 		bl	__stack_chk_fail
 1134              	.LVL77:
 1135              	.L106:
 1136 002e 00BF     		.align	2
 1137              	.L105:
 1138 0030 00000000 		.word	__stack_chk_guard
 1139 0034 00000000 		.word	.LANCHOR1
 1140              		.cfi_endproc
ARM GAS  C:\Users\mathi\AppData\Local\Temp\ccXQHLKW.s 			page 21


 1141              	.LFE264:
 1142              		.size	get_acc_offset, .-get_acc_offset
 1143              		.section	.text.get_acceleration,"ax",%progbits
 1144              		.align	1
 1145              		.p2align 4,,15
 1146              		.global	get_acceleration
 1147              		.syntax unified
 1148              		.thumb
 1149              		.thumb_func
 1150              		.fpu fpv4-sp-d16
 1151              		.type	get_acceleration, %function
 1152              	get_acceleration:
 1153              	.LFB265:
 1154              		.loc 1 221 0
 1155              		.cfi_startproc
 1156              		@ args = 0, pretend = 0, frame = 8
 1157              		@ frame_needed = 0, uses_anonymous_args = 0
 1158              	.LVL78:
 1159 0000 00B5     		push	{lr}
 1160              		.cfi_def_cfa_offset 4
 1161              		.cfi_offset 14, -4
 1162 0002 0B4B     		ldr	r3, .L113
 1163 0004 83B0     		sub	sp, sp, #12
 1164              		.cfi_def_cfa_offset 16
 1165              		.loc 1 221 0
 1166 0006 1A68     		ldr	r2, [r3]
 1167 0008 0192     		str	r2, [sp, #4]
 1168              		.loc 1 222 0
 1169 000a 0228     		cmp	r0, #2
 1170              		.loc 1 223 0
 1171 000c 96BF     		itet	ls
 1172 000e 094A     		ldrls	r2, .L113+4
 1173              		.loc 1 225 0
 1174 0010 9FED090A 		vldrhi.32	s0, .L113+8
 1175              		.loc 1 223 0
 1176 0014 02EB8000 		addls	r0, r2, r0, lsl #2
 1177              	.LVL79:
 1178              		.loc 1 226 0
 1179 0018 019A     		ldr	r2, [sp, #4]
 1180 001a 1B68     		ldr	r3, [r3]
 1181              		.loc 1 223 0
 1182 001c 98BF     		it	ls
 1183 001e 90ED000A 		vldrls.32	s0, [r0]
 1184              		.loc 1 226 0
 1185 0022 9A42     		cmp	r2, r3
 1186 0024 02D1     		bne	.L112
 1187 0026 03B0     		add	sp, sp, #12
 1188              		.cfi_remember_state
 1189              		.cfi_def_cfa_offset 4
 1190              		@ sp needed
 1191 0028 5DF804FB 		ldr	pc, [sp], #4
 1192              	.L112:
 1193              		.cfi_restore_state
 1194 002c FFF7FEFF 		bl	__stack_chk_fail
 1195              	.LVL80:
 1196              	.L114:
 1197              		.align	2
ARM GAS  C:\Users\mathi\AppData\Local\Temp\ccXQHLKW.s 			page 22


 1198              	.L113:
 1199 0030 00000000 		.word	__stack_chk_guard
 1200 0034 00000000 		.word	.LANCHOR1
 1201 0038 00000000 		.word	0
 1202              		.cfi_endproc
 1203              	.LFE265:
 1204              		.size	get_acceleration, .-get_acceleration
 1205              		.section	.text.get_gyro,"ax",%progbits
 1206              		.align	1
 1207              		.p2align 4,,15
 1208              		.global	get_gyro
 1209              		.syntax unified
 1210              		.thumb
 1211              		.thumb_func
 1212              		.fpu fpv4-sp-d16
 1213              		.type	get_gyro, %function
 1214              	get_gyro:
 1215              	.LFB266:
 1216              		.loc 1 228 0
 1217              		.cfi_startproc
 1218              		@ args = 0, pretend = 0, frame = 8
 1219              		@ frame_needed = 0, uses_anonymous_args = 0
 1220              	.LVL81:
 1221 0000 00B5     		push	{lr}
 1222              		.cfi_def_cfa_offset 4
 1223              		.cfi_offset 14, -4
 1224 0002 0B4B     		ldr	r3, .L121
 1225 0004 83B0     		sub	sp, sp, #12
 1226              		.cfi_def_cfa_offset 16
 1227              		.loc 1 228 0
 1228 0006 1A68     		ldr	r2, [r3]
 1229 0008 0192     		str	r2, [sp, #4]
 1230              		.loc 1 229 0
 1231 000a 0228     		cmp	r0, #2
 1232              		.loc 1 230 0
 1233 000c 9CBF     		itt	ls
 1234 000e 094A     		ldrls	r2, .L121+4
 1235 0010 02EB4000 		addls	r0, r2, r0, lsl #1
 1236              	.LVL82:
 1237              		.loc 1 233 0
 1238 0014 019A     		ldr	r2, [sp, #4]
 1239 0016 1B68     		ldr	r3, [r3]
 1240              		.loc 1 230 0
 1241 0018 94BF     		ite	ls
 1242 001a B0F92E00 		ldrshls	r0, [r0, #46]
 1243              		.loc 1 232 0
 1244 001e 0020     		movhi	r0, #0
 1245              		.loc 1 233 0
 1246 0020 9A42     		cmp	r2, r3
 1247 0022 02D1     		bne	.L120
 1248 0024 03B0     		add	sp, sp, #12
 1249              		.cfi_remember_state
 1250              		.cfi_def_cfa_offset 4
 1251              		@ sp needed
 1252 0026 5DF804FB 		ldr	pc, [sp], #4
 1253              	.L120:
 1254              		.cfi_restore_state
ARM GAS  C:\Users\mathi\AppData\Local\Temp\ccXQHLKW.s 			page 23


 1255 002a FFF7FEFF 		bl	__stack_chk_fail
 1256              	.LVL83:
 1257              	.L122:
 1258 002e 00BF     		.align	2
 1259              	.L121:
 1260 0030 00000000 		.word	__stack_chk_guard
 1261 0034 00000000 		.word	.LANCHOR1
 1262              		.cfi_endproc
 1263              	.LFE266:
 1264              		.size	get_gyro, .-get_gyro
 1265              		.section	.text.get_gyro_all,"ax",%progbits
 1266              		.align	1
 1267              		.p2align 4,,15
 1268              		.global	get_gyro_all
 1269              		.syntax unified
 1270              		.thumb
 1271              		.thumb_func
 1272              		.fpu fpv4-sp-d16
 1273              		.type	get_gyro_all, %function
 1274              	get_gyro_all:
 1275              	.LFB267:
 1276              		.loc 1 235 0
 1277              		.cfi_startproc
 1278              		@ args = 0, pretend = 0, frame = 8
 1279              		@ frame_needed = 0, uses_anonymous_args = 0
 1280              	.LVL84:
 1281 0000 10B5     		push	{r4, lr}
 1282              		.cfi_def_cfa_offset 8
 1283              		.cfi_offset 4, -8
 1284              		.cfi_offset 14, -4
 1285              		.loc 1 236 0
 1286 0002 0B4B     		ldr	r3, .L127
 1287              		.loc 1 235 0
 1288 0004 0B4A     		ldr	r2, .L127+4
 1289              		.loc 1 236 0
 1290 0006 B3F92E40 		ldrsh	r4, [r3, #46]
 1291              		.loc 1 235 0
 1292 000a 1168     		ldr	r1, [r2]
 1293              		.loc 1 236 0
 1294 000c 0480     		strh	r4, [r0]	@ movhi
 1295              		.loc 1 235 0
 1296 000e 82B0     		sub	sp, sp, #8
 1297              		.cfi_def_cfa_offset 16
 1298              		.loc 1 237 0
 1299 0010 B3F93040 		ldrsh	r4, [r3, #48]
 1300              		.loc 1 235 0
 1301 0014 0191     		str	r1, [sp, #4]
 1302              		.loc 1 237 0
 1303 0016 4480     		strh	r4, [r0, #2]	@ movhi
 1304              		.loc 1 239 0
 1305 0018 0199     		ldr	r1, [sp, #4]
 1306 001a 1268     		ldr	r2, [r2]
 1307              		.loc 1 238 0
 1308 001c B3F93230 		ldrsh	r3, [r3, #50]
 1309 0020 8380     		strh	r3, [r0, #4]	@ movhi
 1310              		.loc 1 239 0
 1311 0022 9142     		cmp	r1, r2
ARM GAS  C:\Users\mathi\AppData\Local\Temp\ccXQHLKW.s 			page 24


 1312 0024 01D1     		bne	.L126
 1313 0026 02B0     		add	sp, sp, #8
 1314              		.cfi_remember_state
 1315              		.cfi_def_cfa_offset 8
 1316              		@ sp needed
 1317 0028 10BD     		pop	{r4, pc}
 1318              	.L126:
 1319              		.cfi_restore_state
 1320 002a FFF7FEFF 		bl	__stack_chk_fail
 1321              	.LVL85:
 1322              	.L128:
 1323 002e 00BF     		.align	2
 1324              	.L127:
 1325 0030 00000000 		.word	.LANCHOR1
 1326 0034 00000000 		.word	__stack_chk_guard
 1327              		.cfi_endproc
 1328              	.LFE267:
 1329              		.size	get_gyro_all, .-get_gyro_all
 1330              		.section	.text.get_gyro_filtered,"ax",%progbits
 1331              		.align	1
 1332              		.p2align 4,,15
 1333              		.global	get_gyro_filtered
 1334              		.syntax unified
 1335              		.thumb
 1336              		.thumb_func
 1337              		.fpu fpv4-sp-d16
 1338              		.type	get_gyro_filtered, %function
 1339              	get_gyro_filtered:
 1340              	.LFB268:
 1341              		.loc 1 241 0
 1342              		.cfi_startproc
 1343              		@ args = 0, pretend = 0, frame = 8
 1344              		@ frame_needed = 0, uses_anonymous_args = 0
 1345              	.LVL86:
 1346 0000 70B5     		push	{r4, r5, r6, lr}
 1347              		.cfi_def_cfa_offset 16
 1348              		.cfi_offset 4, -16
 1349              		.cfi_offset 5, -12
 1350              		.cfi_offset 6, -8
 1351              		.cfi_offset 14, -4
 1352 0002 154C     		ldr	r4, .L142
 1353 0004 82B0     		sub	sp, sp, #8
 1354              		.cfi_def_cfa_offset 24
 1355              		.loc 1 241 0
 1356 0006 2368     		ldr	r3, [r4]
 1357 0008 0193     		str	r3, [sp, #4]
 1358              		.loc 1 242 0
 1359 000a 0228     		cmp	r0, #2
 1360 000c 1FD8     		bhi	.L134
 1361              	.LBB130:
 1362              	.LBB131:
 1363              		.loc 1 243 0
 1364 000e 134B     		ldr	r3, .L142+4
 1365 0010 1B78     		ldrb	r3, [r3]	@ zero_extendqisi2
 1366 0012 0546     		mov	r5, r0
 1367              	.LVL87:
 1368 0014 53B9     		cbnz	r3, .L140
ARM GAS  C:\Users\mathi\AppData\Local\Temp\ccXQHLKW.s 			page 25


 1369              	.LVL88:
 1370              	.L131:
 1371              		.loc 1 252 0
 1372 0016 124B     		ldr	r3, .L142+8
 1373 0018 03EB4505 		add	r5, r3, r5, lsl #1
 1374              	.LVL89:
 1375 001c B5F94600 		ldrsh	r0, [r5, #70]
 1376              	.LVL90:
 1377              	.L130:
 1378              	.LBE131:
 1379              	.LBE130:
 1380              		.loc 1 255 0
 1381 0020 019A     		ldr	r2, [sp, #4]
 1382 0022 2368     		ldr	r3, [r4]
 1383 0024 9A42     		cmp	r2, r3
 1384 0026 14D1     		bne	.L141
 1385 0028 02B0     		add	sp, sp, #8
 1386              		.cfi_remember_state
 1387              		.cfi_def_cfa_offset 16
 1388              		@ sp needed
 1389 002a 70BD     		pop	{r4, r5, r6, pc}
 1390              	.LVL91:
 1391              	.L140:
 1392              		.cfi_restore_state
 1393              	.LBB133:
 1394              	.LBB132:
 1395              		.loc 1 246 0
 1396 002c 0D48     		ldr	r0, .L142+12
 1397              	.LVL92:
 1398              		.loc 1 244 0
 1399 002e 0E4A     		ldr	r2, .L142+16
 1400              		.loc 1 245 0
 1401 0030 0E4E     		ldr	r6, .L142+20
 1402              		.loc 1 247 0
 1403 0032 0F4B     		ldr	r3, .L142+24
 1404              		.loc 1 246 0
 1405 0034 0570     		strb	r5, [r0]
 1406              		.loc 1 244 0
 1407 0036 0020     		movs	r0, #0
 1408 0038 1070     		strb	r0, [r2]
 1409              		.loc 1 245 0
 1410 003a 0122     		movs	r2, #1
 1411 003c 3270     		strb	r2, [r6]
 1412              		.loc 1 247 0
 1413 003e 1970     		strb	r1, [r3]
 1414              	.LVL93:
 1415              	.L132:
 1416              		.loc 1 249 0
 1417 0040 1420     		movs	r0, #20
 1418 0042 FFF7FEFF 		bl	chThdSleep
 1419              	.LVL94:
 1420              		.loc 1 248 0
 1421 0046 3378     		ldrb	r3, [r6]	@ zero_extendqisi2
 1422 0048 002B     		cmp	r3, #0
 1423 004a F9D1     		bne	.L132
 1424 004c E3E7     		b	.L131
 1425              	.LVL95:
ARM GAS  C:\Users\mathi\AppData\Local\Temp\ccXQHLKW.s 			page 26


 1426              	.L134:
 1427              	.LBE132:
 1428              	.LBE133:
 1429              		.loc 1 254 0
 1430 004e 0020     		movs	r0, #0
 1431              	.LVL96:
 1432 0050 E6E7     		b	.L130
 1433              	.LVL97:
 1434              	.L141:
 1435              		.loc 1 255 0
 1436 0052 FFF7FEFF 		bl	__stack_chk_fail
 1437              	.LVL98:
 1438              	.L143:
 1439 0056 00BF     		.align	2
 1440              	.L142:
 1441 0058 00000000 		.word	__stack_chk_guard
 1442 005c 00000000 		.word	.LANCHOR3
 1443 0060 00000000 		.word	.LANCHOR1
 1444 0064 00000000 		.word	.LANCHOR11
 1445 0068 00000000 		.word	.LANCHOR10
 1446 006c 00000000 		.word	.LANCHOR9
 1447 0070 00000000 		.word	.LANCHOR12
 1448              		.cfi_endproc
 1449              	.LFE268:
 1450              		.size	get_gyro_filtered, .-get_gyro_filtered
 1451              		.section	.text.get_gyro_offset,"ax",%progbits
 1452              		.align	1
 1453              		.p2align 4,,15
 1454              		.global	get_gyro_offset
 1455              		.syntax unified
 1456              		.thumb
 1457              		.thumb_func
 1458              		.fpu fpv4-sp-d16
 1459              		.type	get_gyro_offset, %function
 1460              	get_gyro_offset:
 1461              	.LFB269:
 1462              		.loc 1 257 0
 1463              		.cfi_startproc
 1464              		@ args = 0, pretend = 0, frame = 8
 1465              		@ frame_needed = 0, uses_anonymous_args = 0
 1466              	.LVL99:
 1467 0000 00B5     		push	{lr}
 1468              		.cfi_def_cfa_offset 4
 1469              		.cfi_offset 14, -4
 1470 0002 0B4B     		ldr	r3, .L150
 1471 0004 83B0     		sub	sp, sp, #12
 1472              		.cfi_def_cfa_offset 16
 1473              		.loc 1 257 0
 1474 0006 1A68     		ldr	r2, [r3]
 1475 0008 0192     		str	r2, [sp, #4]
 1476              		.loc 1 258 0
 1477 000a 0228     		cmp	r0, #2
 1478              		.loc 1 259 0
 1479 000c 9CBF     		itt	ls
 1480 000e 094A     		ldrls	r2, .L150+4
 1481 0010 02EB4000 		addls	r0, r2, r0, lsl #1
 1482              	.LVL100:
ARM GAS  C:\Users\mathi\AppData\Local\Temp\ccXQHLKW.s 			page 27


 1483              		.loc 1 262 0
 1484 0014 019A     		ldr	r2, [sp, #4]
 1485 0016 1B68     		ldr	r3, [r3]
 1486              		.loc 1 259 0
 1487 0018 94BF     		ite	ls
 1488 001a B0F93A00 		ldrshls	r0, [r0, #58]
 1489              		.loc 1 261 0
 1490 001e 0020     		movhi	r0, #0
 1491              		.loc 1 262 0
 1492 0020 9A42     		cmp	r2, r3
 1493 0022 02D1     		bne	.L149
 1494 0024 03B0     		add	sp, sp, #12
 1495              		.cfi_remember_state
 1496              		.cfi_def_cfa_offset 4
 1497              		@ sp needed
 1498 0026 5DF804FB 		ldr	pc, [sp], #4
 1499              	.L149:
 1500              		.cfi_restore_state
 1501 002a FFF7FEFF 		bl	__stack_chk_fail
 1502              	.LVL101:
 1503              	.L151:
 1504 002e 00BF     		.align	2
 1505              	.L150:
 1506 0030 00000000 		.word	__stack_chk_guard
 1507 0034 00000000 		.word	.LANCHOR1
 1508              		.cfi_endproc
 1509              	.LFE269:
 1510              		.size	get_gyro_offset, .-get_gyro_offset
 1511              		.section	.text.calibrate_gyro,"ax",%progbits
 1512              		.align	1
 1513              		.p2align 4,,15
 1514              		.global	calibrate_gyro
 1515              		.syntax unified
 1516              		.thumb
 1517              		.thumb_func
 1518              		.fpu fpv4-sp-d16
 1519              		.type	calibrate_gyro, %function
 1520              	calibrate_gyro:
 1521              	.LFB270:
 1522              		.loc 1 265 0
 1523              		.cfi_startproc
 1524              		@ args = 0, pretend = 0, frame = 8
 1525              		@ frame_needed = 0, uses_anonymous_args = 0
 1526 0000 2DE9F047 		push	{r4, r5, r6, r7, r8, r9, r10, lr}
 1527              		.cfi_def_cfa_offset 32
 1528              		.cfi_offset 4, -32
 1529              		.cfi_offset 5, -28
 1530              		.cfi_offset 6, -24
 1531              		.cfi_offset 7, -20
 1532              		.cfi_offset 8, -16
 1533              		.cfi_offset 9, -12
 1534              		.cfi_offset 10, -8
 1535              		.cfi_offset 14, -4
 1536              		.loc 1 266 0
 1537 0004 284E     		ldr	r6, .L174
 1538              		.loc 1 265 0
 1539 0006 294D     		ldr	r5, .L174+4
ARM GAS  C:\Users\mathi\AppData\Local\Temp\ccXQHLKW.s 			page 28


 1540              		.loc 1 266 0
 1541 0008 3378     		ldrb	r3, [r6]	@ zero_extendqisi2
 1542              		.loc 1 265 0
 1543 000a 2A68     		ldr	r2, [r5]
 1544 000c 82B0     		sub	sp, sp, #8
 1545              		.cfi_def_cfa_offset 40
 1546              		.loc 1 265 0
 1547 000e 0192     		str	r2, [sp, #4]
 1548              		.loc 1 266 0
 1549 0010 33B9     		cbnz	r3, .L172
 1550              	.L152:
 1551              		.loc 1 276 0
 1552 0012 019A     		ldr	r2, [sp, #4]
 1553 0014 2B68     		ldr	r3, [r5]
 1554 0016 9A42     		cmp	r2, r3
 1555 0018 43D1     		bne	.L173
 1556 001a 02B0     		add	sp, sp, #8
 1557              		.cfi_remember_state
 1558              		.cfi_def_cfa_offset 32
 1559              		@ sp needed
 1560 001c BDE8F087 		pop	{r4, r5, r6, r7, r8, r9, r10, pc}
 1561              	.L172:
 1562              		.cfi_restore_state
 1563              		.loc 1 267 0
 1564 0020 234F     		ldr	r7, .L174+8
 1565              	.LBB146:
 1566              	.LBB147:
 1567              	.LBB148:
 1568              		.loc 1 245 0
 1569 0022 244C     		ldr	r4, .L174+12
 1570              		.loc 1 244 0
 1571 0024 DFF890A0 		ldr	r10, .L174+16
 1572              		.loc 1 246 0
 1573 0028 DFF89090 		ldr	r9, .L174+20
 1574              		.loc 1 247 0
 1575 002c DFF89080 		ldr	r8, .L174+24
 1576              	.LBE148:
 1577              	.LBE147:
 1578              	.LBE146:
 1579              		.loc 1 267 0
 1580 0030 0122     		movs	r2, #1
 1581              	.LBB153:
 1582              	.LBB151:
 1583              	.LBB149:
 1584              		.loc 1 244 0
 1585 0032 0023     		movs	r3, #0
 1586              	.LBE149:
 1587              	.LBE151:
 1588              	.LBE153:
 1589              		.loc 1 267 0
 1590 0034 3A70     		strb	r2, [r7]
 1591              	.LVL102:
 1592              	.LBB154:
 1593              	.LBB152:
 1594              	.LBB150:
 1595              		.loc 1 245 0
 1596 0036 2270     		strb	r2, [r4]
ARM GAS  C:\Users\mathi\AppData\Local\Temp\ccXQHLKW.s 			page 29


 1597              		.loc 1 247 0
 1598 0038 3222     		movs	r2, #50
 1599              		.loc 1 244 0
 1600 003a 8AF80030 		strb	r3, [r10]
 1601              		.loc 1 246 0
 1602 003e 89F80030 		strb	r3, [r9]
 1603              		.loc 1 247 0
 1604 0042 88F80020 		strb	r2, [r8]
 1605              	.L154:
 1606              		.loc 1 249 0
 1607 0046 1420     		movs	r0, #20
 1608 0048 FFF7FEFF 		bl	chThdSleep
 1609              	.LVL103:
 1610              		.loc 1 248 0
 1611 004c 2378     		ldrb	r3, [r4]	@ zero_extendqisi2
 1612 004e 002B     		cmp	r3, #0
 1613 0050 F9D1     		bne	.L154
 1614              	.LVL104:
 1615              	.LBE150:
 1616              	.LBE152:
 1617              	.LBE154:
 1618              	.LBB155:
 1619              	.LBB156:
 1620              	.LBB157:
 1621              		.loc 1 243 0
 1622 0052 3178     		ldrb	r1, [r6]	@ zero_extendqisi2
 1623              	.LBE157:
 1624              	.LBE156:
 1625              	.LBE155:
 1626              		.loc 1 269 0
 1627 0054 0122     		movs	r2, #1
 1628 0056 3A70     		strb	r2, [r7]
 1629              	.LVL105:
 1630              	.LBB160:
 1631              	.LBB159:
 1632              	.LBB158:
 1633              		.loc 1 243 0
 1634 0058 01B3     		cbz	r1, .L155
 1635              		.loc 1 247 0
 1636 005a 3221     		movs	r1, #50
 1637              		.loc 1 244 0
 1638 005c 8AF80030 		strb	r3, [r10]
 1639              		.loc 1 245 0
 1640 0060 2270     		strb	r2, [r4]
 1641              		.loc 1 246 0
 1642 0062 89F80020 		strb	r2, [r9]
 1643              		.loc 1 247 0
 1644 0066 88F80010 		strb	r1, [r8]
 1645              	.L156:
 1646              		.loc 1 249 0
 1647 006a 1420     		movs	r0, #20
 1648 006c FFF7FEFF 		bl	chThdSleep
 1649              	.LVL106:
 1650              		.loc 1 248 0
 1651 0070 2378     		ldrb	r3, [r4]	@ zero_extendqisi2
 1652 0072 002B     		cmp	r3, #0
 1653 0074 F9D1     		bne	.L156
ARM GAS  C:\Users\mathi\AppData\Local\Temp\ccXQHLKW.s 			page 30


 1654 0076 3178     		ldrb	r1, [r6]	@ zero_extendqisi2
 1655              	.LVL107:
 1656              	.LBE158:
 1657              	.LBE159:
 1658              	.LBE160:
 1659              		.loc 1 271 0
 1660 0078 0122     		movs	r2, #1
 1661 007a 3A70     		strb	r2, [r7]
 1662              	.LVL108:
 1663              	.LBB161:
 1664              	.LBB162:
 1665              	.LBB163:
 1666              		.loc 1 243 0
 1667 007c 71B1     		cbz	r1, .L155
 1668              		.loc 1 246 0
 1669 007e 0221     		movs	r1, #2
 1670              		.loc 1 244 0
 1671 0080 8AF80030 		strb	r3, [r10]
 1672              		.loc 1 247 0
 1673 0084 3223     		movs	r3, #50
 1674              		.loc 1 245 0
 1675 0086 2270     		strb	r2, [r4]
 1676              		.loc 1 246 0
 1677 0088 89F80010 		strb	r1, [r9]
 1678              		.loc 1 247 0
 1679 008c 88F80030 		strb	r3, [r8]
 1680              	.L157:
 1681              		.loc 1 249 0
 1682 0090 1420     		movs	r0, #20
 1683 0092 FFF7FEFF 		bl	chThdSleep
 1684              	.LVL109:
 1685              		.loc 1 248 0
 1686 0096 2378     		ldrb	r3, [r4]	@ zero_extendqisi2
 1687 0098 002B     		cmp	r3, #0
 1688 009a F9D1     		bne	.L157
 1689              	.LVL110:
 1690              	.L155:
 1691              	.LBE163:
 1692              	.LBE162:
 1693              	.LBE161:
 1694              		.loc 1 273 0
 1695 009c 0023     		movs	r3, #0
 1696 009e 3B70     		strb	r3, [r7]
 1697              		.loc 1 276 0
 1698 00a0 B7E7     		b	.L152
 1699              	.L173:
 1700 00a2 FFF7FEFF 		bl	__stack_chk_fail
 1701              	.LVL111:
 1702              	.L175:
 1703 00a6 00BF     		.align	2
 1704              	.L174:
 1705 00a8 00000000 		.word	.LANCHOR3
 1706 00ac 00000000 		.word	__stack_chk_guard
 1707 00b0 00000000 		.word	.LANCHOR13
 1708 00b4 00000000 		.word	.LANCHOR9
 1709 00b8 00000000 		.word	.LANCHOR10
 1710 00bc 00000000 		.word	.LANCHOR11
ARM GAS  C:\Users\mathi\AppData\Local\Temp\ccXQHLKW.s 			page 31


 1711 00c0 00000000 		.word	.LANCHOR12
 1712              		.cfi_endproc
 1713              	.LFE270:
 1714              		.size	calibrate_gyro, .-calibrate_gyro
 1715              		.section	.text.get_gyro_rate,"ax",%progbits
 1716              		.align	1
 1717              		.p2align 4,,15
 1718              		.global	get_gyro_rate
 1719              		.syntax unified
 1720              		.thumb
 1721              		.thumb_func
 1722              		.fpu fpv4-sp-d16
 1723              		.type	get_gyro_rate, %function
 1724              	get_gyro_rate:
 1725              	.LFB271:
 1726              		.loc 1 278 0
 1727              		.cfi_startproc
 1728              		@ args = 0, pretend = 0, frame = 8
 1729              		@ frame_needed = 0, uses_anonymous_args = 0
 1730              	.LVL112:
 1731 0000 00B5     		push	{lr}
 1732              		.cfi_def_cfa_offset 4
 1733              		.cfi_offset 14, -4
 1734 0002 0B4B     		ldr	r3, .L182
 1735 0004 83B0     		sub	sp, sp, #12
 1736              		.cfi_def_cfa_offset 16
 1737              		.loc 1 278 0
 1738 0006 1A68     		ldr	r2, [r3]
 1739 0008 0192     		str	r2, [sp, #4]
 1740              		.loc 1 279 0
 1741 000a 0228     		cmp	r0, #2
 1742              		.loc 1 280 0
 1743 000c 96BF     		itet	ls
 1744 000e 094A     		ldrls	r2, .L182+4
 1745              		.loc 1 282 0
 1746 0010 9FED090A 		vldrhi.32	s0, .L182+8
 1747              		.loc 1 280 0
 1748 0014 02EB8000 		addls	r0, r2, r0, lsl #2
 1749              	.LVL113:
 1750              		.loc 1 283 0
 1751 0018 019A     		ldr	r2, [sp, #4]
 1752 001a 1B68     		ldr	r3, [r3]
 1753              		.loc 1 280 0
 1754 001c 98BF     		it	ls
 1755 001e 90ED030A 		vldrls.32	s0, [r0, #12]
 1756              		.loc 1 283 0
 1757 0022 9A42     		cmp	r2, r3
 1758 0024 02D1     		bne	.L181
 1759 0026 03B0     		add	sp, sp, #12
 1760              		.cfi_remember_state
 1761              		.cfi_def_cfa_offset 4
 1762              		@ sp needed
 1763 0028 5DF804FB 		ldr	pc, [sp], #4
 1764              	.L181:
 1765              		.cfi_restore_state
 1766 002c FFF7FEFF 		bl	__stack_chk_fail
 1767              	.LVL114:
ARM GAS  C:\Users\mathi\AppData\Local\Temp\ccXQHLKW.s 			page 32


 1768              	.L183:
 1769              		.align	2
 1770              	.L182:
 1771 0030 00000000 		.word	__stack_chk_guard
 1772 0034 00000000 		.word	.LANCHOR1
 1773 0038 00000000 		.word	0
 1774              		.cfi_endproc
 1775              	.LFE271:
 1776              		.size	get_gyro_rate, .-get_gyro_rate
 1777              		.section	.text.get_temperature,"ax",%progbits
 1778              		.align	1
 1779              		.p2align 4,,15
 1780              		.global	get_temperature
 1781              		.syntax unified
 1782              		.thumb
 1783              		.thumb_func
 1784              		.fpu fpv4-sp-d16
 1785              		.type	get_temperature, %function
 1786              	get_temperature:
 1787              	.LFB272:
 1788              		.loc 1 285 0
 1789              		.cfi_startproc
 1790              		@ args = 0, pretend = 0, frame = 8
 1791              		@ frame_needed = 0, uses_anonymous_args = 0
 1792 0000 00B5     		push	{lr}
 1793              		.cfi_def_cfa_offset 4
 1794              		.cfi_offset 14, -4
 1795 0002 084B     		ldr	r3, .L188
 1796              		.loc 1 286 0
 1797 0004 0849     		ldr	r1, .L188+4
 1798              		.loc 1 285 0
 1799 0006 1A68     		ldr	r2, [r3]
 1800              		.loc 1 287 0
 1801 0008 91ED060A 		vldr.32	s0, [r1, #24]
 1802              		.loc 1 285 0
 1803 000c 83B0     		sub	sp, sp, #12
 1804              		.cfi_def_cfa_offset 16
 1805              		.loc 1 285 0
 1806 000e 0192     		str	r2, [sp, #4]
 1807              		.loc 1 287 0
 1808 0010 019A     		ldr	r2, [sp, #4]
 1809 0012 1B68     		ldr	r3, [r3]
 1810 0014 9A42     		cmp	r2, r3
 1811 0016 02D1     		bne	.L187
 1812 0018 03B0     		add	sp, sp, #12
 1813              		.cfi_remember_state
 1814              		.cfi_def_cfa_offset 4
 1815              		@ sp needed
 1816 001a 5DF804FB 		ldr	pc, [sp], #4
 1817              	.L187:
 1818              		.cfi_restore_state
 1819 001e FFF7FEFF 		bl	__stack_chk_fail
 1820              	.LVL115:
 1821              	.L189:
 1822 0022 00BF     		.align	2
 1823              	.L188:
 1824 0024 00000000 		.word	__stack_chk_guard
ARM GAS  C:\Users\mathi\AppData\Local\Temp\ccXQHLKW.s 			page 33


 1825 0028 00000000 		.word	.LANCHOR1
 1826              		.cfi_endproc
 1827              	.LFE272:
 1828              		.size	get_temperature, .-get_temperature
 1829              		.section	.bss.accAxisFilteringInProgress,"aw",%nobits
 1830              		.set	.LANCHOR4,. + 0
 1831              		.type	accAxisFilteringInProgress, %object
 1832              		.size	accAxisFilteringInProgress, 1
 1833              	accAxisFilteringInProgress:
 1834 0000 00       		.space	1
 1835              		.section	.bss.accAxisFilteringState,"aw",%nobits
 1836              		.set	.LANCHOR5,. + 0
 1837              		.type	accAxisFilteringState, %object
 1838              		.size	accAxisFilteringState, 1
 1839              	accAxisFilteringState:
 1840 0000 00       		.space	1
 1841              		.section	.bss.accAxisSelected,"aw",%nobits
 1842              		.set	.LANCHOR6,. + 0
 1843              		.type	accAxisSelected, %object
 1844              		.size	accAxisSelected, 1
 1845              	accAxisSelected:
 1846 0000 00       		.space	1
 1847              		.section	.bss.accCalibrationInProgress,"aw",%nobits
 1848              		.set	.LANCHOR8,. + 0
 1849              		.type	accCalibrationInProgress, %object
 1850              		.size	accCalibrationInProgress, 1
 1851              	accCalibrationInProgress:
 1852 0000 00       		.space	1
 1853              		.section	.bss.accFilterSize,"aw",%nobits
 1854              		.set	.LANCHOR7,. + 0
 1855              		.type	accFilterSize, %object
 1856              		.size	accFilterSize, 1
 1857              	accFilterSize:
 1858 0000 00       		.space	1
 1859              		.section	.bss.gyroAxisFilteringInProgress,"aw",%nobits
 1860              		.set	.LANCHOR9,. + 0
 1861              		.type	gyroAxisFilteringInProgress, %object
 1862              		.size	gyroAxisFilteringInProgress, 1
 1863              	gyroAxisFilteringInProgress:
 1864 0000 00       		.space	1
 1865              		.section	.bss.gyroAxisFilteringState,"aw",%nobits
 1866              		.set	.LANCHOR10,. + 0
 1867              		.type	gyroAxisFilteringState, %object
 1868              		.size	gyroAxisFilteringState, 1
 1869              	gyroAxisFilteringState:
 1870 0000 00       		.space	1
 1871              		.section	.bss.gyroAxisSelected,"aw",%nobits
 1872              		.set	.LANCHOR11,. + 0
 1873              		.type	gyroAxisSelected, %object
 1874              		.size	gyroAxisSelected, 1
 1875              	gyroAxisSelected:
 1876 0000 00       		.space	1
 1877              		.section	.bss.gyroCalibrationInProgress,"aw",%nobits
 1878              		.set	.LANCHOR13,. + 0
 1879              		.type	gyroCalibrationInProgress, %object
 1880              		.size	gyroCalibrationInProgress, 1
 1881              	gyroCalibrationInProgress:
ARM GAS  C:\Users\mathi\AppData\Local\Temp\ccXQHLKW.s 			page 34


 1882 0000 00       		.space	1
 1883              		.section	.bss.gyroFilterSize,"aw",%nobits
 1884              		.set	.LANCHOR12,. + 0
 1885              		.type	gyroFilterSize, %object
 1886              		.size	gyroFilterSize, 1
 1887              	gyroFilterSize:
 1888 0000 00       		.space	1
 1889              		.section	.bss.imuThd,"aw",%nobits
 1890              		.align	2
 1891              		.set	.LANCHOR15,. + 0
 1892              		.type	imuThd, %object
 1893              		.size	imuThd, 4
 1894              	imuThd:
 1895 0000 00000000 		.space	4
 1896              		.section	.bss.imu_configured,"aw",%nobits
 1897              		.set	.LANCHOR3,. + 0
 1898              		.type	imu_configured, %object
 1899              		.size	imu_configured, 1
 1900              	imu_configured:
 1901 0000 00       		.space	1
 1902              		.section	.bss.imu_reader_thd_wa,"aw",%nobits
 1903              		.align	3
 1904              		.set	.LANCHOR14,. + 0
 1905              		.type	imu_reader_thd_wa, %object
 1906              		.size	imu_reader_thd_wa, 888
 1907              	imu_reader_thd_wa:
 1908 0000 00000000 		.space	888
 1908      00000000 
 1908      00000000 
 1908      00000000 
 1908      00000000 
 1909              		.section	.bss.imu_values,"aw",%nobits
 1910              		.align	2
 1911              		.set	.LANCHOR1,. + 0
 1912              		.type	imu_values, %object
 1913              		.size	imu_values, 80
 1914              	imu_values:
 1915 0000 00000000 		.space	80
 1915      00000000 
 1915      00000000 
 1915      00000000 
 1915      00000000 
 1916              		.section	.rodata.__FUNCTION__.11430,"a",%progbits
 1917              		.align	2
 1918              		.set	.LANCHOR0,. + 0
 1919              		.type	__FUNCTION__.11430, %object
 1920              		.size	__FUNCTION__.11430, 15
 1921              	__FUNCTION__.11430:
 1922 0000 696D755F 		.ascii	"imu_reader_thd\000"
 1922      72656164 
 1922      65725F74 
 1922      686400
 1923              		.section	.rodata.__func__.7153,"a",%progbits
 1924              		.align	2
 1925              		.set	.LANCHOR2,. + 0
 1926              		.type	__func__.7153, %object
 1927              		.size	__func__.7153, 12
ARM GAS  C:\Users\mathi\AppData\Local\Temp\ccXQHLKW.s 			page 35


 1928              	__func__.7153:
 1929 0000 63685379 		.ascii	"chSysUnlock\000"
 1929      73556E6C 
 1929      6F636B00 
 1930              		.section	.rodata.imu_reader_thd.str1.4,"aMS",%progbits,1
 1931              		.align	2
 1932              	.LC0:
 1933 0000 2F696D75 		.ascii	"/imu\000"
 1933      00
 1934              		.text
 1935              	.Letext0:
 1936              		.file 7 "c:\\eclipse_e-puck2\\tools\\gcc-arm-none-eabi-7-2017-q4-major-win32\\lib\\gcc\\arm-none-e
 1937              		.file 8 "c:\\eclipse_e-puck2\\tools\\gcc-arm-none-eabi-7-2017-q4-major-win32\\arm-none-eabi\\inclu
 1938              		.file 9 "c:\\eclipse_e-puck2\\tools\\gcc-arm-none-eabi-7-2017-q4-major-win32\\arm-none-eabi\\inclu
 1939              		.file 10 "../../lib/e-puck2_main-processor/ChibiOS//os/rt/ports/ARMCMx/compilers/GCC/chtypes.h"
 1940              		.file 11 "../../lib/e-puck2_main-processor/ChibiOS//os/rt/include/chsystypes.h"
 1941              		.file 12 "../../lib/e-puck2_main-processor/ChibiOS//os/rt/include/chschd.h"
 1942              		.file 13 "../../lib/e-puck2_main-processor/ChibiOS//os/ext/CMSIS/include/core_cm4.h"
 1943              		.file 14 "../../lib/e-puck2_main-processor/ChibiOS//os/ext/CMSIS/ST/system_stm32f4xx.h"
 1944              		.file 15 "../../lib/e-puck2_main-processor/ChibiOS//os/ext/CMSIS/ST/stm32f407xx.h"
 1945              		.file 16 "../../lib/e-puck2_main-processor/ChibiOS//os/rt/ports/ARMCMx/chcore.h"
 1946              		.file 17 "../../lib/e-puck2_main-processor/ChibiOS//os/rt/ports/ARMCMx/chcore_v7m.h"
 1947              		.file 18 "../../lib/e-puck2_main-processor/ChibiOS//os/rt/include/chdebug.h"
 1948              		.file 19 "../../lib/e-puck2_main-processor/ChibiOS//os/rt/include/chtm.h"
 1949              		.file 20 "../../lib/e-puck2_main-processor/ChibiOS//os/rt/include/chstats.h"
 1950              		.file 21 "../../lib/e-puck2_main-processor/ChibiOS//os/rt/include/chsem.h"
 1951              		.file 22 "../../lib/e-puck2_main-processor/ChibiOS//os/rt/include/chmtx.h"
 1952              		.file 23 "../../lib/e-puck2_main-processor/ChibiOS//os/rt/include/chcond.h"
 1953              		.file 24 "../../lib/e-puck2_main-processor/ChibiOS//os/rt/include/chevents.h"
 1954              		.file 25 "../../lib/e-puck2_main-processor/ChibiOS//os/rt/include/chqueues.h"
 1955              		.file 26 "../../lib/e-puck2_main-processor/ChibiOS//os/hal/ports/STM32/STM32F4xx/stm32_dma.h"
 1956              		.file 27 "../../lib/e-puck2_main-processor/ChibiOS//os/hal/include/hal_ioblock.h"
 1957              		.file 28 "../../lib/e-puck2_main-processor/ChibiOS//os/hal/ports/STM32/LLD/GPIOv2/pal_lld.h"
 1958              		.file 29 "../../lib/e-puck2_main-processor/ChibiOS//os/hal/include/adc.h"
 1959              		.file 30 "../../lib/e-puck2_main-processor/ChibiOS//os/hal/ports/STM32/STM32F4xx/adc_lld.h"
 1960              		.file 31 "../../lib/e-puck2_main-processor/ChibiOS//os/hal/include/can.h"
 1961              		.file 32 "../../lib/e-puck2_main-processor/ChibiOS//os/hal/ports/STM32/LLD/can_lld.h"
 1962              		.file 33 "../../lib/e-puck2_main-processor/ChibiOS//os/hal/include/dac.h"
 1963              		.file 34 "../../lib/e-puck2_main-processor/ChibiOS//os/hal/ports/STM32/LLD/DACv1/dac_lld.h"
 1964              		.file 35 "../../lib/e-puck2_main-processor/ChibiOS//os/hal/include/ext.h"
 1965              		.file 36 "../../lib/e-puck2_main-processor/ChibiOS//os/hal/ports/STM32/LLD/ext_lld.h"
 1966              		.file 37 "../../lib/e-puck2_main-processor/ChibiOS//os/hal/include/gpt.h"
 1967              		.file 38 "../../lib/e-puck2_main-processor/ChibiOS//os/hal/ports/STM32/LLD/TIMv1/gpt_lld.h"
 1968              		.file 39 "../../lib/e-puck2_main-processor/ChibiOS//os/hal/ports/STM32/LLD/TIMv1/stm32_tim.h"
 1969              		.file 40 "../../lib/e-puck2_main-processor/ChibiOS//os/hal/include/i2c.h"
 1970              		.file 41 "../../lib/e-puck2_main-processor/ChibiOS//os/hal/ports/STM32/LLD/I2Cv1/i2c_lld.h"
 1971              		.file 42 "../../lib/e-puck2_main-processor/ChibiOS//os/hal/include/i2s.h"
 1972              		.file 43 "../../lib/e-puck2_main-processor/ChibiOS//os/hal/ports/STM32/LLD/SPIv1/i2s_lld.h"
 1973              		.file 44 "../../lib/e-puck2_main-processor/ChibiOS//os/hal/include/pwm.h"
 1974              		.file 45 "../../lib/e-puck2_main-processor/ChibiOS//os/hal/ports/STM32/LLD/TIMv1/pwm_lld.h"
 1975              		.file 46 "../../lib/e-puck2_main-processor/ChibiOS//os/hal/include/serial.h"
 1976              		.file 47 "../../lib/e-puck2_main-processor/ChibiOS//os/hal/ports/STM32/LLD/USARTv1/serial_lld.h"
 1977              		.file 48 "../../lib/e-puck2_main-processor/ChibiOS//os/hal/include/sdc.h"
 1978              		.file 49 "../../lib/e-puck2_main-processor/ChibiOS//os/hal/ports/STM32/LLD/sdc_lld.h"
 1979              		.file 50 "../../lib/e-puck2_main-processor/ChibiOS//os/hal/include/spi.h"
 1980              		.file 51 "../../lib/e-puck2_main-processor/ChibiOS//os/hal/ports/STM32/LLD/SPIv1/spi_lld.h"
 1981              		.file 52 "../../lib/e-puck2_main-processor/ChibiOS//os/hal/include/usb.h"
ARM GAS  C:\Users\mathi\AppData\Local\Temp\ccXQHLKW.s 			page 36


 1982              		.file 53 "../../lib/e-puck2_main-processor/ChibiOS//os/hal/ports/STM32/LLD/OTGv1/usb_lld.h"
 1983              		.file 54 "../../lib/e-puck2_main-processor/ChibiOS//os/hal/ports/STM32/LLD/OTGv1/stm32_otg.h"
 1984              		.file 55 "../../lib/e-puck2_main-processor/ChibiOS//os/hal/include/serial_usb.h"
 1985              		.file 56 "../../lib/e-puck2_main-processor/ChibiOS_ext/os/hal/include/../ports/STM32/STM32F4xx/dcm
 1986              		.file 57 "c:\\eclipse_e-puck2\\tools\\gcc-arm-none-eabi-7-2017-q4-major-win32\\arm-none-eabi\\incl
 1987              		.file 58 "c:\\eclipse_e-puck2\\tools\\gcc-arm-none-eabi-7-2017-q4-major-win32\\arm-none-eabi\\incl
 1988              		.file 59 "c:\\eclipse_e-puck2\\tools\\gcc-arm-none-eabi-7-2017-q4-major-win32\\arm-none-eabi\\incl
 1989              		.file 60 "../../lib/e-puck2_main-processor/src/msgbus/messagebus.h"
 1990              		.file 61 "c:\\eclipse_e-puck2\\tools\\gcc-arm-none-eabi-7-2017-q4-major-win32\\arm-none-eabi\\incl
 1991              		.file 62 "c:\\eclipse_e-puck2\\tools\\gcc-arm-none-eabi-7-2017-q4-major-win32\\arm-none-eabi\\incl
 1992              		.file 63 "../../lib/e-puck2_main-processor/src/parameter/parameter.h"
 1993              		.file 64 "./main.h"
 1994              		.file 65 "../../lib/e-puck2_main-processor/src/usbcfg.h"
 1995              		.file 66 "../../lib/e-puck2_main-processor/src/sensors/imu.h"
 1996              		.file 67 "../../lib/e-puck2_main-processor/src/exti.h"
 1997              		.file 68 "../../lib/e-puck2_main-processor/src/i2c_bus.h"
 1998              		.file 69 "../../lib/e-puck2_main-processor/src/sensors/mpu9250.h"