ARM GAS  C:\Users\mathi\AppData\Local\Temp\ccIY33Qd.s 			page 1


   1              		.cpu cortex-m4
   2              		.eabi_attribute 27, 1
   3              		.eabi_attribute 28, 1
   4              		.eabi_attribute 20, 1
   5              		.eabi_attribute 21, 1
   6              		.eabi_attribute 23, 3
   7              		.eabi_attribute 24, 1
   8              		.eabi_attribute 25, 1
   9              		.eabi_attribute 26, 1
  10              		.eabi_attribute 30, 2
  11              		.eabi_attribute 34, 1
  12              		.eabi_attribute 18, 4
  13              		.file	"ir_remote.c"
  14              		.text
  15              	.Ltext0:
  16              		.cfi_sections	.debug_frame
  17              		.section	.text.remote_motion_thd,"ax",%progbits
  18              		.align	1
  19              		.p2align 4,,15
  20              		.syntax unified
  21              		.thumb
  22              		.thumb_func
  23              		.fpu fpv4-sp-d16
  24              		.type	remote_motion_thd, %function
  25              	remote_motion_thd:
  26              	.LFB263:
  27              		.file 1 "../../lib/e-puck2_main-processor/src/ir_remote.c"
  28              		.loc 1 248 0
  29              		.cfi_startproc
  30              		@ args = 0, pretend = 0, frame = 8
  31              		@ frame_needed = 0, uses_anonymous_args = 0
  32              	.LVL0:
  33 0000 2DE9F043 		push	{r4, r5, r6, r7, r8, r9, lr}
  34              		.cfi_def_cfa_offset 28
  35              		.cfi_offset 4, -28
  36              		.cfi_offset 5, -24
  37              		.cfi_offset 6, -20
  38              		.cfi_offset 7, -16
  39              		.cfi_offset 8, -12
  40              		.cfi_offset 9, -8
  41              		.cfi_offset 14, -4
  42              	.LBB62:
  43              	.LBB63:
  44              		.file 2 "../../lib/e-puck2_main-processor/ChibiOS//os/rt/include/chregistry.h"
  45              		.loc 2 135 0
  46 0004 484C     		ldr	r4, .L18
  47              	.LBE63:
  48              	.LBE62:
  49              		.loc 1 248 0
  50 0006 494B     		ldr	r3, .L18+4
  51              	.LBB65:
  52              	.LBB64:
  53              		.loc 2 135 0
  54 0008 A269     		ldr	r2, [r4, #24]
  55 000a 4949     		ldr	r1, .L18+8
  56 000c 9161     		str	r1, [r2, #24]
  57              	.LBE64:
ARM GAS  C:\Users\mathi\AppData\Local\Temp\ccIY33Qd.s 			page 2


  58              	.LBE65:
  59              		.loc 1 248 0
  60 000e 83B0     		sub	sp, sp, #12
  61              		.cfi_def_cfa_offset 40
  62              		.loc 1 248 0
  63 0010 1B68     		ldr	r3, [r3]
  64              		.loc 1 252 0
  65 0012 4849     		ldr	r1, .L18+12
  66 0014 4848     		ldr	r0, .L18+16
  67              	.LVL1:
  68              		.loc 1 248 0
  69 0016 0193     		str	r3, [sp, #4]
  70              		.loc 1 252 0
  71 0018 FFF7FEFF 		bl	messagebus_find_topic_blocking
  72              	.LVL2:
  73              	.LBB66:
  74              	.LBB67:
  75              	.LBB68:
  76              	.LBB69:
  77              		.file 3 "../../lib/e-puck2_main-processor/ChibiOS//os/rt/include/chsys.h"
  78              		.loc 3 367 0
  79 001c DFF81C91 		ldr	r9, .L18+20
  80              	.LBE69:
  81              	.LBE68:
  82              	.LBE67:
  83              	.LBE66:
  84              		.loc 1 311 0
  85 0020 DFF81C81 		ldr	r8, .L18+24
  86              		.loc 1 252 0
  87 0024 0746     		mov	r7, r0
  88              	.LVL3:
  89              	.LBB83:
  90              	.LBB82:
  91              	.LBB74:
  92              	.LBB75:
  93              	.LBB76:
  94              	.LBB77:
  95              	.LBB78:
  96              		.file 4 "../../lib/e-puck2_main-processor/ChibiOS//os/ext/CMSIS/include/core_cmFunc.h"
  97              		.loc 4 546 0
  98 0026 2026     		movs	r6, #32
  99              	.LVL4:
 100              	.L14:
 101              		.syntax unified
 102              	@ 546 "../../lib/e-puck2_main-processor/ChibiOS//os/ext/CMSIS/include/core_cmFunc.h" 1
 103 0028 86F31188 		MSR basepri, r6
 104              	@ 0 "" 2
 105              	.LVL5:
 106              		.thumb
 107              		.syntax unified
 108              	.LBE78:
 109              	.LBE77:
 110              	.LBE76:
 111              		.loc 3 349 0
 112 002c FFF7FEFF 		bl	_stats_start_measure_crit_thd
 113              	.LVL6:
 114              		.loc 3 350 0
ARM GAS  C:\Users\mathi\AppData\Local\Temp\ccIY33Qd.s 			page 3


 115 0030 FFF7FEFF 		bl	_dbg_check_lock
 116              	.LVL7:
 117              	.LBE75:
 118              	.LBE74:
 119              	.LBB79:
 120              	.LBB80:
 121              		.file 5 "../../lib/e-puck2_main-processor/ChibiOS//os/rt/include/chvt.h"
 122              		.loc 5 231 0
 123 0034 A56A     		ldr	r5, [r4, #40]
 124              	.LBE80:
 125              	.LBE79:
 126              	.LBB81:
 127              	.LBB73:
 128              		.loc 3 360 0
 129 0036 FFF7FEFF 		bl	_dbg_check_unlock
 130              	.LVL8:
 131              		.loc 3 361 0
 132 003a FFF7FEFF 		bl	_stats_stop_measure_crit_thd
 133              	.LVL9:
 134              		.loc 3 367 0
 135 003e 2368     		ldr	r3, [r4]
 136 0040 A342     		cmp	r3, r4
 137 0042 07D0     		beq	.L2
 138 0044 A269     		ldr	r2, [r4, #24]
 139 0046 9B68     		ldr	r3, [r3, #8]
 140 0048 9268     		ldr	r2, [r2, #8]
 141 004a 9A42     		cmp	r2, r3
 142 004c 02D2     		bcs	.L2
 143 004e 4846     		mov	r0, r9
 144 0050 FFF7FEFF 		bl	chSysHalt
 145              	.LVL10:
 146              	.L2:
 147              	.LBB70:
 148              	.LBB71:
 149              	.LBB72:
 150              		.loc 4 546 0
 151 0054 0023     		movs	r3, #0
 152              		.syntax unified
 153              	@ 546 "../../lib/e-puck2_main-processor/ChibiOS//os/ext/CMSIS/include/core_cmFunc.h" 1
 154 0056 83F31188 		MSR basepri, r3
 155              	@ 0 "" 2
 156              	.LVL11:
 157              		.thumb
 158              		.syntax unified
 159              	.LBE72:
 160              	.LBE71:
 161              	.LBE70:
 162              	.LBE73:
 163              	.LBE81:
 164              	.LBE82:
 165              	.LBE83:
 166              		.loc 1 259 0
 167 005a 0322     		movs	r2, #3
 168 005c 6946     		mov	r1, sp
 169 005e 3846     		mov	r0, r7
 170 0060 FFF7FEFF 		bl	messagebus_topic_wait
 171              	.LVL12:
ARM GAS  C:\Users\mathi\AppData\Local\Temp\ccIY33Qd.s 			page 4


 172              		.loc 1 261 0
 173 0064 9DF80230 		ldrb	r3, [sp, #2]	@ zero_extendqisi2
 174 0068 013B     		subs	r3, r3, #1
 175 006a 202B     		cmp	r3, #32
 176 006c 18D8     		bhi	.L3
 177 006e DFE803F0 		tbb	[pc, r3]
 178              	.L5:
 179 0072 4A       		.byte	(.L4-.L5)/2
 180 0073 52       		.byte	(.L6-.L5)/2
 181 0074 42       		.byte	(.L7-.L5)/2
 182 0075 3A       		.byte	(.L8-.L5)/2
 183 0076 33       		.byte	(.L9-.L5)/2
 184 0077 2B       		.byte	(.L10-.L5)/2
 185 0078 24       		.byte	(.L11-.L5)/2
 186 0079 1D       		.byte	(.L12-.L5)/2
 187 007a 11       		.byte	(.L13-.L5)/2
 188 007b 17       		.byte	(.L3-.L5)/2
 189 007c 17       		.byte	(.L3-.L5)/2
 190 007d 33       		.byte	(.L9-.L5)/2
 191 007e 17       		.byte	(.L3-.L5)/2
 192 007f 17       		.byte	(.L3-.L5)/2
 193 0080 17       		.byte	(.L3-.L5)/2
 194 0081 2B       		.byte	(.L10-.L5)/2
 195 0082 3A       		.byte	(.L8-.L5)/2
 196 0083 17       		.byte	(.L3-.L5)/2
 197 0084 17       		.byte	(.L3-.L5)/2
 198 0085 17       		.byte	(.L3-.L5)/2
 199 0086 17       		.byte	(.L3-.L5)/2
 200 0087 17       		.byte	(.L3-.L5)/2
 201 0088 17       		.byte	(.L3-.L5)/2
 202 0089 17       		.byte	(.L3-.L5)/2
 203 008a 17       		.byte	(.L3-.L5)/2
 204 008b 17       		.byte	(.L3-.L5)/2
 205 008c 17       		.byte	(.L3-.L5)/2
 206 008d 17       		.byte	(.L3-.L5)/2
 207 008e 17       		.byte	(.L3-.L5)/2
 208 008f 17       		.byte	(.L3-.L5)/2
 209 0090 17       		.byte	(.L3-.L5)/2
 210 0091 52       		.byte	(.L6-.L5)/2
 211 0092 1D       		.byte	(.L12-.L5)/2
 212 0093 00       		.p2align 1
 213              	.L13:
 214              		.loc 1 305 0
 215 0094 4046     		mov	r0, r8
 216 0096 FFF7FEFF 		bl	left_motor_set_speed
 217              	.LVL13:
 218              		.loc 1 306 0
 219 009a 0020     		movs	r0, #0
 220 009c FFF7FEFF 		bl	right_motor_set_speed
 221              	.LVL14:
 222              	.L3:
 223              		.loc 1 316 0
 224 00a0 05F1C801 		add	r1, r5, #200
 225 00a4 2846     		mov	r0, r5
 226 00a6 FFF7FEFF 		bl	chThdSleepUntilWindowed
 227              	.LVL15:
 228              		.loc 1 257 0
ARM GAS  C:\Users\mathi\AppData\Local\Temp\ccIY33Qd.s 			page 5


 229 00aa BDE7     		b	.L14
 230              	.L12:
 231              		.loc 1 278 0
 232 00ac 4046     		mov	r0, r8
 233 00ae FFF7FEFF 		bl	left_motor_set_speed
 234              	.LVL16:
 235              		.loc 1 279 0
 236 00b2 4046     		mov	r0, r8
 237 00b4 FFF7FEFF 		bl	right_motor_set_speed
 238              	.LVL17:
 239              		.loc 1 280 0
 240 00b8 F2E7     		b	.L3
 241              	.L11:
 242              		.loc 1 310 0
 243 00ba 0020     		movs	r0, #0
 244 00bc FFF7FEFF 		bl	left_motor_set_speed
 245              	.LVL18:
 246              		.loc 1 311 0
 247 00c0 4046     		mov	r0, r8
 248 00c2 FFF7FEFF 		bl	right_motor_set_speed
 249              	.LVL19:
 250              		.loc 1 312 0
 251 00c6 EBE7     		b	.L3
 252              	.L10:
 253              		.loc 1 284 0
 254 00c8 4FF41670 		mov	r0, #600
 255 00cc FFF7FEFF 		bl	left_motor_set_speed
 256              	.LVL20:
 257              		.loc 1 285 0
 258 00d0 4046     		mov	r0, r8
 259 00d2 FFF7FEFF 		bl	right_motor_set_speed
 260              	.LVL21:
 261              		.loc 1 286 0
 262 00d6 E3E7     		b	.L3
 263              	.L9:
 264              		.loc 1 266 0
 265 00d8 0020     		movs	r0, #0
 266 00da FFF7FEFF 		bl	left_motor_set_speed
 267              	.LVL22:
 268              		.loc 1 267 0
 269 00de 0020     		movs	r0, #0
 270 00e0 FFF7FEFF 		bl	right_motor_set_speed
 271              	.LVL23:
 272              		.loc 1 268 0
 273 00e4 DCE7     		b	.L3
 274              	.L8:
 275              		.loc 1 290 0
 276 00e6 4046     		mov	r0, r8
 277 00e8 FFF7FEFF 		bl	left_motor_set_speed
 278              	.LVL24:
 279              		.loc 1 291 0
 280 00ec 4FF41670 		mov	r0, #600
 281 00f0 FFF7FEFF 		bl	right_motor_set_speed
 282              	.LVL25:
 283              		.loc 1 292 0
 284 00f4 D4E7     		b	.L3
 285              	.L7:
ARM GAS  C:\Users\mathi\AppData\Local\Temp\ccIY33Qd.s 			page 6


 286              		.loc 1 295 0
 287 00f6 4FF41670 		mov	r0, #600
 288 00fa FFF7FEFF 		bl	left_motor_set_speed
 289              	.LVL26:
 290              		.loc 1 296 0
 291 00fe 0020     		movs	r0, #0
 292 0100 FFF7FEFF 		bl	right_motor_set_speed
 293              	.LVL27:
 294              		.loc 1 297 0
 295 0104 CCE7     		b	.L3
 296              	.L4:
 297              		.loc 1 300 0
 298 0106 0020     		movs	r0, #0
 299 0108 FFF7FEFF 		bl	left_motor_set_speed
 300              	.LVL28:
 301              		.loc 1 301 0
 302 010c 4FF41670 		mov	r0, #600
 303 0110 FFF7FEFF 		bl	right_motor_set_speed
 304              	.LVL29:
 305              		.loc 1 302 0
 306 0114 C4E7     		b	.L3
 307              	.L6:
 308              		.loc 1 272 0
 309 0116 4FF41670 		mov	r0, #600
 310 011a FFF7FEFF 		bl	left_motor_set_speed
 311              	.LVL30:
 312              		.loc 1 273 0
 313 011e 4FF41670 		mov	r0, #600
 314 0122 FFF7FEFF 		bl	right_motor_set_speed
 315              	.LVL31:
 316              		.loc 1 274 0
 317 0126 BBE7     		b	.L3
 318              	.L19:
 319              		.align	2
 320              	.L18:
 321 0128 00000000 		.word	ch
 322 012c 00000000 		.word	__stack_chk_guard
 323 0130 00000000 		.word	.LANCHOR0
 324 0134 00000000 		.word	.LC0
 325 0138 00000000 		.word	bus
 326 013c 00000000 		.word	.LANCHOR1
 327 0140 A8FDFFFF 		.word	-600
 328              		.cfi_endproc
 329              	.LFE263:
 330              		.size	remote_motion_thd, .-remote_motion_thd
 331              		.section	.text.remote_cmd_recv_thd,"ax",%progbits
 332              		.align	1
 333              		.p2align 4,,15
 334              		.syntax unified
 335              		.thumb
 336              		.thumb_func
 337              		.fpu fpv4-sp-d16
 338              		.type	remote_cmd_recv_thd, %function
 339              	remote_cmd_recv_thd:
 340              	.LFB264:
 341              		.loc 1 327 0
 342              		.cfi_startproc
ARM GAS  C:\Users\mathi\AppData\Local\Temp\ccIY33Qd.s 			page 7


 343              		@ Volatile: function does not return.
 344              		@ args = 0, pretend = 0, frame = 144
 345              		@ frame_needed = 0, uses_anonymous_args = 0
 346              	.LVL32:
 347 0000 2DE98048 		push	{r7, fp, lr}
 348              		.cfi_def_cfa_offset 12
 349              		.cfi_offset 7, -12
 350              		.cfi_offset 11, -8
 351              		.cfi_offset 14, -4
 352              	.LBB116:
 353              	.LBB117:
 354              		.loc 2 135 0
 355 0004 474B     		ldr	r3, .L45
 356              	.LBE117:
 357              	.LBE116:
 358              		.loc 1 327 0
 359 0006 484A     		ldr	r2, .L45+4
 360              	.LBB119:
 361              	.LBB118:
 362              		.loc 2 135 0
 363 0008 9B69     		ldr	r3, [r3, #24]
 364 000a 4849     		ldr	r1, .L45+8
 365 000c 9961     		str	r1, [r3, #24]
 366              	.LBE118:
 367              	.LBE119:
 368              		.loc 1 327 0
 369 000e A7B0     		sub	sp, sp, #156
 370              		.cfi_def_cfa_offset 168
 371              		.loc 1 333 0
 372 0010 0223     		movs	r3, #2
 373              		.loc 1 327 0
 374 0012 1268     		ldr	r2, [r2]
 375              		.loc 1 333 0
 376 0014 4648     		ldr	r0, .L45+12
 377              	.LVL33:
 378              		.loc 1 327 0
 379 0016 2592     		str	r2, [sp, #148]
 380              		.loc 1 333 0
 381 0018 04A9     		add	r1, sp, #16
 382 001a 1A46     		mov	r2, r3
 383 001c FFF7FEFF 		bl	chEvtRegisterMaskWithFlags
 384              	.LVL34:
 385              		.loc 1 342 0
 386 0020 09AF     		add	r7, sp, #36
 387              		.loc 1 343 0
 388 0022 02AC     		add	r4, sp, #8
 389              		.loc 1 344 0
 390 0024 0323     		movs	r3, #3
 391 0026 3946     		mov	r1, r7
 392 0028 2246     		mov	r2, r4
 393              		.loc 1 342 0
 394 002a 0026     		movs	r6, #0
 395              		.loc 1 344 0
 396 002c 0EA8     		add	r0, sp, #56
 397 002e 0093     		str	r3, [sp]
 398 0030 404B     		ldr	r3, .L45+16
 399              		.loc 1 342 0
ARM GAS  C:\Users\mathi\AppData\Local\Temp\ccIY33Qd.s 			page 8


 400 0032 0D96     		str	r6, [sp, #52]
 401 0034 CDE90977 		strd	r7, r7, [sp, #36]
 402              		.loc 1 343 0
 403 0038 CDE90244 		strd	r4, r4, [sp, #8]
 404              		.loc 1 342 0
 405 003c CDE90B66 		strd	r6, r6, [sp, #44]
 406              		.loc 1 344 0
 407 0040 FFF7FEFF 		bl	messagebus_topic_init
 408              	.LVL35:
 409              		.loc 1 345 0
 410 0044 0EA9     		add	r1, sp, #56
 411 0046 3C4A     		ldr	r2, .L45+20
 412 0048 3C48     		ldr	r0, .L45+24
 413 004a DFF8F8A0 		ldr	r10, .L45+32
 414 004e 394C     		ldr	r4, .L45+16
 415              	.LBB120:
 416              	.LBB121:
 417              	.LBB122:
 418              	.LBB123:
 419              		.loc 1 185 0
 420 0050 DFF8F480 		ldr	r8, .L45+36
 421              	.LBE123:
 422              	.LBE122:
 423              	.LBE121:
 424              	.LBE120:
 425              		.loc 1 345 0
 426 0054 FFF7FEFF 		bl	messagebus_advertise_topic
 427              	.LVL36:
 428              	.LBB175:
 429              	.LBB176:
 430              		.loc 1 114 0
 431 0058 4FF0010B 		mov	fp, #1
 432              	.LBE176:
 433              	.LBE175:
 434              	.LBB178:
 435              	.LBB169:
 436              	.LBB161:
 437              	.LBB156:
 438              	.LBB124:
 439              	.LBB125:
 440              	.LBB126:
 441              		.loc 1 102 0
 442 005c B146     		mov	r9, r6
 443              	.LBE126:
 444              	.LBE125:
 445              	.LBE124:
 446              	.LBE156:
 447              	.LBE161:
 448              	.LBE169:
 449              	.LBE178:
 450              	.LBB179:
 451              	.LBB177:
 452              		.loc 1 113 0
 453 005e 5F46     		mov	r7, fp
 454              	.LVL37:
 455              	.L29:
 456              	.LBE177:
ARM GAS  C:\Users\mathi\AppData\Local\Temp\ccIY33Qd.s 			page 9


 457              	.LBE179:
 458              	.LBB180:
 459              	.LBB170:
 460              	.LBB162:
 461              	.LBB157:
 462              	.LBB153:
 463              	.LBB128:
 464              	.LBB129:
 465              	.LBB130:
 466              	.LBB131:
 467              		.loc 1 130 0
 468 0060 5E46     		mov	r6, fp
 469              	.LVL38:
 470              	.L21:
 471              	.LBE131:
 472              	.LBE130:
 473              	.LBE129:
 474              	.LBE128:
 475              	.LBE153:
 476              	.LBE157:
 477              	.LBE162:
 478              	.LBE170:
 479              	.LBE180:
 480              		.loc 1 349 0
 481 0062 0220     		movs	r0, #2
 482 0064 FFF7FEFF 		bl	chEvtWaitAny
 483              	.LVL39:
 484              		.loc 1 351 0
 485 0068 04A8     		add	r0, sp, #16
 486 006a FFF7FEFF 		bl	chEvtGetAndClearFlags
 487              	.LVL40:
 488              	.LBB181:
 489              	.LBB171:
 490              	.LBB163:
 491              	.LBB158:
 492              		.loc 1 185 0
 493 006e D8F81020 		ldr	r2, [r8, #16]
 494 0072 C2F3C002 		ubfx	r2, r2, #3, #1
 495              	.LVL41:
 496              		.loc 1 187 0
 497 0076 AA42     		cmp	r2, r5
 498 0078 1ED0     		beq	.L22
 499              	.LBB154:
 500              		.loc 1 188 0
 501 007a DAF80C10 		ldr	r1, [r10, #12]
 502 007e 486A     		ldr	r0, [r1, #36]
 503              	.LVL42:
 504              	.LBB149:
 505              	.LBB127:
 506              		.loc 1 102 0
 507 0080 C1F82490 		str	r9, [r1, #36]
 508              	.LBE127:
 509              	.LBE149:
 510              	.LBB150:
 511              	.LBB146:
 512              		.loc 1 157 0
 513 0084 A0F5DE7C 		sub	ip, r0, #444
ARM GAS  C:\Users\mathi\AppData\Local\Temp\ccIY33Qd.s 			page 10


 514 0088 40F27931 		movw	r1, #889
 515 008c 8C45     		cmp	ip, r1
 516              	.LBE146:
 517              	.LBE150:
 518              		.loc 1 193 0
 519 008e D5B2     		uxtb	r5, r2
 520              	.LVL43:
 521              	.LBB151:
 522              	.LBB147:
 523              		.loc 1 157 0
 524 0090 2BD8     		bhi	.L23
 525              	.LBB138:
 526              	.LBB139:
 527              		.loc 1 129 0
 528 0092 2B4B     		ldr	r3, .L45+28
 529 0094 D95D     		ldrb	r1, [r3, r7]	@ zero_extendqisi2
 530              	.LBE139:
 531              	.LBE138:
 532              		.loc 1 158 0
 533 0096 6D00     		lsls	r5, r5, #1
 534              	.LVL44:
 535              	.LBB141:
 536              	.LBB140:
 537              		.loc 1 129 0
 538 0098 2941     		asrs	r1, r1, r5
 539 009a 01F00301 		and	r1, r1, #3
 540              	.LVL45:
 541              		.loc 1 130 0
 542 009e B942     		cmp	r1, r7
 543 00a0 33D0     		beq	.L36
 544              	.LVL46:
 545              	.L43:
 546              	.LBE140:
 547              	.LBE141:
 548              	.LBB142:
 549              	.LBB134:
 550              		.loc 1 135 0
 551 00a2 0229     		cmp	r1, #2
 552 00a4 37D0     		beq	.L44
 553              		.loc 1 139 0
 554 00a6 0129     		cmp	r1, #1
 555              	.LVL47:
 556              	.LBB132:
 557              	.LBB133:
 558              		.loc 1 141 0
 559 00a8 02BF     		ittt	eq
 560 00aa 4FEA4B03 		lsleq	r3, fp, #1
 561 00ae 03F1010B 		addeq	fp, r3, #1
 562              	.LVL48:
 563              		.loc 1 142 0
 564 00b2 0136     		addeq	r6, r6, #1
 565              	.LVL49:
 566              	.LBE133:
 567              	.LBE132:
 568              		.loc 1 139 0
 569 00b4 1546     		mov	r5, r2
 570 00b6 0F46     		mov	r7, r1
ARM GAS  C:\Users\mathi\AppData\Local\Temp\ccIY33Qd.s 			page 11


 571              	.LVL50:
 572              	.L22:
 573              	.LBE134:
 574              	.LBE142:
 575              	.LBE147:
 576              	.LBE151:
 577              	.LBE154:
 578              		.loc 1 196 0
 579 00b8 0E2E     		cmp	r6, #14
 580 00ba D2D1     		bne	.L21
 581              	.LVL51:
 582              	.LBE158:
 583              	.LBE163:
 584              	.LBB164:
 585              		.loc 1 227 0
 586 00bc 6FEA0B00 		mvn	r0, fp
 587 00c0 4009     		lsrs	r0, r0, #5
 588              		.loc 1 228 0
 589 00c2 0BF03F02 		and	r2, fp, #63
 590              		.loc 1 227 0
 591 00c6 20F07F00 		bic	r0, r0, #127
 592              		.loc 1 228 0
 593 00ca 1043     		orrs	r0, r0, r2
 594              		.loc 1 221 0
 595 00cc CBF3C026 		ubfx	r6, fp, #11, #1
 596              		.loc 1 222 0
 597 00d0 CBF38413 		ubfx	r3, fp, #6, #5
 598              		.loc 1 228 0
 599 00d4 A070     		strb	r0, [r4, #2]
 600              	.LBE164:
 601              	.LBE171:
 602              	.LBE181:
 603              		.loc 1 356 0
 604 00d6 0322     		movs	r2, #3
 605 00d8 1649     		ldr	r1, .L45+16
 606              	.LBB182:
 607              	.LBB172:
 608              	.LBB165:
 609              		.loc 1 221 0
 610 00da 2670     		strb	r6, [r4]
 611              	.LBE165:
 612              	.LBE172:
 613              	.LBE182:
 614              		.loc 1 356 0
 615 00dc 0EA8     		add	r0, sp, #56
 616              	.LBB183:
 617              	.LBB173:
 618              	.LBB166:
 619              		.loc 1 222 0
 620 00de 6370     		strb	r3, [r4, #1]
 621              	.LVL52:
 622              	.LBE166:
 623              	.LBB167:
 624              	.LBB159:
 625              		.loc 1 199 0
 626 00e0 4FF0000B 		mov	fp, #0
 627              	.LBE159:
ARM GAS  C:\Users\mathi\AppData\Local\Temp\ccIY33Qd.s 			page 12


 628              	.LBE167:
 629              	.LBE173:
 630              	.LBE183:
 631              		.loc 1 356 0
 632 00e4 FFF7FEFF 		bl	messagebus_topic_publish
 633              	.LVL53:
 634 00e8 BAE7     		b	.L29
 635              	.LVL54:
 636              	.L23:
 637              	.LBB184:
 638              	.LBB174:
 639              	.LBB168:
 640              	.LBB160:
 641              	.LBB155:
 642              	.LBB152:
 643              	.LBB148:
 644              		.loc 1 159 0
 645 00ea A0F23650 		subw	r0, r0, #1334
 646              	.LVL55:
 647 00ee B0F55E7F 		cmp	r0, #888
 648 00f2 0AD8     		bhi	.L36
 649              	.LBB143:
 650              	.LBB135:
 651              		.loc 1 129 0
 652 00f4 124B     		ldr	r3, .L45+28
 653              	.LBE135:
 654              	.LBE143:
 655              		.loc 1 160 0
 656 00f6 002D     		cmp	r5, #0
 657              	.LBB144:
 658              	.LBB136:
 659              		.loc 1 129 0
 660 00f8 D95D     		ldrb	r1, [r3, r7]	@ zero_extendqisi2
 661              	.LBE136:
 662              	.LBE144:
 663              		.loc 1 160 0
 664 00fa 14BF     		ite	ne
 665 00fc 0620     		movne	r0, #6
 666              	.LVL56:
 667 00fe 0420     		moveq	r0, #4
 668              	.LVL57:
 669              	.LBB145:
 670              	.LBB137:
 671              		.loc 1 129 0
 672 0100 0141     		asrs	r1, r1, r0
 673 0102 01F00301 		and	r1, r1, #3
 674              	.LVL58:
 675              		.loc 1 130 0
 676 0106 B942     		cmp	r1, r7
 677 0108 CBD1     		bne	.L43
 678              	.LVL59:
 679              	.L36:
 680 010a 4FF0010B 		mov	fp, #1
 681              	.LVL60:
 682 010e 1546     		mov	r5, r2
 683 0110 5E46     		mov	r6, fp
 684              	.LVL61:
ARM GAS  C:\Users\mathi\AppData\Local\Temp\ccIY33Qd.s 			page 13


 685 0112 5F46     		mov	r7, fp
 686              	.LVL62:
 687 0114 A5E7     		b	.L21
 688              	.LVL63:
 689              	.L44:
 690              		.loc 1 137 0
 691 0116 4FEA4B0B 		lsl	fp, fp, #1
 692              	.LVL64:
 693              		.loc 1 138 0
 694 011a 0136     		adds	r6, r6, #1
 695              	.LVL65:
 696 011c 1546     		mov	r5, r2
 697              		.loc 1 134 0
 698 011e 0F46     		mov	r7, r1
 699 0120 CAE7     		b	.L22
 700              	.L46:
 701 0122 00BF     		.align	2
 702              	.L45:
 703 0124 00000000 		.word	ch
 704 0128 00000000 		.word	__stack_chk_guard
 705 012c 00000000 		.word	.LANCHOR2
 706 0130 00000000 		.word	exti_events
 707 0134 00000000 		.word	.LANCHOR3
 708 0138 00000000 		.word	.LC0
 709 013c 00000000 		.word	bus
 710 0140 00000000 		.word	.LANCHOR4
 711 0144 00000000 		.word	GPTD11
 712 0148 000C0240 		.word	1073875968
 713              	.LBE137:
 714              	.LBE145:
 715              	.LBE148:
 716              	.LBE152:
 717              	.LBE155:
 718              	.LBE160:
 719              	.LBE168:
 720              	.LBE174:
 721              	.LBE184:
 722              		.cfi_endproc
 723              	.LFE264:
 724              		.size	remote_cmd_recv_thd, .-remote_cmd_recv_thd
 725              		.section	.text.ir_remote_start,"ax",%progbits
 726              		.align	1
 727              		.p2align 4,,15
 728              		.global	ir_remote_start
 729              		.syntax unified
 730              		.thumb
 731              		.thumb_func
 732              		.fpu fpv4-sp-d16
 733              		.type	ir_remote_start, %function
 734              	ir_remote_start:
 735              	.LFB265:
 736              		.loc 1 367 0
 737              		.cfi_startproc
 738              		@ args = 0, pretend = 0, frame = 8
 739              		@ frame_needed = 0, uses_anonymous_args = 0
 740 0000 30B5     		push	{r4, r5, lr}
 741              		.cfi_def_cfa_offset 12
ARM GAS  C:\Users\mathi\AppData\Local\Temp\ccIY33Qd.s 			page 14


 742              		.cfi_offset 4, -12
 743              		.cfi_offset 5, -8
 744              		.cfi_offset 14, -4
 745 0002 134C     		ldr	r4, .L51
 746              		.loc 1 368 0
 747 0004 1349     		ldr	r1, .L51+4
 748              		.loc 1 367 0
 749 0006 2368     		ldr	r3, [r4]
 750              		.loc 1 368 0
 751 0008 1348     		ldr	r0, .L51+8
 752              		.loc 1 367 0
 753 000a 85B0     		sub	sp, sp, #20
 754              		.cfi_def_cfa_offset 32
 755              		.loc 1 372 0
 756 000c 0025     		movs	r5, #0
 757              		.loc 1 367 0
 758 000e 0393     		str	r3, [sp, #12]
 759              		.loc 1 368 0
 760 0010 FFF7FEFF 		bl	gptStart
 761              	.LVL66:
 762              		.loc 1 369 0
 763 0014 4FF6FF71 		movw	r1, #65535
 764 0018 0F48     		ldr	r0, .L51+8
 765 001a FFF7FEFF 		bl	gptStartContinuous
 766              	.LVL67:
 767              		.loc 1 372 0
 768 001e 0F4B     		ldr	r3, .L51+12
 769 0020 0095     		str	r5, [sp]
 770 0022 4022     		movs	r2, #64
 771 0024 4FF4FC71 		mov	r1, #504
 772 0028 0D48     		ldr	r0, .L51+16
 773 002a FFF7FEFF 		bl	chThdCreateStatic
 774              	.LVL68:
 775              		.loc 1 375 0
 776 002e 0D4B     		ldr	r3, .L51+20
 777 0030 0095     		str	r5, [sp]
 778 0032 4022     		movs	r2, #64
 779 0034 0C48     		ldr	r0, .L51+24
 780 0036 4FF41E71 		mov	r1, #632
 781 003a FFF7FEFF 		bl	chThdCreateStatic
 782              	.LVL69:
 783              		.loc 1 376 0
 784 003e 039A     		ldr	r2, [sp, #12]
 785 0040 2368     		ldr	r3, [r4]
 786 0042 9A42     		cmp	r2, r3
 787 0044 01D1     		bne	.L50
 788 0046 05B0     		add	sp, sp, #20
 789              		.cfi_remember_state
 790              		.cfi_def_cfa_offset 12
 791              		@ sp needed
 792 0048 30BD     		pop	{r4, r5, pc}
 793              	.L50:
 794              		.cfi_restore_state
 795 004a FFF7FEFF 		bl	__stack_chk_fail
 796              	.LVL70:
 797              	.L52:
 798 004e 00BF     		.align	2
ARM GAS  C:\Users\mathi\AppData\Local\Temp\ccIY33Qd.s 			page 15


 799              	.L51:
 800 0050 00000000 		.word	__stack_chk_guard
 801 0054 00000000 		.word	.LANCHOR5
 802 0058 00000000 		.word	GPTD11
 803 005c 00000000 		.word	remote_motion_thd
 804 0060 00000000 		.word	.LANCHOR6
 805 0064 00000000 		.word	remote_cmd_recv_thd
 806 0068 00000000 		.word	.LANCHOR7
 807              		.cfi_endproc
 808              	.LFE265:
 809              		.size	ir_remote_start, .-ir_remote_start
 810              		.section	.text.ir_remote_get_toggle,"ax",%progbits
 811              		.align	1
 812              		.p2align 4,,15
 813              		.global	ir_remote_get_toggle
 814              		.syntax unified
 815              		.thumb
 816              		.thumb_func
 817              		.fpu fpv4-sp-d16
 818              		.type	ir_remote_get_toggle, %function
 819              	ir_remote_get_toggle:
 820              	.LFB266:
 821              		.loc 1 378 0
 822              		.cfi_startproc
 823              		@ args = 0, pretend = 0, frame = 8
 824              		@ frame_needed = 0, uses_anonymous_args = 0
 825 0000 00B5     		push	{lr}
 826              		.cfi_def_cfa_offset 4
 827              		.cfi_offset 14, -4
 828 0002 074B     		ldr	r3, .L57
 829              		.loc 1 379 0
 830 0004 0749     		ldr	r1, .L57+4
 831              		.loc 1 378 0
 832 0006 1A68     		ldr	r2, [r3]
 833              		.loc 1 380 0
 834 0008 0878     		ldrb	r0, [r1]	@ zero_extendqisi2
 835              		.loc 1 378 0
 836 000a 83B0     		sub	sp, sp, #12
 837              		.cfi_def_cfa_offset 16
 838              		.loc 1 378 0
 839 000c 0192     		str	r2, [sp, #4]
 840              		.loc 1 380 0
 841 000e 019A     		ldr	r2, [sp, #4]
 842 0010 1B68     		ldr	r3, [r3]
 843 0012 9A42     		cmp	r2, r3
 844 0014 02D1     		bne	.L56
 845 0016 03B0     		add	sp, sp, #12
 846              		.cfi_remember_state
 847              		.cfi_def_cfa_offset 4
 848              		@ sp needed
 849 0018 5DF804FB 		ldr	pc, [sp], #4
 850              	.L56:
 851              		.cfi_restore_state
 852 001c FFF7FEFF 		bl	__stack_chk_fail
 853              	.LVL71:
 854              	.L58:
 855              		.align	2
ARM GAS  C:\Users\mathi\AppData\Local\Temp\ccIY33Qd.s 			page 16


 856              	.L57:
 857 0020 00000000 		.word	__stack_chk_guard
 858 0024 00000000 		.word	.LANCHOR3
 859              		.cfi_endproc
 860              	.LFE266:
 861              		.size	ir_remote_get_toggle, .-ir_remote_get_toggle
 862              		.section	.text.ir_remote_get_address,"ax",%progbits
 863              		.align	1
 864              		.p2align 4,,15
 865              		.global	ir_remote_get_address
 866              		.syntax unified
 867              		.thumb
 868              		.thumb_func
 869              		.fpu fpv4-sp-d16
 870              		.type	ir_remote_get_address, %function
 871              	ir_remote_get_address:
 872              	.LFB267:
 873              		.loc 1 382 0
 874              		.cfi_startproc
 875              		@ args = 0, pretend = 0, frame = 8
 876              		@ frame_needed = 0, uses_anonymous_args = 0
 877 0000 00B5     		push	{lr}
 878              		.cfi_def_cfa_offset 4
 879              		.cfi_offset 14, -4
 880 0002 074B     		ldr	r3, .L63
 881              		.loc 1 383 0
 882 0004 0749     		ldr	r1, .L63+4
 883              		.loc 1 382 0
 884 0006 1A68     		ldr	r2, [r3]
 885              		.loc 1 384 0
 886 0008 4878     		ldrb	r0, [r1, #1]	@ zero_extendqisi2
 887              		.loc 1 382 0
 888 000a 83B0     		sub	sp, sp, #12
 889              		.cfi_def_cfa_offset 16
 890              		.loc 1 382 0
 891 000c 0192     		str	r2, [sp, #4]
 892              		.loc 1 384 0
 893 000e 019A     		ldr	r2, [sp, #4]
 894 0010 1B68     		ldr	r3, [r3]
 895 0012 9A42     		cmp	r2, r3
 896 0014 02D1     		bne	.L62
 897 0016 03B0     		add	sp, sp, #12
 898              		.cfi_remember_state
 899              		.cfi_def_cfa_offset 4
 900              		@ sp needed
 901 0018 5DF804FB 		ldr	pc, [sp], #4
 902              	.L62:
 903              		.cfi_restore_state
 904 001c FFF7FEFF 		bl	__stack_chk_fail
 905              	.LVL72:
 906              	.L64:
 907              		.align	2
 908              	.L63:
 909 0020 00000000 		.word	__stack_chk_guard
 910 0024 00000000 		.word	.LANCHOR3
 911              		.cfi_endproc
 912              	.LFE267:
ARM GAS  C:\Users\mathi\AppData\Local\Temp\ccIY33Qd.s 			page 17


 913              		.size	ir_remote_get_address, .-ir_remote_get_address
 914              		.section	.text.ir_remote_get_data,"ax",%progbits
 915              		.align	1
 916              		.p2align 4,,15
 917              		.global	ir_remote_get_data
 918              		.syntax unified
 919              		.thumb
 920              		.thumb_func
 921              		.fpu fpv4-sp-d16
 922              		.type	ir_remote_get_data, %function
 923              	ir_remote_get_data:
 924              	.LFB268:
 925              		.loc 1 386 0
 926              		.cfi_startproc
 927              		@ args = 0, pretend = 0, frame = 8
 928              		@ frame_needed = 0, uses_anonymous_args = 0
 929 0000 00B5     		push	{lr}
 930              		.cfi_def_cfa_offset 4
 931              		.cfi_offset 14, -4
 932 0002 074B     		ldr	r3, .L69
 933              		.loc 1 387 0
 934 0004 0749     		ldr	r1, .L69+4
 935              		.loc 1 386 0
 936 0006 1A68     		ldr	r2, [r3]
 937              		.loc 1 388 0
 938 0008 8878     		ldrb	r0, [r1, #2]	@ zero_extendqisi2
 939              		.loc 1 386 0
 940 000a 83B0     		sub	sp, sp, #12
 941              		.cfi_def_cfa_offset 16
 942              		.loc 1 386 0
 943 000c 0192     		str	r2, [sp, #4]
 944              		.loc 1 388 0
 945 000e 019A     		ldr	r2, [sp, #4]
 946 0010 1B68     		ldr	r3, [r3]
 947 0012 9A42     		cmp	r2, r3
 948 0014 02D1     		bne	.L68
 949 0016 03B0     		add	sp, sp, #12
 950              		.cfi_remember_state
 951              		.cfi_def_cfa_offset 4
 952              		@ sp needed
 953 0018 5DF804FB 		ldr	pc, [sp], #4
 954              	.L68:
 955              		.cfi_restore_state
 956 001c FFF7FEFF 		bl	__stack_chk_fail
 957              	.LVL73:
 958              	.L70:
 959              		.align	2
 960              	.L69:
 961 0020 00000000 		.word	__stack_chk_guard
 962 0024 00000000 		.word	.LANCHOR3
 963              		.cfi_endproc
 964              	.LFE268:
 965              		.size	ir_remote_get_data, .-ir_remote_get_data
 966              		.global	trans
 967              		.section	.bss.ir_remote_values,"aw",%nobits
 968              		.align	2
 969              		.set	.LANCHOR3,. + 0
ARM GAS  C:\Users\mathi\AppData\Local\Temp\ccIY33Qd.s 			page 18


 970              		.type	ir_remote_values, %object
 971              		.size	ir_remote_values, 3
 972              	ir_remote_values:
 973 0000 000000   		.space	3
 974              		.section	.bss.remote_cmd_recv_thd_wa.11463,"aw",%nobits
 975              		.align	3
 976              		.set	.LANCHOR7,. + 0
 977              		.type	remote_cmd_recv_thd_wa.11463, %object
 978              		.size	remote_cmd_recv_thd_wa.11463, 632
 979              	remote_cmd_recv_thd_wa.11463:
 980 0000 00000000 		.space	632
 980      00000000 
 980      00000000 
 980      00000000 
 980      00000000 
 981              		.section	.bss.remote_motion_thd_wa.11462,"aw",%nobits
 982              		.align	3
 983              		.set	.LANCHOR6,. + 0
 984              		.type	remote_motion_thd_wa.11462, %object
 985              		.size	remote_motion_thd_wa.11462, 504
 986              	remote_motion_thd_wa.11462:
 987 0000 00000000 		.space	504
 987      00000000 
 987      00000000 
 987      00000000 
 987      00000000 
 988              		.section	.rodata.__FUNCTION__.11429,"a",%progbits
 989              		.align	2
 990              		.set	.LANCHOR0,. + 0
 991              		.type	__FUNCTION__.11429, %object
 992              		.size	__FUNCTION__.11429, 18
 993              	__FUNCTION__.11429:
 994 0000 72656D6F 		.ascii	"remote_motion_thd\000"
 994      74655F6D 
 994      6F74696F 
 994      6E5F7468 
 994      6400
 995              		.section	.rodata.__FUNCTION__.11452,"a",%progbits
 996              		.align	2
 997              		.set	.LANCHOR2,. + 0
 998              		.type	__FUNCTION__.11452, %object
 999              		.size	__FUNCTION__.11452, 20
 1000              	__FUNCTION__.11452:
 1001 0000 72656D6F 		.ascii	"remote_cmd_recv_thd\000"
 1001      74655F63 
 1001      6D645F72 
 1001      6563765F 
 1001      74686400 
 1002              		.section	.rodata.__func__.7153,"a",%progbits
 1003              		.align	2
 1004              		.set	.LANCHOR1,. + 0
 1005              		.type	__func__.7153, %object
 1006              		.size	__func__.7153, 12
 1007              	__func__.7153:
 1008 0000 63685379 		.ascii	"chSysUnlock\000"
 1008      73556E6C 
 1008      6F636B00 
ARM GAS  C:\Users\mathi\AppData\Local\Temp\ccIY33Qd.s 			page 19


 1009              		.section	.rodata.gpt11cfg,"a",%progbits
 1010              		.align	2
 1011              		.set	.LANCHOR5,. + 0
 1012              		.type	gpt11cfg, %object
 1013              		.size	gpt11cfg, 16
 1014              	gpt11cfg:
 1015 0000 40420F00 		.word	1000000
 1016 0004 00000000 		.word	0
 1017 0008 00000000 		.word	0
 1018 000c 00000000 		.word	0
 1019              		.section	.rodata.remote_motion_thd.str1.4,"aMS",%progbits,1
 1020              		.align	2
 1021              	.LC0:
 1022 0000 2F69725F 		.ascii	"/ir_remote\000"
 1022      72656D6F 
 1022      746500
 1023              		.section	.rodata.trans,"a",%progbits
 1024              		.align	2
 1025              		.set	.LANCHOR4,. + 0
 1026              		.type	trans, %object
 1027              		.size	trans, 4
 1028              	trans:
 1029 0000 01       		.byte	1
 1030 0001 91       		.byte	-111
 1031 0002 9B       		.byte	-101
 1032 0003 FB       		.byte	-5
 1033              		.text
 1034              	.Letext0:
 1035              		.file 6 "c:\\eclipse_e-puck2\\tools\\gcc-arm-none-eabi-7-2017-q4-major-win32\\lib\\gcc\\arm-none-e
 1036              		.file 7 "c:\\eclipse_e-puck2\\tools\\gcc-arm-none-eabi-7-2017-q4-major-win32\\arm-none-eabi\\inclu
 1037              		.file 8 "c:\\eclipse_e-puck2\\tools\\gcc-arm-none-eabi-7-2017-q4-major-win32\\arm-none-eabi\\inclu
 1038              		.file 9 "../../lib/e-puck2_main-processor/ChibiOS//os/rt/ports/ARMCMx/compilers/GCC/chtypes.h"
 1039              		.file 10 "../../lib/e-puck2_main-processor/ChibiOS//os/rt/include/chsystypes.h"
 1040              		.file 11 "../../lib/e-puck2_main-processor/ChibiOS//os/rt/include/chschd.h"
 1041              		.file 12 "../../lib/e-puck2_main-processor/ChibiOS//os/ext/CMSIS/include/core_cm4.h"
 1042              		.file 13 "../../lib/e-puck2_main-processor/ChibiOS//os/ext/CMSIS/ST/system_stm32f4xx.h"
 1043              		.file 14 "../../lib/e-puck2_main-processor/ChibiOS//os/ext/CMSIS/ST/stm32f407xx.h"
 1044              		.file 15 "../../lib/e-puck2_main-processor/ChibiOS//os/rt/ports/ARMCMx/chcore.h"
 1045              		.file 16 "../../lib/e-puck2_main-processor/ChibiOS//os/rt/ports/ARMCMx/chcore_v7m.h"
 1046              		.file 17 "../../lib/e-puck2_main-processor/ChibiOS//os/rt/include/chdebug.h"
 1047              		.file 18 "../../lib/e-puck2_main-processor/ChibiOS//os/rt/include/chtm.h"
 1048              		.file 19 "../../lib/e-puck2_main-processor/ChibiOS//os/rt/include/chstats.h"
 1049              		.file 20 "../../lib/e-puck2_main-processor/ChibiOS//os/rt/include/chsem.h"
 1050              		.file 21 "../../lib/e-puck2_main-processor/ChibiOS//os/rt/include/chmtx.h"
 1051              		.file 22 "../../lib/e-puck2_main-processor/ChibiOS//os/rt/include/chcond.h"
 1052              		.file 23 "../../lib/e-puck2_main-processor/ChibiOS//os/rt/include/chevents.h"
 1053              		.file 24 "../../lib/e-puck2_main-processor/ChibiOS//os/rt/include/chqueues.h"
 1054              		.file 25 "../../lib/e-puck2_main-processor/ChibiOS//os/hal/ports/STM32/STM32F4xx/stm32_dma.h"
 1055              		.file 26 "../../lib/e-puck2_main-processor/ChibiOS//os/hal/include/hal_ioblock.h"
 1056              		.file 27 "../../lib/e-puck2_main-processor/ChibiOS//os/hal/ports/STM32/LLD/GPIOv2/pal_lld.h"
 1057              		.file 28 "../../lib/e-puck2_main-processor/ChibiOS//os/hal/include/adc.h"
 1058              		.file 29 "../../lib/e-puck2_main-processor/ChibiOS//os/hal/ports/STM32/STM32F4xx/adc_lld.h"
 1059              		.file 30 "../../lib/e-puck2_main-processor/ChibiOS//os/hal/include/can.h"
 1060              		.file 31 "../../lib/e-puck2_main-processor/ChibiOS//os/hal/ports/STM32/LLD/can_lld.h"
 1061              		.file 32 "../../lib/e-puck2_main-processor/ChibiOS//os/hal/include/dac.h"
 1062              		.file 33 "../../lib/e-puck2_main-processor/ChibiOS//os/hal/ports/STM32/LLD/DACv1/dac_lld.h"
 1063              		.file 34 "../../lib/e-puck2_main-processor/ChibiOS//os/hal/include/ext.h"
ARM GAS  C:\Users\mathi\AppData\Local\Temp\ccIY33Qd.s 			page 20


 1064              		.file 35 "../../lib/e-puck2_main-processor/ChibiOS//os/hal/ports/STM32/LLD/ext_lld.h"
 1065              		.file 36 "../../lib/e-puck2_main-processor/ChibiOS//os/hal/include/gpt.h"
 1066              		.file 37 "../../lib/e-puck2_main-processor/ChibiOS//os/hal/ports/STM32/LLD/TIMv1/gpt_lld.h"
 1067              		.file 38 "../../lib/e-puck2_main-processor/ChibiOS//os/hal/ports/STM32/LLD/TIMv1/stm32_tim.h"
 1068              		.file 39 "../../lib/e-puck2_main-processor/ChibiOS//os/hal/include/i2c.h"
 1069              		.file 40 "../../lib/e-puck2_main-processor/ChibiOS//os/hal/ports/STM32/LLD/I2Cv1/i2c_lld.h"
 1070              		.file 41 "../../lib/e-puck2_main-processor/ChibiOS//os/hal/include/i2s.h"
 1071              		.file 42 "../../lib/e-puck2_main-processor/ChibiOS//os/hal/ports/STM32/LLD/SPIv1/i2s_lld.h"
 1072              		.file 43 "../../lib/e-puck2_main-processor/ChibiOS//os/hal/include/pwm.h"
 1073              		.file 44 "../../lib/e-puck2_main-processor/ChibiOS//os/hal/ports/STM32/LLD/TIMv1/pwm_lld.h"
 1074              		.file 45 "../../lib/e-puck2_main-processor/ChibiOS//os/hal/include/serial.h"
 1075              		.file 46 "../../lib/e-puck2_main-processor/ChibiOS//os/hal/ports/STM32/LLD/USARTv1/serial_lld.h"
 1076              		.file 47 "../../lib/e-puck2_main-processor/ChibiOS//os/hal/include/sdc.h"
 1077              		.file 48 "../../lib/e-puck2_main-processor/ChibiOS//os/hal/ports/STM32/LLD/sdc_lld.h"
 1078              		.file 49 "../../lib/e-puck2_main-processor/ChibiOS//os/hal/include/spi.h"
 1079              		.file 50 "../../lib/e-puck2_main-processor/ChibiOS//os/hal/ports/STM32/LLD/SPIv1/spi_lld.h"
 1080              		.file 51 "../../lib/e-puck2_main-processor/ChibiOS//os/hal/include/usb.h"
 1081              		.file 52 "../../lib/e-puck2_main-processor/ChibiOS//os/hal/ports/STM32/LLD/OTGv1/usb_lld.h"
 1082              		.file 53 "../../lib/e-puck2_main-processor/ChibiOS//os/hal/ports/STM32/LLD/OTGv1/stm32_otg.h"
 1083              		.file 54 "../../lib/e-puck2_main-processor/ChibiOS//os/hal/include/serial_usb.h"
 1084              		.file 55 "../../lib/e-puck2_main-processor/src/ir_remote.h"
 1085              		.file 56 "../../lib/e-puck2_main-processor/src/exti.h"
 1086              		.file 57 "../../lib/e-puck2_main-processor/ChibiOS_ext/os/hal/include/../ports/STM32/STM32F4xx/dcm
 1087              		.file 58 "c:\\eclipse_e-puck2\\tools\\gcc-arm-none-eabi-7-2017-q4-major-win32\\arm-none-eabi\\incl
 1088              		.file 59 "c:\\eclipse_e-puck2\\tools\\gcc-arm-none-eabi-7-2017-q4-major-win32\\arm-none-eabi\\incl
 1089              		.file 60 "c:\\eclipse_e-puck2\\tools\\gcc-arm-none-eabi-7-2017-q4-major-win32\\arm-none-eabi\\incl
 1090              		.file 61 "../../lib/e-puck2_main-processor/src/msgbus/messagebus.h"
 1091              		.file 62 "c:\\eclipse_e-puck2\\tools\\gcc-arm-none-eabi-7-2017-q4-major-win32\\arm-none-eabi\\incl
 1092              		.file 63 "c:\\eclipse_e-puck2\\tools\\gcc-arm-none-eabi-7-2017-q4-major-win32\\arm-none-eabi\\incl
 1093              		.file 64 "../../lib/e-puck2_main-processor/src/parameter/parameter.h"
 1094              		.file 65 "./main.h"
 1095              		.file 66 "../../lib/e-puck2_main-processor/ChibiOS//os/various/shell.h"
 1096              		.file 67 "../../lib/e-puck2_main-processor/src/usbcfg.h"
 1097              		.file 68 "../../lib/e-puck2_main-processor/ChibiOS//os/rt/include/chthreads.h"
 1098              		.file 69 "../../lib/e-puck2_main-processor/src/motors.h"