ARM GAS  C:\Users\mathi\AppData\Local\Temp\ccfbASTF.s 			page 1


   1              		.cpu cortex-m4
   2              		.eabi_attribute 27, 1
   3              		.eabi_attribute 28, 1
   4              		.eabi_attribute 20, 1
   5              		.eabi_attribute 21, 1
   6              		.eabi_attribute 23, 3
   7              		.eabi_attribute 24, 1
   8              		.eabi_attribute 25, 1
   9              		.eabi_attribute 26, 1
  10              		.eabi_attribute 30, 2
  11              		.eabi_attribute 34, 1
  12              		.eabi_attribute 18, 4
  13              		.file	"leds.c"
  14              		.text
  15              	.Ltext0:
  16              		.cfi_sections	.debug_frame
  17              		.section	.text.set_led,"ax",%progbits
  18              		.align	1
  19              		.p2align 4,,15
  20              		.global	set_led
  21              		.syntax unified
  22              		.thumb
  23              		.thumb_func
  24              		.fpu fpv4-sp-d16
  25              		.type	set_led, %function
  26              	set_led:
  27              	.LFB256:
  28              		.file 1 "../../lib/e-puck2_main-processor/src/leds.c"
  29              		.loc 1 7 0
  30              		.cfi_startproc
  31              		@ args = 0, pretend = 0, frame = 8
  32              		@ frame_needed = 0, uses_anonymous_args = 0
  33              	.LVL0:
  34 0000 30B5     		push	{r4, r5, lr}
  35              		.cfi_def_cfa_offset 12
  36              		.cfi_offset 4, -12
  37              		.cfi_offset 5, -8
  38              		.cfi_offset 14, -4
  39 0002 3E4B     		ldr	r3, .L25
  40 0004 83B0     		sub	sp, sp, #12
  41              		.cfi_def_cfa_offset 24
  42              		.loc 1 7 0
  43 0006 1A68     		ldr	r2, [r3]
  44 0008 0192     		str	r2, [sp, #4]
  45              		.loc 1 8 0
  46 000a 0328     		cmp	r0, #3
  47 000c 28D8     		bhi	.L2
  48 000e DFE800F0 		tbb	[pc, r0]
  49              	.L4:
  50 0012 1A       		.byte	(.L3-.L4)/2
  51 0013 12       		.byte	(.L5-.L4)/2
  52 0014 0A       		.byte	(.L6-.L4)/2
  53 0015 02       		.byte	(.L7-.L4)/2
  54              		.p2align 1
  55              	.L7:
  56              		.loc 1 31 0
  57 0016 0129     		cmp	r1, #1
ARM GAS  C:\Users\mathi\AppData\Local\Temp\ccfbASTF.s 			page 2


  58 0018 36D9     		bls	.L15
  59              		.loc 1 32 0
  60 001a 3949     		ldr	r1, .L25+4
  61              	.LVL1:
  62 001c 4A69     		ldr	r2, [r1, #20]
  63 001e 82F40062 		eor	r2, r2, #2048
  64 0022 4A61     		str	r2, [r1, #20]
  65 0024 16E0     		b	.L1
  66              	.LVL2:
  67              	.L6:
  68              		.loc 1 24 0
  69 0026 0129     		cmp	r1, #1
  70 0028 3AD9     		bls	.L13
  71              		.loc 1 25 0
  72 002a 3549     		ldr	r1, .L25+4
  73              	.LVL3:
  74 002c 4A69     		ldr	r2, [r1, #20]
  75 002e 82F48062 		eor	r2, r2, #1024
  76 0032 4A61     		str	r2, [r1, #20]
  77 0034 0EE0     		b	.L1
  78              	.LVL4:
  79              	.L5:
  80              		.loc 1 17 0
  81 0036 0129     		cmp	r1, #1
  82 0038 2DD9     		bls	.L11
  83              		.loc 1 18 0
  84 003a 3149     		ldr	r1, .L25+4
  85              	.LVL5:
  86 003c 4A69     		ldr	r2, [r1, #20]
  87 003e 82F04002 		eor	r2, r2, #64
  88 0042 4A61     		str	r2, [r1, #20]
  89 0044 06E0     		b	.L1
  90              	.LVL6:
  91              	.L3:
  92              		.loc 1 10 0
  93 0046 0129     		cmp	r1, #1
  94 0048 3CD9     		bls	.L8
  95              		.loc 1 11 0
  96 004a 2D49     		ldr	r1, .L25+4
  97              	.LVL7:
  98 004c 4A69     		ldr	r2, [r1, #20]
  99 004e 82F02002 		eor	r2, r2, #32
 100 0052 4A61     		str	r2, [r1, #20]
 101              	.LVL8:
 102              	.L1:
 103              		.loc 1 42 0
 104 0054 019A     		ldr	r2, [sp, #4]
 105 0056 1B68     		ldr	r3, [r3]
 106 0058 9A42     		cmp	r2, r3
 107 005a 4DD1     		bne	.L23
 108 005c 03B0     		add	sp, sp, #12
 109              		.cfi_remember_state
 110              		.cfi_def_cfa_offset 12
 111              		@ sp needed
 112 005e 30BD     		pop	{r4, r5, pc}
 113              	.LVL9:
 114              	.L2:
ARM GAS  C:\Users\mathi\AppData\Local\Temp\ccfbASTF.s 			page 3


 115 0060 0129     		cmp	r1, #1
 116              	.LBB31:
 117              	.LBB32:
 118              	.LBB33:
 119              		.loc 1 13 0
 120 0062 274A     		ldr	r2, .L25+4
 121 0064 22D9     		bls	.L24
 122              	.LVL10:
 123              		.loc 1 11 0
 124 0066 5169     		ldr	r1, [r2, #20]
 125              	.LVL11:
 126 0068 81F02001 		eor	r1, r1, #32
 127 006c 5161     		str	r1, [r2, #20]
 128              	.LVL12:
 129              		.loc 1 18 0
 130 006e 5169     		ldr	r1, [r2, #20]
 131 0070 81F04001 		eor	r1, r1, #64
 132 0074 5161     		str	r1, [r2, #20]
 133              	.LVL13:
 134              		.loc 1 25 0
 135 0076 5169     		ldr	r1, [r2, #20]
 136 0078 81F48061 		eor	r1, r1, #1024
 137 007c 5161     		str	r1, [r2, #20]
 138              	.LVL14:
 139              		.loc 1 32 0
 140 007e 5169     		ldr	r1, [r2, #20]
 141 0080 81F40061 		eor	r1, r1, #2048
 142 0084 5161     		str	r1, [r2, #20]
 143              	.LVL15:
 144              	.LBE33:
 145              	.LBE32:
 146              	.LBE31:
 147              		.loc 1 42 0
 148 0086 E5E7     		b	.L1
 149              	.LVL16:
 150              	.L15:
 151              		.cfi_restore_state
 152              		.loc 1 34 0
 153 0088 1D4A     		ldr	r2, .L25+4
 154 008a 0029     		cmp	r1, #0
 155 008c 30D0     		beq	.L16
 156              		.loc 1 34 0 is_stmt 0 discriminator 1
 157 008e 4FF40061 		mov	r1, #2048
 158              	.LVL17:
 159 0092 5183     		strh	r1, [r2, #26]	@ movhi
 160 0094 DEE7     		b	.L1
 161              	.LVL18:
 162              	.L11:
 163              		.loc 1 20 0 is_stmt 1
 164 0096 1A4A     		ldr	r2, .L25+4
 165 0098 39B3     		cbz	r1, .L12
 166              		.loc 1 20 0 is_stmt 0 discriminator 1
 167 009a 4021     		movs	r1, #64
 168              	.LVL19:
 169 009c 5183     		strh	r1, [r2, #26]	@ movhi
 170 009e D9E7     		b	.L1
 171              	.LVL20:
ARM GAS  C:\Users\mathi\AppData\Local\Temp\ccfbASTF.s 			page 4


 172              	.L13:
 173              		.loc 1 27 0 is_stmt 1
 174 00a0 174A     		ldr	r2, .L25+4
 175 00a2 F1B1     		cbz	r1, .L14
 176              		.loc 1 27 0 is_stmt 0 discriminator 1
 177 00a4 4FF48061 		mov	r1, #1024
 178              	.LVL21:
 179 00a8 5183     		strh	r1, [r2, #26]	@ movhi
 180 00aa D3E7     		b	.L1
 181              	.LVL22:
 182              	.L24:
 183              	.LBB38:
 184              	.LBB36:
 185              	.LBB34:
 186              		.loc 1 13 0 is_stmt 1
 187 00ac 2025     		movs	r5, #32
 188              		.loc 1 20 0
 189 00ae 4024     		movs	r4, #64
 190              		.loc 1 27 0
 191 00b0 4FF48060 		mov	r0, #1024
 192              	.LVL23:
 193 00b4 71B9     		cbnz	r1, .L18
 194              	.LVL24:
 195              		.loc 1 34 0
 196 00b6 4FF40061 		mov	r1, #2048
 197              	.LVL25:
 198              		.loc 1 13 0
 199 00ba 1583     		strh	r5, [r2, #24]	@ movhi
 200              	.LVL26:
 201              		.loc 1 20 0
 202 00bc 1483     		strh	r4, [r2, #24]	@ movhi
 203              	.LVL27:
 204              		.loc 1 27 0
 205 00be 1083     		strh	r0, [r2, #24]	@ movhi
 206              	.LVL28:
 207              		.loc 1 34 0
 208 00c0 1183     		strh	r1, [r2, #24]	@ movhi
 209              	.LVL29:
 210 00c2 C7E7     		b	.L1
 211              	.LVL30:
 212              	.L8:
 213              	.LBE34:
 214              	.LBE36:
 215              	.LBE38:
 216              		.loc 1 13 0
 217 00c4 0E4A     		ldr	r2, .L25+4
 218 00c6 11B1     		cbz	r1, .L10
 219              		.loc 1 13 0 is_stmt 0 discriminator 1
 220 00c8 2021     		movs	r1, #32
 221              	.LVL31:
 222 00ca 5183     		strh	r1, [r2, #26]	@ movhi
 223 00cc C2E7     		b	.L1
 224              	.LVL32:
 225              	.L10:
 226              		.loc 1 13 0 discriminator 2
 227 00ce 2021     		movs	r1, #32
 228              	.LVL33:
ARM GAS  C:\Users\mathi\AppData\Local\Temp\ccfbASTF.s 			page 5


 229 00d0 1183     		strh	r1, [r2, #24]	@ movhi
 230 00d2 BFE7     		b	.L1
 231              	.LVL34:
 232              	.L18:
 233              	.LBB39:
 234              	.LBB37:
 235              	.LBB35:
 236              		.loc 1 34 0 is_stmt 1
 237 00d4 4FF40061 		mov	r1, #2048
 238              	.LVL35:
 239              		.loc 1 13 0
 240 00d8 5583     		strh	r5, [r2, #26]	@ movhi
 241              	.LVL36:
 242              		.loc 1 20 0
 243 00da 5483     		strh	r4, [r2, #26]	@ movhi
 244              	.LVL37:
 245              		.loc 1 27 0
 246 00dc 5083     		strh	r0, [r2, #26]	@ movhi
 247              	.LVL38:
 248              		.loc 1 34 0
 249 00de 5183     		strh	r1, [r2, #26]	@ movhi
 250              	.LVL39:
 251 00e0 B8E7     		b	.L1
 252              	.LVL40:
 253              	.L14:
 254              	.LBE35:
 255              	.LBE37:
 256              	.LBE39:
 257              		.loc 1 27 0 discriminator 2
 258 00e2 4FF48061 		mov	r1, #1024
 259              	.LVL41:
 260 00e6 1183     		strh	r1, [r2, #24]	@ movhi
 261 00e8 B4E7     		b	.L1
 262              	.LVL42:
 263              	.L12:
 264              		.loc 1 20 0 discriminator 2
 265 00ea 4021     		movs	r1, #64
 266              	.LVL43:
 267 00ec 1183     		strh	r1, [r2, #24]	@ movhi
 268 00ee B1E7     		b	.L1
 269              	.LVL44:
 270              	.L16:
 271              		.loc 1 34 0 discriminator 2
 272 00f0 4FF40061 		mov	r1, #2048
 273              	.LVL45:
 274 00f4 1183     		strh	r1, [r2, #24]	@ movhi
 275 00f6 ADE7     		b	.L1
 276              	.LVL46:
 277              	.L23:
 278              		.loc 1 42 0
 279 00f8 FFF7FEFF 		bl	__stack_chk_fail
 280              	.LVL47:
 281              	.L26:
 282              		.align	2
 283              	.L25:
 284 00fc 00000000 		.word	__stack_chk_guard
 285 0100 000C0240 		.word	1073875968
ARM GAS  C:\Users\mathi\AppData\Local\Temp\ccfbASTF.s 			page 6


 286              		.cfi_endproc
 287              	.LFE256:
 288              		.size	set_led, .-set_led
 289              		.section	.text.set_rgb_led,"ax",%progbits
 290              		.align	1
 291              		.p2align 4,,15
 292              		.global	set_rgb_led
 293              		.syntax unified
 294              		.thumb
 295              		.thumb_func
 296              		.fpu fpv4-sp-d16
 297              		.type	set_rgb_led, %function
 298              	set_rgb_led:
 299              	.LFB257:
 300              		.loc 1 44 0
 301              		.cfi_startproc
 302              		@ args = 0, pretend = 0, frame = 8
 303              		@ frame_needed = 0, uses_anonymous_args = 0
 304              	.LVL48:
 305 0000 70B5     		push	{r4, r5, r6, lr}
 306              		.cfi_def_cfa_offset 16
 307              		.cfi_offset 4, -16
 308              		.cfi_offset 5, -12
 309              		.cfi_offset 6, -8
 310              		.cfi_offset 14, -4
 311 0002 094D     		ldr	r5, .L31
 312              		.loc 1 45 0
 313 0004 094E     		ldr	r6, .L31+4
 314              		.loc 1 44 0
 315 0006 2C68     		ldr	r4, [r5]
 316 0008 82B0     		sub	sp, sp, #8
 317              		.cfi_def_cfa_offset 24
 318              		.loc 1 45 0
 319 000a 00EB4000 		add	r0, r0, r0, lsl #1
 320              	.LVL49:
 321              		.loc 1 44 0
 322 000e 0194     		str	r4, [sp, #4]
 323              		.loc 1 45 0
 324 0010 3154     		strb	r1, [r6, r0]
 325 0012 3418     		adds	r4, r6, r0
 326              		.loc 1 48 0
 327 0014 0198     		ldr	r0, [sp, #4]
 328 0016 2968     		ldr	r1, [r5]
 329              	.LVL50:
 330              		.loc 1 46 0
 331 0018 6270     		strb	r2, [r4, #1]
 332              		.loc 1 48 0
 333 001a 8842     		cmp	r0, r1
 334              		.loc 1 47 0
 335 001c A370     		strb	r3, [r4, #2]
 336              		.loc 1 48 0
 337 001e 01D1     		bne	.L30
 338 0020 02B0     		add	sp, sp, #8
 339              		.cfi_remember_state
 340              		.cfi_def_cfa_offset 16
 341              		@ sp needed
 342 0022 70BD     		pop	{r4, r5, r6, pc}
ARM GAS  C:\Users\mathi\AppData\Local\Temp\ccfbASTF.s 			page 7


 343              	.LVL51:
 344              	.L30:
 345              		.cfi_restore_state
 346 0024 FFF7FEFF 		bl	__stack_chk_fail
 347              	.LVL52:
 348              	.L32:
 349              		.align	2
 350              	.L31:
 351 0028 00000000 		.word	__stack_chk_guard
 352 002c 00000000 		.word	.LANCHOR0
 353              		.cfi_endproc
 354              	.LFE257:
 355              		.size	set_rgb_led, .-set_rgb_led
 356              		.section	.text.toggle_rgb_led,"ax",%progbits
 357              		.align	1
 358              		.p2align 4,,15
 359              		.global	toggle_rgb_led
 360              		.syntax unified
 361              		.thumb
 362              		.thumb_func
 363              		.fpu fpv4-sp-d16
 364              		.type	toggle_rgb_led, %function
 365              	toggle_rgb_led:
 366              	.LFB258:
 367              		.loc 1 50 0
 368              		.cfi_startproc
 369              		@ args = 0, pretend = 0, frame = 8
 370              		@ frame_needed = 0, uses_anonymous_args = 0
 371              	.LVL53:
 372 0000 30B5     		push	{r4, r5, lr}
 373              		.cfi_def_cfa_offset 12
 374              		.cfi_offset 4, -12
 375              		.cfi_offset 5, -8
 376              		.cfi_offset 14, -4
 377              		.loc 1 51 0
 378 0002 0A4B     		ldr	r3, .L39
 379              		.loc 1 50 0
 380 0004 0A4C     		ldr	r4, .L39+4
 381              		.loc 1 51 0
 382 0006 00EB4000 		add	r0, r0, r0, lsl #1
 383              	.LVL54:
 384 000a 1844     		add	r0, r0, r3
 385              		.loc 1 50 0
 386 000c 83B0     		sub	sp, sp, #12
 387              		.cfi_def_cfa_offset 24
 388              		.loc 1 50 0
 389 000e 2568     		ldr	r5, [r4]
 390              		.loc 1 51 0
 391 0010 435C     		ldrb	r3, [r0, r1]	@ zero_extendqisi2
 392              		.loc 1 50 0
 393 0012 0195     		str	r5, [sp, #4]
 394              		.loc 1 52 0
 395 0014 002B     		cmp	r3, #0
 396              		.loc 1 56 0
 397 0016 019D     		ldr	r5, [sp, #4]
 398 0018 2368     		ldr	r3, [r4]
 399              		.loc 1 52 0
ARM GAS  C:\Users\mathi\AppData\Local\Temp\ccfbASTF.s 			page 8


 400 001a 18BF     		it	ne
 401 001c 0022     		movne	r2, #0
 402              	.LVL55:
 403              		.loc 1 56 0
 404 001e 9D42     		cmp	r5, r3
 405 0020 4254     		strb	r2, [r0, r1]
 406 0022 01D1     		bne	.L38
 407 0024 03B0     		add	sp, sp, #12
 408              		.cfi_remember_state
 409              		.cfi_def_cfa_offset 12
 410              		@ sp needed
 411 0026 30BD     		pop	{r4, r5, pc}
 412              	.L38:
 413              		.cfi_restore_state
 414 0028 FFF7FEFF 		bl	__stack_chk_fail
 415              	.LVL56:
 416              	.L40:
 417              		.align	2
 418              	.L39:
 419 002c 00000000 		.word	.LANCHOR0
 420 0030 00000000 		.word	__stack_chk_guard
 421              		.cfi_endproc
 422              	.LFE258:
 423              		.size	toggle_rgb_led, .-toggle_rgb_led
 424              		.section	.text.set_body_led,"ax",%progbits
 425              		.align	1
 426              		.p2align 4,,15
 427              		.global	set_body_led
 428              		.syntax unified
 429              		.thumb
 430              		.thumb_func
 431              		.fpu fpv4-sp-d16
 432              		.type	set_body_led, %function
 433              	set_body_led:
 434              	.LFB259:
 435              		.loc 1 65 0
 436              		.cfi_startproc
 437              		@ args = 0, pretend = 0, frame = 8
 438              		@ frame_needed = 0, uses_anonymous_args = 0
 439              	.LVL57:
 440 0000 00B5     		push	{lr}
 441              		.cfi_def_cfa_offset 4
 442              		.cfi_offset 14, -4
 443 0002 0D4B     		ldr	r3, .L49
 444 0004 83B0     		sub	sp, sp, #12
 445              		.cfi_def_cfa_offset 16
 446              		.loc 1 65 0
 447 0006 1A68     		ldr	r2, [r3]
 448 0008 0192     		str	r2, [sp, #4]
 449              		.loc 1 66 0
 450 000a 0128     		cmp	r0, #1
 451 000c 0BD9     		bls	.L42
 452              		.loc 1 67 0
 453 000e 0B49     		ldr	r1, .L49+4
 454 0010 4A69     		ldr	r2, [r1, #20]
 455 0012 82F00402 		eor	r2, r2, #4
 456 0016 4A61     		str	r2, [r1, #20]
ARM GAS  C:\Users\mathi\AppData\Local\Temp\ccfbASTF.s 			page 9


 457              	.L41:
 458              		.loc 1 70 0
 459 0018 019A     		ldr	r2, [sp, #4]
 460 001a 1B68     		ldr	r3, [r3]
 461 001c 9A42     		cmp	r2, r3
 462 001e 09D1     		bne	.L47
 463 0020 03B0     		add	sp, sp, #12
 464              		.cfi_remember_state
 465              		.cfi_def_cfa_offset 4
 466              		@ sp needed
 467 0022 5DF804FB 		ldr	pc, [sp], #4
 468              	.L42:
 469              		.cfi_restore_state
 470              		.loc 1 69 0
 471 0026 054A     		ldr	r2, .L49+4
 472 0028 0421     		movs	r1, #4
 473 002a 08B9     		cbnz	r0, .L48
 474              		.loc 1 69 0 is_stmt 0 discriminator 2
 475 002c 5183     		strh	r1, [r2, #26]	@ movhi
 476              		.loc 1 70 0 is_stmt 1 discriminator 2
 477 002e F3E7     		b	.L41
 478              	.L48:
 479              		.loc 1 69 0 discriminator 1
 480 0030 1183     		strh	r1, [r2, #24]	@ movhi
 481 0032 F1E7     		b	.L41
 482              	.L47:
 483              		.loc 1 70 0
 484 0034 FFF7FEFF 		bl	__stack_chk_fail
 485              	.LVL58:
 486              	.L50:
 487              		.align	2
 488              	.L49:
 489 0038 00000000 		.word	__stack_chk_guard
 490 003c 00040240 		.word	1073873920
 491              		.cfi_endproc
 492              	.LFE259:
 493              		.size	set_body_led, .-set_body_led
 494              		.section	.text.set_front_led,"ax",%progbits
 495              		.align	1
 496              		.p2align 4,,15
 497              		.global	set_front_led
 498              		.syntax unified
 499              		.thumb
 500              		.thumb_func
 501              		.fpu fpv4-sp-d16
 502              		.type	set_front_led, %function
 503              	set_front_led:
 504              	.LFB260:
 505              		.loc 1 79 0
 506              		.cfi_startproc
 507              		@ args = 0, pretend = 0, frame = 8
 508              		@ frame_needed = 0, uses_anonymous_args = 0
 509              	.LVL59:
 510 0000 00B5     		push	{lr}
 511              		.cfi_def_cfa_offset 4
 512              		.cfi_offset 14, -4
 513 0002 0E4B     		ldr	r3, .L59
ARM GAS  C:\Users\mathi\AppData\Local\Temp\ccfbASTF.s 			page 10


 514 0004 83B0     		sub	sp, sp, #12
 515              		.cfi_def_cfa_offset 16
 516              		.loc 1 79 0
 517 0006 1A68     		ldr	r2, [r3]
 518 0008 0192     		str	r2, [sp, #4]
 519              		.loc 1 80 0
 520 000a 0128     		cmp	r0, #1
 521 000c 0BD9     		bls	.L52
 522              		.loc 1 81 0
 523 000e 0C49     		ldr	r1, .L59+4
 524 0010 4A69     		ldr	r2, [r1, #20]
 525 0012 82F48042 		eor	r2, r2, #16384
 526 0016 4A61     		str	r2, [r1, #20]
 527              	.L51:
 528              		.loc 1 84 0
 529 0018 019A     		ldr	r2, [sp, #4]
 530 001a 1B68     		ldr	r3, [r3]
 531 001c 9A42     		cmp	r2, r3
 532 001e 0AD1     		bne	.L57
 533 0020 03B0     		add	sp, sp, #12
 534              		.cfi_remember_state
 535              		.cfi_def_cfa_offset 4
 536              		@ sp needed
 537 0022 5DF804FB 		ldr	pc, [sp], #4
 538              	.L52:
 539              		.cfi_restore_state
 540              		.loc 1 83 0
 541 0026 064A     		ldr	r2, .L59+4
 542 0028 4FF48041 		mov	r1, #16384
 543 002c 08B9     		cbnz	r0, .L58
 544              		.loc 1 83 0 is_stmt 0 discriminator 2
 545 002e 5183     		strh	r1, [r2, #26]	@ movhi
 546              		.loc 1 84 0 is_stmt 1 discriminator 2
 547 0030 F2E7     		b	.L51
 548              	.L58:
 549              		.loc 1 83 0 discriminator 1
 550 0032 1183     		strh	r1, [r2, #24]	@ movhi
 551 0034 F0E7     		b	.L51
 552              	.L57:
 553              		.loc 1 84 0
 554 0036 FFF7FEFF 		bl	__stack_chk_fail
 555              	.LVL60:
 556              	.L60:
 557 003a 00BF     		.align	2
 558              	.L59:
 559 003c 00000000 		.word	__stack_chk_guard
 560 0040 000C0240 		.word	1073875968
 561              		.cfi_endproc
 562              	.LFE260:
 563              		.size	set_front_led, .-set_front_led
 564              		.section	.text.clear_leds,"ax",%progbits
 565              		.align	1
 566              		.p2align 4,,15
 567              		.global	clear_leds
 568              		.syntax unified
 569              		.thumb
 570              		.thumb_func
ARM GAS  C:\Users\mathi\AppData\Local\Temp\ccfbASTF.s 			page 11


 571              		.fpu fpv4-sp-d16
 572              		.type	clear_leds, %function
 573              	clear_leds:
 574              	.LFB261:
 575              		.loc 1 87 0
 576              		.cfi_startproc
 577              		@ args = 0, pretend = 0, frame = 8
 578              		@ frame_needed = 0, uses_anonymous_args = 0
 579 0000 30B5     		push	{r4, r5, lr}
 580              		.cfi_def_cfa_offset 12
 581              		.cfi_offset 4, -12
 582              		.cfi_offset 5, -8
 583              		.cfi_offset 14, -4
 584 0002 1148     		ldr	r0, .L65
 585              	.LBB55:
 586              	.LBB56:
 587              	.LBB57:
 588              		.loc 1 45 0
 589 0004 114B     		ldr	r3, .L65+4
 590              	.LBE57:
 591              	.LBE56:
 592              	.LBE55:
 593              		.loc 1 87 0
 594 0006 0268     		ldr	r2, [r0]
 595              	.LBB76:
 596              	.LBB62:
 597              	.LBB63:
 598              		.loc 1 13 0
 599 0008 1149     		ldr	r1, .L65+8
 600              	.LBE63:
 601              	.LBE62:
 602              	.LBE76:
 603              		.loc 1 87 0
 604 000a 83B0     		sub	sp, sp, #12
 605              		.cfi_def_cfa_offset 24
 606              	.LBB77:
 607              	.LBB68:
 608              	.LBB64:
 609              		.loc 1 13 0
 610 000c 2025     		movs	r5, #32
 611              	.LBE64:
 612              	.LBE68:
 613              	.LBE77:
 614              		.loc 1 87 0
 615 000e 0192     		str	r2, [sp, #4]
 616              	.LVL61:
 617              	.LBB78:
 618              	.LBB69:
 619              	.LBB65:
 620              		.loc 1 20 0
 621 0010 4024     		movs	r4, #64
 622              	.LBE65:
 623              	.LBE69:
 624              	.LBB70:
 625              	.LBB58:
 626              		.loc 1 45 0
 627 0012 0022     		movs	r2, #0
ARM GAS  C:\Users\mathi\AppData\Local\Temp\ccfbASTF.s 			page 12


 628              	.LBE58:
 629              	.LBE70:
 630              	.LBB71:
 631              	.LBB66:
 632              		.loc 1 13 0
 633 0014 0D83     		strh	r5, [r1, #24]	@ movhi
 634              	.LVL62:
 635              	.LBE66:
 636              	.LBE71:
 637              	.LBB72:
 638              	.LBB59:
 639              		.loc 1 45 0
 640 0016 1A80     		strh	r2, [r3]	@ movhi
 641              	.LBE59:
 642              	.LBE72:
 643              	.LBB73:
 644              	.LBB67:
 645              		.loc 1 27 0
 646 0018 4FF48065 		mov	r5, #1024
 647              		.loc 1 20 0
 648 001c 0C83     		strh	r4, [r1, #24]	@ movhi
 649              		.loc 1 34 0
 650 001e 4FF40064 		mov	r4, #2048
 651              		.loc 1 27 0
 652 0022 0D83     		strh	r5, [r1, #24]	@ movhi
 653              		.loc 1 34 0
 654 0024 0C83     		strh	r4, [r1, #24]	@ movhi
 655              	.LBE67:
 656              	.LBE73:
 657              	.LBE78:
 658              		.loc 1 92 0
 659 0026 019C     		ldr	r4, [sp, #4]
 660 0028 0168     		ldr	r1, [r0]
 661              	.LBB79:
 662              	.LBB74:
 663              	.LBB60:
 664              		.loc 1 46 0
 665 002a 9A70     		strb	r2, [r3, #2]
 666              	.LVL63:
 667              	.LBE60:
 668              	.LBE74:
 669              	.LBE79:
 670              		.loc 1 92 0
 671 002c 8C42     		cmp	r4, r1
 672              	.LBB80:
 673              	.LBB75:
 674              	.LBB61:
 675              		.loc 1 45 0
 676 002e DA70     		strb	r2, [r3, #3]
 677              		.loc 1 46 0
 678 0030 1A71     		strb	r2, [r3, #4]
 679              		.loc 1 47 0
 680 0032 5A71     		strb	r2, [r3, #5]
 681              	.LVL64:
 682              		.loc 1 45 0
 683 0034 DA80     		strh	r2, [r3, #6]	@ movhi
 684              		.loc 1 46 0
ARM GAS  C:\Users\mathi\AppData\Local\Temp\ccfbASTF.s 			page 13


 685 0036 1A72     		strb	r2, [r3, #8]
 686              	.LVL65:
 687              		.loc 1 45 0
 688 0038 5A72     		strb	r2, [r3, #9]
 689              		.loc 1 46 0
 690 003a 9A72     		strb	r2, [r3, #10]
 691              		.loc 1 47 0
 692 003c DA72     		strb	r2, [r3, #11]
 693              	.LVL66:
 694              	.LBE61:
 695              	.LBE75:
 696              	.LBE80:
 697              		.loc 1 92 0
 698 003e 01D1     		bne	.L64
 699 0040 03B0     		add	sp, sp, #12
 700              		.cfi_remember_state
 701              		.cfi_def_cfa_offset 12
 702              		@ sp needed
 703 0042 30BD     		pop	{r4, r5, pc}
 704              	.L64:
 705              		.cfi_restore_state
 706 0044 FFF7FEFF 		bl	__stack_chk_fail
 707              	.LVL67:
 708              	.L66:
 709              		.align	2
 710              	.L65:
 711 0048 00000000 		.word	__stack_chk_guard
 712 004c 00000000 		.word	.LANCHOR0
 713 0050 000C0240 		.word	1073875968
 714              		.cfi_endproc
 715              	.LFE261:
 716              		.size	clear_leds, .-clear_leds
 717              		.section	.text.get_all_rgb_state,"ax",%progbits
 718              		.align	1
 719              		.p2align 4,,15
 720              		.global	get_all_rgb_state
 721              		.syntax unified
 722              		.thumb
 723              		.thumb_func
 724              		.fpu fpv4-sp-d16
 725              		.type	get_all_rgb_state, %function
 726              	get_all_rgb_state:
 727              	.LFB262:
 728              		.loc 1 94 0
 729              		.cfi_startproc
 730              		@ args = 0, pretend = 0, frame = 8
 731              		@ frame_needed = 0, uses_anonymous_args = 0
 732              	.LVL68:
 733 0000 30B5     		push	{r4, r5, lr}
 734              		.cfi_def_cfa_offset 12
 735              		.cfi_offset 4, -12
 736              		.cfi_offset 5, -8
 737              		.cfi_offset 14, -4
 738              		.loc 1 95 0
 739 0002 094B     		ldr	r3, .L71
 740              		.loc 1 94 0
 741 0004 094D     		ldr	r5, .L71+4
ARM GAS  C:\Users\mathi\AppData\Local\Temp\ccfbASTF.s 			page 14


 742 0006 0446     		mov	r4, r0
 743              		.loc 1 95 0
 744 0008 07CB     		ldmia	r3!, {r0, r1, r2}
 745              	.LVL69:
 746              		.loc 1 94 0
 747 000a 83B0     		sub	sp, sp, #12
 748              		.cfi_def_cfa_offset 24
 749              		.loc 1 94 0
 750 000c 2B68     		ldr	r3, [r5]
 751 000e 0193     		str	r3, [sp, #4]
 752              		.loc 1 95 0
 753 0010 2060     		str	r0, [r4]	@ unaligned
 754              		.loc 1 96 0
 755 0012 0198     		ldr	r0, [sp, #4]
 756 0014 2B68     		ldr	r3, [r5]
 757              		.loc 1 95 0
 758 0016 6160     		str	r1, [r4, #4]	@ unaligned
 759              		.loc 1 96 0
 760 0018 9842     		cmp	r0, r3
 761              		.loc 1 95 0
 762 001a A260     		str	r2, [r4, #8]	@ unaligned
 763              		.loc 1 96 0
 764 001c 01D1     		bne	.L70
 765 001e 03B0     		add	sp, sp, #12
 766              		.cfi_remember_state
 767              		.cfi_def_cfa_offset 12
 768              		@ sp needed
 769 0020 30BD     		pop	{r4, r5, pc}
 770              	.LVL70:
 771              	.L70:
 772              		.cfi_restore_state
 773 0022 FFF7FEFF 		bl	__stack_chk_fail
 774              	.LVL71:
 775              	.L72:
 776 0026 00BF     		.align	2
 777              	.L71:
 778 0028 00000000 		.word	.LANCHOR0
 779 002c 00000000 		.word	__stack_chk_guard
 780              		.cfi_endproc
 781              	.LFE262:
 782              		.size	get_all_rgb_state, .-get_all_rgb_state
 783              		.section	.bss.rgb_led,"aw",%nobits
 784              		.align	2
 785              		.set	.LANCHOR0,. + 0
 786              		.type	rgb_led, %object
 787              		.size	rgb_led, 12
 788              	rgb_led:
 789 0000 00000000 		.space	12
 789      00000000 
 789      00000000 
 790              		.text
 791              	.Letext0:
 792              		.file 2 "c:\\eclipse_e-puck2\\tools\\gcc-arm-none-eabi-7-2017-q4-major-win32\\lib\\gcc\\arm-none-e
 793              		.file 3 "c:\\eclipse_e-puck2\\tools\\gcc-arm-none-eabi-7-2017-q4-major-win32\\arm-none-eabi\\inclu
 794              		.file 4 "c:\\eclipse_e-puck2\\tools\\gcc-arm-none-eabi-7-2017-q4-major-win32\\arm-none-eabi\\inclu
 795              		.file 5 "../../lib/e-puck2_main-processor/ChibiOS//os/rt/ports/ARMCMx/compilers/GCC/chtypes.h"
 796              		.file 6 "../../lib/e-puck2_main-processor/ChibiOS//os/rt/include/chsystypes.h"
ARM GAS  C:\Users\mathi\AppData\Local\Temp\ccfbASTF.s 			page 15


 797              		.file 7 "../../lib/e-puck2_main-processor/ChibiOS//os/rt/include/chschd.h"
 798              		.file 8 "../../lib/e-puck2_main-processor/ChibiOS//os/ext/CMSIS/include/core_cm4.h"
 799              		.file 9 "../../lib/e-puck2_main-processor/ChibiOS//os/ext/CMSIS/ST/system_stm32f4xx.h"
 800              		.file 10 "../../lib/e-puck2_main-processor/ChibiOS//os/ext/CMSIS/ST/stm32f407xx.h"
 801              		.file 11 "../../lib/e-puck2_main-processor/ChibiOS//os/rt/ports/ARMCMx/chcore.h"
 802              		.file 12 "../../lib/e-puck2_main-processor/ChibiOS//os/rt/ports/ARMCMx/chcore_v7m.h"
 803              		.file 13 "../../lib/e-puck2_main-processor/ChibiOS//os/rt/include/chdebug.h"
 804              		.file 14 "../../lib/e-puck2_main-processor/ChibiOS//os/rt/include/chtm.h"
 805              		.file 15 "../../lib/e-puck2_main-processor/ChibiOS//os/rt/include/chstats.h"
 806              		.file 16 "../../lib/e-puck2_main-processor/ChibiOS//os/rt/include/chsem.h"
 807              		.file 17 "../../lib/e-puck2_main-processor/ChibiOS//os/rt/include/chmtx.h"
 808              		.file 18 "../../lib/e-puck2_main-processor/ChibiOS//os/rt/include/chregistry.h"
 809              		.file 19 "../../lib/e-puck2_main-processor/ChibiOS//os/rt/include/chevents.h"
 810              		.file 20 "../../lib/e-puck2_main-processor/ChibiOS//os/rt/include/chqueues.h"
 811              		.file 21 "../../lib/e-puck2_main-processor/ChibiOS//os/hal/ports/STM32/STM32F4xx/stm32_dma.h"
 812              		.file 22 "../../lib/e-puck2_main-processor/ChibiOS//os/hal/include/hal_ioblock.h"
 813              		.file 23 "../../lib/e-puck2_main-processor/ChibiOS//os/hal/ports/STM32/LLD/GPIOv2/pal_lld.h"
 814              		.file 24 "../../lib/e-puck2_main-processor/ChibiOS//os/hal/include/adc.h"
 815              		.file 25 "../../lib/e-puck2_main-processor/ChibiOS//os/hal/ports/STM32/STM32F4xx/adc_lld.h"
 816              		.file 26 "../../lib/e-puck2_main-processor/ChibiOS//os/hal/include/can.h"
 817              		.file 27 "../../lib/e-puck2_main-processor/ChibiOS//os/hal/ports/STM32/LLD/can_lld.h"
 818              		.file 28 "../../lib/e-puck2_main-processor/ChibiOS//os/hal/include/dac.h"
 819              		.file 29 "../../lib/e-puck2_main-processor/ChibiOS//os/hal/ports/STM32/LLD/DACv1/dac_lld.h"
 820              		.file 30 "../../lib/e-puck2_main-processor/ChibiOS//os/hal/include/ext.h"
 821              		.file 31 "../../lib/e-puck2_main-processor/ChibiOS//os/hal/ports/STM32/LLD/ext_lld.h"
 822              		.file 32 "../../lib/e-puck2_main-processor/ChibiOS//os/hal/include/gpt.h"
 823              		.file 33 "../../lib/e-puck2_main-processor/ChibiOS//os/hal/ports/STM32/LLD/TIMv1/gpt_lld.h"
 824              		.file 34 "../../lib/e-puck2_main-processor/ChibiOS//os/hal/ports/STM32/LLD/TIMv1/stm32_tim.h"
 825              		.file 35 "../../lib/e-puck2_main-processor/ChibiOS//os/hal/include/i2c.h"
 826              		.file 36 "../../lib/e-puck2_main-processor/ChibiOS//os/hal/ports/STM32/LLD/I2Cv1/i2c_lld.h"
 827              		.file 37 "../../lib/e-puck2_main-processor/ChibiOS//os/hal/include/i2s.h"
 828              		.file 38 "../../lib/e-puck2_main-processor/ChibiOS//os/hal/ports/STM32/LLD/SPIv1/i2s_lld.h"
 829              		.file 39 "../../lib/e-puck2_main-processor/ChibiOS//os/hal/include/pwm.h"
 830              		.file 40 "../../lib/e-puck2_main-processor/ChibiOS//os/hal/ports/STM32/LLD/TIMv1/pwm_lld.h"
 831              		.file 41 "../../lib/e-puck2_main-processor/ChibiOS//os/hal/include/serial.h"
 832              		.file 42 "../../lib/e-puck2_main-processor/ChibiOS//os/hal/ports/STM32/LLD/USARTv1/serial_lld.h"
 833              		.file 43 "../../lib/e-puck2_main-processor/ChibiOS//os/hal/include/sdc.h"
 834              		.file 44 "../../lib/e-puck2_main-processor/ChibiOS//os/hal/ports/STM32/LLD/sdc_lld.h"
 835              		.file 45 "../../lib/e-puck2_main-processor/ChibiOS//os/hal/include/spi.h"
 836              		.file 46 "../../lib/e-puck2_main-processor/ChibiOS//os/hal/ports/STM32/LLD/SPIv1/spi_lld.h"
 837              		.file 47 "../../lib/e-puck2_main-processor/ChibiOS//os/hal/include/usb.h"
 838              		.file 48 "../../lib/e-puck2_main-processor/ChibiOS//os/hal/ports/STM32/LLD/OTGv1/usb_lld.h"
 839              		.file 49 "../../lib/e-puck2_main-processor/ChibiOS//os/hal/ports/STM32/LLD/OTGv1/stm32_otg.h"
 840              		.file 50 "../../lib/e-puck2_main-processor/src/leds.h"
 841              		.file 51 "c:\\eclipse_e-puck2\\tools\\gcc-arm-none-eabi-7-2017-q4-major-win32\\arm-none-eabi\\incl
 842              		.file 52 "c:\\eclipse_e-puck2\\tools\\gcc-arm-none-eabi-7-2017-q4-major-win32\\arm-none-eabi\\incl
 843              		.file 53 "c:\\eclipse_e-puck2\\tools\\gcc-arm-none-eabi-7-2017-q4-major-win32\\arm-none-eabi\\incl