ARM GAS  C:\Users\mathi\AppData\Local\Temp\ccdA4sa8.s 			page 1


   1              		.cpu cortex-m4
   2              		.eabi_attribute 27, 1
   3              		.eabi_attribute 28, 1
   4              		.eabi_attribute 20, 1
   5              		.eabi_attribute 21, 1
   6              		.eabi_attribute 23, 3
   7              		.eabi_attribute 24, 1
   8              		.eabi_attribute 25, 1
   9              		.eabi_attribute 26, 1
  10              		.eabi_attribute 30, 2
  11              		.eabi_attribute 34, 1
  12              		.eabi_attribute 18, 4
  13              		.file	"memory_protection.c"
  14              		.text
  15              	.Ltext0:
  16              		.cfi_sections	.debug_frame
  17              		.section	.text.mpu_enable,"ax",%progbits
  18              		.align	1
  19              		.p2align 4,,15
  20              		.global	mpu_enable
  21              		.syntax unified
  22              		.thumb
  23              		.thumb_func
  24              		.fpu fpv4-sp-d16
  25              		.type	mpu_enable, %function
  26              	mpu_enable:
  27              	.LFB259:
  28              		.file 1 "../../lib/e-puck2_main-processor/src/memory_protection.c"
  29              		.loc 1 35 0
  30              		.cfi_startproc
  31              		@ args = 0, pretend = 0, frame = 8
  32              		@ frame_needed = 0, uses_anonymous_args = 0
  33 0000 00B5     		push	{lr}
  34              		.cfi_def_cfa_offset 4
  35              		.cfi_offset 14, -4
  36 0002 094A     		ldr	r2, .L6
  37              		.loc 1 36 0
  38 0004 0949     		ldr	r1, .L6+4
  39              		.loc 1 35 0
  40 0006 1368     		ldr	r3, [r2]
  41 0008 83B0     		sub	sp, sp, #12
  42              		.cfi_def_cfa_offset 16
  43              		.loc 1 35 0
  44 000a 0193     		str	r3, [sp, #4]
  45              		.loc 1 36 0
  46 000c 4B68     		ldr	r3, [r1, #4]
  47 000e 43F00103 		orr	r3, r3, #1
  48 0012 4B60     		str	r3, [r1, #4]
  49              		.loc 1 37 0
  50 0014 0199     		ldr	r1, [sp, #4]
  51 0016 1368     		ldr	r3, [r2]
  52 0018 9942     		cmp	r1, r3
  53 001a 02D1     		bne	.L5
  54 001c 03B0     		add	sp, sp, #12
  55              		.cfi_remember_state
  56              		.cfi_def_cfa_offset 4
  57              		@ sp needed
ARM GAS  C:\Users\mathi\AppData\Local\Temp\ccdA4sa8.s 			page 2


  58 001e 5DF804FB 		ldr	pc, [sp], #4
  59              	.L5:
  60              		.cfi_restore_state
  61 0022 FFF7FEFF 		bl	__stack_chk_fail
  62              	.LVL0:
  63              	.L7:
  64 0026 00BF     		.align	2
  65              	.L6:
  66 0028 00000000 		.word	__stack_chk_guard
  67 002c 90ED00E0 		.word	-536810096
  68              		.cfi_endproc
  69              	.LFE259:
  70              		.size	mpu_enable, .-mpu_enable
  71              		.section	.text.mpu_disable,"ax",%progbits
  72              		.align	1
  73              		.p2align 4,,15
  74              		.global	mpu_disable
  75              		.syntax unified
  76              		.thumb
  77              		.thumb_func
  78              		.fpu fpv4-sp-d16
  79              		.type	mpu_disable, %function
  80              	mpu_disable:
  81              	.LFB260:
  82              		.loc 1 40 0
  83              		.cfi_startproc
  84              		@ args = 0, pretend = 0, frame = 8
  85              		@ frame_needed = 0, uses_anonymous_args = 0
  86 0000 00B5     		push	{lr}
  87              		.cfi_def_cfa_offset 4
  88              		.cfi_offset 14, -4
  89 0002 094A     		ldr	r2, .L12
  90              		.loc 1 41 0
  91 0004 0949     		ldr	r1, .L12+4
  92              		.loc 1 40 0
  93 0006 1368     		ldr	r3, [r2]
  94 0008 83B0     		sub	sp, sp, #12
  95              		.cfi_def_cfa_offset 16
  96              		.loc 1 40 0
  97 000a 0193     		str	r3, [sp, #4]
  98              		.loc 1 41 0
  99 000c 4B68     		ldr	r3, [r1, #4]
 100 000e 23F00103 		bic	r3, r3, #1
 101 0012 4B60     		str	r3, [r1, #4]
 102              		.loc 1 42 0
 103 0014 0199     		ldr	r1, [sp, #4]
 104 0016 1368     		ldr	r3, [r2]
 105 0018 9942     		cmp	r1, r3
 106 001a 02D1     		bne	.L11
 107 001c 03B0     		add	sp, sp, #12
 108              		.cfi_remember_state
 109              		.cfi_def_cfa_offset 4
 110              		@ sp needed
 111 001e 5DF804FB 		ldr	pc, [sp], #4
 112              	.L11:
 113              		.cfi_restore_state
 114 0022 FFF7FEFF 		bl	__stack_chk_fail
ARM GAS  C:\Users\mathi\AppData\Local\Temp\ccdA4sa8.s 			page 3


 115              	.LVL1:
 116              	.L13:
 117 0026 00BF     		.align	2
 118              	.L12:
 119 0028 00000000 		.word	__stack_chk_guard
 120 002c 90ED00E0 		.word	-536810096
 121              		.cfi_endproc
 122              	.LFE260:
 123              		.size	mpu_disable, .-mpu_disable
 124              		.section	.text.mpu_configure_region,"ax",%progbits
 125              		.align	1
 126              		.p2align 4,,15
 127              		.global	mpu_configure_region
 128              		.syntax unified
 129              		.thumb
 130              		.thumb_func
 131              		.fpu fpv4-sp-d16
 132              		.type	mpu_configure_region, %function
 133              	mpu_configure_region:
 134              	.LFB261:
 135              		.loc 1 46 0
 136              		.cfi_startproc
 137              		@ args = 4, pretend = 0, frame = 8
 138              		@ frame_needed = 0, uses_anonymous_args = 0
 139              	.LVL2:
 140 0000 2DE9F043 		push	{r4, r5, r6, r7, r8, r9, lr}
 141              		.cfi_def_cfa_offset 28
 142              		.cfi_offset 4, -28
 143              		.cfi_offset 5, -24
 144              		.cfi_offset 6, -20
 145              		.cfi_offset 7, -16
 146              		.cfi_offset 8, -12
 147              		.cfi_offset 9, -8
 148              		.cfi_offset 14, -4
 149 0004 254E     		ldr	r6, .L24
 150 0006 83B0     		sub	sp, sp, #12
 151              		.cfi_def_cfa_offset 40
 152              		.loc 1 46 0
 153 0008 3468     		ldr	r4, [r6]
 154 000a 0194     		str	r4, [sp, #4]
 155              	.LVL3:
 156              		.loc 1 49 0
 157 000c 042A     		cmp	r2, #4
 158              		.loc 1 46 0
 159 000e 9DF82890 		ldrb	r9, [sp, #40]	@ zero_extendqisi2
 160 0012 1446     		mov	r4, r2
 161 0014 0546     		mov	r5, r0
 162 0016 0F46     		mov	r7, r1
 163 0018 9846     		mov	r8, r3
 164              		.loc 1 49 0
 165 001a 39D9     		bls	.L21
 166              	.LVL4:
 167              	.L15:
 168              		.loc 1 56 0
 169 001c B9F1000F 		cmp	r9, #0
 170              		.loc 1 57 0
 171 0020 14BF     		ite	ne
ARM GAS  C:\Users\mathi\AppData\Local\Temp\ccdA4sa8.s 			page 4


 172 0022 0022     		movne	r2, #0
 173 0024 4FF08052 		moveq	r2, #268435456
 174              		.loc 1 62 0
 175 0028 6400     		lsls	r4, r4, #1
 176              	.LVL5:
 177              		.loc 1 61 0
 178 002a 02EB0863 		add	r3, r2, r8, lsl #24
 179              		.loc 1 63 0
 180 002e 013C     		subs	r4, r4, #1
 181 0030 1C44     		add	r4, r4, r3
 182              		.loc 1 52 0
 183 0032 05F00F05 		and	r5, r5, #15
 184              	.LVL6:
 185              		.loc 1 53 0
 186 0036 27F01F07 		bic	r7, r7, #31
 187              	.LVL7:
 188              	.LBB65:
 189              	.LBB66:
 190              	.LBB67:
 191              	.LBB68:
 192              	.LBB69:
 193              		.file 2 "../../lib/e-puck2_main-processor/ChibiOS//os/ext/CMSIS/include/core_cmFunc.h"
 194              		.loc 2 546 0
 195 003a 2023     		movs	r3, #32
 196              		.syntax unified
 197              	@ 546 "../../lib/e-puck2_main-processor/ChibiOS//os/ext/CMSIS/include/core_cmFunc.h" 1
 198 003c 83F31188 		MSR basepri, r3
 199              	@ 0 "" 2
 200              	.LVL8:
 201              		.thumb
 202              		.syntax unified
 203              	.LBE69:
 204              	.LBE68:
 205              	.LBE67:
 206              		.file 3 "../../lib/e-puck2_main-processor/ChibiOS//os/rt/include/chsys.h"
 207              		.loc 3 349 0
 208 0040 FFF7FEFF 		bl	_stats_start_measure_crit_thd
 209              	.LVL9:
 210              	.LBE66:
 211              	.LBE65:
 212              		.loc 1 68 0
 213 0044 3D43     		orrs	r5, r5, r7
 214              	.LVL10:
 215              	.LBB71:
 216              	.LBB70:
 217              		.loc 3 350 0
 218 0046 FFF7FEFF 		bl	_dbg_check_lock
 219              	.LVL11:
 220              	.LBE70:
 221              	.LBE71:
 222              		.loc 1 68 0
 223 004a 154B     		ldr	r3, .L24+4
 224 004c 1035     		adds	r5, r5, #16
 225 004e DD60     		str	r5, [r3, #12]
 226              	.LVL12:
 227              		.loc 1 69 0
 228 0050 1C61     		str	r4, [r3, #16]
ARM GAS  C:\Users\mathi\AppData\Local\Temp\ccdA4sa8.s 			page 5


 229              	.LBB72:
 230              	.LBB73:
 231              		.loc 3 360 0
 232 0052 FFF7FEFF 		bl	_dbg_check_unlock
 233              	.LVL13:
 234              		.loc 3 361 0
 235 0056 FFF7FEFF 		bl	_stats_stop_measure_crit_thd
 236              	.LVL14:
 237              		.loc 3 367 0
 238 005a 124B     		ldr	r3, .L24+8
 239 005c 1A68     		ldr	r2, [r3]
 240 005e 9A42     		cmp	r2, r3
 241 0060 04D0     		beq	.L17
 242 0062 9969     		ldr	r1, [r3, #24]
 243 0064 9368     		ldr	r3, [r2, #8]
 244 0066 8A68     		ldr	r2, [r1, #8]
 245 0068 9A42     		cmp	r2, r3
 246 006a 0DD3     		bcc	.L22
 247              	.L17:
 248              	.LVL15:
 249              	.LBB74:
 250              	.LBB75:
 251              	.LBB76:
 252              		.loc 2 546 0
 253 006c 0023     		movs	r3, #0
 254              		.syntax unified
 255              	@ 546 "../../lib/e-puck2_main-processor/ChibiOS//os/ext/CMSIS/include/core_cmFunc.h" 1
 256 006e 83F31188 		MSR basepri, r3
 257              	@ 0 "" 2
 258              	.LVL16:
 259              		.thumb
 260              		.syntax unified
 261              	.LBE76:
 262              	.LBE75:
 263              	.LBE74:
 264              	.LBE73:
 265              	.LBE72:
 266              	.LBB78:
 267              	.LBB79:
 268              		.file 4 "../../lib/e-puck2_main-processor/ChibiOS//os/ext/CMSIS/include/core_cmInstr.h"
 269              		.loc 4 371 0
 270              		.syntax unified
 271              	@ 371 "../../lib/e-puck2_main-processor/ChibiOS//os/ext/CMSIS/include/core_cmInstr.h" 1
 272 0072 BFF36F8F 		isb
 273              	@ 0 "" 2
 274              		.thumb
 275              		.syntax unified
 276              	.LBE79:
 277              	.LBE78:
 278              	.LBB80:
 279              	.LBB81:
 280              		.loc 4 382 0
 281              		.syntax unified
 282              	@ 382 "../../lib/e-puck2_main-processor/ChibiOS//os/ext/CMSIS/include/core_cmInstr.h" 1
 283 0076 BFF34F8F 		dsb
 284              	@ 0 "" 2
 285              		.thumb
ARM GAS  C:\Users\mathi\AppData\Local\Temp\ccdA4sa8.s 			page 6


 286              		.syntax unified
 287              	.LBE81:
 288              	.LBE80:
 289              		.loc 1 76 0
 290 007a 019A     		ldr	r2, [sp, #4]
 291 007c 3368     		ldr	r3, [r6]
 292 007e 9A42     		cmp	r2, r3
 293 0080 0AD1     		bne	.L23
 294 0082 03B0     		add	sp, sp, #12
 295              		.cfi_remember_state
 296              		.cfi_def_cfa_offset 28
 297              		@ sp needed
 298 0084 BDE8F083 		pop	{r4, r5, r6, r7, r8, r9, pc}
 299              	.LVL17:
 300              	.L22:
 301              		.cfi_restore_state
 302              	.LBB82:
 303              	.LBB77:
 304              		.loc 3 367 0
 305 0088 0748     		ldr	r0, .L24+12
 306 008a FFF7FEFF 		bl	chSysHalt
 307              	.LVL18:
 308 008e EDE7     		b	.L17
 309              	.LVL19:
 310              	.L21:
 311              	.LBE77:
 312              	.LBE82:
 313              		.loc 1 49 0 discriminator 2
 314 0090 0648     		ldr	r0, .L24+16
 315              	.LVL20:
 316 0092 FFF7FEFF 		bl	chSysHalt
 317              	.LVL21:
 318 0096 C1E7     		b	.L15
 319              	.LVL22:
 320              	.L23:
 321              		.loc 1 76 0
 322 0098 FFF7FEFF 		bl	__stack_chk_fail
 323              	.LVL23:
 324              	.L25:
 325              		.align	2
 326              	.L24:
 327 009c 00000000 		.word	__stack_chk_guard
 328 00a0 90ED00E0 		.word	-536810096
 329 00a4 00000000 		.word	ch
 330 00a8 00000000 		.word	.LANCHOR1
 331 00ac 00000000 		.word	.LANCHOR0
 332              		.cfi_endproc
 333              	.LFE261:
 334              		.size	mpu_configure_region, .-mpu_configure_region
 335              		.section	.text.mpu_init,"ax",%progbits
 336              		.align	1
 337              		.p2align 4,,15
 338              		.global	mpu_init
 339              		.syntax unified
 340              		.thumb
 341              		.thumb_func
 342              		.fpu fpv4-sp-d16
ARM GAS  C:\Users\mathi\AppData\Local\Temp\ccdA4sa8.s 			page 7


 343              		.type	mpu_init, %function
 344              	mpu_init:
 345              	.LFB262:
 346              		.loc 1 79 0
 347              		.cfi_startproc
 348              		@ args = 0, pretend = 0, frame = 8
 349              		@ frame_needed = 0, uses_anonymous_args = 0
 350 0000 70B5     		push	{r4, r5, r6, lr}
 351              		.cfi_def_cfa_offset 16
 352              		.cfi_offset 4, -16
 353              		.cfi_offset 5, -12
 354              		.cfi_offset 6, -8
 355              		.cfi_offset 14, -4
 356 0002 304E     		ldr	r6, .L34
 357              		.loc 1 81 0
 358 0004 304D     		ldr	r5, .L34+4
 359              		.loc 1 79 0
 360 0006 3368     		ldr	r3, [r6]
 361              		.loc 1 84 0
 362 0008 304A     		ldr	r2, .L34+8
 363              		.loc 1 79 0
 364 000a 82B0     		sub	sp, sp, #8
 365              		.cfi_def_cfa_offset 24
 366              		.loc 1 79 0
 367 000c 0193     		str	r3, [sp, #4]
 368              		.loc 1 81 0
 369 000e 6B68     		ldr	r3, [r5, #4]
 370 0010 43F00403 		orr	r3, r3, #4
 371 0014 6B60     		str	r3, [r5, #4]
 372              		.loc 1 84 0
 373 0016 536A     		ldr	r3, [r2, #36]
 374 0018 43F48033 		orr	r3, r3, #65536
 375 001c 5362     		str	r3, [r2, #36]
 376              	.LVL24:
 377              	.LBB117:
 378              	.LBB118:
 379              	.LBB119:
 380              	.LBB120:
 381              	.LBB121:
 382              	.LBB122:
 383              	.LBB123:
 384              		.loc 2 546 0
 385 001e 2023     		movs	r3, #32
 386              		.syntax unified
 387              	@ 546 "../../lib/e-puck2_main-processor/ChibiOS//os/ext/CMSIS/include/core_cmFunc.h" 1
 388 0020 83F31188 		MSR basepri, r3
 389              	@ 0 "" 2
 390              	.LVL25:
 391              		.thumb
 392              		.syntax unified
 393              	.LBE123:
 394              	.LBE122:
 395              	.LBE121:
 396              		.loc 3 349 0
 397 0024 FFF7FEFF 		bl	_stats_start_measure_crit_thd
 398              	.LVL26:
 399              	.LBE120:
ARM GAS  C:\Users\mathi\AppData\Local\Temp\ccdA4sa8.s 			page 8


 400              	.LBE119:
 401              	.LBB125:
 402              	.LBB126:
 403              		.loc 3 367 0
 404 0028 294C     		ldr	r4, .L34+12
 405              	.LBE126:
 406              	.LBE125:
 407              	.LBB132:
 408              	.LBB124:
 409              		.loc 3 350 0
 410 002a FFF7FEFF 		bl	_dbg_check_lock
 411              	.LVL27:
 412              	.LBE124:
 413              	.LBE132:
 414              		.loc 1 69 0
 415 002e 294B     		ldr	r3, .L34+16
 416              		.loc 1 68 0
 417 0030 1722     		movs	r2, #23
 418 0032 EA60     		str	r2, [r5, #12]
 419              		.loc 1 69 0
 420 0034 2B61     		str	r3, [r5, #16]
 421              	.LBB133:
 422              	.LBB130:
 423              		.loc 3 360 0
 424 0036 FFF7FEFF 		bl	_dbg_check_unlock
 425              	.LVL28:
 426              		.loc 3 361 0
 427 003a FFF7FEFF 		bl	_stats_stop_measure_crit_thd
 428              	.LVL29:
 429              		.loc 3 367 0
 430 003e 2368     		ldr	r3, [r4]
 431 0040 A342     		cmp	r3, r4
 432 0042 04D0     		beq	.L27
 433 0044 A269     		ldr	r2, [r4, #24]
 434 0046 9B68     		ldr	r3, [r3, #8]
 435 0048 9268     		ldr	r2, [r2, #8]
 436 004a 9A42     		cmp	r2, r3
 437 004c 34D3     		bcc	.L31
 438              	.L27:
 439              	.LVL30:
 440              	.LBB127:
 441              	.LBB128:
 442              	.LBB129:
 443              		.loc 2 546 0
 444 004e 0023     		movs	r3, #0
 445              		.syntax unified
 446              	@ 546 "../../lib/e-puck2_main-processor/ChibiOS//os/ext/CMSIS/include/core_cmFunc.h" 1
 447 0050 83F31188 		MSR basepri, r3
 448              	@ 0 "" 2
 449              	.LVL31:
 450              		.thumb
 451              		.syntax unified
 452              	.LBE129:
 453              	.LBE128:
 454              	.LBE127:
 455              	.LBE130:
 456              	.LBE133:
ARM GAS  C:\Users\mathi\AppData\Local\Temp\ccdA4sa8.s 			page 9


 457              	.LBB134:
 458              	.LBB135:
 459              		.loc 4 371 0
 460              		.syntax unified
 461              	@ 371 "../../lib/e-puck2_main-processor/ChibiOS//os/ext/CMSIS/include/core_cmInstr.h" 1
 462 0054 BFF36F8F 		isb
 463              	@ 0 "" 2
 464              		.thumb
 465              		.syntax unified
 466              	.LBE135:
 467              	.LBE134:
 468              	.LBB136:
 469              	.LBB137:
 470              		.loc 4 382 0
 471              		.syntax unified
 472              	@ 382 "../../lib/e-puck2_main-processor/ChibiOS//os/ext/CMSIS/include/core_cmInstr.h" 1
 473 0058 BFF34F8F 		dsb
 474              	@ 0 "" 2
 475              	.LVL32:
 476              		.thumb
 477              		.syntax unified
 478              	.LBE137:
 479              	.LBE136:
 480              	.LBE118:
 481              	.LBE117:
 482              	.LBB140:
 483              	.LBB141:
 484              	.LBB142:
 485              	.LBB143:
 486              	.LBB144:
 487              	.LBB145:
 488              	.LBB146:
 489              		.loc 2 546 0
 490 005c 2023     		movs	r3, #32
 491              		.syntax unified
 492              	@ 546 "../../lib/e-puck2_main-processor/ChibiOS//os/ext/CMSIS/include/core_cmFunc.h" 1
 493 005e 83F31188 		MSR basepri, r3
 494              	@ 0 "" 2
 495              	.LVL33:
 496              		.thumb
 497              		.syntax unified
 498              	.LBE146:
 499              	.LBE145:
 500              	.LBE144:
 501              		.loc 3 349 0
 502 0062 FFF7FEFF 		bl	_stats_start_measure_crit_thd
 503              	.LVL34:
 504              		.loc 3 350 0
 505 0066 FFF7FEFF 		bl	_dbg_check_lock
 506              	.LVL35:
 507              	.LBE143:
 508              	.LBE142:
 509              		.loc 1 68 0
 510 006a 174B     		ldr	r3, .L34+4
 511 006c 1A49     		ldr	r1, .L34+20
 512              		.loc 1 69 0
 513 006e 1B4A     		ldr	r2, .L34+24
ARM GAS  C:\Users\mathi\AppData\Local\Temp\ccdA4sa8.s 			page 10


 514              		.loc 1 68 0
 515 0070 D960     		str	r1, [r3, #12]
 516              		.loc 1 69 0
 517 0072 1A61     		str	r2, [r3, #16]
 518              	.LBB147:
 519              	.LBB148:
 520              		.loc 3 360 0
 521 0074 FFF7FEFF 		bl	_dbg_check_unlock
 522              	.LVL36:
 523              		.loc 3 361 0
 524 0078 FFF7FEFF 		bl	_stats_stop_measure_crit_thd
 525              	.LVL37:
 526              		.loc 3 367 0
 527 007c 2368     		ldr	r3, [r4]
 528 007e A342     		cmp	r3, r4
 529 0080 04D0     		beq	.L28
 530 0082 A269     		ldr	r2, [r4, #24]
 531 0084 9B68     		ldr	r3, [r3, #8]
 532 0086 9268     		ldr	r2, [r2, #8]
 533 0088 9A42     		cmp	r2, r3
 534 008a 11D3     		bcc	.L32
 535              	.L28:
 536              	.LVL38:
 537              	.LBB149:
 538              	.LBB150:
 539              	.LBB151:
 540              		.loc 2 546 0
 541 008c 0023     		movs	r3, #0
 542              		.syntax unified
 543              	@ 546 "../../lib/e-puck2_main-processor/ChibiOS//os/ext/CMSIS/include/core_cmFunc.h" 1
 544 008e 83F31188 		MSR basepri, r3
 545              	@ 0 "" 2
 546              	.LVL39:
 547              		.thumb
 548              		.syntax unified
 549              	.LBE151:
 550              	.LBE150:
 551              	.LBE149:
 552              	.LBE148:
 553              	.LBE147:
 554              	.LBB153:
 555              	.LBB154:
 556              		.loc 4 371 0
 557              		.syntax unified
 558              	@ 371 "../../lib/e-puck2_main-processor/ChibiOS//os/ext/CMSIS/include/core_cmInstr.h" 1
 559 0092 BFF36F8F 		isb
 560              	@ 0 "" 2
 561              		.thumb
 562              		.syntax unified
 563              	.LBE154:
 564              	.LBE153:
 565              	.LBB155:
 566              	.LBB156:
 567              		.loc 4 382 0
 568              		.syntax unified
 569              	@ 382 "../../lib/e-puck2_main-processor/ChibiOS//os/ext/CMSIS/include/core_cmInstr.h" 1
 570 0096 BFF34F8F 		dsb
ARM GAS  C:\Users\mathi\AppData\Local\Temp\ccdA4sa8.s 			page 11


 571              	@ 0 "" 2
 572              	.LVL40:
 573              		.thumb
 574              		.syntax unified
 575              	.LBE156:
 576              	.LBE155:
 577              	.LBE141:
 578              	.LBE140:
 579              	.LBB159:
 580              	.LBB160:
 581              		.loc 1 36 0
 582 009a 0B4A     		ldr	r2, .L34+4
 583 009c 5368     		ldr	r3, [r2, #4]
 584 009e 43F00103 		orr	r3, r3, #1
 585 00a2 5360     		str	r3, [r2, #4]
 586              	.LBE160:
 587              	.LBE159:
 588              		.loc 1 99 0
 589 00a4 019A     		ldr	r2, [sp, #4]
 590 00a6 3368     		ldr	r3, [r6]
 591 00a8 9A42     		cmp	r2, r3
 592 00aa 09D1     		bne	.L33
 593 00ac 02B0     		add	sp, sp, #8
 594              		.cfi_remember_state
 595              		.cfi_def_cfa_offset 16
 596              		@ sp needed
 597 00ae 70BD     		pop	{r4, r5, r6, pc}
 598              	.LVL41:
 599              	.L32:
 600              		.cfi_restore_state
 601              	.LBB161:
 602              	.LBB158:
 603              	.LBB157:
 604              	.LBB152:
 605              		.loc 3 367 0
 606 00b0 0B48     		ldr	r0, .L34+28
 607 00b2 FFF7FEFF 		bl	chSysHalt
 608              	.LVL42:
 609 00b6 E9E7     		b	.L28
 610              	.LVL43:
 611              	.L31:
 612              	.LBE152:
 613              	.LBE157:
 614              	.LBE158:
 615              	.LBE161:
 616              	.LBB162:
 617              	.LBB139:
 618              	.LBB138:
 619              	.LBB131:
 620 00b8 0948     		ldr	r0, .L34+28
 621 00ba FFF7FEFF 		bl	chSysHalt
 622              	.LVL44:
 623 00be C6E7     		b	.L27
 624              	.LVL45:
 625              	.L33:
 626              	.LBE131:
 627              	.LBE138:
ARM GAS  C:\Users\mathi\AppData\Local\Temp\ccdA4sa8.s 			page 12


 628              	.LBE139:
 629              	.LBE162:
 630              		.loc 1 99 0
 631 00c0 FFF7FEFF 		bl	__stack_chk_fail
 632              	.LVL46:
 633              	.L35:
 634              		.align	2
 635              	.L34:
 636 00c4 00000000 		.word	__stack_chk_guard
 637 00c8 90ED00E0 		.word	-536810096
 638 00cc 00ED00E0 		.word	-536810240
 639 00d0 00000000 		.word	ch
 640 00d4 09000010 		.word	268435465
 641 00d8 10000020 		.word	536870928
 642 00dc 39000013 		.word	318767161
 643 00e0 00000000 		.word	.LANCHOR1
 644              		.cfi_endproc
 645              	.LFE262:
 646              		.size	mpu_init, .-mpu_init
 647              		.section	.text.MemManage_Handler,"ax",%progbits
 648              		.align	1
 649              		.p2align 4,,15
 650              		.global	MemManage_Handler
 651              		.syntax unified
 652              		.thumb
 653              		.thumb_func
 654              		.fpu fpv4-sp-d16
 655              		.type	MemManage_Handler, %function
 656              	MemManage_Handler:
 657              	.LFB263:
 658              		.loc 1 102 0
 659              		.cfi_startproc
 660              		@ args = 0, pretend = 0, frame = 112
 661              		@ frame_needed = 0, uses_anonymous_args = 0
 662 0000 70B5     		push	{r4, r5, r6, lr}
 663              		.cfi_def_cfa_offset 16
 664              		.cfi_offset 4, -16
 665              		.cfi_offset 5, -12
 666              		.cfi_offset 6, -8
 667              		.cfi_offset 14, -4
 668              		.loc 1 106 0
 669 0002 1A4D     		ldr	r5, .L50
 670 0004 1A4C     		ldr	r4, .L50+4
 671              		.loc 1 102 0
 672 0006 1B4E     		ldr	r6, .L50+8
 673              		.loc 1 106 0
 674 0008 0FCD     		ldmia	r5!, {r0, r1, r2, r3}
 675 000a 0FC4     		stmia	r4!, {r0, r1, r2, r3}
 676              		.loc 1 102 0
 677 000c 9EB0     		sub	sp, sp, #120
 678              		.cfi_def_cfa_offset 136
 679              		.loc 1 106 0
 680 000e 2A68     		ldr	r2, [r5]
 681              		.loc 1 102 0
 682 0010 3368     		ldr	r3, [r6]
 683              		.loc 1 106 0
 684 0012 2280     		strh	r2, [r4]	@ movhi
ARM GAS  C:\Users\mathi\AppData\Local\Temp\ccdA4sa8.s 			page 13


 685              		.loc 1 102 0
 686 0014 1D93     		str	r3, [sp, #116]
 687              	.LBB163:
 688              	.LBB164:
 689              		.loc 2 428 0
 690              		.syntax unified
 691              	@ 428 "../../lib/e-puck2_main-processor/ChibiOS//os/ext/CMSIS/include/core_cmFunc.h" 1
 692 0016 EFF30981 		MRS r1, psp
 693              	
 694              	@ 0 "" 2
 695              		.thumb
 696              		.syntax unified
 697              	.LBE164:
 698              	.LBE163:
 699              		.loc 1 111 0
 700 001a 6822     		movs	r2, #104
 701 001c 03A8     		add	r0, sp, #12
 702 001e FFF7FEFF 		bl	memcpy
 703              	.LVL47:
 704              		.loc 1 114 0
 705 0022 154B     		ldr	r3, .L50+12
 706 0024 9D6A     		ldr	r5, [r3, #40]
 707              	.LVL48:
 708              		.loc 1 117 0
 709 0026 AA07     		lsls	r2, r5, #30
 710 0028 14D4     		bmi	.L48
 711              	.L37:
 712              		.loc 1 123 0
 713 002a EB07     		lsls	r3, r5, #31
 714 002c 08D5     		bpl	.L38
 715              		.loc 1 126 0
 716 002e 124B     		ldr	r3, .L50+12
 717              		.loc 1 124 0
 718 0030 0899     		ldr	r1, [sp, #32]
 719              		.loc 1 126 0
 720 0032 5B6B     		ldr	r3, [r3, #52]
 721              		.loc 1 124 0
 722 0034 114A     		ldr	r2, .L50+16
 723 0036 0091     		str	r1, [sp]
 724 0038 0D48     		ldr	r0, .L50+4
 725 003a 8021     		movs	r1, #128
 726 003c FFF7FEFF 		bl	snprintf
 727              	.LVL49:
 728              	.L38:
 729              		.loc 1 129 0
 730 0040 1D9A     		ldr	r2, [sp, #116]
 731 0042 3368     		ldr	r3, [r6]
 732 0044 9A42     		cmp	r2, r3
 733 0046 0FD1     		bne	.L49
 734 0048 0948     		ldr	r0, .L50+4
 735              		.loc 1 130 0
 736 004a 1EB0     		add	sp, sp, #120
 737              		.cfi_remember_state
 738              		.cfi_def_cfa_offset 16
 739              		@ sp needed
 740 004c BDE87040 		pop	{r4, r5, r6, lr}
 741              		.cfi_restore 14
ARM GAS  C:\Users\mathi\AppData\Local\Temp\ccdA4sa8.s 			page 14


 742              		.cfi_restore 6
 743              		.cfi_restore 5
 744              		.cfi_restore 4
 745              		.cfi_def_cfa_offset 0
 746              	.LVL50:
 747              		.loc 1 129 0
 748 0050 FFF7FEBF 		b	chSysHalt
 749              	.LVL51:
 750              	.L48:
 751              		.cfi_restore_state
 752              		.loc 1 118 0
 753 0054 099A     		ldr	r2, [sp, #36]
 754              		.loc 1 119 0
 755 0056 5B6B     		ldr	r3, [r3, #52]
 756              		.loc 1 118 0
 757 0058 0092     		str	r2, [sp]
 758 005a A4F11000 		sub	r0, r4, #16
 759 005e 084A     		ldr	r2, .L50+20
 760 0060 8021     		movs	r1, #128
 761 0062 FFF7FEFF 		bl	snprintf
 762              	.LVL52:
 763 0066 E0E7     		b	.L37
 764              	.L49:
 765              		.loc 1 129 0
 766 0068 FFF7FEFF 		bl	__stack_chk_fail
 767              	.LVL53:
 768              	.L51:
 769              		.align	2
 770              	.L50:
 771 006c 44000000 		.word	.LC0
 772 0070 00000000 		.word	.LANCHOR2
 773 0074 00000000 		.word	__stack_chk_guard
 774 0078 00ED00E0 		.word	-536810240
 775 007c 20000000 		.word	.LC2
 776 0080 00000000 		.word	.LC1
 777              		.cfi_endproc
 778              	.LFE263:
 779              		.size	MemManage_Handler, .-MemManage_Handler
 780              		.section	.bss.msg.11605,"aw",%nobits
 781              		.align	2
 782              		.set	.LANCHOR2,. + 0
 783              		.type	msg.11605, %object
 784              		.size	msg.11605, 128
 785              	msg.11605:
 786 0000 00000000 		.space	128
 786      00000000 
 786      00000000 
 786      00000000 
 786      00000000 
 787              		.section	.rodata.MemManage_Handler.str1.4,"aMS",%progbits,1
 788              		.align	2
 789              	.LC1:
 790 0000 496E7661 		.ascii	"Invalid access to %p (pc=%p)\000"
 790      6C696420 
 790      61636365 
 790      73732074 
 790      6F202570 
ARM GAS  C:\Users\mathi\AppData\Local\Temp\ccdA4sa8.s 			page 15


 791 001d 000000   		.space	3
 792              	.LC2:
 793 0020 4A756D70 		.ascii	"Jumped to XN region %p (lr_thd=%p)\000"
 793      65642074 
 793      6F20584E 
 793      20726567 
 793      696F6E20 
 794 0043 00       		.space	1
 795              	.LC0:
 796 0044 4D656D4D 		.ascii	"MemManage_Handler\000"
 796      616E6167 
 796      655F4861 
 796      6E646C65 
 796      7200
 797              		.section	.rodata.__func__.11596,"a",%progbits
 798              		.align	2
 799              		.set	.LANCHOR0,. + 0
 800              		.type	__func__.11596, %object
 801              		.size	__func__.11596, 21
 802              	__func__.11596:
 803 0000 6D70755F 		.ascii	"mpu_configure_region\000"
 803      636F6E66 
 803      69677572 
 803      655F7265 
 803      67696F6E 
 804              		.section	.rodata.__func__.8875,"a",%progbits
 805              		.align	2
 806              		.set	.LANCHOR1,. + 0
 807              		.type	__func__.8875, %object
 808              		.size	__func__.8875, 12
 809              	__func__.8875:
 810 0000 63685379 		.ascii	"chSysUnlock\000"
 810      73556E6C 
 810      6F636B00 
 811              		.text
 812              	.Letext0:
 813              		.file 5 "c:\\eclipse_e-puck2\\tools\\gcc-arm-none-eabi-7-2017-q4-major-win32\\lib\\gcc\\arm-none-e
 814              		.file 6 "c:\\eclipse_e-puck2\\tools\\gcc-arm-none-eabi-7-2017-q4-major-win32\\arm-none-eabi\\inclu
 815              		.file 7 "c:\\eclipse_e-puck2\\tools\\gcc-arm-none-eabi-7-2017-q4-major-win32\\arm-none-eabi\\inclu
 816              		.file 8 "c:\\eclipse_e-puck2\\tools\\gcc-arm-none-eabi-7-2017-q4-major-win32\\arm-none-eabi\\inclu
 817              		.file 9 "c:\\eclipse_e-puck2\\tools\\gcc-arm-none-eabi-7-2017-q4-major-win32\\arm-none-eabi\\inclu
 818              		.file 10 "c:\\eclipse_e-puck2\\tools\\gcc-arm-none-eabi-7-2017-q4-major-win32\\arm-none-eabi\\incl
 819              		.file 11 "c:\\eclipse_e-puck2\\tools\\gcc-arm-none-eabi-7-2017-q4-major-win32\\arm-none-eabi\\incl
 820              		.file 12 "../../lib/e-puck2_main-processor/ChibiOS//os/rt/ports/ARMCMx/compilers/GCC/chtypes.h"
 821              		.file 13 "../../lib/e-puck2_main-processor/ChibiOS//os/rt/include/chsystypes.h"
 822              		.file 14 "../../lib/e-puck2_main-processor/ChibiOS//os/rt/include/chschd.h"
 823              		.file 15 "../../lib/e-puck2_main-processor/ChibiOS//os/ext/CMSIS/include/core_cm4.h"
 824              		.file 16 "../../lib/e-puck2_main-processor/ChibiOS//os/ext/CMSIS/ST/system_stm32f4xx.h"
 825              		.file 17 "../../lib/e-puck2_main-processor/ChibiOS//os/ext/CMSIS/ST/stm32f407xx.h"
 826              		.file 18 "../../lib/e-puck2_main-processor/ChibiOS//os/rt/ports/ARMCMx/chcore.h"
 827              		.file 19 "../../lib/e-puck2_main-processor/ChibiOS//os/rt/ports/ARMCMx/chcore_v7m.h"
 828              		.file 20 "../../lib/e-puck2_main-processor/ChibiOS//os/rt/include/chdebug.h"
 829              		.file 21 "../../lib/e-puck2_main-processor/ChibiOS//os/rt/include/chtm.h"
 830              		.file 22 "../../lib/e-puck2_main-processor/ChibiOS//os/rt/include/chstats.h"
 831              		.file 23 "../../lib/e-puck2_main-processor/ChibiOS//os/rt/include/chsem.h"
 832              		.file 24 "../../lib/e-puck2_main-processor/ChibiOS//os/rt/include/chmtx.h"
 833              		.file 25 "../../lib/e-puck2_main-processor/ChibiOS//os/rt/include/chregistry.h"
ARM GAS  C:\Users\mathi\AppData\Local\Temp\ccdA4sa8.s 			page 16


 834              		.file 26 "../../lib/e-puck2_main-processor/ChibiOS//os/rt/include/chevents.h"
 835              		.file 27 "../../lib/e-puck2_main-processor/ChibiOS//os/rt/include/chqueues.h"
 836              		.file 28 "../../lib/e-puck2_main-processor/ChibiOS//os/hal/ports/STM32/STM32F4xx/stm32_dma.h"
 837              		.file 29 "../../lib/e-puck2_main-processor/ChibiOS//os/hal/include/hal_ioblock.h"
 838              		.file 30 "../../lib/e-puck2_main-processor/ChibiOS//os/hal/ports/STM32/LLD/GPIOv2/pal_lld.h"
 839              		.file 31 "../../lib/e-puck2_main-processor/ChibiOS//os/hal/include/adc.h"
 840              		.file 32 "../../lib/e-puck2_main-processor/ChibiOS//os/hal/ports/STM32/STM32F4xx/adc_lld.h"
 841              		.file 33 "../../lib/e-puck2_main-processor/ChibiOS//os/hal/include/can.h"
 842              		.file 34 "../../lib/e-puck2_main-processor/ChibiOS//os/hal/ports/STM32/LLD/can_lld.h"
 843              		.file 35 "../../lib/e-puck2_main-processor/ChibiOS//os/hal/include/dac.h"
 844              		.file 36 "../../lib/e-puck2_main-processor/ChibiOS//os/hal/ports/STM32/LLD/DACv1/dac_lld.h"
 845              		.file 37 "../../lib/e-puck2_main-processor/ChibiOS//os/hal/include/ext.h"
 846              		.file 38 "../../lib/e-puck2_main-processor/ChibiOS//os/hal/ports/STM32/LLD/ext_lld.h"
 847              		.file 39 "../../lib/e-puck2_main-processor/ChibiOS//os/hal/include/gpt.h"
 848              		.file 40 "../../lib/e-puck2_main-processor/ChibiOS//os/hal/ports/STM32/LLD/TIMv1/gpt_lld.h"
 849              		.file 41 "../../lib/e-puck2_main-processor/ChibiOS//os/hal/ports/STM32/LLD/TIMv1/stm32_tim.h"
 850              		.file 42 "../../lib/e-puck2_main-processor/ChibiOS//os/hal/include/i2c.h"
 851              		.file 43 "../../lib/e-puck2_main-processor/ChibiOS//os/hal/ports/STM32/LLD/I2Cv1/i2c_lld.h"
 852              		.file 44 "../../lib/e-puck2_main-processor/ChibiOS//os/hal/include/i2s.h"
 853              		.file 45 "../../lib/e-puck2_main-processor/ChibiOS//os/hal/ports/STM32/LLD/SPIv1/i2s_lld.h"
 854              		.file 46 "../../lib/e-puck2_main-processor/ChibiOS//os/hal/include/pwm.h"
 855              		.file 47 "../../lib/e-puck2_main-processor/ChibiOS//os/hal/ports/STM32/LLD/TIMv1/pwm_lld.h"
 856              		.file 48 "../../lib/e-puck2_main-processor/ChibiOS//os/hal/include/serial.h"
 857              		.file 49 "../../lib/e-puck2_main-processor/ChibiOS//os/hal/ports/STM32/LLD/USARTv1/serial_lld.h"
 858              		.file 50 "../../lib/e-puck2_main-processor/ChibiOS//os/hal/include/sdc.h"
 859              		.file 51 "../../lib/e-puck2_main-processor/ChibiOS//os/hal/ports/STM32/LLD/sdc_lld.h"
 860              		.file 52 "../../lib/e-puck2_main-processor/ChibiOS//os/hal/include/spi.h"
 861              		.file 53 "../../lib/e-puck2_main-processor/ChibiOS//os/hal/ports/STM32/LLD/SPIv1/spi_lld.h"
 862              		.file 54 "../../lib/e-puck2_main-processor/ChibiOS//os/hal/include/usb.h"
 863              		.file 55 "../../lib/e-puck2_main-processor/ChibiOS//os/hal/ports/STM32/LLD/OTGv1/usb_lld.h"
 864              		.file 56 "../../lib/e-puck2_main-processor/ChibiOS//os/hal/ports/STM32/LLD/OTGv1/stm32_otg.h"
 865              		.file 57 "../../lib/e-puck2_main-processor/src/memory_protection.h"
 866              		.file 58 "c:\\eclipse_e-puck2\\tools\\gcc-arm-none-eabi-7-2017-q4-major-win32\\arm-none-eabi\\incl
 867              		.file 59 "<built-in>"