ARM GAS  C:\Users\mathi\AppData\Local\Temp\cc3zrRyh.s 			page 1


   1              		.cpu cortex-m4
   2              		.eabi_attribute 27, 1
   3              		.eabi_attribute 28, 1
   4              		.eabi_attribute 20, 1
   5              		.eabi_attribute 21, 1
   6              		.eabi_attribute 23, 3
   7              		.eabi_attribute 24, 1
   8              		.eabi_attribute 25, 1
   9              		.eabi_attribute 26, 1
  10              		.eabi_attribute 30, 2
  11              		.eabi_attribute 34, 1
  12              		.eabi_attribute 18, 4
  13              		.file	"microphone.c"
  14              		.text
  15              	.Ltext0:
  16              		.cfi_sections	.debug_frame
  17              		.section	.text.handlePCMdata,"ax",%progbits
  18              		.align	1
  19              		.p2align 4,,15
  20              		.syntax unified
  21              		.thumb
  22              		.thumb_func
  23              		.fpu fpv4-sp-d16
  24              		.type	handlePCMdata, %function
  25              	handlePCMdata:
  26              	.LFB258:
  27              		.file 1 "../../lib/e-puck2_main-processor/src/audio/microphone.c"
  28              		.loc 1 34 0
  29              		.cfi_startproc
  30              		@ args = 0, pretend = 0, frame = 8
  31              		@ frame_needed = 0, uses_anonymous_args = 0
  32              	.LVL0:
  33 0000 2DE9F04F 		push	{r4, r5, r6, r7, r8, r9, r10, fp, lr}
  34              		.cfi_def_cfa_offset 36
  35              		.cfi_offset 4, -36
  36              		.cfi_offset 5, -32
  37              		.cfi_offset 6, -28
  38              		.cfi_offset 7, -24
  39              		.cfi_offset 8, -20
  40              		.cfi_offset 9, -16
  41              		.cfi_offset 10, -12
  42              		.cfi_offset 11, -8
  43              		.cfi_offset 14, -4
  44 0004 384A     		ldr	r2, .L18
  45              		.loc 1 37 0
  46 0006 394B     		ldr	r3, .L18+4
  47              		.loc 1 34 0
  48 0008 1268     		ldr	r2, [r2]
  49 000a 83B0     		sub	sp, sp, #12
  50              		.cfi_def_cfa_offset 48
  51              		.loc 1 37 0
  52 000c 0124     		movs	r4, #1
  53              		.loc 1 34 0
  54 000e 0192     		str	r2, [sp, #4]
  55              	.LVL1:
  56              		.loc 1 37 0
  57 0010 1C70     		strb	r4, [r3]
ARM GAS  C:\Users\mathi\AppData\Local\Temp\cc3zrRyh.s 			page 2


  58              	.LVL2:
  59              	.LBB2:
  60              		.loc 1 39 0
  61 0012 0029     		cmp	r1, #0
  62 0014 62D0     		beq	.L8
  63              	.LBE2:
  64              		.loc 1 35 0
  65 0016 4FF00008 		mov	r8, #0
  66 001a 354C     		ldr	r4, .L18+8
  67 001c C246     		mov	r10, r8
  68 001e C346     		mov	fp, r8
  69 0020 C146     		mov	r9, r8
  70 0022 C446     		mov	ip, r8
  71 0024 4746     		mov	r7, r8
  72              	.LBB3:
  73              		.loc 1 39 0
  74 0026 4346     		mov	r3, r8
  75              	.LBE3:
  76              		.loc 1 35 0
  77 0028 47F6FF7E 		movw	lr, #32767
  78 002c 1DE0     		b	.L6
  79              	.LVL3:
  80              	.L16:
  81 002e AB45     		cmp	fp, r5
  82 0030 A8BF     		it	ge
  83 0032 AB46     		movge	fp, r5
  84              	.LVL4:
  85              	.L3:
  86              	.LBB4:
  87              		.loc 1 48 0
  88 0034 0244     		add	r2, r2, r0
  89 0036 32F9026C 		ldrsh	r6, [r2, #-2]
  90              		.loc 1 55 0
  91 003a B2F90450 		ldrsh	r5, [r2, #4]
  92 003e B442     		cmp	r4, r6
  93 0040 B8BF     		it	lt
  94 0042 3446     		movlt	r4, r6
  95              	.LVL5:
  96 0044 B645     		cmp	lr, r6
  97 0046 A8BF     		it	ge
  98 0048 B646     		movge	lr, r6
  99              	.LVL6:
 100 004a 4D45     		cmp	r5, r9
 101 004c 44DC     		bgt	.L10
 102 004e A845     		cmp	r8, r5
 103 0050 A8BF     		it	ge
 104 0052 A846     		movge	r8, r5
 105              	.LVL7:
 106              	.L4:
 107              		.loc 1 62 0
 108 0054 B2F90220 		ldrsh	r2, [r2, #2]
 109 0058 6245     		cmp	r2, ip
 110 005a 0EDC     		bgt	.L11
 111              		.loc 1 39 0
 112 005c 0433     		adds	r3, r3, #4
 113              	.LVL8:
 114 005e 9245     		cmp	r10, r2
ARM GAS  C:\Users\mathi\AppData\Local\Temp\cc3zrRyh.s 			page 3


 115 0060 9BB2     		uxth	r3, r3
 116 0062 A8BF     		it	ge
 117 0064 9246     		movge	r10, r2
 118              	.LVL9:
 119 0066 9942     		cmp	r1, r3
 120 0068 0CD9     		bls	.L15
 121              	.LVL10:
 122              	.L6:
 123              		.loc 1 41 0
 124 006a 5D1C     		adds	r5, r3, #1
 125 006c 6A00     		lsls	r2, r5, #1
 126 006e 30F91550 		ldrsh	r5, [r0, r5, lsl #1]
 127 0072 BD42     		cmp	r5, r7
 128 0074 DBDD     		ble	.L16
 129 0076 2F46     		mov	r7, r5
 130              	.LVL11:
 131 0078 DCE7     		b	.L3
 132              	.LVL12:
 133              	.L11:
 134              		.loc 1 39 0
 135 007a 0433     		adds	r3, r3, #4
 136              	.LVL13:
 137 007c 9BB2     		uxth	r3, r3
 138 007e 9942     		cmp	r1, r3
 139              		.loc 1 62 0
 140 0080 9446     		mov	ip, r2
 141              	.LVL14:
 142              		.loc 1 39 0
 143 0082 F2D8     		bhi	.L6
 144              	.L15:
 145 0084 A4EB0E04 		sub	r4, r4, lr
 146              	.LVL15:
 147 0088 A7EB0B07 		sub	r7, r7, fp
 148              	.LVL16:
 149 008c ACEB0A0C 		sub	ip, ip, r10
 150              	.LVL17:
 151 0090 A9EB0808 		sub	r8, r9, r8
 152              	.LVL18:
 153 0094 A4B2     		uxth	r4, r4
 154 0096 BFB2     		uxth	r7, r7
 155 0098 1FFA8CFC 		uxth	ip, ip
 156 009c 1FFA88F8 		uxth	r8, r8
 157              	.LVL19:
 158              	.L2:
 159              	.LBE4:
 160              		.loc 1 81 0
 161 00a0 114D     		ldr	r5, .L18
 162 00a2 019E     		ldr	r6, [sp, #4]
 163 00a4 2D68     		ldr	r5, [r5]
 164              		.loc 1 75 0
 165 00a6 1349     		ldr	r1, .L18+12
 166              	.LVL20:
 167              		.loc 1 71 0
 168 00a8 0022     		movs	r2, #0
 169              		.loc 1 73 0
 170 00aa 1346     		mov	r3, r2
 171              		.loc 1 71 0
ARM GAS  C:\Users\mathi\AppData\Local\Temp\cc3zrRyh.s 			page 4


 172 00ac 64F30F02 		bfi	r2, r4, #0, #16
 173 00b0 67F31F42 		bfi	r2, r7, #16, #16
 174              		.loc 1 73 0
 175 00b4 6CF30F03 		bfi	r3, ip, #0, #16
 176              		.loc 1 75 0
 177 00b8 D0F8F874 		ldr	r7, [r0, #1272]	@ unaligned
 178              		.loc 1 71 0
 179 00bc 0E4C     		ldr	r4, .L18+16
 180              		.loc 1 75 0
 181 00be D0F8FC04 		ldr	r0, [r0, #1276]	@ unaligned
 182              	.LVL21:
 183              		.loc 1 73 0
 184 00c2 68F31F43 		bfi	r3, r8, #16, #16
 185              		.loc 1 81 0
 186 00c6 AE42     		cmp	r6, r5
 187              		.loc 1 71 0
 188 00c8 C4E90023 		strd	r2, r3, [r4]
 189              		.loc 1 75 0
 190 00cc C1E90070 		strd	r7, r0, [r1]
 191              		.loc 1 81 0
 192 00d0 08D1     		bne	.L17
 193 00d2 03B0     		add	sp, sp, #12
 194              		.cfi_remember_state
 195              		.cfi_def_cfa_offset 36
 196              		@ sp needed
 197 00d4 BDE8F08F 		pop	{r4, r5, r6, r7, r8, r9, r10, fp, pc}
 198              	.LVL22:
 199              	.L10:
 200              		.cfi_restore_state
 201              	.LBB5:
 202              		.loc 1 55 0
 203 00d8 A946     		mov	r9, r5
 204              	.LVL23:
 205 00da BBE7     		b	.L4
 206              	.LVL24:
 207              	.L8:
 208              		.loc 1 39 0
 209 00dc 8846     		mov	r8, r1
 210 00de 8C46     		mov	ip, r1
 211 00e0 0F46     		mov	r7, r1
 212 00e2 DDE7     		b	.L2
 213              	.LVL25:
 214              	.L17:
 215              	.LBE5:
 216              		.loc 1 81 0
 217 00e4 FFF7FEFF 		bl	__stack_chk_fail
 218              	.LVL26:
 219              	.L19:
 220              		.align	2
 221              	.L18:
 222 00e8 00000000 		.word	__stack_chk_guard
 223 00ec 00000000 		.word	.LANCHOR0
 224 00f0 0080FFFF 		.word	-32768
 225 00f4 00000000 		.word	.LANCHOR2
 226 00f8 00000000 		.word	.LANCHOR1
 227              		.cfi_endproc
 228              	.LFE258:
ARM GAS  C:\Users\mathi\AppData\Local\Temp\cc3zrRyh.s 			page 5


 229              		.size	handlePCMdata, .-handlePCMdata
 230              		.section	.text.mic_get_last,"ax",%progbits
 231              		.align	1
 232              		.p2align 4,,15
 233              		.global	mic_get_last
 234              		.syntax unified
 235              		.thumb
 236              		.thumb_func
 237              		.fpu fpv4-sp-d16
 238              		.type	mic_get_last, %function
 239              	mic_get_last:
 240              	.LFB256:
 241              		.loc 1 13 0
 242              		.cfi_startproc
 243              		@ args = 0, pretend = 0, frame = 8
 244              		@ frame_needed = 0, uses_anonymous_args = 0
 245              	.LVL27:
 246 0000 00B5     		push	{lr}
 247              		.cfi_def_cfa_offset 4
 248              		.cfi_offset 14, -4
 249 0002 0A4B     		ldr	r3, .L26
 250 0004 83B0     		sub	sp, sp, #12
 251              		.cfi_def_cfa_offset 16
 252              		.loc 1 13 0
 253 0006 1A68     		ldr	r2, [r3]
 254 0008 0192     		str	r2, [sp, #4]
 255              		.loc 1 14 0
 256 000a 0328     		cmp	r0, #3
 257              		.loc 1 15 0
 258 000c 9CBF     		itt	ls
 259 000e 084A     		ldrls	r2, .L26+4
 260 0010 32F91000 		ldrshls	r0, [r2, r0, lsl #1]
 261              	.LVL28:
 262              		.loc 1 19 0
 263 0014 019A     		ldr	r2, [sp, #4]
 264 0016 1B68     		ldr	r3, [r3]
 265              		.loc 1 17 0
 266 0018 88BF     		it	hi
 267 001a 0020     		movhi	r0, #0
 268              		.loc 1 19 0
 269 001c 9A42     		cmp	r2, r3
 270 001e 02D1     		bne	.L25
 271 0020 03B0     		add	sp, sp, #12
 272              		.cfi_remember_state
 273              		.cfi_def_cfa_offset 4
 274              		@ sp needed
 275 0022 5DF804FB 		ldr	pc, [sp], #4
 276              	.L25:
 277              		.cfi_restore_state
 278 0026 FFF7FEFF 		bl	__stack_chk_fail
 279              	.LVL29:
 280              	.L27:
 281 002a 00BF     		.align	2
 282              	.L26:
 283 002c 00000000 		.word	__stack_chk_guard
 284 0030 00000000 		.word	.LANCHOR2
 285              		.cfi_endproc
ARM GAS  C:\Users\mathi\AppData\Local\Temp\cc3zrRyh.s 			page 6


 286              	.LFE256:
 287              		.size	mic_get_last, .-mic_get_last
 288              		.section	.text.mic_get_volume,"ax",%progbits
 289              		.align	1
 290              		.p2align 4,,15
 291              		.global	mic_get_volume
 292              		.syntax unified
 293              		.thumb
 294              		.thumb_func
 295              		.fpu fpv4-sp-d16
 296              		.type	mic_get_volume, %function
 297              	mic_get_volume:
 298              	.LFB257:
 299              		.loc 1 22 0
 300              		.cfi_startproc
 301              		@ args = 0, pretend = 0, frame = 8
 302              		@ frame_needed = 0, uses_anonymous_args = 0
 303              	.LVL30:
 304 0000 00B5     		push	{lr}
 305              		.cfi_def_cfa_offset 4
 306              		.cfi_offset 14, -4
 307 0002 0A4B     		ldr	r3, .L34
 308 0004 83B0     		sub	sp, sp, #12
 309              		.cfi_def_cfa_offset 16
 310              		.loc 1 22 0
 311 0006 1A68     		ldr	r2, [r3]
 312 0008 0192     		str	r2, [sp, #4]
 313              		.loc 1 23 0
 314 000a 0328     		cmp	r0, #3
 315              		.loc 1 24 0
 316 000c 9CBF     		itt	ls
 317 000e 084A     		ldrls	r2, .L34+4
 318 0010 32F81000 		ldrhls	r0, [r2, r0, lsl #1]
 319              	.LVL31:
 320              		.loc 1 28 0
 321 0014 019A     		ldr	r2, [sp, #4]
 322 0016 1B68     		ldr	r3, [r3]
 323              		.loc 1 26 0
 324 0018 88BF     		it	hi
 325 001a 0020     		movhi	r0, #0
 326              		.loc 1 28 0
 327 001c 9A42     		cmp	r2, r3
 328 001e 02D1     		bne	.L33
 329 0020 03B0     		add	sp, sp, #12
 330              		.cfi_remember_state
 331              		.cfi_def_cfa_offset 4
 332              		@ sp needed
 333 0022 5DF804FB 		ldr	pc, [sp], #4
 334              	.L33:
 335              		.cfi_restore_state
 336 0026 FFF7FEFF 		bl	__stack_chk_fail
 337              	.LVL32:
 338              	.L35:
 339 002a 00BF     		.align	2
 340              	.L34:
 341 002c 00000000 		.word	__stack_chk_guard
 342 0030 00000000 		.word	.LANCHOR1
ARM GAS  C:\Users\mathi\AppData\Local\Temp\cc3zrRyh.s 			page 7


 343              		.cfi_endproc
 344              	.LFE257:
 345              		.size	mic_get_volume, .-mic_get_volume
 346              		.section	.text.mic_start,"ax",%progbits
 347              		.align	1
 348              		.p2align 4,,15
 349              		.global	mic_start
 350              		.syntax unified
 351              		.thumb
 352              		.thumb_func
 353              		.fpu fpv4-sp-d16
 354              		.type	mic_start, %function
 355              	mic_start:
 356              	.LFB259:
 357              		.loc 1 83 0
 358              		.cfi_startproc
 359              		@ args = 0, pretend = 0, frame = 8
 360              		@ frame_needed = 0, uses_anonymous_args = 0
 361              	.LVL33:
 362 0000 70B5     		push	{r4, r5, r6, lr}
 363              		.cfi_def_cfa_offset 16
 364              		.cfi_offset 4, -16
 365              		.cfi_offset 5, -12
 366              		.cfi_offset 6, -8
 367              		.cfi_offset 14, -4
 368              		.loc 1 85 0
 369 0002 404B     		ldr	r3, .L45
 370              		.loc 1 83 0
 371 0004 404C     		ldr	r4, .L45+4
 372              		.loc 1 85 0
 373 0006 1A78     		ldrb	r2, [r3]	@ zero_extendqisi2
 374              		.loc 1 83 0
 375 0008 2368     		ldr	r3, [r4]
 376 000a 82B0     		sub	sp, sp, #8
 377              		.cfi_def_cfa_offset 24
 378              		.loc 1 85 0
 379 000c 012A     		cmp	r2, #1
 380              		.loc 1 83 0
 381 000e 0193     		str	r3, [sp, #4]
 382              		.loc 1 85 0
 383 0010 05D0     		beq	.L43
 384              	.LVL34:
 385              	.L36:
 386              		.loc 1 145 0
 387 0012 019A     		ldr	r2, [sp, #4]
 388 0014 2368     		ldr	r3, [r4]
 389 0016 9A42     		cmp	r2, r3
 390 0018 72D1     		bne	.L44
 391 001a 02B0     		add	sp, sp, #8
 392              		.cfi_remember_state
 393              		.cfi_def_cfa_offset 16
 394              		@ sp needed
 395 001c 70BD     		pop	{r4, r5, r6, pc}
 396              	.LVL35:
 397              	.L43:
 398              		.cfi_restore_state
 399              		.loc 1 95 0
ARM GAS  C:\Users\mathi\AppData\Local\Temp\cc3zrRyh.s 			page 8


 400 001e 3B49     		ldr	r1, .L45+8
 401              		.loc 1 98 0
 402 0020 3B4B     		ldr	r3, .L45+12
 403              		.loc 1 95 0
 404 0022 4D6C     		ldr	r5, [r1, #68]
 405              		.loc 1 141 0
 406 0024 3B4E     		ldr	r6, .L45+16
 407              		.loc 1 95 0
 408 0026 45F48035 		orr	r5, r5, #65536
 409 002a 4D64     		str	r5, [r1, #68]
 410              		.loc 1 96 0
 411 002c 4D6A     		ldr	r5, [r1, #36]
 412 002e 45F48035 		orr	r5, r5, #65536
 413 0032 4D62     		str	r5, [r1, #36]
 414 0034 0025     		movs	r5, #0
 415 0036 4D62     		str	r5, [r1, #36]
 416              		.loc 1 98 0
 417 0038 1D61     		str	r5, [r3, #16]
 418              		.loc 1 99 0
 419 003a DD60     		str	r5, [r3, #12]
 420              		.loc 1 102 0
 421 003c 196A     		ldr	r1, [r3, #32]
 422 003e 21F00101 		bic	r1, r1, #1
 423 0042 1962     		str	r1, [r3, #32]
 424              		.loc 1 103 0
 425 0044 9969     		ldr	r1, [r3, #24]
 426 0046 21F00301 		bic	r1, r1, #3
 427 004a 9961     		str	r1, [r3, #24]
 428              		.loc 1 104 0
 429 004c 9969     		ldr	r1, [r3, #24]
 430 004e 41F00101 		orr	r1, r1, #1
 431 0052 9961     		str	r1, [r3, #24]
 432              		.loc 1 105 0
 433 0054 9969     		ldr	r1, [r3, #24]
 434 0056 21F0F001 		bic	r1, r1, #240
 435 005a 9961     		str	r1, [r3, #24]
 436              		.loc 1 106 0
 437 005c 196A     		ldr	r1, [r3, #32]
 438 005e 21F00A01 		bic	r1, r1, #10
 439 0062 1962     		str	r1, [r3, #32]
 440              		.loc 1 107 0
 441 0064 9969     		ldr	r1, [r3, #24]
 442 0066 21F00C01 		bic	r1, r1, #12
 443 006a 9961     		str	r1, [r3, #24]
 444              		.loc 1 110 0
 445 006c 9968     		ldr	r1, [r3, #8]
 446 006e 21F07001 		bic	r1, r1, #112
 447 0072 9960     		str	r1, [r3, #8]
 448              		.loc 1 111 0
 449 0074 9968     		ldr	r1, [r3, #8]
 450 0076 41F05001 		orr	r1, r1, #80
 451 007a 9960     		str	r1, [r3, #8]
 452              		.loc 1 112 0
 453 007c 9968     		ldr	r1, [r3, #8]
 454 007e 21F48031 		bic	r1, r1, #65536
 455 0082 21F00701 		bic	r1, r1, #7
 456 0086 9960     		str	r1, [r3, #8]
ARM GAS  C:\Users\mathi\AppData\Local\Temp\cc3zrRyh.s 			page 9


 457              		.loc 1 113 0
 458 0088 9968     		ldr	r1, [r3, #8]
 459 008a 41F00701 		orr	r1, r1, #7
 460 008e 9960     		str	r1, [r3, #8]
 461              		.loc 1 116 0
 462 0090 1968     		ldr	r1, [r3]
 463 0092 21F44071 		bic	r1, r1, #768
 464 0096 1960     		str	r1, [r3]
 465              		.loc 1 117 0
 466 0098 DA62     		str	r2, [r3, #44]
 467              		.loc 1 118 0
 468 009a 9D62     		str	r5, [r3, #40]
 469              		.loc 1 119 0
 470 009c 5A61     		str	r2, [r3, #20]
 471              		.loc 1 120 0
 472 009e 196A     		ldr	r1, [r3, #32]
 473 00a0 21F01001 		bic	r1, r1, #16
 474 00a4 1962     		str	r1, [r3, #32]
 475              		.loc 1 121 0
 476 00a6 9969     		ldr	r1, [r3, #24]
 477 00a8 21F44071 		bic	r1, r1, #768
 478 00ac 9961     		str	r1, [r3, #24]
 479              		.loc 1 122 0
 480 00ae 9969     		ldr	r1, [r3, #24]
 481 00b0 21F08071 		bic	r1, r1, #16777216
 482 00b4 21F4E041 		bic	r1, r1, #28672
 483 00b8 9961     		str	r1, [r3, #24]
 484              		.loc 1 123 0
 485 00ba 9969     		ldr	r1, [r3, #24]
 486 00bc 41F4C041 		orr	r1, r1, #24576
 487 00c0 9961     		str	r1, [r3, #24]
 488              		.loc 1 124 0
 489 00c2 196A     		ldr	r1, [r3, #32]
 490 00c4 21F0A001 		bic	r1, r1, #160
 491 00c8 1962     		str	r1, [r3, #32]
 492              		.loc 1 125 0
 493 00ca 9A63     		str	r2, [r3, #56]
 494              		.loc 1 126 0
 495 00cc 9A69     		ldr	r2, [r3, #24]
 496 00ce 42F40062 		orr	r2, r2, #2048
 497 00d2 9A61     		str	r2, [r3, #24]
 498              		.loc 1 127 0
 499 00d4 1A6A     		ldr	r2, [r3, #32]
 500 00d6 22F48062 		bic	r2, r2, #1024
 501 00da 1A62     		str	r2, [r3, #32]
 502              		.loc 1 130 0
 503 00dc 1A6A     		ldr	r2, [r3, #32]
 504 00de 42F01102 		orr	r2, r2, #17
 505 00e2 1A62     		str	r2, [r3, #32]
 506              		.loc 1 131 0
 507 00e4 1968     		ldr	r1, [r3]
 508 00e6 02AA     		add	r2, sp, #8
 509              		.loc 1 141 0
 510 00e8 A842     		cmp	r0, r5
 511 00ea 08BF     		it	eq
 512 00ec 3046     		moveq	r0, r6
 513              	.LVL36:
ARM GAS  C:\Users\mathi\AppData\Local\Temp\cc3zrRyh.s 			page 10


 514              		.loc 1 131 0
 515 00ee 41F00101 		orr	r1, r1, #1
 516 00f2 1960     		str	r1, [r3]
 517 00f4 42F8080D 		str	r0, [r2, #-8]!
 518              		.loc 1 142 0
 519 00f8 1046     		mov	r0, r2
 520 00fa FFF7FEFF 		bl	mp45dt02Init
 521              	.LVL37:
 522 00fe 88E7     		b	.L36
 523              	.L44:
 524              		.loc 1 145 0
 525 0100 FFF7FEFF 		bl	__stack_chk_fail
 526              	.LVL38:
 527              	.L46:
 528              		.align	2
 529              	.L45:
 530 0104 00000000 		.word	I2SD2
 531 0108 00000000 		.word	__stack_chk_guard
 532 010c 00380240 		.word	1073887232
 533 0110 00400140 		.word	1073823744
 534 0114 00000000 		.word	handlePCMdata
 535              		.cfi_endproc
 536              	.LFE259:
 537              		.size	mic_start, .-mic_start
 538              		.section	.text.mic_get_buffer_ptr,"ax",%progbits
 539              		.align	1
 540              		.p2align 4,,15
 541              		.global	mic_get_buffer_ptr
 542              		.syntax unified
 543              		.thumb
 544              		.thumb_func
 545              		.fpu fpv4-sp-d16
 546              		.type	mic_get_buffer_ptr, %function
 547              	mic_get_buffer_ptr:
 548              	.LFB260:
 549              		.loc 1 147 0
 550              		.cfi_startproc
 551              		@ args = 0, pretend = 0, frame = 8
 552              		@ frame_needed = 0, uses_anonymous_args = 0
 553 0000 00B5     		push	{lr}
 554              		.cfi_def_cfa_offset 4
 555              		.cfi_offset 14, -4
 556 0002 074B     		ldr	r3, .L52
 557 0004 83B0     		sub	sp, sp, #12
 558              		.cfi_def_cfa_offset 16
 559              		.loc 1 147 0
 560 0006 1A68     		ldr	r2, [r3]
 561 0008 0192     		str	r2, [sp, #4]
 562              		.loc 1 148 0
 563 000a 019A     		ldr	r2, [sp, #4]
 564 000c 1B68     		ldr	r3, [r3]
 565 000e 9A42     		cmp	r2, r3
 566 0010 04D1     		bne	.L51
 567              		.loc 1 149 0
 568 0012 03B0     		add	sp, sp, #12
 569              		.cfi_remember_state
 570              		.cfi_def_cfa_offset 4
ARM GAS  C:\Users\mathi\AppData\Local\Temp\cc3zrRyh.s 			page 11


 571              		@ sp needed
 572 0014 5DF804EB 		ldr	lr, [sp], #4
 573              		.cfi_restore 14
 574              		.cfi_def_cfa_offset 0
 575              		.loc 1 148 0
 576 0018 FFF7FEBF 		b	mp45dt02BufferPtr
 577              	.LVL39:
 578              	.L51:
 579              		.cfi_restore_state
 580 001c FFF7FEFF 		bl	__stack_chk_fail
 581              	.LVL40:
 582              	.L53:
 583              		.align	2
 584              	.L52:
 585 0020 00000000 		.word	__stack_chk_guard
 586              		.cfi_endproc
 587              	.LFE260:
 588              		.size	mic_get_buffer_ptr, .-mic_get_buffer_ptr
 589              		.section	.text.mic_buffer_is_ready,"ax",%progbits
 590              		.align	1
 591              		.p2align 4,,15
 592              		.global	mic_buffer_is_ready
 593              		.syntax unified
 594              		.thumb
 595              		.thumb_func
 596              		.fpu fpv4-sp-d16
 597              		.type	mic_buffer_is_ready, %function
 598              	mic_buffer_is_ready:
 599              	.LFB261:
 600              		.loc 1 151 0
 601              		.cfi_startproc
 602              		@ args = 0, pretend = 0, frame = 8
 603              		@ frame_needed = 0, uses_anonymous_args = 0
 604 0000 00B5     		push	{lr}
 605              		.cfi_def_cfa_offset 4
 606              		.cfi_offset 14, -4
 607 0002 074B     		ldr	r3, .L58
 608              		.loc 1 152 0
 609 0004 0749     		ldr	r1, .L58+4
 610              		.loc 1 151 0
 611 0006 1A68     		ldr	r2, [r3]
 612              		.loc 1 153 0
 613 0008 0878     		ldrb	r0, [r1]	@ zero_extendqisi2
 614              		.loc 1 151 0
 615 000a 83B0     		sub	sp, sp, #12
 616              		.cfi_def_cfa_offset 16
 617              		.loc 1 151 0
 618 000c 0192     		str	r2, [sp, #4]
 619              		.loc 1 153 0
 620 000e 019A     		ldr	r2, [sp, #4]
 621 0010 1B68     		ldr	r3, [r3]
 622 0012 9A42     		cmp	r2, r3
 623 0014 02D1     		bne	.L57
 624 0016 03B0     		add	sp, sp, #12
 625              		.cfi_remember_state
 626              		.cfi_def_cfa_offset 4
 627              		@ sp needed
ARM GAS  C:\Users\mathi\AppData\Local\Temp\cc3zrRyh.s 			page 12


 628 0018 5DF804FB 		ldr	pc, [sp], #4
 629              	.L57:
 630              		.cfi_restore_state
 631 001c FFF7FEFF 		bl	__stack_chk_fail
 632              	.LVL41:
 633              	.L59:
 634              		.align	2
 635              	.L58:
 636 0020 00000000 		.word	__stack_chk_guard
 637 0024 00000000 		.word	.LANCHOR0
 638              		.cfi_endproc
 639              	.LFE261:
 640              		.size	mic_buffer_is_ready, .-mic_buffer_is_ready
 641              		.section	.text.mic_buffer_ready_reset,"ax",%progbits
 642              		.align	1
 643              		.p2align 4,,15
 644              		.global	mic_buffer_ready_reset
 645              		.syntax unified
 646              		.thumb
 647              		.thumb_func
 648              		.fpu fpv4-sp-d16
 649              		.type	mic_buffer_ready_reset, %function
 650              	mic_buffer_ready_reset:
 651              	.LFB262:
 652              		.loc 1 155 0
 653              		.cfi_startproc
 654              		@ args = 0, pretend = 0, frame = 8
 655              		@ frame_needed = 0, uses_anonymous_args = 0
 656 0000 00B5     		push	{lr}
 657              		.cfi_def_cfa_offset 4
 658              		.cfi_offset 14, -4
 659 0002 084B     		ldr	r3, .L64
 660              		.loc 1 156 0
 661 0004 0849     		ldr	r1, .L64+4
 662              		.loc 1 155 0
 663 0006 1A68     		ldr	r2, [r3]
 664 0008 83B0     		sub	sp, sp, #12
 665              		.cfi_def_cfa_offset 16
 666              		.loc 1 156 0
 667 000a 0020     		movs	r0, #0
 668              		.loc 1 155 0
 669 000c 0192     		str	r2, [sp, #4]
 670              		.loc 1 157 0
 671 000e 019A     		ldr	r2, [sp, #4]
 672 0010 1B68     		ldr	r3, [r3]
 673              		.loc 1 156 0
 674 0012 0870     		strb	r0, [r1]
 675              		.loc 1 157 0
 676 0014 9A42     		cmp	r2, r3
 677 0016 02D1     		bne	.L63
 678 0018 03B0     		add	sp, sp, #12
 679              		.cfi_remember_state
 680              		.cfi_def_cfa_offset 4
 681              		@ sp needed
 682 001a 5DF804FB 		ldr	pc, [sp], #4
 683              	.L63:
 684              		.cfi_restore_state
ARM GAS  C:\Users\mathi\AppData\Local\Temp\cc3zrRyh.s 			page 13


 685 001e FFF7FEFF 		bl	__stack_chk_fail
 686              	.LVL42:
 687              	.L65:
 688 0022 00BF     		.align	2
 689              	.L64:
 690 0024 00000000 		.word	__stack_chk_guard
 691 0028 00000000 		.word	.LANCHOR0
 692              		.cfi_endproc
 693              	.LFE262:
 694              		.size	mic_buffer_ready_reset, .-mic_buffer_ready_reset
 695              		.section	.text.mic_buffer_get_size,"ax",%progbits
 696              		.align	1
 697              		.p2align 4,,15
 698              		.global	mic_buffer_get_size
 699              		.syntax unified
 700              		.thumb
 701              		.thumb_func
 702              		.fpu fpv4-sp-d16
 703              		.type	mic_buffer_get_size, %function
 704              	mic_buffer_get_size:
 705              	.LFB263:
 706              		.loc 1 159 0
 707              		.cfi_startproc
 708              		@ args = 0, pretend = 0, frame = 8
 709              		@ frame_needed = 0, uses_anonymous_args = 0
 710 0000 00B5     		push	{lr}
 711              		.cfi_def_cfa_offset 4
 712              		.cfi_offset 14, -4
 713 0002 074B     		ldr	r3, .L70
 714 0004 83B0     		sub	sp, sp, #12
 715              		.cfi_def_cfa_offset 16
 716              		.loc 1 159 0
 717 0006 1A68     		ldr	r2, [r3]
 718 0008 0192     		str	r2, [sp, #4]
 719              		.loc 1 161 0
 720 000a 019A     		ldr	r2, [sp, #4]
 721 000c 1B68     		ldr	r3, [r3]
 722 000e 9A42     		cmp	r2, r3
 723 0010 04D1     		bne	.L69
 724 0012 4FF4A060 		mov	r0, #1280
 725 0016 03B0     		add	sp, sp, #12
 726              		.cfi_remember_state
 727              		.cfi_def_cfa_offset 4
 728              		@ sp needed
 729 0018 5DF804FB 		ldr	pc, [sp], #4
 730              	.L69:
 731              		.cfi_restore_state
 732 001c FFF7FEFF 		bl	__stack_chk_fail
 733              	.LVL43:
 734              	.L71:
 735              		.align	2
 736              	.L70:
 737 0020 00000000 		.word	__stack_chk_guard
 738              		.cfi_endproc
 739              	.LFE263:
 740              		.size	mic_buffer_get_size, .-mic_buffer_get_size
 741              		.section	.bss.mic_buffer_ready,"aw",%nobits
ARM GAS  C:\Users\mathi\AppData\Local\Temp\cc3zrRyh.s 			page 14


 742              		.set	.LANCHOR0,. + 0
 743              		.type	mic_buffer_ready, %object
 744              		.size	mic_buffer_ready, 1
 745              	mic_buffer_ready:
 746 0000 00       		.space	1
 747              		.section	.bss.mic_last,"aw",%nobits
 748              		.align	2
 749              		.set	.LANCHOR2,. + 0
 750              		.type	mic_last, %object
 751              		.size	mic_last, 8
 752              	mic_last:
 753 0000 00000000 		.space	8
 753      00000000 
 754              		.section	.bss.mic_volume,"aw",%nobits
 755              		.align	2
 756              		.set	.LANCHOR1,. + 0
 757              		.type	mic_volume, %object
 758              		.size	mic_volume, 8
 759              	mic_volume:
 760 0000 00000000 		.space	8
 760      00000000 
 761              		.text
 762              	.Letext0:
 763              		.file 2 "c:\\eclipse_e-puck2\\tools\\gcc-arm-none-eabi-7-2017-q4-major-win32\\lib\\gcc\\arm-none-e
 764              		.file 3 "c:\\eclipse_e-puck2\\tools\\gcc-arm-none-eabi-7-2017-q4-major-win32\\arm-none-eabi\\inclu
 765              		.file 4 "c:\\eclipse_e-puck2\\tools\\gcc-arm-none-eabi-7-2017-q4-major-win32\\arm-none-eabi\\inclu
 766              		.file 5 "c:\\eclipse_e-puck2\\tools\\gcc-arm-none-eabi-7-2017-q4-major-win32\\arm-none-eabi\\inclu
 767              		.file 6 "c:\\eclipse_e-puck2\\tools\\gcc-arm-none-eabi-7-2017-q4-major-win32\\arm-none-eabi\\inclu
 768              		.file 7 "c:\\eclipse_e-puck2\\tools\\gcc-arm-none-eabi-7-2017-q4-major-win32\\arm-none-eabi\\inclu
 769              		.file 8 "../../lib/e-puck2_main-processor/ChibiOS//os/rt/ports/ARMCMx/compilers/GCC/chtypes.h"
 770              		.file 9 "../../lib/e-puck2_main-processor/ChibiOS//os/rt/include/chsystypes.h"
 771              		.file 10 "../../lib/e-puck2_main-processor/ChibiOS//os/rt/include/chschd.h"
 772              		.file 11 "../../lib/e-puck2_main-processor/ChibiOS//os/ext/CMSIS/include/core_cm4.h"
 773              		.file 12 "../../lib/e-puck2_main-processor/ChibiOS//os/ext/CMSIS/ST/system_stm32f4xx.h"
 774              		.file 13 "../../lib/e-puck2_main-processor/ChibiOS//os/ext/CMSIS/ST/stm32f407xx.h"
 775              		.file 14 "../../lib/e-puck2_main-processor/ChibiOS//os/rt/ports/ARMCMx/chcore.h"
 776              		.file 15 "../../lib/e-puck2_main-processor/ChibiOS//os/rt/ports/ARMCMx/chcore_v7m.h"
 777              		.file 16 "../../lib/e-puck2_main-processor/ChibiOS//os/rt/include/chdebug.h"
 778              		.file 17 "../../lib/e-puck2_main-processor/ChibiOS//os/rt/include/chtm.h"
 779              		.file 18 "../../lib/e-puck2_main-processor/ChibiOS//os/rt/include/chstats.h"
 780              		.file 19 "../../lib/e-puck2_main-processor/ChibiOS//os/rt/include/chsem.h"
 781              		.file 20 "../../lib/e-puck2_main-processor/ChibiOS//os/rt/include/chmtx.h"
 782              		.file 21 "../../lib/e-puck2_main-processor/ChibiOS//os/rt/include/chregistry.h"
 783              		.file 22 "../../lib/e-puck2_main-processor/ChibiOS//os/rt/include/chevents.h"
 784              		.file 23 "../../lib/e-puck2_main-processor/ChibiOS//os/rt/include/chqueues.h"
 785              		.file 24 "../../lib/e-puck2_main-processor/ChibiOS//os/hal/ports/STM32/STM32F4xx/stm32_dma.h"
 786              		.file 25 "../../lib/e-puck2_main-processor/ChibiOS//os/hal/include/hal_ioblock.h"
 787              		.file 26 "../../lib/e-puck2_main-processor/ChibiOS//os/hal/ports/STM32/LLD/GPIOv2/pal_lld.h"
 788              		.file 27 "../../lib/e-puck2_main-processor/ChibiOS//os/hal/include/adc.h"
 789              		.file 28 "../../lib/e-puck2_main-processor/ChibiOS//os/hal/ports/STM32/STM32F4xx/adc_lld.h"
 790              		.file 29 "../../lib/e-puck2_main-processor/ChibiOS//os/hal/include/can.h"
 791              		.file 30 "../../lib/e-puck2_main-processor/ChibiOS//os/hal/ports/STM32/LLD/can_lld.h"
 792              		.file 31 "../../lib/e-puck2_main-processor/ChibiOS//os/hal/include/dac.h"
 793              		.file 32 "../../lib/e-puck2_main-processor/ChibiOS//os/hal/ports/STM32/LLD/DACv1/dac_lld.h"
 794              		.file 33 "../../lib/e-puck2_main-processor/ChibiOS//os/hal/include/ext.h"
 795              		.file 34 "../../lib/e-puck2_main-processor/ChibiOS//os/hal/ports/STM32/LLD/ext_lld.h"
 796              		.file 35 "../../lib/e-puck2_main-processor/ChibiOS//os/hal/include/gpt.h"
ARM GAS  C:\Users\mathi\AppData\Local\Temp\cc3zrRyh.s 			page 15


 797              		.file 36 "../../lib/e-puck2_main-processor/ChibiOS//os/hal/ports/STM32/LLD/TIMv1/gpt_lld.h"
 798              		.file 37 "../../lib/e-puck2_main-processor/ChibiOS//os/hal/ports/STM32/LLD/TIMv1/stm32_tim.h"
 799              		.file 38 "../../lib/e-puck2_main-processor/ChibiOS//os/hal/include/i2c.h"
 800              		.file 39 "../../lib/e-puck2_main-processor/ChibiOS//os/hal/ports/STM32/LLD/I2Cv1/i2c_lld.h"
 801              		.file 40 "../../lib/e-puck2_main-processor/ChibiOS//os/hal/include/i2s.h"
 802              		.file 41 "../../lib/e-puck2_main-processor/ChibiOS//os/hal/ports/STM32/LLD/SPIv1/i2s_lld.h"
 803              		.file 42 "../../lib/e-puck2_main-processor/ChibiOS//os/hal/include/pwm.h"
 804              		.file 43 "../../lib/e-puck2_main-processor/ChibiOS//os/hal/ports/STM32/LLD/TIMv1/pwm_lld.h"
 805              		.file 44 "../../lib/e-puck2_main-processor/ChibiOS//os/hal/include/serial.h"
 806              		.file 45 "../../lib/e-puck2_main-processor/ChibiOS//os/hal/ports/STM32/LLD/USARTv1/serial_lld.h"
 807              		.file 46 "../../lib/e-puck2_main-processor/ChibiOS//os/hal/include/sdc.h"
 808              		.file 47 "../../lib/e-puck2_main-processor/ChibiOS//os/hal/ports/STM32/LLD/sdc_lld.h"
 809              		.file 48 "../../lib/e-puck2_main-processor/ChibiOS//os/hal/include/spi.h"
 810              		.file 49 "../../lib/e-puck2_main-processor/ChibiOS//os/hal/ports/STM32/LLD/SPIv1/spi_lld.h"
 811              		.file 50 "../../lib/e-puck2_main-processor/ChibiOS//os/hal/include/usb.h"
 812              		.file 51 "../../lib/e-puck2_main-processor/ChibiOS//os/hal/ports/STM32/LLD/OTGv1/usb_lld.h"
 813              		.file 52 "../../lib/e-puck2_main-processor/ChibiOS//os/hal/ports/STM32/LLD/OTGv1/stm32_otg.h"
 814              		.file 53 "../../lib/e-puck2_main-processor/src/audio/mp45dt02_processing.h"