ARM GAS  C:\Users\mathi\AppData\Local\Temp\cccZcXws.s 			page 1


   1              		.cpu cortex-m4
   2              		.eabi_attribute 27, 1
   3              		.eabi_attribute 28, 1
   4              		.eabi_attribute 20, 1
   5              		.eabi_attribute 21, 1
   6              		.eabi_attribute 23, 3
   7              		.eabi_attribute 24, 1
   8              		.eabi_attribute 25, 1
   9              		.eabi_attribute 26, 1
  10              		.eabi_attribute 30, 2
  11              		.eabi_attribute 34, 1
  12              		.eabi_attribute 18, 4
  13              		.file	"motors.c"
  14              		.text
  15              	.Ltext0:
  16              		.cfi_sections	.debug_frame
  17              		.section	.text.right_motor_update,"ax",%progbits
  18              		.align	1
  19              		.p2align 4,,15
  20              		.syntax unified
  21              		.thumb
  22              		.thumb_func
  23              		.fpu fpv4-sp-d16
  24              		.type	right_motor_update, %function
  25              	right_motor_update:
  26              	.LFB256:
  27              		.file 1 "../../lib/e-puck2_main-processor/src/motors.c"
  28              		.loc 1 50 0
  29              		.cfi_startproc
  30              		@ args = 0, pretend = 0, frame = 8
  31              		@ frame_needed = 0, uses_anonymous_args = 0
  32              	.LVL0:
  33 0000 00B5     		push	{lr}
  34              		.cfi_def_cfa_offset 4
  35              		.cfi_offset 14, -4
  36 0002 1F4B     		ldr	r3, .L17
  37              		.loc 1 52 0
  38 0004 0278     		ldrb	r2, [r0]	@ zero_extendqisi2
  39              		.loc 1 50 0
  40 0006 1968     		ldr	r1, [r3]
  41 0008 83B0     		sub	sp, sp, #12
  42              		.cfi_def_cfa_offset 16
  43              		.loc 1 50 0
  44 000a 0191     		str	r1, [sp, #4]
  45              		.loc 1 52 0
  46 000c E2B1     		cbz	r2, .L2
  47              		.loc 1 52 0 is_stmt 0 discriminator 1
  48 000e 1D4A     		ldr	r2, .L17+4
  49 0010 4FF40051 		mov	r1, #8192
  50 0014 1183     		strh	r1, [r2, #24]	@ movhi
  51              		.loc 1 53 0 is_stmt 1 discriminator 1
  52 0016 4278     		ldrb	r2, [r0, #1]	@ zero_extendqisi2
  53 0018 EAB1     		cbz	r2, .L4
  54              	.L15:
  55 001a 1A4A     		ldr	r2, .L17+4
  56 001c 4FF48051 		mov	r1, #4096
  57 0020 1183     		strh	r1, [r2, #24]	@ movhi
ARM GAS  C:\Users\mathi\AppData\Local\Temp\cccZcXws.s 			page 2


  58              		.loc 1 54 0 discriminator 1
  59 0022 8278     		ldrb	r2, [r0, #2]	@ zero_extendqisi2
  60 0024 F2B1     		cbz	r2, .L6
  61              	.L16:
  62 0026 174A     		ldr	r2, .L17+4
  63 0028 4FF48041 		mov	r1, #16384
  64 002c 1183     		strh	r1, [r2, #24]	@ movhi
  65              		.loc 1 55 0 discriminator 1
  66 002e C278     		ldrb	r2, [r0, #3]	@ zero_extendqisi2
  67 0030 FAB9     		cbnz	r2, .L13
  68              	.L8:
  69              		.loc 1 55 0 is_stmt 0 discriminator 2
  70 0032 144A     		ldr	r2, .L17+4
  71 0034 4FF40041 		mov	r1, #32768
  72 0038 5183     		strh	r1, [r2, #26]	@ movhi
  73              	.L1:
  74              		.loc 1 56 0 is_stmt 1
  75 003a 019A     		ldr	r2, [sp, #4]
  76 003c 1B68     		ldr	r3, [r3]
  77 003e 9A42     		cmp	r2, r3
  78 0040 1CD1     		bne	.L14
  79 0042 03B0     		add	sp, sp, #12
  80              		.cfi_remember_state
  81              		.cfi_def_cfa_offset 4
  82              		@ sp needed
  83 0044 5DF804FB 		ldr	pc, [sp], #4
  84              	.L2:
  85              		.cfi_restore_state
  86              		.loc 1 52 0 discriminator 2
  87 0048 0E4A     		ldr	r2, .L17+4
  88 004a 4FF40051 		mov	r1, #8192
  89 004e 5183     		strh	r1, [r2, #26]	@ movhi
  90              		.loc 1 53 0 discriminator 2
  91 0050 4278     		ldrb	r2, [r0, #1]	@ zero_extendqisi2
  92 0052 002A     		cmp	r2, #0
  93 0054 E1D1     		bne	.L15
  94              	.L4:
  95 0056 0B4A     		ldr	r2, .L17+4
  96 0058 4FF48051 		mov	r1, #4096
  97 005c 5183     		strh	r1, [r2, #26]	@ movhi
  98              		.loc 1 54 0 discriminator 2
  99 005e 8278     		ldrb	r2, [r0, #2]	@ zero_extendqisi2
 100 0060 002A     		cmp	r2, #0
 101 0062 E0D1     		bne	.L16
 102              	.L6:
 103 0064 074A     		ldr	r2, .L17+4
 104 0066 4FF48041 		mov	r1, #16384
 105 006a 5183     		strh	r1, [r2, #26]	@ movhi
 106              		.loc 1 55 0 discriminator 2
 107 006c C278     		ldrb	r2, [r0, #3]	@ zero_extendqisi2
 108 006e 002A     		cmp	r2, #0
 109 0070 DFD0     		beq	.L8
 110              	.L13:
 111              		.loc 1 55 0 is_stmt 0 discriminator 1
 112 0072 044A     		ldr	r2, .L17+4
 113 0074 4FF40041 		mov	r1, #32768
 114 0078 1183     		strh	r1, [r2, #24]	@ movhi
ARM GAS  C:\Users\mathi\AppData\Local\Temp\cccZcXws.s 			page 3


 115 007a DEE7     		b	.L1
 116              	.L14:
 117              		.loc 1 56 0 is_stmt 1
 118 007c FFF7FEFF 		bl	__stack_chk_fail
 119              	.LVL1:
 120              	.L18:
 121              		.align	2
 122              	.L17:
 123 0080 00000000 		.word	__stack_chk_guard
 124 0084 00100240 		.word	1073876992
 125              		.cfi_endproc
 126              	.LFE256:
 127              		.size	right_motor_update, .-right_motor_update
 128              		.section	.text.left_motor_update,"ax",%progbits
 129              		.align	1
 130              		.p2align 4,,15
 131              		.syntax unified
 132              		.thumb
 133              		.thumb_func
 134              		.fpu fpv4-sp-d16
 135              		.type	left_motor_update, %function
 136              	left_motor_update:
 137              	.LFB257:
 138              		.loc 1 65 0
 139              		.cfi_startproc
 140              		@ args = 0, pretend = 0, frame = 8
 141              		@ frame_needed = 0, uses_anonymous_args = 0
 142              	.LVL2:
 143 0000 00B5     		push	{lr}
 144              		.cfi_def_cfa_offset 4
 145              		.cfi_offset 14, -4
 146 0002 1F4B     		ldr	r3, .L34
 147              		.loc 1 67 0
 148 0004 0278     		ldrb	r2, [r0]	@ zero_extendqisi2
 149              		.loc 1 65 0
 150 0006 1968     		ldr	r1, [r3]
 151 0008 83B0     		sub	sp, sp, #12
 152              		.cfi_def_cfa_offset 16
 153              		.loc 1 65 0
 154 000a 0191     		str	r1, [sp, #4]
 155              		.loc 1 67 0
 156 000c E2B1     		cbz	r2, .L20
 157              		.loc 1 67 0 is_stmt 0 discriminator 1
 158 000e 1D4A     		ldr	r2, .L34+4
 159 0010 4FF40071 		mov	r1, #512
 160 0014 1183     		strh	r1, [r2, #24]	@ movhi
 161              		.loc 1 68 0 is_stmt 1 discriminator 1
 162 0016 4278     		ldrb	r2, [r0, #1]	@ zero_extendqisi2
 163 0018 EAB1     		cbz	r2, .L22
 164              	.L32:
 165 001a 1A4A     		ldr	r2, .L34+4
 166 001c 4FF48071 		mov	r1, #256
 167 0020 1183     		strh	r1, [r2, #24]	@ movhi
 168              		.loc 1 69 0 discriminator 1
 169 0022 8278     		ldrb	r2, [r0, #2]	@ zero_extendqisi2
 170 0024 F2B1     		cbz	r2, .L24
 171              	.L33:
ARM GAS  C:\Users\mathi\AppData\Local\Temp\cccZcXws.s 			page 4


 172 0026 174A     		ldr	r2, .L34+4
 173 0028 4FF40061 		mov	r1, #2048
 174 002c 1183     		strh	r1, [r2, #24]	@ movhi
 175              		.loc 1 70 0 discriminator 1
 176 002e C278     		ldrb	r2, [r0, #3]	@ zero_extendqisi2
 177 0030 FAB9     		cbnz	r2, .L30
 178              	.L26:
 179              		.loc 1 70 0 is_stmt 0 discriminator 2
 180 0032 144A     		ldr	r2, .L34+4
 181 0034 4FF48061 		mov	r1, #1024
 182 0038 5183     		strh	r1, [r2, #26]	@ movhi
 183              	.L19:
 184              		.loc 1 71 0 is_stmt 1
 185 003a 019A     		ldr	r2, [sp, #4]
 186 003c 1B68     		ldr	r3, [r3]
 187 003e 9A42     		cmp	r2, r3
 188 0040 1CD1     		bne	.L31
 189 0042 03B0     		add	sp, sp, #12
 190              		.cfi_remember_state
 191              		.cfi_def_cfa_offset 4
 192              		@ sp needed
 193 0044 5DF804FB 		ldr	pc, [sp], #4
 194              	.L20:
 195              		.cfi_restore_state
 196              		.loc 1 67 0 discriminator 2
 197 0048 0E4A     		ldr	r2, .L34+4
 198 004a 4FF40071 		mov	r1, #512
 199 004e 5183     		strh	r1, [r2, #26]	@ movhi
 200              		.loc 1 68 0 discriminator 2
 201 0050 4278     		ldrb	r2, [r0, #1]	@ zero_extendqisi2
 202 0052 002A     		cmp	r2, #0
 203 0054 E1D1     		bne	.L32
 204              	.L22:
 205 0056 0B4A     		ldr	r2, .L34+4
 206 0058 4FF48071 		mov	r1, #256
 207 005c 5183     		strh	r1, [r2, #26]	@ movhi
 208              		.loc 1 69 0 discriminator 2
 209 005e 8278     		ldrb	r2, [r0, #2]	@ zero_extendqisi2
 210 0060 002A     		cmp	r2, #0
 211 0062 E0D1     		bne	.L33
 212              	.L24:
 213 0064 074A     		ldr	r2, .L34+4
 214 0066 4FF40061 		mov	r1, #2048
 215 006a 5183     		strh	r1, [r2, #26]	@ movhi
 216              		.loc 1 70 0 discriminator 2
 217 006c C278     		ldrb	r2, [r0, #3]	@ zero_extendqisi2
 218 006e 002A     		cmp	r2, #0
 219 0070 DFD0     		beq	.L26
 220              	.L30:
 221              		.loc 1 70 0 is_stmt 0 discriminator 1
 222 0072 044A     		ldr	r2, .L34+4
 223 0074 4FF48061 		mov	r1, #1024
 224 0078 1183     		strh	r1, [r2, #24]	@ movhi
 225 007a DEE7     		b	.L19
 226              	.L31:
 227              		.loc 1 71 0 is_stmt 1
 228 007c FFF7FEFF 		bl	__stack_chk_fail
ARM GAS  C:\Users\mathi\AppData\Local\Temp\cccZcXws.s 			page 5


 229              	.LVL3:
 230              	.L35:
 231              		.align	2
 232              	.L34:
 233 0080 00000000 		.word	__stack_chk_guard
 234 0084 00100240 		.word	1073876992
 235              		.cfi_endproc
 236              	.LFE257:
 237              		.size	left_motor_update, .-left_motor_update
 238              		.section	.text.right_motor_pwm_ch1_cb,"ax",%progbits
 239              		.align	1
 240              		.p2align 4,,15
 241              		.syntax unified
 242              		.thumb
 243              		.thumb_func
 244              		.fpu fpv4-sp-d16
 245              		.type	right_motor_pwm_ch1_cb, %function
 246              	right_motor_pwm_ch1_cb:
 247              	.LFB260:
 248              		.loc 1 130 0
 249              		.cfi_startproc
 250              		@ args = 0, pretend = 0, frame = 8
 251              		@ frame_needed = 0, uses_anonymous_args = 0
 252              	.LVL4:
 253 0000 30B5     		push	{r4, r5, lr}
 254              		.cfi_def_cfa_offset 12
 255              		.cfi_offset 4, -12
 256              		.cfi_offset 5, -8
 257              		.cfi_offset 14, -4
 258 0002 0C4A     		ldr	r2, .L40
 259              		.loc 1 132 0
 260 0004 0C4B     		ldr	r3, .L40+4
 261              		.loc 1 130 0
 262 0006 1168     		ldr	r1, [r2]
 263 0008 83B0     		sub	sp, sp, #12
 264              		.cfi_def_cfa_offset 24
 265              		.loc 1 132 0
 266 000a 4FF40055 		mov	r5, #8192
 267              		.loc 1 130 0
 268 000e 0191     		str	r1, [sp, #4]
 269              		.loc 1 133 0
 270 0010 4FF48054 		mov	r4, #4096
 271              		.loc 1 135 0
 272 0014 4FF40041 		mov	r1, #32768
 273              		.loc 1 134 0
 274 0018 4FF48040 		mov	r0, #16384
 275              	.LVL5:
 276              		.loc 1 132 0
 277 001c 5D83     		strh	r5, [r3, #26]	@ movhi
 278              		.loc 1 133 0
 279 001e 5C83     		strh	r4, [r3, #26]	@ movhi
 280              		.loc 1 134 0
 281 0020 5883     		strh	r0, [r3, #26]	@ movhi
 282              		.loc 1 135 0
 283 0022 5983     		strh	r1, [r3, #26]	@ movhi
 284              		.loc 1 136 0
 285 0024 0199     		ldr	r1, [sp, #4]
ARM GAS  C:\Users\mathi\AppData\Local\Temp\cccZcXws.s 			page 6


 286 0026 1368     		ldr	r3, [r2]
 287 0028 9942     		cmp	r1, r3
 288 002a 01D1     		bne	.L39
 289 002c 03B0     		add	sp, sp, #12
 290              		.cfi_remember_state
 291              		.cfi_def_cfa_offset 12
 292              		@ sp needed
 293 002e 30BD     		pop	{r4, r5, pc}
 294              	.L39:
 295              		.cfi_restore_state
 296 0030 FFF7FEFF 		bl	__stack_chk_fail
 297              	.LVL6:
 298              	.L41:
 299              		.align	2
 300              	.L40:
 301 0034 00000000 		.word	__stack_chk_guard
 302 0038 00100240 		.word	1073876992
 303              		.cfi_endproc
 304              	.LFE260:
 305              		.size	right_motor_pwm_ch1_cb, .-right_motor_pwm_ch1_cb
 306              		.section	.text.left_motor_pwm_ch1_cb,"ax",%progbits
 307              		.align	1
 308              		.p2align 4,,15
 309              		.syntax unified
 310              		.thumb
 311              		.thumb_func
 312              		.fpu fpv4-sp-d16
 313              		.type	left_motor_pwm_ch1_cb, %function
 314              	left_motor_pwm_ch1_cb:
 315              	.LFB261:
 316              		.loc 1 145 0
 317              		.cfi_startproc
 318              		@ args = 0, pretend = 0, frame = 8
 319              		@ frame_needed = 0, uses_anonymous_args = 0
 320              	.LVL7:
 321 0000 30B5     		push	{r4, r5, lr}
 322              		.cfi_def_cfa_offset 12
 323              		.cfi_offset 4, -12
 324              		.cfi_offset 5, -8
 325              		.cfi_offset 14, -4
 326 0002 0C4A     		ldr	r2, .L46
 327              		.loc 1 147 0
 328 0004 0C4B     		ldr	r3, .L46+4
 329              		.loc 1 145 0
 330 0006 1168     		ldr	r1, [r2]
 331 0008 83B0     		sub	sp, sp, #12
 332              		.cfi_def_cfa_offset 24
 333              		.loc 1 147 0
 334 000a 4FF40075 		mov	r5, #512
 335              		.loc 1 145 0
 336 000e 0191     		str	r1, [sp, #4]
 337              		.loc 1 148 0
 338 0010 4FF48074 		mov	r4, #256
 339              		.loc 1 150 0
 340 0014 4FF48061 		mov	r1, #1024
 341              		.loc 1 149 0
 342 0018 4FF40060 		mov	r0, #2048
ARM GAS  C:\Users\mathi\AppData\Local\Temp\cccZcXws.s 			page 7


 343              	.LVL8:
 344              		.loc 1 147 0
 345 001c 5D83     		strh	r5, [r3, #26]	@ movhi
 346              		.loc 1 148 0
 347 001e 5C83     		strh	r4, [r3, #26]	@ movhi
 348              		.loc 1 149 0
 349 0020 5883     		strh	r0, [r3, #26]	@ movhi
 350              		.loc 1 150 0
 351 0022 5983     		strh	r1, [r3, #26]	@ movhi
 352              		.loc 1 151 0
 353 0024 0199     		ldr	r1, [sp, #4]
 354 0026 1368     		ldr	r3, [r2]
 355 0028 9942     		cmp	r1, r3
 356 002a 01D1     		bne	.L45
 357 002c 03B0     		add	sp, sp, #12
 358              		.cfi_remember_state
 359              		.cfi_def_cfa_offset 12
 360              		@ sp needed
 361 002e 30BD     		pop	{r4, r5, pc}
 362              	.L45:
 363              		.cfi_restore_state
 364 0030 FFF7FEFF 		bl	__stack_chk_fail
 365              	.LVL9:
 366              	.L47:
 367              		.align	2
 368              	.L46:
 369 0034 00000000 		.word	__stack_chk_guard
 370 0038 00100240 		.word	1073876992
 371              		.cfi_endproc
 372              	.LFE261:
 373              		.size	left_motor_pwm_ch1_cb, .-left_motor_pwm_ch1_cb
 374              		.section	.text.right_motor_enable_power_save,"ax",%progbits
 375              		.align	1
 376              		.p2align 4,,15
 377              		.global	right_motor_enable_power_save
 378              		.syntax unified
 379              		.thumb
 380              		.thumb_func
 381              		.fpu fpv4-sp-d16
 382              		.type	right_motor_enable_power_save, %function
 383              	right_motor_enable_power_save:
 384              	.LFB262:
 385              		.loc 1 156 0
 386              		.cfi_startproc
 387              		@ args = 0, pretend = 0, frame = 8
 388              		@ frame_needed = 0, uses_anonymous_args = 0
 389 0000 10B5     		push	{r4, lr}
 390              		.cfi_def_cfa_offset 8
 391              		.cfi_offset 4, -8
 392              		.cfi_offset 14, -4
 393 0002 0B4C     		ldr	r4, .L53
 394              		.loc 1 158 0
 395 0004 0B48     		ldr	r0, .L53+4
 396              		.loc 1 156 0
 397 0006 2368     		ldr	r3, [r4]
 398 0008 82B0     		sub	sp, sp, #8
 399              		.cfi_def_cfa_offset 16
ARM GAS  C:\Users\mathi\AppData\Local\Temp\cccZcXws.s 			page 8


 400              		.loc 1 158 0
 401 000a 9922     		movs	r2, #153
 402 000c 0021     		movs	r1, #0
 403              		.loc 1 156 0
 404 000e 0193     		str	r3, [sp, #4]
 405              		.loc 1 158 0
 406 0010 FFF7FEFF 		bl	pwmEnableChannel
 407              	.LVL10:
 408              		.loc 1 160 0
 409 0014 019A     		ldr	r2, [sp, #4]
 410 0016 2368     		ldr	r3, [r4]
 411 0018 9A42     		cmp	r2, r3
 412 001a 06D1     		bne	.L52
 413 001c 0548     		ldr	r0, .L53+4
 414 001e 0021     		movs	r1, #0
 415              		.loc 1 161 0
 416 0020 02B0     		add	sp, sp, #8
 417              		.cfi_remember_state
 418              		.cfi_def_cfa_offset 8
 419              		@ sp needed
 420 0022 BDE81040 		pop	{r4, lr}
 421              		.cfi_restore 14
 422              		.cfi_restore 4
 423              		.cfi_def_cfa_offset 0
 424              		.loc 1 160 0
 425 0026 FFF7FEBF 		b	pwmEnableChannelNotification
 426              	.LVL11:
 427              	.L52:
 428              		.cfi_restore_state
 429 002a FFF7FEFF 		bl	__stack_chk_fail
 430              	.LVL12:
 431              	.L54:
 432 002e 00BF     		.align	2
 433              	.L53:
 434 0030 00000000 		.word	__stack_chk_guard
 435 0034 00000000 		.word	PWMD3
 436              		.cfi_endproc
 437              	.LFE262:
 438              		.size	right_motor_enable_power_save, .-right_motor_enable_power_save
 439              		.section	.text.left_motor_enable_power_save,"ax",%progbits
 440              		.align	1
 441              		.p2align 4,,15
 442              		.global	left_motor_enable_power_save
 443              		.syntax unified
 444              		.thumb
 445              		.thumb_func
 446              		.fpu fpv4-sp-d16
 447              		.type	left_motor_enable_power_save, %function
 448              	left_motor_enable_power_save:
 449              	.LFB263:
 450              		.loc 1 166 0
 451              		.cfi_startproc
 452              		@ args = 0, pretend = 0, frame = 8
 453              		@ frame_needed = 0, uses_anonymous_args = 0
 454 0000 10B5     		push	{r4, lr}
 455              		.cfi_def_cfa_offset 8
 456              		.cfi_offset 4, -8
ARM GAS  C:\Users\mathi\AppData\Local\Temp\cccZcXws.s 			page 9


 457              		.cfi_offset 14, -4
 458 0002 0B4C     		ldr	r4, .L60
 459              		.loc 1 168 0
 460 0004 0B48     		ldr	r0, .L60+4
 461              		.loc 1 166 0
 462 0006 2368     		ldr	r3, [r4]
 463 0008 82B0     		sub	sp, sp, #8
 464              		.cfi_def_cfa_offset 16
 465              		.loc 1 168 0
 466 000a 9922     		movs	r2, #153
 467 000c 0021     		movs	r1, #0
 468              		.loc 1 166 0
 469 000e 0193     		str	r3, [sp, #4]
 470              		.loc 1 168 0
 471 0010 FFF7FEFF 		bl	pwmEnableChannel
 472              	.LVL13:
 473              		.loc 1 170 0
 474 0014 019A     		ldr	r2, [sp, #4]
 475 0016 2368     		ldr	r3, [r4]
 476 0018 9A42     		cmp	r2, r3
 477 001a 06D1     		bne	.L59
 478 001c 0548     		ldr	r0, .L60+4
 479 001e 0021     		movs	r1, #0
 480              		.loc 1 171 0
 481 0020 02B0     		add	sp, sp, #8
 482              		.cfi_remember_state
 483              		.cfi_def_cfa_offset 8
 484              		@ sp needed
 485 0022 BDE81040 		pop	{r4, lr}
 486              		.cfi_restore 14
 487              		.cfi_restore 4
 488              		.cfi_def_cfa_offset 0
 489              		.loc 1 170 0
 490 0026 FFF7FEBF 		b	pwmEnableChannelNotification
 491              	.LVL14:
 492              	.L59:
 493              		.cfi_restore_state
 494 002a FFF7FEFF 		bl	__stack_chk_fail
 495              	.LVL15:
 496              	.L61:
 497 002e 00BF     		.align	2
 498              	.L60:
 499 0030 00000000 		.word	__stack_chk_guard
 500 0034 00000000 		.word	PWMD4
 501              		.cfi_endproc
 502              	.LFE263:
 503              		.size	left_motor_enable_power_save, .-left_motor_enable_power_save
 504              		.section	.text.right_motor_disable_power_save,"ax",%progbits
 505              		.align	1
 506              		.p2align 4,,15
 507              		.global	right_motor_disable_power_save
 508              		.syntax unified
 509              		.thumb
 510              		.thumb_func
 511              		.fpu fpv4-sp-d16
 512              		.type	right_motor_disable_power_save, %function
 513              	right_motor_disable_power_save:
ARM GAS  C:\Users\mathi\AppData\Local\Temp\cccZcXws.s 			page 10


 514              	.LFB264:
 515              		.loc 1 176 0
 516              		.cfi_startproc
 517              		@ args = 0, pretend = 0, frame = 8
 518              		@ frame_needed = 0, uses_anonymous_args = 0
 519 0000 00B5     		push	{lr}
 520              		.cfi_def_cfa_offset 4
 521              		.cfi_offset 14, -4
 522 0002 084B     		ldr	r3, .L67
 523 0004 83B0     		sub	sp, sp, #12
 524              		.cfi_def_cfa_offset 16
 525              		.loc 1 176 0
 526 0006 1A68     		ldr	r2, [r3]
 527 0008 0192     		str	r2, [sp, #4]
 528              		.loc 1 177 0
 529 000a 019A     		ldr	r2, [sp, #4]
 530 000c 1B68     		ldr	r3, [r3]
 531 000e 9A42     		cmp	r2, r3
 532 0010 06D1     		bne	.L66
 533 0012 0548     		ldr	r0, .L67+4
 534 0014 0021     		movs	r1, #0
 535              		.loc 1 178 0
 536 0016 03B0     		add	sp, sp, #12
 537              		.cfi_remember_state
 538              		.cfi_def_cfa_offset 4
 539              		@ sp needed
 540 0018 5DF804EB 		ldr	lr, [sp], #4
 541              		.cfi_restore 14
 542              		.cfi_def_cfa_offset 0
 543              		.loc 1 177 0
 544 001c FFF7FEBF 		b	pwmDisableChannel
 545              	.LVL16:
 546              	.L66:
 547              		.cfi_restore_state
 548 0020 FFF7FEFF 		bl	__stack_chk_fail
 549              	.LVL17:
 550              	.L68:
 551              		.align	2
 552              	.L67:
 553 0024 00000000 		.word	__stack_chk_guard
 554 0028 00000000 		.word	PWMD3
 555              		.cfi_endproc
 556              	.LFE264:
 557              		.size	right_motor_disable_power_save, .-right_motor_disable_power_save
 558              		.section	.text.left_motor_disable_power_save,"ax",%progbits
 559              		.align	1
 560              		.p2align 4,,15
 561              		.global	left_motor_disable_power_save
 562              		.syntax unified
 563              		.thumb
 564              		.thumb_func
 565              		.fpu fpv4-sp-d16
 566              		.type	left_motor_disable_power_save, %function
 567              	left_motor_disable_power_save:
 568              	.LFB265:
 569              		.loc 1 183 0
 570              		.cfi_startproc
ARM GAS  C:\Users\mathi\AppData\Local\Temp\cccZcXws.s 			page 11


 571              		@ args = 0, pretend = 0, frame = 8
 572              		@ frame_needed = 0, uses_anonymous_args = 0
 573 0000 00B5     		push	{lr}
 574              		.cfi_def_cfa_offset 4
 575              		.cfi_offset 14, -4
 576 0002 084B     		ldr	r3, .L74
 577 0004 83B0     		sub	sp, sp, #12
 578              		.cfi_def_cfa_offset 16
 579              		.loc 1 183 0
 580 0006 1A68     		ldr	r2, [r3]
 581 0008 0192     		str	r2, [sp, #4]
 582              		.loc 1 184 0
 583 000a 019A     		ldr	r2, [sp, #4]
 584 000c 1B68     		ldr	r3, [r3]
 585 000e 9A42     		cmp	r2, r3
 586 0010 06D1     		bne	.L73
 587 0012 0548     		ldr	r0, .L74+4
 588 0014 0021     		movs	r1, #0
 589              		.loc 1 185 0
 590 0016 03B0     		add	sp, sp, #12
 591              		.cfi_remember_state
 592              		.cfi_def_cfa_offset 4
 593              		@ sp needed
 594 0018 5DF804EB 		ldr	lr, [sp], #4
 595              		.cfi_restore 14
 596              		.cfi_def_cfa_offset 0
 597              		.loc 1 184 0
 598 001c FFF7FEBF 		b	pwmDisableChannel
 599              	.LVL18:
 600              	.L73:
 601              		.cfi_restore_state
 602 0020 FFF7FEFF 		bl	__stack_chk_fail
 603              	.LVL19:
 604              	.L75:
 605              		.align	2
 606              	.L74:
 607 0024 00000000 		.word	__stack_chk_guard
 608 0028 00000000 		.word	PWMD4
 609              		.cfi_endproc
 610              	.LFE265:
 611              		.size	left_motor_disable_power_save, .-left_motor_disable_power_save
 612              		.section	.text.right_motor_timer_callback,"ax",%progbits
 613              		.align	1
 614              		.p2align 4,,15
 615              		.syntax unified
 616              		.thumb
 617              		.thumb_func
 618              		.fpu fpv4-sp-d16
 619              		.type	right_motor_timer_callback, %function
 620              	right_motor_timer_callback:
 621              	.LFB258:
 622              		.loc 1 80 0
 623              		.cfi_startproc
 624              		@ args = 0, pretend = 0, frame = 8
 625              		@ frame_needed = 0, uses_anonymous_args = 0
 626              	.LVL20:
 627 0000 70B5     		push	{r4, r5, r6, lr}
ARM GAS  C:\Users\mathi\AppData\Local\Temp\cccZcXws.s 			page 12


 628              		.cfi_def_cfa_offset 16
 629              		.cfi_offset 4, -16
 630              		.cfi_offset 5, -12
 631              		.cfi_offset 6, -8
 632              		.cfi_offset 14, -4
 633              		.loc 1 83 0
 634 0002 1A4C     		ldr	r4, .L85
 635              		.loc 1 80 0
 636 0004 1A4E     		ldr	r6, .L85+4
 637              		.loc 1 83 0
 638 0006 2378     		ldrb	r3, [r4]	@ zero_extendqisi2
 639              		.loc 1 80 0
 640 0008 3268     		ldr	r2, [r6]
 641 000a 82B0     		sub	sp, sp, #8
 642              		.cfi_def_cfa_offset 24
 643              		.loc 1 83 0
 644 000c 022B     		cmp	r3, #2
 645              		.loc 1 80 0
 646 000e 0192     		str	r2, [sp, #4]
 647 0010 A268     		ldr	r2, [r4, #8]
 648              		.loc 1 83 0
 649 0012 11D1     		bne	.L77
 650              		.loc 1 84 0
 651 0014 6578     		ldrb	r5, [r4, #1]	@ zero_extendqisi2
 652              		.loc 1 85 0
 653 0016 1748     		ldr	r0, .L85+8
 654              	.LVL21:
 655              		.loc 1 84 0
 656 0018 0135     		adds	r5, r5, #1
 657 001a 05F00705 		and	r5, r5, #7
 658              	.LVL22:
 659              		.loc 1 85 0
 660 001e 00EB8500 		add	r0, r0, r5, lsl #2
 661 0022 9047     		blx	r2
 662              	.LVL23:
 663              		.loc 1 86 0
 664 0024 6368     		ldr	r3, [r4, #4]
 665              		.loc 1 87 0
 666 0026 6570     		strb	r5, [r4, #1]
 667              		.loc 1 86 0
 668 0028 013B     		subs	r3, r3, #1
 669 002a 6360     		str	r3, [r4, #4]
 670              	.LVL24:
 671              	.L76:
 672              		.loc 1 96 0
 673 002c 019A     		ldr	r2, [sp, #4]
 674 002e 3368     		ldr	r3, [r6]
 675 0030 9A42     		cmp	r2, r3
 676 0032 19D1     		bne	.L83
 677 0034 02B0     		add	sp, sp, #8
 678              		.cfi_remember_state
 679              		.cfi_def_cfa_offset 16
 680              		@ sp needed
 681 0036 70BD     		pop	{r4, r5, r6, pc}
 682              	.LVL25:
 683              	.L77:
 684              		.cfi_restore_state
ARM GAS  C:\Users\mathi\AppData\Local\Temp\cccZcXws.s 			page 13


 685              		.loc 1 88 0
 686 0038 012B     		cmp	r3, #1
 687 003a 08D0     		beq	.L84
 688              		.loc 1 94 0
 689 003c 0199     		ldr	r1, [sp, #4]
 690 003e 3368     		ldr	r3, [r6]
 691 0040 9942     		cmp	r1, r3
 692 0042 11D1     		bne	.L83
 693 0044 0C48     		ldr	r0, .L85+12
 694              	.LVL26:
 695              		.loc 1 96 0
 696 0046 02B0     		add	sp, sp, #8
 697              		.cfi_remember_state
 698              		.cfi_def_cfa_offset 16
 699              		@ sp needed
 700 0048 BDE87040 		pop	{r4, r5, r6, lr}
 701              		.cfi_restore 14
 702              		.cfi_restore 6
 703              		.cfi_restore 5
 704              		.cfi_restore 4
 705              		.cfi_def_cfa_offset 0
 706              		.loc 1 94 0
 707 004c 1047     		bx	r2	@ indirect register sibling call
 708              	.LVL27:
 709              	.L84:
 710              		.cfi_restore_state
 711              	.LBB4:
 712              	.LBB5:
 713              		.loc 1 89 0
 714 004e 6578     		ldrb	r5, [r4, #1]	@ zero_extendqisi2
 715              		.loc 1 90 0
 716 0050 0848     		ldr	r0, .L85+8
 717              	.LVL28:
 718              		.loc 1 89 0
 719 0052 013D     		subs	r5, r5, #1
 720 0054 05F00705 		and	r5, r5, #7
 721              	.LVL29:
 722              		.loc 1 90 0
 723 0058 00EB8500 		add	r0, r0, r5, lsl #2
 724 005c 9047     		blx	r2
 725              	.LVL30:
 726              		.loc 1 91 0
 727 005e 6368     		ldr	r3, [r4, #4]
 728              		.loc 1 92 0
 729 0060 6570     		strb	r5, [r4, #1]
 730              		.loc 1 91 0
 731 0062 0133     		adds	r3, r3, #1
 732 0064 6360     		str	r3, [r4, #4]
 733 0066 E1E7     		b	.L76
 734              	.LVL31:
 735              	.L83:
 736              	.LBE5:
 737              	.LBE4:
 738              		.loc 1 96 0
 739 0068 FFF7FEFF 		bl	__stack_chk_fail
 740              	.LVL32:
 741              	.L86:
ARM GAS  C:\Users\mathi\AppData\Local\Temp\cccZcXws.s 			page 14


 742              		.align	2
 743              	.L85:
 744 006c 00000000 		.word	.LANCHOR0
 745 0070 00000000 		.word	__stack_chk_guard
 746 0074 00000000 		.word	.LANCHOR1
 747 0078 00000000 		.word	.LANCHOR2
 748              		.cfi_endproc
 749              	.LFE258:
 750              		.size	right_motor_timer_callback, .-right_motor_timer_callback
 751              		.section	.text.left_motor_timer_callback,"ax",%progbits
 752              		.align	1
 753              		.p2align 4,,15
 754              		.syntax unified
 755              		.thumb
 756              		.thumb_func
 757              		.fpu fpv4-sp-d16
 758              		.type	left_motor_timer_callback, %function
 759              	left_motor_timer_callback:
 760              	.LFB259:
 761              		.loc 1 105 0
 762              		.cfi_startproc
 763              		@ args = 0, pretend = 0, frame = 8
 764              		@ frame_needed = 0, uses_anonymous_args = 0
 765              	.LVL33:
 766 0000 70B5     		push	{r4, r5, r6, lr}
 767              		.cfi_def_cfa_offset 16
 768              		.cfi_offset 4, -16
 769              		.cfi_offset 5, -12
 770              		.cfi_offset 6, -8
 771              		.cfi_offset 14, -4
 772              		.loc 1 108 0
 773 0002 1A4C     		ldr	r4, .L96
 774              		.loc 1 105 0
 775 0004 1A4E     		ldr	r6, .L96+4
 776              		.loc 1 108 0
 777 0006 2378     		ldrb	r3, [r4]	@ zero_extendqisi2
 778              		.loc 1 105 0
 779 0008 3268     		ldr	r2, [r6]
 780 000a 82B0     		sub	sp, sp, #8
 781              		.cfi_def_cfa_offset 24
 782              		.loc 1 108 0
 783 000c 012B     		cmp	r3, #1
 784              		.loc 1 105 0
 785 000e 0192     		str	r2, [sp, #4]
 786 0010 A268     		ldr	r2, [r4, #8]
 787              		.loc 1 108 0
 788 0012 11D1     		bne	.L88
 789              		.loc 1 109 0
 790 0014 6578     		ldrb	r5, [r4, #1]	@ zero_extendqisi2
 791              		.loc 1 110 0
 792 0016 1748     		ldr	r0, .L96+8
 793              	.LVL34:
 794              		.loc 1 109 0
 795 0018 0135     		adds	r5, r5, #1
 796 001a 05F00705 		and	r5, r5, #7
 797              	.LVL35:
 798              		.loc 1 110 0
ARM GAS  C:\Users\mathi\AppData\Local\Temp\cccZcXws.s 			page 15


 799 001e 00EB8500 		add	r0, r0, r5, lsl #2
 800 0022 9047     		blx	r2
 801              	.LVL36:
 802              		.loc 1 111 0
 803 0024 6368     		ldr	r3, [r4, #4]
 804              		.loc 1 112 0
 805 0026 6570     		strb	r5, [r4, #1]
 806              		.loc 1 111 0
 807 0028 0133     		adds	r3, r3, #1
 808 002a 6360     		str	r3, [r4, #4]
 809              	.LVL37:
 810              	.L87:
 811              		.loc 1 121 0
 812 002c 019A     		ldr	r2, [sp, #4]
 813 002e 3368     		ldr	r3, [r6]
 814 0030 9A42     		cmp	r2, r3
 815 0032 19D1     		bne	.L94
 816 0034 02B0     		add	sp, sp, #8
 817              		.cfi_remember_state
 818              		.cfi_def_cfa_offset 16
 819              		@ sp needed
 820 0036 70BD     		pop	{r4, r5, r6, pc}
 821              	.LVL38:
 822              	.L88:
 823              		.cfi_restore_state
 824              		.loc 1 113 0
 825 0038 022B     		cmp	r3, #2
 826 003a 08D0     		beq	.L95
 827              		.loc 1 119 0
 828 003c 0199     		ldr	r1, [sp, #4]
 829 003e 3368     		ldr	r3, [r6]
 830 0040 9942     		cmp	r1, r3
 831 0042 11D1     		bne	.L94
 832 0044 0C48     		ldr	r0, .L96+12
 833              	.LVL39:
 834              		.loc 1 121 0
 835 0046 02B0     		add	sp, sp, #8
 836              		.cfi_remember_state
 837              		.cfi_def_cfa_offset 16
 838              		@ sp needed
 839 0048 BDE87040 		pop	{r4, r5, r6, lr}
 840              		.cfi_restore 14
 841              		.cfi_restore 6
 842              		.cfi_restore 5
 843              		.cfi_restore 4
 844              		.cfi_def_cfa_offset 0
 845              		.loc 1 119 0
 846 004c 1047     		bx	r2	@ indirect register sibling call
 847              	.LVL40:
 848              	.L95:
 849              		.cfi_restore_state
 850              	.LBB8:
 851              	.LBB9:
 852              		.loc 1 114 0
 853 004e 6578     		ldrb	r5, [r4, #1]	@ zero_extendqisi2
 854              		.loc 1 115 0
 855 0050 0848     		ldr	r0, .L96+8
ARM GAS  C:\Users\mathi\AppData\Local\Temp\cccZcXws.s 			page 16


 856              	.LVL41:
 857              		.loc 1 114 0
 858 0052 013D     		subs	r5, r5, #1
 859 0054 05F00705 		and	r5, r5, #7
 860              	.LVL42:
 861              		.loc 1 115 0
 862 0058 00EB8500 		add	r0, r0, r5, lsl #2
 863 005c 9047     		blx	r2
 864              	.LVL43:
 865              		.loc 1 116 0
 866 005e 6368     		ldr	r3, [r4, #4]
 867              		.loc 1 117 0
 868 0060 6570     		strb	r5, [r4, #1]
 869              		.loc 1 116 0
 870 0062 013B     		subs	r3, r3, #1
 871 0064 6360     		str	r3, [r4, #4]
 872 0066 E1E7     		b	.L87
 873              	.LVL44:
 874              	.L94:
 875              	.LBE9:
 876              	.LBE8:
 877              		.loc 1 121 0
 878 0068 FFF7FEFF 		bl	__stack_chk_fail
 879              	.LVL45:
 880              	.L97:
 881              		.align	2
 882              	.L96:
 883 006c 00000000 		.word	.LANCHOR3
 884 0070 00000000 		.word	__stack_chk_guard
 885 0074 00000000 		.word	.LANCHOR1
 886 0078 00000000 		.word	.LANCHOR2
 887              		.cfi_endproc
 888              	.LFE259:
 889              		.size	left_motor_timer_callback, .-left_motor_timer_callback
 890              		.section	.text.motor_set_speed,"ax",%progbits
 891              		.align	1
 892              		.p2align 4,,15
 893              		.global	motor_set_speed
 894              		.syntax unified
 895              		.thumb
 896              		.thumb_func
 897              		.fpu fpv4-sp-d16
 898              		.type	motor_set_speed, %function
 899              	motor_set_speed:
 900              	.LFB266:
 901              		.loc 1 194 0
 902              		.cfi_startproc
 903              		@ args = 0, pretend = 0, frame = 16
 904              		@ frame_needed = 0, uses_anonymous_args = 0
 905              	.LVL46:
 906 0000 30B5     		push	{r4, r5, lr}
 907              		.cfi_def_cfa_offset 12
 908              		.cfi_offset 4, -12
 909              		.cfi_offset 5, -8
 910              		.cfi_offset 14, -4
 911 0002 1E4D     		ldr	r5, .L111
 912 0004 85B0     		sub	sp, sp, #20
ARM GAS  C:\Users\mathi\AppData\Local\Temp\cccZcXws.s 			page 17


 913              		.cfi_def_cfa_offset 32
 914              		.loc 1 194 0
 915 0006 2B68     		ldr	r3, [r5]
 916 0008 0393     		str	r3, [sp, #12]
 917              		.loc 1 196 0
 918 000a 40F24C43 		movw	r3, #1100
 919 000e 9942     		cmp	r1, r3
 920              		.loc 1 194 0
 921 0010 0446     		mov	r4, r0
 922              		.loc 1 196 0
 923 0012 26DC     		bgt	.L99
 924              		.loc 1 198 0
 925 0014 A3F69803 		subw	r3, r3, #2200
 926 0018 9942     		cmp	r1, r3
 927 001a 11DB     		blt	.L107
 928              		.loc 1 203 0
 929 001c 4B00     		lsls	r3, r1, #1
 930              	.LVL47:
 931              		.loc 1 206 0
 932 001e 002B     		cmp	r3, #0
 933 0020 29D1     		bne	.L101
 934              		.loc 1 207 0
 935 0022 0370     		strb	r3, [r0]
 936              	.LVL48:
 937              		.loc 1 210 0
 938 0024 0369     		ldr	r3, [r0, #16]
 939              	.LVL49:
 940 0026 9847     		blx	r3
 941              	.LVL50:
 942 0028 4FF47A71 		mov	r1, #1000
 943              	.LVL51:
 944              	.L102:
 945              		.loc 1 228 0
 946 002c 039A     		ldr	r2, [sp, #12]
 947 002e 2B68     		ldr	r3, [r5]
 948 0030 9A42     		cmp	r2, r3
 949 0032 1ED1     		bne	.L110
 950 0034 6069     		ldr	r0, [r4, #20]
 951              		.loc 1 229 0
 952 0036 05B0     		add	sp, sp, #20
 953              		.cfi_remember_state
 954              		.cfi_def_cfa_offset 12
 955              		@ sp needed
 956 0038 BDE83040 		pop	{r4, r5, lr}
 957              		.cfi_restore 14
 958              		.cfi_restore 5
 959              		.cfi_restore 4
 960              		.cfi_def_cfa_offset 0
 961              	.LVL52:
 962              		.loc 1 228 0
 963 003c FFF7FEBF 		b	pwmChangePeriod
 964              	.LVL53:
 965              	.L107:
 966              		.cfi_restore_state
 967 0040 0F4B     		ldr	r3, .L111+4
 968              	.LVL54:
 969              	.L100:
ARM GAS  C:\Users\mathi\AppData\Local\Temp\cccZcXws.s 			page 18


 970              		.loc 1 216 0
 971 0042 5B42     		negs	r3, r3
 972              	.LVL55:
 973              		.loc 1 215 0
 974 0044 0221     		movs	r1, #2
 975              	.L103:
 976              		.loc 1 220 0
 977 0046 40F28922 		movw	r2, #649
 978 004a 9342     		cmp	r3, r2
 979 004c 2170     		strb	r1, [r4]
 980              	.LVL56:
 981              		.loc 1 218 0
 982 004e 0D49     		ldr	r1, .L111+8
 983 0050 91FBF3F1 		sdiv	r1, r1, r3
 984 0054 89B2     		uxth	r1, r1
 985              		.loc 1 220 0
 986 0056 07DC     		bgt	.L104
 987 0058 0191     		str	r1, [sp, #4]
 988              		.loc 1 221 0
 989 005a E368     		ldr	r3, [r4, #12]
 990              	.LVL57:
 991 005c 9847     		blx	r3
 992              	.LVL58:
 993 005e 0199     		ldr	r1, [sp, #4]
 994 0060 E4E7     		b	.L102
 995              	.LVL59:
 996              	.L99:
 997 0062 0123     		movs	r3, #1
 998 0064 0370     		strb	r3, [r0]
 999              	.LVL60:
 1000              		.loc 1 196 0
 1001 0066 2D21     		movs	r1, #45
 1002              	.LVL61:
 1003              	.L104:
 1004 0068 0191     		str	r1, [sp, #4]
 1005              		.loc 1 223 0
 1006 006a 2369     		ldr	r3, [r4, #16]
 1007 006c 9847     		blx	r3
 1008              	.LVL62:
 1009 006e 0199     		ldr	r1, [sp, #4]
 1010 0070 DCE7     		b	.L102
 1011              	.L110:
 1012              		.loc 1 228 0
 1013 0072 FFF7FEFF 		bl	__stack_chk_fail
 1014              	.LVL63:
 1015              	.L101:
 1016              		.loc 1 212 0
 1017 0076 E4DD     		ble	.L100
 1018              		.loc 1 213 0
 1019 0078 0121     		movs	r1, #1
 1020 007a E4E7     		b	.L103
 1021              	.L112:
 1022              		.align	2
 1023              	.L111:
 1024 007c 00000000 		.word	__stack_chk_guard
 1025 0080 68F7FFFF 		.word	-2200
 1026 0084 A0860100 		.word	100000
ARM GAS  C:\Users\mathi\AppData\Local\Temp\cccZcXws.s 			page 19


 1027              		.cfi_endproc
 1028              	.LFE266:
 1029              		.size	motor_set_speed, .-motor_set_speed
 1030              		.section	.text.left_motor_set_speed,"ax",%progbits
 1031              		.align	1
 1032              		.p2align 4,,15
 1033              		.global	left_motor_set_speed
 1034              		.syntax unified
 1035              		.thumb
 1036              		.thumb_func
 1037              		.fpu fpv4-sp-d16
 1038              		.type	left_motor_set_speed, %function
 1039              	left_motor_set_speed:
 1040              	.LFB267:
 1041              		.loc 1 236 0
 1042              		.cfi_startproc
 1043              		@ args = 0, pretend = 0, frame = 16
 1044              		@ frame_needed = 0, uses_anonymous_args = 0
 1045              	.LVL64:
 1046 0000 30B5     		push	{r4, r5, lr}
 1047              		.cfi_def_cfa_offset 12
 1048              		.cfi_offset 4, -12
 1049              		.cfi_offset 5, -8
 1050              		.cfi_offset 14, -4
 1051 0002 1F4D     		ldr	r5, .L126
 1052 0004 85B0     		sub	sp, sp, #20
 1053              		.cfi_def_cfa_offset 32
 1054              		.loc 1 236 0
 1055 0006 2B68     		ldr	r3, [r5]
 1056 0008 0393     		str	r3, [sp, #12]
 1057              	.LVL65:
 1058              	.LBB12:
 1059              	.LBB13:
 1060              		.loc 1 196 0
 1061 000a 40F24C43 		movw	r3, #1100
 1062 000e 9842     		cmp	r0, r3
 1063 0010 28DC     		bgt	.L114
 1064              		.loc 1 198 0
 1065 0012 A3F69803 		subw	r3, r3, #2200
 1066 0016 9842     		cmp	r0, r3
 1067 0018 12DB     		blt	.L122
 1068              		.loc 1 203 0
 1069 001a 4000     		lsls	r0, r0, #1
 1070              	.LVL66:
 1071              		.loc 1 206 0
 1072 001c 0028     		cmp	r0, #0
 1073 001e 2CD1     		bne	.L116
 1074              		.loc 1 207 0
 1075 0020 184C     		ldr	r4, .L126+4
 1076 0022 2070     		strb	r0, [r4]
 1077              	.LVL67:
 1078              		.loc 1 210 0
 1079 0024 2369     		ldr	r3, [r4, #16]
 1080 0026 9847     		blx	r3
 1081              	.LVL68:
 1082 0028 4FF47A71 		mov	r1, #1000
 1083              	.LVL69:
ARM GAS  C:\Users\mathi\AppData\Local\Temp\cccZcXws.s 			page 20


 1084              	.L117:
 1085              		.loc 1 228 0
 1086 002c 039A     		ldr	r2, [sp, #12]
 1087 002e 2B68     		ldr	r3, [r5]
 1088 0030 9A42     		cmp	r2, r3
 1089 0032 20D1     		bne	.L125
 1090 0034 6069     		ldr	r0, [r4, #20]
 1091              	.LBE13:
 1092              	.LBE12:
 1093              		.loc 1 238 0
 1094 0036 05B0     		add	sp, sp, #20
 1095              		.cfi_remember_state
 1096              		.cfi_def_cfa_offset 12
 1097              		@ sp needed
 1098 0038 BDE83040 		pop	{r4, r5, lr}
 1099              		.cfi_restore 14
 1100              		.cfi_restore 5
 1101              		.cfi_restore 4
 1102              		.cfi_def_cfa_offset 0
 1103              	.LBB15:
 1104              	.LBB14:
 1105              		.loc 1 228 0
 1106 003c FFF7FEBF 		b	pwmChangePeriod
 1107              	.LVL70:
 1108              	.L122:
 1109              		.cfi_restore_state
 1110              		.loc 1 198 0
 1111 0040 1148     		ldr	r0, .L126+8
 1112              	.LVL71:
 1113              	.L115:
 1114              		.loc 1 216 0
 1115 0042 4042     		negs	r0, r0
 1116              	.LVL72:
 1117              		.loc 1 215 0
 1118 0044 0223     		movs	r3, #2
 1119              	.L118:
 1120 0046 0F4C     		ldr	r4, .L126+4
 1121              		.loc 1 218 0
 1122 0048 1049     		ldr	r1, .L126+12
 1123 004a 2370     		strb	r3, [r4]
 1124              	.LVL73:
 1125              		.loc 1 220 0
 1126 004c 40F28923 		movw	r3, #649
 1127 0050 9842     		cmp	r0, r3
 1128              		.loc 1 218 0
 1129 0052 91FBF0F1 		sdiv	r1, r1, r0
 1130 0056 89B2     		uxth	r1, r1
 1131              		.loc 1 220 0
 1132 0058 08DC     		bgt	.L119
 1133 005a 0191     		str	r1, [sp, #4]
 1134              		.loc 1 221 0
 1135 005c E368     		ldr	r3, [r4, #12]
 1136 005e 9847     		blx	r3
 1137              	.LVL74:
 1138 0060 0199     		ldr	r1, [sp, #4]
 1139 0062 E3E7     		b	.L117
 1140              	.LVL75:
ARM GAS  C:\Users\mathi\AppData\Local\Temp\cccZcXws.s 			page 21


 1141              	.L114:
 1142 0064 074C     		ldr	r4, .L126+4
 1143 0066 0123     		movs	r3, #1
 1144 0068 2370     		strb	r3, [r4]
 1145              	.LVL76:
 1146              		.loc 1 196 0
 1147 006a 2D21     		movs	r1, #45
 1148              	.LVL77:
 1149              	.L119:
 1150 006c 0191     		str	r1, [sp, #4]
 1151              		.loc 1 223 0
 1152 006e 2369     		ldr	r3, [r4, #16]
 1153 0070 9847     		blx	r3
 1154              	.LVL78:
 1155 0072 0199     		ldr	r1, [sp, #4]
 1156 0074 DAE7     		b	.L117
 1157              	.L125:
 1158              		.loc 1 228 0
 1159 0076 FFF7FEFF 		bl	__stack_chk_fail
 1160              	.LVL79:
 1161              	.L116:
 1162              		.loc 1 212 0
 1163 007a E2DD     		ble	.L115
 1164              		.loc 1 213 0
 1165 007c 0123     		movs	r3, #1
 1166 007e E2E7     		b	.L118
 1167              	.L127:
 1168              		.align	2
 1169              	.L126:
 1170 0080 00000000 		.word	__stack_chk_guard
 1171 0084 00000000 		.word	.LANCHOR3
 1172 0088 68F7FFFF 		.word	-2200
 1173 008c A0860100 		.word	100000
 1174              	.LBE14:
 1175              	.LBE15:
 1176              		.cfi_endproc
 1177              	.LFE267:
 1178              		.size	left_motor_set_speed, .-left_motor_set_speed
 1179              		.section	.text.right_motor_set_speed,"ax",%progbits
 1180              		.align	1
 1181              		.p2align 4,,15
 1182              		.global	right_motor_set_speed
 1183              		.syntax unified
 1184              		.thumb
 1185              		.thumb_func
 1186              		.fpu fpv4-sp-d16
 1187              		.type	right_motor_set_speed, %function
 1188              	right_motor_set_speed:
 1189              	.LFB268:
 1190              		.loc 1 240 0
 1191              		.cfi_startproc
 1192              		@ args = 0, pretend = 0, frame = 16
 1193              		@ frame_needed = 0, uses_anonymous_args = 0
 1194              	.LVL80:
 1195 0000 30B5     		push	{r4, r5, lr}
 1196              		.cfi_def_cfa_offset 12
 1197              		.cfi_offset 4, -12
ARM GAS  C:\Users\mathi\AppData\Local\Temp\cccZcXws.s 			page 22


 1198              		.cfi_offset 5, -8
 1199              		.cfi_offset 14, -4
 1200 0002 1F4D     		ldr	r5, .L141
 1201 0004 85B0     		sub	sp, sp, #20
 1202              		.cfi_def_cfa_offset 32
 1203              		.loc 1 240 0
 1204 0006 2B68     		ldr	r3, [r5]
 1205 0008 0393     		str	r3, [sp, #12]
 1206              	.LVL81:
 1207              	.LBB18:
 1208              	.LBB19:
 1209              		.loc 1 196 0
 1210 000a 40F24C43 		movw	r3, #1100
 1211 000e 9842     		cmp	r0, r3
 1212 0010 28DC     		bgt	.L129
 1213              		.loc 1 198 0
 1214 0012 A3F69803 		subw	r3, r3, #2200
 1215 0016 9842     		cmp	r0, r3
 1216 0018 12DB     		blt	.L137
 1217              		.loc 1 203 0
 1218 001a 4000     		lsls	r0, r0, #1
 1219              	.LVL82:
 1220              		.loc 1 206 0
 1221 001c 0028     		cmp	r0, #0
 1222 001e 2CD1     		bne	.L131
 1223              		.loc 1 207 0
 1224 0020 184C     		ldr	r4, .L141+4
 1225 0022 2070     		strb	r0, [r4]
 1226              	.LVL83:
 1227              		.loc 1 210 0
 1228 0024 2369     		ldr	r3, [r4, #16]
 1229 0026 9847     		blx	r3
 1230              	.LVL84:
 1231 0028 4FF47A71 		mov	r1, #1000
 1232              	.LVL85:
 1233              	.L132:
 1234              		.loc 1 228 0
 1235 002c 039A     		ldr	r2, [sp, #12]
 1236 002e 2B68     		ldr	r3, [r5]
 1237 0030 9A42     		cmp	r2, r3
 1238 0032 20D1     		bne	.L140
 1239 0034 6069     		ldr	r0, [r4, #20]
 1240              	.LBE19:
 1241              	.LBE18:
 1242              		.loc 1 242 0
 1243 0036 05B0     		add	sp, sp, #20
 1244              		.cfi_remember_state
 1245              		.cfi_def_cfa_offset 12
 1246              		@ sp needed
 1247 0038 BDE83040 		pop	{r4, r5, lr}
 1248              		.cfi_restore 14
 1249              		.cfi_restore 5
 1250              		.cfi_restore 4
 1251              		.cfi_def_cfa_offset 0
 1252              	.LBB21:
 1253              	.LBB20:
 1254              		.loc 1 228 0
ARM GAS  C:\Users\mathi\AppData\Local\Temp\cccZcXws.s 			page 23


 1255 003c FFF7FEBF 		b	pwmChangePeriod
 1256              	.LVL86:
 1257              	.L137:
 1258              		.cfi_restore_state
 1259              		.loc 1 198 0
 1260 0040 1148     		ldr	r0, .L141+8
 1261              	.LVL87:
 1262              	.L130:
 1263              		.loc 1 216 0
 1264 0042 4042     		negs	r0, r0
 1265              	.LVL88:
 1266              		.loc 1 215 0
 1267 0044 0223     		movs	r3, #2
 1268              	.L133:
 1269 0046 0F4C     		ldr	r4, .L141+4
 1270              		.loc 1 218 0
 1271 0048 1049     		ldr	r1, .L141+12
 1272 004a 2370     		strb	r3, [r4]
 1273              	.LVL89:
 1274              		.loc 1 220 0
 1275 004c 40F28923 		movw	r3, #649
 1276 0050 9842     		cmp	r0, r3
 1277              		.loc 1 218 0
 1278 0052 91FBF0F1 		sdiv	r1, r1, r0
 1279 0056 89B2     		uxth	r1, r1
 1280              		.loc 1 220 0
 1281 0058 08DC     		bgt	.L134
 1282 005a 0191     		str	r1, [sp, #4]
 1283              		.loc 1 221 0
 1284 005c E368     		ldr	r3, [r4, #12]
 1285 005e 9847     		blx	r3
 1286              	.LVL90:
 1287 0060 0199     		ldr	r1, [sp, #4]
 1288 0062 E3E7     		b	.L132
 1289              	.LVL91:
 1290              	.L129:
 1291 0064 074C     		ldr	r4, .L141+4
 1292 0066 0123     		movs	r3, #1
 1293 0068 2370     		strb	r3, [r4]
 1294              	.LVL92:
 1295              		.loc 1 196 0
 1296 006a 2D21     		movs	r1, #45
 1297              	.LVL93:
 1298              	.L134:
 1299 006c 0191     		str	r1, [sp, #4]
 1300              		.loc 1 223 0
 1301 006e 2369     		ldr	r3, [r4, #16]
 1302 0070 9847     		blx	r3
 1303              	.LVL94:
 1304 0072 0199     		ldr	r1, [sp, #4]
 1305 0074 DAE7     		b	.L132
 1306              	.L140:
 1307              		.loc 1 228 0
 1308 0076 FFF7FEFF 		bl	__stack_chk_fail
 1309              	.LVL95:
 1310              	.L131:
 1311              		.loc 1 212 0
ARM GAS  C:\Users\mathi\AppData\Local\Temp\cccZcXws.s 			page 24


 1312 007a E2DD     		ble	.L130
 1313              		.loc 1 213 0
 1314 007c 0123     		movs	r3, #1
 1315 007e E2E7     		b	.L133
 1316              	.L142:
 1317              		.align	2
 1318              	.L141:
 1319 0080 00000000 		.word	__stack_chk_guard
 1320 0084 00000000 		.word	.LANCHOR0
 1321 0088 68F7FFFF 		.word	-2200
 1322 008c A0860100 		.word	100000
 1323              	.LBE20:
 1324              	.LBE21:
 1325              		.cfi_endproc
 1326              	.LFE268:
 1327              		.size	right_motor_set_speed, .-right_motor_set_speed
 1328              		.section	.text.left_motor_get_pos,"ax",%progbits
 1329              		.align	1
 1330              		.p2align 4,,15
 1331              		.global	left_motor_get_pos
 1332              		.syntax unified
 1333              		.thumb
 1334              		.thumb_func
 1335              		.fpu fpv4-sp-d16
 1336              		.type	left_motor_get_pos, %function
 1337              	left_motor_get_pos:
 1338              	.LFB269:
 1339              		.loc 1 244 0
 1340              		.cfi_startproc
 1341              		@ args = 0, pretend = 0, frame = 8
 1342              		@ frame_needed = 0, uses_anonymous_args = 0
 1343 0000 00B5     		push	{lr}
 1344              		.cfi_def_cfa_offset 4
 1345              		.cfi_offset 14, -4
 1346 0002 094B     		ldr	r3, .L147
 1347              		.loc 1 245 0
 1348 0004 094A     		ldr	r2, .L147+4
 1349              		.loc 1 244 0
 1350 0006 1968     		ldr	r1, [r3]
 1351              		.loc 1 245 0
 1352 0008 5068     		ldr	r0, [r2, #4]
 1353              		.loc 1 244 0
 1354 000a 83B0     		sub	sp, sp, #12
 1355              		.cfi_def_cfa_offset 16
 1356              		.loc 1 245 0
 1357 000c 00EBD070 		add	r0, r0, r0, lsr #31
 1358              		.loc 1 244 0
 1359 0010 0191     		str	r1, [sp, #4]
 1360              		.loc 1 246 0
 1361 0012 019A     		ldr	r2, [sp, #4]
 1362 0014 1B68     		ldr	r3, [r3]
 1363 0016 9A42     		cmp	r2, r3
 1364 0018 03D1     		bne	.L146
 1365 001a 4010     		asrs	r0, r0, #1
 1366 001c 03B0     		add	sp, sp, #12
 1367              		.cfi_remember_state
 1368              		.cfi_def_cfa_offset 4
ARM GAS  C:\Users\mathi\AppData\Local\Temp\cccZcXws.s 			page 25


 1369              		@ sp needed
 1370 001e 5DF804FB 		ldr	pc, [sp], #4
 1371              	.L146:
 1372              		.cfi_restore_state
 1373 0022 FFF7FEFF 		bl	__stack_chk_fail
 1374              	.LVL96:
 1375              	.L148:
 1376 0026 00BF     		.align	2
 1377              	.L147:
 1378 0028 00000000 		.word	__stack_chk_guard
 1379 002c 00000000 		.word	.LANCHOR3
 1380              		.cfi_endproc
 1381              	.LFE269:
 1382              		.size	left_motor_get_pos, .-left_motor_get_pos
 1383              		.section	.text.right_motor_get_pos,"ax",%progbits
 1384              		.align	1
 1385              		.p2align 4,,15
 1386              		.global	right_motor_get_pos
 1387              		.syntax unified
 1388              		.thumb
 1389              		.thumb_func
 1390              		.fpu fpv4-sp-d16
 1391              		.type	right_motor_get_pos, %function
 1392              	right_motor_get_pos:
 1393              	.LFB270:
 1394              		.loc 1 248 0
 1395              		.cfi_startproc
 1396              		@ args = 0, pretend = 0, frame = 8
 1397              		@ frame_needed = 0, uses_anonymous_args = 0
 1398 0000 00B5     		push	{lr}
 1399              		.cfi_def_cfa_offset 4
 1400              		.cfi_offset 14, -4
 1401 0002 094B     		ldr	r3, .L153
 1402              		.loc 1 249 0
 1403 0004 094A     		ldr	r2, .L153+4
 1404              		.loc 1 248 0
 1405 0006 1968     		ldr	r1, [r3]
 1406              		.loc 1 249 0
 1407 0008 5068     		ldr	r0, [r2, #4]
 1408              		.loc 1 248 0
 1409 000a 83B0     		sub	sp, sp, #12
 1410              		.cfi_def_cfa_offset 16
 1411              		.loc 1 249 0
 1412 000c 00EBD070 		add	r0, r0, r0, lsr #31
 1413              		.loc 1 248 0
 1414 0010 0191     		str	r1, [sp, #4]
 1415              		.loc 1 250 0
 1416 0012 019A     		ldr	r2, [sp, #4]
 1417 0014 1B68     		ldr	r3, [r3]
 1418 0016 9A42     		cmp	r2, r3
 1419 0018 03D1     		bne	.L152
 1420 001a 4010     		asrs	r0, r0, #1
 1421 001c 03B0     		add	sp, sp, #12
 1422              		.cfi_remember_state
 1423              		.cfi_def_cfa_offset 4
 1424              		@ sp needed
 1425 001e 5DF804FB 		ldr	pc, [sp], #4
ARM GAS  C:\Users\mathi\AppData\Local\Temp\cccZcXws.s 			page 26


 1426              	.L152:
 1427              		.cfi_restore_state
 1428 0022 FFF7FEFF 		bl	__stack_chk_fail
 1429              	.LVL97:
 1430              	.L154:
 1431 0026 00BF     		.align	2
 1432              	.L153:
 1433 0028 00000000 		.word	__stack_chk_guard
 1434 002c 00000000 		.word	.LANCHOR0
 1435              		.cfi_endproc
 1436              	.LFE270:
 1437              		.size	right_motor_get_pos, .-right_motor_get_pos
 1438              		.section	.text.left_motor_set_pos,"ax",%progbits
 1439              		.align	1
 1440              		.p2align 4,,15
 1441              		.global	left_motor_set_pos
 1442              		.syntax unified
 1443              		.thumb
 1444              		.thumb_func
 1445              		.fpu fpv4-sp-d16
 1446              		.type	left_motor_set_pos, %function
 1447              	left_motor_set_pos:
 1448              	.LFB271:
 1449              		.loc 1 252 0
 1450              		.cfi_startproc
 1451              		@ args = 0, pretend = 0, frame = 8
 1452              		@ frame_needed = 0, uses_anonymous_args = 0
 1453              	.LVL98:
 1454 0000 00B5     		push	{lr}
 1455              		.cfi_def_cfa_offset 4
 1456              		.cfi_offset 14, -4
 1457 0002 084B     		ldr	r3, .L159
 1458              		.loc 1 253 0
 1459 0004 0849     		ldr	r1, .L159+4
 1460              		.loc 1 252 0
 1461 0006 1A68     		ldr	r2, [r3]
 1462 0008 83B0     		sub	sp, sp, #12
 1463              		.cfi_def_cfa_offset 16
 1464              		.loc 1 253 0
 1465 000a 4000     		lsls	r0, r0, #1
 1466              	.LVL99:
 1467              		.loc 1 252 0
 1468 000c 0192     		str	r2, [sp, #4]
 1469              		.loc 1 254 0
 1470 000e 019A     		ldr	r2, [sp, #4]
 1471 0010 1B68     		ldr	r3, [r3]
 1472              		.loc 1 253 0
 1473 0012 4860     		str	r0, [r1, #4]
 1474              		.loc 1 254 0
 1475 0014 9A42     		cmp	r2, r3
 1476 0016 02D1     		bne	.L158
 1477 0018 03B0     		add	sp, sp, #12
 1478              		.cfi_remember_state
 1479              		.cfi_def_cfa_offset 4
 1480              		@ sp needed
 1481 001a 5DF804FB 		ldr	pc, [sp], #4
 1482              	.L158:
ARM GAS  C:\Users\mathi\AppData\Local\Temp\cccZcXws.s 			page 27


 1483              		.cfi_restore_state
 1484 001e FFF7FEFF 		bl	__stack_chk_fail
 1485              	.LVL100:
 1486              	.L160:
 1487 0022 00BF     		.align	2
 1488              	.L159:
 1489 0024 00000000 		.word	__stack_chk_guard
 1490 0028 00000000 		.word	.LANCHOR3
 1491              		.cfi_endproc
 1492              	.LFE271:
 1493              		.size	left_motor_set_pos, .-left_motor_set_pos
 1494              		.section	.text.right_motor_set_pos,"ax",%progbits
 1495              		.align	1
 1496              		.p2align 4,,15
 1497              		.global	right_motor_set_pos
 1498              		.syntax unified
 1499              		.thumb
 1500              		.thumb_func
 1501              		.fpu fpv4-sp-d16
 1502              		.type	right_motor_set_pos, %function
 1503              	right_motor_set_pos:
 1504              	.LFB272:
 1505              		.loc 1 256 0
 1506              		.cfi_startproc
 1507              		@ args = 0, pretend = 0, frame = 8
 1508              		@ frame_needed = 0, uses_anonymous_args = 0
 1509              	.LVL101:
 1510 0000 00B5     		push	{lr}
 1511              		.cfi_def_cfa_offset 4
 1512              		.cfi_offset 14, -4
 1513 0002 084B     		ldr	r3, .L165
 1514              		.loc 1 257 0
 1515 0004 0849     		ldr	r1, .L165+4
 1516              		.loc 1 256 0
 1517 0006 1A68     		ldr	r2, [r3]
 1518 0008 83B0     		sub	sp, sp, #12
 1519              		.cfi_def_cfa_offset 16
 1520              		.loc 1 257 0
 1521 000a 4000     		lsls	r0, r0, #1
 1522              	.LVL102:
 1523              		.loc 1 256 0
 1524 000c 0192     		str	r2, [sp, #4]
 1525              		.loc 1 258 0
 1526 000e 019A     		ldr	r2, [sp, #4]
 1527 0010 1B68     		ldr	r3, [r3]
 1528              		.loc 1 257 0
 1529 0012 4860     		str	r0, [r1, #4]
 1530              		.loc 1 258 0
 1531 0014 9A42     		cmp	r2, r3
 1532 0016 02D1     		bne	.L164
 1533 0018 03B0     		add	sp, sp, #12
 1534              		.cfi_remember_state
 1535              		.cfi_def_cfa_offset 4
 1536              		@ sp needed
 1537 001a 5DF804FB 		ldr	pc, [sp], #4
 1538              	.L164:
 1539              		.cfi_restore_state
ARM GAS  C:\Users\mathi\AppData\Local\Temp\cccZcXws.s 			page 28


 1540 001e FFF7FEFF 		bl	__stack_chk_fail
 1541              	.LVL103:
 1542              	.L166:
 1543 0022 00BF     		.align	2
 1544              	.L165:
 1545 0024 00000000 		.word	__stack_chk_guard
 1546 0028 00000000 		.word	.LANCHOR0
 1547              		.cfi_endproc
 1548              	.LFE272:
 1549              		.size	right_motor_set_pos, .-right_motor_set_pos
 1550              		.section	.text.motors_init,"ax",%progbits
 1551              		.align	1
 1552              		.p2align 4,,15
 1553              		.global	motors_init
 1554              		.syntax unified
 1555              		.thumb
 1556              		.thumb_func
 1557              		.fpu fpv4-sp-d16
 1558              		.type	motors_init, %function
 1559              	motors_init:
 1560              	.LFB273:
 1561              		.loc 1 261 0
 1562              		.cfi_startproc
 1563              		@ args = 0, pretend = 0, frame = 8
 1564              		@ frame_needed = 0, uses_anonymous_args = 0
 1565 0000 70B5     		push	{r4, r5, r6, lr}
 1566              		.cfi_def_cfa_offset 16
 1567              		.cfi_offset 4, -16
 1568              		.cfi_offset 5, -12
 1569              		.cfi_offset 6, -8
 1570              		.cfi_offset 14, -4
 1571 0002 264E     		ldr	r6, .L172
 1572              		.loc 1 263 0
 1573 0004 2649     		ldr	r1, .L172+4
 1574              		.loc 1 261 0
 1575 0006 3068     		ldr	r0, [r6]
 1576              		.loc 1 271 0
 1577 0008 264A     		ldr	r2, .L172+8
 1578              	.LBB26:
 1579              	.LBB27:
 1580              		.loc 1 52 0
 1581 000a 274B     		ldr	r3, .L172+12
 1582              	.LBE27:
 1583              	.LBE26:
 1584              		.loc 1 269 0
 1585 000c 274C     		ldr	r4, .L172+16
 1586              		.loc 1 261 0
 1587 000e 82B0     		sub	sp, sp, #8
 1588              		.cfi_def_cfa_offset 24
 1589              	.LBB30:
 1590              	.LBB28:
 1591              		.loc 1 52 0
 1592 0010 4FF40055 		mov	r5, #8192
 1593              	.LBE28:
 1594              	.LBE30:
 1595              		.loc 1 261 0
 1596 0014 0190     		str	r0, [sp, #4]
ARM GAS  C:\Users\mathi\AppData\Local\Temp\cccZcXws.s 			page 29


 1597              		.loc 1 266 0
 1598 0016 2648     		ldr	r0, .L172+20
 1599 0018 8860     		str	r0, [r1, #8]
 1600              		.loc 1 267 0
 1601 001a 2648     		ldr	r0, .L172+24
 1602 001c C860     		str	r0, [r1, #12]
 1603              		.loc 1 268 0
 1604 001e 2648     		ldr	r0, .L172+28
 1605 0020 0861     		str	r0, [r1, #16]
 1606              		.loc 1 263 0
 1607 0022 0020     		movs	r0, #0
 1608              		.loc 1 271 0
 1609 0024 1070     		strb	r0, [r2]
 1610              		.loc 1 272 0
 1611 0026 5070     		strb	r0, [r2, #1]
 1612              		.loc 1 263 0
 1613 0028 0870     		strb	r0, [r1]
 1614              		.loc 1 264 0
 1615 002a 4870     		strb	r0, [r1, #1]
 1616              	.LBB31:
 1617              	.LBB29:
 1618              		.loc 1 52 0
 1619 002c 5D83     		strh	r5, [r3, #26]	@ movhi
 1620              		.loc 1 53 0
 1621 002e 4FF48055 		mov	r5, #4096
 1622 0032 5D83     		strh	r5, [r3, #26]	@ movhi
 1623              		.loc 1 54 0
 1624 0034 4FF48045 		mov	r5, #16384
 1625 0038 5D83     		strh	r5, [r3, #26]	@ movhi
 1626              		.loc 1 55 0
 1627 003a 4FF40045 		mov	r5, #32768
 1628 003e 5D83     		strh	r5, [r3, #26]	@ movhi
 1629              	.LBE29:
 1630              	.LBE31:
 1631              	.LBB32:
 1632              	.LBB33:
 1633              		.loc 1 67 0
 1634 0040 4FF40075 		mov	r5, #512
 1635 0044 5D83     		strh	r5, [r3, #26]	@ movhi
 1636              		.loc 1 68 0
 1637 0046 4FF48075 		mov	r5, #256
 1638 004a 5D83     		strh	r5, [r3, #26]	@ movhi
 1639              		.loc 1 69 0
 1640 004c 4FF40065 		mov	r5, #2048
 1641 0050 5D83     		strh	r5, [r3, #26]	@ movhi
 1642              		.loc 1 70 0
 1643 0052 4FF48065 		mov	r5, #1024
 1644 0056 5D83     		strh	r5, [r3, #26]	@ movhi
 1645              	.LBE33:
 1646              	.LBE32:
 1647              		.loc 1 265 0
 1648 0058 4860     		str	r0, [r1, #4]
 1649              		.loc 1 274 0
 1650 005a 184D     		ldr	r5, .L172+32
 1651              		.loc 1 269 0
 1652 005c 4C61     		str	r4, [r1, #20]
 1653              		.loc 1 275 0
ARM GAS  C:\Users\mathi\AppData\Local\Temp\cccZcXws.s 			page 30


 1654 005e 1849     		ldr	r1, .L172+36
 1655              		.loc 1 273 0
 1656 0060 5060     		str	r0, [r2, #4]
 1657              		.loc 1 276 0
 1658 0062 184B     		ldr	r3, .L172+40
 1659              		.loc 1 274 0
 1660 0064 9560     		str	r5, [r2, #8]
 1661              		.loc 1 275 0
 1662 0066 D160     		str	r1, [r2, #12]
 1663              		.loc 1 277 0
 1664 0068 174D     		ldr	r5, .L172+44
 1665              		.loc 1 297 0
 1666 006a 1849     		ldr	r1, .L172+48
 1667              		.loc 1 276 0
 1668 006c 1361     		str	r3, [r2, #16]
 1669              		.loc 1 297 0
 1670 006e 2046     		mov	r0, r4
 1671              		.loc 1 277 0
 1672 0070 5561     		str	r5, [r2, #20]
 1673              		.loc 1 297 0
 1674 0072 FFF7FEFF 		bl	pwmStart
 1675              	.LVL104:
 1676              		.loc 1 298 0
 1677 0076 2046     		mov	r0, r4
 1678 0078 FFF7FEFF 		bl	pwmEnablePeriodicNotification
 1679              	.LVL105:
 1680              		.loc 1 313 0
 1681 007c 2846     		mov	r0, r5
 1682 007e 1449     		ldr	r1, .L172+52
 1683 0080 FFF7FEFF 		bl	pwmStart
 1684              	.LVL106:
 1685              		.loc 1 314 0
 1686 0084 019A     		ldr	r2, [sp, #4]
 1687 0086 3368     		ldr	r3, [r6]
 1688 0088 9A42     		cmp	r2, r3
 1689 008a 05D1     		bne	.L171
 1690 008c 2846     		mov	r0, r5
 1691              		.loc 1 316 0
 1692 008e 02B0     		add	sp, sp, #8
 1693              		.cfi_remember_state
 1694              		.cfi_def_cfa_offset 16
 1695              		@ sp needed
 1696 0090 BDE87040 		pop	{r4, r5, r6, lr}
 1697              		.cfi_restore 14
 1698              		.cfi_restore 6
 1699              		.cfi_restore 5
 1700              		.cfi_restore 4
 1701              		.cfi_def_cfa_offset 0
 1702              		.loc 1 314 0
 1703 0094 FFF7FEBF 		b	pwmEnablePeriodicNotification
 1704              	.LVL107:
 1705              	.L171:
 1706              		.cfi_restore_state
 1707 0098 FFF7FEFF 		bl	__stack_chk_fail
 1708              	.LVL108:
 1709              	.L173:
 1710              		.align	2
ARM GAS  C:\Users\mathi\AppData\Local\Temp\cccZcXws.s 			page 31


 1711              	.L172:
 1712 009c 00000000 		.word	__stack_chk_guard
 1713 00a0 00000000 		.word	.LANCHOR0
 1714 00a4 00000000 		.word	.LANCHOR3
 1715 00a8 00100240 		.word	1073876992
 1716 00ac 00000000 		.word	PWMD3
 1717 00b0 00000000 		.word	right_motor_update
 1718 00b4 00000000 		.word	right_motor_enable_power_save
 1719 00b8 00000000 		.word	right_motor_disable_power_save
 1720 00bc 00000000 		.word	left_motor_update
 1721 00c0 00000000 		.word	left_motor_enable_power_save
 1722 00c4 00000000 		.word	left_motor_disable_power_save
 1723 00c8 00000000 		.word	PWMD4
 1724 00cc 00000000 		.word	.LANCHOR4
 1725 00d0 00000000 		.word	.LANCHOR5
 1726              		.cfi_endproc
 1727              	.LFE273:
 1728              		.size	motors_init, .-motors_init
 1729              		.global	left_motor
 1730              		.global	right_motor
 1731              		.section	.bss.left_motor,"aw",%nobits
 1732              		.align	2
 1733              		.set	.LANCHOR3,. + 0
 1734              		.type	left_motor, %object
 1735              		.size	left_motor, 24
 1736              	left_motor:
 1737 0000 00000000 		.space	24
 1737      00000000 
 1737      00000000 
 1737      00000000 
 1737      00000000 
 1738              		.section	.bss.right_motor,"aw",%nobits
 1739              		.align	2
 1740              		.set	.LANCHOR0,. + 0
 1741              		.type	right_motor, %object
 1742              		.size	right_motor, 24
 1743              	right_motor:
 1744 0000 00000000 		.space	24
 1744      00000000 
 1744      00000000 
 1744      00000000 
 1744      00000000 
 1745              		.section	.rodata.pwmcfg_left_motor.9971,"a",%progbits
 1746              		.align	2
 1747              		.set	.LANCHOR5,. + 0
 1748              		.type	pwmcfg_left_motor.9971, %object
 1749              		.size	pwmcfg_left_motor.9971, 52
 1750              	pwmcfg_left_motor.9971:
 1751 0000 A0860100 		.word	100000
 1752 0004 FFFF0000 		.word	65535
 1753 0008 00000000 		.word	left_motor_timer_callback
 1754 000c 01000000 		.word	1
 1755 0010 00000000 		.word	left_motor_pwm_ch1_cb
 1756 0014 00000000 		.word	0
 1757 0018 00000000 		.word	0
 1758 001c 00000000 		.word	0
 1759 0020 00000000 		.word	0
ARM GAS  C:\Users\mathi\AppData\Local\Temp\cccZcXws.s 			page 32


 1760 0024 00000000 		.word	0
 1761 0028 00000000 		.word	0
 1762 002c 00000000 		.word	0
 1763 0030 00000000 		.space	4
 1764              		.section	.rodata.pwmcfg_right_motor.9970,"a",%progbits
 1765              		.align	2
 1766              		.set	.LANCHOR4,. + 0
 1767              		.type	pwmcfg_right_motor.9970, %object
 1768              		.size	pwmcfg_right_motor.9970, 52
 1769              	pwmcfg_right_motor.9970:
 1770 0000 A0860100 		.word	100000
 1771 0004 FFFF0000 		.word	65535
 1772 0008 00000000 		.word	right_motor_timer_callback
 1773 000c 01000000 		.word	1
 1774 0010 00000000 		.word	right_motor_pwm_ch1_cb
 1775 0014 00000000 		.word	0
 1776 0018 00000000 		.word	0
 1777 001c 00000000 		.word	0
 1778 0020 00000000 		.word	0
 1779 0024 00000000 		.word	0
 1780 0028 00000000 		.word	0
 1781 002c 00000000 		.word	0
 1782 0030 00000000 		.space	4
 1783              		.section	.rodata.step_halt,"a",%progbits
 1784              		.align	2
 1785              		.set	.LANCHOR2,. + 0
 1786              		.type	step_halt, %object
 1787              		.size	step_halt, 4
 1788              	step_halt:
 1789 0000 00000000 		.space	4
 1790              		.section	.rodata.step_table,"a",%progbits
 1791              		.align	2
 1792              		.set	.LANCHOR1,. + 0
 1793              		.type	step_table, %object
 1794              		.size	step_table, 32
 1795              	step_table:
 1796 0000 01       		.byte	1
 1797 0001 00       		.byte	0
 1798 0002 01       		.byte	1
 1799 0003 00       		.byte	0
 1800 0004 00       		.byte	0
 1801 0005 00       		.byte	0
 1802 0006 01       		.byte	1
 1803 0007 00       		.byte	0
 1804 0008 00       		.byte	0
 1805 0009 01       		.byte	1
 1806 000a 01       		.byte	1
 1807 000b 00       		.byte	0
 1808 000c 00       		.byte	0
 1809 000d 01       		.byte	1
 1810 000e 00       		.byte	0
 1811 000f 00       		.byte	0
 1812 0010 00       		.byte	0
 1813 0011 01       		.byte	1
 1814 0012 00       		.byte	0
 1815 0013 01       		.byte	1
 1816 0014 00       		.byte	0
ARM GAS  C:\Users\mathi\AppData\Local\Temp\cccZcXws.s 			page 33


 1817 0015 00       		.byte	0
 1818 0016 00       		.byte	0
 1819 0017 01       		.byte	1
 1820 0018 01       		.byte	1
 1821 0019 00       		.byte	0
 1822 001a 00       		.byte	0
 1823 001b 01       		.byte	1
 1824 001c 01       		.byte	1
 1825 001d 00       		.byte	0
 1826 001e 00       		.byte	0
 1827 001f 00       		.byte	0
 1828              		.text
 1829              	.Letext0:
 1830              		.file 2 "c:\\eclipse_e-puck2\\tools\\gcc-arm-none-eabi-7-2017-q4-major-win32\\lib\\gcc\\arm-none-e
 1831              		.file 3 "c:\\eclipse_e-puck2\\tools\\gcc-arm-none-eabi-7-2017-q4-major-win32\\arm-none-eabi\\inclu
 1832              		.file 4 "c:\\eclipse_e-puck2\\tools\\gcc-arm-none-eabi-7-2017-q4-major-win32\\arm-none-eabi\\inclu
 1833              		.file 5 "../../lib/e-puck2_main-processor/ChibiOS//os/rt/ports/ARMCMx/compilers/GCC/chtypes.h"
 1834              		.file 6 "../../lib/e-puck2_main-processor/ChibiOS//os/rt/include/chsystypes.h"
 1835              		.file 7 "../../lib/e-puck2_main-processor/ChibiOS//os/rt/include/chschd.h"
 1836              		.file 8 "../../lib/e-puck2_main-processor/ChibiOS//os/ext/CMSIS/include/core_cm4.h"
 1837              		.file 9 "../../lib/e-puck2_main-processor/ChibiOS//os/ext/CMSIS/ST/system_stm32f4xx.h"
 1838              		.file 10 "../../lib/e-puck2_main-processor/ChibiOS//os/ext/CMSIS/ST/stm32f407xx.h"
 1839              		.file 11 "../../lib/e-puck2_main-processor/ChibiOS//os/rt/ports/ARMCMx/chcore.h"
 1840              		.file 12 "../../lib/e-puck2_main-processor/ChibiOS//os/rt/ports/ARMCMx/chcore_v7m.h"
 1841              		.file 13 "../../lib/e-puck2_main-processor/ChibiOS//os/rt/include/chdebug.h"
 1842              		.file 14 "../../lib/e-puck2_main-processor/ChibiOS//os/rt/include/chtm.h"
 1843              		.file 15 "../../lib/e-puck2_main-processor/ChibiOS//os/rt/include/chstats.h"
 1844              		.file 16 "../../lib/e-puck2_main-processor/ChibiOS//os/rt/include/chsem.h"
 1845              		.file 17 "../../lib/e-puck2_main-processor/ChibiOS//os/rt/include/chmtx.h"
 1846              		.file 18 "../../lib/e-puck2_main-processor/ChibiOS//os/rt/include/chregistry.h"
 1847              		.file 19 "../../lib/e-puck2_main-processor/ChibiOS//os/rt/include/chevents.h"
 1848              		.file 20 "../../lib/e-puck2_main-processor/ChibiOS//os/rt/include/chqueues.h"
 1849              		.file 21 "../../lib/e-puck2_main-processor/ChibiOS//os/hal/ports/STM32/STM32F4xx/stm32_dma.h"
 1850              		.file 22 "../../lib/e-puck2_main-processor/ChibiOS//os/hal/include/hal_ioblock.h"
 1851              		.file 23 "../../lib/e-puck2_main-processor/ChibiOS//os/hal/ports/STM32/LLD/GPIOv2/pal_lld.h"
 1852              		.file 24 "../../lib/e-puck2_main-processor/ChibiOS//os/hal/include/adc.h"
 1853              		.file 25 "../../lib/e-puck2_main-processor/ChibiOS//os/hal/ports/STM32/STM32F4xx/adc_lld.h"
 1854              		.file 26 "../../lib/e-puck2_main-processor/ChibiOS//os/hal/include/can.h"
 1855              		.file 27 "../../lib/e-puck2_main-processor/ChibiOS//os/hal/ports/STM32/LLD/can_lld.h"
 1856              		.file 28 "../../lib/e-puck2_main-processor/ChibiOS//os/hal/include/dac.h"
 1857              		.file 29 "../../lib/e-puck2_main-processor/ChibiOS//os/hal/ports/STM32/LLD/DACv1/dac_lld.h"
 1858              		.file 30 "../../lib/e-puck2_main-processor/ChibiOS//os/hal/include/ext.h"
 1859              		.file 31 "../../lib/e-puck2_main-processor/ChibiOS//os/hal/ports/STM32/LLD/ext_lld.h"
 1860              		.file 32 "../../lib/e-puck2_main-processor/ChibiOS//os/hal/include/gpt.h"
 1861              		.file 33 "../../lib/e-puck2_main-processor/ChibiOS//os/hal/ports/STM32/LLD/TIMv1/gpt_lld.h"
 1862              		.file 34 "../../lib/e-puck2_main-processor/ChibiOS//os/hal/ports/STM32/LLD/TIMv1/stm32_tim.h"
 1863              		.file 35 "../../lib/e-puck2_main-processor/ChibiOS//os/hal/include/i2c.h"
 1864              		.file 36 "../../lib/e-puck2_main-processor/ChibiOS//os/hal/ports/STM32/LLD/I2Cv1/i2c_lld.h"
 1865              		.file 37 "../../lib/e-puck2_main-processor/ChibiOS//os/hal/include/i2s.h"
 1866              		.file 38 "../../lib/e-puck2_main-processor/ChibiOS//os/hal/ports/STM32/LLD/SPIv1/i2s_lld.h"
 1867              		.file 39 "../../lib/e-puck2_main-processor/ChibiOS//os/hal/include/pwm.h"
 1868              		.file 40 "../../lib/e-puck2_main-processor/ChibiOS//os/hal/ports/STM32/LLD/TIMv1/pwm_lld.h"
 1869              		.file 41 "../../lib/e-puck2_main-processor/ChibiOS//os/hal/include/serial.h"
 1870              		.file 42 "../../lib/e-puck2_main-processor/ChibiOS//os/hal/ports/STM32/LLD/USARTv1/serial_lld.h"
 1871              		.file 43 "../../lib/e-puck2_main-processor/ChibiOS//os/hal/include/sdc.h"
 1872              		.file 44 "../../lib/e-puck2_main-processor/ChibiOS//os/hal/ports/STM32/LLD/sdc_lld.h"
 1873              		.file 45 "../../lib/e-puck2_main-processor/ChibiOS//os/hal/include/spi.h"
ARM GAS  C:\Users\mathi\AppData\Local\Temp\cccZcXws.s 			page 34


 1874              		.file 46 "../../lib/e-puck2_main-processor/ChibiOS//os/hal/ports/STM32/LLD/SPIv1/spi_lld.h"
 1875              		.file 47 "../../lib/e-puck2_main-processor/ChibiOS//os/hal/include/usb.h"
 1876              		.file 48 "../../lib/e-puck2_main-processor/ChibiOS//os/hal/ports/STM32/LLD/OTGv1/usb_lld.h"
 1877              		.file 49 "../../lib/e-puck2_main-processor/ChibiOS//os/hal/ports/STM32/LLD/OTGv1/stm32_otg.h"