ARM GAS  C:\Users\mathi\AppData\Local\Temp\ccGjfGcF.s 			page 1


   1              		.cpu cortex-m4
   2              		.eabi_attribute 27, 1
   3              		.eabi_attribute 28, 1
   4              		.eabi_attribute 20, 1
   5              		.eabi_attribute 21, 1
   6              		.eabi_attribute 23, 3
   7              		.eabi_attribute 24, 1
   8              		.eabi_attribute 25, 1
   9              		.eabi_attribute 26, 1
  10              		.eabi_attribute 30, 2
  11              		.eabi_attribute 34, 1
  12              		.eabi_attribute 18, 4
  13              		.file	"mp45dt02_processing.c"
  14              		.text
  15              	.Ltext0:
  16              		.cfi_sections	.debug_frame
  17              		.section	.text.mp45dt02SPICb,"ax",%progbits
  18              		.align	1
  19              		.p2align 4,,15
  20              		.global	mp45dt02SPICb
  21              		.syntax unified
  22              		.thumb
  23              		.thumb_func
  24              		.fpu fpv4-sp-d16
  25              		.type	mp45dt02SPICb, %function
  26              	mp45dt02SPICb:
  27              	.LFB259:
  28              		.file 1 "../../lib/e-puck2_main-processor/src/audio/mp45dt02_processing.c"
  29              		.loc 1 343 0
  30              		.cfi_startproc
  31              		@ args = 0, pretend = 0, frame = 8
  32              		@ frame_needed = 0, uses_anonymous_args = 0
  33              	.LVL0:
  34 0000 70B5     		push	{r4, r5, r6, lr}
  35              		.cfi_def_cfa_offset 16
  36              		.cfi_offset 4, -16
  37              		.cfi_offset 5, -12
  38              		.cfi_offset 6, -8
  39              		.cfi_offset 14, -4
  40 0002 114C     		ldr	r4, .L6
  41 0004 82B0     		sub	sp, sp, #8
  42              		.cfi_def_cfa_offset 24
  43              		.loc 1 343 0
  44 0006 2368     		ldr	r3, [r4]
  45 0008 0193     		str	r3, [sp, #4]
  46              	.LVL1:
  47 000a 0E46     		mov	r6, r1
  48 000c 1546     		mov	r5, r2
  49              	.LBB62:
  50              	.LBB63:
  51              	.LBB64:
  52              	.LBB65:
  53              	.LBB66:
  54              	.LBB67:
  55              		.file 2 "../../lib/e-puck2_main-processor/ChibiOS//os/ext/CMSIS/include/core_cmFunc.h"
  56              		.loc 2 546 0
  57 000e 2023     		movs	r3, #32
ARM GAS  C:\Users\mathi\AppData\Local\Temp\ccGjfGcF.s 			page 2


  58              		.syntax unified
  59              	@ 546 "../../lib/e-puck2_main-processor/ChibiOS//os/ext/CMSIS/include/core_cmFunc.h" 1
  60 0010 83F31188 		MSR basepri, r3
  61              	@ 0 "" 2
  62              	.LVL2:
  63              		.thumb
  64              		.syntax unified
  65              	.LBE67:
  66              	.LBE66:
  67              	.LBE65:
  68              	.LBE64:
  69              		.file 3 "../../lib/e-puck2_main-processor/ChibiOS//os/rt/include/chsys.h"
  70              		.loc 3 389 0
  71 0014 FFF7FEFF 		bl	_stats_start_measure_crit_isr
  72              	.LVL3:
  73              		.loc 3 390 0
  74 0018 FFF7FEFF 		bl	_dbg_check_lock_from_isr
  75              	.LVL4:
  76              	.LBE63:
  77              	.LBE62:
  78              		.loc 1 347 0
  79 001c 0B4B     		ldr	r3, .L6+4
  80              		.loc 1 349 0
  81 001e 0C48     		ldr	r0, .L6+8
  82              		.loc 1 348 0
  83 0020 C3E90065 		strd	r6, r5, [r3]
  84              		.loc 1 349 0
  85 0024 FFF7FEFF 		bl	chSemSignalI
  86              	.LVL5:
  87              	.LBB68:
  88              	.LBB69:
  89              		.loc 3 408 0
  90 0028 FFF7FEFF 		bl	_dbg_check_unlock_from_isr
  91              	.LVL6:
  92              		.loc 3 409 0
  93 002c FFF7FEFF 		bl	_stats_stop_measure_crit_isr
  94              	.LVL7:
  95              	.LBB70:
  96              	.LBB71:
  97              	.LBB72:
  98              	.LBB73:
  99              		.loc 2 546 0
 100 0030 0023     		movs	r3, #0
 101              		.syntax unified
 102              	@ 546 "../../lib/e-puck2_main-processor/ChibiOS//os/ext/CMSIS/include/core_cmFunc.h" 1
 103 0032 83F31188 		MSR basepri, r3
 104              	@ 0 "" 2
 105              	.LVL8:
 106              		.thumb
 107              		.syntax unified
 108              	.LBE73:
 109              	.LBE72:
 110              	.LBE71:
 111              	.LBE70:
 112              	.LBE69:
 113              	.LBE68:
 114              		.loc 1 351 0
ARM GAS  C:\Users\mathi\AppData\Local\Temp\ccGjfGcF.s 			page 3


 115 0036 019A     		ldr	r2, [sp, #4]
 116 0038 2368     		ldr	r3, [r4]
 117 003a 9A42     		cmp	r2, r3
 118 003c 01D1     		bne	.L5
 119 003e 02B0     		add	sp, sp, #8
 120              		.cfi_remember_state
 121              		.cfi_def_cfa_offset 16
 122              		@ sp needed
 123 0040 70BD     		pop	{r4, r5, r6, pc}
 124              	.LVL9:
 125              	.L5:
 126              		.cfi_restore_state
 127 0042 FFF7FEFF 		bl	__stack_chk_fail
 128              	.LVL10:
 129              	.L7:
 130 0046 00BF     		.align	2
 131              	.L6:
 132 0048 00000000 		.word	__stack_chk_guard
 133 004c 00000000 		.word	.LANCHOR0
 134 0050 00000000 		.word	.LANCHOR1
 135              		.cfi_endproc
 136              	.LFE259:
 137              		.size	mp45dt02SPICb, .-mp45dt02SPICb
 138              		.section	.text.mp45dt02I2SCb,"ax",%progbits
 139              		.align	1
 140              		.p2align 4,,15
 141              		.syntax unified
 142              		.thumb
 143              		.thumb_func
 144              		.fpu fpv4-sp-d16
 145              		.type	mp45dt02I2SCb, %function
 146              	mp45dt02I2SCb:
 147              	.LFB258:
 148              		.loc 1 334 0
 149              		.cfi_startproc
 150              		@ args = 0, pretend = 0, frame = 8
 151              		@ frame_needed = 0, uses_anonymous_args = 0
 152              	.LVL11:
 153 0000 70B5     		push	{r4, r5, r6, lr}
 154              		.cfi_def_cfa_offset 16
 155              		.cfi_offset 4, -16
 156              		.cfi_offset 5, -12
 157              		.cfi_offset 6, -8
 158              		.cfi_offset 14, -4
 159 0002 114C     		ldr	r4, .L12
 160 0004 82B0     		sub	sp, sp, #8
 161              		.cfi_def_cfa_offset 24
 162              		.loc 1 334 0
 163 0006 2368     		ldr	r3, [r4]
 164 0008 0193     		str	r3, [sp, #4]
 165              	.LVL12:
 166 000a 0E46     		mov	r6, r1
 167 000c 1546     		mov	r5, r2
 168              	.LBB74:
 169              	.LBB75:
 170              	.LBB76:
 171              	.LBB77:
ARM GAS  C:\Users\mathi\AppData\Local\Temp\ccGjfGcF.s 			page 4


 172              	.LBB78:
 173              	.LBB79:
 174              		.loc 2 546 0
 175 000e 2023     		movs	r3, #32
 176              		.syntax unified
 177              	@ 546 "../../lib/e-puck2_main-processor/ChibiOS//os/ext/CMSIS/include/core_cmFunc.h" 1
 178 0010 83F31188 		MSR basepri, r3
 179              	@ 0 "" 2
 180              	.LVL13:
 181              		.thumb
 182              		.syntax unified
 183              	.LBE79:
 184              	.LBE78:
 185              	.LBE77:
 186              	.LBE76:
 187              		.loc 3 389 0
 188 0014 FFF7FEFF 		bl	_stats_start_measure_crit_isr
 189              	.LVL14:
 190              		.loc 3 390 0
 191 0018 FFF7FEFF 		bl	_dbg_check_lock_from_isr
 192              	.LVL15:
 193              	.LBE75:
 194              	.LBE74:
 195              		.loc 1 337 0
 196 001c 0B4B     		ldr	r3, .L12+4
 197              		.loc 1 339 0
 198 001e 0C48     		ldr	r0, .L12+8
 199              		.loc 1 338 0
 200 0020 C3E90065 		strd	r6, r5, [r3]
 201              		.loc 1 339 0
 202 0024 FFF7FEFF 		bl	chSemSignalI
 203              	.LVL16:
 204              	.LBB80:
 205              	.LBB81:
 206              		.loc 3 408 0
 207 0028 FFF7FEFF 		bl	_dbg_check_unlock_from_isr
 208              	.LVL17:
 209              		.loc 3 409 0
 210 002c FFF7FEFF 		bl	_stats_stop_measure_crit_isr
 211              	.LVL18:
 212              	.LBB82:
 213              	.LBB83:
 214              	.LBB84:
 215              	.LBB85:
 216              		.loc 2 546 0
 217 0030 0023     		movs	r3, #0
 218              		.syntax unified
 219              	@ 546 "../../lib/e-puck2_main-processor/ChibiOS//os/ext/CMSIS/include/core_cmFunc.h" 1
 220 0032 83F31188 		MSR basepri, r3
 221              	@ 0 "" 2
 222              	.LVL19:
 223              		.thumb
 224              		.syntax unified
 225              	.LBE85:
 226              	.LBE84:
 227              	.LBE83:
 228              	.LBE82:
ARM GAS  C:\Users\mathi\AppData\Local\Temp\ccGjfGcF.s 			page 5


 229              	.LBE81:
 230              	.LBE80:
 231              		.loc 1 341 0
 232 0036 019A     		ldr	r2, [sp, #4]
 233 0038 2368     		ldr	r3, [r4]
 234 003a 9A42     		cmp	r2, r3
 235 003c 01D1     		bne	.L11
 236 003e 02B0     		add	sp, sp, #8
 237              		.cfi_remember_state
 238              		.cfi_def_cfa_offset 16
 239              		@ sp needed
 240 0040 70BD     		pop	{r4, r5, r6, pc}
 241              	.LVL20:
 242              	.L11:
 243              		.cfi_restore_state
 244 0042 FFF7FEFF 		bl	__stack_chk_fail
 245              	.LVL21:
 246              	.L13:
 247 0046 00BF     		.align	2
 248              	.L12:
 249 0048 00000000 		.word	__stack_chk_guard
 250 004c 00000000 		.word	.LANCHOR2
 251 0050 00000000 		.word	.LANCHOR1
 252              		.cfi_endproc
 253              	.LFE258:
 254              		.size	mp45dt02I2SCb, .-mp45dt02I2SCb
 255              		.section	.text.DataProcessing,"ax",%progbits
 256              		.align	1
 257              		.p2align 4,,15
 258              		.syntax unified
 259              		.thumb
 260              		.thumb_func
 261              		.fpu fpv4-sp-d16
 262              		.type	DataProcessing, %function
 263              	DataProcessing:
 264              	.LFB257:
 265              		.loc 1 216 0
 266              		.cfi_startproc
 267              		@ args = 0, pretend = 0, frame = 16
 268              		@ frame_needed = 0, uses_anonymous_args = 0
 269              	.LVL22:
 270 0000 2DE9F04F 		push	{r4, r5, r6, r7, r8, r9, r10, fp, lr}
 271              		.cfi_def_cfa_offset 36
 272              		.cfi_offset 4, -36
 273              		.cfi_offset 5, -32
 274              		.cfi_offset 6, -28
 275              		.cfi_offset 7, -24
 276              		.cfi_offset 8, -20
 277              		.cfi_offset 9, -16
 278              		.cfi_offset 10, -12
 279              		.cfi_offset 11, -8
 280              		.cfi_offset 14, -4
 281              	.LBB86:
 282              	.LBB87:
 283              		.file 4 "../../lib/e-puck2_main-processor/ChibiOS//os/rt/include/chregistry.h"
 284              		.loc 4 135 0
 285 0004 C44B     		ldr	r3, .L31
ARM GAS  C:\Users\mathi\AppData\Local\Temp\ccGjfGcF.s 			page 6


 286 0006 C549     		ldr	r1, .L31+4
 287 0008 9A69     		ldr	r2, [r3, #24]
 288              	.LBE87:
 289              	.LBE86:
 290              		.loc 1 216 0
 291 000a C54B     		ldr	r3, .L31+8
 292              		.loc 1 302 0
 293 000c DFF830B3 		ldr	fp, .L31+40
 294              		.loc 1 216 0
 295 0010 1B68     		ldr	r3, [r3]
 296              		.loc 1 304 0
 297 0012 DFF83CA3 		ldr	r10, .L31+56
 298              	.LBB89:
 299              	.LBB88:
 300              		.loc 4 135 0
 301 0016 9161     		str	r1, [r2, #24]
 302              	.LBE88:
 303              	.LBE89:
 304              		.loc 1 216 0
 305 0018 85B0     		sub	sp, sp, #20
 306              		.cfi_def_cfa_offset 56
 307              		.loc 1 216 0
 308 001a 0393     		str	r3, [sp, #12]
 309              	.LVL23:
 310              	.L15:
 311              	.LBB90:
 312              	.LBB91:
 313              		.file 5 "../../lib/e-puck2_main-processor/ChibiOS//os/rt/include/chthreads.h"
 314              		.loc 5 233 0
 315 001c BE4B     		ldr	r3, .L31
 316 001e 9B69     		ldr	r3, [r3, #24]
 317              	.LBE91:
 318              	.LBE90:
 319              		.loc 1 226 0
 320 0020 93F82130 		ldrb	r3, [r3, #33]	@ zero_extendqisi2
 321 0024 5B07     		lsls	r3, r3, #29
 322 0026 00F1A981 		bmi	.L14
 323              		.loc 1 229 0
 324 002a BE48     		ldr	r0, .L31+12
 325 002c FFF7FEFF 		bl	chSemWait
 326              	.LVL24:
 327              		.loc 1 230 0
 328 0030 BC48     		ldr	r0, .L31+12
 329 0032 FFF7FEFF 		bl	chSemWait
 330              	.LVL25:
 331              	.LBB92:
 332              	.LBB93:
 333              		.loc 5 233 0
 334 0036 B84B     		ldr	r3, .L31
 335 0038 9B69     		ldr	r3, [r3, #24]
 336              	.LBE93:
 337              	.LBE92:
 338              		.loc 1 232 0
 339 003a 93F82120 		ldrb	r2, [r3, #33]	@ zero_extendqisi2
 340 003e 12F00402 		ands	r2, r2, #4
 341 0042 40F09B81 		bne	.L14
 342              		.loc 1 240 0
ARM GAS  C:\Users\mathi\AppData\Local\Temp\ccGjfGcF.s 			page 7


 343 0046 B84B     		ldr	r3, .L31+16
 344              		.loc 1 239 0
 345 0048 B84D     		ldr	r5, .L31+20
 346              		.loc 1 240 0
 347 004a 1C68     		ldr	r4, [r3]
 348              		.loc 1 239 0
 349 004c 2968     		ldr	r1, [r5]
 350              		.loc 1 247 0
 351 004e 6868     		ldr	r0, [r5, #4]
 352              		.loc 1 240 0
 353 0050 03EB8408 		add	r8, r3, r4, lsl #2
 354              		.loc 1 239 0
 355 0054 05EB8101 		add	r1, r5, r1, lsl #2
 356              		.loc 1 247 0
 357 0058 4300     		lsls	r3, r0, #1
 358              		.loc 1 240 0
 359 005a 08F50278 		add	r8, r8, #520
 360              		.loc 1 239 0
 361 005e 01F10809 		add	r9, r1, #8
 362              	.LVL26:
 363              		.loc 1 247 0
 364 0062 0193     		str	r3, [sp, #4]
 365 0064 42D0     		beq	.L17
 366 0066 B24B     		ldr	r3, .L31+24
 367 0068 0120     		movs	r0, #1
 368              	.LVL27:
 369              	.L18:
 370              		.loc 1 248 0 discriminator 3
 371 006a 19F81250 		ldrb	r5, [r9, r2, lsl #1]	@ zero_extendqisi2
 372              	.LVL28:
 373              		.loc 1 249 0 discriminator 3
 374 006e 19F80060 		ldrb	r6, [r9, r0]	@ zero_extendqisi2
 375              	.LVL29:
 376              		.loc 1 253 0 discriminator 3
 377 0072 18F81210 		ldrb	r1, [r8, r2, lsl #1]	@ zero_extendqisi2
 378              	.LVL30:
 379              		.loc 1 254 0 discriminator 3
 380 0076 18F80040 		ldrb	r4, [r8, r0]	@ zero_extendqisi2
 381              	.LVL31:
 382              		.loc 1 250 0 discriminator 3
 383 007a 05F0550C 		and	ip, r5, #85
 384              		.loc 1 251 0 discriminator 3
 385 007e 7708     		lsrs	r7, r6, #1
 386              		.loc 1 250 0 discriminator 3
 387 0080 06F05506 		and	r6, r6, #85
 388              		.loc 1 255 0 discriminator 3
 389 0084 01F0550E 		and	lr, r1, #85
 390              		.loc 1 256 0 discriminator 3
 391 0088 4908     		lsrs	r1, r1, #1
 392              	.LVL32:
 393              		.loc 1 250 0 discriminator 3
 394 008a 13F80CC0 		ldrb	ip, [r3, ip]	@ zero_extendqisi2
 395 008e 9E5D     		ldrb	r6, [r3, r6]	@ zero_extendqisi2
 396              		.loc 1 255 0 discriminator 3
 397 0090 13F80EE0 		ldrb	lr, [r3, lr]	@ zero_extendqisi2
 398              		.loc 1 256 0 discriminator 3
 399 0094 01F05501 		and	r1, r1, #85
ARM GAS  C:\Users\mathi\AppData\Local\Temp\ccGjfGcF.s 			page 8


 400              		.loc 1 250 0 discriminator 3
 401 0098 4CEA0616 		orr	r6, ip, r6, lsl #4
 402              		.loc 1 256 0 discriminator 3
 403 009c 595C     		ldrb	r1, [r3, r1]	@ zero_extendqisi2
 404 009e 0091     		str	r1, [sp]
 405 00a0 4FEA540C 		lsr	ip, r4, #1
 406              		.loc 1 250 0 discriminator 3
 407 00a4 A349     		ldr	r1, .L31+28
 408              		.loc 1 255 0 discriminator 3
 409 00a6 04F05504 		and	r4, r4, #85
 410              	.LVL33:
 411              		.loc 1 256 0 discriminator 3
 412 00aa 0CF0550C 		and	ip, ip, #85
 413              		.loc 1 250 0 discriminator 3
 414 00ae 01F81260 		strb	r6, [r1, r2, lsl #1]
 415              		.loc 1 255 0 discriminator 3
 416 00b2 1C5D     		ldrb	r4, [r3, r4]	@ zero_extendqisi2
 417              		.loc 1 256 0 discriminator 3
 418 00b4 13F80CC0 		ldrb	ip, [r3, ip]	@ zero_extendqisi2
 419 00b8 0099     		ldr	r1, [sp]
 420              		.loc 1 255 0 discriminator 3
 421 00ba 9F4E     		ldr	r6, .L31+32
 422              		.loc 1 251 0 discriminator 3
 423 00bc 6D08     		lsrs	r5, r5, #1
 424 00be 05F05505 		and	r5, r5, #85
 425 00c2 07F05507 		and	r7, r7, #85
 426              		.loc 1 255 0 discriminator 3
 427 00c6 4EEA041E 		orr	lr, lr, r4, lsl #4
 428              		.loc 1 256 0 discriminator 3
 429 00ca 41EA0C11 		orr	r1, r1, ip, lsl #4
 430              		.loc 1 255 0 discriminator 3
 431 00ce 06F812E0 		strb	lr, [r6, r2, lsl #1]
 432              		.loc 1 251 0 discriminator 3
 433 00d2 5D5D     		ldrb	r5, [r3, r5]	@ zero_extendqisi2
 434              		.loc 1 256 0 discriminator 3
 435 00d4 3154     		strb	r1, [r6, r0]
 436              		.loc 1 251 0 discriminator 3
 437 00d6 DF5D     		ldrb	r7, [r3, r7]	@ zero_extendqisi2
 438              		.loc 1 247 0 discriminator 3
 439 00d8 0199     		ldr	r1, [sp, #4]
 440              		.loc 1 251 0 discriminator 3
 441 00da 964C     		ldr	r4, .L31+28
 442              		.loc 1 247 0 discriminator 3
 443 00dc 0132     		adds	r2, r2, #1
 444              	.LVL34:
 445              		.loc 1 251 0 discriminator 3
 446 00de 45EA0715 		orr	r5, r5, r7, lsl #4
 447              		.loc 1 247 0 discriminator 3
 448 00e2 9142     		cmp	r1, r2
 449              		.loc 1 251 0 discriminator 3
 450 00e4 2554     		strb	r5, [r4, r0]
 451 00e6 00F10200 		add	r0, r0, #2
 452              	.LVL35:
 453              		.loc 1 247 0 discriminator 3
 454 00ea BED1     		bne	.L18
 455              	.LVL36:
 456              	.L17:
ARM GAS  C:\Users\mathi\AppData\Local\Temp\ccGjfGcF.s 			page 9


 457              		.loc 1 302 0
 458 00ec 934B     		ldr	r3, .L31+36
 459 00ee 9449     		ldr	r1, .L31+40
 460 00f0 9048     		ldr	r0, .L31+28
 461              		.loc 1 309 0
 462 00f2 944D     		ldr	r5, .L31+44
 463 00f4 944C     		ldr	r4, .L31+48
 464              		.loc 1 302 0
 465 00f6 0422     		movs	r2, #4
 466 00f8 FFF7FEFF 		bl	PDM_Filter_64_LSB
 467              	.LVL37:
 468              		.loc 1 304 0
 469 00fc 934B     		ldr	r3, .L31+52
 470 00fe 9449     		ldr	r1, .L31+56
 471 0100 8D48     		ldr	r0, .L31+32
 472 0102 0422     		movs	r2, #4
 473 0104 FFF7FEFF 		bl	PDM_Filter_64_LSB
 474              	.LVL38:
 475              		.loc 1 302 0
 476 0108 924B     		ldr	r3, .L31+60
 477 010a 9349     		ldr	r1, .L31+64
 478 010c 9348     		ldr	r0, .L31+68
 479 010e 0422     		movs	r2, #4
 480 0110 FFF7FEFF 		bl	PDM_Filter_64_LSB
 481              	.LVL39:
 482              		.loc 1 304 0
 483 0114 924B     		ldr	r3, .L31+72
 484 0116 9349     		ldr	r1, .L31+76
 485 0118 9348     		ldr	r0, .L31+80
 486 011a 0422     		movs	r2, #4
 487 011c FFF7FEFF 		bl	PDM_Filter_64_LSB
 488              	.LVL40:
 489              		.loc 1 309 0
 490 0120 2978     		ldrb	r1, [r5]	@ zero_extendqisi2
 491 0122 2068     		ldr	r0, [r4]
 492 0124 BBF80060 		ldrh	r6, [fp]
 493 0128 0BB2     		sxth	r3, r1
 494 012a DA01     		lsls	r2, r3, #7
 495 012c 1B01     		lsls	r3, r3, #4
 496 012e 8652     		strh	r6, [r0, r2]	@ movhi
 497              		.loc 1 310 0
 498 0130 0244     		add	r2, r2, r0
 499 0132 BBF80260 		ldrh	r6, [fp, #2]
 500 0136 5680     		strh	r6, [r2, #2]	@ movhi
 501              		.loc 1 311 0
 502 0138 BAF80260 		ldrh	r6, [r10, #2]
 503 013c 9680     		strh	r6, [r2, #4]	@ movhi
 504              		.loc 1 312 0
 505 013e BAF80060 		ldrh	r6, [r10]
 506 0142 D680     		strh	r6, [r2, #6]	@ movhi
 507              	.LVL41:
 508              		.loc 1 309 0
 509 0144 0133     		adds	r3, r3, #1
 510 0146 BBF80420 		ldrh	r2, [fp, #4]
 511 014a 20F83320 		strh	r2, [r0, r3, lsl #3]	@ movhi
 512              		.loc 1 310 0
 513 014e 00EBC303 		add	r3, r0, r3, lsl #3
ARM GAS  C:\Users\mathi\AppData\Local\Temp\ccGjfGcF.s 			page 10


 514 0152 BBF80620 		ldrh	r2, [fp, #6]
 515 0156 5A80     		strh	r2, [r3, #2]	@ movhi
 516              		.loc 1 311 0
 517 0158 BAF80620 		ldrh	r2, [r10, #6]
 518 015c 9A80     		strh	r2, [r3, #4]	@ movhi
 519              		.loc 1 312 0
 520 015e BAF80420 		ldrh	r2, [r10, #4]
 521 0162 DA80     		strh	r2, [r3, #6]	@ movhi
 522              	.LVL42:
 523              		.loc 1 309 0
 524 0164 BBF80820 		ldrh	r2, [fp, #8]
 525 0168 1A81     		strh	r2, [r3, #8]	@ movhi
 526              		.loc 1 310 0
 527 016a BBF80A20 		ldrh	r2, [fp, #10]
 528 016e 5A81     		strh	r2, [r3, #10]	@ movhi
 529              		.loc 1 311 0
 530 0170 BAF80A20 		ldrh	r2, [r10, #10]
 531 0174 9A81     		strh	r2, [r3, #12]	@ movhi
 532              		.loc 1 312 0
 533 0176 BAF80820 		ldrh	r2, [r10, #8]
 534 017a DA81     		strh	r2, [r3, #14]	@ movhi
 535              	.LVL43:
 536              		.loc 1 309 0
 537 017c BBF80C20 		ldrh	r2, [fp, #12]
 538 0180 1A82     		strh	r2, [r3, #16]	@ movhi
 539              		.loc 1 310 0
 540 0182 BBF80E20 		ldrh	r2, [fp, #14]
 541 0186 5A82     		strh	r2, [r3, #18]	@ movhi
 542              		.loc 1 311 0
 543 0188 BAF80E20 		ldrh	r2, [r10, #14]
 544 018c 9A82     		strh	r2, [r3, #20]	@ movhi
 545              		.loc 1 312 0
 546 018e BAF80C20 		ldrh	r2, [r10, #12]
 547 0192 DA82     		strh	r2, [r3, #22]	@ movhi
 548              	.LVL44:
 549              		.loc 1 309 0
 550 0194 BBF81020 		ldrh	r2, [fp, #16]
 551 0198 1A83     		strh	r2, [r3, #24]	@ movhi
 552              		.loc 1 310 0
 553 019a BBF81220 		ldrh	r2, [fp, #18]
 554 019e 5A83     		strh	r2, [r3, #26]	@ movhi
 555              		.loc 1 311 0
 556 01a0 BAF81220 		ldrh	r2, [r10, #18]
 557 01a4 9A83     		strh	r2, [r3, #28]	@ movhi
 558              		.loc 1 312 0
 559 01a6 BAF81020 		ldrh	r2, [r10, #16]
 560 01aa DA83     		strh	r2, [r3, #30]	@ movhi
 561              	.LVL45:
 562              		.loc 1 309 0
 563 01ac BBF81420 		ldrh	r2, [fp, #20]
 564 01b0 1A84     		strh	r2, [r3, #32]	@ movhi
 565              		.loc 1 310 0
 566 01b2 BBF81620 		ldrh	r2, [fp, #22]
 567 01b6 5A84     		strh	r2, [r3, #34]	@ movhi
 568              		.loc 1 311 0
 569 01b8 BAF81620 		ldrh	r2, [r10, #22]
 570 01bc 9A84     		strh	r2, [r3, #36]	@ movhi
ARM GAS  C:\Users\mathi\AppData\Local\Temp\ccGjfGcF.s 			page 11


 571              		.loc 1 312 0
 572 01be BAF81420 		ldrh	r2, [r10, #20]
 573 01c2 DA84     		strh	r2, [r3, #38]	@ movhi
 574              	.LVL46:
 575              		.loc 1 309 0
 576 01c4 BBF81820 		ldrh	r2, [fp, #24]
 577 01c8 1A85     		strh	r2, [r3, #40]	@ movhi
 578              		.loc 1 310 0
 579 01ca BBF81A20 		ldrh	r2, [fp, #26]
 580 01ce 5A85     		strh	r2, [r3, #42]	@ movhi
 581              		.loc 1 311 0
 582 01d0 BAF81A20 		ldrh	r2, [r10, #26]
 583 01d4 9A85     		strh	r2, [r3, #44]	@ movhi
 584              		.loc 1 312 0
 585 01d6 BAF81820 		ldrh	r2, [r10, #24]
 586 01da DA85     		strh	r2, [r3, #46]	@ movhi
 587              	.LVL47:
 588              		.loc 1 309 0
 589 01dc BBF81C20 		ldrh	r2, [fp, #28]
 590 01e0 1A86     		strh	r2, [r3, #48]	@ movhi
 591              		.loc 1 310 0
 592 01e2 BBF81E20 		ldrh	r2, [fp, #30]
 593 01e6 5A86     		strh	r2, [r3, #50]	@ movhi
 594              		.loc 1 311 0
 595 01e8 BAF81E20 		ldrh	r2, [r10, #30]
 596 01ec 9A86     		strh	r2, [r3, #52]	@ movhi
 597              		.loc 1 312 0
 598 01ee BAF81C20 		ldrh	r2, [r10, #28]
 599 01f2 DA86     		strh	r2, [r3, #54]	@ movhi
 600              	.LVL48:
 601              		.loc 1 309 0
 602 01f4 BBF82020 		ldrh	r2, [fp, #32]
 603 01f8 1A87     		strh	r2, [r3, #56]	@ movhi
 604              		.loc 1 310 0
 605 01fa BBF82220 		ldrh	r2, [fp, #34]
 606 01fe 5A87     		strh	r2, [r3, #58]	@ movhi
 607              		.loc 1 311 0
 608 0200 BAF82220 		ldrh	r2, [r10, #34]
 609 0204 9A87     		strh	r2, [r3, #60]	@ movhi
 610              		.loc 1 312 0
 611 0206 BAF82020 		ldrh	r2, [r10, #32]
 612 020a DA87     		strh	r2, [r3, #62]	@ movhi
 613              	.LVL49:
 614              		.loc 1 309 0
 615 020c BBF82420 		ldrh	r2, [fp, #36]
 616 0210 A3F84020 		strh	r2, [r3, #64]	@ movhi
 617              		.loc 1 310 0
 618 0214 BBF82620 		ldrh	r2, [fp, #38]
 619 0218 A3F84220 		strh	r2, [r3, #66]	@ movhi
 620              		.loc 1 311 0
 621 021c BAF82620 		ldrh	r2, [r10, #38]
 622 0220 A3F84420 		strh	r2, [r3, #68]	@ movhi
 623              		.loc 1 312 0
 624 0224 BAF82420 		ldrh	r2, [r10, #36]
 625 0228 A3F84620 		strh	r2, [r3, #70]	@ movhi
 626              	.LVL50:
 627              		.loc 1 309 0
ARM GAS  C:\Users\mathi\AppData\Local\Temp\ccGjfGcF.s 			page 12


 628 022c BBF82820 		ldrh	r2, [fp, #40]
 629 0230 A3F84820 		strh	r2, [r3, #72]	@ movhi
 630              		.loc 1 310 0
 631 0234 BBF82A20 		ldrh	r2, [fp, #42]
 632 0238 A3F84A20 		strh	r2, [r3, #74]	@ movhi
 633              		.loc 1 311 0
 634 023c BAF82A20 		ldrh	r2, [r10, #42]
 635 0240 A3F84C20 		strh	r2, [r3, #76]	@ movhi
 636              		.loc 1 312 0
 637 0244 BAF82820 		ldrh	r2, [r10, #40]
 638 0248 A3F84E20 		strh	r2, [r3, #78]	@ movhi
 639              	.LVL51:
 640              		.loc 1 309 0
 641 024c BBF82C20 		ldrh	r2, [fp, #44]
 642 0250 A3F85020 		strh	r2, [r3, #80]	@ movhi
 643              		.loc 1 310 0
 644 0254 BBF82E20 		ldrh	r2, [fp, #46]
 645 0258 A3F85220 		strh	r2, [r3, #82]	@ movhi
 646              		.loc 1 311 0
 647 025c BAF82E20 		ldrh	r2, [r10, #46]
 648 0260 A3F85420 		strh	r2, [r3, #84]	@ movhi
 649              		.loc 1 312 0
 650 0264 BAF82C20 		ldrh	r2, [r10, #44]
 651 0268 A3F85620 		strh	r2, [r3, #86]	@ movhi
 652              	.LVL52:
 653              		.loc 1 309 0
 654 026c BBF83020 		ldrh	r2, [fp, #48]
 655 0270 A3F85820 		strh	r2, [r3, #88]	@ movhi
 656              		.loc 1 310 0
 657 0274 BBF83220 		ldrh	r2, [fp, #50]
 658 0278 A3F85A20 		strh	r2, [r3, #90]	@ movhi
 659              		.loc 1 311 0
 660 027c BAF83220 		ldrh	r2, [r10, #50]
 661 0280 A3F85C20 		strh	r2, [r3, #92]	@ movhi
 662              		.loc 1 312 0
 663 0284 BAF83020 		ldrh	r2, [r10, #48]
 664 0288 A3F85E20 		strh	r2, [r3, #94]	@ movhi
 665              	.LVL53:
 666              		.loc 1 309 0
 667 028c BBF83420 		ldrh	r2, [fp, #52]
 668 0290 A3F86020 		strh	r2, [r3, #96]	@ movhi
 669              		.loc 1 310 0
 670 0294 BBF83620 		ldrh	r2, [fp, #54]
 671 0298 A3F86220 		strh	r2, [r3, #98]	@ movhi
 672              		.loc 1 311 0
 673 029c BAF83620 		ldrh	r2, [r10, #54]
 674 02a0 A3F86420 		strh	r2, [r3, #100]	@ movhi
 675              		.loc 1 312 0
 676 02a4 BAF83420 		ldrh	r2, [r10, #52]
 677 02a8 A3F86620 		strh	r2, [r3, #102]	@ movhi
 678              	.LVL54:
 679              		.loc 1 309 0
 680 02ac BBF83820 		ldrh	r2, [fp, #56]
 681 02b0 A3F86820 		strh	r2, [r3, #104]	@ movhi
 682              		.loc 1 310 0
 683 02b4 BBF83A20 		ldrh	r2, [fp, #58]
 684 02b8 A3F86A20 		strh	r2, [r3, #106]	@ movhi
ARM GAS  C:\Users\mathi\AppData\Local\Temp\ccGjfGcF.s 			page 13


 685              		.loc 1 311 0
 686 02bc BAF83A20 		ldrh	r2, [r10, #58]
 687 02c0 A3F86C20 		strh	r2, [r3, #108]	@ movhi
 688              		.loc 1 312 0
 689 02c4 BAF83820 		ldrh	r2, [r10, #56]
 690 02c8 A3F86E20 		strh	r2, [r3, #110]	@ movhi
 691              	.LVL55:
 692              		.loc 1 309 0
 693 02cc BBF83C20 		ldrh	r2, [fp, #60]
 694 02d0 A3F87020 		strh	r2, [r3, #112]	@ movhi
 695              		.loc 1 310 0
 696 02d4 BBF83E20 		ldrh	r2, [fp, #62]
 697 02d8 A3F87220 		strh	r2, [r3, #114]	@ movhi
 698              		.loc 1 311 0
 699 02dc BAF83E20 		ldrh	r2, [r10, #62]
 700 02e0 A3F87420 		strh	r2, [r3, #116]	@ movhi
 701              		.loc 1 312 0
 702 02e4 BAF83C20 		ldrh	r2, [r10, #60]
 703 02e8 A3F87620 		strh	r2, [r3, #118]	@ movhi
 704              	.LVL56:
 705              		.loc 1 315 0
 706 02ec 0929     		cmp	r1, #9
 707 02ee 10D1     		bne	.L19
 708              		.loc 1 318 0
 709 02f0 1E4B     		ldr	r3, .L31+84
 710              		.loc 1 316 0
 711 02f2 0022     		movs	r2, #0
 712              		.loc 1 318 0
 713 02f4 1B68     		ldr	r3, [r3]
 714              		.loc 1 316 0
 715 02f6 2A70     		strb	r2, [r5]
 716              		.loc 1 318 0
 717 02f8 4FF42071 		mov	r1, #640
 718 02fc 9847     		blx	r3
 719              	.LVL57:
 720              		.loc 1 320 0
 721 02fe 2368     		ldr	r3, [r4]
 722              		.loc 1 321 0
 723 0300 1B4A     		ldr	r2, .L31+88
 724              		.loc 1 320 0
 725 0302 1C49     		ldr	r1, .L31+92
 726              		.loc 1 321 0
 727 0304 9342     		cmp	r3, r2
 728              		.loc 1 320 0
 729 0306 0B60     		str	r3, [r1]
 730              		.loc 1 322 0
 731 0308 06BF     		itte	eq
 732 030a 1B4B     		ldreq	r3, .L31+96
 733 030c 2360     		streq	r3, [r4]
 734              		.loc 1 324 0
 735 030e 2260     		strne	r2, [r4]
 736 0310 84E6     		b	.L15
 737              	.L19:
 738              		.loc 1 327 0
 739 0312 4B1C     		adds	r3, r1, #1
 740 0314 2B70     		strb	r3, [r5]
 741 0316 81E6     		b	.L15
ARM GAS  C:\Users\mathi\AppData\Local\Temp\ccGjfGcF.s 			page 14


 742              	.L32:
 743              		.align	2
 744              	.L31:
 745 0318 00000000 		.word	ch
 746 031c 00000000 		.word	.LANCHOR3
 747 0320 00000000 		.word	__stack_chk_guard
 748 0324 00000000 		.word	.LANCHOR1
 749 0328 00000000 		.word	.LANCHOR0
 750 032c 00000000 		.word	.LANCHOR2
 751 0330 00000000 		.word	.LANCHOR5
 752 0334 00000000 		.word	.LANCHOR4
 753 0338 00000000 		.word	.LANCHOR6
 754 033c 00000000 		.word	.LANCHOR7
 755 0340 00000000 		.word	.LANCHOR8
 756 0344 00000000 		.word	.LANCHOR12
 757 0348 00000000 		.word	.LANCHOR11
 758 034c 00000000 		.word	.LANCHOR9
 759 0350 00000000 		.word	.LANCHOR10
 760 0354 34000000 		.word	.LANCHOR7+52
 761 0358 02000000 		.word	.LANCHOR8+2
 762 035c 01000000 		.word	.LANCHOR4+1
 763 0360 34000000 		.word	.LANCHOR9+52
 764 0364 02000000 		.word	.LANCHOR10+2
 765 0368 01000000 		.word	.LANCHOR6+1
 766 036c 00000000 		.word	.LANCHOR13
 767 0370 00000000 		.word	.LANCHOR15
 768 0374 00000000 		.word	.LANCHOR14
 769 0378 00000000 		.word	.LANCHOR16
 770              	.LVL58:
 771              	.L14:
 772              		.loc 1 330 0
 773 037c 044B     		ldr	r3, .L33
 774 037e 039A     		ldr	r2, [sp, #12]
 775 0380 1B68     		ldr	r3, [r3]
 776 0382 9A42     		cmp	r2, r3
 777 0384 02D1     		bne	.L30
 778 0386 05B0     		add	sp, sp, #20
 779              		.cfi_remember_state
 780              		.cfi_def_cfa_offset 36
 781              		@ sp needed
 782 0388 BDE8F08F 		pop	{r4, r5, r6, r7, r8, r9, r10, fp, pc}
 783              	.L30:
 784              		.cfi_restore_state
 785 038c FFF7FEFF 		bl	__stack_chk_fail
 786              	.LVL59:
 787              	.L34:
 788              		.align	2
 789              	.L33:
 790 0390 00000000 		.word	__stack_chk_guard
 791              		.cfi_endproc
 792              	.LFE257:
 793              		.size	DataProcessing, .-DataProcessing
 794              		.section	.text.mp45dt02Init,"ax",%progbits
 795              		.align	1
 796              		.p2align 4,,15
 797              		.global	mp45dt02Init
 798              		.syntax unified
ARM GAS  C:\Users\mathi\AppData\Local\Temp\ccGjfGcF.s 			page 15


 799              		.thumb
 800              		.thumb_func
 801              		.fpu fpv4-sp-d16
 802              		.type	mp45dt02Init, %function
 803              	mp45dt02Init:
 804              	.LFB261:
 805              		.loc 1 373 0
 806              		.cfi_startproc
 807              		@ args = 0, pretend = 0, frame = 8
 808              		@ frame_needed = 0, uses_anonymous_args = 0
 809              	.LVL60:
 810 0000 2DE9F04F 		push	{r4, r5, r6, r7, r8, r9, r10, fp, lr}
 811              		.cfi_def_cfa_offset 36
 812              		.cfi_offset 4, -36
 813              		.cfi_offset 5, -32
 814              		.cfi_offset 6, -28
 815              		.cfi_offset 7, -24
 816              		.cfi_offset 8, -20
 817              		.cfi_offset 9, -16
 818              		.cfi_offset 10, -12
 819              		.cfi_offset 11, -8
 820              		.cfi_offset 14, -4
 821 0004 2DED028B 		vpush.64	{d8}
 822              		.cfi_def_cfa_offset 44
 823              		.cfi_offset 80, -44
 824              		.cfi_offset 81, -40
 825              		.loc 1 375 0
 826 0008 4E4A     		ldr	r2, .L40
 827 000a 0168     		ldr	r1, [r0]
 828              		.loc 1 373 0
 829 000c 4E4F     		ldr	r7, .L40+4
 830              		.loc 1 375 0
 831 000e 1160     		str	r1, [r2]
 832              		.loc 1 373 0
 833 0010 85B0     		sub	sp, sp, #20
 834              		.cfi_def_cfa_offset 64
 835              		.loc 1 377 0
 836 0012 0021     		movs	r1, #0
 837              		.loc 1 379 0
 838 0014 0E46     		mov	r6, r1
 839              		.loc 1 373 0
 840 0016 3B68     		ldr	r3, [r7]
 841              		.loc 1 377 0
 842 0018 4C48     		ldr	r0, .L40+8
 843              	.LVL61:
 844              		.loc 1 373 0
 845 001a 0393     		str	r3, [sp, #12]
 846              		.loc 1 377 0
 847 001c FFF7FEFF 		bl	chSemObjectInit
 848              	.LVL62:
 849              		.loc 1 379 0
 850 0020 4B4B     		ldr	r3, .L40+12
 851 0022 0096     		str	r6, [sp]
 852 0024 4122     		movs	r2, #65
 853 0026 4FF4AF61 		mov	r1, #1400
 854 002a 4A48     		ldr	r0, .L40+16
 855              	.LBB96:
ARM GAS  C:\Users\mathi\AppData\Local\Temp\ccGjfGcF.s 			page 16


 856              	.LBB97:
 857              		.loc 1 161 0
 858 002c 4A4D     		ldr	r5, .L40+20
 859              		.loc 1 166 0
 860 002e 4B4C     		ldr	r4, .L40+24
 861 0030 9FED4B8A 		vldr.32	s16, .L40+28
 862              		.loc 1 167 0
 863 0034 DFF834B1 		ldr	fp, .L40+40
 864              	.LBE97:
 865              	.LBE96:
 866              		.loc 1 391 0
 867 0038 DFF85881 		ldr	r8, .L40+80
 868              		.loc 1 379 0
 869 003c FFF7FEFF 		bl	chThdCreateStatic
 870              	.LVL63:
 871 0040 484B     		ldr	r3, .L40+32
 872              	.LBB101:
 873              	.LBB98:
 874              		.loc 1 155 0
 875 0042 494A     		ldr	r2, .L40+36
 876              	.LBE98:
 877              	.LBE101:
 878              		.loc 1 379 0
 879 0044 1860     		str	r0, [r3]
 880              	.LVL64:
 881              	.LBB102:
 882              	.LBB99:
 883              		.loc 1 155 0
 884 0046 136B     		ldr	r3, [r2, #48]
 885              		.loc 1 159 0
 886 0048 4849     		ldr	r1, .L40+40
 887 004a 4948     		ldr	r0, .L40+44
 888 004c 6860     		str	r0, [r5, #4]
 889              		.loc 1 155 0
 890 004e 43F48053 		orr	r3, r3, #4096
 891              		.loc 1 161 0
 892 0052 4FF47A5A 		mov	r10, #16000
 893              		.loc 1 160 0
 894 0056 4FF00219 		mov	r9, #131074
 895              		.loc 1 155 0
 896 005a 1363     		str	r3, [r2, #48]
 897              		.loc 1 164 0
 898 005c 2846     		mov	r0, r5
 899              		.loc 1 159 0
 900 005e A960     		str	r1, [r5, #8]
 901              		.loc 1 161 0
 902 0060 A5F800A0 		strh	r10, [r5]	@ movhi
 903              		.loc 1 160 0
 904 0064 C5F80C90 		str	r9, [r5, #12]
 905              		.loc 1 164 0
 906 0068 FFF7FEFF 		bl	PDM_Filter_Init
 907              	.LVL65:
 908              		.loc 1 171 0
 909 006c 2046     		mov	r0, r4
 910              		.loc 1 168 0
 911 006e A4F800A0 		strh	r10, [r4]	@ movhi
 912              		.loc 1 170 0
ARM GAS  C:\Users\mathi\AppData\Local\Temp\ccGjfGcF.s 			page 17


 913 0072 C4F80C90 		str	r9, [r4, #12]
 914              		.loc 1 166 0
 915 0076 84ED018A 		vstr.32	s16, [r4, #4]
 916              		.loc 1 167 0
 917 007a C4F808B0 		str	fp, [r4, #8]	@ float
 918              		.loc 1 171 0
 919 007e FFF7FEFF 		bl	PDM_Filter_Init
 920              	.LVL66:
 921              		.loc 1 164 0
 922 0082 05F13400 		add	r0, r5, #52
 923              		.loc 1 161 0
 924 0086 A5F834A0 		strh	r10, [r5, #52]	@ movhi
 925              		.loc 1 163 0
 926 008a C5F84090 		str	r9, [r5, #64]
 927              		.loc 1 159 0
 928 008e 85ED0E8A 		vstr.32	s16, [r5, #56]
 929              		.loc 1 160 0
 930 0092 C5F83CB0 		str	fp, [r5, #60]	@ float
 931              		.loc 1 164 0
 932 0096 FFF7FEFF 		bl	PDM_Filter_Init
 933              	.LVL67:
 934              	.LBE99:
 935              	.LBE102:
 936              		.loc 1 394 0
 937 009a 364D     		ldr	r5, .L40+48
 938              	.LBB103:
 939              	.LBB100:
 940              		.loc 1 168 0
 941 009c A4F834A0 		strh	r10, [r4, #52]	@ movhi
 942              		.loc 1 171 0
 943 00a0 04F13400 		add	r0, r4, #52
 944              		.loc 1 170 0
 945 00a4 C4F84090 		str	r9, [r4, #64]
 946              		.loc 1 166 0
 947 00a8 84ED0E8A 		vstr.32	s16, [r4, #56]
 948              		.loc 1 167 0
 949 00ac C4F83CB0 		str	fp, [r4, #60]	@ float
 950              		.loc 1 171 0
 951 00b0 FFF7FEFF 		bl	PDM_Filter_Init
 952              	.LVL68:
 953              	.LBE100:
 954              	.LBE103:
 955              		.loc 1 391 0
 956 00b4 3146     		mov	r1, r6
 957 00b6 40F20C42 		movw	r2, #1036
 958 00ba 4046     		mov	r0, r8
 959 00bc FFF7FEFF 		bl	memset
 960              	.LVL69:
 961              		.loc 1 392 0
 962 00c0 DFF8D4A0 		ldr	r10, .L40+84
 963              		.loc 1 395 0
 964 00c4 2C4A     		ldr	r2, .L40+52
 965              		.loc 1 394 0
 966 00c6 6E60     		str	r6, [r5, #4]
 967              		.loc 1 399 0
 968 00c8 4FF40063 		mov	r3, #2048
 969              		.loc 1 398 0
ARM GAS  C:\Users\mathi\AppData\Local\Temp\ccGjfGcF.s 			page 18


 970 00cc 4FF08009 		mov	r9, #128
 971              		.loc 1 394 0
 972 00d0 2E81     		strh	r6, [r5, #8]	@ movhi
 973              		.loc 1 395 0
 974 00d2 2A60     		str	r2, [r5]
 975              		.loc 1 399 0
 976 00d4 6B81     		strh	r3, [r5, #10]	@ movhi
 977              		.loc 1 408 0
 978 00d6 294C     		ldr	r4, .L40+56
 979              		.loc 1 398 0
 980 00d8 C5F80C90 		str	r9, [r5, #12]
 981              		.loc 1 392 0
 982 00dc C8F808A4 		str	r10, [r8, #1032]
 983              		.loc 1 401 0
 984 00e0 FFF7FEFF 		bl	spi3SlaveInit
 985              	.LVL70:
 986              		.loc 1 402 0
 987 00e4 2946     		mov	r1, r5
 988 00e6 2648     		ldr	r0, .L40+60
 989              		.loc 1 415 0
 990 00e8 264D     		ldr	r5, .L40+64
 991              		.loc 1 402 0
 992 00ea FFF7FEFF 		bl	spi3SlaveStart
 993              	.LVL71:
 994              		.loc 1 403 0
 995 00ee 08F50273 		add	r3, r8, #520
 996 00f2 08F10802 		add	r2, r8, #8
 997 00f6 4FF48071 		mov	r1, #256
 998 00fa 2148     		ldr	r0, .L40+60
 999 00fc FFF7FEFF 		bl	spi3SlaveStartExchange
 1000              	.LVL72:
 1001              		.loc 1 408 0
 1002 0100 3146     		mov	r1, r6
 1003 0102 2046     		mov	r0, r4
 1004 0104 4FF40372 		mov	r2, #524
 1005 0108 FFF7FEFF 		bl	memset
 1006              	.LVL73:
 1007              		.loc 1 411 0
 1008 010c 1E4B     		ldr	r3, .L40+68
 1009              		.loc 1 417 0
 1010 010e 1F4A     		ldr	r2, .L40+72
 1011              		.loc 1 409 0
 1012 0110 C4F808A2 		str	r10, [r4, #520]
 1013              		.loc 1 413 0
 1014 0114 0834     		adds	r4, r4, #8
 1015              		.loc 1 417 0
 1016 0116 1A61     		str	r2, [r3, #16]
 1017              		.loc 1 425 0
 1018 0118 1946     		mov	r1, r3
 1019              		.loc 1 411 0
 1020 011a C3E90064 		strd	r6, r4, [r3]
 1021              		.loc 1 425 0
 1022 011e 1C48     		ldr	r0, .L40+76
 1023              		.loc 1 415 0
 1024 0120 C3E90295 		strd	r9, r5, [r3, #8]
 1025              		.loc 1 425 0
 1026 0124 FFF7FEFF 		bl	i2sStart
ARM GAS  C:\Users\mathi\AppData\Local\Temp\ccGjfGcF.s 			page 19


 1027              	.LVL74:
 1028              		.loc 1 426 0
 1029 0128 039A     		ldr	r2, [sp, #12]
 1030 012a 3B68     		ldr	r3, [r7]
 1031 012c 9A42     		cmp	r2, r3
 1032 012e 07D1     		bne	.L39
 1033 0130 1748     		ldr	r0, .L40+76
 1034              		.loc 1 427 0
 1035 0132 05B0     		add	sp, sp, #20
 1036              		.cfi_remember_state
 1037              		.cfi_def_cfa_offset 44
 1038              		@ sp needed
 1039 0134 BDEC028B 		vldm	sp!, {d8}
 1040              		.cfi_restore 80
 1041              		.cfi_restore 81
 1042              		.cfi_def_cfa_offset 36
 1043 0138 BDE8F04F 		pop	{r4, r5, r6, r7, r8, r9, r10, fp, lr}
 1044              		.cfi_restore 14
 1045              		.cfi_restore 11
 1046              		.cfi_restore 10
 1047              		.cfi_restore 9
 1048              		.cfi_restore 8
 1049              		.cfi_restore 7
 1050              		.cfi_restore 6
 1051              		.cfi_restore 5
 1052              		.cfi_restore 4
 1053              		.cfi_def_cfa_offset 0
 1054              		.loc 1 426 0
 1055 013c FFF7FEBF 		b	i2sStartExchange
 1056              	.LVL75:
 1057              	.L39:
 1058              		.cfi_restore_state
 1059 0140 FFF7FEFF 		bl	__stack_chk_fail
 1060              	.LVL76:
 1061              	.L41:
 1062              		.align	2
 1063              	.L40:
 1064 0144 00000000 		.word	.LANCHOR13
 1065 0148 00000000 		.word	__stack_chk_guard
 1066 014c 00000000 		.word	.LANCHOR1
 1067 0150 00000000 		.word	DataProcessing
 1068 0154 00000000 		.word	.LANCHOR17
 1069 0158 00000000 		.word	.LANCHOR7
 1070 015c 00000000 		.word	.LANCHOR9
 1071 0160 0000FA45 		.word	1174011904
 1072 0164 00000000 		.word	.LANCHOR18
 1073 0168 00380240 		.word	1073887232
 1074 016c 00002041 		.word	1092616192
 1075 0170 0000FA45 		.word	1174011904
 1076 0174 00000000 		.word	.LANCHOR19
 1077 0178 00000000 		.word	mp45dt02SPICb
 1078 017c 00000000 		.word	.LANCHOR2
 1079 0180 00000000 		.word	SPISLAVED3
 1080 0184 00000000 		.word	mp45dt02I2SCb
 1081 0188 00000000 		.word	.LANCHOR20
 1082 018c 2C030800 		.word	525100
 1083 0190 00000000 		.word	I2SD2
ARM GAS  C:\Users\mathi\AppData\Local\Temp\ccGjfGcF.s 			page 20


 1084 0194 00000000 		.word	.LANCHOR0
 1085 0198 EFBEADDE 		.word	-559038737
 1086              		.cfi_endproc
 1087              	.LFE261:
 1088              		.size	mp45dt02Init, .-mp45dt02Init
 1089              		.section	.text.mp45dt02Shutdown,"ax",%progbits
 1090              		.align	1
 1091              		.p2align 4,,15
 1092              		.global	mp45dt02Shutdown
 1093              		.syntax unified
 1094              		.thumb
 1095              		.thumb_func
 1096              		.fpu fpv4-sp-d16
 1097              		.type	mp45dt02Shutdown, %function
 1098              	mp45dt02Shutdown:
 1099              	.LFB262:
 1100              		.loc 1 430 0
 1101              		.cfi_startproc
 1102              		@ args = 0, pretend = 0, frame = 8
 1103              		@ frame_needed = 0, uses_anonymous_args = 0
 1104 0000 30B5     		push	{r4, r5, lr}
 1105              		.cfi_def_cfa_offset 12
 1106              		.cfi_offset 4, -12
 1107              		.cfi_offset 5, -8
 1108              		.cfi_offset 14, -4
 1109 0002 124D     		ldr	r5, .L46
 1110              		.loc 1 431 0
 1111 0004 1248     		ldr	r0, .L46+4
 1112              		.loc 1 430 0
 1113 0006 2B68     		ldr	r3, [r5]
 1114              		.loc 1 437 0
 1115 0008 124C     		ldr	r4, .L46+8
 1116              		.loc 1 430 0
 1117 000a 83B0     		sub	sp, sp, #12
 1118              		.cfi_def_cfa_offset 24
 1119              		.loc 1 430 0
 1120 000c 0193     		str	r3, [sp, #4]
 1121              		.loc 1 431 0
 1122 000e FFF7FEFF 		bl	i2sStopExchange
 1123              	.LVL77:
 1124              		.loc 1 432 0
 1125 0012 0F48     		ldr	r0, .L46+4
 1126 0014 FFF7FEFF 		bl	i2sStop
 1127              	.LVL78:
 1128              		.loc 1 434 0
 1129 0018 0F48     		ldr	r0, .L46+12
 1130 001a FFF7FEFF 		bl	spi3SlaveStopExchange
 1131              	.LVL79:
 1132              		.loc 1 435 0
 1133 001e 0E48     		ldr	r0, .L46+12
 1134 0020 FFF7FEFF 		bl	spi3SlaveStop
 1135              	.LVL80:
 1136              		.loc 1 437 0
 1137 0024 2068     		ldr	r0, [r4]
 1138 0026 FFF7FEFF 		bl	chThdTerminate
 1139              	.LVL81:
 1140              		.loc 1 438 0
ARM GAS  C:\Users\mathi\AppData\Local\Temp\ccGjfGcF.s 			page 21


 1141 002a 0021     		movs	r1, #0
 1142 002c 0B48     		ldr	r0, .L46+16
 1143 002e FFF7FEFF 		bl	chSemReset
 1144              	.LVL82:
 1145              		.loc 1 439 0
 1146 0032 2068     		ldr	r0, [r4]
 1147 0034 FFF7FEFF 		bl	chThdWait
 1148              	.LVL83:
 1149              		.loc 1 441 0
 1150 0038 019A     		ldr	r2, [sp, #4]
 1151 003a 2B68     		ldr	r3, [r5]
 1152              		.loc 1 440 0
 1153 003c 0021     		movs	r1, #0
 1154              		.loc 1 441 0
 1155 003e 9A42     		cmp	r2, r3
 1156              		.loc 1 440 0
 1157 0040 2160     		str	r1, [r4]
 1158              		.loc 1 441 0
 1159 0042 01D1     		bne	.L45
 1160 0044 03B0     		add	sp, sp, #12
 1161              		.cfi_remember_state
 1162              		.cfi_def_cfa_offset 12
 1163              		@ sp needed
 1164 0046 30BD     		pop	{r4, r5, pc}
 1165              	.L45:
 1166              		.cfi_restore_state
 1167 0048 FFF7FEFF 		bl	__stack_chk_fail
 1168              	.LVL84:
 1169              	.L47:
 1170              		.align	2
 1171              	.L46:
 1172 004c 00000000 		.word	__stack_chk_guard
 1173 0050 00000000 		.word	I2SD2
 1174 0054 00000000 		.word	.LANCHOR18
 1175 0058 00000000 		.word	SPISLAVED3
 1176 005c 00000000 		.word	.LANCHOR1
 1177              		.cfi_endproc
 1178              	.LFE262:
 1179              		.size	mp45dt02Shutdown, .-mp45dt02Shutdown
 1180              		.section	.text.mp45dt02BufferPtr,"ax",%progbits
 1181              		.align	1
 1182              		.p2align 4,,15
 1183              		.global	mp45dt02BufferPtr
 1184              		.syntax unified
 1185              		.thumb
 1186              		.thumb_func
 1187              		.fpu fpv4-sp-d16
 1188              		.type	mp45dt02BufferPtr, %function
 1189              	mp45dt02BufferPtr:
 1190              	.LFB263:
 1191              		.loc 1 443 0
 1192              		.cfi_startproc
 1193              		@ args = 0, pretend = 0, frame = 8
 1194              		@ frame_needed = 0, uses_anonymous_args = 0
 1195 0000 00B5     		push	{lr}
 1196              		.cfi_def_cfa_offset 4
 1197              		.cfi_offset 14, -4
ARM GAS  C:\Users\mathi\AppData\Local\Temp\ccGjfGcF.s 			page 22


 1198 0002 074B     		ldr	r3, .L52
 1199              		.loc 1 444 0
 1200 0004 0749     		ldr	r1, .L52+4
 1201              		.loc 1 443 0
 1202 0006 1A68     		ldr	r2, [r3]
 1203              		.loc 1 445 0
 1204 0008 0868     		ldr	r0, [r1]
 1205              		.loc 1 443 0
 1206 000a 83B0     		sub	sp, sp, #12
 1207              		.cfi_def_cfa_offset 16
 1208              		.loc 1 443 0
 1209 000c 0192     		str	r2, [sp, #4]
 1210              		.loc 1 445 0
 1211 000e 019A     		ldr	r2, [sp, #4]
 1212 0010 1B68     		ldr	r3, [r3]
 1213 0012 9A42     		cmp	r2, r3
 1214 0014 02D1     		bne	.L51
 1215 0016 03B0     		add	sp, sp, #12
 1216              		.cfi_remember_state
 1217              		.cfi_def_cfa_offset 4
 1218              		@ sp needed
 1219 0018 5DF804FB 		ldr	pc, [sp], #4
 1220              	.L51:
 1221              		.cfi_restore_state
 1222 001c FFF7FEFF 		bl	__stack_chk_fail
 1223              	.LVL85:
 1224              	.L53:
 1225              		.align	2
 1226              	.L52:
 1227 0020 00000000 		.word	__stack_chk_guard
 1228 0024 00000000 		.word	.LANCHOR14
 1229              		.cfi_endproc
 1230              	.LFE263:
 1231              		.size	mp45dt02BufferPtr, .-mp45dt02BufferPtr
 1232              		.global	PDM_filter_SPI
 1233              		.global	PDM_filter_I2S
 1234              		.global	Channel_Demux
 1235              		.section	.bss.DataProcessingSem,"aw",%nobits
 1236              		.align	2
 1237              		.set	.LANCHOR1,. + 0
 1238              		.type	DataProcessingSem, %object
 1239              		.size	DataProcessingSem, 12
 1240              	DataProcessingSem:
 1241 0000 00000000 		.space	12
 1241      00000000 
 1241      00000000 
 1242              		.section	.bss.DataProcessingThd,"aw",%nobits
 1243              		.align	2
 1244              		.set	.LANCHOR18,. + 0
 1245              		.type	DataProcessingThd, %object
 1246              		.size	DataProcessingThd, 4
 1247              	DataProcessingThd:
 1248 0000 00000000 		.space	4
 1249              		.section	.bss.DataProcessingThdWA,"aw",%nobits
 1250              		.align	3
 1251              		.set	.LANCHOR17,. + 0
 1252              		.type	DataProcessingThdWA, %object
ARM GAS  C:\Users\mathi\AppData\Local\Temp\ccGjfGcF.s 			page 23


 1253              		.size	DataProcessingThdWA, 1400
 1254              	DataProcessingThdWA:
 1255 0000 00000000 		.space	1400
 1255      00000000 
 1255      00000000 
 1255      00000000 
 1255      00000000 
 1256              		.section	.bss.I2S_PCM_samples,"aw",%nobits
 1257              		.align	2
 1258              		.set	.LANCHOR8,. + 0
 1259              		.type	I2S_PCM_samples, %object
 1260              		.size	I2S_PCM_samples, 64
 1261              	I2S_PCM_samples:
 1262 0000 00000000 		.space	64
 1262      00000000 
 1262      00000000 
 1262      00000000 
 1262      00000000 
 1263              		.section	.bss.I2S_PDM_samples,"aw",%nobits
 1264              		.align	2
 1265              		.set	.LANCHOR4,. + 0
 1266              		.type	I2S_PDM_samples, %object
 1267              		.size	I2S_PDM_samples, 256
 1268              	I2S_PDM_samples:
 1269 0000 00000000 		.space	256
 1269      00000000 
 1269      00000000 
 1269      00000000 
 1269      00000000 
 1270              		.section	.bss.PCM_buffer1,"aw",%nobits
 1271              		.align	2
 1272              		.set	.LANCHOR15,. + 0
 1273              		.type	PCM_buffer1, %object
 1274              		.size	PCM_buffer1, 1280
 1275              	PCM_buffer1:
 1276 0000 00000000 		.space	1280
 1276      00000000 
 1276      00000000 
 1276      00000000 
 1276      00000000 
 1277              		.section	.bss.PCM_buffer2,"aw",%nobits
 1278              		.align	2
 1279              		.set	.LANCHOR16,. + 0
 1280              		.type	PCM_buffer2, %object
 1281              		.size	PCM_buffer2, 1280
 1282              	PCM_buffer2:
 1283 0000 00000000 		.space	1280
 1283      00000000 
 1283      00000000 
 1283      00000000 
 1283      00000000 
 1284              		.section	.bss.PCM_buffer_index,"aw",%nobits
 1285              		.set	.LANCHOR12,. + 0
 1286              		.type	PCM_buffer_index, %object
 1287              		.size	PCM_buffer_index, 1
 1288              	PCM_buffer_index:
 1289 0000 00       		.space	1
ARM GAS  C:\Users\mathi\AppData\Local\Temp\ccGjfGcF.s 			page 24


 1290              		.section	.bss.PDM_filter_I2S,"aw",%nobits
 1291              		.align	2
 1292              		.set	.LANCHOR7,. + 0
 1293              		.type	PDM_filter_I2S, %object
 1294              		.size	PDM_filter_I2S, 104
 1295              	PDM_filter_I2S:
 1296 0000 00000000 		.space	104
 1296      00000000 
 1296      00000000 
 1296      00000000 
 1296      00000000 
 1297              		.section	.bss.PDM_filter_SPI,"aw",%nobits
 1298              		.align	2
 1299              		.set	.LANCHOR9,. + 0
 1300              		.type	PDM_filter_SPI, %object
 1301              		.size	PDM_filter_SPI, 104
 1302              	PDM_filter_SPI:
 1303 0000 00000000 		.space	104
 1303      00000000 
 1303      00000000 
 1303      00000000 
 1303      00000000 
 1304              		.section	.bss.SPI_PCM_samples,"aw",%nobits
 1305              		.align	2
 1306              		.set	.LANCHOR10,. + 0
 1307              		.type	SPI_PCM_samples, %object
 1308              		.size	SPI_PCM_samples, 64
 1309              	SPI_PCM_samples:
 1310 0000 00000000 		.space	64
 1310      00000000 
 1310      00000000 
 1310      00000000 
 1310      00000000 
 1311              		.section	.bss.SPI_PDM_samples,"aw",%nobits
 1312              		.align	2
 1313              		.set	.LANCHOR6,. + 0
 1314              		.type	SPI_PDM_samples, %object
 1315              		.size	SPI_PDM_samples, 256
 1316              	SPI_PDM_samples:
 1317 0000 00000000 		.space	256
 1317      00000000 
 1317      00000000 
 1317      00000000 
 1317      00000000 
 1318              		.section	.bss.initConfig,"aw",%nobits
 1319              		.align	2
 1320              		.set	.LANCHOR13,. + 0
 1321              		.type	initConfig, %object
 1322              		.size	initConfig, 4
 1323              	initConfig:
 1324 0000 00000000 		.space	4
 1325              		.section	.bss.mp45dt02I2SConfig,"aw",%nobits
 1326              		.align	2
 1327              		.set	.LANCHOR20,. + 0
 1328              		.type	mp45dt02I2SConfig, %object
 1329              		.size	mp45dt02I2SConfig, 20
 1330              	mp45dt02I2SConfig:
ARM GAS  C:\Users\mathi\AppData\Local\Temp\ccGjfGcF.s 			page 25


 1331 0000 00000000 		.space	20
 1331      00000000 
 1331      00000000 
 1331      00000000 
 1331      00000000 
 1332              		.section	.bss.mp45dt02I2sData,"aw",%nobits
 1333              		.align	2
 1334              		.set	.LANCHOR2,. + 0
 1335              		.type	mp45dt02I2sData, %object
 1336              		.size	mp45dt02I2sData, 524
 1337              	mp45dt02I2sData:
 1338 0000 00000000 		.space	524
 1338      00000000 
 1338      00000000 
 1338      00000000 
 1338      00000000 
 1339              		.section	.bss.mp45dt02SPIConfig,"aw",%nobits
 1340              		.align	2
 1341              		.set	.LANCHOR19,. + 0
 1342              		.type	mp45dt02SPIConfig, %object
 1343              		.size	mp45dt02SPIConfig, 16
 1344              	mp45dt02SPIConfig:
 1345 0000 00000000 		.space	16
 1345      00000000 
 1345      00000000 
 1345      00000000 
 1346              		.section	.bss.mp45dt02SPIData,"aw",%nobits
 1347              		.align	2
 1348              		.set	.LANCHOR0,. + 0
 1349              		.type	mp45dt02SPIData, %object
 1350              		.size	mp45dt02SPIData, 1036
 1351              	mp45dt02SPIData:
 1352 0000 00000000 		.space	1036
 1352      00000000 
 1352      00000000 
 1352      00000000 
 1352      00000000 
 1353              		.section	.data.Channel_Demux,"aw",%progbits
 1354              		.align	2
 1355              		.set	.LANCHOR5,. + 0
 1356              		.type	Channel_Demux, %object
 1357              		.size	Channel_Demux, 128
 1358              	Channel_Demux:
 1359 0000 00       		.byte	0
 1360 0001 01       		.byte	1
 1361 0002 00       		.byte	0
 1362 0003 01       		.byte	1
 1363 0004 02       		.byte	2
 1364 0005 03       		.byte	3
 1365 0006 02       		.byte	2
 1366 0007 03       		.byte	3
 1367 0008 00       		.byte	0
 1368 0009 01       		.byte	1
 1369 000a 00       		.byte	0
 1370 000b 01       		.byte	1
 1371 000c 02       		.byte	2
 1372 000d 03       		.byte	3
ARM GAS  C:\Users\mathi\AppData\Local\Temp\ccGjfGcF.s 			page 26


 1373 000e 02       		.byte	2
 1374 000f 03       		.byte	3
 1375 0010 04       		.byte	4
 1376 0011 05       		.byte	5
 1377 0012 04       		.byte	4
 1378 0013 05       		.byte	5
 1379 0014 06       		.byte	6
 1380 0015 07       		.byte	7
 1381 0016 06       		.byte	6
 1382 0017 07       		.byte	7
 1383 0018 04       		.byte	4
 1384 0019 05       		.byte	5
 1385 001a 04       		.byte	4
 1386 001b 05       		.byte	5
 1387 001c 06       		.byte	6
 1388 001d 07       		.byte	7
 1389 001e 06       		.byte	6
 1390 001f 07       		.byte	7
 1391 0020 00       		.byte	0
 1392 0021 01       		.byte	1
 1393 0022 00       		.byte	0
 1394 0023 01       		.byte	1
 1395 0024 02       		.byte	2
 1396 0025 03       		.byte	3
 1397 0026 02       		.byte	2
 1398 0027 03       		.byte	3
 1399 0028 00       		.byte	0
 1400 0029 01       		.byte	1
 1401 002a 00       		.byte	0
 1402 002b 01       		.byte	1
 1403 002c 02       		.byte	2
 1404 002d 03       		.byte	3
 1405 002e 02       		.byte	2
 1406 002f 03       		.byte	3
 1407 0030 04       		.byte	4
 1408 0031 05       		.byte	5
 1409 0032 04       		.byte	4
 1410 0033 05       		.byte	5
 1411 0034 06       		.byte	6
 1412 0035 07       		.byte	7
 1413 0036 06       		.byte	6
 1414 0037 07       		.byte	7
 1415 0038 04       		.byte	4
 1416 0039 05       		.byte	5
 1417 003a 04       		.byte	4
 1418 003b 05       		.byte	5
 1419 003c 06       		.byte	6
 1420 003d 07       		.byte	7
 1421 003e 06       		.byte	6
 1422 003f 07       		.byte	7
 1423 0040 08       		.byte	8
 1424 0041 09       		.byte	9
 1425 0042 08       		.byte	8
 1426 0043 09       		.byte	9
 1427 0044 0A       		.byte	10
 1428 0045 0B       		.byte	11
 1429 0046 0A       		.byte	10
ARM GAS  C:\Users\mathi\AppData\Local\Temp\ccGjfGcF.s 			page 27


 1430 0047 0B       		.byte	11
 1431 0048 08       		.byte	8
 1432 0049 09       		.byte	9
 1433 004a 08       		.byte	8
 1434 004b 09       		.byte	9
 1435 004c 0A       		.byte	10
 1436 004d 0B       		.byte	11
 1437 004e 0A       		.byte	10
 1438 004f 0B       		.byte	11
 1439 0050 0C       		.byte	12
 1440 0051 0D       		.byte	13
 1441 0052 0C       		.byte	12
 1442 0053 0D       		.byte	13
 1443 0054 0E       		.byte	14
 1444 0055 0F       		.byte	15
 1445 0056 0E       		.byte	14
 1446 0057 0F       		.byte	15
 1447 0058 0C       		.byte	12
 1448 0059 0D       		.byte	13
 1449 005a 0C       		.byte	12
 1450 005b 0D       		.byte	13
 1451 005c 0E       		.byte	14
 1452 005d 0F       		.byte	15
 1453 005e 0E       		.byte	14
 1454 005f 0F       		.byte	15
 1455 0060 08       		.byte	8
 1456 0061 09       		.byte	9
 1457 0062 08       		.byte	8
 1458 0063 09       		.byte	9
 1459 0064 0A       		.byte	10
 1460 0065 0B       		.byte	11
 1461 0066 0A       		.byte	10
 1462 0067 0B       		.byte	11
 1463 0068 08       		.byte	8
 1464 0069 09       		.byte	9
 1465 006a 08       		.byte	8
 1466 006b 09       		.byte	9
 1467 006c 0A       		.byte	10
 1468 006d 0B       		.byte	11
 1469 006e 0A       		.byte	10
 1470 006f 0B       		.byte	11
 1471 0070 0C       		.byte	12
 1472 0071 0D       		.byte	13
 1473 0072 0C       		.byte	12
 1474 0073 0D       		.byte	13
 1475 0074 0E       		.byte	14
 1476 0075 0F       		.byte	15
 1477 0076 0E       		.byte	14
 1478 0077 0F       		.byte	15
 1479 0078 0C       		.byte	12
 1480 0079 0D       		.byte	13
 1481 007a 0C       		.byte	12
 1482 007b 0D       		.byte	13
 1483 007c 0E       		.byte	14
 1484 007d 0F       		.byte	15
 1485 007e 0E       		.byte	14
 1486 007f 0F       		.byte	15
ARM GAS  C:\Users\mathi\AppData\Local\Temp\ccGjfGcF.s 			page 28


 1487              		.section	.data.PCM_buffer_ptr_curr,"aw",%progbits
 1488              		.align	2
 1489              		.set	.LANCHOR11,. + 0
 1490              		.type	PCM_buffer_ptr_curr, %object
 1491              		.size	PCM_buffer_ptr_curr, 4
 1492              	PCM_buffer_ptr_curr:
 1493 0000 00000000 		.word	PCM_buffer1
 1494              		.section	.data.PCM_buffer_ptr_last,"aw",%progbits
 1495              		.align	2
 1496              		.set	.LANCHOR14,. + 0
 1497              		.type	PCM_buffer_ptr_last, %object
 1498              		.size	PCM_buffer_ptr_last, 4
 1499              	PCM_buffer_ptr_last:
 1500 0000 00000000 		.word	PCM_buffer2
 1501              		.section	.rodata.__FUNCTION__.10410,"a",%progbits
 1502              		.align	2
 1503              		.set	.LANCHOR3,. + 0
 1504              		.type	__FUNCTION__.10410, %object
 1505              		.size	__FUNCTION__.10410, 15
 1506              	__FUNCTION__.10410:
 1507 0000 44617461 		.ascii	"DataProcessing\000"
 1507      50726F63 
 1507      65737369 
 1507      6E6700
 1508              		.text
 1509              	.Letext0:
 1510              		.file 6 "c:\\eclipse_e-puck2\\tools\\gcc-arm-none-eabi-7-2017-q4-major-win32\\lib\\gcc\\arm-none-e
 1511              		.file 7 "c:\\eclipse_e-puck2\\tools\\gcc-arm-none-eabi-7-2017-q4-major-win32\\arm-none-eabi\\inclu
 1512              		.file 8 "c:\\eclipse_e-puck2\\tools\\gcc-arm-none-eabi-7-2017-q4-major-win32\\arm-none-eabi\\inclu
 1513              		.file 9 "c:\\eclipse_e-puck2\\tools\\gcc-arm-none-eabi-7-2017-q4-major-win32\\arm-none-eabi\\inclu
 1514              		.file 10 "c:\\eclipse_e-puck2\\tools\\gcc-arm-none-eabi-7-2017-q4-major-win32\\arm-none-eabi\\incl
 1515              		.file 11 "c:\\eclipse_e-puck2\\tools\\gcc-arm-none-eabi-7-2017-q4-major-win32\\arm-none-eabi\\incl
 1516              		.file 12 "../../lib/e-puck2_main-processor/ChibiOS//os/rt/ports/ARMCMx/compilers/GCC/chtypes.h"
 1517              		.file 13 "../../lib/e-puck2_main-processor/ChibiOS//os/rt/include/chsystypes.h"
 1518              		.file 14 "../../lib/e-puck2_main-processor/ChibiOS//os/rt/include/chschd.h"
 1519              		.file 15 "../../lib/e-puck2_main-processor/ChibiOS//os/ext/CMSIS/include/core_cm4.h"
 1520              		.file 16 "../../lib/e-puck2_main-processor/ChibiOS//os/ext/CMSIS/ST/system_stm32f4xx.h"
 1521              		.file 17 "../../lib/e-puck2_main-processor/ChibiOS//os/ext/CMSIS/ST/stm32f407xx.h"
 1522              		.file 18 "../../lib/e-puck2_main-processor/ChibiOS//os/rt/ports/ARMCMx/chcore.h"
 1523              		.file 19 "../../lib/e-puck2_main-processor/ChibiOS//os/rt/ports/ARMCMx/chcore_v7m.h"
 1524              		.file 20 "../../lib/e-puck2_main-processor/ChibiOS//os/rt/include/chdebug.h"
 1525              		.file 21 "../../lib/e-puck2_main-processor/ChibiOS//os/rt/include/chtm.h"
 1526              		.file 22 "../../lib/e-puck2_main-processor/ChibiOS//os/rt/include/chstats.h"
 1527              		.file 23 "../../lib/e-puck2_main-processor/ChibiOS//os/rt/include/chsem.h"
 1528              		.file 24 "../../lib/e-puck2_main-processor/ChibiOS//os/rt/include/chmtx.h"
 1529              		.file 25 "../../lib/e-puck2_main-processor/ChibiOS//os/rt/include/chevents.h"
 1530              		.file 26 "../../lib/e-puck2_main-processor/ChibiOS//os/rt/include/chqueues.h"
 1531              		.file 27 "../../lib/e-puck2_main-processor/ChibiOS//os/hal/ports/STM32/STM32F4xx/stm32_dma.h"
 1532              		.file 28 "../../lib/e-puck2_main-processor/ChibiOS//os/hal/include/hal_ioblock.h"
 1533              		.file 29 "../../lib/e-puck2_main-processor/ChibiOS//os/hal/ports/STM32/LLD/GPIOv2/pal_lld.h"
 1534              		.file 30 "../../lib/e-puck2_main-processor/ChibiOS//os/hal/include/adc.h"
 1535              		.file 31 "../../lib/e-puck2_main-processor/ChibiOS//os/hal/ports/STM32/STM32F4xx/adc_lld.h"
 1536              		.file 32 "../../lib/e-puck2_main-processor/ChibiOS//os/hal/include/can.h"
 1537              		.file 33 "../../lib/e-puck2_main-processor/ChibiOS//os/hal/ports/STM32/LLD/can_lld.h"
 1538              		.file 34 "../../lib/e-puck2_main-processor/ChibiOS//os/hal/include/dac.h"
 1539              		.file 35 "../../lib/e-puck2_main-processor/ChibiOS//os/hal/ports/STM32/LLD/DACv1/dac_lld.h"
 1540              		.file 36 "../../lib/e-puck2_main-processor/ChibiOS//os/hal/include/ext.h"
ARM GAS  C:\Users\mathi\AppData\Local\Temp\ccGjfGcF.s 			page 29


 1541              		.file 37 "../../lib/e-puck2_main-processor/ChibiOS//os/hal/ports/STM32/LLD/ext_lld.h"
 1542              		.file 38 "../../lib/e-puck2_main-processor/ChibiOS//os/hal/include/gpt.h"
 1543              		.file 39 "../../lib/e-puck2_main-processor/ChibiOS//os/hal/ports/STM32/LLD/TIMv1/gpt_lld.h"
 1544              		.file 40 "../../lib/e-puck2_main-processor/ChibiOS//os/hal/ports/STM32/LLD/TIMv1/stm32_tim.h"
 1545              		.file 41 "../../lib/e-puck2_main-processor/ChibiOS//os/hal/include/i2c.h"
 1546              		.file 42 "../../lib/e-puck2_main-processor/ChibiOS//os/hal/ports/STM32/LLD/I2Cv1/i2c_lld.h"
 1547              		.file 43 "../../lib/e-puck2_main-processor/ChibiOS//os/hal/include/i2s.h"
 1548              		.file 44 "../../lib/e-puck2_main-processor/ChibiOS//os/hal/ports/STM32/LLD/SPIv1/i2s_lld.h"
 1549              		.file 45 "../../lib/e-puck2_main-processor/ChibiOS//os/hal/include/pwm.h"
 1550              		.file 46 "../../lib/e-puck2_main-processor/ChibiOS//os/hal/ports/STM32/LLD/TIMv1/pwm_lld.h"
 1551              		.file 47 "../../lib/e-puck2_main-processor/ChibiOS//os/hal/include/serial.h"
 1552              		.file 48 "../../lib/e-puck2_main-processor/ChibiOS//os/hal/ports/STM32/LLD/USARTv1/serial_lld.h"
 1553              		.file 49 "../../lib/e-puck2_main-processor/ChibiOS//os/hal/include/sdc.h"
 1554              		.file 50 "../../lib/e-puck2_main-processor/ChibiOS//os/hal/ports/STM32/LLD/sdc_lld.h"
 1555              		.file 51 "../../lib/e-puck2_main-processor/ChibiOS//os/hal/include/spi.h"
 1556              		.file 52 "../../lib/e-puck2_main-processor/ChibiOS//os/hal/ports/STM32/LLD/SPIv1/spi_lld.h"
 1557              		.file 53 "../../lib/e-puck2_main-processor/ChibiOS//os/hal/include/usb.h"
 1558              		.file 54 "../../lib/e-puck2_main-processor/ChibiOS//os/hal/ports/STM32/LLD/OTGv1/usb_lld.h"
 1559              		.file 55 "../../lib/e-puck2_main-processor/ChibiOS//os/hal/ports/STM32/LLD/OTGv1/stm32_otg.h"
 1560              		.file 56 "../../lib/e-puck2_main-processor/ChibiOS_ext/os/hal/include/spi3_slave.h"
 1561              		.file 57 "../../lib/e-puck2_main-processor/src/audio/mp45dt02_processing.h"
 1562              		.file 58 "../../lib/e-puck2_main-processor/src/audio/pdm_filter.h"
 1563              		.file 59 "<built-in>"