ARM GAS  C:\Users\mathi\AppData\Local\Temp\ccUG24Nm.s 			page 1


   1              		.cpu cortex-m4
   2              		.eabi_attribute 27, 1
   3              		.eabi_attribute 28, 1
   4              		.eabi_attribute 20, 1
   5              		.eabi_attribute 21, 1
   6              		.eabi_attribute 23, 3
   7              		.eabi_attribute 24, 1
   8              		.eabi_attribute 25, 1
   9              		.eabi_attribute 26, 1
  10              		.eabi_attribute 30, 2
  11              		.eabi_attribute 34, 1
  12              		.eabi_attribute 18, 4
  13              		.file	"mpu9250.c"
  14              		.text
  15              	.Ltext0:
  16              		.cfi_sections	.debug_frame
  17              		.section	.text.mpu9250_change_addr,"ax",%progbits
  18              		.align	1
  19              		.p2align 4,,15
  20              		.global	mpu9250_change_addr
  21              		.syntax unified
  22              		.thumb
  23              		.thumb_func
  24              		.fpu fpv4-sp-d16
  25              		.type	mpu9250_change_addr, %function
  26              	mpu9250_change_addr:
  27              	.LFB256:
  28              		.file 1 "../../lib/e-puck2_main-processor/src/sensors/mpu9250.c"
  29              		.loc 1 22 0
  30              		.cfi_startproc
  31              		@ args = 0, pretend = 0, frame = 8
  32              		@ frame_needed = 0, uses_anonymous_args = 0
  33 0000 00B5     		push	{lr}
  34              		.cfi_def_cfa_offset 4
  35              		.cfi_offset 14, -4
  36 0002 0A4A     		ldr	r2, .L8
  37              		.loc 1 23 0
  38 0004 0A4B     		ldr	r3, .L8+4
  39              		.loc 1 22 0
  40 0006 1168     		ldr	r1, [r2]
  41              		.loc 1 23 0
  42 0008 1878     		ldrb	r0, [r3]	@ zero_extendqisi2
  43              		.loc 1 22 0
  44 000a 83B0     		sub	sp, sp, #12
  45              		.cfi_def_cfa_offset 16
  46              		.loc 1 23 0
  47 000c 6828     		cmp	r0, #104
  48              		.loc 1 22 0
  49 000e 0191     		str	r1, [sp, #4]
  50              		.loc 1 28 0
  51 0010 0199     		ldr	r1, [sp, #4]
  52 0012 1268     		ldr	r2, [r2]
  53              		.loc 1 26 0
  54 0014 0CBF     		ite	eq
  55 0016 6920     		moveq	r0, #105
  56 0018 6820     		movne	r0, #104
  57              		.loc 1 28 0
ARM GAS  C:\Users\mathi\AppData\Local\Temp\ccUG24Nm.s 			page 2


  58 001a 9142     		cmp	r1, r2
  59 001c 1870     		strb	r0, [r3]
  60 001e 02D1     		bne	.L7
  61 0020 03B0     		add	sp, sp, #12
  62              		.cfi_remember_state
  63              		.cfi_def_cfa_offset 4
  64              		@ sp needed
  65 0022 5DF804FB 		ldr	pc, [sp], #4
  66              	.L7:
  67              		.cfi_restore_state
  68 0026 FFF7FEFF 		bl	__stack_chk_fail
  69              	.LVL0:
  70              	.L9:
  71 002a 00BF     		.align	2
  72              	.L8:
  73 002c 00000000 		.word	__stack_chk_guard
  74 0030 00000000 		.word	.LANCHOR0
  75              		.cfi_endproc
  76              	.LFE256:
  77              		.size	mpu9250_change_addr, .-mpu9250_change_addr
  78              		.section	.text.mpu9250_read_id,"ax",%progbits
  79              		.align	1
  80              		.p2align 4,,15
  81              		.global	mpu9250_read_id
  82              		.syntax unified
  83              		.thumb
  84              		.thumb_func
  85              		.fpu fpv4-sp-d16
  86              		.type	mpu9250_read_id, %function
  87              	mpu9250_read_id:
  88              	.LFB257:
  89              		.loc 1 39 0
  90              		.cfi_startproc
  91              		@ args = 0, pretend = 0, frame = 8
  92              		@ frame_needed = 0, uses_anonymous_args = 0
  93              	.LVL1:
  94 0000 70B5     		push	{r4, r5, r6, lr}
  95              		.cfi_def_cfa_offset 16
  96              		.cfi_offset 4, -16
  97              		.cfi_offset 5, -12
  98              		.cfi_offset 6, -8
  99              		.cfi_offset 14, -4
 100 0002 124D     		ldr	r5, .L18
 101              		.loc 1 41 0
 102 0004 124C     		ldr	r4, .L18+4
 103              		.loc 1 39 0
 104 0006 2B68     		ldr	r3, [r5]
 105 0008 82B0     		sub	sp, sp, #8
 106              		.cfi_def_cfa_offset 24
 107              		.loc 1 39 0
 108 000a 0646     		mov	r6, r0
 109              		.loc 1 41 0
 110 000c 0246     		mov	r2, r0
 111 000e 7521     		movs	r1, #117
 112 0010 2078     		ldrb	r0, [r4]	@ zero_extendqisi2
 113              	.LVL2:
 114              		.loc 1 39 0
ARM GAS  C:\Users\mathi\AppData\Local\Temp\ccUG24Nm.s 			page 3


 115 0012 0193     		str	r3, [sp, #4]
 116              	.LVL3:
 117              		.loc 1 41 0
 118 0014 FFF7FEFF 		bl	read_reg
 119              	.LVL4:
 120 0018 80B1     		cbz	r0, .L11
 121              	.LVL5:
 122              	.LBB52:
 123              	.LBB53:
 124              	.LBB54:
 125              	.LBB55:
 126              		.loc 1 23 0
 127 001a 2178     		ldrb	r1, [r4]	@ zero_extendqisi2
 128              	.LBE55:
 129              	.LBE54:
 130              		.loc 1 43 0
 131 001c 019A     		ldr	r2, [sp, #4]
 132 001e 2B68     		ldr	r3, [r5]
 133              	.LBB57:
 134              	.LBB56:
 135              		.loc 1 23 0
 136 0020 6829     		cmp	r1, #104
 137              		.loc 1 26 0
 138 0022 0CBF     		ite	eq
 139 0024 6920     		moveq	r0, #105
 140              	.LVL6:
 141 0026 6820     		movne	r0, #104
 142              	.LBE56:
 143              	.LBE57:
 144              		.loc 1 43 0
 145 0028 9A42     		cmp	r2, r3
 146 002a 2070     		strb	r0, [r4]
 147 002c 0CD1     		bne	.L17
 148 002e 3246     		mov	r2, r6
 149 0030 7521     		movs	r1, #117
 150              	.LBE53:
 151              	.LBE52:
 152              		.loc 1 48 0
 153 0032 02B0     		add	sp, sp, #8
 154              		.cfi_remember_state
 155              		.cfi_def_cfa_offset 16
 156              		@ sp needed
 157 0034 BDE87040 		pop	{r4, r5, r6, lr}
 158              		.cfi_restore 14
 159              		.cfi_restore 6
 160              		.cfi_restore 5
 161              		.cfi_restore 4
 162              		.cfi_def_cfa_offset 0
 163              	.LVL7:
 164              	.LBB59:
 165              	.LBB58:
 166              		.loc 1 43 0
 167 0038 FFF7FEBF 		b	read_reg
 168              	.LVL8:
 169              	.L11:
 170              		.cfi_restore_state
 171              	.LBE58:
ARM GAS  C:\Users\mathi\AppData\Local\Temp\ccUG24Nm.s 			page 4


 172              	.LBE59:
 173              		.loc 1 48 0
 174 003c 019A     		ldr	r2, [sp, #4]
 175 003e 2B68     		ldr	r3, [r5]
 176 0040 9A42     		cmp	r2, r3
 177 0042 01D1     		bne	.L17
 178 0044 02B0     		add	sp, sp, #8
 179              		.cfi_remember_state
 180              		.cfi_def_cfa_offset 16
 181              		@ sp needed
 182 0046 70BD     		pop	{r4, r5, r6, pc}
 183              	.LVL9:
 184              	.L17:
 185              		.cfi_restore_state
 186 0048 FFF7FEFF 		bl	__stack_chk_fail
 187              	.LVL10:
 188              	.L19:
 189              		.align	2
 190              	.L18:
 191 004c 00000000 		.word	__stack_chk_guard
 192 0050 00000000 		.word	.LANCHOR0
 193              		.cfi_endproc
 194              	.LFE257:
 195              		.size	mpu9250_read_id, .-mpu9250_read_id
 196              		.section	.text.mpu9250_setup,"ax",%progbits
 197              		.align	1
 198              		.p2align 4,,15
 199              		.global	mpu9250_setup
 200              		.syntax unified
 201              		.thumb
 202              		.thumb_func
 203              		.fpu fpv4-sp-d16
 204              		.type	mpu9250_setup, %function
 205              	mpu9250_setup:
 206              	.LFB259:
 207              		.loc 1 67 0
 208              		.cfi_startproc
 209              		@ args = 0, pretend = 0, frame = 8
 210              		@ frame_needed = 0, uses_anonymous_args = 0
 211              	.LVL11:
 212 0000 F0B5     		push	{r4, r5, r6, r7, lr}
 213              		.cfi_def_cfa_offset 20
 214              		.cfi_offset 4, -20
 215              		.cfi_offset 5, -16
 216              		.cfi_offset 6, -12
 217              		.cfi_offset 7, -8
 218              		.cfi_offset 14, -4
 219 0002 4F4D     		ldr	r5, .L56
 220              		.loc 1 72 0
 221 0004 4F4C     		ldr	r4, .L56+4
 222              		.loc 1 67 0
 223 0006 2B68     		ldr	r3, [r5]
 224 0008 83B0     		sub	sp, sp, #12
 225              		.cfi_def_cfa_offset 32
 226              		.loc 1 67 0
 227 000a 0646     		mov	r6, r0
 228 000c 0193     		str	r3, [sp, #4]
ARM GAS  C:\Users\mathi\AppData\Local\Temp\ccUG24Nm.s 			page 5


 229              	.LVL12:
 230              		.loc 1 72 0
 231 000e 2078     		ldrb	r0, [r4]	@ zero_extendqisi2
 232              	.LVL13:
 233              		.loc 1 69 0
 234 0010 0023     		movs	r3, #0
 235              		.loc 1 72 0
 236 0012 8022     		movs	r2, #128
 237 0014 6B21     		movs	r1, #107
 238              		.loc 1 69 0
 239 0016 8DF80330 		strb	r3, [sp, #3]
 240              		.loc 1 72 0
 241 001a FFF7FEFF 		bl	write_reg
 242              	.LVL14:
 243 001e 60B1     		cbz	r0, .L53
 244              	.LBB60:
 245              	.LBB61:
 246              		.loc 1 23 0
 247 0020 2378     		ldrb	r3, [r4]	@ zero_extendqisi2
 248              		.loc 1 26 0
 249 0022 682B     		cmp	r3, #104
 250 0024 0CBF     		ite	eq
 251 0026 6923     		moveq	r3, #105
 252 0028 6823     		movne	r3, #104
 253              	.LBE61:
 254              	.LBE60:
 255              		.loc 1 74 0
 256 002a 1846     		mov	r0, r3
 257              	.LVL15:
 258 002c 8022     		movs	r2, #128
 259 002e 6B21     		movs	r1, #107
 260 0030 2370     		strb	r3, [r4]
 261 0032 FFF7FEFF 		bl	write_reg
 262              	.LVL16:
 263 0036 0028     		cmp	r0, #0
 264 0038 79D1     		bne	.L24
 265              	.L53:
 266              		.loc 1 89 0
 267 003a 0120     		movs	r0, #1
 268              	.LVL17:
 269 003c FFF7FEFF 		bl	chThdSleep
 270              	.LVL18:
 271              		.loc 1 80 0
 272 0040 0DF10302 		add	r2, sp, #3
 273 0044 6B21     		movs	r1, #107
 274 0046 2078     		ldrb	r0, [r4]	@ zero_extendqisi2
 275 0048 FFF7FEFF 		bl	read_reg
 276              	.LVL19:
 277 004c 68B1     		cbz	r0, .L30
 278              	.LBB62:
 279              	.LBB63:
 280              		.loc 1 23 0
 281 004e 2378     		ldrb	r3, [r4]	@ zero_extendqisi2
 282              		.loc 1 26 0
 283 0050 682B     		cmp	r3, #104
 284 0052 0CBF     		ite	eq
 285 0054 6923     		moveq	r3, #105
ARM GAS  C:\Users\mathi\AppData\Local\Temp\ccUG24Nm.s 			page 6


 286 0056 6823     		movne	r3, #104
 287              	.LBE63:
 288              	.LBE62:
 289              		.loc 1 82 0
 290 0058 1846     		mov	r0, r3
 291              	.LVL20:
 292 005a 0DF10302 		add	r2, sp, #3
 293 005e 6B21     		movs	r1, #107
 294 0060 2370     		strb	r3, [r4]
 295 0062 FFF7FEFF 		bl	read_reg
 296              	.LVL21:
 297 0066 0028     		cmp	r0, #0
 298 0068 61D1     		bne	.L24
 299              	.L30:
 300              		.loc 1 86 0
 301 006a 9DF90330 		ldrsb	r3, [sp, #3]
 302 006e 002B     		cmp	r3, #0
 303 0070 E3DB     		blt	.L53
 304              		.loc 1 93 0
 305 0072 7700     		lsls	r7, r6, #1
 306 0074 07F01807 		and	r7, r7, #24
 307 0078 3A46     		mov	r2, r7
 308 007a 1B21     		movs	r1, #27
 309 007c 2078     		ldrb	r0, [r4]	@ zero_extendqisi2
 310              	.LVL22:
 311 007e FFF7FEFF 		bl	write_reg
 312              	.LVL23:
 313 0082 60B1     		cbz	r0, .L35
 314              	.LBB64:
 315              	.LBB65:
 316              		.loc 1 23 0
 317 0084 2378     		ldrb	r3, [r4]	@ zero_extendqisi2
 318              		.loc 1 26 0
 319 0086 682B     		cmp	r3, #104
 320 0088 0CBF     		ite	eq
 321 008a 6923     		moveq	r3, #105
 322 008c 6823     		movne	r3, #104
 323              	.LBE65:
 324              	.LBE64:
 325              		.loc 1 95 0
 326 008e 3A46     		mov	r2, r7
 327 0090 1846     		mov	r0, r3
 328              	.LVL24:
 329 0092 1B21     		movs	r1, #27
 330 0094 2370     		strb	r3, [r4]
 331 0096 FFF7FEFF 		bl	write_reg
 332              	.LVL25:
 333 009a 0028     		cmp	r0, #0
 334 009c 47D1     		bne	.L24
 335              	.L35:
 336              		.loc 1 102 0
 337 009e F700     		lsls	r7, r6, #3
 338              		.loc 1 99 0
 339 00a0 0120     		movs	r0, #1
 340              	.LVL26:
 341              		.loc 1 102 0
 342 00a2 07F01807 		and	r7, r7, #24
ARM GAS  C:\Users\mathi\AppData\Local\Temp\ccUG24Nm.s 			page 7


 343              		.loc 1 99 0
 344 00a6 FFF7FEFF 		bl	chThdSleep
 345              	.LVL27:
 346              		.loc 1 102 0
 347 00aa 3A46     		mov	r2, r7
 348 00ac 1C21     		movs	r1, #28
 349 00ae 2078     		ldrb	r0, [r4]	@ zero_extendqisi2
 350 00b0 FFF7FEFF 		bl	write_reg
 351              	.LVL28:
 352 00b4 58B1     		cbz	r0, .L33
 353              	.LBB66:
 354              	.LBB67:
 355              		.loc 1 23 0
 356 00b6 2378     		ldrb	r3, [r4]	@ zero_extendqisi2
 357              		.loc 1 26 0
 358 00b8 682B     		cmp	r3, #104
 359 00ba 0CBF     		ite	eq
 360 00bc 6923     		moveq	r3, #105
 361 00be 6823     		movne	r3, #104
 362              	.LBE67:
 363              	.LBE66:
 364              		.loc 1 104 0
 365 00c0 3A46     		mov	r2, r7
 366 00c2 1846     		mov	r0, r3
 367              	.LVL29:
 368 00c4 1C21     		movs	r1, #28
 369 00c6 2370     		strb	r3, [r4]
 370 00c8 FFF7FEFF 		bl	write_reg
 371              	.LVL30:
 372 00cc 78BB     		cbnz	r0, .L24
 373              	.L33:
 374              		.loc 1 108 0
 375 00ce 0120     		movs	r0, #1
 376              	.LVL31:
 377              		.loc 1 111 0
 378 00d0 C6F30726 		ubfx	r6, r6, #8, #8
 379              	.LVL32:
 380              		.loc 1 108 0
 381 00d4 FFF7FEFF 		bl	chThdSleep
 382              	.LVL33:
 383              		.loc 1 111 0
 384 00d8 3246     		mov	r2, r6
 385 00da 1921     		movs	r1, #25
 386 00dc 2078     		ldrb	r0, [r4]	@ zero_extendqisi2
 387 00de FFF7FEFF 		bl	write_reg
 388              	.LVL34:
 389 00e2 58B1     		cbz	r0, .L37
 390              	.LBB68:
 391              	.LBB69:
 392              		.loc 1 23 0
 393 00e4 2378     		ldrb	r3, [r4]	@ zero_extendqisi2
 394              		.loc 1 26 0
 395 00e6 682B     		cmp	r3, #104
 396 00e8 0CBF     		ite	eq
 397 00ea 6923     		moveq	r3, #105
 398 00ec 6823     		movne	r3, #104
 399              	.LBE69:
ARM GAS  C:\Users\mathi\AppData\Local\Temp\ccUG24Nm.s 			page 8


 400              	.LBE68:
 401              		.loc 1 113 0
 402 00ee 3246     		mov	r2, r6
 403 00f0 1846     		mov	r0, r3
 404              	.LVL35:
 405 00f2 1921     		movs	r1, #25
 406 00f4 2370     		strb	r3, [r4]
 407 00f6 FFF7FEFF 		bl	write_reg
 408              	.LVL36:
 409 00fa C0B9     		cbnz	r0, .L24
 410              	.L37:
 411              		.loc 1 117 0
 412 00fc 0120     		movs	r0, #1
 413              	.LVL37:
 414 00fe FFF7FEFF 		bl	chThdSleep
 415              	.LVL38:
 416              		.loc 1 120 0
 417 0102 0122     		movs	r2, #1
 418 0104 3821     		movs	r1, #56
 419 0106 2078     		ldrb	r0, [r4]	@ zero_extendqisi2
 420 0108 FFF7FEFF 		bl	write_reg
 421              	.LVL39:
 422 010c 58B1     		cbz	r0, .L40
 423              	.LBB70:
 424              	.LBB71:
 425              		.loc 1 23 0
 426 010e 2378     		ldrb	r3, [r4]	@ zero_extendqisi2
 427              		.loc 1 26 0
 428 0110 682B     		cmp	r3, #104
 429 0112 0CBF     		ite	eq
 430 0114 6923     		moveq	r3, #105
 431 0116 6823     		movne	r3, #104
 432              	.LBE71:
 433              	.LBE70:
 434              		.loc 1 122 0
 435 0118 1846     		mov	r0, r3
 436              	.LVL40:
 437 011a 0122     		movs	r2, #1
 438 011c 3821     		movs	r1, #56
 439 011e 2370     		strb	r3, [r4]
 440 0120 FFF7FEFF 		bl	write_reg
 441              	.LVL41:
 442 0124 18B9     		cbnz	r0, .L24
 443              	.L40:
 444              	.LVL42:
 445              		.loc 1 126 0
 446 0126 0120     		movs	r0, #1
 447 0128 FFF7FEFF 		bl	chThdSleep
 448              	.LVL43:
 449              		.loc 1 132 0
 450 012c 0020     		movs	r0, #0
 451              	.LVL44:
 452              	.L24:
 453              		.loc 1 134 0
 454 012e 019A     		ldr	r2, [sp, #4]
 455 0130 2B68     		ldr	r3, [r5]
 456 0132 9A42     		cmp	r2, r3
ARM GAS  C:\Users\mathi\AppData\Local\Temp\ccUG24Nm.s 			page 9


 457 0134 01D1     		bne	.L55
 458 0136 03B0     		add	sp, sp, #12
 459              		.cfi_remember_state
 460              		.cfi_def_cfa_offset 20
 461              		@ sp needed
 462 0138 F0BD     		pop	{r4, r5, r6, r7, pc}
 463              	.L55:
 464              		.cfi_restore_state
 465 013a FFF7FEFF 		bl	__stack_chk_fail
 466              	.LVL45:
 467              	.L57:
 468 013e 00BF     		.align	2
 469              	.L56:
 470 0140 00000000 		.word	__stack_chk_guard
 471 0144 00000000 		.word	.LANCHOR0
 472              		.cfi_endproc
 473              	.LFE259:
 474              		.size	mpu9250_setup, .-mpu9250_setup
 475              		.section	.text.mpu9250_magnetometer_setup,"ax",%progbits
 476              		.align	1
 477              		.p2align 4,,15
 478              		.global	mpu9250_magnetometer_setup
 479              		.syntax unified
 480              		.thumb
 481              		.thumb_func
 482              		.fpu fpv4-sp-d16
 483              		.type	mpu9250_magnetometer_setup, %function
 484              	mpu9250_magnetometer_setup:
 485              	.LFB260:
 486              		.loc 1 136 0
 487              		.cfi_startproc
 488              		@ args = 0, pretend = 0, frame = 8
 489              		@ frame_needed = 0, uses_anonymous_args = 0
 490 0000 70B5     		push	{r4, r5, r6, lr}
 491              		.cfi_def_cfa_offset 16
 492              		.cfi_offset 4, -16
 493              		.cfi_offset 5, -12
 494              		.cfi_offset 6, -8
 495              		.cfi_offset 14, -4
 496 0002 554E     		ldr	r6, .L102
 497              		.loc 1 141 0
 498 0004 554C     		ldr	r4, .L102+4
 499              		.loc 1 136 0
 500 0006 3368     		ldr	r3, [r6]
 501              		.loc 1 141 0
 502 0008 2078     		ldrb	r0, [r4]	@ zero_extendqisi2
 503              		.loc 1 136 0
 504 000a 82B0     		sub	sp, sp, #8
 505              		.cfi_def_cfa_offset 24
 506              		.loc 1 141 0
 507 000c 0222     		movs	r2, #2
 508 000e 3721     		movs	r1, #55
 509              		.loc 1 136 0
 510 0010 0193     		str	r3, [sp, #4]
 511              	.LVL46:
 512              		.loc 1 141 0
 513 0012 FFF7FEFF 		bl	write_reg
ARM GAS  C:\Users\mathi\AppData\Local\Temp\ccUG24Nm.s 			page 10


 514              	.LVL47:
 515 0016 60B1     		cbz	r0, .L63
 516              	.LBB72:
 517              	.LBB73:
 518              		.loc 1 23 0
 519 0018 2378     		ldrb	r3, [r4]	@ zero_extendqisi2
 520              		.loc 1 26 0
 521 001a 682B     		cmp	r3, #104
 522 001c 0CBF     		ite	eq
 523 001e 6923     		moveq	r3, #105
 524 0020 6823     		movne	r3, #104
 525              	.LBE73:
 526              	.LBE72:
 527              		.loc 1 143 0
 528 0022 1846     		mov	r0, r3
 529              	.LVL48:
 530 0024 0222     		movs	r2, #2
 531 0026 3721     		movs	r1, #55
 532 0028 2370     		strb	r3, [r4]
 533 002a FFF7FEFF 		bl	write_reg
 534              	.LVL49:
 535 002e 0546     		mov	r5, r0
 536 0030 30B9     		cbnz	r0, .L60
 537              	.L63:
 538              		.loc 1 149 0
 539 0032 1222     		movs	r2, #18
 540 0034 0A21     		movs	r1, #10
 541 0036 0C20     		movs	r0, #12
 542              	.LVL50:
 543 0038 FFF7FEFF 		bl	write_reg
 544              	.LVL51:
 545 003c 0546     		mov	r5, r0
 546 003e 38B1     		cbz	r0, .L100
 547              	.LVL52:
 548              	.L60:
 549              		.loc 1 219 0
 550 0040 019A     		ldr	r2, [sp, #4]
 551 0042 3368     		ldr	r3, [r6]
 552 0044 9A42     		cmp	r2, r3
 553 0046 2846     		mov	r0, r5
 554 0048 40F08380 		bne	.L101
 555 004c 02B0     		add	sp, sp, #8
 556              		.cfi_remember_state
 557              		.cfi_def_cfa_offset 16
 558              		@ sp needed
 559 004e 70BD     		pop	{r4, r5, r6, pc}
 560              	.LVL53:
 561              	.L100:
 562              		.cfi_restore_state
 563              		.loc 1 155 0
 564 0050 0246     		mov	r2, r0
 565 0052 3721     		movs	r1, #55
 566 0054 2078     		ldrb	r0, [r4]	@ zero_extendqisi2
 567              	.LVL54:
 568 0056 FFF7FEFF 		bl	write_reg
 569              	.LVL55:
 570 005a 60B1     		cbz	r0, .L68
ARM GAS  C:\Users\mathi\AppData\Local\Temp\ccUG24Nm.s 			page 11


 571              	.LBB74:
 572              	.LBB75:
 573              		.loc 1 23 0
 574 005c 2378     		ldrb	r3, [r4]	@ zero_extendqisi2
 575              		.loc 1 26 0
 576 005e 682B     		cmp	r3, #104
 577 0060 0CBF     		ite	eq
 578 0062 6923     		moveq	r3, #105
 579 0064 6823     		movne	r3, #104
 580              	.LBE75:
 581              	.LBE74:
 582              		.loc 1 157 0
 583 0066 1846     		mov	r0, r3
 584              	.LVL56:
 585 0068 2A46     		mov	r2, r5
 586 006a 3721     		movs	r1, #55
 587 006c 2370     		strb	r3, [r4]
 588 006e FFF7FEFF 		bl	write_reg
 589              	.LVL57:
 590 0072 0028     		cmp	r0, #0
 591 0074 6BD1     		bne	.L93
 592              	.L68:
 593              		.loc 1 170 0
 594 0076 5D22     		movs	r2, #93
 595 0078 2421     		movs	r1, #36
 596 007a 2078     		ldrb	r0, [r4]	@ zero_extendqisi2
 597              	.LVL58:
 598 007c FFF7FEFF 		bl	write_reg
 599              	.LVL59:
 600 0080 60B1     		cbz	r0, .L66
 601              	.LBB76:
 602              	.LBB77:
 603              		.loc 1 23 0
 604 0082 2378     		ldrb	r3, [r4]	@ zero_extendqisi2
 605              		.loc 1 26 0
 606 0084 682B     		cmp	r3, #104
 607 0086 0CBF     		ite	eq
 608 0088 6923     		moveq	r3, #105
 609 008a 6823     		movne	r3, #104
 610              	.LBE77:
 611              	.LBE76:
 612              		.loc 1 172 0
 613 008c 1846     		mov	r0, r3
 614              	.LVL60:
 615 008e 5D22     		movs	r2, #93
 616 0090 2421     		movs	r1, #36
 617 0092 2370     		strb	r3, [r4]
 618 0094 FFF7FEFF 		bl	write_reg
 619              	.LVL61:
 620 0098 0028     		cmp	r0, #0
 621 009a 58D1     		bne	.L93
 622              	.L66:
 623              		.loc 1 176 0
 624 009c 0120     		movs	r0, #1
 625              	.LVL62:
 626 009e FFF7FEFF 		bl	chThdSleep
 627              	.LVL63:
ARM GAS  C:\Users\mathi\AppData\Local\Temp\ccUG24Nm.s 			page 12


 628              		.loc 1 179 0
 629 00a2 2022     		movs	r2, #32
 630 00a4 6A21     		movs	r1, #106
 631 00a6 2078     		ldrb	r0, [r4]	@ zero_extendqisi2
 632 00a8 FFF7FEFF 		bl	write_reg
 633              	.LVL64:
 634 00ac 60B1     		cbz	r0, .L70
 635              	.LBB78:
 636              	.LBB79:
 637              		.loc 1 23 0
 638 00ae 2378     		ldrb	r3, [r4]	@ zero_extendqisi2
 639              		.loc 1 26 0
 640 00b0 682B     		cmp	r3, #104
 641 00b2 0CBF     		ite	eq
 642 00b4 6923     		moveq	r3, #105
 643 00b6 6823     		movne	r3, #104
 644              	.LBE79:
 645              	.LBE78:
 646              		.loc 1 181 0
 647 00b8 1846     		mov	r0, r3
 648              	.LVL65:
 649 00ba 2022     		movs	r2, #32
 650 00bc 6A21     		movs	r1, #106
 651 00be 2370     		strb	r3, [r4]
 652 00c0 FFF7FEFF 		bl	write_reg
 653              	.LVL66:
 654 00c4 0028     		cmp	r0, #0
 655 00c6 42D1     		bne	.L93
 656              	.L70:
 657              		.loc 1 185 0
 658 00c8 0120     		movs	r0, #1
 659              	.LVL67:
 660 00ca FFF7FEFF 		bl	chThdSleep
 661              	.LVL68:
 662              		.loc 1 188 0
 663 00ce 8C22     		movs	r2, #140
 664 00d0 2521     		movs	r1, #37
 665 00d2 2078     		ldrb	r0, [r4]	@ zero_extendqisi2
 666 00d4 FFF7FEFF 		bl	write_reg
 667              	.LVL69:
 668 00d8 58B1     		cbz	r0, .L73
 669              	.LBB80:
 670              	.LBB81:
 671              		.loc 1 23 0
 672 00da 2378     		ldrb	r3, [r4]	@ zero_extendqisi2
 673              		.loc 1 26 0
 674 00dc 682B     		cmp	r3, #104
 675 00de 0CBF     		ite	eq
 676 00e0 6923     		moveq	r3, #105
 677 00e2 6823     		movne	r3, #104
 678              	.LBE81:
 679              	.LBE80:
 680              		.loc 1 190 0
 681 00e4 1846     		mov	r0, r3
 682              	.LVL70:
 683 00e6 8C22     		movs	r2, #140
 684 00e8 2521     		movs	r1, #37
ARM GAS  C:\Users\mathi\AppData\Local\Temp\ccUG24Nm.s 			page 13


 685 00ea 2370     		strb	r3, [r4]
 686 00ec FFF7FEFF 		bl	write_reg
 687              	.LVL71:
 688 00f0 68BB     		cbnz	r0, .L93
 689              	.L73:
 690              		.loc 1 194 0
 691 00f2 0120     		movs	r0, #1
 692              	.LVL72:
 693 00f4 FFF7FEFF 		bl	chThdSleep
 694              	.LVL73:
 695              		.loc 1 197 0
 696 00f8 0322     		movs	r2, #3
 697 00fa 2621     		movs	r1, #38
 698 00fc 2078     		ldrb	r0, [r4]	@ zero_extendqisi2
 699 00fe FFF7FEFF 		bl	write_reg
 700              	.LVL74:
 701 0102 58B1     		cbz	r0, .L76
 702              	.LBB82:
 703              	.LBB83:
 704              		.loc 1 23 0
 705 0104 2378     		ldrb	r3, [r4]	@ zero_extendqisi2
 706              		.loc 1 26 0
 707 0106 682B     		cmp	r3, #104
 708 0108 0CBF     		ite	eq
 709 010a 6923     		moveq	r3, #105
 710 010c 6823     		movne	r3, #104
 711              	.LBE83:
 712              	.LBE82:
 713              		.loc 1 199 0
 714 010e 1846     		mov	r0, r3
 715              	.LVL75:
 716 0110 0322     		movs	r2, #3
 717 0112 2621     		movs	r1, #38
 718 0114 2370     		strb	r3, [r4]
 719 0116 FFF7FEFF 		bl	write_reg
 720              	.LVL76:
 721 011a C0B9     		cbnz	r0, .L93
 722              	.L76:
 723              		.loc 1 203 0
 724 011c 0120     		movs	r0, #1
 725              	.LVL77:
 726 011e FFF7FEFF 		bl	chThdSleep
 727              	.LVL78:
 728              		.loc 1 210 0
 729 0122 8722     		movs	r2, #135
 730 0124 2721     		movs	r1, #39
 731 0126 2078     		ldrb	r0, [r4]	@ zero_extendqisi2
 732 0128 FFF7FEFF 		bl	write_reg
 733              	.LVL79:
 734 012c 58B1     		cbz	r0, .L79
 735              	.LBB84:
 736              	.LBB85:
 737              		.loc 1 23 0
 738 012e 2378     		ldrb	r3, [r4]	@ zero_extendqisi2
 739              		.loc 1 26 0
 740 0130 682B     		cmp	r3, #104
 741 0132 0CBF     		ite	eq
ARM GAS  C:\Users\mathi\AppData\Local\Temp\ccUG24Nm.s 			page 14


 742 0134 6923     		moveq	r3, #105
 743 0136 6823     		movne	r3, #104
 744              	.LBE85:
 745              	.LBE84:
 746              		.loc 1 212 0
 747 0138 1846     		mov	r0, r3
 748              	.LVL80:
 749 013a 8722     		movs	r2, #135
 750 013c 2721     		movs	r1, #39
 751 013e 2370     		strb	r3, [r4]
 752 0140 FFF7FEFF 		bl	write_reg
 753              	.LVL81:
 754 0144 18B9     		cbnz	r0, .L93
 755              	.L79:
 756              	.LVL82:
 757              		.loc 1 216 0
 758 0146 0120     		movs	r0, #1
 759 0148 FFF7FEFF 		bl	chThdSleep
 760              	.LVL83:
 761              		.loc 1 218 0
 762 014c 78E7     		b	.L60
 763              	.LVL84:
 764              	.L93:
 765 014e 0546     		mov	r5, r0
 766 0150 76E7     		b	.L60
 767              	.LVL85:
 768              	.L101:
 769              		.loc 1 219 0
 770 0152 FFF7FEFF 		bl	__stack_chk_fail
 771              	.LVL86:
 772              	.L103:
 773 0156 00BF     		.align	2
 774              	.L102:
 775 0158 00000000 		.word	__stack_chk_guard
 776 015c 00000000 		.word	.LANCHOR0
 777              		.cfi_endproc
 778              	.LFE260:
 779              		.size	mpu9250_magnetometer_setup, .-mpu9250_magnetometer_setup
 780              		.section	.text.mpu9250_ping,"ax",%progbits
 781              		.align	1
 782              		.p2align 4,,15
 783              		.global	mpu9250_ping
 784              		.syntax unified
 785              		.thumb
 786              		.thumb_func
 787              		.fpu fpv4-sp-d16
 788              		.type	mpu9250_ping, %function
 789              	mpu9250_ping:
 790              	.LFB261:
 791              		.loc 1 221 0
 792              		.cfi_startproc
 793              		@ args = 0, pretend = 0, frame = 8
 794              		@ frame_needed = 0, uses_anonymous_args = 0
 795 0000 70B5     		push	{r4, r5, r6, lr}
 796              		.cfi_def_cfa_offset 16
 797              		.cfi_offset 4, -16
 798              		.cfi_offset 5, -12
ARM GAS  C:\Users\mathi\AppData\Local\Temp\ccUG24Nm.s 			page 15


 799              		.cfi_offset 6, -8
 800              		.cfi_offset 14, -4
 801 0002 82B0     		sub	sp, sp, #8
 802              		.cfi_def_cfa_offset 24
 803              		.loc 1 222 0
 804 0004 02AC     		add	r4, sp, #8
 805 0006 0023     		movs	r3, #0
 806 0008 04F8053D 		strb	r3, [r4, #-5]!
 807              	.LVL87:
 808              		.loc 1 221 0
 809 000c 124E     		ldr	r6, .L114
 810              	.LBB92:
 811              	.LBB93:
 812              		.loc 1 41 0
 813 000e 134D     		ldr	r5, .L114+4
 814              	.LBE93:
 815              	.LBE92:
 816              		.loc 1 221 0
 817 0010 3368     		ldr	r3, [r6]
 818              	.LBB100:
 819              	.LBB98:
 820              		.loc 1 41 0
 821 0012 2878     		ldrb	r0, [r5]	@ zero_extendqisi2
 822              	.LBE98:
 823              	.LBE100:
 824              		.loc 1 221 0
 825 0014 0193     		str	r3, [sp, #4]
 826              	.LBB101:
 827              	.LBB99:
 828              		.loc 1 41 0
 829 0016 2246     		mov	r2, r4
 830 0018 7521     		movs	r1, #117
 831 001a FFF7FEFF 		bl	read_reg
 832              	.LVL88:
 833 001e 50B1     		cbz	r0, .L105
 834              	.LVL89:
 835              	.LBB94:
 836              	.LBB95:
 837              	.LBB96:
 838              	.LBB97:
 839              		.loc 1 23 0
 840 0020 2B78     		ldrb	r3, [r5]	@ zero_extendqisi2
 841              		.loc 1 26 0
 842 0022 682B     		cmp	r3, #104
 843 0024 0CBF     		ite	eq
 844 0026 6923     		moveq	r3, #105
 845 0028 6823     		movne	r3, #104
 846              	.LBE97:
 847              	.LBE96:
 848              		.loc 1 43 0
 849 002a 2246     		mov	r2, r4
 850 002c 1846     		mov	r0, r3
 851              	.LVL90:
 852 002e 7521     		movs	r1, #117
 853 0030 2B70     		strb	r3, [r5]
 854 0032 FFF7FEFF 		bl	read_reg
 855              	.LVL91:
ARM GAS  C:\Users\mathi\AppData\Local\Temp\ccUG24Nm.s 			page 16


 856              	.L105:
 857              	.LBE95:
 858              	.LBE94:
 859              	.LBE99:
 860              	.LBE101:
 861              		.loc 1 224 0
 862 0036 9DF80300 		ldrb	r0, [sp, #3]	@ zero_extendqisi2
 863              		.loc 1 225 0
 864 003a 019A     		ldr	r2, [sp, #4]
 865 003c 3368     		ldr	r3, [r6]
 866 003e A0F16800 		sub	r0, #104
 867 0042 B0FA80F0 		clz	r0, r0
 868 0046 9A42     		cmp	r2, r3
 869 0048 4FEA5010 		lsr	r0, r0, #5
 870 004c 01D1     		bne	.L113
 871 004e 02B0     		add	sp, sp, #8
 872              		.cfi_remember_state
 873              		.cfi_def_cfa_offset 16
 874              		@ sp needed
 875 0050 70BD     		pop	{r4, r5, r6, pc}
 876              	.L113:
 877              		.cfi_restore_state
 878 0052 FFF7FEFF 		bl	__stack_chk_fail
 879              	.LVL92:
 880              	.L115:
 881 0056 00BF     		.align	2
 882              	.L114:
 883 0058 00000000 		.word	__stack_chk_guard
 884 005c 00000000 		.word	.LANCHOR0
 885              		.cfi_endproc
 886              	.LFE261:
 887              		.size	mpu9250_ping, .-mpu9250_ping
 888              		.section	.text.mpu9250_read,"ax",%progbits
 889              		.align	1
 890              		.p2align 4,,15
 891              		.global	mpu9250_read
 892              		.syntax unified
 893              		.thumb
 894              		.thumb_func
 895              		.fpu fpv4-sp-d16
 896              		.type	mpu9250_read, %function
 897              	mpu9250_read:
 898              	.LFB262:
 899              		.loc 1 227 0
 900              		.cfi_startproc
 901              		@ args = 20, pretend = 0, frame = 24
 902              		@ frame_needed = 0, uses_anonymous_args = 0
 903              	.LVL93:
 904 0000 2DE9F04F 		push	{r4, r5, r6, r7, r8, r9, r10, fp, lr}
 905              		.cfi_def_cfa_offset 36
 906              		.cfi_offset 4, -36
 907              		.cfi_offset 5, -32
 908              		.cfi_offset 6, -28
 909              		.cfi_offset 7, -24
 910              		.cfi_offset 8, -20
 911              		.cfi_offset 9, -16
 912              		.cfi_offset 10, -12
ARM GAS  C:\Users\mathi\AppData\Local\Temp\ccUG24Nm.s 			page 17


 913              		.cfi_offset 11, -8
 914              		.cfi_offset 14, -4
 915 0004 87B0     		sub	sp, sp, #28
 916              		.cfi_def_cfa_offset 64
 917              		.loc 1 227 0
 918 0006 1E46     		mov	r6, r3
 919 0008 DDE912B3 		ldrd	fp, r3, [sp, #72]
 920              	.LVL94:
 921 000c DFF82892 		ldr	r9, .L140+28
 922              		.loc 1 231 0
 923 0010 DFF828A2 		ldr	r10, .L140+32
 924              		.loc 1 227 0
 925 0014 0393     		str	r3, [sp, #12]
 926 0016 149B     		ldr	r3, [sp, #80]
 927 0018 D9F80040 		ldr	r4, [r9]
 928 001c 0292     		str	r2, [sp, #8]
 929 001e 0746     		mov	r7, r0
 930 0020 8846     		mov	r8, r1
 931 0022 0193     		str	r3, [sp, #4]
 932              		.loc 1 231 0
 933 0024 9AF80000 		ldrb	r0, [r10]	@ zero_extendqisi2
 934              	.LVL95:
 935 0028 7C4A     		ldr	r2, .L140
 936              	.LVL96:
 937              		.loc 1 227 0
 938 002a 0594     		str	r4, [sp, #20]
 939              	.LVL97:
 940              		.loc 1 231 0
 941 002c 1623     		movs	r3, #22
 942 002e 3A21     		movs	r1, #58
 943              	.LVL98:
 944              		.loc 1 227 0
 945 0030 DDE91045 		ldrd	r4, r5, [sp, #64]
 946              		.loc 1 231 0
 947 0034 FFF7FEFF 		bl	read_reg_multi
 948              	.LVL99:
 949 0038 80B1     		cbz	r0, .L122
 950              	.LBB102:
 951              	.LBB103:
 952              		.loc 1 23 0
 953 003a 9AF80030 		ldrb	r3, [r10]	@ zero_extendqisi2
 954              	.LBE103:
 955              	.LBE102:
 956              		.loc 1 233 0
 957 003e 774A     		ldr	r2, .L140
 958              	.LBB105:
 959              	.LBB104:
 960              		.loc 1 26 0
 961 0040 682B     		cmp	r3, #104
 962 0042 0CBF     		ite	eq
 963 0044 6921     		moveq	r1, #105
 964 0046 6821     		movne	r1, #104
 965              	.LBE104:
 966              	.LBE105:
 967              		.loc 1 233 0
 968 0048 0846     		mov	r0, r1
 969              	.LVL100:
ARM GAS  C:\Users\mathi\AppData\Local\Temp\ccUG24Nm.s 			page 18


 970 004a 8AF80010 		strb	r1, [r10]
 971 004e 1623     		movs	r3, #22
 972 0050 3A21     		movs	r1, #58
 973 0052 FFF7FEFF 		bl	read_reg_multi
 974              	.LVL101:
 975 0056 0028     		cmp	r0, #0
 976 0058 40F0D480 		bne	.L121
 977              	.L122:
 978              		.loc 1 238 0
 979 005c 019B     		ldr	r3, [sp, #4]
 980 005e 1BB1     		cbz	r3, .L119
 981 0060 1A46     		mov	r2, r3
 982              		.loc 1 239 0
 983 0062 6E4B     		ldr	r3, .L140
 984 0064 1B78     		ldrb	r3, [r3]	@ zero_extendqisi2
 985 0066 1370     		strb	r3, [r2]
 986              	.L119:
 987              		.loc 1 241 0
 988 0068 B8F1000F 		cmp	r8, #0
 989 006c 4AD0     		beq	.L123
 990              	.LBB106:
 991              	.LBB107:
 992              		.loc 1 59 0
 993 006e 6B4A     		ldr	r2, .L140
 994              	.LBE107:
 995              	.LBE106:
 996              		.loc 1 246 0
 997 0070 9FED6B6A 		vldr.32	s12, .L140+4
 998              	.LBB110:
 999              	.LBB108:
 1000              		.loc 1 59 0
 1001 0074 92F90110 		ldrsb	r1, [r2, #1]
 1002 0078 9378     		ldrb	r3, [r2, #2]	@ zero_extendqisi2
 1003              	.LBE108:
 1004              	.LBE110:
 1005              		.loc 1 246 0
 1006 007a DFED6A6A 		vldr.32	s13, .L140+8
 1007              		.loc 1 250 0
 1008 007e DFED6A5A 		vldr.32	s11, .L140+12
 1009              	.LBB111:
 1010              	.LBB109:
 1011              		.loc 1 59 0
 1012 0082 43EA0123 		orr	r3, r3, r1, lsl #8
 1013              	.LBE109:
 1014              	.LBE111:
 1015              		.loc 1 243 0
 1016 0086 5B42     		negs	r3, r3
 1017 0088 1BB2     		sxth	r3, r3
 1018 008a 2B80     		strh	r3, [r5]	@ movhi
 1019              	.LBB112:
 1020              	.LBB113:
 1021              		.loc 1 59 0
 1022 008c 1179     		ldrb	r1, [r2, #4]	@ zero_extendqisi2
 1023 008e 92F90300 		ldrsb	r0, [r2, #3]
 1024              	.LVL102:
 1025 0092 41EA0021 		orr	r1, r1, r0, lsl #8
 1026              	.LBE113:
ARM GAS  C:\Users\mathi\AppData\Local\Temp\ccUG24Nm.s 			page 19


 1027              	.LBE112:
 1028              		.loc 1 244 0
 1029 0096 4942     		negs	r1, r1
 1030 0098 6980     		strh	r1, [r5, #2]	@ movhi
 1031              	.LBB114:
 1032              	.LBB115:
 1033              		.loc 1 59 0
 1034 009a 92F90510 		ldrsb	r1, [r2, #5]
 1035 009e 9279     		ldrb	r2, [r2, #6]	@ zero_extendqisi2
 1036 00a0 42EA0122 		orr	r2, r2, r1, lsl #8
 1037              	.LBE115:
 1038              	.LBE114:
 1039              		.loc 1 245 0
 1040 00a4 5242     		negs	r2, r2
 1041              		.loc 1 246 0
 1042 00a6 0399     		ldr	r1, [sp, #12]
 1043              		.loc 1 245 0
 1044 00a8 AA80     		strh	r2, [r5, #4]	@ movhi
 1045              		.loc 1 246 0
 1046 00aa B1F90020 		ldrsh	r2, [r1]
 1047 00ae 9B1A     		subs	r3, r3, r2
 1048 00b0 07EE103A 		vmov	s14, r3	@ int
 1049 00b4 B8EEC77A 		vcvt.f32.s32	s14, s14
 1050 00b8 27EE067A 		vmul.f32	s14, s14, s12
 1051 00bc 27EE267A 		vmul.f32	s14, s14, s13
 1052 00c0 88ED007A 		vstr.32	s14, [r8]
 1053              		.loc 1 247 0
 1054 00c4 B1F90220 		ldrsh	r2, [r1, #2]
 1055 00c8 B5F90230 		ldrsh	r3, [r5, #2]
 1056 00cc 9B1A     		subs	r3, r3, r2
 1057 00ce 07EE103A 		vmov	s14, r3	@ int
 1058 00d2 B8EEC77A 		vcvt.f32.s32	s14, s14
 1059 00d6 27EE067A 		vmul.f32	s14, s14, s12
 1060 00da 27EE267A 		vmul.f32	s14, s14, s13
 1061 00de 88ED017A 		vstr.32	s14, [r8, #4]
 1062              		.loc 1 250 0
 1063 00e2 B5F90430 		ldrsh	r3, [r5, #4]
 1064 00e6 B1F90420 		ldrsh	r2, [r1, #4]
 1065 00ea 9B1A     		subs	r3, r3, r2
 1066 00ec 07EE903A 		vmov	s15, r3	@ int
 1067 00f0 F8EEE77A 		vcvt.f32.s32	s15, s15
 1068 00f4 77EEE57A 		vsub.f32	s15, s15, s11
 1069 00f8 67EE867A 		vmul.f32	s15, s15, s12
 1070 00fc 67EEA67A 		vmul.f32	s15, s15, s13
 1071 0100 C8ED027A 		vstr.32	s15, [r8, #8]
 1072              	.L123:
 1073              		.loc 1 252 0
 1074 0104 0298     		ldr	r0, [sp, #8]
 1075 0106 A8B1     		cbz	r0, .L124
 1076              	.LBB116:
 1077              	.LBB117:
 1078              		.loc 1 59 0
 1079 0108 444A     		ldr	r2, .L140
 1080              	.LBE117:
 1081              	.LBE116:
 1082              		.loc 1 253 0
 1083 010a 9FED486A 		vldr.32	s12, .L140+16
ARM GAS  C:\Users\mathi\AppData\Local\Temp\ccUG24Nm.s 			page 20


 1084              	.LBB119:
 1085              	.LBB118:
 1086              		.loc 1 59 0
 1087 010e 92F90710 		ldrsb	r1, [r2, #7]
 1088 0112 137A     		ldrb	r3, [r2, #8]	@ zero_extendqisi2
 1089 0114 43EA0123 		orr	r3, r3, r1, lsl #8
 1090 0118 07EE903A 		vmov	s15, r3	@ int
 1091              	.LBE118:
 1092              	.LBE119:
 1093              		.loc 1 253 0
 1094 011c F8EEE77A 		vcvt.f32.s32	s15, s15
 1095 0120 F3EE056A 		vmov.f32	s13, #2.1e+1
 1096 0124 77EEE67A 		vsub.f32	s15, s15, s13
 1097 0128 87EE867A 		vdiv.f32	s14, s15, s12
 1098 012c 77EE267A 		vadd.f32	s15, s14, s13
 1099 0130 C0ED007A 		vstr.32	s15, [r0]
 1100              	.L124:
 1101              		.loc 1 255 0
 1102 0134 002F     		cmp	r7, #0
 1103 0136 39D0     		beq	.L125
 1104              	.LBB120:
 1105              	.LBB121:
 1106              		.loc 1 59 0
 1107 0138 384A     		ldr	r2, .L140
 1108              	.LBE121:
 1109              	.LBE120:
 1110              		.loc 1 259 0
 1111 013a DFED3D6A 		vldr.32	s13, .L140+20
 1112              	.LBB123:
 1113              	.LBB122:
 1114              		.loc 1 59 0
 1115 013e 92F90910 		ldrsb	r1, [r2, #9]
 1116 0142 937A     		ldrb	r3, [r2, #10]	@ zero_extendqisi2
 1117              	.LBE122:
 1118              	.LBE123:
 1119              		.loc 1 256 0
 1120 0144 43EA0123 		orr	r3, r3, r1, lsl #8
 1121 0148 2380     		strh	r3, [r4]	@ movhi
 1122              	.LBB124:
 1123              	.LBB125:
 1124              		.loc 1 59 0
 1125 014a 92F90B00 		ldrsb	r0, [r2, #11]
 1126 014e 117B     		ldrb	r1, [r2, #12]	@ zero_extendqisi2
 1127 0150 41EA0021 		orr	r1, r1, r0, lsl #8
 1128              	.LBE125:
 1129              	.LBE124:
 1130              		.loc 1 257 0
 1131 0154 6180     		strh	r1, [r4, #2]	@ movhi
 1132              	.LBB126:
 1133              	.LBB127:
 1134              		.loc 1 59 0
 1135 0156 92F90D10 		ldrsb	r1, [r2, #13]
 1136 015a 927B     		ldrb	r2, [r2, #14]	@ zero_extendqisi2
 1137 015c 42EA0122 		orr	r2, r2, r1, lsl #8
 1138              	.LBE127:
 1139              	.LBE126:
 1140              		.loc 1 258 0
ARM GAS  C:\Users\mathi\AppData\Local\Temp\ccUG24Nm.s 			page 21


 1141 0160 A280     		strh	r2, [r4, #4]	@ movhi
 1142              		.loc 1 259 0
 1143 0162 BBF90020 		ldrsh	r2, [fp]
 1144 0166 9B1A     		subs	r3, r3, r2
 1145 0168 07EE903A 		vmov	s15, r3	@ int
 1146 016c F8EEE77A 		vcvt.f32.s32	s15, s15
 1147 0170 67EEA67A 		vmul.f32	s15, s15, s13
 1148 0174 C7ED007A 		vstr.32	s15, [r7]
 1149              		.loc 1 260 0
 1150 0178 BBF90220 		ldrsh	r2, [fp, #2]
 1151 017c B4F90230 		ldrsh	r3, [r4, #2]
 1152 0180 9B1A     		subs	r3, r3, r2
 1153 0182 07EE103A 		vmov	s14, r3	@ int
 1154 0186 B8EEC77A 		vcvt.f32.s32	s14, s14
 1155 018a 27EE267A 		vmul.f32	s14, s14, s13
 1156 018e 87ED017A 		vstr.32	s14, [r7, #4]
 1157              		.loc 1 261 0
 1158 0192 B4F90430 		ldrsh	r3, [r4, #4]
 1159 0196 BBF90420 		ldrsh	r2, [fp, #4]
 1160 019a 9B1A     		subs	r3, r3, r2
 1161 019c 07EE903A 		vmov	s15, r3	@ int
 1162 01a0 F8EEE77A 		vcvt.f32.s32	s15, s15
 1163 01a4 67EEA67A 		vmul.f32	s15, s15, s13
 1164 01a8 C7ED027A 		vstr.32	s15, [r7, #8]
 1165              	.L125:
 1166              		.loc 1 264 0
 1167 01ac 96B3     		cbz	r6, .L128
 1168              		.loc 1 265 0
 1169 01ae 1B4A     		ldr	r2, .L140
 1170 01b0 DFED206A 		vldr.32	s13, .L140+24
 1171 01b4 92F91010 		ldrsb	r1, [r2, #16]
 1172 01b8 D37B     		ldrb	r3, [r2, #15]	@ zero_extendqisi2
 1173 01ba 43EA0123 		orr	r3, r3, r1, lsl #8
 1174 01be 07EE103A 		vmov	s14, r3	@ int
 1175 01c2 B8EEC77A 		vcvt.f32.s32	s14, s14
 1176              		.loc 1 270 0
 1177 01c6 0020     		movs	r0, #0
 1178              		.loc 1 265 0
 1179 01c8 27EE267A 		vmul.f32	s14, s14, s13
 1180 01cc 86ED007A 		vstr.32	s14, [r6]
 1181              		.loc 1 266 0
 1182 01d0 92F91210 		ldrsb	r1, [r2, #18]
 1183 01d4 537C     		ldrb	r3, [r2, #17]	@ zero_extendqisi2
 1184 01d6 43EA0123 		orr	r3, r3, r1, lsl #8
 1185 01da 07EE103A 		vmov	s14, r3	@ int
 1186 01de B8EEC77A 		vcvt.f32.s32	s14, s14
 1187 01e2 27EE267A 		vmul.f32	s14, s14, s13
 1188 01e6 86ED017A 		vstr.32	s14, [r6, #4]
 1189              		.loc 1 267 0
 1190 01ea 92F91410 		ldrsb	r1, [r2, #20]
 1191 01ee D37C     		ldrb	r3, [r2, #19]	@ zero_extendqisi2
 1192 01f0 43EA0123 		orr	r3, r3, r1, lsl #8
 1193 01f4 07EE903A 		vmov	s15, r3	@ int
 1194 01f8 F8EEE77A 		vcvt.f32.s32	s15, s15
 1195 01fc 67EEA67A 		vmul.f32	s15, s15, s13
 1196 0200 C6ED027A 		vstr.32	s15, [r6, #8]
 1197              	.L121:
ARM GAS  C:\Users\mathi\AppData\Local\Temp\ccUG24Nm.s 			page 22


 1198              		.loc 1 271 0
 1199 0204 059A     		ldr	r2, [sp, #20]
 1200 0206 D9F80030 		ldr	r3, [r9]
 1201 020a 9A42     		cmp	r2, r3
 1202 020c 04D1     		bne	.L139
 1203 020e 07B0     		add	sp, sp, #28
 1204              		.cfi_remember_state
 1205              		.cfi_def_cfa_offset 36
 1206              		@ sp needed
 1207 0210 BDE8F08F 		pop	{r4, r5, r6, r7, r8, r9, r10, fp, pc}
 1208              	.LVL103:
 1209              	.L128:
 1210              		.cfi_restore_state
 1211              		.loc 1 270 0
 1212 0214 3046     		mov	r0, r6
 1213 0216 F5E7     		b	.L121
 1214              	.L139:
 1215              		.loc 1 271 0
 1216 0218 FFF7FEFF 		bl	__stack_chk_fail
 1217              	.LVL104:
 1218              	.L141:
 1219              		.align	2
 1220              	.L140:
 1221 021c 00000000 		.word	.LANCHOR1
 1222 0220 0AE81C41 		.word	1092413450
 1223 0224 00008038 		.word	947912704
 1224 0228 00008046 		.word	1182793728
 1225 022c 5CEFA643 		.word	1135013724
 1226 0230 58A00B39 		.word	957063256
 1227 0234 0000163E 		.word	1041629184
 1228 0238 00000000 		.word	__stack_chk_guard
 1229 023c 00000000 		.word	.LANCHOR0
 1230              		.cfi_endproc
 1231              	.LFE262:
 1232              		.size	mpu9250_read, .-mpu9250_read
 1233              		.section	.bss.buf.10621,"aw",%nobits
 1234              		.align	2
 1235              		.set	.LANCHOR1,. + 0
 1236              		.type	buf.10621, %object
 1237              		.size	buf.10621, 22
 1238              	buf.10621:
 1239 0000 00000000 		.space	22
 1239      00000000 
 1239      00000000 
 1239      00000000 
 1239      00000000 
 1240              		.section	.data.imu_addr,"aw",%progbits
 1241              		.set	.LANCHOR0,. + 0
 1242              		.type	imu_addr, %object
 1243              		.size	imu_addr, 1
 1244              	imu_addr:
 1245 0000 68       		.byte	104
 1246              		.text
 1247              	.Letext0:
 1248              		.file 2 "c:\\eclipse_e-puck2\\tools\\gcc-arm-none-eabi-7-2017-q4-major-win32\\arm-none-eabi\\inclu
 1249              		.file 3 "c:\\eclipse_e-puck2\\tools\\gcc-arm-none-eabi-7-2017-q4-major-win32\\arm-none-eabi\\inclu
 1250              		.file 4 "c:\\eclipse_e-puck2\\tools\\gcc-arm-none-eabi-7-2017-q4-major-win32\\lib\\gcc\\arm-none-e
ARM GAS  C:\Users\mathi\AppData\Local\Temp\ccUG24Nm.s 			page 23


 1251              		.file 5 "c:\\eclipse_e-puck2\\tools\\gcc-arm-none-eabi-7-2017-q4-major-win32\\arm-none-eabi\\inclu
 1252              		.file 6 "c:\\eclipse_e-puck2\\tools\\gcc-arm-none-eabi-7-2017-q4-major-win32\\arm-none-eabi\\inclu
 1253              		.file 7 "c:\\eclipse_e-puck2\\tools\\gcc-arm-none-eabi-7-2017-q4-major-win32\\arm-none-eabi\\inclu
 1254              		.file 8 "c:\\eclipse_e-puck2\\tools\\gcc-arm-none-eabi-7-2017-q4-major-win32\\arm-none-eabi\\inclu
 1255              		.file 9 "../../lib/e-puck2_main-processor/ChibiOS//os/rt/ports/ARMCMx/compilers/GCC/chtypes.h"
 1256              		.file 10 "../../lib/e-puck2_main-processor/ChibiOS//os/rt/include/chsystypes.h"
 1257              		.file 11 "../../lib/e-puck2_main-processor/ChibiOS//os/rt/include/chschd.h"
 1258              		.file 12 "../../lib/e-puck2_main-processor/ChibiOS//os/ext/CMSIS/include/core_cm4.h"
 1259              		.file 13 "../../lib/e-puck2_main-processor/ChibiOS//os/ext/CMSIS/ST/system_stm32f4xx.h"
 1260              		.file 14 "../../lib/e-puck2_main-processor/ChibiOS//os/ext/CMSIS/ST/stm32f407xx.h"
 1261              		.file 15 "../../lib/e-puck2_main-processor/ChibiOS//os/rt/ports/ARMCMx/chcore.h"
 1262              		.file 16 "../../lib/e-puck2_main-processor/ChibiOS//os/rt/ports/ARMCMx/chcore_v7m.h"
 1263              		.file 17 "../../lib/e-puck2_main-processor/ChibiOS//os/rt/include/chdebug.h"
 1264              		.file 18 "../../lib/e-puck2_main-processor/ChibiOS//os/rt/include/chtm.h"
 1265              		.file 19 "../../lib/e-puck2_main-processor/ChibiOS//os/rt/include/chstats.h"
 1266              		.file 20 "../../lib/e-puck2_main-processor/ChibiOS//os/rt/include/chsem.h"
 1267              		.file 21 "../../lib/e-puck2_main-processor/ChibiOS//os/rt/include/chmtx.h"
 1268              		.file 22 "../../lib/e-puck2_main-processor/ChibiOS//os/rt/include/chregistry.h"
 1269              		.file 23 "../../lib/e-puck2_main-processor/ChibiOS//os/rt/include/chevents.h"
 1270              		.file 24 "../../lib/e-puck2_main-processor/ChibiOS//os/rt/include/chqueues.h"
 1271              		.file 25 "../../lib/e-puck2_main-processor/ChibiOS//os/hal/ports/STM32/STM32F4xx/stm32_dma.h"
 1272              		.file 26 "../../lib/e-puck2_main-processor/ChibiOS//os/hal/include/hal_ioblock.h"
 1273              		.file 27 "../../lib/e-puck2_main-processor/ChibiOS//os/hal/ports/STM32/LLD/GPIOv2/pal_lld.h"
 1274              		.file 28 "../../lib/e-puck2_main-processor/ChibiOS//os/hal/include/adc.h"
 1275              		.file 29 "../../lib/e-puck2_main-processor/ChibiOS//os/hal/ports/STM32/STM32F4xx/adc_lld.h"
 1276              		.file 30 "../../lib/e-puck2_main-processor/ChibiOS//os/hal/include/can.h"
 1277              		.file 31 "../../lib/e-puck2_main-processor/ChibiOS//os/hal/ports/STM32/LLD/can_lld.h"
 1278              		.file 32 "../../lib/e-puck2_main-processor/ChibiOS//os/hal/include/dac.h"
 1279              		.file 33 "../../lib/e-puck2_main-processor/ChibiOS//os/hal/ports/STM32/LLD/DACv1/dac_lld.h"
 1280              		.file 34 "../../lib/e-puck2_main-processor/ChibiOS//os/hal/include/ext.h"
 1281              		.file 35 "../../lib/e-puck2_main-processor/ChibiOS//os/hal/ports/STM32/LLD/ext_lld.h"
 1282              		.file 36 "../../lib/e-puck2_main-processor/ChibiOS//os/hal/include/gpt.h"
 1283              		.file 37 "../../lib/e-puck2_main-processor/ChibiOS//os/hal/ports/STM32/LLD/TIMv1/gpt_lld.h"
 1284              		.file 38 "../../lib/e-puck2_main-processor/ChibiOS//os/hal/ports/STM32/LLD/TIMv1/stm32_tim.h"
 1285              		.file 39 "../../lib/e-puck2_main-processor/ChibiOS//os/hal/include/i2c.h"
 1286              		.file 40 "../../lib/e-puck2_main-processor/ChibiOS//os/hal/ports/STM32/LLD/I2Cv1/i2c_lld.h"
 1287              		.file 41 "../../lib/e-puck2_main-processor/ChibiOS//os/hal/include/i2s.h"
 1288              		.file 42 "../../lib/e-puck2_main-processor/ChibiOS//os/hal/ports/STM32/LLD/SPIv1/i2s_lld.h"
 1289              		.file 43 "../../lib/e-puck2_main-processor/ChibiOS//os/hal/include/pwm.h"
 1290              		.file 44 "../../lib/e-puck2_main-processor/ChibiOS//os/hal/ports/STM32/LLD/TIMv1/pwm_lld.h"
 1291              		.file 45 "../../lib/e-puck2_main-processor/ChibiOS//os/hal/include/serial.h"
 1292              		.file 46 "../../lib/e-puck2_main-processor/ChibiOS//os/hal/ports/STM32/LLD/USARTv1/serial_lld.h"
 1293              		.file 47 "../../lib/e-puck2_main-processor/ChibiOS//os/hal/include/sdc.h"
 1294              		.file 48 "../../lib/e-puck2_main-processor/ChibiOS//os/hal/ports/STM32/LLD/sdc_lld.h"
 1295              		.file 49 "../../lib/e-puck2_main-processor/ChibiOS//os/hal/include/spi.h"
 1296              		.file 50 "../../lib/e-puck2_main-processor/ChibiOS//os/hal/ports/STM32/LLD/SPIv1/spi_lld.h"
 1297              		.file 51 "../../lib/e-puck2_main-processor/ChibiOS//os/hal/include/usb.h"
 1298              		.file 52 "../../lib/e-puck2_main-processor/ChibiOS//os/hal/ports/STM32/LLD/OTGv1/usb_lld.h"
 1299              		.file 53 "../../lib/e-puck2_main-processor/ChibiOS//os/hal/ports/STM32/LLD/OTGv1/stm32_otg.h"
 1300              		.file 54 "../../lib/e-puck2_main-processor/src/sensors/mpu9250.h"
 1301              		.file 55 "../../lib/e-puck2_main-processor/src/sensors/../i2c_bus.h"
 1302              		.file 56 "../../lib/e-puck2_main-processor/ChibiOS//os/rt/include/chthreads.h"