ARM GAS  C:\Users\mathi\AppData\Local\Temp\cc63fcQp.s 			page 1


   1              		.cpu cortex-m4
   2              		.eabi_attribute 27, 1
   3              		.eabi_attribute 28, 1
   4              		.eabi_attribute 20, 1
   5              		.eabi_attribute 21, 1
   6              		.eabi_attribute 23, 3
   7              		.eabi_attribute 24, 1
   8              		.eabi_attribute 25, 1
   9              		.eabi_attribute 26, 1
  10              		.eabi_attribute 30, 2
  11              		.eabi_attribute 34, 1
  12              		.eabi_attribute 18, 4
  13              		.file	"parameter_msgpack.c"
  14              		.text
  15              	.Ltext0:
  16              		.cfi_sections	.debug_frame
  17              		.section	.text.err_ignore_cb,"ax",%progbits
  18              		.align	1
  19              		.p2align 4,,15
  20              		.syntax unified
  21              		.thumb
  22              		.thumb_func
  23              		.fpu fpv4-sp-d16
  24              		.type	err_ignore_cb, %function
  25              	err_ignore_cb:
  26              	.LFB263:
  27              		.file 1 "../../lib/e-puck2_main-processor/src/parameter/parameter_msgpack.c"
  28              		.loc 1 372 0
  29              		.cfi_startproc
  30              		@ args = 0, pretend = 0, frame = 8
  31              		@ frame_needed = 0, uses_anonymous_args = 0
  32              	.LVL0:
  33 0000 00B5     		push	{lr}
  34              		.cfi_def_cfa_offset 4
  35              		.cfi_offset 14, -4
  36 0002 064B     		ldr	r3, .L6
  37 0004 83B0     		sub	sp, sp, #12
  38              		.cfi_def_cfa_offset 16
  39              		.loc 1 372 0
  40 0006 1A68     		ldr	r2, [r3]
  41              	.LVL1:
  42 0008 0192     		str	r2, [sp, #4]
  43              		.loc 1 376 0
  44 000a 019A     		ldr	r2, [sp, #4]
  45 000c 1B68     		ldr	r3, [r3]
  46 000e 9A42     		cmp	r2, r3
  47 0010 02D1     		bne	.L5
  48 0012 03B0     		add	sp, sp, #12
  49              		.cfi_remember_state
  50              		.cfi_def_cfa_offset 4
  51              		@ sp needed
  52 0014 5DF804FB 		ldr	pc, [sp], #4
  53              	.L5:
  54              		.cfi_restore_state
  55 0018 FFF7FEFF 		bl	__stack_chk_fail
  56              	.LVL2:
  57              	.L7:
ARM GAS  C:\Users\mathi\AppData\Local\Temp\cc63fcQp.s 			page 2


  58              		.align	2
  59              	.L6:
  60 001c 00000000 		.word	__stack_chk_guard
  61              		.cfi_endproc
  62              	.LFE263:
  63              		.size	err_ignore_cb, .-err_ignore_cb
  64              		.section	.text.parameter_msgpack_write_subtree.isra.6,"ax",%progbits
  65              		.align	1
  66              		.p2align 4,,15
  67              		.syntax unified
  68              		.thumb
  69              		.thumb_func
  70              		.fpu fpv4-sp-d16
  71              		.type	parameter_msgpack_write_subtree.isra.6, %function
  72              	parameter_msgpack_write_subtree.isra.6:
  73              	.LFB275:
  74              		.loc 1 409 0
  75              		.cfi_startproc
  76              		@ args = 4, pretend = 0, frame = 8
  77              		@ frame_needed = 0, uses_anonymous_args = 0
  78              	.LVL3:
  79 0000 2DE9F04F 		push	{r4, r5, r6, r7, r8, r9, r10, fp, lr}
  80              		.cfi_def_cfa_offset 36
  81              		.cfi_offset 4, -36
  82              		.cfi_offset 5, -32
  83              		.cfi_offset 6, -28
  84              		.cfi_offset 7, -24
  85              		.cfi_offset 8, -20
  86              		.cfi_offset 9, -16
  87              		.cfi_offset 10, -12
  88              		.cfi_offset 11, -8
  89              		.cfi_offset 14, -4
  90 0004 DFF89091 		ldr	r9, .L54+4
  91 0008 85B0     		sub	sp, sp, #20
  92              		.cfi_def_cfa_offset 56
  93              		.loc 1 409 0
  94 000a 0546     		mov	r5, r0
  95              		.loc 1 421 0
  96 000c 0068     		ldr	r0, [r0]
  97              		.loc 1 409 0
  98 000e D9F80040 		ldr	r4, [r9]
  99 0012 0394     		str	r4, [sp, #12]
 100              	.LVL4:
 101 0014 1646     		mov	r6, r2
 102 0016 0C46     		mov	r4, r1
 103 0018 1F46     		mov	r7, r3
 104 001a DDF83880 		ldr	r8, [sp, #56]
 105              		.loc 1 421 0
 106 001e 0028     		cmp	r0, #0
 107 0020 00F0B380 		beq	.L31
 108              		.loc 1 414 0
 109 0024 0021     		movs	r1, #0
 110              	.LVL5:
 111              	.L10:
 112              		.loc 1 421 0
 113 0026 0069     		ldr	r0, [r0, #16]
 114              	.LVL6:
ARM GAS  C:\Users\mathi\AppData\Local\Temp\cc63fcQp.s 			page 3


 115              		.loc 1 422 0
 116 0028 0131     		adds	r1, r1, #1
 117              	.LVL7:
 118              		.loc 1 421 0
 119 002a 0028     		cmp	r0, #0
 120 002c FBD1     		bne	.L10
 121              	.LVL8:
 122              	.L9:
 123              		.loc 1 425 0
 124 002e 2368     		ldr	r3, [r4]
 125              	.LVL9:
 126 0030 2BB1     		cbz	r3, .L11
 127              	.LVL10:
 128              	.L13:
 129              		.loc 1 426 0
 130 0032 5A7B     		ldrb	r2, [r3, #13]	@ zero_extendqisi2
 131 0034 02B1     		cbz	r2, .L12
 132              		.loc 1 427 0
 133 0036 0131     		adds	r1, r1, #1
 134              	.LVL11:
 135              	.L12:
 136              		.loc 1 425 0
 137 0038 9B68     		ldr	r3, [r3, #8]
 138              	.LVL12:
 139 003a 002B     		cmp	r3, #0
 140 003c F9D1     		bne	.L13
 141              	.L11:
 142              		.loc 1 431 0
 143 003e 3046     		mov	r0, r6
 144              	.LVL13:
 145 0040 FFF7FEFF 		bl	cmp_write_map
 146              	.LVL14:
 147              		.loc 1 434 0
 148 0044 2D68     		ldr	r5, [r5]
 149              	.LVL15:
 150 0046 B5B1     		cbz	r5, .L14
 151              	.L15:
 152              		.loc 1 435 0
 153 0048 AA46     		mov	r10, r5
 154 004a 5AF814BB 		ldr	fp, [r10], #20
 155 004e 5846     		mov	r0, fp
 156 0050 FFF7FEFF 		bl	strlen
 157              	.LVL16:
 158 0054 5946     		mov	r1, fp
 159 0056 0246     		mov	r2, r0
 160 0058 3046     		mov	r0, r6
 161 005a FFF7FEFF 		bl	cmp_write_str
 162              	.LVL17:
 163              		.loc 1 436 0
 164 005e 05F10C00 		add	r0, r5, #12
 165 0062 5146     		mov	r1, r10
 166 0064 CDF80080 		str	r8, [sp]
 167 0068 3B46     		mov	r3, r7
 168 006a 3246     		mov	r2, r6
 169 006c FFF7C8FF 		bl	parameter_msgpack_write_subtree.isra.6
 170              	.LVL18:
 171              		.loc 1 434 0
ARM GAS  C:\Users\mathi\AppData\Local\Temp\cc63fcQp.s 			page 4


 172 0070 2D69     		ldr	r5, [r5, #16]
 173              	.LVL19:
 174 0072 002D     		cmp	r5, #0
 175 0074 E8D1     		bne	.L15
 176              	.L14:
 177              		.loc 1 440 0
 178 0076 2468     		ldr	r4, [r4]
 179              	.LVL20:
 180 0078 002C     		cmp	r4, #0
 181 007a 37D0     		beq	.L8
 182              		.loc 1 484 0
 183 007c DFF81CA1 		ldr	r10, .L54+8
 184              	.LVL21:
 185              	.L29:
 186              		.loc 1 443 0
 187 0080 637B     		ldrb	r3, [r4, #13]	@ zero_extendqisi2
 188 0082 83B3     		cbz	r3, .L18
 189              		.loc 1 447 0
 190 0084 A37B     		ldrb	r3, [r4, #14]	@ zero_extendqisi2
 191 0086 2568     		ldr	r5, [r4]
 192 0088 013B     		subs	r3, r3, #1
 193 008a 052B     		cmp	r3, #5
 194 008c 78D8     		bhi	.L19
 195 008e DFE803F0 		tbb	[pc, r3]
 196              	.L21:
 197 0092 66       		.byte	(.L20-.L21)/2
 198 0093 56       		.byte	(.L22-.L21)/2
 199 0094 46       		.byte	(.L23-.L21)/2
 200 0095 35       		.byte	(.L24-.L21)/2
 201 0096 03       		.byte	(.L25-.L21)/2
 202 0097 03       		.byte	(.L25-.L21)/2
 203              		.p2align 1
 204              	.L25:
 205              		.loc 1 471 0
 206 0098 2846     		mov	r0, r5
 207 009a FFF7FEFF 		bl	strlen
 208              	.LVL22:
 209 009e 2946     		mov	r1, r5
 210 00a0 0246     		mov	r2, r0
 211 00a2 3046     		mov	r0, r6
 212 00a4 FFF7FEFF 		bl	cmp_write_str
 213              	.LVL23:
 214              		.loc 1 472 0
 215 00a8 E18A     		ldrh	r1, [r4, #22]
 216              		.loc 1 471 0
 217 00aa 0546     		mov	r5, r0
 218              	.LVL24:
 219              		.loc 1 472 0
 220 00ac 3046     		mov	r0, r6
 221 00ae FFF7FEFF 		bl	cmp_write_array
 222              	.LVL25:
 223              		.loc 1 473 0
 224 00b2 E38A     		ldrh	r3, [r4, #22]
 225 00b4 0540     		ands	r5, r5, r0
 226              	.LVL26:
 227 00b6 EDB2     		uxtb	r5, r5
 228              	.LVL27:
ARM GAS  C:\Users\mathi\AppData\Local\Temp\cc63fcQp.s 			page 5


 229 00b8 83B1     		cbz	r3, .L26
 230 00ba 4FF0000B 		mov	fp, #0
 231              	.LVL28:
 232              	.L27:
 233              		.loc 1 474 0
 234 00be 2269     		ldr	r2, [r4, #16]
 235 00c0 02EB8B02 		add	r2, r2, fp, lsl #2
 236 00c4 92ED000A 		vldr.32	s0, [r2]
 237 00c8 3046     		mov	r0, r6
 238 00ca FFF7FEFF 		bl	cmp_write_float
 239              	.LVL29:
 240              		.loc 1 473 0
 241 00ce E28A     		ldrh	r2, [r4, #22]
 242 00d0 0BF1010B 		add	fp, fp, #1
 243              	.LVL30:
 244 00d4 9345     		cmp	fp, r2
 245 00d6 05EA0005 		and	r5, r5, r0
 246              	.LVL31:
 247 00da F0D3     		bcc	.L27
 248              	.LVL32:
 249              	.L26:
 250              		.loc 1 483 0
 251 00dc 1DB9     		cbnz	r5, .L18
 252              		.loc 1 484 0
 253 00de 5246     		mov	r2, r10
 254 00e0 2168     		ldr	r1, [r4]
 255 00e2 4046     		mov	r0, r8
 256 00e4 B847     		blx	r7
 257              	.LVL33:
 258              	.L18:
 259              		.loc 1 440 0
 260 00e6 A468     		ldr	r4, [r4, #8]
 261              	.LVL34:
 262 00e8 002C     		cmp	r4, #0
 263 00ea C9D1     		bne	.L29
 264              	.L8:
 265              		.loc 1 487 0
 266 00ec 039A     		ldr	r2, [sp, #12]
 267 00ee D9F80030 		ldr	r3, [r9]
 268 00f2 9A42     		cmp	r2, r3
 269 00f4 4BD1     		bne	.L53
 270 00f6 05B0     		add	sp, sp, #20
 271              		.cfi_remember_state
 272              		.cfi_def_cfa_offset 36
 273              		@ sp needed
 274 00f8 BDE8F08F 		pop	{r4, r5, r6, r7, r8, r9, r10, fp, pc}
 275              	.LVL35:
 276              	.L24:
 277              		.cfi_restore_state
 278              		.loc 1 464 0
 279 00fc 2846     		mov	r0, r5
 280 00fe FFF7FEFF 		bl	strlen
 281              	.LVL36:
 282 0102 2946     		mov	r1, r5
 283 0104 0246     		mov	r2, r0
 284 0106 3046     		mov	r0, r6
 285 0108 FFF7FEFF 		bl	cmp_write_str
ARM GAS  C:\Users\mathi\AppData\Local\Temp\cc63fcQp.s 			page 6


 286              	.LVL37:
 287              		.loc 1 465 0
 288 010c E28A     		ldrh	r2, [r4, #22]
 289 010e 2169     		ldr	r1, [r4, #16]
 290              		.loc 1 464 0
 291 0110 0546     		mov	r5, r0
 292              	.LVL38:
 293              		.loc 1 465 0
 294 0112 3046     		mov	r0, r6
 295 0114 FFF7FEFF 		bl	cmp_write_str
 296              	.LVL39:
 297 0118 0540     		ands	r5, r5, r0
 298              	.LVL40:
 299 011a EDB2     		uxtb	r5, r5
 300              	.LVL41:
 301 011c DEE7     		b	.L26
 302              	.LVL42:
 303              	.L23:
 304              		.loc 1 454 0
 305 011e 2846     		mov	r0, r5
 306 0120 FFF7FEFF 		bl	strlen
 307              	.LVL43:
 308 0124 2946     		mov	r1, r5
 309 0126 0246     		mov	r2, r0
 310 0128 3046     		mov	r0, r6
 311 012a FFF7FEFF 		bl	cmp_write_str
 312              	.LVL44:
 313              		.loc 1 455 0
 314 012e 2169     		ldr	r1, [r4, #16]
 315              		.loc 1 454 0
 316 0130 0546     		mov	r5, r0
 317              	.LVL45:
 318              		.loc 1 455 0
 319 0132 3046     		mov	r0, r6
 320 0134 FFF7FEFF 		bl	cmp_write_s32
 321              	.LVL46:
 322 0138 0540     		ands	r5, r5, r0
 323              	.LVL47:
 324 013a EDB2     		uxtb	r5, r5
 325              	.LVL48:
 326 013c CEE7     		b	.L26
 327              	.LVL49:
 328              	.L22:
 329              		.loc 1 459 0
 330 013e 2846     		mov	r0, r5
 331 0140 FFF7FEFF 		bl	strlen
 332              	.LVL50:
 333 0144 2946     		mov	r1, r5
 334 0146 0246     		mov	r2, r0
 335 0148 3046     		mov	r0, r6
 336 014a FFF7FEFF 		bl	cmp_write_str
 337              	.LVL51:
 338              		.loc 1 460 0
 339 014e 217C     		ldrb	r1, [r4, #16]	@ zero_extendqisi2
 340              		.loc 1 459 0
 341 0150 0546     		mov	r5, r0
 342              	.LVL52:
ARM GAS  C:\Users\mathi\AppData\Local\Temp\cc63fcQp.s 			page 7


 343              		.loc 1 460 0
 344 0152 3046     		mov	r0, r6
 345 0154 FFF7FEFF 		bl	cmp_write_bool
 346              	.LVL53:
 347 0158 0540     		ands	r5, r5, r0
 348              	.LVL54:
 349 015a EDB2     		uxtb	r5, r5
 350              	.LVL55:
 351 015c BEE7     		b	.L26
 352              	.LVL56:
 353              	.L20:
 354              		.loc 1 449 0
 355 015e 2846     		mov	r0, r5
 356 0160 FFF7FEFF 		bl	strlen
 357              	.LVL57:
 358 0164 2946     		mov	r1, r5
 359 0166 0246     		mov	r2, r0
 360 0168 3046     		mov	r0, r6
 361 016a FFF7FEFF 		bl	cmp_write_str
 362              	.LVL58:
 363              		.loc 1 450 0
 364 016e 94ED040A 		vldr.32	s0, [r4, #16]
 365              		.loc 1 449 0
 366 0172 0546     		mov	r5, r0
 367              	.LVL59:
 368              		.loc 1 450 0
 369 0174 3046     		mov	r0, r6
 370 0176 FFF7FEFF 		bl	cmp_write_float
 371              	.LVL60:
 372 017a 0540     		ands	r5, r5, r0
 373              	.LVL61:
 374 017c EDB2     		uxtb	r5, r5
 375              	.LVL62:
 376 017e ADE7     		b	.L26
 377              	.LVL63:
 378              	.L19:
 379              		.loc 1 479 0
 380 0180 2946     		mov	r1, r5
 381 0182 044A     		ldr	r2, .L54
 382 0184 4046     		mov	r0, r8
 383 0186 B847     		blx	r7
 384              	.LVL64:
 385 0188 ADE7     		b	.L18
 386              	.LVL65:
 387              	.L31:
 388              		.loc 1 414 0
 389 018a 0146     		mov	r1, r0
 390 018c 4FE7     		b	.L9
 391              	.LVL66:
 392              	.L53:
 393              		.loc 1 487 0
 394 018e FFF7FEFF 		bl	__stack_chk_fail
 395              	.LVL67:
 396              	.L55:
 397 0192 00BF     		.align	2
 398              	.L54:
 399 0194 00000000 		.word	.LC0
ARM GAS  C:\Users\mathi\AppData\Local\Temp\cc63fcQp.s 			page 8


 400 0198 00000000 		.word	__stack_chk_guard
 401 019c 1C000000 		.word	.LC1
 402              		.cfi_endproc
 403              	.LFE275:
 404              		.size	parameter_msgpack_write_subtree.isra.6, .-parameter_msgpack_write_subtree.isra.6
 405              		.global	__aeabi_l2f
 406              		.section	.text.get_vector,"ax",%progbits
 407              		.align	1
 408              		.p2align 4,,15
 409              		.syntax unified
 410              		.thumb
 411              		.thumb_func
 412              		.fpu fpv4-sp-d16
 413              		.type	get_vector, %function
 414              	get_vector:
 415              	.LFB254:
 416              		.loc 1 74 0
 417              		.cfi_startproc
 418              		@ args = 8, pretend = 0, frame = 48
 419              		@ frame_needed = 0, uses_anonymous_args = 0
 420              	.LVL68:
 421 0000 2DE9F04F 		push	{r4, r5, r6, r7, r8, r9, r10, fp, lr}
 422              		.cfi_def_cfa_offset 36
 423              		.cfi_offset 4, -36
 424              		.cfi_offset 5, -32
 425              		.cfi_offset 6, -28
 426              		.cfi_offset 7, -24
 427              		.cfi_offset 8, -20
 428              		.cfi_offset 9, -16
 429              		.cfi_offset 10, -12
 430              		.cfi_offset 11, -8
 431              		.cfi_offset 14, -4
 432 0004 364C     		ldr	r4, .L78
 433 0006 8DB0     		sub	sp, sp, #52
 434              		.cfi_def_cfa_offset 88
 435              		.loc 1 74 0
 436 0008 2468     		ldr	r4, [r4]
 437 000a DDF85890 		ldr	r9, [sp, #88]
 438 000e 0B94     		str	r4, [sp, #44]
 439              	.LVL69:
 440              		.loc 1 77 0
 441 0010 171E     		subs	r7, r2, #0
 442              		.loc 1 74 0
 443 0012 0191     		str	r1, [sp, #4]
 444 0014 DDF85CA0 		ldr	r10, [sp, #92]
 445              		.loc 1 77 0
 446 0018 5EDD     		ble	.L70
 447 001a 0646     		mov	r6, r0
 448              	.LBB42:
 449              		.loc 1 79 0
 450 001c 06A9     		add	r1, sp, #24
 451              	.LVL70:
 452 001e 3046     		mov	r0, r6
 453 0020 9846     		mov	r8, r3
 454 0022 FFF7FEFF 		bl	cmp_read_object
 455              	.LVL71:
 456              	.LBE42:
ARM GAS  C:\Users\mathi\AppData\Local\Temp\cc63fcQp.s 			page 9


 457              		.loc 1 77 0
 458 0026 0024     		movs	r4, #0
 459              	.LVL72:
 460              		.loc 1 75 0
 461 0028 2546     		mov	r5, r4
 462              	.LVL73:
 463              	.LBB58:
 464              		.loc 1 79 0
 465 002a 8346     		mov	fp, r0
 466 002c 30B3     		cbz	r0, .L75
 467              	.L58:
 468              		.loc 1 84 0
 469 002e 002D     		cmp	r5, #0
 470 0030 37D0     		beq	.L76
 471              	.LVL74:
 472              	.L60:
 473              	.LBB43:
 474              	.LBB44:
 475              	.LBB45:
 476              		.loc 1 14 0
 477 0032 9DF81820 		ldrb	r2, [sp, #24]	@ zero_extendqisi2
 478 0036 222A     		cmp	r2, #34
 479 0038 25D8     		bhi	.L65
 480 003a DFE802F0 		tbb	[pc, r2]
 481              	.L66:
 482 003e 12       		.byte	(.L71-.L66)/2
 483 003f 24       		.byte	(.L65-.L66)/2
 484 0040 24       		.byte	(.L65-.L66)/2
 485 0041 24       		.byte	(.L65-.L66)/2
 486 0042 12       		.byte	(.L71-.L66)/2
 487 0043 12       		.byte	(.L71-.L66)/2
 488 0044 24       		.byte	(.L65-.L66)/2
 489 0045 24       		.byte	(.L65-.L66)/2
 490 0046 24       		.byte	(.L65-.L66)/2
 491 0047 24       		.byte	(.L65-.L66)/2
 492 0048 24       		.byte	(.L65-.L66)/2
 493 0049 24       		.byte	(.L65-.L66)/2
 494 004a 12       		.byte	(.L71-.L66)/2
 495 004b 12       		.byte	(.L71-.L66)/2
 496 004c 12       		.byte	(.L71-.L66)/2
 497 004d 12       		.byte	(.L71-.L66)/2
 498 004e 12       		.byte	(.L71-.L66)/2
 499 004f 12       		.byte	(.L71-.L66)/2
 500 0050 12       		.byte	(.L71-.L66)/2
 501 0051 12       		.byte	(.L71-.L66)/2
 502 0052 12       		.byte	(.L71-.L66)/2
 503 0053 12       		.byte	(.L71-.L66)/2
 504 0054 24       		.byte	(.L65-.L66)/2
 505 0055 24       		.byte	(.L65-.L66)/2
 506 0056 24       		.byte	(.L65-.L66)/2
 507 0057 24       		.byte	(.L65-.L66)/2
 508 0058 24       		.byte	(.L65-.L66)/2
 509 0059 24       		.byte	(.L65-.L66)/2
 510 005a 24       		.byte	(.L65-.L66)/2
 511 005b 24       		.byte	(.L65-.L66)/2
 512 005c 24       		.byte	(.L65-.L66)/2
 513 005d 24       		.byte	(.L65-.L66)/2
ARM GAS  C:\Users\mathi\AppData\Local\Temp\cc63fcQp.s 			page 10


 514 005e 24       		.byte	(.L65-.L66)/2
 515 005f 24       		.byte	(.L65-.L66)/2
 516 0060 12       		.byte	(.L71-.L66)/2
 517 0061 00       		.p2align 1
 518              	.L71:
 519 0062 5D46     		mov	r5, fp
 520 0064 4FF0FF30 		mov	r0, #-1
 521              	.LVL75:
 522              	.L64:
 523              	.LBE45:
 524              	.LBE44:
 525              	.LBE43:
 526              	.LBE58:
 527              		.loc 1 77 0
 528 0068 0134     		adds	r4, r4, #1
 529              	.LVL76:
 530 006a A742     		cmp	r7, r4
 531 006c 11D0     		beq	.L56
 532              	.LBB59:
 533              		.loc 1 79 0
 534 006e 06A9     		add	r1, sp, #24
 535 0070 3046     		mov	r0, r6
 536 0072 FFF7FEFF 		bl	cmp_read_object
 537              	.LVL77:
 538 0076 8346     		mov	fp, r0
 539 0078 0028     		cmp	r0, #0
 540 007a D8D1     		bne	.L58
 541              	.L75:
 542              		.loc 1 80 0
 543 007c 5146     		mov	r1, r10
 544 007e 4846     		mov	r0, r9
 545 0080 184A     		ldr	r2, .L78+4
 546 0082 C047     		blx	r8
 547              	.LVL78:
 548              		.loc 1 81 0
 549 0084 03E0     		b	.L59
 550              	.LVL79:
 551              	.L65:
 552              	.LBB50:
 553              	.LBB49:
 554              	.LBB48:
 555              	.LBB46:
 556              	.LBB47:
 557              		.loc 1 32 0
 558 0086 5146     		mov	r1, r10
 559 0088 4846     		mov	r0, r9
 560 008a 174A     		ldr	r2, .L78+8
 561 008c C047     		blx	r8
 562              	.LVL80:
 563              	.L59:
 564              	.LBE47:
 565              	.LBE46:
 566              	.LBE48:
 567              	.LBE49:
 568              	.LBE50:
 569              		.loc 1 81 0 discriminator 1
 570 008e 4FF0FF30 		mov	r0, #-1
ARM GAS  C:\Users\mathi\AppData\Local\Temp\cc63fcQp.s 			page 11


 571              	.LVL81:
 572              	.L56:
 573              	.LBE59:
 574              		.loc 1 102 0
 575 0092 134B     		ldr	r3, .L78
 576 0094 0B9A     		ldr	r2, [sp, #44]
 577 0096 1B68     		ldr	r3, [r3]
 578 0098 9A42     		cmp	r2, r3
 579 009a 1FD1     		bne	.L77
 580 009c 0DB0     		add	sp, sp, #52
 581              		.cfi_remember_state
 582              		.cfi_def_cfa_offset 36
 583              		@ sp needed
 584 009e BDE8F08F 		pop	{r4, r5, r6, r7, r8, r9, r10, fp, pc}
 585              	.LVL82:
 586              	.L76:
 587              		.cfi_restore_state
 588              	.LBB60:
 589              	.LBB51:
 590              	.LBB52:
 591              		.loc 1 42 0
 592 00a2 03A9     		add	r1, sp, #12
 593 00a4 06A8     		add	r0, sp, #24
 594              	.LVL83:
 595 00a6 FFF7FEFF 		bl	cmp_object_as_float
 596              	.LVL84:
 597 00aa 30B1     		cbz	r0, .L61
 598              		.loc 1 43 0
 599 00ac 0398     		ldr	r0, [sp, #12]	@ float
 600              	.LVL85:
 601              	.L62:
 602              	.LBE52:
 603              	.LBE51:
 604              		.loc 1 85 0
 605 00ae 019B     		ldr	r3, [sp, #4]
 606 00b0 03EB8403 		add	r3, r3, r4, lsl #2
 607 00b4 1860     		str	r0, [r3]	@ float
 608 00b6 0020     		movs	r0, #0
 609              	.LVL86:
 610 00b8 D6E7     		b	.L64
 611              	.LVL87:
 612              	.L61:
 613              	.LBB56:
 614              	.LBB55:
 615              	.LBB53:
 616              	.LBB54:
 617              		.loc 1 45 0
 618 00ba 04A9     		add	r1, sp, #16
 619 00bc 06A8     		add	r0, sp, #24
 620              	.LVL88:
 621 00be FFF7FEFF 		bl	cmp_object_as_sinteger
 622              	.LVL89:
 623 00c2 20B1     		cbz	r0, .L63
 624              		.loc 1 46 0
 625 00c4 DDE90401 		ldrd	r0, [sp, #16]
 626 00c8 FFF7FEFF 		bl	__aeabi_l2f
 627              	.LVL90:
ARM GAS  C:\Users\mathi\AppData\Local\Temp\cc63fcQp.s 			page 12


 628 00cc EFE7     		b	.L62
 629              	.LVL91:
 630              	.L63:
 631              	.LBE54:
 632              	.LBE53:
 633              	.LBE55:
 634              	.LBE56:
 635              	.LBB57:
 636              		.loc 1 89 0
 637 00ce 074A     		ldr	r2, .L78+12
 638 00d0 5146     		mov	r1, r10
 639 00d2 4846     		mov	r0, r9
 640 00d4 C047     		blx	r8
 641              	.LVL92:
 642 00d6 ACE7     		b	.L60
 643              	.LVL93:
 644              	.L70:
 645              	.LBE57:
 646              	.LBE60:
 647              		.loc 1 77 0
 648 00d8 0020     		movs	r0, #0
 649              	.LVL94:
 650 00da DAE7     		b	.L56
 651              	.LVL95:
 652              	.L77:
 653              		.loc 1 102 0
 654 00dc FFF7FEFF 		bl	__stack_chk_fail
 655              	.LVL96:
 656              	.L79:
 657              		.align	2
 658              	.L78:
 659 00e0 00000000 		.word	__stack_chk_guard
 660 00e4 00000000 		.word	.LC2
 661 00e8 30000000 		.word	.LC4
 662 00ec 18000000 		.word	.LC3
 663              		.cfi_endproc
 664              	.LFE254:
 665              		.size	get_vector, .-get_vector
 666              		.section	.text.read_namespace,"ax",%progbits
 667              		.align	1
 668              		.p2align 4,,15
 669              		.syntax unified
 670              		.thumb
 671              		.thumb_func
 672              		.fpu fpv4-sp-d16
 673              		.type	read_namespace, %function
 674              	read_namespace:
 675              	.LFB262:
 676              		.loc 1 303 0
 677              		.cfi_startproc
 678              		@ args = 4, pretend = 0, frame = 48
 679              		@ frame_needed = 0, uses_anonymous_args = 0
 680              	.LVL97:
 681 0000 2DE9F04F 		push	{r4, r5, r6, r7, r8, r9, r10, fp, lr}
 682              		.cfi_def_cfa_offset 36
 683              		.cfi_offset 4, -36
 684              		.cfi_offset 5, -32
ARM GAS  C:\Users\mathi\AppData\Local\Temp\cc63fcQp.s 			page 13


 685              		.cfi_offset 6, -28
 686              		.cfi_offset 7, -24
 687              		.cfi_offset 8, -20
 688              		.cfi_offset 9, -16
 689              		.cfi_offset 10, -12
 690              		.cfi_offset 11, -8
 691              		.cfi_offset 14, -4
 692 0004 9E4C     		ldr	r4, .L176
 693 0006 8FB0     		sub	sp, sp, #60
 694              		.cfi_def_cfa_offset 96
 695              		.loc 1 303 0
 696 0008 2468     		ldr	r4, [r4]
 697 000a DDF86090 		ldr	r9, [sp, #96]
 698 000e 0D94     		str	r4, [sp, #52]
 699              	.LVL98:
 700              		.loc 1 305 0
 701 0010 0029     		cmp	r1, #0
 702 0012 66D0     		beq	.L155
 703 0014 8346     		mov	fp, r0
 704 0016 1546     		mov	r5, r2
 705 0018 9846     		mov	r8, r3
 706 001a 8A46     		mov	r10, r1
 707 001c 0026     		movs	r6, #0
 708              	.LVL99:
 709              	.L81:
 710              	.LBB161:
 711              		.loc 1 307 0
 712 001e 04A9     		add	r1, sp, #16
 713 0020 2846     		mov	r0, r5
 714 0022 FFF7FEFF 		bl	cmp_read_str_size
 715              	.LVL100:
 716 0026 0028     		cmp	r0, #0
 717 0028 00F0CC81 		beq	.L167
 718              		.loc 1 311 0
 719 002c 049F     		ldr	r7, [sp, #16]
 720 002e 781C     		adds	r0, r7, #1
 721 0030 FFF7FEFF 		bl	malloc
 722              	.LVL101:
 723              		.loc 1 312 0
 724 0034 0446     		mov	r4, r0
 725 0036 0028     		cmp	r0, #0
 726 0038 00F0CB81 		beq	.L168
 727              		.loc 1 317 0
 728 003c 0146     		mov	r1, r0
 729 003e 3A46     		mov	r2, r7
 730 0040 AB68     		ldr	r3, [r5, #8]
 731 0042 2846     		mov	r0, r5
 732              	.LVL102:
 733 0044 9847     		blx	r3
 734              	.LVL103:
 735 0046 0028     		cmp	r0, #0
 736 0048 00F0CA81 		beq	.L169
 737              		.loc 1 322 0
 738 004c 049B     		ldr	r3, [sp, #16]
 739 004e 0022     		movs	r2, #0
 740 0050 E254     		strb	r2, [r4, r3]
 741              		.loc 1 324 0
ARM GAS  C:\Users\mathi\AppData\Local\Temp\cc63fcQp.s 			page 14


 742 0052 08A9     		add	r1, sp, #32
 743 0054 2846     		mov	r0, r5
 744 0056 FFF7FEFF 		bl	cmp_read_object
 745              	.LVL104:
 746 005a 0028     		cmp	r0, #0
 747 005c 00F0CA81 		beq	.L170
 748              		.loc 1 329 0
 749 0060 08A8     		add	r0, sp, #32
 750 0062 FFF7FEFF 		bl	cmp_object_is_map
 751              	.LVL105:
 752              	.LBB162:
 753              		.loc 1 330 0
 754 0066 049A     		ldr	r2, [sp, #16]
 755 0068 2146     		mov	r1, r4
 756              	.LBE162:
 757              		.loc 1 329 0
 758 006a 0028     		cmp	r0, #0
 759 006c 3BD0     		beq	.L88
 760              	.LBB169:
 761              		.loc 1 330 0
 762 006e 5846     		mov	r0, fp
 763 0070 FFF7FEFF 		bl	_parameter_namespace_find_w_id_len
 764              	.LVL106:
 765              		.loc 1 331 0
 766 0074 0746     		mov	r7, r0
 767 0076 0028     		cmp	r0, #0
 768 0078 4CD1     		bne	.L89
 769              		.loc 1 332 0
 770 007a 824A     		ldr	r2, .L176+4
 771              	.LVL107:
 772              	.L163:
 773              	.LBE169:
 774              	.LBB170:
 775              		.loc 1 351 0
 776 007c 2146     		mov	r1, r4
 777 007e 4846     		mov	r0, r9
 778 0080 C047     		blx	r8
 779              	.LVL108:
 780              		.loc 1 353 0
 781 0082 2046     		mov	r0, r4
 782 0084 FFF7FEFF 		bl	free
 783              	.LVL109:
 784              	.LBB171:
 785              	.LBB172:
 786              	.LBB173:
 787              		.loc 1 14 0
 788 0088 9DF82030 		ldrb	r3, [sp, #32]	@ zero_extendqisi2
 789 008c 222B     		cmp	r3, #34
 790 008e 54D8     		bhi	.L90
 791 0090 DFE803F0 		tbb	[pc, r3]
 792              	.L95:
 793 0094 24       		.byte	(.L93-.L95)/2
 794 0095 53       		.byte	(.L90-.L95)/2
 795 0096 53       		.byte	(.L90-.L95)/2
 796 0097 53       		.byte	(.L90-.L95)/2
 797 0098 24       		.byte	(.L93-.L95)/2
 798 0099 24       		.byte	(.L93-.L95)/2
ARM GAS  C:\Users\mathi\AppData\Local\Temp\cc63fcQp.s 			page 15


 799 009a 53       		.byte	(.L90-.L95)/2
 800 009b 53       		.byte	(.L90-.L95)/2
 801 009c 53       		.byte	(.L90-.L95)/2
 802 009d 53       		.byte	(.L90-.L95)/2
 803 009e 53       		.byte	(.L90-.L95)/2
 804 009f 53       		.byte	(.L90-.L95)/2
 805 00a0 24       		.byte	(.L93-.L95)/2
 806 00a1 24       		.byte	(.L93-.L95)/2
 807 00a2 24       		.byte	(.L93-.L95)/2
 808 00a3 24       		.byte	(.L93-.L95)/2
 809 00a4 24       		.byte	(.L93-.L95)/2
 810 00a5 24       		.byte	(.L93-.L95)/2
 811 00a6 24       		.byte	(.L93-.L95)/2
 812 00a7 24       		.byte	(.L93-.L95)/2
 813 00a8 24       		.byte	(.L93-.L95)/2
 814 00a9 24       		.byte	(.L93-.L95)/2
 815 00aa 53       		.byte	(.L90-.L95)/2
 816 00ab 53       		.byte	(.L90-.L95)/2
 817 00ac 53       		.byte	(.L90-.L95)/2
 818 00ad 53       		.byte	(.L90-.L95)/2
 819 00ae 53       		.byte	(.L90-.L95)/2
 820 00af 53       		.byte	(.L90-.L95)/2
 821 00b0 53       		.byte	(.L90-.L95)/2
 822 00b1 53       		.byte	(.L90-.L95)/2
 823 00b2 53       		.byte	(.L90-.L95)/2
 824 00b3 53       		.byte	(.L90-.L95)/2
 825 00b4 53       		.byte	(.L90-.L95)/2
 826 00b5 53       		.byte	(.L90-.L95)/2
 827 00b6 24       		.byte	(.L93-.L95)/2
 828              	.LVL110:
 829 00b7 00       		.p2align 1
 830              	.L120:
 831 00b8 069A     		ldr	r2, [sp, #24]
 832              	.LVL111:
 833              	.L118:
 834              	.LBE173:
 835              	.LBE172:
 836              	.LBE171:
 837              	.LBB174:
 838              	.LBB175:
 839              	.LBB176:
 840              	.LBB177:
 841              	.LBB178:
 842              	.LBB179:
 843              		.loc 1 184 0
 844 00ba CDE90091 		strd	r9, r1, [sp]
 845 00be 4346     		mov	r3, r8
 846 00c0 2146     		mov	r1, r4
 847 00c2 2846     		mov	r0, r5
 848 00c4 FFF7FEFF 		bl	get_vector
 849              	.LVL112:
 850              		.loc 1 185 0
 851 00c8 0028     		cmp	r0, #0
 852 00ca 40F0E682 		bne	.L164
 853              		.loc 1 189 0
 854 00ce 3846     		mov	r0, r7
 855              	.LVL113:
ARM GAS  C:\Users\mathi\AppData\Local\Temp\cc63fcQp.s 			page 16


 856 00d0 2146     		mov	r1, r4
 857 00d2 FFF7FEFF 		bl	parameter_vector_set
 858              	.LVL114:
 859              		.loc 1 190 0
 860 00d6 2046     		mov	r0, r4
 861 00d8 FFF7FEFF 		bl	free
 862              	.LVL115:
 863              	.L93:
 864              	.LBE179:
 865              	.LBE178:
 866              	.LBE177:
 867              	.LBE176:
 868              	.LBE175:
 869              	.LBE174:
 870              	.LBE170:
 871              	.LBE161:
 872              		.loc 1 305 0 discriminator 2
 873 00dc 0136     		adds	r6, r6, #1
 874              	.LVL116:
 875 00de B245     		cmp	r10, r6
 876 00e0 9DD1     		bne	.L81
 877              	.LVL117:
 878              	.L155:
 879              		.loc 1 367 0
 880 00e2 0023     		movs	r3, #0
 881 00e4 2FE0     		b	.L80
 882              	.LVL118:
 883              	.L88:
 884              	.LBB275:
 885              	.LBB271:
 886              		.loc 1 349 0
 887 00e6 5846     		mov	r0, fp
 888 00e8 FFF7FEFF 		bl	_parameter_find_w_id_len
 889              	.LVL119:
 890              		.loc 1 350 0
 891 00ec 0746     		mov	r7, r0
 892 00ee 08B9     		cbnz	r0, .L94
 893              		.loc 1 351 0
 894 00f0 654A     		ldr	r2, .L176+8
 895 00f2 C3E7     		b	.L163
 896              	.L94:
 897              		.loc 1 353 0
 898 00f4 2046     		mov	r0, r4
 899              	.LVL120:
 900 00f6 FFF7FEFF 		bl	free
 901              	.LVL121:
 902              	.LBB268:
 903              	.LBB265:
 904              	.LBB262:
 905              		.loc 1 278 0
 906 00fa BB7B     		ldrb	r3, [r7, #14]	@ zero_extendqisi2
 907 00fc 013B     		subs	r3, r3, #1
 908 00fe 052B     		cmp	r3, #5
 909 0100 00F24A81 		bhi	.L152
 910 0104 DFE813F0 		tbh	[pc, r3, lsl #1]
 911              	.L158:
 912 0108 3C01     		.2byte	(.L96-.L158)/2
ARM GAS  C:\Users\mathi\AppData\Local\Temp\cc63fcQp.s 			page 17


 913 010a E200     		.2byte	(.L107-.L158)/2
 914 010c D600     		.2byte	(.L102-.L158)/2
 915 010e C800     		.2byte	(.L140-.L158)/2
 916 0110 8200     		.2byte	(.L112-.L158)/2
 917 0112 2900     		.2byte	(.L126-.L158)/2
 918              	.LVL122:
 919              		.p2align 1
 920              	.L89:
 921              	.LBE262:
 922              	.LBE265:
 923              	.LBE268:
 924              	.LBE271:
 925              	.LBB272:
 926              		.loc 1 334 0
 927 0114 2046     		mov	r0, r4
 928              	.LVL123:
 929 0116 FFF7FEFF 		bl	free
 930              	.LVL124:
 931              	.LBB163:
 932              		.loc 1 337 0
 933 011a 06A9     		add	r1, sp, #24
 934 011c 08A8     		add	r0, sp, #32
 935 011e FFF7FEFF 		bl	cmp_object_as_map
 936              	.LVL125:
 937              		.loc 1 338 0
 938 0122 0699     		ldr	r1, [sp, #24]
 939 0124 CDF80090 		str	r9, [sp]
 940 0128 3846     		mov	r0, r7
 941 012a 4346     		mov	r3, r8
 942 012c 2A46     		mov	r2, r5
 943 012e FFF767FF 		bl	read_namespace
 944              	.LVL126:
 945              		.loc 1 339 0
 946 0132 0028     		cmp	r0, #0
 947 0134 D2D0     		beq	.L93
 948 0136 0346     		mov	r3, r0
 949 0138 05E0     		b	.L80
 950              	.LVL127:
 951              	.L90:
 952              	.LBE163:
 953              	.LBB164:
 954              	.LBB165:
 955              	.LBB166:
 956              	.LBB167:
 957              	.LBB168:
 958              		.loc 1 32 0
 959 013a 4846     		mov	r0, r9
 960 013c 534A     		ldr	r2, .L176+12
 961 013e 0021     		movs	r1, #0
 962 0140 C047     		blx	r8
 963              	.LVL128:
 964 0142 4FF0FF33 		mov	r3, #-1
 965              	.LVL129:
 966              	.L80:
 967              	.LBE168:
 968              	.LBE167:
 969              	.LBE166:
ARM GAS  C:\Users\mathi\AppData\Local\Temp\cc63fcQp.s 			page 18


 970              	.LBE165:
 971              	.LBE164:
 972              	.LBE272:
 973              	.LBE275:
 974              		.loc 1 368 0
 975 0146 4E4A     		ldr	r2, .L176
 976 0148 0D99     		ldr	r1, [sp, #52]
 977 014a 1268     		ldr	r2, [r2]
 978 014c 9142     		cmp	r1, r2
 979 014e 1846     		mov	r0, r3
 980 0150 40F0CB82 		bne	.L171
 981 0154 0FB0     		add	sp, sp, #60
 982              		.cfi_remember_state
 983              		.cfi_def_cfa_offset 36
 984              		@ sp needed
 985 0156 BDE8F08F 		pop	{r4, r5, r6, r7, r8, r9, r10, fp, pc}
 986              	.LVL130:
 987              	.L126:
 988              		.cfi_restore_state
 989              	.LBB276:
 990              	.LBB273:
 991              	.LBB269:
 992              	.LBB266:
 993              	.LBB263:
 994              	.LBB194:
 995              	.LBB195:
 996              		.loc 1 208 0
 997 015a 08A8     		add	r0, sp, #32
 998              	.LVL131:
 999 015c 06A9     		add	r1, sp, #24
 1000 015e FFF7FEFF 		bl	cmp_object_as_array
 1001              	.LVL132:
 1002 0162 0028     		cmp	r0, #0
 1003 0164 40F0BA81 		bne	.L172
 1004              	.LVL133:
 1005              	.L166:
 1006              	.LBE195:
 1007              	.LBE194:
 1008              	.LBB216:
 1009              	.LBB217:
 1010              		.loc 1 250 0
 1011 0168 494A     		ldr	r2, .L176+16
 1012              	.LVL134:
 1013              	.L165:
 1014              	.LBE217:
 1015              	.LBE216:
 1016              		.loc 1 292 0
 1017 016a 3968     		ldr	r1, [r7]
 1018 016c 4846     		mov	r0, r9
 1019 016e C047     		blx	r8
 1020              	.LVL135:
 1021              	.LBB220:
 1022              	.LBB221:
 1023              		.loc 1 14 0
 1024 0170 9DF82030 		ldrb	r3, [sp, #32]	@ zero_extendqisi2
 1025 0174 222B     		cmp	r3, #34
 1026 0176 00F21181 		bhi	.L153
ARM GAS  C:\Users\mathi\AppData\Local\Temp\cc63fcQp.s 			page 19


 1027 017a 01A2     		adr	r2, .L154
 1028 017c 52F823F0 		ldr	pc, [r2, r3, lsl #2]
 1029              		.p2align 2
 1030              	.L154:
 1031 0180 DD000000 		.word	.L93+1
 1032 0184 9D030000 		.word	.L153+1
 1033 0188 9D030000 		.word	.L153+1
 1034 018c 9D030000 		.word	.L153+1
 1035 0190 DD000000 		.word	.L93+1
 1036 0194 DD000000 		.word	.L93+1
 1037 0198 9D030000 		.word	.L153+1
 1038 019c 9D030000 		.word	.L153+1
 1039 01a0 9D030000 		.word	.L153+1
 1040 01a4 9D030000 		.word	.L153+1
 1041 01a8 9D030000 		.word	.L153+1
 1042 01ac 9D030000 		.word	.L153+1
 1043 01b0 DD000000 		.word	.L93+1
 1044 01b4 DD000000 		.word	.L93+1
 1045 01b8 DD000000 		.word	.L93+1
 1046 01bc DD000000 		.word	.L93+1
 1047 01c0 DD000000 		.word	.L93+1
 1048 01c4 DD000000 		.word	.L93+1
 1049 01c8 DD000000 		.word	.L93+1
 1050 01cc DD000000 		.word	.L93+1
 1051 01d0 DD000000 		.word	.L93+1
 1052 01d4 DD000000 		.word	.L93+1
 1053 01d8 9D030000 		.word	.L153+1
 1054 01dc 9D030000 		.word	.L153+1
 1055 01e0 9D030000 		.word	.L153+1
 1056 01e4 9D030000 		.word	.L153+1
 1057 01e8 9D030000 		.word	.L153+1
 1058 01ec 9D030000 		.word	.L153+1
 1059 01f0 9D030000 		.word	.L153+1
 1060 01f4 9D030000 		.word	.L153+1
 1061 01f8 9D030000 		.word	.L153+1
 1062 01fc 9D030000 		.word	.L153+1
 1063 0200 9D030000 		.word	.L153+1
 1064 0204 9D030000 		.word	.L153+1
 1065 0208 DD000000 		.word	.L93+1
 1066              	.LVL136:
 1067              		.p2align 1
 1068              	.L112:
 1069              	.LBE221:
 1070              	.LBE220:
 1071              	.LBB225:
 1072              	.LBB192:
 1073              		.loc 1 168 0
 1074 020c 08A8     		add	r0, sp, #32
 1075              	.LVL137:
 1076 020e 06A9     		add	r1, sp, #24
 1077 0210 FFF7FEFF 		bl	cmp_object_as_array
 1078              	.LVL138:
 1079 0214 0028     		cmp	r0, #0
 1080 0216 A7D0     		beq	.L166
 1081              	.LBB190:
 1082              		.loc 1 169 0
 1083 0218 069A     		ldr	r2, [sp, #24]
ARM GAS  C:\Users\mathi\AppData\Local\Temp\cc63fcQp.s 			page 20


 1084 021a FB8A     		ldrh	r3, [r7, #22]
 1085 021c 3968     		ldr	r1, [r7]
 1086 021e 9342     		cmp	r3, r2
 1087 0220 00F0F980 		beq	.L114
 1088              	.LBB180:
 1089              		.loc 1 170 0
 1090 0224 1B4A     		ldr	r2, .L176+20
 1091 0226 4846     		mov	r0, r9
 1092 0228 C047     		blx	r8
 1093              	.LVL139:
 1094              	.LBB181:
 1095              	.LBB182:
 1096              		.loc 1 14 0
 1097 022a 9DF82030 		ldrb	r3, [sp, #32]	@ zero_extendqisi2
 1098              	.LBE182:
 1099              	.LBE181:
 1100              		.loc 1 171 0
 1101 022e 3968     		ldr	r1, [r7]
 1102              	.LVL140:
 1103              	.LBB184:
 1104              	.LBB183:
 1105              		.loc 1 14 0
 1106 0230 222B     		cmp	r3, #34
 1107 0232 00F24D81 		bhi	.L133
 1108 0236 DFE813F0 		tbh	[pc, r3, lsl #1]
 1109              	.L117:
 1110 023a ED00     		.2byte	(.L116-.L117)/2
 1111 023c 4B01     		.2byte	(.L133-.L117)/2
 1112 023e 4B01     		.2byte	(.L133-.L117)/2
 1113 0240 4B01     		.2byte	(.L133-.L117)/2
 1114 0242 ED00     		.2byte	(.L116-.L117)/2
 1115 0244 ED00     		.2byte	(.L116-.L117)/2
 1116 0246 4B01     		.2byte	(.L133-.L117)/2
 1117 0248 4B01     		.2byte	(.L133-.L117)/2
 1118 024a 4B01     		.2byte	(.L133-.L117)/2
 1119 024c 4B01     		.2byte	(.L133-.L117)/2
 1120 024e 4B01     		.2byte	(.L133-.L117)/2
 1121 0250 4B01     		.2byte	(.L133-.L117)/2
 1122 0252 ED00     		.2byte	(.L116-.L117)/2
 1123 0254 ED00     		.2byte	(.L116-.L117)/2
 1124 0256 ED00     		.2byte	(.L116-.L117)/2
 1125 0258 ED00     		.2byte	(.L116-.L117)/2
 1126 025a ED00     		.2byte	(.L116-.L117)/2
 1127 025c ED00     		.2byte	(.L116-.L117)/2
 1128 025e ED00     		.2byte	(.L116-.L117)/2
 1129 0260 ED00     		.2byte	(.L116-.L117)/2
 1130 0262 ED00     		.2byte	(.L116-.L117)/2
 1131 0264 ED00     		.2byte	(.L116-.L117)/2
 1132 0266 4B01     		.2byte	(.L133-.L117)/2
 1133 0268 4B01     		.2byte	(.L133-.L117)/2
 1134 026a 4B01     		.2byte	(.L133-.L117)/2
 1135 026c 4B01     		.2byte	(.L133-.L117)/2
 1136 026e 4B01     		.2byte	(.L133-.L117)/2
 1137 0270 4B01     		.2byte	(.L133-.L117)/2
 1138 0272 4B01     		.2byte	(.L133-.L117)/2
 1139 0274 4B01     		.2byte	(.L133-.L117)/2
 1140 0276 4B01     		.2byte	(.L133-.L117)/2
ARM GAS  C:\Users\mathi\AppData\Local\Temp\cc63fcQp.s 			page 21


 1141 0278 4B01     		.2byte	(.L133-.L117)/2
 1142 027a 4B01     		.2byte	(.L133-.L117)/2
 1143 027c 4B01     		.2byte	(.L133-.L117)/2
 1144 027e ED00     		.2byte	(.L116-.L117)/2
 1145              		.p2align 1
 1146              	.L177:
 1147              		.align	2
 1148              	.L176:
 1149 0280 00000000 		.word	__stack_chk_guard
 1150 0284 40000000 		.word	.LC8
 1151 0288 64000000 		.word	.LC9
 1152 028c 30000000 		.word	.LC4
 1153 0290 18000000 		.word	.LC3
 1154 0294 88000000 		.word	.LC10
 1155              	.LVL141:
 1156              	.L140:
 1157              	.LBE183:
 1158              	.LBE184:
 1159              	.LBE180:
 1160              	.LBE190:
 1161              	.LBE192:
 1162              	.LBE225:
 1163              	.LBB226:
 1164              	.LBB218:
 1165              		.loc 1 249 0
 1166 0298 08A8     		add	r0, sp, #32
 1167              	.LVL142:
 1168 029a 06A9     		add	r1, sp, #24
 1169 029c FFF7FEFF 		bl	cmp_object_as_str
 1170              	.LVL143:
 1171 02a0 0028     		cmp	r0, #0
 1172 02a2 3FF461AF 		beq	.L166
 1173              		.loc 1 253 0
 1174 02a6 069A     		ldr	r2, [sp, #24]
 1175 02a8 BB8A     		ldrh	r3, [r7, #20]
 1176 02aa 9342     		cmp	r3, r2
 1177 02ac 00F2FB81 		bhi	.L145
 1178              		.loc 1 254 0
 1179 02b0 B54A     		ldr	r2, .L178
 1180 02b2 5AE7     		b	.L165
 1181              	.LVL144:
 1182              	.L102:
 1183              	.LBE218:
 1184              	.LBE226:
 1185              	.LBB227:
 1186              	.LBB228:
 1187              	.LBB229:
 1188              	.LBB230:
 1189              		.loc 1 54 0
 1190 02b4 08A8     		add	r0, sp, #32
 1191              	.LVL145:
 1192 02b6 06A9     		add	r1, sp, #24
 1193              	.LVL146:
 1194 02b8 FFF7FEFF 		bl	cmp_object_as_int
 1195              	.LVL147:
 1196 02bc 0028     		cmp	r0, #0
 1197 02be 3FF453AF 		beq	.L166
ARM GAS  C:\Users\mathi\AppData\Local\Temp\cc63fcQp.s 			page 22


 1198              	.LVL148:
 1199              	.LBE230:
 1200              	.LBE229:
 1201              		.loc 1 131 0
 1202 02c2 3846     		mov	r0, r7
 1203 02c4 0699     		ldr	r1, [sp, #24]
 1204 02c6 FFF7FEFF 		bl	parameter_integer_set
 1205              	.LVL149:
 1206 02ca 07E7     		b	.L93
 1207              	.LVL150:
 1208              	.L107:
 1209              	.LBE228:
 1210              	.LBE227:
 1211              	.LBB231:
 1212              	.LBB232:
 1213              	.LBB233:
 1214              	.LBB234:
 1215              		.loc 1 62 0
 1216 02cc 08A8     		add	r0, sp, #32
 1217              	.LVL151:
 1218 02ce 06A9     		add	r1, sp, #24
 1219              	.LVL152:
 1220 02d0 FFF7FEFF 		bl	cmp_object_as_bool
 1221              	.LVL153:
 1222 02d4 0028     		cmp	r0, #0
 1223 02d6 40F0DA81 		bne	.L173
 1224              	.LVL154:
 1225              	.LBE234:
 1226              	.LBE233:
 1227              	.LBB235:
 1228              		.loc 1 152 0
 1229 02da AC4A     		ldr	r2, .L178+4
 1230 02dc 3968     		ldr	r1, [r7]
 1231 02de 4846     		mov	r0, r9
 1232 02e0 C047     		blx	r8
 1233              	.LVL155:
 1234              	.LBB236:
 1235              	.LBB237:
 1236              		.loc 1 14 0
 1237 02e2 9DF82030 		ldrb	r3, [sp, #32]	@ zero_extendqisi2
 1238 02e6 222B     		cmp	r3, #34
 1239 02e8 00F28E80 		bhi	.L109
 1240 02ec 01A2     		adr	r2, .L111
 1241 02ee 52F823F0 		ldr	pc, [r2, r3, lsl #2]
 1242 02f2 00BF     		.p2align 2
 1243              	.L111:
 1244 02f4 DD000000 		.word	.L93+1
 1245 02f8 09040000 		.word	.L109+1
 1246 02fc 09040000 		.word	.L109+1
 1247 0300 09040000 		.word	.L109+1
 1248 0304 DD000000 		.word	.L93+1
 1249 0308 DD000000 		.word	.L93+1
 1250 030c 09040000 		.word	.L109+1
 1251 0310 09040000 		.word	.L109+1
 1252 0314 09040000 		.word	.L109+1
 1253 0318 09040000 		.word	.L109+1
 1254 031c 09040000 		.word	.L109+1
ARM GAS  C:\Users\mathi\AppData\Local\Temp\cc63fcQp.s 			page 23


 1255 0320 09040000 		.word	.L109+1
 1256 0324 DD000000 		.word	.L93+1
 1257 0328 DD000000 		.word	.L93+1
 1258 032c DD000000 		.word	.L93+1
 1259 0330 DD000000 		.word	.L93+1
 1260 0334 DD000000 		.word	.L93+1
 1261 0338 DD000000 		.word	.L93+1
 1262 033c DD000000 		.word	.L93+1
 1263 0340 DD000000 		.word	.L93+1
 1264 0344 DD000000 		.word	.L93+1
 1265 0348 DD000000 		.word	.L93+1
 1266 034c 09040000 		.word	.L109+1
 1267 0350 09040000 		.word	.L109+1
 1268 0354 09040000 		.word	.L109+1
 1269 0358 09040000 		.word	.L109+1
 1270 035c 09040000 		.word	.L109+1
 1271 0360 09040000 		.word	.L109+1
 1272 0364 09040000 		.word	.L109+1
 1273 0368 09040000 		.word	.L109+1
 1274 036c 09040000 		.word	.L109+1
 1275 0370 09040000 		.word	.L109+1
 1276 0374 09040000 		.word	.L109+1
 1277 0378 09040000 		.word	.L109+1
 1278 037c DD000000 		.word	.L93+1
 1279              	.LVL156:
 1280              		.p2align 1
 1281              	.L96:
 1282              	.LBE237:
 1283              	.LBE236:
 1284              	.LBE235:
 1285              	.LBE232:
 1286              	.LBE231:
 1287              	.LBB245:
 1288              	.LBB246:
 1289              	.LBB247:
 1290              	.LBB248:
 1291              		.loc 1 42 0
 1292 0380 05A9     		add	r1, sp, #20
 1293 0382 08A8     		add	r0, sp, #32
 1294              	.LVL157:
 1295 0384 FFF7FEFF 		bl	cmp_object_as_float
 1296              	.LVL158:
 1297 0388 78B1     		cbz	r0, .L97
 1298              		.loc 1 43 0
 1299 038a 059B     		ldr	r3, [sp, #20]	@ float
 1300              	.LVL159:
 1301              	.L98:
 1302              	.LBE248:
 1303              	.LBE247:
 1304              		.loc 1 112 0
 1305 038c 3846     		mov	r0, r7
 1306 038e 00EE103A 		vmov	s0, r3
 1307 0392 FFF7FEFF 		bl	parameter_scalar_set
 1308              	.LVL160:
 1309 0396 A1E6     		b	.L93
 1310              	.LVL161:
 1311              	.L152:
ARM GAS  C:\Users\mathi\AppData\Local\Temp\cc63fcQp.s 			page 24


 1312              	.LBE246:
 1313              	.LBE245:
 1314              		.loc 1 292 0
 1315 0398 7D4A     		ldr	r2, .L178+8
 1316 039a E6E6     		b	.L165
 1317              	.LVL162:
 1318              	.L153:
 1319              	.LBB254:
 1320              	.LBB224:
 1321              	.LBB222:
 1322              	.LBB223:
 1323              		.loc 1 32 0
 1324 039c 3968     		ldr	r1, [r7]
 1325 039e 7D4A     		ldr	r2, .L178+12
 1326 03a0 4846     		mov	r0, r9
 1327 03a2 C047     		blx	r8
 1328              	.LVL163:
 1329 03a4 4FF0FF33 		mov	r3, #-1
 1330 03a8 CDE6     		b	.L80
 1331              	.LVL164:
 1332              	.L97:
 1333              	.LBE223:
 1334              	.LBE222:
 1335              	.LBE224:
 1336              	.LBE254:
 1337              	.LBB255:
 1338              	.LBB253:
 1339              	.LBB252:
 1340              	.LBB251:
 1341              	.LBB249:
 1342              	.LBB250:
 1343              		.loc 1 45 0
 1344 03aa 08A8     		add	r0, sp, #32
 1345              	.LVL165:
 1346 03ac 06A9     		add	r1, sp, #24
 1347 03ae FFF7FEFF 		bl	cmp_object_as_sinteger
 1348              	.LVL166:
 1349 03b2 0028     		cmp	r0, #0
 1350 03b4 3FF4D8AE 		beq	.L166
 1351              		.loc 1 46 0
 1352 03b8 DDE90601 		ldrd	r0, [sp, #24]
 1353 03bc FFF7FEFF 		bl	__aeabi_l2f
 1354              	.LVL167:
 1355 03c0 0346     		mov	r3, r0	@ float
 1356              	.LVL168:
 1357 03c2 E3E7     		b	.L98
 1358              	.LVL169:
 1359              	.L167:
 1360              	.LBE250:
 1361              	.LBE249:
 1362              	.LBE251:
 1363              	.LBE252:
 1364              	.LBE253:
 1365              	.LBE255:
 1366              	.LBE263:
 1367              	.LBE266:
 1368              	.LBE269:
ARM GAS  C:\Users\mathi\AppData\Local\Temp\cc63fcQp.s 			page 25


 1369              	.LBE273:
 1370              		.loc 1 308 0
 1371 03c4 0146     		mov	r1, r0
 1372 03c6 744A     		ldr	r2, .L178+16
 1373 03c8 4846     		mov	r0, r9
 1374 03ca C047     		blx	r8
 1375              	.LVL170:
 1376              		.loc 1 309 0
 1377 03cc 4FF0FF33 		mov	r3, #-1
 1378 03d0 B9E6     		b	.L80
 1379              	.LVL171:
 1380              	.L168:
 1381              		.loc 1 313 0
 1382 03d2 0146     		mov	r1, r0
 1383 03d4 714A     		ldr	r2, .L178+20
 1384 03d6 4846     		mov	r0, r9
 1385              	.LVL172:
 1386 03d8 C047     		blx	r8
 1387              	.LVL173:
 1388              		.loc 1 314 0
 1389 03da 4FF0FF33 		mov	r3, #-1
 1390 03de B2E6     		b	.L80
 1391              	.L169:
 1392              		.loc 1 318 0
 1393 03e0 0146     		mov	r1, r0
 1394 03e2 6D4A     		ldr	r2, .L178+16
 1395 03e4 4846     		mov	r0, r9
 1396 03e6 C047     		blx	r8
 1397              	.LVL174:
 1398              		.loc 1 319 0
 1399 03e8 2046     		mov	r0, r4
 1400 03ea FFF7FEFF 		bl	free
 1401              	.LVL175:
 1402              		.loc 1 320 0
 1403 03ee 4FF0FF33 		mov	r3, #-1
 1404 03f2 A8E6     		b	.L80
 1405              	.L170:
 1406              		.loc 1 325 0
 1407 03f4 4846     		mov	r0, r9
 1408 03f6 6A4A     		ldr	r2, .L178+24
 1409 03f8 2146     		mov	r1, r4
 1410 03fa C047     		blx	r8
 1411              	.LVL176:
 1412              		.loc 1 326 0
 1413 03fc 2046     		mov	r0, r4
 1414 03fe FFF7FEFF 		bl	free
 1415              	.LVL177:
 1416              		.loc 1 327 0
 1417 0402 4FF0FF33 		mov	r3, #-1
 1418 0406 9EE6     		b	.L80
 1419              	.LVL178:
 1420              	.L109:
 1421              	.LBB274:
 1422              	.LBB270:
 1423              	.LBB267:
 1424              	.LBB264:
 1425              	.LBB256:
ARM GAS  C:\Users\mathi\AppData\Local\Temp\cc63fcQp.s 			page 26


 1426              	.LBB243:
 1427              	.LBB242:
 1428              	.LBB241:
 1429              	.LBB240:
 1430              	.LBB238:
 1431              	.LBB239:
 1432              		.loc 1 32 0
 1433 0408 3968     		ldr	r1, [r7]
 1434 040a 624A     		ldr	r2, .L178+12
 1435 040c 4846     		mov	r0, r9
 1436 040e C047     		blx	r8
 1437              	.LVL179:
 1438              	.LBE239:
 1439              	.LBE238:
 1440              	.LBE240:
 1441              	.LBE241:
 1442              	.LBE242:
 1443              	.LBE243:
 1444              	.LBE256:
 1445              		.loc 1 284 0
 1446 0410 0123     		movs	r3, #1
 1447 0412 98E6     		b	.L80
 1448              	.LVL180:
 1449              	.L116:
 1450 0414 069A     		ldr	r2, [sp, #24]
 1451              	.LVL181:
 1452              	.L114:
 1453 0416 0391     		str	r1, [sp, #12]
 1454              	.LBB257:
 1455              	.LBB193:
 1456              	.LBB191:
 1457              		.loc 1 176 0
 1458 0418 9000     		lsls	r0, r2, #2
 1459 041a 0292     		str	r2, [sp, #8]
 1460 041c FFF7FEFF 		bl	malloc
 1461              	.LVL182:
 1462              		.loc 1 177 0
 1463 0420 DDE90221 		ldrd	r2, r1, [sp, #8]
 1464 0424 0446     		mov	r4, r0
 1465              	.LVL183:
 1466 0426 0028     		cmp	r0, #0
 1467 0428 7FF447AE 		bne	.L118
 1468              	.LBB185:
 1469              		.loc 1 178 0
 1470 042c 5D4A     		ldr	r2, .L178+28
 1471 042e 4846     		mov	r0, r9
 1472              	.LVL184:
 1473 0430 C047     		blx	r8
 1474              	.LVL185:
 1475              	.LBB186:
 1476              	.LBB187:
 1477              		.loc 1 14 0
 1478 0432 9DF82030 		ldrb	r3, [sp, #32]	@ zero_extendqisi2
 1479              	.LBE187:
 1480              	.LBE186:
 1481              		.loc 1 179 0
 1482 0436 3968     		ldr	r1, [r7]
ARM GAS  C:\Users\mathi\AppData\Local\Temp\cc63fcQp.s 			page 27


 1483              	.LVL186:
 1484              	.LBB189:
 1485              	.LBB188:
 1486              		.loc 1 14 0
 1487 0438 222B     		cmp	r3, #34
 1488 043a 49D8     		bhi	.L133
 1489 043c 01A2     		adr	r2, .L121
 1490 043e 52F823F0 		ldr	pc, [r2, r3, lsl #2]
 1491 0442 00BF     		.p2align 2
 1492              	.L121:
 1493 0444 B9000000 		.word	.L120+1
 1494 0448 D1040000 		.word	.L133+1
 1495 044c D1040000 		.word	.L133+1
 1496 0450 D1040000 		.word	.L133+1
 1497 0454 B9000000 		.word	.L120+1
 1498 0458 B9000000 		.word	.L120+1
 1499 045c D1040000 		.word	.L133+1
 1500 0460 D1040000 		.word	.L133+1
 1501 0464 D1040000 		.word	.L133+1
 1502 0468 D1040000 		.word	.L133+1
 1503 046c D1040000 		.word	.L133+1
 1504 0470 D1040000 		.word	.L133+1
 1505 0474 B9000000 		.word	.L120+1
 1506 0478 B9000000 		.word	.L120+1
 1507 047c B9000000 		.word	.L120+1
 1508 0480 B9000000 		.word	.L120+1
 1509 0484 B9000000 		.word	.L120+1
 1510 0488 B9000000 		.word	.L120+1
 1511 048c B9000000 		.word	.L120+1
 1512 0490 B9000000 		.word	.L120+1
 1513 0494 B9000000 		.word	.L120+1
 1514 0498 B9000000 		.word	.L120+1
 1515 049c D1040000 		.word	.L133+1
 1516 04a0 D1040000 		.word	.L133+1
 1517 04a4 D1040000 		.word	.L133+1
 1518 04a8 D1040000 		.word	.L133+1
 1519 04ac D1040000 		.word	.L133+1
 1520 04b0 D1040000 		.word	.L133+1
 1521 04b4 D1040000 		.word	.L133+1
 1522 04b8 D1040000 		.word	.L133+1
 1523 04bc D1040000 		.word	.L133+1
 1524 04c0 D1040000 		.word	.L133+1
 1525 04c4 D1040000 		.word	.L133+1
 1526 04c8 D1040000 		.word	.L133+1
 1527 04cc B9000000 		.word	.L120+1
 1528              	.LVL187:
 1529              		.p2align 1
 1530              	.L133:
 1531              	.LBE188:
 1532              	.LBE189:
 1533              	.LBE185:
 1534              	.LBE191:
 1535              	.LBE193:
 1536              	.LBE257:
 1537              	.LBB258:
 1538              	.LBB214:
 1539              	.LBB196:
ARM GAS  C:\Users\mathi\AppData\Local\Temp\cc63fcQp.s 			page 28


 1540              	.LBB197:
 1541              	.LBB198:
 1542              	.LBB199:
 1543              	.LBB200:
 1544              	.LBB201:
 1545              		.loc 1 32 0
 1546 04d0 4846     		mov	r0, r9
 1547 04d2 304A     		ldr	r2, .L178+12
 1548 04d4 C047     		blx	r8
 1549              	.LVL188:
 1550              	.LBE201:
 1551              	.LBE200:
 1552              	.LBE199:
 1553              	.LBE198:
 1554              	.LBE197:
 1555              	.LBE196:
 1556 04d6 4FF0FF33 		mov	r3, #-1
 1557 04da 34E6     		b	.L80
 1558              	.LVL189:
 1559              	.L172:
 1560              	.LBB212:
 1561              		.loc 1 209 0
 1562 04dc 069A     		ldr	r2, [sp, #24]
 1563 04de BB8A     		ldrh	r3, [r7, #20]
 1564 04e0 3968     		ldr	r1, [r7]
 1565 04e2 9342     		cmp	r3, r2
 1566 04e4 63D2     		bcs	.L128
 1567              	.LBB206:
 1568              		.loc 1 210 0
 1569 04e6 304A     		ldr	r2, .L178+32
 1570 04e8 4846     		mov	r0, r9
 1571 04ea C047     		blx	r8
 1572              	.LVL190:
 1573              	.LBB207:
 1574              	.LBB208:
 1575              		.loc 1 14 0
 1576 04ec 9DF82030 		ldrb	r3, [sp, #32]	@ zero_extendqisi2
 1577              	.LBE208:
 1578              	.LBE207:
 1579              		.loc 1 211 0
 1580 04f0 3968     		ldr	r1, [r7]
 1581              	.LVL191:
 1582              	.LBB210:
 1583              	.LBB209:
 1584              		.loc 1 14 0
 1585 04f2 222B     		cmp	r3, #34
 1586 04f4 ECD8     		bhi	.L133
 1587 04f6 01A2     		adr	r2, .L131
 1588 04f8 52F823F0 		ldr	pc, [r2, r3, lsl #2]
 1589              		.p2align 2
 1590              	.L131:
 1591 04fc AD050000 		.word	.L130+1
 1592 0500 D1040000 		.word	.L133+1
 1593 0504 D1040000 		.word	.L133+1
 1594 0508 D1040000 		.word	.L133+1
 1595 050c AD050000 		.word	.L130+1
 1596 0510 AD050000 		.word	.L130+1
ARM GAS  C:\Users\mathi\AppData\Local\Temp\cc63fcQp.s 			page 29


 1597 0514 D1040000 		.word	.L133+1
 1598 0518 D1040000 		.word	.L133+1
 1599 051c D1040000 		.word	.L133+1
 1600 0520 D1040000 		.word	.L133+1
 1601 0524 D1040000 		.word	.L133+1
 1602 0528 D1040000 		.word	.L133+1
 1603 052c AD050000 		.word	.L130+1
 1604 0530 AD050000 		.word	.L130+1
 1605 0534 AD050000 		.word	.L130+1
 1606 0538 AD050000 		.word	.L130+1
 1607 053c AD050000 		.word	.L130+1
 1608 0540 AD050000 		.word	.L130+1
 1609 0544 AD050000 		.word	.L130+1
 1610 0548 AD050000 		.word	.L130+1
 1611 054c AD050000 		.word	.L130+1
 1612 0550 AD050000 		.word	.L130+1
 1613 0554 D1040000 		.word	.L133+1
 1614 0558 D1040000 		.word	.L133+1
 1615 055c D1040000 		.word	.L133+1
 1616 0560 D1040000 		.word	.L133+1
 1617 0564 D1040000 		.word	.L133+1
 1618 0568 D1040000 		.word	.L133+1
 1619 056c D1040000 		.word	.L133+1
 1620 0570 D1040000 		.word	.L133+1
 1621 0574 D1040000 		.word	.L133+1
 1622 0578 D1040000 		.word	.L133+1
 1623 057c D1040000 		.word	.L133+1
 1624 0580 D1040000 		.word	.L133+1
 1625 0584 AD050000 		.word	.L130+1
 1626              		.p2align 1
 1627              	.L179:
 1628              		.align	2
 1629              	.L178:
 1630 0588 E8000000 		.word	.LC13
 1631 058c 18000000 		.word	.LC3
 1632 0590 10010000 		.word	.LC15
 1633 0594 30000000 		.word	.LC4
 1634 0598 00000000 		.word	.LC5
 1635 059c 14000000 		.word	.LC6
 1636 05a0 28000000 		.word	.LC7
 1637 05a4 A8000000 		.word	.LC11
 1638 05a8 C4000000 		.word	.LC12
 1639              	.L130:
 1640 05ac 069A     		ldr	r2, [sp, #24]
 1641              	.LVL192:
 1642              	.L128:
 1643 05ae 0391     		str	r1, [sp, #12]
 1644              	.LBE209:
 1645              	.LBE210:
 1646              	.LBE206:
 1647              		.loc 1 216 0
 1648 05b0 9000     		lsls	r0, r2, #2
 1649 05b2 0292     		str	r2, [sp, #8]
 1650 05b4 FFF7FEFF 		bl	malloc
 1651              	.LVL193:
 1652              		.loc 1 217 0
 1653 05b8 DDE90221 		ldrd	r2, r1, [sp, #8]
ARM GAS  C:\Users\mathi\AppData\Local\Temp\cc63fcQp.s 			page 30


 1654 05bc 0446     		mov	r4, r0
 1655              	.LVL194:
 1656 05be 0028     		cmp	r0, #0
 1657 05c0 53D1     		bne	.L132
 1658              	.LBB211:
 1659              		.loc 1 218 0
 1660 05c2 4B4A     		ldr	r2, .L180
 1661 05c4 4846     		mov	r0, r9
 1662              	.LVL195:
 1663 05c6 C047     		blx	r8
 1664              	.LVL196:
 1665              	.LBB204:
 1666              	.LBB202:
 1667              		.loc 1 14 0
 1668 05c8 9DF82030 		ldrb	r3, [sp, #32]	@ zero_extendqisi2
 1669              	.LBE202:
 1670              	.LBE204:
 1671              		.loc 1 219 0
 1672 05cc 3968     		ldr	r1, [r7]
 1673              	.LVL197:
 1674              	.LBB205:
 1675              	.LBB203:
 1676              		.loc 1 14 0
 1677 05ce 222B     		cmp	r3, #34
 1678 05d0 3FF67EAF 		bhi	.L133
 1679 05d4 01A2     		adr	r2, .L135
 1680 05d6 52F823F0 		ldr	pc, [r2, r3, lsl #2]
 1681 05da 00BF     		.p2align 2
 1682              	.L135:
 1683 05dc 69060000 		.word	.L134+1
 1684 05e0 D1040000 		.word	.L133+1
 1685 05e4 D1040000 		.word	.L133+1
 1686 05e8 D1040000 		.word	.L133+1
 1687 05ec 69060000 		.word	.L134+1
 1688 05f0 69060000 		.word	.L134+1
 1689 05f4 D1040000 		.word	.L133+1
 1690 05f8 D1040000 		.word	.L133+1
 1691 05fc D1040000 		.word	.L133+1
 1692 0600 D1040000 		.word	.L133+1
 1693 0604 D1040000 		.word	.L133+1
 1694 0608 D1040000 		.word	.L133+1
 1695 060c 69060000 		.word	.L134+1
 1696 0610 69060000 		.word	.L134+1
 1697 0614 69060000 		.word	.L134+1
 1698 0618 69060000 		.word	.L134+1
 1699 061c 69060000 		.word	.L134+1
 1700 0620 69060000 		.word	.L134+1
 1701 0624 69060000 		.word	.L134+1
 1702 0628 69060000 		.word	.L134+1
 1703 062c 69060000 		.word	.L134+1
 1704 0630 69060000 		.word	.L134+1
 1705 0634 D1040000 		.word	.L133+1
 1706 0638 D1040000 		.word	.L133+1
 1707 063c D1040000 		.word	.L133+1
 1708 0640 D1040000 		.word	.L133+1
 1709 0644 D1040000 		.word	.L133+1
 1710 0648 D1040000 		.word	.L133+1
ARM GAS  C:\Users\mathi\AppData\Local\Temp\cc63fcQp.s 			page 31


 1711 064c D1040000 		.word	.L133+1
 1712 0650 D1040000 		.word	.L133+1
 1713 0654 D1040000 		.word	.L133+1
 1714 0658 D1040000 		.word	.L133+1
 1715 065c D1040000 		.word	.L133+1
 1716 0660 D1040000 		.word	.L133+1
 1717 0664 69060000 		.word	.L134+1
 1718              		.p2align 1
 1719              	.L134:
 1720 0668 069A     		ldr	r2, [sp, #24]
 1721              	.LVL198:
 1722              	.L132:
 1723              	.LBE203:
 1724              	.LBE205:
 1725              	.LBE211:
 1726              		.loc 1 224 0
 1727 066a CDE90091 		strd	r9, r1, [sp]
 1728 066e 4346     		mov	r3, r8
 1729 0670 2146     		mov	r1, r4
 1730 0672 2846     		mov	r0, r5
 1731 0674 FFF7FEFF 		bl	get_vector
 1732              	.LVL199:
 1733              		.loc 1 225 0
 1734 0678 78B9     		cbnz	r0, .L164
 1735              		.loc 1 229 0
 1736 067a 3846     		mov	r0, r7
 1737              	.LVL200:
 1738 067c BDF81820 		ldrh	r2, [sp, #24]
 1739 0680 2146     		mov	r1, r4
 1740 0682 FFF7FEFF 		bl	parameter_variable_vector_set
 1741              	.LVL201:
 1742              		.loc 1 230 0
 1743 0686 2046     		mov	r0, r4
 1744 0688 FFF7FEFF 		bl	free
 1745              	.LVL202:
 1746 068c 26E5     		b	.L93
 1747              	.LVL203:
 1748              	.L173:
 1749              	.LBE212:
 1750              	.LBE214:
 1751              	.LBE258:
 1752              	.LBB259:
 1753              	.LBB244:
 1754              		.loc 1 150 0
 1755 068e 3846     		mov	r0, r7
 1756 0690 9DF81810 		ldrb	r1, [sp, #24]	@ zero_extendqisi2
 1757 0694 FFF7FEFF 		bl	parameter_boolean_set
 1758              	.LVL204:
 1759 0698 20E5     		b	.L93
 1760              	.LVL205:
 1761              	.L164:
 1762 069a 0290     		str	r0, [sp, #8]
 1763              	.LBE244:
 1764              	.LBE259:
 1765              	.LBB260:
 1766              	.LBB215:
 1767              	.LBB213:
ARM GAS  C:\Users\mathi\AppData\Local\Temp\cc63fcQp.s 			page 32


 1768              		.loc 1 226 0
 1769 069c 2046     		mov	r0, r4
 1770 069e FFF7FEFF 		bl	free
 1771              	.LVL206:
 1772 06a2 029B     		ldr	r3, [sp, #8]
 1773 06a4 4FE5     		b	.L80
 1774              	.LVL207:
 1775              	.L145:
 1776              	.LBE213:
 1777              	.LBE215:
 1778              	.LBE260:
 1779              	.LBB261:
 1780              	.LBB219:
 1781              		.loc 1 257 0
 1782 06a6 1046     		mov	r0, r2
 1783 06a8 0292     		str	r2, [sp, #8]
 1784 06aa FFF7FEFF 		bl	malloc
 1785              	.LVL208:
 1786              		.loc 1 258 0
 1787 06ae 029A     		ldr	r2, [sp, #8]
 1788 06b0 0446     		mov	r4, r0
 1789              	.LVL209:
 1790 06b2 70B1     		cbz	r0, .L174
 1791              		.loc 1 262 0
 1792 06b4 0146     		mov	r1, r0
 1793 06b6 AB68     		ldr	r3, [r5, #8]
 1794 06b8 2846     		mov	r0, r5
 1795              	.LVL210:
 1796 06ba 9847     		blx	r3
 1797              	.LVL211:
 1798 06bc 58B1     		cbz	r0, .L175
 1799              		.loc 1 267 0
 1800 06be 3846     		mov	r0, r7
 1801 06c0 BDF81820 		ldrh	r2, [sp, #24]
 1802 06c4 2146     		mov	r1, r4
 1803 06c6 FFF7FEFF 		bl	parameter_string_set_w_len
 1804              	.LVL212:
 1805              		.loc 1 268 0
 1806 06ca 2046     		mov	r0, r4
 1807 06cc FFF7FEFF 		bl	free
 1808              	.LVL213:
 1809 06d0 04E5     		b	.L93
 1810              	.LVL214:
 1811              	.L174:
 1812              		.loc 1 259 0
 1813 06d2 074A     		ldr	r2, .L180
 1814 06d4 49E5     		b	.L165
 1815              	.LVL215:
 1816              	.L175:
 1817              		.loc 1 263 0
 1818 06d6 3968     		ldr	r1, [r7]
 1819 06d8 064A     		ldr	r2, .L180+4
 1820 06da 4846     		mov	r0, r9
 1821 06dc C047     		blx	r8
 1822              	.LVL216:
 1823              		.loc 1 264 0
 1824 06de 2046     		mov	r0, r4
ARM GAS  C:\Users\mathi\AppData\Local\Temp\cc63fcQp.s 			page 33


 1825 06e0 FFF7FEFF 		bl	free
 1826              	.LVL217:
 1827              		.loc 1 265 0
 1828 06e4 4FF0FF33 		mov	r3, #-1
 1829 06e8 2DE5     		b	.L80
 1830              	.LVL218:
 1831              	.L171:
 1832              	.LBE219:
 1833              	.LBE261:
 1834              	.LBE264:
 1835              	.LBE267:
 1836              	.LBE270:
 1837              	.LBE274:
 1838              	.LBE276:
 1839              		.loc 1 368 0
 1840 06ea FFF7FEFF 		bl	__stack_chk_fail
 1841              	.LVL219:
 1842              	.L181:
 1843 06ee 00BF     		.align	2
 1844              	.L180:
 1845 06f0 A8000000 		.word	.LC11
 1846 06f4 04010000 		.word	.LC14
 1847              		.cfi_endproc
 1848              	.LFE262:
 1849              		.size	read_namespace, .-read_namespace
 1850              		.section	.text.parameter_msgpack_read_cmp,"ax",%progbits
 1851              		.align	1
 1852              		.p2align 4,,15
 1853              		.global	parameter_msgpack_read_cmp
 1854              		.syntax unified
 1855              		.thumb
 1856              		.thumb_func
 1857              		.fpu fpv4-sp-d16
 1858              		.type	parameter_msgpack_read_cmp, %function
 1859              	parameter_msgpack_read_cmp:
 1860              	.LFB264:
 1861              		.loc 1 383 0
 1862              		.cfi_startproc
 1863              		@ args = 0, pretend = 0, frame = 8
 1864              		@ frame_needed = 0, uses_anonymous_args = 0
 1865              	.LVL220:
 1866 0000 2DE9F041 		push	{r4, r5, r6, r7, r8, lr}
 1867              		.cfi_def_cfa_offset 24
 1868              		.cfi_offset 4, -24
 1869              		.cfi_offset 5, -20
 1870              		.cfi_offset 6, -16
 1871              		.cfi_offset 7, -12
 1872              		.cfi_offset 8, -8
 1873              		.cfi_offset 14, -4
 1874 0004 134D     		ldr	r5, .L190
 1875              		.loc 1 385 0
 1876 0006 144C     		ldr	r4, .L190+4
 1877              		.loc 1 383 0
 1878 0008 2E68     		ldr	r6, [r5]
 1879 000a 84B0     		sub	sp, sp, #16
 1880              		.cfi_def_cfa_offset 40
 1881              		.loc 1 383 0
ARM GAS  C:\Users\mathi\AppData\Local\Temp\cc63fcQp.s 			page 34


 1882 000c 8046     		mov	r8, r0
 1883 000e 0396     		str	r6, [sp, #12]
 1884              		.loc 1 388 0
 1885 0010 0846     		mov	r0, r1
 1886              	.LVL221:
 1887              		.loc 1 383 0
 1888 0012 0E46     		mov	r6, r1
 1889              		.loc 1 388 0
 1890 0014 02A9     		add	r1, sp, #8
 1891              	.LVL222:
 1892              		.loc 1 383 0
 1893 0016 1F46     		mov	r7, r3
 1894              		.loc 1 385 0
 1895 0018 002A     		cmp	r2, #0
 1896 001a 18BF     		it	ne
 1897 001c 1446     		movne	r4, r2
 1898              	.LVL223:
 1899              		.loc 1 388 0
 1900 001e FFF7FEFF 		bl	cmp_read_map
 1901              	.LVL224:
 1902 0022 68B1     		cbz	r0, .L188
 1903              		.loc 1 392 0
 1904 0024 0299     		ldr	r1, [sp, #8]
 1905 0026 0097     		str	r7, [sp]
 1906 0028 2346     		mov	r3, r4
 1907 002a 3246     		mov	r2, r6
 1908 002c 4046     		mov	r0, r8
 1909 002e FFF7FEFF 		bl	read_namespace
 1910              	.LVL225:
 1911              	.L182:
 1912              		.loc 1 393 0
 1913 0032 039A     		ldr	r2, [sp, #12]
 1914 0034 2B68     		ldr	r3, [r5]
 1915 0036 9A42     		cmp	r2, r3
 1916 0038 09D1     		bne	.L189
 1917 003a 04B0     		add	sp, sp, #16
 1918              		.cfi_remember_state
 1919              		.cfi_def_cfa_offset 24
 1920              		@ sp needed
 1921 003c BDE8F081 		pop	{r4, r5, r6, r7, r8, pc}
 1922              	.LVL226:
 1923              	.L188:
 1924              		.cfi_restore_state
 1925              		.loc 1 389 0
 1926 0040 0146     		mov	r1, r0
 1927 0042 064A     		ldr	r2, .L190+8
 1928 0044 3846     		mov	r0, r7
 1929 0046 A047     		blx	r4
 1930              	.LVL227:
 1931              		.loc 1 390 0
 1932 0048 4FF0FF30 		mov	r0, #-1
 1933 004c F1E7     		b	.L182
 1934              	.L189:
 1935              		.loc 1 393 0
 1936 004e FFF7FEFF 		bl	__stack_chk_fail
 1937              	.LVL228:
 1938              	.L191:
ARM GAS  C:\Users\mathi\AppData\Local\Temp\cc63fcQp.s 			page 35


 1939 0052 00BF     		.align	2
 1940              	.L190:
 1941 0054 00000000 		.word	__stack_chk_guard
 1942 0058 00000000 		.word	err_ignore_cb
 1943 005c 00000000 		.word	.LC16
 1944              		.cfi_endproc
 1945              	.LFE264:
 1946              		.size	parameter_msgpack_read_cmp, .-parameter_msgpack_read_cmp
 1947              		.section	.text.parameter_msgpack_read,"ax",%progbits
 1948              		.align	1
 1949              		.p2align 4,,15
 1950              		.global	parameter_msgpack_read
 1951              		.syntax unified
 1952              		.thumb
 1953              		.thumb_func
 1954              		.fpu fpv4-sp-d16
 1955              		.type	parameter_msgpack_read, %function
 1956              	parameter_msgpack_read:
 1957              	.LFB265:
 1958              		.loc 1 401 0
 1959              		.cfi_startproc
 1960              		@ args = 4, pretend = 0, frame = 40
 1961              		@ frame_needed = 0, uses_anonymous_args = 0
 1962              	.LVL229:
 1963 0000 F0B5     		push	{r4, r5, r6, r7, lr}
 1964              		.cfi_def_cfa_offset 20
 1965              		.cfi_offset 4, -20
 1966              		.cfi_offset 5, -16
 1967              		.cfi_offset 6, -12
 1968              		.cfi_offset 7, -8
 1969              		.cfi_offset 14, -4
 1970 0002 164D     		ldr	r5, .L200
 1971 0004 8DB0     		sub	sp, sp, #52
 1972              		.cfi_def_cfa_offset 72
 1973              		.loc 1 401 0
 1974 0006 2C68     		ldr	r4, [r5]
 1975 0008 0B94     		str	r4, [sp, #44]
 1976 000a 0746     		mov	r7, r0
 1977 000c 1C46     		mov	r4, r3
 1978              		.loc 1 404 0
 1979 000e 07A8     		add	r0, sp, #28
 1980              	.LVL230:
 1981 0010 1346     		mov	r3, r2
 1982              	.LVL231:
 1983 0012 0A46     		mov	r2, r1
 1984              	.LVL232:
 1985 0014 04A9     		add	r1, sp, #16
 1986              	.LVL233:
 1987              		.loc 1 401 0
 1988 0016 129E     		ldr	r6, [sp, #72]
 1989              		.loc 1 404 0
 1990 0018 FFF7FEFF 		bl	cmp_mem_access_ro_init
 1991              	.LVL234:
 1992              	.LBB279:
 1993              	.LBB280:
 1994              		.loc 1 385 0
 1995 001c 104B     		ldr	r3, .L200+4
ARM GAS  C:\Users\mathi\AppData\Local\Temp\cc63fcQp.s 			page 36


 1996              		.loc 1 388 0
 1997 001e 07A8     		add	r0, sp, #28
 1998              	.LVL235:
 1999 0020 03A9     		add	r1, sp, #12
 2000              		.loc 1 385 0
 2001 0022 002C     		cmp	r4, #0
 2002 0024 08BF     		it	eq
 2003 0026 1C46     		moveq	r4, r3
 2004              	.LVL236:
 2005              		.loc 1 388 0
 2006 0028 FFF7FEFF 		bl	cmp_read_map
 2007              	.LVL237:
 2008 002c 60B1     		cbz	r0, .L198
 2009              		.loc 1 392 0
 2010 002e 0399     		ldr	r1, [sp, #12]
 2011 0030 0096     		str	r6, [sp]
 2012 0032 2346     		mov	r3, r4
 2013 0034 07AA     		add	r2, sp, #28
 2014              	.LVL238:
 2015 0036 3846     		mov	r0, r7
 2016 0038 FFF7FEFF 		bl	read_namespace
 2017              	.LVL239:
 2018              	.L192:
 2019              	.LBE280:
 2020              	.LBE279:
 2021              		.loc 1 406 0
 2022 003c 0B9A     		ldr	r2, [sp, #44]
 2023 003e 2B68     		ldr	r3, [r5]
 2024 0040 9A42     		cmp	r2, r3
 2025 0042 08D1     		bne	.L199
 2026 0044 0DB0     		add	sp, sp, #52
 2027              		.cfi_remember_state
 2028              		.cfi_def_cfa_offset 20
 2029              		@ sp needed
 2030 0046 F0BD     		pop	{r4, r5, r6, r7, pc}
 2031              	.LVL240:
 2032              	.L198:
 2033              		.cfi_restore_state
 2034              	.LBB282:
 2035              	.LBB281:
 2036              		.loc 1 389 0
 2037 0048 0146     		mov	r1, r0
 2038 004a 064A     		ldr	r2, .L200+8
 2039 004c 3046     		mov	r0, r6
 2040 004e A047     		blx	r4
 2041              	.LVL241:
 2042              		.loc 1 390 0
 2043 0050 4FF0FF30 		mov	r0, #-1
 2044 0054 F2E7     		b	.L192
 2045              	.LVL242:
 2046              	.L199:
 2047              	.LBE281:
 2048              	.LBE282:
 2049              		.loc 1 406 0
 2050 0056 FFF7FEFF 		bl	__stack_chk_fail
 2051              	.LVL243:
 2052              	.L201:
ARM GAS  C:\Users\mathi\AppData\Local\Temp\cc63fcQp.s 			page 37


 2053 005a 00BF     		.align	2
 2054              	.L200:
 2055 005c 00000000 		.word	__stack_chk_guard
 2056 0060 00000000 		.word	err_ignore_cb
 2057 0064 00000000 		.word	.LC16
 2058              		.cfi_endproc
 2059              	.LFE265:
 2060              		.size	parameter_msgpack_read, .-parameter_msgpack_read
 2061              		.section	.text.parameter_msgpack_write_cmp,"ax",%progbits
 2062              		.align	1
 2063              		.p2align 4,,15
 2064              		.global	parameter_msgpack_write_cmp
 2065              		.syntax unified
 2066              		.thumb
 2067              		.thumb_func
 2068              		.fpu fpv4-sp-d16
 2069              		.type	parameter_msgpack_write_cmp, %function
 2070              	parameter_msgpack_write_cmp:
 2071              	.LFB267:
 2072              		.loc 1 493 0
 2073              		.cfi_startproc
 2074              		@ args = 0, pretend = 0, frame = 8
 2075              		@ frame_needed = 0, uses_anonymous_args = 0
 2076              	.LVL244:
 2077 0000 2DE9F041 		push	{r4, r5, r6, r7, r8, lr}
 2078              		.cfi_def_cfa_offset 24
 2079              		.cfi_offset 4, -24
 2080              		.cfi_offset 5, -20
 2081              		.cfi_offset 6, -16
 2082              		.cfi_offset 7, -12
 2083              		.cfi_offset 8, -8
 2084              		.cfi_offset 14, -4
 2085 0004 1A4C     		ldr	r4, .L208
 2086 0006 84B0     		sub	sp, sp, #16
 2087              		.cfi_def_cfa_offset 40
 2088              		.loc 1 493 0
 2089 0008 2568     		ldr	r5, [r4]
 2090 000a 0395     		str	r5, [sp, #12]
 2091              	.LVL245:
 2092 000c 9846     		mov	r8, r3
 2093 000e 0546     		mov	r5, r0
 2094 0010 0E46     		mov	r6, r1
 2095 0012 1746     		mov	r7, r2
 2096              	.LBB298:
 2097              	.LBB299:
 2098              	.LBB300:
 2099              	.LBB301:
 2100              	.LBB302:
 2101              		.file 2 "../../lib/e-puck2_main-processor/ChibiOS//os/ext/CMSIS/include/core_cmFunc.h"
 2102              		.loc 2 546 0
 2103 0014 2023     		movs	r3, #32
 2104              	.LVL246:
 2105              		.syntax unified
 2106              	@ 546 "../../lib/e-puck2_main-processor/ChibiOS//os/ext/CMSIS/include/core_cmFunc.h" 1
 2107 0016 83F31188 		MSR basepri, r3
 2108              	@ 0 "" 2
 2109              	.LVL247:
ARM GAS  C:\Users\mathi\AppData\Local\Temp\cc63fcQp.s 			page 38


 2110              		.thumb
 2111              		.syntax unified
 2112              	.LBE302:
 2113              	.LBE301:
 2114              	.LBE300:
 2115              		.file 3 "../../lib/e-puck2_main-processor/ChibiOS//os/rt/include/chsys.h"
 2116              		.loc 3 349 0
 2117 001a FFF7FEFF 		bl	_stats_start_measure_crit_thd
 2118              	.LVL248:
 2119              		.loc 3 350 0
 2120 001e FFF7FEFF 		bl	_dbg_check_lock
 2121              	.LVL249:
 2122              	.LBE299:
 2123              	.LBE298:
 2124              		.loc 1 495 0
 2125 0022 3B46     		mov	r3, r7
 2126 0024 3246     		mov	r2, r6
 2127 0026 05F11401 		add	r1, r5, #20
 2128 002a 05F10C00 		add	r0, r5, #12
 2129 002e CDF80080 		str	r8, [sp]
 2130 0032 FFF7FEFF 		bl	parameter_msgpack_write_subtree.isra.6
 2131              	.LVL250:
 2132              	.LBB303:
 2133              	.LBB304:
 2134              		.loc 3 360 0
 2135 0036 FFF7FEFF 		bl	_dbg_check_unlock
 2136              	.LVL251:
 2137              		.loc 3 361 0
 2138 003a FFF7FEFF 		bl	_stats_stop_measure_crit_thd
 2139              	.LVL252:
 2140              		.loc 3 367 0
 2141 003e 0D4B     		ldr	r3, .L208+4
 2142 0040 1A68     		ldr	r2, [r3]
 2143 0042 9A42     		cmp	r2, r3
 2144 0044 04D0     		beq	.L203
 2145 0046 9969     		ldr	r1, [r3, #24]
 2146 0048 9368     		ldr	r3, [r2, #8]
 2147 004a 8A68     		ldr	r2, [r1, #8]
 2148 004c 9A42     		cmp	r2, r3
 2149 004e 09D3     		bcc	.L206
 2150              	.L203:
 2151              	.LVL253:
 2152              	.LBB305:
 2153              	.LBB306:
 2154              	.LBB307:
 2155              		.loc 2 546 0
 2156 0050 0023     		movs	r3, #0
 2157              		.syntax unified
 2158              	@ 546 "../../lib/e-puck2_main-processor/ChibiOS//os/ext/CMSIS/include/core_cmFunc.h" 1
 2159 0052 83F31188 		MSR basepri, r3
 2160              	@ 0 "" 2
 2161              	.LVL254:
 2162              		.thumb
 2163              		.syntax unified
 2164              	.LBE307:
 2165              	.LBE306:
 2166              	.LBE305:
ARM GAS  C:\Users\mathi\AppData\Local\Temp\cc63fcQp.s 			page 39


 2167              	.LBE304:
 2168              	.LBE303:
 2169              		.loc 1 497 0
 2170 0056 039A     		ldr	r2, [sp, #12]
 2171 0058 2368     		ldr	r3, [r4]
 2172 005a 9A42     		cmp	r2, r3
 2173 005c 06D1     		bne	.L207
 2174 005e 04B0     		add	sp, sp, #16
 2175              		.cfi_remember_state
 2176              		.cfi_def_cfa_offset 24
 2177              		@ sp needed
 2178 0060 BDE8F081 		pop	{r4, r5, r6, r7, r8, pc}
 2179              	.LVL255:
 2180              	.L206:
 2181              		.cfi_restore_state
 2182              	.LBB309:
 2183              	.LBB308:
 2184              		.loc 3 367 0
 2185 0064 0448     		ldr	r0, .L208+8
 2186 0066 FFF7FEFF 		bl	chSysHalt
 2187              	.LVL256:
 2188 006a F1E7     		b	.L203
 2189              	.L207:
 2190              	.LBE308:
 2191              	.LBE309:
 2192              		.loc 1 497 0
 2193 006c FFF7FEFF 		bl	__stack_chk_fail
 2194              	.LVL257:
 2195              	.L209:
 2196              		.align	2
 2197              	.L208:
 2198 0070 00000000 		.word	__stack_chk_guard
 2199 0074 00000000 		.word	ch
 2200 0078 00000000 		.word	.LANCHOR0
 2201              		.cfi_endproc
 2202              	.LFE267:
 2203              		.size	parameter_msgpack_write_cmp, .-parameter_msgpack_write_cmp
 2204              		.section	.text.parameter_msgpack_write,"ax",%progbits
 2205              		.align	1
 2206              		.p2align 4,,15
 2207              		.global	parameter_msgpack_write
 2208              		.syntax unified
 2209              		.thumb
 2210              		.thumb_func
 2211              		.fpu fpv4-sp-d16
 2212              		.type	parameter_msgpack_write, %function
 2213              	parameter_msgpack_write:
 2214              	.LFB268:
 2215              		.loc 1 505 0
 2216              		.cfi_startproc
 2217              		@ args = 4, pretend = 0, frame = 32
 2218              		@ frame_needed = 0, uses_anonymous_args = 0
 2219              	.LVL258:
 2220 0000 F0B5     		push	{r4, r5, r6, r7, lr}
 2221              		.cfi_def_cfa_offset 20
 2222              		.cfi_offset 4, -20
 2223              		.cfi_offset 5, -16
ARM GAS  C:\Users\mathi\AppData\Local\Temp\cc63fcQp.s 			page 40


 2224              		.cfi_offset 6, -12
 2225              		.cfi_offset 7, -8
 2226              		.cfi_offset 14, -4
 2227 0002 1C4C     		ldr	r4, .L216
 2228 0004 8BB0     		sub	sp, sp, #44
 2229              		.cfi_def_cfa_offset 64
 2230              		.loc 1 505 0
 2231 0006 2568     		ldr	r5, [r4]
 2232 0008 0995     		str	r5, [sp, #36]
 2233 000a 1E46     		mov	r6, r3
 2234 000c 0546     		mov	r5, r0
 2235              		.loc 1 508 0
 2236 000e 1346     		mov	r3, r2
 2237              	.LVL259:
 2238 0010 05A8     		add	r0, sp, #20
 2239              	.LVL260:
 2240 0012 0A46     		mov	r2, r1
 2241              	.LVL261:
 2242 0014 02A9     		add	r1, sp, #8
 2243              	.LVL262:
 2244              		.loc 1 505 0
 2245 0016 109F     		ldr	r7, [sp, #64]
 2246              		.loc 1 508 0
 2247 0018 FFF7FEFF 		bl	cmp_mem_access_init
 2248              	.LVL263:
 2249              	.LBB322:
 2250              	.LBB323:
 2251              	.LBB324:
 2252              	.LBB325:
 2253              	.LBB326:
 2254              	.LBB327:
 2255              	.LBB328:
 2256              		.loc 2 546 0
 2257 001c 2023     		movs	r3, #32
 2258              		.syntax unified
 2259              	@ 546 "../../lib/e-puck2_main-processor/ChibiOS//os/ext/CMSIS/include/core_cmFunc.h" 1
 2260 001e 83F31188 		MSR basepri, r3
 2261              	@ 0 "" 2
 2262              	.LVL264:
 2263              		.thumb
 2264              		.syntax unified
 2265              	.LBE328:
 2266              	.LBE327:
 2267              	.LBE326:
 2268              		.loc 3 349 0
 2269 0022 FFF7FEFF 		bl	_stats_start_measure_crit_thd
 2270              	.LVL265:
 2271              		.loc 3 350 0
 2272 0026 FFF7FEFF 		bl	_dbg_check_lock
 2273              	.LVL266:
 2274              	.LBE325:
 2275              	.LBE324:
 2276              		.loc 1 495 0
 2277 002a 3346     		mov	r3, r6
 2278 002c 05AA     		add	r2, sp, #20
 2279              	.LVL267:
 2280 002e 05F11401 		add	r1, r5, #20
ARM GAS  C:\Users\mathi\AppData\Local\Temp\cc63fcQp.s 			page 41


 2281 0032 05F10C00 		add	r0, r5, #12
 2282 0036 0097     		str	r7, [sp]
 2283 0038 FFF7FEFF 		bl	parameter_msgpack_write_subtree.isra.6
 2284              	.LVL268:
 2285              	.LBB329:
 2286              	.LBB330:
 2287              		.loc 3 360 0
 2288 003c FFF7FEFF 		bl	_dbg_check_unlock
 2289              	.LVL269:
 2290              		.loc 3 361 0
 2291 0040 FFF7FEFF 		bl	_stats_stop_measure_crit_thd
 2292              	.LVL270:
 2293              		.loc 3 367 0
 2294 0044 0C4B     		ldr	r3, .L216+4
 2295 0046 1A68     		ldr	r2, [r3]
 2296 0048 9A42     		cmp	r2, r3
 2297 004a 04D0     		beq	.L211
 2298 004c 9969     		ldr	r1, [r3, #24]
 2299 004e 9368     		ldr	r3, [r2, #8]
 2300 0050 8A68     		ldr	r2, [r1, #8]
 2301 0052 9A42     		cmp	r2, r3
 2302 0054 08D3     		bcc	.L214
 2303              	.L211:
 2304              	.LVL271:
 2305              	.LBB331:
 2306              	.LBB332:
 2307              	.LBB333:
 2308              		.loc 2 546 0
 2309 0056 0023     		movs	r3, #0
 2310              		.syntax unified
 2311              	@ 546 "../../lib/e-puck2_main-processor/ChibiOS//os/ext/CMSIS/include/core_cmFunc.h" 1
 2312 0058 83F31188 		MSR basepri, r3
 2313              	@ 0 "" 2
 2314              	.LVL272:
 2315              		.thumb
 2316              		.syntax unified
 2317              	.LBE333:
 2318              	.LBE332:
 2319              	.LBE331:
 2320              	.LBE330:
 2321              	.LBE329:
 2322              	.LBE323:
 2323              	.LBE322:
 2324              		.loc 1 510 0
 2325 005c 099A     		ldr	r2, [sp, #36]
 2326 005e 2368     		ldr	r3, [r4]
 2327 0060 9A42     		cmp	r2, r3
 2328 0062 05D1     		bne	.L215
 2329 0064 0BB0     		add	sp, sp, #44
 2330              		.cfi_remember_state
 2331              		.cfi_def_cfa_offset 20
 2332              		@ sp needed
 2333 0066 F0BD     		pop	{r4, r5, r6, r7, pc}
 2334              	.LVL273:
 2335              	.L214:
 2336              		.cfi_restore_state
 2337              	.LBB337:
ARM GAS  C:\Users\mathi\AppData\Local\Temp\cc63fcQp.s 			page 42


 2338              	.LBB336:
 2339              	.LBB335:
 2340              	.LBB334:
 2341              		.loc 3 367 0
 2342 0068 0448     		ldr	r0, .L216+8
 2343 006a FFF7FEFF 		bl	chSysHalt
 2344              	.LVL274:
 2345 006e F2E7     		b	.L211
 2346              	.LVL275:
 2347              	.L215:
 2348              	.LBE334:
 2349              	.LBE335:
 2350              	.LBE336:
 2351              	.LBE337:
 2352              		.loc 1 510 0
 2353 0070 FFF7FEFF 		bl	__stack_chk_fail
 2354              	.LVL276:
 2355              	.L217:
 2356              		.align	2
 2357              	.L216:
 2358 0074 00000000 		.word	__stack_chk_guard
 2359 0078 00000000 		.word	ch
 2360 007c 00000000 		.word	.LANCHOR0
 2361              		.cfi_endproc
 2362              	.LFE268:
 2363              		.size	parameter_msgpack_write, .-parameter_msgpack_write
 2364              		.section	.rodata.__func__.8568,"a",%progbits
 2365              		.align	2
 2366              		.set	.LANCHOR0,. + 0
 2367              		.type	__func__.8568, %object
 2368              		.size	__func__.8568, 12
 2369              	__func__.8568:
 2370 0000 63685379 		.ascii	"chSysUnlock\000"
 2370      73556E6C 
 2370      6F636B00 
 2371              		.section	.rodata.get_vector.str1.4,"aMS",%progbits,1
 2372              		.align	2
 2373              	.LC2:
 2374 0000 636F756C 		.ascii	"could not read object\000"
 2374      64206E6F 
 2374      74207265 
 2374      6164206F 
 2374      626A6563 
 2375 0016 0000     		.space	2
 2376              	.LC3:
 2377 0018 7761726E 		.ascii	"warning: type mismatch\000"
 2377      696E673A 
 2377      20747970 
 2377      65206D69 
 2377      736D6174 
 2378 002f 00       		.space	1
 2379              	.LC4:
 2380 0030 64697363 		.ascii	"discarding failed\000"
 2380      61726469 
 2380      6E672066 
 2380      61696C65 
 2380      6400
ARM GAS  C:\Users\mathi\AppData\Local\Temp\cc63fcQp.s 			page 43


 2381              		.section	.rodata.parameter_msgpack_read_cmp.str1.4,"aMS",%progbits,1
 2382              		.align	2
 2383              	.LC16:
 2384 0000 636F756C 		.ascii	"could not read namespace map\000"
 2384      64206E6F 
 2384      74207265 
 2384      6164206E 
 2384      616D6573 
 2385              		.section	.rodata.parameter_msgpack_write_subtree.isra.6.str1.4,"aMS",%progbits,1
 2386              		.align	2
 2387              	.LC0:
 2388 0000 756E7375 		.ascii	"unsupported type for saving\000"
 2388      70706F72 
 2388      74656420 
 2388      74797065 
 2388      20666F72 
 2389              	.LC1:
 2390 001c 636D705F 		.ascii	"cmp_write failed\000"
 2390      77726974 
 2390      65206661 
 2390      696C6564 
 2390      00
 2391              		.section	.rodata.read_namespace.str1.4,"aMS",%progbits,1
 2392              		.align	2
 2393              	.LC5:
 2394 0000 636F756C 		.ascii	"could not read id\000"
 2394      64206E6F 
 2394      74207265 
 2394      61642069 
 2394      6400
 2395 0012 0000     		.space	2
 2396              	.LC6:
 2397 0014 616C6C6F 		.ascii	"allocation failed\000"
 2397      63617469 
 2397      6F6E2066 
 2397      61696C65 
 2397      6400
 2398 0026 0000     		.space	2
 2399              	.LC7:
 2400 0028 636F756C 		.ascii	"could not read value\000"
 2400      64206E6F 
 2400      74207265 
 2400      61642076 
 2400      616C7565 
 2401 003d 000000   		.space	3
 2402              	.LC8:
 2403 0040 7761726E 		.ascii	"warning: namespace doesn't exist\000"
 2403      696E673A 
 2403      206E616D 
 2403      65737061 
 2403      63652064 
 2404 0061 000000   		.space	3
 2405              	.LC9:
 2406 0064 7761726E 		.ascii	"warning: parameter doesn't exist\000"
 2406      696E673A 
 2406      20706172 
 2406      616D6574 
ARM GAS  C:\Users\mathi\AppData\Local\Temp\cc63fcQp.s 			page 44


 2406      65722064 
 2407 0085 000000   		.space	3
 2408              	.LC10:
 2409 0088 7761726E 		.ascii	"warning: wrong vector dimension\000"
 2409      696E673A 
 2409      2077726F 
 2409      6E672076 
 2409      6563746F 
 2410              	.LC11:
 2411 00a8 7761726E 		.ascii	"warning: allocation failed\000"
 2411      696E673A 
 2411      20616C6C 
 2411      6F636174 
 2411      696F6E20 
 2412 00c3 00       		.space	1
 2413              	.LC12:
 2414 00c4 7761726E 		.ascii	"warning: vector dimension too big\000"
 2414      696E673A 
 2414      20766563 
 2414      746F7220 
 2414      64696D65 
 2415 00e6 0000     		.space	2
 2416              	.LC13:
 2417 00e8 7761726E 		.ascii	"warning: string is too long\000"
 2417      696E673A 
 2417      20737472 
 2417      696E6720 
 2417      69732074 
 2418              	.LC14:
 2419 0104 72656164 		.ascii	"read error\000"
 2419      20657272 
 2419      6F7200
 2420 010f 00       		.space	1
 2421              	.LC15:
 2422 0110 544F444F 		.ascii	"TODO not implemented yet\000"
 2422      206E6F74 
 2422      20696D70 
 2422      6C656D65 
 2422      6E746564 
 2423              		.text
 2424              	.Letext0:
 2425              		.file 4 "c:\\eclipse_e-puck2\\tools\\gcc-arm-none-eabi-7-2017-q4-major-win32\\lib\\gcc\\arm-none-e
 2426              		.file 5 "c:\\eclipse_e-puck2\\tools\\gcc-arm-none-eabi-7-2017-q4-major-win32\\arm-none-eabi\\inclu
 2427              		.file 6 "c:\\eclipse_e-puck2\\tools\\gcc-arm-none-eabi-7-2017-q4-major-win32\\arm-none-eabi\\inclu
 2428              		.file 7 "c:\\eclipse_e-puck2\\tools\\gcc-arm-none-eabi-7-2017-q4-major-win32\\arm-none-eabi\\inclu
 2429              		.file 8 "c:\\eclipse_e-puck2\\tools\\gcc-arm-none-eabi-7-2017-q4-major-win32\\arm-none-eabi\\inclu
 2430              		.file 9 "c:\\eclipse_e-puck2\\tools\\gcc-arm-none-eabi-7-2017-q4-major-win32\\arm-none-eabi\\inclu
 2431              		.file 10 "c:\\eclipse_e-puck2\\tools\\gcc-arm-none-eabi-7-2017-q4-major-win32\\arm-none-eabi\\incl
 2432              		.file 11 "../../lib/e-puck2_main-processor/src/cmp/cmp.h"
 2433              		.file 12 "../../lib/e-puck2_main-processor/src/cmp_mem_access/cmp_mem_access.h"
 2434              		.file 13 "../../lib/e-puck2_main-processor/ChibiOS//os/rt/ports/ARMCMx/compilers/GCC/chtypes.h"
 2435              		.file 14 "../../lib/e-puck2_main-processor/ChibiOS//os/rt/include/chsystypes.h"
 2436              		.file 15 "../../lib/e-puck2_main-processor/ChibiOS//os/rt/include/chschd.h"
 2437              		.file 16 "../../lib/e-puck2_main-processor/ChibiOS//os/ext/CMSIS/include/core_cm4.h"
 2438              		.file 17 "../../lib/e-puck2_main-processor/ChibiOS//os/ext/CMSIS/ST/system_stm32f4xx.h"
 2439              		.file 18 "../../lib/e-puck2_main-processor/ChibiOS//os/rt/ports/ARMCMx/chcore.h"
 2440              		.file 19 "../../lib/e-puck2_main-processor/ChibiOS//os/rt/ports/ARMCMx/chcore_v7m.h"
ARM GAS  C:\Users\mathi\AppData\Local\Temp\cc63fcQp.s 			page 45


 2441              		.file 20 "../../lib/e-puck2_main-processor/ChibiOS//os/rt/include/chdebug.h"
 2442              		.file 21 "../../lib/e-puck2_main-processor/ChibiOS//os/rt/include/chtm.h"
 2443              		.file 22 "../../lib/e-puck2_main-processor/ChibiOS//os/rt/include/chstats.h"
 2444              		.file 23 "../../lib/e-puck2_main-processor/ChibiOS//os/rt/include/chsem.h"
 2445              		.file 24 "../../lib/e-puck2_main-processor/ChibiOS//os/rt/include/chmtx.h"
 2446              		.file 25 "../../lib/e-puck2_main-processor/ChibiOS//os/rt/include/chregistry.h"
 2447              		.file 26 "../../lib/e-puck2_main-processor/src/parameter/parameter.h"
 2448              		.file 27 "../../lib/e-puck2_main-processor/src/parameter/parameter_msgpack.h"
 2449              		.file 28 "c:\\eclipse_e-puck2\\tools\\gcc-arm-none-eabi-7-2017-q4-major-win32\\arm-none-eabi\\incl