ARM GAS  C:\Users\mathi\AppData\Local\Temp\ccovYL19.s 			page 1


   1              		.cpu cortex-m4
   2              		.eabi_attribute 27, 1
   3              		.eabi_attribute 28, 1
   4              		.eabi_attribute 20, 1
   5              		.eabi_attribute 21, 1
   6              		.eabi_attribute 23, 3
   7              		.eabi_attribute 24, 1
   8              		.eabi_attribute 25, 1
   9              		.eabi_attribute 26, 1
  10              		.eabi_attribute 30, 2
  11              		.eabi_attribute 34, 1
  12              		.eabi_attribute 18, 4
  13              		.file	"parameter_print.c"
  14              		.text
  15              	.Ltext0:
  16              		.cfi_sections	.debug_frame
  17              		.global	__aeabi_f2d
  18              		.section	.text.param_ns_print.isra.0,"ax",%progbits
  19              		.align	1
  20              		.p2align 4,,15
  21              		.syntax unified
  22              		.thumb
  23              		.thumb_func
  24              		.fpu fpv4-sp-d16
  25              		.type	param_ns_print.isra.0, %function
  26              	param_ns_print.isra.0:
  27              	.LFB5:
  28              		.file 1 "../../lib/e-puck2_main-processor/src/parameter/parameter_print.c"
  29              		.loc 1 100 0
  30              		.cfi_startproc
  31              		@ args = 4, pretend = 0, frame = 32
  32              		@ frame_needed = 0, uses_anonymous_args = 0
  33              	.LVL0:
  34 0000 2DE9F04F 		push	{r4, r5, r6, r7, r8, r9, r10, fp, lr}
  35              		.cfi_def_cfa_offset 36
  36              		.cfi_offset 4, -36
  37              		.cfi_offset 5, -32
  38              		.cfi_offset 6, -28
  39              		.cfi_offset 7, -24
  40              		.cfi_offset 8, -20
  41              		.cfi_offset 9, -16
  42              		.cfi_offset 10, -12
  43              		.cfi_offset 11, -8
  44              		.cfi_offset 14, -4
  45 0004 924C     		ldr	r4, .L68
  46 0006 8BB0     		sub	sp, sp, #44
  47              		.cfi_def_cfa_offset 80
  48              		.loc 1 100 0
  49 0008 2468     		ldr	r4, [r4]
  50 000a 0994     		str	r4, [sp, #36]
  51              	.LVL1:
  52 000c 149D     		ldr	r5, [sp, #80]
  53 000e 8346     		mov	fp, r0
  54 0010 1646     		mov	r6, r2
  55 0012 1C46     		mov	r4, r3
  56              		.loc 1 106 0
  57 0014 01B3     		cbz	r1, .L3
ARM GAS  C:\Users\mathi\AppData\Local\Temp\ccovYL19.s 			page 2


  58              	.LBB33:
  59              	.LBB34:
  60              	.LBB35:
  61              	.LBB36:
  62              		.loc 1 13 0
  63 0016 8F4F     		ldr	r7, .L68+4
  64              	.LBE36:
  65              	.LBE35:
  66              		.loc 1 42 0
  67 0018 DFF874A2 		ldr	r10, .L68+64
  68 001c 8846     		mov	r8, r1
  69              	.LVL2:
  70              	.L2:
  71              	.LBB38:
  72              	.LBB37:
  73              		.loc 1 12 0
  74 001e 002E     		cmp	r6, #0
  75 0020 08DD     		ble	.L25
  76 0022 4FF00009 		mov	r9, #0
  77              	.LVL3:
  78              	.L4:
  79 0026 09F10109 		add	r9, r9, #1
  80              	.LVL4:
  81              		.loc 1 13 0
  82 002a 3946     		mov	r1, r7
  83 002c 2846     		mov	r0, r5
  84 002e A047     		blx	r4
  85              	.LVL5:
  86              		.loc 1 12 0
  87 0030 4E45     		cmp	r6, r9
  88 0032 F8D1     		bne	.L4
  89              	.LVL6:
  90              	.L25:
  91              	.LBE37:
  92              	.LBE38:
  93              		.loc 1 42 0
  94 0034 D8F80020 		ldr	r2, [r8]
  95 0038 5146     		mov	r1, r10
  96 003a 2846     		mov	r0, r5
  97 003c A047     		blx	r4
  98              	.LVL7:
  99              		.loc 1 43 0
 100 003e 4046     		mov	r0, r8
 101 0040 FFF7FEFF 		bl	parameter_defined
 102              	.LVL8:
 103 0044 0028     		cmp	r0, #0
 104 0046 33D1     		bne	.L5
 105              		.loc 1 44 0
 106 0048 8349     		ldr	r1, .L68+8
 107 004a 2846     		mov	r0, r5
 108 004c A047     		blx	r4
 109              	.LVL9:
 110              	.L6:
 111              	.LBE34:
 112              	.LBE33:
 113              		.loc 1 108 0
 114 004e D8F80880 		ldr	r8, [r8, #8]
ARM GAS  C:\Users\mathi\AppData\Local\Temp\ccovYL19.s 			page 3


 115              	.LVL10:
 116              		.loc 1 106 0
 117 0052 B8F1000F 		cmp	r8, #0
 118 0056 E2D1     		bne	.L2
 119              	.LVL11:
 120              	.L3:
 121              		.loc 1 110 0
 122 0058 DBF80070 		ldr	r7, [fp]
 123              	.LVL12:
 124              		.loc 1 111 0
 125 005c FFB1     		cbz	r7, .L1
 126              	.LBB57:
 127              	.LBB58:
 128              		.loc 1 13 0
 129 005e DFF8F481 		ldr	r8, .L68+4
 130              	.LBE58:
 131              	.LBE57:
 132              		.loc 1 113 0
 133 0062 DFF83092 		ldr	r9, .L68+68
 134 0066 06F1010A 		add	r10, r6, #1
 135              	.L27:
 136              	.LVL13:
 137              	.LBB60:
 138              	.LBB59:
 139              		.loc 1 12 0
 140 006a 002E     		cmp	r6, #0
 141 006c 08DD     		ble	.L29
 142 006e 4FF0000B 		mov	fp, #0
 143              	.LVL14:
 144              	.L28:
 145 0072 0BF1010B 		add	fp, fp, #1
 146              	.LVL15:
 147              		.loc 1 13 0
 148 0076 4146     		mov	r1, r8
 149 0078 2846     		mov	r0, r5
 150 007a A047     		blx	r4
 151              	.LVL16:
 152              		.loc 1 12 0
 153 007c 5E45     		cmp	r6, fp
 154 007e F8D1     		bne	.L28
 155              	.LVL17:
 156              	.L29:
 157              	.LBE59:
 158              	.LBE60:
 159              		.loc 1 113 0
 160 0080 3A68     		ldr	r2, [r7]
 161 0082 4946     		mov	r1, r9
 162 0084 2846     		mov	r0, r5
 163 0086 A047     		blx	r4
 164              	.LVL18:
 165              		.loc 1 114 0
 166 0088 7969     		ldr	r1, [r7, #20]
 167 008a 0095     		str	r5, [sp]
 168 008c 07F10C00 		add	r0, r7, #12
 169 0090 2346     		mov	r3, r4
 170 0092 5246     		mov	r2, r10
 171 0094 FFF7B4FF 		bl	param_ns_print.isra.0
ARM GAS  C:\Users\mathi\AppData\Local\Temp\ccovYL19.s 			page 4


 172              	.LVL19:
 173              		.loc 1 115 0
 174 0098 3F69     		ldr	r7, [r7, #16]
 175              	.LVL20:
 176              		.loc 1 111 0
 177 009a 002F     		cmp	r7, #0
 178 009c E5D1     		bne	.L27
 179              	.L1:
 180              		.loc 1 117 0
 181 009e 6C4B     		ldr	r3, .L68
 182 00a0 099A     		ldr	r2, [sp, #36]
 183 00a2 1B68     		ldr	r3, [r3]
 184 00a4 9A42     		cmp	r2, r3
 185 00a6 40F0D180 		bne	.L63
 186 00aa 0BB0     		add	sp, sp, #44
 187              		.cfi_remember_state
 188              		.cfi_def_cfa_offset 36
 189              		@ sp needed
 190 00ac BDE8F08F 		pop	{r4, r5, r6, r7, r8, r9, r10, fp, pc}
 191              	.LVL21:
 192              	.L5:
 193              		.cfi_restore_state
 194              	.LBB61:
 195              	.LBB56:
 196              		.loc 1 47 0
 197 00b0 98F80E30 		ldrb	r3, [r8, #14]	@ zero_extendqisi2
 198 00b4 013B     		subs	r3, r3, #1
 199 00b6 052B     		cmp	r3, #5
 200 00b8 C9D8     		bhi	.L6
 201 00ba DFE803F0 		tbb	[pc, r3]
 202              	.L8:
 203 00be 11       		.byte	(.L7-.L8)/2
 204 00bf 1E       		.byte	(.L9-.L8)/2
 205 00c0 2A       		.byte	(.L10-.L8)/2
 206 00c1 32       		.byte	(.L11-.L8)/2
 207 00c2 3F       		.byte	(.L12-.L8)/2
 208 00c3 03       		.byte	(.L13-.L8)/2
 209              		.p2align 1
 210              	.L13:
 211              	.LBB39:
 212              		.loc 1 85 0
 213 00c4 4046     		mov	r0, r8
 214 00c6 FFF7FEFF 		bl	parameter_variable_vector_max_dim
 215              	.LVL22:
 216              		.loc 1 86 0
 217 00ca 8000     		lsls	r0, r0, #2
 218              	.LVL23:
 219 00cc FFF7FEFF 		bl	malloc
 220              	.LVL24:
 221              		.loc 1 87 0
 222 00d0 0390     		str	r0, [sp, #12]
 223 00d2 0028     		cmp	r0, #0
 224 00d4 78D1     		bne	.L64
 225              	.LVL25:
 226              	.L16:
 227              	.LBE39:
 228              	.LBB46:
ARM GAS  C:\Users\mathi\AppData\Local\Temp\ccovYL19.s 			page 5


 229              		.loc 1 80 0
 230 00d6 614A     		ldr	r2, .L68+12
 231 00d8 6149     		ldr	r1, .L68+16
 232 00da 2846     		mov	r0, r5
 233 00dc A047     		blx	r4
 234              	.LVL26:
 235 00de B6E7     		b	.L6
 236              	.L7:
 237              	.LBE46:
 238              		.loc 1 49 0
 239 00e0 4046     		mov	r0, r8
 240 00e2 FFF7FEFF 		bl	parameter_scalar_read
 241              	.LVL27:
 242 00e6 10EE100A 		vmov	r0, s0
 243 00ea FFF7FEFF 		bl	__aeabi_f2d
 244              	.LVL28:
 245 00ee 0246     		mov	r2, r0
 246 00f0 0B46     		mov	r3, r1
 247 00f2 2846     		mov	r0, r5
 248 00f4 5B49     		ldr	r1, .L68+20
 249 00f6 A047     		blx	r4
 250              	.LVL29:
 251 00f8 A9E7     		b	.L6
 252              	.L9:
 253              		.loc 1 57 0
 254 00fa 4046     		mov	r0, r8
 255 00fc FFF7FEFF 		bl	parameter_boolean_read
 256              	.LVL30:
 257 0100 594B     		ldr	r3, .L68+24
 258 0102 5A4A     		ldr	r2, .L68+28
 259 0104 5A49     		ldr	r1, .L68+32
 260 0106 0028     		cmp	r0, #0
 261 0108 18BF     		it	ne
 262 010a 1A46     		movne	r2, r3
 263 010c 2846     		mov	r0, r5
 264 010e A047     		blx	r4
 265              	.LVL31:
 266 0110 9DE7     		b	.L6
 267              	.L10:
 268              		.loc 1 53 0
 269 0112 4046     		mov	r0, r8
 270 0114 FFF7FEFF 		bl	parameter_integer_read
 271              	.LVL32:
 272 0118 5649     		ldr	r1, .L68+36
 273 011a 0246     		mov	r2, r0
 274 011c 2846     		mov	r0, r5
 275 011e A047     		blx	r4
 276              	.LVL33:
 277 0120 95E7     		b	.L6
 278              	.L11:
 279              	.LBB51:
 280              		.loc 1 61 0
 281 0122 4046     		mov	r0, r8
 282 0124 FFF7FEFF 		bl	parameter_string_max_len
 283              	.LVL34:
 284 0128 8146     		mov	r9, r0
 285              	.LVL35:
ARM GAS  C:\Users\mathi\AppData\Local\Temp\ccovYL19.s 			page 6


 286              		.loc 1 62 0
 287 012a FFF7FEFF 		bl	malloc
 288              	.LVL36:
 289              		.loc 1 63 0
 290 012e 0028     		cmp	r0, #0
 291 0130 3AD1     		bne	.L65
 292              		.loc 1 68 0
 293 0132 4A4A     		ldr	r2, .L68+12
 294 0134 5049     		ldr	r1, .L68+40
 295 0136 2846     		mov	r0, r5
 296              	.LVL37:
 297 0138 A047     		blx	r4
 298              	.LVL38:
 299 013a 88E7     		b	.L6
 300              	.LVL39:
 301              	.L12:
 302              	.LBE51:
 303              	.LBB52:
 304              		.loc 1 73 0
 305 013c 4046     		mov	r0, r8
 306 013e FFF7FEFF 		bl	parameter_vector_dim
 307              	.LVL40:
 308 0142 0390     		str	r0, [sp, #12]
 309              	.LVL41:
 310              		.loc 1 74 0
 311 0144 8000     		lsls	r0, r0, #2
 312              	.LVL42:
 313 0146 FFF7FEFF 		bl	malloc
 314              	.LVL43:
 315              		.loc 1 75 0
 316 014a 0590     		str	r0, [sp, #20]
 317 014c 0028     		cmp	r0, #0
 318 014e C2D0     		beq	.L16
 319              		.loc 1 76 0
 320 0150 0146     		mov	r1, r0
 321 0152 8146     		mov	r9, r0
 322 0154 4046     		mov	r0, r8
 323              	.LVL44:
 324 0156 FFF7FEFF 		bl	parameter_vector_read
 325              	.LVL45:
 326              	.LBB47:
 327              	.LBB48:
 328              		.loc 1 23 0
 329 015a 4849     		ldr	r1, .L68+44
 330 015c 2846     		mov	r0, r5
 331 015e A047     		blx	r4
 332              	.LVL46:
 333              		.loc 1 25 0
 334 0160 039B     		ldr	r3, [sp, #12]
 335 0162 D3B1     		cbz	r3, .L17
 336 0164 013B     		subs	r3, r3, #1
 337 0166 CDF81090 		str	r9, [sp, #16]
 338 016a 0693     		str	r3, [sp, #24]
 339 016c 4FF00009 		mov	r9, #0
 340              	.LVL47:
 341 0170 0796     		str	r6, [sp, #28]
 342              	.LVL48:
ARM GAS  C:\Users\mathi\AppData\Local\Temp\ccovYL19.s 			page 7


 343              	.L18:
 344 0172 049B     		ldr	r3, [sp, #16]
 345 0174 53F8040B 		ldr	r0, [r3], #4	@ float
 346 0178 0493     		str	r3, [sp, #16]
 347 017a FFF7FEFF 		bl	__aeabi_f2d
 348              	.LVL49:
 349 017e 0B46     		mov	r3, r1
 350              		.loc 1 26 0
 351 0180 0699     		ldr	r1, [sp, #24]
 352 0182 4945     		cmp	r1, r9
 353 0184 0246     		mov	r2, r0
 354 0186 57D0     		beq	.L66
 355              		.loc 1 29 0
 356 0188 3D49     		ldr	r1, .L68+48
 357 018a 2846     		mov	r0, r5
 358 018c A047     		blx	r4
 359              	.LVL50:
 360              		.loc 1 25 0
 361 018e 039B     		ldr	r3, [sp, #12]
 362 0190 09F10109 		add	r9, r9, #1
 363              	.LVL51:
 364 0194 4B45     		cmp	r3, r9
 365 0196 ECD1     		bne	.L18
 366              	.L60:
 367 0198 079E     		ldr	r6, [sp, #28]
 368              	.LVL52:
 369              	.L17:
 370              		.loc 1 32 0
 371 019a 3A49     		ldr	r1, .L68+52
 372 019c 2846     		mov	r0, r5
 373 019e A047     		blx	r4
 374              	.LVL53:
 375              	.LBE48:
 376              	.LBE47:
 377              		.loc 1 78 0
 378 01a0 0598     		ldr	r0, [sp, #20]
 379 01a2 FFF7FEFF 		bl	free
 380              	.LVL54:
 381 01a6 52E7     		b	.L6
 382              	.LVL55:
 383              	.L65:
 384              	.LBE52:
 385              	.LBB53:
 386              		.loc 1 64 0
 387 01a8 4A46     		mov	r2, r9
 388 01aa 0146     		mov	r1, r0
 389 01ac 0390     		str	r0, [sp, #12]
 390 01ae 4046     		mov	r0, r8
 391              	.LVL56:
 392 01b0 FFF7FEFF 		bl	parameter_string_read
 393              	.LVL57:
 394              		.loc 1 65 0
 395 01b4 039B     		ldr	r3, [sp, #12]
 396 01b6 3449     		ldr	r1, .L68+56
 397 01b8 1A46     		mov	r2, r3
 398 01ba 2846     		mov	r0, r5
 399 01bc A047     		blx	r4
ARM GAS  C:\Users\mathi\AppData\Local\Temp\ccovYL19.s 			page 8


 400              	.LVL58:
 401              		.loc 1 66 0
 402 01be 039B     		ldr	r3, [sp, #12]
 403 01c0 1846     		mov	r0, r3
 404 01c2 FFF7FEFF 		bl	free
 405              	.LVL59:
 406 01c6 42E7     		b	.L6
 407              	.LVL60:
 408              	.L64:
 409              	.LBE53:
 410              	.LBB54:
 411              		.loc 1 88 0
 412 01c8 0146     		mov	r1, r0
 413 01ca 4046     		mov	r0, r8
 414              	.LVL61:
 415 01cc FFF7FEFF 		bl	parameter_variable_vector_read
 416              	.LVL62:
 417              	.LBB40:
 418              	.LBB41:
 419              		.loc 1 23 0
 420 01d0 2A49     		ldr	r1, .L68+44
 421              	.LBE41:
 422              	.LBE40:
 423              		.loc 1 88 0
 424 01d2 0690     		str	r0, [sp, #24]
 425 01d4 8146     		mov	r9, r0
 426              	.LVL63:
 427              	.LBB44:
 428              	.LBB42:
 429              		.loc 1 23 0
 430 01d6 2846     		mov	r0, r5
 431              	.LVL64:
 432 01d8 A047     		blx	r4
 433              	.LVL65:
 434              		.loc 1 25 0
 435 01da 4B46     		mov	r3, r9
 436 01dc DBB1     		cbz	r3, .L21
 437 01de 09F1FF33 		add	r3, r9, #-1
 438 01e2 0593     		str	r3, [sp, #20]
 439 01e4 039B     		ldr	r3, [sp, #12]
 440 01e6 0493     		str	r3, [sp, #16]
 441 01e8 4FF00009 		mov	r9, #0
 442              	.LVL66:
 443 01ec 0796     		str	r6, [sp, #28]
 444              	.LVL67:
 445              	.L22:
 446 01ee 049B     		ldr	r3, [sp, #16]
 447 01f0 53F8040B 		ldr	r0, [r3], #4	@ float
 448 01f4 0493     		str	r3, [sp, #16]
 449 01f6 FFF7FEFF 		bl	__aeabi_f2d
 450              	.LVL68:
 451 01fa 0B46     		mov	r3, r1
 452              		.loc 1 26 0
 453 01fc 0599     		ldr	r1, [sp, #20]
 454 01fe 4945     		cmp	r1, r9
 455 0200 0246     		mov	r2, r0
 456 0202 0FD0     		beq	.L67
ARM GAS  C:\Users\mathi\AppData\Local\Temp\ccovYL19.s 			page 9


 457              		.loc 1 29 0
 458 0204 1E49     		ldr	r1, .L68+48
 459 0206 2846     		mov	r0, r5
 460 0208 A047     		blx	r4
 461              	.LVL69:
 462              		.loc 1 25 0
 463 020a 069B     		ldr	r3, [sp, #24]
 464 020c 09F10109 		add	r9, r9, #1
 465              	.LVL70:
 466 0210 4B45     		cmp	r3, r9
 467 0212 ECD1     		bne	.L22
 468              	.L61:
 469 0214 079E     		ldr	r6, [sp, #28]
 470              	.LVL71:
 471              	.L21:
 472              		.loc 1 32 0
 473 0216 1B49     		ldr	r1, .L68+52
 474 0218 2846     		mov	r0, r5
 475 021a A047     		blx	r4
 476              	.LVL72:
 477              	.LBE42:
 478              	.LBE44:
 479              		.loc 1 90 0
 480 021c 0398     		ldr	r0, [sp, #12]
 481 021e FFF7FEFF 		bl	free
 482              	.LVL73:
 483 0222 14E7     		b	.L6
 484              	.LVL74:
 485              	.L67:
 486              	.LBB45:
 487              	.LBB43:
 488              		.loc 1 25 0
 489 0224 059E     		ldr	r6, [sp, #20]
 490              		.loc 1 27 0
 491 0226 1949     		ldr	r1, .L68+60
 492 0228 2846     		mov	r0, r5
 493 022a A047     		blx	r4
 494              	.LVL75:
 495              		.loc 1 25 0
 496 022c 069B     		ldr	r3, [sp, #24]
 497 022e 06F10109 		add	r9, r6, #1
 498              	.LVL76:
 499 0232 4B45     		cmp	r3, r9
 500 0234 DBD1     		bne	.L22
 501 0236 EDE7     		b	.L61
 502              	.LVL77:
 503              	.L66:
 504              	.LBE43:
 505              	.LBE45:
 506              	.LBE54:
 507              	.LBB55:
 508              	.LBB50:
 509              	.LBB49:
 510 0238 069E     		ldr	r6, [sp, #24]
 511              		.loc 1 27 0
 512 023a 1449     		ldr	r1, .L68+60
 513 023c 2846     		mov	r0, r5
ARM GAS  C:\Users\mathi\AppData\Local\Temp\ccovYL19.s 			page 10


 514 023e A047     		blx	r4
 515              	.LVL78:
 516              		.loc 1 25 0
 517 0240 039B     		ldr	r3, [sp, #12]
 518 0242 06F10109 		add	r9, r6, #1
 519              	.LVL79:
 520 0246 4B45     		cmp	r3, r9
 521 0248 93D1     		bne	.L18
 522 024a A5E7     		b	.L60
 523              	.LVL80:
 524              	.L63:
 525              	.LBE49:
 526              	.LBE50:
 527              	.LBE55:
 528              	.LBE56:
 529              	.LBE61:
 530              		.loc 1 117 0
 531 024c FFF7FEFF 		bl	__stack_chk_fail
 532              	.LVL81:
 533              	.L69:
 534              		.align	2
 535              	.L68:
 536 0250 00000000 		.word	__stack_chk_guard
 537 0254 10000000 		.word	.LC2
 538 0258 1C000000 		.word	.LC4
 539 025c 34000000 		.word	.LC9
 540 0260 80000000 		.word	.LC15
 541 0264 20000000 		.word	.LC5
 542 0268 00000000 		.word	.LC0
 543 026c 08000000 		.word	.LC1
 544 0270 28000000 		.word	.LC7
 545 0274 24000000 		.word	.LC6
 546 0278 64000000 		.word	.LC10
 547 027c 6C000000 		.word	.LC11
 548 0280 74000000 		.word	.LC13
 549 0284 7C000000 		.word	.LC14
 550 0288 2C000000 		.word	.LC8
 551 028c 70000000 		.word	.LC12
 552 0290 14000000 		.word	.LC3
 553 0294 88000000 		.word	.LC16
 554              		.cfi_endproc
 555              	.LFE5:
 556              		.size	param_ns_print.isra.0, .-param_ns_print.isra.0
 557              		.section	.text.parameter_print,"ax",%progbits
 558              		.align	1
 559              		.p2align 4,,15
 560              		.global	parameter_print
 561              		.syntax unified
 562              		.thumb
 563              		.thumb_func
 564              		.fpu fpv4-sp-d16
 565              		.type	parameter_print, %function
 566              	parameter_print:
 567              	.LFB4:
 568              		.loc 1 123 0
 569              		.cfi_startproc
 570              		@ args = 0, pretend = 0, frame = 32
ARM GAS  C:\Users\mathi\AppData\Local\Temp\ccovYL19.s 			page 11


 571              		@ frame_needed = 0, uses_anonymous_args = 0
 572              	.LVL82:
 573 0000 2DE9F04F 		push	{r4, r5, r6, r7, r8, r9, r10, fp, lr}
 574              		.cfi_def_cfa_offset 36
 575              		.cfi_offset 4, -36
 576              		.cfi_offset 5, -32
 577              		.cfi_offset 6, -28
 578              		.cfi_offset 7, -24
 579              		.cfi_offset 8, -20
 580              		.cfi_offset 9, -16
 581              		.cfi_offset 10, -12
 582              		.cfi_offset 11, -8
 583              		.cfi_offset 14, -4
 584 0004 964B     		ldr	r3, .L178
 585 0006 4669     		ldr	r6, [r0, #20]
 586 0008 1B68     		ldr	r3, [r3]
 587 000a 8BB0     		sub	sp, sp, #44
 588              		.cfi_def_cfa_offset 80
 589              		.loc 1 123 0
 590 000c 8346     		mov	fp, r0
 591 000e 0993     		str	r3, [sp, #36]
 592 0010 0C46     		mov	r4, r1
 593              	.LVL83:
 594 0012 1546     		mov	r5, r2
 595              	.LVL84:
 596              	.LBB92:
 597              	.LBB93:
 598              		.loc 1 106 0
 599 0014 7EB1     		cbz	r6, .L71
 600              	.LBB94:
 601              	.LBB95:
 602              		.loc 1 42 0
 603 0016 934F     		ldr	r7, .L178+4
 604              	.LVL85:
 605              	.L92:
 606 0018 3268     		ldr	r2, [r6]
 607 001a 3946     		mov	r1, r7
 608 001c 2846     		mov	r0, r5
 609 001e A047     		blx	r4
 610              	.LVL86:
 611              		.loc 1 43 0
 612 0020 3046     		mov	r0, r6
 613 0022 FFF7FEFF 		bl	parameter_defined
 614              	.LVL87:
 615 0026 0028     		cmp	r0, #0
 616 0028 57D1     		bne	.L72
 617              		.loc 1 44 0
 618 002a 8F49     		ldr	r1, .L178+8
 619 002c 2846     		mov	r0, r5
 620 002e A047     		blx	r4
 621              	.LVL88:
 622              	.L73:
 623              	.LBE95:
 624              	.LBE94:
 625              		.loc 1 108 0
 626 0030 B668     		ldr	r6, [r6, #8]
 627              	.LVL89:
ARM GAS  C:\Users\mathi\AppData\Local\Temp\ccovYL19.s 			page 12


 628              		.loc 1 106 0
 629 0032 002E     		cmp	r6, #0
 630 0034 F0D1     		bne	.L92
 631              	.L71:
 632              		.loc 1 110 0
 633 0036 DBF80C80 		ldr	r8, [fp, #12]
 634              	.LVL90:
 635              		.loc 1 111 0
 636 003a B8F1000F 		cmp	r8, #0
 637 003e 43D0     		beq	.L70
 638              		.loc 1 113 0
 639 0040 DFF85492 		ldr	r9, .L178+56
 640              	.LBB117:
 641              	.LBB118:
 642              	.LBB119:
 643              	.LBB120:
 644              	.LBB121:
 645              	.LBB122:
 646              		.loc 1 13 0
 647 0044 DFF854B2 		ldr	fp, .L178+60
 648              	.LVL91:
 649              	.LBE122:
 650              	.LBE121:
 651              		.loc 1 42 0
 652 0048 DFF818A2 		ldr	r10, .L178+4
 653 004c 4746     		mov	r7, r8
 654 004e 2646     		mov	r6, r4
 655              	.LVL92:
 656 0050 A846     		mov	r8, r5
 657              	.LVL93:
 658              	.L119:
 659              	.LBE120:
 660              	.LBE119:
 661              	.LBE118:
 662              	.LBE117:
 663              		.loc 1 113 0
 664 0052 3A68     		ldr	r2, [r7]
 665 0054 4946     		mov	r1, r9
 666 0056 4046     		mov	r0, r8
 667 0058 B047     		blx	r6
 668              	.LVL94:
 669 005a 7C69     		ldr	r4, [r7, #20]
 670              	.LVL95:
 671              	.LBB158:
 672              	.LBB154:
 673              		.loc 1 106 0
 674 005c DCB1     		cbz	r4, .L95
 675              	.LBB147:
 676              	.LBB142:
 677              	.LBB124:
 678              	.LBB125:
 679              	.LBB126:
 680              		.loc 1 23 0
 681 005e 834D     		ldr	r5, .L178+12
 682 0060 04E0     		b	.L94
 683              	.LVL96:
 684              	.L163:
ARM GAS  C:\Users\mathi\AppData\Local\Temp\ccovYL19.s 			page 13


 685              	.LBE126:
 686              	.LBE125:
 687              	.LBE124:
 688              		.loc 1 44 0
 689 0062 8149     		ldr	r1, .L178+8
 690 0064 4046     		mov	r0, r8
 691 0066 B047     		blx	r6
 692              	.LVL97:
 693              	.L96:
 694              	.LBE142:
 695              	.LBE147:
 696              		.loc 1 108 0
 697 0068 A468     		ldr	r4, [r4, #8]
 698              	.LVL98:
 699              		.loc 1 106 0
 700 006a A4B1     		cbz	r4, .L95
 701              	.L94:
 702              	.LVL99:
 703              	.LBB148:
 704              	.LBB143:
 705              	.LBB131:
 706              	.LBB123:
 707              		.loc 1 13 0
 708 006c 5946     		mov	r1, fp
 709 006e 4046     		mov	r0, r8
 710 0070 B047     		blx	r6
 711              	.LVL100:
 712              	.LBE123:
 713              	.LBE131:
 714              		.loc 1 42 0
 715 0072 2268     		ldr	r2, [r4]
 716 0074 5146     		mov	r1, r10
 717 0076 4046     		mov	r0, r8
 718 0078 B047     		blx	r6
 719              	.LVL101:
 720              		.loc 1 43 0
 721 007a 2046     		mov	r0, r4
 722 007c FFF7FEFF 		bl	parameter_defined
 723              	.LVL102:
 724 0080 0028     		cmp	r0, #0
 725 0082 EED0     		beq	.L163
 726              		.loc 1 47 0
 727 0084 A37B     		ldrb	r3, [r4, #14]	@ zero_extendqisi2
 728 0086 013B     		subs	r3, r3, #1
 729 0088 052B     		cmp	r3, #5
 730 008a EDD8     		bhi	.L96
 731 008c DFE803F0 		tbb	[pc, r3]
 732              	.L98:
 733 0090 9C       		.byte	(.L97-.L98)/2
 734 0091 90       		.byte	(.L99-.L98)/2
 735 0092 88       		.byte	(.L100-.L98)/2
 736 0093 7A       		.byte	(.L101-.L98)/2
 737 0094 40       		.byte	(.L102-.L98)/2
 738 0095 31       		.byte	(.L103-.L98)/2
 739              		.p2align 1
 740              	.L95:
 741              	.LBE143:
ARM GAS  C:\Users\mathi\AppData\Local\Temp\ccovYL19.s 			page 14


 742              	.LBE148:
 743              		.loc 1 110 0
 744 0096 FC68     		ldr	r4, [r7, #12]
 745              	.LVL103:
 746              		.loc 1 111 0
 747 0098 9CB1     		cbz	r4, .L117
 748 009a 4546     		mov	r5, r8
 749              	.LVL104:
 750              	.L118:
 751              	.LBB149:
 752              	.LBB150:
 753              		.loc 1 13 0
 754 009c 5946     		mov	r1, fp
 755 009e 2846     		mov	r0, r5
 756 00a0 B047     		blx	r6
 757              	.LVL105:
 758              	.LBE150:
 759              	.LBE149:
 760              		.loc 1 113 0
 761 00a2 2268     		ldr	r2, [r4]
 762 00a4 4946     		mov	r1, r9
 763 00a6 2846     		mov	r0, r5
 764 00a8 B047     		blx	r6
 765              	.LVL106:
 766              		.loc 1 114 0
 767 00aa 6169     		ldr	r1, [r4, #20]
 768 00ac 0095     		str	r5, [sp]
 769 00ae 04F10C00 		add	r0, r4, #12
 770 00b2 3346     		mov	r3, r6
 771 00b4 0222     		movs	r2, #2
 772 00b6 FFF7FEFF 		bl	param_ns_print.isra.0
 773              	.LVL107:
 774              		.loc 1 115 0
 775 00ba 2469     		ldr	r4, [r4, #16]
 776              	.LVL108:
 777              		.loc 1 111 0
 778 00bc 002C     		cmp	r4, #0
 779 00be EDD1     		bne	.L118
 780 00c0 A846     		mov	r8, r5
 781              	.LVL109:
 782              	.L117:
 783              	.LBE154:
 784              	.LBE158:
 785              		.loc 1 115 0
 786 00c2 3F69     		ldr	r7, [r7, #16]
 787              	.LVL110:
 788              		.loc 1 111 0
 789 00c4 002F     		cmp	r7, #0
 790 00c6 C4D1     		bne	.L119
 791              	.LVL111:
 792              	.L70:
 793              	.LBE93:
 794              	.LBE92:
 795              		.loc 1 125 0
 796 00c8 654B     		ldr	r3, .L178
 797 00ca 099A     		ldr	r2, [sp, #36]
 798 00cc 1B68     		ldr	r3, [r3]
ARM GAS  C:\Users\mathi\AppData\Local\Temp\ccovYL19.s 			page 15


 799 00ce 9A42     		cmp	r2, r3
 800 00d0 40F09C81 		bne	.L170
 801 00d4 0BB0     		add	sp, sp, #44
 802              		.cfi_remember_state
 803              		.cfi_def_cfa_offset 36
 804              		@ sp needed
 805 00d6 BDE8F08F 		pop	{r4, r5, r6, r7, r8, r9, r10, fp, pc}
 806              	.LVL112:
 807              	.L72:
 808              		.cfi_restore_state
 809              	.LBB168:
 810              	.LBB166:
 811              	.LBB159:
 812              	.LBB113:
 813              		.loc 1 47 0
 814 00da B37B     		ldrb	r3, [r6, #14]	@ zero_extendqisi2
 815 00dc 013B     		subs	r3, r3, #1
 816 00de 052B     		cmp	r3, #5
 817 00e0 A6D8     		bhi	.L73
 818 00e2 DFE813F0 		tbh	[pc, r3, lsl #1]
 819              	.L75:
 820 00e6 8D00     		.2byte	(.L74-.L75)/2
 821 00e8 9A00     		.2byte	(.L76-.L75)/2
 822 00ea A600     		.2byte	(.L77-.L75)/2
 823 00ec AE00     		.2byte	(.L78-.L75)/2
 824 00ee DD00     		.2byte	(.L79-.L75)/2
 825 00f0 7E00     		.2byte	(.L80-.L75)/2
 826              	.LVL113:
 827              		.p2align 1
 828              	.L103:
 829              	.LBE113:
 830              	.LBE159:
 831              	.LBB160:
 832              	.LBB155:
 833              	.LBB151:
 834              	.LBB144:
 835              	.LBB132:
 836              		.loc 1 85 0
 837 00f2 2046     		mov	r0, r4
 838 00f4 FFF7FEFF 		bl	parameter_variable_vector_max_dim
 839              	.LVL114:
 840              		.loc 1 86 0
 841 00f8 8000     		lsls	r0, r0, #2
 842              	.LVL115:
 843 00fa FFF7FEFF 		bl	malloc
 844              	.LVL116:
 845              		.loc 1 87 0
 846 00fe 0390     		str	r0, [sp, #12]
 847 0100 0028     		cmp	r0, #0
 848 0102 40F00181 		bne	.L171
 849              	.LVL117:
 850              	.L106:
 851              	.LBE132:
 852              	.LBB133:
 853              		.loc 1 80 0
 854 0106 5A4A     		ldr	r2, .L178+16
 855 0108 5A49     		ldr	r1, .L178+20
ARM GAS  C:\Users\mathi\AppData\Local\Temp\ccovYL19.s 			page 16


 856 010a 4046     		mov	r0, r8
 857 010c B047     		blx	r6
 858              	.LVL118:
 859 010e ABE7     		b	.L96
 860              	.L102:
 861              		.loc 1 73 0
 862 0110 2046     		mov	r0, r4
 863 0112 FFF7FEFF 		bl	parameter_vector_dim
 864              	.LVL119:
 865 0116 0390     		str	r0, [sp, #12]
 866              	.LVL120:
 867              		.loc 1 74 0
 868 0118 8000     		lsls	r0, r0, #2
 869              	.LVL121:
 870 011a FFF7FEFF 		bl	malloc
 871              	.LVL122:
 872              		.loc 1 75 0
 873 011e 0590     		str	r0, [sp, #20]
 874 0120 0028     		cmp	r0, #0
 875 0122 F0D0     		beq	.L106
 876              		.loc 1 76 0
 877 0124 0146     		mov	r1, r0
 878 0126 2046     		mov	r0, r4
 879              	.LVL123:
 880 0128 FFF7FEFF 		bl	parameter_vector_read
 881              	.LVL124:
 882              	.LBB134:
 883              	.LBB135:
 884              		.loc 1 23 0
 885 012c 2946     		mov	r1, r5
 886 012e 4046     		mov	r0, r8
 887 0130 B047     		blx	r6
 888              	.LVL125:
 889              		.loc 1 25 0
 890 0132 039B     		ldr	r3, [sp, #12]
 891 0134 FBB1     		cbz	r3, .L107
 892 0136 013B     		subs	r3, r3, #1
 893 0138 0693     		str	r3, [sp, #24]
 894 013a 059B     		ldr	r3, [sp, #20]
 895 013c 0493     		str	r3, [sp, #16]
 896 013e 0023     		movs	r3, #0
 897 0140 0797     		str	r7, [sp, #28]
 898 0142 4746     		mov	r7, r8
 899 0144 A046     		mov	r8, r4
 900              	.LVL126:
 901 0146 1C46     		mov	r4, r3
 902              	.LVL127:
 903              	.L108:
 904 0148 049B     		ldr	r3, [sp, #16]
 905 014a 53F8040B 		ldr	r0, [r3], #4	@ float
 906 014e 0493     		str	r3, [sp, #16]
 907 0150 FFF7FEFF 		bl	__aeabi_f2d
 908              	.LVL128:
 909 0154 0B46     		mov	r3, r1
 910              		.loc 1 26 0
 911 0156 0699     		ldr	r1, [sp, #24]
 912 0158 8C42     		cmp	r4, r1
ARM GAS  C:\Users\mathi\AppData\Local\Temp\ccovYL19.s 			page 17


 913 015a 0246     		mov	r2, r0
 914              		.loc 1 25 0
 915 015c 04F10104 		add	r4, r4, #1
 916              	.LVL129:
 917              		.loc 1 26 0
 918 0160 00F05D81 		beq	.L172
 919              		.loc 1 29 0
 920 0164 4449     		ldr	r1, .L178+24
 921 0166 3846     		mov	r0, r7
 922 0168 B047     		blx	r6
 923              	.LVL130:
 924              		.loc 1 25 0
 925 016a 039B     		ldr	r3, [sp, #12]
 926 016c A342     		cmp	r3, r4
 927 016e EBD1     		bne	.L108
 928              	.L167:
 929 0170 4446     		mov	r4, r8
 930              	.LVL131:
 931 0172 B846     		mov	r8, r7
 932              	.LVL132:
 933 0174 079F     		ldr	r7, [sp, #28]
 934              	.LVL133:
 935              	.L107:
 936              		.loc 1 32 0
 937 0176 4149     		ldr	r1, .L178+28
 938 0178 4046     		mov	r0, r8
 939 017a B047     		blx	r6
 940              	.LVL134:
 941              	.LBE135:
 942              	.LBE134:
 943              		.loc 1 78 0
 944 017c 0598     		ldr	r0, [sp, #20]
 945 017e FFF7FEFF 		bl	free
 946              	.LVL135:
 947 0182 71E7     		b	.L96
 948              	.LVL136:
 949              	.L101:
 950              	.LBE133:
 951              	.LBB138:
 952              		.loc 1 61 0
 953 0184 2046     		mov	r0, r4
 954 0186 FFF7FEFF 		bl	parameter_string_max_len
 955              	.LVL137:
 956 018a 0390     		str	r0, [sp, #12]
 957              	.LVL138:
 958              		.loc 1 62 0
 959 018c FFF7FEFF 		bl	malloc
 960              	.LVL139:
 961              		.loc 1 63 0
 962 0190 0028     		cmp	r0, #0
 963 0192 40F0E980 		bne	.L173
 964              		.loc 1 68 0
 965 0196 364A     		ldr	r2, .L178+16
 966 0198 3949     		ldr	r1, .L178+32
 967 019a 4046     		mov	r0, r8
 968              	.LVL140:
 969 019c B047     		blx	r6
ARM GAS  C:\Users\mathi\AppData\Local\Temp\ccovYL19.s 			page 18


 970              	.LVL141:
 971 019e 63E7     		b	.L96
 972              	.LVL142:
 973              	.L100:
 974              	.LBE138:
 975              		.loc 1 53 0
 976 01a0 2046     		mov	r0, r4
 977 01a2 FFF7FEFF 		bl	parameter_integer_read
 978              	.LVL143:
 979 01a6 3749     		ldr	r1, .L178+36
 980 01a8 0246     		mov	r2, r0
 981 01aa 4046     		mov	r0, r8
 982 01ac B047     		blx	r6
 983              	.LVL144:
 984 01ae 5BE7     		b	.L96
 985              	.L99:
 986              		.loc 1 57 0
 987 01b0 2046     		mov	r0, r4
 988 01b2 FFF7FEFF 		bl	parameter_boolean_read
 989              	.LVL145:
 990 01b6 344B     		ldr	r3, .L178+40
 991 01b8 344A     		ldr	r2, .L178+44
 992 01ba 3549     		ldr	r1, .L178+48
 993 01bc 0028     		cmp	r0, #0
 994 01be 18BF     		it	ne
 995 01c0 1A46     		movne	r2, r3
 996 01c2 4046     		mov	r0, r8
 997 01c4 B047     		blx	r6
 998              	.LVL146:
 999 01c6 4FE7     		b	.L96
 1000              	.L97:
 1001              		.loc 1 49 0
 1002 01c8 2046     		mov	r0, r4
 1003 01ca FFF7FEFF 		bl	parameter_scalar_read
 1004              	.LVL147:
 1005 01ce 10EE100A 		vmov	r0, s0
 1006 01d2 FFF7FEFF 		bl	__aeabi_f2d
 1007              	.LVL148:
 1008 01d6 0246     		mov	r2, r0
 1009 01d8 0B46     		mov	r3, r1
 1010 01da 4046     		mov	r0, r8
 1011 01dc 2D49     		ldr	r1, .L178+52
 1012 01de B047     		blx	r6
 1013              	.LVL149:
 1014 01e0 42E7     		b	.L96
 1015              	.LVL150:
 1016              	.L80:
 1017              	.LBE144:
 1018              	.LBE151:
 1019              	.LBE155:
 1020              	.LBE160:
 1021              	.LBB161:
 1022              	.LBB114:
 1023              	.LBB96:
 1024              		.loc 1 85 0
 1025 01e2 3046     		mov	r0, r6
 1026 01e4 FFF7FEFF 		bl	parameter_variable_vector_max_dim
ARM GAS  C:\Users\mathi\AppData\Local\Temp\ccovYL19.s 			page 19


 1027              	.LVL151:
 1028              		.loc 1 86 0
 1029 01e8 8000     		lsls	r0, r0, #2
 1030              	.LVL152:
 1031 01ea FFF7FEFF 		bl	malloc
 1032              	.LVL153:
 1033              		.loc 1 87 0
 1034 01ee 8146     		mov	r9, r0
 1035 01f0 0028     		cmp	r0, #0
 1036 01f2 40F0D680 		bne	.L174
 1037              	.LVL154:
 1038              	.L83:
 1039              	.LBE96:
 1040              	.LBB103:
 1041              		.loc 1 80 0
 1042 01f6 1E4A     		ldr	r2, .L178+16
 1043 01f8 1E49     		ldr	r1, .L178+20
 1044 01fa 2846     		mov	r0, r5
 1045 01fc A047     		blx	r4
 1046              	.LVL155:
 1047 01fe 17E7     		b	.L73
 1048              	.L74:
 1049              	.LBE103:
 1050              		.loc 1 49 0
 1051 0200 3046     		mov	r0, r6
 1052 0202 FFF7FEFF 		bl	parameter_scalar_read
 1053              	.LVL156:
 1054 0206 10EE100A 		vmov	r0, s0
 1055 020a FFF7FEFF 		bl	__aeabi_f2d
 1056              	.LVL157:
 1057 020e 0246     		mov	r2, r0
 1058 0210 0B46     		mov	r3, r1
 1059 0212 2846     		mov	r0, r5
 1060 0214 1F49     		ldr	r1, .L178+52
 1061 0216 A047     		blx	r4
 1062              	.LVL158:
 1063 0218 0AE7     		b	.L73
 1064              	.L76:
 1065              		.loc 1 57 0
 1066 021a 3046     		mov	r0, r6
 1067 021c FFF7FEFF 		bl	parameter_boolean_read
 1068              	.LVL159:
 1069 0220 194B     		ldr	r3, .L178+40
 1070 0222 1A4A     		ldr	r2, .L178+44
 1071 0224 1A49     		ldr	r1, .L178+48
 1072 0226 0028     		cmp	r0, #0
 1073 0228 18BF     		it	ne
 1074 022a 1A46     		movne	r2, r3
 1075 022c 2846     		mov	r0, r5
 1076 022e A047     		blx	r4
 1077              	.LVL160:
 1078 0230 FEE6     		b	.L73
 1079              	.L77:
 1080              		.loc 1 53 0
 1081 0232 3046     		mov	r0, r6
 1082 0234 FFF7FEFF 		bl	parameter_integer_read
 1083              	.LVL161:
ARM GAS  C:\Users\mathi\AppData\Local\Temp\ccovYL19.s 			page 20


 1084 0238 1249     		ldr	r1, .L178+36
 1085 023a 0246     		mov	r2, r0
 1086 023c 2846     		mov	r0, r5
 1087 023e A047     		blx	r4
 1088              	.LVL162:
 1089 0240 F6E6     		b	.L73
 1090              	.L78:
 1091              	.LBB108:
 1092              		.loc 1 61 0
 1093 0242 3046     		mov	r0, r6
 1094 0244 FFF7FEFF 		bl	parameter_string_max_len
 1095              	.LVL163:
 1096 0248 8146     		mov	r9, r0
 1097              	.LVL164:
 1098              		.loc 1 62 0
 1099 024a FFF7FEFF 		bl	malloc
 1100              	.LVL165:
 1101              		.loc 1 63 0
 1102 024e 8046     		mov	r8, r0
 1103 0250 0028     		cmp	r0, #0
 1104 0252 40F09980 		bne	.L175
 1105              		.loc 1 68 0
 1106 0256 064A     		ldr	r2, .L178+16
 1107 0258 0949     		ldr	r1, .L178+32
 1108 025a 2846     		mov	r0, r5
 1109              	.LVL166:
 1110 025c A047     		blx	r4
 1111              	.LVL167:
 1112 025e E7E6     		b	.L73
 1113              	.L179:
 1114              		.align	2
 1115              	.L178:
 1116 0260 00000000 		.word	__stack_chk_guard
 1117 0264 14000000 		.word	.LC3
 1118 0268 1C000000 		.word	.LC4
 1119 026c 6C000000 		.word	.LC11
 1120 0270 34000000 		.word	.LC9
 1121 0274 80000000 		.word	.LC15
 1122 0278 74000000 		.word	.LC13
 1123 027c 7C000000 		.word	.LC14
 1124 0280 64000000 		.word	.LC10
 1125 0284 24000000 		.word	.LC6
 1126 0288 00000000 		.word	.LC0
 1127 028c 08000000 		.word	.LC1
 1128 0290 28000000 		.word	.LC7
 1129 0294 20000000 		.word	.LC5
 1130 0298 88000000 		.word	.LC16
 1131 029c 10000000 		.word	.LC2
 1132              	.LVL168:
 1133              	.L79:
 1134              	.LBE108:
 1135              	.LBB109:
 1136              		.loc 1 73 0
 1137 02a0 3046     		mov	r0, r6
 1138 02a2 FFF7FEFF 		bl	parameter_vector_dim
 1139              	.LVL169:
 1140 02a6 8146     		mov	r9, r0
ARM GAS  C:\Users\mathi\AppData\Local\Temp\ccovYL19.s 			page 21


 1141              	.LVL170:
 1142              		.loc 1 74 0
 1143 02a8 8000     		lsls	r0, r0, #2
 1144              	.LVL171:
 1145 02aa FFF7FEFF 		bl	malloc
 1146              	.LVL172:
 1147              		.loc 1 75 0
 1148 02ae 8246     		mov	r10, r0
 1149 02b0 0028     		cmp	r0, #0
 1150 02b2 A0D0     		beq	.L83
 1151              		.loc 1 76 0
 1152 02b4 0146     		mov	r1, r0
 1153 02b6 3046     		mov	r0, r6
 1154              	.LVL173:
 1155 02b8 FFF7FEFF 		bl	parameter_vector_read
 1156              	.LVL174:
 1157              	.LBB104:
 1158              	.LBB105:
 1159              		.loc 1 23 0
 1160 02bc 5C49     		ldr	r1, .L180
 1161 02be 2846     		mov	r0, r5
 1162 02c0 A047     		blx	r4
 1163              	.LVL175:
 1164              		.loc 1 25 0
 1165 02c2 B9F1000F 		cmp	r9, #0
 1166 02c6 18D0     		beq	.L84
 1167 02c8 09F1FF33 		add	r3, r9, #-1
 1168 02cc CDE903A3 		strd	r10, r3, [sp, #12]
 1169 02d0 4FF00008 		mov	r8, #0
 1170              	.LVL176:
 1171              	.L85:
 1172 02d4 039B     		ldr	r3, [sp, #12]
 1173 02d6 53F8040B 		ldr	r0, [r3], #4	@ float
 1174 02da 0393     		str	r3, [sp, #12]
 1175 02dc FFF7FEFF 		bl	__aeabi_f2d
 1176              	.LVL177:
 1177 02e0 0B46     		mov	r3, r1
 1178              		.loc 1 26 0
 1179 02e2 0499     		ldr	r1, [sp, #16]
 1180 02e4 8845     		cmp	r8, r1
 1181 02e6 0246     		mov	r2, r0
 1182              		.loc 1 25 0
 1183 02e8 08F10108 		add	r8, r8, #1
 1184              	.LVL178:
 1185              		.loc 1 26 0
 1186 02ec 00F09080 		beq	.L176
 1187              		.loc 1 29 0
 1188 02f0 5049     		ldr	r1, .L180+4
 1189 02f2 2846     		mov	r0, r5
 1190 02f4 A047     		blx	r4
 1191              	.LVL179:
 1192              		.loc 1 25 0
 1193 02f6 C145     		cmp	r9, r8
 1194 02f8 ECD1     		bne	.L85
 1195              	.LVL180:
 1196              	.L84:
 1197              		.loc 1 32 0
ARM GAS  C:\Users\mathi\AppData\Local\Temp\ccovYL19.s 			page 22


 1198 02fa 4F49     		ldr	r1, .L180+8
 1199 02fc 2846     		mov	r0, r5
 1200 02fe A047     		blx	r4
 1201              	.LVL181:
 1202              	.LBE105:
 1203              	.LBE104:
 1204              		.loc 1 78 0
 1205 0300 5046     		mov	r0, r10
 1206 0302 FFF7FEFF 		bl	free
 1207              	.LVL182:
 1208 0306 93E6     		b	.L73
 1209              	.LVL183:
 1210              	.L171:
 1211              	.LBE109:
 1212              	.LBE114:
 1213              	.LBE161:
 1214              	.LBB162:
 1215              	.LBB156:
 1216              	.LBB152:
 1217              	.LBB145:
 1218              	.LBB139:
 1219              		.loc 1 88 0
 1220 0308 0146     		mov	r1, r0
 1221 030a 2046     		mov	r0, r4
 1222              	.LVL184:
 1223 030c FFF7FEFF 		bl	parameter_variable_vector_read
 1224              	.LVL185:
 1225              	.LBB129:
 1226              	.LBB127:
 1227              		.loc 1 23 0
 1228 0310 2946     		mov	r1, r5
 1229              	.LBE127:
 1230              	.LBE129:
 1231              		.loc 1 88 0
 1232 0312 0590     		str	r0, [sp, #20]
 1233              	.LVL186:
 1234              	.LBB130:
 1235              	.LBB128:
 1236              		.loc 1 23 0
 1237 0314 4046     		mov	r0, r8
 1238 0316 B047     		blx	r6
 1239              	.LVL187:
 1240              		.loc 1 25 0
 1241 0318 059B     		ldr	r3, [sp, #20]
 1242 031a F3B1     		cbz	r3, .L111
 1243 031c 013B     		subs	r3, r3, #1
 1244 031e 0693     		str	r3, [sp, #24]
 1245 0320 039B     		ldr	r3, [sp, #12]
 1246 0322 0493     		str	r3, [sp, #16]
 1247 0324 0023     		movs	r3, #0
 1248 0326 0797     		str	r7, [sp, #28]
 1249 0328 4746     		mov	r7, r8
 1250 032a A046     		mov	r8, r4
 1251              	.LVL188:
 1252 032c 1C46     		mov	r4, r3
 1253              	.LVL189:
 1254              	.L112:
ARM GAS  C:\Users\mathi\AppData\Local\Temp\ccovYL19.s 			page 23


 1255 032e 049B     		ldr	r3, [sp, #16]
 1256 0330 53F8040B 		ldr	r0, [r3], #4	@ float
 1257 0334 0493     		str	r3, [sp, #16]
 1258 0336 FFF7FEFF 		bl	__aeabi_f2d
 1259              	.LVL190:
 1260 033a 0B46     		mov	r3, r1
 1261              		.loc 1 26 0
 1262 033c 0699     		ldr	r1, [sp, #24]
 1263 033e 8C42     		cmp	r4, r1
 1264 0340 0246     		mov	r2, r0
 1265              		.loc 1 27 0
 1266 0342 0CBF     		ite	eq
 1267 0344 3D49     		ldreq	r1, .L180+12
 1268              		.loc 1 29 0
 1269 0346 3B49     		ldrne	r1, .L180+4
 1270 0348 3846     		mov	r0, r7
 1271 034a B047     		blx	r6
 1272              	.LVL191:
 1273              		.loc 1 25 0
 1274 034c 059B     		ldr	r3, [sp, #20]
 1275 034e 0134     		adds	r4, r4, #1
 1276              	.LVL192:
 1277 0350 A342     		cmp	r3, r4
 1278 0352 ECD1     		bne	.L112
 1279 0354 4446     		mov	r4, r8
 1280              	.LVL193:
 1281 0356 B846     		mov	r8, r7
 1282              	.LVL194:
 1283 0358 079F     		ldr	r7, [sp, #28]
 1284              	.LVL195:
 1285              	.L111:
 1286              		.loc 1 32 0
 1287 035a 3749     		ldr	r1, .L180+8
 1288 035c 4046     		mov	r0, r8
 1289 035e B047     		blx	r6
 1290              	.LVL196:
 1291              	.LBE128:
 1292              	.LBE130:
 1293              		.loc 1 90 0
 1294 0360 0398     		ldr	r0, [sp, #12]
 1295 0362 FFF7FEFF 		bl	free
 1296              	.LVL197:
 1297 0366 7FE6     		b	.L96
 1298              	.LVL198:
 1299              	.L173:
 1300              	.LBE139:
 1301              	.LBB140:
 1302              		.loc 1 64 0
 1303 0368 039A     		ldr	r2, [sp, #12]
 1304 036a 0390     		str	r0, [sp, #12]
 1305              	.LVL199:
 1306 036c 0146     		mov	r1, r0
 1307 036e 2046     		mov	r0, r4
 1308              	.LVL200:
 1309 0370 FFF7FEFF 		bl	parameter_string_read
 1310              	.LVL201:
 1311              		.loc 1 65 0
ARM GAS  C:\Users\mathi\AppData\Local\Temp\ccovYL19.s 			page 24


 1312 0374 039B     		ldr	r3, [sp, #12]
 1313 0376 3249     		ldr	r1, .L180+16
 1314 0378 1A46     		mov	r2, r3
 1315 037a 4046     		mov	r0, r8
 1316 037c B047     		blx	r6
 1317              	.LVL202:
 1318              		.loc 1 66 0
 1319 037e 039B     		ldr	r3, [sp, #12]
 1320 0380 1846     		mov	r0, r3
 1321 0382 FFF7FEFF 		bl	free
 1322              	.LVL203:
 1323 0386 6FE6     		b	.L96
 1324              	.LVL204:
 1325              	.L175:
 1326              	.LBE140:
 1327              	.LBE145:
 1328              	.LBE152:
 1329              	.LBE156:
 1330              	.LBE162:
 1331              	.LBB163:
 1332              	.LBB115:
 1333              	.LBB110:
 1334              		.loc 1 64 0
 1335 0388 4A46     		mov	r2, r9
 1336 038a 0146     		mov	r1, r0
 1337 038c 3046     		mov	r0, r6
 1338              	.LVL205:
 1339 038e FFF7FEFF 		bl	parameter_string_read
 1340              	.LVL206:
 1341              		.loc 1 65 0
 1342 0392 4246     		mov	r2, r8
 1343 0394 2A49     		ldr	r1, .L180+16
 1344 0396 2846     		mov	r0, r5
 1345 0398 A047     		blx	r4
 1346              	.LVL207:
 1347              		.loc 1 66 0
 1348 039a 4046     		mov	r0, r8
 1349 039c FFF7FEFF 		bl	free
 1350              	.LVL208:
 1351 03a0 46E6     		b	.L73
 1352              	.LVL209:
 1353              	.L174:
 1354              	.LBE110:
 1355              	.LBB111:
 1356              		.loc 1 88 0
 1357 03a2 0146     		mov	r1, r0
 1358 03a4 3046     		mov	r0, r6
 1359              	.LVL210:
 1360 03a6 FFF7FEFF 		bl	parameter_variable_vector_read
 1361              	.LVL211:
 1362              	.LBB97:
 1363              	.LBB98:
 1364              		.loc 1 23 0
 1365 03aa 2149     		ldr	r1, .L180
 1366              	.LBE98:
 1367              	.LBE97:
 1368              		.loc 1 88 0
ARM GAS  C:\Users\mathi\AppData\Local\Temp\ccovYL19.s 			page 25


 1369 03ac 8246     		mov	r10, r0
 1370              	.LVL212:
 1371              	.LBB101:
 1372              	.LBB99:
 1373              		.loc 1 23 0
 1374 03ae 2846     		mov	r0, r5
 1375              	.LVL213:
 1376 03b0 A047     		blx	r4
 1377              	.LVL214:
 1378              		.loc 1 25 0
 1379 03b2 BAF1000F 		cmp	r10, #0
 1380 03b6 19D0     		beq	.L88
 1381 03b8 0AF1FF33 		add	r3, r10, #-1
 1382 03bc CDE90339 		strd	r3, r9, [sp, #12]
 1383 03c0 4FF00008 		mov	r8, #0
 1384 03c4 0596     		str	r6, [sp, #20]
 1385              	.LVL215:
 1386              	.L89:
 1387 03c6 049B     		ldr	r3, [sp, #16]
 1388 03c8 53F8040B 		ldr	r0, [r3], #4	@ float
 1389 03cc 0493     		str	r3, [sp, #16]
 1390 03ce FFF7FEFF 		bl	__aeabi_f2d
 1391              	.LVL216:
 1392 03d2 0B46     		mov	r3, r1
 1393              		.loc 1 26 0
 1394 03d4 0399     		ldr	r1, [sp, #12]
 1395 03d6 4145     		cmp	r1, r8
 1396 03d8 0246     		mov	r2, r0
 1397 03da 0ED0     		beq	.L177
 1398              		.loc 1 25 0
 1399 03dc 08F10108 		add	r8, r8, #1
 1400              	.LVL217:
 1401              		.loc 1 29 0
 1402 03e0 1449     		ldr	r1, .L180+4
 1403 03e2 2846     		mov	r0, r5
 1404 03e4 A047     		blx	r4
 1405              	.LVL218:
 1406              		.loc 1 25 0
 1407 03e6 C245     		cmp	r10, r8
 1408 03e8 EDD1     		bne	.L89
 1409              	.L166:
 1410 03ea 059E     		ldr	r6, [sp, #20]
 1411              	.LVL219:
 1412              	.L88:
 1413              		.loc 1 32 0
 1414 03ec 1249     		ldr	r1, .L180+8
 1415 03ee 2846     		mov	r0, r5
 1416 03f0 A047     		blx	r4
 1417              	.LVL220:
 1418              	.LBE99:
 1419              	.LBE101:
 1420              		.loc 1 90 0
 1421 03f2 4846     		mov	r0, r9
 1422 03f4 FFF7FEFF 		bl	free
 1423              	.LVL221:
 1424 03f8 1AE6     		b	.L73
 1425              	.LVL222:
ARM GAS  C:\Users\mathi\AppData\Local\Temp\ccovYL19.s 			page 26


 1426              	.L177:
 1427              	.LBB102:
 1428              	.LBB100:
 1429              		.loc 1 25 0
 1430 03fa 039E     		ldr	r6, [sp, #12]
 1431              		.loc 1 27 0
 1432 03fc 0F49     		ldr	r1, .L180+12
 1433 03fe 2846     		mov	r0, r5
 1434              		.loc 1 25 0
 1435 0400 06F10108 		add	r8, r6, #1
 1436              	.LVL223:
 1437              		.loc 1 27 0
 1438 0404 A047     		blx	r4
 1439              	.LVL224:
 1440              		.loc 1 25 0
 1441 0406 C245     		cmp	r10, r8
 1442 0408 DDD1     		bne	.L89
 1443 040a EEE7     		b	.L166
 1444              	.LVL225:
 1445              	.L170:
 1446              	.LBE100:
 1447              	.LBE102:
 1448              	.LBE111:
 1449              	.LBE115:
 1450              	.LBE163:
 1451              	.LBE166:
 1452              	.LBE168:
 1453              		.loc 1 125 0
 1454 040c FFF7FEFF 		bl	__stack_chk_fail
 1455              	.LVL226:
 1456              	.L176:
 1457              	.LBB169:
 1458              	.LBB167:
 1459              	.LBB164:
 1460              	.LBB116:
 1461              	.LBB112:
 1462              	.LBB107:
 1463              	.LBB106:
 1464              		.loc 1 27 0
 1465 0410 0A49     		ldr	r1, .L180+12
 1466 0412 2846     		mov	r0, r5
 1467 0414 A047     		blx	r4
 1468              	.LVL227:
 1469              		.loc 1 25 0
 1470 0416 C145     		cmp	r9, r8
 1471 0418 7FF45CAF 		bne	.L85
 1472 041c 6DE7     		b	.L84
 1473              	.LVL228:
 1474              	.L172:
 1475              	.LBE106:
 1476              	.LBE107:
 1477              	.LBE112:
 1478              	.LBE116:
 1479              	.LBE164:
 1480              	.LBB165:
 1481              	.LBB157:
 1482              	.LBB153:
ARM GAS  C:\Users\mathi\AppData\Local\Temp\ccovYL19.s 			page 27


 1483              	.LBB146:
 1484              	.LBB141:
 1485              	.LBB137:
 1486              	.LBB136:
 1487              		.loc 1 27 0
 1488 041e 0749     		ldr	r1, .L180+12
 1489 0420 3846     		mov	r0, r7
 1490 0422 B047     		blx	r6
 1491              	.LVL229:
 1492              		.loc 1 25 0
 1493 0424 039B     		ldr	r3, [sp, #12]
 1494 0426 9C42     		cmp	r4, r3
 1495 0428 7FF48EAE 		bne	.L108
 1496 042c A0E6     		b	.L167
 1497              	.L181:
 1498 042e 00BF     		.align	2
 1499              	.L180:
 1500 0430 6C000000 		.word	.LC11
 1501 0434 74000000 		.word	.LC13
 1502 0438 7C000000 		.word	.LC14
 1503 043c 70000000 		.word	.LC12
 1504 0440 2C000000 		.word	.LC8
 1505              	.LBE136:
 1506              	.LBE137:
 1507              	.LBE141:
 1508              	.LBE146:
 1509              	.LBE153:
 1510              	.LBE157:
 1511              	.LBE165:
 1512              	.LBE167:
 1513              	.LBE169:
 1514              		.cfi_endproc
 1515              	.LFE4:
 1516              		.size	parameter_print, .-parameter_print
 1517              		.section	.rodata.param_ns_print.isra.0.str1.4,"aMS",%progbits,1
 1518              		.align	2
 1519              	.LC0:
 1520 0000 74727565 		.ascii	"true\000"
 1520      00
 1521 0005 000000   		.space	3
 1522              	.LC1:
 1523 0008 66616C73 		.ascii	"false\000"
 1523      6500
 1524 000e 0000     		.space	2
 1525              	.LC2:
 1526 0010 202000   		.ascii	"  \000"
 1527 0013 00       		.space	1
 1528              	.LC3:
 1529 0014 25733A20 		.ascii	"%s: \000"
 1529      00
 1530 0019 000000   		.space	3
 1531              	.LC4:
 1532 001c 7E0A00   		.ascii	"~\012\000"
 1533 001f 00       		.space	1
 1534              	.LC5:
 1535 0020 25660A00 		.ascii	"%f\012\000"
 1536              	.LC6:
ARM GAS  C:\Users\mathi\AppData\Local\Temp\ccovYL19.s 			page 28


 1537 0024 25640A00 		.ascii	"%d\012\000"
 1538              	.LC7:
 1539 0028 25730A00 		.ascii	"%s\012\000"
 1540              	.LC8:
 1541 002c 22257322 		.ascii	"\"%s\"\012\000"
 1541      0A00
 1542 0032 0000     		.space	2
 1543              	.LC9:
 1544 0034 23207761 		.ascii	"# warning: malloc failed during serialization!\000"
 1544      726E696E 
 1544      673A206D 
 1544      616C6C6F 
 1544      63206661 
 1545 0063 00       		.space	1
 1546              	.LC10:
 1547 0064 22222025 		.ascii	"\"\" %s\012\000"
 1547      730A00
 1548 006b 00       		.space	1
 1549              	.LC11:
 1550 006c 5B00     		.ascii	"[\000"
 1551 006e 0000     		.space	2
 1552              	.LC12:
 1553 0070 256600   		.ascii	"%f\000"
 1554 0073 00       		.space	1
 1555              	.LC13:
 1556 0074 25662C20 		.ascii	"%f, \000"
 1556      00
 1557 0079 000000   		.space	3
 1558              	.LC14:
 1559 007c 5D0A00   		.ascii	"]\012\000"
 1560 007f 00       		.space	1
 1561              	.LC15:
 1562 0080 5B5D2025 		.ascii	"[] %s\012\000"
 1562      730A00
 1563 0087 00       		.space	1
 1564              	.LC16:
 1565 0088 25733A0A 		.ascii	"%s:\012\000"
 1565      00
 1566              		.text
 1567              	.Letext0:
 1568              		.file 2 "c:\\eclipse_e-puck2\\tools\\gcc-arm-none-eabi-7-2017-q4-major-win32\\arm-none-eabi\\inclu
 1569              		.file 3 "c:\\eclipse_e-puck2\\tools\\gcc-arm-none-eabi-7-2017-q4-major-win32\\arm-none-eabi\\inclu
 1570              		.file 4 "c:\\eclipse_e-puck2\\tools\\gcc-arm-none-eabi-7-2017-q4-major-win32\\arm-none-eabi\\inclu
 1571              		.file 5 "c:\\eclipse_e-puck2\\tools\\gcc-arm-none-eabi-7-2017-q4-major-win32\\arm-none-eabi\\inclu
 1572              		.file 6 "c:\\eclipse_e-puck2\\tools\\gcc-arm-none-eabi-7-2017-q4-major-win32\\lib\\gcc\\arm-none-e
 1573              		.file 7 "c:\\eclipse_e-puck2\\tools\\gcc-arm-none-eabi-7-2017-q4-major-win32\\arm-none-eabi\\inclu
 1574              		.file 8 "c:\\eclipse_e-puck2\\tools\\gcc-arm-none-eabi-7-2017-q4-major-win32\\arm-none-eabi\\inclu
 1575              		.file 9 "../../lib/e-puck2_main-processor/src/parameter/parameter.h"
 1576              		.file 10 "../../lib/e-puck2_main-processor/src/parameter/parameter_print.h"