ARM GAS  C:\Users\mathi\AppData\Local\Temp\ccuMtzkg.s 			page 1


   1              		.cpu cortex-m4
   2              		.eabi_attribute 27, 1
   3              		.eabi_attribute 28, 1
   4              		.eabi_attribute 20, 1
   5              		.eabi_attribute 21, 1
   6              		.eabi_attribute 23, 3
   7              		.eabi_attribute 24, 1
   8              		.eabi_attribute 25, 1
   9              		.eabi_attribute 26, 1
  10              		.eabi_attribute 30, 2
  11              		.eabi_attribute 34, 1
  12              		.eabi_attribute 18, 4
  13              		.file	"po8030.c"
  14              		.text
  15              	.Ltext0:
  16              		.cfi_sections	.debug_frame
  17              		.section	.text.po8030_read_id,"ax",%progbits
  18              		.align	1
  19              		.p2align 4,,15
  20              		.global	po8030_read_id
  21              		.syntax unified
  22              		.thumb
  23              		.thumb_func
  24              		.fpu fpv4-sp-d16
  25              		.type	po8030_read_id, %function
  26              	po8030_read_id:
  27              	.LFB257:
  28              		.file 1 "../../lib/e-puck2_main-processor/src/camera/po8030.c"
  29              		.loc 1 93 0
  30              		.cfi_startproc
  31              		@ args = 0, pretend = 0, frame = 8
  32              		@ frame_needed = 0, uses_anonymous_args = 0
  33              	.LVL0:
  34 0000 30B5     		push	{r4, r5, lr}
  35              		.cfi_def_cfa_offset 12
  36              		.cfi_offset 4, -12
  37              		.cfi_offset 5, -8
  38              		.cfi_offset 14, -4
  39 0002 83B0     		sub	sp, sp, #12
  40              		.cfi_def_cfa_offset 24
  41              		.loc 1 94 0
  42 0004 02AA     		add	r2, sp, #8
  43              		.loc 1 93 0
  44 0006 114C     		ldr	r4, .L8
  45              		.loc 1 94 0
  46 0008 0021     		movs	r1, #0
  47              		.loc 1 93 0
  48 000a 0546     		mov	r5, r0
  49 000c 2368     		ldr	r3, [r4]
  50              		.loc 1 94 0
  51 000e 22F8081D 		strh	r1, [r2, #-8]!	@ movhi
  52              	.LVL1:
  53              		.loc 1 97 0
  54 0012 6E20     		movs	r0, #110
  55              	.LVL2:
  56              		.loc 1 93 0
  57 0014 0193     		str	r3, [sp, #4]
ARM GAS  C:\Users\mathi\AppData\Local\Temp\ccuMtzkg.s 			page 2


  58              		.loc 1 97 0
  59 0016 FFF7FEFF 		bl	read_reg
  60              	.LVL3:
  61 001a 28B1     		cbz	r0, .L6
  62              	.L2:
  63              		.loc 1 106 0
  64 001c 019A     		ldr	r2, [sp, #4]
  65 001e 2368     		ldr	r3, [r4]
  66 0020 9A42     		cmp	r2, r3
  67 0022 10D1     		bne	.L7
  68 0024 03B0     		add	sp, sp, #12
  69              		.cfi_remember_state
  70              		.cfi_def_cfa_offset 12
  71              		@ sp needed
  72 0026 30BD     		pop	{r4, r5, pc}
  73              	.LVL4:
  74              	.L6:
  75              		.cfi_restore_state
  76              		.loc 1 100 0
  77 0028 0DF10102 		add	r2, sp, #1
  78 002c 0121     		movs	r1, #1
  79 002e 6E20     		movs	r0, #110
  80              	.LVL5:
  81 0030 FFF7FEFF 		bl	read_reg
  82              	.LVL6:
  83 0034 0028     		cmp	r0, #0
  84 0036 F1D1     		bne	.L2
  85              		.loc 1 103 0
  86 0038 9DF80030 		ldrb	r3, [sp]	@ zero_extendqisi2
  87 003c 9DF80120 		ldrb	r2, [sp, #1]	@ zero_extendqisi2
  88 0040 1343     		orrs	r3, r3, r2
  89 0042 2B80     		strh	r3, [r5]	@ movhi
  90              		.loc 1 105 0
  91 0044 EAE7     		b	.L2
  92              	.L7:
  93              		.loc 1 106 0
  94 0046 FFF7FEFF 		bl	__stack_chk_fail
  95              	.LVL7:
  96              	.L9:
  97 004a 00BF     		.align	2
  98              	.L8:
  99 004c 00000000 		.word	__stack_chk_guard
 100              		.cfi_endproc
 101              	.LFE257:
 102              		.size	po8030_read_id, .-po8030_read_id
 103              		.section	.text.po8030_set_bank,"ax",%progbits
 104              		.align	1
 105              		.p2align 4,,15
 106              		.global	po8030_set_bank
 107              		.syntax unified
 108              		.thumb
 109              		.thumb_func
 110              		.fpu fpv4-sp-d16
 111              		.type	po8030_set_bank, %function
 112              	po8030_set_bank:
 113              	.LFB258:
 114              		.loc 1 118 0
ARM GAS  C:\Users\mathi\AppData\Local\Temp\ccuMtzkg.s 			page 3


 115              		.cfi_startproc
 116              		@ args = 0, pretend = 0, frame = 8
 117              		@ frame_needed = 0, uses_anonymous_args = 0
 118              	.LVL8:
 119 0000 00B5     		push	{lr}
 120              		.cfi_def_cfa_offset 4
 121              		.cfi_offset 14, -4
 122 0002 094B     		ldr	r3, .L15
 123 0004 83B0     		sub	sp, sp, #12
 124              		.cfi_def_cfa_offset 16
 125              		.loc 1 118 0
 126 0006 1A68     		ldr	r2, [r3]
 127 0008 0192     		str	r2, [sp, #4]
 128              		.loc 1 119 0
 129 000a 0199     		ldr	r1, [sp, #4]
 130 000c 1B68     		ldr	r3, [r3]
 131 000e 9942     		cmp	r1, r3
 132 0010 07D1     		bne	.L14
 133 0012 0246     		mov	r2, r0
 134 0014 0321     		movs	r1, #3
 135 0016 6E20     		movs	r0, #110
 136              	.LVL9:
 137              		.loc 1 120 0
 138 0018 03B0     		add	sp, sp, #12
 139              		.cfi_remember_state
 140              		.cfi_def_cfa_offset 4
 141              		@ sp needed
 142 001a 5DF804EB 		ldr	lr, [sp], #4
 143              		.cfi_restore 14
 144              		.cfi_def_cfa_offset 0
 145              		.loc 1 119 0
 146 001e FFF7FEBF 		b	write_reg
 147              	.LVL10:
 148              	.L14:
 149              		.cfi_restore_state
 150 0022 FFF7FEFF 		bl	__stack_chk_fail
 151              	.LVL11:
 152              	.L16:
 153 0026 00BF     		.align	2
 154              	.L15:
 155 0028 00000000 		.word	__stack_chk_guard
 156              		.cfi_endproc
 157              	.LFE258:
 158              		.size	po8030_set_bank, .-po8030_set_bank
 159              		.section	.text.po8030_set_format,"ax",%progbits
 160              		.align	1
 161              		.p2align 4,,15
 162              		.global	po8030_set_format
 163              		.syntax unified
 164              		.thumb
 165              		.thumb_func
 166              		.fpu fpv4-sp-d16
 167              		.type	po8030_set_format, %function
 168              	po8030_set_format:
 169              	.LFB259:
 170              		.loc 1 132 0
 171              		.cfi_startproc
ARM GAS  C:\Users\mathi\AppData\Local\Temp\ccuMtzkg.s 			page 4


 172              		@ args = 0, pretend = 0, frame = 8
 173              		@ frame_needed = 0, uses_anonymous_args = 0
 174              	.LVL12:
 175 0000 70B5     		push	{r4, r5, r6, lr}
 176              		.cfi_def_cfa_offset 16
 177              		.cfi_offset 4, -16
 178              		.cfi_offset 5, -12
 179              		.cfi_offset 6, -8
 180              		.cfi_offset 14, -4
 181 0002 274D     		ldr	r5, .L36
 182 0004 82B0     		sub	sp, sp, #8
 183              		.cfi_def_cfa_offset 24
 184              		.loc 1 132 0
 185 0006 2B68     		ldr	r3, [r5]
 186 0008 0193     		str	r3, [sp, #4]
 187              	.LVL13:
 188 000a 0646     		mov	r6, r0
 189              	.LBB78:
 190              	.LBB79:
 191              		.loc 1 119 0
 192 000c 0122     		movs	r2, #1
 193 000e 0321     		movs	r1, #3
 194 0010 6E20     		movs	r0, #110
 195              	.LVL14:
 196 0012 FFF7FEFF 		bl	write_reg
 197              	.LVL15:
 198              	.LBE79:
 199              	.LBE78:
 200              		.loc 1 135 0
 201 0016 0446     		mov	r4, r0
 202 0018 30B1     		cbz	r0, .L32
 203              	.L18:
 204              		.loc 1 168 0
 205 001a 019A     		ldr	r2, [sp, #4]
 206 001c 2B68     		ldr	r3, [r5]
 207 001e 9A42     		cmp	r2, r3
 208 0020 2046     		mov	r0, r4
 209 0022 3AD1     		bne	.L33
 210 0024 02B0     		add	sp, sp, #8
 211              		.cfi_remember_state
 212              		.cfi_def_cfa_offset 16
 213              		@ sp needed
 214 0026 70BD     		pop	{r4, r5, r6, pc}
 215              	.L32:
 216              		.cfi_restore_state
 217              		.loc 1 139 0
 218 0028 3246     		mov	r2, r6
 219 002a 4E21     		movs	r1, #78
 220 002c 6E20     		movs	r0, #110
 221 002e FFF7FEFF 		bl	write_reg
 222              	.LVL16:
 223 0032 0446     		mov	r4, r0
 224 0034 0028     		cmp	r0, #0
 225 0036 F0D1     		bne	.L18
 226              	.LVL17:
 227              	.LBB80:
 228              	.LBB81:
ARM GAS  C:\Users\mathi\AppData\Local\Temp\ccuMtzkg.s 			page 5


 229              		.loc 1 143 0
 230 0038 442E     		cmp	r6, #68
 231 003a 07D0     		beq	.L34
 232              		.loc 1 154 0
 233 003c 0246     		mov	r2, r0
 234 003e B721     		movs	r1, #183
 235 0040 6E20     		movs	r0, #110
 236              	.LVL18:
 237 0042 FFF7FEFF 		bl	write_reg
 238              	.LVL19:
 239 0046 B8B1     		cbz	r0, .L35
 240              	.LVL20:
 241              	.L26:
 242              		.loc 1 157 0
 243 0048 0446     		mov	r4, r0
 244 004a E6E7     		b	.L18
 245              	.LVL21:
 246              	.L34:
 247              		.loc 1 144 0
 248 004c 0122     		movs	r2, #1
 249 004e B721     		movs	r1, #183
 250 0050 6E20     		movs	r0, #110
 251              	.LVL22:
 252 0052 FFF7FEFF 		bl	write_reg
 253              	.LVL23:
 254 0056 0028     		cmp	r0, #0
 255 0058 F6D1     		bne	.L26
 256              	.LVL24:
 257              	.LBB82:
 258              	.LBB83:
 259              		.loc 1 119 0
 260 005a 2246     		mov	r2, r4
 261 005c 0321     		movs	r1, #3
 262 005e 6E20     		movs	r0, #110
 263              	.LVL25:
 264 0060 FFF7FEFF 		bl	write_reg
 265              	.LVL26:
 266              	.LBE83:
 267              	.LBE82:
 268              		.loc 1 147 0
 269 0064 0028     		cmp	r0, #0
 270 0066 EFD1     		bne	.L26
 271              		.loc 1 150 0
 272 0068 0322     		movs	r2, #3
 273 006a 1121     		movs	r1, #17
 274 006c 6E20     		movs	r0, #110
 275 006e FFF7FEFF 		bl	write_reg
 276              	.LVL27:
 277 0072 78B1     		cbz	r0, .L20
 278              		.loc 1 157 0
 279 0074 0446     		mov	r4, r0
 280 0076 D0E7     		b	.L18
 281              	.L35:
 282              	.LVL28:
 283              	.LBB84:
 284              	.LBB85:
 285              		.loc 1 119 0
ARM GAS  C:\Users\mathi\AppData\Local\Temp\ccuMtzkg.s 			page 6


 286 0078 2246     		mov	r2, r4
 287 007a 0321     		movs	r1, #3
 288 007c 6E20     		movs	r0, #110
 289              	.LVL29:
 290 007e FFF7FEFF 		bl	write_reg
 291              	.LVL30:
 292              	.LBE85:
 293              	.LBE84:
 294              		.loc 1 157 0
 295 0082 0028     		cmp	r0, #0
 296 0084 E0D1     		bne	.L26
 297              		.loc 1 160 0
 298 0086 0A22     		movs	r2, #10
 299 0088 1121     		movs	r1, #17
 300 008a 6E20     		movs	r0, #110
 301 008c FFF7FEFF 		bl	write_reg
 302              	.LVL31:
 303 0090 0028     		cmp	r0, #0
 304 0092 D9D1     		bne	.L26
 305              	.L20:
 306              		.loc 1 165 0
 307 0094 034B     		ldr	r3, .L36+4
 308 0096 1E71     		strb	r6, [r3, #4]
 309 0098 BFE7     		b	.L18
 310              	.LVL32:
 311              	.L33:
 312              	.LBE81:
 313              	.LBE80:
 314              		.loc 1 168 0
 315 009a FFF7FEFF 		bl	__stack_chk_fail
 316              	.LVL33:
 317              	.L37:
 318 009e 00BF     		.align	2
 319              	.L36:
 320 00a0 00000000 		.word	__stack_chk_guard
 321 00a4 00000000 		.word	.LANCHOR0
 322              		.cfi_endproc
 323              	.LFE259:
 324              		.size	po8030_set_format, .-po8030_set_format
 325              		.section	.text.po8030_set_vga,"ax",%progbits
 326              		.align	1
 327              		.p2align 4,,15
 328              		.global	po8030_set_vga
 329              		.syntax unified
 330              		.thumb
 331              		.thumb_func
 332              		.fpu fpv4-sp-d16
 333              		.type	po8030_set_vga, %function
 334              	po8030_set_vga:
 335              	.LFB260:
 336              		.loc 1 178 0
 337              		.cfi_startproc
 338              		@ args = 0, pretend = 0, frame = 8
 339              		@ frame_needed = 0, uses_anonymous_args = 0
 340 0000 10B5     		push	{r4, lr}
 341              		.cfi_def_cfa_offset 8
 342              		.cfi_offset 4, -8
ARM GAS  C:\Users\mathi\AppData\Local\Temp\ccuMtzkg.s 			page 7


 343              		.cfi_offset 14, -4
 344 0002 704C     		ldr	r4, .L44
 345 0004 82B0     		sub	sp, sp, #8
 346              		.cfi_def_cfa_offset 16
 347              		.loc 1 178 0
 348 0006 2368     		ldr	r3, [r4]
 349 0008 0193     		str	r3, [sp, #4]
 350              	.LVL34:
 351              	.LBB96:
 352              	.LBB97:
 353              		.loc 1 119 0
 354 000a 0022     		movs	r2, #0
 355 000c 0321     		movs	r1, #3
 356 000e 6E20     		movs	r0, #110
 357 0010 FFF7FEFF 		bl	write_reg
 358              	.LVL35:
 359              	.LBE97:
 360              	.LBE96:
 361              		.loc 1 181 0
 362 0014 30B1     		cbz	r0, .L42
 363              	.L39:
 364              		.loc 1 277 0
 365 0016 019A     		ldr	r2, [sp, #4]
 366 0018 2368     		ldr	r3, [r4]
 367 001a 9A42     		cmp	r2, r3
 368 001c 40F0D080 		bne	.L43
 369 0020 02B0     		add	sp, sp, #8
 370              		.cfi_remember_state
 371              		.cfi_def_cfa_offset 8
 372              		@ sp needed
 373 0022 10BD     		pop	{r4, pc}
 374              	.L42:
 375              		.cfi_restore_state
 376              		.loc 1 185 0
 377 0024 0246     		mov	r2, r0
 378 0026 0821     		movs	r1, #8
 379 0028 6E20     		movs	r0, #110
 380 002a FFF7FEFF 		bl	write_reg
 381              	.LVL36:
 382 002e 0028     		cmp	r0, #0
 383 0030 F1D1     		bne	.L39
 384              		.loc 1 188 0
 385 0032 0122     		movs	r2, #1
 386 0034 0921     		movs	r1, #9
 387 0036 6E20     		movs	r0, #110
 388              	.LVL37:
 389 0038 FFF7FEFF 		bl	write_reg
 390              	.LVL38:
 391 003c 0028     		cmp	r0, #0
 392 003e EAD1     		bne	.L39
 393              		.loc 1 191 0
 394 0040 0246     		mov	r2, r0
 395 0042 0A21     		movs	r1, #10
 396 0044 6E20     		movs	r0, #110
 397              	.LVL39:
 398 0046 FFF7FEFF 		bl	write_reg
 399              	.LVL40:
ARM GAS  C:\Users\mathi\AppData\Local\Temp\ccuMtzkg.s 			page 8


 400 004a 0028     		cmp	r0, #0
 401 004c E3D1     		bne	.L39
 402              		.loc 1 194 0
 403 004e 0122     		movs	r2, #1
 404 0050 0B21     		movs	r1, #11
 405 0052 6E20     		movs	r0, #110
 406              	.LVL41:
 407 0054 FFF7FEFF 		bl	write_reg
 408              	.LVL42:
 409 0058 0028     		cmp	r0, #0
 410 005a DCD1     		bne	.L39
 411              	.LBB98:
 412              	.LBB99:
 413              		.loc 1 197 0
 414 005c 0222     		movs	r2, #2
 415 005e 0C21     		movs	r1, #12
 416 0060 6E20     		movs	r0, #110
 417              	.LVL43:
 418 0062 FFF7FEFF 		bl	write_reg
 419              	.LVL44:
 420 0066 0028     		cmp	r0, #0
 421 0068 D5D1     		bne	.L39
 422              		.loc 1 200 0
 423 006a 8022     		movs	r2, #128
 424 006c 0D21     		movs	r1, #13
 425 006e 6E20     		movs	r0, #110
 426              	.LVL45:
 427 0070 FFF7FEFF 		bl	write_reg
 428              	.LVL46:
 429 0074 0028     		cmp	r0, #0
 430 0076 CED1     		bne	.L39
 431              		.loc 1 203 0
 432 0078 0122     		movs	r2, #1
 433 007a 0E21     		movs	r1, #14
 434 007c 6E20     		movs	r0, #110
 435              	.LVL47:
 436 007e FFF7FEFF 		bl	write_reg
 437              	.LVL48:
 438 0082 0028     		cmp	r0, #0
 439 0084 C7D1     		bne	.L39
 440              		.loc 1 206 0
 441 0086 E022     		movs	r2, #224
 442 0088 0F21     		movs	r1, #15
 443 008a 6E20     		movs	r0, #110
 444              	.LVL49:
 445 008c FFF7FEFF 		bl	write_reg
 446              	.LVL50:
 447 0090 0028     		cmp	r0, #0
 448 0092 C0D1     		bne	.L39
 449              		.loc 1 210 0
 450 0094 0246     		mov	r2, r0
 451 0096 3521     		movs	r1, #53
 452 0098 6E20     		movs	r0, #110
 453              	.LVL51:
 454 009a FFF7FEFF 		bl	write_reg
 455              	.LVL52:
 456 009e 0028     		cmp	r0, #0
ARM GAS  C:\Users\mathi\AppData\Local\Temp\ccuMtzkg.s 			page 9


 457 00a0 B9D1     		bne	.L39
 458              		.loc 1 213 0
 459 00a2 0122     		movs	r2, #1
 460 00a4 3621     		movs	r1, #54
 461 00a6 6E20     		movs	r0, #110
 462              	.LVL53:
 463 00a8 FFF7FEFF 		bl	write_reg
 464              	.LVL54:
 465 00ac 0028     		cmp	r0, #0
 466 00ae B2D1     		bne	.L39
 467              		.loc 1 216 0
 468 00b0 0222     		movs	r2, #2
 469 00b2 3721     		movs	r1, #55
 470 00b4 6E20     		movs	r0, #110
 471              	.LVL55:
 472 00b6 FFF7FEFF 		bl	write_reg
 473              	.LVL56:
 474 00ba 0028     		cmp	r0, #0
 475 00bc ABD1     		bne	.L39
 476              		.loc 1 219 0
 477 00be 8022     		movs	r2, #128
 478 00c0 3821     		movs	r1, #56
 479 00c2 6E20     		movs	r0, #110
 480              	.LVL57:
 481 00c4 FFF7FEFF 		bl	write_reg
 482              	.LVL58:
 483 00c8 0028     		cmp	r0, #0
 484 00ca A4D1     		bne	.L39
 485              		.loc 1 222 0
 486 00cc 0246     		mov	r2, r0
 487 00ce 3921     		movs	r1, #57
 488 00d0 6E20     		movs	r0, #110
 489              	.LVL59:
 490 00d2 FFF7FEFF 		bl	write_reg
 491              	.LVL60:
 492 00d6 0028     		cmp	r0, #0
 493 00d8 9DD1     		bne	.L39
 494              		.loc 1 225 0
 495 00da 0122     		movs	r2, #1
 496 00dc 3A21     		movs	r1, #58
 497 00de 6E20     		movs	r0, #110
 498              	.LVL61:
 499 00e0 FFF7FEFF 		bl	write_reg
 500              	.LVL62:
 501 00e4 0028     		cmp	r0, #0
 502 00e6 96D1     		bne	.L39
 503              		.loc 1 228 0
 504 00e8 0122     		movs	r2, #1
 505 00ea 3B21     		movs	r1, #59
 506 00ec 6E20     		movs	r0, #110
 507              	.LVL63:
 508 00ee FFF7FEFF 		bl	write_reg
 509              	.LVL64:
 510 00f2 0028     		cmp	r0, #0
 511 00f4 8FD1     		bne	.L39
 512              		.loc 1 231 0
 513 00f6 E022     		movs	r2, #224
ARM GAS  C:\Users\mathi\AppData\Local\Temp\ccuMtzkg.s 			page 10


 514 00f8 3C21     		movs	r1, #60
 515 00fa 6E20     		movs	r0, #110
 516              	.LVL65:
 517 00fc FFF7FEFF 		bl	write_reg
 518              	.LVL66:
 519 0100 0028     		cmp	r0, #0
 520 0102 88D1     		bne	.L39
 521              		.loc 1 235 0
 522 0104 0246     		mov	r2, r0
 523 0106 3D21     		movs	r1, #61
 524 0108 6E20     		movs	r0, #110
 525              	.LVL67:
 526 010a FFF7FEFF 		bl	write_reg
 527              	.LVL68:
 528 010e 0028     		cmp	r0, #0
 529 0110 81D1     		bne	.L39
 530              		.loc 1 238 0
 531 0112 D622     		movs	r2, #214
 532 0114 3E21     		movs	r1, #62
 533 0116 6E20     		movs	r0, #110
 534              	.LVL69:
 535 0118 FFF7FEFF 		bl	write_reg
 536              	.LVL70:
 537 011c 0028     		cmp	r0, #0
 538 011e 7FF47AAF 		bne	.L39
 539              		.loc 1 241 0
 540 0122 0122     		movs	r2, #1
 541 0124 3F21     		movs	r1, #63
 542 0126 6E20     		movs	r0, #110
 543              	.LVL71:
 544 0128 FFF7FEFF 		bl	write_reg
 545              	.LVL72:
 546 012c 0028     		cmp	r0, #0
 547 012e 7FF472AF 		bne	.L39
 548              		.loc 1 244 0
 549 0132 AB22     		movs	r2, #171
 550 0134 4021     		movs	r1, #64
 551 0136 6E20     		movs	r0, #110
 552              	.LVL73:
 553 0138 FFF7FEFF 		bl	write_reg
 554              	.LVL74:
 555 013c 0028     		cmp	r0, #0
 556 013e 7FF46AAF 		bne	.L39
 557              		.loc 1 247 0
 558 0142 0246     		mov	r2, r0
 559 0144 4121     		movs	r1, #65
 560 0146 6E20     		movs	r0, #110
 561              	.LVL75:
 562 0148 FFF7FEFF 		bl	write_reg
 563              	.LVL76:
 564 014c 0028     		cmp	r0, #0
 565 014e 7FF462AF 		bne	.L39
 566              		.loc 1 250 0
 567 0152 A122     		movs	r2, #161
 568 0154 4221     		movs	r1, #66
 569 0156 6E20     		movs	r0, #110
 570              	.LVL77:
ARM GAS  C:\Users\mathi\AppData\Local\Temp\ccuMtzkg.s 			page 11


 571 0158 FFF7FEFF 		bl	write_reg
 572              	.LVL78:
 573 015c 0028     		cmp	r0, #0
 574 015e 7FF45AAF 		bne	.L39
 575              		.loc 1 253 0
 576 0162 0122     		movs	r2, #1
 577 0164 4321     		movs	r1, #67
 578 0166 6E20     		movs	r0, #110
 579              	.LVL79:
 580 0168 FFF7FEFF 		bl	write_reg
 581              	.LVL80:
 582 016c 0028     		cmp	r0, #0
 583 016e 7FF452AF 		bne	.L39
 584              		.loc 1 256 0
 585 0172 4022     		movs	r2, #64
 586 0174 4421     		movs	r1, #68
 587 0176 6E20     		movs	r0, #110
 588              	.LVL81:
 589 0178 FFF7FEFF 		bl	write_reg
 590              	.LVL82:
 591 017c 0028     		cmp	r0, #0
 592 017e 7FF44AAF 		bne	.L39
 593              	.LVL83:
 594              	.LBB100:
 595              	.LBB101:
 596              		.loc 1 119 0
 597 0182 0122     		movs	r2, #1
 598 0184 0321     		movs	r1, #3
 599 0186 6E20     		movs	r0, #110
 600              	.LVL84:
 601 0188 FFF7FEFF 		bl	write_reg
 602              	.LVL85:
 603              	.LBE101:
 604              	.LBE100:
 605              		.loc 1 260 0
 606 018c 0028     		cmp	r0, #0
 607 018e 7FF442AF 		bne	.L39
 608              		.loc 1 264 0
 609 0192 2022     		movs	r2, #32
 610 0194 9321     		movs	r1, #147
 611 0196 6E20     		movs	r0, #110
 612 0198 FFF7FEFF 		bl	write_reg
 613              	.LVL86:
 614 019c 0028     		cmp	r0, #0
 615 019e 7FF43AAF 		bne	.L39
 616              		.loc 1 267 0
 617 01a2 2022     		movs	r2, #32
 618 01a4 9421     		movs	r1, #148
 619 01a6 6E20     		movs	r0, #110
 620              	.LVL87:
 621 01a8 FFF7FEFF 		bl	write_reg
 622              	.LVL88:
 623 01ac 0028     		cmp	r0, #0
 624 01ae 7FF432AF 		bne	.L39
 625              		.loc 1 271 0
 626 01b2 054B     		ldr	r3, .L44+4
 627 01b4 054A     		ldr	r2, .L44+8
ARM GAS  C:\Users\mathi\AppData\Local\Temp\ccuMtzkg.s 			page 12


 628 01b6 1A60     		str	r2, [r3]
 629              		.loc 1 273 0
 630 01b8 2022     		movs	r2, #32
 631 01ba 5A71     		strb	r2, [r3, #5]
 632              		.loc 1 274 0
 633 01bc 9A71     		strb	r2, [r3, #6]
 634 01be 2AE7     		b	.L39
 635              	.LVL89:
 636              	.L43:
 637              	.LBE99:
 638              	.LBE98:
 639              		.loc 1 277 0
 640 01c0 FFF7FEFF 		bl	__stack_chk_fail
 641              	.LVL90:
 642              	.L45:
 643              		.align	2
 644              	.L44:
 645 01c4 00000000 		.word	__stack_chk_guard
 646 01c8 00000000 		.word	.LANCHOR0
 647 01cc 8002E001 		.word	31457920
 648              		.cfi_endproc
 649              	.LFE260:
 650              		.size	po8030_set_vga, .-po8030_set_vga
 651              		.section	.text.po8030_set_qvga,"ax",%progbits
 652              		.align	1
 653              		.p2align 4,,15
 654              		.global	po8030_set_qvga
 655              		.syntax unified
 656              		.thumb
 657              		.thumb_func
 658              		.fpu fpv4-sp-d16
 659              		.type	po8030_set_qvga, %function
 660              	po8030_set_qvga:
 661              	.LFB261:
 662              		.loc 1 287 0
 663              		.cfi_startproc
 664              		@ args = 0, pretend = 0, frame = 8
 665              		@ frame_needed = 0, uses_anonymous_args = 0
 666 0000 10B5     		push	{r4, lr}
 667              		.cfi_def_cfa_offset 8
 668              		.cfi_offset 4, -8
 669              		.cfi_offset 14, -4
 670 0002 704C     		ldr	r4, .L52
 671 0004 82B0     		sub	sp, sp, #8
 672              		.cfi_def_cfa_offset 16
 673              		.loc 1 287 0
 674 0006 2368     		ldr	r3, [r4]
 675 0008 0193     		str	r3, [sp, #4]
 676              	.LVL91:
 677              	.LBB110:
 678              	.LBB111:
 679              		.loc 1 119 0
 680 000a 0022     		movs	r2, #0
 681 000c 0321     		movs	r1, #3
 682 000e 6E20     		movs	r0, #110
 683 0010 FFF7FEFF 		bl	write_reg
 684              	.LVL92:
ARM GAS  C:\Users\mathi\AppData\Local\Temp\ccuMtzkg.s 			page 13


 685              	.LBE111:
 686              	.LBE110:
 687              		.loc 1 290 0
 688 0014 30B1     		cbz	r0, .L50
 689              	.L47:
 690              		.loc 1 386 0
 691 0016 019A     		ldr	r2, [sp, #4]
 692 0018 2368     		ldr	r3, [r4]
 693 001a 9A42     		cmp	r2, r3
 694 001c 40F0D080 		bne	.L51
 695 0020 02B0     		add	sp, sp, #8
 696              		.cfi_remember_state
 697              		.cfi_def_cfa_offset 8
 698              		@ sp needed
 699 0022 10BD     		pop	{r4, pc}
 700              	.L50:
 701              		.cfi_restore_state
 702              		.loc 1 294 0
 703 0024 0246     		mov	r2, r0
 704 0026 0821     		movs	r1, #8
 705 0028 6E20     		movs	r0, #110
 706 002a FFF7FEFF 		bl	write_reg
 707              	.LVL93:
 708 002e 0028     		cmp	r0, #0
 709 0030 F1D1     		bne	.L47
 710              		.loc 1 297 0
 711 0032 0122     		movs	r2, #1
 712 0034 0921     		movs	r1, #9
 713 0036 6E20     		movs	r0, #110
 714              	.LVL94:
 715 0038 FFF7FEFF 		bl	write_reg
 716              	.LVL95:
 717 003c 0028     		cmp	r0, #0
 718 003e EAD1     		bne	.L47
 719              		.loc 1 300 0
 720 0040 0246     		mov	r2, r0
 721 0042 0A21     		movs	r1, #10
 722 0044 6E20     		movs	r0, #110
 723              	.LVL96:
 724 0046 FFF7FEFF 		bl	write_reg
 725              	.LVL97:
 726 004a 0028     		cmp	r0, #0
 727 004c E3D1     		bne	.L47
 728              		.loc 1 303 0
 729 004e 0122     		movs	r2, #1
 730 0050 0B21     		movs	r1, #11
 731 0052 6E20     		movs	r0, #110
 732              	.LVL98:
 733 0054 FFF7FEFF 		bl	write_reg
 734              	.LVL99:
 735 0058 0028     		cmp	r0, #0
 736 005a DCD1     		bne	.L47
 737              	.LBB112:
 738              	.LBB113:
 739              		.loc 1 306 0
 740 005c 0122     		movs	r2, #1
 741 005e 0C21     		movs	r1, #12
ARM GAS  C:\Users\mathi\AppData\Local\Temp\ccuMtzkg.s 			page 14


 742 0060 6E20     		movs	r0, #110
 743              	.LVL100:
 744 0062 FFF7FEFF 		bl	write_reg
 745              	.LVL101:
 746 0066 0028     		cmp	r0, #0
 747 0068 D5D1     		bne	.L47
 748              		.loc 1 309 0
 749 006a 4022     		movs	r2, #64
 750 006c 0D21     		movs	r1, #13
 751 006e 6E20     		movs	r0, #110
 752              	.LVL102:
 753 0070 FFF7FEFF 		bl	write_reg
 754              	.LVL103:
 755 0074 0028     		cmp	r0, #0
 756 0076 CED1     		bne	.L47
 757              		.loc 1 312 0
 758 0078 0246     		mov	r2, r0
 759 007a 0E21     		movs	r1, #14
 760 007c 6E20     		movs	r0, #110
 761              	.LVL104:
 762 007e FFF7FEFF 		bl	write_reg
 763              	.LVL105:
 764 0082 0028     		cmp	r0, #0
 765 0084 C7D1     		bne	.L47
 766              		.loc 1 315 0
 767 0086 F022     		movs	r2, #240
 768 0088 0F21     		movs	r1, #15
 769 008a 6E20     		movs	r0, #110
 770              	.LVL106:
 771 008c FFF7FEFF 		bl	write_reg
 772              	.LVL107:
 773 0090 0028     		cmp	r0, #0
 774 0092 C0D1     		bne	.L47
 775              		.loc 1 319 0
 776 0094 0246     		mov	r2, r0
 777 0096 3521     		movs	r1, #53
 778 0098 6E20     		movs	r0, #110
 779              	.LVL108:
 780 009a FFF7FEFF 		bl	write_reg
 781              	.LVL109:
 782 009e 0028     		cmp	r0, #0
 783 00a0 B9D1     		bne	.L47
 784              		.loc 1 322 0
 785 00a2 0122     		movs	r2, #1
 786 00a4 3621     		movs	r1, #54
 787 00a6 6E20     		movs	r0, #110
 788              	.LVL110:
 789 00a8 FFF7FEFF 		bl	write_reg
 790              	.LVL111:
 791 00ac 0028     		cmp	r0, #0
 792 00ae B2D1     		bne	.L47
 793              		.loc 1 325 0
 794 00b0 0122     		movs	r2, #1
 795 00b2 3721     		movs	r1, #55
 796 00b4 6E20     		movs	r0, #110
 797              	.LVL112:
 798 00b6 FFF7FEFF 		bl	write_reg
ARM GAS  C:\Users\mathi\AppData\Local\Temp\ccuMtzkg.s 			page 15


 799              	.LVL113:
 800 00ba 0028     		cmp	r0, #0
 801 00bc ABD1     		bne	.L47
 802              		.loc 1 328 0
 803 00be 4022     		movs	r2, #64
 804 00c0 3821     		movs	r1, #56
 805 00c2 6E20     		movs	r0, #110
 806              	.LVL114:
 807 00c4 FFF7FEFF 		bl	write_reg
 808              	.LVL115:
 809 00c8 0028     		cmp	r0, #0
 810 00ca A4D1     		bne	.L47
 811              		.loc 1 331 0
 812 00cc 0246     		mov	r2, r0
 813 00ce 3921     		movs	r1, #57
 814 00d0 6E20     		movs	r0, #110
 815              	.LVL116:
 816 00d2 FFF7FEFF 		bl	write_reg
 817              	.LVL117:
 818 00d6 0028     		cmp	r0, #0
 819 00d8 9DD1     		bne	.L47
 820              		.loc 1 334 0
 821 00da 0122     		movs	r2, #1
 822 00dc 3A21     		movs	r1, #58
 823 00de 6E20     		movs	r0, #110
 824              	.LVL118:
 825 00e0 FFF7FEFF 		bl	write_reg
 826              	.LVL119:
 827 00e4 0028     		cmp	r0, #0
 828 00e6 96D1     		bne	.L47
 829              		.loc 1 337 0
 830 00e8 0246     		mov	r2, r0
 831 00ea 3B21     		movs	r1, #59
 832 00ec 6E20     		movs	r0, #110
 833              	.LVL120:
 834 00ee FFF7FEFF 		bl	write_reg
 835              	.LVL121:
 836 00f2 0028     		cmp	r0, #0
 837 00f4 8FD1     		bne	.L47
 838              		.loc 1 340 0
 839 00f6 F022     		movs	r2, #240
 840 00f8 3C21     		movs	r1, #60
 841 00fa 6E20     		movs	r0, #110
 842              	.LVL122:
 843 00fc FFF7FEFF 		bl	write_reg
 844              	.LVL123:
 845 0100 0028     		cmp	r0, #0
 846 0102 88D1     		bne	.L47
 847              		.loc 1 344 0
 848 0104 0246     		mov	r2, r0
 849 0106 3D21     		movs	r1, #61
 850 0108 6E20     		movs	r0, #110
 851              	.LVL124:
 852 010a FFF7FEFF 		bl	write_reg
 853              	.LVL125:
 854 010e 0028     		cmp	r0, #0
 855 0110 81D1     		bne	.L47
ARM GAS  C:\Users\mathi\AppData\Local\Temp\ccuMtzkg.s 			page 16


 856              		.loc 1 347 0
 857 0112 6B22     		movs	r2, #107
 858 0114 3E21     		movs	r1, #62
 859 0116 6E20     		movs	r0, #110
 860              	.LVL126:
 861 0118 FFF7FEFF 		bl	write_reg
 862              	.LVL127:
 863 011c 0028     		cmp	r0, #0
 864 011e 7FF47AAF 		bne	.L47
 865              		.loc 1 350 0
 866 0122 0246     		mov	r2, r0
 867 0124 3F21     		movs	r1, #63
 868 0126 6E20     		movs	r0, #110
 869              	.LVL128:
 870 0128 FFF7FEFF 		bl	write_reg
 871              	.LVL129:
 872 012c 0028     		cmp	r0, #0
 873 012e 7FF472AF 		bne	.L47
 874              		.loc 1 353 0
 875 0132 D622     		movs	r2, #214
 876 0134 4021     		movs	r1, #64
 877 0136 6E20     		movs	r0, #110
 878              	.LVL130:
 879 0138 FFF7FEFF 		bl	write_reg
 880              	.LVL131:
 881 013c 0028     		cmp	r0, #0
 882 013e 7FF46AAF 		bne	.L47
 883              		.loc 1 356 0
 884 0142 0246     		mov	r2, r0
 885 0144 4121     		movs	r1, #65
 886 0146 6E20     		movs	r0, #110
 887              	.LVL132:
 888 0148 FFF7FEFF 		bl	write_reg
 889              	.LVL133:
 890 014c 0028     		cmp	r0, #0
 891 014e 7FF462AF 		bne	.L47
 892              		.loc 1 359 0
 893 0152 5022     		movs	r2, #80
 894 0154 4221     		movs	r1, #66
 895 0156 6E20     		movs	r0, #110
 896              	.LVL134:
 897 0158 FFF7FEFF 		bl	write_reg
 898              	.LVL135:
 899 015c 0028     		cmp	r0, #0
 900 015e 7FF45AAF 		bne	.L47
 901              		.loc 1 362 0
 902 0162 0246     		mov	r2, r0
 903 0164 4321     		movs	r1, #67
 904 0166 6E20     		movs	r0, #110
 905              	.LVL136:
 906 0168 FFF7FEFF 		bl	write_reg
 907              	.LVL137:
 908 016c 0028     		cmp	r0, #0
 909 016e 7FF452AF 		bne	.L47
 910              		.loc 1 365 0
 911 0172 A022     		movs	r2, #160
 912 0174 4421     		movs	r1, #68
ARM GAS  C:\Users\mathi\AppData\Local\Temp\ccuMtzkg.s 			page 17


 913 0176 6E20     		movs	r0, #110
 914              	.LVL138:
 915 0178 FFF7FEFF 		bl	write_reg
 916              	.LVL139:
 917 017c 0028     		cmp	r0, #0
 918 017e 7FF44AAF 		bne	.L47
 919              	.LVL140:
 920              	.LBB114:
 921              	.LBB115:
 922              		.loc 1 119 0
 923 0182 0122     		movs	r2, #1
 924 0184 0321     		movs	r1, #3
 925 0186 6E20     		movs	r0, #110
 926              	.LVL141:
 927 0188 FFF7FEFF 		bl	write_reg
 928              	.LVL142:
 929              	.LBE115:
 930              	.LBE114:
 931              		.loc 1 369 0
 932 018c 0028     		cmp	r0, #0
 933 018e 7FF442AF 		bne	.L47
 934              		.loc 1 373 0
 935 0192 4022     		movs	r2, #64
 936 0194 9321     		movs	r1, #147
 937 0196 6E20     		movs	r0, #110
 938 0198 FFF7FEFF 		bl	write_reg
 939              	.LVL143:
 940 019c 0028     		cmp	r0, #0
 941 019e 7FF43AAF 		bne	.L47
 942              		.loc 1 376 0
 943 01a2 4022     		movs	r2, #64
 944 01a4 9421     		movs	r1, #148
 945 01a6 6E20     		movs	r0, #110
 946              	.LVL144:
 947 01a8 FFF7FEFF 		bl	write_reg
 948              	.LVL145:
 949 01ac 0028     		cmp	r0, #0
 950 01ae 7FF432AF 		bne	.L47
 951              		.loc 1 380 0
 952 01b2 054B     		ldr	r3, .L52+4
 953 01b4 054A     		ldr	r2, .L52+8
 954 01b6 1A60     		str	r2, [r3]
 955              		.loc 1 382 0
 956 01b8 2022     		movs	r2, #32
 957 01ba 5A71     		strb	r2, [r3, #5]
 958              		.loc 1 383 0
 959 01bc 9A71     		strb	r2, [r3, #6]
 960 01be 2AE7     		b	.L47
 961              	.LVL146:
 962              	.L51:
 963              	.LBE113:
 964              	.LBE112:
 965              		.loc 1 386 0
 966 01c0 FFF7FEFF 		bl	__stack_chk_fail
 967              	.LVL147:
 968              	.L53:
 969              		.align	2
ARM GAS  C:\Users\mathi\AppData\Local\Temp\ccuMtzkg.s 			page 18


 970              	.L52:
 971 01c4 00000000 		.word	__stack_chk_guard
 972 01c8 00000000 		.word	.LANCHOR0
 973 01cc 4001F000 		.word	15728960
 974              		.cfi_endproc
 975              	.LFE261:
 976              		.size	po8030_set_qvga, .-po8030_set_qvga
 977              		.section	.text.po8030_set_qqvga,"ax",%progbits
 978              		.align	1
 979              		.p2align 4,,15
 980              		.global	po8030_set_qqvga
 981              		.syntax unified
 982              		.thumb
 983              		.thumb_func
 984              		.fpu fpv4-sp-d16
 985              		.type	po8030_set_qqvga, %function
 986              	po8030_set_qqvga:
 987              	.LFB262:
 988              		.loc 1 396 0
 989              		.cfi_startproc
 990              		@ args = 0, pretend = 0, frame = 8
 991              		@ frame_needed = 0, uses_anonymous_args = 0
 992 0000 10B5     		push	{r4, lr}
 993              		.cfi_def_cfa_offset 8
 994              		.cfi_offset 4, -8
 995              		.cfi_offset 14, -4
 996 0002 704C     		ldr	r4, .L60
 997 0004 82B0     		sub	sp, sp, #8
 998              		.cfi_def_cfa_offset 16
 999              		.loc 1 396 0
 1000 0006 2368     		ldr	r3, [r4]
 1001 0008 0193     		str	r3, [sp, #4]
 1002              	.LVL148:
 1003              	.LBB126:
 1004              	.LBB127:
 1005              		.loc 1 119 0
 1006 000a 0022     		movs	r2, #0
 1007 000c 0321     		movs	r1, #3
 1008 000e 6E20     		movs	r0, #110
 1009 0010 FFF7FEFF 		bl	write_reg
 1010              	.LVL149:
 1011              	.LBE127:
 1012              	.LBE126:
 1013              		.loc 1 399 0
 1014 0014 30B1     		cbz	r0, .L58
 1015              	.L55:
 1016              		.loc 1 495 0
 1017 0016 019A     		ldr	r2, [sp, #4]
 1018 0018 2368     		ldr	r3, [r4]
 1019 001a 9A42     		cmp	r2, r3
 1020 001c 40F0D080 		bne	.L59
 1021 0020 02B0     		add	sp, sp, #8
 1022              		.cfi_remember_state
 1023              		.cfi_def_cfa_offset 8
 1024              		@ sp needed
 1025 0022 10BD     		pop	{r4, pc}
 1026              	.L58:
ARM GAS  C:\Users\mathi\AppData\Local\Temp\ccuMtzkg.s 			page 19


 1027              		.cfi_restore_state
 1028              		.loc 1 403 0
 1029 0024 0246     		mov	r2, r0
 1030 0026 0821     		movs	r1, #8
 1031 0028 6E20     		movs	r0, #110
 1032 002a FFF7FEFF 		bl	write_reg
 1033              	.LVL150:
 1034 002e 0028     		cmp	r0, #0
 1035 0030 F1D1     		bne	.L55
 1036              		.loc 1 406 0
 1037 0032 0122     		movs	r2, #1
 1038 0034 0921     		movs	r1, #9
 1039 0036 6E20     		movs	r0, #110
 1040              	.LVL151:
 1041 0038 FFF7FEFF 		bl	write_reg
 1042              	.LVL152:
 1043 003c 0028     		cmp	r0, #0
 1044 003e EAD1     		bne	.L55
 1045              		.loc 1 409 0
 1046 0040 0246     		mov	r2, r0
 1047 0042 0A21     		movs	r1, #10
 1048 0044 6E20     		movs	r0, #110
 1049              	.LVL153:
 1050 0046 FFF7FEFF 		bl	write_reg
 1051              	.LVL154:
 1052 004a 0028     		cmp	r0, #0
 1053 004c E3D1     		bne	.L55
 1054              		.loc 1 412 0
 1055 004e 0122     		movs	r2, #1
 1056 0050 0B21     		movs	r1, #11
 1057 0052 6E20     		movs	r0, #110
 1058              	.LVL155:
 1059 0054 FFF7FEFF 		bl	write_reg
 1060              	.LVL156:
 1061 0058 0028     		cmp	r0, #0
 1062 005a DCD1     		bne	.L55
 1063              	.LBB128:
 1064              	.LBB129:
 1065              		.loc 1 415 0
 1066 005c 0246     		mov	r2, r0
 1067 005e 0C21     		movs	r1, #12
 1068 0060 6E20     		movs	r0, #110
 1069              	.LVL157:
 1070 0062 FFF7FEFF 		bl	write_reg
 1071              	.LVL158:
 1072 0066 0028     		cmp	r0, #0
 1073 0068 D5D1     		bne	.L55
 1074              		.loc 1 418 0
 1075 006a A022     		movs	r2, #160
 1076 006c 0D21     		movs	r1, #13
 1077 006e 6E20     		movs	r0, #110
 1078              	.LVL159:
 1079 0070 FFF7FEFF 		bl	write_reg
 1080              	.LVL160:
 1081 0074 0028     		cmp	r0, #0
 1082 0076 CED1     		bne	.L55
 1083              		.loc 1 421 0
ARM GAS  C:\Users\mathi\AppData\Local\Temp\ccuMtzkg.s 			page 20


 1084 0078 0246     		mov	r2, r0
 1085 007a 0E21     		movs	r1, #14
 1086 007c 6E20     		movs	r0, #110
 1087              	.LVL161:
 1088 007e FFF7FEFF 		bl	write_reg
 1089              	.LVL162:
 1090 0082 0028     		cmp	r0, #0
 1091 0084 C7D1     		bne	.L55
 1092              		.loc 1 424 0
 1093 0086 7822     		movs	r2, #120
 1094 0088 0F21     		movs	r1, #15
 1095 008a 6E20     		movs	r0, #110
 1096              	.LVL163:
 1097 008c FFF7FEFF 		bl	write_reg
 1098              	.LVL164:
 1099 0090 0028     		cmp	r0, #0
 1100 0092 C0D1     		bne	.L55
 1101              		.loc 1 428 0
 1102 0094 0246     		mov	r2, r0
 1103 0096 3521     		movs	r1, #53
 1104 0098 6E20     		movs	r0, #110
 1105              	.LVL165:
 1106 009a FFF7FEFF 		bl	write_reg
 1107              	.LVL166:
 1108 009e 0028     		cmp	r0, #0
 1109 00a0 B9D1     		bne	.L55
 1110              		.loc 1 431 0
 1111 00a2 0122     		movs	r2, #1
 1112 00a4 3621     		movs	r1, #54
 1113 00a6 6E20     		movs	r0, #110
 1114              	.LVL167:
 1115 00a8 FFF7FEFF 		bl	write_reg
 1116              	.LVL168:
 1117 00ac 0028     		cmp	r0, #0
 1118 00ae B2D1     		bne	.L55
 1119              		.loc 1 434 0
 1120 00b0 0246     		mov	r2, r0
 1121 00b2 3721     		movs	r1, #55
 1122 00b4 6E20     		movs	r0, #110
 1123              	.LVL169:
 1124 00b6 FFF7FEFF 		bl	write_reg
 1125              	.LVL170:
 1126 00ba 0028     		cmp	r0, #0
 1127 00bc ABD1     		bne	.L55
 1128              		.loc 1 437 0
 1129 00be A022     		movs	r2, #160
 1130 00c0 3821     		movs	r1, #56
 1131 00c2 6E20     		movs	r0, #110
 1132              	.LVL171:
 1133 00c4 FFF7FEFF 		bl	write_reg
 1134              	.LVL172:
 1135 00c8 0028     		cmp	r0, #0
 1136 00ca A4D1     		bne	.L55
 1137              		.loc 1 440 0
 1138 00cc 0246     		mov	r2, r0
 1139 00ce 3921     		movs	r1, #57
 1140 00d0 6E20     		movs	r0, #110
ARM GAS  C:\Users\mathi\AppData\Local\Temp\ccuMtzkg.s 			page 21


 1141              	.LVL173:
 1142 00d2 FFF7FEFF 		bl	write_reg
 1143              	.LVL174:
 1144 00d6 0028     		cmp	r0, #0
 1145 00d8 9DD1     		bne	.L55
 1146              		.loc 1 443 0
 1147 00da 0122     		movs	r2, #1
 1148 00dc 3A21     		movs	r1, #58
 1149 00de 6E20     		movs	r0, #110
 1150              	.LVL175:
 1151 00e0 FFF7FEFF 		bl	write_reg
 1152              	.LVL176:
 1153 00e4 0028     		cmp	r0, #0
 1154 00e6 96D1     		bne	.L55
 1155              		.loc 1 446 0
 1156 00e8 0246     		mov	r2, r0
 1157 00ea 3B21     		movs	r1, #59
 1158 00ec 6E20     		movs	r0, #110
 1159              	.LVL177:
 1160 00ee FFF7FEFF 		bl	write_reg
 1161              	.LVL178:
 1162 00f2 0028     		cmp	r0, #0
 1163 00f4 8FD1     		bne	.L55
 1164              		.loc 1 449 0
 1165 00f6 7822     		movs	r2, #120
 1166 00f8 3C21     		movs	r1, #60
 1167 00fa 6E20     		movs	r0, #110
 1168              	.LVL179:
 1169 00fc FFF7FEFF 		bl	write_reg
 1170              	.LVL180:
 1171 0100 0028     		cmp	r0, #0
 1172 0102 88D1     		bne	.L55
 1173              		.loc 1 453 0
 1174 0104 0246     		mov	r2, r0
 1175 0106 3D21     		movs	r1, #61
 1176 0108 6E20     		movs	r0, #110
 1177              	.LVL181:
 1178 010a FFF7FEFF 		bl	write_reg
 1179              	.LVL182:
 1180 010e 0028     		cmp	r0, #0
 1181 0110 81D1     		bne	.L55
 1182              		.loc 1 456 0
 1183 0112 3622     		movs	r2, #54
 1184 0114 3E21     		movs	r1, #62
 1185 0116 6E20     		movs	r0, #110
 1186              	.LVL183:
 1187 0118 FFF7FEFF 		bl	write_reg
 1188              	.LVL184:
 1189 011c 0028     		cmp	r0, #0
 1190 011e 7FF47AAF 		bne	.L55
 1191              		.loc 1 459 0
 1192 0122 0246     		mov	r2, r0
 1193 0124 3F21     		movs	r1, #63
 1194 0126 6E20     		movs	r0, #110
 1195              	.LVL185:
 1196 0128 FFF7FEFF 		bl	write_reg
 1197              	.LVL186:
ARM GAS  C:\Users\mathi\AppData\Local\Temp\ccuMtzkg.s 			page 22


 1198 012c 0028     		cmp	r0, #0
 1199 012e 7FF472AF 		bne	.L55
 1200              		.loc 1 462 0
 1201 0132 6B22     		movs	r2, #107
 1202 0134 4021     		movs	r1, #64
 1203 0136 6E20     		movs	r0, #110
 1204              	.LVL187:
 1205 0138 FFF7FEFF 		bl	write_reg
 1206              	.LVL188:
 1207 013c 0028     		cmp	r0, #0
 1208 013e 7FF46AAF 		bne	.L55
 1209              		.loc 1 465 0
 1210 0142 0246     		mov	r2, r0
 1211 0144 4121     		movs	r1, #65
 1212 0146 6E20     		movs	r0, #110
 1213              	.LVL189:
 1214 0148 FFF7FEFF 		bl	write_reg
 1215              	.LVL190:
 1216 014c 0028     		cmp	r0, #0
 1217 014e 7FF462AF 		bne	.L55
 1218              		.loc 1 468 0
 1219 0152 2922     		movs	r2, #41
 1220 0154 4221     		movs	r1, #66
 1221 0156 6E20     		movs	r0, #110
 1222              	.LVL191:
 1223 0158 FFF7FEFF 		bl	write_reg
 1224              	.LVL192:
 1225 015c 0028     		cmp	r0, #0
 1226 015e 7FF45AAF 		bne	.L55
 1227              		.loc 1 471 0
 1228 0162 0246     		mov	r2, r0
 1229 0164 4321     		movs	r1, #67
 1230 0166 6E20     		movs	r0, #110
 1231              	.LVL193:
 1232 0168 FFF7FEFF 		bl	write_reg
 1233              	.LVL194:
 1234 016c 0028     		cmp	r0, #0
 1235 016e 7FF452AF 		bne	.L55
 1236              		.loc 1 474 0
 1237 0172 5022     		movs	r2, #80
 1238 0174 4421     		movs	r1, #68
 1239 0176 6E20     		movs	r0, #110
 1240              	.LVL195:
 1241 0178 FFF7FEFF 		bl	write_reg
 1242              	.LVL196:
 1243 017c 0028     		cmp	r0, #0
 1244 017e 7FF44AAF 		bne	.L55
 1245              	.LVL197:
 1246              	.LBB130:
 1247              	.LBB131:
 1248              		.loc 1 119 0
 1249 0182 0122     		movs	r2, #1
 1250 0184 0321     		movs	r1, #3
 1251 0186 6E20     		movs	r0, #110
 1252              	.LVL198:
 1253 0188 FFF7FEFF 		bl	write_reg
 1254              	.LVL199:
ARM GAS  C:\Users\mathi\AppData\Local\Temp\ccuMtzkg.s 			page 23


 1255              	.LBE131:
 1256              	.LBE130:
 1257              		.loc 1 478 0
 1258 018c 0028     		cmp	r0, #0
 1259 018e 7FF442AF 		bne	.L55
 1260              		.loc 1 482 0
 1261 0192 8022     		movs	r2, #128
 1262 0194 9321     		movs	r1, #147
 1263 0196 6E20     		movs	r0, #110
 1264 0198 FFF7FEFF 		bl	write_reg
 1265              	.LVL200:
 1266 019c 0028     		cmp	r0, #0
 1267 019e 7FF43AAF 		bne	.L55
 1268              		.loc 1 485 0
 1269 01a2 8022     		movs	r2, #128
 1270 01a4 9421     		movs	r1, #148
 1271 01a6 6E20     		movs	r0, #110
 1272              	.LVL201:
 1273 01a8 FFF7FEFF 		bl	write_reg
 1274              	.LVL202:
 1275 01ac 0028     		cmp	r0, #0
 1276 01ae 7FF432AF 		bne	.L55
 1277              		.loc 1 489 0
 1278 01b2 054B     		ldr	r3, .L60+4
 1279 01b4 054A     		ldr	r2, .L60+8
 1280 01b6 1A60     		str	r2, [r3]
 1281              		.loc 1 491 0
 1282 01b8 2022     		movs	r2, #32
 1283 01ba 5A71     		strb	r2, [r3, #5]
 1284              		.loc 1 492 0
 1285 01bc 9A71     		strb	r2, [r3, #6]
 1286 01be 2AE7     		b	.L55
 1287              	.LVL203:
 1288              	.L59:
 1289              	.LBE129:
 1290              	.LBE128:
 1291              		.loc 1 495 0
 1292 01c0 FFF7FEFF 		bl	__stack_chk_fail
 1293              	.LVL204:
 1294              	.L61:
 1295              		.align	2
 1296              	.L60:
 1297 01c4 00000000 		.word	__stack_chk_guard
 1298 01c8 00000000 		.word	.LANCHOR0
 1299 01cc A0007800 		.word	7864480
 1300              		.cfi_endproc
 1301              	.LFE262:
 1302              		.size	po8030_set_qqvga, .-po8030_set_qqvga
 1303              		.section	.text.po8030_set_size,"ax",%progbits
 1304              		.align	1
 1305              		.p2align 4,,15
 1306              		.global	po8030_set_size
 1307              		.syntax unified
 1308              		.thumb
 1309              		.thumb_func
 1310              		.fpu fpv4-sp-d16
 1311              		.type	po8030_set_size, %function
ARM GAS  C:\Users\mathi\AppData\Local\Temp\ccuMtzkg.s 			page 24


 1312              	po8030_set_size:
 1313              	.LFB263:
 1314              		.loc 1 507 0
 1315              		.cfi_startproc
 1316              		@ args = 0, pretend = 0, frame = 8
 1317              		@ frame_needed = 0, uses_anonymous_args = 0
 1318              	.LVL205:
 1319 0000 10B5     		push	{r4, lr}
 1320              		.cfi_def_cfa_offset 8
 1321              		.cfi_offset 4, -8
 1322              		.cfi_offset 14, -4
 1323 0002 784C     		ldr	r4, .L74
 1324 0004 82B0     		sub	sp, sp, #8
 1325              		.cfi_def_cfa_offset 16
 1326              		.loc 1 507 0
 1327 0006 2368     		ldr	r3, [r4]
 1328 0008 0193     		str	r3, [sp, #4]
 1329              		.loc 1 508 0
 1330 000a A0B1     		cbz	r0, .L71
 1331              		.loc 1 510 0
 1332 000c 0128     		cmp	r0, #1
 1333 000e 00F0CE81 		beq	.L72
 1334              	.LVL206:
 1335              	.LBB154:
 1336              	.LBB155:
 1337              		.loc 1 512 0
 1338 0012 0228     		cmp	r0, #2
 1339 0014 40F0D481 		bne	.L68
 1340              	.LVL207:
 1341              	.LBB156:
 1342              	.LBB157:
 1343              	.LBB158:
 1344              	.LBB159:
 1345              		.loc 1 119 0
 1346 0018 0022     		movs	r2, #0
 1347 001a 0321     		movs	r1, #3
 1348 001c 6E20     		movs	r0, #110
 1349              	.LVL208:
 1350 001e FFF7FEFF 		bl	write_reg
 1351              	.LVL209:
 1352              	.LBE159:
 1353              	.LBE158:
 1354              		.loc 1 399 0
 1355 0022 0028     		cmp	r0, #0
 1356 0024 00F0E480 		beq	.L73
 1357              	.LVL210:
 1358              	.L64:
 1359              	.LBE157:
 1360              	.LBE156:
 1361              	.LBE155:
 1362              	.LBE154:
 1363              		.loc 1 517 0
 1364 0028 019A     		ldr	r2, [sp, #4]
 1365 002a 2368     		ldr	r3, [r4]
 1366 002c 9A42     		cmp	r2, r3
 1367 002e 40F0CA81 		bne	.L70
 1368 0032 02B0     		add	sp, sp, #8
ARM GAS  C:\Users\mathi\AppData\Local\Temp\ccuMtzkg.s 			page 25


 1369              		.cfi_remember_state
 1370              		.cfi_def_cfa_offset 8
 1371              		@ sp needed
 1372 0034 10BD     		pop	{r4, pc}
 1373              	.LVL211:
 1374              	.L71:
 1375              		.cfi_restore_state
 1376              	.LBB168:
 1377              	.LBB169:
 1378              	.LBB170:
 1379              	.LBB171:
 1380              		.loc 1 119 0
 1381 0036 0246     		mov	r2, r0
 1382 0038 0321     		movs	r1, #3
 1383 003a 6E20     		movs	r0, #110
 1384              	.LVL212:
 1385 003c FFF7FEFF 		bl	write_reg
 1386              	.LVL213:
 1387              	.LBE171:
 1388              	.LBE170:
 1389              		.loc 1 181 0
 1390 0040 0028     		cmp	r0, #0
 1391 0042 F1D1     		bne	.L64
 1392              		.loc 1 185 0
 1393 0044 0246     		mov	r2, r0
 1394 0046 0821     		movs	r1, #8
 1395 0048 6E20     		movs	r0, #110
 1396 004a FFF7FEFF 		bl	write_reg
 1397              	.LVL214:
 1398 004e 0028     		cmp	r0, #0
 1399 0050 EAD1     		bne	.L64
 1400              		.loc 1 188 0
 1401 0052 0122     		movs	r2, #1
 1402 0054 0921     		movs	r1, #9
 1403 0056 6E20     		movs	r0, #110
 1404              	.LVL215:
 1405 0058 FFF7FEFF 		bl	write_reg
 1406              	.LVL216:
 1407 005c 0028     		cmp	r0, #0
 1408 005e E3D1     		bne	.L64
 1409              		.loc 1 191 0
 1410 0060 0246     		mov	r2, r0
 1411 0062 0A21     		movs	r1, #10
 1412 0064 6E20     		movs	r0, #110
 1413              	.LVL217:
 1414 0066 FFF7FEFF 		bl	write_reg
 1415              	.LVL218:
 1416 006a 0028     		cmp	r0, #0
 1417 006c DCD1     		bne	.L64
 1418              		.loc 1 194 0
 1419 006e 0122     		movs	r2, #1
 1420 0070 0B21     		movs	r1, #11
 1421 0072 6E20     		movs	r0, #110
 1422              	.LVL219:
 1423 0074 FFF7FEFF 		bl	write_reg
 1424              	.LVL220:
 1425 0078 0028     		cmp	r0, #0
ARM GAS  C:\Users\mathi\AppData\Local\Temp\ccuMtzkg.s 			page 26


 1426 007a D5D1     		bne	.L64
 1427              	.LBB172:
 1428              	.LBB173:
 1429              		.loc 1 197 0
 1430 007c 0222     		movs	r2, #2
 1431 007e 0C21     		movs	r1, #12
 1432 0080 6E20     		movs	r0, #110
 1433              	.LVL221:
 1434 0082 FFF7FEFF 		bl	write_reg
 1435              	.LVL222:
 1436 0086 0028     		cmp	r0, #0
 1437 0088 CED1     		bne	.L64
 1438              		.loc 1 200 0
 1439 008a 8022     		movs	r2, #128
 1440 008c 0D21     		movs	r1, #13
 1441 008e 6E20     		movs	r0, #110
 1442              	.LVL223:
 1443 0090 FFF7FEFF 		bl	write_reg
 1444              	.LVL224:
 1445 0094 0028     		cmp	r0, #0
 1446 0096 C7D1     		bne	.L64
 1447              		.loc 1 203 0
 1448 0098 0122     		movs	r2, #1
 1449 009a 0E21     		movs	r1, #14
 1450 009c 6E20     		movs	r0, #110
 1451              	.LVL225:
 1452 009e FFF7FEFF 		bl	write_reg
 1453              	.LVL226:
 1454 00a2 0028     		cmp	r0, #0
 1455 00a4 C0D1     		bne	.L64
 1456              		.loc 1 206 0
 1457 00a6 E022     		movs	r2, #224
 1458 00a8 0F21     		movs	r1, #15
 1459 00aa 6E20     		movs	r0, #110
 1460              	.LVL227:
 1461 00ac FFF7FEFF 		bl	write_reg
 1462              	.LVL228:
 1463 00b0 0028     		cmp	r0, #0
 1464 00b2 B9D1     		bne	.L64
 1465              		.loc 1 210 0
 1466 00b4 0022     		movs	r2, #0
 1467 00b6 3521     		movs	r1, #53
 1468 00b8 6E20     		movs	r0, #110
 1469              	.LVL229:
 1470 00ba FFF7FEFF 		bl	write_reg
 1471              	.LVL230:
 1472 00be 0028     		cmp	r0, #0
 1473 00c0 B2D1     		bne	.L64
 1474              		.loc 1 213 0
 1475 00c2 0122     		movs	r2, #1
 1476 00c4 3621     		movs	r1, #54
 1477 00c6 6E20     		movs	r0, #110
 1478              	.LVL231:
 1479 00c8 FFF7FEFF 		bl	write_reg
 1480              	.LVL232:
 1481 00cc 0028     		cmp	r0, #0
 1482 00ce ABD1     		bne	.L64
ARM GAS  C:\Users\mathi\AppData\Local\Temp\ccuMtzkg.s 			page 27


 1483              		.loc 1 216 0
 1484 00d0 0222     		movs	r2, #2
 1485 00d2 3721     		movs	r1, #55
 1486 00d4 6E20     		movs	r0, #110
 1487              	.LVL233:
 1488 00d6 FFF7FEFF 		bl	write_reg
 1489              	.LVL234:
 1490 00da 0028     		cmp	r0, #0
 1491 00dc A4D1     		bne	.L64
 1492              		.loc 1 219 0
 1493 00de 8022     		movs	r2, #128
 1494 00e0 3821     		movs	r1, #56
 1495 00e2 6E20     		movs	r0, #110
 1496              	.LVL235:
 1497 00e4 FFF7FEFF 		bl	write_reg
 1498              	.LVL236:
 1499 00e8 0028     		cmp	r0, #0
 1500 00ea 9DD1     		bne	.L64
 1501              		.loc 1 222 0
 1502 00ec 0246     		mov	r2, r0
 1503 00ee 3921     		movs	r1, #57
 1504 00f0 6E20     		movs	r0, #110
 1505              	.LVL237:
 1506 00f2 FFF7FEFF 		bl	write_reg
 1507              	.LVL238:
 1508 00f6 0028     		cmp	r0, #0
 1509 00f8 96D1     		bne	.L64
 1510              		.loc 1 225 0
 1511 00fa 0122     		movs	r2, #1
 1512 00fc 3A21     		movs	r1, #58
 1513 00fe 6E20     		movs	r0, #110
 1514              	.LVL239:
 1515 0100 FFF7FEFF 		bl	write_reg
 1516              	.LVL240:
 1517 0104 0028     		cmp	r0, #0
 1518 0106 8FD1     		bne	.L64
 1519              		.loc 1 228 0
 1520 0108 0122     		movs	r2, #1
 1521 010a 3B21     		movs	r1, #59
 1522 010c 6E20     		movs	r0, #110
 1523              	.LVL241:
 1524 010e FFF7FEFF 		bl	write_reg
 1525              	.LVL242:
 1526 0112 0028     		cmp	r0, #0
 1527 0114 88D1     		bne	.L64
 1528              		.loc 1 231 0
 1529 0116 E022     		movs	r2, #224
 1530 0118 3C21     		movs	r1, #60
 1531 011a 6E20     		movs	r0, #110
 1532              	.LVL243:
 1533 011c FFF7FEFF 		bl	write_reg
 1534              	.LVL244:
 1535 0120 0028     		cmp	r0, #0
 1536 0122 81D1     		bne	.L64
 1537              		.loc 1 235 0
 1538 0124 0246     		mov	r2, r0
 1539 0126 3D21     		movs	r1, #61
ARM GAS  C:\Users\mathi\AppData\Local\Temp\ccuMtzkg.s 			page 28


 1540 0128 6E20     		movs	r0, #110
 1541              	.LVL245:
 1542 012a FFF7FEFF 		bl	write_reg
 1543              	.LVL246:
 1544 012e 0028     		cmp	r0, #0
 1545 0130 7FF47AAF 		bne	.L64
 1546              		.loc 1 238 0
 1547 0134 D622     		movs	r2, #214
 1548 0136 3E21     		movs	r1, #62
 1549 0138 6E20     		movs	r0, #110
 1550              	.LVL247:
 1551 013a FFF7FEFF 		bl	write_reg
 1552              	.LVL248:
 1553 013e 0028     		cmp	r0, #0
 1554 0140 7FF472AF 		bne	.L64
 1555              		.loc 1 241 0
 1556 0144 0122     		movs	r2, #1
 1557 0146 3F21     		movs	r1, #63
 1558 0148 6E20     		movs	r0, #110
 1559              	.LVL249:
 1560 014a FFF7FEFF 		bl	write_reg
 1561              	.LVL250:
 1562 014e 0028     		cmp	r0, #0
 1563 0150 7FF46AAF 		bne	.L64
 1564              		.loc 1 244 0
 1565 0154 AB22     		movs	r2, #171
 1566 0156 4021     		movs	r1, #64
 1567 0158 6E20     		movs	r0, #110
 1568              	.LVL251:
 1569 015a FFF7FEFF 		bl	write_reg
 1570              	.LVL252:
 1571 015e 0028     		cmp	r0, #0
 1572 0160 7FF462AF 		bne	.L64
 1573              		.loc 1 247 0
 1574 0164 0246     		mov	r2, r0
 1575 0166 4121     		movs	r1, #65
 1576 0168 6E20     		movs	r0, #110
 1577              	.LVL253:
 1578 016a FFF7FEFF 		bl	write_reg
 1579              	.LVL254:
 1580 016e 0028     		cmp	r0, #0
 1581 0170 7FF45AAF 		bne	.L64
 1582              		.loc 1 250 0
 1583 0174 A122     		movs	r2, #161
 1584 0176 4221     		movs	r1, #66
 1585 0178 6E20     		movs	r0, #110
 1586              	.LVL255:
 1587 017a FFF7FEFF 		bl	write_reg
 1588              	.LVL256:
 1589 017e 0028     		cmp	r0, #0
 1590 0180 7FF452AF 		bne	.L64
 1591              		.loc 1 253 0
 1592 0184 0122     		movs	r2, #1
 1593 0186 4321     		movs	r1, #67
 1594 0188 6E20     		movs	r0, #110
 1595              	.LVL257:
 1596 018a FFF7FEFF 		bl	write_reg
ARM GAS  C:\Users\mathi\AppData\Local\Temp\ccuMtzkg.s 			page 29


 1597              	.LVL258:
 1598 018e 0028     		cmp	r0, #0
 1599 0190 7FF44AAF 		bne	.L64
 1600              		.loc 1 256 0
 1601 0194 4022     		movs	r2, #64
 1602 0196 4421     		movs	r1, #68
 1603 0198 6E20     		movs	r0, #110
 1604              	.LVL259:
 1605 019a FFF7FEFF 		bl	write_reg
 1606              	.LVL260:
 1607 019e 0028     		cmp	r0, #0
 1608 01a0 7FF442AF 		bne	.L64
 1609              	.LVL261:
 1610              	.LBB174:
 1611              	.LBB175:
 1612              		.loc 1 119 0
 1613 01a4 0122     		movs	r2, #1
 1614 01a6 0321     		movs	r1, #3
 1615 01a8 6E20     		movs	r0, #110
 1616              	.LVL262:
 1617 01aa FFF7FEFF 		bl	write_reg
 1618              	.LVL263:
 1619              	.LBE175:
 1620              	.LBE174:
 1621              		.loc 1 260 0
 1622 01ae 0028     		cmp	r0, #0
 1623 01b0 7FF43AAF 		bne	.L64
 1624              		.loc 1 264 0
 1625 01b4 2022     		movs	r2, #32
 1626 01b6 9321     		movs	r1, #147
 1627 01b8 6E20     		movs	r0, #110
 1628 01ba FFF7FEFF 		bl	write_reg
 1629              	.LVL264:
 1630 01be 0028     		cmp	r0, #0
 1631 01c0 7FF432AF 		bne	.L64
 1632              		.loc 1 267 0
 1633 01c4 2022     		movs	r2, #32
 1634 01c6 9421     		movs	r1, #148
 1635 01c8 6E20     		movs	r0, #110
 1636              	.LVL265:
 1637 01ca FFF7FEFF 		bl	write_reg
 1638              	.LVL266:
 1639 01ce 0028     		cmp	r0, #0
 1640 01d0 7FF42AAF 		bne	.L64
 1641              		.loc 1 271 0
 1642 01d4 044B     		ldr	r3, .L74+4
 1643 01d6 054A     		ldr	r2, .L74+8
 1644 01d8 1A60     		str	r2, [r3]
 1645              		.loc 1 273 0
 1646 01da 2022     		movs	r2, #32
 1647 01dc 5A71     		strb	r2, [r3, #5]
 1648              		.loc 1 274 0
 1649 01de 9A71     		strb	r2, [r3, #6]
 1650 01e0 22E7     		b	.L64
 1651              	.L75:
 1652 01e2 00BF     		.align	2
 1653              	.L74:
ARM GAS  C:\Users\mathi\AppData\Local\Temp\ccuMtzkg.s 			page 30


 1654 01e4 00000000 		.word	__stack_chk_guard
 1655 01e8 00000000 		.word	.LANCHOR0
 1656 01ec 8002E001 		.word	31457920
 1657              	.LVL267:
 1658              	.L73:
 1659              	.LBE173:
 1660              	.LBE172:
 1661              	.LBE169:
 1662              	.LBE168:
 1663              	.LBB176:
 1664              	.LBB166:
 1665              	.LBB165:
 1666              	.LBB164:
 1667              		.loc 1 403 0
 1668 01f0 0246     		mov	r2, r0
 1669 01f2 0821     		movs	r1, #8
 1670 01f4 6E20     		movs	r0, #110
 1671 01f6 FFF7FEFF 		bl	write_reg
 1672              	.LVL268:
 1673 01fa 0028     		cmp	r0, #0
 1674 01fc 7FF414AF 		bne	.L64
 1675              		.loc 1 406 0
 1676 0200 0122     		movs	r2, #1
 1677 0202 0921     		movs	r1, #9
 1678 0204 6E20     		movs	r0, #110
 1679              	.LVL269:
 1680 0206 FFF7FEFF 		bl	write_reg
 1681              	.LVL270:
 1682 020a 0028     		cmp	r0, #0
 1683 020c 7FF40CAF 		bne	.L64
 1684              		.loc 1 409 0
 1685 0210 0246     		mov	r2, r0
 1686 0212 0A21     		movs	r1, #10
 1687 0214 6E20     		movs	r0, #110
 1688              	.LVL271:
 1689 0216 FFF7FEFF 		bl	write_reg
 1690              	.LVL272:
 1691 021a 0028     		cmp	r0, #0
 1692 021c 7FF404AF 		bne	.L64
 1693              		.loc 1 412 0
 1694 0220 0122     		movs	r2, #1
 1695 0222 0B21     		movs	r1, #11
 1696 0224 6E20     		movs	r0, #110
 1697              	.LVL273:
 1698 0226 FFF7FEFF 		bl	write_reg
 1699              	.LVL274:
 1700 022a 0028     		cmp	r0, #0
 1701 022c 7FF4FCAE 		bne	.L64
 1702              	.LBB160:
 1703              	.LBB161:
 1704              		.loc 1 415 0
 1705 0230 0246     		mov	r2, r0
 1706 0232 0C21     		movs	r1, #12
 1707 0234 6E20     		movs	r0, #110
 1708              	.LVL275:
 1709 0236 FFF7FEFF 		bl	write_reg
 1710              	.LVL276:
ARM GAS  C:\Users\mathi\AppData\Local\Temp\ccuMtzkg.s 			page 31


 1711 023a 0028     		cmp	r0, #0
 1712 023c 7FF4F4AE 		bne	.L64
 1713              		.loc 1 418 0
 1714 0240 A022     		movs	r2, #160
 1715 0242 0D21     		movs	r1, #13
 1716 0244 6E20     		movs	r0, #110
 1717              	.LVL277:
 1718 0246 FFF7FEFF 		bl	write_reg
 1719              	.LVL278:
 1720 024a 0028     		cmp	r0, #0
 1721 024c 7FF4ECAE 		bne	.L64
 1722              		.loc 1 421 0
 1723 0250 0022     		movs	r2, #0
 1724 0252 0E21     		movs	r1, #14
 1725 0254 6E20     		movs	r0, #110
 1726              	.LVL279:
 1727 0256 FFF7FEFF 		bl	write_reg
 1728              	.LVL280:
 1729 025a 0028     		cmp	r0, #0
 1730 025c 7FF4E4AE 		bne	.L64
 1731              		.loc 1 424 0
 1732 0260 7822     		movs	r2, #120
 1733 0262 0F21     		movs	r1, #15
 1734 0264 6E20     		movs	r0, #110
 1735              	.LVL281:
 1736 0266 FFF7FEFF 		bl	write_reg
 1737              	.LVL282:
 1738 026a 0028     		cmp	r0, #0
 1739 026c 7FF4DCAE 		bne	.L64
 1740              		.loc 1 428 0
 1741 0270 0246     		mov	r2, r0
 1742 0272 3521     		movs	r1, #53
 1743 0274 6E20     		movs	r0, #110
 1744              	.LVL283:
 1745 0276 FFF7FEFF 		bl	write_reg
 1746              	.LVL284:
 1747 027a 0028     		cmp	r0, #0
 1748 027c 7FF4D4AE 		bne	.L64
 1749              		.loc 1 431 0
 1750 0280 0122     		movs	r2, #1
 1751 0282 3621     		movs	r1, #54
 1752 0284 6E20     		movs	r0, #110
 1753              	.LVL285:
 1754 0286 FFF7FEFF 		bl	write_reg
 1755              	.LVL286:
 1756 028a 0028     		cmp	r0, #0
 1757 028c 7FF4CCAE 		bne	.L64
 1758              		.loc 1 434 0
 1759 0290 0246     		mov	r2, r0
 1760 0292 3721     		movs	r1, #55
 1761 0294 6E20     		movs	r0, #110
 1762              	.LVL287:
 1763 0296 FFF7FEFF 		bl	write_reg
 1764              	.LVL288:
 1765 029a 0028     		cmp	r0, #0
 1766 029c 7FF4C4AE 		bne	.L64
 1767              		.loc 1 437 0
ARM GAS  C:\Users\mathi\AppData\Local\Temp\ccuMtzkg.s 			page 32


 1768 02a0 A022     		movs	r2, #160
 1769 02a2 3821     		movs	r1, #56
 1770 02a4 6E20     		movs	r0, #110
 1771              	.LVL289:
 1772 02a6 FFF7FEFF 		bl	write_reg
 1773              	.LVL290:
 1774 02aa 0028     		cmp	r0, #0
 1775 02ac 7FF4BCAE 		bne	.L64
 1776              		.loc 1 440 0
 1777 02b0 0246     		mov	r2, r0
 1778 02b2 3921     		movs	r1, #57
 1779 02b4 6E20     		movs	r0, #110
 1780              	.LVL291:
 1781 02b6 FFF7FEFF 		bl	write_reg
 1782              	.LVL292:
 1783 02ba 0028     		cmp	r0, #0
 1784 02bc 7FF4B4AE 		bne	.L64
 1785              		.loc 1 443 0
 1786 02c0 0122     		movs	r2, #1
 1787 02c2 3A21     		movs	r1, #58
 1788 02c4 6E20     		movs	r0, #110
 1789              	.LVL293:
 1790 02c6 FFF7FEFF 		bl	write_reg
 1791              	.LVL294:
 1792 02ca 0028     		cmp	r0, #0
 1793 02cc 7FF4ACAE 		bne	.L64
 1794              		.loc 1 446 0
 1795 02d0 0246     		mov	r2, r0
 1796 02d2 3B21     		movs	r1, #59
 1797 02d4 6E20     		movs	r0, #110
 1798              	.LVL295:
 1799 02d6 FFF7FEFF 		bl	write_reg
 1800              	.LVL296:
 1801 02da 0028     		cmp	r0, #0
 1802 02dc 7FF4A4AE 		bne	.L64
 1803              		.loc 1 449 0
 1804 02e0 7822     		movs	r2, #120
 1805 02e2 3C21     		movs	r1, #60
 1806 02e4 6E20     		movs	r0, #110
 1807              	.LVL297:
 1808 02e6 FFF7FEFF 		bl	write_reg
 1809              	.LVL298:
 1810 02ea 0028     		cmp	r0, #0
 1811 02ec 7FF49CAE 		bne	.L64
 1812              		.loc 1 453 0
 1813 02f0 0022     		movs	r2, #0
 1814 02f2 3D21     		movs	r1, #61
 1815 02f4 6E20     		movs	r0, #110
 1816              	.LVL299:
 1817 02f6 FFF7FEFF 		bl	write_reg
 1818              	.LVL300:
 1819 02fa 0028     		cmp	r0, #0
 1820 02fc 7FF494AE 		bne	.L64
 1821              		.loc 1 456 0
 1822 0300 3622     		movs	r2, #54
 1823 0302 3E21     		movs	r1, #62
 1824 0304 6E20     		movs	r0, #110
ARM GAS  C:\Users\mathi\AppData\Local\Temp\ccuMtzkg.s 			page 33


 1825              	.LVL301:
 1826 0306 FFF7FEFF 		bl	write_reg
 1827              	.LVL302:
 1828 030a 0028     		cmp	r0, #0
 1829 030c 7FF48CAE 		bne	.L64
 1830              		.loc 1 459 0
 1831 0310 0246     		mov	r2, r0
 1832 0312 3F21     		movs	r1, #63
 1833 0314 6E20     		movs	r0, #110
 1834              	.LVL303:
 1835 0316 FFF7FEFF 		bl	write_reg
 1836              	.LVL304:
 1837 031a 0028     		cmp	r0, #0
 1838 031c 7FF484AE 		bne	.L64
 1839              		.loc 1 462 0
 1840 0320 6B22     		movs	r2, #107
 1841 0322 4021     		movs	r1, #64
 1842 0324 6E20     		movs	r0, #110
 1843              	.LVL305:
 1844 0326 FFF7FEFF 		bl	write_reg
 1845              	.LVL306:
 1846 032a 0028     		cmp	r0, #0
 1847 032c 7FF47CAE 		bne	.L64
 1848              		.loc 1 465 0
 1849 0330 0246     		mov	r2, r0
 1850 0332 4121     		movs	r1, #65
 1851 0334 6E20     		movs	r0, #110
 1852              	.LVL307:
 1853 0336 FFF7FEFF 		bl	write_reg
 1854              	.LVL308:
 1855 033a 0028     		cmp	r0, #0
 1856 033c 7FF474AE 		bne	.L64
 1857              		.loc 1 468 0
 1858 0340 2922     		movs	r2, #41
 1859 0342 4221     		movs	r1, #66
 1860 0344 6E20     		movs	r0, #110
 1861              	.LVL309:
 1862 0346 FFF7FEFF 		bl	write_reg
 1863              	.LVL310:
 1864 034a 0028     		cmp	r0, #0
 1865 034c 7FF46CAE 		bne	.L64
 1866              		.loc 1 471 0
 1867 0350 0246     		mov	r2, r0
 1868 0352 4321     		movs	r1, #67
 1869 0354 6E20     		movs	r0, #110
 1870              	.LVL311:
 1871 0356 FFF7FEFF 		bl	write_reg
 1872              	.LVL312:
 1873 035a 0028     		cmp	r0, #0
 1874 035c 7FF464AE 		bne	.L64
 1875              		.loc 1 474 0
 1876 0360 5022     		movs	r2, #80
 1877 0362 4421     		movs	r1, #68
 1878 0364 6E20     		movs	r0, #110
 1879              	.LVL313:
 1880 0366 FFF7FEFF 		bl	write_reg
 1881              	.LVL314:
ARM GAS  C:\Users\mathi\AppData\Local\Temp\ccuMtzkg.s 			page 34


 1882 036a 0028     		cmp	r0, #0
 1883 036c 7FF45CAE 		bne	.L64
 1884              	.LVL315:
 1885              	.LBB162:
 1886              	.LBB163:
 1887              		.loc 1 119 0
 1888 0370 0122     		movs	r2, #1
 1889 0372 0321     		movs	r1, #3
 1890 0374 6E20     		movs	r0, #110
 1891              	.LVL316:
 1892 0376 FFF7FEFF 		bl	write_reg
 1893              	.LVL317:
 1894              	.LBE163:
 1895              	.LBE162:
 1896              		.loc 1 478 0
 1897 037a 0028     		cmp	r0, #0
 1898 037c 7FF454AE 		bne	.L64
 1899              		.loc 1 482 0
 1900 0380 8022     		movs	r2, #128
 1901 0382 9321     		movs	r1, #147
 1902 0384 6E20     		movs	r0, #110
 1903 0386 FFF7FEFF 		bl	write_reg
 1904              	.LVL318:
 1905 038a 0028     		cmp	r0, #0
 1906 038c 7FF44CAE 		bne	.L64
 1907              		.loc 1 485 0
 1908 0390 8022     		movs	r2, #128
 1909 0392 9421     		movs	r1, #148
 1910 0394 6E20     		movs	r0, #110
 1911              	.LVL319:
 1912 0396 FFF7FEFF 		bl	write_reg
 1913              	.LVL320:
 1914 039a 0028     		cmp	r0, #0
 1915 039c 7FF444AE 		bne	.L64
 1916              		.loc 1 489 0
 1917 03a0 0A4B     		ldr	r3, .L76
 1918 03a2 0B4A     		ldr	r2, .L76+4
 1919 03a4 1A60     		str	r2, [r3]
 1920              		.loc 1 491 0
 1921 03a6 2022     		movs	r2, #32
 1922 03a8 5A71     		strb	r2, [r3, #5]
 1923              		.loc 1 492 0
 1924 03aa 9A71     		strb	r2, [r3, #6]
 1925 03ac 3CE6     		b	.L64
 1926              	.LVL321:
 1927              	.L72:
 1928              	.LBE161:
 1929              	.LBE160:
 1930              	.LBE164:
 1931              	.LBE165:
 1932              	.LBE166:
 1933              	.LBE176:
 1934              		.loc 1 511 0
 1935 03ae 019A     		ldr	r2, [sp, #4]
 1936 03b0 2368     		ldr	r3, [r4]
 1937 03b2 9A42     		cmp	r2, r3
 1938 03b4 07D1     		bne	.L70
ARM GAS  C:\Users\mathi\AppData\Local\Temp\ccuMtzkg.s 			page 35


 1939              		.loc 1 517 0
 1940 03b6 02B0     		add	sp, sp, #8
 1941              		.cfi_remember_state
 1942              		.cfi_def_cfa_offset 8
 1943              		@ sp needed
 1944 03b8 BDE81040 		pop	{r4, lr}
 1945              		.cfi_restore 14
 1946              		.cfi_restore 4
 1947              		.cfi_def_cfa_offset 0
 1948              		.loc 1 511 0
 1949 03bc FFF7FEBF 		b	po8030_set_qvga
 1950              	.LVL322:
 1951              	.L68:
 1952              		.cfi_restore_state
 1953              	.LBB177:
 1954              	.LBB167:
 1955              		.loc 1 515 0
 1956 03c0 4FF0FF30 		mov	r0, #-1
 1957              	.LVL323:
 1958 03c4 30E6     		b	.L64
 1959              	.LVL324:
 1960              	.L70:
 1961              	.LBE167:
 1962              	.LBE177:
 1963              		.loc 1 517 0
 1964 03c6 FFF7FEFF 		bl	__stack_chk_fail
 1965              	.LVL325:
 1966              	.L77:
 1967 03ca 00BF     		.align	2
 1968              	.L76:
 1969 03cc 00000000 		.word	.LANCHOR0
 1970 03d0 A0007800 		.word	7864480
 1971              		.cfi_endproc
 1972              	.LFE263:
 1973              		.size	po8030_set_size, .-po8030_set_size
 1974              		.section	.text.po8030_set_scale_buffer_size,"ax",%progbits
 1975              		.align	1
 1976              		.p2align 4,,15
 1977              		.global	po8030_set_scale_buffer_size
 1978              		.syntax unified
 1979              		.thumb
 1980              		.thumb_func
 1981              		.fpu fpv4-sp-d16
 1982              		.type	po8030_set_scale_buffer_size, %function
 1983              	po8030_set_scale_buffer_size:
 1984              	.LFB264:
 1985              		.loc 1 530 0
 1986              		.cfi_startproc
 1987              		@ args = 0, pretend = 0, frame = 8
 1988              		@ frame_needed = 0, uses_anonymous_args = 0
 1989              	.LVL326:
 1990 0000 70B5     		push	{r4, r5, r6, lr}
 1991              		.cfi_def_cfa_offset 16
 1992              		.cfi_offset 4, -16
 1993              		.cfi_offset 5, -12
 1994              		.cfi_offset 6, -8
 1995              		.cfi_offset 14, -4
ARM GAS  C:\Users\mathi\AppData\Local\Temp\ccuMtzkg.s 			page 36


 1996 0002 3C4C     		ldr	r4, .L99
 1997 0004 82B0     		sub	sp, sp, #8
 1998              		.cfi_def_cfa_offset 24
 1999              		.loc 1 530 0
 2000 0006 0646     		mov	r6, r0
 2001 0008 0D46     		mov	r5, r1
 2002 000a 2368     		ldr	r3, [r4]
 2003 000c 0193     		str	r3, [sp, #4]
 2004              	.LVL327:
 2005              	.LBB184:
 2006              	.LBB185:
 2007              		.loc 1 119 0
 2008 000e 0122     		movs	r2, #1
 2009 0010 0321     		movs	r1, #3
 2010              	.LVL328:
 2011 0012 6E20     		movs	r0, #110
 2012              	.LVL329:
 2013 0014 FFF7FEFF 		bl	write_reg
 2014              	.LVL330:
 2015              	.LBE185:
 2016              	.LBE184:
 2017              		.loc 1 533 0
 2018 0018 68B9     		cbnz	r0, .L79
 2019              	.LVL331:
 2020              	.LBB186:
 2021              	.LBB187:
 2022              		.loc 1 537 0
 2023 001a 442E     		cmp	r6, #68
 2024 001c 11D0     		beq	.L97
 2025              		.loc 1 567 0
 2026 001e 012D     		cmp	r5, #1
 2027 0020 36D0     		beq	.L87
 2028 0022 27D3     		bcc	.L88
 2029 0024 022D     		cmp	r5, #2
 2030 0026 06D1     		bne	.L79
 2031              		.loc 1 587 0
 2032 0028 0246     		mov	r2, r0
 2033 002a 9521     		movs	r1, #149
 2034 002c 6E20     		movs	r0, #110
 2035 002e FFF7FEFF 		bl	write_reg
 2036              	.LVL332:
 2037 0032 0028     		cmp	r0, #0
 2038 0034 3BD0     		beq	.L98
 2039              	.LVL333:
 2040              	.L79:
 2041              	.LBE187:
 2042              	.LBE186:
 2043              		.loc 1 598 0
 2044 0036 019A     		ldr	r2, [sp, #4]
 2045 0038 2368     		ldr	r3, [r4]
 2046 003a 9A42     		cmp	r2, r3
 2047 003c 35D1     		bne	.L96
 2048 003e 02B0     		add	sp, sp, #8
 2049              		.cfi_remember_state
 2050              		.cfi_def_cfa_offset 16
 2051              		@ sp needed
 2052 0040 70BD     		pop	{r4, r5, r6, pc}
ARM GAS  C:\Users\mathi\AppData\Local\Temp\ccuMtzkg.s 			page 37


 2053              	.LVL334:
 2054              	.L97:
 2055              		.cfi_restore_state
 2056              	.LBB191:
 2057              	.LBB188:
 2058              		.loc 1 538 0
 2059 0042 012D     		cmp	r5, #1
 2060 0044 48D0     		beq	.L81
 2061 0046 39D3     		bcc	.L82
 2062 0048 022D     		cmp	r5, #2
 2063 004a F4D1     		bne	.L79
 2064              		.loc 1 558 0
 2065 004c 0246     		mov	r2, r0
 2066 004e 9521     		movs	r1, #149
 2067 0050 6E20     		movs	r0, #110
 2068 0052 FFF7FEFF 		bl	write_reg
 2069              	.LVL335:
 2070 0056 0028     		cmp	r0, #0
 2071 0058 EDD1     		bne	.L79
 2072              		.loc 1 561 0
 2073 005a 019A     		ldr	r2, [sp, #4]
 2074 005c 2368     		ldr	r3, [r4]
 2075 005e 9A42     		cmp	r2, r3
 2076 0060 08BF     		it	eq
 2077 0062 7C22     		moveq	r2, #124
 2078 0064 21D1     		bne	.L96
 2079              	.L95:
 2080              		.loc 1 590 0
 2081 0066 9621     		movs	r1, #150
 2082 0068 6E20     		movs	r0, #110
 2083              	.LVL336:
 2084              	.LBE188:
 2085              	.LBE191:
 2086              		.loc 1 598 0
 2087 006a 02B0     		add	sp, sp, #8
 2088              		.cfi_remember_state
 2089              		.cfi_def_cfa_offset 16
 2090              		@ sp needed
 2091 006c BDE87040 		pop	{r4, r5, r6, lr}
 2092              		.cfi_restore 14
 2093              		.cfi_restore 6
 2094              		.cfi_restore 5
 2095              		.cfi_restore 4
 2096              		.cfi_def_cfa_offset 0
 2097              	.LVL337:
 2098              	.LBB192:
 2099              	.LBB189:
 2100              		.loc 1 590 0
 2101 0070 FFF7FEBF 		b	write_reg
 2102              	.LVL338:
 2103              	.L88:
 2104              		.cfi_restore_state
 2105              		.loc 1 569 0
 2106 0074 0246     		mov	r2, r0
 2107 0076 9521     		movs	r1, #149
 2108 0078 6E20     		movs	r0, #110
 2109 007a FFF7FEFF 		bl	write_reg
ARM GAS  C:\Users\mathi\AppData\Local\Temp\ccuMtzkg.s 			page 38


 2110              	.LVL339:
 2111 007e 0028     		cmp	r0, #0
 2112 0080 D9D1     		bne	.L79
 2113              		.loc 1 572 0
 2114 0082 019A     		ldr	r2, [sp, #4]
 2115 0084 2368     		ldr	r3, [r4]
 2116 0086 9A42     		cmp	r2, r3
 2117 0088 08BF     		it	eq
 2118 008a 0A22     		moveq	r2, #10
 2119 008c EBD0     		beq	.L95
 2120 008e 0CE0     		b	.L96
 2121              	.LVL340:
 2122              	.L87:
 2123              		.loc 1 578 0
 2124 0090 2A46     		mov	r2, r5
 2125 0092 9521     		movs	r1, #149
 2126 0094 6E20     		movs	r0, #110
 2127 0096 FFF7FEFF 		bl	write_reg
 2128              	.LVL341:
 2129 009a 0028     		cmp	r0, #0
 2130 009c CBD1     		bne	.L79
 2131              		.loc 1 581 0
 2132 009e 019A     		ldr	r2, [sp, #4]
 2133 00a0 2368     		ldr	r3, [r4]
 2134 00a2 9A42     		cmp	r2, r3
 2135 00a4 08BF     		it	eq
 2136 00a6 4622     		moveq	r2, #70
 2137 00a8 DDD0     		beq	.L95
 2138              	.LVL342:
 2139              	.L96:
 2140              	.LBE189:
 2141              	.LBE192:
 2142              		.loc 1 598 0
 2143 00aa FFF7FEFF 		bl	__stack_chk_fail
 2144              	.LVL343:
 2145              	.L98:
 2146              	.LBB193:
 2147              	.LBB190:
 2148              		.loc 1 590 0
 2149 00ae 019A     		ldr	r2, [sp, #4]
 2150 00b0 2368     		ldr	r3, [r4]
 2151 00b2 9A42     		cmp	r2, r3
 2152 00b4 08BF     		it	eq
 2153 00b6 F522     		moveq	r2, #245
 2154 00b8 D5D0     		beq	.L95
 2155 00ba F6E7     		b	.L96
 2156              	.LVL344:
 2157              	.L82:
 2158              		.loc 1 540 0
 2159 00bc 0246     		mov	r2, r0
 2160 00be 9521     		movs	r1, #149
 2161 00c0 6E20     		movs	r0, #110
 2162 00c2 FFF7FEFF 		bl	write_reg
 2163              	.LVL345:
 2164 00c6 0028     		cmp	r0, #0
 2165 00c8 B5D1     		bne	.L79
 2166              		.loc 1 543 0
ARM GAS  C:\Users\mathi\AppData\Local\Temp\ccuMtzkg.s 			page 39


 2167 00ca 019A     		ldr	r2, [sp, #4]
 2168 00cc 2368     		ldr	r3, [r4]
 2169 00ce 9A42     		cmp	r2, r3
 2170 00d0 08BF     		it	eq
 2171 00d2 0822     		moveq	r2, #8
 2172 00d4 C7D0     		beq	.L95
 2173 00d6 E8E7     		b	.L96
 2174              	.LVL346:
 2175              	.L81:
 2176              		.loc 1 549 0
 2177 00d8 0246     		mov	r2, r0
 2178 00da 9521     		movs	r1, #149
 2179 00dc 6E20     		movs	r0, #110
 2180 00de FFF7FEFF 		bl	write_reg
 2181              	.LVL347:
 2182 00e2 0028     		cmp	r0, #0
 2183 00e4 A7D1     		bne	.L79
 2184              		.loc 1 552 0
 2185 00e6 019A     		ldr	r2, [sp, #4]
 2186 00e8 2368     		ldr	r3, [r4]
 2187 00ea 9A42     		cmp	r2, r3
 2188 00ec 08BF     		it	eq
 2189 00ee A422     		moveq	r2, #164
 2190 00f0 B9D0     		beq	.L95
 2191 00f2 DAE7     		b	.L96
 2192              	.L100:
 2193              		.align	2
 2194              	.L99:
 2195 00f4 00000000 		.word	__stack_chk_guard
 2196              	.LBE190:
 2197              	.LBE193:
 2198              		.cfi_endproc
 2199              	.LFE264:
 2200              		.size	po8030_set_scale_buffer_size, .-po8030_set_scale_buffer_size
 2201              		.section	.text.po8030_start,"ax",%progbits
 2202              		.align	1
 2203              		.p2align 4,,15
 2204              		.global	po8030_start
 2205              		.syntax unified
 2206              		.thumb
 2207              		.thumb_func
 2208              		.fpu fpv4-sp-d16
 2209              		.type	po8030_start, %function
 2210              	po8030_start:
 2211              	.LFB265:
 2212              		.loc 1 605 0
 2213              		.cfi_startproc
 2214              		@ args = 0, pretend = 0, frame = 8
 2215              		@ frame_needed = 0, uses_anonymous_args = 0
 2216 0000 30B5     		push	{r4, r5, lr}
 2217              		.cfi_def_cfa_offset 12
 2218              		.cfi_offset 4, -12
 2219              		.cfi_offset 5, -8
 2220              		.cfi_offset 14, -4
 2221 0002 A04C     		ldr	r4, .L109
 2222 0004 83B0     		sub	sp, sp, #12
 2223              		.cfi_def_cfa_offset 24
ARM GAS  C:\Users\mathi\AppData\Local\Temp\ccuMtzkg.s 			page 40


 2224              		.loc 1 605 0
 2225 0006 2368     		ldr	r3, [r4]
 2226 0008 0193     		str	r3, [sp, #4]
 2227              		.loc 1 607 0
 2228 000a FFF7FEFF 		bl	i2c_start
 2229              	.LVL348:
 2230              		.loc 1 623 0
 2231 000e 9E49     		ldr	r1, .L109+4
 2232 0010 9E48     		ldr	r0, .L109+8
 2233 0012 FFF7FEFF 		bl	pwmStart
 2234              	.LVL349:
 2235              		.loc 1 625 0
 2236 0016 0122     		movs	r2, #1
 2237 0018 0021     		movs	r1, #0
 2238 001a 9C48     		ldr	r0, .L109+8
 2239 001c FFF7FEFF 		bl	pwmEnableChannel
 2240              	.LVL350:
 2241              	.LBB216:
 2242              	.LBB217:
 2243              	.LBB218:
 2244              	.LBB219:
 2245              		.loc 1 119 0
 2246 0020 0022     		movs	r2, #0
 2247 0022 0321     		movs	r1, #3
 2248 0024 6E20     		movs	r0, #110
 2249 0026 FFF7FEFF 		bl	write_reg
 2250              	.LVL351:
 2251              	.LBE219:
 2252              	.LBE218:
 2253              		.loc 1 750 0
 2254 002a 30B1     		cbz	r0, .L107
 2255              	.LVL352:
 2256              	.L101:
 2257              	.LBE217:
 2258              	.LBE216:
 2259              		.loc 1 629 0
 2260 002c 019A     		ldr	r2, [sp, #4]
 2261 002e 2368     		ldr	r3, [r4]
 2262 0030 9A42     		cmp	r2, r3
 2263 0032 40F02581 		bne	.L108
 2264 0036 03B0     		add	sp, sp, #12
 2265              		.cfi_remember_state
 2266              		.cfi_def_cfa_offset 12
 2267              		@ sp needed
 2268 0038 30BD     		pop	{r4, r5, pc}
 2269              	.LVL353:
 2270              	.L107:
 2271              		.cfi_restore_state
 2272              	.LBB241:
 2273              	.LBB240:
 2274              		.loc 1 753 0
 2275 003a 0246     		mov	r2, r0
 2276 003c 5B21     		movs	r1, #91
 2277 003e 6E20     		movs	r0, #110
 2278 0040 FFF7FEFF 		bl	write_reg
 2279              	.LVL354:
 2280 0044 0028     		cmp	r0, #0
ARM GAS  C:\Users\mathi\AppData\Local\Temp\ccuMtzkg.s 			page 41


 2281 0046 F1D1     		bne	.L101
 2282              	.LVL355:
 2283              	.LBB220:
 2284              	.LBB221:
 2285              	.LBB222:
 2286              	.LBB223:
 2287              		.loc 1 119 0
 2288 0048 0122     		movs	r2, #1
 2289 004a 0321     		movs	r1, #3
 2290 004c 6E20     		movs	r0, #110
 2291              	.LVL356:
 2292 004e FFF7FEFF 		bl	write_reg
 2293              	.LVL357:
 2294              	.LBE223:
 2295              	.LBE222:
 2296              		.loc 1 135 0
 2297 0052 0028     		cmp	r0, #0
 2298 0054 EAD1     		bne	.L101
 2299              		.loc 1 139 0
 2300 0056 0222     		movs	r2, #2
 2301 0058 4E21     		movs	r1, #78
 2302 005a 6E20     		movs	r0, #110
 2303 005c FFF7FEFF 		bl	write_reg
 2304              	.LVL358:
 2305 0060 0028     		cmp	r0, #0
 2306 0062 E3D1     		bne	.L101
 2307              	.LVL359:
 2308              	.LBB224:
 2309              	.LBB225:
 2310              		.loc 1 154 0
 2311 0064 0246     		mov	r2, r0
 2312 0066 B721     		movs	r1, #183
 2313 0068 6E20     		movs	r0, #110
 2314              	.LVL360:
 2315 006a FFF7FEFF 		bl	write_reg
 2316              	.LVL361:
 2317 006e 0028     		cmp	r0, #0
 2318 0070 DCD1     		bne	.L101
 2319              	.LVL362:
 2320              	.LBB226:
 2321              	.LBB227:
 2322              		.loc 1 119 0
 2323 0072 0246     		mov	r2, r0
 2324 0074 0321     		movs	r1, #3
 2325 0076 6E20     		movs	r0, #110
 2326              	.LVL363:
 2327 0078 FFF7FEFF 		bl	write_reg
 2328              	.LVL364:
 2329              	.LBE227:
 2330              	.LBE226:
 2331              		.loc 1 157 0
 2332 007c 0028     		cmp	r0, #0
 2333 007e D5D1     		bne	.L101
 2334              		.loc 1 160 0
 2335 0080 0A22     		movs	r2, #10
 2336 0082 1121     		movs	r1, #17
 2337 0084 6E20     		movs	r0, #110
ARM GAS  C:\Users\mathi\AppData\Local\Temp\ccuMtzkg.s 			page 42


 2338 0086 FFF7FEFF 		bl	write_reg
 2339              	.LVL365:
 2340 008a 0246     		mov	r2, r0
 2341 008c 0028     		cmp	r0, #0
 2342 008e CDD1     		bne	.L101
 2343              		.loc 1 165 0
 2344 0090 7F4D     		ldr	r5, .L109+12
 2345 0092 0223     		movs	r3, #2
 2346              	.LBE225:
 2347              	.LBE224:
 2348              	.LBE221:
 2349              	.LBE220:
 2350              	.LBB231:
 2351              	.LBB232:
 2352              		.loc 1 119 0
 2353 0094 0321     		movs	r1, #3
 2354 0096 6E20     		movs	r0, #110
 2355              	.LVL366:
 2356              	.LBE232:
 2357              	.LBE231:
 2358              	.LBB234:
 2359              	.LBB230:
 2360              	.LBB229:
 2361              	.LBB228:
 2362              		.loc 1 165 0
 2363 0098 2B71     		strb	r3, [r5, #4]
 2364              	.LVL367:
 2365              	.LBE228:
 2366              	.LBE229:
 2367              	.LBE230:
 2368              	.LBE234:
 2369              	.LBB235:
 2370              	.LBB233:
 2371              		.loc 1 119 0
 2372 009a FFF7FEFF 		bl	write_reg
 2373              	.LVL368:
 2374              	.LBE233:
 2375              	.LBE235:
 2376              		.loc 1 761 0
 2377 009e 0028     		cmp	r0, #0
 2378 00a0 C4D1     		bne	.L101
 2379              		.loc 1 765 0
 2380 00a2 0246     		mov	r2, r0
 2381 00a4 0821     		movs	r1, #8
 2382 00a6 6E20     		movs	r0, #110
 2383 00a8 FFF7FEFF 		bl	write_reg
 2384              	.LVL369:
 2385 00ac 0028     		cmp	r0, #0
 2386 00ae BDD1     		bne	.L101
 2387              		.loc 1 768 0
 2388 00b0 F022     		movs	r2, #240
 2389 00b2 0921     		movs	r1, #9
 2390 00b4 6E20     		movs	r0, #110
 2391              	.LVL370:
 2392 00b6 FFF7FEFF 		bl	write_reg
 2393              	.LVL371:
 2394 00ba 0028     		cmp	r0, #0
ARM GAS  C:\Users\mathi\AppData\Local\Temp\ccuMtzkg.s 			page 43


 2395 00bc B6D1     		bne	.L101
 2396              		.loc 1 771 0
 2397 00be 0022     		movs	r2, #0
 2398 00c0 0A21     		movs	r1, #10
 2399 00c2 6E20     		movs	r0, #110
 2400              	.LVL372:
 2401 00c4 FFF7FEFF 		bl	write_reg
 2402              	.LVL373:
 2403 00c8 0028     		cmp	r0, #0
 2404 00ca AFD1     		bne	.L101
 2405              		.loc 1 774 0
 2406 00cc B422     		movs	r2, #180
 2407 00ce 0B21     		movs	r1, #11
 2408 00d0 6E20     		movs	r0, #110
 2409              	.LVL374:
 2410 00d2 FFF7FEFF 		bl	write_reg
 2411              	.LVL375:
 2412 00d6 0028     		cmp	r0, #0
 2413 00d8 A8D1     		bne	.L101
 2414              		.loc 1 777 0
 2415 00da 0122     		movs	r2, #1
 2416 00dc 0C21     		movs	r1, #12
 2417 00de 6E20     		movs	r0, #110
 2418              	.LVL376:
 2419 00e0 FFF7FEFF 		bl	write_reg
 2420              	.LVL377:
 2421 00e4 0028     		cmp	r0, #0
 2422 00e6 A1D1     		bne	.L101
 2423              		.loc 1 780 0
 2424 00e8 8F22     		movs	r2, #143
 2425 00ea 0D21     		movs	r1, #13
 2426 00ec 6E20     		movs	r0, #110
 2427              	.LVL378:
 2428 00ee FFF7FEFF 		bl	write_reg
 2429              	.LVL379:
 2430 00f2 0028     		cmp	r0, #0
 2431 00f4 9AD1     		bne	.L101
 2432              		.loc 1 783 0
 2433 00f6 0122     		movs	r2, #1
 2434 00f8 0E21     		movs	r1, #14
 2435 00fa 6E20     		movs	r0, #110
 2436              	.LVL380:
 2437 00fc FFF7FEFF 		bl	write_reg
 2438              	.LVL381:
 2439 0100 0028     		cmp	r0, #0
 2440 0102 93D1     		bne	.L101
 2441              		.loc 1 786 0
 2442 0104 2B22     		movs	r2, #43
 2443 0106 0F21     		movs	r1, #15
 2444 0108 6E20     		movs	r0, #110
 2445              	.LVL382:
 2446 010a FFF7FEFF 		bl	write_reg
 2447              	.LVL383:
 2448 010e 0246     		mov	r2, r0
 2449 0110 0028     		cmp	r0, #0
 2450 0112 8BD1     		bne	.L101
 2451              		.loc 1 790 0
ARM GAS  C:\Users\mathi\AppData\Local\Temp\ccuMtzkg.s 			page 44


 2452 0114 3521     		movs	r1, #53
 2453 0116 6E20     		movs	r0, #110
 2454              	.LVL384:
 2455 0118 FFF7FEFF 		bl	write_reg
 2456              	.LVL385:
 2457 011c 0028     		cmp	r0, #0
 2458 011e 85D1     		bne	.L101
 2459              		.loc 1 793 0
 2460 0120 F022     		movs	r2, #240
 2461 0122 3621     		movs	r1, #54
 2462 0124 6E20     		movs	r0, #110
 2463              	.LVL386:
 2464 0126 FFF7FEFF 		bl	write_reg
 2465              	.LVL387:
 2466 012a 0028     		cmp	r0, #0
 2467 012c 7FF47EAF 		bne	.L101
 2468              		.loc 1 796 0
 2469 0130 0122     		movs	r2, #1
 2470 0132 3721     		movs	r1, #55
 2471 0134 6E20     		movs	r0, #110
 2472              	.LVL388:
 2473 0136 FFF7FEFF 		bl	write_reg
 2474              	.LVL389:
 2475 013a 0028     		cmp	r0, #0
 2476 013c 7FF476AF 		bne	.L101
 2477              		.loc 1 799 0
 2478 0140 8F22     		movs	r2, #143
 2479 0142 3821     		movs	r1, #56
 2480 0144 6E20     		movs	r0, #110
 2481              	.LVL390:
 2482 0146 FFF7FEFF 		bl	write_reg
 2483              	.LVL391:
 2484 014a 0028     		cmp	r0, #0
 2485 014c 7FF46EAF 		bne	.L101
 2486              		.loc 1 802 0
 2487 0150 0022     		movs	r2, #0
 2488 0152 3921     		movs	r1, #57
 2489 0154 6E20     		movs	r0, #110
 2490              	.LVL392:
 2491 0156 FFF7FEFF 		bl	write_reg
 2492              	.LVL393:
 2493 015a 0028     		cmp	r0, #0
 2494 015c 7FF466AF 		bne	.L101
 2495              		.loc 1 805 0
 2496 0160 B422     		movs	r2, #180
 2497 0162 3A21     		movs	r1, #58
 2498 0164 6E20     		movs	r0, #110
 2499              	.LVL394:
 2500 0166 FFF7FEFF 		bl	write_reg
 2501              	.LVL395:
 2502 016a 0028     		cmp	r0, #0
 2503 016c 7FF45EAF 		bne	.L101
 2504              		.loc 1 808 0
 2505 0170 0122     		movs	r2, #1
 2506 0172 3B21     		movs	r1, #59
 2507 0174 6E20     		movs	r0, #110
 2508              	.LVL396:
ARM GAS  C:\Users\mathi\AppData\Local\Temp\ccuMtzkg.s 			page 45


 2509 0176 FFF7FEFF 		bl	write_reg
 2510              	.LVL397:
 2511 017a 0028     		cmp	r0, #0
 2512 017c 7FF456AF 		bne	.L101
 2513              		.loc 1 811 0
 2514 0180 2B22     		movs	r2, #43
 2515 0182 3C21     		movs	r1, #60
 2516 0184 6E20     		movs	r0, #110
 2517              	.LVL398:
 2518 0186 FFF7FEFF 		bl	write_reg
 2519              	.LVL399:
 2520 018a 0028     		cmp	r0, #0
 2521 018c 7FF44EAF 		bne	.L101
 2522              		.loc 1 815 0
 2523 0190 0122     		movs	r2, #1
 2524 0192 3D21     		movs	r1, #61
 2525 0194 6E20     		movs	r0, #110
 2526              	.LVL400:
 2527 0196 FFF7FEFF 		bl	write_reg
 2528              	.LVL401:
 2529 019a 0028     		cmp	r0, #0
 2530 019c 7FF446AF 		bne	.L101
 2531              		.loc 1 818 0
 2532 01a0 2522     		movs	r2, #37
 2533 01a2 3E21     		movs	r1, #62
 2534 01a4 6E20     		movs	r0, #110
 2535              	.LVL402:
 2536 01a6 FFF7FEFF 		bl	write_reg
 2537              	.LVL403:
 2538 01aa 0028     		cmp	r0, #0
 2539 01ac 7FF43EAF 		bne	.L101
 2540              		.loc 1 821 0
 2541 01b0 0122     		movs	r2, #1
 2542 01b2 3F21     		movs	r1, #63
 2543 01b4 6E20     		movs	r0, #110
 2544              	.LVL404:
 2545 01b6 FFF7FEFF 		bl	write_reg
 2546              	.LVL405:
 2547 01ba 0028     		cmp	r0, #0
 2548 01bc 7FF436AF 		bne	.L101
 2549              		.loc 1 824 0
 2550 01c0 5A22     		movs	r2, #90
 2551 01c2 4021     		movs	r1, #64
 2552 01c4 6E20     		movs	r0, #110
 2553              	.LVL406:
 2554 01c6 FFF7FEFF 		bl	write_reg
 2555              	.LVL407:
 2556 01ca 0246     		mov	r2, r0
 2557 01cc 0028     		cmp	r0, #0
 2558 01ce 7FF42DAF 		bne	.L101
 2559              		.loc 1 827 0
 2560 01d2 4121     		movs	r1, #65
 2561 01d4 6E20     		movs	r0, #110
 2562              	.LVL408:
 2563 01d6 FFF7FEFF 		bl	write_reg
 2564              	.LVL409:
 2565 01da 0028     		cmp	r0, #0
ARM GAS  C:\Users\mathi\AppData\Local\Temp\ccuMtzkg.s 			page 46


 2566 01dc 7FF426AF 		bne	.L101
 2567              		.loc 1 830 0
 2568 01e0 DC22     		movs	r2, #220
 2569 01e2 4221     		movs	r1, #66
 2570 01e4 6E20     		movs	r0, #110
 2571              	.LVL410:
 2572 01e6 FFF7FEFF 		bl	write_reg
 2573              	.LVL411:
 2574 01ea 0028     		cmp	r0, #0
 2575 01ec 7FF41EAF 		bne	.L101
 2576              		.loc 1 833 0
 2577 01f0 0122     		movs	r2, #1
 2578 01f2 4321     		movs	r1, #67
 2579 01f4 6E20     		movs	r0, #110
 2580              	.LVL412:
 2581 01f6 FFF7FEFF 		bl	write_reg
 2582              	.LVL413:
 2583 01fa 0028     		cmp	r0, #0
 2584 01fc 7FF416AF 		bne	.L101
 2585              		.loc 1 836 0
 2586 0200 0422     		movs	r2, #4
 2587 0202 4421     		movs	r1, #68
 2588 0204 6E20     		movs	r0, #110
 2589              	.LVL414:
 2590 0206 FFF7FEFF 		bl	write_reg
 2591              	.LVL415:
 2592 020a 0028     		cmp	r0, #0
 2593 020c 7FF40EAF 		bne	.L101
 2594              	.LVL416:
 2595              	.LBB236:
 2596              	.LBB237:
 2597              		.loc 1 119 0
 2598 0210 0122     		movs	r2, #1
 2599 0212 0321     		movs	r1, #3
 2600 0214 6E20     		movs	r0, #110
 2601              	.LVL417:
 2602 0216 FFF7FEFF 		bl	write_reg
 2603              	.LVL418:
 2604              	.LBE237:
 2605              	.LBE236:
 2606              		.loc 1 840 0
 2607 021a 0028     		cmp	r0, #0
 2608 021c 7FF406AF 		bne	.L101
 2609              		.loc 1 844 0
 2610 0220 2022     		movs	r2, #32
 2611 0222 9321     		movs	r1, #147
 2612 0224 6E20     		movs	r0, #110
 2613 0226 FFF7FEFF 		bl	write_reg
 2614              	.LVL419:
 2615 022a 0028     		cmp	r0, #0
 2616 022c 7FF4FEAE 		bne	.L101
 2617              		.loc 1 847 0
 2618 0230 2022     		movs	r2, #32
 2619 0232 9421     		movs	r1, #148
 2620 0234 6E20     		movs	r0, #110
 2621              	.LVL420:
 2622 0236 FFF7FEFF 		bl	write_reg
ARM GAS  C:\Users\mathi\AppData\Local\Temp\ccuMtzkg.s 			page 47


 2623              	.LVL421:
 2624 023a 0028     		cmp	r0, #0
 2625 023c 7FF4F6AE 		bne	.L101
 2626              	.LVL422:
 2627              	.LBB238:
 2628              	.LBB239:
 2629              		.loc 1 119 0
 2630 0240 0122     		movs	r2, #1
 2631 0242 0321     		movs	r1, #3
 2632 0244 6E20     		movs	r0, #110
 2633              	.LVL423:
 2634 0246 FFF7FEFF 		bl	write_reg
 2635              	.LVL424:
 2636              	.LBE239:
 2637              	.LBE238:
 2638              		.loc 1 852 0
 2639 024a 0246     		mov	r2, r0
 2640 024c 0028     		cmp	r0, #0
 2641 024e 7FF4EDAE 		bne	.L101
 2642              	.LVL425:
 2643              		.loc 1 864 0
 2644 0252 9521     		movs	r1, #149
 2645 0254 6E20     		movs	r0, #110
 2646 0256 FFF7FEFF 		bl	write_reg
 2647              	.LVL426:
 2648 025a 0028     		cmp	r0, #0
 2649 025c 7FF4E6AE 		bne	.L101
 2650              		.loc 1 867 0
 2651 0260 F522     		movs	r2, #245
 2652 0262 9621     		movs	r1, #150
 2653 0264 6E20     		movs	r0, #110
 2654              	.LVL427:
 2655 0266 FFF7FEFF 		bl	write_reg
 2656              	.LVL428:
 2657 026a 0028     		cmp	r0, #0
 2658 026c 7FF4DEAE 		bne	.L101
 2659              		.loc 1 871 0
 2660 0270 084B     		ldr	r3, .L109+16
 2661 0272 2B60     		str	r3, [r5]
 2662              		.loc 1 873 0
 2663 0274 0222     		movs	r2, #2
 2664              		.loc 1 874 0
 2665 0276 2023     		movs	r3, #32
 2666              		.loc 1 873 0
 2667 0278 2A71     		strb	r2, [r5, #4]
 2668              		.loc 1 874 0
 2669 027a 6B71     		strb	r3, [r5, #5]
 2670              		.loc 1 875 0
 2671 027c AB71     		strb	r3, [r5, #6]
 2672              	.LVL429:
 2673              	.LBE240:
 2674              	.LBE241:
 2675              		.loc 1 629 0
 2676 027e D5E6     		b	.L101
 2677              	.LVL430:
 2678              	.L108:
 2679 0280 FFF7FEFF 		bl	__stack_chk_fail
ARM GAS  C:\Users\mathi\AppData\Local\Temp\ccuMtzkg.s 			page 48


 2680              	.LVL431:
 2681              	.L110:
 2682              		.align	2
 2683              	.L109:
 2684 0284 00000000 		.word	__stack_chk_guard
 2685 0288 00000000 		.word	.LANCHOR1
 2686 028c 00000000 		.word	PWMD5
 2687 0290 00000000 		.word	.LANCHOR0
 2688 0294 A0007800 		.word	7864480
 2689              		.cfi_endproc
 2690              	.LFE265:
 2691              		.size	po8030_start, .-po8030_start
 2692              		.section	.text.po8030_config,"ax",%progbits
 2693              		.align	1
 2694              		.p2align 4,,15
 2695              		.global	po8030_config
 2696              		.syntax unified
 2697              		.thumb
 2698              		.thumb_func
 2699              		.fpu fpv4-sp-d16
 2700              		.type	po8030_config, %function
 2701              	po8030_config:
 2702              	.LFB266:
 2703              		.loc 1 631 0
 2704              		.cfi_startproc
 2705              		@ args = 0, pretend = 0, frame = 8
 2706              		@ frame_needed = 0, uses_anonymous_args = 0
 2707              	.LVL432:
 2708 0000 70B5     		push	{r4, r5, r6, lr}
 2709              		.cfi_def_cfa_offset 16
 2710              		.cfi_offset 4, -16
 2711              		.cfi_offset 5, -12
 2712              		.cfi_offset 6, -8
 2713              		.cfi_offset 14, -4
 2714 0002 1E4C     		ldr	r4, .L124
 2715 0004 82B0     		sub	sp, sp, #8
 2716              		.cfi_def_cfa_offset 24
 2717              		.loc 1 631 0
 2718 0006 0546     		mov	r5, r0
 2719 0008 0E46     		mov	r6, r1
 2720 000a 2368     		ldr	r3, [r4]
 2721 000c 0193     		str	r3, [sp, #4]
 2722              	.LVL433:
 2723              	.LBB248:
 2724              	.LBB249:
 2725              		.loc 1 119 0
 2726 000e 0022     		movs	r2, #0
 2727 0010 0321     		movs	r1, #3
 2728              	.LVL434:
 2729 0012 6E20     		movs	r0, #110
 2730              	.LVL435:
 2731 0014 FFF7FEFF 		bl	write_reg
 2732              	.LVL436:
 2733              	.LBE249:
 2734              	.LBE248:
 2735              		.loc 1 635 0
 2736 0018 28B1     		cbz	r0, .L121
ARM GAS  C:\Users\mathi\AppData\Local\Temp\ccuMtzkg.s 			page 49


 2737              	.L112:
 2738              		.loc 1 655 0
 2739 001a 019A     		ldr	r2, [sp, #4]
 2740 001c 2368     		ldr	r3, [r4]
 2741 001e 9A42     		cmp	r2, r3
 2742 0020 2AD1     		bne	.L120
 2743 0022 02B0     		add	sp, sp, #8
 2744              		.cfi_remember_state
 2745              		.cfi_def_cfa_offset 16
 2746              		@ sp needed
 2747 0024 70BD     		pop	{r4, r5, r6, pc}
 2748              	.L121:
 2749              		.cfi_restore_state
 2750              		.loc 1 638 0
 2751 0026 0246     		mov	r2, r0
 2752 0028 5B21     		movs	r1, #91
 2753 002a 6E20     		movs	r0, #110
 2754 002c FFF7FEFF 		bl	write_reg
 2755              	.LVL437:
 2756 0030 0028     		cmp	r0, #0
 2757 0032 F2D1     		bne	.L112
 2758              		.loc 1 642 0
 2759 0034 2846     		mov	r0, r5
 2760              	.LVL438:
 2761 0036 FFF7FEFF 		bl	po8030_set_format
 2762              	.LVL439:
 2763 003a 0028     		cmp	r0, #0
 2764 003c EDD1     		bne	.L112
 2765              	.LVL440:
 2766              	.LBB250:
 2767              	.LBB251:
 2768              		.loc 1 508 0
 2769 003e 96B1     		cbz	r6, .L122
 2770              		.loc 1 510 0
 2771 0040 012E     		cmp	r6, #1
 2772 0042 13D0     		beq	.L123
 2773              	.LVL441:
 2774              	.LBB252:
 2775              	.LBB253:
 2776              		.loc 1 512 0
 2777 0044 022E     		cmp	r6, #2
 2778 0046 14D1     		bne	.L118
 2779              		.loc 1 513 0
 2780 0048 FFF7FEFF 		bl	po8030_set_qqvga
 2781              	.LVL442:
 2782              	.L114:
 2783              	.LBE253:
 2784              	.LBE252:
 2785              	.LBE251:
 2786              	.LBE250:
 2787              		.loc 1 646 0
 2788 004c 0028     		cmp	r0, #0
 2789 004e E4D1     		bne	.L112
 2790              		.loc 1 650 0
 2791 0050 019A     		ldr	r2, [sp, #4]
 2792 0052 2368     		ldr	r3, [r4]
 2793 0054 9A42     		cmp	r2, r3
ARM GAS  C:\Users\mathi\AppData\Local\Temp\ccuMtzkg.s 			page 50


 2794 0056 0FD1     		bne	.L120
 2795 0058 3146     		mov	r1, r6
 2796 005a 2846     		mov	r0, r5
 2797              		.loc 1 655 0
 2798 005c 02B0     		add	sp, sp, #8
 2799              		.cfi_remember_state
 2800              		.cfi_def_cfa_offset 16
 2801              		@ sp needed
 2802 005e BDE87040 		pop	{r4, r5, r6, lr}
 2803              		.cfi_restore 14
 2804              		.cfi_restore 6
 2805              		.cfi_restore 5
 2806              		.cfi_restore 4
 2807              		.cfi_def_cfa_offset 0
 2808              		.loc 1 650 0
 2809 0062 FFF7FEBF 		b	po8030_set_scale_buffer_size
 2810              	.LVL443:
 2811              	.L122:
 2812              		.cfi_restore_state
 2813              	.LBB257:
 2814              	.LBB256:
 2815              		.loc 1 509 0
 2816 0066 FFF7FEFF 		bl	po8030_set_vga
 2817              	.LVL444:
 2818 006a EFE7     		b	.L114
 2819              	.LVL445:
 2820              	.L123:
 2821              		.loc 1 511 0
 2822 006c FFF7FEFF 		bl	po8030_set_qvga
 2823              	.LVL446:
 2824 0070 ECE7     		b	.L114
 2825              	.LVL447:
 2826              	.L118:
 2827              	.LBB255:
 2828              	.LBB254:
 2829              		.loc 1 515 0
 2830 0072 4FF0FF30 		mov	r0, #-1
 2831              	.LVL448:
 2832 0076 D0E7     		b	.L112
 2833              	.LVL449:
 2834              	.L120:
 2835              	.LBE254:
 2836              	.LBE255:
 2837              	.LBE256:
 2838              	.LBE257:
 2839              		.loc 1 655 0
 2840 0078 FFF7FEFF 		bl	__stack_chk_fail
 2841              	.LVL450:
 2842              	.L125:
 2843              		.align	2
 2844              	.L124:
 2845 007c 00000000 		.word	__stack_chk_guard
 2846              		.cfi_endproc
 2847              	.LFE266:
 2848              		.size	po8030_config, .-po8030_config
 2849              		.section	.text.po8030_advanced_config,"ax",%progbits
 2850              		.align	1
ARM GAS  C:\Users\mathi\AppData\Local\Temp\ccuMtzkg.s 			page 51


 2851              		.p2align 4,,15
 2852              		.global	po8030_advanced_config
 2853              		.syntax unified
 2854              		.thumb
 2855              		.thumb_func
 2856              		.fpu fpv4-sp-d16
 2857              		.type	po8030_advanced_config, %function
 2858              	po8030_advanced_config:
 2859              	.LFB267:
 2860              		.loc 1 659 0
 2861              		.cfi_startproc
 2862              		@ args = 12, pretend = 0, frame = 56
 2863              		@ frame_needed = 0, uses_anonymous_args = 0
 2864              	.LVL451:
 2865 0000 2DE9F04F 		push	{r4, r5, r6, r7, r8, r9, r10, fp, lr}
 2866              		.cfi_def_cfa_offset 36
 2867              		.cfi_offset 4, -36
 2868              		.cfi_offset 5, -32
 2869              		.cfi_offset 6, -28
 2870              		.cfi_offset 7, -24
 2871              		.cfi_offset 8, -20
 2872              		.cfi_offset 9, -16
 2873              		.cfi_offset 10, -12
 2874              		.cfi_offset 11, -8
 2875              		.cfi_offset 14, -4
 2876 0004 8FB0     		sub	sp, sp, #60
 2877              		.cfi_def_cfa_offset 96
 2878              		.loc 1 659 0
 2879 0006 DFF80084 		ldr	r8, .L162+16
 2880 000a DDF860C0 		ldr	ip, [sp, #96]
 2881 000e D8F80040 		ldr	r4, [r8]
 2882 0012 0D94     		str	r4, [sp, #52]
 2883              	.LVL452:
 2884              		.loc 1 662 0
 2885 0014 0CF1FF35 		add	r5, ip, #-1
 2886              		.loc 1 661 0
 2887 0018 5C1E     		subs	r4, r3, #1
 2888              		.loc 1 668 0
 2889 001a B3F5207F 		cmp	r3, #640
 2890              		.loc 1 659 0
 2891 001e 9DF86490 		ldrb	r9, [sp, #100]	@ zero_extendqisi2
 2892 0022 9DF868B0 		ldrb	fp, [sp, #104]	@ zero_extendqisi2
 2893              		.loc 1 661 0
 2894 0026 0C44     		add	r4, r4, r1
 2895              	.LVL453:
 2896              		.loc 1 662 0
 2897 0028 1544     		add	r5, r5, r2
 2898              	.LVL454:
 2899              		.loc 1 668 0
 2900 002a 00F21282 		bhi	.L140
 2901              		.loc 1 668 0 is_stmt 0 discriminator 1
 2902 002e BCF5F07F 		cmp	ip, #480
 2903 0032 00F20E82 		bhi	.L140
 2904              		.loc 1 672 0 is_stmt 1
 2905 0036 B1F5207F 		cmp	r1, #640
 2906 003a 0E46     		mov	r6, r1
 2907 003c 00F21282 		bhi	.L141
ARM GAS  C:\Users\mathi\AppData\Local\Temp\ccuMtzkg.s 			page 52


 2908              		.loc 1 676 0
 2909 0040 B2F5F07F 		cmp	r2, #480
 2910 0044 1746     		mov	r7, r2
 2911 0046 00F21082 		bhi	.L142
 2912              		.loc 1 680 0
 2913 004a A142     		cmp	r1, r4
 2914 004c 80F00482 		bcs	.L144
 2915              		.loc 1 680 0 is_stmt 0 discriminator 1
 2916 0050 B4F5207F 		cmp	r4, #640
 2917 0054 00F20082 		bhi	.L144
 2918              		.loc 1 684 0 is_stmt 1
 2919 0058 AA42     		cmp	r2, r5
 2920 005a 80F00082 		bcs	.L146
 2921              		.loc 1 684 0 is_stmt 0 discriminator 1
 2922 005e B5F5F07F 		cmp	r5, #480
 2923 0062 00F2FC81 		bhi	.L146
 2924              		.loc 1 688 0 is_stmt 1
 2925 0066 B9F1400F 		cmp	r9, #64
 2926 006a 8246     		mov	r10, r0
 2927 006c 00F0B081 		beq	.L129
 2928 0070 B9F1800F 		cmp	r9, #128
 2929 0074 23D0     		beq	.L130
 2930 0076 B9F1200F 		cmp	r9, #32
 2931 007a 00F09C81 		beq	.L156
 2932              		.loc 1 663 0
 2933 007e 0023     		movs	r3, #0
 2934              	.LVL455:
 2935 0080 CDE90033 		strd	r3, r3, [sp]
 2936              	.LVL456:
 2937              	.L128:
 2938              		.loc 1 719 0
 2939 0084 BBF1400F 		cmp	fp, #64
 2940 0088 2FD0     		beq	.L133
 2941              	.L160:
 2942 008a BBF1800F 		cmp	fp, #128
 2943 008e 00F0CB81 		beq	.L134
 2944 0092 BBF1200F 		cmp	fp, #32
 2945 0096 00F0B981 		beq	.L157
 2946              		.loc 1 664 0
 2947 009a 0023     		movs	r3, #0
 2948 009c CDE90233 		strd	r3, r3, [sp, #8]
 2949              	.LVL457:
 2950              	.L132:
 2951              	.LBB258:
 2952              	.LBB259:
 2953              		.loc 1 119 0
 2954 00a0 0022     		movs	r2, #0
 2955 00a2 0321     		movs	r1, #3
 2956 00a4 6E20     		movs	r0, #110
 2957 00a6 FFF7FEFF 		bl	write_reg
 2958              	.LVL458:
 2959              	.LBE259:
 2960              	.LBE258:
 2961              		.loc 1 750 0
 2962 00aa A0B3     		cbz	r0, .L158
 2963              	.LVL459:
 2964              	.L127:
ARM GAS  C:\Users\mathi\AppData\Local\Temp\ccuMtzkg.s 			page 53


 2965              		.loc 1 882 0
 2966 00ac 0D9A     		ldr	r2, [sp, #52]
 2967 00ae D8F80030 		ldr	r3, [r8]
 2968 00b2 9A42     		cmp	r2, r3
 2969 00b4 40F0E281 		bne	.L159
 2970 00b8 0FB0     		add	sp, sp, #60
 2971              		.cfi_remember_state
 2972              		.cfi_def_cfa_offset 36
 2973              		@ sp needed
 2974 00ba BDE8F08F 		pop	{r4, r5, r6, r7, r8, r9, r10, fp, pc}
 2975              	.LVL460:
 2976              	.L130:
 2977              		.cfi_restore_state
 2978              		.loc 1 708 0
 2979 00be 9A07     		lsls	r2, r3, #30
 2980              	.LVL461:
 2981 00c0 40F0D681 		bne	.L149
 2982              		.loc 1 713 0
 2983 00c4 CC4A     		ldr	r2, .L162
 2984              		.loc 1 711 0
 2985 00c6 8C08     		lsrs	r4, r1, #2
 2986              	.LVL462:
 2987              		.loc 1 714 0
 2988 00c8 5900     		lsls	r1, r3, #1
 2989              	.LVL463:
 2990              		.loc 1 712 0
 2991 00ca 661C     		adds	r6, r4, #1
 2992              	.LVL464:
 2993              		.loc 1 714 0
 2994 00cc A2FB0101 		umull	r0, r1, r2, r1
 2995              	.LVL465:
 2996              		.loc 1 713 0
 2997 00d0 A2FB0302 		umull	r0, r2, r2, r3
 2998              		.loc 1 712 0
 2999 00d4 04EB9304 		add	r4, r4, r3, lsr #2
 3000              	.LVL466:
 3001              		.loc 1 713 0
 3002 00d8 06EBD203 		add	r3, r6, r2, lsr #3
 3003              	.LVL467:
 3004 00dc 0093     		str	r3, [sp]
 3005              	.LVL468:
 3006              		.loc 1 719 0
 3007 00de BBF1400F 		cmp	fp, #64
 3008              		.loc 1 714 0
 3009 00e2 06EBD103 		add	r3, r6, r1, lsr #3
 3010              	.LVL469:
 3011 00e6 0193     		str	r3, [sp, #4]
 3012              	.LVL470:
 3013              		.loc 1 719 0
 3014 00e8 CFD1     		bne	.L160
 3015              	.LVL471:
 3016              	.L133:
 3017              		.loc 1 727 0
 3018 00ea 1CF0010F 		tst	ip, #1
 3019 00ee 40F0C281 		bne	.L152
 3020              		.loc 1 732 0
 3021 00f2 C14B     		ldr	r3, .L162
ARM GAS  C:\Users\mathi\AppData\Local\Temp\ccuMtzkg.s 			page 54


 3022              		.loc 1 730 0
 3023 00f4 7D08     		lsrs	r5, r7, #1
 3024              	.LVL472:
 3025              		.loc 1 733 0
 3026 00f6 4FEA4C02 		lsl	r2, ip, #1
 3027              		.loc 1 731 0
 3028 00fa 6F1C     		adds	r7, r5, #1
 3029              	.LVL473:
 3030              		.loc 1 733 0
 3031 00fc A3FB0212 		umull	r1, r2, r3, r2
 3032              		.loc 1 732 0
 3033 0100 A3FB0C13 		umull	r1, r3, r3, ip
 3034 0104 07EB9303 		add	r3, r7, r3, lsr #2
 3035 0108 0293     		str	r3, [sp, #8]
 3036              		.loc 1 733 0
 3037 010a 07EB9203 		add	r3, r7, r2, lsr #2
 3038              		.loc 1 731 0
 3039 010e 05EB5C05 		add	r5, r5, ip, lsr #1
 3040              	.LVL474:
 3041              		.loc 1 733 0
 3042 0112 0393     		str	r3, [sp, #12]
 3043              	.LVL475:
 3044              		.loc 1 735 0
 3045 0114 C4E7     		b	.L132
 3046              	.LVL476:
 3047              	.L158:
 3048              		.loc 1 753 0
 3049 0116 0246     		mov	r2, r0
 3050 0118 5B21     		movs	r1, #91
 3051 011a 6E20     		movs	r0, #110
 3052 011c FFF7FEFF 		bl	write_reg
 3053              	.LVL477:
 3054 0120 0028     		cmp	r0, #0
 3055 0122 C3D1     		bne	.L127
 3056              		.loc 1 757 0
 3057 0124 5046     		mov	r0, r10
 3058              	.LVL478:
 3059 0126 FFF7FEFF 		bl	po8030_set_format
 3060              	.LVL479:
 3061 012a 0028     		cmp	r0, #0
 3062 012c BED1     		bne	.L127
 3063              	.LVL480:
 3064              	.LBB260:
 3065              	.LBB261:
 3066              		.loc 1 119 0
 3067 012e 0246     		mov	r2, r0
 3068 0130 0321     		movs	r1, #3
 3069 0132 6E20     		movs	r0, #110
 3070              	.LVL481:
 3071 0134 FFF7FEFF 		bl	write_reg
 3072              	.LVL482:
 3073              	.LBE261:
 3074              	.LBE260:
 3075              		.loc 1 761 0
 3076 0138 0028     		cmp	r0, #0
 3077 013a B7D1     		bne	.L127
 3078              		.loc 1 765 0
ARM GAS  C:\Users\mathi\AppData\Local\Temp\ccuMtzkg.s 			page 55


 3079 013c C6F30723 		ubfx	r3, r6, #8, #8
 3080 0140 1A46     		mov	r2, r3
 3081 0142 0821     		movs	r1, #8
 3082 0144 6E20     		movs	r0, #110
 3083 0146 0493     		str	r3, [sp, #16]
 3084 0148 FFF7FEFF 		bl	write_reg
 3085              	.LVL483:
 3086 014c 0028     		cmp	r0, #0
 3087 014e ADD1     		bne	.L127
 3088              		.loc 1 768 0
 3089 0150 F3B2     		uxtb	r3, r6
 3090 0152 1A46     		mov	r2, r3
 3091 0154 0921     		movs	r1, #9
 3092 0156 6E20     		movs	r0, #110
 3093              	.LVL484:
 3094 0158 0593     		str	r3, [sp, #20]
 3095 015a FFF7FEFF 		bl	write_reg
 3096              	.LVL485:
 3097 015e 0028     		cmp	r0, #0
 3098 0160 A4D1     		bne	.L127
 3099              		.loc 1 771 0
 3100 0162 C7F30723 		ubfx	r3, r7, #8, #8
 3101 0166 1A46     		mov	r2, r3
 3102 0168 0A21     		movs	r1, #10
 3103 016a 6E20     		movs	r0, #110
 3104              	.LVL486:
 3105 016c 0693     		str	r3, [sp, #24]
 3106 016e FFF7FEFF 		bl	write_reg
 3107              	.LVL487:
 3108 0172 0028     		cmp	r0, #0
 3109 0174 9AD1     		bne	.L127
 3110              		.loc 1 774 0
 3111 0176 FBB2     		uxtb	r3, r7
 3112 0178 1A46     		mov	r2, r3
 3113 017a 0B21     		movs	r1, #11
 3114 017c 6E20     		movs	r0, #110
 3115              	.LVL488:
 3116 017e 0793     		str	r3, [sp, #28]
 3117 0180 FFF7FEFF 		bl	write_reg
 3118              	.LVL489:
 3119 0184 0028     		cmp	r0, #0
 3120 0186 91D1     		bne	.L127
 3121              		.loc 1 777 0
 3122 0188 C4F30723 		ubfx	r3, r4, #8, #8
 3123 018c 1A46     		mov	r2, r3
 3124 018e 0C21     		movs	r1, #12
 3125 0190 6E20     		movs	r0, #110
 3126              	.LVL490:
 3127 0192 0893     		str	r3, [sp, #32]
 3128 0194 FFF7FEFF 		bl	write_reg
 3129              	.LVL491:
 3130 0198 0028     		cmp	r0, #0
 3131 019a 87D1     		bne	.L127
 3132              		.loc 1 780 0
 3133 019c E3B2     		uxtb	r3, r4
 3134 019e 1A46     		mov	r2, r3
 3135 01a0 0D21     		movs	r1, #13
ARM GAS  C:\Users\mathi\AppData\Local\Temp\ccuMtzkg.s 			page 56


 3136 01a2 6E20     		movs	r0, #110
 3137              	.LVL492:
 3138 01a4 0993     		str	r3, [sp, #36]
 3139 01a6 FFF7FEFF 		bl	write_reg
 3140              	.LVL493:
 3141 01aa 0028     		cmp	r0, #0
 3142 01ac 7FF47EAF 		bne	.L127
 3143              		.loc 1 783 0
 3144 01b0 C5F30723 		ubfx	r3, r5, #8, #8
 3145 01b4 1A46     		mov	r2, r3
 3146 01b6 0E21     		movs	r1, #14
 3147 01b8 6E20     		movs	r0, #110
 3148              	.LVL494:
 3149 01ba 0A93     		str	r3, [sp, #40]
 3150 01bc FFF7FEFF 		bl	write_reg
 3151              	.LVL495:
 3152 01c0 0028     		cmp	r0, #0
 3153 01c2 7FF473AF 		bne	.L127
 3154              		.loc 1 786 0
 3155 01c6 EBB2     		uxtb	r3, r5
 3156 01c8 1A46     		mov	r2, r3
 3157 01ca 0F21     		movs	r1, #15
 3158 01cc 6E20     		movs	r0, #110
 3159              	.LVL496:
 3160 01ce 0B93     		str	r3, [sp, #44]
 3161 01d0 FFF7FEFF 		bl	write_reg
 3162              	.LVL497:
 3163 01d4 0028     		cmp	r0, #0
 3164 01d6 7FF469AF 		bne	.L127
 3165              		.loc 1 790 0
 3166 01da 049A     		ldr	r2, [sp, #16]
 3167 01dc 3521     		movs	r1, #53
 3168 01de 6E20     		movs	r0, #110
 3169              	.LVL498:
 3170 01e0 FFF7FEFF 		bl	write_reg
 3171              	.LVL499:
 3172 01e4 0028     		cmp	r0, #0
 3173 01e6 7FF461AF 		bne	.L127
 3174              		.loc 1 793 0
 3175 01ea 059A     		ldr	r2, [sp, #20]
 3176 01ec 3621     		movs	r1, #54
 3177 01ee 6E20     		movs	r0, #110
 3178              	.LVL500:
 3179 01f0 FFF7FEFF 		bl	write_reg
 3180              	.LVL501:
 3181 01f4 0028     		cmp	r0, #0
 3182 01f6 7FF459AF 		bne	.L127
 3183              		.loc 1 796 0
 3184 01fa 089A     		ldr	r2, [sp, #32]
 3185 01fc 3721     		movs	r1, #55
 3186 01fe 6E20     		movs	r0, #110
 3187              	.LVL502:
 3188 0200 FFF7FEFF 		bl	write_reg
 3189              	.LVL503:
 3190 0204 0028     		cmp	r0, #0
 3191 0206 7FF451AF 		bne	.L127
 3192              		.loc 1 799 0
ARM GAS  C:\Users\mathi\AppData\Local\Temp\ccuMtzkg.s 			page 57


 3193 020a 099A     		ldr	r2, [sp, #36]
 3194 020c 3821     		movs	r1, #56
 3195 020e 6E20     		movs	r0, #110
 3196              	.LVL504:
 3197 0210 FFF7FEFF 		bl	write_reg
 3198              	.LVL505:
 3199 0214 0028     		cmp	r0, #0
 3200 0216 7FF449AF 		bne	.L127
 3201              		.loc 1 802 0
 3202 021a 069A     		ldr	r2, [sp, #24]
 3203 021c 3921     		movs	r1, #57
 3204 021e 6E20     		movs	r0, #110
 3205              	.LVL506:
 3206 0220 FFF7FEFF 		bl	write_reg
 3207              	.LVL507:
 3208 0224 0028     		cmp	r0, #0
 3209 0226 7FF441AF 		bne	.L127
 3210              		.loc 1 805 0
 3211 022a 079A     		ldr	r2, [sp, #28]
 3212 022c 3A21     		movs	r1, #58
 3213 022e 6E20     		movs	r0, #110
 3214              	.LVL508:
 3215 0230 FFF7FEFF 		bl	write_reg
 3216              	.LVL509:
 3217 0234 0028     		cmp	r0, #0
 3218 0236 7FF439AF 		bne	.L127
 3219              		.loc 1 808 0
 3220 023a 0A9A     		ldr	r2, [sp, #40]
 3221 023c 3B21     		movs	r1, #59
 3222 023e 6E20     		movs	r0, #110
 3223              	.LVL510:
 3224 0240 FFF7FEFF 		bl	write_reg
 3225              	.LVL511:
 3226 0244 0028     		cmp	r0, #0
 3227 0246 7FF431AF 		bne	.L127
 3228              		.loc 1 811 0
 3229 024a 0B9A     		ldr	r2, [sp, #44]
 3230 024c 3C21     		movs	r1, #60
 3231 024e 6E20     		movs	r0, #110
 3232              	.LVL512:
 3233 0250 FFF7FEFF 		bl	write_reg
 3234              	.LVL513:
 3235 0254 0028     		cmp	r0, #0
 3236 0256 7FF429AF 		bne	.L127
 3237              		.loc 1 815 0
 3238 025a 009B     		ldr	r3, [sp]
 3239 025c 3D21     		movs	r1, #61
 3240 025e C3F30722 		ubfx	r2, r3, #8, #8
 3241 0262 6E20     		movs	r0, #110
 3242              	.LVL514:
 3243 0264 FFF7FEFF 		bl	write_reg
 3244              	.LVL515:
 3245 0268 0028     		cmp	r0, #0
 3246 026a 7FF41FAF 		bne	.L127
 3247              		.loc 1 818 0
 3248 026e 9DF80020 		ldrb	r2, [sp]	@ zero_extendqisi2
 3249 0272 3E21     		movs	r1, #62
ARM GAS  C:\Users\mathi\AppData\Local\Temp\ccuMtzkg.s 			page 58


 3250 0274 6E20     		movs	r0, #110
 3251              	.LVL516:
 3252 0276 FFF7FEFF 		bl	write_reg
 3253              	.LVL517:
 3254 027a 0028     		cmp	r0, #0
 3255 027c 7FF416AF 		bne	.L127
 3256              		.loc 1 821 0
 3257 0280 019B     		ldr	r3, [sp, #4]
 3258 0282 3F21     		movs	r1, #63
 3259 0284 C3F30722 		ubfx	r2, r3, #8, #8
 3260 0288 6E20     		movs	r0, #110
 3261              	.LVL518:
 3262 028a FFF7FEFF 		bl	write_reg
 3263              	.LVL519:
 3264 028e 0028     		cmp	r0, #0
 3265 0290 7FF40CAF 		bne	.L127
 3266              		.loc 1 824 0
 3267 0294 9DF80420 		ldrb	r2, [sp, #4]	@ zero_extendqisi2
 3268 0298 4021     		movs	r1, #64
 3269 029a 6E20     		movs	r0, #110
 3270              	.LVL520:
 3271 029c FFF7FEFF 		bl	write_reg
 3272              	.LVL521:
 3273 02a0 0028     		cmp	r0, #0
 3274 02a2 7FF403AF 		bne	.L127
 3275              		.loc 1 827 0
 3276 02a6 029B     		ldr	r3, [sp, #8]
 3277 02a8 4121     		movs	r1, #65
 3278 02aa C3F30722 		ubfx	r2, r3, #8, #8
 3279 02ae 6E20     		movs	r0, #110
 3280              	.LVL522:
 3281 02b0 FFF7FEFF 		bl	write_reg
 3282              	.LVL523:
 3283 02b4 0028     		cmp	r0, #0
 3284 02b6 7FF4F9AE 		bne	.L127
 3285              		.loc 1 830 0
 3286 02ba 9DF80820 		ldrb	r2, [sp, #8]	@ zero_extendqisi2
 3287 02be 4221     		movs	r1, #66
 3288 02c0 6E20     		movs	r0, #110
 3289              	.LVL524:
 3290 02c2 FFF7FEFF 		bl	write_reg
 3291              	.LVL525:
 3292 02c6 0028     		cmp	r0, #0
 3293 02c8 7FF4F0AE 		bne	.L127
 3294              		.loc 1 833 0
 3295 02cc 039B     		ldr	r3, [sp, #12]
 3296 02ce 4321     		movs	r1, #67
 3297 02d0 C3F30722 		ubfx	r2, r3, #8, #8
 3298 02d4 6E20     		movs	r0, #110
 3299              	.LVL526:
 3300 02d6 FFF7FEFF 		bl	write_reg
 3301              	.LVL527:
 3302 02da 0028     		cmp	r0, #0
 3303 02dc 7FF4E6AE 		bne	.L127
 3304              		.loc 1 836 0
 3305 02e0 9DF80C20 		ldrb	r2, [sp, #12]	@ zero_extendqisi2
 3306 02e4 4421     		movs	r1, #68
ARM GAS  C:\Users\mathi\AppData\Local\Temp\ccuMtzkg.s 			page 59


 3307 02e6 6E20     		movs	r0, #110
 3308              	.LVL528:
 3309 02e8 FFF7FEFF 		bl	write_reg
 3310              	.LVL529:
 3311 02ec 0028     		cmp	r0, #0
 3312 02ee 7FF4DDAE 		bne	.L127
 3313              	.LVL530:
 3314              	.LBB262:
 3315              	.LBB263:
 3316              		.loc 1 119 0
 3317 02f2 0122     		movs	r2, #1
 3318 02f4 0321     		movs	r1, #3
 3319 02f6 6E20     		movs	r0, #110
 3320              	.LVL531:
 3321 02f8 FFF7FEFF 		bl	write_reg
 3322              	.LVL532:
 3323              	.LBE263:
 3324              	.LBE262:
 3325              		.loc 1 840 0
 3326 02fc 0028     		cmp	r0, #0
 3327 02fe 7FF4D5AE 		bne	.L127
 3328              		.loc 1 844 0
 3329 0302 4A46     		mov	r2, r9
 3330 0304 9321     		movs	r1, #147
 3331 0306 6E20     		movs	r0, #110
 3332 0308 FFF7FEFF 		bl	write_reg
 3333              	.LVL533:
 3334 030c 0028     		cmp	r0, #0
 3335 030e 7FF4CDAE 		bne	.L127
 3336              		.loc 1 847 0
 3337 0312 5A46     		mov	r2, fp
 3338 0314 9421     		movs	r1, #148
 3339 0316 6E20     		movs	r0, #110
 3340              	.LVL534:
 3341 0318 FFF7FEFF 		bl	write_reg
 3342              	.LVL535:
 3343 031c 0028     		cmp	r0, #0
 3344 031e 7FF4C5AE 		bne	.L127
 3345              	.LVL536:
 3346              	.LBB264:
 3347              	.LBB265:
 3348              		.loc 1 119 0
 3349 0322 0122     		movs	r2, #1
 3350 0324 0321     		movs	r1, #3
 3351 0326 6E20     		movs	r0, #110
 3352              	.LVL537:
 3353 0328 FFF7FEFF 		bl	write_reg
 3354              	.LVL538:
 3355              	.LBE265:
 3356              	.LBE264:
 3357              		.loc 1 852 0
 3358 032c 0028     		cmp	r0, #0
 3359 032e 7FF4BDAE 		bne	.L127
 3360 0332 0134     		adds	r4, r4, #1
 3361              	.LVL539:
 3362 0334 A31B     		subs	r3, r4, r6
 3363 0336 07EE103A 		vmov	s14, r3	@ int
ARM GAS  C:\Users\mathi\AppData\Local\Temp\ccuMtzkg.s 			page 60


 3364 033a DFED307A 		vldr.32	s15, .L162+4
 3365 033e B8EE477A 		vcvt.f32.u32	s14, s14
 3366              		.loc 1 856 0
 3367 0342 BAF1440F 		cmp	r10, #68
 3368 0346 77EEC77A 		vsub.f32	s15, s15, s14
 3369 034a 00F09980 		beq	.L161
 3370              	.LVL540:
 3371              		.loc 1 860 0
 3372 034e B0EE006A 		vmov.f32	s12, #2.0e+0
 3373 0352 F2EE006A 		vmov.f32	s13, #8.0e+0
 3374 0356 E7EE066A 		vfma.f32	s13, s14, s12
 3375 035a 77EEA77A 		vadd.f32	s15, s15, s15
 3376              	.LVL541:
 3377 035e B0EE667A 		vmov.f32	s14, s13
 3378              	.LVL542:
 3379 0362 67EE877A 		vmul.f32	s15, s15, s14
 3380 0366 DFED266A 		vldr.32	s13, .L162+8
 3381 036a 87EEA67A 		vdiv.f32	s14, s15, s13
 3382              	.LVL543:
 3383              		.loc 1 861 0
 3384 036e FCEEC77A 		vcvt.u32.f32	s15, s14
 3385 0372 CDED007A 		vstr.32	s15, [sp]	@ int
 3386              	.LVL544:
 3387              	.L137:
 3388              		.loc 1 864 0
 3389 0376 009B     		ldr	r3, [sp]
 3390 0378 9521     		movs	r1, #149
 3391 037a C3F30722 		ubfx	r2, r3, #8, #8
 3392 037e 6E20     		movs	r0, #110
 3393 0380 FFF7FEFF 		bl	write_reg
 3394              	.LVL545:
 3395 0384 0028     		cmp	r0, #0
 3396 0386 7FF491AE 		bne	.L127
 3397              		.loc 1 867 0
 3398 038a 9DF80020 		ldrb	r2, [sp]	@ zero_extendqisi2
 3399 038e 9621     		movs	r1, #150
 3400 0390 6E20     		movs	r0, #110
 3401              	.LVL546:
 3402 0392 FFF7FEFF 		bl	write_reg
 3403              	.LVL547:
 3404 0396 0028     		cmp	r0, #0
 3405 0398 7FF488AE 		bne	.L127
 3406              		.loc 1 871 0
 3407 039c 194B     		ldr	r3, .L162+12
 3408              		.loc 1 872 0
 3409 039e 0135     		adds	r5, r5, #1
 3410              	.LVL548:
 3411 03a0 EF1B     		subs	r7, r5, r7
 3412              	.LVL549:
 3413              		.loc 1 871 0
 3414 03a2 A41B     		subs	r4, r4, r6
 3415              	.LVL550:
 3416              		.loc 1 872 0
 3417 03a4 5F80     		strh	r7, [r3, #2]	@ movhi
 3418              		.loc 1 871 0
 3419 03a6 1C80     		strh	r4, [r3]	@ movhi
 3420              		.loc 1 873 0
ARM GAS  C:\Users\mathi\AppData\Local\Temp\ccuMtzkg.s 			page 61


 3421 03a8 83F804A0 		strb	r10, [r3, #4]
 3422              		.loc 1 874 0
 3423 03ac 83F80590 		strb	r9, [r3, #5]
 3424              		.loc 1 875 0
 3425 03b0 83F806B0 		strb	fp, [r3, #6]
 3426              		.loc 1 881 0
 3427 03b4 7AE6     		b	.L127
 3428              	.LVL551:
 3429              	.L156:
 3430              		.loc 1 690 0
 3431 03b6 1049     		ldr	r1, .L162
 3432              	.LVL552:
 3433              		.loc 1 691 0
 3434 03b8 5A00     		lsls	r2, r3, #1
 3435              	.LVL553:
 3436              		.loc 1 690 0
 3437 03ba A1FB0303 		umull	r0, r3, r1, r3
 3438              	.LVL554:
 3439 03be 06EB5303 		add	r3, r6, r3, lsr #1
 3440              		.loc 1 691 0
 3441 03c2 A1FB0212 		umull	r1, r2, r1, r2
 3442              		.loc 1 690 0
 3443 03c6 0093     		str	r3, [sp]
 3444              	.LVL555:
 3445              		.loc 1 691 0
 3446 03c8 06EB5203 		add	r3, r6, r2, lsr #1
 3447              	.LVL556:
 3448 03cc 0193     		str	r3, [sp, #4]
 3449              	.LVL557:
 3450              		.loc 1 692 0
 3451 03ce 59E6     		b	.L128
 3452              	.LVL558:
 3453              	.L129:
 3454              		.loc 1 696 0
 3455 03d0 D907     		lsls	r1, r3, #31
 3456              	.LVL559:
 3457 03d2 4DD4     		bmi	.L149
 3458              		.loc 1 701 0
 3459 03d4 084A     		ldr	r2, .L162
 3460              	.LVL560:
 3461              		.loc 1 699 0
 3462 03d6 7408     		lsrs	r4, r6, #1
 3463              	.LVL561:
 3464              		.loc 1 702 0
 3465 03d8 5900     		lsls	r1, r3, #1
 3466              		.loc 1 700 0
 3467 03da 661C     		adds	r6, r4, #1
 3468              	.LVL562:
 3469              		.loc 1 702 0
 3470 03dc A2FB0101 		umull	r0, r1, r2, r1
 3471              	.LVL563:
 3472              		.loc 1 701 0
 3473 03e0 A2FB0302 		umull	r0, r2, r2, r3
 3474              		.loc 1 700 0
 3475 03e4 04EB5304 		add	r4, r4, r3, lsr #1
 3476              	.LVL564:
 3477              		.loc 1 701 0
ARM GAS  C:\Users\mathi\AppData\Local\Temp\ccuMtzkg.s 			page 62


 3478 03e8 06EB9203 		add	r3, r6, r2, lsr #2
 3479              	.LVL565:
 3480 03ec 0093     		str	r3, [sp]
 3481              	.LVL566:
 3482              		.loc 1 702 0
 3483 03ee 06EB9103 		add	r3, r6, r1, lsr #2
 3484              	.LVL567:
 3485 03f2 0193     		str	r3, [sp, #4]
 3486              	.LVL568:
 3487              		.loc 1 704 0
 3488 03f4 46E6     		b	.L128
 3489              	.L163:
 3490 03f6 00BF     		.align	2
 3491              	.L162:
 3492 03f8 ABAAAAAA 		.word	-1431655765
 3493 03fc 00002244 		.word	1143078912
 3494 0400 0000A344 		.word	1151533056
 3495 0404 00000000 		.word	.LANCHOR0
 3496 0408 00000000 		.word	__stack_chk_guard
 3497              	.LVL569:
 3498              	.L157:
 3499              		.loc 1 721 0
 3500 040c 244A     		ldr	r2, .L164
 3501              		.loc 1 722 0
 3502 040e 4FEA4C03 		lsl	r3, ip, #1
 3503              		.loc 1 721 0
 3504 0412 A2FB0C1C 		umull	r1, ip, r2, ip
 3505              		.loc 1 722 0
 3506 0416 A2FB0323 		umull	r2, r3, r2, r3
 3507 041a 07EB5303 		add	r3, r7, r3, lsr #1
 3508              		.loc 1 721 0
 3509 041e 07EB5C02 		add	r2, r7, ip, lsr #1
 3510 0422 0292     		str	r2, [sp, #8]
 3511              	.LVL570:
 3512              		.loc 1 722 0
 3513 0424 0393     		str	r3, [sp, #12]
 3514              	.LVL571:
 3515              		.loc 1 723 0
 3516 0426 3BE6     		b	.L132
 3517              	.LVL572:
 3518              	.L134:
 3519              		.loc 1 739 0
 3520 0428 1CF0030F 		tst	ip, #3
 3521 042c 23D1     		bne	.L152
 3522              		.loc 1 744 0
 3523 042e 1C4B     		ldr	r3, .L164
 3524              		.loc 1 742 0
 3525 0430 BD08     		lsrs	r5, r7, #2
 3526              	.LVL573:
 3527              		.loc 1 745 0
 3528 0432 4FEA4C02 		lsl	r2, ip, #1
 3529              		.loc 1 743 0
 3530 0436 6F1C     		adds	r7, r5, #1
 3531              	.LVL574:
 3532              		.loc 1 745 0
 3533 0438 A3FB0212 		umull	r1, r2, r3, r2
 3534              		.loc 1 744 0
ARM GAS  C:\Users\mathi\AppData\Local\Temp\ccuMtzkg.s 			page 63


 3535 043c A3FB0C13 		umull	r1, r3, r3, ip
 3536 0440 07EBD303 		add	r3, r7, r3, lsr #3
 3537 0444 0293     		str	r3, [sp, #8]
 3538              		.loc 1 745 0
 3539 0446 07EBD203 		add	r3, r7, r2, lsr #3
 3540              		.loc 1 743 0
 3541 044a 05EB9C05 		add	r5, r5, ip, lsr #2
 3542              	.LVL575:
 3543              		.loc 1 745 0
 3544 044e 0393     		str	r3, [sp, #12]
 3545              	.LVL576:
 3546              		.loc 1 747 0
 3547 0450 26E6     		b	.L132
 3548              	.LVL577:
 3549              	.L140:
 3550              		.loc 1 669 0
 3551 0452 6FF00700 		mvn	r0, #7
 3552              	.LVL578:
 3553 0456 29E6     		b	.L127
 3554              	.LVL579:
 3555              	.L144:
 3556              		.loc 1 681 0
 3557 0458 6FF00300 		mvn	r0, #3
 3558              	.LVL580:
 3559 045c 26E6     		b	.L127
 3560              	.LVL581:
 3561              	.L146:
 3562              		.loc 1 685 0
 3563 045e 6FF00400 		mvn	r0, #4
 3564              	.LVL582:
 3565 0462 23E6     		b	.L127
 3566              	.LVL583:
 3567              	.L141:
 3568              		.loc 1 673 0
 3569 0464 6FF00100 		mvn	r0, #1
 3570              	.LVL584:
 3571 0468 20E6     		b	.L127
 3572              	.LVL585:
 3573              	.L142:
 3574              		.loc 1 677 0
 3575 046a 6FF00200 		mvn	r0, #2
 3576              	.LVL586:
 3577 046e 1DE6     		b	.L127
 3578              	.LVL587:
 3579              	.L149:
 3580              		.loc 1 697 0
 3581 0470 6FF00500 		mvn	r0, #5
 3582              	.LVL588:
 3583 0474 1AE6     		b	.L127
 3584              	.LVL589:
 3585              	.L152:
 3586              		.loc 1 728 0
 3587 0476 6FF00600 		mvn	r0, #6
 3588 047a 17E6     		b	.L127
 3589              	.LVL590:
 3590              	.L159:
 3591              		.loc 1 882 0
ARM GAS  C:\Users\mathi\AppData\Local\Temp\ccuMtzkg.s 			page 64


 3592 047c FFF7FEFF 		bl	__stack_chk_fail
 3593              	.LVL591:
 3594              	.L161:
 3595              		.loc 1 857 0
 3596 0480 F2EE006A 		vmov.f32	s13, #8.0e+0
 3597 0484 37EE267A 		vadd.f32	s14, s14, s13
 3598              	.LVL592:
 3599 0488 DFED066A 		vldr.32	s13, .L164+4
 3600 048c 67EE277A 		vmul.f32	s15, s14, s15
 3601              	.LVL593:
 3602 0490 87EEA67A 		vdiv.f32	s14, s15, s13
 3603              	.LVL594:
 3604              		.loc 1 858 0
 3605 0494 FCEEC77A 		vcvt.u32.f32	s15, s14
 3606 0498 CDED007A 		vstr.32	s15, [sp]	@ int
 3607              	.LVL595:
 3608 049c 6BE7     		b	.L137
 3609              	.L165:
 3610 049e 00BF     		.align	2
 3611              	.L164:
 3612 04a0 ABAAAAAA 		.word	-1431655765
 3613 04a4 00002444 		.word	1143209984
 3614              		.cfi_endproc
 3615              	.LFE267:
 3616              		.size	po8030_advanced_config, .-po8030_advanced_config
 3617              		.section	.text.po8030_set_brightness,"ax",%progbits
 3618              		.align	1
 3619              		.p2align 4,,15
 3620              		.global	po8030_set_brightness
 3621              		.syntax unified
 3622              		.thumb
 3623              		.thumb_func
 3624              		.fpu fpv4-sp-d16
 3625              		.type	po8030_set_brightness, %function
 3626              	po8030_set_brightness:
 3627              	.LFB268:
 3628              		.loc 1 887 0
 3629              		.cfi_startproc
 3630              		@ args = 0, pretend = 0, frame = 8
 3631              		@ frame_needed = 0, uses_anonymous_args = 0
 3632              	.LVL596:
 3633 0000 30B5     		push	{r4, r5, lr}
 3634              		.cfi_def_cfa_offset 12
 3635              		.cfi_offset 4, -12
 3636              		.cfi_offset 5, -8
 3637              		.cfi_offset 14, -4
 3638 0002 0E4C     		ldr	r4, .L173
 3639 0004 83B0     		sub	sp, sp, #12
 3640              		.cfi_def_cfa_offset 24
 3641              		.loc 1 887 0
 3642 0006 2368     		ldr	r3, [r4]
 3643 0008 0193     		str	r3, [sp, #4]
 3644              	.LVL597:
 3645              	.LBB266:
 3646              	.LBB267:
 3647              		.loc 1 119 0
 3648 000a 0122     		movs	r2, #1
ARM GAS  C:\Users\mathi\AppData\Local\Temp\ccuMtzkg.s 			page 65


 3649              	.LBE267:
 3650              	.LBE266:
 3651              		.loc 1 887 0
 3652 000c 0546     		mov	r5, r0
 3653              	.LBB269:
 3654              	.LBB268:
 3655              		.loc 1 119 0
 3656 000e 0321     		movs	r1, #3
 3657 0010 6E20     		movs	r0, #110
 3658              	.LVL598:
 3659 0012 FFF7FEFF 		bl	write_reg
 3660              	.LVL599:
 3661              	.LBE268:
 3662              	.LBE269:
 3663              		.loc 1 893 0
 3664 0016 019A     		ldr	r2, [sp, #4]
 3665 0018 2368     		ldr	r3, [r4]
 3666              		.loc 1 889 0
 3667 001a 18B1     		cbz	r0, .L172
 3668              		.loc 1 893 0
 3669 001c 9A42     		cmp	r2, r3
 3670 001e 0BD1     		bne	.L171
 3671 0020 03B0     		add	sp, sp, #12
 3672              		.cfi_remember_state
 3673              		.cfi_def_cfa_offset 12
 3674              		@ sp needed
 3675 0022 30BD     		pop	{r4, r5, pc}
 3676              	.L172:
 3677              		.cfi_restore_state
 3678              		.loc 1 892 0
 3679 0024 9A42     		cmp	r2, r3
 3680 0026 07D1     		bne	.L171
 3681 0028 2A46     		mov	r2, r5
 3682 002a 9E21     		movs	r1, #158
 3683 002c 6E20     		movs	r0, #110
 3684              		.loc 1 893 0
 3685 002e 03B0     		add	sp, sp, #12
 3686              		.cfi_remember_state
 3687              		.cfi_def_cfa_offset 12
 3688              		@ sp needed
 3689 0030 BDE83040 		pop	{r4, r5, lr}
 3690              		.cfi_restore 14
 3691              		.cfi_restore 5
 3692              		.cfi_restore 4
 3693              		.cfi_def_cfa_offset 0
 3694              		.loc 1 892 0
 3695 0034 FFF7FEBF 		b	write_reg
 3696              	.LVL600:
 3697              	.L171:
 3698              		.cfi_restore_state
 3699              		.loc 1 893 0
 3700 0038 FFF7FEFF 		bl	__stack_chk_fail
 3701              	.LVL601:
 3702              	.L174:
 3703              		.align	2
 3704              	.L173:
 3705 003c 00000000 		.word	__stack_chk_guard
ARM GAS  C:\Users\mathi\AppData\Local\Temp\ccuMtzkg.s 			page 66


 3706              		.cfi_endproc
 3707              	.LFE268:
 3708              		.size	po8030_set_brightness, .-po8030_set_brightness
 3709              		.section	.text.po8030_set_contrast,"ax",%progbits
 3710              		.align	1
 3711              		.p2align 4,,15
 3712              		.global	po8030_set_contrast
 3713              		.syntax unified
 3714              		.thumb
 3715              		.thumb_func
 3716              		.fpu fpv4-sp-d16
 3717              		.type	po8030_set_contrast, %function
 3718              	po8030_set_contrast:
 3719              	.LFB269:
 3720              		.loc 1 898 0
 3721              		.cfi_startproc
 3722              		@ args = 0, pretend = 0, frame = 8
 3723              		@ frame_needed = 0, uses_anonymous_args = 0
 3724              	.LVL602:
 3725 0000 30B5     		push	{r4, r5, lr}
 3726              		.cfi_def_cfa_offset 12
 3727              		.cfi_offset 4, -12
 3728              		.cfi_offset 5, -8
 3729              		.cfi_offset 14, -4
 3730 0002 0E4C     		ldr	r4, .L182
 3731 0004 83B0     		sub	sp, sp, #12
 3732              		.cfi_def_cfa_offset 24
 3733              		.loc 1 898 0
 3734 0006 2368     		ldr	r3, [r4]
 3735 0008 0193     		str	r3, [sp, #4]
 3736              	.LVL603:
 3737              	.LBB270:
 3738              	.LBB271:
 3739              		.loc 1 119 0
 3740 000a 0122     		movs	r2, #1
 3741              	.LBE271:
 3742              	.LBE270:
 3743              		.loc 1 898 0
 3744 000c 0546     		mov	r5, r0
 3745              	.LBB273:
 3746              	.LBB272:
 3747              		.loc 1 119 0
 3748 000e 0321     		movs	r1, #3
 3749 0010 6E20     		movs	r0, #110
 3750              	.LVL604:
 3751 0012 FFF7FEFF 		bl	write_reg
 3752              	.LVL605:
 3753              	.LBE272:
 3754              	.LBE273:
 3755              		.loc 1 904 0
 3756 0016 019A     		ldr	r2, [sp, #4]
 3757 0018 2368     		ldr	r3, [r4]
 3758              		.loc 1 900 0
 3759 001a 18B1     		cbz	r0, .L181
 3760              		.loc 1 904 0
 3761 001c 9A42     		cmp	r2, r3
 3762 001e 0BD1     		bne	.L180
ARM GAS  C:\Users\mathi\AppData\Local\Temp\ccuMtzkg.s 			page 67


 3763 0020 03B0     		add	sp, sp, #12
 3764              		.cfi_remember_state
 3765              		.cfi_def_cfa_offset 12
 3766              		@ sp needed
 3767 0022 30BD     		pop	{r4, r5, pc}
 3768              	.L181:
 3769              		.cfi_restore_state
 3770              		.loc 1 903 0
 3771 0024 9A42     		cmp	r2, r3
 3772 0026 07D1     		bne	.L180
 3773 0028 2A46     		mov	r2, r5
 3774 002a 9D21     		movs	r1, #157
 3775 002c 6E20     		movs	r0, #110
 3776              		.loc 1 904 0
 3777 002e 03B0     		add	sp, sp, #12
 3778              		.cfi_remember_state
 3779              		.cfi_def_cfa_offset 12
 3780              		@ sp needed
 3781 0030 BDE83040 		pop	{r4, r5, lr}
 3782              		.cfi_restore 14
 3783              		.cfi_restore 5
 3784              		.cfi_restore 4
 3785              		.cfi_def_cfa_offset 0
 3786              		.loc 1 903 0
 3787 0034 FFF7FEBF 		b	write_reg
 3788              	.LVL606:
 3789              	.L180:
 3790              		.cfi_restore_state
 3791              		.loc 1 904 0
 3792 0038 FFF7FEFF 		bl	__stack_chk_fail
 3793              	.LVL607:
 3794              	.L183:
 3795              		.align	2
 3796              	.L182:
 3797 003c 00000000 		.word	__stack_chk_guard
 3798              		.cfi_endproc
 3799              	.LFE269:
 3800              		.size	po8030_set_contrast, .-po8030_set_contrast
 3801              		.section	.text.po8030_set_mirror,"ax",%progbits
 3802              		.align	1
 3803              		.p2align 4,,15
 3804              		.global	po8030_set_mirror
 3805              		.syntax unified
 3806              		.thumb
 3807              		.thumb_func
 3808              		.fpu fpv4-sp-d16
 3809              		.type	po8030_set_mirror, %function
 3810              	po8030_set_mirror:
 3811              	.LFB270:
 3812              		.loc 1 910 0
 3813              		.cfi_startproc
 3814              		@ args = 0, pretend = 0, frame = 8
 3815              		@ frame_needed = 0, uses_anonymous_args = 0
 3816              	.LVL608:
 3817 0000 70B5     		push	{r4, r5, r6, lr}
 3818              		.cfi_def_cfa_offset 16
 3819              		.cfi_offset 4, -16
ARM GAS  C:\Users\mathi\AppData\Local\Temp\ccuMtzkg.s 			page 68


 3820              		.cfi_offset 5, -12
 3821              		.cfi_offset 6, -8
 3822              		.cfi_offset 14, -4
 3823 0002 144C     		ldr	r4, .L195
 3824 0004 82B0     		sub	sp, sp, #8
 3825              		.cfi_def_cfa_offset 24
 3826              		.loc 1 910 0
 3827 0006 0646     		mov	r6, r0
 3828 0008 0D46     		mov	r5, r1
 3829 000a 2368     		ldr	r3, [r4]
 3830 000c 0193     		str	r3, [sp, #4]
 3831              	.LVL609:
 3832              	.LBB274:
 3833              	.LBB275:
 3834              		.loc 1 119 0
 3835 000e 0022     		movs	r2, #0
 3836 0010 0321     		movs	r1, #3
 3837              	.LVL610:
 3838 0012 6E20     		movs	r0, #110
 3839              	.LVL611:
 3840 0014 FFF7FEFF 		bl	write_reg
 3841              	.LVL612:
 3842              	.LBE275:
 3843              	.LBE274:
 3844              		.loc 1 914 0
 3845 0018 98B9     		cbnz	r0, .L185
 3846              		.loc 1 918 0
 3847 001a 012E     		cmp	r6, #1
 3848              		.loc 1 925 0
 3849 001c 0199     		ldr	r1, [sp, #4]
 3850 001e 2368     		ldr	r3, [r4]
 3851              		.loc 1 918 0
 3852 0020 0BBF     		itete	eq
 3853 0022 C022     		moveq	r2, #192
 3854 0024 4022     		movne	r2, #64
 3855 0026 8020     		moveq	r0, #128
 3856 0028 0020     		movne	r0, #0
 3857              	.LVL613:
 3858              		.loc 1 921 0
 3859 002a 012D     		cmp	r5, #1
 3860 002c 18BF     		it	ne
 3861 002e 0246     		movne	r2, r0
 3862              	.LVL614:
 3863              		.loc 1 925 0
 3864 0030 9942     		cmp	r1, r3
 3865 0032 0CD1     		bne	.L194
 3866 0034 6C21     		movs	r1, #108
 3867 0036 6E20     		movs	r0, #110
 3868              		.loc 1 926 0
 3869 0038 02B0     		add	sp, sp, #8
 3870              		.cfi_remember_state
 3871              		.cfi_def_cfa_offset 16
 3872              		@ sp needed
 3873 003a BDE87040 		pop	{r4, r5, r6, lr}
 3874              		.cfi_restore 14
 3875              		.cfi_restore 6
 3876              		.cfi_restore 5
ARM GAS  C:\Users\mathi\AppData\Local\Temp\ccuMtzkg.s 			page 69


 3877              		.cfi_restore 4
 3878              		.cfi_def_cfa_offset 0
 3879              		.loc 1 925 0
 3880 003e FFF7FEBF 		b	write_reg
 3881              	.LVL615:
 3882              	.L185:
 3883              		.cfi_restore_state
 3884              		.loc 1 926 0
 3885 0042 019A     		ldr	r2, [sp, #4]
 3886 0044 2368     		ldr	r3, [r4]
 3887 0046 9A42     		cmp	r2, r3
 3888 0048 01D1     		bne	.L194
 3889 004a 02B0     		add	sp, sp, #8
 3890              		.cfi_remember_state
 3891              		.cfi_def_cfa_offset 16
 3892              		@ sp needed
 3893 004c 70BD     		pop	{r4, r5, r6, pc}
 3894              	.LVL616:
 3895              	.L194:
 3896              		.cfi_restore_state
 3897 004e FFF7FEFF 		bl	__stack_chk_fail
 3898              	.LVL617:
 3899              	.L196:
 3900 0052 00BF     		.align	2
 3901              	.L195:
 3902 0054 00000000 		.word	__stack_chk_guard
 3903              		.cfi_endproc
 3904              	.LFE270:
 3905              		.size	po8030_set_mirror, .-po8030_set_mirror
 3906              		.section	.text.po8030_set_awb,"ax",%progbits
 3907              		.align	1
 3908              		.p2align 4,,15
 3909              		.global	po8030_set_awb
 3910              		.syntax unified
 3911              		.thumb
 3912              		.thumb_func
 3913              		.fpu fpv4-sp-d16
 3914              		.type	po8030_set_awb, %function
 3915              	po8030_set_awb:
 3916              	.LFB271:
 3917              		.loc 1 931 0
 3918              		.cfi_startproc
 3919              		@ args = 0, pretend = 0, frame = 8
 3920              		@ frame_needed = 0, uses_anonymous_args = 0
 3921              	.LVL618:
 3922 0000 30B5     		push	{r4, r5, lr}
 3923              		.cfi_def_cfa_offset 12
 3924              		.cfi_offset 4, -12
 3925              		.cfi_offset 5, -8
 3926              		.cfi_offset 14, -4
 3927 0002 174C     		ldr	r4, .L205
 3928 0004 83B0     		sub	sp, sp, #12
 3929              		.cfi_def_cfa_offset 24
 3930              		.loc 1 931 0
 3931 0006 2368     		ldr	r3, [r4]
 3932 0008 0193     		str	r3, [sp, #4]
 3933              	.LVL619:
ARM GAS  C:\Users\mathi\AppData\Local\Temp\ccuMtzkg.s 			page 70


 3934 000a 0546     		mov	r5, r0
 3935              		.loc 1 933 0
 3936 000c 0023     		movs	r3, #0
 3937              	.LBB278:
 3938              	.LBB279:
 3939              		.loc 1 119 0
 3940 000e 0222     		movs	r2, #2
 3941 0010 0321     		movs	r1, #3
 3942 0012 6E20     		movs	r0, #110
 3943              	.LVL620:
 3944              	.LBE279:
 3945              	.LBE278:
 3946              		.loc 1 933 0
 3947 0014 8DF80330 		strb	r3, [sp, #3]
 3948              	.LVL621:
 3949              	.LBB281:
 3950              	.LBB280:
 3951              		.loc 1 119 0
 3952 0018 FFF7FEFF 		bl	write_reg
 3953              	.LVL622:
 3954              	.LBE280:
 3955              	.LBE281:
 3956              		.loc 1 935 0
 3957 001c 28B1     		cbz	r0, .L203
 3958              	.L198:
 3959              		.loc 1 950 0
 3960 001e 019A     		ldr	r2, [sp, #4]
 3961 0020 2368     		ldr	r3, [r4]
 3962 0022 9A42     		cmp	r2, r3
 3963 0024 19D1     		bne	.L204
 3964 0026 03B0     		add	sp, sp, #12
 3965              		.cfi_remember_state
 3966              		.cfi_def_cfa_offset 12
 3967              		@ sp needed
 3968 0028 30BD     		pop	{r4, r5, pc}
 3969              	.L203:
 3970              		.cfi_restore_state
 3971              		.loc 1 939 0
 3972 002a 0DF10302 		add	r2, sp, #3
 3973 002e 0421     		movs	r1, #4
 3974 0030 6E20     		movs	r0, #110
 3975 0032 FFF7FEFF 		bl	read_reg
 3976              	.LVL623:
 3977 0036 0028     		cmp	r0, #0
 3978 0038 F1D1     		bne	.L198
 3979 003a 9DF80330 		ldrb	r3, [sp, #3]	@ zero_extendqisi2
 3980              		.loc 1 943 0
 3981 003e 012D     		cmp	r5, #1
 3982              		.loc 1 944 0
 3983 0040 0CBF     		ite	eq
 3984 0042 03F0FB03 		andeq	r3, r3, #251
 3985              		.loc 1 946 0
 3986 0046 43F00403 		orrne	r3, r3, #4
 3987              		.loc 1 949 0
 3988 004a 1A46     		mov	r2, r3
 3989 004c 0421     		movs	r1, #4
 3990 004e 6E20     		movs	r0, #110
ARM GAS  C:\Users\mathi\AppData\Local\Temp\ccuMtzkg.s 			page 71


 3991              	.LVL624:
 3992 0050 8DF80330 		strb	r3, [sp, #3]
 3993 0054 FFF7FEFF 		bl	write_reg
 3994              	.LVL625:
 3995 0058 E1E7     		b	.L198
 3996              	.L204:
 3997              		.loc 1 950 0
 3998 005a FFF7FEFF 		bl	__stack_chk_fail
 3999              	.LVL626:
 4000              	.L206:
 4001 005e 00BF     		.align	2
 4002              	.L205:
 4003 0060 00000000 		.word	__stack_chk_guard
 4004              		.cfi_endproc
 4005              	.LFE271:
 4006              		.size	po8030_set_awb, .-po8030_set_awb
 4007              		.section	.text.po8030_set_rgb_gain,"ax",%progbits
 4008              		.align	1
 4009              		.p2align 4,,15
 4010              		.global	po8030_set_rgb_gain
 4011              		.syntax unified
 4012              		.thumb
 4013              		.thumb_func
 4014              		.fpu fpv4-sp-d16
 4015              		.type	po8030_set_rgb_gain, %function
 4016              	po8030_set_rgb_gain:
 4017              	.LFB272:
 4018              		.loc 1 958 0
 4019              		.cfi_startproc
 4020              		@ args = 0, pretend = 0, frame = 8
 4021              		@ frame_needed = 0, uses_anonymous_args = 0
 4022              	.LVL627:
 4023 0000 F0B5     		push	{r4, r5, r6, r7, lr}
 4024              		.cfi_def_cfa_offset 20
 4025              		.cfi_offset 4, -20
 4026              		.cfi_offset 5, -16
 4027              		.cfi_offset 6, -12
 4028              		.cfi_offset 7, -8
 4029              		.cfi_offset 14, -4
 4030 0002 244C     		ldr	r4, .L214
 4031 0004 83B0     		sub	sp, sp, #12
 4032              		.cfi_def_cfa_offset 32
 4033              		.loc 1 958 0
 4034 0006 2368     		ldr	r3, [r4]
 4035 0008 0193     		str	r3, [sp, #4]
 4036              	.LVL628:
 4037 000a 0546     		mov	r5, r0
 4038 000c 0E46     		mov	r6, r1
 4039 000e 1746     		mov	r7, r2
 4040              	.LBB288:
 4041              	.LBB289:
 4042              		.loc 1 933 0
 4043 0010 0023     		movs	r3, #0
 4044              	.LBB290:
 4045              	.LBB291:
 4046              		.loc 1 119 0
 4047 0012 0222     		movs	r2, #2
ARM GAS  C:\Users\mathi\AppData\Local\Temp\ccuMtzkg.s 			page 72


 4048              	.LVL629:
 4049 0014 0321     		movs	r1, #3
 4050              	.LVL630:
 4051 0016 6E20     		movs	r0, #110
 4052              	.LVL631:
 4053              	.LBE291:
 4054              	.LBE290:
 4055              		.loc 1 933 0
 4056 0018 8DF80330 		strb	r3, [sp, #3]
 4057              	.LVL632:
 4058              	.LBB293:
 4059              	.LBB292:
 4060              		.loc 1 119 0
 4061 001c FFF7FEFF 		bl	write_reg
 4062              	.LVL633:
 4063              	.LBE292:
 4064              	.LBE293:
 4065              		.loc 1 935 0
 4066 0020 28B1     		cbz	r0, .L212
 4067              	.LVL634:
 4068              	.L209:
 4069              	.LBE289:
 4070              	.LBE288:
 4071              		.loc 1 980 0
 4072 0022 019A     		ldr	r2, [sp, #4]
 4073 0024 2368     		ldr	r3, [r4]
 4074 0026 9A42     		cmp	r2, r3
 4075 0028 31D1     		bne	.L213
 4076 002a 03B0     		add	sp, sp, #12
 4077              		.cfi_remember_state
 4078              		.cfi_def_cfa_offset 20
 4079              		@ sp needed
 4080 002c F0BD     		pop	{r4, r5, r6, r7, pc}
 4081              	.LVL635:
 4082              	.L212:
 4083              		.cfi_restore_state
 4084              	.LBB295:
 4085              	.LBB294:
 4086              		.loc 1 939 0
 4087 002e 0DF10302 		add	r2, sp, #3
 4088 0032 0421     		movs	r1, #4
 4089 0034 6E20     		movs	r0, #110
 4090 0036 FFF7FEFF 		bl	read_reg
 4091              	.LVL636:
 4092 003a 0028     		cmp	r0, #0
 4093 003c F1D1     		bne	.L209
 4094              		.loc 1 946 0
 4095 003e 9DF80330 		ldrb	r3, [sp, #3]	@ zero_extendqisi2
 4096 0042 43F00403 		orr	r3, r3, #4
 4097              		.loc 1 949 0
 4098 0046 1A46     		mov	r2, r3
 4099 0048 0421     		movs	r1, #4
 4100 004a 6E20     		movs	r0, #110
 4101              	.LVL637:
 4102              		.loc 1 946 0
 4103 004c 8DF80330 		strb	r3, [sp, #3]
 4104              		.loc 1 949 0
ARM GAS  C:\Users\mathi\AppData\Local\Temp\ccuMtzkg.s 			page 73


 4105 0050 FFF7FEFF 		bl	write_reg
 4106              	.LVL638:
 4107              	.LBE294:
 4108              	.LBE295:
 4109              		.loc 1 961 0
 4110 0054 0028     		cmp	r0, #0
 4111 0056 E4D1     		bne	.L209
 4112              	.LVL639:
 4113              	.LBB296:
 4114              	.LBB297:
 4115              		.loc 1 119 0
 4116 0058 0246     		mov	r2, r0
 4117 005a 0321     		movs	r1, #3
 4118 005c 6E20     		movs	r0, #110
 4119 005e FFF7FEFF 		bl	write_reg
 4120              	.LVL640:
 4121              	.LBE297:
 4122              	.LBE296:
 4123              		.loc 1 965 0
 4124 0062 0028     		cmp	r0, #0
 4125 0064 DDD1     		bne	.L209
 4126              		.loc 1 969 0
 4127 0066 2A46     		mov	r2, r5
 4128 0068 2321     		movs	r1, #35
 4129 006a 6E20     		movs	r0, #110
 4130 006c FFF7FEFF 		bl	write_reg
 4131              	.LVL641:
 4132 0070 0028     		cmp	r0, #0
 4133 0072 D6D1     		bne	.L209
 4134              		.loc 1 972 0
 4135 0074 3246     		mov	r2, r6
 4136 0076 2421     		movs	r1, #36
 4137 0078 6E20     		movs	r0, #110
 4138              	.LVL642:
 4139 007a FFF7FEFF 		bl	write_reg
 4140              	.LVL643:
 4141 007e 0028     		cmp	r0, #0
 4142 0080 CFD1     		bne	.L209
 4143              		.loc 1 975 0
 4144 0082 3A46     		mov	r2, r7
 4145 0084 2521     		movs	r1, #37
 4146 0086 6E20     		movs	r0, #110
 4147              	.LVL644:
 4148 0088 FFF7FEFF 		bl	write_reg
 4149              	.LVL645:
 4150 008c C9E7     		b	.L209
 4151              	.LVL646:
 4152              	.L213:
 4153              		.loc 1 980 0
 4154 008e FFF7FEFF 		bl	__stack_chk_fail
 4155              	.LVL647:
 4156              	.L215:
 4157 0092 00BF     		.align	2
 4158              	.L214:
 4159 0094 00000000 		.word	__stack_chk_guard
 4160              		.cfi_endproc
 4161              	.LFE272:
ARM GAS  C:\Users\mathi\AppData\Local\Temp\ccuMtzkg.s 			page 74


 4162              		.size	po8030_set_rgb_gain, .-po8030_set_rgb_gain
 4163              		.section	.text.po8030_set_ae,"ax",%progbits
 4164              		.align	1
 4165              		.p2align 4,,15
 4166              		.global	po8030_set_ae
 4167              		.syntax unified
 4168              		.thumb
 4169              		.thumb_func
 4170              		.fpu fpv4-sp-d16
 4171              		.type	po8030_set_ae, %function
 4172              	po8030_set_ae:
 4173              	.LFB273:
 4174              		.loc 1 985 0
 4175              		.cfi_startproc
 4176              		@ args = 0, pretend = 0, frame = 8
 4177              		@ frame_needed = 0, uses_anonymous_args = 0
 4178              	.LVL648:
 4179 0000 30B5     		push	{r4, r5, lr}
 4180              		.cfi_def_cfa_offset 12
 4181              		.cfi_offset 4, -12
 4182              		.cfi_offset 5, -8
 4183              		.cfi_offset 14, -4
 4184 0002 174C     		ldr	r4, .L224
 4185 0004 83B0     		sub	sp, sp, #12
 4186              		.cfi_def_cfa_offset 24
 4187              		.loc 1 985 0
 4188 0006 2368     		ldr	r3, [r4]
 4189 0008 0193     		str	r3, [sp, #4]
 4190              	.LVL649:
 4191 000a 0546     		mov	r5, r0
 4192              		.loc 1 987 0
 4193 000c 0023     		movs	r3, #0
 4194              	.LBB300:
 4195              	.LBB301:
 4196              		.loc 1 119 0
 4197 000e 0222     		movs	r2, #2
 4198 0010 0321     		movs	r1, #3
 4199 0012 6E20     		movs	r0, #110
 4200              	.LVL650:
 4201              	.LBE301:
 4202              	.LBE300:
 4203              		.loc 1 987 0
 4204 0014 8DF80330 		strb	r3, [sp, #3]
 4205              	.LVL651:
 4206              	.LBB303:
 4207              	.LBB302:
 4208              		.loc 1 119 0
 4209 0018 FFF7FEFF 		bl	write_reg
 4210              	.LVL652:
 4211              	.LBE302:
 4212              	.LBE303:
 4213              		.loc 1 989 0
 4214 001c 28B1     		cbz	r0, .L222
 4215              	.L217:
 4216              		.loc 1 1004 0
 4217 001e 019A     		ldr	r2, [sp, #4]
 4218 0020 2368     		ldr	r3, [r4]
ARM GAS  C:\Users\mathi\AppData\Local\Temp\ccuMtzkg.s 			page 75


 4219 0022 9A42     		cmp	r2, r3
 4220 0024 19D1     		bne	.L223
 4221 0026 03B0     		add	sp, sp, #12
 4222              		.cfi_remember_state
 4223              		.cfi_def_cfa_offset 12
 4224              		@ sp needed
 4225 0028 30BD     		pop	{r4, r5, pc}
 4226              	.L222:
 4227              		.cfi_restore_state
 4228              		.loc 1 993 0
 4229 002a 0DF10302 		add	r2, sp, #3
 4230 002e 0421     		movs	r1, #4
 4231 0030 6E20     		movs	r0, #110
 4232 0032 FFF7FEFF 		bl	read_reg
 4233              	.LVL653:
 4234 0036 0028     		cmp	r0, #0
 4235 0038 F1D1     		bne	.L217
 4236 003a 9DF80330 		ldrb	r3, [sp, #3]	@ zero_extendqisi2
 4237              		.loc 1 997 0
 4238 003e 012D     		cmp	r5, #1
 4239              		.loc 1 998 0
 4240 0040 0CBF     		ite	eq
 4241 0042 03F0FC03 		andeq	r3, r3, #252
 4242              		.loc 1 1000 0
 4243 0046 43F00303 		orrne	r3, r3, #3
 4244              		.loc 1 1003 0
 4245 004a 1A46     		mov	r2, r3
 4246 004c 0421     		movs	r1, #4
 4247 004e 6E20     		movs	r0, #110
 4248              	.LVL654:
 4249 0050 8DF80330 		strb	r3, [sp, #3]
 4250 0054 FFF7FEFF 		bl	write_reg
 4251              	.LVL655:
 4252 0058 E1E7     		b	.L217
 4253              	.L223:
 4254              		.loc 1 1004 0
 4255 005a FFF7FEFF 		bl	__stack_chk_fail
 4256              	.LVL656:
 4257              	.L225:
 4258 005e 00BF     		.align	2
 4259              	.L224:
 4260 0060 00000000 		.word	__stack_chk_guard
 4261              		.cfi_endproc
 4262              	.LFE273:
 4263              		.size	po8030_set_ae, .-po8030_set_ae
 4264              		.section	.text.po8030_set_exposure,"ax",%progbits
 4265              		.align	1
 4266              		.p2align 4,,15
 4267              		.global	po8030_set_exposure
 4268              		.syntax unified
 4269              		.thumb
 4270              		.thumb_func
 4271              		.fpu fpv4-sp-d16
 4272              		.type	po8030_set_exposure, %function
 4273              	po8030_set_exposure:
 4274              	.LFB274:
 4275              		.loc 1 1011 0
ARM GAS  C:\Users\mathi\AppData\Local\Temp\ccuMtzkg.s 			page 76


 4276              		.cfi_startproc
 4277              		@ args = 0, pretend = 0, frame = 8
 4278              		@ frame_needed = 0, uses_anonymous_args = 0
 4279              	.LVL657:
 4280 0000 70B5     		push	{r4, r5, r6, lr}
 4281              		.cfi_def_cfa_offset 16
 4282              		.cfi_offset 4, -16
 4283              		.cfi_offset 5, -12
 4284              		.cfi_offset 6, -8
 4285              		.cfi_offset 14, -4
 4286 0002 234C     		ldr	r4, .L233
 4287 0004 82B0     		sub	sp, sp, #8
 4288              		.cfi_def_cfa_offset 24
 4289              		.loc 1 1011 0
 4290 0006 2368     		ldr	r3, [r4]
 4291 0008 0193     		str	r3, [sp, #4]
 4292              	.LVL658:
 4293 000a 0546     		mov	r5, r0
 4294 000c 0E46     		mov	r6, r1
 4295              	.LBB310:
 4296              	.LBB311:
 4297              		.loc 1 987 0
 4298 000e 0023     		movs	r3, #0
 4299              	.LBB312:
 4300              	.LBB313:
 4301              		.loc 1 119 0
 4302 0010 0222     		movs	r2, #2
 4303 0012 0321     		movs	r1, #3
 4304              	.LVL659:
 4305 0014 6E20     		movs	r0, #110
 4306              	.LVL660:
 4307              	.LBE313:
 4308              	.LBE312:
 4309              		.loc 1 987 0
 4310 0016 8DF80330 		strb	r3, [sp, #3]
 4311              	.LVL661:
 4312              	.LBB315:
 4313              	.LBB314:
 4314              		.loc 1 119 0
 4315 001a FFF7FEFF 		bl	write_reg
 4316              	.LVL662:
 4317              	.LBE314:
 4318              	.LBE315:
 4319              		.loc 1 989 0
 4320 001e 28B1     		cbz	r0, .L231
 4321              	.LVL663:
 4322              	.L228:
 4323              	.LBE311:
 4324              	.LBE310:
 4325              		.loc 1 1033 0
 4326 0020 019A     		ldr	r2, [sp, #4]
 4327 0022 2368     		ldr	r3, [r4]
 4328 0024 9A42     		cmp	r2, r3
 4329 0026 31D1     		bne	.L232
 4330 0028 02B0     		add	sp, sp, #8
 4331              		.cfi_remember_state
 4332              		.cfi_def_cfa_offset 16
ARM GAS  C:\Users\mathi\AppData\Local\Temp\ccuMtzkg.s 			page 77


 4333              		@ sp needed
 4334 002a 70BD     		pop	{r4, r5, r6, pc}
 4335              	.LVL664:
 4336              	.L231:
 4337              		.cfi_restore_state
 4338              	.LBB317:
 4339              	.LBB316:
 4340              		.loc 1 993 0
 4341 002c 0DF10302 		add	r2, sp, #3
 4342 0030 0421     		movs	r1, #4
 4343 0032 6E20     		movs	r0, #110
 4344 0034 FFF7FEFF 		bl	read_reg
 4345              	.LVL665:
 4346 0038 0028     		cmp	r0, #0
 4347 003a F1D1     		bne	.L228
 4348              		.loc 1 1000 0
 4349 003c 9DF80330 		ldrb	r3, [sp, #3]	@ zero_extendqisi2
 4350 0040 43F00303 		orr	r3, r3, #3
 4351              		.loc 1 1003 0
 4352 0044 1A46     		mov	r2, r3
 4353 0046 0421     		movs	r1, #4
 4354 0048 6E20     		movs	r0, #110
 4355              	.LVL666:
 4356              		.loc 1 1000 0
 4357 004a 8DF80330 		strb	r3, [sp, #3]
 4358              		.loc 1 1003 0
 4359 004e FFF7FEFF 		bl	write_reg
 4360              	.LVL667:
 4361              	.LBE316:
 4362              	.LBE317:
 4363              		.loc 1 1014 0
 4364 0052 0028     		cmp	r0, #0
 4365 0054 E4D1     		bne	.L228
 4366              	.LVL668:
 4367              	.LBB318:
 4368              	.LBB319:
 4369              		.loc 1 119 0
 4370 0056 0246     		mov	r2, r0
 4371 0058 0321     		movs	r1, #3
 4372 005a 6E20     		movs	r0, #110
 4373 005c FFF7FEFF 		bl	write_reg
 4374              	.LVL669:
 4375              	.LBE319:
 4376              	.LBE318:
 4377              		.loc 1 1018 0
 4378 0060 0028     		cmp	r0, #0
 4379 0062 DDD1     		bne	.L228
 4380              		.loc 1 1022 0
 4381 0064 2A0A     		lsrs	r2, r5, #8
 4382 0066 1721     		movs	r1, #23
 4383 0068 6E20     		movs	r0, #110
 4384 006a FFF7FEFF 		bl	write_reg
 4385              	.LVL670:
 4386 006e 0028     		cmp	r0, #0
 4387 0070 D6D1     		bne	.L228
 4388              		.loc 1 1025 0
 4389 0072 EAB2     		uxtb	r2, r5
ARM GAS  C:\Users\mathi\AppData\Local\Temp\ccuMtzkg.s 			page 78


 4390 0074 1821     		movs	r1, #24
 4391 0076 6E20     		movs	r0, #110
 4392              	.LVL671:
 4393 0078 FFF7FEFF 		bl	write_reg
 4394              	.LVL672:
 4395 007c 0028     		cmp	r0, #0
 4396 007e CFD1     		bne	.L228
 4397              		.loc 1 1028 0
 4398 0080 3246     		mov	r2, r6
 4399 0082 1921     		movs	r1, #25
 4400 0084 6E20     		movs	r0, #110
 4401              	.LVL673:
 4402 0086 FFF7FEFF 		bl	write_reg
 4403              	.LVL674:
 4404 008a C9E7     		b	.L228
 4405              	.LVL675:
 4406              	.L232:
 4407              		.loc 1 1033 0
 4408 008c FFF7FEFF 		bl	__stack_chk_fail
 4409              	.LVL676:
 4410              	.L234:
 4411              		.align	2
 4412              	.L233:
 4413 0090 00000000 		.word	__stack_chk_guard
 4414              		.cfi_endproc
 4415              	.LFE274:
 4416              		.size	po8030_set_exposure, .-po8030_set_exposure
 4417              		.section	.text.po8030_get_image_size,"ax",%progbits
 4418              		.align	1
 4419              		.p2align 4,,15
 4420              		.global	po8030_get_image_size
 4421              		.syntax unified
 4422              		.thumb
 4423              		.thumb_func
 4424              		.fpu fpv4-sp-d16
 4425              		.type	po8030_get_image_size, %function
 4426              	po8030_get_image_size:
 4427              	.LFB275:
 4428              		.loc 1 1037 0
 4429              		.cfi_startproc
 4430              		@ args = 0, pretend = 0, frame = 8
 4431              		@ frame_needed = 0, uses_anonymous_args = 0
 4432 0000 10B5     		push	{r4, lr}
 4433              		.cfi_def_cfa_offset 8
 4434              		.cfi_offset 4, -8
 4435              		.cfi_offset 14, -4
 4436 0002 0A4B     		ldr	r3, .L243
 4437 0004 0A4A     		ldr	r2, .L243+4
 4438 0006 1988     		ldrh	r1, [r3]
 4439 0008 1468     		ldr	r4, [r2]
 4440 000a 5888     		ldrh	r0, [r3, #2]
 4441              		.loc 1 1038 0
 4442 000c 1B79     		ldrb	r3, [r3, #4]	@ zero_extendqisi2
 4443              		.loc 1 1037 0
 4444 000e 82B0     		sub	sp, sp, #8
 4445              		.cfi_def_cfa_offset 16
 4446              		.loc 1 1038 0
ARM GAS  C:\Users\mathi\AppData\Local\Temp\ccuMtzkg.s 			page 79


 4447 0010 442B     		cmp	r3, #68
 4448              		.loc 1 1037 0
 4449 0012 0194     		str	r4, [sp, #4]
 4450 0014 00FB01F0 		mul	r0, r0, r1
 4451              		.loc 1 1043 0
 4452 0018 0199     		ldr	r1, [sp, #4]
 4453 001a 1368     		ldr	r3, [r2]
 4454              		.loc 1 1041 0
 4455 001c 18BF     		it	ne
 4456 001e 4000     		lslne	r0, r0, #1
 4457              		.loc 1 1043 0
 4458 0020 9942     		cmp	r1, r3
 4459 0022 01D1     		bne	.L242
 4460 0024 02B0     		add	sp, sp, #8
 4461              		.cfi_remember_state
 4462              		.cfi_def_cfa_offset 8
 4463              		@ sp needed
 4464 0026 10BD     		pop	{r4, pc}
 4465              	.L242:
 4466              		.cfi_restore_state
 4467 0028 FFF7FEFF 		bl	__stack_chk_fail
 4468              	.LVL677:
 4469              	.L244:
 4470              		.align	2
 4471              	.L243:
 4472 002c 00000000 		.word	.LANCHOR0
 4473 0030 00000000 		.word	__stack_chk_guard
 4474              		.cfi_endproc
 4475              	.LFE275:
 4476              		.size	po8030_get_image_size, .-po8030_get_image_size
 4477              		.section	.bss.po8030_conf,"aw",%nobits
 4478              		.align	2
 4479              		.set	.LANCHOR0,. + 0
 4480              		.type	po8030_conf, %object
 4481              		.size	po8030_conf, 8
 4482              	po8030_conf:
 4483 0000 00000000 		.space	8
 4483      00000000 
 4484              		.section	.rodata.pwmcfg_cam.9993,"a",%progbits
 4485              		.align	2
 4486              		.set	.LANCHOR1,. + 0
 4487              		.type	pwmcfg_cam.9993, %object
 4488              		.size	pwmcfg_cam.9993, 52
 4489              	pwmcfg_cam.9993:
 4490 0000 80DE8002 		.word	42000000
 4491 0004 02000000 		.word	2
 4492 0008 00000000 		.word	0
 4493 000c 01000000 		.word	1
 4494 0010 00000000 		.word	0
 4495 0014 00000000 		.word	0
 4496 0018 00000000 		.word	0
 4497 001c 00000000 		.word	0
 4498 0020 00000000 		.word	0
 4499 0024 00000000 		.word	0
 4500 0028 00000000 		.word	0
 4501 002c 00000000 		.word	0
 4502 0030 00000000 		.space	4
ARM GAS  C:\Users\mathi\AppData\Local\Temp\ccuMtzkg.s 			page 80


 4503              		.text
 4504              	.Letext0:
 4505              		.file 2 "c:\\eclipse_e-puck2\\tools\\gcc-arm-none-eabi-7-2017-q4-major-win32\\lib\\gcc\\arm-none-e
 4506              		.file 3 "c:\\eclipse_e-puck2\\tools\\gcc-arm-none-eabi-7-2017-q4-major-win32\\arm-none-eabi\\inclu
 4507              		.file 4 "c:\\eclipse_e-puck2\\tools\\gcc-arm-none-eabi-7-2017-q4-major-win32\\arm-none-eabi\\inclu
 4508              		.file 5 "../../lib/e-puck2_main-processor/ChibiOS//os/rt/ports/ARMCMx/compilers/GCC/chtypes.h"
 4509              		.file 6 "../../lib/e-puck2_main-processor/ChibiOS//os/rt/include/chsystypes.h"
 4510              		.file 7 "../../lib/e-puck2_main-processor/ChibiOS//os/rt/include/chschd.h"
 4511              		.file 8 "../../lib/e-puck2_main-processor/ChibiOS//os/ext/CMSIS/include/core_cm4.h"
 4512              		.file 9 "../../lib/e-puck2_main-processor/ChibiOS//os/ext/CMSIS/ST/system_stm32f4xx.h"
 4513              		.file 10 "../../lib/e-puck2_main-processor/ChibiOS//os/ext/CMSIS/ST/stm32f407xx.h"
 4514              		.file 11 "../../lib/e-puck2_main-processor/ChibiOS//os/rt/ports/ARMCMx/chcore.h"
 4515              		.file 12 "../../lib/e-puck2_main-processor/ChibiOS//os/rt/ports/ARMCMx/chcore_v7m.h"
 4516              		.file 13 "../../lib/e-puck2_main-processor/ChibiOS//os/rt/include/chdebug.h"
 4517              		.file 14 "../../lib/e-puck2_main-processor/ChibiOS//os/rt/include/chtm.h"
 4518              		.file 15 "../../lib/e-puck2_main-processor/ChibiOS//os/rt/include/chstats.h"
 4519              		.file 16 "../../lib/e-puck2_main-processor/ChibiOS//os/rt/include/chsem.h"
 4520              		.file 17 "../../lib/e-puck2_main-processor/ChibiOS//os/rt/include/chmtx.h"
 4521              		.file 18 "../../lib/e-puck2_main-processor/ChibiOS//os/rt/include/chregistry.h"
 4522              		.file 19 "../../lib/e-puck2_main-processor/ChibiOS//os/rt/include/chevents.h"
 4523              		.file 20 "../../lib/e-puck2_main-processor/ChibiOS//os/rt/include/chqueues.h"
 4524              		.file 21 "../../lib/e-puck2_main-processor/ChibiOS//os/hal/ports/STM32/STM32F4xx/stm32_dma.h"
 4525              		.file 22 "../../lib/e-puck2_main-processor/ChibiOS//os/hal/include/hal_ioblock.h"
 4526              		.file 23 "../../lib/e-puck2_main-processor/ChibiOS//os/hal/ports/STM32/LLD/GPIOv2/pal_lld.h"
 4527              		.file 24 "../../lib/e-puck2_main-processor/ChibiOS//os/hal/include/adc.h"
 4528              		.file 25 "../../lib/e-puck2_main-processor/ChibiOS//os/hal/ports/STM32/STM32F4xx/adc_lld.h"
 4529              		.file 26 "../../lib/e-puck2_main-processor/ChibiOS//os/hal/include/can.h"
 4530              		.file 27 "../../lib/e-puck2_main-processor/ChibiOS//os/hal/ports/STM32/LLD/can_lld.h"
 4531              		.file 28 "../../lib/e-puck2_main-processor/ChibiOS//os/hal/include/dac.h"
 4532              		.file 29 "../../lib/e-puck2_main-processor/ChibiOS//os/hal/ports/STM32/LLD/DACv1/dac_lld.h"
 4533              		.file 30 "../../lib/e-puck2_main-processor/ChibiOS//os/hal/include/ext.h"
 4534              		.file 31 "../../lib/e-puck2_main-processor/ChibiOS//os/hal/ports/STM32/LLD/ext_lld.h"
 4535              		.file 32 "../../lib/e-puck2_main-processor/ChibiOS//os/hal/include/gpt.h"
 4536              		.file 33 "../../lib/e-puck2_main-processor/ChibiOS//os/hal/ports/STM32/LLD/TIMv1/gpt_lld.h"
 4537              		.file 34 "../../lib/e-puck2_main-processor/ChibiOS//os/hal/ports/STM32/LLD/TIMv1/stm32_tim.h"
 4538              		.file 35 "../../lib/e-puck2_main-processor/ChibiOS//os/hal/include/i2c.h"
 4539              		.file 36 "../../lib/e-puck2_main-processor/ChibiOS//os/hal/ports/STM32/LLD/I2Cv1/i2c_lld.h"
 4540              		.file 37 "../../lib/e-puck2_main-processor/ChibiOS//os/hal/include/i2s.h"
 4541              		.file 38 "../../lib/e-puck2_main-processor/ChibiOS//os/hal/ports/STM32/LLD/SPIv1/i2s_lld.h"
 4542              		.file 39 "../../lib/e-puck2_main-processor/ChibiOS//os/hal/include/pwm.h"
 4543              		.file 40 "../../lib/e-puck2_main-processor/ChibiOS//os/hal/ports/STM32/LLD/TIMv1/pwm_lld.h"
 4544              		.file 41 "../../lib/e-puck2_main-processor/ChibiOS//os/hal/include/serial.h"
 4545              		.file 42 "../../lib/e-puck2_main-processor/ChibiOS//os/hal/ports/STM32/LLD/USARTv1/serial_lld.h"
 4546              		.file 43 "../../lib/e-puck2_main-processor/ChibiOS//os/hal/include/sdc.h"
 4547              		.file 44 "../../lib/e-puck2_main-processor/ChibiOS//os/hal/ports/STM32/LLD/sdc_lld.h"
 4548              		.file 45 "../../lib/e-puck2_main-processor/ChibiOS//os/hal/include/spi.h"
 4549              		.file 46 "../../lib/e-puck2_main-processor/ChibiOS//os/hal/ports/STM32/LLD/SPIv1/spi_lld.h"
 4550              		.file 47 "../../lib/e-puck2_main-processor/ChibiOS//os/hal/include/usb.h"
 4551              		.file 48 "../../lib/e-puck2_main-processor/ChibiOS//os/hal/ports/STM32/LLD/OTGv1/usb_lld.h"
 4552              		.file 49 "../../lib/e-puck2_main-processor/ChibiOS//os/hal/ports/STM32/LLD/OTGv1/stm32_otg.h"
 4553              		.file 50 "../../lib/e-puck2_main-processor/ChibiOS//os/hal/include/serial_usb.h"
 4554              		.file 51 "../../lib/e-puck2_main-processor/src/camera/po8030.h"
 4555              		.file 52 "../../lib/e-puck2_main-processor/src/usbcfg.h"
 4556              		.file 53 "../../lib/e-puck2_main-processor/src/camera/../i2c_bus.h"