ARM GAS  C:\Users\mathi\AppData\Local\Temp\ccuMtzkg.s 			page 1


   1              		.cpu cortex-m4
   2              		.eabi_attribute 27, 1
   3              		.eabi_attribute 28, 1
   4              		.eabi_attribute 20, 1
   5              		.eabi_attribute 21, 1
   6              		.eabi_attribute 23, 3
   7              		.eabi_attribute 24, 1
   8              		.eabi_attribute 25, 1
   9              		.eabi_attribute 26, 1
  10              		.eabi_attribute 30, 2
  11              		.eabi_attribute 34, 1
  12              		.eabi_attribute 18, 4
  13              		.file	"po8030.c"
  14              		.text
  15              	.Ltext0:
  16              		.cfi_sections	.debug_frame
  17              		.section	.text.po8030_read_id,"ax",%progbits
  18              		.align	1
  19              		.p2align 4,,15
  20              		.global	po8030_read_id
  21              		.syntax unified
  22              		.thumb
  23              		.thumb_func
  24              		.fpu fpv4-sp-d16
  25              		.type	po8030_read_id, %function
  26              	po8030_read_id:
  27              	.LFB257:
  28              		.file 1 "../../lib/e-puck2_main-processor/src/camera/po8030.c"
  29              		.loc 1 93 0
  30              		.cfi_startproc
  31              		@ args = 0, pretend = 0, frame = 8
  32              		@ frame_needed = 0, uses_anonymous_args = 0
  33              	.LVL0:
  34 0000 30B5     		push	{r4, r5, lr}
  35              		.cfi_def_cfa_offset 12
  36              		.cfi_offset 4, -12
  37              		.cfi_offset 5, -8
  38              		.cfi_offset 14, -4
  39 0002 83B0     		sub	sp, sp, #12
  40              		.cfi_def_cfa_offset 24
  41              		.loc 1 94 0
  42 0004 02AA     		add	r2, sp, #8
  43              		.loc 1 93 0
  44 0006 114C     		ldr	r4, .L8
  45              		.loc 1 94 0
  46 0008 0021     		movs	r1, #0
  47              		.loc 1 93 0
  48 000a 0546     		mov	r5, r0
  49 000c 2368     		ldr	r3, [r4]
  50              		.loc 1 94 0
  51 000e 22F8081D 		strh	r1, [r2, #-8]!	@ movhi
  52              	.LVL1:
  53              		.loc 1 97 0
  54 0012 6E20     		movs	r0, #110
  55              	.LVL2:
  56              		.loc 1 93 0
  57 0014 0193     		str	r3, [sp, #4]
ARM GAS  C:\Users\mathi\AppData\Local\Temp\ccuMtzkg.s 			page 2


  58              		.loc 1 97 0
  59 0016 FFF7FEFF 		bl	read_reg
  60              	.LVL3:
  61 001a 28B1     		cbz	r0, .L6
  62              	.L2:
  63              		.loc 1 106 0
  64 001c 019A     		ldr	r2, [sp, #4]
  65 001e 2368     		ldr	r3, [r4]
  66 0020 9A42     		cmp	r2, r3
  67 0022 10D1     		bne	.L7
  68 0024 03B0     		add	sp, sp, #12
  69              		.cfi_remember_state
  70              		.cfi_def_cfa_offset 12
  71              		@ sp needed
  72 0026 30BD     		pop	{r4, r5, pc}
  73              	.LVL4:
  74              	.L6:
  75              		.cfi_restore_state
  76              		.loc 1 100 0
  77 0028 0DF10102 		add	r2, sp, #1
  78 002c 0121     		movs	r1, #1
  79 002e 6E20     		movs	r0, #110
  80              	.LVL5:
  81 0030 FFF7FEFF 		bl	read_reg
  82              	.LVL6:
  83 0034 0028     		cmp	r0, #0
  84 0036 F1D1     		bne	.L2
  85              		.loc 1 103 0
  86 0038 9DF80030 		ldrb	r3, [sp]	@ zero_extendqisi2
  87 003c 9DF80120 		ldrb	r2, [sp, #1]	@ zero_extendqisi2
  88 0040 1343     		orrs	r3, r3, r2
  89 0042 2B80     		strh	r3, [r5]	@ movhi
  90              		.loc 1 105 0
  91 0044 EAE7     		b	.L2
  92              	.L7:
  93              		.loc 1 106 0
  94 0046 FFF7FEFF 		bl	__stack_chk_fail
  95              	.LVL7:
  96              	.L9:
  97 004a 00BF     		.align	2
  98              	.L8:
  99 004c 00000000 		.word	__stack_chk_guard
 100              		.cfi_endproc
 101              	.LFE257:
 102              		.size	po8030_read_id, .-po8030_read_id
 103              		.section	.text.po8030_set_bank,"ax",%progbits
 104              		.align	1
 105              		.p2align 4,,15
 106              		.global	po8030_set_bank
 107              		.syntax unified
 108              		.thumb
 109              		.thumb_func
 110              		.fpu fpv4-sp-d16
 111              		.type	po8030_set_bank, %function
 112              	po8030_set_bank:
 113              	.LFB258:
 114              		.loc 1 118 0
ARM GAS  C:\Users\mathi\AppData\Local\Temp\ccuMtzkg.s 			page 3


 115              		.cfi_startproc
 116              		@ args = 0, pretend = 0, frame = 8
 117              		@ frame_needed = 0, uses_anonymous_args = 0
 118              	.LVL8:
 119 0000 00B5     		push	{lr}
 120              		.cfi_def_cfa_offset 4
 121              		.cfi_offset 14, -4
 122 0002 094B     		ldr	r3, .L15
 123 0004 83B0     		sub	sp, sp, #12
 124              		.cfi_def_cfa_offset 16
 125              		.loc 1 118 0
 126 0006 1A68     		ldr	r2, [r3]
 127 0008 0192     		str	r2, [sp, #4]
 128              		.loc 1 119 0
 129 000a 0199     		ldr	r1, [sp, #4]
 130 000c 1B68     		ldr	r3, [r3]
 131 000e 9942     		cmp	r1, r3
 132 0010 07D1     		bne	.L14
 133 0012 0246     		mov	r2, r0
 134 0014 0321     		movs	r1, #3
 135 0016 6E20     		movs	r0, #110
 136              	.LVL9:
 137              		.loc 1 120 0
 138 0018 03B0     		add	sp, sp, #12
 139              		.cfi_remember_state
 140              		.cfi_def_cfa_offset 4
 141              		@ sp needed
 142 001a 5DF804EB 		ldr	lr, [sp], #4
 143              		.cfi_restore 14
 144              		.cfi_def_cfa_offset 0
 145              		.loc 1 119 0
 146 001e FFF7FEBF 		b	write_reg
 147              	.LVL10:
 148              	.L14:
 149              		.cfi_restore_state
 150 0022 FFF7FEFF 		bl	__stack_chk_fail
 151              	.LVL11:
 152              	.L16:
 153 0026 00BF     		.align	2
 154              	.L15:
 155 0028 00000000 		.word	__stack_chk_guard
 156              		.cfi_endproc
 157              	.LFE258:
 158              		.size	po8030_set_bank, .-po8030_set_bank
 159              		.section	.text.po8030_set_format,"ax",%progbits
 160              		.align	1
 161              		.p2align 4,,15
 162              		.global	po8030_set_format
 163              		.syntax unified
 164              		.thumb
 165              		.thumb_func
 166              		.fpu fpv4-sp-d16
 167              		.type	po8030_set_format, %function
 168              	po8030_set_format:
 169              	.LFB259:
 170              		.loc 1 132 0
 171              		.cfi_startproc
ARM GAS  C:\Users\mathi\AppData\Local\Temp\ccuMtzkg.s 			page 4


 172              		@ args = 0, pretend = 0, frame = 8
 173              		@ frame_needed = 0, uses_anonymous_args = 0
 174              	.LVL12:
 175 0000 70B5     		push	{r4, r5, r6, lr}
 176              		.cfi_def_cfa_offset 16
 177              		.cfi_offset 4, -16
 178              		.cfi_offset 5, -12
 179              		.cfi_offset 6, -8
 180              		.cfi_offset 14, -4
 181 0002 274D     		ldr	r5, .L36
 182 0004 82B0     		sub	sp, sp, #8
 183              		.cfi_def_cfa_offset 24
 184              		.loc 1 132 0
 185 0006 2B68     		ldr	r3, [r5]
 186 0008 0193     		str	r3, [sp, #4]
 187              	.LVL13:
 188 000a 0646     		mov	r6, r0
 189              	.LBB78:
 190              	.LBB79:
 191              		.loc 1 119 0
 192 000c 0122     		movs	r2, #1
 193 000e 0321     		movs	r1, #3
 194 0010 6E20     		movs	r0, #110
 195              	.LVL14:
 196 0012 FFF7FEFF 		bl	write_reg
 197              	.LVL15:
 198              	.LBE79:
 199              	.LBE78:
 200              		.loc 1 135 0
 201 0016 0446     		mov	r4, r0
 202 0018 30B1     		cbz	r0, .L32
 203              	.L18:
 204              		.loc 1 168 0
 205 001a 019A     		ldr	r2, [sp, #4]
 206 001c 2B68     		ldr	r3, [r5]
 207 001e 9A42     		cmp	r2, r3
 208 0020 2046     		mov	r0, r4
 209 0022 3AD1     		bne	.L33
 210 0024 02B0     		add	sp, sp, #8
 211              		.cfi_remember_state
 212              		.cfi_def_cfa_offset 16
 213              		@ sp needed
 214 0026 70BD     		pop	{r4, r5, r6, pc}
 215              	.L32:
 216              		.cfi_restore_state
 217              		.loc 1 139 0
 218 0028 3246     		mov	r2, r6
 219 002a 4E21     		movs	r1, #78
 220 002c 6E20     		movs	r0, #110
 221 002e FFF7FEFF 		bl	write_reg
 222              	.LVL16:
 223 0032 0446     		mov	r4, r0
 224 0034 0028     		cmp	r0, #0
 225 0036 F0D1     		bne	.L18
 226              	.LVL17:
 227              	.LBB80:
 228              	.LBB81:
ARM GAS  C:\Users\mathi\AppData\Local\Temp\ccuMtzkg.s 			page 5


 229              		.loc 1 143 0
 230 0038 442E     		cmp	r6, #68
 231 003a 07D0     		beq	.L34
 232              		.loc 1 154 0
 233 003c 0246     		mov	r2, r0
 234 003e B721     		movs	r1, #183
 235 0040 6E20     		movs	r0, #110
 236              	.LVL18:
 237 0042 FFF7FEFF 		bl	write_reg
 238              	.LVL19:
 239 0046 B8B1     		cbz	r0, .L35
 240              	.LVL20:
 241              	.L26:
 242              		.loc 1 157 0
 243 0048 0446     		mov	r4, r0
 244 004a E6E7     		b	.L18
 245              	.LVL21:
 246              	.L34:
 247              		.loc 1 144 0
 248 004c 0122     		movs	r2, #1
 249 004e B721     		movs	r1, #183
 250 0050 6E20     		movs	r0, #110
 251              	.LVL22:
 252 0052 FFF7FEFF 		bl	write_reg
 253              	.LVL23:
 254 0056 0028     		cmp	r0, #0
 255 0058 F6D1     		bne	.L26
 256              	.LVL24:
 257              	.LBB82:
 258              	.LBB83:
 259              		.loc 1 119 0
 260 005a 2246     		mov	r2, r4
 261 005c 0321     		movs	r1, #3
 262 005e 6E20     		movs	r0, #110
 263              	.LVL25:
 264 0060 FFF7FEFF 		bl	write_reg
 265              	.LVL26:
 266              	.LBE83:
 267              	.LBE82:
 268              		.loc 1 147 0
 269 0064 0028     		cmp	r0, #0
 270 0066 EFD1     		bne	.L26
 271              		.loc 1 150 0
 272 0068 0322     		movs	r2, #3
 273 006a 1121     		movs	r1, #17
 274 006c 6E20     		movs	r0, #110
 275 006e FFF7FEFF 		bl	write_reg
 276              	.LVL27:
 277 0072 78B1     		cbz	r0, .L20
 278              		.loc 1 157 0
 279 0074 0446     		mov	r4, r0
 280 0076 D0E7     		b	.L18
 281              	.L35:
 282              	.LVL28:
 283              	.LBB84:
 284              	.LBB85:
 285              		.loc 1 119 0
ARM GAS  C:\Users\mathi\AppData\Local\Temp\ccuMtzkg.s 			page 6


 286 0078 2246     		mov	r2, r4
 287 007a 0321     		movs	r1, #3
 288 007c 6E20     		movs	r0, #110
 289              	.LVL29:
 290 007e FFF7FEFF 		bl	write_reg
 291              	.LVL30:
 292              	.LBE85:
 293              	.LBE84:
 294              		.loc 1 157 0
 295 0082 0028     		cmp	r0, #0
 296 0084 E0D1     		bne	.L26
 297              		.loc 1 160 0
 298 0086 0A22     		movs	r2, #10
 299 0088 1121     		movs	r1, #17
 300 008a 6E20     		movs	r0, #110
 301 008c FFF7FEFF 		bl	write_reg
 302              	.LVL31:
 303 0090 0028     		cmp	r0, #0
 304 0092 D9D1     		bne	.L26
 305              	.L20:
 306              		.loc 1 165 0
 307 0094 034B     		ldr	r3, .L36+4
 308 0096 1E71     		strb	r6, [r3, #4]
 309 0098 BFE7     		b	.L18
 310              	.LVL32:
 311              	.L33:
 312              	.LBE81:
 313              	.LBE80:
 314              		.loc 1 168 0
 315 009a FFF7FEFF 		bl	__stack_chk_fail
 316              	.LVL33:
 317              	.L37:
 318 009e 00BF     		.align	2
 319              	.L36:
 320 00a0 00000000 		.word	__stack_chk_guard
 321 00a4 00000000 		.word	.LANCHOR0
 322              		.cfi_endproc
 323              	.LFE259:
 324              		.size	po8030_set_format, .-po8030_set_format
 325              		.section	.text.po8030_set_vga,"ax",%progbits
 326              		.align	1
 327              		.p2align 4,,15
 328              		.global	po8030_set_vga
 329              		.syntax unified
 330              		.thumb
 331              		.thumb_func
 332              		.fpu fpv4-sp-d16
 333              		.type	po8030_set_vga, %function
 334              	po8030_set_vga:
 335              	.LFB260:
 336              		.loc 1 178 0
 337              		.cfi_startproc
 338              		@ args = 0, pretend = 0, frame = 8
 339              		@ frame_needed = 0, uses_anonymous_args = 0
 340 0000 10B5     		push	{r4, lr}
 341              		.cfi_def_cfa_offset 8
 342              		.cfi_offset 4, -8
ARM GAS  C:\Users\mathi\AppData\Local\Temp\ccuMtzkg.s 			page 7


 343              		.cfi_offset 14, -4
 344 0002 704C     		ldr	r4, .L44
 345 0004 82B0     		sub	sp, sp, #8
 346              		.cfi_def_cfa_offset 16
 347              		.loc 1 178 0
 348 0006 2368     		ldr	r3, [r4]
 349 0008 0193     		str	r3, [sp, #4]
 350              	.LVL34:
 351              	.LBB96:
 352              	.LBB97:
 353              		.loc 1 119 0
 354 000a 0022     		movs	r2, #0
 355 000c 0321     		movs	r1, #3
 356 000e 6E20     		movs	r0, #110
 357 0010 FFF7FEFF 		bl	write_reg
 358              	.LVL35:
 359              	.LBE97:
 360              	.LBE96:
 361              		.loc 1 181 0
 362 0014 30B1     		cbz	r0, .L42
 363              	.L39:
 364              		.loc 1 277 0
 365 0016 019A     		ldr	r2, [sp, #4]
 366 0018 2368     		ldr	r3, [r4]
 367 001a 9A42     		cmp	r2, r3
 368 001c 40F0D080 		bne	.L43
 369 0020 02B0     		add	sp, sp, #8
 370              		.cfi_remember_state
 371              		.cfi_def_cfa_offset 8
 372              		@ sp needed
 373 0022 10BD     		pop	{r4, pc}
 374              	.L42:
 375              		.cfi_restore_state
 376              		.loc 1 185 0
 377 0024 0246     		mov	r2, r0
 378 0026 0821     		movs	r1, #8
 379 0028 6E20     		movs	r0, #110
 380 002a FFF7FEFF 		bl	write_reg
 381              	.LVL36:
 382 002e 0028     		cmp	r0, #0
 383 0030 F1D1     		bne	.L39
 384              		.loc 1 188 0
 385 0032 0122     		movs	r2, #1
 386 0034 0921     		movs	r1, #9
 387 0036 6E20     		movs	r0, #110
 388              	.LVL37:
 389 0038 FFF7FEFF 		bl	write_reg
 390              	.LVL38:
 391 003c 0028     		cmp	r0, #0
 392 003e EAD1     		bne	.L39
 393              		.loc 1 191 0
 394 0040 0246     		mov	r2, r0
 395 0042 0A21     		movs	r1, #10
 396 0044 6E20     		movs	r0, #110
 397              	.LVL39:
 398 0046 FFF7FEFF 		bl	write_reg
 399              	.LVL40:
ARM GAS  C:\Users\mathi\AppData\Local\Temp\ccuMtzkg.s 			page 8


 400 004a 0028     		cmp	r0, #0
 401 004c E3D1     		bne	.L39
 402              		.loc 1 194 0
 403 004e 0122     		movs	r2, #1
 404 0050 0B21     		movs	r1, #11
 405 0052 6E20     		movs	r0, #110
 406              	.LVL41:
 407 0054 FFF7FEFF 		bl	write_reg
 408              	.LVL42:
 409 0058 0028     		cmp	r0, #0
 410 005a DCD1     		bne	.L39
 411              	.LBB98:
 412              	.LBB99:
 413              		.loc 1 197 0
 414 005c 0222     		movs	r2, #2
 415 005e 0C21     		movs	r1, #12
 416 0060 6E20     		movs	r0, #110
 417              	.LVL43:
 418 0062 FFF7FEFF 		bl	write_reg
 419              	.LVL44:
 420 0066 0028     		cmp	r0, #0
 421 0068 D5D1     		bne	.L39
 422              		.loc 1 200 0
 423 006a 8022     		movs	r2, #128
 424 006c 0D21     		movs	r1, #13
 425 006e 6E20     		movs	r0, #110
 426              	.LVL45:
 427 0070 FFF7FEFF 		bl	write_reg
 428              	.LVL46:
 429 0074 0028     		cmp	r0, #0
 430 0076 CED1     		bne	.L39
 431              		.loc 1 203 0
 432 0078 0122     		movs	r2, #1
 433 007a 0E21     		movs	r1, #14
 434 007c 6E20     		movs	r0, #110
 435              	.LVL47:
 436 007e FFF7FEFF 		bl	write_reg
 437              	.LVL48:
 438 0082 0028     		cmp	r0, #0
 439 0084 C7D1     		bne	.L39
 440              		.loc 1 206 0
 441 0086 E022     		movs	r2, #224
 442 0088 0F21     		movs	r1, #15
 443 008a 6E20     		movs	r0, #110
 444              	.LVL49:
 445 008c FFF7FEFF 		bl	write_reg
 446              	.LVL50:
 447 0090 0028     		cmp	r0, #0
 448 0092 C0D1     		bne	.L39
 449              		.loc 1 210 0
 450 0094 0246     		mov	r2, r0
 451 0096 3521     		movs	r1, #53
 452 0098 6E20     		movs	r0, #110
 453              	.LVL51:
 454 009a FFF7FEFF 		bl	write_reg
 455              	.LVL52:
 456 009e 0028     		cmp	r0, #0
ARM GAS  C:\Users\mathi\AppData\Local\Temp\ccuMtzkg.s 			page 9


 457 00a0 B9D1     		bne	.L39
 458              		.loc 1 213 0
 459 00a2 0122     		movs	r2, #1
 460 00a4 3621     		movs	r1, #54
 461 00a6 6E20     		movs	r0, #110
 462              	.LVL53:
 463 00a8 FFF7FEFF 		bl	write_reg
 464              	.LVL54:
 465 00ac 0028     		cmp	r0, #0
 466 00ae B2D1     		bne	.L39
 467              		.loc 1 216 0
 468 00b0 0222     		movs	r2, #2
 469 00b2 3721     		movs	r1, #55
 470 00b4 6E20     		movs	r0, #110
 471              	.LVL55:
 472 00b6 FFF7FEFF 		bl	write_reg
 473              	.LVL56:
 474 00ba 0028     		cmp	r0, #0
 475 00bc ABD1     		bne	.L39
 476              		.loc 1 219 0
 477 00be 8022     		movs	r2, #128
 478 00c0 3821     		movs	r1, #56
 479 00c2 6E20     		movs	r0, #110
 480              	.LVL57:
 481 00c4 FFF7FEFF 		bl	write_reg
 482              	.LVL58:
 483 00c8 0028     		cmp	r0, #0
 484 00ca A4D1     		bne	.L39
 485              		.loc 1 222 0
 486 00cc 0246     		mov	r2, r0
 487 00ce 3921     		movs	r1, #57
 488 00d0 6E20     		movs	r0, #110
 489              	.LVL59:
 490 00d2 FFF7FEFF 		bl	write_reg
 491              	.LVL60:
 492 00d6 0028     		cmp	r0, #0
 493 00d8 9DD1     		bne	.L39
 494              		.loc 1 225 0
 495 00da 0122     		movs	r2, #1
 496 00dc 3A21     		movs	r1, #58
 497 00de 6E20     		movs	r0, #110
 498              	.LVL61:
 499 00e0 FFF7FEFF 		bl	write_reg
 500              	.LVL62:
 501 00e4 0028     		cmp	r0, #0
 502 00e6 96D1     		bne	.L39
 503              		.loc 1 228 0
 504 00e8 0122     		movs	r2, #1
 505 00ea 3B21     		movs	r1, #59
 506 00ec 6E20     		movs	r0, #110
 507              	.LVL63:
 508 00ee FFF7FEFF 		bl	write_reg
 509              	.LVL64:
 510 00f2 0028     		cmp	r0, #0
 511 00f4 8FD1     		bne	.L39
 512              		.loc 1 231 0
 513 00f6 E022     		movs	r2, #224
ARM GAS  C:\Users\mathi\AppData\Local\Temp\ccuMtzkg.s 			page 10


 514 00f8 3C21     		movs	r1, #60
 515 00fa 6E20     		movs	r0, #110
 516              	.LVL65:
 517 00fc FFF7FEFF 		bl	write_reg
 518              	.LVL66:
 519 0100 0028     		cmp	r0, #0
 520 0102 88D1     		bne	.L39
 521              		.loc 1 235 0
 522 0104 0246     		mov	r2, r0
 523 0106 3D21     		movs	r1, #61
 524 0108 6E20     		movs	r0, #110
 525              	.LVL67:
 526 010a FFF7FEFF 		bl	write_reg
 527              	.LVL68:
 528 010e 0028     		cmp	r0, #0
 529 0110 81D1     		bne	.L39
 530              		.loc 1 238 0
 531 0112 D622     		movs	r2, #214
 532 0114 3E21     		movs	r1, #62
 533 0116 6E20     		movs	r0, #110
 534              	.LVL69:
 535 0118 FFF7FEFF 		bl	write_reg
 536              	.LVL70:
 537 011c 0028     		cmp	r0, #0
 538 011e 7FF47AAF 		bne	.L39
 539              		.loc 1 241 0
 540 0122 0122     		movs	r2, #1
 541 0124 3F21     		movs	r1, #63
 542 0126 6E20     		movs	r0, #110
 543              	.LVL71:
 544 0128 FFF7FEFF 		bl	write_reg
 545              	.LVL72:
 546 012c 0028     		cmp	r0, #0
 547 012e 7FF472AF 		bne	.L39
 548              		.loc 1 244 0
 549 0132 AB22     		movs	r2, #171
 550 0134 4021     		movs	r1, #64
 551 0136 6E20     		movs	r0, #110
 552              	.LVL73:
 553 0138 FFF7FEFF 		bl	write_reg
 554              	.LVL74:
 555 013c 0028     		cmp	r0, #0
 556 013e 7FF46AAF 		bne	.L39
 557              		.loc 1 247 0
 558 0142 0246     		mov	r2, r0
 559 0144 4121     		movs	r1, #65
 560 0146 6E20     		movs	r0, #110
 561              	.LVL75:
 562 0148 FFF7FEFF 		bl	write_reg
 563              	.LVL76:
 564 014c 0028     		cmp	r0, #0
 565 014e 7FF462AF 		bne	.L39
 566              		.loc 1 250 0
 567 0152 A122     		movs	r2, #161
 568 0154 4221     		movs	r1, #66
 569 0156 6E20     		movs	r0, #110
 570              	.LVL77:
ARM GAS  C:\Users\mathi\AppData\Local\Temp\ccuMtzkg.s 			page 11


 571 0158 FFF7FEFF 		bl	write_reg
 572              	.LVL78:
 573 015c 0028     		cmp	r0, #0
 574 015e 7FF45AAF 		bne	.L39
 575              		.loc 1 253 0
 576 0162 0122     		movs	r2, #1
 577 0164 4321     		movs	r1, #67
 578 0166 6E20     		movs	r0, #110
 579              	.LVL79:
 580 0168 FFF7FEFF 		bl	write_reg
 581              	.LVL80:
 582 016c 0028     		cmp	r0, #0
 583 016e 7FF452AF 		bne	.L39
 584              		.loc 1 256 0
 585 0172 4022     		movs	r2, #64
 586 0174 4421     		movs	r1, #68
 587 0176 6E20     		movs	r0, #110
 588              	.LVL81:
 589 0178 FFF7FEFF 		bl	write_reg
 590              	.LVL82:
 591 017c 0028     		cmp	r0, #0
 592 017e 7FF44AAF 		bne	.L39
 593              	.LVL83:
 594              	.LBB100:
 595              	.LBB101:
 596              		.loc 1 119 0
 597 0182 0122     		movs	r2, #1
 598 0184 0321     		movs	r1, #3
 599 0186 6E20     		movs	r0, #110
 600              	.LVL84:
 601 0188 FFF7FEFF 		bl	write_reg
 602              	.LVL85:
 603              	.LBE101:
 604              	.LBE100:
 605              		.loc 1 260 0
 606 018c 0028     		cmp	r0, #0
 607 018e 7FF442AF 		bne	.L39
 608              		.loc 1 264 0
 609 0192 2022     		movs	r2, #32
 610 0194 9321     		movs	r1, #147
 611 0196 6E20     		movs	r0, #110
 612 0198 FFF7FEFF 		bl	write_reg
 613              	.LVL86:
 614 019c 0028     		cmp	r0, #0
 615 019e 7FF43AAF 		bne	.L39
 616              		.loc 1 267 0
 617 01a2 2022     		movs	r2, #32
 618 01a4 9421     		movs	r1, #148
 619 01a6 6E20     		movs	r0, #110
 620              	.LVL87:
 621 01a8 FFF7FEFF 		bl	write_reg
 622              	.LVL88:
 623 01ac 0028     		cmp	r0, #0
 624 01ae 7FF432AF 		bne	.L39
 625              		.loc 1 271 0
 626 01b2 054B     		ldr	r3, .L44+4
 627 01b4 054A     		ldr	r2, .L44+8
ARM GAS  C:\Users\mathi\AppData\Local\Temp\ccuMtzkg.s 			page 12


 628 01b6 1A60     		str	r2, [r3]
 629              		.loc 1 273 0
 630 01b8 2022     		movs	r2, #32
 631 01ba 5A71     		strb	r2, [r3, #5]
 632              		.loc 1 274 0
 633 01bc 9A71     		strb	r2, [r3, #6]
 634 01be 2AE7     		b	.L39
 635              	.LVL89:
 636              	.L43:
 637              	.LBE99:
 638              	.LBE98:
 639              		.loc 1 277 0
 640 01c0 FFF7FEFF 		bl	__stack_chk_fail
 641              	.LVL90:
 642              	.L45:
 643              		.align	2
 644              	.L44:
 645 01c4 00000000 		.word	__stack_chk_guard
 646 01c8 00000000 		.word	.LANCHOR0
 647 01cc 8002E001 		.word	31457920
 648              		.cfi_endproc
 649              	.LFE260:
 650              		.size	po8030_set_vga, .-po8030_set_vga
 651              		.section	.text.po8030_set_qvga,"ax",%progbits
 652              		.align	1
 653              		.p2align 4,,15
 654              		.global	po8030_set_qvga
 655              		.syntax unified
 656              		.thumb
 657              		.thumb_func
 658              		.fpu fpv4-sp-d16
 659              		.type	po8030_set_qvga, %function
 660              	po8030_set_qvga:
 661              	.LFB261:
 662              		.loc 1 287 0
 663              		.cfi_startproc
 664              		@ args = 0, pretend = 0, frame = 8
 665              		@ frame_needed = 0, uses_anonymous_args = 0
 666 0000 10B5     		push	{r4, lr}
 667              		.cfi_def_cfa_offset 8
 668              		.cfi_offset 4, -8
 669              		.cfi_offset 14, -4
 670 0002 704C     		ldr	r4, .L52
 671 0004 82B0     		sub	sp, sp, #8
 672              		.cfi_def_cfa_offset 16
 673              		.loc 1 287 0
 674 0006 2368     		ldr	r3, [r4]
 675 0008 0193     		str	r3, [sp, #4]
 676              	.LVL91:
 677              	.LBB110:
 678              	.LBB111:
 679              		.loc 1 119 0
 680 000a 0022     		movs	r2, #0
 681 000c 0321     		movs	r1, #3
 682 000e 6E20     		movs	r0, #110
 683 0010 FFF7FEFF 		bl	write_reg
 684              	.LVL92:
ARM GAS  C:\Users\mathi\AppData\Local\Temp\ccuMtzkg.s 			page 13


 685              	.LBE111:
 686              	.LBE110:
 687              		.loc 1 290 0
 688 0014 30B1     		cbz	r0, .L50
 689              	.L47:
 690              		.loc 1 386 0
 691 0016 019A     		ldr	r2, [sp, #4]
 692 0018 2368     		ldr	r3, [r4]
 693 001a 9A42     		cmp	r2, r3
 694 001c 40F0D080 		bne	.L51
 695 0020 02B0     		add	sp, sp, #8
 696              		.cfi_remember_state
 697              		.cfi_def_cfa_offset 8
 698              		@ sp needed
 699 0022 10BD     		pop	{r4, pc}
 700              	.L50:
 701              		.cfi_restore_state
 702              		.loc 1 294 0
 703 0024 0246     		mov	r2, r0
 704 0026 0821     		movs	r1, #8
 705 0028 6E20     		movs	r0, #110
 706 002a FFF7FEFF 		bl	write_reg
 707              	.LVL93:
 708 002e 0028     		cmp	r0, #0
 709 0030 F1D1     		bne	.L47
 710              		.loc 1 297 0
 711 0032 0122     		movs	r2, #1
 712 0034 0921     		movs	r1, #9
 713 0036 6E20     		movs	r0, #110
 714              	.LVL94:
 715 0038 FFF7FEFF 		bl	write_reg
 716              	.LVL95:
 717 003c 0028     		cmp	r0, #0
 718 003e EAD1     		bne	.L47
 719              		.loc 1 300 0
 720 0040 0246     		mov	r2, r0
 721 0042 0A21     		movs	r1, #10
 722 0044 6E20     		movs	r0, #110
 723              	.LVL96:
 724 0046 FFF7FEFF 		bl	write_reg
 725              	.LVL97:
 726 004a 0028     		cmp	r0, #0
 727 004c E3D1     		bne	.L47
 728              		.loc 1 303 0
 729 004e 0122     		movs	r2, #1
 730 0050 0B21     		movs	r1, #11
 731 0052 6E20     		movs	r0, #110
 732              	.LVL98:
 733 0054 FFF7FEFF 		bl	write_reg
 734              	.LVL99:
 735 0058 0028     		cmp	r0, #0
 736 005a DCD1     		bne	.L47
 737              	.LBB112:
 738              	.LBB113:
 739              		.loc 1 306 0
 740 005c 0122     		movs	r2, #1
 741 005e 0C21     		movs	r1, #12
ARM GAS  C:\Users\mathi\AppData\Local\Temp\ccuMtzkg.s 			page 14


 742 0060 6E20     		movs	r0, #110
 743              	.LVL100:
 744 0062 FFF7FEFF 		bl	write_reg
 745              	.LVL101:
 746 0066 0028     		cmp	r0, #0
 747 0068 D5D1     		bne	.L47
 748              		.loc 1 309 0
 749 006a 4022     		movs	r2, #64
 750 006c 0D21     		movs	r1, #13
 751 006e 6E20     		movs	r0, #110
 752              	.LVL102:
 753 0070 FFF7FEFF 		bl	write_reg
 754              	.LVL103:
 755 0074 0028     		cmp	r0, #0
 756 0076 CED1     		bne	.L47
 757              		.loc 1 312 0
 758 0078 0246     		mov	r2, r0
 759 007a 0E21     		movs	r1, #14
 760 007c 6E20     		movs	r0, #110
 761              	.LVL104:
 762 007e FFF7FEFF 		bl	write_reg
 763              	.LVL105:
 764 0082 0028     		cmp	r0, #0
 765 0084 C7D1     		bne	.L47
 766              		.loc 1 315 0
 767 0086 F022     		movs	r2, #240
 768 0088 0F21     		movs	r1, #15
 769 008a 6E20     		movs	r0, #110
 770              	.LVL106:
 771 008c FFF7FEFF 		bl	write_reg
 772              	.LVL107:
 773 0090 0028     		cmp	r0, #0
 774 0092 C0D1     		bne	.L47
 775              		.loc 1 319 0
 776 0094 0246     		mov	r2, r0
 777 0096 3521     		movs	r1, #53
 778 0098 6E20     		movs	r0, #110
 779              	.LVL108:
 780 009a FFF7FEFF 		bl	write_reg
 781              	.LVL109:
 782 009e 0028     		cmp	r0, #0
 783 00a0 B9D1     		bne	.L47
 784              		.loc 1 322 0
 785 00a2 0122     		movs	r2, #1
 786 00a4 3621     		movs	r1, #54
 787 00a6 6E20     		movs	r0, #110
 788              	.LVL110:
 789 00a8 FFF7FEFF 		bl	write_reg
 790              	.LVL111:
 791 00ac 0028     		cmp	r0, #0
 792 00ae B2D1     		bne	.L47
 793              		.loc 1 325 0
 794 00b0 0122     		movs	r2, #1
 795 00b2 3721     		movs	r1, #55
 796 00b4 6E20     		movs	r0, #110
 797              	.LVL112:
 798 00b6 FFF7FEFF 		bl	write_reg
ARM GAS  C:\Users\mathi\AppData\Local\Temp\ccuMtzkg.s 			page 15


 799              	.LVL113:
 800 00ba 0028     		cmp	r0, #0
 801 00bc ABD1     		bne	.L47
 802              		.loc 1 328 0
 803 00be 4022     		movs	r2, #64
 804 00c0 3821     		movs	r1, #56
 805 00c2 6E20     		movs	r0, #110
 806              	.LVL114:
 807 00c4 FFF7FEFF 		bl	write_reg
 808              	.LVL115:
 809 00c8 0028     		cmp	r0, #0
 810 00ca A4D1     		bne	.L47
 811              		.loc 1 331 0
 812 00cc 0246     		mov	r2, r0
 813 00ce 3921     		movs	r1, #57
 814 00d0 6E20     		movs	r0, #110
 815              	.LVL116:
 816 00d2 FFF7FEFF 		bl	write_reg
 817              	.LVL117:
 818 00d6 0028     		cmp	r0, #0
 819 00d8 9DD1     		bne	.L47
 820              		.loc 1 334 0
 821 00da 0122     		movs	r2, #1
 822 00dc 3A21     		movs	r1, #58
 823 00de 6E20     		movs	r0, #110
 824              	.LVL118:
 825 00e0 FFF7FEFF 		bl	write_reg
 826              	.LVL119:
 827 00e4 0028     		cmp	r0, #0
 828 00e6 96D1     		bne	.L47
 829              		.loc 1 337 0
 830 00e8 0246     		mov	r2, r0
 831 00ea 3B21     		movs	r1, #59
 832 00ec 6E20     		movs	r0, #110
 833              	.LVL120:
 834 00ee FFF7FEFF 		bl	write_reg
 835              	.LVL121:
 836 00f2 0028     		cmp	r0, #0
 837 00f4 8FD1     		bne	.L47
 838              		.loc 1 340 0
 839 00f6 F022     		movs	r2, #240
 840 00f8 3C21     		movs	r1, #60
 841 00fa 6E20     		movs	r0, #110
 842              	.LVL122:
 843 00fc FFF7FEFF 		bl	write_reg
 844              	.LVL123:
 845 0100 0028     		cmp	r0, #0
 846 0102 88D1     		bne	.L47
 847              		.loc 1 344 0
 848 0104 0246     		mov	r2, r0
 849 0106 3D21     		movs	r1, #61
 850 0108 6E20     		movs	r0, #110
 851              	.LVL124:
 852 010a FFF7FEFF 		bl	write_reg
 853              	.LVL125:
 854 010e 0028     		cmp	r0, #0
 855 0110 81D1     		bne	.L47
ARM GAS  C:\Users\mathi\AppData\Local\Temp\ccuMtzkg.s 			page 16


 856              		.loc 1 347 0
 857 0112 6B22     		movs	r2, #107
 858 0114 3E21     		movs	r1, #62
 859 0116 6E20     		movs	r0, #110
 860              	.LVL126:
 861 0118 FFF7FEFF 		bl	write_reg
 862              	.LVL127:
 863 011c 0028     		cmp	r0, #0
 864 011e 7FF47AAF 		bne	.L47
 865              		.loc 1 350 0
 866 0122 0246     		mov	r2, r0
 867 0124 3F21     		movs	r1, #63
 868 0126 6E20     		movs	r0, #110
 869              	.LVL128:
 870 0128 FFF7FEFF 		bl	write_reg
 871              	.LVL129:
 872 012c 0028     		cmp	r0, #0
 873 012e 7FF472AF 		bne	.L47
 874              		.loc 1 353 0
 875 0132 D622     		movs	r2, #214
 876 0134 4021     		movs	r1, #64
 877 0136 6E20     		movs	r0, #110
 878              	.LVL130:
 879 0138 FFF7FEFF 		bl	write_reg
 880              	.LVL131:
 881 013c 0028     		cmp	r0, #0
 882 013e 7FF46AAF 		bne	.L47
 883              		.loc 1 356 0
 884 0142 0246     		mov	r2, r0
 885 0144 4121     		movs	r1, #65
 886 0146 6E20     		movs	r0, #110
 887              	.LVL132:
 888 0148 FFF7FEFF 		bl	write_reg
 889              	.LVL133:
 890 014c 0028     		cmp	r0, #0
 891 014e 7FF462AF 		bne	.L47
 892              		.loc 1 359 0
 893 0152 5022     		movs	r2, #80
 894 0154 4221     		movs	r1, #66
 895 0156 6E20     		movs	r0, #110
 896              	.LVL134:
 897 0158 FFF7FEFF 		bl	write_reg
 898              	.LVL135:
 899 015c 0028     		cmp	r0, #0
 900 015e 7FF45AAF 		bne	.L47
 901              		.loc 1 362 0
 902 0162 0246     		mov	r2, r0
 903 0164 4321     		movs	r1, #67
 904 0166 6E20     		movs	r0, #110
 905              	.LVL136:
 906 0168 FFF7FEFF 		bl	write_reg
 907              	.LVL137:
 908 016c 0028     		cmp	r0, #0
 909 016e 7FF452AF 		bne	.L47
 910              		.loc 1 365 0
 911 0172 A022     		movs	r2, #160
 912 0174 4421     		movs	r1, #68
ARM GAS  C:\Users\mathi\AppData\Local\Temp\ccuMtzkg.s 			page 17


 913 0176 6E20     		movs	r0, #110
 914              	.LVL138:
 915 0178 FFF7FEFF 		bl	write_reg
 916              	.LVL139:
 917 017c 0028     		cmp	r0, #0
 918 017e 7FF44AAF 		bne	.L47
 919              	.LVL140:
 920              	.LBB114:
 921              	.LBB115:
 922              		.loc 1 119 0
 923 0182 0122     		movs	r2, #1
 924 0184 0321     		movs	r1, #3
 925 0186 6E20     		movs	r0, #110
 926              	.LVL141:
 927 0188 FFF7FEFF 		bl	write_reg
 928              	.LVL142:
 929              	.LBE115:
 930              	.LBE114:
 931              		.loc 1 369 0
 932 018c 0028     		cmp	r0, #0
 933 018e 7FF442AF 		bne	.L47
 934              		.loc 1 373 0
 935 0192 4022     		movs	r2, #64
 936 0194 9321     		movs	r1, #147
 937 0196 6E20     		movs	r0, #110
 938 0198 FFF7FEFF 		bl	write_reg
 939              	.LVL143:
 940 019c 0028     		cmp	r0, #0
 941 019e 7FF43AAF 		bne	.L47
 942              		.loc 1 376 0
 943 01a2 4022     		movs	r2, #64
 944 01a4 9421     		movs	r1, #148
 945 01a6 6E20     		movs	r0, #110
 946              	.LVL144:
 947 01a8 FFF7FEFF 		bl	write_reg
 948              	.LVL145:
 949 01ac 0028     		cmp	r0, #0
 950 01ae 7FF432AF 		bne	.L47
 951              		.loc 1 380 0
 952 01b2 054B     		ldr	r3, .L52+4
 953 01b4 054A     		ldr	r2, .L52+8
 954 01b6 1A60     		str	r2, [r3]
 955              		.loc 1 382 0
 956 01b8 2022     		movs	r2, #32
 957 01ba 5A71     		strb	r2, [r3, #5]
 958              		.loc 1 383 0
 959 01bc 9A71     		strb	r2, [r3, #6]
 960 01be 2AE7     		b	.L47
 961              	.LVL146:
 962              	.L51:
 963              	.LBE113:
 964              	.LBE112:
 965              		.loc 1 386 0
 966 01c0 FFF7FEFF 		bl	__stack_chk_fail
 967              	.LVL147:
 968              	.L53:
 969              		.align	2
ARM GAS  C:\Users\mathi\AppData\Local\Temp\ccuMtzkg.s 			page 18


 970              	.L52:
 971 01c4 00000000 		.word	__stack_chk_guard
 972 01c8 00000000 		.word	.LANCHOR0
 973 01cc 4001F000 		.word	15728960
 974              		.cfi_endproc
 975              	.LFE261:
 976              		.size	po8030_set_qvga, .-po8030_set_qvga
 977              		.section	.text.po8030_set_qqvga,"ax",%progbits
 978              		.align	1
 979              		.p2align 4,,15
 980              		.global	po8030_set_qqvga
 981              		.syntax unified
 982              		.thumb
 983              		.thumb_func
 984              		.fpu fpv4-sp-d16
 985              		.type	po8030_set_qqvga, %function
 986              	po8030_set_qqvga:
 987              	.LFB262:
 988              		.loc 1 396 0
 989              		.cfi_startproc
 990              		@ args = 0, pretend = 0, frame = 8
 991              		@ frame_needed = 0, uses_anonymous_args = 0
 992 0000 10B5     		push	{r4, lr}
 993              		.cfi_def_cfa_offset 8
 994              		.cfi_offset 4, -8
 995              		.cfi_offset 14, -4
 996 0002 704C     		ldr	r4, .L60
 997 0004 82B0     		sub	sp, sp, #8
 998              		.cfi_def_cfa_offset 16
 999              		.loc 1 396 0
 1000 0006 2368     		ldr	r3, [r4]
 1001 0008 0193     		str	r3, [sp, #4]
 1002              	.LVL148:
 1003              	.LBB126:
 1004              	.LBB127:
 1005              		.loc 1 119 0
 1006 000a 0022     		movs	r2, #0
 1007 000c 0321     		movs	r1, #3
 1008 000e 6E20     		movs	r0, #110
 1009 0010 FFF7FEFF 		bl	write_reg
 1010              	.LVL149:
 1011              	.LBE127:
 1012              	.LBE126:
 1013              		.loc 1 399 0
 1014 0014 30B1     		cbz	r0, .L58
 1015              	.L55:
 1016              		.loc 1 495 0
 1017 0016 019A     		ldr	r2, [sp, #4]
 1018 0018 2368     		ldr	r3, [r4]
 1019 001a 9A42     		cmp	r2, r3
 1020 001c 40F0D080 		bne	.L59
 1021 0020 02B0     		add	sp, sp, #8
 1022              		.cfi_remember_state
 1023              		.cfi_def_cfa_offset 8
 1024              		@ sp needed
 1025 0022 10BD     		pop	{r4, pc}
 1026              	.L58:
ARM GAS  C:\Users\mathi\AppData\Local\Temp\ccuMtzkg.s 			page 19


 1027              		.cfi_restore_state
 1028              		.loc 1 403 0
 1029 0024 0246     		mov	r2, r0
 1030 0026 0821     		movs	r1, #8
 1031 0028 6E20     		movs	r0, #110
 1032 002a FFF7FEFF 		bl	write_reg
 1033              	.LVL150:
 1034 002e 0028     		cmp	r0, #0
 1035 0030 F1D1     		bne	.L55
 1036              		.loc 1 406 0
 1037 0032 0122     		movs	r2, #1
 1038 0034 0921     		movs	r1, #9
 1039 0036 6E20     		movs	r0, #110
 1040              	.LVL151:
 1041 0038 FFF7FEFF 		bl	write_reg
 1042              	.LVL152:
 1043 003c 0028     		cmp	r0, #0
 1044 003e EAD1     		bne	.L55
 1045              		.loc 1 409 0
 1046 0040 0246     		mov	r2, r0
 1047 0042 0A21     		movs	r1, #10
 1048 0044 6E20     		movs	r0, #110
 1049              	.LVL153:
 1050 0046 FFF7FEFF 		bl	write_reg
 1051              	.LVL154:
 1052 004a 0028     		cmp	r0, #0
 1053 004c E3D1     		bne	.L55
 1054              		.loc 1 412 0
 1055 004e 0122     		movs	r2, #1
 1056 0050 0B21     		movs	r1, #11
 1057 0052 6E20     		movs	r0, #110
 1058              	.LVL155:
 1059 0054 FFF7FEFF 		bl	write_reg
 1060              	.LVL156:
 1061 0058 0028     		cmp	r0, #0
 1062 005a DCD1     		bne	.L55
 1063              	.LBB128:
 1064              	.LBB129:
 1065              		.loc 1 415 0
 1066 005c 0246     		mov	r2, r0
 1067 005e 0C21     		movs	r1, #12
 1068 0060 6E20     		movs	r0, #110
 1069              	.LVL157:
 1070 0062 FFF7FEFF 		bl	write_reg
 1071              	.LVL158:
 1072 0066 0028     		cmp	r0, #0
 1073 0068 D5D1     		bne	.L55
 1074              		.loc 1 418 0
 1075 006a A022     		movs	r2, #160
 1076 006c 0D21     		movs	r1, #13
 1077 006e 6E20     		movs	r0, #110
 1078              	.LVL159:
 1079 0070 FFF7FEFF 		bl	write_reg
 1080              	.LVL160:
 1081 0074 0028     		cmp	r0, #0
 1082 0076 CED1     		bne	.L55
 1083              		.loc 1 421 0
ARM GAS  C:\Users\mathi\AppData\Local\Temp\ccuMtzkg.s 			page 20


 1084 0078 0246     		mov	r2, r0
 1085 007a 0E21     		movs	r1, #14
 1086 007c 6E20     		movs	r0, #110
 1087              	.LVL161:
 1088 007e FFF7FEFF 		bl	write_reg
 1089              	.LVL162:
 1090 0082 0028     		cmp	r0, #0
 1091 0084 C7D1     		bne	.L55
 1092              		.loc 1 424 0
 1093 0086 7822     		movs	r2, #120
 1094 0088 0F21     		movs	r1, #15
 1095 008a 6E20     		movs	r0, #110
 1096              	.LVL163:
 1097 008c FFF7FEFF 		bl	write_reg
 1098              	.LVL164:
 1099 0090 0028     		cmp	r0, #0
 1100 0092 C0D1     		bne	.L55
 1101              		.loc 1 428 0
 1102 0094 0246     		mov	r2, r0
 1103 0096 3521     		movs	r1, #53
 1104 0098 6E20     		movs	r0, #110
 1105              	.LVL165:
 1106 009a FFF7FEFF 		bl	write_reg
 1107              	.LVL166:
 1108 009e 0028     		cmp	r0, #0
 1109 00a0 B9D1     		bne	.L55
 1110              		.loc 1 431 0
 1111 00a2 0122     		movs	r2, #1
 1112 00a4 3621     		movs	r1, #54
 1113 00a6 6E20     		movs	r0, #110
 1114              	.LVL167:
 1115 00a8 FFF7FEFF 		bl	write_reg
 1116              	.LVL168:
 1117 00ac 0028     		cmp	r0, #0
 1118 00ae B2D1     		bne	.L55
 1119              		.loc 1 434 0
 1120 00b0 0246     		mov	r2, r0
 1121 00b2 3721     		movs	r1, #55
 1122 00b4 6E20     		movs	r0, #110
 1123              	.LVL169:
 1124 00b6 FFF7FEFF 		bl	write_reg
 1125              	.LVL170:
 1126 00ba 0028     		cmp	r0, #0
 1127 00bc ABD1     		bne	.L55
 1128              		.loc 1 437 0
 1129 00be A022     		movs	r2, #160
 1130 00c0 3821     		movs	r1, #56
 1131 00c2 6E20     		movs	r0, #110
 1132              	.LVL171:
 1133 00c4 FFF7FEFF 		bl	write_reg
 1134              	.LVL172:
 1135 00c8 0028     		cmp	r0, #0
 1136 00ca A4D1     		bne	.L55
 1137              		.loc 1 440 0
 1138 00cc 0246     		mov	r2, r0
 1139 00ce 3921     		movs	r1, #57
 1140 00d0 6E20     		movs	r0, #110
ARM GAS  C:\Users\mathi\AppData\Local\Temp\ccuMtzkg.s 			page 21


 1141              	.LVL173:
 1142 00d2 FFF7FEFF 		bl	write_reg
 1143              	.LVL174:
 1144 00d6 0028     		cmp	r0, #0
 1145 00d8 9DD1     		bne	.L55
 1146              		.loc 1 443 0
 1147 00da 0122     		movs	r2, #1
 1148 00dc 3A21     		movs	r1, #58
 1149 00de 6E20     		movs	r0, #110
 1150              	.LVL175:
 1151 00e0 FFF7FEFF 		bl	write_reg
 1152              	.LVL176:
 1153 00e4 0028     		cmp	r0, #0
 1154 00e6 96D1     		bne	.L55
 1155              		.loc 1 446 0
 1156 00e8 0246     		mov	r2, r0
 1157 00ea 3B21     		movs	r1, #59
 1158 00ec 6E20     		movs	r0, #110
 1159              	.LVL177:
 1160 00ee FFF7FEFF 		bl	write_reg
 1161              	.LVL178:
 1162 00f2 0028     		cmp	r0, #0
 1163 00f4 8FD1     		bne	.L55
 1164              		.loc 1 449 0
 1165 00f6 7822     		movs	r2, #120
 1166 00f8 3C21     		movs	r1, #60
 1167 00fa 6E20     		movs	r0, #110
 1168              	.LVL179:
 1169 00fc FFF7FEFF 		bl	write_reg
 1170              	.LVL180:
 1171 0100 0028     		cmp	r0, #0
 1172 0102 88D1     		bne	.L55
 1173              		.loc 1 453 0
 1174 0104 0246     		mov	r2, r0
 1175 0106 3D21     		movs	r1, #61
 1176 0108 6E20     		movs	r0, #110
 1177              	.LVL181:
 1178 010a FFF7FEFF 		bl	write_reg
 1179              	.LVL182:
 1180 010e 0028     		cmp	r0, #0
 1181 0110 81D1     		bne	.L55
 1182              		.loc 1 456 0
 1183 0112 3622     		movs	r2, #54
 1184 0114 3E21     		movs	r1, #62
 1185 0116 6E20     		movs	r0, #110
 1186              	.LVL183:
 1187 0118 FFF7FEFF 		bl	write_reg
 1188              	.LVL184:
 1189 011c 0028     		cmp	r0, #0
 1190 011e 7FF47AAF 		bne	.L55
 1191              		.loc 1 459 0
 1192 0122 0246     		mov	r2, r0
 1193 0124 3F21     		movs	r1, #63
 1194 0126 6E20     		movs	r0, #110
 1195              	.LVL185:
 1196 0128 FFF7FEFF 		bl	write_reg
 1197              	.LVL186:
ARM GAS  C:\Users\mathi\AppData\Local\Temp\ccuMtzkg.s 			page 22


 1198 012c 0028     		cmp	r0, #0
 1199 012e 7FF472AF 		bne	.L55
 1200              		.loc 1 462 0
 1201 0132 6B22     		movs	r2, #107
 1202 0134 4021     		movs	r1, #64
 1203 0136 6E20     		movs	r0, #110
 1204              	.LVL187:
 1205 0138 FFF7FEFF 		bl	write_reg
 1206              	.LVL188:
 1207 013c 0028     		cmp	r0, #0
 1208 013e 7FF46AAF 		bne	.L55
 1209              		.loc 1 465 0
 1210 0142 0246     		mov	r2, r0
 1211 0144 4121     		movs	r1, #65
 1212 0146 6E20     		movs	r0, #110
 1213              	.LVL189:
 1214 0148 FFF7FEFF 		bl	write_reg
 1215              	.LVL190:
 1216 014c 0028     		cmp	r0, #0
 1217 014e 7FF462AF 		bne	.L55
 1218              		.loc 1 468 0
 1219 0152 2922     		movs	r2, #41
 1220 0154 4221     		movs	r1, #66
 1221 0156 6E20     		movs	r0, #110
 1222              	.LVL191:
 1223 0158 FFF7FEFF 		bl	write_reg
 1224              	.LVL192:
 1225 015c 0028     		cmp	r0, #0
 1226 015e 7FF45AAF 		bne	.L55
 1227              		.loc 1 471 0
 1228 0162 0246     		mov	r2, r0
 1229 0164 4321     		movs	r1, #67
 1230 0166 6E20     		movs	r0, #110
 1231              	.LVL193:
 1232 0168 FFF7FEFF 		bl	write_reg
 1233              	.LVL194:
 1234 016c 0028     		cmp	r0, #0
 1235 016e 7FF452AF 		bne	.L55
 1236              		.loc 1 474 0
 1237 0172 5022     		movs	r2, #80
 1238 0174 4421     		movs	r1, #68
 1239 0176 6E20     		movs	r0, #110
 1240              	.LVL195:
 1241 0178 FFF7FEFF 		bl	write_reg
 1242              	.LVL196:
 1243 017c 0028     		cmp	r0, #0
 1244 017e 7FF44AAF 		bne	.L55
 1245              	.LVL197:
 1246              	.LBB130:
 1247              	.LBB131:
 1248              		.loc 1 119 0
 1249 0182 0122     		movs	r2, #1
 1250 0184 0321     		movs	r1, #3
 1251 0186 6E20     		movs	r0, #110
 1252              	.LVL198:
 1253 0188 FFF7FEFF 		bl	write_reg
 1254              	.LVL199:
ARM GAS  C:\Users\mathi\AppData\Local\Temp\ccuMtzkg.s 			page 23


 1255              	.LBE131:
 1256              	.LBE130:
 1257              		.loc 1 478 0
 1258 018c 0028     		cmp	r0, #0
 1259 018e 7FF442AF 		bne	.L55
 1260              		.loc 1 482 0
 1261 0192 8022     		movs	r2, #128
 1262 0194 9321     		movs	r1, #147
 1263 0196 6E20     		movs	r0, #110
 1264 0198 FFF7FEFF 		bl	write_reg
 1265              	.LVL200:
 1266 019c 0028     		cmp	r0, #0
 1267 019e 7FF43AAF 		bne	.L55
 1268              		.loc 1 485 0
 1269 01a2 8022     		movs	r2, #128
 1270 01a4 9421     		movs	r1, #148
 1271 01a6 6E20     		movs	r0, #110
 1272              	.LVL201:
 1273 01a8 FFF7FEFF 		bl	write_reg
 1274              	.LVL202:
 1275 01ac 0028     		cmp	r0, #0
 1276 01ae 7FF432AF 		bne	.L55
 1277              		.loc 1 489 0
 1278 01b2 054B     		ldr	r3, .L60+4
 1279 01b4 054A     		ldr	r2, .L60+8
 1280 01b6 1A60     		str	r2, [r3]
 1281              		.loc 1 491 0
 1282 01b8 2022     		movs	r2, #32
 1283 01ba 5A71     		strb	r2, [r3, #5]
 1284              		.loc 1 492 0
 1285 01bc 9A71     		strb	r2, [r3, #6]
 1286 01be 2AE7     		b	.L55
 1287              	.LVL203:
 1288              	.L59:
 1289              	.LBE129:
 1290              	.LBE128:
 1291              		.loc 1 495 0
 1292 01c0 FFF7FEFF 		bl	__stack_chk_fail
 1293              	.LVL204:
 1294              	.L61:
 1295              		.align	2
 1296              	.L60:
 1297 01c4 00000000 		.word	__stack_chk_guard
 1298 01c8 00000000 		.word	.LANCHOR0
 1299 01cc A0007800 		.word	7864480
 1300              		.cfi_endproc
 1301              	.LFE262:
 1302              		.size	po8030_set_qqvga, .-po8030_set_qqvga
 1303              		.section	.text.po8030_set_size,"ax",%progbits
 1304              		.align	1
 1305              		.p2align 4,,15
 1306              		.global	po8030_set_size
 1307              		.syntax unified
 1308              		.thumb
 1309              		.thumb_func
 1310              		.fpu fpv4-sp-d16
 1311              		.type	po8030_set_size, %function
ARM GAS  C:\Users\mathi\AppData\Local\Temp\ccuMtzkg.s 			page 24


 1312              	po8030_set_size:
 1313              	.LFB263:
 1314              		.loc 1 507 0
 1315              		.cfi_startproc
 1316              		@ args = 0, pretend = 0, frame = 8
 1317              		@ frame_needed = 0, uses_anonymous_args = 0
 1318              	.LVL205:
 1319 0000 10B5     		push	{r4, lr}
 1320              		.cfi_def_cfa_offset 8
 1321              		.cfi_offset 4, -8
 1322              		.cfi_offset 14, -4
 1323 0002 784C     		ldr	r4, .L74
 1324 0004 82B0     		sub	sp, sp, #8
 1325              		.cfi_def_cfa_offset 16
 1326              		.loc 1 507 0
 1327 0006 2368     		ldr	r3, [r4]
 1328 0008 0193     		str	r3, [sp, #4]
 1329              		.loc 1 508 0
 1330 000a A0B1     		cbz	r0, .L71
 1331              		.loc 1 510 0
 1332 000c 0128     		cmp	r0, #1
 1333 000e 00F0CE81 		beq	.L72
 1334              	.LVL206:
 1335              	.LBB154:
 1336              	.LBB155:
 1337              		.loc 1 512 0
 1338 0012 0228     		cmp	r0, #2
 1339 0014 40F0D481 		bne	.L68
 1340              	.LVL207:
 1341              	.LBB156:
 1342              	.LBB157:
 1343              	.LBB158:
 1344              	.LBB159:
 1345              		.loc 1 119 0
 1346 0018 0022     		movs	r2, #0
 1347 001a 0321     		movs	r1, #3
 1348 001c 6E20     		movs	r0, #110
 1349              	.LVL208:
 1350 001e FFF7FEFF 		bl	write_reg
 1351              	.LVL209:
 1352              	.LBE159:
 1353              	.LBE158:
 1354              		.loc 1 399 0
 1355 0022 0028     		cmp	r0, #0
 1356 0024 00F0E480 		beq	.L73
 1357              	.LVL210:
 1358              	.L64:
 1359              	.LBE157:
 1360              	.LBE156:
 1361              	.LBE155:
 1362              	.LBE154:
 1363              		.loc 1 517 0
 1364 0028 019A     		ldr	r2, [sp, #4]
 1365 002a 2368     		ldr	r3, [r4]
 1366 002c 9A42     		cmp	r2, r3
 1367 002e 40F0CA81 		bne	.L70
 1368 0032 02B0     		add	sp, sp, #8
ARM GAS  C:\Users\mathi\AppData\Local\Temp\ccuMtzkg.s 			page 25


 1369              		.cfi_remember_state
 1370              		.cfi_def_cfa_offset 8
 1371              		@ sp needed
 1372 0034 10BD     		pop	{r4, pc}
 1373              	.LVL211:
 1374              	.L71:
 1375              		.cfi_restore_state
 1376              	.LBB168:
 1377              	.LBB169:
 1378              	.LBB170:
 1379              	.LBB171:
 1380              		.loc 1 119 0
 1381 0036 0246     		mov	r2, r0
 1382 0038 0321     		movs	r1, #3
 1383 003a 6E20     		movs	r0, #110
 1384              	.LVL212:
 1385 003c FFF7FEFF 		bl	write_reg
 1386              	.LVL213:
 1387              	.LBE171:
 1388              	.LBE170:
 1389              		.loc 1 181 0
 1390 0040 0028     		cmp	r0, #0
 1391 0042 F1D1     		bne	.L64
 1392              		.loc 1 185 0
 1393 0044 0246     		mov	r2, r0
 1394 0046 0821     		movs	r1, #8
 1395 0048 6E20     		movs	r0, #110
 1396 004a FFF7FEFF 		bl	write_reg
 1397              	.LVL214:
 1398 004e 0028     		cmp	r0, #0
 1399 0050 EAD1     		bne	.L64
 1400              		.loc 1 188 0
 1401 0052 0122     		movs	r2, #1
 1402 0054 0921     		movs	r1, #9
 1403 0056 6E20     		movs	r0, #110
 1404              	.LVL215:
 1405 0058 FFF7FEFF 		bl	write_reg
 1406              	.LVL216:
 1407 005c 0028     		cmp	r0, #0
 1408 005e E3D1     		bne	.L64
 1409              		.loc 1 191 0
 1410 0060 0246     		mov	r2, r0
 1411 0062 0A21     		movs	r1, #10
 1412 0064 6E20     		movs	r0, #110
 1413              	.LVL217:
 1414 0066 FFF7FEFF 		bl	write_reg
 1415              	.LVL218:
 1416 006a 0028     		cmp	r0, #0
 1417 006c DCD1     		bne	.L64
 1418              		.loc 1 194 0
 1419 006e 0122     		movs	r2, #1
 1420 0070 0B21     		movs	r1, #11
 1421 0072 6E20     		movs	r0, #110
 1422              	.LVL219:
 1423 0074 FFF7FEFF 		bl	write_reg
 1424              	.LVL220:
 1425 0078 0028     		cmp	r0, #0
ARM GAS  C:\Users\mathi\AppData\Local\Temp\ccuMtzkg.s 			page 26


 1426 007a D5D1     		bne	.L64
 1427              	.LBB172:
 1428              	.LBB173:
 1429              		.loc 1 197 0
 1430 007c 0222     		movs	r2, #2
 1431 007e 0C21     		movs	r1, #12
 1432 0080 6E20     		movs	r0, #110
 1433              	.LVL221:
 1434 0082 FFF7FEFF 		bl	write_reg
 1435              	.LVL222:
 1436 0086 0028     		cmp	r0, #0
 1437 0088 CED1     		bne	.L64
 1438              		.loc 1 200 0
 1439 008a 8022     		movs	r2, #128
 1440 008c 0D21     		movs	r1, #13
 1441 008e 6E20     		movs	r0, #110
 1442              	.LVL223:
 1443 0090 FFF7FEFF 		bl	write_reg
 1444              	.LVL224:
 1445 0094 0028     		cmp	r0, #0
 1446 0096 C7D1     		bne	.L64
 1447              		.loc 1 203 0
 1448 0098 0122     		movs	r2, #1
 1449 009a 0E21     		movs	r1, #14
 1450 009c 6E20     		movs	r0, #110
 1451              	.LVL225:
 1452 009e FFF7FEFF 		bl	write_reg
 1453              	.LVL226:
 1454 00a2 0028     		cmp	r0, #0
 1455 00a4 C0D1     		bne	.L64
 1456              		.loc 1 206 0
 1457 00a6 E022     		movs	r2, #224
 1458 00a8 0F21     		movs	r1, #15
 1459 00aa 6E20     		movs	r0, #110
 1460              	.LVL227:
 1461 00ac FFF7FEFF 		bl	write_reg
 1462              	.LVL228:
 1463 00b0 0028     		cmp	r0, #0
 1464 00b2 B9D1     		bne	.L64
 1465              		.loc 1 210 0
 1466 00b4 0022     		movs	r2, #0
 1467 00b6 3521     		movs	r1, #53
 1468 00b8 6E20     		movs	r0, #110
 1469              	.LVL229:
 1470 00ba FFF7FEFF 		bl	write_reg
 1471              	.LVL230:
 1472 00be 0028     		cmp	r0, #0
 1473 00c0 B2D1     		bne	.L64
 1474              		.loc 1 213 0
 1475 00c2 0122     		movs	r2, #1
 1476 00c4 3621     		movs	r1, #54
 1477 00c6 6E20     		movs	r0, #110
 1478              	.LVL231:
 1479 00c8 FFF7FEFF 		bl	write_reg
 1480              	.LVL232:
 1481 00cc 0028     		cmp	r0, #0
 1482 00ce ABD1     		bne	.L64
ARM GAS  C:\Users\mathi\AppData\Local\Temp\ccuMtzkg.s 			page 27


 1483              		.loc 1 216 0
 1484 00d0 0222     		movs	r2, #2
 1485 00d2 3721     		movs	r1, #55
 1486 00d4 6E20     		movs	r0, #110
 1487              	.LVL233:
 1488 00d6 FFF7FEFF 		bl	write_reg
 1489              	.LVL234:
 1490 00da 0028     		cmp	r0, #0
 1491 00dc A4D1     		bne	.L64
 1492              		.loc 1 219 0
 1493 00de 8022     		movs	r2, #128
 1494 00e0 3821     		movs	r1, #56
 1495 00e2 6E20     		movs	r0, #110
 1496              	.LVL235:
 1497 00e4 FFF7FEFF 		bl	write_reg
 1498              	.LVL236:
 1499 00e8 0028     		cmp	r0, #0
 1500 00ea 9DD1     		bne	.L64
 1501              		.loc 1 222 0
 1502 00ec 0246     		mov	r2, r0
 1503 00ee 3921     		movs	r1, #57
 1504 00f0 6E20     		movs	r0, #110
 1505              	.LVL237:
 1506 00f2 FFF7FEFF 		bl	write_reg
 1507              	.LVL238:
 1508 00f6 0028     		cmp	r0, #0
 1509 00f8 96D1     		bne	.L64
 1510              		.loc 1 225 0
 1511 00fa 0122     		movs	r2, #1
 1512 00fc 3A21     		movs	r1, #58
 1513 00fe 6E20     		movs	r0, #110
 1514              	.LVL239:
 1515 0100 FFF7FEFF 		bl	write_reg
 1516              	.LVL240:
 1517 0104 0028     		cmp	r0, #0
 1518 0106 8FD1     		bne	.L64
 1519              		.loc 1 228 0
 1520 0108 0122     		movs	r2, #1
 1521 010a 3B21     		movs	r1, #59
 1522 010c 6E20     		movs	r0, #110
 1523              	.LVL241:
 1524 010e FFF7FEFF 		bl	write_reg
 1525              	.LVL242:
 1526 0112 0028     		cmp	r0, #0
 1527 0114 88D1     		bne	.L64
 1528              		.loc 1 231 0
 1529 0116 E022     		movs	r2, #224
 1530 0118 3C21     		movs	r1, #60
 1531 011a 6E20     		movs	r0, #110
 1532              	.LVL243:
 1533 011c FFF7FEFF 		bl	write_reg
 1534              	.LVL244:
 1535 0120 0028     		cmp	r0, #0
 1536 0122 81D1     		bne	.L64
 1537              		.loc 1 235 0
 1538 0124 0246     		mov	r2, r0
 1539 0126 3D21     		movs	r1, #61
ARM GAS  C:\Users\mathi\AppData\Local\Temp\ccuMtzkg.s 			page 28


 1540 0128 6E20     		movs	r0, #110
 1541              	.LVL245:
 1542 012a FFF7FEFF 		bl	write_reg
 1543              	.LVL246:
 1544 012e 0028     		cmp	r0, #0
 1545 0130 7FF47AAF 		bne	.L64
 1546              		.loc 1 238 0
 1547 0134 D622     		movs	r2, #214
 1548 0136 3E21     		movs	r1, #62
 1549 0138 6E20     		movs	r0, #110
 1550              	.LVL247:
 1551 013a FFF7FEFF 		bl	write_reg
 1552              	.LVL248:
 1553 013e 0028     		cmp	r0, #0
 1554 0140 7FF472AF 		bne	.L64
 1555              		.loc 1 241 0
 1556 0144 0122     		movs	r2, #1
 1557 0146 3F21     		movs	r1, #63
 1558 0148 6E20     		movs	r0, #110
 1559              	.LVL249:
 1560 014a FFF7FEFF 		bl	write_reg
 1561              	.LVL250:
 1562 014e 0028     		cmp	r0, #0
 1563 0150 7FF46AAF 		bne	.L64
 1564              		.loc 1 244 0
 1565 0154 AB22     		movs	r2, #171
 1566 0156 4021     		movs	r1, #64
 1567 0158 6E20     		movs	r0, #110
 1568              	.LVL251:
 1569 015a FFF7FEFF 		bl	write_reg
 1570              	.LVL252:
 1571 015e 0028     		cmp	r0, #0
 1572 0160 7FF462AF 		bne	.L64
 1573              		.loc 1 247 0
 1574 0164 0246     		mov	r2, r0
 1575 0166 4121     		movs	r1, #65
 1576 0168 6E20     		movs	r0, #110
 1577              	.LVL253:
 1578 016a FFF7FEFF 		bl	write_reg
 1579              	.LVL254:
 1580 016e 0028     		cmp	r0, #0
 1581 0170 7FF45AAF 		bne	.L64
 1582              		.loc 1 250 0
 1583 0174 A122     		movs	r2, #161
 1584 0176 4221     		movs	r1, #66
 1585 0178 6E20     		movs	r0, #110
 1586              	.LVL255:
 1587 017a FFF7FEFF 		bl	write_reg
 1588              	.LVL256:
 1589 017e 0028     		cmp	r0, #0
 1590 0180 7FF452AF 		bne	.L64
 1591              		.loc 1 253 0
 1592 0184 0122     		movs	r2, #1
 1593 0186 4321     		movs	r1, #67
 1594 0188 6E20     		movs	r0, #110
 1595              	.LVL257:
 1596 018a FFF7FEFF 		bl	write_reg
ARM GAS  C:\Users\mathi\AppData\Local\Temp\ccuMtzkg.s 			page 29


 1597              	.LVL258:
 1598 018e 0028     		cmp	r0, #0
 1599 0190 7FF44AAF 		bne	.L64
 1600              		.loc 1 256 0
 1601 0194 4022     		movs	r2, #64
 1602 0196 4421     		movs	r1, #68
 1603 0198 6E20     		movs	r0, #110
 1604              	.LVL259:
 1605 019a FFF7FEFF 		bl	write_reg
 1606              	.LVL260:
 1607 019e 0028     		cmp	r0, #0
 1608 01a0 7FF442AF 		bne	.L64
 1609              	.LVL261:
 1610              	.LBB174:
 1611              	.LBB175:
 1612              		.loc 1 119 0
 1613 01a4 0122     		movs	r2, #1
 1614 01a6 0321     		movs	r1, #3
 1615 01a8 6E20     		movs	r0, #110
 1616              	.LVL262:
 1617 01aa FFF7FEFF 		bl	write_reg
 1618              	.LVL263:
 1619              	.LBE175:
 1620              	.LBE174:
 1621              		.loc 1 260 0
 1622 01ae 0028     		cmp	r0, #0
 1623 01b0 7FF43AAF 		bne	.L64
 1624              		.loc 1 264 0
 1625 01b4 2022     		movs	r2, #32
 1626 01b6 9321     		movs	r1, #147
 1627 01b8 6E20     		movs	r0, #110
 1628 01ba FFF7FEFF 		bl	write_reg
 1629              	.LVL264:
 1630 01be 0028     		cmp	r0, #0
 1631 01c0 7FF432AF 		bne	.L64
 1632              		.loc 1 267 0
 1633 01c4 2022     		movs	r2, #32
 1634 01c6 9421     		movs	r1, #148
 1635 01c8 6E20     		movs	r0, #110
 1636              	.LVL265:
 1637 01ca FFF7FEFF 		bl	write_reg
 1638              	.LVL266:
 1639 01ce 0028     		cmp	r0, #0
 1640 01d0 7FF42AAF 		bne	.L64
 1641              		.loc 1 271 0
 1642 01d4 044B     		ldr	r3, .L74+4
 1643 01d6 054A     		ldr	r2, .L74+8
 1644 01d8 1A60     		str	r2, [r3]
 1645              		.loc 1 273 0
 1646 01da 2022     		movs	r2, #32
 1647 01dc 5A71     		strb	r2, [r3, #5]
 1648              		.loc 1 274 0
 1649 01de 9A71     		strb	r2, [r3, #6]
 1650 01e0 22E7     		b	.L64
 1651              	.L75:
 1652 01e2 00BF     		.align	2
 1653              	.L74:
ARM GAS  C:\Users\mathi\AppData\Local\Temp\ccuMtzkg.s 			page 30


 1654 01e4 00000000 		.word	__stack_chk_guard
 1655 01e8 00000000 		.word	.LANCHOR0
 1656 01ec 8002E001 		.word	31457920
 1657              	.LVL267:
 1658              	.L73:
 1659              	.LBE173:
 1660              	.LBE172:
 1661              	.LBE169:
 1662              	.LBE168:
 1663              	.LBB176:
 1664              	.LBB166:
 1665              	.LBB165:
 1666              	.LBB164:
 1667              		.loc 1 403 0
 1668 01f0 0246     		mov	r2, r0
 1669 01f2 0821     		movs	r1, #8
 1670 01f4 6E20     		movs	r0, #110
 1671 01f6 FFF7FEFF 		bl	write_reg
 1672              	.LVL268:
 1673 01fa 0028     		cmp	r0, #0
 1674 01fc 7FF414AF 		bne	.L64
 1675              		.loc 1 406 0
 1676 0200 0122     		movs	r2, #1
 1677 0202 0921     		movs	r1, #9
 1678 0204 6E20     		movs	r0, #110
 1679              	.LVL269:
 1680 0206 FFF7FEFF 		bl	write_reg
 1681              	.LVL270:
 1682 020a 0028     		cmp	r0, #0
 1683 020c 7FF40CAF 		bne	.L64
 1684              		.loc 1 409 0
 1685 0210 0246     		mov	r2, r0
 1686 0212 0A21     		movs	r1, #10
 1687 0214 6E20     		movs	r0, #110
 1688              	.LVL271:
 1689 0216 FFF7FEFF 		bl	write_reg
 1690              	.LVL272:
 1691 021a 0028     		cmp	r0, #0
 1692 021c 7FF404AF 		bne	.L64
 1693              		.loc 1 412 0
 1694 0220 0122     		movs	r2, #1
 1695 0222 0B21     		movs	r1, #11
 1696 0224 6E20     		movs	r0, #110
 1697              	.LVL273:
 1698 0226 FFF7FEFF 		bl	write_reg
 1699              	.LVL274:
 1700 022a 0028     		cmp	r0, #0
 1701 022c 7FF4FCAE 		bne	.L64
 1702              	.LBB160:
 1703              	.LBB161:
 1704              		.loc 1 415 0
 1705 0230 0246     		mov	r2, r0
 1706 0232 0C21     		movs	r1, #12
 1707 0234 6E20     		movs	r0, #110
 1708              	.LVL275:
 1709 0236 FFF7FEFF 		bl	write_reg
 1710              	.LVL276:
ARM GAS  C:\Users\mathi\AppData\Local\Temp\ccuMtzkg.s 			page 31


 1711 023a 0028     		cmp	r0, #0
 1712 023c 7FF4F4AE 		bne	.L64
 1713              		.loc 1 418 0
 1714 0240 A022     		movs	r2, #160
 1715 0242 0D21     		movs	r1, #13
 1716 0244 6E20     		movs	r0, #110
 1717              	.LVL277:
 1718 0246 FFF7FEFF 		bl	write_reg
 1719              	.LVL278:
 1720 024a 0028     		cmp	r0, #0
 1721 024c 7FF4ECAE 		bne	.L64
 1722              		.loc 1 421 0
 1723 0250 0022     		movs	r2, #0
 1724 0252 0E21     		movs	r1, #14
 1725 0254 6E20     		movs	r0, #110
 1726              	.LVL279:
 1727 0256 FFF7FEFF 		bl	write_reg
 1728              	.LVL280:
 1729 025a 0028     		cmp	r0, #0
 1730 025c 7FF4E4AE 		bne	.L64
 1731              		.loc 1 424 0
 1732 0260 7822     		movs	r2, #120
 1733 0262 0F21     		movs	r1, #15
 1734 0264 6E20     		movs	r0, #110
 1735              	.LVL281:
 1736 0266 FFF7FEFF 		bl	write_reg
 1737              	.LVL282:
 1738 026a 0028     		cmp	r0, #0
 1739 026c 7FF4DCAE 		bne	.L64
 1740              		.loc 1 428 0
 1741 0270 0246     		mov	r2, r0
 1742 0272 3521     		movs	r1, #53
 1743 0274 6E20     		movs	r0, #110
 1744              	.LVL283:
 1745 0276 FFF7FEFF 		bl	write_reg
 1746              	.LVL284:
 1747 027a 0028     		cmp	r0, #0
 1748 027c 7FF4D4AE 		bne	.L64
 1749              		.loc 1 431 0
 1750 0280 0122     		movs	r2, #1
 1751 0282 3621     		movs	r1, #54
 1752 0284 6E20     		movs	r0, #110
 1753              	.LVL285:
 1754 0286 FFF7FEFF 		bl	write_reg
 1755              	.LVL286:
 1756 028a 0028     		cmp	r0, #0
 1757 028c 7FF4CCAE 		bne	.L64
 1758              		.loc 1 434 0
 1759 0290 0246     		mov	r2, r0
 1760 0292 3721     		movs	r1, #55
 1761 0294 6E20     		movs	r0, #110
 1762              	.LVL287:
 1763 0296 FFF7FEFF 		bl	write_reg
 1764              	.LVL288:
 1765 029a 0028     		cmp	r0, #0
 1766 029c 7FF4C4AE 		bne	.L64
 1767              		.loc 1 437 0
ARM GAS  C:\Users\mathi\AppData\Local\Temp\ccuMtzkg.s 			page 32


 1768 02a0 A022     		movs	r2, #160
 1769 02a2 3821     		movs	r1, #56
 1770 02a4 6E20     		movs	r0, #110
 1771              	.LVL289:
 1772 02a6 FFF7FEFF 		bl	write_reg
 1773              	.LVL290:
 1774 02aa 0028     		cmp	r0, #0
 1775 02ac 7FF4BCAE 		bne	.L64
 1776              		.loc 1 440 0
 1777 02b0 0246     		mov	r2, r0
 1778 02b2 3921     		movs	r1, #57
 1779 02b4 6E20     		movs	r0, #110
 1780              	.LVL291:
 1781 02b6 FFF7FEFF 		bl	write_reg
 1782              	.LVL292:
 1783 02ba 0028     		cmp	r0, #0
 1784 02bc 7FF4B4AE 		bne	.L64
 1785              		.loc 1 443 0
 1786 02c0 0122     		movs	r2, #1
 1787 02c2 3A21     		movs	r1, #58
 1788 02c4 6E20     		movs	r0, #110
 1789              	.LVL293:
 1790 02c6 FFF7FEFF 		bl	write_reg
 1791              	.LVL294:
 1792 02ca 0028     		cmp	r0, #0
 1793 02cc 7FF4ACAE 		bne	.L64
 1794              		.loc 1 446 0
 1795 02d0 0246     		mov	r2, r0
 1796 02d2 3B21     		movs	r1, #59
 1797 02d4 6E20     		movs	r0, #110
 1798              	.LVL295:
 1799 02d6 FFF7FEFF 		bl	write_reg
 1800              	.LVL296:
 1801 02da 0028     		cmp	r0, #0
 1802 02dc 7FF4A4AE 		bne	.L64
 1803              		.loc 1 449 0
 1804 02e0 7822     		movs	r2, #120
 1805 02e2 3C21     		movs	r1, #60
 1806 02e4 6E20     		movs	r0, #110
 1807              	.LVL297:
 1808 02e6 FFF7FEFF 		bl	write_reg
 1809              	.LVL298:
 1810 02ea 0028     		cmp	r0, #0
 1811 02ec 7FF49CAE 		bne	.L64
 1812              		.loc 1 453 0
 1813 02f0 0022     		movs	r2, #0
 1814 02f2 3D21     		movs	r1, #61
 1815 02f4 6E20     		movs	r0, #110
 1816              	.LVL299:
 1817 02f6 FFF7FEFF 		bl	write_reg
 1818              	.LVL300:
 1819 02fa 0028     		cmp	r0, #0
 1820 02fc 7FF494AE 		bne	.L64
 1821              		.loc 1 456 0
 1822 0300 3622     		movs	r2, #54
 1823 0302 3E21     		movs	r1, #62
 1824 0304 6E20     		movs	r0, #110
ARM GAS  C:\Users\mathi\AppData\Local\Temp\ccuMtzkg.s 			page 33


 1825              	.LVL301:
 1826 0306 FFF7FEFF 		bl	write_reg
 1827              	.LVL302:
 1828 030a 0028     		cmp	r0, #0
 1829 030c 7FF48CAE 		bne	.L64
 1830              		.loc 1 459 0
 1831 0310 0246     		mov	r2, r0
 1832 0312 3F21     		movs	r1, #63
 1833 0314 6E20     		movs	r0, #110
 1834              	.LVL303:
 1835 0316 FFF7FEFF 		bl	write_reg
 1836              	.LVL304:
 1837 031a 0028     		cmp	r0, #0
 1838 031c 7FF484AE 		bne	.L64
 1839              		.loc 1 462 0
 1840 0320 6B22     		movs	r2, #107
 1841 0322 4021     		movs	r1, #64
 1842 0324 6E20     		movs	r0, #110
 1843              	.LVL305:
 1844 0326 FFF7FEFF 		bl	write_reg
 1845              	.LVL306:
 1846 032a 0028     		cmp	r0, #0
 1847 032c 7FF47CAE 		bne	.L64
 1848              		.loc 1 465 0
 1849 0330 0246     		mov	r2, r0
 1850 0332 4121     		movs	r1, #65
 1851 0334 6E20     		movs	r0, #110
 1852              	.LVL307:
 1853 0336 FFF7FEFF 		bl	write_reg
 1854              	.LVL308:
 1855 033a 0028     		cmp	r0, #0
 1856 033c 7FF474AE 		bne	.L64
 1857              		.loc 1 468 0
 1858 0340 2922     		movs	r2, #41
 1859 0342 4221     		movs	r1, #66
 1860 0344 6E20     		movs	r0, #110
 1861              	.LVL309:
 1862 0346 FFF7FEFF 		bl	write_reg
 1863              	.LVL310:
 1864 034a 0028     		cmp	r0, #0
 1865 034c 7FF46CAE 		bne	.L64
 1866              		.loc 1 471 0
 1867 0350 0246     		mov	r2, r0
 1868 0352 4321     		movs	r1, #67
 1869 0354 6E20     		movs	r0, #110
 1870              	.LVL311:
 1871 0356 FFF7FEFF 		bl	write_reg
 1872              	.LVL312:
 1873 035a 0028     		cmp	r0, #0
 1874 035c 7FF464AE 		bne	.L64
 1875              		.loc 1 474 0
 1876 0360 5022     		movs	r2, #80
 1877 0362 4421     		movs	r1, #68
 1878 0364 6E20     		movs	r0, #110
 1879              	.LVL313:
 1880 0366 FFF7FEFF 		bl	write_reg
 1881              	.LVL314:
ARM GAS  C:\Users\mathi\AppData\Local\Temp\ccuMtzkg.s 			page 34


 1882 036a 0028     		cmp	r0, #0
 1883 036c 7FF45CAE 		bne	.L64
 1884              	.LVL315:
 1885              	.LBB162:
 1886              	.LBB163:
 1887              		.loc 1 119 0
 1888 0370 0122     		movs	r2, #1
 1889 0372 0321     		movs	r1, #3
 1890 0374 6E20     		movs	r0, #110
 1891              	.LVL316:
 1892 0376 FFF7FEFF 		bl	write_reg
 1893              	.LVL317:
 1894              	.LBE163:
 1895              	.LBE162:
 1896              		.loc 1 478 0
 1897 037a 0028     		cmp	r0, #0
 1898 037c 7FF454AE 		bne	.L64
 1899              		.loc 1 482 0
 1900 0380 8022     		movs	r2, #128
 1901 0382 9321     		movs	r1, #147
 1902 0384 6E20     		movs	r0, #110
 1903 0386 FFF7FEFF 		bl	write_reg
 1904              	.LVL318:
 1905 038a 0028     		cmp	r0, #0
 1906 038c 7FF44CAE 		bne	.L64
 1907              		.loc 1 485 0
 1908 0390 8022     		movs	r2, #128
 1909 0392 9421     		movs	r1, #148
 1910 0394 6E20     		movs	r0, #110
 1911              	.LVL319:
 1912 0396 FFF7FEFF 		bl	write_reg
 1913              	.LVL320:
 1914 039a 0028     		cmp	r0, #0
 1915 039c 7FF444AE 		bne	.L64
 1916              		.loc 1 489 0
 1917 03a0 0A4B     		ldr	r3, .L76
 1918 03a2 0B4A     		ldr	r2, .L76+4
 1919 03a4 1A60     		str	r2, [r3]
 1920              		.loc 1 491 0
 1921 03a6 2022     		movs	r2, #32
 1922 03a8 5A71     		strb	r2, [r3, #5]
 1923              		.loc 1 492 0
 1924 03aa 9A71     		strb	r2, [r3, #6]
 1925 03ac 3CE6     		b	.L64
 1926              	.LVL321:
 1927              	.L72:
 1928              	.LBE161:
 1929              	.LBE160:
 1930              	.LBE164:
 1931              	.LBE165:
 1932              	.LBE166:
 1933              	.LBE176:
 1934              		.loc 1 511 0
 1935 03ae 019A     		ldr	r2, [sp, #4]
 1936 03b0 2368     		ldr	r3, [r4]
 1937 03b2 9A42     		cmp	r2, r3
 1938 03b4 07D1     		bne	.L70
ARM GAS  C:\Users\mathi\AppData\Local\Temp\ccuMtzkg.s 			page 35


 1939              		.loc 1 517 0
 1940 03b6 02B0     		add	sp, sp, #8
 1941              		.cfi_remember_state
 1942              		.cfi_def_cfa_offset 8
 1943              		@ sp needed
 1944 03b8 BDE81040 		pop	{r4, lr}
 1945              		.cfi_restore 14
 1946              		.cfi_restore 4
 1947              		.cfi_def_cfa_offset 0
 1948              		.loc 1 511 0
 1949 03bc FFF7FEBF 		b	po8030_set_qvga
 1950              	.LVL322:
 1951              	.L68:
 1952              		.cfi_restore_state
 1953              	.LBB177:
 1954              	.LBB167:
 1955              		.loc 1 515 0
 1956 03c0 4FF0FF30 		mov	r0, #-1
 1957              	.LVL323:
 1958 03c4 30E6     		b	.L64
 1959              	.LVL324:
 1960              	.L70:
 1961              	.LBE167:
 1962              	.LBE177:
 1963              		.loc 1 517 0
 1964 03c6 FFF7FEFF 		bl	__stack_chk_fail
 1965              	.LVL325:
 1966              	.L77:
 1967 03ca 00BF     		.align	2
 1968              	.L76:
 1969 03cc 00000000 		.word	.LANCHOR0
 1970 03d0 A0007800 		.word	7864480
 1971              		.cfi_endproc
 1972              	.LFE263:
 1973              		.size	po8030_set_size, .-po8030_set_size
 1974              		.section	.text.po8030_set_scale_buffer_size,"ax",%progbits
 1975              		.align	1
 1976              		.p2align 4,,15
 1977              		.global	po8030_set_scale_buffer_size
 1978              		.syntax unified
 1979              		.thumb
 1980              		.thumb_func
 1981              		.fpu fpv4-sp-d16
 1982              		.type	po8030_set_scale_buffer_size, %function
 1983              	po8030_set_scale_buffer_size:
 1984              	.LFB264:
 1985              		.loc 1 530 0
 1986              		.cfi_startproc
 1987              		@ args = 0, pretend = 0, frame = 8
 1988              		@ frame_needed = 0, uses_anonymous_args = 0
 1989              	.LVL326:
 1990 0000 70B5     		push	{r4, r5, r6, lr}
 1991              		.cfi_def_cfa_offset 16
 1992              		.cfi_offset 4, -16
 1993              		.cfi_offset 5, -12
 1994              		.cfi_offset 6, -8
 1995              		.cfi_offset 14, -4
ARM GAS  C:\Users\mathi\AppData\Local\Temp\ccuMtzkg.s 			page 36


 1996 0002 3C4C     		ldr	r4, .L99
 1997 0004 82B0     		sub	sp, sp, #8
 1998              		.cfi_def_cfa_offset 24
 1999              		.loc 1 530 0
 2000 0006 0646     		mov	r6, r0
 2001 0008 0D46     		mov	r5, r1
 2002 000a 2368     		ldr	r3, [r4]
 2003 000c 0193     		str	r3, [sp, #4]
 2004              	.LVL327:
 2005              	.LBB184:
 2006              	.LBB185:
 2007              		.loc 1 119 0
 2008 000e 0122     		movs	r2, #1
 2009 0010 0321     		movs	r1, #3
 2010              	.LVL328:
 2011 0012 6E20     		movs	r0, #110
 2012              	.LVL329:
 2013 0014 FFF7FEFF 		bl	write_reg
 2014              	.LVL330:
 2015              	.LBE185:
 2016              	.LBE184:
 2017              		.loc 1 533 0
 2018 0018 68B9     		cbnz	r0, .L79
 2019              	.LVL331:
 2020              	.LBB186:
 2021              	.LBB187:
 2022              		.loc 1 537 0
 2023 001a 442E     		cmp	r6, #68
 2024 001c 11D0     		beq	.L97
 2025              		.loc 1 567 0
 2026 001e 012D     		cmp	r5, #1
 2027 0020 36D0     		beq	.L87
 2028 0022 27D3     		bcc	.L88
 2029 0024 022D     		cmp	r5, #2
 2030 0026 06D1     		bne	.L79
 2031              		.loc 1 587 0
 2032 0028 0246     		mov	r2, r0
 2033 002a 9521     		movs	r1, #149
 2034 002c 6E20     		movs	r0, #110
 2035 002e FFF7FEFF 		bl	write_reg
 2036              	.LVL332:
 2037 0032 0028     		cmp	r0, #0
 2038 0034 3BD0     		beq	.L98
 2039              	.LVL333:
 2040              	.L79:
 2041              	.LBE187:
 2042              	.LBE186:
 2043              		.loc 1 598 0
 2044 0036 019A     		ldr	r2, [sp, #4]
 2045 0038 2368     		ldr	r3, [r4]
 2046 003a 9A42     		cmp	r2, r3
 2047 003c 35D1     		bne	.L96
 2048 003e 02B0     		add	sp, sp, #8
 2049              		.cfi_remember_state
 2050              		.cfi_def_cfa_offset 16
 2051              		@ sp needed
 2052 0040 70BD     		pop	{r4, r5, r6, pc}
ARM GAS  C:\Users\mathi\AppData\Local\Temp\ccuMtzkg.s 			page 37


 2053              	.LVL334:
 2054              	.L97:
 2055              		.cfi_restore_state
 2056              	.LBB191:
 2057              	.LBB188:
 2058              		.loc 1 538 0
 2059 0042 012D     		cmp	r5, #1
 2060 0044 48D0     		beq	.L81
 2061 0046 39D3     		bcc	.L82
 2062 0048 022D     		cmp	r5, #2
 2063 004a F4D1     		bne	.L79
 2064              		.loc 1 558 0
 2065 004c 0246     		mov	r2, r0
 2066 004e 9521     		movs	r1, #149
 2067 0050 6E20     		movs	r0, #110
 2068 0052 FFF7FEFF 		bl	write_reg
 2069              	.LVL335:
 2070 0056 0028     		cmp	r0, #0
 2071 0058 EDD1     		bne	.L79
 2072              		.loc 1 561 0
 2073 005a 019A     		ldr	r2, [sp, #4]
 2074 005c 2368     		ldr	r3, [r4]
 2075 005e 9A42     		cmp	r2, r3
 2076 0060 08BF     		it	eq
 2077 0062 7C22     		moveq	r2, #124
 2078 0064 21D1     		bne	.L96
 2079              	.L95:
 2080              		.loc 1 590 0
 2081 0066 9621     		movs	r1, #150
 2082 0068 6E20     		movs	r0, #110
 2083              	.LVL336:
 2084              	.LBE188:
 2085              	.LBE191:
 2086              		.loc 1 598 0
 2087 006a 02B0     		add	sp, sp, #8
 2088              		.cfi_remember_state
 2089              		.cfi_def_cfa_offset 16
 2090              		@ sp needed
 2091 006c BDE87040 		pop	{r4, r5, r6, lr}
 2092              		.cfi_restore 14
 2093              		.cfi_restore 6
 2094              		.cfi_restore 5
 2095              		.cfi_restore 4
 2096              		.cfi_def_cfa_offset 0
 2097              	.LVL337:
 2098              	.LBB192:
 2099              	.LBB189:
 2100              		.loc 1 590 0
 2101 0070 FFF7FEBF 		b	write_reg
 2102              	.LVL338:
 2103              	.L88:
 2104              		.cfi_restore_state
 2105              		.loc 1 569 0
 2106 0074 0246     		mov	r2, r0
 2107 0076 9521     		movs	r1, #149
 2108 0078 6E20     		movs	r0, #110
 2109 007a FFF7FEFF 		bl	write_reg
ARM GAS  C:\Users\mathi\AppData\Local\Temp\ccuMtzkg.s 			page 38


 2110              	.LVL339:
 2111 007e 0028     		cmp	r0, #0
 2112 0080 D9D1     		bne	.L79
 2113              		.loc 1 572 0
 2114 0082 019A     		ldr	r2, [sp, #4]
 2115 0084 2368     		ldr	r3, [r4]
 2116 0086 9A42     		cmp	r2, r3
 2117 0088 08BF     		it	eq
 2118 008a 0A22     		moveq	r2, #10
 2119 008c EBD0     		beq	.L95
 2120 008e 0CE0     		b	.L96
 2121              	.LVL340:
 2122              	.L87:
 2123              		.loc 1 578 0
 2124 0090 2A46     		mov	r2, r5
 2125 0092 9521     		movs	r1, #149
 2126 0094 6E20     		movs	r0, #110
 2127 0096 FFF7FEFF 		bl	write_reg
 2128              	.LVL341:
 2129 009a 0028     		cmp	r0, #0
 2130 009c CBD1     		bne	.L79
 2131              		.loc 1 581 0
 2132 009e 019A     		ldr	r2, [sp, #4]
 2133 00a0 2368     		ldr	r3, [r4]
 2134 00a2 9A42     		cmp	r2, r3
 2135 00a4 08BF     		it	eq
 2136 00a6 4622     		moveq	r2, #70
 2137 00a8 DDD0     		beq	.L95
 2138              	.LVL342:
 2139              	.L96:
 2140              	.LBE189:
 2141              	.LBE192:
 2142              		.loc 1 598 0
 2143 00aa FFF7FEFF 		bl	__stack_chk_fail
 2144              	.LVL343:
 2145              	.L98:
 2146              	.LBB193:
 2147              	.LBB190:
 2148              		.loc 1 590 0
 2149 00ae 019A     		ldr	r2, [sp, #4]
 2150 00b0 2368     		ldr	r3, [r4]
 2151 00b2 9A42     		cmp	r2, r3
 2152 00b4 08BF     		it	eq
 2153 00b6 F522     		moveq	r2, #245
 2154 00b8 D5D0     		beq	.L95
 2155 00ba F6E7     		b	.L96
 2156              	.LVL344:
 2157              	.L82:
 2158              		.loc 1 540 0
 2159 00bc 0246     		mov	r2, r0
 2160 00be 9521     		movs	r1, #149
 2161 00c0 6E20     		movs	r0, #110
 2162 00c2 FFF7FEFF 		bl	write_reg
 2163              	.LVL345:
 2164 00c6 0028     		cmp	r0, #0
 2165 00c8 B5D1     		bne	.L79
 2166              		.loc 1 543 0
ARM GAS  C:\Users\mathi\AppData\Local\Temp\ccuMtzkg.s 			page 39


 2167 00ca 019A     		ldr	r2, [sp, #4]
 2168 00cc 2368     		ldr	r3, [r4]
 2169 00ce 9A42     		cmp	r2, r3
 2170 00d0 08BF     		it	eq
 2171 00d2 0822     		moveq	r2, #8
 2172 00d4 C7D0     		beq	.L95
 2173 00d6 E8E7     		b	.L96
 2174              	.LVL346:
 2175              	.L81:
 2176              		.loc 1 549 0
 2177 00d8 0246     		mov	r2, r0
 2178 00da 9521     		movs	r1, #149
 2179 00dc 6E20     		movs	r0, #110
 2180 00de FFF7FEFF 		bl	write_reg
 2181              	.LVL347:
 2182 00e2 0028     		cmp	r0, #0
 2183 00e4 A7D1     		bne	.L79
 2184              		.loc 1 552 0
 2185 00e6 019A     		ldr	r2, [sp, #4]
 2186 00e8 2368     		ldr	r3, [r4]
 2187 00ea 9A42     		cmp	r2, r3
 2188 00ec 08BF     		it	eq
 2189 00ee A422     		moveq	r2, #164
 2190 00f0 B9D0     		beq	.L95
 2191 00f2 DAE7     		b	.L96
 2192              	.L100:
 2193              		.align	2
 2194              	.L99:
 2195 00f4 00000000 		.word	__stack_chk_guard
 2196              	.LBE190:
 2197              	.LBE193:
 2198              		.cfi_endproc
 2199              	.LFE264:
 2200              		.size	po8030_set_scale_buffer_size, .-po8030_set_scale_buffer_size
 2201              		.section	.text.po8030_start,"ax",%progbits
 2202              		.align	1
 2203              		.p2align 4,,15
 2204              		.global	po8030_start
 2205              		.syntax unified
 2206              		.thumb
 2207              		.thumb_func
 2208              		.fpu fpv4-sp-d16
 2209              		.type	po8030_start, %function
 2210              	po8030_start:
 2211              	.LFB265:
 2212              		.loc 1 605 0
 2213              		.cfi_startproc
 2214              		@ args = 0, pretend = 0, frame = 8
 2215              		@ frame_needed = 0, uses_anonymous_args = 0
 2216 0000 30B5     		push	{r4, r5, lr}
 2217              		.cfi_def_cfa_offset 12
 2218              		.cfi_offset 4, -12
 2219              		.cfi_offset 5, -8
 2220              		.cfi_offset 14, -4
 2221 0002 A04C     		ldr	r4, .L109
 2222 0004 83B0     		sub	sp, sp, #12
 2223              		.cfi_def_cfa_offset 24
ARM GAS  C:\Users\mathi\AppData\Local\Temp\ccuMtzkg.s 			page 40


 2224              		.loc 1 605 0
 2225 0006 2368     		ldr	r3, [r4]
 2226 0008 0193     		str	r3, [sp, #4]
 2227              		.loc 1 607 0
 2228 000a FFF7FEFF 		bl	i2c_start
 2229              	.LVL348:
 2230              		.loc 1 623 0
 2231 000e 9E49     		ldr	r1, .L109+4
 2232 0010 9E48     		ldr	r0, .L109+8
 2233 0012 FFF7FEFF 		bl	pwmStart
 2234              	.LVL349:
 2235              		.loc 1 625 0
 2236 0016 0122     		movs	r2, #1
 2237 0018 0021     		movs	r1, #0
 2238 001a 9C48     		ldr	r0, .L109+8
 2239 001c FFF7FEFF 		bl	pwmEnableChannel
 2240              	.LVL350:
 2241              	.LBB216:
 2242              	.LBB217:
 2243              	.LBB218:
 2244              	.LBB219:
 2245              		.loc 1 119 0
 2246 0020 0022     		movs	r2, #0
 2247 0022 0321     		movs	r1, #3
 2248 0024 6E20     		movs	r0, #110
 2249 0026 FFF7FEFF 		bl	write_reg
 2250              	.LVL351:
 2251              	.LBE219:
 2252              	.LBE218:
 2253              		.loc 1 750 0
 2254 002a 30B1     		cbz	r0, .L107
 2255              	.LVL352:
 2256              	.L101:
 2257              	.LBE217:
 2258              	.LBE216:
 2259              		.loc 1 629 0
 2260 002c 019A     		ldr	r2, [sp, #4]
 2261 002e 2368     		ldr	r3, [r4]
 2262 0030 9A42     		cmp	r2, r3
 2263 0032 40F02581 		bne	.L108
 2264 0036 03B0     		add	sp, sp, #12
 2265              		.cfi_remember_state
 2266              		.cfi_def_cfa_offset 12
 2267              		@ sp needed
 2268 0038 30BD     		pop	{r4, r5, pc}
 2269              	.LVL353:
 2270              	.L107:
 2271              		.cfi_restore_state
 2272              	.LBB241:
 2273              	.LBB240:
 2274              		.loc 1 753 0
 2275 003a 0246     		mov	r2, r0
 2276 003c 5B21     		movs	r1, #91
 2277 003e 6E20     		movs	r0, #110
 2278 0040 FFF7FEFF 		bl	write_reg
 2279              	.LVL354:
 2280 0044 0028     		cmp	r0, #0
ARM GAS  C:\Users\mathi\AppData\Local\Temp\ccuMtzkg.s 			page 41


 2281 0046 F1D1     		bne	.L101
 2282              	.LVL355:
 2283              	.LBB220:
 2284              	.LBB221:
 2285              	.LBB222:
 2286              	.LBB223:
 2287              		.loc 1 119 0
 2288 0048 0122     		movs	r2, #1
 2289 004a 0321     		movs	r1, #3
 2290 004c 6E20     		movs	r0, #110
 2291              	.LVL356:
 2292 004e FFF7FEFF 		bl	write_reg
 2293              	.LVL357:
 2294              	.LBE223:
 2295              	.LBE222:
 2296              		.loc 1 135 0
 2297 0052 0028     		cmp	r0, #0
 2298 0054 EAD1     		bne	.L101
 2299              		.loc 1 139 0
 2300 0056 0222     		movs	r2, #2
 2301 0058 4E21     		movs	r1, #78
 2302 005a 6E20     		movs	r0, #110
 2303 005c FFF7FEFF 		bl	write_reg
 2304              	.LVL358:
 2305 0060 0028     		cmp	r0, #0
 2306 0062 E3D1     		bne	.L101
 2307              	.LVL359:
 2308              	.LBB224:
 2309              	.LBB225:
 2310              		.loc 1 154 0
 2311 0064 0246     		mov	r2, r0
 2312 0066 B721     		movs	r1, #183
 2313 0068 6E20     		movs	r0, #110
 2314              	.LVL360:
 2315 006a FFF7FEFF 		bl	write_reg
 2316              	.LVL361:
 2317 006e 0028     		cmp	r0, #0
 2318 0070 DCD1     		bne	.L101
 2319              	.LVL362:
 2320              	.LBB226:
 2321              	.LBB227:
 2322              		.loc 1 119 0
 2323 0072 0246     		mov	r2, r0
 2324 0074 0321     		movs	r1, #3
 2325 0076 6E20     		movs	r0, #110
 2326              	.LVL363:
 2327 0078 FFF7FEFF 		bl	write_reg
 2328              	.LVL364:
 2329              	.LBE227:
 2330              	.LBE226:
 2331              		.loc 1 157 0
 2332 007c 0028     		cmp	r0, #0
 2333 007e D5D1     		bne	.L101
 2334              		.loc 1 160 0
 2335 0080 0A22     		movs	r2, #10
 2336 0082 1121     		movs	r1, #17
 2337 0084 6E20     		movs	r0, #110
ARM GAS  C:\Users\mathi\AppData\Local\Temp\ccuMtzkg.s 			page 42


 2338 0086 FFF7FEFF 		bl	write_reg
 2339              	.LVL365:
 2340 008a 0246     		mov	r2, r0
 2341 008c 0028     		cmp	r0, #0
 2342 008e CDD1     		bne	.L101
 2343              		.loc 1 165 0
 2344 0090 7F4D     		ldr	r5, .L109+12
 2345 0092 0223     		movs	r3, #2
 2346              	.LBE225:
 2347              	.LBE224:
 2348              	.LBE221:
 2349              	.LBE220:
 2350              	.LBB231:
 2351              	.LBB232:
 2352              		.loc 1 119 0
 2353 0094 0321     		movs	r1, #3
 2354 0096 6E20     		movs	r0, #110
 2355              	.LVL366:
 2356              	.LBE232:
 2357              	.LBE231:
 2358              	.LBB234:
 2359              	.LBB230:
 2360              	.LBB229:
 2361              	.LBB228:
 2362              		.loc 1 165 0
 2363 0098 2B71     		strb	r3, [r5, #4]
 2364              	.LVL367:
 2365              	.LBE228:
 2366              	.LBE229:
 2367              	.LBE230:
 2368              	.LBE234:
 2369              	.LBB235:
 2370              	.LBB233:
 2371              		.loc 1 119 0
 2372 009a FFF7FEFF 		bl	write_reg
 2373              	.LVL368:
 2374              	.LBE233:
 2375              	.LBE235:
 2376              		.loc 1 761 0
 2377 009e 0028     		cmp	r0, #0
 2378 00a0 C4D1     		bne	.L101
 2379              		.loc 1 765 0
 2380 00a2 0246     		mov	r2, r0
 2381 00a4 0821     		movs	r1, #8
 2382 00a6 6E20     		movs	r0, #110
 2383 00a8 FFF7FEFF 		bl	write_reg
 2384              	.LVL369:
 2385 00ac 0028     		cmp	r0, #0
 2386 00ae BDD1     		bne	.L101
 2387              		.loc 1 768 0
 2388 00b0 F022     		movs	r2, #240
 2389 00b2 0921     		movs	r1, #9
 2390 00b4 6E20     		movs	r0, #110
 2391              	.LVL370:
 2392 00b6 FFF7FEFF 		bl	write_reg
 2393              	.LVL371:
 2394 00ba 0028     		cmp	r0, #0
ARM GAS  C:\Users\mathi\AppData\Local\Temp\ccuMtzkg.s 			page 43


 2395 00bc B6D1     		bne	.L101
 2396              		.loc 1 771 0
 2397 00be 0022     		movs	r2, #0
 2398 00c0 0A21     		movs	r1, #10
 2399 00c2 6E20     		movs	r0, #110
 2400              	.LVL372:
 2401 00c4 FFF7FEFF 		bl	write_reg
 2402              	.LVL373:
 2403 00c8 0028     		cmp	r0, #0
 2404 00ca AFD1     		bne	.L101
 2405              		.loc 1 774 0
 2406 00cc B422     		movs	r2, #180
 2407 00ce 0B21     		movs	r1, #11
 2408 00d0 6E20     		movs	r0, #110
 2409              	.LVL374:
 2410 00d2 FFF7FEFF 		bl	write_reg
 2411              	.LVL375:
 2412 00d6 0028     		cmp	r0, #0
 2413 00d8 A8D1     		bne	.L101
 2414              		.loc 1 777 0
 2415 00da 0122     		movs	r2, #1
 2416 00dc 0C21     		movs	r1, #12
 2417 00de 6E20     		movs	r0, #110
 2418              	.LVL376:
 2419 00e0 FFF7FEFF 		bl	write_reg
 2420              	.LVL377:
 2421 00e4 0028     		cmp	r0, #0
 2422 00e6 A1D1     		bne	.L101
 2423              		.loc 1 780 0
 2424 00e8 8F22     		movs	r2, #143
 2425 00ea 0D21     		movs	r1, #13
 2426 00ec 6E20     		movs	r0, #110
 2427              	.LVL378:
 2428 00ee FFF7FEFF 		bl	write_reg
 2429              	.LVL379:
 2430 00f2 0028     		cmp	r0, #0
 2431 00f4 9AD1     		bne	.L101
 2432              		.loc 1 783 0
 2433 00f6 0122     		movs	r2, #1
 2434 00f8 0E21     		movs	r1, #14
 2435 00fa 6E20     		movs	r0, #110
 2436              	.LVL380:
 2437 00fc FFF7FEFF 		bl	write_reg
 2438              	.LVL381:
 2439 0100 0028     		cmp	r0, #0
 2440 0102 93D1     		bne	.L101
 2441              		.loc 1 786 0
 2442 0104 2B22     		movs	r2, #43
 2443 0106 0F21     		movs	r1, #15
 2444 0108 6E20     		movs	r0, #110
 2445              	.LVL382:
 2446 010a FFF7FEFF 		bl	write_reg
 2447              	.LVL383:
 2448 010e 0246     		mov	r2, r0
 2449 0110 0028     		cmp	r0, #0
 2450 0112 8BD1     		bne	.L101
 2451              		.loc 1 790 0
ARM GAS  C:\Users\mathi\AppData\Local\Temp\ccuMtzkg.s 			page 44


 2452 0114 3521     		movs	r1, #53
 2453 0116 6E20     		movs	r0, #110
 2454              	.LVL384:
 2455 0118 FFF7FEFF 		bl	write_reg
 2456              	.LVL385:
 2457 011c 0028     		cmp	r0, #0
 2458 011e 85D1     		bne	.L101
 2459              		.loc 1 793 0
 2460 0120 F022     		movs	r2, #240
 2461 0122 3621     		movs	r1, #54
 2462 0124 6E20     		movs	r0, #110
 2463              	.LVL386:
 2464 0126 FFF7FEFF 		bl	write_reg
 2465              	.LVL387:
 2466 012a 0028     		cmp	r0, #0
 2467 012c 7FF47EAF 		bne	.L101
 2468              		.loc 1 796 0
 2469 0130 0122     		movs	r2, #1
 2470 0132 3721     		movs	r1, #55
 2471 0134 6E20     		movs	r0, #110
 2472              	.LVL388:
 2473 0136 FFF7FEFF 		bl	write_reg
 2474              	.LVL389:
 2475 013a 0028     		cmp	r0, #0
 2476 013c 7FF476AF 		bne	.L101
 2477              		.loc 1 799 0
 2478 0140 8F22     		movs	r2, #143
 2479 0142 3821     		movs	r1, #56
 2480 0144 6E20     		movs	r0, #110
 2481              	.LVL390:
 2482 0146 FFF7FEFF 		bl	write_reg
 2483              	.LVL391:
 2484 014a 0028     		cmp	r0, #0
 2485 014c 7FF46EAF 		bne	.L101
 2486              		.loc 1 802 0
 2487 0150 0022     		movs	r2, #0
 2488 0152 3921     		movs	r1, #57
 2489 0154 6E20     		movs	r0, #110
 2490              	.LVL392:
 2491 0156 FFF7FEFF 		bl	write_reg
 2492              	.LVL393:
 2493 015a 0028     		cmp	r0, #0
 2494 015c 7FF466AF 		bne	.L101
 2495              		.loc 1 805 0
 2496 0160 B422     		movs	r2, #180
 2497 0162 3A21     		movs	r1, #58
 2498 0164 6E20     		movs	r0, #110
 2499              	.LVL394:
 2500 0166 FFF7FEFF 		bl	write_reg
 2501              	.LVL395:
 2502 016a 0028     		cmp	r0, #0
 2503 016c 7FF45EAF 		bne	.L101
 2504              		.loc 1 808 0
 2505 0170 0122     		movs	r2, #1
 2506 0172 3B21     		movs	r1, #59
 2507 0174 6E20     		movs	r0, #110
 2508              	.LVL396:
ARM GAS  C:\Users\mathi\AppData\Local\Temp\ccuMtzkg.s 			page 45


 2509 0176 FFF7FEFF 		bl	write_reg
 2510              	.LVL397:
 2511 017a 0028     		cmp	r0, #0
 2512 017c 7FF456AF 		bne	.L101
 2513              		.loc 1 811 0
 2514 0180 2B22     		movs	r2, #43
 2515 0182 3C21     		movs	r1, #60
 2516 0184 6E20     		movs	r0, #110
 2517              	.LVL398:
 2518 0186 FFF7FEFF 		bl	write_reg
 2519              	.LVL399:
 2520 018a 0028     		cmp	r0, #0
 2521 018c 7FF44EAF 		bne	.L101
 2522              		.loc 1 815 0
 2523 0190 0122     		movs	r2, #1
 2524 0192 3D21     		movs	r1, #61
 2525 0194 6E20     		movs	r0, #110
 2526              	.LVL400:
 2527 0196 FFF7FEFF 		bl	write_reg
 2528              	.LVL401:
 2529 019a 0028     		cmp	r0, #0
 2530 019c 7FF446AF 		bne	.L101
 2531              		.loc 1 818 0
 2532 01a0 2522     		movs	r2, #37
 2533 01a2 3E21     		movs	r1, #62
 2534 01a4 6E20     		movs	r0, #110
 2535              	.LVL402:
 2536 01a6 FFF7FEFF 		bl	write_reg
 2537              	.LVL403:
 2538 01aa 0028     		cmp	r0, #0
 2539 01ac 7FF43EAF 		bne	.L101
 2540              		.loc 1 821 0
 2541 01b0 0122     		movs	r2, #1
 2542 01b2 3F21     		movs	r1, #63
 2543 01b4 6E20     		movs	r0, #110
 2544              	.LVL404:
 2545 01b6 FFF7FEFF 		bl	write_reg
 2546              	.LVL405:
 2547 01ba 0028     		cmp	r0, #0
 2548 01bc 7FF436AF 		bne	.L101
 2549              		.loc 1 824 0
 2550 01c0 5A22     		movs	r2, #90
 2551 01c2 4021     		movs	r1, #64
 2552 01c4 6E20     		movs	r0, #110
 2553              	.LVL406:
 2554 01c6 FFF7FEFF 		bl	write_reg
 2555              	.LVL407:
 2556 01ca 0246     		mov	r2, r0
 2557 01cc 0028     		cmp	r0, #0
 2558 01ce 7FF42DAF 		bne	.L101
 2559              		.loc 1 827 0
 2560 01d2 4121     		movs	r1, #65
 2561 01d4 6E20     		movs	r0, #110
 2562              	.LVL408:
 2563 01d6 FFF7FEFF 		bl	write_reg
 2564              	.LVL409:
 2565 01da 0028     		cmp	r0, #0
ARM GAS  C:\Users\mathi\AppData\Local\Temp\ccuMtzkg.s 			page 46


 2566 01dc 7FF426AF 		bne	.L101
 2567              		.loc 1 830 0
 2568 01e0 DC22     		movs	r2, #220
 2569 01e2 4221     		movs	r1, #66
 2570 01e4 6E20     		movs	r0, #110
 2571              	.LVL410:
 2572 01e6 FFF7FEFF 		bl	write_reg
 2573              	.LVL411:
 2574 01ea 0028     		cmp	r0, #0
 2575 01ec 7FF41EAF 		bne	.L101
 2576              		.loc 1 833 0
 2577 01f0 0122     		movs	r2, #1
 2578 01f2 4321     		movs	r1, #67
 2579 01f4 6E20     		movs	r0, #110
 2580              	.LVL412:
 2581 01f6 FFF7FEFF 		bl	write_reg
 2582              	.LVL413:
 2583 01fa 0028     		cmp	r0, #0
 2584 01fc 7FF416AF 		bne	.L101
 2585              		.loc 1 836 0
 2586 0200 0422     		movs	r2, #4
 2587 0202 4421     		movs	r1, #68
 2588 0204 6E20     		movs	r0, #110
 2589              	.LVL414:
 2590 0206 FFF7FEFF 		bl	write_reg
 2591              	.LVL415:
 2592 020a 0028     		cmp	r0, #0
 2593 020c 7FF40EAF 		bne	.L101
 2594              	.LVL416:
 2595              	.LBB236:
 2596              	.LBB237:
 2597              		.loc 1 119 0
 2598 0210 0122     		movs	r2, #1
 2599 0212 0321     		movs	r1, #3
 2600 0214 6E20     		movs	r0, #110
 2601              	.LVL417:
 2602 0216 FFF7FEFF 		bl	write_reg
 2603              	.LVL418:
 2604              	.LBE237:
 2605              	.LBE236:
 2606              		.loc 1 840 0
 2607 021a 0028     		cmp	r0, #0
 2608 021c 7FF406AF 		bne	.L101
 2609              		.loc 1 844 0
 2610 0220 2022     		movs	r2, #32
 2611 0222 9321     		movs	r1, #147
 2612 0224 6E20     		movs	r0, #110
 2613 0226 FFF7FEFF 		bl	write_reg
 2614              	.LVL419:
 2615 022a 0028     		cmp	r0, #0
 2616 022c 7FF4FEAE 		bne	.L101
 2617              		.loc 1 847 0
 2618 0230 2022     		movs	r2, #32
 2619 0232 9421     		movs	r1, #148
 2620 0234 6E20     		movs	r0, #110
 2621              	.LVL420:
 2622 0236 FFF7FEFF 		bl	write_reg
ARM GAS  C:\Users\mathi\AppData\Local\Temp\ccuMtzkg.s 			page 47


 2623              	.LVL421:
 2624 023a 0028     		cmp	r0, #0
 2625 023c 7FF4F6AE 		bne	.L101
 2626              	.LVL422:
 2627              	.LBB238:
 2628              	.LBB239:
 2629              		.loc 1 119 0
 2630 0240 0122     		movs	r2, #1
 2631 0242 0321     		movs	r1, #3
 2632 0244 6E20     		movs	r0, #110
 2633              	.LVL423:
 2634 0246 FFF7FEFF 		bl	write_reg
 2635              	.LVL424:
 2636              	.LBE239:
 2637              	.LBE238:
 2638              		.loc 1 852 0
 2639 024a 0246     		mov	r2, r0
 2640 024c 0028     		cmp	r0, #0
 2641 024e 7FF4EDAE 		bne	.L101
 2642              	.LVL425:
 2643              		.loc 1 864 0
 2644 0252 9521     		movs	r1, #149
 2645 0254 6E20     		movs	r0, #110
 2646 0256 FFF7FEFF 		bl	write_reg
 2647              	.LVL426:
 2648 025a 0028     		cmp	r0, #0
 2649 025c 7FF4E6AE 		bne	.L101
 2650              		.loc 1 867 0
 2651 0260 F522     		movs	r2, #245
 2652 0262 9621     		movs	r1, #150
 2653 0264 6E20     		movs	r0, #110
 2654              	.LVL427:
 2655 0266 FFF7FEFF 		bl	write_reg
 2656              	.LVL428:
 2657 026a 0028     		cmp	r0, #0
 2658 026c 7FF4DEAE 		bne	.L101
 2659              		.loc 1 871 0
 2660 0270 084B     		ldr	r3, .L109+16
 2661 0272 2B60     		str	r3, [r5]
 2662              		.loc 1 873 0
 2663 0274 0222     		movs	r2, #2
 2664              		.loc 1 874 0
 2665 0276 2023     		movs	r3, #32
 2666              		.loc 1 873 0
 2667 0278 2A71     		strb	r2, [r5, #4]
 2668              		.loc 1 874 0
 2669 027a 6B71     		strb	r3, [r5, #5]
 2670              		.loc 1 875 0
 2671 027c AB71     		strb	r3, [r5, #6]
 2672              	.LVL429:
 2673              	.LBE240:
 2674              	.LBE241:
 2675              		.loc 1 629 0
 2676 027e D5E6     		b	.L101
 2677              	.LVL430:
 2678              	.L108:
 2679 0280 FFF7FEFF 		bl	__stack_chk_fail
ARM GAS  C:\Users\mathi\AppData\Local\Temp\ccuMtzkg.s 			page 48


 2680              	.LVL431:
 2681              	.L110:
 2682              		.align	2
 2683              	.L109:
 2684 0284 00000000 		.word	__stack_chk_guard
 2685 0288 00000000 		.word	.LANCHOR1
 2686 028c 00000000 		.word	PWMD5
 2687 0290 00000000 		.word	.LANCHOR0
 2688 0294 A0007800 		.word	7864480
 2689              		.cfi_endproc
 2690              	.LFE265:
 2691              		.size	po8030_start, .-po8030_start
 2692              		.section	.text.po8030_config,"ax",%progbits
 2693              		.align	1
 2694              		.p2align 4,,15
 2695              		.global	po8030_config
 2696              		.syntax unified
 2697              		.thumb
 2698              		.thumb_func
 2699              		.fpu fpv4-sp-d16
 2700              		.type	po8030_config, %function
 2701              	po8030_config:
 2702              	.LFB266:
 2703              		.loc 1 631 0
 2704              		.cfi_startproc
 2705              		@ args = 0, pretend = 0, frame = 8
 2706              		@ frame_needed = 0, uses_anonymous_args = 0
 2707              	.LVL432:
 2708 0000 70B5     		push	{r4, r5, r6, lr}
 2709              		.cfi_def_cfa_offset 16
 2710              		.cfi_offset 4, -16
 2711              		.cfi_offset 5, -12
 2712              		.cfi_offset 6, -8
 2713              		.cfi_offset 14, -4
 2714 0002 1E4C     		ldr	r4, .L124
 2715 0004 82B0     		sub	sp, sp, #8
 2716              		.cfi_def_cfa_offset 24
 2717              		.loc 1 631 0
 2718 0006 0546     		mov	r5, r0
 2719 0008 0E46     		mov	r6, r1
 2720 000a 2368     		ldr	r3, [r4]
 2721 000c 0193     		str	r3, [sp, #4]
 2722              	.LVL433:
 2723              	.LBB248:
 2724              	.LBB249:
 2725              		.loc 1 119 0
 2726 000e 0022     		movs	r2, #0
 2727 0010 0321     		movs	r1, #3
 2728              	.LVL434:
 2729 0012 6E20     		movs	r0, #110
 2730              	.LVL435:
 2731 0014 FFF7FEFF 		bl	write_reg
 2732              	.LVL436:
 2733              	.LBE249:
 2734              	.LBE248:
 2735              		.loc 1 635 0
 2736 0018 28B1     		cbz	r0, .L121
ARM GAS  C:\Users\mathi\AppData\Local\Temp\ccuMtzkg.s 			page 49


 2737              	.L112:
 2738              		.loc 1 655 0
 2739 001a 019A     		ldr	r2, [sp, #4]
 2740 001c 2368     		ldr	r3, [r4]
 2741 001e 9A42     		cmp	r2, r3
 2742 0020 2AD1     		bne	.L120
 2743 0022 02B0     		add	sp, sp, #8
 2744              		.cfi_remember_state
 2745              		.cfi_def_cfa_offset 16
 2746              		@ sp needed
 2747 0024 70BD     		pop	{r4, r5, r6, pc}
 2748              	.L121:
 2749              		.cfi_restore_state
 2750              		.loc 1 638 0
 2751 0026 0246     		mov	r2, r0
 2752 0028 5B21     		movs	r1, #91
 2753 002a 6E20     		movs	r0, #110
 2754 002c FFF7FEFF 		bl	write_reg
 2755              	.LVL437:
 2756 0030 0028     		cmp	r0, #0
 2757 0032 F2D1     		bne	.L112
 2758              		.loc 1 642 0
 2759 0034 2846     		mov	r0, r5
 2760              	.LVL438:
 2761 0036 FFF7FEFF 		bl	po8030_set_format
 2762              	.LVL439:
 2763 003a 0028     		cmp	r0, #0
 2764 003c EDD1     		bne	.L112
 2765              	.LVL440:
 2766              	.LBB250:
 2767              	.LBB251:
 2768              		.loc 1 508 0
 2769 003e 96B1     		cbz	r6, .L122
 2770              		.loc 1 510 0
 2771 0040 012E     		cmp	r6, #1
 2772 0042 13D0     		beq	.L123
 2773              	.LVL441:
 2774              	.LBB252:
 2775              	.LBB253:
 2776              		.loc 1 512 0
 2777 0044 022E     		cmp	r6, #2
 2778 0046 14D1     		bne	.L118
 2779              		.loc 1 513 0
 2780 0048 FFF7FEFF 		bl	po8030_set_qqvga
 2781              	.LVL442:
 2782              	.L114:
 2783              	.LBE253:
 2784              	.LBE252:
 2785              	.LBE251:
 2786              	.LBE250:
 2787              		.loc 1 646 0
 2788 004c 0028     		cmp	r0, #0
 2789 004e E4D1     		bne	.L112
 2790              		.loc 1 650 0
 2791 0050 019A     		ldr	r2, [sp, #4]
 2792 0052 2368     		ldr	r3, [r4]
 2793 0054 9A42     		cmp	r2, r3
ARM GAS  C:\Users\mathi\AppData\Local\Temp\ccuMtzkg.s 			page 50


 2794 0056 0FD1     		bne	.L120
 2795 0058 3146     		mov	r1, r6
 2796 005a 2846     		mov	r0, r5
 2797              		.loc 1 655 0
 2798 005c 02B0     		add	sp, sp, #8
 2799              		.cfi_remember_state
 2800              		.cfi_def_cfa_offset 16
 2801              		@ sp needed
 2802 005e BDE87040 		pop	{r4, r5, r6, lr}
 2803              		.cfi_restore 14
 2804              		.cfi_restore 6
 2805              		.cfi_restore 5
 2806              		.cfi_restore 4
 2807              		.cfi_def_cfa_offset 0
 2808              		.loc 1 650 0
 2809 0062 FFF7FEBF 		b	po8030_set_scale_buffer_size
 2810              	.LVL443:
 2811              	.L122:
 2812              		.cfi_restore_state
 2813              	.LBB257:
 2814              	.LBB256:
 2815              		.loc 1 509 0
 2816 0066 FFF7FEFF 		bl	po8030_set_vga
 2817              	.LVL444:
 2818 006a EFE7     		b	.L114
 2819              	.LVL445:
 2820              	.L123:
 2821              		.loc 1 511 0
 2822 006c FFF7FEFF 		bl	po8030_set_qvga
 2823              	.LVL446:
 2824 0070 ECE7     		b	.L114
 2825              	.LVL447:
 2826              	.L118:
 2827              	.LBB255:
 2828              	.LBB254:
 2829              		.loc 1 515 0
 2830 0072 4FF0FF30 		mov	r0, #-1
 2831              	.LVL448:
 2832 0076 D0E7     		b	.L112
 2833              	.LVL449:
 2834              	.L120:
 2835              	.LBE254:
 2836              	.LBE255:
 2837              	.LBE256:
 2838              	.LBE257:
 2839              		.loc 1 655 0
 2840 0078 FFF7FEFF 		bl	__stack_chk_fail
 2841              	.LVL450:
 2842              	.L125:
 2843              		.align	2
 2844              	.L124:
 2845 007c 00000000 		.word	__stack_chk_guard
 2846              		.cfi_endproc
 2847              	.LFE266:
 2848              		.size	po8030_config, .-po8030_config
 2849              		.section	.text.po8030_advanced_config,"ax",%progbits
 2850              		.align	1
ARM GAS  C:\Users\mathi\AppData\Local\Temp\ccuMtzkg.s 			page 51


 2851              		.p2align 4,,15
 2852              		.global	po8030_advanced_config
 2853              		.syntax unified
 2854              		.thumb
 2855              		.thumb_func
 2856              		.fpu fpv4-sp-d16
 2857              		.type	po8030_advanced_config, %function
 2858              	po8030_advanced_config:
 2859              	.LFB267:
 2860              		.loc 1 659 0
 2861              		.cfi_startproc
 2862              		@ args = 12, pretend = 0, frame = 56
 2863              		@ frame_needed = 0, uses_anonymous_args = 0
 2864              	.LVL451:
 2865 0000 2DE9F04F 		push	{r4, r5, r6, r7, r8, r9, r10, fp, lr}
 2866              		.cfi_def_cfa_offset 36
 2867              		.cfi_offset 4, -36
 2868              		.cfi_offset 5, -32
 2869              		.cfi_offset 6, -28
 2870              		.cfi_offset 7, -24
 2871              		.cfi_offset 8, -20
 2872              		.cfi_offset 9, -16
 2873              		.cfi_offset 10, -12
 2874              		.cfi_offset 11, -8
 2875              		.cfi_offset 14, -4
 2876 0004 8FB0     		sub	sp, sp, #60
 2877              		.cfi_def_cfa_offset 96
 2878              		.loc 1 659 0
 2879 0006 DFF80084 		ldr	r8, .L162+16
 2880 000a DDF860C0 		ldr	ip, [sp, #96]
 2881 000e D8F80040 		ldr	r4, [r8]
 2882 0012 0D94     		str	r4, [sp, #52]
 2883              	.LVL452:
 2884              		.loc 1 662 0
 2885 0014 0CF1FF35 		add	r5, ip, #-1
 2886              		.loc 1 661 0
 2887 0018 5C1E     		subs	r4, r3, #1
 2888              		.loc 1 668 0
 2889 001a B3F5207F 		cmp	r3, #640
 2890              		.loc 1 659 0
 2891 001e 9DF86490 		ldrb	r9, [sp, #100]	@ zero_extendqisi2
 2892 0022 9DF868B0 		ldrb	fp, [sp, #104]	@ zero_extendqisi2
 2893              		.loc 1 661 0
 2894 0026 0C44     		add	r4, r4, r1
 2895              	.LVL453:
 2896              		.loc 1 662 0
 2897 0028 1544     		add	r5, r5, r2
 2898              	.LVL454:
 2899              		.loc 1 668 0
 2900 002a 00F21282 		bhi	.L140
 2901              		.loc 1 668 0 is_stmt 0 discriminator 1
 2902 002e BCF5F07F 		cmp	ip, #480
 2903 0032 00F20E82 		bhi	.L140
 2904              		.loc 1 672 0 is_stmt 1
 2905 0036 B1F5207F 		cmp	r1, #640
 2906 003a 0E46     		mov	r6, r1
 2907 003c 00F21282 		bhi	.L141
ARM GAS  C:\Users\mathi\AppData\Local\Temp\ccuMtzkg.s 			page 52


 2908              		.loc 1 676 0
 2909 0040 B2F5F07F 		cmp	r2, #480
 2910 0044 1746     		mov	r7, r2
 2911 0046 00F21082 		bhi	.L142
 2912              		.loc 1 680 0
 2913 004a A142     		cmp	r1, r4
 2914 004c 80F00482 		bcs	.L144
 2915              		.loc 1 680 0 is_stmt 0 discriminator 1
 2916 0050 B4F5207F 		cmp	r4, #640
 2917 0054 00F20082 		bhi	.L144
 2918              		.loc 1 684 0 is_stmt 1
 2919 0058 AA42     		cmp	r2, r5
 2920 005a 80F00082 		bcs	.L146
 2921              		.loc 1 684 0 is_stmt 0 discriminator 1
 2922 005e B5F5F07F 		cmp	r5, #480
 2923 0062 00F2FC81 		bhi	.L146
 2924              		.loc 1 688 0 is_stmt 1
 2925 0066 B9F1400F 		cmp	r9, #64
 2926 006a 8246     		mov	r10, r0
 2927 006c 00F0B081 		beq	.L129
 2928 0070 B9F1800F 		cmp	r9, #128
 2929 0074 23D0     		beq	.L130
 2930 0076 B9F1200F 		cmp	r9, #32
 2931 007a 00F09C81 		beq	.L156
 2932              		.loc 1 663 0
 2933 007e 0023     		movs	r3, #0
 2934              	.LVL455:
 2935 0080 CDE90033 		strd	r3, r3, [sp]
 2936              	.LVL456:
 2937              	.L128:
 2938              		.loc 1 719 0
 2939 0084 BBF1400F 		cmp	fp, #64
 2940 0088 2FD0     		beq	.L133
 2941              	.L160:
 2942 008a BBF1800F 		cmp	fp, #128
 2943 008e 00F0CB81 		beq	.L134
 2944 0092 BBF1200F 		cmp	fp, #32
 2945 0096 00F0B981 		beq	.L157
 2946              		.loc 1 664 0
 2947 009a 0023     		movs	r3, #0
 2948 009c CDE90233 		strd	r3, r3, [sp, #8]
 2949              	.LVL457:
 2950              	.L132:
 2951              	.LBB258:
 2952              	.LBB259:
 2953              		.loc 1 119 0
 2954 00a0 0022     		movs	r2, #0
 2955 00a2 0321     		movs	r1, #3
 2956 00a4 6E20     		movs	r0, #110
 2957 00a6 FFF7FEFF 		bl	write_reg
 2958              	.LVL458:
 2959              	.LBE259:
 2960              	.LBE258:
 2961              		.loc 1 750 0
 2962 00aa A0B3     		cbz	r0, .L158
 2963              	.LVL459:
 2964              	.L127:
ARM GAS  C:\Users\mathi\AppData\Local\Temp\ccuMtzkg.s 			page 53


 2965              		.loc 1 882 0
 2966 00ac 0D9A     		ldr	r2, [sp, #52]
 2967 00ae D8F80030 		ldr	r3, [r8]
 2968 00b2 9A42     		cmp	r2, r3
 2969 00b4 40F0E281 		bne	.L159
 2970 00b8 0FB0     		add	sp, sp, #60
 2971              		.cfi_remember_state
 2972              		.cfi_def_cfa_offset 36
 2973              		@ sp needed
 2974 00ba BDE8F08F 		pop	{r4, r5, r6, r7, r8, r9, r10, fp, pc}
 2975              	.LVL460:
 2976              	.L130:
 2977              		.cfi_restore_state
 2978              		.loc 1 708 0
 2979 00be 9A07     		lsls	r2, r3, #30
 2980              	.LVL461:
 2981 00c0 40F0D681 		bne	.L149
 2982              		.loc 1 713 0
 2983 00c4 CC4A     		ldr	r2, .L162
 2984              		.loc 1 711 0
 2985 00c6 8C08     		lsrs	r4, r1, #2
 2986              	.LVL462:
 2987              		.loc 1 714 0
 2988 00c8 5900     		lsls	r1, r3, #1
 2989              	.LVL463:
 2990              		.loc 1 712 0
 2991 00ca 661C     		adds	r6, r4, #1
 2992              	.LVL464:
 2993              		.loc 1 714 0
 2994 00cc A2FB0101 		umull	r0, r1, r2, r1
 2995              	.LVL465:
 2996              		.loc 1 713 0
 2997 00d0 A2FB0302 		umull	r0, r2, r2, r3
 2998              		.loc 1 712 0
 2999 00d4 04EB9304 		add	r4, r4, r3, lsr #2
 3000              	.LVL466:
 3001              		.loc 1 713 0
 3002 00d8 06EBD203 		add	r3, r6, r2, lsr #3
 3003              	.LVL467:
 3004 00dc 0093     		str	r3, [sp]
 3005              	.LVL468:
 3006              		.loc 1 719 0
 3007 00de BBF1400F 		cmp	fp, #64
 3008              		.loc 1 714 0
 3009 00e2 06EBD103 		add	r3, r6, r1, lsr #3
 3010              	.LVL469:
 3011 00e6 0193     		str	r3, [sp, #4]
 3012              	.LVL470:
 3013              		.loc 1 719 0
 3014 00e8 CFD1     		bne	.L160
 3015              	.LVL471:
 3016              	.L133:
 3017              		.loc 1 727 0
 3018 00ea 1CF0010F 		tst	ip, #1
 3019 00ee 40F0C281 		bne	.L152
 3020              		.loc 1 732 0
 3021 00f2 C14B     		ldr	r3, .L162
ARM GAS  C:\Users\mathi\AppData\Local\Temp\ccuMtzkg.s 			page 54


 3022              		.loc 1 730 0
 3023 00f4 7D08     		lsrs	r5, r7, #1
 3024              	.LVL472:
 3025              		.loc 1 733 0
 3026 00f6 4FEA4C02 		lsl	r2, ip, #1
 3027              		.loc 1 731 0
 3028 00fa 6F1C     		adds	r7, r5, #1
 3029              	.LVL473:
 3030              		.loc 1 733 0
 3031 00fc A3FB0212 		umull	r1, r2, r3, r2
 3032              		.loc 1 732 0
 3033 0100 A3FB0C13 		umull	r1, r3, r3, ip
 3034 0104 07EB9303 		add	r3, r7, r3, lsr #2
 3035 0108 0293     		str	r3, [sp, #8]
 3036              		.loc 1 733 0
 3037 010a 07EB9203 		add	r3, r7, r2, lsr #2
 3038              		.loc 1 731 0
 3039 010e 05EB5C05 		add	r5, r5, ip, lsr #1
 3040              	.LVL474:
 3041              		.loc 1 733 0
 3042 0112 0393     		str	r3, [sp, #12]
 3043              	.LVL475:
 3044              		.loc 1 735 0
 3045 0114 C4E7     		b	.L132
 3046              	.LVL476:
 3047              	.L158:
 3048              		.loc 1 753 0
 3049 0116 0246     		mov	r2, r0
 3050 0118 5B21     		movs	r1, #91
 3051 011a 6E20     		movs	r0, #110
 3052 011c FFF7FEFF 		bl	write_reg
 3053              	.LVL477:
 3054 0120 0028     		cmp	r0, #0
 3055 0122 C3D1     		bne	.L127
 3056              		.loc 1 757 0
 3057 0124 5046     		mov	r0, r10
 3058              	.LVL478:
 3059 0126 FFF7FEFF 		bl	po8030_set_format
 3060              	.LVL479:
 3061 012a 0028     		cmp	r0, #0
 3062 012c BED1     		bne	.L127
 3063              	.LVL480:
 3064              	.LBB260:
 3065              	.LBB261:
 3066              		.loc 1 119 0
 3067 012e 0246     		mov	r2, r0
 3068 0130 0321     		movs	r1, #3
 3069 0132 6E20     		movs	r0, #110
 3070              	.LVL481:
 3071 0134 FFF7FEFF 		bl	write_reg
 3072              	.LVL482:
 3073              	.LBE261:
 3074              	.LBE260:
 3075              		.loc 1 761 0
 3076 0138 0028     		cmp	r0, #0
 3077 013a B7D1     		bne	.L127
 3078              		.loc 1 765 0
ARM GAS  C:\Users\mathi\AppData\Local\Temp\ccuMtzkg.s 			page 55


 3079 013c C6F30723 		ubfx	r3, r6, #8, #8
 3080 0140 1A46     		mov	r2, r3
 3081 0142 0821     		movs	r1, #8
 3082 0144 6E20     		movs	r0, #110
 3083 0146 0493     		str	r3, [sp, #16]
 3084 0148 FFF7FEFF 		bl	write_reg
 3085              	.LVL483:
 3086 014c 0028     		cmp	r0, #0
 3087 014e ADD1     		bne	.L127
 3088              		.loc 1 768 0
 3089 0150 F3B2     		uxtb	r3, r6
 3090 0152 1A46     		mov	r2, r3
 3091 0154 0921     		movs	r1, #9
 3092 0156 6E20     		movs	r0, #110
 3093              	.LVL484:
 3094 0158 0593     		str	r3, [sp, #20]
 3095 015a FFF7FEFF 		bl	write_reg
 3096              	.LVL485:
 3097 015e 0028     		cmp	r0, #0
 3098 0160 A4D1     		bne	.L127
 3099              		.loc 1 771 0
 3100 0162 C7F30723 		ubfx	r3, r7, #8, #8
 3101 0166 1A46     		mov	r2, r3
 3102 0168 0A21     		movs	r1, #10
 3103 016a 6E20     		movs	r0, #110
 3104              	.LVL486:
 3105 016c 0693     		str	r3, [sp, #24]
 3106 016e FFF7FEFF 		bl	write_reg
 3107              	.LVL487:
 3108 0172 0028     		cmp	r0, #0
 3109 0174 9AD1     		bne	.L127
 3110              		.loc 1 774 0
 3111 0176 FBB2     		uxtb	r3, r7
 3112 0178 1A46     		mov	r2, r3
 3113 017a 0B21     		movs	r1, #11
 3114 017c 6E20     		movs	r0, #110
 3115              	.LVL488:
 3116 017e 0793     		str	r3, [sp, #28]
 3117 0180 FFF7FEFF 		bl	write_reg
 3118              	.LVL489:
 3119 0184 0028     		cmp	r0, #0
 3120 0186 91D1     		bne	.L127
 3121              		.loc 1 777 0
 3122 0188 C4F30723 		ubfx	r3, r4, #8, #8
 3123 018c 1A46     		mov	r2, r3
 3124 018e 0C21     		movs	r1, #12
 3125 0190 6E20     		movs	r0, #110
 3126              	.LVL490:
 3127 0192 0893     		str	r3, [sp, #32]
 3128 0194 FFF7FEFF 		bl	write_reg
 3129              	.LVL491:
 3130 0198 0028     		cmp	r0, #0
 3131 019a 87D1     		bne	.L127
 3132              		.loc 1 780 0
 3133 019c E3B2     		uxtb	r3, r4
 3134 019e 1A46     		mov	r2, r3
 3135 01a0 0D21     		movs	r1, #13
ARM GAS  C:\Users\mathi\AppData\Local\Temp\ccuMtzkg.s 			page 56


 3136 01a2 6E20     		movs	r0, #110
 3137              	.LVL492:
 3138 01a4 0993     		str	r3, [sp, #36]
 3139 01a6 FFF7FEFF 		bl	write_reg
 3140              	.LVL493:
 3141 01aa 0028     		cmp	r0, #0
 3142 01ac 7FF47EAF 		bne	.L127
 3143              		.loc 1 783 0
 3144 01b0 C5F30723 		ubfx	r3, r5, #8, #8
 3145 01b4 1A46     		mov	r2, r3
 3146 01b6 0E21     		movs	r1, #14
 3147 01b8 6E20     		movs	r0, #110
 3148              	.LVL494:
 3149 01ba 0A93     		str	r3, [sp, #40]
 3150 01bc FFF7FEFF 		bl	write_reg
 3151              	.LVL495:
 3152 01c0 0028     		cmp	r0, #0
 3153 01c2 7FF473AF 		bne	.L127
 3154              		.loc 1 786 0
 3155 01c6 EBB2     		uxtb	r3, r5
 3156 01c8 1A46     		mov	r2, r3
 3157 01ca 0F21     		movs	r1, #15
 3158 01cc 6E20     		movs	r0, #110
 3159              	.LVL496:
 3160 01ce 0B93     		str	r3, [sp, #44]
 3161 01d0 FFF7FEFF 		bl	write_reg
 3162              	.LVL497:
 3163 01d4 0028     		cmp	r0, #0
 3164 01d6 7FF469AF 		bne	.L127
 3165              		.loc 1 790 0
 3166 01da 049A     		ldr	r2, [sp, #16]
 3167 01dc 3521     		movs	r1, #53
 3168 01de 6E20     		movs	r0, #110
 3169              	.LVL498:
 3170 01e0 FFF7FEFF 		bl	write_reg
 3171              	.LVL499:
 3172 01e4 0028     		cmp	r0, #0
 3173 01e6 7FF461AF 		bne	.L127
 3174              		.loc 1 793 0
 3175 01ea 059A     		ldr	r2, [sp, #20]
 3176 01ec 3621     		movs	r1, #54
 3177 01ee 6E20     		movs	r0, #110
 3178              	.LVL500:
 3179 01f0 FFF7FEFF 		bl	write_reg
 3180              	.LVL501:
 3181 01f4 0028     		cmp	r0, #0
 3182 01f6 7FF459AF 		bne	.L127
 3183              		.loc 1 796 0
 3184 01fa 089A     		ldr	r2, [sp, #32]
 3185 01fc 3721     		movs	r1, #55
 3186 01fe 6E20     		movs	r0, #110
 3187              	.LVL502:
 3188 0200 FFF7FEFF 		bl	write_reg
 3189              	.LVL503:
 3190 0204 0028     		cmp	r0, #0
 3191 0206 7FF451AF 		bne	.L127
 3192              		.loc 1 799 0
ARM GAS  C:\Users\mathi\AppData\Local\Temp\ccuMtzkg.s 			page 57


 3193 020a 099A     		ldr	r2, [sp, #36]
 3194 020c 3821     		movs	r1, #56
 3195 020e 6E20     		movs	r0, #110
 3196              	.LVL504:
 3197 0210 FFF7FEFF 		bl	write_reg
 3198              	.LVL505:
 3199 0214 0028     		cmp	r0, #0
 3200 0216 7FF449AF 		bne	.L127
 3201              		.loc 1 802 0
 3202 021a 069A     		ldr	r2, [sp, #24]
 3203 021c 3921     		movs	r1, #57
 3204 021e 6E20     		movs	r0, #110
 3205              	.LVL506:
 3206 0220 FFF7FEFF 		bl	write_reg
 3207              	.LVL507:
 3208 0224 0028     		cmp	r0, #0
 3209 0226 7FF441AF 		bne	.L127
 3210              		.loc 1 805 0
 3211 022a 079A     		ldr	r2, [sp, #28]
 3212 022c 3A21     		movs	r1, #58
 3213 022e 6E20     		movs	r0, #110
 3214              	.LVL508:
 3215 0230 FFF7FEFF 		bl	write_reg
 3216              	.LVL509:
 3217 0234 0028     		cmp	r0, #0
 3218 0236 7FF439AF 		bne	.L127
 3219              		.loc 1 808 0
 3220 023a 0A9A     		ldr	r2, [sp, #40]
 3221 023c 3B21     		movs	r1, #59
 3222 023e 6E20     		movs	r0, #110
 3223              	.LVL510:
 3224 0240 FFF7FEFF 		bl	write_reg
 3225              	.LVL511:
 3226 0244 0028     		cmp	r0, #0
 3227 0246 7FF431AF 		bne	.L127
 3228              		.loc 1 811 0
 3229 024a 0B9A     		ldr	r2, [sp, #44]
 3230 024c 3C21     		movs	r1, #60
 3231 024e 6E20     		movs	r0, #110
 3232              	.LVL512:
 3233 0250 FFF7FEFF 		bl	write_reg
 3234              	.LVL513:
 3235 0254 0028     		cmp	r0, #0
 3236 0256 7FF429AF 		bne	.L127
 3237              		.loc 1 815 0
 3238 025a 009B     		ldr	r3, [sp]
 3239 025c 3D21     		movs	r1, #61
 3240 025e C3F30722 		ubfx	r2, r3, #8, #8
 3241 0262 6E20     		movs	r0, #110
 3242              	.LVL514:
 3243 0264 FFF7FEFF 		bl	write_reg
 3244              	.LVL515:
 3245 0268 0028     		cmp	r0, #0
 3246 026a 7FF41FAF 		bne	.L127
 3247              		.loc 1 818 0
 3248 026e 9DF80020 		ldrb	r2, [sp]	@ zero_extendqisi2
 3249 0272 3E21     		movs	r1, #62
ARM GAS  C:\Users\mathi\AppData\Local\Temp\ccuMtzkg.s 			page 58


 3250 0274 6E20     		movs	r0, #110
 3251              	.LVL516:
 3252 0276 FFF7FEFF 		bl	write_reg
 3253              	.LVL517:
 3254 027a 0028     		cmp	r0, #0
 3255 027c 7FF416AF 		bne	.L127
 3256              		.loc 1 821 0
 3257 0280 019B     		ldr	r3, [sp, #4]
 3258 0282 3F21     		movs	r1, #63
 3259 0284 C3F30722 		ubfx	r2, r3, #8, #8
 3260 0288 6E20     		movs	r0, #110
 3261              	.LVL518:
 3262 028a FFF7FEFF 		bl	write_reg
 3263              	.LVL519:
 3264 028e 0028     		cmp	r0, #0
 3265 0290 7FF40CAF 		bne	.L127
 3266              		.loc 1 824 0
 3267 0294 9DF80420 		ldrb	r2, [sp, #4]	@ zero_extendqisi2
 3268 0298 4021     		movs	r1, #64
 3269 029a 6E20     		movs	r0, #110
 3270              	.LVL520:
 3271 029c FFF7FEFF 		bl	write_reg
 3272              	.LVL521:
 3273 02a0 0028     		cmp	r0, #0
 3274 02a2 7FF403AF 		bne	.L127
 3275              		.loc 1 827 0
 3276 02a6 029B     		ldr	r3, [sp, #8]
 3277 02a8 4121     		movs	r1, #65
 3278 02aa C3F30722 		ubfx	r2, r3, #8, #8
 3279 02ae 6E20     		movs	r0, #110
 3280              	.LVL522:
 3281 02b0 FFF7FEFF 		bl	write_reg
 3282              	.LVL523:
 3283 02b4 0028     		cmp	r0, #0
 3284 02b6 7FF4F9AE 		bne	.L127
 3285              		.loc 1 830 0
 3286 02ba 9DF80820 		ldrb	r2, [sp, #8]	@ zero_extendqisi2
 3287 02be 4221     		movs	r1, #66
 3288 02c0 6E20     		movs	r0, #110
 3289              	.LVL524:
 3290 02c2 FFF7FEFF 		bl	write_reg
 3291              	.LVL525:
 3292 02c6 0028     		cmp	r0, #0
 3293 02c8 7FF4F0AE 		bne	.L127
 3294              		.loc 1 833 0
 3295 02cc 039B     		ldr	r3, [sp, #12]
 3296 02ce 4321     		movs	r1, #67
 3297 02d0 C3F30722 		ubfx	r2, r3, #8, #8
 3298 02d4 6E20     		movs	r0, #110
 3299              	.LVL526:
 3300 02d6 FFF7FEFF 		bl	write_reg
 3301              	.LVL527:
 3302 02da 0028     		cmp	r0, #0
 3303 02dc 7FF4E6AE 		bne	.L127
 3304              		.loc 1 836 0
 3305 02e0 9DF80C20 		ldrb	r2, [sp, #12]	@ zero_extendqisi2
 3306 02e4 4421     		movs	r1, #68
ARM GAS  C:\Users\mathi\AppData\Local\Temp\ccuMtzkg.s 			page 59


 3307 02e6 6E20     		movs	r0, #110
 3308              	.LVL528:
 3309 02e8 FFF7FEFF 		bl	write_reg
 3310              	.LVL529:
 3311 02ec 0028     		cmp	r0, #0
 3312 02ee 7FF4DDAE 		bne	.L127
 3313              	.LVL530:
 3314              	.LBB262:
 3315              	.LBB263:
 3316              		.loc 1 119 0
 3317 02f2 0122     		movs	r2, #1
 3318 02f4 0321     		movs	r1, #3
 3319 02f6 6E20     		movs	r0, #110
 3320              	.LVL531:
 3321 02f8 FFF7FEFF 		bl	write_reg
 3322              	.LVL532:
 3323              	.LBE263:
 3324              	.LBE262:
 3325              		.loc 1 840 0
 3326 02fc 0028     		cmp	r0, #0
 3327 02fe 7FF4D5AE 		bne	.L127
 3328              		.loc 1 844 0
 3329 0302 4A46     		mov	r2, r9
 3330 0304 9321     		movs	r1, #147
 3331 0306 6E20     		movs	r0, #110
 3332 0308 FFF7FEFF 		bl	write_reg
 3333              	.LVL533:
 3334 030c 0028     		cmp	r0, #0
 3335 030e 7FF4CDAE 		bne	.L127
 3336              		.loc 1 847 0
 3337 0312 5A46     		mov	r2, fp
 3338 0314 9421     		movs	r1, #148
 3339 0316 6E20     		movs	r0, #110
 3340              	.LVL534:
 3341 0318 FFF7FEFF 		bl	write_reg
 3342              	.LVL535:
 3343 031c 0028     		cmp	r0, #0
 3344 031e 7FF4C5AE 		bne	.L127
 3345              	.LVL536:
 3346              	.LBB264:
 3347              	.LBB265:
 3348              		.loc 1 119 0
 3349 0322 0122     		movs	r2, #1
 3350 0324 0321     		movs	r1, #3
 3351 0326 6E20     		movs	r0, #110
 3352              	.LVL537:
 3353 0328 FFF7FEFF 		bl	write_reg
 3354              	.LVL538:
 3355              	.LBE265:
 3356              	.LBE264:
 3357              		.loc 1 852 0
 3358 032c 0028     		cmp	r0, #0
 3359 032e 7FF4BDAE 		bne	.L127
 3360 0332 0134     		adds	r4, r4, #1
 3361              	.LVL539:
 3362 0334 A31B     		subs	r3, r4, r6
 3363 0336 07EE103A 		vmov	s14, r3	@ int
ARM GAS  C:\Users\mathi\AppData\Local\Temp\ccuMtzkg.s 			page 60


 3364 033a DFED307A 		vldr.32	s15, .L162+4
 3365 033e B8EE477A 		vcvt.f32.u32	s14, s14
 3366              		.loc 1 856 0
 3367 0342 BAF1440F 		cmp	r10, #68
 3368 0346 77EEC77A 		vsub.f32	s15, s15, s14
 3369 034a 00F09980 		beq	.L161
 3370              	.LVL540:
 3371              		.loc 1 860 0
 3372 034e B0EE006A 		vmov.f32	s12, #2.0e+0
 3373 0352 F2EE006A 		vmov.f32	s13, #8.0e+0
 3374 0356 E7EE066A 		vfma.f32	s13, s14, s12
 3375 035a 77EEA77A 		vadd.f32	s15, s15, s15
 3376              	.LVL541:
 3377 035e B0EE667A 		vmov.f32	s14, s13
 3378              	.LVL542:
 3379 0362 67EE877A 		vmul.f32	s15, s15, s14
 3380 0366 DFED266A 		vldr.32	s13, .L162+8
 3381 036a 87EEA67A 		vdiv.f32	s14, s15, s13
 3382              	.LVL543:
 3383              		.loc 1 861 0
 3384 036e FCEEC77A 		vcvt.u32.f32	s15, s14
 3385 0372 CDED007A 		vstr.32	s15, [sp]	@ int
 3386              	.LVL544:
 3387              	.L137:
 3388              		.loc 1 864 0
 3389 0376 009B     		ldr	r3, [sp]
 3390 0378 9521     		movs	r1, #149
 3391 037a C3F30722 		ubfx	r2, r3, #8, #8
 3392 037e 6E20     		movs	r0, #110
 3393 0380 FFF7FEFF 		bl	write_reg
 3394              	.LVL545:
 3395 0384 0028     		cmp	r0, #0
 3396 0386 7FF491AE 		bne	.L127
 3397              		.loc 1 867 0
 3398 038a 9DF80020 		ldrb	r2, [sp]	@ zero_extendqisi2
 3399 038e 9621     		movs	r1, #150
 3400 0390 6E20     		movs	r0, #110
 3401              	.LVL546:
 3402 0392 FFF7FEFF 		bl	write_reg
 3403              	.LVL547:
 3404 0396 0028     		cmp	r0, #0
 3405 0398 7FF488AE 		bne	.L127
 3406              		.loc 1 871 0
 3407 039c 194B     		ldr	r3, .L162+12
 3408              		.loc 1 872 0
 3409 039e 0135     		adds	r5, r5, #1
 3410              	.LVL548:
 3411 03a0 EF1B     		subs	r7, r5, r7
 3412              	.LVL549:
 3413              		.loc 1 871 0
 3414 03a2 A41B     		subs	r4, r4, r6
 3415              	.LVL550:
 3416              		.loc 1 872 0
 3417 03a4 5F80     		strh	r7, [r3, #2]	@ movhi
 3418              		.loc 1 871 0
 3419 03a6 1C80     		strh	r4, [r3]	@ movhi
 3420              		.loc 1 873 0
ARM GAS  C:\Users\mathi\AppData\Local\Temp\ccuMtzkg.s 			page 61


 3421 03a8 83F804A0 		strb	r10, [r3, #4]
 3422              		.loc 1 874 0
 3423 03ac 83F80590 		strb	r9, [r3, #5]
 3424              		.loc 1 875 0
 3425 03b0 83F806B0 		strb	fp, [r3, #6]
 3426              		.loc 1 881 0
 3427 03b4 7AE6     		b	.L127
 3428              	.LVL551:
 3429              	.L156:
 3430              		.loc 1 690 0
 3431 03b6 1049     		ldr	r1, .L162
 3432              	.LVL552:
 3433              		.loc 1 691 0
 3434 03b8 5A00     		lsls	r2, r3, #1
 3435              	.LVL553:
 3436              		.loc 1 690 0
 3437 03ba A1FB0303 		umull	r0, r3, r1, r3
 3438              	.LVL554:
 3439 03be 06EB5303 		add	r3, r6, r3, lsr #1
 3440              		.loc 1 691 0
 3441 03c2 A1FB0212 		umull	r1, r2, r1, r2
 3442              		.loc 1 690 0
 3443 03c6 0093     		str	r3, [sp]
 3444              	.LVL555:
 3445              		.loc 1 691 0
 3446 03c8 06EB5203 		add	r3, r6, r2, lsr #1
 3447              	.LVL556:
 3448 03cc 0193     		str	r3, [sp, #4]
 3449              	.LVL557:
 3450              		.loc 1 692 0
 3451 03ce 59E6     		b	.L128
 3452              	.LVL558:
 3453              	.L129:
 3454              		.loc 1 696 0
 3455 03d0 D907     		lsls	r1, r3, #31
 3456              	.LVL559:
 3457 03d2 4DD4     		bmi	.L149
 3458              		.loc 1 701 0
 3459 03d4 084A     		ldr	r2, .L162
 3460              	.LVL560:
 3461              		.loc 1 699 0
 3462 03d6 7408     		lsrs	r4, r6, #1
 3463              	.LVL561:
 3464              		.loc 1 702 0
 3465 03d8 5900     		lsls	r1, r3, #1
 3466              		.loc 1 700 0
 3467 03da 661C     		adds	r6, r4, #1
 3468              	.LVL562:
 3469              		.loc 1 702 0
 3470 03dc A2FB0101 		umull	r0, r1, r2, r1
 3471              	.LVL563:
 3472              		.loc 1 701 0
 3473 03e0 A2FB0302 		umull	r0, r2, r2, r3
 3474              		.loc 1 700 0
 3475 03e4 04EB5304 		add	r4, r4, r3, lsr #1
 3476              	.LVL564:
 3477              		.loc 1 701 0
ARM GAS  C:\Users\mathi\AppData\Local\Temp\ccuMtzkg.s 			page 62


 3478 03e8 06EB9203 		add	r3, r6, r2, lsr #2
 3479              	.LVL565:
 3480 03ec 0093     		str	r3, [sp]
 3481              	.LVL566:
 3482              		.loc 1 702 0
 3483 03ee 06EB9103 		add	r3, r6, r1, lsr #2
 3484              	.LVL567:
 3485 03f2 0193     		str	r3, [sp, #4]
 3486              	.LVL568:
 3487              		.loc 1 704 0
 3488 03f4 46E6     		b	.L128
 3489              	.L163:
 3490 03f6 00BF     		.align	2
 3491              	.L162:
 3492 03f8 ABAAAAAA 		.word	-1431655765
 3493 03fc 00002244 		.word	1143078912
 3494 0400 0000A344 		.word	1151533056
 3495 0404 00000000 		.word	.LANCHOR0
 3496 0408 00000000 		.word	__stack_chk_guard
 3497              	.LVL569:
 3498              	.L157:
 3499              		.loc 1 721 0
 3500 040c 244A     		ldr	r2, .L164
 3501              		.loc 1 722 0
 3502 040e 4FEA4C03 		lsl	r3, ip, #1
 3503              		.loc 1 721 0
 3504 0412 A2FB0C1C 		umull	r1, ip, r2, ip
 3505              		.loc 1 722 0
 3506 0416 A2FB0323 		umull	r2, r3, r2, r3
 3507 041a 07EB5303 		add	r3, r7, r3, lsr #1
 3508              		.loc 1 721 0
 3509 041e 07EB5C02 		add	r2, r7, ip, lsr #1
 3510 0422 0292     		str	r2, [sp, #8]
 3511              	.LVL570:
 3512              		.loc 1 722 0
 3513 0424 0393     		str	r3, [sp, #12]
 3514              	.LVL571:
 3515              		.loc 1 723 0
 3516 0426 3BE6     		b	.L132
 3517              	.LVL572:
 3518              	.L134:
 3519              		.loc 1 739 0
 3520 0428 1CF0030F 		tst	ip, #3
 3521 042c 23D1     		bne	.L152
 3522              		.loc 1 744 0
 3523 042e 1C4B     		ldr	r3, .L164
 3524              		.loc 1 742 0
 3525 0430 BD08     		lsrs	r5, r7, #2
 3526              	.LVL573:
 3527              		.loc 1 745 0
 3528 0432 4FEA4C02 		lsl	r2, ip, #1
 3529              		.loc 1 743 0
 3530 0436 6F1C     		adds	r7, r5, #1
 3531              	.LVL574:
 3532              		.loc 1 745 0
 3533 0438 A3FB0212 		umull	r1, r2, r3, r2
 3534              		.loc 1 744 0
ARM GAS  C:\Users\mathi\AppData\Local\Temp\ccuMtzkg.s 			page 63


 3535 043c A3FB0C13 		umull	r1, r3, r3, ip
 3536 0440 07EBD303 		add	r3, r7, r3, lsr #3
 3537 0444 0293     		str	r3, [sp, #8]
 3538              		.loc 1 745 0
 3539 0446 07EBD203 		add	r3, r7, r2, lsr #3
 3540              		.loc 1 743 0
 3541 044a 05EB9C05 		add	r5, r5, ip, lsr #2
 3542              	.LVL575:
 3543              		.loc 1 745 0
 3544 044e 0393     		str	r3, [sp, #12]
 3545              	.LVL576:
 3546              		.loc 1 747 0
 3547 0450 26E6     		b	.L132
 3548              	.LVL577:
 3549              	.L140:
 3550              		.loc 1 669 0
 3551 0452 6FF00700 		mvn	r0, #7
 3552              	.LVL578:
 3553 0456 29E6     		b	.L127
 3554              	.LVL579:
 3555              	.L144:
 3556              		.loc 1 681 0
 3557 0458 6FF00300 		mvn	r0, #3
 3558              	.LVL580:
 3559 045c 26E6     		b	.L127
 3560              	.LVL581:
 3561              	.L146:
 3562              		.loc 1 685 0
 3563 045e 6FF00400 		mvn	r0, #4
 3564              	.LVL582:
 3565 0462 23E6     		b	.L127
 3566              	.LVL583:
 3567              	.L141:
 3568              		.loc 1 673 0
 3569 0464 6FF00100 		mvn	r0, #1
 3570              	.LVL584:
 3571 0468 20E6     		b	.L127
 3572              	.LVL585:
 3573              	.L142:
 3574              		.loc 1 677 0
 3575 046a 6FF00200 		mvn	r0, #2
 3576              	.LVL586:
 3577 046e 1DE6     		b	.L127
 3578              	.LVL587:
 3579              	.L149:
 3580              		.loc 1 697 0
 3581 0470 6FF00500 		mvn	r0, #5
 3582              	.LVL588:
 3583 0474 1AE6     		b	.L127
 3584              	.LVL589:
 3585              	.L152:
 3586              		.loc 1 728 0
 3587 0476 6FF00600 		mvn	r0, #6
 3588 047a 17E6     		b	.L127
 3589              	.LVL590:
 3590              	.L159:
 3591              		.loc 1 882 0
ARM GAS  C:\Users\mathi\AppData\Local\Temp\ccuMtzkg.s 			page 64


 3592 047c FFF7FEFF 		bl	__stack_chk_fail
 3593              	.LVL591:
 3594              	.L161:
 3595              		.loc 1 857 0
 3596 0480 F2EE006A 		vmov.f32	s13, #8.0e+0
 3597 0484 37EE267A 		vadd.f32	s14, s14, s13
 3598              	.LVL592:
 3599 0488 DFED066A 		vldr.32	s13, .L164+4
 3600 048c 67EE277A 		vmul.f32	s15, s14, s15
 3601              	.LVL593:
 3602 0490 87EEA67A 		vdiv.f32	s14, s15, s13
 3603              	.LVL594:
 3604              		.loc 1 858 0
 3605 0494 FCEEC77A 		vcvt.u32.f32	s15, s14
 3606 0498 CDED007A 		vstr.32	s15, [sp]	@ int
 3607              	.LVL595:
 3608 049c 6BE7     		b	.L137
 3609              	.L165:
 3610 049e 00BF     		.align	2
 3611              	.L164:
 3612 04a0 ABAAAAAA 		.word	-1431655765
 3613 04a4 00002444 		.word	1143209984
 3614              		.cfi_endproc
 3615              	.LFE267:
 3616              		.size	po8030_advanced_config, .-po8030_advanced_config
 3617              		.section	.text.po8030_set_brightness,"ax",%progbits
 3618              		.align	1
 3619              		.p2align 4,,15
 3620              		.global	po8030_set_brightness
 3621              		.syntax unified
 3622              		.thumb
 3623              		.thumb_func
 3624              		.fpu fpv4-sp-d16
 3625              		.type	po8030_set_brightness, %function
 3626              	po8030_set_brightness:
 3627              	.LFB268:
 3628              		.loc 1 887 0
 3629              		.cfi_startproc
 3630              		@ args = 0, pretend = 0, frame = 8
 3631              		@ frame_needed = 0, uses_anonymous_args = 0
 3632              	.LVL596:
 3633 0000 30B5     		push	{r4, r5, lr}
 3634              		.cfi_def_cfa_offset 12
 3635              		.cfi_offset 4, -12
 3636              		.cfi_offset 5, -8
 3637              		.cfi_offset 14, -4
 3638 0002 0E4C     		ldr	r4, .L173
 3639 0004 83B0     		sub	sp, sp, #12
 3640              		.cfi_def_cfa_offset 24
 3641              		.loc 1 887 0
 3642 0006 2368     		ldr	r3, [r4]
 3643 0008 0193     		str	r3, [sp, #4]
 3644              	.LVL597:
 3645              	.LBB266:
 3646              	.LBB267:
 3647              		.loc 1 119 0
 3648 000a 0122     		movs	r2, #1
ARM GAS  C:\Users\mathi\AppData\Local\Temp\ccuMtzkg.s 			page 65


 3649              	.LBE267:
 3650              	.LBE266:
 3651              		.loc 1 887 0
 3652 000c 0546     		mov	r5, r0
 3653              	.LBB269:
 3654              	.LBB268:
 3655              		.loc 1 119 0
 3656 000e 0321     		movs	r1, #3
 3657 0010 6E20     		movs	r0, #110
 3658              	.LVL598:
 3659 0012 FFF7FEFF 		bl	write_reg
 3660              	.LVL599:
 3661              	.LBE268:
 3662              	.LBE269:
 3663              		.loc 1 893 0
 3664 0016 019A     		ldr	r2, [sp, #4]
 3665 0018 2368     		ldr	r3, [r4]
 3666              		.loc 1 889 0
 3667 001a 18B1     		cbz	r0, .L172
 3668              		.loc 1 893 0
 3669 001c 9A42     		cmp	r2, r3
 3670 001e 0BD1     		bne	.L171
 3671 0020 03B0     		add	sp, sp, #12
 3672              		.cfi_remember_state
 3673              		.cfi_def_cfa_offset 12
 3674              		@ sp needed
 3675 0022 30BD     		pop	{r4, r5, pc}
 3676              	.L172:
 3677              		.cfi_restore_state
 3678              		.loc 1 892 0
 3679 0024 9A42     		cmp	r2, r3
 3680 0026 07D1     		bne	.L171
 3681 0028 2A46     		mov	r2, r5
 3682 002a 9E21     		movs	r1, #158
 3683 002c 6E20     		movs	r0, #110
 3684              		.loc 1 893 0
 3685 002e 03B0     		add	sp, sp, #12
 3686              		.cfi_remember_state
 3687              		.cfi_def_cfa_offset 12
 3688              		@ sp needed
 3689 0030 BDE83040 		pop	{r4, r5, lr}
 3690              		.cfi_restore 14
 3691              		.cfi_restore 5
 3692              		.cfi_restore 4
 3693              		.cfi_def_cfa_offset 0
 3694              		.loc 1 892 0
 3695 0034 FFF7FEBF 		b	write_reg
 3696              	.LVL600:
 3697              	.L171:
 3698              		.cfi_restore_state
 3699              		.loc 1 893 0
 3700 0038 FFF7FEFF 		bl	__stack_chk_fail
 3701              	.LVL601:
 3702              	.L174:
 3703              		.align	2
 3704              	.L173:
 3705 003c 00000000 		.word	__stack_chk_guard
ARM GAS  C:\Users\mathi\AppData\Local\Temp\ccuMtzkg.s 			page 66


 3706              		.cfi_endproc
 3707              	.LFE268:
 3708              		.size	po8030_set_brightness, .-po8030_set_brightness
 3709              		.section	.text.po8030_set_contrast,"ax",%progbits
 3710              		.align	1
 3711              		.p2align 4,,15
 3712              		.global	po8030_set_contrast
 3713              		.syntax unified
 3714              		.thumb
 3715              		.thumb_func
 3716              		.fpu fpv4-sp-d16
 3717              		.type	po8030_set_contrast, %function
 3718              	po8030_set_contrast:
 3719              	.LFB269:
 3720              		.loc 1 898 0
 3721              		.cfi_startproc
 3722              		@ args = 0, pretend = 0, frame = 8
 3723              		@ frame_needed = 0, uses_anonymous_args = 0
 3724              	.LVL602:
 3725 0000 30B5     		push	{r4, r5, lr}
 3726              		.cfi_def_cfa_offset 12
 3727              		.cfi_offset 4, -12
 3728              		.cfi_offset 5, -8
 3729              		.cfi_offset 14, -4
 3730 0002 0E4C     		ldr	r4, .L182
 3731 0004 83B0     		sub	sp, sp, #12
 3732              		.cfi_def_cfa_offset 24
 3733              		.loc 1 898 0
 3734 0006 2368     		ldr	r3, [r4]
 3735 0008 0193     		str	r3, [sp, #4]
 3736              	.LVL603:
 3737              	.LBB270:
 3738              	.LBB271:
 3739              		.loc 1 119 0
 3740 000a 0122     		movs	r2, #1
 3741              	.LBE271:
 3742              	.LBE270:
 3743              		.loc 1 898 0
 3744 000c 0546     		mov	r5, r0
 3745              	.LBB273:
 3746              	.LBB272:
 3747              		.loc 1 119 0
 3748 000e 0321     		movs	r1, #3
 3749 0010 6E20     		movs	r0, #110
 3750              	.LVL604:
 3751 0012 FFF7FEFF 		bl	write_reg
 3752              	.LVL605:
 3753              	.LBE272:
 3754              	.LBE273:
 3755              		.loc 1 904 0
 3756 0016 019A     		ldr	r2, [sp, #4]
 3757 0018 2368     		ldr	r3, [r4]
 3758              		.loc 1 900 0
 3759 001a 18B1     		cbz	r0, .L181
 3760              		.loc 1 904 0
 3761 001c 9A42     		cmp	r2, r3
 3762 001e 0BD1     		bne	.L180
ARM GAS  C:\Users\mathi\AppData\Local\Temp\ccuMtzkg.s 			page 67


 3763 0020 03B0     		add	sp, sp, #12
 3764              		.cfi_remember_state
 3765              		.cfi_def_cfa_offset 12
 3766              		@ sp needed
 3767 0022 30BD     		pop	{r4, r5, pc}
 3768              	.L181:
 3769              		.cfi_restore_state
 3770              		.loc 1 903 0
 3771 0024 9A42     		cmp	r2, r3
 3772 0026 07D1     		bne	.L180
 3773 0028 2A46     		mov	r2, r5
 3774 002a 9D21     		movs	r1, #157
 3775 002c 6E20     		movs	r0, #110
 3776              		.loc 1 904 0
 3777 002e 03B0     		add	sp, sp, #12
 3778              		.cfi_remember_state
 3779              		.cfi_def_cfa_offset 12
 3780              		@ sp needed
 3781 0030 BDE83040 		pop	{r4, r5, lr}
 3782              		.cfi_restore 14
 3783              		.cfi_restore 5
 3784              		.cfi_restore 4
 3785              		.cfi_def_cfa_offset 0
 3786              		.loc 1 903 0
 3787 0034 FFF7FEBF 		b	write_reg
 3788              	.LVL606:
 3789              	.L180:
 3790              		.cfi_restore_state
 3791              		.loc 1 904 0
 3792 0038 FFF7FEFF 		bl	__stack_chk_fail
 3793              	.LVL607:
 3794              	.L183:
 3795              		.align	2
 3796              	.L182:
 3797 003c 00000000 		.word	__stack_chk_guard
 3798              		.cfi_endproc
 3799              	.LFE269:
 3800              		.size	po8030_set_contrast, .-po8030_set_contrast
 3801              		.section	.text.po8030_set_mirror,"ax",%progbits
 3802              		.align	1
 3803              		.p2align 4,,15
 3804              		.global	po8030_set_mirror
 3805              		.syntax unified
 3806              		.thumb
 3807              		.thumb_func
 3808              		.fpu fpv4-sp-d16
 3809              		.type	po8030_set_mirror, %function
 3810              	po8030_set_mirror:
 3811              	.LFB270:
 3812              		.loc 1 910 0
 3813              		.cfi_startproc
 3814              		@ args = 0, pretend = 0, frame = 8
 3815              		@ frame_needed = 0, uses_anonymous_args = 0
 3816              	.LVL608:
 3817 0000 70B5     		push	{r4, r5, r6, lr}
 3818              		.cfi_def_cfa_offset 16
 3819              		.cfi_offset 4, -16
ARM GAS  C:\Users\mathi\AppData\Local\Temp\ccuMtzkg.s 			page 68


 3820              		.cfi_offset 5, -12
 3821              		.cfi_offset 6, -8
 3822              		.cfi_offset 14, -4
 3823 0002 144C     		ldr	r4, .L195
 3824 0004 82B0     		sub	sp, sp, #8
 3825              		.cfi_def_cfa_offset 24
 3826              		.loc 1 910 0
 3827 0006 0646     		mov	r6, r0
 3828 0008 0D46     		mov	r5, r1
 3829 000a 2368     		ldr	r3, [r4]
 3830 000c 0193     		str	r3, [sp, #4]
 3831              	.LVL609:
 3832              	.LBB274:
 3833              	.LBB275:
 3834              		.loc 1 119 0
 3835 000e 0022     		movs	r2, #0
 3836 0010 0321     		movs	r1, #3
 3837              	.LVL610:
 3838 0012 6E20     		movs	r0, #110
 3839              	.LVL611:
 3840 0014 FFF7FEFF 		bl	write_reg
 3841              	.LVL612:
 3842              	.LBE275:
 3843              	.LBE274:
 3844              		.loc 1 914 0
 3845 0018 98B9     		cbnz	r0, .L185
 3846              		.loc 1 918 0
 3847 001a 012E     		cmp	r6, #1
 3848              		.loc 1 925 0
 3849 001c 0199     		ldr	r1, [sp, #4]
 3850 001e 2368     		ldr	r3, [r4]
 3851              		.loc 1 918 0
 3852 0020 0BBF     		itete	eq
 3853 0022 C022     		moveq	r2, #192
 3854 0024 4022     		movne	r2, #64
 3855 0026 8020     		moveq	r0, #128
 3856 0028 0020     		movne	r0, #0
 3857              	.LVL613:
 3858              		.loc 1 921 0
 3859 002a 012D     		cmp	r5, #1
 3860 002c 18BF     		it	ne
 3861 002e 0246     		movne	r2, r0
 3862              	.LVL614:
 3863              		.loc 1 925 0
 3864 0030 9942     		cmp	r1, r3
 3865 0032 0CD1     		bne	.L194
 3866 0034 6C21     		movs	r1, #108
 3867 0036 6E20     		movs	r0, #110
 3868              		.loc 1 926 0
 3869 0038 02B0     		add	sp, sp, #8
 3870              		.cfi_remember_state
 3871              		.cfi_def_cfa_offset 16
 3872              		@ sp needed
 3873 003a BDE87040 		pop	{r4, r5, r6, lr}
 3874              		.cfi_restore 14
 3875              		.cfi_restore 6
 3876              		.cfi_restore 5
ARM GAS  C:\Users\mathi\AppData\Local\Temp\ccuMtzkg.s 			page 69


 3877              		.cfi_restore 4
 3878              		.cfi_def_cfa_offset 0
 3879              		.loc 1 925 0
 3880 003e FFF7FEBF 		b	write_reg
 3881              	.LVL615:
 3882              	.L185:
 3883              		.cfi_restore_state
 3884              		.loc 1 926 0
 3885 0042 019A     		ldr	r2, [sp, #4]
 3886 0044 2368     		ldr	r3, [r4]
 3887 0046 9A42     		cmp	r2, r3
 3888 0048 01D1     		bne	.L194
 3889 004a 02B0     		add	sp, sp, #8
 3890              		.cfi_remember_state
 3891              		.cfi_def_cfa_offset 16
 3892              		@ sp needed
 3893 004c 70BD     		pop	{r4, r5, r6, pc}
 3894              	.LVL616:
 3895              	.L194:
 3896              		.cfi_restore_state
 3897 004e FFF7FEFF 		bl	__stack_chk_fail
 3898              	.LVL617:
 3899              	.L196:
 3900 0052 00BF     		.align	2
 3901              	.L195:
 3902 0054 00000000 		.word	__stack_chk_guard
 3903              		.cfi_endproc
 3904              	.LFE270:
 3905              		.size	po8030_set_mirror, .-po8030_set_mirror
 3906              		.section	.text.po8030_set_awb,"ax",%progbits
 3907              		.align	1
 3908              		.p2align 4,,15
 3909              		.global	po8030_set_awb
 3910              		.syntax unified
 3911              		.thumb
 3912              		.thumb_func
 3913              		.fpu fpv4-sp-d16
 3914              		.type	po8030_set_awb, %function
 3915              	po8030_set_awb:
 3916              	.LFB271:
 3917              		.loc 1 931 0
 3918              		.cfi_startproc
 3919              		@ args = 0, pretend = 0, frame = 8
 3920              		@ frame_needed = 0, uses_anonymous_args = 0
 3921              	.LVL618:
 3922 0000 30B5     		push	{r4, r5, lr}
 3923              		.cfi_def_cfa_offset 12
 3924              		.cfi_offset 4, -12
 3925              		.cfi_offset 5, -8
 3926              		.cfi_offset 14, -4
 3927 0002 174C     		ldr	r4, .L205
 3928 0004 83B0     		sub	sp, sp, #12
 3929              		.cfi_def_cfa_offset 24
 3930              		.loc 1 931 0
 3931 0006 2368     		ldr	r3, [r4]
 3932 0008 0193     		str	r3, [sp, #4]
 3933              	.LVL619:
ARM GAS  C:\Users\mathi\AppData\Local\Temp\ccuMtzkg.s 			page 70


 3934 000a 0546     		mov	r5, r0
 3935              		.loc 1 933 0
 3936 000c 0023     		movs	r3, #0
 3937              	.LBB278:
 3938              	.LBB279:
 3939              		.loc 1 119 0
 3940 000e 0222     		movs	r2, #2
 3941 0010 0321     		movs	r1, #3
 3942 0012 6E20     		movs	r0, #110
 3943              	.LVL620:
 3944              	.LBE279:
 3945              	.LBE278:
 3946              		.loc 1 933 0
 3947 0014 8DF80330 		strb	r3, [sp, #3]
 3948              	.LVL621:
 3949              	.LBB281:
 3950              	.LBB280:
 3951              		.loc 1 119 0
 3952 0018 FFF7FEFF 		bl	write_reg
 3953              	.LVL622:
 3954              	.LBE280:
 3955              	.LBE281:
 3956              		.loc 1 935 0
 3957 001c 28B1     		cbz	r0, .L203
 3958              	.L198:
 3959              		.loc 1 950 0
 3960 001e 019A     		ldr	r2, [sp, #4]
 3961 0020 2368     		ldr	r3, [r4]
 3962 0022 9A42     		cmp	r2, r3
 3963 0024 19D1     		bne	.L204
 3964 0026 03B0     		add	sp, sp, #12
 3965              		.cfi_remember_state
 3966              		.cfi_def_cfa_offset 12
 3967              		@ sp needed
 3968 0028 30BD     		pop	{r4, r5, pc}
 3969              	.L203:
 3970              		.cfi_restore_state
 3971              		.loc 1 939 0
 3972 002a 0DF10302 		add	r2, sp, #3
 3973 002e 0421     		movs	r1, #4
 3974 0030 6E20     		movs	r0, #110
 3975 0032 FFF7FEFF 		bl	read_reg
 3976              	.LVL623:
 3977 0036 0028     		cmp	r0, #0
 3978 0038 F1D1     		bne	.L198
 3979 003a 9DF80330 		ldrb	r3, [sp, #3]	@ zero_extendqisi2
 3980              		.loc 1 943 0
 3981 003e 012D     		cmp	r5, #1
 3982              		.loc 1 944 0
 3983 0040 0CBF     		ite	eq
 3984 0042 03F0FB03 		andeq	r3, r3, #251
 3985              		.loc 1 946 0
 3986 0046 43F00403 		orrne	r3, r3, #4
 3987              		.loc 1 949 0
 3988 004a 1A46     		mov	r2, r3
 3989 004c 0421     		movs	r1, #4
 3990 004e 6E20     		movs	r0, #110
ARM GAS  C:\Users\mathi\AppData\Local\Temp\ccuMtzkg.s 			page 71


 3991              	.LVL624:
 3992 0050 8DF80330 		strb	r3, [sp, #3]
 3993 0054 FFF7FEFF 		bl	write_reg
 3994              	.LVL625:
 3995 0058 E1E7     		b	.L198
 3996              	.L204:
 3997              		.loc 1 950 0
 3998 005a FFF7FEFF 		bl	__stack_chk_fail
 3999              	.LVL626:
 4000              	.L206:
 4001 005e 00BF     		.align	2
 4002              	.L205:
 4003 0060 00000000 		.word	__stack_chk_guard
 4004              		.cfi_endproc
 4005              	.LFE271:
 4006              		.size	po8030_set_awb, .-po8030_set_awb
 4007              		.section	.text.po8030_set_rgb_gain,"ax",%progbits
 4008              		.align	1
 4009              		.p2align 4,,15
 4010              		.global	po8030_set_rgb_gain
 4011              		.syntax unified
 4012              		.thumb
 4013              		.thumb_func
 4014              		.fpu fpv4-sp-d16
 4015              		.type	po8030_set_rgb_gain, %function
 4016              	po8030_set_rgb_gain:
 4017              	.LFB272:
 4018              		.loc 1 958 0
 4019              		.cfi_startproc
 4020              		@ args = 0, pretend = 0, frame = 8
 4021              		@ frame_needed = 0, uses_anonymous_args = 0
 4022              	.LVL627:
 4023 0000 F0B5     		push	{r4, r5, r6, r7, lr}
 4024              		.cfi_def_cfa_offset 20
 4025              		.cfi_offset 4, -20
 4026              		.cfi_offset 5, -16
 4027              		.cfi_offset 6, -12
 4028              		.cfi_offset 7, -8
 4029              		.cfi_offset 14, -4
 4030 0002 244C     		ldr	r4, .L214
 4031 0004 83B0     		sub	sp, sp, #12
 4032              		.cfi_def_cfa_offset 32
 4033              		.loc 1 958 0
 4034 0006 2368     		ldr	r3, [r4]
 4035 0008 0193     		str	r3, [sp, #4]
 4036              	.LVL628:
 4037 000a 0546     		mov	r5, r0
 4038 000c 0E46     		mov	r6, r1
 4039 000e 1746     		mov	r7, r2
 4040              	.LBB288:
 4041              	.LBB289:
 4042              		.loc 1 933 0
 4043 0010 0023     		movs	r3, #0
 4044              	.LBB290:
 4045              	.LBB291:
 4046              		.loc 1 119 0
 4047 0012 0222     		movs	r2, #2
ARM GAS  C:\Users\mathi\AppData\Local\Temp\ccuMtzkg.s 			page 72


 4048              	.LVL629:
 4049 0014 0321     		movs	r1, #3
 4050              	.LVL630:
 4051 0016 6E20     		movs	r0, #110
 4052              	.LVL631:
 4053              	.LBE291:
 4054              	.LBE290:
 4055              		.loc 1 933 0
 4056 0018 8DF80330 		strb	r3, [sp, #3]
 4057              	.LVL632:
 4058              	.LBB293:
 4059              	.LBB292:
 4060              		.loc 1 119 0
 4061 001c FFF7FEFF 		bl	write_reg
 4062              	.LVL633:
 4063              	.LBE292:
 4064              	.LBE293:
 4065              		.loc 1 935 0
 4066 0020 28B1     		cbz	r0, .L212
 4067              	.LVL634:
 4068              	.L209:
 4069              	.LBE289:
 4070              	.LBE288:
 4071              		.loc 1 980 0
 4072 0022 019A     		ldr	r2, [sp, #4]
 4073 0024 2368     		ldr	r3, [r4]
 4074 0026 9A42     		cmp	r2, r3
 4075 0028 31D1     		bne	.L213
 4076 002a 03B0     		add	sp, sp, #12
 4077              		.cfi_remember_state
 4078              		.cfi_def_cfa_offset 20
 4079              		@ sp needed
 4080 002c F0BD     		pop	{r4, r5, r6, r7, pc}
 4081              	.LVL635:
 4082              	.L212:
 4083              		.cfi_restore_state
 4084              	.LBB295:
 4085              	.LBB294:
 4086              		.loc 1 939 0
 4087 002e 0DF10302 		add	r2, sp, #3
 4088 0032 0421     		movs	r1, #4
 4089 0034 6E20     		movs	r0, #110
 4090 0036 FFF7FEFF 		bl	read_reg
 4091              	.LVL636:
 4092 003a 0028     		cmp	r0, #0
 4093 003c F1D1     		bne	.L209
 4094              		.loc 1 946 0
 4095 003e 9DF80330 		ldrb	r3, [sp, #3]	@ zero_extendqisi2
 4096 0042 43F00403 		orr	r3, r3, #4
 4097              		.loc 1 949 0
 4098 0046 1A46     		mov	r2, r3
 4099 0048 0421     		movs	r1, #4
 4100 004a 6E20     		movs	r0, #110
 4101              	.LVL637:
 4102              		.loc 1 946 0
 4103 004c 8DF80330 		strb	r3, [sp, #3]
 4104              		.loc 1 949 0
ARM GAS  C:\Users\mathi\AppData\Local\Temp\ccuMtzkg.s 			page 73


 4105 0050 FFF7FEFF 		bl	write_reg
 4106              	.LVL638:
 4107              	.LBE294:
 4108              	.LBE295:
 4109              		.loc 1 961 0
 4110 0054 0028     		cmp	r0, #0
 4111 0056 E4D1     		bne	.L209
 4112              	.LVL639:
 4113              	.LBB296:
 4114              	.LBB297:
 4115              		.loc 1 119 0
 4116 0058 0246     		mov	r2, r0
 4117 005a 0321     		movs	r1, #3
 4118 005c 6E20     		movs	r0, #110
 4119 005e FFF7FEFF 		bl	write_reg
 4120              	.LVL640:
 4121              	.LBE297:
 4122              	.LBE296:
 4123              		.loc 1 965 0
 4124 0062 0028     		cmp	r0, #0
 4125 0064 DDD1     		bne	.L209
 4126              		.loc 1 969 0
 4127 0066 2A46     		mov	r2, r5
 4128 0068 2321     		movs	r1, #35
 4129 006a 6E20     		movs	r0, #110
 4130 006c FFF7FEFF 		bl	write_reg
 4131              	.LVL641:
 4132 0070 0028     		cmp	r0, #0
 4133 0072 D6D1     		bne	.L209
 4134              		.loc 1 972 0
 4135 0074 3246     		mov	r2, r6
 4136 0076 2421     		movs	r1, #36
 4137 0078 6E20     		movs	r0, #110
 4138              	.LVL642:
 4139 007a FFF7FEFF 		bl	write_reg
 4140              	.LVL643:
 4141 007e 0028     		cmp	r0, #0
 4142 0080 CFD1     		bne	.L209
 4143              		.loc 1 975 0
 4144 0082 3A46     		mov	r2, r7
 4145 0084 2521     		movs	r1, #37
 4146 0086 6E20     		movs	r0, #110
 4147              	.LVL644:
 4148 0088 FFF7FEFF 		bl	write_reg
 4149              	.LVL645:
 4150 008c C9E7     		b	.L209
 4151              	.LVL646:
 4152              	.L213:
 4153              		.loc 1 980 0
 4154 008e FFF7FEFF 		bl	__stack_chk_fail
 4155              	.LVL647:
 4156              	.L215:
 4157 0092 00BF     		.align	2
 4158              	.L214:
 4159 0094 00000000 		.word	__stack_chk_guard
 4160              		.cfi_endproc
 4161              	.LFE272:
ARM GAS  C:\Users\mathi\AppData\Local\Temp\ccuMtzkg.s 			page 74


 4162              		.size	po8030_set_rgb_gain, .-po8030_set_rgb_gain
 4163              		.section	.text.po8030_set_ae,"ax",%progbits
 4164              		.align	1
 4165              		.p2align 4,,15
 4166              		.global	po8030_set_ae
 4167              		.syntax unified
 4168              		.thumb
 4169              		.thumb_func
 4170              		.fpu fpv4-sp-d16
 4171              		.type	po8030_set_ae, %function
 4172              	po8030_set_ae:
 4173              	.LFB273:
 4174              		.loc 1 985 0
 4175              		.cfi_startproc
 4176              		@ args = 0, pretend = 0, frame = 8
 4177              		@ frame_needed = 0, uses_anonymous_args = 0
 4178              	.LVL648:
 4179 0000 30B5     		push	{r4, r5, lr}
 4180              		.cfi_def_cfa_offset 12
 4181              		.cfi_offset 4, -12
 4182              		.cfi_offset 5, -8
 4183              		.cfi_offset 14, -4
 4184 0002 174C     		ldr	r4, .L224
 4185 0004 83B0     		sub	sp, sp, #12
 4186              		.cfi_def_cfa_offset 24
 4187              		.loc 1 985 0
 4188 0006 2368     		ldr	r3, [r4]
 4189 0008 0193     		str	r3, [sp, #4]
 4190              	.LVL649:
 4191 000a 0546     		mov	r5, r0
 4192              		.loc 1 987 0
 4193 000c 0023     		movs	r3, #0
 4194              	.LBB300:
 4195              	.LBB301:
 4196              		.loc 1 119 0
 4197 000e 0222     		movs	r2, #2
 4198 0010 0321     		movs	r1, #3
 4199 0012 6E20     		movs	r0, #110
 4200              	.LVL650:
 4201              	.LBE301:
 4202              	.LBE300:
 4203              		.loc 1 987 0
 4204 0014 8DF80330 		strb	r3, [sp, #3]
 4205              	.LVL651:
 4206              	.LBB303:
 4207              	.LBB302:
 4208              		.loc 1 119 0
 4209 0018 FFF7FEFF 		bl	write_reg
 4210              	.LVL652:
 4211              	.LBE302:
 4212              	.LBE303:
 4213              		.loc 1 989 0
 4214 001c 28B1     		cbz	r0, .L222
 4215              	.L217:
 4216              		.loc 1 1004 0
 4217 001e 019A     		ldr	r2, [sp, #4]
 4218 0020 2368     		ldr	r3, [r4]
ARM GAS  C:\Users\mathi\AppData\Local\Temp\ccuMtzkg.s 			page 75


 4219 0022 9A42     		cmp	r2, r3
 4220 0024 19D1     		bne	.L223
 4221 0026 03B0     		add	sp, sp, #12
 4222              		.cfi_remember_state
 4223              		.cfi_def_cfa_offset 12
 4224              		@ sp needed
 4225 0028 30BD     		pop	{r4, r5, pc}
 4226              	.L222:
 4227              		.cfi_restore_state
 4228              		.loc 1 993 0
 4229 002a 0DF10302 		add	r2, sp, #3
 4230 002e 0421     		movs	r1, #4
 4231 0030 6E20     		movs	r0, #110
 4232 0032 FFF7FEFF 		bl	read_reg
 4233              	.LVL653:
 4234 0036 0028     		cmp	r0, #0
 4235 0038 F1D1     		bne	.L217
 4236 003a 9DF80330 		ldrb	r3, [sp, #3]	@ zero_extendqisi2
 4237              		.loc 1 997 0
 4238 003e 012D     		cmp	r5, #1
 4239              		.loc 1 998 0
 4240 0040 0CBF     		ite	eq
 4241 0042 03F0FC03 		andeq	r3, r3, #252
 4242              		.loc 1 1000 0
 4243 0046 43F00303 		orrne	r3, r3, #3
 4244              		.loc 1 1003 0
 4245 004a 1A46     		mov	r2, r3
 4246 004c 0421     		movs	r1, #4
 4247 004e 6E20     		movs	r0, #110
 4248              	.LVL654:
 4249 0050 8DF80330 		strb	r3, [sp, #3]
 4250 0054 FFF7FEFF 		bl	write_reg
 4251              	.LVL655:
 4252 0058 E1E7     		b	.L217
 4253              	.L223:
 4254              		.loc 1 1004 0
 4255 005a FFF7FEFF 		bl	__stack_chk_fail
 4256              	.LVL656:
 4257              	.L225:
 4258 005e 00BF     		.align	2
 4259              	.L224:
 4260 0060 00000000 		.word	__stack_chk_guard
 4261              		.cfi_endproc
 4262              	.LFE273:
 4263              		.size	po8030_set_ae, .-po8030_set_ae
 4264              		.section	.text.po8030_set_exposure,"ax",%progbits
 4265              		.align	1
 4266              		.p2align 4,,15
 4267              		.global	po8030_set_exposure
 4268              		.syntax unified
 4269              		.thumb
 4270              		.thumb_func
 4271              		.fpu fpv4-sp-d16
 4272              		.type	po8030_set_exposure, %function
 4273              	po8030_set_exposure:
 4274              	.LFB274:
 4275              		.loc 1 1011 0
ARM GAS  C:\Users\mathi\AppData\Local\Temp\ccuMtzkg.s 			page 76


 4276              		.cfi_startproc
 4277              		@ args = 0, pretend = 0, frame = 8
 4278              		@ frame_needed = 0, uses_anonymous_args = 0
 4279              	.LVL657:
 4280 0000 70B5     		push	{r4, r5, r6, lr}
 4281              		.cfi_def_cfa_offset 16
 4282              		.cfi_offset 4, -16
 4283              		.cfi_offset 5, -12
 4284              		.cfi_offset 6, -8
 4285              		.cfi_offset 14, -4
 4286 0002 234C     		ldr	r4, .L233
 4287 0004 82B0     		sub	sp, sp, #8
 4288              		.cfi_def_cfa_offset 24
 4289              		.loc 1 1011 0
 4290 0006 2368     		ldr	r3, [r4]
 4291 0008 0193     		str	r3, [sp, #4]
 4292              	.LVL658:
 4293 000a 0546     		mov	r5, r0
 4294 000c 0E46     		mov	r6, r1
 4295              	.LBB310:
 4296              	.LBB311:
 4297              		.loc 1 987 0
 4298 000e 0023     		movs	r3, #0
 4299              	.LBB312:
 4300              	.LBB313:
 4301              		.loc 1 119 0
 4302 0010 0222     		movs	r2, #2
 4303 0012 0321     		movs	r1, #3
 4304              	.LVL659:
 4305 0014 6E20     		movs	r0, #110
 4306              	.LVL660:
 4307              	.LBE313:
 4308              	.LBE312:
 4309              		.loc 1 987 0
 4310 0016 8DF80330 		strb	r3, [sp, #3]
 4311              	.LVL661:
 4312              	.LBB315:
 4313              	.LBB314:
 4314              		.loc 1 119 0
 4315 001a FFF7FEFF 		bl	write_reg
 4316              	.LVL662:
 4317              	.LBE314:
 4318              	.LBE315:
 4319              		.loc 1 989 0
 4320 001e 28B1     		cbz	r0, .L231
 4321              	.LVL663:
 4322              	.L228:
 4323              	.LBE311:
 4324              	.LBE310:
 4325              		.loc 1 1033 0
 4326 0020 019A     		ldr	r2, [sp, #4]
 4327 0022 2368     		ldr	r3, [r4]
 4328 0024 9A42     		cmp	r2, r3
 4329 0026 31D1     		bne	.L232
 4330 0028 02B0     		add	sp, sp, #8
 4331              		.cfi_remember_state
 4332              		.cfi_def_cfa_offset 16
ARM GAS  C:\Users\mathi\AppData\Local\Temp\ccuMtzkg.s 			page 77


 4333              		@ sp needed
 4334 002a 70BD     		pop	{r4, r5, r6, pc}
 4335              	.LVL664:
 4336              	.L231:
 4337              		.cfi_restore_state
 4338              	.LBB317:
 4339              	.LBB316:
 4340              		.loc 1 993 0
 4341 002c 0DF10302 		add	r2, sp, #3
 4342 0030 0421     		movs	r1, #4
 4343 0032 6E20     		movs	r0, #110
 4344 0034 FFF7FEFF 		bl	read_reg
 4345              	.LVL665:
 4346 0038 0028     		cmp	r0, #0
 4347 003a F1D1     		bne	.L228
 4348              		.loc 1 1000 0
 4349 003c 9DF80330 		ldrb	r3, [sp, #3]	@ zero_extendqisi2
 4350 0040 43F00303 		orr	r3, r3, #3
 4351              		.loc 1 1003 0
 4352 0044 1A46     		mov	r2, r3
 4353 0046 0421     		movs	r1, #4
 4354 0048 6E20     		movs	r0, #110
 4355              	.LVL666:
 4356              		.loc 1 1000 0
 4357 004a 8DF80330 		strb	r3, [sp, #3]
 4358              		.loc 1 1003 0
 4359 004e FFF7FEFF 		bl	write_reg
 4360              	.LVL667:
 4361              	.LBE316:
 4362              	.LBE317:
 4363              		.loc 1 1014 0
 4364 0052 0028     		cmp	r0, #0
 4365 0054 E4D1     		bne	.L228
 4366              	.LVL668:
 4367              	.LBB318:
 4368              	.LBB319:
 4369              		.loc 1 119 0
 4370 0056 0246     		mov	r2, r0
 4371 0058 0321     		movs	r1, #3
 4372 005a 6E20     		movs	r0, #110
 4373 005c FFF7FEFF 		bl	write_reg
 4374              	.LVL669:
 4375              	.LBE319:
 4376              	.LBE318:
 4377              		.loc 1 1018 0
 4378 0060 0028     		cmp	r0, #0
 4379 0062 DDD1     		bne	.L228
 4380              		.loc 1 1022 0
 4381 0064 2A0A     		lsrs	r2, r5, #8
 4382 0066 1721     		movs	r1, #23
 4383 0068 6E20     		movs	r0, #110
 4384 006a FFF7FEFF 		bl	write_reg
 4385              	.LVL670:
 4386 006e 0028     		cmp	r0, #0
 4387 0070 D6D1     		bne	.L228
 4388              		.loc 1 1025 0
 4389 0072 EAB2     		uxtb	r2, r5
ARM GAS  C:\Users\mathi\AppData\Local\Temp\ccuMtzkg.s 			page 78


 4390 0074 1821     		movs	r1, #24
 4391 0076 6E20     		movs	r0, #110
 4392              	.LVL671:
 4393 0078 FFF7FEFF 		bl	write_reg
 4394              	.LVL672:
 4395 007c 0028     		cmp	r0, #0
 4396 007e CFD1     		bne	.L228
 4397              		.loc 1 1028 0
 4398 0080 3246     		mov	r2, r6
 4399 0082 1921     		movs	r1, #25
 4400 0084 6E20     		movs	r0, #110
 4401              	.LVL673:
 4402 0086 FFF7FEFF 		bl	write_reg
 4403              	.LVL674:
 4404 008a C9E7     		b	.L228
 4405              	.LVL675:
 4406              	.L232:
 4407              		.loc 1 1033 0
 4408 008c FFF7FEFF 		bl	__stack_chk_fail
 4409              	.LVL676:
 4410              	.L234:
 4411              		.align	2
 4412              	.L233:
 4413 0090 00000000 		.word	__stack_chk_guard
 4414              		.cfi_endproc
 4415              	.LFE274:
 4416              		.size	po8030_set_exposure, .-po8030_set_exposure
 4417              		.section	.text.po8030_get_image_size,"ax",%progbits
 4418              		.align	1
 4419              		.p2align 4,,15
 4420              		.global	po8030_get_image_size
 4421              		.syntax unified
 4422              		.thumb
 4423              		.thumb_func
 4424              		.fpu fpv4-sp-d16
 4425              		.type	po8030_get_image_size, %function
 4426              	po8030_get_image_size:
 4427              	.LFB275:
 4428              		.loc 1 1037 0
 4429              		.cfi_startproc
 4430              		@ args = 0, pretend = 0, frame = 8
 4431              		@ frame_needed = 0, uses_anonymous_args = 0
 4432 0000 10B5     		push	{r4, lr}
 4433              		.cfi_def_cfa_offset 8
 4434              		.cfi_offset 4, -8
 4435              		.cfi_offset 14, -4
 4436 0002 0A4B     		ldr	r3, .L243
 4437 0004 0A4A     		ldr	r2, .L243+4
 4438 0006 1988     		ldrh	r1, [r3]
 4439 0008 1468     		ldr	r4, [r2]
 4440 000a 5888     		ldrh	r0, [r3, #2]
 4441              		.loc 1 1038 0
 4442 000c 1B79     		ldrb	r3, [r3, #4]	@ zero_extendqisi2
 4443              		.loc 1 1037 0
 4444 000e 82B0     		sub	sp, sp, #8
 4445              		.cfi_def_cfa_offset 16
 4446              		.loc 1 1038 0
ARM GAS  C:\Users\mathi\AppData\Local\Temp\ccuMtzkg.s 			page 79


 4447 0010 442B     		cmp	r3, #68
 4448              		.loc 1 1037 0
 4449 0012 0194     		str	r4, [sp, #4]
 4450 0014 00FB01F0 		mul	r0, r0, r1
 4451              		.loc 1 1043 0
 4452 0018 0199     		ldr	r1, [sp, #4]
 4453 001a 1368     		ldr	r3, [r2]
 4454              		.loc 1 1041 0
 4455 001c 18BF     		it	ne
 4456 001e 4000     		lslne	r0, r0, #1
 4457              		.loc 1 1043 0
 4458 0020 9942     		cmp	r1, r3
 4459 0022 01D1     		bne	.L242
 4460 0024 02B0     		add	sp, sp, #8
 4461              		.cfi_remember_state
 4462              		.cfi_def_cfa_offset 8
 4463              		@ sp needed
 4464 0026 10BD     		pop	{r4, pc}
 4465              	.L242:
 4466              		.cfi_restore_state
 4467 0028 FFF7FEFF 		bl	__stack_chk_fail
 4468              	.LVL677:
 4469              	.L244:
 4470              		.align	2
 4471              	.L243:
 4472 002c 00000000 		.word	.LANCHOR0
 4473 0030 00000000 		.word	__stack_chk_guard
 4474              		.cfi_endproc
 4475              	.LFE275:
 4476              		.size	po8030_get_image_size, .-po8030_get_image_size
 4477              		.section	.bss.po8030_conf,"aw",%nobits
 4478              		.align	2
 4479              		.set	.LANCHOR0,. + 0
 4480              		.type	po8030_conf, %object
 4481              		.size	po8030_conf, 8
 4482              	po8030_conf:
 4483 0000 00000000 		.space	8
 4483      00000000 
 4484              		.section	.rodata.pwmcfg_cam.9993,"a",%progbits
 4485              		.align	2
 4486              		.set	.LANCHOR1,. + 0
 4487              		.type	pwmcfg_cam.9993, %object
 4488              		.size	pwmcfg_cam.9993, 52
 4489              	pwmcfg_cam.9993:
 4490 0000 80DE8002 		.word	42000000
 4491 0004 02000000 		.word	2
 4492 0008 00000000 		.word	0
 4493 000c 01000000 		.word	1
 4494 0010 00000000 		.word	0
 4495 0014 00000000 		.word	0
 4496 0018 00000000 		.word	0
 4497 001c 00000000 		.word	0
 4498 0020 00000000 		.word	0
 4499 0024 00000000 		.word	0
 4500 0028 00000000 		.word	0
 4501 002c 00000000 		.word	0
 4502 0030 00000000 		.space	4
ARM GAS  C:\Users\mathi\AppData\Local\Temp\ccuMtzkg.s 			page 80


 4503              		.text
 4504              	.Letext0:
 4505              		.file 2 "c:\\eclipse_e-puck2\\tools\\gcc-arm-none-eabi-7-2017-q4-major-win32\\lib\\gcc\\arm-none-e
 4506              		.file 3 "c:\\eclipse_e-puck2\\tools\\gcc-arm-none-eabi-7-2017-q4-major-win32\\arm-none-eabi\\inclu
 4507              		.file 4 "c:\\eclipse_e-puck2\\tools\\gcc-arm-none-eabi-7-2017-q4-major-win32\\arm-none-eabi\\inclu
 4508              		.file 5 "../../lib/e-puck2_main-processor/ChibiOS//os/rt/ports/ARMCMx/compilers/GCC/chtypes.h"
 4509              		.file 6 "../../lib/e-puck2_main-processor/ChibiOS//os/rt/include/chsystypes.h"
 4510              		.file 7 "../../lib/e-puck2_main-processor/ChibiOS//os/rt/include/chschd.h"
 4511              		.file 8 "../../lib/e-puck2_main-processor/ChibiOS//os/ext/CMSIS/include/core_cm4.h"
 4512              		.file 9 "../../lib/e-puck2_main-processor/ChibiOS//os/ext/CMSIS/ST/system_stm32f4xx.h"
 4513              		.file 10 "../../lib/e-puck2_main-processor/ChibiOS//os/ext/CMSIS/ST/stm32f407xx.h"
 4514              		.file 11 "../../lib/e-puck2_main-processor/ChibiOS//os/rt/ports/ARMCMx/chcore.h"
 4515              		.file 12 "../../lib/e-puck2_main-processor/ChibiOS//os/rt/ports/ARMCMx/chcore_v7m.h"
 4516              		.file 13 "../../lib/e-puck2_main-processor/ChibiOS//os/rt/include/chdebug.h"
 4517              		.file 14 "../../lib/e-puck2_main-processor/ChibiOS//os/rt/include/chtm.h"
 4518              		.file 15 "../../lib/e-puck2_main-processor/ChibiOS//os/rt/include/chstats.h"
 4519              		.file 16 "../../lib/e-puck2_main-processor/ChibiOS//os/rt/include/chsem.h"
 4520              		.file 17 "../../lib/e-puck2_main-processor/ChibiOS//os/rt/include/chmtx.h"
 4521              		.file 18 "../../lib/e-puck2_main-processor/ChibiOS//os/rt/include/chregistry.h"
 4522              		.file 19 "../../lib/e-puck2_main-processor/ChibiOS//os/rt/include/chevents.h"
 4523              		.file 20 "../../lib/e-puck2_main-processor/ChibiOS//os/rt/include/chqueues.h"
 4524              		.file 21 "../../lib/e-puck2_main-processor/ChibiOS//os/hal/ports/STM32/STM32F4xx/stm32_dma.h"
 4525              		.file 22 "../../lib/e-puck2_main-processor/ChibiOS//os/hal/include/hal_ioblock.h"
 4526              		.file 23 "../../lib/e-puck2_main-processor/ChibiOS//os/hal/ports/STM32/LLD/GPIOv2/pal_lld.h"
 4527              		.file 24 "../../lib/e-puck2_main-processor/ChibiOS//os/hal/include/adc.h"
 4528              		.file 25 "../../lib/e-puck2_main-processor/ChibiOS//os/hal/ports/STM32/STM32F4xx/adc_lld.h"
 4529              		.file 26 "../../lib/e-puck2_main-processor/ChibiOS//os/hal/include/can.h"
 4530              		.file 27 "../../lib/e-puck2_main-processor/ChibiOS//os/hal/ports/STM32/LLD/can_lld.h"
 4531              		.file 28 "../../lib/e-puck2_main-processor/ChibiOS//os/hal/include/dac.h"
 4532              		.file 29 "../../lib/e-puck2_main-processor/ChibiOS//os/hal/ports/STM32/LLD/DACv1/dac_lld.h"
 4533              		.file 30 "../../lib/e-puck2_main-processor/ChibiOS//os/hal/include/ext.h"
 4534              		.file 31 "../../lib/e-puck2_main-processor/ChibiOS//os/hal/ports/STM32/LLD/ext_lld.h"
 4535              		.file 32 "../../lib/e-puck2_main-processor/ChibiOS//os/hal/include/gpt.h"
 4536              		.file 33 "../../lib/e-puck2_main-processor/ChibiOS//os/hal/ports/STM32/LLD/TIMv1/gpt_lld.h"
 4537              		.file 34 "../../lib/e-puck2_main-processor/ChibiOS//os/hal/ports/STM32/LLD/TIMv1/stm32_tim.h"
 4538              		.file 35 "../../lib/e-puck2_main-processor/ChibiOS//os/hal/include/i2c.h"
 4539              		.file 36 "../../lib/e-puck2_main-processor/ChibiOS//os/hal/ports/STM32/LLD/I2Cv1/i2c_lld.h"
 4540              		.file 37 "../../lib/e-puck2_main-processor/ChibiOS//os/hal/include/i2s.h"
 4541              		.file 38 "../../lib/e-puck2_main-processor/ChibiOS//os/hal/ports/STM32/LLD/SPIv1/i2s_lld.h"
 4542              		.file 39 "../../lib/e-puck2_main-processor/ChibiOS//os/hal/include/pwm.h"
 4543              		.file 40 "../../lib/e-puck2_main-processor/ChibiOS//os/hal/ports/STM32/LLD/TIMv1/pwm_lld.h"
 4544              		.file 41 "../../lib/e-puck2_main-processor/ChibiOS//os/hal/include/serial.h"
 4545              		.file 42 "../../lib/e-puck2_main-processor/ChibiOS//os/hal/ports/STM32/LLD/USARTv1/serial_lld.h"
 4546              		.file 43 "../../lib/e-puck2_main-processor/ChibiOS//os/hal/include/sdc.h"
 4547              		.file 44 "../../lib/e-puck2_main-processor/ChibiOS//os/hal/ports/STM32/LLD/sdc_lld.h"
 4548              		.file 45 "../../lib/e-puck2_main-processor/ChibiOS//os/hal/include/spi.h"
 4549              		.file 46 "../../lib/e-puck2_main-processor/ChibiOS//os/hal/ports/STM32/LLD/SPIv1/spi_lld.h"
 4550              		.file 47 "../../lib/e-puck2_main-processor/ChibiOS//os/hal/include/usb.h"
 4551              		.file 48 "../../lib/e-puck2_main-processor/ChibiOS//os/hal/ports/STM32/LLD/OTGv1/usb_lld.h"
 4552              		.file 49 "../../lib/e-puck2_main-processor/ChibiOS//os/hal/ports/STM32/LLD/OTGv1/stm32_otg.h"
 4553              		.file 50 "../../lib/e-puck2_main-processor/ChibiOS//os/hal/include/serial_usb.h"
 4554              		.file 51 "../../lib/e-puck2_main-processor/src/camera/po8030.h"
 4555              		.file 52 "../../lib/e-puck2_main-processor/src/usbcfg.h"
 4556              		.file 53 "../../lib/e-puck2_main-processor/src/camera/../i2c_bus.h"
 4557              		.section	.debug_info,"",%progbits
 4558              	.Ldebug_info0:
 4559 0000 B5630000 		.4byte	0x63b5
ARM GAS  C:\Users\mathi\AppData\Local\Temp\ccuMtzkg.s 			page 81


 4560 0004 0400     		.2byte	0x4
 4561 0006 00000000 		.4byte	.Ldebug_abbrev0
 4562 000a 04       		.byte	0x4
 4563 000b 01       		.uleb128 0x1
 4564 000c 4F010000 		.4byte	.LASF799
 4565 0010 0C       		.byte	0xc
 4566 0011 B8100000 		.4byte	.LASF800
 4567 0015 0D120000 		.4byte	.LASF801
 4568 0019 B0010000 		.4byte	.Ldebug_ranges0+0x1b0
 4569 001d 00000000 		.4byte	0
 4570 0021 00000000 		.4byte	.Ldebug_line0
 4571 0025 02       		.uleb128 0x2
 4572 0026 04       		.byte	0x4
 4573 0027 04       		.byte	0x4
 4574 0028 99090000 		.4byte	.LASF0
 4575 002c 02       		.uleb128 0x2
 4576 002d 04       		.byte	0x4
 4577 002e 07       		.byte	0x7
 4578 002f 9C200000 		.4byte	.LASF1
 4579 0033 03       		.uleb128 0x3
 4580 0034 04       		.byte	0x4
 4581 0035 05       		.byte	0x5
 4582 0036 696E7400 		.ascii	"int\000"
 4583 003a 04       		.uleb128 0x4
 4584 003b 970C0000 		.4byte	.LASF4
 4585 003f 02       		.byte	0x2
 4586 0040 D8       		.byte	0xd8
 4587 0041 2C000000 		.4byte	0x2c
 4588 0045 02       		.uleb128 0x2
 4589 0046 08       		.byte	0x8
 4590 0047 05       		.byte	0x5
 4591 0048 661E0000 		.4byte	.LASF2
 4592 004c 02       		.uleb128 0x2
 4593 004d 08       		.byte	0x8
 4594 004e 04       		.byte	0x4
 4595 004f 2A160000 		.4byte	.LASF3
 4596 0053 04       		.uleb128 0x4
 4597 0054 2E200000 		.4byte	.LASF5
 4598 0058 03       		.byte	0x3
 4599 0059 29       		.byte	0x29
 4600 005a 5E000000 		.4byte	0x5e
 4601 005e 02       		.uleb128 0x2
 4602 005f 01       		.byte	0x1
 4603 0060 06       		.byte	0x6
 4604 0061 ED120000 		.4byte	.LASF6
 4605 0065 04       		.uleb128 0x4
 4606 0066 B3000000 		.4byte	.LASF7
 4607 006a 03       		.byte	0x3
 4608 006b 2B       		.byte	0x2b
 4609 006c 70000000 		.4byte	0x70
 4610 0070 02       		.uleb128 0x2
 4611 0071 01       		.byte	0x1
 4612 0072 08       		.byte	0x8
 4613 0073 34090000 		.4byte	.LASF8
 4614 0077 04       		.uleb128 0x4
 4615 0078 B3070000 		.4byte	.LASF9
 4616 007c 03       		.byte	0x3
ARM GAS  C:\Users\mathi\AppData\Local\Temp\ccuMtzkg.s 			page 82


 4617 007d 37       		.byte	0x37
 4618 007e 82000000 		.4byte	0x82
 4619 0082 02       		.uleb128 0x2
 4620 0083 02       		.byte	0x2
 4621 0084 05       		.byte	0x5
 4622 0085 FD200000 		.4byte	.LASF10
 4623 0089 04       		.uleb128 0x4
 4624 008a BD070000 		.4byte	.LASF11
 4625 008e 03       		.byte	0x3
 4626 008f 39       		.byte	0x39
 4627 0090 94000000 		.4byte	0x94
 4628 0094 02       		.uleb128 0x2
 4629 0095 02       		.byte	0x2
 4630 0096 07       		.byte	0x7
 4631 0097 D2120000 		.4byte	.LASF12
 4632 009b 04       		.uleb128 0x4
 4633 009c 321A0000 		.4byte	.LASF13
 4634 00a0 03       		.byte	0x3
 4635 00a1 4D       		.byte	0x4d
 4636 00a2 A6000000 		.4byte	0xa6
 4637 00a6 02       		.uleb128 0x2
 4638 00a7 04       		.byte	0x4
 4639 00a8 05       		.byte	0x5
 4640 00a9 18150000 		.4byte	.LASF14
 4641 00ad 04       		.uleb128 0x4
 4642 00ae 3C1A0000 		.4byte	.LASF15
 4643 00b2 03       		.byte	0x3
 4644 00b3 4F       		.byte	0x4f
 4645 00b4 B8000000 		.4byte	0xb8
 4646 00b8 02       		.uleb128 0x2
 4647 00b9 04       		.byte	0x4
 4648 00ba 07       		.byte	0x7
 4649 00bb 6F160000 		.4byte	.LASF16
 4650 00bf 04       		.uleb128 0x4
 4651 00c0 340F0000 		.4byte	.LASF17
 4652 00c4 03       		.byte	0x3
 4653 00c5 69       		.byte	0x69
 4654 00c6 CA000000 		.4byte	0xca
 4655 00ca 02       		.uleb128 0x2
 4656 00cb 08       		.byte	0x8
 4657 00cc 07       		.byte	0x7
 4658 00cd 3A1C0000 		.4byte	.LASF18
 4659 00d1 04       		.uleb128 0x4
 4660 00d2 87110000 		.4byte	.LASF19
 4661 00d6 04       		.byte	0x4
 4662 00d7 14       		.byte	0x14
 4663 00d8 53000000 		.4byte	0x53
 4664 00dc 04       		.uleb128 0x4
 4665 00dd B40C0000 		.4byte	.LASF20
 4666 00e1 04       		.byte	0x4
 4667 00e2 18       		.byte	0x18
 4668 00e3 65000000 		.4byte	0x65
 4669 00e7 05       		.uleb128 0x5
 4670 00e8 DC000000 		.4byte	0xdc
 4671 00ec 04       		.uleb128 0x4
 4672 00ed B5120000 		.4byte	.LASF21
 4673 00f1 04       		.byte	0x4
ARM GAS  C:\Users\mathi\AppData\Local\Temp\ccuMtzkg.s 			page 83


 4674 00f2 20       		.byte	0x20
 4675 00f3 77000000 		.4byte	0x77
 4676 00f7 04       		.uleb128 0x4
 4677 00f8 BD020000 		.4byte	.LASF22
 4678 00fc 04       		.byte	0x4
 4679 00fd 24       		.byte	0x24
 4680 00fe 89000000 		.4byte	0x89
 4681 0102 04       		.uleb128 0x4
 4682 0103 3B040000 		.4byte	.LASF23
 4683 0107 04       		.byte	0x4
 4684 0108 2C       		.byte	0x2c
 4685 0109 9B000000 		.4byte	0x9b
 4686 010d 06       		.uleb128 0x6
 4687 010e 02010000 		.4byte	0x102
 4688 0112 04       		.uleb128 0x4
 4689 0113 05160000 		.4byte	.LASF24
 4690 0117 04       		.byte	0x4
 4691 0118 30       		.byte	0x30
 4692 0119 AD000000 		.4byte	0xad
 4693 011d 06       		.uleb128 0x6
 4694 011e 12010000 		.4byte	0x112
 4695 0122 05       		.uleb128 0x5
 4696 0123 1D010000 		.4byte	0x11d
 4697 0127 04       		.uleb128 0x4
 4698 0128 5B0A0000 		.4byte	.LASF25
 4699 012c 04       		.byte	0x4
 4700 012d 3C       		.byte	0x3c
 4701 012e BF000000 		.4byte	0xbf
 4702 0132 04       		.uleb128 0x4
 4703 0133 150C0000 		.4byte	.LASF26
 4704 0137 05       		.byte	0x5
 4705 0138 45       		.byte	0x45
 4706 0139 12010000 		.4byte	0x112
 4707 013d 04       		.uleb128 0x4
 4708 013e 1A060000 		.4byte	.LASF27
 4709 0142 05       		.byte	0x5
 4710 0143 46       		.byte	0x46
 4711 0144 27010000 		.4byte	0x127
 4712 0148 04       		.uleb128 0x4
 4713 0149 91100000 		.4byte	.LASF28
 4714 014d 05       		.byte	0x5
 4715 014e 48       		.byte	0x48
 4716 014f DC000000 		.4byte	0xdc
 4717 0153 04       		.uleb128 0x4
 4718 0154 3B1D0000 		.4byte	.LASF29
 4719 0158 05       		.byte	0x5
 4720 0159 49       		.byte	0x49
 4721 015a DC000000 		.4byte	0xdc
 4722 015e 04       		.uleb128 0x4
 4723 015f 29100000 		.4byte	.LASF30
 4724 0163 05       		.byte	0x5
 4725 0164 4A       		.byte	0x4a
 4726 0165 DC000000 		.4byte	0xdc
 4727 0169 04       		.uleb128 0x4
 4728 016a 03120000 		.4byte	.LASF31
 4729 016e 05       		.byte	0x5
 4730 016f 4B       		.byte	0x4b
ARM GAS  C:\Users\mathi\AppData\Local\Temp\ccuMtzkg.s 			page 84


 4731 0170 DC000000 		.4byte	0xdc
 4732 0174 04       		.uleb128 0x4
 4733 0175 C6060000 		.4byte	.LASF32
 4734 0179 05       		.byte	0x5
 4735 017a 4C       		.byte	0x4c
 4736 017b 12010000 		.4byte	0x112
 4737 017f 04       		.uleb128 0x4
 4738 0180 45000000 		.4byte	.LASF33
 4739 0184 05       		.byte	0x5
 4740 0185 4D       		.byte	0x4d
 4741 0186 02010000 		.4byte	0x102
 4742 018a 04       		.uleb128 0x4
 4743 018b 4A160000 		.4byte	.LASF34
 4744 018f 05       		.byte	0x5
 4745 0190 4F       		.byte	0x4f
 4746 0191 12010000 		.4byte	0x112
 4747 0195 04       		.uleb128 0x4
 4748 0196 D31E0000 		.4byte	.LASF35
 4749 019a 05       		.byte	0x5
 4750 019b 50       		.byte	0x50
 4751 019c 12010000 		.4byte	0x112
 4752 01a0 04       		.uleb128 0x4
 4753 01a1 30180000 		.4byte	.LASF36
 4754 01a5 05       		.byte	0x5
 4755 01a6 51       		.byte	0x51
 4756 01a7 02010000 		.4byte	0x102
 4757 01ab 04       		.uleb128 0x4
 4758 01ac 1B130000 		.4byte	.LASF37
 4759 01b0 05       		.byte	0x5
 4760 01b1 52       		.byte	0x52
 4761 01b2 12010000 		.4byte	0x112
 4762 01b6 04       		.uleb128 0x4
 4763 01b7 4F040000 		.4byte	.LASF38
 4764 01bb 06       		.byte	0x6
 4765 01bc 33       		.byte	0x33
 4766 01bd 12010000 		.4byte	0x112
 4767 01c1 06       		.uleb128 0x6
 4768 01c2 B6010000 		.4byte	0x1b6
 4769 01c6 04       		.uleb128 0x4
 4770 01c7 F3030000 		.4byte	.LASF39
 4771 01cb 06       		.byte	0x6
 4772 01cc 3F       		.byte	0x3f
 4773 01cd D1010000 		.4byte	0x1d1
 4774 01d1 07       		.uleb128 0x7
 4775 01d2 75090000 		.4byte	.LASF63
 4776 01d6 68       		.byte	0x68
 4777 01d7 07       		.byte	0x7
 4778 01d8 C2       		.byte	0xc2
 4779 01d9 EF020000 		.4byte	0x2ef
 4780 01dd 08       		.uleb128 0x8
 4781 01de C60F0000 		.4byte	.LASF40
 4782 01e2 07       		.byte	0x7
 4783 01e3 C3       		.byte	0xc3
 4784 01e4 FA020000 		.4byte	0x2fa
 4785 01e8 00       		.byte	0
 4786 01e9 08       		.uleb128 0x8
 4787 01ea D40C0000 		.4byte	.LASF41
ARM GAS  C:\Users\mathi\AppData\Local\Temp\ccuMtzkg.s 			page 85


 4788 01ee 07       		.byte	0x7
 4789 01ef C5       		.byte	0xc5
 4790 01f0 FA020000 		.4byte	0x2fa
 4791 01f4 04       		.byte	0x4
 4792 01f5 08       		.uleb128 0x8
 4793 01f6 F30E0000 		.4byte	.LASF42
 4794 01fa 07       		.byte	0x7
 4795 01fb C7       		.byte	0xc7
 4796 01fc 74010000 		.4byte	0x174
 4797 0200 08       		.byte	0x8
 4798 0201 08       		.uleb128 0x8
 4799 0202 FC090000 		.4byte	.LASF43
 4800 0206 07       		.byte	0x7
 4801 0207 C8       		.byte	0xc8
 4802 0208 040D0000 		.4byte	0xd04
 4803 020c 0C       		.byte	0xc
 4804 020d 08       		.uleb128 0x8
 4805 020e 3F030000 		.4byte	.LASF44
 4806 0212 07       		.byte	0x7
 4807 0213 CA       		.byte	0xca
 4808 0214 FA020000 		.4byte	0x2fa
 4809 0218 10       		.byte	0x10
 4810 0219 08       		.uleb128 0x8
 4811 021a 681F0000 		.4byte	.LASF45
 4812 021e 07       		.byte	0x7
 4813 021f CB       		.byte	0xcb
 4814 0220 FA020000 		.4byte	0x2fa
 4815 0224 14       		.byte	0x14
 4816 0225 08       		.uleb128 0x8
 4817 0226 9D1D0000 		.4byte	.LASF46
 4818 022a 07       		.byte	0x7
 4819 022b D2       		.byte	0xd2
 4820 022c 7A100000 		.4byte	0x107a
 4821 0230 18       		.byte	0x18
 4822 0231 08       		.uleb128 0x8
 4823 0232 25180000 		.4byte	.LASF47
 4824 0236 07       		.byte	0x7
 4825 0237 D8       		.byte	0xd8
 4826 0238 91100000 		.4byte	0x1091
 4827 023c 1C       		.byte	0x1c
 4828 023d 08       		.uleb128 0x8
 4829 023e 88210000 		.4byte	.LASF48
 4830 0242 07       		.byte	0x7
 4831 0243 DD       		.byte	0xdd
 4832 0244 53010000 		.4byte	0x153
 4833 0248 20       		.byte	0x20
 4834 0249 08       		.uleb128 0x8
 4835 024a 011D0000 		.4byte	.LASF49
 4836 024e 07       		.byte	0x7
 4837 024f E1       		.byte	0xe1
 4838 0250 48010000 		.4byte	0x148
 4839 0254 21       		.byte	0x21
 4840 0255 08       		.uleb128 0x8
 4841 0256 F7140000 		.4byte	.LASF50
 4842 025a 07       		.byte	0x7
 4843 025b E6       		.byte	0xe6
 4844 025c 5E010000 		.4byte	0x15e
ARM GAS  C:\Users\mathi\AppData\Local\Temp\ccuMtzkg.s 			page 86


 4845 0260 22       		.byte	0x22
 4846 0261 08       		.uleb128 0x8
 4847 0262 02130000 		.4byte	.LASF51
 4848 0266 07       		.byte	0x7
 4849 0267 EC       		.byte	0xec
 4850 0268 69010000 		.4byte	0x169
 4851 026c 23       		.byte	0x23
 4852 026d 08       		.uleb128 0x8
 4853 026e F0140000 		.4byte	.LASF52
 4854 0272 07       		.byte	0x7
 4855 0273 F3       		.byte	0xf3
 4856 0274 C1010000 		.4byte	0x1c1
 4857 0278 24       		.byte	0x24
 4858 0279 09       		.uleb128 0x9
 4859 027a 705F7500 		.ascii	"p_u\000"
 4860 027e 07       		.byte	0x7
 4861 027f 3101     		.2byte	0x131
 4862 0281 A90F0000 		.4byte	0xfa9
 4863 0285 28       		.byte	0x28
 4864 0286 0A       		.uleb128 0xa
 4865 0287 75050000 		.4byte	.LASF53
 4866 028b 07       		.byte	0x7
 4867 028c 3601     		.2byte	0x136
 4868 028e 00030000 		.4byte	0x300
 4869 0292 2C       		.byte	0x2c
 4870 0293 0A       		.uleb128 0xa
 4871 0294 83130000 		.4byte	.LASF54
 4872 0298 07       		.byte	0x7
 4873 0299 3C01     		.2byte	0x13c
 4874 029b 24030000 		.4byte	0x324
 4875 029f 30       		.byte	0x30
 4876 02a0 0A       		.uleb128 0xa
 4877 02a1 E0070000 		.4byte	.LASF55
 4878 02a5 07       		.byte	0x7
 4879 02a6 4001     		.2byte	0x140
 4880 02a8 7F010000 		.4byte	0x17f
 4881 02ac 38       		.byte	0x38
 4882 02ad 0A       		.uleb128 0xa
 4883 02ae CA1A0000 		.4byte	.LASF56
 4884 02b2 07       		.byte	0x7
 4885 02b3 4601     		.2byte	0x146
 4886 02b5 8A010000 		.4byte	0x18a
 4887 02b9 3C       		.byte	0x3c
 4888 02ba 0A       		.uleb128 0xa
 4889 02bb 261D0000 		.4byte	.LASF57
 4890 02bf 07       		.byte	0x7
 4891 02c0 4D01     		.2byte	0x14d
 4892 02c2 74100000 		.4byte	0x1074
 4893 02c6 40       		.byte	0x40
 4894 02c7 0A       		.uleb128 0xa
 4895 02c8 83190000 		.4byte	.LASF58
 4896 02cc 07       		.byte	0x7
 4897 02cd 5101     		.2byte	0x151
 4898 02cf 74010000 		.4byte	0x174
 4899 02d3 44       		.byte	0x44
 4900 02d4 0A       		.uleb128 0xa
 4901 02d5 31100000 		.4byte	.LASF59
ARM GAS  C:\Users\mathi\AppData\Local\Temp\ccuMtzkg.s 			page 87


 4902 02d9 07       		.byte	0x7
 4903 02da 5801     		.2byte	0x158
 4904 02dc D7030000 		.4byte	0x3d7
 4905 02e0 48       		.byte	0x48
 4906 02e1 0A       		.uleb128 0xa
 4907 02e2 C3210000 		.4byte	.LASF60
 4908 02e6 07       		.byte	0x7
 4909 02e7 5E01     		.2byte	0x15e
 4910 02e9 5A0F0000 		.4byte	0xf5a
 4911 02ed 50       		.byte	0x50
 4912 02ee 00       		.byte	0
 4913 02ef 04       		.uleb128 0x4
 4914 02f0 C21F0000 		.4byte	.LASF61
 4915 02f4 06       		.byte	0x6
 4916 02f5 44       		.byte	0x44
 4917 02f6 FA020000 		.4byte	0x2fa
 4918 02fa 0B       		.uleb128 0xb
 4919 02fb 04       		.byte	0x4
 4920 02fc C6010000 		.4byte	0x1c6
 4921 0300 04       		.uleb128 0x4
 4922 0301 B4050000 		.4byte	.LASF62
 4923 0305 06       		.byte	0x6
 4924 0306 49       		.byte	0x49
 4925 0307 0B030000 		.4byte	0x30b
 4926 030b 07       		.uleb128 0x7
 4927 030c A2210000 		.4byte	.LASF64
 4928 0310 04       		.byte	0x4
 4929 0311 07       		.byte	0x7
 4930 0312 B0       		.byte	0xb0
 4931 0313 24030000 		.4byte	0x324
 4932 0317 08       		.uleb128 0x8
 4933 0318 C60F0000 		.4byte	.LASF40
 4934 031c 07       		.byte	0x7
 4935 031d B1       		.byte	0xb1
 4936 031e FA020000 		.4byte	0x2fa
 4937 0322 00       		.byte	0
 4938 0323 00       		.byte	0
 4939 0324 04       		.uleb128 0x4
 4940 0325 D5140000 		.4byte	.LASF65
 4941 0329 06       		.byte	0x6
 4942 032a 50       		.byte	0x50
 4943 032b 2F030000 		.4byte	0x32f
 4944 032f 07       		.uleb128 0x7
 4945 0330 20030000 		.4byte	.LASF66
 4946 0334 08       		.byte	0x8
 4947 0335 07       		.byte	0x7
 4948 0336 B7       		.byte	0xb7
 4949 0337 54030000 		.4byte	0x354
 4950 033b 08       		.uleb128 0x8
 4951 033c C60F0000 		.4byte	.LASF40
 4952 0340 07       		.byte	0x7
 4953 0341 B8       		.byte	0xb8
 4954 0342 FA020000 		.4byte	0x2fa
 4955 0346 00       		.byte	0
 4956 0347 08       		.uleb128 0x8
 4957 0348 D40C0000 		.4byte	.LASF41
 4958 034c 07       		.byte	0x7
ARM GAS  C:\Users\mathi\AppData\Local\Temp\ccuMtzkg.s 			page 88


 4959 034d B9       		.byte	0xb9
 4960 034e FA020000 		.4byte	0x2fa
 4961 0352 04       		.byte	0x4
 4962 0353 00       		.byte	0
 4963 0354 04       		.uleb128 0x4
 4964 0355 68090000 		.4byte	.LASF67
 4965 0359 06       		.byte	0x6
 4966 035a 57       		.byte	0x57
 4967 035b 5F030000 		.4byte	0x35f
 4968 035f 0C       		.uleb128 0xc
 4969 0360 1E1A0000 		.4byte	.LASF68
 4970 0364 1C       		.byte	0x1c
 4971 0365 07       		.byte	0x7
 4972 0366 9001     		.2byte	0x190
 4973 0368 BB030000 		.4byte	0x3bb
 4974 036c 0A       		.uleb128 0xa
 4975 036d 14170000 		.4byte	.LASF69
 4976 0371 07       		.byte	0x7
 4977 0372 9101     		.2byte	0x191
 4978 0374 24030000 		.4byte	0x324
 4979 0378 00       		.byte	0
 4980 0379 0A       		.uleb128 0xa
 4981 037a 0F1C0000 		.4byte	.LASF70
 4982 037e 07       		.byte	0x7
 4983 037f 9201     		.2byte	0x192
 4984 0381 74010000 		.4byte	0x174
 4985 0385 08       		.byte	0x8
 4986 0386 0A       		.uleb128 0xa
 4987 0387 F50B0000 		.4byte	.LASF71
 4988 038b 07       		.byte	0x7
 4989 038c 9401     		.2byte	0x194
 4990 038e 040D0000 		.4byte	0xd04
 4991 0392 0C       		.byte	0xc
 4992 0393 0A       		.uleb128 0xa
 4993 0394 AC110000 		.4byte	.LASF72
 4994 0398 07       		.byte	0x7
 4995 0399 9701     		.2byte	0x197
 4996 039b FA020000 		.4byte	0x2fa
 4997 039f 10       		.byte	0x10
 4998 03a0 0A       		.uleb128 0xa
 4999 03a1 CC0C0000 		.4byte	.LASF73
 5000 03a5 07       		.byte	0x7
 5001 03a6 9801     		.2byte	0x198
 5002 03a8 FA020000 		.4byte	0x2fa
 5003 03ac 14       		.byte	0x14
 5004 03ad 0A       		.uleb128 0xa
 5005 03ae 210A0000 		.4byte	.LASF74
 5006 03b2 07       		.byte	0x7
 5007 03b3 9B01     		.2byte	0x19b
 5008 03b5 FA020000 		.4byte	0x2fa
 5009 03b9 18       		.byte	0x18
 5010 03ba 00       		.byte	0
 5011 03bb 04       		.uleb128 0x4
 5012 03bc 3A190000 		.4byte	.LASF75
 5013 03c0 06       		.byte	0x6
 5014 03c1 5C       		.byte	0x5c
 5015 03c2 C6030000 		.4byte	0x3c6
ARM GAS  C:\Users\mathi\AppData\Local\Temp\ccuMtzkg.s 			page 89


 5016 03c6 0B       		.uleb128 0xb
 5017 03c7 04       		.byte	0x4
 5018 03c8 CC030000 		.4byte	0x3cc
 5019 03cc 0D       		.uleb128 0xd
 5020 03cd D7030000 		.4byte	0x3d7
 5021 03d1 0E       		.uleb128 0xe
 5022 03d2 D7030000 		.4byte	0x3d7
 5023 03d6 00       		.byte	0
 5024 03d7 0F       		.uleb128 0xf
 5025 03d8 04       		.byte	0x4
 5026 03d9 04       		.uleb128 0x4
 5027 03da D90B0000 		.4byte	.LASF76
 5028 03de 06       		.byte	0x6
 5029 03df 61       		.byte	0x61
 5030 03e0 E4030000 		.4byte	0x3e4
 5031 03e4 0C       		.uleb128 0xc
 5032 03e5 F01C0000 		.4byte	.LASF77
 5033 03e9 14       		.byte	0x14
 5034 03ea 07       		.byte	0x7
 5035 03eb 6B01     		.2byte	0x16b
 5036 03ed 33040000 		.4byte	0x433
 5037 03f1 0A       		.uleb128 0xa
 5038 03f2 FB0B0000 		.4byte	.LASF78
 5039 03f6 07       		.byte	0x7
 5040 03f7 6C01     		.2byte	0x16c
 5041 03f9 97100000 		.4byte	0x1097
 5042 03fd 00       		.byte	0
 5043 03fe 0A       		.uleb128 0xa
 5044 03ff 1C090000 		.4byte	.LASF79
 5045 0403 07       		.byte	0x7
 5046 0404 6D01     		.2byte	0x16d
 5047 0406 97100000 		.4byte	0x1097
 5048 040a 04       		.byte	0x4
 5049 040b 0A       		.uleb128 0xa
 5050 040c 8B120000 		.4byte	.LASF80
 5051 0410 07       		.byte	0x7
 5052 0411 6E01     		.2byte	0x16e
 5053 0413 B6010000 		.4byte	0x1b6
 5054 0417 08       		.byte	0x8
 5055 0418 0A       		.uleb128 0xa
 5056 0419 BD1C0000 		.4byte	.LASF81
 5057 041d 07       		.byte	0x7
 5058 041e 6F01     		.2byte	0x16f
 5059 0420 BB030000 		.4byte	0x3bb
 5060 0424 0C       		.byte	0xc
 5061 0425 0A       		.uleb128 0xa
 5062 0426 020A0000 		.4byte	.LASF82
 5063 042a 07       		.byte	0x7
 5064 042b 7101     		.2byte	0x171
 5065 042d D7030000 		.4byte	0x3d7
 5066 0431 10       		.byte	0x10
 5067 0432 00       		.byte	0
 5068 0433 04       		.uleb128 0x4
 5069 0434 E61D0000 		.4byte	.LASF83
 5070 0438 06       		.byte	0x6
 5071 0439 66       		.byte	0x66
 5072 043a 3E040000 		.4byte	0x43e
ARM GAS  C:\Users\mathi\AppData\Local\Temp\ccuMtzkg.s 			page 90


 5073 043e 0C       		.uleb128 0xc
 5074 043f 1D040000 		.4byte	.LASF84
 5075 0443 10       		.byte	0x10
 5076 0444 07       		.byte	0x7
 5077 0445 7B01     		.2byte	0x17b
 5078 0447 80040000 		.4byte	0x480
 5079 044b 0A       		.uleb128 0xa
 5080 044c FB0B0000 		.4byte	.LASF78
 5081 0450 07       		.byte	0x7
 5082 0451 7C01     		.2byte	0x17c
 5083 0453 97100000 		.4byte	0x1097
 5084 0457 00       		.byte	0
 5085 0458 0A       		.uleb128 0xa
 5086 0459 1C090000 		.4byte	.LASF79
 5087 045d 07       		.byte	0x7
 5088 045e 7E01     		.2byte	0x17e
 5089 0460 97100000 		.4byte	0x1097
 5090 0464 04       		.byte	0x4
 5091 0465 0A       		.uleb128 0xa
 5092 0466 8B120000 		.4byte	.LASF80
 5093 046a 07       		.byte	0x7
 5094 046b 8001     		.2byte	0x180
 5095 046d B6010000 		.4byte	0x1b6
 5096 0471 08       		.byte	0x8
 5097 0472 0A       		.uleb128 0xa
 5098 0473 22010000 		.4byte	.LASF85
 5099 0477 07       		.byte	0x7
 5100 0478 8201     		.2byte	0x182
 5101 047a C1010000 		.4byte	0x1c1
 5102 047e 0C       		.byte	0xc
 5103 047f 00       		.byte	0
 5104 0480 04       		.uleb128 0x4
 5105 0481 DA090000 		.4byte	.LASF86
 5106 0485 06       		.byte	0x6
 5107 0486 6B       		.byte	0x6b
 5108 0487 8B040000 		.4byte	0x48b
 5109 048b 10       		.uleb128 0x10
 5110 048c 471A0000 		.4byte	.LASF87
 5111 0490 1404     		.2byte	0x414
 5112 0492 07       		.byte	0x7
 5113 0493 A201     		.2byte	0x1a2
 5114 0495 CE040000 		.4byte	0x4ce
 5115 0499 0A       		.uleb128 0xa
 5116 049a 8E110000 		.4byte	.LASF88
 5117 049e 07       		.byte	0x7
 5118 049f AA01     		.2byte	0x1aa
 5119 04a1 80100000 		.4byte	0x1080
 5120 04a5 00       		.byte	0
 5121 04a6 0A       		.uleb128 0xa
 5122 04a7 5C110000 		.4byte	.LASF89
 5123 04ab 07       		.byte	0x7
 5124 04ac AF01     		.2byte	0x1af
 5125 04ae A0010000 		.4byte	0x1a0
 5126 04b2 04       		.byte	0x4
 5127 04b3 0A       		.uleb128 0xa
 5128 04b4 17030000 		.4byte	.LASF90
 5129 04b8 07       		.byte	0x7
ARM GAS  C:\Users\mathi\AppData\Local\Temp\ccuMtzkg.s 			page 91


 5130 04b9 B301     		.2byte	0x1b3
 5131 04bb A0010000 		.4byte	0x1a0
 5132 04bf 08       		.byte	0x8
 5133 04c0 0A       		.uleb128 0xa
 5134 04c1 65140000 		.4byte	.LASF91
 5135 04c5 07       		.byte	0x7
 5136 04c6 B901     		.2byte	0x1b9
 5137 04c8 EC0E0000 		.4byte	0xeec
 5138 04cc 0C       		.byte	0xc
 5139 04cd 00       		.byte	0
 5140 04ce 04       		.uleb128 0x4
 5141 04cf A7000000 		.4byte	.LASF92
 5142 04d3 06       		.byte	0x6
 5143 04d4 70       		.byte	0x70
 5144 04d5 D9040000 		.4byte	0x4d9
 5145 04d9 10       		.uleb128 0x10
 5146 04da 55140000 		.4byte	.LASF93
 5147 04de 7006     		.2byte	0x670
 5148 04e0 07       		.byte	0x7
 5149 04e1 C201     		.2byte	0x1c2
 5150 04e3 46050000 		.4byte	0x546
 5151 04e7 0A       		.uleb128 0xa
 5152 04e8 AE050000 		.4byte	.LASF94
 5153 04ec 07       		.byte	0x7
 5154 04ed C601     		.2byte	0x1c6
 5155 04ef 54030000 		.4byte	0x354
 5156 04f3 00       		.byte	0
 5157 04f4 0A       		.uleb128 0xa
 5158 04f5 4B050000 		.4byte	.LASF95
 5159 04f9 07       		.byte	0x7
 5160 04fa CA01     		.2byte	0x1ca
 5161 04fc 33040000 		.4byte	0x433
 5162 0500 1C       		.byte	0x1c
 5163 0501 09       		.uleb128 0x9
 5164 0502 64626700 		.ascii	"dbg\000"
 5165 0506 07       		.byte	0x7
 5166 0507 CE01     		.2byte	0x1ce
 5167 0509 80040000 		.4byte	0x480
 5168 050d 2C       		.byte	0x2c
 5169 050e 11       		.uleb128 0x11
 5170 050f 21150000 		.4byte	.LASF96
 5171 0513 07       		.byte	0x7
 5172 0514 D201     		.2byte	0x1d2
 5173 0516 C6010000 		.4byte	0x1c6
 5174 051a 4004     		.2byte	0x440
 5175 051c 12       		.uleb128 0x12
 5176 051d 746D00   		.ascii	"tm\000"
 5177 0520 07       		.byte	0x7
 5178 0521 D701     		.2byte	0x1d7
 5179 0523 0C0F0000 		.4byte	0xf0c
 5180 0527 A804     		.2byte	0x4a8
 5181 0529 11       		.uleb128 0x11
 5182 052a 9E0C0000 		.4byte	.LASF97
 5183 052e 07       		.byte	0x7
 5184 052f DD01     		.2byte	0x1dd
 5185 0531 9E0F0000 		.4byte	0xf9e
 5186 0535 B004     		.2byte	0x4b0
ARM GAS  C:\Users\mathi\AppData\Local\Temp\ccuMtzkg.s 			page 92


 5187 0537 11       		.uleb128 0x11
 5188 0538 9A1C0000 		.4byte	.LASF98
 5189 053c 07       		.byte	0x7
 5190 053d E301     		.2byte	0x1e3
 5191 053f 9D100000 		.4byte	0x109d
 5192 0543 E804     		.2byte	0x4e8
 5193 0545 00       		.byte	0
 5194 0546 13       		.uleb128 0x13
 5195 0547 12010000 		.4byte	0x112
 5196 054b 56050000 		.4byte	0x556
 5197 054f 14       		.uleb128 0x14
 5198 0550 2C000000 		.4byte	0x2c
 5199 0554 01       		.byte	0x1
 5200 0555 00       		.byte	0
 5201 0556 13       		.uleb128 0x13
 5202 0557 12010000 		.4byte	0x112
 5203 055b 66050000 		.4byte	0x566
 5204 055f 14       		.uleb128 0x14
 5205 0560 2C000000 		.4byte	0x2c
 5206 0564 07       		.byte	0x7
 5207 0565 00       		.byte	0
 5208 0566 15       		.uleb128 0x15
 5209 0567 1D1C0000 		.4byte	.LASF99
 5210 056b 08       		.byte	0x8
 5211 056c A706     		.2byte	0x6a7
 5212 056e 0D010000 		.4byte	0x10d
 5213 0572 16       		.uleb128 0x16
 5214 0573 AC130000 		.4byte	.LASF100
 5215 0577 09       		.byte	0x9
 5216 0578 4C       		.byte	0x4c
 5217 0579 12010000 		.4byte	0x112
 5218 057d 17       		.uleb128 0x17
 5219 057e 50       		.byte	0x50
 5220 057f 0A       		.byte	0xa
 5221 0580 C4       		.byte	0xc4
 5222 0581 74060000 		.4byte	0x674
 5223 0585 18       		.uleb128 0x18
 5224 0586 535200   		.ascii	"SR\000"
 5225 0589 0A       		.byte	0xa
 5226 058a C6       		.byte	0xc6
 5227 058b 1D010000 		.4byte	0x11d
 5228 058f 00       		.byte	0
 5229 0590 18       		.uleb128 0x18
 5230 0591 43523100 		.ascii	"CR1\000"
 5231 0595 0A       		.byte	0xa
 5232 0596 C7       		.byte	0xc7
 5233 0597 1D010000 		.4byte	0x11d
 5234 059b 04       		.byte	0x4
 5235 059c 18       		.uleb128 0x18
 5236 059d 43523200 		.ascii	"CR2\000"
 5237 05a1 0A       		.byte	0xa
 5238 05a2 C8       		.byte	0xc8
 5239 05a3 1D010000 		.4byte	0x11d
 5240 05a7 08       		.byte	0x8
 5241 05a8 08       		.uleb128 0x8
 5242 05a9 68030000 		.4byte	.LASF101
 5243 05ad 0A       		.byte	0xa
ARM GAS  C:\Users\mathi\AppData\Local\Temp\ccuMtzkg.s 			page 93


 5244 05ae C9       		.byte	0xc9
 5245 05af 1D010000 		.4byte	0x11d
 5246 05b3 0C       		.byte	0xc
 5247 05b4 08       		.uleb128 0x8
 5248 05b5 6E030000 		.4byte	.LASF102
 5249 05b9 0A       		.byte	0xa
 5250 05ba CA       		.byte	0xca
 5251 05bb 1D010000 		.4byte	0x11d
 5252 05bf 10       		.byte	0x10
 5253 05c0 08       		.uleb128 0x8
 5254 05c1 090A0000 		.4byte	.LASF103
 5255 05c5 0A       		.byte	0xa
 5256 05c6 CB       		.byte	0xcb
 5257 05c7 1D010000 		.4byte	0x11d
 5258 05cb 14       		.byte	0x14
 5259 05cc 08       		.uleb128 0x8
 5260 05cd 0F0A0000 		.4byte	.LASF104
 5261 05d1 0A       		.byte	0xa
 5262 05d2 CC       		.byte	0xcc
 5263 05d3 1D010000 		.4byte	0x11d
 5264 05d7 18       		.byte	0x18
 5265 05d8 08       		.uleb128 0x8
 5266 05d9 150A0000 		.4byte	.LASF105
 5267 05dd 0A       		.byte	0xa
 5268 05de CD       		.byte	0xcd
 5269 05df 1D010000 		.4byte	0x11d
 5270 05e3 1C       		.byte	0x1c
 5271 05e4 08       		.uleb128 0x8
 5272 05e5 1B0A0000 		.4byte	.LASF106
 5273 05e9 0A       		.byte	0xa
 5274 05ea CE       		.byte	0xce
 5275 05eb 1D010000 		.4byte	0x11d
 5276 05ef 20       		.byte	0x20
 5277 05f0 18       		.uleb128 0x18
 5278 05f1 48545200 		.ascii	"HTR\000"
 5279 05f5 0A       		.byte	0xa
 5280 05f6 CF       		.byte	0xcf
 5281 05f7 1D010000 		.4byte	0x11d
 5282 05fb 24       		.byte	0x24
 5283 05fc 18       		.uleb128 0x18
 5284 05fd 4C545200 		.ascii	"LTR\000"
 5285 0601 0A       		.byte	0xa
 5286 0602 D0       		.byte	0xd0
 5287 0603 1D010000 		.4byte	0x11d
 5288 0607 28       		.byte	0x28
 5289 0608 08       		.uleb128 0x8
 5290 0609 A4100000 		.4byte	.LASF107
 5291 060d 0A       		.byte	0xa
 5292 060e D1       		.byte	0xd1
 5293 060f 1D010000 		.4byte	0x11d
 5294 0613 2C       		.byte	0x2c
 5295 0614 08       		.uleb128 0x8
 5296 0615 A9100000 		.4byte	.LASF108
 5297 0619 0A       		.byte	0xa
 5298 061a D2       		.byte	0xd2
 5299 061b 1D010000 		.4byte	0x11d
 5300 061f 30       		.byte	0x30
ARM GAS  C:\Users\mathi\AppData\Local\Temp\ccuMtzkg.s 			page 94


 5301 0620 08       		.uleb128 0x8
 5302 0621 AE100000 		.4byte	.LASF109
 5303 0625 0A       		.byte	0xa
 5304 0626 D3       		.byte	0xd3
 5305 0627 1D010000 		.4byte	0x11d
 5306 062b 34       		.byte	0x34
 5307 062c 08       		.uleb128 0x8
 5308 062d B70B0000 		.4byte	.LASF110
 5309 0631 0A       		.byte	0xa
 5310 0632 D4       		.byte	0xd4
 5311 0633 1D010000 		.4byte	0x11d
 5312 0637 38       		.byte	0x38
 5313 0638 08       		.uleb128 0x8
 5314 0639 B11D0000 		.4byte	.LASF111
 5315 063d 0A       		.byte	0xa
 5316 063e D5       		.byte	0xd5
 5317 063f 1D010000 		.4byte	0x11d
 5318 0643 3C       		.byte	0x3c
 5319 0644 08       		.uleb128 0x8
 5320 0645 B61D0000 		.4byte	.LASF112
 5321 0649 0A       		.byte	0xa
 5322 064a D6       		.byte	0xd6
 5323 064b 1D010000 		.4byte	0x11d
 5324 064f 40       		.byte	0x40
 5325 0650 08       		.uleb128 0x8
 5326 0651 BB1D0000 		.4byte	.LASF113
 5327 0655 0A       		.byte	0xa
 5328 0656 D7       		.byte	0xd7
 5329 0657 1D010000 		.4byte	0x11d
 5330 065b 44       		.byte	0x44
 5331 065c 08       		.uleb128 0x8
 5332 065d C01D0000 		.4byte	.LASF114
 5333 0661 0A       		.byte	0xa
 5334 0662 D8       		.byte	0xd8
 5335 0663 1D010000 		.4byte	0x11d
 5336 0667 48       		.byte	0x48
 5337 0668 18       		.uleb128 0x18
 5338 0669 445200   		.ascii	"DR\000"
 5339 066c 0A       		.byte	0xa
 5340 066d D9       		.byte	0xd9
 5341 066e 1D010000 		.4byte	0x11d
 5342 0672 4C       		.byte	0x4c
 5343 0673 00       		.byte	0
 5344 0674 04       		.uleb128 0x4
 5345 0675 C6120000 		.4byte	.LASF115
 5346 0679 0A       		.byte	0xa
 5347 067a DA       		.byte	0xda
 5348 067b 7D050000 		.4byte	0x57d
 5349 067f 17       		.uleb128 0x17
 5350 0680 10       		.byte	0x10
 5351 0681 0A       		.byte	0xa
 5352 0682 E9       		.byte	0xe9
 5353 0683 B8060000 		.4byte	0x6b8
 5354 0687 18       		.uleb128 0x18
 5355 0688 54495200 		.ascii	"TIR\000"
 5356 068c 0A       		.byte	0xa
 5357 068d EB       		.byte	0xeb
ARM GAS  C:\Users\mathi\AppData\Local\Temp\ccuMtzkg.s 			page 95


 5358 068e 1D010000 		.4byte	0x11d
 5359 0692 00       		.byte	0
 5360 0693 08       		.uleb128 0x8
 5361 0694 9F0E0000 		.4byte	.LASF116
 5362 0698 0A       		.byte	0xa
 5363 0699 EC       		.byte	0xec
 5364 069a 1D010000 		.4byte	0x11d
 5365 069e 04       		.byte	0x4
 5366 069f 08       		.uleb128 0x8
 5367 06a0 13150000 		.4byte	.LASF117
 5368 06a4 0A       		.byte	0xa
 5369 06a5 ED       		.byte	0xed
 5370 06a6 1D010000 		.4byte	0x11d
 5371 06aa 08       		.byte	0x8
 5372 06ab 08       		.uleb128 0x8
 5373 06ac 22130000 		.4byte	.LASF118
 5374 06b0 0A       		.byte	0xa
 5375 06b1 EE       		.byte	0xee
 5376 06b2 1D010000 		.4byte	0x11d
 5377 06b6 0C       		.byte	0xc
 5378 06b7 00       		.byte	0
 5379 06b8 04       		.uleb128 0x4
 5380 06b9 98050000 		.4byte	.LASF119
 5381 06bd 0A       		.byte	0xa
 5382 06be EF       		.byte	0xef
 5383 06bf 7F060000 		.4byte	0x67f
 5384 06c3 17       		.uleb128 0x17
 5385 06c4 10       		.byte	0x10
 5386 06c5 0A       		.byte	0xa
 5387 06c6 F5       		.byte	0xf5
 5388 06c7 FC060000 		.4byte	0x6fc
 5389 06cb 18       		.uleb128 0x18
 5390 06cc 52495200 		.ascii	"RIR\000"
 5391 06d0 0A       		.byte	0xa
 5392 06d1 F7       		.byte	0xf7
 5393 06d2 1D010000 		.4byte	0x11d
 5394 06d6 00       		.byte	0
 5395 06d7 08       		.uleb128 0x8
 5396 06d8 D4190000 		.4byte	.LASF120
 5397 06dc 0A       		.byte	0xa
 5398 06dd F8       		.byte	0xf8
 5399 06de 1D010000 		.4byte	0x11d
 5400 06e2 04       		.byte	0x4
 5401 06e3 08       		.uleb128 0x8
 5402 06e4 25160000 		.4byte	.LASF121
 5403 06e8 0A       		.byte	0xa
 5404 06e9 F9       		.byte	0xf9
 5405 06ea 1D010000 		.4byte	0x11d
 5406 06ee 08       		.byte	0x8
 5407 06ef 08       		.uleb128 0x8
 5408 06f0 26140000 		.4byte	.LASF122
 5409 06f4 0A       		.byte	0xa
 5410 06f5 FA       		.byte	0xfa
 5411 06f6 1D010000 		.4byte	0x11d
 5412 06fa 0C       		.byte	0xc
 5413 06fb 00       		.byte	0
 5414 06fc 04       		.uleb128 0x4
ARM GAS  C:\Users\mathi\AppData\Local\Temp\ccuMtzkg.s 			page 96


 5415 06fd 43190000 		.4byte	.LASF123
 5416 0701 0A       		.byte	0xa
 5417 0702 FB       		.byte	0xfb
 5418 0703 C3060000 		.4byte	0x6c3
 5419 0707 19       		.uleb128 0x19
 5420 0708 08       		.byte	0x8
 5421 0709 0A       		.byte	0xa
 5422 070a 0101     		.2byte	0x101
 5423 070c 2B070000 		.4byte	0x72b
 5424 0710 09       		.uleb128 0x9
 5425 0711 46523100 		.ascii	"FR1\000"
 5426 0715 0A       		.byte	0xa
 5427 0716 0301     		.2byte	0x103
 5428 0718 1D010000 		.4byte	0x11d
 5429 071c 00       		.byte	0
 5430 071d 09       		.uleb128 0x9
 5431 071e 46523200 		.ascii	"FR2\000"
 5432 0722 0A       		.byte	0xa
 5433 0723 0401     		.2byte	0x104
 5434 0725 1D010000 		.4byte	0x11d
 5435 0729 04       		.byte	0x4
 5436 072a 00       		.byte	0
 5437 072b 1A       		.uleb128 0x1a
 5438 072c A40E0000 		.4byte	.LASF124
 5439 0730 0A       		.byte	0xa
 5440 0731 0501     		.2byte	0x105
 5441 0733 07070000 		.4byte	0x707
 5442 0737 1B       		.uleb128 0x1b
 5443 0738 2003     		.2byte	0x320
 5444 073a 0A       		.byte	0xa
 5445 073b 0B01     		.2byte	0x10b
 5446 073d 6D080000 		.4byte	0x86d
 5447 0741 09       		.uleb128 0x9
 5448 0742 4D435200 		.ascii	"MCR\000"
 5449 0746 0A       		.byte	0xa
 5450 0747 0D01     		.2byte	0x10d
 5451 0749 1D010000 		.4byte	0x11d
 5452 074d 00       		.byte	0
 5453 074e 09       		.uleb128 0x9
 5454 074f 4D535200 		.ascii	"MSR\000"
 5455 0753 0A       		.byte	0xa
 5456 0754 0E01     		.2byte	0x10e
 5457 0756 1D010000 		.4byte	0x11d
 5458 075a 04       		.byte	0x4
 5459 075b 09       		.uleb128 0x9
 5460 075c 54535200 		.ascii	"TSR\000"
 5461 0760 0A       		.byte	0xa
 5462 0761 0F01     		.2byte	0x10f
 5463 0763 1D010000 		.4byte	0x11d
 5464 0767 08       		.byte	0x8
 5465 0768 0A       		.uleb128 0xa
 5466 0769 700D0000 		.4byte	.LASF125
 5467 076d 0A       		.byte	0xa
 5468 076e 1001     		.2byte	0x110
 5469 0770 1D010000 		.4byte	0x11d
 5470 0774 0C       		.byte	0xc
 5471 0775 0A       		.uleb128 0xa
ARM GAS  C:\Users\mathi\AppData\Local\Temp\ccuMtzkg.s 			page 97


 5472 0776 000E0000 		.4byte	.LASF126
 5473 077a 0A       		.byte	0xa
 5474 077b 1101     		.2byte	0x111
 5475 077d 1D010000 		.4byte	0x11d
 5476 0781 10       		.byte	0x10
 5477 0782 09       		.uleb128 0x9
 5478 0783 49455200 		.ascii	"IER\000"
 5479 0787 0A       		.byte	0xa
 5480 0788 1201     		.2byte	0x112
 5481 078a 1D010000 		.4byte	0x11d
 5482 078e 14       		.byte	0x14
 5483 078f 09       		.uleb128 0x9
 5484 0790 45535200 		.ascii	"ESR\000"
 5485 0794 0A       		.byte	0xa
 5486 0795 1301     		.2byte	0x113
 5487 0797 1D010000 		.4byte	0x11d
 5488 079b 18       		.byte	0x18
 5489 079c 09       		.uleb128 0x9
 5490 079d 42545200 		.ascii	"BTR\000"
 5491 07a1 0A       		.byte	0xa
 5492 07a2 1401     		.2byte	0x114
 5493 07a4 1D010000 		.4byte	0x11d
 5494 07a8 1C       		.byte	0x1c
 5495 07a9 0A       		.uleb128 0xa
 5496 07aa 171B0000 		.4byte	.LASF127
 5497 07ae 0A       		.byte	0xa
 5498 07af 1501     		.2byte	0x115
 5499 07b1 6D080000 		.4byte	0x86d
 5500 07b5 20       		.byte	0x20
 5501 07b6 11       		.uleb128 0x11
 5502 07b7 980F0000 		.4byte	.LASF128
 5503 07bb 0A       		.byte	0xa
 5504 07bc 1601     		.2byte	0x116
 5505 07be 7D080000 		.4byte	0x87d
 5506 07c2 8001     		.2byte	0x180
 5507 07c4 11       		.uleb128 0x11
 5508 07c5 EA1E0000 		.4byte	.LASF129
 5509 07c9 0A       		.byte	0xa
 5510 07ca 1701     		.2byte	0x117
 5511 07cc 8D080000 		.4byte	0x88d
 5512 07d0 B001     		.2byte	0x1b0
 5513 07d2 11       		.uleb128 0x11
 5514 07d3 211B0000 		.4byte	.LASF130
 5515 07d7 0A       		.byte	0xa
 5516 07d8 1801     		.2byte	0x118
 5517 07da 9D080000 		.4byte	0x89d
 5518 07de D001     		.2byte	0x1d0
 5519 07e0 12       		.uleb128 0x12
 5520 07e1 464D5200 		.ascii	"FMR\000"
 5521 07e5 0A       		.byte	0xa
 5522 07e6 1901     		.2byte	0x119
 5523 07e8 1D010000 		.4byte	0x11d
 5524 07ec 0002     		.2byte	0x200
 5525 07ee 11       		.uleb128 0x11
 5526 07ef 7B0A0000 		.4byte	.LASF131
 5527 07f3 0A       		.byte	0xa
 5528 07f4 1A01     		.2byte	0x11a
ARM GAS  C:\Users\mathi\AppData\Local\Temp\ccuMtzkg.s 			page 98


 5529 07f6 1D010000 		.4byte	0x11d
 5530 07fa 0402     		.2byte	0x204
 5531 07fc 11       		.uleb128 0x11
 5532 07fd 2B1B0000 		.4byte	.LASF132
 5533 0801 0A       		.byte	0xa
 5534 0802 1B01     		.2byte	0x11b
 5535 0804 12010000 		.4byte	0x112
 5536 0808 0802     		.2byte	0x208
 5537 080a 11       		.uleb128 0x11
 5538 080b 361D0000 		.4byte	.LASF133
 5539 080f 0A       		.byte	0xa
 5540 0810 1C01     		.2byte	0x11c
 5541 0812 1D010000 		.4byte	0x11d
 5542 0816 0C02     		.2byte	0x20c
 5543 0818 11       		.uleb128 0x11
 5544 0819 351B0000 		.4byte	.LASF134
 5545 081d 0A       		.byte	0xa
 5546 081e 1D01     		.2byte	0x11d
 5547 0820 12010000 		.4byte	0x112
 5548 0824 1002     		.2byte	0x210
 5549 0826 11       		.uleb128 0x11
 5550 0827 5C160000 		.4byte	.LASF135
 5551 082b 0A       		.byte	0xa
 5552 082c 1E01     		.2byte	0x11e
 5553 082e 1D010000 		.4byte	0x11d
 5554 0832 1402     		.2byte	0x214
 5555 0834 11       		.uleb128 0x11
 5556 0835 3F1B0000 		.4byte	.LASF136
 5557 0839 0A       		.byte	0xa
 5558 083a 1F01     		.2byte	0x11f
 5559 083c 12010000 		.4byte	0x112
 5560 0840 1802     		.2byte	0x218
 5561 0842 11       		.uleb128 0x11
 5562 0843 A3040000 		.4byte	.LASF137
 5563 0847 0A       		.byte	0xa
 5564 0848 2001     		.2byte	0x120
 5565 084a 1D010000 		.4byte	0x11d
 5566 084e 1C02     		.2byte	0x21c
 5567 0850 11       		.uleb128 0x11
 5568 0851 491B0000 		.4byte	.LASF138
 5569 0855 0A       		.byte	0xa
 5570 0856 2101     		.2byte	0x121
 5571 0858 56050000 		.4byte	0x556
 5572 085c 2002     		.2byte	0x220
 5573 085e 11       		.uleb128 0x11
 5574 085f 3D060000 		.4byte	.LASF139
 5575 0863 0A       		.byte	0xa
 5576 0864 2201     		.2byte	0x122
 5577 0866 AD080000 		.4byte	0x8ad
 5578 086a 4002     		.2byte	0x240
 5579 086c 00       		.byte	0
 5580 086d 13       		.uleb128 0x13
 5581 086e 12010000 		.4byte	0x112
 5582 0872 7D080000 		.4byte	0x87d
 5583 0876 14       		.uleb128 0x14
 5584 0877 2C000000 		.4byte	0x2c
 5585 087b 57       		.byte	0x57
ARM GAS  C:\Users\mathi\AppData\Local\Temp\ccuMtzkg.s 			page 99


 5586 087c 00       		.byte	0
 5587 087d 13       		.uleb128 0x13
 5588 087e B8060000 		.4byte	0x6b8
 5589 0882 8D080000 		.4byte	0x88d
 5590 0886 14       		.uleb128 0x14
 5591 0887 2C000000 		.4byte	0x2c
 5592 088b 02       		.byte	0x2
 5593 088c 00       		.byte	0
 5594 088d 13       		.uleb128 0x13
 5595 088e FC060000 		.4byte	0x6fc
 5596 0892 9D080000 		.4byte	0x89d
 5597 0896 14       		.uleb128 0x14
 5598 0897 2C000000 		.4byte	0x2c
 5599 089b 01       		.byte	0x1
 5600 089c 00       		.byte	0
 5601 089d 13       		.uleb128 0x13
 5602 089e 12010000 		.4byte	0x112
 5603 08a2 AD080000 		.4byte	0x8ad
 5604 08a6 14       		.uleb128 0x14
 5605 08a7 2C000000 		.4byte	0x2c
 5606 08ab 0B       		.byte	0xb
 5607 08ac 00       		.byte	0
 5608 08ad 13       		.uleb128 0x13
 5609 08ae 2B070000 		.4byte	0x72b
 5610 08b2 BD080000 		.4byte	0x8bd
 5611 08b6 14       		.uleb128 0x14
 5612 08b7 2C000000 		.4byte	0x2c
 5613 08bb 1B       		.byte	0x1b
 5614 08bc 00       		.byte	0
 5615 08bd 1A       		.uleb128 0x1a
 5616 08be 6D0C0000 		.4byte	.LASF140
 5617 08c2 0A       		.byte	0xa
 5618 08c3 2301     		.2byte	0x123
 5619 08c5 37070000 		.4byte	0x737
 5620 08c9 19       		.uleb128 0x19
 5621 08ca 38       		.byte	0x38
 5622 08cb 0A       		.byte	0xa
 5623 08cc 3601     		.2byte	0x136
 5624 08ce 87090000 		.4byte	0x987
 5625 08d2 09       		.uleb128 0x9
 5626 08d3 435200   		.ascii	"CR\000"
 5627 08d6 0A       		.byte	0xa
 5628 08d7 3801     		.2byte	0x138
 5629 08d9 1D010000 		.4byte	0x11d
 5630 08dd 00       		.byte	0
 5631 08de 0A       		.uleb128 0xa
 5632 08df FE130000 		.4byte	.LASF141
 5633 08e3 0A       		.byte	0xa
 5634 08e4 3901     		.2byte	0x139
 5635 08e6 1D010000 		.4byte	0x11d
 5636 08ea 04       		.byte	0x4
 5637 08eb 0A       		.uleb128 0xa
 5638 08ec 651B0000 		.4byte	.LASF142
 5639 08f0 0A       		.byte	0xa
 5640 08f1 3A01     		.2byte	0x13a
 5641 08f3 1D010000 		.4byte	0x11d
 5642 08f7 08       		.byte	0x8
ARM GAS  C:\Users\mathi\AppData\Local\Temp\ccuMtzkg.s 			page 100


 5643 08f8 0A       		.uleb128 0xa
 5644 08f9 E6170000 		.4byte	.LASF143
 5645 08fd 0A       		.byte	0xa
 5646 08fe 3B01     		.2byte	0x13b
 5647 0900 1D010000 		.4byte	0x11d
 5648 0904 0C       		.byte	0xc
 5649 0905 0A       		.uleb128 0xa
 5650 0906 E9090000 		.4byte	.LASF144
 5651 090a 0A       		.byte	0xa
 5652 090b 3C01     		.2byte	0x13c
 5653 090d 1D010000 		.4byte	0x11d
 5654 0911 10       		.byte	0x10
 5655 0912 0A       		.uleb128 0xa
 5656 0913 6D1B0000 		.4byte	.LASF145
 5657 0917 0A       		.byte	0xa
 5658 0918 3D01     		.2byte	0x13d
 5659 091a 1D010000 		.4byte	0x11d
 5660 091e 14       		.byte	0x14
 5661 091f 0A       		.uleb128 0xa
 5662 0920 EE170000 		.4byte	.LASF146
 5663 0924 0A       		.byte	0xa
 5664 0925 3E01     		.2byte	0x13e
 5665 0927 1D010000 		.4byte	0x11d
 5666 092b 18       		.byte	0x18
 5667 092c 0A       		.uleb128 0xa
 5668 092d F0090000 		.4byte	.LASF147
 5669 0931 0A       		.byte	0xa
 5670 0932 3F01     		.2byte	0x13f
 5671 0934 1D010000 		.4byte	0x11d
 5672 0938 1C       		.byte	0x1c
 5673 0939 0A       		.uleb128 0xa
 5674 093a B41B0000 		.4byte	.LASF148
 5675 093e 0A       		.byte	0xa
 5676 093f 4001     		.2byte	0x140
 5677 0941 1D010000 		.4byte	0x11d
 5678 0945 20       		.byte	0x20
 5679 0946 0A       		.uleb128 0xa
 5680 0947 0F180000 		.4byte	.LASF149
 5681 094b 0A       		.byte	0xa
 5682 094c 4101     		.2byte	0x141
 5683 094e 1D010000 		.4byte	0x11d
 5684 0952 24       		.byte	0x24
 5685 0953 0A       		.uleb128 0xa
 5686 0954 011F0000 		.4byte	.LASF150
 5687 0958 0A       		.byte	0xa
 5688 0959 4201     		.2byte	0x142
 5689 095b 1D010000 		.4byte	0x11d
 5690 095f 28       		.byte	0x28
 5691 0960 0A       		.uleb128 0xa
 5692 0961 2D010000 		.4byte	.LASF151
 5693 0965 0A       		.byte	0xa
 5694 0966 4301     		.2byte	0x143
 5695 0968 1D010000 		.4byte	0x11d
 5696 096c 2C       		.byte	0x2c
 5697 096d 0A       		.uleb128 0xa
 5698 096e 32010000 		.4byte	.LASF152
 5699 0972 0A       		.byte	0xa
ARM GAS  C:\Users\mathi\AppData\Local\Temp\ccuMtzkg.s 			page 101


 5700 0973 4401     		.2byte	0x144
 5701 0975 1D010000 		.4byte	0x11d
 5702 0979 30       		.byte	0x30
 5703 097a 09       		.uleb128 0x9
 5704 097b 535200   		.ascii	"SR\000"
 5705 097e 0A       		.byte	0xa
 5706 097f 4501     		.2byte	0x145
 5707 0981 1D010000 		.4byte	0x11d
 5708 0985 34       		.byte	0x34
 5709 0986 00       		.byte	0
 5710 0987 1A       		.uleb128 0x1a
 5711 0988 5B190000 		.4byte	.LASF153
 5712 098c 0A       		.byte	0xa
 5713 098d 4601     		.2byte	0x146
 5714 098f C9080000 		.4byte	0x8c9
 5715 0993 19       		.uleb128 0x19
 5716 0994 18       		.byte	0x18
 5717 0995 0A       		.byte	0xa
 5718 0996 6B01     		.2byte	0x16b
 5719 0998 EA090000 		.4byte	0x9ea
 5720 099c 09       		.uleb128 0x9
 5721 099d 435200   		.ascii	"CR\000"
 5722 09a0 0A       		.byte	0xa
 5723 09a1 6D01     		.2byte	0x16d
 5724 09a3 1D010000 		.4byte	0x11d
 5725 09a7 00       		.byte	0
 5726 09a8 0A       		.uleb128 0xa
 5727 09a9 731C0000 		.4byte	.LASF154
 5728 09ad 0A       		.byte	0xa
 5729 09ae 6E01     		.2byte	0x16e
 5730 09b0 1D010000 		.4byte	0x11d
 5731 09b4 04       		.byte	0x4
 5732 09b5 09       		.uleb128 0x9
 5733 09b6 50415200 		.ascii	"PAR\000"
 5734 09ba 0A       		.byte	0xa
 5735 09bb 6F01     		.2byte	0x16f
 5736 09bd 1D010000 		.4byte	0x11d
 5737 09c1 08       		.byte	0x8
 5738 09c2 0A       		.uleb128 0xa
 5739 09c3 79040000 		.4byte	.LASF155
 5740 09c7 0A       		.byte	0xa
 5741 09c8 7001     		.2byte	0x170
 5742 09ca 1D010000 		.4byte	0x11d
 5743 09ce 0C       		.byte	0xc
 5744 09cf 0A       		.uleb128 0xa
 5745 09d0 12080000 		.4byte	.LASF156
 5746 09d4 0A       		.byte	0xa
 5747 09d5 7101     		.2byte	0x171
 5748 09d7 1D010000 		.4byte	0x11d
 5749 09db 10       		.byte	0x10
 5750 09dc 09       		.uleb128 0x9
 5751 09dd 46435200 		.ascii	"FCR\000"
 5752 09e1 0A       		.byte	0xa
 5753 09e2 7201     		.2byte	0x172
 5754 09e4 1D010000 		.4byte	0x11d
 5755 09e8 14       		.byte	0x14
 5756 09e9 00       		.byte	0
ARM GAS  C:\Users\mathi\AppData\Local\Temp\ccuMtzkg.s 			page 102


 5757 09ea 1A       		.uleb128 0x1a
 5758 09eb 1C080000 		.4byte	.LASF157
 5759 09ef 0A       		.byte	0xa
 5760 09f0 7301     		.2byte	0x173
 5761 09f2 93090000 		.4byte	0x993
 5762 09f6 13       		.uleb128 0x13
 5763 09f7 1D010000 		.4byte	0x11d
 5764 09fb 060A0000 		.4byte	0xa06
 5765 09ff 14       		.uleb128 0x14
 5766 0a00 2C000000 		.4byte	0x2c
 5767 0a04 01       		.byte	0x1
 5768 0a05 00       		.byte	0
 5769 0a06 06       		.uleb128 0x6
 5770 0a07 F6090000 		.4byte	0x9f6
 5771 0a0b 13       		.uleb128 0x13
 5772 0a0c 1D010000 		.4byte	0x11d
 5773 0a10 1B0A0000 		.4byte	0xa1b
 5774 0a14 14       		.uleb128 0x14
 5775 0a15 2C000000 		.4byte	0x2c
 5776 0a19 03       		.byte	0x3
 5777 0a1a 00       		.byte	0
 5778 0a1b 06       		.uleb128 0x6
 5779 0a1c 0B0A0000 		.4byte	0xa0b
 5780 0a20 19       		.uleb128 0x19
 5781 0a21 28       		.byte	0x28
 5782 0a22 0A       		.byte	0xa
 5783 0a23 3F02     		.2byte	0x23f
 5784 0a25 AB0A0000 		.4byte	0xaab
 5785 0a29 09       		.uleb128 0x9
 5786 0a2a 43523100 		.ascii	"CR1\000"
 5787 0a2e 0A       		.byte	0xa
 5788 0a2f 4102     		.2byte	0x241
 5789 0a31 1D010000 		.4byte	0x11d
 5790 0a35 00       		.byte	0
 5791 0a36 09       		.uleb128 0x9
 5792 0a37 43523200 		.ascii	"CR2\000"
 5793 0a3b 0A       		.byte	0xa
 5794 0a3c 4202     		.2byte	0x242
 5795 0a3e 1D010000 		.4byte	0x11d
 5796 0a42 04       		.byte	0x4
 5797 0a43 0A       		.uleb128 0xa
 5798 0a44 B9210000 		.4byte	.LASF158
 5799 0a48 0A       		.byte	0xa
 5800 0a49 4302     		.2byte	0x243
 5801 0a4b 1D010000 		.4byte	0x11d
 5802 0a4f 08       		.byte	0x8
 5803 0a50 0A       		.uleb128 0xa
 5804 0a51 BE210000 		.4byte	.LASF159
 5805 0a55 0A       		.byte	0xa
 5806 0a56 4402     		.2byte	0x244
 5807 0a58 1D010000 		.4byte	0x11d
 5808 0a5c 0C       		.byte	0xc
 5809 0a5d 09       		.uleb128 0x9
 5810 0a5e 445200   		.ascii	"DR\000"
 5811 0a61 0A       		.byte	0xa
 5812 0a62 4502     		.2byte	0x245
 5813 0a64 1D010000 		.4byte	0x11d
ARM GAS  C:\Users\mathi\AppData\Local\Temp\ccuMtzkg.s 			page 103


 5814 0a68 10       		.byte	0x10
 5815 0a69 09       		.uleb128 0x9
 5816 0a6a 53523100 		.ascii	"SR1\000"
 5817 0a6e 0A       		.byte	0xa
 5818 0a6f 4602     		.2byte	0x246
 5819 0a71 1D010000 		.4byte	0x11d
 5820 0a75 14       		.byte	0x14
 5821 0a76 09       		.uleb128 0x9
 5822 0a77 53523200 		.ascii	"SR2\000"
 5823 0a7b 0A       		.byte	0xa
 5824 0a7c 4702     		.2byte	0x247
 5825 0a7e 1D010000 		.4byte	0x11d
 5826 0a82 18       		.byte	0x18
 5827 0a83 09       		.uleb128 0x9
 5828 0a84 43435200 		.ascii	"CCR\000"
 5829 0a88 0A       		.byte	0xa
 5830 0a89 4802     		.2byte	0x248
 5831 0a8b 1D010000 		.4byte	0x11d
 5832 0a8f 1C       		.byte	0x1c
 5833 0a90 0A       		.uleb128 0xa
 5834 0a91 66050000 		.4byte	.LASF160
 5835 0a95 0A       		.byte	0xa
 5836 0a96 4902     		.2byte	0x249
 5837 0a98 1D010000 		.4byte	0x11d
 5838 0a9c 20       		.byte	0x20
 5839 0a9d 0A       		.uleb128 0xa
 5840 0a9e 85200000 		.4byte	.LASF161
 5841 0aa2 0A       		.byte	0xa
 5842 0aa3 4A02     		.2byte	0x24a
 5843 0aa5 1D010000 		.4byte	0x11d
 5844 0aa9 24       		.byte	0x24
 5845 0aaa 00       		.byte	0
 5846 0aab 1A       		.uleb128 0x1a
 5847 0aac 1A140000 		.4byte	.LASF162
 5848 0ab0 0A       		.byte	0xa
 5849 0ab1 4B02     		.2byte	0x24b
 5850 0ab3 200A0000 		.4byte	0xa20
 5851 0ab7 19       		.uleb128 0x19
 5852 0ab8 84       		.byte	0x84
 5853 0ab9 0A       		.byte	0xa
 5854 0aba BF02     		.2byte	0x2bf
 5855 0abc C50B0000 		.4byte	0xbc5
 5856 0ac0 0A       		.uleb128 0xa
 5857 0ac1 5F140000 		.4byte	.LASF163
 5858 0ac5 0A       		.byte	0xa
 5859 0ac6 C102     		.2byte	0x2c1
 5860 0ac8 1D010000 		.4byte	0x11d
 5861 0acc 00       		.byte	0
 5862 0acd 0A       		.uleb128 0xa
 5863 0ace 8D1D0000 		.4byte	.LASF164
 5864 0ad2 0A       		.byte	0xa
 5865 0ad3 C202     		.2byte	0x2c2
 5866 0ad5 1D010000 		.4byte	0x11d
 5867 0ad9 04       		.byte	0x4
 5868 0ada 09       		.uleb128 0x9
 5869 0adb 41524700 		.ascii	"ARG\000"
 5870 0adf 0A       		.byte	0xa
ARM GAS  C:\Users\mathi\AppData\Local\Temp\ccuMtzkg.s 			page 104


 5871 0ae0 C302     		.2byte	0x2c3
 5872 0ae2 1D010000 		.4byte	0x11d
 5873 0ae6 08       		.byte	0x8
 5874 0ae7 09       		.uleb128 0x9
 5875 0ae8 434D4400 		.ascii	"CMD\000"
 5876 0aec 0A       		.byte	0xa
 5877 0aed C402     		.2byte	0x2c4
 5878 0aef 1D010000 		.4byte	0x11d
 5879 0af3 0C       		.byte	0xc
 5880 0af4 0A       		.uleb128 0xa
 5881 0af5 DE160000 		.4byte	.LASF165
 5882 0af9 0A       		.byte	0xa
 5883 0afa C502     		.2byte	0x2c5
 5884 0afc 22010000 		.4byte	0x122
 5885 0b00 10       		.byte	0x10
 5886 0b01 0A       		.uleb128 0xa
 5887 0b02 67060000 		.4byte	.LASF166
 5888 0b06 0A       		.byte	0xa
 5889 0b07 C602     		.2byte	0x2c6
 5890 0b09 22010000 		.4byte	0x122
 5891 0b0d 14       		.byte	0x14
 5892 0b0e 0A       		.uleb128 0xa
 5893 0b0f 6D060000 		.4byte	.LASF167
 5894 0b13 0A       		.byte	0xa
 5895 0b14 C702     		.2byte	0x2c7
 5896 0b16 22010000 		.4byte	0x122
 5897 0b1a 18       		.byte	0x18
 5898 0b1b 0A       		.uleb128 0xa
 5899 0b1c 73060000 		.4byte	.LASF168
 5900 0b20 0A       		.byte	0xa
 5901 0b21 C802     		.2byte	0x2c8
 5902 0b23 22010000 		.4byte	0x122
 5903 0b27 1C       		.byte	0x1c
 5904 0b28 0A       		.uleb128 0xa
 5905 0b29 79060000 		.4byte	.LASF169
 5906 0b2d 0A       		.byte	0xa
 5907 0b2e C902     		.2byte	0x2c9
 5908 0b30 22010000 		.4byte	0x122
 5909 0b34 20       		.byte	0x20
 5910 0b35 0A       		.uleb128 0xa
 5911 0b36 A5110000 		.4byte	.LASF170
 5912 0b3a 0A       		.byte	0xa
 5913 0b3b CA02     		.2byte	0x2ca
 5914 0b3d 1D010000 		.4byte	0x11d
 5915 0b41 24       		.byte	0x24
 5916 0b42 0A       		.uleb128 0xa
 5917 0b43 4C130000 		.4byte	.LASF171
 5918 0b47 0A       		.byte	0xa
 5919 0b48 CB02     		.2byte	0x2cb
 5920 0b4a 1D010000 		.4byte	0x11d
 5921 0b4e 28       		.byte	0x28
 5922 0b4f 0A       		.uleb128 0xa
 5923 0b50 71200000 		.4byte	.LASF172
 5924 0b54 0A       		.byte	0xa
 5925 0b55 CC02     		.2byte	0x2cc
 5926 0b57 1D010000 		.4byte	0x11d
 5927 0b5b 2C       		.byte	0x2c
ARM GAS  C:\Users\mathi\AppData\Local\Temp\ccuMtzkg.s 			page 105


 5928 0b5c 0A       		.uleb128 0xa
 5929 0b5d B2210000 		.4byte	.LASF173
 5930 0b61 0A       		.byte	0xa
 5931 0b62 CD02     		.2byte	0x2cd
 5932 0b64 22010000 		.4byte	0x122
 5933 0b68 30       		.byte	0x30
 5934 0b69 09       		.uleb128 0x9
 5935 0b6a 53544100 		.ascii	"STA\000"
 5936 0b6e 0A       		.byte	0xa
 5937 0b6f CE02     		.2byte	0x2ce
 5938 0b71 22010000 		.4byte	0x122
 5939 0b75 34       		.byte	0x34
 5940 0b76 09       		.uleb128 0x9
 5941 0b77 49435200 		.ascii	"ICR\000"
 5942 0b7b 0A       		.byte	0xa
 5943 0b7c CF02     		.2byte	0x2cf
 5944 0b7e 1D010000 		.4byte	0x11d
 5945 0b82 38       		.byte	0x38
 5946 0b83 0A       		.uleb128 0xa
 5947 0b84 93020000 		.4byte	.LASF174
 5948 0b88 0A       		.byte	0xa
 5949 0b89 D002     		.2byte	0x2d0
 5950 0b8b 1D010000 		.4byte	0x11d
 5951 0b8f 3C       		.byte	0x3c
 5952 0b90 0A       		.uleb128 0xa
 5953 0b91 171B0000 		.4byte	.LASF127
 5954 0b95 0A       		.byte	0xa
 5955 0b96 D102     		.2byte	0x2d1
 5956 0b98 46050000 		.4byte	0x546
 5957 0b9c 40       		.byte	0x40
 5958 0b9d 0A       		.uleb128 0xa
 5959 0b9e 6B120000 		.4byte	.LASF175
 5960 0ba2 0A       		.byte	0xa
 5961 0ba3 D202     		.2byte	0x2d2
 5962 0ba5 22010000 		.4byte	0x122
 5963 0ba9 48       		.byte	0x48
 5964 0baa 0A       		.uleb128 0xa
 5965 0bab 211B0000 		.4byte	.LASF130
 5966 0baf 0A       		.byte	0xa
 5967 0bb0 D302     		.2byte	0x2d3
 5968 0bb2 C50B0000 		.4byte	0xbc5
 5969 0bb6 4C       		.byte	0x4c
 5970 0bb7 0A       		.uleb128 0xa
 5971 0bb8 4B090000 		.4byte	.LASF176
 5972 0bbc 0A       		.byte	0xa
 5973 0bbd D402     		.2byte	0x2d4
 5974 0bbf 1D010000 		.4byte	0x11d
 5975 0bc3 80       		.byte	0x80
 5976 0bc4 00       		.byte	0
 5977 0bc5 13       		.uleb128 0x13
 5978 0bc6 12010000 		.4byte	0x112
 5979 0bca D50B0000 		.4byte	0xbd5
 5980 0bce 14       		.uleb128 0x14
 5981 0bcf 2C000000 		.4byte	0x2c
 5982 0bd3 0C       		.byte	0xc
 5983 0bd4 00       		.byte	0
 5984 0bd5 1A       		.uleb128 0x1a
ARM GAS  C:\Users\mathi\AppData\Local\Temp\ccuMtzkg.s 			page 106


 5985 0bd6 511C0000 		.4byte	.LASF177
 5986 0bda 0A       		.byte	0xa
 5987 0bdb D502     		.2byte	0x2d5
 5988 0bdd B70A0000 		.4byte	0xab7
 5989 0be1 19       		.uleb128 0x19
 5990 0be2 24       		.byte	0x24
 5991 0be3 0A       		.byte	0xa
 5992 0be4 DB02     		.2byte	0x2db
 5993 0be6 5E0C0000 		.4byte	0xc5e
 5994 0bea 09       		.uleb128 0x9
 5995 0beb 43523100 		.ascii	"CR1\000"
 5996 0bef 0A       		.byte	0xa
 5997 0bf0 DD02     		.2byte	0x2dd
 5998 0bf2 1D010000 		.4byte	0x11d
 5999 0bf6 00       		.byte	0
 6000 0bf7 09       		.uleb128 0x9
 6001 0bf8 43523200 		.ascii	"CR2\000"
 6002 0bfc 0A       		.byte	0xa
 6003 0bfd DE02     		.2byte	0x2de
 6004 0bff 1D010000 		.4byte	0x11d
 6005 0c03 04       		.byte	0x4
 6006 0c04 09       		.uleb128 0x9
 6007 0c05 535200   		.ascii	"SR\000"
 6008 0c08 0A       		.byte	0xa
 6009 0c09 DF02     		.2byte	0x2df
 6010 0c0b 1D010000 		.4byte	0x11d
 6011 0c0f 08       		.byte	0x8
 6012 0c10 09       		.uleb128 0x9
 6013 0c11 445200   		.ascii	"DR\000"
 6014 0c14 0A       		.byte	0xa
 6015 0c15 E002     		.2byte	0x2e0
 6016 0c17 1D010000 		.4byte	0x11d
 6017 0c1b 0C       		.byte	0xc
 6018 0c1c 0A       		.uleb128 0xa
 6019 0c1d A3070000 		.4byte	.LASF178
 6020 0c21 0A       		.byte	0xa
 6021 0c22 E102     		.2byte	0x2e1
 6022 0c24 1D010000 		.4byte	0x11d
 6023 0c28 10       		.byte	0x10
 6024 0c29 0A       		.uleb128 0xa
 6025 0c2a ED0A0000 		.4byte	.LASF179
 6026 0c2e 0A       		.byte	0xa
 6027 0c2f E202     		.2byte	0x2e2
 6028 0c31 1D010000 		.4byte	0x11d
 6029 0c35 14       		.byte	0x14
 6030 0c36 0A       		.uleb128 0xa
 6031 0c37 2B0A0000 		.4byte	.LASF180
 6032 0c3b 0A       		.byte	0xa
 6033 0c3c E302     		.2byte	0x2e3
 6034 0c3e 1D010000 		.4byte	0x11d
 6035 0c42 18       		.byte	0x18
 6036 0c43 0A       		.uleb128 0xa
 6037 0c44 441E0000 		.4byte	.LASF181
 6038 0c48 0A       		.byte	0xa
 6039 0c49 E402     		.2byte	0x2e4
 6040 0c4b 1D010000 		.4byte	0x11d
 6041 0c4f 1C       		.byte	0x1c
ARM GAS  C:\Users\mathi\AppData\Local\Temp\ccuMtzkg.s 			page 107


 6042 0c50 0A       		.uleb128 0xa
 6043 0c51 64070000 		.4byte	.LASF182
 6044 0c55 0A       		.byte	0xa
 6045 0c56 E502     		.2byte	0x2e5
 6046 0c58 1D010000 		.4byte	0x11d
 6047 0c5c 20       		.byte	0x20
 6048 0c5d 00       		.byte	0
 6049 0c5e 1A       		.uleb128 0x1a
 6050 0c5f B11C0000 		.4byte	.LASF183
 6051 0c63 0A       		.byte	0xa
 6052 0c64 E602     		.2byte	0x2e6
 6053 0c66 E10B0000 		.4byte	0xbe1
 6054 0c6a 19       		.uleb128 0x19
 6055 0c6b 1C       		.byte	0x1c
 6056 0c6c 0A       		.byte	0xa
 6057 0c6d 0903     		.2byte	0x309
 6058 0c6f CD0C0000 		.4byte	0xccd
 6059 0c73 09       		.uleb128 0x9
 6060 0c74 535200   		.ascii	"SR\000"
 6061 0c77 0A       		.byte	0xa
 6062 0c78 0B03     		.2byte	0x30b
 6063 0c7a 1D010000 		.4byte	0x11d
 6064 0c7e 00       		.byte	0
 6065 0c7f 09       		.uleb128 0x9
 6066 0c80 445200   		.ascii	"DR\000"
 6067 0c83 0A       		.byte	0xa
 6068 0c84 0C03     		.2byte	0x30c
 6069 0c86 1D010000 		.4byte	0x11d
 6070 0c8a 04       		.byte	0x4
 6071 0c8b 09       		.uleb128 0x9
 6072 0c8c 42525200 		.ascii	"BRR\000"
 6073 0c90 0A       		.byte	0xa
 6074 0c91 0D03     		.2byte	0x30d
 6075 0c93 1D010000 		.4byte	0x11d
 6076 0c97 08       		.byte	0x8
 6077 0c98 09       		.uleb128 0x9
 6078 0c99 43523100 		.ascii	"CR1\000"
 6079 0c9d 0A       		.byte	0xa
 6080 0c9e 0E03     		.2byte	0x30e
 6081 0ca0 1D010000 		.4byte	0x11d
 6082 0ca4 0C       		.byte	0xc
 6083 0ca5 09       		.uleb128 0x9
 6084 0ca6 43523200 		.ascii	"CR2\000"
 6085 0caa 0A       		.byte	0xa
 6086 0cab 0F03     		.2byte	0x30f
 6087 0cad 1D010000 		.4byte	0x11d
 6088 0cb1 10       		.byte	0x10
 6089 0cb2 09       		.uleb128 0x9
 6090 0cb3 43523300 		.ascii	"CR3\000"
 6091 0cb7 0A       		.byte	0xa
 6092 0cb8 1003     		.2byte	0x310
 6093 0cba 1D010000 		.4byte	0x11d
 6094 0cbe 14       		.byte	0x14
 6095 0cbf 0A       		.uleb128 0xa
 6096 0cc0 49200000 		.4byte	.LASF184
 6097 0cc4 0A       		.byte	0xa
 6098 0cc5 1103     		.2byte	0x311
ARM GAS  C:\Users\mathi\AppData\Local\Temp\ccuMtzkg.s 			page 108


 6099 0cc7 1D010000 		.4byte	0x11d
 6100 0ccb 18       		.byte	0x18
 6101 0ccc 00       		.byte	0
 6102 0ccd 1A       		.uleb128 0x1a
 6103 0cce 1D210000 		.4byte	.LASF185
 6104 0cd2 0A       		.byte	0xa
 6105 0cd3 1203     		.2byte	0x312
 6106 0cd5 6A0C0000 		.4byte	0xc6a
 6107 0cd9 13       		.uleb128 0x13
 6108 0cda 1D010000 		.4byte	0x11d
 6109 0cde E90C0000 		.4byte	0xce9
 6110 0ce2 14       		.uleb128 0x14
 6111 0ce3 2C000000 		.4byte	0x2c
 6112 0ce7 0E       		.byte	0xe
 6113 0ce8 00       		.byte	0
 6114 0ce9 06       		.uleb128 0x6
 6115 0cea D90C0000 		.4byte	0xcd9
 6116 0cee 04       		.uleb128 0x4
 6117 0cef 36160000 		.4byte	.LASF186
 6118 0cf3 0B       		.byte	0xb
 6119 0cf4 65       		.byte	0x65
 6120 0cf5 D7030000 		.4byte	0x3d7
 6121 0cf9 04       		.uleb128 0x4
 6122 0cfa F2080000 		.4byte	.LASF187
 6123 0cfe 0B       		.byte	0xb
 6124 0cff 6D       		.byte	0x6d
 6125 0d00 27010000 		.4byte	0x127
 6126 0d04 07       		.uleb128 0x7
 6127 0d05 C0150000 		.4byte	.LASF188
 6128 0d09 04       		.byte	0x4
 6129 0d0a 0B       		.byte	0xb
 6130 0d0b 89       		.byte	0x89
 6131 0d0c 1D0D0000 		.4byte	0xd1d
 6132 0d10 18       		.uleb128 0x18
 6133 0d11 72313300 		.ascii	"r13\000"
 6134 0d15 0B       		.byte	0xb
 6135 0d16 8A       		.byte	0x8a
 6136 0d17 5E0E0000 		.4byte	0xe5e
 6137 0d1b 00       		.byte	0
 6138 0d1c 00       		.byte	0
 6139 0d1d 07       		.uleb128 0x7
 6140 0d1e 09000000 		.4byte	.LASF189
 6141 0d22 64       		.byte	0x64
 6142 0d23 0C       		.byte	0xc
 6143 0d24 F4       		.byte	0xf4
 6144 0d25 5E0E0000 		.4byte	0xe5e
 6145 0d29 18       		.uleb128 0x18
 6146 0d2a 73313600 		.ascii	"s16\000"
 6147 0d2e 0C       		.byte	0xc
 6148 0d2f F6       		.byte	0xf6
 6149 0d30 EE0C0000 		.4byte	0xcee
 6150 0d34 00       		.byte	0
 6151 0d35 18       		.uleb128 0x18
 6152 0d36 73313700 		.ascii	"s17\000"
 6153 0d3a 0C       		.byte	0xc
 6154 0d3b F7       		.byte	0xf7
 6155 0d3c EE0C0000 		.4byte	0xcee
ARM GAS  C:\Users\mathi\AppData\Local\Temp\ccuMtzkg.s 			page 109


 6156 0d40 04       		.byte	0x4
 6157 0d41 18       		.uleb128 0x18
 6158 0d42 73313800 		.ascii	"s18\000"
 6159 0d46 0C       		.byte	0xc
 6160 0d47 F8       		.byte	0xf8
 6161 0d48 EE0C0000 		.4byte	0xcee
 6162 0d4c 08       		.byte	0x8
 6163 0d4d 18       		.uleb128 0x18
 6164 0d4e 73313900 		.ascii	"s19\000"
 6165 0d52 0C       		.byte	0xc
 6166 0d53 F9       		.byte	0xf9
 6167 0d54 EE0C0000 		.4byte	0xcee
 6168 0d58 0C       		.byte	0xc
 6169 0d59 18       		.uleb128 0x18
 6170 0d5a 73323000 		.ascii	"s20\000"
 6171 0d5e 0C       		.byte	0xc
 6172 0d5f FA       		.byte	0xfa
 6173 0d60 EE0C0000 		.4byte	0xcee
 6174 0d64 10       		.byte	0x10
 6175 0d65 18       		.uleb128 0x18
 6176 0d66 73323100 		.ascii	"s21\000"
 6177 0d6a 0C       		.byte	0xc
 6178 0d6b FB       		.byte	0xfb
 6179 0d6c EE0C0000 		.4byte	0xcee
 6180 0d70 14       		.byte	0x14
 6181 0d71 18       		.uleb128 0x18
 6182 0d72 73323200 		.ascii	"s22\000"
 6183 0d76 0C       		.byte	0xc
 6184 0d77 FC       		.byte	0xfc
 6185 0d78 EE0C0000 		.4byte	0xcee
 6186 0d7c 18       		.byte	0x18
 6187 0d7d 18       		.uleb128 0x18
 6188 0d7e 73323300 		.ascii	"s23\000"
 6189 0d82 0C       		.byte	0xc
 6190 0d83 FD       		.byte	0xfd
 6191 0d84 EE0C0000 		.4byte	0xcee
 6192 0d88 1C       		.byte	0x1c
 6193 0d89 18       		.uleb128 0x18
 6194 0d8a 73323400 		.ascii	"s24\000"
 6195 0d8e 0C       		.byte	0xc
 6196 0d8f FE       		.byte	0xfe
 6197 0d90 EE0C0000 		.4byte	0xcee
 6198 0d94 20       		.byte	0x20
 6199 0d95 18       		.uleb128 0x18
 6200 0d96 73323500 		.ascii	"s25\000"
 6201 0d9a 0C       		.byte	0xc
 6202 0d9b FF       		.byte	0xff
 6203 0d9c EE0C0000 		.4byte	0xcee
 6204 0da0 24       		.byte	0x24
 6205 0da1 09       		.uleb128 0x9
 6206 0da2 73323600 		.ascii	"s26\000"
 6207 0da6 0C       		.byte	0xc
 6208 0da7 0001     		.2byte	0x100
 6209 0da9 EE0C0000 		.4byte	0xcee
 6210 0dad 28       		.byte	0x28
 6211 0dae 09       		.uleb128 0x9
 6212 0daf 73323700 		.ascii	"s27\000"
ARM GAS  C:\Users\mathi\AppData\Local\Temp\ccuMtzkg.s 			page 110


 6213 0db3 0C       		.byte	0xc
 6214 0db4 0101     		.2byte	0x101
 6215 0db6 EE0C0000 		.4byte	0xcee
 6216 0dba 2C       		.byte	0x2c
 6217 0dbb 09       		.uleb128 0x9
 6218 0dbc 73323800 		.ascii	"s28\000"
 6219 0dc0 0C       		.byte	0xc
 6220 0dc1 0201     		.2byte	0x102
 6221 0dc3 EE0C0000 		.4byte	0xcee
 6222 0dc7 30       		.byte	0x30
 6223 0dc8 09       		.uleb128 0x9
 6224 0dc9 73323900 		.ascii	"s29\000"
 6225 0dcd 0C       		.byte	0xc
 6226 0dce 0301     		.2byte	0x103
 6227 0dd0 EE0C0000 		.4byte	0xcee
 6228 0dd4 34       		.byte	0x34
 6229 0dd5 09       		.uleb128 0x9
 6230 0dd6 73333000 		.ascii	"s30\000"
 6231 0dda 0C       		.byte	0xc
 6232 0ddb 0401     		.2byte	0x104
 6233 0ddd EE0C0000 		.4byte	0xcee
 6234 0de1 38       		.byte	0x38
 6235 0de2 09       		.uleb128 0x9
 6236 0de3 73333100 		.ascii	"s31\000"
 6237 0de7 0C       		.byte	0xc
 6238 0de8 0501     		.2byte	0x105
 6239 0dea EE0C0000 		.4byte	0xcee
 6240 0dee 3C       		.byte	0x3c
 6241 0def 09       		.uleb128 0x9
 6242 0df0 723400   		.ascii	"r4\000"
 6243 0df3 0C       		.byte	0xc
 6244 0df4 0701     		.2byte	0x107
 6245 0df6 EE0C0000 		.4byte	0xcee
 6246 0dfa 40       		.byte	0x40
 6247 0dfb 09       		.uleb128 0x9
 6248 0dfc 723500   		.ascii	"r5\000"
 6249 0dff 0C       		.byte	0xc
 6250 0e00 0801     		.2byte	0x108
 6251 0e02 EE0C0000 		.4byte	0xcee
 6252 0e06 44       		.byte	0x44
 6253 0e07 09       		.uleb128 0x9
 6254 0e08 723600   		.ascii	"r6\000"
 6255 0e0b 0C       		.byte	0xc
 6256 0e0c 0901     		.2byte	0x109
 6257 0e0e EE0C0000 		.4byte	0xcee
 6258 0e12 48       		.byte	0x48
 6259 0e13 09       		.uleb128 0x9
 6260 0e14 723700   		.ascii	"r7\000"
 6261 0e17 0C       		.byte	0xc
 6262 0e18 0A01     		.2byte	0x10a
 6263 0e1a EE0C0000 		.4byte	0xcee
 6264 0e1e 4C       		.byte	0x4c
 6265 0e1f 09       		.uleb128 0x9
 6266 0e20 723800   		.ascii	"r8\000"
 6267 0e23 0C       		.byte	0xc
 6268 0e24 0B01     		.2byte	0x10b
 6269 0e26 EE0C0000 		.4byte	0xcee
ARM GAS  C:\Users\mathi\AppData\Local\Temp\ccuMtzkg.s 			page 111


 6270 0e2a 50       		.byte	0x50
 6271 0e2b 09       		.uleb128 0x9
 6272 0e2c 723900   		.ascii	"r9\000"
 6273 0e2f 0C       		.byte	0xc
 6274 0e30 0C01     		.2byte	0x10c
 6275 0e32 EE0C0000 		.4byte	0xcee
 6276 0e36 54       		.byte	0x54
 6277 0e37 09       		.uleb128 0x9
 6278 0e38 72313000 		.ascii	"r10\000"
 6279 0e3c 0C       		.byte	0xc
 6280 0e3d 0D01     		.2byte	0x10d
 6281 0e3f EE0C0000 		.4byte	0xcee
 6282 0e43 58       		.byte	0x58
 6283 0e44 09       		.uleb128 0x9
 6284 0e45 72313100 		.ascii	"r11\000"
 6285 0e49 0C       		.byte	0xc
 6286 0e4a 0E01     		.2byte	0x10e
 6287 0e4c EE0C0000 		.4byte	0xcee
 6288 0e50 5C       		.byte	0x5c
 6289 0e51 09       		.uleb128 0x9
 6290 0e52 6C7200   		.ascii	"lr\000"
 6291 0e55 0C       		.byte	0xc
 6292 0e56 0F01     		.2byte	0x10f
 6293 0e58 EE0C0000 		.4byte	0xcee
 6294 0e5c 60       		.byte	0x60
 6295 0e5d 00       		.byte	0
 6296 0e5e 0B       		.uleb128 0xb
 6297 0e5f 04       		.byte	0x4
 6298 0e60 1D0D0000 		.4byte	0xd1d
 6299 0e64 17       		.uleb128 0x17
 6300 0e65 10       		.byte	0x10
 6301 0e66 0D       		.byte	0xd
 6302 0e67 51       		.byte	0x51
 6303 0e68 9D0E0000 		.4byte	0xe9d
 6304 0e6c 08       		.uleb128 0x8
 6305 0e6d 8B1B0000 		.4byte	.LASF190
 6306 0e71 0D       		.byte	0xd
 6307 0e72 55       		.byte	0x55
 6308 0e73 B6010000 		.4byte	0x1b6
 6309 0e77 00       		.byte	0
 6310 0e78 08       		.uleb128 0x8
 6311 0e79 A1160000 		.4byte	.LASF191
 6312 0e7d 0D       		.byte	0xd
 6313 0e7e 59       		.byte	0x59
 6314 0e7f FA020000 		.4byte	0x2fa
 6315 0e83 04       		.byte	0x4
 6316 0e84 08       		.uleb128 0x8
 6317 0e85 AD0B0000 		.4byte	.LASF192
 6318 0e89 0D       		.byte	0xd
 6319 0e8a 5D       		.byte	0x5d
 6320 0e8b D7030000 		.4byte	0x3d7
 6321 0e8f 08       		.byte	0x8
 6322 0e90 08       		.uleb128 0x8
 6323 0e91 C0090000 		.4byte	.LASF193
 6324 0e95 0D       		.byte	0xd
 6325 0e96 61       		.byte	0x61
 6326 0e97 DC000000 		.4byte	0xdc
ARM GAS  C:\Users\mathi\AppData\Local\Temp\ccuMtzkg.s 			page 112


 6327 0e9b 0C       		.byte	0xc
 6328 0e9c 00       		.byte	0
 6329 0e9d 04       		.uleb128 0x4
 6330 0e9e 790C0000 		.4byte	.LASF194
 6331 0ea2 0D       		.byte	0xd
 6332 0ea3 62       		.byte	0x62
 6333 0ea4 640E0000 		.4byte	0xe64
 6334 0ea8 1C       		.uleb128 0x1c
 6335 0ea9 0804     		.2byte	0x408
 6336 0eab 0D       		.byte	0xd
 6337 0eac 67       		.byte	0x67
 6338 0ead D60E0000 		.4byte	0xed6
 6339 0eb1 08       		.uleb128 0x8
 6340 0eb2 280D0000 		.4byte	.LASF195
 6341 0eb6 0D       		.byte	0xd
 6342 0eb7 6B       		.byte	0x6b
 6343 0eb8 2C000000 		.4byte	0x2c
 6344 0ebc 00       		.byte	0
 6345 0ebd 08       		.uleb128 0x8
 6346 0ebe 94120000 		.4byte	.LASF196
 6347 0ec2 0D       		.byte	0xd
 6348 0ec3 6F       		.byte	0x6f
 6349 0ec4 D60E0000 		.4byte	0xed6
 6350 0ec8 04       		.byte	0x4
 6351 0ec9 08       		.uleb128 0x8
 6352 0eca 50090000 		.4byte	.LASF197
 6353 0ece 0D       		.byte	0xd
 6354 0ecf 73       		.byte	0x73
 6355 0ed0 DC0E0000 		.4byte	0xedc
 6356 0ed4 08       		.byte	0x8
 6357 0ed5 00       		.byte	0
 6358 0ed6 0B       		.uleb128 0xb
 6359 0ed7 04       		.byte	0x4
 6360 0ed8 9D0E0000 		.4byte	0xe9d
 6361 0edc 13       		.uleb128 0x13
 6362 0edd 9D0E0000 		.4byte	0xe9d
 6363 0ee1 EC0E0000 		.4byte	0xeec
 6364 0ee5 14       		.uleb128 0x14
 6365 0ee6 2C000000 		.4byte	0x2c
 6366 0eea 3F       		.byte	0x3f
 6367 0eeb 00       		.byte	0
 6368 0eec 04       		.uleb128 0x4
 6369 0eed 15000000 		.4byte	.LASF198
 6370 0ef1 0D       		.byte	0xd
 6371 0ef2 74       		.byte	0x74
 6372 0ef3 A80E0000 		.4byte	0xea8
 6373 0ef7 17       		.uleb128 0x17
 6374 0ef8 04       		.byte	0x4
 6375 0ef9 0E       		.byte	0xe
 6376 0efa 38       		.byte	0x38
 6377 0efb 0C0F0000 		.4byte	0xf0c
 6378 0eff 08       		.uleb128 0x8
 6379 0f00 5E1C0000 		.4byte	.LASF199
 6380 0f04 0E       		.byte	0xe
 6381 0f05 3C       		.byte	0x3c
 6382 0f06 32010000 		.4byte	0x132
 6383 0f0a 00       		.byte	0
ARM GAS  C:\Users\mathi\AppData\Local\Temp\ccuMtzkg.s 			page 113


 6384 0f0b 00       		.byte	0
 6385 0f0c 04       		.uleb128 0x4
 6386 0f0d 06200000 		.4byte	.LASF200
 6387 0f11 0E       		.byte	0xe
 6388 0f12 3D       		.byte	0x3d
 6389 0f13 F70E0000 		.4byte	0xef7
 6390 0f17 17       		.uleb128 0x17
 6391 0f18 18       		.byte	0x18
 6392 0f19 0E       		.byte	0xe
 6393 0f1a 48       		.byte	0x48
 6394 0f1b 5A0F0000 		.4byte	0xf5a
 6395 0f1f 08       		.uleb128 0x8
 6396 0f20 75070000 		.4byte	.LASF201
 6397 0f24 0E       		.byte	0xe
 6398 0f25 49       		.byte	0x49
 6399 0f26 32010000 		.4byte	0x132
 6400 0f2a 00       		.byte	0
 6401 0f2b 08       		.uleb128 0x8
 6402 0f2c 1C010000 		.4byte	.LASF202
 6403 0f30 0E       		.byte	0xe
 6404 0f31 4A       		.byte	0x4a
 6405 0f32 32010000 		.4byte	0x132
 6406 0f36 04       		.byte	0x4
 6407 0f37 08       		.uleb128 0x8
 6408 0f38 E3150000 		.4byte	.LASF203
 6409 0f3c 0E       		.byte	0xe
 6410 0f3d 4B       		.byte	0x4b
 6411 0f3e 32010000 		.4byte	0x132
 6412 0f42 08       		.byte	0x8
 6413 0f43 18       		.uleb128 0x18
 6414 0f44 6E00     		.ascii	"n\000"
 6415 0f46 0E       		.byte	0xe
 6416 0f47 4C       		.byte	0x4c
 6417 0f48 AB010000 		.4byte	0x1ab
 6418 0f4c 0C       		.byte	0xc
 6419 0f4d 08       		.uleb128 0x8
 6420 0f4e 9C150000 		.4byte	.LASF204
 6421 0f52 0E       		.byte	0xe
 6422 0f53 4D       		.byte	0x4d
 6423 0f54 3D010000 		.4byte	0x13d
 6424 0f58 10       		.byte	0x10
 6425 0f59 00       		.byte	0
 6426 0f5a 04       		.uleb128 0x4
 6427 0f5b 9A1E0000 		.4byte	.LASF205
 6428 0f5f 0E       		.byte	0xe
 6429 0f60 4E       		.byte	0x4e
 6430 0f61 170F0000 		.4byte	0xf17
 6431 0f65 17       		.uleb128 0x17
 6432 0f66 38       		.byte	0x38
 6433 0f67 0F       		.byte	0xf
 6434 0f68 38       		.byte	0x38
 6435 0f69 9E0F0000 		.4byte	0xf9e
 6436 0f6d 08       		.uleb128 0x8
 6437 0f6e CE060000 		.4byte	.LASF206
 6438 0f72 0F       		.byte	0xf
 6439 0f73 39       		.byte	0x39
 6440 0f74 AB010000 		.4byte	0x1ab
ARM GAS  C:\Users\mathi\AppData\Local\Temp\ccuMtzkg.s 			page 114


 6441 0f78 00       		.byte	0
 6442 0f79 08       		.uleb128 0x8
 6443 0f7a 640A0000 		.4byte	.LASF207
 6444 0f7e 0F       		.byte	0xf
 6445 0f7f 3A       		.byte	0x3a
 6446 0f80 AB010000 		.4byte	0x1ab
 6447 0f84 04       		.byte	0x4
 6448 0f85 08       		.uleb128 0x8
 6449 0f86 271E0000 		.4byte	.LASF208
 6450 0f8a 0F       		.byte	0xf
 6451 0f8b 3B       		.byte	0x3b
 6452 0f8c 5A0F0000 		.4byte	0xf5a
 6453 0f90 08       		.byte	0x8
 6454 0f91 08       		.uleb128 0x8
 6455 0f92 64000000 		.4byte	.LASF209
 6456 0f96 0F       		.byte	0xf
 6457 0f97 3D       		.byte	0x3d
 6458 0f98 5A0F0000 		.4byte	0xf5a
 6459 0f9c 20       		.byte	0x20
 6460 0f9d 00       		.byte	0
 6461 0f9e 04       		.uleb128 0x4
 6462 0f9f 7F050000 		.4byte	.LASF210
 6463 0fa3 0F       		.byte	0xf
 6464 0fa4 3F       		.byte	0x3f
 6465 0fa5 650F0000 		.4byte	0xf65
 6466 0fa9 1D       		.uleb128 0x1d
 6467 0faa 04       		.byte	0x4
 6468 0fab 07       		.byte	0x7
 6469 0fac FA       		.byte	0xfa
 6470 0fad 06100000 		.4byte	0x1006
 6471 0fb1 1E       		.uleb128 0x1e
 6472 0fb2 8E0E0000 		.4byte	.LASF211
 6473 0fb6 07       		.byte	0x7
 6474 0fb7 0101     		.2byte	0x101
 6475 0fb9 7F010000 		.4byte	0x17f
 6476 0fbd 1E       		.uleb128 0x1e
 6477 0fbe 09080000 		.4byte	.LASF212
 6478 0fc2 07       		.byte	0x7
 6479 0fc3 0801     		.2byte	0x108
 6480 0fc5 7F010000 		.4byte	0x17f
 6481 0fc9 1E       		.uleb128 0x1e
 6482 0fca 67190000 		.4byte	.LASF213
 6483 0fce 07       		.byte	0x7
 6484 0fcf 0F01     		.2byte	0x10f
 6485 0fd1 D7030000 		.4byte	0x3d7
 6486 0fd5 1E       		.uleb128 0x1e
 6487 0fd6 B2150000 		.4byte	.LASF214
 6488 0fda 07       		.byte	0x7
 6489 0fdb 1601     		.2byte	0x116
 6490 0fdd 06100000 		.4byte	0x1006
 6491 0fe1 1E       		.uleb128 0x1e
 6492 0fe2 BD000000 		.4byte	.LASF215
 6493 0fe6 07       		.byte	0x7
 6494 0fe7 1E01     		.2byte	0x11e
 6495 0fe9 31100000 		.4byte	0x1031
 6496 0fed 1E       		.uleb128 0x1e
 6497 0fee B0190000 		.4byte	.LASF216
ARM GAS  C:\Users\mathi\AppData\Local\Temp\ccuMtzkg.s 			page 115


 6498 0ff2 07       		.byte	0x7
 6499 0ff3 2701     		.2byte	0x127
 6500 0ff5 74100000 		.4byte	0x1074
 6501 0ff9 1E       		.uleb128 0x1e
 6502 0ffa 091D0000 		.4byte	.LASF217
 6503 0ffe 07       		.byte	0x7
 6504 0fff 2F01     		.2byte	0x12f
 6505 1001 8A010000 		.4byte	0x18a
 6506 1005 00       		.byte	0
 6507 1006 0B       		.uleb128 0xb
 6508 1007 04       		.byte	0x4
 6509 1008 EF020000 		.4byte	0x2ef
 6510 100c 07       		.uleb128 0x7
 6511 100d 91140000 		.4byte	.LASF218
 6512 1011 0C       		.byte	0xc
 6513 1012 10       		.byte	0x10
 6514 1013 34       		.byte	0x34
 6515 1014 31100000 		.4byte	0x1031
 6516 1018 08       		.uleb128 0x8
 6517 1019 1F1E0000 		.4byte	.LASF219
 6518 101d 10       		.byte	0x10
 6519 101e 35       		.byte	0x35
 6520 101f 24030000 		.4byte	0x324
 6521 1023 00       		.byte	0
 6522 1024 08       		.uleb128 0x8
 6523 1025 62090000 		.4byte	.LASF220
 6524 1029 10       		.byte	0x10
 6525 102a 37       		.byte	0x37
 6526 102b A0010000 		.4byte	0x1a0
 6527 102f 08       		.byte	0x8
 6528 1030 00       		.byte	0
 6529 1031 0B       		.uleb128 0xb
 6530 1032 04       		.byte	0x4
 6531 1033 0C100000 		.4byte	0x100c
 6532 1037 07       		.uleb128 0x7
 6533 1038 020B0000 		.4byte	.LASF221
 6534 103c 14       		.byte	0x14
 6535 103d 11       		.byte	0x11
 6536 103e 39       		.byte	0x39
 6537 103f 74100000 		.4byte	0x1074
 6538 1043 08       		.uleb128 0x8
 6539 1044 3A150000 		.4byte	.LASF222
 6540 1048 11       		.byte	0x11
 6541 1049 3A       		.byte	0x3a
 6542 104a 24030000 		.4byte	0x324
 6543 104e 00       		.byte	0
 6544 104f 08       		.uleb128 0x8
 6545 1050 A4130000 		.4byte	.LASF223
 6546 1054 11       		.byte	0x11
 6547 1055 3C       		.byte	0x3c
 6548 1056 FA020000 		.4byte	0x2fa
 6549 105a 08       		.byte	0x8
 6550 105b 08       		.uleb128 0x8
 6551 105c 41010000 		.4byte	.LASF224
 6552 1060 11       		.byte	0x11
 6553 1061 3E       		.byte	0x3e
 6554 1062 CF110000 		.4byte	0x11cf
ARM GAS  C:\Users\mathi\AppData\Local\Temp\ccuMtzkg.s 			page 116


 6555 1066 0C       		.byte	0xc
 6556 1067 08       		.uleb128 0x8
 6557 1068 8A080000 		.4byte	.LASF225
 6558 106c 11       		.byte	0x11
 6559 106d 41       		.byte	0x41
 6560 106e A0010000 		.4byte	0x1a0
 6561 1072 10       		.byte	0x10
 6562 1073 00       		.byte	0
 6563 1074 0B       		.uleb128 0xb
 6564 1075 04       		.byte	0x4
 6565 1076 37100000 		.4byte	0x1037
 6566 107a 0B       		.uleb128 0xb
 6567 107b 04       		.byte	0x4
 6568 107c 8C100000 		.4byte	0x108c
 6569 1080 06       		.uleb128 0x6
 6570 1081 7A100000 		.4byte	0x107a
 6571 1085 02       		.uleb128 0x2
 6572 1086 01       		.byte	0x1
 6573 1087 08       		.byte	0x8
 6574 1088 FE160000 		.4byte	.LASF226
 6575 108c 05       		.uleb128 0x5
 6576 108d 85100000 		.4byte	0x1085
 6577 1091 0B       		.uleb128 0xb
 6578 1092 04       		.byte	0x4
 6579 1093 F90C0000 		.4byte	0xcf9
 6580 1097 0B       		.uleb128 0xb
 6581 1098 04       		.byte	0x4
 6582 1099 D9030000 		.4byte	0x3d9
 6583 109d 13       		.uleb128 0x13
 6584 109e F90C0000 		.4byte	0xcf9
 6585 10a2 AD100000 		.4byte	0x10ad
 6586 10a6 14       		.uleb128 0x14
 6587 10a7 2C000000 		.4byte	0x2c
 6588 10ab 30       		.byte	0x30
 6589 10ac 00       		.byte	0
 6590 10ad 1F       		.uleb128 0x1f
 6591 10ae 636800   		.ascii	"ch\000"
 6592 10b1 07       		.byte	0x7
 6593 10b2 0902     		.2byte	0x209
 6594 10b4 CE040000 		.4byte	0x4ce
 6595 10b8 17       		.uleb128 0x17
 6596 10b9 16       		.byte	0x16
 6597 10ba 12       		.byte	0x12
 6598 10bb 34       		.byte	0x34
 6599 10bc 99110000 		.4byte	0x1199
 6600 10c0 08       		.uleb128 0x8
 6601 10c1 511E0000 		.4byte	.LASF227
 6602 10c5 12       		.byte	0x12
 6603 10c6 35       		.byte	0x35
 6604 10c7 99110000 		.4byte	0x1199
 6605 10cb 00       		.byte	0
 6606 10cc 08       		.uleb128 0x8
 6607 10cd 4E200000 		.4byte	.LASF228
 6608 10d1 12       		.byte	0x12
 6609 10d2 36       		.byte	0x36
 6610 10d3 DC000000 		.4byte	0xdc
 6611 10d7 04       		.byte	0x4
ARM GAS  C:\Users\mathi\AppData\Local\Temp\ccuMtzkg.s 			page 117


 6612 10d8 08       		.uleb128 0x8
 6613 10d9 9D030000 		.4byte	.LASF229
 6614 10dd 12       		.byte	0x12
 6615 10de 37       		.byte	0x37
 6616 10df DC000000 		.4byte	0xdc
 6617 10e3 05       		.byte	0x5
 6618 10e4 08       		.uleb128 0x8
 6619 10e5 EE130000 		.4byte	.LASF230
 6620 10e9 12       		.byte	0x12
 6621 10ea 38       		.byte	0x38
 6622 10eb F7000000 		.4byte	0xf7
 6623 10ef 06       		.byte	0x6
 6624 10f0 08       		.uleb128 0x8
 6625 10f1 27000000 		.4byte	.LASF231
 6626 10f5 12       		.byte	0x12
 6627 10f6 39       		.byte	0x39
 6628 10f7 DC000000 		.4byte	0xdc
 6629 10fb 08       		.byte	0x8
 6630 10fc 08       		.uleb128 0x8
 6631 10fd 86040000 		.4byte	.LASF232
 6632 1101 12       		.byte	0x12
 6633 1102 3A       		.byte	0x3a
 6634 1103 DC000000 		.4byte	0xdc
 6635 1107 09       		.byte	0x9
 6636 1108 08       		.uleb128 0x8
 6637 1109 77200000 		.4byte	.LASF233
 6638 110d 12       		.byte	0x12
 6639 110e 3B       		.byte	0x3b
 6640 110f DC000000 		.4byte	0xdc
 6641 1113 0A       		.byte	0xa
 6642 1114 08       		.uleb128 0x8
 6643 1115 8E1E0000 		.4byte	.LASF234
 6644 1119 12       		.byte	0x12
 6645 111a 3C       		.byte	0x3c
 6646 111b DC000000 		.4byte	0xdc
 6647 111f 0B       		.byte	0xb
 6648 1120 08       		.uleb128 0x8
 6649 1121 C3050000 		.4byte	.LASF235
 6650 1125 12       		.byte	0x12
 6651 1126 3D       		.byte	0x3d
 6652 1127 DC000000 		.4byte	0xdc
 6653 112b 0C       		.byte	0xc
 6654 112c 08       		.uleb128 0x8
 6655 112d 690B0000 		.4byte	.LASF236
 6656 1131 12       		.byte	0x12
 6657 1132 3E       		.byte	0x3e
 6658 1133 DC000000 		.4byte	0xdc
 6659 1137 0D       		.byte	0xd
 6660 1138 08       		.uleb128 0x8
 6661 1139 0D060000 		.4byte	.LASF237
 6662 113d 12       		.byte	0x12
 6663 113e 3F       		.byte	0x3f
 6664 113f DC000000 		.4byte	0xdc
 6665 1143 0E       		.byte	0xe
 6666 1144 08       		.uleb128 0x8
 6667 1145 DB0C0000 		.4byte	.LASF238
 6668 1149 12       		.byte	0x12
ARM GAS  C:\Users\mathi\AppData\Local\Temp\ccuMtzkg.s 			page 118


 6669 114a 40       		.byte	0x40
 6670 114b DC000000 		.4byte	0xdc
 6671 114f 0F       		.byte	0xf
 6672 1150 08       		.uleb128 0x8
 6673 1151 69040000 		.4byte	.LASF239
 6674 1155 12       		.byte	0x12
 6675 1156 41       		.byte	0x41
 6676 1157 DC000000 		.4byte	0xdc
 6677 115b 10       		.byte	0x10
 6678 115c 08       		.uleb128 0x8
 6679 115d 9A080000 		.4byte	.LASF240
 6680 1161 12       		.byte	0x12
 6681 1162 43       		.byte	0x43
 6682 1163 DC000000 		.4byte	0xdc
 6683 1167 11       		.byte	0x11
 6684 1168 08       		.uleb128 0x8
 6685 1169 74030000 		.4byte	.LASF241
 6686 116d 12       		.byte	0x12
 6687 116e 44       		.byte	0x44
 6688 116f DC000000 		.4byte	0xdc
 6689 1173 12       		.byte	0x12
 6690 1174 08       		.uleb128 0x8
 6691 1175 8E130000 		.4byte	.LASF242
 6692 1179 12       		.byte	0x12
 6693 117a 45       		.byte	0x45
 6694 117b DC000000 		.4byte	0xdc
 6695 117f 13       		.byte	0x13
 6696 1180 08       		.uleb128 0x8
 6697 1181 C1180000 		.4byte	.LASF243
 6698 1185 12       		.byte	0x12
 6699 1186 46       		.byte	0x46
 6700 1187 DC000000 		.4byte	0xdc
 6701 118b 14       		.byte	0x14
 6702 118c 08       		.uleb128 0x8
 6703 118d 9B000000 		.4byte	.LASF244
 6704 1191 12       		.byte	0x12
 6705 1192 48       		.byte	0x48
 6706 1193 DC000000 		.4byte	0xdc
 6707 1197 15       		.byte	0x15
 6708 1198 00       		.byte	0
 6709 1199 13       		.uleb128 0x13
 6710 119a 85100000 		.4byte	0x1085
 6711 119e A9110000 		.4byte	0x11a9
 6712 11a2 14       		.uleb128 0x14
 6713 11a3 2C000000 		.4byte	0x2c
 6714 11a7 03       		.byte	0x3
 6715 11a8 00       		.byte	0
 6716 11a9 04       		.uleb128 0x4
 6717 11aa C6110000 		.4byte	.LASF245
 6718 11ae 12       		.byte	0x12
 6719 11af 49       		.byte	0x49
 6720 11b0 B8100000 		.4byte	0x10b8
 6721 11b4 05       		.uleb128 0x5
 6722 11b5 A9110000 		.4byte	0x11a9
 6723 11b9 16       		.uleb128 0x16
 6724 11ba 6D0A0000 		.4byte	.LASF246
 6725 11be 12       		.byte	0x12
ARM GAS  C:\Users\mathi\AppData\Local\Temp\ccuMtzkg.s 			page 119


 6726 11bf 6E       		.byte	0x6e
 6727 11c0 B4110000 		.4byte	0x11b4
 6728 11c4 04       		.uleb128 0x4
 6729 11c5 C21A0000 		.4byte	.LASF247
 6730 11c9 11       		.byte	0x11
 6731 11ca 34       		.byte	0x34
 6732 11cb 37100000 		.4byte	0x1037
 6733 11cf 0B       		.uleb128 0xb
 6734 11d0 04       		.byte	0x4
 6735 11d1 C4110000 		.4byte	0x11c4
 6736 11d5 04       		.uleb128 0x4
 6737 11d6 B30A0000 		.4byte	.LASF248
 6738 11da 13       		.byte	0x13
 6739 11db 34       		.byte	0x34
 6740 11dc E0110000 		.4byte	0x11e0
 6741 11e0 07       		.uleb128 0x7
 6742 11e1 EE200000 		.4byte	.LASF249
 6743 11e5 14       		.byte	0x14
 6744 11e6 13       		.byte	0x13
 6745 11e7 39       		.byte	0x39
 6746 11e8 29120000 		.4byte	0x1229
 6747 11ec 08       		.uleb128 0x8
 6748 11ed EE020000 		.4byte	.LASF250
 6749 11f1 13       		.byte	0x13
 6750 11f2 3A       		.byte	0x3a
 6751 11f3 29120000 		.4byte	0x1229
 6752 11f7 00       		.byte	0
 6753 11f8 08       		.uleb128 0x8
 6754 11f9 BC1B0000 		.4byte	.LASF251
 6755 11fd 13       		.byte	0x13
 6756 11fe 3D       		.byte	0x3d
 6757 11ff FA020000 		.4byte	0x2fa
 6758 1203 04       		.byte	0x4
 6759 1204 08       		.uleb128 0x8
 6760 1205 FC030000 		.4byte	.LASF252
 6761 1209 13       		.byte	0x13
 6762 120a 3F       		.byte	0x3f
 6763 120b 8A010000 		.4byte	0x18a
 6764 120f 08       		.byte	0x8
 6765 1210 08       		.uleb128 0x8
 6766 1211 101D0000 		.4byte	.LASF253
 6767 1215 13       		.byte	0x13
 6768 1216 41       		.byte	0x41
 6769 1217 95010000 		.4byte	0x195
 6770 121b 0C       		.byte	0xc
 6771 121c 08       		.uleb128 0x8
 6772 121d 140D0000 		.4byte	.LASF254
 6773 1221 13       		.byte	0x13
 6774 1222 43       		.byte	0x43
 6775 1223 95010000 		.4byte	0x195
 6776 1227 10       		.byte	0x10
 6777 1228 00       		.byte	0
 6778 1229 0B       		.uleb128 0xb
 6779 122a 04       		.byte	0x4
 6780 122b D5110000 		.4byte	0x11d5
 6781 122f 07       		.uleb128 0x7
 6782 1230 191D0000 		.4byte	.LASF255
ARM GAS  C:\Users\mathi\AppData\Local\Temp\ccuMtzkg.s 			page 120


 6783 1234 04       		.byte	0x4
 6784 1235 13       		.byte	0x13
 6785 1236 4A       		.byte	0x4a
 6786 1237 48120000 		.4byte	0x1248
 6787 123b 08       		.uleb128 0x8
 6788 123c 781C0000 		.4byte	.LASF256
 6789 1240 13       		.byte	0x13
 6790 1241 4B       		.byte	0x4b
 6791 1242 29120000 		.4byte	0x1229
 6792 1246 00       		.byte	0
 6793 1247 00       		.byte	0
 6794 1248 04       		.uleb128 0x4
 6795 1249 73120000 		.4byte	.LASF257
 6796 124d 13       		.byte	0x13
 6797 124e 4E       		.byte	0x4e
 6798 124f 2F120000 		.4byte	0x122f
 6799 1253 04       		.uleb128 0x4
 6800 1254 4C0D0000 		.4byte	.LASF258
 6801 1258 14       		.byte	0x14
 6802 1259 3F       		.byte	0x3f
 6803 125a 5E120000 		.4byte	0x125e
 6804 125e 07       		.uleb128 0x7
 6805 125f FA0E0000 		.4byte	.LASF259
 6806 1263 24       		.byte	0x24
 6807 1264 14       		.byte	0x14
 6808 1265 4D       		.byte	0x4d
 6809 1266 CB120000 		.4byte	0x12cb
 6810 126a 08       		.uleb128 0x8
 6811 126b 8E050000 		.4byte	.LASF260
 6812 126f 14       		.byte	0x14
 6813 1270 4E       		.byte	0x4e
 6814 1271 24030000 		.4byte	0x324
 6815 1275 00       		.byte	0
 6816 1276 08       		.uleb128 0x8
 6817 1277 781A0000 		.4byte	.LASF261
 6818 127b 14       		.byte	0x14
 6819 127c 4F       		.byte	0x4f
 6820 127d 3A000000 		.4byte	0x3a
 6821 1281 08       		.byte	0x8
 6822 1282 08       		.uleb128 0x8
 6823 1283 BD0F0000 		.4byte	.LASF262
 6824 1287 14       		.byte	0x14
 6825 1288 50       		.byte	0x50
 6826 1289 ED120000 		.4byte	0x12ed
 6827 128d 0C       		.byte	0xc
 6828 128e 08       		.uleb128 0x8
 6829 128f D6040000 		.4byte	.LASF263
 6830 1293 14       		.byte	0x14
 6831 1294 51       		.byte	0x51
 6832 1295 ED120000 		.4byte	0x12ed
 6833 1299 10       		.byte	0x10
 6834 129a 08       		.uleb128 0x8
 6835 129b A7160000 		.4byte	.LASF264
 6836 129f 14       		.byte	0x14
 6837 12a0 53       		.byte	0x53
 6838 12a1 ED120000 		.4byte	0x12ed
 6839 12a5 14       		.byte	0x14
ARM GAS  C:\Users\mathi\AppData\Local\Temp\ccuMtzkg.s 			page 121


 6840 12a6 08       		.uleb128 0x8
 6841 12a7 B8150000 		.4byte	.LASF265
 6842 12ab 14       		.byte	0x14
 6843 12ac 54       		.byte	0x54
 6844 12ad ED120000 		.4byte	0x12ed
 6845 12b1 18       		.byte	0x18
 6846 12b2 08       		.uleb128 0x8
 6847 12b3 A7190000 		.4byte	.LASF266
 6848 12b7 14       		.byte	0x14
 6849 12b8 55       		.byte	0x55
 6850 12b9 CB120000 		.4byte	0x12cb
 6851 12bd 1C       		.byte	0x1c
 6852 12be 08       		.uleb128 0x8
 6853 12bf 67170000 		.4byte	.LASF267
 6854 12c3 14       		.byte	0x14
 6855 12c4 56       		.byte	0x56
 6856 12c5 D7030000 		.4byte	0x3d7
 6857 12c9 20       		.byte	0x20
 6858 12ca 00       		.byte	0
 6859 12cb 04       		.uleb128 0x4
 6860 12cc AE040000 		.4byte	.LASF268
 6861 12d0 14       		.byte	0x14
 6862 12d1 42       		.byte	0x42
 6863 12d2 D6120000 		.4byte	0x12d6
 6864 12d6 0B       		.uleb128 0xb
 6865 12d7 04       		.byte	0x4
 6866 12d8 DC120000 		.4byte	0x12dc
 6867 12dc 0D       		.uleb128 0xd
 6868 12dd E7120000 		.4byte	0x12e7
 6869 12e1 0E       		.uleb128 0xe
 6870 12e2 E7120000 		.4byte	0x12e7
 6871 12e6 00       		.byte	0
 6872 12e7 0B       		.uleb128 0xb
 6873 12e8 04       		.byte	0x4
 6874 12e9 53120000 		.4byte	0x1253
 6875 12ed 0B       		.uleb128 0xb
 6876 12ee 04       		.byte	0x4
 6877 12ef DC000000 		.4byte	0xdc
 6878 12f3 04       		.uleb128 0x4
 6879 12f4 CE050000 		.4byte	.LASF269
 6880 12f8 14       		.byte	0x14
 6881 12f9 64       		.byte	0x64
 6882 12fa 53120000 		.4byte	0x1253
 6883 12fe 04       		.uleb128 0x4
 6884 12ff 2B210000 		.4byte	.LASF270
 6885 1303 14       		.byte	0x14
 6886 1304 71       		.byte	0x71
 6887 1305 53120000 		.4byte	0x1253
 6888 1309 20       		.uleb128 0x20
 6889 130a 3A000000 		.4byte	0x3a
 6890 130e 22130000 		.4byte	0x1322
 6891 1312 0E       		.uleb128 0xe
 6892 1313 D7030000 		.4byte	0x3d7
 6893 1317 0E       		.uleb128 0xe
 6894 1318 22130000 		.4byte	0x1322
 6895 131c 0E       		.uleb128 0xe
 6896 131d 3A000000 		.4byte	0x3a
ARM GAS  C:\Users\mathi\AppData\Local\Temp\ccuMtzkg.s 			page 122


 6897 1321 00       		.byte	0
 6898 1322 0B       		.uleb128 0xb
 6899 1323 04       		.byte	0x4
 6900 1324 E7000000 		.4byte	0xe7
 6901 1328 0B       		.uleb128 0xb
 6902 1329 04       		.byte	0x4
 6903 132a 09130000 		.4byte	0x1309
 6904 132e 20       		.uleb128 0x20
 6905 132f 3A000000 		.4byte	0x3a
 6906 1333 47130000 		.4byte	0x1347
 6907 1337 0E       		.uleb128 0xe
 6908 1338 D7030000 		.4byte	0x3d7
 6909 133c 0E       		.uleb128 0xe
 6910 133d ED120000 		.4byte	0x12ed
 6911 1341 0E       		.uleb128 0xe
 6912 1342 3A000000 		.4byte	0x3a
 6913 1346 00       		.byte	0
 6914 1347 0B       		.uleb128 0xb
 6915 1348 04       		.byte	0x4
 6916 1349 2E130000 		.4byte	0x132e
 6917 134d 20       		.uleb128 0x20
 6918 134e 7F010000 		.4byte	0x17f
 6919 1352 61130000 		.4byte	0x1361
 6920 1356 0E       		.uleb128 0xe
 6921 1357 D7030000 		.4byte	0x3d7
 6922 135b 0E       		.uleb128 0xe
 6923 135c DC000000 		.4byte	0xdc
 6924 1360 00       		.byte	0
 6925 1361 0B       		.uleb128 0xb
 6926 1362 04       		.byte	0x4
 6927 1363 4D130000 		.4byte	0x134d
 6928 1367 20       		.uleb128 0x20
 6929 1368 7F010000 		.4byte	0x17f
 6930 136c 76130000 		.4byte	0x1376
 6931 1370 0E       		.uleb128 0xe
 6932 1371 D7030000 		.4byte	0x3d7
 6933 1375 00       		.byte	0
 6934 1376 0B       		.uleb128 0xb
 6935 1377 04       		.byte	0x4
 6936 1378 67130000 		.4byte	0x1367
 6937 137c 17       		.uleb128 0x17
 6938 137d 0C       		.byte	0xc
 6939 137e 15       		.byte	0x15
 6940 137f DA       		.byte	0xda
 6941 1380 C1130000 		.4byte	0x13c1
 6942 1384 08       		.uleb128 0x8
 6943 1385 D5200000 		.4byte	.LASF271
 6944 1389 15       		.byte	0x15
 6945 138a DB       		.byte	0xdb
 6946 138b C1130000 		.4byte	0x13c1
 6947 138f 00       		.byte	0
 6948 1390 08       		.uleb128 0x8
 6949 1391 690E0000 		.4byte	.LASF272
 6950 1395 15       		.byte	0x15
 6951 1396 DC       		.byte	0xdc
 6952 1397 C7130000 		.4byte	0x13c7
 6953 139b 04       		.byte	0x4
ARM GAS  C:\Users\mathi\AppData\Local\Temp\ccuMtzkg.s 			page 123


 6954 139c 08       		.uleb128 0x8
 6955 139d C3040000 		.4byte	.LASF273
 6956 13a1 15       		.byte	0x15
 6957 13a2 DD       		.byte	0xdd
 6958 13a3 DC000000 		.4byte	0xdc
 6959 13a7 08       		.byte	0x8
 6960 13a8 08       		.uleb128 0x8
 6961 13a9 B81A0000 		.4byte	.LASF274
 6962 13ad 15       		.byte	0x15
 6963 13ae DF       		.byte	0xdf
 6964 13af DC000000 		.4byte	0xdc
 6965 13b3 09       		.byte	0x9
 6966 13b4 08       		.uleb128 0x8
 6967 13b5 34040000 		.4byte	.LASF275
 6968 13b9 15       		.byte	0x15
 6969 13ba E0       		.byte	0xe0
 6970 13bb DC000000 		.4byte	0xdc
 6971 13bf 0A       		.byte	0xa
 6972 13c0 00       		.byte	0
 6973 13c1 0B       		.uleb128 0xb
 6974 13c2 04       		.byte	0x4
 6975 13c3 EA090000 		.4byte	0x9ea
 6976 13c7 0B       		.uleb128 0xb
 6977 13c8 04       		.byte	0x4
 6978 13c9 1D010000 		.4byte	0x11d
 6979 13cd 04       		.uleb128 0x4
 6980 13ce ED100000 		.4byte	.LASF276
 6981 13d2 15       		.byte	0x15
 6982 13d3 E1       		.byte	0xe1
 6983 13d4 7C130000 		.4byte	0x137c
 6984 13d8 05       		.uleb128 0x5
 6985 13d9 CD130000 		.4byte	0x13cd
 6986 13dd 13       		.uleb128 0x13
 6987 13de D8130000 		.4byte	0x13d8
 6988 13e2 ED130000 		.4byte	0x13ed
 6989 13e6 14       		.uleb128 0x14
 6990 13e7 2C000000 		.4byte	0x2c
 6991 13eb 0F       		.byte	0xf
 6992 13ec 00       		.byte	0
 6993 13ed 05       		.uleb128 0x5
 6994 13ee DD130000 		.4byte	0x13dd
 6995 13f2 15       		.uleb128 0x15
 6996 13f3 D3170000 		.4byte	.LASF277
 6997 13f7 15       		.byte	0x15
 6998 13f8 BB01     		.2byte	0x1bb
 6999 13fa ED130000 		.4byte	0x13ed
 7000 13fe 20       		.uleb128 0x20
 7001 13ff 7F010000 		.4byte	0x17f
 7002 1403 17140000 		.4byte	0x1417
 7003 1407 0E       		.uleb128 0xe
 7004 1408 D7030000 		.4byte	0x3d7
 7005 140c 0E       		.uleb128 0xe
 7006 140d DC000000 		.4byte	0xdc
 7007 1411 0E       		.uleb128 0xe
 7008 1412 B6010000 		.4byte	0x1b6
 7009 1416 00       		.byte	0
 7010 1417 0B       		.uleb128 0xb
ARM GAS  C:\Users\mathi\AppData\Local\Temp\ccuMtzkg.s 			page 124


 7011 1418 04       		.byte	0x4
 7012 1419 FE130000 		.4byte	0x13fe
 7013 141d 20       		.uleb128 0x20
 7014 141e 7F010000 		.4byte	0x17f
 7015 1422 31140000 		.4byte	0x1431
 7016 1426 0E       		.uleb128 0xe
 7017 1427 D7030000 		.4byte	0x3d7
 7018 142b 0E       		.uleb128 0xe
 7019 142c B6010000 		.4byte	0x1b6
 7020 1430 00       		.byte	0
 7021 1431 0B       		.uleb128 0xb
 7022 1432 04       		.byte	0x4
 7023 1433 1D140000 		.4byte	0x141d
 7024 1437 20       		.uleb128 0x20
 7025 1438 3A000000 		.4byte	0x3a
 7026 143c 55140000 		.4byte	0x1455
 7027 1440 0E       		.uleb128 0xe
 7028 1441 D7030000 		.4byte	0x3d7
 7029 1445 0E       		.uleb128 0xe
 7030 1446 22130000 		.4byte	0x1322
 7031 144a 0E       		.uleb128 0xe
 7032 144b 3A000000 		.4byte	0x3a
 7033 144f 0E       		.uleb128 0xe
 7034 1450 B6010000 		.4byte	0x1b6
 7035 1454 00       		.byte	0
 7036 1455 0B       		.uleb128 0xb
 7037 1456 04       		.byte	0x4
 7038 1457 37140000 		.4byte	0x1437
 7039 145b 20       		.uleb128 0x20
 7040 145c 3A000000 		.4byte	0x3a
 7041 1460 79140000 		.4byte	0x1479
 7042 1464 0E       		.uleb128 0xe
 7043 1465 D7030000 		.4byte	0x3d7
 7044 1469 0E       		.uleb128 0xe
 7045 146a ED120000 		.4byte	0x12ed
 7046 146e 0E       		.uleb128 0xe
 7047 146f 3A000000 		.4byte	0x3a
 7048 1473 0E       		.uleb128 0xe
 7049 1474 B6010000 		.4byte	0x1b6
 7050 1478 00       		.byte	0
 7051 1479 0B       		.uleb128 0xb
 7052 147a 04       		.byte	0x4
 7053 147b 5B140000 		.4byte	0x145b
 7054 147f 21       		.uleb128 0x21
 7055 1480 07       		.byte	0x7
 7056 1481 01       		.byte	0x1
 7057 1482 70000000 		.4byte	0x70
 7058 1486 16       		.byte	0x16
 7059 1487 28       		.byte	0x28
 7060 1488 C3140000 		.4byte	0x14c3
 7061 148c 22       		.uleb128 0x22
 7062 148d 00010000 		.4byte	.LASF278
 7063 1491 00       		.byte	0
 7064 1492 22       		.uleb128 0x22
 7065 1493 D10D0000 		.4byte	.LASF279
 7066 1497 01       		.byte	0x1
 7067 1498 22       		.uleb128 0x22
ARM GAS  C:\Users\mathi\AppData\Local\Temp\ccuMtzkg.s 			page 125


 7068 1499 A80A0000 		.4byte	.LASF280
 7069 149d 02       		.byte	0x2
 7070 149e 22       		.uleb128 0x22
 7071 149f 0D190000 		.4byte	.LASF281
 7072 14a3 03       		.byte	0x3
 7073 14a4 22       		.uleb128 0x22
 7074 14a5 A91F0000 		.4byte	.LASF282
 7075 14a9 04       		.byte	0x4
 7076 14aa 22       		.uleb128 0x22
 7077 14ab A9070000 		.4byte	.LASF283
 7078 14af 05       		.byte	0x5
 7079 14b0 22       		.uleb128 0x22
 7080 14b1 981A0000 		.4byte	.LASF284
 7081 14b5 06       		.byte	0x6
 7082 14b6 22       		.uleb128 0x22
 7083 14b7 19160000 		.4byte	.LASF285
 7084 14bb 07       		.byte	0x7
 7085 14bc 22       		.uleb128 0x22
 7086 14bd 701F0000 		.4byte	.LASF286
 7087 14c1 08       		.byte	0x8
 7088 14c2 00       		.byte	0
 7089 14c3 04       		.uleb128 0x4
 7090 14c4 E5140000 		.4byte	.LASF287
 7091 14c8 16       		.byte	0x16
 7092 14c9 32       		.byte	0x32
 7093 14ca 7F140000 		.4byte	0x147f
 7094 14ce 17       		.uleb128 0x17
 7095 14cf 08       		.byte	0x8
 7096 14d0 16       		.byte	0x16
 7097 14d1 37       		.byte	0x37
 7098 14d2 EF140000 		.4byte	0x14ef
 7099 14d6 08       		.uleb128 0x8
 7100 14d7 4C070000 		.4byte	.LASF288
 7101 14db 16       		.byte	0x16
 7102 14dc 38       		.byte	0x38
 7103 14dd 12010000 		.4byte	0x112
 7104 14e1 00       		.byte	0
 7105 14e2 08       		.uleb128 0x8
 7106 14e3 D9190000 		.4byte	.LASF289
 7107 14e7 16       		.byte	0x16
 7108 14e8 39       		.byte	0x39
 7109 14e9 12010000 		.4byte	0x112
 7110 14ed 04       		.byte	0x4
 7111 14ee 00       		.byte	0
 7112 14ef 04       		.uleb128 0x4
 7113 14f0 2A1C0000 		.4byte	.LASF290
 7114 14f4 16       		.byte	0x16
 7115 14f5 3A       		.byte	0x3a
 7116 14f6 CE140000 		.4byte	0x14ce
 7117 14fa 20       		.uleb128 0x20
 7118 14fb 09150000 		.4byte	0x1509
 7119 14ff 09150000 		.4byte	0x1509
 7120 1503 0E       		.uleb128 0xe
 7121 1504 D7030000 		.4byte	0x3d7
 7122 1508 00       		.byte	0
 7123 1509 02       		.uleb128 0x2
 7124 150a 01       		.byte	0x1
ARM GAS  C:\Users\mathi\AppData\Local\Temp\ccuMtzkg.s 			page 126


 7125 150b 02       		.byte	0x2
 7126 150c C4000000 		.4byte	.LASF291
 7127 1510 0B       		.uleb128 0xb
 7128 1511 04       		.byte	0x4
 7129 1512 FA140000 		.4byte	0x14fa
 7130 1516 20       		.uleb128 0x20
 7131 1517 09150000 		.4byte	0x1509
 7132 151b 34150000 		.4byte	0x1534
 7133 151f 0E       		.uleb128 0xe
 7134 1520 D7030000 		.4byte	0x3d7
 7135 1524 0E       		.uleb128 0xe
 7136 1525 12010000 		.4byte	0x112
 7137 1529 0E       		.uleb128 0xe
 7138 152a ED120000 		.4byte	0x12ed
 7139 152e 0E       		.uleb128 0xe
 7140 152f 12010000 		.4byte	0x112
 7141 1533 00       		.byte	0
 7142 1534 0B       		.uleb128 0xb
 7143 1535 04       		.byte	0x4
 7144 1536 16150000 		.4byte	0x1516
 7145 153a 20       		.uleb128 0x20
 7146 153b 09150000 		.4byte	0x1509
 7147 153f 58150000 		.4byte	0x1558
 7148 1543 0E       		.uleb128 0xe
 7149 1544 D7030000 		.4byte	0x3d7
 7150 1548 0E       		.uleb128 0xe
 7151 1549 12010000 		.4byte	0x112
 7152 154d 0E       		.uleb128 0xe
 7153 154e 22130000 		.4byte	0x1322
 7154 1552 0E       		.uleb128 0xe
 7155 1553 12010000 		.4byte	0x112
 7156 1557 00       		.byte	0
 7157 1558 0B       		.uleb128 0xb
 7158 1559 04       		.byte	0x4
 7159 155a 3A150000 		.4byte	0x153a
 7160 155e 20       		.uleb128 0x20
 7161 155f 09150000 		.4byte	0x1509
 7162 1563 72150000 		.4byte	0x1572
 7163 1567 0E       		.uleb128 0xe
 7164 1568 D7030000 		.4byte	0x3d7
 7165 156c 0E       		.uleb128 0xe
 7166 156d 72150000 		.4byte	0x1572
 7167 1571 00       		.byte	0
 7168 1572 0B       		.uleb128 0xb
 7169 1573 04       		.byte	0x4
 7170 1574 EF140000 		.4byte	0x14ef
 7171 1578 0B       		.uleb128 0xb
 7172 1579 04       		.byte	0x4
 7173 157a 5E150000 		.4byte	0x155e
 7174 157e 13       		.uleb128 0x13
 7175 157f 12010000 		.4byte	0x112
 7176 1583 8E150000 		.4byte	0x158e
 7177 1587 14       		.uleb128 0x14
 7178 1588 2C000000 		.4byte	0x2c
 7179 158c 03       		.byte	0x3
 7180 158d 00       		.byte	0
 7181 158e 17       		.uleb128 0x17
ARM GAS  C:\Users\mathi\AppData\Local\Temp\ccuMtzkg.s 			page 127


 7182 158f 04       		.byte	0x4
 7183 1590 17       		.byte	0x17
 7184 1591 B3       		.byte	0xb3
 7185 1592 AF150000 		.4byte	0x15af
 7186 1596 18       		.uleb128 0x18
 7187 1597 73657400 		.ascii	"set\000"
 7188 159b 17       		.byte	0x17
 7189 159c B4       		.byte	0xb4
 7190 159d F7000000 		.4byte	0xf7
 7191 15a1 00       		.byte	0
 7192 15a2 08       		.uleb128 0x8
 7193 15a3 620C0000 		.4byte	.LASF292
 7194 15a7 17       		.byte	0x17
 7195 15a8 B5       		.byte	0xb5
 7196 15a9 F7000000 		.4byte	0xf7
 7197 15ad 02       		.byte	0x2
 7198 15ae 00       		.byte	0
 7199 15af 1D       		.uleb128 0x1d
 7200 15b0 04       		.byte	0x4
 7201 15b1 17       		.byte	0x17
 7202 15b2 B1       		.byte	0xb1
 7203 15b3 CA150000 		.4byte	0x15ca
 7204 15b7 23       		.uleb128 0x23
 7205 15b8 5700     		.ascii	"W\000"
 7206 15ba 17       		.byte	0x17
 7207 15bb B2       		.byte	0xb2
 7208 15bc 12010000 		.4byte	0x112
 7209 15c0 23       		.uleb128 0x23
 7210 15c1 4800     		.ascii	"H\000"
 7211 15c3 17       		.byte	0x17
 7212 15c4 B6       		.byte	0xb6
 7213 15c5 8E150000 		.4byte	0x158e
 7214 15c9 00       		.byte	0
 7215 15ca 06       		.uleb128 0x6
 7216 15cb AF150000 		.4byte	0x15af
 7217 15cf 17       		.uleb128 0x17
 7218 15d0 2C       		.byte	0x2c
 7219 15d1 17       		.byte	0x17
 7220 15d2 A9       		.byte	0xa9
 7221 15d3 5C160000 		.4byte	0x165c
 7222 15d7 08       		.uleb128 0x8
 7223 15d8 D51A0000 		.4byte	.LASF293
 7224 15dc 17       		.byte	0x17
 7225 15dd AB       		.byte	0xab
 7226 15de 1D010000 		.4byte	0x11d
 7227 15e2 00       		.byte	0
 7228 15e3 08       		.uleb128 0x8
 7229 15e4 B4030000 		.4byte	.LASF294
 7230 15e8 17       		.byte	0x17
 7231 15e9 AC       		.byte	0xac
 7232 15ea 1D010000 		.4byte	0x11d
 7233 15ee 04       		.byte	0x4
 7234 15ef 08       		.uleb128 0x8
 7235 15f0 A40D0000 		.4byte	.LASF295
 7236 15f4 17       		.byte	0x17
 7237 15f5 AD       		.byte	0xad
 7238 15f6 1D010000 		.4byte	0x11d
ARM GAS  C:\Users\mathi\AppData\Local\Temp\ccuMtzkg.s 			page 128


 7239 15fa 08       		.byte	0x8
 7240 15fb 08       		.uleb128 0x8
 7241 15fc 2C1A0000 		.4byte	.LASF296
 7242 1600 17       		.byte	0x17
 7243 1601 AE       		.byte	0xae
 7244 1602 1D010000 		.4byte	0x11d
 7245 1606 0C       		.byte	0xc
 7246 1607 18       		.uleb128 0x18
 7247 1608 49445200 		.ascii	"IDR\000"
 7248 160c 17       		.byte	0x17
 7249 160d AF       		.byte	0xaf
 7250 160e 1D010000 		.4byte	0x11d
 7251 1612 10       		.byte	0x10
 7252 1613 18       		.uleb128 0x18
 7253 1614 4F445200 		.ascii	"ODR\000"
 7254 1618 17       		.byte	0x17
 7255 1619 B0       		.byte	0xb0
 7256 161a 1D010000 		.4byte	0x11d
 7257 161e 14       		.byte	0x14
 7258 161f 08       		.uleb128 0x8
 7259 1620 B3100000 		.4byte	.LASF297
 7260 1624 17       		.byte	0x17
 7261 1625 B7       		.byte	0xb7
 7262 1626 CA150000 		.4byte	0x15ca
 7263 162a 18       		.byte	0x18
 7264 162b 08       		.uleb128 0x8
 7265 162c F6150000 		.4byte	.LASF298
 7266 1630 17       		.byte	0x17
 7267 1631 B8       		.byte	0xb8
 7268 1632 1D010000 		.4byte	0x11d
 7269 1636 1C       		.byte	0x1c
 7270 1637 08       		.uleb128 0x8
 7271 1638 A4180000 		.4byte	.LASF299
 7272 163c 17       		.byte	0x17
 7273 163d B9       		.byte	0xb9
 7274 163e 1D010000 		.4byte	0x11d
 7275 1642 20       		.byte	0x20
 7276 1643 08       		.uleb128 0x8
 7277 1644 9F180000 		.4byte	.LASF300
 7278 1648 17       		.byte	0x17
 7279 1649 BA       		.byte	0xba
 7280 164a 1D010000 		.4byte	0x11d
 7281 164e 24       		.byte	0x24
 7282 164f 18       		.uleb128 0x18
 7283 1650 42525200 		.ascii	"BRR\000"
 7284 1654 17       		.byte	0x17
 7285 1655 BB       		.byte	0xbb
 7286 1656 1D010000 		.4byte	0x11d
 7287 165a 28       		.byte	0x28
 7288 165b 00       		.byte	0
 7289 165c 04       		.uleb128 0x4
 7290 165d 810E0000 		.4byte	.LASF301
 7291 1661 17       		.byte	0x17
 7292 1662 BC       		.byte	0xbc
 7293 1663 CF150000 		.4byte	0x15cf
 7294 1667 17       		.uleb128 0x17
 7295 1668 1C       		.byte	0x1c
ARM GAS  C:\Users\mathi\AppData\Local\Temp\ccuMtzkg.s 			page 129


 7296 1669 17       		.byte	0x17
 7297 166a C1       		.byte	0xc1
 7298 166b C4160000 		.4byte	0x16c4
 7299 166f 08       		.uleb128 0x8
 7300 1670 191E0000 		.4byte	.LASF302
 7301 1674 17       		.byte	0x17
 7302 1675 C3       		.byte	0xc3
 7303 1676 12010000 		.4byte	0x112
 7304 167a 00       		.byte	0
 7305 167b 08       		.uleb128 0x8
 7306 167c AD030000 		.4byte	.LASF303
 7307 1680 17       		.byte	0x17
 7308 1681 C5       		.byte	0xc5
 7309 1682 12010000 		.4byte	0x112
 7310 1686 04       		.byte	0x4
 7311 1687 08       		.uleb128 0x8
 7312 1688 DE020000 		.4byte	.LASF304
 7313 168c 17       		.byte	0x17
 7314 168d C7       		.byte	0xc7
 7315 168e 12010000 		.4byte	0x112
 7316 1692 08       		.byte	0x8
 7317 1693 08       		.uleb128 0x8
 7318 1694 5E1D0000 		.4byte	.LASF305
 7319 1698 17       		.byte	0x17
 7320 1699 C9       		.byte	0xc9
 7321 169a 12010000 		.4byte	0x112
 7322 169e 0C       		.byte	0xc
 7323 169f 18       		.uleb128 0x18
 7324 16a0 6F647200 		.ascii	"odr\000"
 7325 16a4 17       		.byte	0x17
 7326 16a5 CB       		.byte	0xcb
 7327 16a6 12010000 		.4byte	0x112
 7328 16aa 10       		.byte	0x10
 7329 16ab 08       		.uleb128 0x8
 7330 16ac A41A0000 		.4byte	.LASF306
 7331 16b0 17       		.byte	0x17
 7332 16b1 CD       		.byte	0xcd
 7333 16b2 12010000 		.4byte	0x112
 7334 16b6 14       		.byte	0x14
 7335 16b7 08       		.uleb128 0x8
 7336 16b8 4B000000 		.4byte	.LASF307
 7337 16bc 17       		.byte	0x17
 7338 16bd CF       		.byte	0xcf
 7339 16be 12010000 		.4byte	0x112
 7340 16c2 18       		.byte	0x18
 7341 16c3 00       		.byte	0
 7342 16c4 04       		.uleb128 0x4
 7343 16c5 C0170000 		.4byte	.LASF308
 7344 16c9 17       		.byte	0x17
 7345 16ca D0       		.byte	0xd0
 7346 16cb 67160000 		.4byte	0x1667
 7347 16cf 17       		.uleb128 0x17
 7348 16d0 FC       		.byte	0xfc
 7349 16d1 17       		.byte	0x17
 7350 16d2 D9       		.byte	0xd9
 7351 16d3 44170000 		.4byte	0x1744
 7352 16d7 08       		.uleb128 0x8
ARM GAS  C:\Users\mathi\AppData\Local\Temp\ccuMtzkg.s 			page 130


 7353 16d8 2D0F0000 		.4byte	.LASF309
 7354 16dc 17       		.byte	0x17
 7355 16dd DC       		.byte	0xdc
 7356 16de C4160000 		.4byte	0x16c4
 7357 16e2 00       		.byte	0
 7358 16e3 08       		.uleb128 0x8
 7359 16e4 96030000 		.4byte	.LASF310
 7360 16e8 17       		.byte	0x17
 7361 16e9 E0       		.byte	0xe0
 7362 16ea C4160000 		.4byte	0x16c4
 7363 16ee 1C       		.byte	0x1c
 7364 16ef 08       		.uleb128 0x8
 7365 16f0 48010000 		.4byte	.LASF311
 7366 16f4 17       		.byte	0x17
 7367 16f5 E4       		.byte	0xe4
 7368 16f6 C4160000 		.4byte	0x16c4
 7369 16fa 38       		.byte	0x38
 7370 16fb 08       		.uleb128 0x8
 7371 16fc 300D0000 		.4byte	.LASF312
 7372 1700 17       		.byte	0x17
 7373 1701 E8       		.byte	0xe8
 7374 1702 C4160000 		.4byte	0x16c4
 7375 1706 54       		.byte	0x54
 7376 1707 08       		.uleb128 0x8
 7377 1708 0D170000 		.4byte	.LASF313
 7378 170c 17       		.byte	0x17
 7379 170d EC       		.byte	0xec
 7380 170e C4160000 		.4byte	0x16c4
 7381 1712 70       		.byte	0x70
 7382 1713 08       		.uleb128 0x8
 7383 1714 78210000 		.4byte	.LASF314
 7384 1718 17       		.byte	0x17
 7385 1719 F0       		.byte	0xf0
 7386 171a C4160000 		.4byte	0x16c4
 7387 171e 8C       		.byte	0x8c
 7388 171f 08       		.uleb128 0x8
 7389 1720 390B0000 		.4byte	.LASF315
 7390 1724 17       		.byte	0x17
 7391 1725 F4       		.byte	0xf4
 7392 1726 C4160000 		.4byte	0x16c4
 7393 172a A8       		.byte	0xa8
 7394 172b 08       		.uleb128 0x8
 7395 172c 62150000 		.4byte	.LASF316
 7396 1730 17       		.byte	0x17
 7397 1731 F8       		.byte	0xf8
 7398 1732 C4160000 		.4byte	0x16c4
 7399 1736 C4       		.byte	0xc4
 7400 1737 08       		.uleb128 0x8
 7401 1738 7C1F0000 		.4byte	.LASF317
 7402 173c 17       		.byte	0x17
 7403 173d FC       		.byte	0xfc
 7404 173e C4160000 		.4byte	0x16c4
 7405 1742 E0       		.byte	0xe0
 7406 1743 00       		.byte	0
 7407 1744 04       		.uleb128 0x4
 7408 1745 800A0000 		.4byte	.LASF318
 7409 1749 17       		.byte	0x17
ARM GAS  C:\Users\mathi\AppData\Local\Temp\ccuMtzkg.s 			page 131


 7410 174a FE       		.byte	0xfe
 7411 174b CF160000 		.4byte	0x16cf
 7412 174f 05       		.uleb128 0x5
 7413 1750 44170000 		.4byte	0x1744
 7414 1754 1A       		.uleb128 0x1a
 7415 1755 69150000 		.4byte	.LASF319
 7416 1759 17       		.byte	0x17
 7417 175a 1B01     		.2byte	0x11b
 7418 175c 60170000 		.4byte	0x1760
 7419 1760 0B       		.uleb128 0xb
 7420 1761 04       		.byte	0x4
 7421 1762 5C160000 		.4byte	0x165c
 7422 1766 15       		.uleb128 0x15
 7423 1767 9C1B0000 		.4byte	.LASF320
 7424 176b 17       		.byte	0x17
 7425 176c DA01     		.2byte	0x1da
 7426 176e 4F170000 		.4byte	0x174f
 7427 1772 21       		.uleb128 0x21
 7428 1773 07       		.byte	0x7
 7429 1774 01       		.byte	0x1
 7430 1775 70000000 		.4byte	0x70
 7431 1779 18       		.byte	0x18
 7432 177a 46       		.byte	0x46
 7433 177b A4170000 		.4byte	0x17a4
 7434 177f 22       		.uleb128 0x22
 7435 1780 70080000 		.4byte	.LASF321
 7436 1784 00       		.byte	0
 7437 1785 22       		.uleb128 0x22
 7438 1786 27130000 		.4byte	.LASF322
 7439 178a 01       		.byte	0x1
 7440 178b 22       		.uleb128 0x22
 7441 178c CE1D0000 		.4byte	.LASF323
 7442 1790 02       		.byte	0x2
 7443 1791 22       		.uleb128 0x22
 7444 1792 99100000 		.4byte	.LASF324
 7445 1796 03       		.byte	0x3
 7446 1797 22       		.uleb128 0x22
 7447 1798 A5060000 		.4byte	.LASF325
 7448 179c 04       		.byte	0x4
 7449 179d 22       		.uleb128 0x22
 7450 179e 71100000 		.4byte	.LASF326
 7451 17a2 05       		.byte	0x5
 7452 17a3 00       		.byte	0
 7453 17a4 04       		.uleb128 0x4
 7454 17a5 B8040000 		.4byte	.LASF327
 7455 17a9 18       		.byte	0x18
 7456 17aa 4D       		.byte	0x4d
 7457 17ab 72170000 		.4byte	0x1772
 7458 17af 1A       		.uleb128 0x1a
 7459 17b0 A30F0000 		.4byte	.LASF328
 7460 17b4 19       		.byte	0x19
 7461 17b5 2701     		.2byte	0x127
 7462 17b7 F7000000 		.4byte	0xf7
 7463 17bb 1A       		.uleb128 0x1a
 7464 17bc 27190000 		.4byte	.LASF329
 7465 17c0 19       		.byte	0x19
 7466 17c1 2C01     		.2byte	0x12c
ARM GAS  C:\Users\mathi\AppData\Local\Temp\ccuMtzkg.s 			page 132


 7467 17c3 F7000000 		.4byte	0xf7
 7468 17c7 24       		.uleb128 0x24
 7469 17c8 07       		.byte	0x7
 7470 17c9 01       		.byte	0x1
 7471 17ca 70000000 		.4byte	0x70
 7472 17ce 19       		.byte	0x19
 7473 17cf 3301     		.2byte	0x133
 7474 17d1 E2170000 		.4byte	0x17e2
 7475 17d5 22       		.uleb128 0x22
 7476 17d6 750D0000 		.4byte	.LASF330
 7477 17da 00       		.byte	0
 7478 17db 22       		.uleb128 0x22
 7479 17dc F6020000 		.4byte	.LASF331
 7480 17e0 01       		.byte	0x1
 7481 17e1 00       		.byte	0
 7482 17e2 1A       		.uleb128 0x1a
 7483 17e3 B61E0000 		.4byte	.LASF332
 7484 17e7 19       		.byte	0x19
 7485 17e8 3601     		.2byte	0x136
 7486 17ea C7170000 		.4byte	0x17c7
 7487 17ee 1A       		.uleb128 0x1a
 7488 17ef 050E0000 		.4byte	.LASF333
 7489 17f3 19       		.byte	0x19
 7490 17f4 3B01     		.2byte	0x13b
 7491 17f6 FA170000 		.4byte	0x17fa
 7492 17fa 0C       		.uleb128 0xc
 7493 17fb 050E0000 		.4byte	.LASF333
 7494 17ff 38       		.byte	0x38
 7495 1800 19       		.byte	0x19
 7496 1801 9F01     		.2byte	0x19f
 7497 1803 8A180000 		.4byte	0x188a
 7498 1807 0A       		.uleb128 0xa
 7499 1808 DA130000 		.4byte	.LASF334
 7500 180c 19       		.byte	0x19
 7501 180d A301     		.2byte	0x1a3
 7502 180f A4170000 		.4byte	0x17a4
 7503 1813 00       		.byte	0
 7504 1814 0A       		.uleb128 0xa
 7505 1815 EE180000 		.4byte	.LASF335
 7506 1819 19       		.byte	0x19
 7507 181a A701     		.2byte	0x1a7
 7508 181c B1190000 		.4byte	0x19b1
 7509 1820 04       		.byte	0x4
 7510 1821 0A       		.uleb128 0xa
 7511 1822 98020000 		.4byte	.LASF336
 7512 1826 19       		.byte	0x19
 7513 1827 AB01     		.2byte	0x1ab
 7514 1829 B7180000 		.4byte	0x18b7
 7515 182d 08       		.byte	0x8
 7516 182e 0A       		.uleb128 0xa
 7517 182f 56160000 		.4byte	.LASF337
 7518 1833 19       		.byte	0x19
 7519 1834 AF01     		.2byte	0x1af
 7520 1836 3A000000 		.4byte	0x3a
 7521 183a 0C       		.byte	0xc
 7522 183b 0A       		.uleb128 0xa
 7523 183c AF1B0000 		.4byte	.LASF338
ARM GAS  C:\Users\mathi\AppData\Local\Temp\ccuMtzkg.s 			page 133


 7524 1840 19       		.byte	0x19
 7525 1841 B301     		.2byte	0x1b3
 7526 1843 B7190000 		.4byte	0x19b7
 7527 1847 10       		.byte	0x10
 7528 1848 0A       		.uleb128 0xa
 7529 1849 23070000 		.4byte	.LASF339
 7530 184d 19       		.byte	0x19
 7531 184e B801     		.2byte	0x1b8
 7532 1850 EF020000 		.4byte	0x2ef
 7533 1854 14       		.byte	0x14
 7534 1855 0A       		.uleb128 0xa
 7535 1856 1D0C0000 		.4byte	.LASF340
 7536 185a 19       		.byte	0x19
 7537 185b BE01     		.2byte	0x1be
 7538 185d C4110000 		.4byte	0x11c4
 7539 1861 18       		.byte	0x18
 7540 1862 09       		.uleb128 0x9
 7541 1863 61646300 		.ascii	"adc\000"
 7542 1867 19       		.byte	0x19
 7543 1868 C701     		.2byte	0x1c7
 7544 186a BD190000 		.4byte	0x19bd
 7545 186e 2C       		.byte	0x2c
 7546 186f 0A       		.uleb128 0xa
 7547 1870 3F0A0000 		.4byte	.LASF341
 7548 1874 19       		.byte	0x19
 7549 1875 CB01     		.2byte	0x1cb
 7550 1877 C3190000 		.4byte	0x19c3
 7551 187b 30       		.byte	0x30
 7552 187c 0A       		.uleb128 0xa
 7553 187d 94150000 		.4byte	.LASF342
 7554 1881 19       		.byte	0x19
 7555 1882 CF01     		.2byte	0x1cf
 7556 1884 12010000 		.4byte	0x112
 7557 1888 34       		.byte	0x34
 7558 1889 00       		.byte	0
 7559 188a 1A       		.uleb128 0x1a
 7560 188b 17180000 		.4byte	.LASF343
 7561 188f 19       		.byte	0x19
 7562 1890 4501     		.2byte	0x145
 7563 1892 96180000 		.4byte	0x1896
 7564 1896 0B       		.uleb128 0xb
 7565 1897 04       		.byte	0x4
 7566 1898 9C180000 		.4byte	0x189c
 7567 189c 0D       		.uleb128 0xd
 7568 189d B1180000 		.4byte	0x18b1
 7569 18a1 0E       		.uleb128 0xe
 7570 18a2 B1180000 		.4byte	0x18b1
 7571 18a6 0E       		.uleb128 0xe
 7572 18a7 B7180000 		.4byte	0x18b7
 7573 18ab 0E       		.uleb128 0xe
 7574 18ac 3A000000 		.4byte	0x3a
 7575 18b0 00       		.byte	0
 7576 18b1 0B       		.uleb128 0xb
 7577 18b2 04       		.byte	0x4
 7578 18b3 EE170000 		.4byte	0x17ee
 7579 18b7 0B       		.uleb128 0xb
 7580 18b8 04       		.byte	0x4
ARM GAS  C:\Users\mathi\AppData\Local\Temp\ccuMtzkg.s 			page 134


 7581 18b9 AF170000 		.4byte	0x17af
 7582 18bd 1A       		.uleb128 0x1a
 7583 18be BC130000 		.4byte	.LASF344
 7584 18c2 19       		.byte	0x19
 7585 18c3 4E01     		.2byte	0x14e
 7586 18c5 C9180000 		.4byte	0x18c9
 7587 18c9 0B       		.uleb128 0xb
 7588 18ca 04       		.byte	0x4
 7589 18cb CF180000 		.4byte	0x18cf
 7590 18cf 0D       		.uleb128 0xd
 7591 18d0 DF180000 		.4byte	0x18df
 7592 18d4 0E       		.uleb128 0xe
 7593 18d5 B1180000 		.4byte	0x18b1
 7594 18d9 0E       		.uleb128 0xe
 7595 18da E2170000 		.4byte	0x17e2
 7596 18de 00       		.byte	0
 7597 18df 19       		.uleb128 0x19
 7598 18e0 28       		.byte	0x28
 7599 18e1 19       		.byte	0x19
 7600 18e2 5801     		.2byte	0x158
 7601 18e4 78190000 		.4byte	0x1978
 7602 18e8 0A       		.uleb128 0xa
 7603 18e9 051E0000 		.4byte	.LASF345
 7604 18ed 19       		.byte	0x19
 7605 18ee 5C01     		.2byte	0x15c
 7606 18f0 09150000 		.4byte	0x1509
 7607 18f4 00       		.byte	0
 7608 18f5 0A       		.uleb128 0xa
 7609 18f6 CB0E0000 		.4byte	.LASF346
 7610 18fa 19       		.byte	0x19
 7611 18fb 6001     		.2byte	0x160
 7612 18fd BB170000 		.4byte	0x17bb
 7613 1901 02       		.byte	0x2
 7614 1902 0A       		.uleb128 0xa
 7615 1903 24090000 		.4byte	.LASF347
 7616 1907 19       		.byte	0x19
 7617 1908 6401     		.2byte	0x164
 7618 190a 8A180000 		.4byte	0x188a
 7619 190e 04       		.byte	0x4
 7620 190f 0A       		.uleb128 0xa
 7621 1910 931F0000 		.4byte	.LASF348
 7622 1914 19       		.byte	0x19
 7623 1915 6801     		.2byte	0x168
 7624 1917 BD180000 		.4byte	0x18bd
 7625 191b 08       		.byte	0x8
 7626 191c 09       		.uleb128 0x9
 7627 191d 63723100 		.ascii	"cr1\000"
 7628 1921 19       		.byte	0x19
 7629 1922 6F01     		.2byte	0x16f
 7630 1924 12010000 		.4byte	0x112
 7631 1928 0C       		.byte	0xc
 7632 1929 09       		.uleb128 0x9
 7633 192a 63723200 		.ascii	"cr2\000"
 7634 192e 19       		.byte	0x19
 7635 192f 7601     		.2byte	0x176
 7636 1931 12010000 		.4byte	0x112
 7637 1935 10       		.byte	0x10
ARM GAS  C:\Users\mathi\AppData\Local\Temp\ccuMtzkg.s 			page 135


 7638 1936 0A       		.uleb128 0xa
 7639 1937 C9140000 		.4byte	.LASF349
 7640 193b 19       		.byte	0x19
 7641 193c 7C01     		.2byte	0x17c
 7642 193e 12010000 		.4byte	0x112
 7643 1942 14       		.byte	0x14
 7644 1943 0A       		.uleb128 0xa
 7645 1944 CF140000 		.4byte	.LASF350
 7646 1948 19       		.byte	0x19
 7647 1949 8201     		.2byte	0x182
 7648 194b 12010000 		.4byte	0x112
 7649 194f 18       		.byte	0x18
 7650 1950 0A       		.uleb128 0xa
 7651 1951 FB000000 		.4byte	.LASF351
 7652 1955 19       		.byte	0x19
 7653 1956 8701     		.2byte	0x187
 7654 1958 12010000 		.4byte	0x112
 7655 195c 1C       		.byte	0x1c
 7656 195d 0A       		.uleb128 0xa
 7657 195e A9200000 		.4byte	.LASF352
 7658 1962 19       		.byte	0x19
 7659 1963 8C01     		.2byte	0x18c
 7660 1965 12010000 		.4byte	0x112
 7661 1969 20       		.byte	0x20
 7662 196a 0A       		.uleb128 0xa
 7663 196b AE200000 		.4byte	.LASF353
 7664 196f 19       		.byte	0x19
 7665 1970 9101     		.2byte	0x191
 7666 1972 12010000 		.4byte	0x112
 7667 1976 24       		.byte	0x24
 7668 1977 00       		.byte	0
 7669 1978 1A       		.uleb128 0x1a
 7670 1979 DC050000 		.4byte	.LASF354
 7671 197d 19       		.byte	0x19
 7672 197e 9201     		.2byte	0x192
 7673 1980 DF180000 		.4byte	0x18df
 7674 1984 05       		.uleb128 0x5
 7675 1985 78190000 		.4byte	0x1978
 7676 1989 19       		.uleb128 0x19
 7677 198a 04       		.byte	0x4
 7678 198b 19       		.byte	0x19
 7679 198c 9801     		.2byte	0x198
 7680 198e A0190000 		.4byte	0x19a0
 7681 1992 0A       		.uleb128 0xa
 7682 1993 DC200000 		.4byte	.LASF355
 7683 1997 19       		.byte	0x19
 7684 1998 9901     		.2byte	0x199
 7685 199a 12010000 		.4byte	0x112
 7686 199e 00       		.byte	0
 7687 199f 00       		.byte	0
 7688 19a0 1A       		.uleb128 0x1a
 7689 19a1 1D0E0000 		.4byte	.LASF356
 7690 19a5 19       		.byte	0x19
 7691 19a6 9A01     		.2byte	0x19a
 7692 19a8 89190000 		.4byte	0x1989
 7693 19ac 05       		.uleb128 0x5
 7694 19ad A0190000 		.4byte	0x19a0
ARM GAS  C:\Users\mathi\AppData\Local\Temp\ccuMtzkg.s 			page 136


 7695 19b1 0B       		.uleb128 0xb
 7696 19b2 04       		.byte	0x4
 7697 19b3 AC190000 		.4byte	0x19ac
 7698 19b7 0B       		.uleb128 0xb
 7699 19b8 04       		.byte	0x4
 7700 19b9 84190000 		.4byte	0x1984
 7701 19bd 0B       		.uleb128 0xb
 7702 19be 04       		.byte	0x4
 7703 19bf 74060000 		.4byte	0x674
 7704 19c3 0B       		.uleb128 0xb
 7705 19c4 04       		.byte	0x4
 7706 19c5 D8130000 		.4byte	0x13d8
 7707 19c9 15       		.uleb128 0x15
 7708 19ca 7D150000 		.4byte	.LASF357
 7709 19ce 19       		.byte	0x19
 7710 19cf 1402     		.2byte	0x214
 7711 19d1 EE170000 		.4byte	0x17ee
 7712 19d5 15       		.uleb128 0x15
 7713 19d6 83150000 		.4byte	.LASF358
 7714 19da 19       		.byte	0x19
 7715 19db 1802     		.2byte	0x218
 7716 19dd EE170000 		.4byte	0x17ee
 7717 19e1 15       		.uleb128 0x15
 7718 19e2 89150000 		.4byte	.LASF359
 7719 19e6 19       		.byte	0x19
 7720 19e7 1C02     		.2byte	0x21c
 7721 19e9 EE170000 		.4byte	0x17ee
 7722 19ed 21       		.uleb128 0x21
 7723 19ee 07       		.byte	0x7
 7724 19ef 01       		.byte	0x1
 7725 19f0 70000000 		.4byte	0x70
 7726 19f4 1A       		.byte	0x1a
 7727 19f5 5F       		.byte	0x5f
 7728 19f6 191A0000 		.4byte	0x1a19
 7729 19fa 22       		.uleb128 0x22
 7730 19fb C9090000 		.4byte	.LASF360
 7731 19ff 00       		.byte	0
 7732 1a00 22       		.uleb128 0x22
 7733 1a01 7E000000 		.4byte	.LASF361
 7734 1a05 01       		.byte	0x1
 7735 1a06 22       		.uleb128 0x22
 7736 1a07 38000000 		.4byte	.LASF362
 7737 1a0b 02       		.byte	0x2
 7738 1a0c 22       		.uleb128 0x22
 7739 1a0d 03060000 		.4byte	.LASF363
 7740 1a11 03       		.byte	0x3
 7741 1a12 22       		.uleb128 0x22
 7742 1a13 B6090000 		.4byte	.LASF364
 7743 1a17 04       		.byte	0x4
 7744 1a18 00       		.byte	0
 7745 1a19 04       		.uleb128 0x4
 7746 1a1a 32060000 		.4byte	.LASF365
 7747 1a1e 1A       		.byte	0x1a
 7748 1a1f 65       		.byte	0x65
 7749 1a20 ED190000 		.4byte	0x19ed
 7750 1a24 13       		.uleb128 0x13
 7751 1a25 DC000000 		.4byte	0xdc
ARM GAS  C:\Users\mathi\AppData\Local\Temp\ccuMtzkg.s 			page 137


 7752 1a29 341A0000 		.4byte	0x1a34
 7753 1a2d 14       		.uleb128 0x14
 7754 1a2e 2C000000 		.4byte	0x2c
 7755 1a32 07       		.byte	0x7
 7756 1a33 00       		.byte	0
 7757 1a34 17       		.uleb128 0x17
 7758 1a35 08       		.byte	0x8
 7759 1a36 1B       		.byte	0x1b
 7760 1a37 F4       		.byte	0xf4
 7761 1a38 561A0000 		.4byte	0x1a56
 7762 1a3c 18       		.uleb128 0x18
 7763 1a3d 6D637200 		.ascii	"mcr\000"
 7764 1a41 1B       		.byte	0x1b
 7765 1a42 FA       		.byte	0xfa
 7766 1a43 12010000 		.4byte	0x112
 7767 1a47 00       		.byte	0
 7768 1a48 09       		.uleb128 0x9
 7769 1a49 62747200 		.ascii	"btr\000"
 7770 1a4d 1B       		.byte	0x1b
 7771 1a4e 0001     		.2byte	0x100
 7772 1a50 12010000 		.4byte	0x112
 7773 1a54 04       		.byte	0x4
 7774 1a55 00       		.byte	0
 7775 1a56 1A       		.uleb128 0x1a
 7776 1a57 03170000 		.4byte	.LASF366
 7777 1a5b 1B       		.byte	0x1b
 7778 1a5c 0101     		.2byte	0x101
 7779 1a5e 341A0000 		.4byte	0x1a34
 7780 1a62 05       		.uleb128 0x5
 7781 1a63 561A0000 		.4byte	0x1a56
 7782 1a67 19       		.uleb128 0x19
 7783 1a68 30       		.byte	0x30
 7784 1a69 1B       		.byte	0x1b
 7785 1a6a 0601     		.2byte	0x106
 7786 1a6c F31A0000 		.4byte	0x1af3
 7787 1a70 0A       		.uleb128 0xa
 7788 1a71 DA130000 		.4byte	.LASF334
 7789 1a75 1B       		.byte	0x1b
 7790 1a76 0A01     		.2byte	0x10a
 7791 1a78 191A0000 		.4byte	0x1a19
 7792 1a7c 00       		.byte	0
 7793 1a7d 0A       		.uleb128 0xa
 7794 1a7e EE180000 		.4byte	.LASF335
 7795 1a82 1B       		.byte	0x1b
 7796 1a83 0E01     		.2byte	0x10e
 7797 1a85 F31A0000 		.4byte	0x1af3
 7798 1a89 04       		.byte	0x4
 7799 1a8a 0A       		.uleb128 0xa
 7800 1a8b 5A090000 		.4byte	.LASF367
 7801 1a8f 1B       		.byte	0x1b
 7802 1a90 1201     		.2byte	0x112
 7803 1a92 24030000 		.4byte	0x324
 7804 1a96 08       		.byte	0x8
 7805 1a97 0A       		.uleb128 0xa
 7806 1a98 831B0000 		.4byte	.LASF368
 7807 1a9c 1B       		.byte	0x1b
 7808 1a9d 1601     		.2byte	0x116
ARM GAS  C:\Users\mathi\AppData\Local\Temp\ccuMtzkg.s 			page 138


 7809 1a9f 24030000 		.4byte	0x324
 7810 1aa3 10       		.byte	0x10
 7811 1aa4 0A       		.uleb128 0xa
 7812 1aa5 E6160000 		.4byte	.LASF369
 7813 1aa9 1B       		.byte	0x1b
 7814 1aaa 2301     		.2byte	0x123
 7815 1aac 48120000 		.4byte	0x1248
 7816 1ab0 18       		.byte	0x18
 7817 1ab1 0A       		.uleb128 0xa
 7818 1ab2 0B0B0000 		.4byte	.LASF370
 7819 1ab6 1B       		.byte	0x1b
 7820 1ab7 2A01     		.2byte	0x12a
 7821 1ab9 48120000 		.4byte	0x1248
 7822 1abd 1C       		.byte	0x1c
 7823 1abe 0A       		.uleb128 0xa
 7824 1abf BF0E0000 		.4byte	.LASF371
 7825 1ac3 1B       		.byte	0x1b
 7826 1ac4 3001     		.2byte	0x130
 7827 1ac6 48120000 		.4byte	0x1248
 7828 1aca 20       		.byte	0x20
 7829 1acb 0A       		.uleb128 0xa
 7830 1acc 11040000 		.4byte	.LASF372
 7831 1ad0 1B       		.byte	0x1b
 7832 1ad1 3501     		.2byte	0x135
 7833 1ad3 48120000 		.4byte	0x1248
 7834 1ad7 24       		.byte	0x24
 7835 1ad8 0A       		.uleb128 0xa
 7836 1ad9 0F090000 		.4byte	.LASF373
 7837 1add 1B       		.byte	0x1b
 7838 1ade 3901     		.2byte	0x139
 7839 1ae0 48120000 		.4byte	0x1248
 7840 1ae4 28       		.byte	0x28
 7841 1ae5 09       		.uleb128 0x9
 7842 1ae6 63616E00 		.ascii	"can\000"
 7843 1aea 1B       		.byte	0x1b
 7844 1aeb 3F01     		.2byte	0x13f
 7845 1aed F91A0000 		.4byte	0x1af9
 7846 1af1 2C       		.byte	0x2c
 7847 1af2 00       		.byte	0
 7848 1af3 0B       		.uleb128 0xb
 7849 1af4 04       		.byte	0x4
 7850 1af5 621A0000 		.4byte	0x1a62
 7851 1af9 0B       		.uleb128 0xb
 7852 1afa 04       		.byte	0x4
 7853 1afb BD080000 		.4byte	0x8bd
 7854 1aff 1A       		.uleb128 0x1a
 7855 1b00 5F040000 		.4byte	.LASF374
 7856 1b04 1B       		.byte	0x1b
 7857 1b05 4001     		.2byte	0x140
 7858 1b07 671A0000 		.4byte	0x1a67
 7859 1b0b 15       		.uleb128 0x15
 7860 1b0c 301D0000 		.4byte	.LASF375
 7861 1b10 1B       		.byte	0x1b
 7862 1b11 4B01     		.2byte	0x14b
 7863 1b13 FF1A0000 		.4byte	0x1aff
 7864 1b17 21       		.uleb128 0x21
 7865 1b18 07       		.byte	0x7
ARM GAS  C:\Users\mathi\AppData\Local\Temp\ccuMtzkg.s 			page 139


 7866 1b19 01       		.byte	0x1
 7867 1b1a 70000000 		.4byte	0x70
 7868 1b1e 1C       		.byte	0x1c
 7869 1b1f 46       		.byte	0x46
 7870 1b20 491B0000 		.4byte	0x1b49
 7871 1b24 22       		.uleb128 0x22
 7872 1b25 1C190000 		.4byte	.LASF376
 7873 1b29 00       		.byte	0
 7874 1b2a 22       		.uleb128 0x22
 7875 1b2b 321E0000 		.4byte	.LASF377
 7876 1b2f 01       		.byte	0x1
 7877 1b30 22       		.uleb128 0x22
 7878 1b31 AC0D0000 		.4byte	.LASF378
 7879 1b35 02       		.byte	0x2
 7880 1b36 22       		.uleb128 0x22
 7881 1b37 CF130000 		.4byte	.LASF379
 7882 1b3b 03       		.byte	0x3
 7883 1b3c 22       		.uleb128 0x22
 7884 1b3d D0180000 		.4byte	.LASF380
 7885 1b41 04       		.byte	0x4
 7886 1b42 22       		.uleb128 0x22
 7887 1b43 4B0E0000 		.4byte	.LASF381
 7888 1b47 05       		.byte	0x5
 7889 1b48 00       		.byte	0
 7890 1b49 04       		.uleb128 0x4
 7891 1b4a 96160000 		.4byte	.LASF382
 7892 1b4e 1C       		.byte	0x1c
 7893 1b4f 4D       		.byte	0x4d
 7894 1b50 171B0000 		.4byte	0x1b17
 7895 1b54 17       		.uleb128 0x17
 7896 1b55 1C       		.byte	0x1c
 7897 1b56 1D       		.byte	0x1d
 7898 1b57 F9       		.byte	0xf9
 7899 1b58 B71B0000 		.4byte	0x1bb7
 7900 1b5c 18       		.uleb128 0x18
 7901 1b5d 64616300 		.ascii	"dac\000"
 7902 1b61 1D       		.byte	0x1d
 7903 1b62 FD       		.byte	0xfd
 7904 1b63 B71B0000 		.4byte	0x1bb7
 7905 1b67 00       		.byte	0
 7906 1b68 0A       		.uleb128 0xa
 7907 1b69 0E160000 		.4byte	.LASF383
 7908 1b6d 1D       		.byte	0x1d
 7909 1b6e 0101     		.2byte	0x101
 7910 1b70 12010000 		.4byte	0x112
 7911 1b74 04       		.byte	0x4
 7912 1b75 0A       		.uleb128 0xa
 7913 1b76 2A070000 		.4byte	.LASF384
 7914 1b7a 1D       		.byte	0x1d
 7915 1b7b 0501     		.2byte	0x105
 7916 1b7d 12010000 		.4byte	0x112
 7917 1b81 08       		.byte	0x8
 7918 1b82 0A       		.uleb128 0xa
 7919 1b83 AB020000 		.4byte	.LASF385
 7920 1b87 1D       		.byte	0x1d
 7921 1b88 0901     		.2byte	0x109
 7922 1b8a 12010000 		.4byte	0x112
ARM GAS  C:\Users\mathi\AppData\Local\Temp\ccuMtzkg.s 			page 140


 7923 1b8e 0C       		.byte	0xc
 7924 1b8f 09       		.uleb128 0x9
 7925 1b90 646D6100 		.ascii	"dma\000"
 7926 1b94 1D       		.byte	0x1d
 7927 1b95 0D01     		.2byte	0x10d
 7928 1b97 C3190000 		.4byte	0x19c3
 7929 1b9b 10       		.byte	0x10
 7930 1b9c 0A       		.uleb128 0xa
 7931 1b9d 94150000 		.4byte	.LASF342
 7932 1ba1 1D       		.byte	0x1d
 7933 1ba2 1101     		.2byte	0x111
 7934 1ba4 12010000 		.4byte	0x112
 7935 1ba8 14       		.byte	0x14
 7936 1ba9 0A       		.uleb128 0xa
 7937 1baa 42150000 		.4byte	.LASF386
 7938 1bae 1D       		.byte	0x1d
 7939 1baf 1501     		.2byte	0x115
 7940 1bb1 12010000 		.4byte	0x112
 7941 1bb5 18       		.byte	0x18
 7942 1bb6 00       		.byte	0
 7943 1bb7 0B       		.uleb128 0xb
 7944 1bb8 04       		.byte	0x4
 7945 1bb9 87090000 		.4byte	0x987
 7946 1bbd 1A       		.uleb128 0x1a
 7947 1bbe BB030000 		.4byte	.LASF387
 7948 1bc2 1D       		.byte	0x1d
 7949 1bc3 1601     		.2byte	0x116
 7950 1bc5 541B0000 		.4byte	0x1b54
 7951 1bc9 05       		.uleb128 0x5
 7952 1bca BD1B0000 		.4byte	0x1bbd
 7953 1bce 1A       		.uleb128 0x1a
 7954 1bcf 3E0C0000 		.4byte	.LASF388
 7955 1bd3 1D       		.byte	0x1d
 7956 1bd4 1B01     		.2byte	0x11b
 7957 1bd6 DA1B0000 		.4byte	0x1bda
 7958 1bda 0C       		.uleb128 0xc
 7959 1bdb 3E0C0000 		.4byte	.LASF388
 7960 1bdf 30       		.byte	0x30
 7961 1be0 1D       		.byte	0x1d
 7962 1be1 7B01     		.2byte	0x17b
 7963 1be3 501C0000 		.4byte	0x1c50
 7964 1be7 0A       		.uleb128 0xa
 7965 1be8 DA130000 		.4byte	.LASF334
 7966 1bec 1D       		.byte	0x1d
 7967 1bed 7F01     		.2byte	0x17f
 7968 1bef 491B0000 		.4byte	0x1b49
 7969 1bf3 00       		.byte	0
 7970 1bf4 0A       		.uleb128 0xa
 7971 1bf5 AF1B0000 		.4byte	.LASF338
 7972 1bf9 1D       		.byte	0x1d
 7973 1bfa 8301     		.2byte	0x183
 7974 1bfc 8E1D0000 		.4byte	0x1d8e
 7975 1c00 04       		.byte	0x4
 7976 1c01 0A       		.uleb128 0xa
 7977 1c02 98020000 		.4byte	.LASF336
 7978 1c06 1D       		.byte	0x1d
 7979 1c07 8701     		.2byte	0x187
ARM GAS  C:\Users\mathi\AppData\Local\Temp\ccuMtzkg.s 			page 141


 7980 1c09 B51C0000 		.4byte	0x1cb5
 7981 1c0d 08       		.byte	0x8
 7982 1c0e 0A       		.uleb128 0xa
 7983 1c0f 56160000 		.4byte	.LASF337
 7984 1c13 1D       		.byte	0x1d
 7985 1c14 8B01     		.2byte	0x18b
 7986 1c16 F7000000 		.4byte	0xf7
 7987 1c1a 0C       		.byte	0xc
 7988 1c1b 0A       		.uleb128 0xa
 7989 1c1c EE180000 		.4byte	.LASF335
 7990 1c20 1D       		.byte	0x1d
 7991 1c21 8F01     		.2byte	0x18f
 7992 1c23 941D0000 		.4byte	0x1d94
 7993 1c27 10       		.byte	0x10
 7994 1c28 0A       		.uleb128 0xa
 7995 1c29 23070000 		.4byte	.LASF339
 7996 1c2d 1D       		.byte	0x1d
 7997 1c2e 9401     		.2byte	0x194
 7998 1c30 EF020000 		.4byte	0x2ef
 7999 1c34 14       		.byte	0x14
 8000 1c35 0A       		.uleb128 0xa
 8001 1c36 1D0C0000 		.4byte	.LASF340
 8002 1c3a 1D       		.byte	0x1d
 8003 1c3b 9A01     		.2byte	0x19a
 8004 1c3d C4110000 		.4byte	0x11c4
 8005 1c41 18       		.byte	0x18
 8006 1c42 0A       		.uleb128 0xa
 8007 1c43 520F0000 		.4byte	.LASF389
 8008 1c47 1D       		.byte	0x1d
 8009 1c48 A301     		.2byte	0x1a3
 8010 1c4a 9A1D0000 		.4byte	0x1d9a
 8011 1c4e 2C       		.byte	0x2c
 8012 1c4f 00       		.byte	0
 8013 1c50 1A       		.uleb128 0x1a
 8014 1c51 AF160000 		.4byte	.LASF390
 8015 1c55 1D       		.byte	0x1d
 8016 1c56 2001     		.2byte	0x120
 8017 1c58 F7000000 		.4byte	0xf7
 8018 1c5c 05       		.uleb128 0x5
 8019 1c5d 501C0000 		.4byte	0x1c50
 8020 1c61 24       		.uleb128 0x24
 8021 1c62 07       		.byte	0x7
 8022 1c63 01       		.byte	0x1
 8023 1c64 70000000 		.4byte	0x70
 8024 1c68 1D       		.byte	0x1d
 8025 1c69 2701     		.2byte	0x127
 8026 1c6b 7C1C0000 		.4byte	0x1c7c
 8027 1c6f 22       		.uleb128 0x22
 8028 1c70 2C170000 		.4byte	.LASF391
 8029 1c74 00       		.byte	0
 8030 1c75 22       		.uleb128 0x22
 8031 1c76 FD080000 		.4byte	.LASF392
 8032 1c7a 01       		.byte	0x1
 8033 1c7b 00       		.byte	0
 8034 1c7c 1A       		.uleb128 0x1a
 8035 1c7d 8D0F0000 		.4byte	.LASF393
 8036 1c81 1D       		.byte	0x1d
ARM GAS  C:\Users\mathi\AppData\Local\Temp\ccuMtzkg.s 			page 142


 8037 1c82 2A01     		.2byte	0x12a
 8038 1c84 611C0000 		.4byte	0x1c61
 8039 1c88 1A       		.uleb128 0x1a
 8040 1c89 82070000 		.4byte	.LASF394
 8041 1c8d 1D       		.byte	0x1d
 8042 1c8e 3401     		.2byte	0x134
 8043 1c90 941C0000 		.4byte	0x1c94
 8044 1c94 0B       		.uleb128 0xb
 8045 1c95 04       		.byte	0x4
 8046 1c96 9A1C0000 		.4byte	0x1c9a
 8047 1c9a 0D       		.uleb128 0xd
 8048 1c9b AF1C0000 		.4byte	0x1caf
 8049 1c9f 0E       		.uleb128 0xe
 8050 1ca0 AF1C0000 		.4byte	0x1caf
 8051 1ca4 0E       		.uleb128 0xe
 8052 1ca5 B51C0000 		.4byte	0x1cb5
 8053 1ca9 0E       		.uleb128 0xe
 8054 1caa 3A000000 		.4byte	0x3a
 8055 1cae 00       		.byte	0
 8056 1caf 0B       		.uleb128 0xb
 8057 1cb0 04       		.byte	0x4
 8058 1cb1 CE1B0000 		.4byte	0x1bce
 8059 1cb5 0B       		.uleb128 0xb
 8060 1cb6 04       		.byte	0x4
 8061 1cb7 5C1C0000 		.4byte	0x1c5c
 8062 1cbb 1A       		.uleb128 0x1a
 8063 1cbc 641D0000 		.4byte	.LASF395
 8064 1cc0 1D       		.byte	0x1d
 8065 1cc1 3F01     		.2byte	0x13f
 8066 1cc3 C71C0000 		.4byte	0x1cc7
 8067 1cc7 0B       		.uleb128 0xb
 8068 1cc8 04       		.byte	0x4
 8069 1cc9 CD1C0000 		.4byte	0x1ccd
 8070 1ccd 0D       		.uleb128 0xd
 8071 1cce DD1C0000 		.4byte	0x1cdd
 8072 1cd2 0E       		.uleb128 0xe
 8073 1cd3 AF1C0000 		.4byte	0x1caf
 8074 1cd7 0E       		.uleb128 0xe
 8075 1cd8 7C1C0000 		.4byte	0x1c7c
 8076 1cdc 00       		.byte	0
 8077 1cdd 24       		.uleb128 0x24
 8078 1cde 07       		.byte	0x7
 8079 1cdf 01       		.byte	0x1
 8080 1ce0 70000000 		.4byte	0x70
 8081 1ce4 1D       		.byte	0x1d
 8082 1ce5 4401     		.2byte	0x144
 8083 1ce7 FE1C0000 		.4byte	0x1cfe
 8084 1ceb 22       		.uleb128 0x22
 8085 1cec 6E190000 		.4byte	.LASF396
 8086 1cf0 00       		.byte	0
 8087 1cf1 22       		.uleb128 0x22
 8088 1cf2 36110000 		.4byte	.LASF397
 8089 1cf6 01       		.byte	0x1
 8090 1cf7 22       		.uleb128 0x22
 8091 1cf8 72140000 		.4byte	.LASF398
 8092 1cfc 02       		.byte	0x2
 8093 1cfd 00       		.byte	0
ARM GAS  C:\Users\mathi\AppData\Local\Temp\ccuMtzkg.s 			page 143


 8094 1cfe 1A       		.uleb128 0x1a
 8095 1cff 320A0000 		.4byte	.LASF399
 8096 1d03 1D       		.byte	0x1d
 8097 1d04 4D01     		.2byte	0x14d
 8098 1d06 DD1C0000 		.4byte	0x1cdd
 8099 1d0a 19       		.uleb128 0x19
 8100 1d0b 10       		.byte	0x10
 8101 1d0c 1D       		.byte	0x1d
 8102 1d0d 5201     		.2byte	0x152
 8103 1d0f 481D0000 		.4byte	0x1d48
 8104 1d13 0A       		.uleb128 0xa
 8105 1d14 CB0E0000 		.4byte	.LASF346
 8106 1d18 1D       		.byte	0x1d
 8107 1d19 5601     		.2byte	0x156
 8108 1d1b 12010000 		.4byte	0x112
 8109 1d1f 00       		.byte	0
 8110 1d20 0A       		.uleb128 0xa
 8111 1d21 24090000 		.4byte	.LASF347
 8112 1d25 1D       		.byte	0x1d
 8113 1d26 5A01     		.2byte	0x15a
 8114 1d28 881C0000 		.4byte	0x1c88
 8115 1d2c 04       		.byte	0x4
 8116 1d2d 0A       		.uleb128 0xa
 8117 1d2e 931F0000 		.4byte	.LASF348
 8118 1d32 1D       		.byte	0x1d
 8119 1d33 5E01     		.2byte	0x15e
 8120 1d35 BB1C0000 		.4byte	0x1cbb
 8121 1d39 08       		.byte	0x8
 8122 1d3a 0A       		.uleb128 0xa
 8123 1d3b 9B120000 		.4byte	.LASF400
 8124 1d3f 1D       		.byte	0x1d
 8125 1d40 6601     		.2byte	0x166
 8126 1d42 12010000 		.4byte	0x112
 8127 1d46 0C       		.byte	0xc
 8128 1d47 00       		.byte	0
 8129 1d48 1A       		.uleb128 0x1a
 8130 1d49 47100000 		.4byte	.LASF401
 8131 1d4d 1D       		.byte	0x1d
 8132 1d4e 6701     		.2byte	0x167
 8133 1d50 0A1D0000 		.4byte	0x1d0a
 8134 1d54 05       		.uleb128 0x5
 8135 1d55 481D0000 		.4byte	0x1d48
 8136 1d59 19       		.uleb128 0x19
 8137 1d5a 04       		.byte	0x4
 8138 1d5b 1D       		.byte	0x1d
 8139 1d5c 6C01     		.2byte	0x16c
 8140 1d5e 7D1D0000 		.4byte	0x1d7d
 8141 1d62 0A       		.uleb128 0xa
 8142 1d63 760A0000 		.4byte	.LASF402
 8143 1d67 1D       		.byte	0x1d
 8144 1d68 7101     		.2byte	0x171
 8145 1d6a 501C0000 		.4byte	0x1c50
 8146 1d6e 00       		.byte	0
 8147 1d6f 0A       		.uleb128 0xa
 8148 1d70 CA000000 		.4byte	.LASF403
 8149 1d74 1D       		.byte	0x1d
 8150 1d75 7501     		.2byte	0x175
ARM GAS  C:\Users\mathi\AppData\Local\Temp\ccuMtzkg.s 			page 144


 8151 1d77 FE1C0000 		.4byte	0x1cfe
 8152 1d7b 02       		.byte	0x2
 8153 1d7c 00       		.byte	0
 8154 1d7d 1A       		.uleb128 0x1a
 8155 1d7e 480C0000 		.4byte	.LASF404
 8156 1d82 1D       		.byte	0x1d
 8157 1d83 7601     		.2byte	0x176
 8158 1d85 591D0000 		.4byte	0x1d59
 8159 1d89 05       		.uleb128 0x5
 8160 1d8a 7D1D0000 		.4byte	0x1d7d
 8161 1d8e 0B       		.uleb128 0xb
 8162 1d8f 04       		.byte	0x4
 8163 1d90 541D0000 		.4byte	0x1d54
 8164 1d94 0B       		.uleb128 0xb
 8165 1d95 04       		.byte	0x4
 8166 1d96 891D0000 		.4byte	0x1d89
 8167 1d9a 0B       		.uleb128 0xb
 8168 1d9b 04       		.byte	0x4
 8169 1d9c C91B0000 		.4byte	0x1bc9
 8170 1da0 15       		.uleb128 0x15
 8171 1da1 59040000 		.4byte	.LASF405
 8172 1da5 1D       		.byte	0x1d
 8173 1da6 B301     		.2byte	0x1b3
 8174 1da8 CE1B0000 		.4byte	0x1bce
 8175 1dac 21       		.uleb128 0x21
 8176 1dad 07       		.byte	0x7
 8177 1dae 01       		.byte	0x1
 8178 1daf 70000000 		.4byte	0x70
 8179 1db3 1E       		.byte	0x1e
 8180 1db4 3F       		.byte	0x3f
 8181 1db5 CC1D0000 		.4byte	0x1dcc
 8182 1db9 22       		.uleb128 0x22
 8183 1dba AB090000 		.4byte	.LASF406
 8184 1dbe 00       		.byte	0
 8185 1dbf 22       		.uleb128 0x22
 8186 1dc0 7F210000 		.4byte	.LASF407
 8187 1dc4 01       		.byte	0x1
 8188 1dc5 22       		.uleb128 0x22
 8189 1dc6 D3020000 		.4byte	.LASF408
 8190 1dca 02       		.byte	0x2
 8191 1dcb 00       		.byte	0
 8192 1dcc 04       		.uleb128 0x4
 8193 1dcd 41180000 		.4byte	.LASF409
 8194 1dd1 1E       		.byte	0x1e
 8195 1dd2 43       		.byte	0x43
 8196 1dd3 AC1D0000 		.4byte	0x1dac
 8197 1dd7 04       		.uleb128 0x4
 8198 1dd8 90080000 		.4byte	.LASF410
 8199 1ddc 1E       		.byte	0x1e
 8200 1ddd 48       		.byte	0x48
 8201 1dde E21D0000 		.4byte	0x1de2
 8202 1de2 07       		.uleb128 0x7
 8203 1de3 90080000 		.4byte	.LASF410
 8204 1de7 08       		.byte	0x8
 8205 1de8 1F       		.byte	0x1f
 8206 1de9 71       		.byte	0x71
 8207 1dea 071E0000 		.4byte	0x1e07
ARM GAS  C:\Users\mathi\AppData\Local\Temp\ccuMtzkg.s 			page 145


 8208 1dee 08       		.uleb128 0x8
 8209 1def DA130000 		.4byte	.LASF334
 8210 1df3 1F       		.byte	0x1f
 8211 1df4 75       		.byte	0x75
 8212 1df5 CC1D0000 		.4byte	0x1dcc
 8213 1df9 00       		.byte	0
 8214 1dfa 08       		.uleb128 0x8
 8215 1dfb EE180000 		.4byte	.LASF335
 8216 1dff 1F       		.byte	0x1f
 8217 1e00 79       		.byte	0x79
 8218 1e01 991E0000 		.4byte	0x1e99
 8219 1e05 04       		.byte	0x4
 8220 1e06 00       		.byte	0
 8221 1e07 04       		.uleb128 0x4
 8222 1e08 E51F0000 		.4byte	.LASF411
 8223 1e0c 1F       		.byte	0x1f
 8224 1e0d 47       		.byte	0x47
 8225 1e0e 12010000 		.4byte	0x112
 8226 1e12 04       		.uleb128 0x4
 8227 1e13 751B0000 		.4byte	.LASF412
 8228 1e17 1F       		.byte	0x1f
 8229 1e18 4F       		.byte	0x4f
 8230 1e19 1D1E0000 		.4byte	0x1e1d
 8231 1e1d 0B       		.uleb128 0xb
 8232 1e1e 04       		.byte	0x4
 8233 1e1f 231E0000 		.4byte	0x1e23
 8234 1e23 0D       		.uleb128 0xd
 8235 1e24 331E0000 		.4byte	0x1e33
 8236 1e28 0E       		.uleb128 0xe
 8237 1e29 331E0000 		.4byte	0x1e33
 8238 1e2d 0E       		.uleb128 0xe
 8239 1e2e 071E0000 		.4byte	0x1e07
 8240 1e32 00       		.byte	0
 8241 1e33 0B       		.uleb128 0xb
 8242 1e34 04       		.byte	0x4
 8243 1e35 D71D0000 		.4byte	0x1dd7
 8244 1e39 17       		.uleb128 0x17
 8245 1e3a 08       		.byte	0x8
 8246 1e3b 1F       		.byte	0x1f
 8247 1e3c 54       		.byte	0x54
 8248 1e3d 591E0000 		.4byte	0x1e59
 8249 1e41 08       		.uleb128 0x8
 8250 1e42 85080000 		.4byte	.LASF413
 8251 1e46 1F       		.byte	0x1f
 8252 1e47 58       		.byte	0x58
 8253 1e48 12010000 		.4byte	0x112
 8254 1e4c 00       		.byte	0
 8255 1e4d 18       		.uleb128 0x18
 8256 1e4e 636200   		.ascii	"cb\000"
 8257 1e51 1F       		.byte	0x1f
 8258 1e52 5F       		.byte	0x5f
 8259 1e53 121E0000 		.4byte	0x1e12
 8260 1e57 04       		.byte	0x4
 8261 1e58 00       		.byte	0
 8262 1e59 04       		.uleb128 0x4
 8263 1e5a 930D0000 		.4byte	.LASF414
 8264 1e5e 1F       		.byte	0x1f
ARM GAS  C:\Users\mathi\AppData\Local\Temp\ccuMtzkg.s 			page 146


 8265 1e5f 60       		.byte	0x60
 8266 1e60 391E0000 		.4byte	0x1e39
 8267 1e64 17       		.uleb128 0x17
 8268 1e65 B8       		.byte	0xb8
 8269 1e66 1F       		.byte	0x1f
 8270 1e67 66       		.byte	0x66
 8271 1e68 791E0000 		.4byte	0x1e79
 8272 1e6c 08       		.uleb128 0x8
 8273 1e6d 841D0000 		.4byte	.LASF415
 8274 1e71 1F       		.byte	0x1f
 8275 1e72 6A       		.byte	0x6a
 8276 1e73 791E0000 		.4byte	0x1e79
 8277 1e77 00       		.byte	0
 8278 1e78 00       		.byte	0
 8279 1e79 13       		.uleb128 0x13
 8280 1e7a 591E0000 		.4byte	0x1e59
 8281 1e7e 891E0000 		.4byte	0x1e89
 8282 1e82 14       		.uleb128 0x14
 8283 1e83 2C000000 		.4byte	0x2c
 8284 1e87 16       		.byte	0x16
 8285 1e88 00       		.byte	0
 8286 1e89 04       		.uleb128 0x4
 8287 1e8a 6E1A0000 		.4byte	.LASF416
 8288 1e8e 1F       		.byte	0x1f
 8289 1e8f 6C       		.byte	0x6c
 8290 1e90 641E0000 		.4byte	0x1e64
 8291 1e94 05       		.uleb128 0x5
 8292 1e95 891E0000 		.4byte	0x1e89
 8293 1e99 0B       		.uleb128 0xb
 8294 1e9a 04       		.byte	0x4
 8295 1e9b 941E0000 		.4byte	0x1e94
 8296 1e9f 16       		.uleb128 0x16
 8297 1ea0 23060000 		.4byte	.LASF417
 8298 1ea4 1F       		.byte	0x1f
 8299 1ea5 86       		.byte	0x86
 8300 1ea6 D71D0000 		.4byte	0x1dd7
 8301 1eaa 21       		.uleb128 0x21
 8302 1eab 07       		.byte	0x7
 8303 1eac 01       		.byte	0x1
 8304 1ead 70000000 		.4byte	0x70
 8305 1eb1 20       		.byte	0x20
 8306 1eb2 31       		.byte	0x31
 8307 1eb3 D61E0000 		.4byte	0x1ed6
 8308 1eb7 22       		.uleb128 0x22
 8309 1eb8 86140000 		.4byte	.LASF418
 8310 1ebc 00       		.byte	0
 8311 1ebd 22       		.uleb128 0x22
 8312 1ebe BD120000 		.4byte	.LASF419
 8313 1ec2 01       		.byte	0x1
 8314 1ec3 22       		.uleb128 0x22
 8315 1ec4 8C160000 		.4byte	.LASF420
 8316 1ec8 02       		.byte	0x2
 8317 1ec9 22       		.uleb128 0x22
 8318 1eca C8070000 		.4byte	.LASF421
 8319 1ece 03       		.byte	0x3
 8320 1ecf 22       		.uleb128 0x22
 8321 1ed0 CA040000 		.4byte	.LASF422
ARM GAS  C:\Users\mathi\AppData\Local\Temp\ccuMtzkg.s 			page 147


 8322 1ed4 04       		.byte	0x4
 8323 1ed5 00       		.byte	0
 8324 1ed6 04       		.uleb128 0x4
 8325 1ed7 7C110000 		.4byte	.LASF423
 8326 1edb 20       		.byte	0x20
 8327 1edc 37       		.byte	0x37
 8328 1edd AA1E0000 		.4byte	0x1eaa
 8329 1ee1 04       		.uleb128 0x4
 8330 1ee2 4D150000 		.4byte	.LASF424
 8331 1ee6 20       		.byte	0x20
 8332 1ee7 3C       		.byte	0x3c
 8333 1ee8 EC1E0000 		.4byte	0x1eec
 8334 1eec 0C       		.uleb128 0xc
 8335 1eed 4D150000 		.4byte	.LASF424
 8336 1ef1 10       		.byte	0x10
 8337 1ef2 21       		.byte	0x21
 8338 1ef3 9701     		.2byte	0x197
 8339 1ef5 2E1F0000 		.4byte	0x1f2e
 8340 1ef9 0A       		.uleb128 0xa
 8341 1efa DA130000 		.4byte	.LASF334
 8342 1efe 21       		.byte	0x21
 8343 1eff 9B01     		.2byte	0x19b
 8344 1f01 D61E0000 		.4byte	0x1ed6
 8345 1f05 00       		.byte	0
 8346 1f06 0A       		.uleb128 0xa
 8347 1f07 EE180000 		.4byte	.LASF335
 8348 1f0b 21       		.byte	0x21
 8349 1f0c 9F01     		.2byte	0x19f
 8350 1f0e C3200000 		.4byte	0x20c3
 8351 1f12 04       		.byte	0x4
 8352 1f13 0A       		.uleb128 0xa
 8353 1f14 5C0C0000 		.4byte	.LASF425
 8354 1f18 21       		.byte	0x21
 8355 1f19 A701     		.2byte	0x1a7
 8356 1f1b 12010000 		.4byte	0x112
 8357 1f1f 08       		.byte	0x8
 8358 1f20 09       		.uleb128 0x9
 8359 1f21 74696D00 		.ascii	"tim\000"
 8360 1f25 21       		.byte	0x21
 8361 1f26 AB01     		.2byte	0x1ab
 8362 1f28 C9200000 		.4byte	0x20c9
 8363 1f2c 0C       		.byte	0xc
 8364 1f2d 00       		.byte	0
 8365 1f2e 04       		.uleb128 0x4
 8366 1f2f AF0F0000 		.4byte	.LASF426
 8367 1f33 20       		.byte	0x20
 8368 1f34 43       		.byte	0x43
 8369 1f35 391F0000 		.4byte	0x1f39
 8370 1f39 0B       		.uleb128 0xb
 8371 1f3a 04       		.byte	0x4
 8372 1f3b 3F1F0000 		.4byte	0x1f3f
 8373 1f3f 0D       		.uleb128 0xd
 8374 1f40 4A1F0000 		.4byte	0x1f4a
 8375 1f44 0E       		.uleb128 0xe
 8376 1f45 4A1F0000 		.4byte	0x1f4a
 8377 1f49 00       		.byte	0
 8378 1f4a 0B       		.uleb128 0xb
ARM GAS  C:\Users\mathi\AppData\Local\Temp\ccuMtzkg.s 			page 148


 8379 1f4b 04       		.byte	0x4
 8380 1f4c E11E0000 		.4byte	0x1ee1
 8381 1f50 19       		.uleb128 0x19
 8382 1f51 60       		.byte	0x60
 8383 1f52 22       		.byte	0x22
 8384 1f53 9E01     		.2byte	0x19e
 8385 1f55 5C200000 		.4byte	0x205c
 8386 1f59 09       		.uleb128 0x9
 8387 1f5a 43523100 		.ascii	"CR1\000"
 8388 1f5e 22       		.byte	0x22
 8389 1f5f 9F01     		.2byte	0x19f
 8390 1f61 1D010000 		.4byte	0x11d
 8391 1f65 00       		.byte	0
 8392 1f66 09       		.uleb128 0x9
 8393 1f67 43523200 		.ascii	"CR2\000"
 8394 1f6b 22       		.byte	0x22
 8395 1f6c A001     		.2byte	0x1a0
 8396 1f6e 1D010000 		.4byte	0x11d
 8397 1f72 04       		.byte	0x4
 8398 1f73 0A       		.uleb128 0xa
 8399 1f74 C51C0000 		.4byte	.LASF427
 8400 1f78 22       		.byte	0x22
 8401 1f79 A101     		.2byte	0x1a1
 8402 1f7b 1D010000 		.4byte	0x11d
 8403 1f7f 08       		.byte	0x8
 8404 1f80 0A       		.uleb128 0xa
 8405 1f81 F7090000 		.4byte	.LASF428
 8406 1f85 22       		.byte	0x22
 8407 1f86 A201     		.2byte	0x1a2
 8408 1f88 1D010000 		.4byte	0x11d
 8409 1f8c 0C       		.byte	0xc
 8410 1f8d 09       		.uleb128 0x9
 8411 1f8e 535200   		.ascii	"SR\000"
 8412 1f91 22       		.byte	0x22
 8413 1f92 A301     		.2byte	0x1a3
 8414 1f94 1D010000 		.4byte	0x11d
 8415 1f98 10       		.byte	0x10
 8416 1f99 09       		.uleb128 0x9
 8417 1f9a 45475200 		.ascii	"EGR\000"
 8418 1f9e 22       		.byte	0x22
 8419 1f9f A401     		.2byte	0x1a4
 8420 1fa1 1D010000 		.4byte	0x11d
 8421 1fa5 14       		.byte	0x14
 8422 1fa6 0A       		.uleb128 0xa
 8423 1fa7 8A200000 		.4byte	.LASF429
 8424 1fab 22       		.byte	0x22
 8425 1fac A501     		.2byte	0x1a5
 8426 1fae 1D010000 		.4byte	0x11d
 8427 1fb2 18       		.byte	0x18
 8428 1fb3 0A       		.uleb128 0xa
 8429 1fb4 90200000 		.4byte	.LASF430
 8430 1fb8 22       		.byte	0x22
 8431 1fb9 A601     		.2byte	0x1a6
 8432 1fbb 1D010000 		.4byte	0x11d
 8433 1fbf 1C       		.byte	0x1c
 8434 1fc0 0A       		.uleb128 0xa
 8435 1fc1 5F070000 		.4byte	.LASF431
ARM GAS  C:\Users\mathi\AppData\Local\Temp\ccuMtzkg.s 			page 149


 8436 1fc5 22       		.byte	0x22
 8437 1fc6 A701     		.2byte	0x1a7
 8438 1fc8 1D010000 		.4byte	0x11d
 8439 1fcc 20       		.byte	0x20
 8440 1fcd 09       		.uleb128 0x9
 8441 1fce 434E5400 		.ascii	"CNT\000"
 8442 1fd2 22       		.byte	0x22
 8443 1fd3 A801     		.2byte	0x1a8
 8444 1fd5 1D010000 		.4byte	0x11d
 8445 1fd9 24       		.byte	0x24
 8446 1fda 09       		.uleb128 0x9
 8447 1fdb 50534300 		.ascii	"PSC\000"
 8448 1fdf 22       		.byte	0x22
 8449 1fe0 A901     		.2byte	0x1a9
 8450 1fe2 1D010000 		.4byte	0x11d
 8451 1fe6 28       		.byte	0x28
 8452 1fe7 09       		.uleb128 0x9
 8453 1fe8 41525200 		.ascii	"ARR\000"
 8454 1fec 22       		.byte	0x22
 8455 1fed AA01     		.2byte	0x1aa
 8456 1fef 1D010000 		.4byte	0x11d
 8457 1ff3 2C       		.byte	0x2c
 8458 1ff4 09       		.uleb128 0x9
 8459 1ff5 52435200 		.ascii	"RCR\000"
 8460 1ff9 22       		.byte	0x22
 8461 1ffa AB01     		.2byte	0x1ab
 8462 1ffc 1D010000 		.4byte	0x11d
 8463 2000 30       		.byte	0x30
 8464 2001 09       		.uleb128 0x9
 8465 2002 43435200 		.ascii	"CCR\000"
 8466 2006 22       		.byte	0x22
 8467 2007 AC01     		.2byte	0x1ac
 8468 2009 1B0A0000 		.4byte	0xa1b
 8469 200d 34       		.byte	0x34
 8470 200e 0A       		.uleb128 0xa
 8471 200f A6020000 		.4byte	.LASF432
 8472 2013 22       		.byte	0x22
 8473 2014 AD01     		.2byte	0x1ad
 8474 2016 1D010000 		.4byte	0x11d
 8475 201a 44       		.byte	0x44
 8476 201b 09       		.uleb128 0x9
 8477 201c 44435200 		.ascii	"DCR\000"
 8478 2020 22       		.byte	0x22
 8479 2021 AE01     		.2byte	0x1ae
 8480 2023 1D010000 		.4byte	0x11d
 8481 2027 48       		.byte	0x48
 8482 2028 0A       		.uleb128 0xa
 8483 2029 37140000 		.4byte	.LASF433
 8484 202d 22       		.byte	0x22
 8485 202e AF01     		.2byte	0x1af
 8486 2030 1D010000 		.4byte	0x11d
 8487 2034 4C       		.byte	0x4c
 8488 2035 09       		.uleb128 0x9
 8489 2036 4F5200   		.ascii	"OR\000"
 8490 2039 22       		.byte	0x22
 8491 203a B001     		.2byte	0x1b0
 8492 203c 1D010000 		.4byte	0x11d
ARM GAS  C:\Users\mathi\AppData\Local\Temp\ccuMtzkg.s 			page 150


 8493 2040 50       		.byte	0x50
 8494 2041 0A       		.uleb128 0xa
 8495 2042 96200000 		.4byte	.LASF434
 8496 2046 22       		.byte	0x22
 8497 2047 B101     		.2byte	0x1b1
 8498 2049 1D010000 		.4byte	0x11d
 8499 204d 54       		.byte	0x54
 8500 204e 0A       		.uleb128 0xa
 8501 204f 680C0000 		.4byte	.LASF435
 8502 2053 22       		.byte	0x22
 8503 2054 B201     		.2byte	0x1b2
 8504 2056 060A0000 		.4byte	0xa06
 8505 205a 58       		.byte	0x58
 8506 205b 00       		.byte	0
 8507 205c 1A       		.uleb128 0x1a
 8508 205d D91B0000 		.4byte	.LASF436
 8509 2061 22       		.byte	0x22
 8510 2062 B301     		.2byte	0x1b3
 8511 2064 501F0000 		.4byte	0x1f50
 8512 2068 1A       		.uleb128 0x1a
 8513 2069 C5080000 		.4byte	.LASF437
 8514 206d 21       		.byte	0x21
 8515 206e 6D01     		.2byte	0x16d
 8516 2070 12010000 		.4byte	0x112
 8517 2074 19       		.uleb128 0x19
 8518 2075 10       		.byte	0x10
 8519 2076 21       		.byte	0x21
 8520 2077 7801     		.2byte	0x178
 8521 2079 B2200000 		.4byte	0x20b2
 8522 207d 0A       		.uleb128 0xa
 8523 207e FC1F0000 		.4byte	.LASF438
 8524 2082 21       		.byte	0x21
 8525 2083 7E01     		.2byte	0x17e
 8526 2085 68200000 		.4byte	0x2068
 8527 2089 00       		.byte	0
 8528 208a 0A       		.uleb128 0xa
 8529 208b 3C140000 		.4byte	.LASF439
 8530 208f 21       		.byte	0x21
 8531 2090 8501     		.2byte	0x185
 8532 2092 2E1F0000 		.4byte	0x1f2e
 8533 2096 04       		.byte	0x4
 8534 2097 09       		.uleb128 0x9
 8535 2098 63723200 		.ascii	"cr2\000"
 8536 209c 21       		.byte	0x21
 8537 209d 8B01     		.2byte	0x18b
 8538 209f 12010000 		.4byte	0x112
 8539 20a3 08       		.byte	0x8
 8540 20a4 0A       		.uleb128 0xa
 8541 20a5 C70B0000 		.4byte	.LASF440
 8542 20a9 21       		.byte	0x21
 8543 20aa 9101     		.2byte	0x191
 8544 20ac 12010000 		.4byte	0x112
 8545 20b0 0C       		.byte	0xc
 8546 20b1 00       		.byte	0
 8547 20b2 1A       		.uleb128 0x1a
 8548 20b3 B2060000 		.4byte	.LASF441
 8549 20b7 21       		.byte	0x21
ARM GAS  C:\Users\mathi\AppData\Local\Temp\ccuMtzkg.s 			page 151


 8550 20b8 9201     		.2byte	0x192
 8551 20ba 74200000 		.4byte	0x2074
 8552 20be 05       		.uleb128 0x5
 8553 20bf B2200000 		.4byte	0x20b2
 8554 20c3 0B       		.uleb128 0xb
 8555 20c4 04       		.byte	0x4
 8556 20c5 BE200000 		.4byte	0x20be
 8557 20c9 0B       		.uleb128 0xb
 8558 20ca 04       		.byte	0x4
 8559 20cb 5C200000 		.4byte	0x205c
 8560 20cf 15       		.uleb128 0x15
 8561 20d0 8D1F0000 		.4byte	.LASF442
 8562 20d4 21       		.byte	0x21
 8563 20d5 F201     		.2byte	0x1f2
 8564 20d7 E11E0000 		.4byte	0x1ee1
 8565 20db 15       		.uleb128 0x15
 8566 20dc F5180000 		.4byte	.LASF443
 8567 20e0 21       		.byte	0x21
 8568 20e1 0202     		.2byte	0x202
 8569 20e3 E11E0000 		.4byte	0x1ee1
 8570 20e7 15       		.uleb128 0x15
 8571 20e8 FC180000 		.4byte	.LASF444
 8572 20ec 21       		.byte	0x21
 8573 20ed 0602     		.2byte	0x206
 8574 20ef E11E0000 		.4byte	0x1ee1
 8575 20f3 21       		.uleb128 0x21
 8576 20f4 07       		.byte	0x7
 8577 20f5 01       		.byte	0x1
 8578 20f6 70000000 		.4byte	0x70
 8579 20fa 23       		.byte	0x23
 8580 20fb 4C       		.byte	0x4c
 8581 20fc 25210000 		.4byte	0x2125
 8582 2100 22       		.uleb128 0x22
 8583 2101 8A060000 		.4byte	.LASF445
 8584 2105 00       		.byte	0
 8585 2106 22       		.uleb128 0x22
 8586 2107 620D0000 		.4byte	.LASF446
 8587 210b 01       		.byte	0x1
 8588 210c 22       		.uleb128 0x22
 8589 210d E3060000 		.4byte	.LASF447
 8590 2111 02       		.byte	0x2
 8591 2112 22       		.uleb128 0x22
 8592 2113 F0040000 		.4byte	.LASF448
 8593 2117 03       		.byte	0x3
 8594 2118 22       		.uleb128 0x22
 8595 2119 E5030000 		.4byte	.LASF449
 8596 211d 04       		.byte	0x4
 8597 211e 22       		.uleb128 0x22
 8598 211f 51110000 		.4byte	.LASF450
 8599 2123 05       		.byte	0x5
 8600 2124 00       		.byte	0
 8601 2125 04       		.uleb128 0x4
 8602 2126 740F0000 		.4byte	.LASF451
 8603 212a 23       		.byte	0x23
 8604 212b 53       		.byte	0x53
 8605 212c F3200000 		.4byte	0x20f3
 8606 2130 1A       		.uleb128 0x1a
ARM GAS  C:\Users\mathi\AppData\Local\Temp\ccuMtzkg.s 			page 152


 8607 2131 41050000 		.4byte	.LASF452
 8608 2135 24       		.byte	0x24
 8609 2136 6A01     		.2byte	0x16a
 8610 2138 F7000000 		.4byte	0xf7
 8611 213c 1A       		.uleb128 0x1a
 8612 213d 92040000 		.4byte	.LASF453
 8613 2141 24       		.byte	0x24
 8614 2142 6F01     		.2byte	0x16f
 8615 2144 12010000 		.4byte	0x112
 8616 2148 24       		.uleb128 0x24
 8617 2149 07       		.byte	0x7
 8618 214a 01       		.byte	0x1
 8619 214b 70000000 		.4byte	0x70
 8620 214f 24       		.byte	0x24
 8621 2150 7401     		.2byte	0x174
 8622 2152 69210000 		.4byte	0x2169
 8623 2156 22       		.uleb128 0x22
 8624 2157 03050000 		.4byte	.LASF454
 8625 215b 01       		.byte	0x1
 8626 215c 22       		.uleb128 0x22
 8627 215d 50000000 		.4byte	.LASF455
 8628 2161 02       		.byte	0x2
 8629 2162 22       		.uleb128 0x22
 8630 2163 7F090000 		.4byte	.LASF456
 8631 2167 03       		.byte	0x3
 8632 2168 00       		.byte	0
 8633 2169 1A       		.uleb128 0x1a
 8634 216a E2200000 		.4byte	.LASF457
 8635 216e 24       		.byte	0x24
 8636 216f 7801     		.2byte	0x178
 8637 2171 48210000 		.4byte	0x2148
 8638 2175 24       		.uleb128 0x24
 8639 2176 07       		.byte	0x7
 8640 2177 01       		.byte	0x1
 8641 2178 70000000 		.4byte	0x70
 8642 217c 24       		.byte	0x24
 8643 217d 7D01     		.2byte	0x17d
 8644 217f 96210000 		.4byte	0x2196
 8645 2183 22       		.uleb128 0x22
 8646 2184 F4050000 		.4byte	.LASF458
 8647 2188 01       		.byte	0x1
 8648 2189 22       		.uleb128 0x22
 8649 218a 5F200000 		.4byte	.LASF459
 8650 218e 02       		.byte	0x2
 8651 218f 22       		.uleb128 0x22
 8652 2190 460A0000 		.4byte	.LASF460
 8653 2194 03       		.byte	0x3
 8654 2195 00       		.byte	0
 8655 2196 1A       		.uleb128 0x1a
 8656 2197 F6060000 		.4byte	.LASF461
 8657 219b 24       		.byte	0x24
 8658 219c 8101     		.2byte	0x181
 8659 219e 75210000 		.4byte	0x2175
 8660 21a2 19       		.uleb128 0x19
 8661 21a3 0C       		.byte	0xc
 8662 21a4 24       		.byte	0x24
 8663 21a5 8601     		.2byte	0x186
ARM GAS  C:\Users\mathi\AppData\Local\Temp\ccuMtzkg.s 			page 153


 8664 21a7 D3210000 		.4byte	0x21d3
 8665 21ab 0A       		.uleb128 0xa
 8666 21ac E5120000 		.4byte	.LASF462
 8667 21b0 24       		.byte	0x24
 8668 21b1 8801     		.2byte	0x188
 8669 21b3 69210000 		.4byte	0x2169
 8670 21b7 00       		.byte	0
 8671 21b8 0A       		.uleb128 0xa
 8672 21b9 43040000 		.4byte	.LASF463
 8673 21bd 24       		.byte	0x24
 8674 21be 8901     		.2byte	0x189
 8675 21c0 12010000 		.4byte	0x112
 8676 21c4 04       		.byte	0x4
 8677 21c5 0A       		.uleb128 0xa
 8678 21c6 50210000 		.4byte	.LASF464
 8679 21ca 24       		.byte	0x24
 8680 21cb 8C01     		.2byte	0x18c
 8681 21cd 96210000 		.4byte	0x2196
 8682 21d1 08       		.byte	0x8
 8683 21d2 00       		.byte	0
 8684 21d3 1A       		.uleb128 0x1a
 8685 21d4 B3020000 		.4byte	.LASF465
 8686 21d8 24       		.byte	0x24
 8687 21d9 8E01     		.2byte	0x18e
 8688 21db A2210000 		.4byte	0x21a2
 8689 21df 05       		.uleb128 0x5
 8690 21e0 D3210000 		.4byte	0x21d3
 8691 21e4 1A       		.uleb128 0x1a
 8692 21e5 E6040000 		.4byte	.LASF466
 8693 21e9 24       		.byte	0x24
 8694 21ea 9301     		.2byte	0x193
 8695 21ec F0210000 		.4byte	0x21f0
 8696 21f0 0C       		.uleb128 0xc
 8697 21f1 E6040000 		.4byte	.LASF466
 8698 21f5 3C       		.byte	0x3c
 8699 21f6 24       		.byte	0x24
 8700 21f7 9801     		.2byte	0x198
 8701 21f9 8D220000 		.4byte	0x228d
 8702 21fd 0A       		.uleb128 0xa
 8703 21fe DA130000 		.4byte	.LASF334
 8704 2202 24       		.byte	0x24
 8705 2203 9C01     		.2byte	0x19c
 8706 2205 25210000 		.4byte	0x2125
 8707 2209 00       		.byte	0
 8708 220a 0A       		.uleb128 0xa
 8709 220b EE180000 		.4byte	.LASF335
 8710 220f 24       		.byte	0x24
 8711 2210 A001     		.2byte	0x1a0
 8712 2212 8D220000 		.4byte	0x228d
 8713 2216 04       		.byte	0x4
 8714 2217 0A       		.uleb128 0xa
 8715 2218 15010000 		.4byte	.LASF467
 8716 221c 24       		.byte	0x24
 8717 221d A401     		.2byte	0x1a4
 8718 221f 3C210000 		.4byte	0x213c
 8719 2223 08       		.byte	0x8
 8720 2224 0A       		.uleb128 0xa
ARM GAS  C:\Users\mathi\AppData\Local\Temp\ccuMtzkg.s 			page 154


 8721 2225 1D0C0000 		.4byte	.LASF340
 8722 2229 24       		.byte	0x24
 8723 222a A901     		.2byte	0x1a9
 8724 222c C4110000 		.4byte	0x11c4
 8725 2230 0C       		.byte	0xc
 8726 2231 0A       		.uleb128 0xa
 8727 2232 23070000 		.4byte	.LASF339
 8728 2236 24       		.byte	0x24
 8729 2237 B201     		.2byte	0x1b2
 8730 2239 EF020000 		.4byte	0x2ef
 8731 223d 20       		.byte	0x20
 8732 223e 0A       		.uleb128 0xa
 8733 223f 6B0D0000 		.4byte	.LASF468
 8734 2243 24       		.byte	0x24
 8735 2244 B601     		.2byte	0x1b6
 8736 2246 30210000 		.4byte	0x2130
 8737 224a 24       		.byte	0x24
 8738 224b 0A       		.uleb128 0xa
 8739 224c 7B080000 		.4byte	.LASF469
 8740 2250 24       		.byte	0x24
 8741 2251 BA01     		.2byte	0x1ba
 8742 2253 12010000 		.4byte	0x112
 8743 2257 28       		.byte	0x28
 8744 2258 0A       		.uleb128 0xa
 8745 2259 BB080000 		.4byte	.LASF470
 8746 225d 24       		.byte	0x24
 8747 225e BE01     		.2byte	0x1be
 8748 2260 12010000 		.4byte	0x112
 8749 2264 2C       		.byte	0x2c
 8750 2265 0A       		.uleb128 0xa
 8751 2266 D3000000 		.4byte	.LASF471
 8752 226a 24       		.byte	0x24
 8753 226b C201     		.2byte	0x1c2
 8754 226d C3190000 		.4byte	0x19c3
 8755 2271 30       		.byte	0x30
 8756 2272 0A       		.uleb128 0xa
 8757 2273 C6020000 		.4byte	.LASF472
 8758 2277 24       		.byte	0x24
 8759 2278 C601     		.2byte	0x1c6
 8760 227a C3190000 		.4byte	0x19c3
 8761 227e 34       		.byte	0x34
 8762 227f 09       		.uleb128 0x9
 8763 2280 69326300 		.ascii	"i2c\000"
 8764 2284 24       		.byte	0x24
 8765 2285 CA01     		.2byte	0x1ca
 8766 2287 93220000 		.4byte	0x2293
 8767 228b 38       		.byte	0x38
 8768 228c 00       		.byte	0
 8769 228d 0B       		.uleb128 0xb
 8770 228e 04       		.byte	0x4
 8771 228f DF210000 		.4byte	0x21df
 8772 2293 0B       		.uleb128 0xb
 8773 2294 04       		.byte	0x4
 8774 2295 AB0A0000 		.4byte	0xaab
 8775 2299 15       		.uleb128 0x15
 8776 229a CD0F0000 		.4byte	.LASF473
 8777 229e 24       		.byte	0x24
ARM GAS  C:\Users\mathi\AppData\Local\Temp\ccuMtzkg.s 			page 155


 8778 229f E001     		.2byte	0x1e0
 8779 22a1 E4210000 		.4byte	0x21e4
 8780 22a5 21       		.uleb128 0x21
 8781 22a6 07       		.byte	0x7
 8782 22a7 01       		.byte	0x1
 8783 22a8 70000000 		.4byte	0x70
 8784 22ac 25       		.byte	0x25
 8785 22ad 39       		.byte	0x39
 8786 22ae D1220000 		.4byte	0x22d1
 8787 22b2 22       		.uleb128 0x22
 8788 22b3 6E0E0000 		.4byte	.LASF474
 8789 22b7 00       		.byte	0
 8790 22b8 22       		.uleb128 0x22
 8791 22b9 030C0000 		.4byte	.LASF475
 8792 22bd 01       		.byte	0x1
 8793 22be 22       		.uleb128 0x22
 8794 22bf F1000000 		.4byte	.LASF476
 8795 22c3 02       		.byte	0x2
 8796 22c4 22       		.uleb128 0x22
 8797 22c5 81160000 		.4byte	.LASF477
 8798 22c9 03       		.byte	0x3
 8799 22ca 22       		.uleb128 0x22
 8800 22cb F21A0000 		.4byte	.LASF478
 8801 22cf 04       		.byte	0x4
 8802 22d0 00       		.byte	0
 8803 22d1 04       		.uleb128 0x4
 8804 22d2 0E1E0000 		.4byte	.LASF479
 8805 22d6 25       		.byte	0x25
 8806 22d7 3F       		.byte	0x3f
 8807 22d8 A5220000 		.4byte	0x22a5
 8808 22dc 04       		.uleb128 0x4
 8809 22dd 46210000 		.4byte	.LASF480
 8810 22e1 26       		.byte	0x26
 8811 22e2 E2       		.byte	0xe2
 8812 22e3 E7220000 		.4byte	0x22e7
 8813 22e7 0C       		.uleb128 0xc
 8814 22e8 46210000 		.4byte	.LASF480
 8815 22ec 20       		.byte	0x20
 8816 22ed 26       		.byte	0x26
 8817 22ee 1B01     		.2byte	0x11b
 8818 22f0 5D230000 		.4byte	0x235d
 8819 22f4 0A       		.uleb128 0xa
 8820 22f5 DA130000 		.4byte	.LASF334
 8821 22f9 26       		.byte	0x26
 8822 22fa 1F01     		.2byte	0x11f
 8823 22fc D1220000 		.4byte	0x22d1
 8824 2300 00       		.byte	0
 8825 2301 0A       		.uleb128 0xa
 8826 2302 EE180000 		.4byte	.LASF335
 8827 2306 26       		.byte	0x26
 8828 2307 2301     		.2byte	0x123
 8829 2309 F5230000 		.4byte	0x23f5
 8830 230d 04       		.byte	0x4
 8831 230e 09       		.uleb128 0x9
 8832 230f 73706900 		.ascii	"spi\000"
 8833 2313 26       		.byte	0x26
 8834 2314 2801     		.2byte	0x128
ARM GAS  C:\Users\mathi\AppData\Local\Temp\ccuMtzkg.s 			page 156


 8835 2316 FB230000 		.4byte	0x23fb
 8836 231a 08       		.byte	0x8
 8837 231b 09       		.uleb128 0x9
 8838 231c 63666700 		.ascii	"cfg\000"
 8839 2320 26       		.byte	0x26
 8840 2321 2C01     		.2byte	0x12c
 8841 2323 F7000000 		.4byte	0xf7
 8842 2327 0C       		.byte	0xc
 8843 2328 0A       		.uleb128 0xa
 8844 2329 D3000000 		.4byte	.LASF471
 8845 232d 26       		.byte	0x26
 8846 232e 3001     		.2byte	0x130
 8847 2330 C3190000 		.4byte	0x19c3
 8848 2334 10       		.byte	0x10
 8849 2335 0A       		.uleb128 0xa
 8850 2336 C6020000 		.4byte	.LASF472
 8851 233a 26       		.byte	0x26
 8852 233b 3401     		.2byte	0x134
 8853 233d C3190000 		.4byte	0x19c3
 8854 2341 14       		.byte	0x14
 8855 2342 0A       		.uleb128 0xa
 8856 2343 7B080000 		.4byte	.LASF469
 8857 2347 26       		.byte	0x26
 8858 2348 3801     		.2byte	0x138
 8859 234a 12010000 		.4byte	0x112
 8860 234e 18       		.byte	0x18
 8861 234f 0A       		.uleb128 0xa
 8862 2350 BB080000 		.4byte	.LASF470
 8863 2354 26       		.byte	0x26
 8864 2355 3C01     		.2byte	0x13c
 8865 2357 12010000 		.4byte	0x112
 8866 235b 1C       		.byte	0x1c
 8867 235c 00       		.byte	0
 8868 235d 04       		.uleb128 0x4
 8869 235e A7080000 		.4byte	.LASF481
 8870 2362 26       		.byte	0x26
 8871 2363 EB       		.byte	0xeb
 8872 2364 68230000 		.4byte	0x2368
 8873 2368 0B       		.uleb128 0xb
 8874 2369 04       		.byte	0x4
 8875 236a 6E230000 		.4byte	0x236e
 8876 236e 0D       		.uleb128 0xd
 8877 236f 83230000 		.4byte	0x2383
 8878 2373 0E       		.uleb128 0xe
 8879 2374 83230000 		.4byte	0x2383
 8880 2378 0E       		.uleb128 0xe
 8881 2379 3A000000 		.4byte	0x3a
 8882 237d 0E       		.uleb128 0xe
 8883 237e 3A000000 		.4byte	0x3a
 8884 2382 00       		.byte	0
 8885 2383 0B       		.uleb128 0xb
 8886 2384 04       		.byte	0x4
 8887 2385 DC220000 		.4byte	0x22dc
 8888 2389 17       		.uleb128 0x17
 8889 238a 14       		.byte	0x14
 8890 238b 26       		.byte	0x26
 8891 238c F1       		.byte	0xf1
ARM GAS  C:\Users\mathi\AppData\Local\Temp\ccuMtzkg.s 			page 157


 8892 238d DD230000 		.4byte	0x23dd
 8893 2391 08       		.uleb128 0x8
 8894 2392 37010000 		.4byte	.LASF482
 8895 2396 26       		.byte	0x26
 8896 2397 F6       		.byte	0xf6
 8897 2398 DD230000 		.4byte	0x23dd
 8898 239c 00       		.byte	0
 8899 239d 08       		.uleb128 0x8
 8900 239e 0B010000 		.4byte	.LASF483
 8901 23a2 26       		.byte	0x26
 8902 23a3 FB       		.byte	0xfb
 8903 23a4 D7030000 		.4byte	0x3d7
 8904 23a8 04       		.byte	0x4
 8905 23a9 08       		.uleb128 0x8
 8906 23aa 230C0000 		.4byte	.LASF484
 8907 23ae 26       		.byte	0x26
 8908 23af FF       		.byte	0xff
 8909 23b0 3A000000 		.4byte	0x3a
 8910 23b4 08       		.byte	0x8
 8911 23b5 0A       		.uleb128 0xa
 8912 23b6 24090000 		.4byte	.LASF347
 8913 23ba 26       		.byte	0x26
 8914 23bb 0301     		.2byte	0x103
 8915 23bd 5D230000 		.4byte	0x235d
 8916 23c1 0C       		.byte	0xc
 8917 23c2 0A       		.uleb128 0xa
 8918 23c3 CD160000 		.4byte	.LASF485
 8919 23c7 26       		.byte	0x26
 8920 23c8 0F01     		.2byte	0x10f
 8921 23ca EC000000 		.4byte	0xec
 8922 23ce 10       		.byte	0x10
 8923 23cf 0A       		.uleb128 0xa
 8924 23d0 D4060000 		.4byte	.LASF486
 8925 23d4 26       		.byte	0x26
 8926 23d5 1501     		.2byte	0x115
 8927 23d7 EC000000 		.4byte	0xec
 8928 23db 12       		.byte	0x12
 8929 23dc 00       		.byte	0
 8930 23dd 0B       		.uleb128 0xb
 8931 23de 04       		.byte	0x4
 8932 23df E3230000 		.4byte	0x23e3
 8933 23e3 25       		.uleb128 0x25
 8934 23e4 1A       		.uleb128 0x1a
 8935 23e5 5B210000 		.4byte	.LASF487
 8936 23e9 26       		.byte	0x26
 8937 23ea 1601     		.2byte	0x116
 8938 23ec 89230000 		.4byte	0x2389
 8939 23f0 05       		.uleb128 0x5
 8940 23f1 E4230000 		.4byte	0x23e4
 8941 23f5 0B       		.uleb128 0xb
 8942 23f6 04       		.byte	0x4
 8943 23f7 F0230000 		.4byte	0x23f0
 8944 23fb 0B       		.uleb128 0xb
 8945 23fc 04       		.byte	0x4
 8946 23fd 5E0C0000 		.4byte	0xc5e
 8947 2401 15       		.uleb128 0x15
 8948 2402 90210000 		.4byte	.LASF488
ARM GAS  C:\Users\mathi\AppData\Local\Temp\ccuMtzkg.s 			page 158


 8949 2406 26       		.byte	0x26
 8950 2407 4801     		.2byte	0x148
 8951 2409 DC220000 		.4byte	0x22dc
 8952 240d 21       		.uleb128 0x21
 8953 240e 07       		.byte	0x7
 8954 240f 01       		.byte	0x1
 8955 2410 70000000 		.4byte	0x70
 8956 2414 27       		.byte	0x27
 8957 2415 4A       		.byte	0x4a
 8958 2416 2D240000 		.4byte	0x242d
 8959 241a 22       		.uleb128 0x22
 8960 241b 6A070000 		.4byte	.LASF489
 8961 241f 00       		.byte	0
 8962 2420 22       		.uleb128 0x22
 8963 2421 0C0C0000 		.4byte	.LASF490
 8964 2425 01       		.byte	0x1
 8965 2426 22       		.uleb128 0x22
 8966 2427 950E0000 		.4byte	.LASF491
 8967 242b 02       		.byte	0x2
 8968 242c 00       		.byte	0
 8969 242d 04       		.uleb128 0x4
 8970 242e 06040000 		.4byte	.LASF492
 8971 2432 27       		.byte	0x27
 8972 2433 4E       		.byte	0x4e
 8973 2434 0D240000 		.4byte	0x240d
 8974 2438 04       		.uleb128 0x4
 8975 2439 2F0B0000 		.4byte	.LASF493
 8976 243d 27       		.byte	0x27
 8977 243e 53       		.byte	0x53
 8978 243f 43240000 		.4byte	0x2443
 8979 2443 0C       		.uleb128 0xc
 8980 2444 2F0B0000 		.4byte	.LASF493
 8981 2448 1C       		.byte	0x1c
 8982 2449 28       		.byte	0x28
 8983 244a 7901     		.2byte	0x179
 8984 244c AC240000 		.4byte	0x24ac
 8985 2450 0A       		.uleb128 0xa
 8986 2451 DA130000 		.4byte	.LASF334
 8987 2455 28       		.byte	0x28
 8988 2456 7D01     		.2byte	0x17d
 8989 2458 2D240000 		.4byte	0x242d
 8990 245c 00       		.byte	0
 8991 245d 0A       		.uleb128 0xa
 8992 245e EE180000 		.4byte	.LASF335
 8993 2462 28       		.byte	0x28
 8994 2463 8101     		.2byte	0x181
 8995 2465 A7250000 		.4byte	0x25a7
 8996 2469 04       		.byte	0x4
 8997 246a 0A       		.uleb128 0xa
 8998 246b 4A110000 		.4byte	.LASF494
 8999 246f 28       		.byte	0x28
 9000 2470 8501     		.2byte	0x185
 9001 2472 F2240000 		.4byte	0x24f2
 9002 2476 08       		.byte	0x8
 9003 2477 0A       		.uleb128 0xa
 9004 2478 24170000 		.4byte	.LASF495
 9005 247c 28       		.byte	0x28
ARM GAS  C:\Users\mathi\AppData\Local\Temp\ccuMtzkg.s 			page 159


 9006 247d 8901     		.2byte	0x189
 9007 247f E6240000 		.4byte	0x24e6
 9008 2483 0C       		.byte	0xc
 9009 2484 0A       		.uleb128 0xa
 9010 2485 841D0000 		.4byte	.LASF415
 9011 2489 28       		.byte	0x28
 9012 248a 8D01     		.2byte	0x18d
 9013 248c DA240000 		.4byte	0x24da
 9014 2490 10       		.byte	0x10
 9015 2491 0A       		.uleb128 0xa
 9016 2492 5C0C0000 		.4byte	.LASF425
 9017 2496 28       		.byte	0x28
 9018 2497 9501     		.2byte	0x195
 9019 2499 12010000 		.4byte	0x112
 9020 249d 14       		.byte	0x14
 9021 249e 09       		.uleb128 0x9
 9022 249f 74696D00 		.ascii	"tim\000"
 9023 24a3 28       		.byte	0x28
 9024 24a4 9901     		.2byte	0x199
 9025 24a6 C9200000 		.4byte	0x20c9
 9026 24aa 18       		.byte	0x18
 9027 24ab 00       		.byte	0
 9028 24ac 04       		.uleb128 0x4
 9029 24ad 440F0000 		.4byte	.LASF496
 9030 24b1 27       		.byte	0x27
 9031 24b2 5A       		.byte	0x5a
 9032 24b3 B7240000 		.4byte	0x24b7
 9033 24b7 0B       		.uleb128 0xb
 9034 24b8 04       		.byte	0x4
 9035 24b9 BD240000 		.4byte	0x24bd
 9036 24bd 0D       		.uleb128 0xd
 9037 24be C8240000 		.4byte	0x24c8
 9038 24c2 0E       		.uleb128 0xe
 9039 24c3 C8240000 		.4byte	0x24c8
 9040 24c7 00       		.byte	0
 9041 24c8 0B       		.uleb128 0xb
 9042 24c9 04       		.byte	0x4
 9043 24ca 38240000 		.4byte	0x2438
 9044 24ce 1A       		.uleb128 0x1a
 9045 24cf 3B130000 		.4byte	.LASF497
 9046 24d3 28       		.byte	0x28
 9047 24d4 2501     		.2byte	0x125
 9048 24d6 12010000 		.4byte	0x112
 9049 24da 1A       		.uleb128 0x1a
 9050 24db 06150000 		.4byte	.LASF498
 9051 24df 28       		.byte	0x28
 9052 24e0 2A01     		.2byte	0x12a
 9053 24e2 DC000000 		.4byte	0xdc
 9054 24e6 1A       		.uleb128 0x1a
 9055 24e7 8A030000 		.4byte	.LASF499
 9056 24eb 28       		.byte	0x28
 9057 24ec 2F01     		.2byte	0x12f
 9058 24ee 12010000 		.4byte	0x112
 9059 24f2 1A       		.uleb128 0x1a
 9060 24f3 F80C0000 		.4byte	.LASF500
 9061 24f7 28       		.byte	0x28
 9062 24f8 3401     		.2byte	0x134
ARM GAS  C:\Users\mathi\AppData\Local\Temp\ccuMtzkg.s 			page 160


 9063 24fa 12010000 		.4byte	0x112
 9064 24fe 19       		.uleb128 0x19
 9065 24ff 08       		.byte	0x8
 9066 2500 28       		.byte	0x28
 9067 2501 3901     		.2byte	0x139
 9068 2503 22250000 		.4byte	0x2522
 9069 2507 0A       		.uleb128 0xa
 9070 2508 85080000 		.4byte	.LASF413
 9071 250c 28       		.byte	0x28
 9072 250d 3D01     		.2byte	0x13d
 9073 250f CE240000 		.4byte	0x24ce
 9074 2513 00       		.byte	0
 9075 2514 0A       		.uleb128 0xa
 9076 2515 3C140000 		.4byte	.LASF439
 9077 2519 28       		.byte	0x28
 9078 251a 4301     		.2byte	0x143
 9079 251c AC240000 		.4byte	0x24ac
 9080 2520 04       		.byte	0x4
 9081 2521 00       		.byte	0
 9082 2522 1A       		.uleb128 0x1a
 9083 2523 E70C0000 		.4byte	.LASF501
 9084 2527 28       		.byte	0x28
 9085 2528 4501     		.2byte	0x145
 9086 252a FE240000 		.4byte	0x24fe
 9087 252e 19       		.uleb128 0x19
 9088 252f 34       		.byte	0x34
 9089 2530 28       		.byte	0x28
 9090 2531 4A01     		.2byte	0x14a
 9091 2533 86250000 		.4byte	0x2586
 9092 2537 0A       		.uleb128 0xa
 9093 2538 FC1F0000 		.4byte	.LASF438
 9094 253c 28       		.byte	0x28
 9095 253d 5001     		.2byte	0x150
 9096 253f 12010000 		.4byte	0x112
 9097 2543 00       		.byte	0
 9098 2544 0A       		.uleb128 0xa
 9099 2545 4A110000 		.4byte	.LASF494
 9100 2549 28       		.byte	0x28
 9101 254a 5601     		.2byte	0x156
 9102 254c F2240000 		.4byte	0x24f2
 9103 2550 04       		.byte	0x4
 9104 2551 0A       		.uleb128 0xa
 9105 2552 3C140000 		.4byte	.LASF439
 9106 2556 28       		.byte	0x28
 9107 2557 5C01     		.2byte	0x15c
 9108 2559 AC240000 		.4byte	0x24ac
 9109 255d 08       		.byte	0x8
 9110 255e 0A       		.uleb128 0xa
 9111 255f 841D0000 		.4byte	.LASF415
 9112 2563 28       		.byte	0x28
 9113 2564 6001     		.2byte	0x160
 9114 2566 86250000 		.4byte	0x2586
 9115 256a 0C       		.byte	0xc
 9116 256b 09       		.uleb128 0x9
 9117 256c 63723200 		.ascii	"cr2\000"
 9118 2570 28       		.byte	0x28
 9119 2571 6601     		.2byte	0x166
ARM GAS  C:\Users\mathi\AppData\Local\Temp\ccuMtzkg.s 			page 161


 9120 2573 12010000 		.4byte	0x112
 9121 2577 2C       		.byte	0x2c
 9122 2578 0A       		.uleb128 0xa
 9123 2579 C70B0000 		.4byte	.LASF440
 9124 257d 28       		.byte	0x28
 9125 257e 7301     		.2byte	0x173
 9126 2580 12010000 		.4byte	0x112
 9127 2584 30       		.byte	0x30
 9128 2585 00       		.byte	0
 9129 2586 13       		.uleb128 0x13
 9130 2587 22250000 		.4byte	0x2522
 9131 258b 96250000 		.4byte	0x2596
 9132 258f 14       		.uleb128 0x14
 9133 2590 2C000000 		.4byte	0x2c
 9134 2594 03       		.byte	0x3
 9135 2595 00       		.byte	0
 9136 2596 1A       		.uleb128 0x1a
 9137 2597 400B0000 		.4byte	.LASF502
 9138 259b 28       		.byte	0x28
 9139 259c 7401     		.2byte	0x174
 9140 259e 2E250000 		.4byte	0x252e
 9141 25a2 05       		.uleb128 0x5
 9142 25a3 96250000 		.4byte	0x2596
 9143 25a7 0B       		.uleb128 0xb
 9144 25a8 04       		.byte	0x4
 9145 25a9 A2250000 		.4byte	0x25a2
 9146 25ad 15       		.uleb128 0x15
 9147 25ae 0A100000 		.4byte	.LASF503
 9148 25b2 28       		.byte	0x28
 9149 25b3 BC01     		.2byte	0x1bc
 9150 25b5 38240000 		.4byte	0x2438
 9151 25b9 15       		.uleb128 0x15
 9152 25ba 10100000 		.4byte	.LASF504
 9153 25be 28       		.byte	0x28
 9154 25bf C001     		.2byte	0x1c0
 9155 25c1 38240000 		.4byte	0x2438
 9156 25c5 15       		.uleb128 0x15
 9157 25c6 16100000 		.4byte	.LASF505
 9158 25ca 28       		.byte	0x28
 9159 25cb C401     		.2byte	0x1c4
 9160 25cd 38240000 		.4byte	0x2438
 9161 25d1 15       		.uleb128 0x15
 9162 25d2 1C100000 		.4byte	.LASF506
 9163 25d6 28       		.byte	0x28
 9164 25d7 C801     		.2byte	0x1c8
 9165 25d9 38240000 		.4byte	0x2438
 9166 25dd 21       		.uleb128 0x21
 9167 25de 07       		.byte	0x7
 9168 25df 01       		.byte	0x1
 9169 25e0 70000000 		.4byte	0x70
 9170 25e4 29       		.byte	0x29
 9171 25e5 55       		.byte	0x55
 9172 25e6 FD250000 		.4byte	0x25fd
 9173 25ea 22       		.uleb128 0x22
 9174 25eb BC060000 		.4byte	.LASF507
 9175 25ef 00       		.byte	0
 9176 25f0 22       		.uleb128 0x22
ARM GAS  C:\Users\mathi\AppData\Local\Temp\ccuMtzkg.s 			page 162


 9177 25f1 880C0000 		.4byte	.LASF508
 9178 25f5 01       		.byte	0x1
 9179 25f6 22       		.uleb128 0x22
 9180 25f7 2F0E0000 		.4byte	.LASF509
 9181 25fb 02       		.byte	0x2
 9182 25fc 00       		.byte	0
 9183 25fd 04       		.uleb128 0x4
 9184 25fe FB150000 		.4byte	.LASF510
 9185 2602 29       		.byte	0x29
 9186 2603 59       		.byte	0x59
 9187 2604 DD250000 		.4byte	0x25dd
 9188 2608 04       		.uleb128 0x4
 9189 2609 A41D0000 		.4byte	.LASF511
 9190 260d 29       		.byte	0x29
 9191 260e 5E       		.byte	0x5e
 9192 260f 13260000 		.4byte	0x2613
 9193 2613 07       		.uleb128 0x7
 9194 2614 A41D0000 		.4byte	.LASF511
 9195 2618 78       		.byte	0x78
 9196 2619 29       		.byte	0x29
 9197 261a 78       		.byte	0x78
 9198 261b 7E260000 		.4byte	0x267e
 9199 261f 18       		.uleb128 0x18
 9200 2620 766D7400 		.ascii	"vmt\000"
 9201 2624 29       		.byte	0x29
 9202 2625 7A       		.byte	0x7a
 9203 2626 FC260000 		.4byte	0x26fc
 9204 262a 00       		.byte	0
 9205 262b 08       		.uleb128 0x8
 9206 262c 32000000 		.4byte	.LASF512
 9207 2630 29       		.byte	0x29
 9208 2631 7B       		.byte	0x7b
 9209 2632 48120000 		.4byte	0x1248
 9210 2636 04       		.byte	0x4
 9211 2637 08       		.uleb128 0x8
 9212 2638 DA130000 		.4byte	.LASF334
 9213 263c 29       		.byte	0x29
 9214 263d 7B       		.byte	0x7b
 9215 263e FD250000 		.4byte	0x25fd
 9216 2642 08       		.byte	0x8
 9217 2643 08       		.uleb128 0x8
 9218 2644 CE150000 		.4byte	.LASF513
 9219 2648 29       		.byte	0x29
 9220 2649 7B       		.byte	0x7b
 9221 264a F3120000 		.4byte	0x12f3
 9222 264e 0C       		.byte	0xc
 9223 264f 08       		.uleb128 0x8
 9224 2650 22100000 		.4byte	.LASF514
 9225 2654 29       		.byte	0x29
 9226 2655 7B       		.byte	0x7b
 9227 2656 FE120000 		.4byte	0x12fe
 9228 265a 30       		.byte	0x30
 9229 265b 18       		.uleb128 0x18
 9230 265c 696200   		.ascii	"ib\000"
 9231 265f 29       		.byte	0x29
 9232 2660 7B       		.byte	0x7b
 9233 2661 02270000 		.4byte	0x2702
ARM GAS  C:\Users\mathi\AppData\Local\Temp\ccuMtzkg.s 			page 163


 9234 2665 54       		.byte	0x54
 9235 2666 18       		.uleb128 0x18
 9236 2667 6F6200   		.ascii	"ob\000"
 9237 266a 29       		.byte	0x29
 9238 266b 7B       		.byte	0x7b
 9239 266c 02270000 		.4byte	0x2702
 9240 2670 64       		.byte	0x64
 9241 2671 08       		.uleb128 0x8
 9242 2672 4C170000 		.4byte	.LASF515
 9243 2676 29       		.byte	0x29
 9244 2677 7B       		.byte	0x7b
 9245 2678 12270000 		.4byte	0x2712
 9246 267c 74       		.byte	0x74
 9247 267d 00       		.byte	0
 9248 267e 1F       		.uleb128 0x1f
 9249 267f 53443300 		.ascii	"SD3\000"
 9250 2683 2A       		.byte	0x2a
 9251 2684 1501     		.2byte	0x115
 9252 2686 08260000 		.4byte	0x2608
 9253 268a 07       		.uleb128 0x7
 9254 268b DA0D0000 		.4byte	.LASF516
 9255 268f 20       		.byte	0x20
 9256 2690 29       		.byte	0x29
 9257 2691 6D       		.byte	0x6d
 9258 2692 F7260000 		.4byte	0x26f7
 9259 2696 08       		.uleb128 0x8
 9260 2697 C8150000 		.4byte	.LASF517
 9261 269b 29       		.byte	0x29
 9262 269c 6E       		.byte	0x6e
 9263 269d 28130000 		.4byte	0x1328
 9264 26a1 00       		.byte	0
 9265 26a2 08       		.uleb128 0x8
 9266 26a3 FE040000 		.4byte	.LASF518
 9267 26a7 29       		.byte	0x29
 9268 26a8 6E       		.byte	0x6e
 9269 26a9 47130000 		.4byte	0x1347
 9270 26ad 04       		.byte	0x4
 9271 26ae 18       		.uleb128 0x18
 9272 26af 70757400 		.ascii	"put\000"
 9273 26b3 29       		.byte	0x29
 9274 26b4 6E       		.byte	0x6e
 9275 26b5 61130000 		.4byte	0x1361
 9276 26b9 08       		.byte	0x8
 9277 26ba 18       		.uleb128 0x18
 9278 26bb 67657400 		.ascii	"get\000"
 9279 26bf 29       		.byte	0x29
 9280 26c0 6E       		.byte	0x6e
 9281 26c1 76130000 		.4byte	0x1376
 9282 26c5 0C       		.byte	0xc
 9283 26c6 08       		.uleb128 0x8
 9284 26c7 FE110000 		.4byte	.LASF519
 9285 26cb 29       		.byte	0x29
 9286 26cc 6E       		.byte	0x6e
 9287 26cd 17140000 		.4byte	0x1417
 9288 26d1 10       		.byte	0x10
 9289 26d2 08       		.uleb128 0x8
 9290 26d3 AD150000 		.4byte	.LASF520
ARM GAS  C:\Users\mathi\AppData\Local\Temp\ccuMtzkg.s 			page 164


 9291 26d7 29       		.byte	0x29
 9292 26d8 6E       		.byte	0x6e
 9293 26d9 31140000 		.4byte	0x1431
 9294 26dd 14       		.byte	0x14
 9295 26de 08       		.uleb128 0x8
 9296 26df 5F1E0000 		.4byte	.LASF521
 9297 26e3 29       		.byte	0x29
 9298 26e4 6E       		.byte	0x6e
 9299 26e5 55140000 		.4byte	0x1455
 9300 26e9 18       		.byte	0x18
 9301 26ea 08       		.uleb128 0x8
 9302 26eb 6E110000 		.4byte	.LASF522
 9303 26ef 29       		.byte	0x29
 9304 26f0 6E       		.byte	0x6e
 9305 26f1 79140000 		.4byte	0x1479
 9306 26f5 1C       		.byte	0x1c
 9307 26f6 00       		.byte	0
 9308 26f7 05       		.uleb128 0x5
 9309 26f8 8A260000 		.4byte	0x268a
 9310 26fc 0B       		.uleb128 0xb
 9311 26fd 04       		.byte	0x4
 9312 26fe F7260000 		.4byte	0x26f7
 9313 2702 13       		.uleb128 0x13
 9314 2703 DC000000 		.4byte	0xdc
 9315 2707 12270000 		.4byte	0x2712
 9316 270b 14       		.uleb128 0x14
 9317 270c 2C000000 		.4byte	0x2c
 9318 2710 0F       		.byte	0xf
 9319 2711 00       		.byte	0
 9320 2712 0B       		.uleb128 0xb
 9321 2713 04       		.byte	0x4
 9322 2714 CD0C0000 		.4byte	0xccd
 9323 2718 21       		.uleb128 0x21
 9324 2719 07       		.byte	0x7
 9325 271a 01       		.byte	0x1
 9326 271b 70000000 		.4byte	0x70
 9327 271f 2B       		.byte	0x2b
 9328 2720 6C       		.byte	0x6c
 9329 2721 38270000 		.4byte	0x2738
 9330 2725 22       		.uleb128 0x22
 9331 2726 D0030000 		.4byte	.LASF523
 9332 272a 00       		.byte	0
 9333 272b 22       		.uleb128 0x22
 9334 272c 51130000 		.4byte	.LASF524
 9335 2730 01       		.byte	0x1
 9336 2731 22       		.uleb128 0x22
 9337 2732 11110000 		.4byte	.LASF525
 9338 2736 02       		.byte	0x2
 9339 2737 00       		.byte	0
 9340 2738 04       		.uleb128 0x4
 9341 2739 F6170000 		.4byte	.LASF526
 9342 273d 2B       		.byte	0x2b
 9343 273e 70       		.byte	0x70
 9344 273f 18270000 		.4byte	0x2718
 9345 2743 04       		.uleb128 0x4
 9346 2744 5D170000 		.4byte	.LASF527
 9347 2748 2C       		.byte	0x2c
ARM GAS  C:\Users\mathi\AppData\Local\Temp\ccuMtzkg.s 			page 165


 9348 2749 BF       		.byte	0xbf
 9349 274a 12010000 		.4byte	0x112
 9350 274e 04       		.uleb128 0x4
 9351 274f 57150000 		.4byte	.LASF528
 9352 2753 2C       		.byte	0x2c
 9353 2754 C4       		.byte	0xc4
 9354 2755 12010000 		.4byte	0x112
 9355 2759 04       		.uleb128 0x4
 9356 275a 931D0000 		.4byte	.LASF529
 9357 275e 2C       		.byte	0x2c
 9358 275f C9       		.byte	0xc9
 9359 2760 64270000 		.4byte	0x2764
 9360 2764 07       		.uleb128 0x7
 9361 2765 931D0000 		.4byte	.LASF529
 9362 2769 4C       		.byte	0x4c
 9363 276a 2C       		.byte	0x2c
 9364 276b F2       		.byte	0xf2
 9365 276c 13280000 		.4byte	0x2813
 9366 2770 18       		.uleb128 0x18
 9367 2771 766D7400 		.ascii	"vmt\000"
 9368 2775 2C       		.byte	0x2c
 9369 2776 F6       		.byte	0xf6
 9370 2777 B6280000 		.4byte	0x28b6
 9371 277b 00       		.byte	0
 9372 277c 08       		.uleb128 0x8
 9373 277d DA130000 		.4byte	.LASF334
 9374 2781 2C       		.byte	0x2c
 9375 2782 F7       		.byte	0xf7
 9376 2783 C3140000 		.4byte	0x14c3
 9377 2787 04       		.byte	0x4
 9378 2788 18       		.uleb128 0x18
 9379 2789 63696400 		.ascii	"cid\000"
 9380 278d 2C       		.byte	0x2c
 9381 278e F7       		.byte	0xf7
 9382 278f 7E150000 		.4byte	0x157e
 9383 2793 08       		.byte	0x8
 9384 2794 18       		.uleb128 0x18
 9385 2795 63736400 		.ascii	"csd\000"
 9386 2799 2C       		.byte	0x2c
 9387 279a F7       		.byte	0xf7
 9388 279b 7E150000 		.4byte	0x157e
 9389 279f 18       		.byte	0x18
 9390 27a0 08       		.uleb128 0x8
 9391 27a1 8E190000 		.4byte	.LASF530
 9392 27a5 2C       		.byte	0x2c
 9393 27a6 F7       		.byte	0xf7
 9394 27a7 12010000 		.4byte	0x112
 9395 27ab 28       		.byte	0x28
 9396 27ac 08       		.uleb128 0x8
 9397 27ad EE180000 		.4byte	.LASF335
 9398 27b1 2C       		.byte	0x2c
 9399 27b2 FB       		.byte	0xfb
 9400 27b3 BC280000 		.4byte	0x28bc
 9401 27b7 2C       		.byte	0x2c
 9402 27b8 08       		.uleb128 0x8
 9403 27b9 F9120000 		.4byte	.LASF531
 9404 27bd 2C       		.byte	0x2c
ARM GAS  C:\Users\mathi\AppData\Local\Temp\ccuMtzkg.s 			page 166


 9405 27be FF       		.byte	0xff
 9406 27bf 43270000 		.4byte	0x2743
 9407 27c3 30       		.byte	0x30
 9408 27c4 0A       		.uleb128 0xa
 9409 27c5 15010000 		.4byte	.LASF467
 9410 27c9 2C       		.byte	0x2c
 9411 27ca 0301     		.2byte	0x103
 9412 27cc 4E270000 		.4byte	0x274e
 9413 27d0 34       		.byte	0x34
 9414 27d1 09       		.uleb128 0x9
 9415 27d2 72636100 		.ascii	"rca\000"
 9416 27d6 2C       		.byte	0x2c
 9417 27d7 0701     		.2byte	0x107
 9418 27d9 12010000 		.4byte	0x112
 9419 27dd 38       		.byte	0x38
 9420 27de 0A       		.uleb128 0xa
 9421 27df 23070000 		.4byte	.LASF339
 9422 27e3 2C       		.byte	0x2c
 9423 27e4 0C01     		.2byte	0x10c
 9424 27e6 EF020000 		.4byte	0x2ef
 9425 27ea 3C       		.byte	0x3c
 9426 27eb 0A       		.uleb128 0xa
 9427 27ec 94150000 		.4byte	.LASF342
 9428 27f0 2C       		.byte	0x2c
 9429 27f1 1001     		.2byte	0x110
 9430 27f3 12010000 		.4byte	0x112
 9431 27f7 40       		.byte	0x40
 9432 27f8 09       		.uleb128 0x9
 9433 27f9 646D6100 		.ascii	"dma\000"
 9434 27fd 2C       		.byte	0x2c
 9435 27fe 1401     		.2byte	0x114
 9436 2800 C3190000 		.4byte	0x19c3
 9437 2804 44       		.byte	0x44
 9438 2805 0A       		.uleb128 0xa
 9439 2806 F9130000 		.4byte	.LASF532
 9440 280a 2C       		.byte	0x2c
 9441 280b 1901     		.2byte	0x119
 9442 280d C2280000 		.4byte	0x28c2
 9443 2811 48       		.byte	0x48
 9444 2812 00       		.byte	0
 9445 2813 17       		.uleb128 0x17
 9446 2814 08       		.byte	0x8
 9447 2815 2C       		.byte	0x2c
 9448 2816 CF       		.byte	0xcf
 9449 2817 34280000 		.4byte	0x2834
 9450 281b 08       		.uleb128 0x8
 9451 281c 370D0000 		.4byte	.LASF533
 9452 2820 2C       		.byte	0x2c
 9453 2821 D8       		.byte	0xd8
 9454 2822 ED120000 		.4byte	0x12ed
 9455 2826 00       		.byte	0
 9456 2827 08       		.uleb128 0x8
 9457 2828 F71E0000 		.4byte	.LASF534
 9458 282c 2C       		.byte	0x2c
 9459 282d DC       		.byte	0xdc
 9460 282e 38270000 		.4byte	0x2738
 9461 2832 04       		.byte	0x4
ARM GAS  C:\Users\mathi\AppData\Local\Temp\ccuMtzkg.s 			page 167


 9462 2833 00       		.byte	0
 9463 2834 04       		.uleb128 0x4
 9464 2835 9A130000 		.4byte	.LASF535
 9465 2839 2C       		.byte	0x2c
 9466 283a DE       		.byte	0xde
 9467 283b 13280000 		.4byte	0x2813
 9468 283f 05       		.uleb128 0x5
 9469 2840 34280000 		.4byte	0x2834
 9470 2844 07       		.uleb128 0x7
 9471 2845 0D1F0000 		.4byte	.LASF536
 9472 2849 20       		.byte	0x20
 9473 284a 2C       		.byte	0x2c
 9474 284b EB       		.byte	0xeb
 9475 284c B1280000 		.4byte	0x28b1
 9476 2850 08       		.uleb128 0x8
 9477 2851 96210000 		.4byte	.LASF537
 9478 2855 2C       		.byte	0x2c
 9479 2856 EC       		.byte	0xec
 9480 2857 10150000 		.4byte	0x1510
 9481 285b 00       		.byte	0
 9482 285c 08       		.uleb128 0x8
 9483 285d CC0B0000 		.4byte	.LASF538
 9484 2861 2C       		.byte	0x2c
 9485 2862 EC       		.byte	0xec
 9486 2863 10150000 		.4byte	0x1510
 9487 2867 04       		.byte	0x4
 9488 2868 08       		.uleb128 0x8
 9489 2869 F80D0000 		.4byte	.LASF539
 9490 286d 2C       		.byte	0x2c
 9491 286e EC       		.byte	0xec
 9492 286f 10150000 		.4byte	0x1510
 9493 2873 08       		.byte	0x8
 9494 2874 08       		.uleb128 0x8
 9495 2875 F3110000 		.4byte	.LASF540
 9496 2879 2C       		.byte	0x2c
 9497 287a EC       		.byte	0xec
 9498 287b 10150000 		.4byte	0x1510
 9499 287f 0C       		.byte	0xc
 9500 2880 08       		.uleb128 0x8
 9501 2881 FE040000 		.4byte	.LASF518
 9502 2885 2C       		.byte	0x2c
 9503 2886 EC       		.byte	0xec
 9504 2887 34150000 		.4byte	0x1534
 9505 288b 10       		.byte	0x10
 9506 288c 08       		.uleb128 0x8
 9507 288d C8150000 		.4byte	.LASF517
 9508 2891 2C       		.byte	0x2c
 9509 2892 EC       		.byte	0xec
 9510 2893 58150000 		.4byte	0x1558
 9511 2897 14       		.byte	0x14
 9512 2898 08       		.uleb128 0x8
 9513 2899 47170000 		.4byte	.LASF541
 9514 289d 2C       		.byte	0x2c
 9515 289e EC       		.byte	0xec
 9516 289f 10150000 		.4byte	0x1510
 9517 28a3 18       		.byte	0x18
 9518 28a4 08       		.uleb128 0x8
ARM GAS  C:\Users\mathi\AppData\Local\Temp\ccuMtzkg.s 			page 168


 9519 28a5 AD1E0000 		.4byte	.LASF542
 9520 28a9 2C       		.byte	0x2c
 9521 28aa EC       		.byte	0xec
 9522 28ab 78150000 		.4byte	0x1578
 9523 28af 1C       		.byte	0x1c
 9524 28b0 00       		.byte	0
 9525 28b1 05       		.uleb128 0x5
 9526 28b2 44280000 		.4byte	0x2844
 9527 28b6 0B       		.uleb128 0xb
 9528 28b7 04       		.byte	0x4
 9529 28b8 B1280000 		.4byte	0x28b1
 9530 28bc 0B       		.uleb128 0xb
 9531 28bd 04       		.byte	0x4
 9532 28be 3F280000 		.4byte	0x283f
 9533 28c2 0B       		.uleb128 0xb
 9534 28c3 04       		.byte	0x4
 9535 28c4 D50B0000 		.4byte	0xbd5
 9536 28c8 15       		.uleb128 0x15
 9537 28c9 D4090000 		.4byte	.LASF543
 9538 28cd 2C       		.byte	0x2c
 9539 28ce 2501     		.2byte	0x125
 9540 28d0 59270000 		.4byte	0x2759
 9541 28d4 21       		.uleb128 0x21
 9542 28d5 07       		.byte	0x7
 9543 28d6 01       		.byte	0x1
 9544 28d7 70000000 		.4byte	0x70
 9545 28db 2D       		.byte	0x2d
 9546 28dc 46       		.byte	0x46
 9547 28dd 00290000 		.4byte	0x2900
 9548 28e1 22       		.uleb128 0x22
 9549 28e2 39070000 		.4byte	.LASF544
 9550 28e6 00       		.byte	0
 9551 28e7 22       		.uleb128 0x22
 9552 28e8 81030000 		.4byte	.LASF545
 9553 28ec 01       		.byte	0x1
 9554 28ed 22       		.uleb128 0x22
 9555 28ee E01E0000 		.4byte	.LASF546
 9556 28f2 02       		.byte	0x2
 9557 28f3 22       		.uleb128 0x22
 9558 28f4 880D0000 		.4byte	.LASF547
 9559 28f8 03       		.byte	0x3
 9560 28f9 22       		.uleb128 0x22
 9561 28fa 98110000 		.4byte	.LASF548
 9562 28fe 04       		.byte	0x4
 9563 28ff 00       		.byte	0
 9564 2900 04       		.uleb128 0x4
 9565 2901 570D0000 		.4byte	.LASF549
 9566 2905 2D       		.byte	0x2d
 9567 2906 4C       		.byte	0x4c
 9568 2907 D4280000 		.4byte	0x28d4
 9569 290b 1A       		.uleb128 0x1a
 9570 290c 441D0000 		.4byte	.LASF550
 9571 2910 2E       		.byte	0x2e
 9572 2911 9601     		.2byte	0x196
 9573 2913 17290000 		.4byte	0x2917
 9574 2917 0C       		.uleb128 0xc
 9575 2918 441D0000 		.4byte	.LASF550
ARM GAS  C:\Users\mathi\AppData\Local\Temp\ccuMtzkg.s 			page 169


 9576 291c 34       		.byte	0x34
 9577 291d 2E       		.byte	0x2e
 9578 291e BA01     		.2byte	0x1ba
 9579 2920 9A290000 		.4byte	0x299a
 9580 2924 0A       		.uleb128 0xa
 9581 2925 DA130000 		.4byte	.LASF334
 9582 2929 2E       		.byte	0x2e
 9583 292a BE01     		.2byte	0x1be
 9584 292c 00290000 		.4byte	0x2900
 9585 2930 00       		.byte	0
 9586 2931 0A       		.uleb128 0xa
 9587 2932 EE180000 		.4byte	.LASF335
 9588 2936 2E       		.byte	0x2e
 9589 2937 C201     		.2byte	0x1c2
 9590 2939 0C2A0000 		.4byte	0x2a0c
 9591 293d 04       		.byte	0x4
 9592 293e 0A       		.uleb128 0xa
 9593 293f 23070000 		.4byte	.LASF339
 9594 2943 2E       		.byte	0x2e
 9595 2944 C701     		.2byte	0x1c7
 9596 2946 EF020000 		.4byte	0x2ef
 9597 294a 08       		.byte	0x8
 9598 294b 0A       		.uleb128 0xa
 9599 294c 1D0C0000 		.4byte	.LASF340
 9600 2950 2E       		.byte	0x2e
 9601 2951 CD01     		.2byte	0x1cd
 9602 2953 C4110000 		.4byte	0x11c4
 9603 2957 0C       		.byte	0xc
 9604 2958 09       		.uleb128 0x9
 9605 2959 73706900 		.ascii	"spi\000"
 9606 295d 2E       		.byte	0x2e
 9607 295e D601     		.2byte	0x1d6
 9608 2960 FB230000 		.4byte	0x23fb
 9609 2964 20       		.byte	0x20
 9610 2965 0A       		.uleb128 0xa
 9611 2966 D3000000 		.4byte	.LASF471
 9612 296a 2E       		.byte	0x2e
 9613 296b DA01     		.2byte	0x1da
 9614 296d C3190000 		.4byte	0x19c3
 9615 2971 24       		.byte	0x24
 9616 2972 0A       		.uleb128 0xa
 9617 2973 C6020000 		.4byte	.LASF472
 9618 2977 2E       		.byte	0x2e
 9619 2978 DE01     		.2byte	0x1de
 9620 297a C3190000 		.4byte	0x19c3
 9621 297e 28       		.byte	0x28
 9622 297f 0A       		.uleb128 0xa
 9623 2980 7B080000 		.4byte	.LASF469
 9624 2984 2E       		.byte	0x2e
 9625 2985 E201     		.2byte	0x1e2
 9626 2987 12010000 		.4byte	0x112
 9627 298b 2C       		.byte	0x2c
 9628 298c 0A       		.uleb128 0xa
 9629 298d BB080000 		.4byte	.LASF470
 9630 2991 2E       		.byte	0x2e
 9631 2992 E601     		.2byte	0x1e6
 9632 2994 12010000 		.4byte	0x112
ARM GAS  C:\Users\mathi\AppData\Local\Temp\ccuMtzkg.s 			page 170


 9633 2998 30       		.byte	0x30
 9634 2999 00       		.byte	0
 9635 299a 1A       		.uleb128 0x1a
 9636 299b 6D130000 		.4byte	.LASF551
 9637 299f 2E       		.byte	0x2e
 9638 29a0 9E01     		.2byte	0x19e
 9639 29a2 A6290000 		.4byte	0x29a6
 9640 29a6 0B       		.uleb128 0xb
 9641 29a7 04       		.byte	0x4
 9642 29a8 AC290000 		.4byte	0x29ac
 9643 29ac 0D       		.uleb128 0xd
 9644 29ad B7290000 		.4byte	0x29b7
 9645 29b1 0E       		.uleb128 0xe
 9646 29b2 B7290000 		.4byte	0x29b7
 9647 29b6 00       		.byte	0
 9648 29b7 0B       		.uleb128 0xb
 9649 29b8 04       		.byte	0x4
 9650 29b9 0B290000 		.4byte	0x290b
 9651 29bd 19       		.uleb128 0x19
 9652 29be 0C       		.byte	0xc
 9653 29bf 2E       		.byte	0x2e
 9654 29c0 A301     		.2byte	0x1a3
 9655 29c2 FB290000 		.4byte	0x29fb
 9656 29c6 0A       		.uleb128 0xa
 9657 29c7 24090000 		.4byte	.LASF347
 9658 29cb 2E       		.byte	0x2e
 9659 29cc A701     		.2byte	0x1a7
 9660 29ce 9A290000 		.4byte	0x299a
 9661 29d2 00       		.byte	0
 9662 29d3 0A       		.uleb128 0xa
 9663 29d4 BB1F0000 		.4byte	.LASF552
 9664 29d8 2E       		.byte	0x2e
 9665 29d9 AC01     		.2byte	0x1ac
 9666 29db 54170000 		.4byte	0x1754
 9667 29df 04       		.byte	0x4
 9668 29e0 0A       		.uleb128 0xa
 9669 29e1 B5080000 		.4byte	.LASF553
 9670 29e5 2E       		.byte	0x2e
 9671 29e6 B001     		.2byte	0x1b0
 9672 29e8 F7000000 		.4byte	0xf7
 9673 29ec 08       		.byte	0x8
 9674 29ed 09       		.uleb128 0x9
 9675 29ee 63723100 		.ascii	"cr1\000"
 9676 29f2 2E       		.byte	0x2e
 9677 29f3 B401     		.2byte	0x1b4
 9678 29f5 F7000000 		.4byte	0xf7
 9679 29f9 0A       		.byte	0xa
 9680 29fa 00       		.byte	0
 9681 29fb 1A       		.uleb128 0x1a
 9682 29fc 541D0000 		.4byte	.LASF554
 9683 2a00 2E       		.byte	0x2e
 9684 2a01 B501     		.2byte	0x1b5
 9685 2a03 BD290000 		.4byte	0x29bd
 9686 2a07 05       		.uleb128 0x5
 9687 2a08 FB290000 		.4byte	0x29fb
 9688 2a0c 0B       		.uleb128 0xb
 9689 2a0d 04       		.byte	0x4
ARM GAS  C:\Users\mathi\AppData\Local\Temp\ccuMtzkg.s 			page 171


 9690 2a0e 072A0000 		.4byte	0x2a07
 9691 2a12 15       		.uleb128 0x15
 9692 2a13 A7150000 		.4byte	.LASF555
 9693 2a17 2E       		.byte	0x2e
 9694 2a18 F201     		.2byte	0x1f2
 9695 2a1a 0B290000 		.4byte	0x290b
 9696 2a1e 04       		.uleb128 0x4
 9697 2a1f E60F0000 		.4byte	.LASF556
 9698 2a23 2F       		.byte	0x2f
 9699 2a24 FA       		.byte	0xfa
 9700 2a25 292A0000 		.4byte	0x2a29
 9701 2a29 10       		.uleb128 0x10
 9702 2a2a E60F0000 		.4byte	.LASF556
 9703 2a2e 6002     		.2byte	0x260
 9704 2a30 30       		.byte	0x30
 9705 2a31 7701     		.2byte	0x177
 9706 2a33 552B0000 		.4byte	0x2b55
 9707 2a37 0A       		.uleb128 0xa
 9708 2a38 DA130000 		.4byte	.LASF334
 9709 2a3c 30       		.byte	0x30
 9710 2a3d 7B01     		.2byte	0x17b
 9711 2a3f 8D2B0000 		.4byte	0x2b8d
 9712 2a43 00       		.byte	0
 9713 2a44 0A       		.uleb128 0xa
 9714 2a45 EE180000 		.4byte	.LASF335
 9715 2a49 30       		.byte	0x30
 9716 2a4a 7F01     		.2byte	0x17f
 9717 2a4c B0340000 		.4byte	0x34b0
 9718 2a50 04       		.byte	0x4
 9719 2a51 0A       		.uleb128 0xa
 9720 2a52 771D0000 		.4byte	.LASF557
 9721 2a56 30       		.byte	0x30
 9722 2a57 8301     		.2byte	0x183
 9723 2a59 F7000000 		.4byte	0xf7
 9724 2a5d 08       		.byte	0x8
 9725 2a5e 0A       		.uleb128 0xa
 9726 2a5f F21F0000 		.4byte	.LASF558
 9727 2a63 30       		.byte	0x30
 9728 2a64 8701     		.2byte	0x187
 9729 2a66 F7000000 		.4byte	0xf7
 9730 2a6a 0A       		.byte	0xa
 9731 2a6b 09       		.uleb128 0x9
 9732 2a6c 65706300 		.ascii	"epc\000"
 9733 2a70 30       		.byte	0x30
 9734 2a71 8B01     		.2byte	0x18b
 9735 2a73 B6340000 		.4byte	0x34b6
 9736 2a77 0C       		.byte	0xc
 9737 2a78 0A       		.uleb128 0xa
 9738 2a79 55070000 		.4byte	.LASF559
 9739 2a7d 30       		.byte	0x30
 9740 2a7e 9201     		.2byte	0x192
 9741 2a80 CC340000 		.4byte	0x34cc
 9742 2a84 1C       		.byte	0x1c
 9743 2a85 0A       		.uleb128 0xa
 9744 2a86 A20B0000 		.4byte	.LASF560
 9745 2a8a 30       		.byte	0x30
 9746 2a8b 9901     		.2byte	0x199
ARM GAS  C:\Users\mathi\AppData\Local\Temp\ccuMtzkg.s 			page 172


 9747 2a8d CC340000 		.4byte	0x34cc
 9748 2a91 28       		.byte	0x28
 9749 2a92 0A       		.uleb128 0xa
 9750 2a93 600E0000 		.4byte	.LASF561
 9751 2a97 30       		.byte	0x30
 9752 2a98 9D01     		.2byte	0x19d
 9753 2a9a D22B0000 		.4byte	0x2bd2
 9754 2a9e 34       		.byte	0x34
 9755 2a9f 0A       		.uleb128 0xa
 9756 2aa0 65180000 		.4byte	.LASF562
 9757 2aa4 30       		.byte	0x30
 9758 2aa5 A101     		.2byte	0x1a1
 9759 2aa7 ED120000 		.4byte	0x12ed
 9760 2aab 38       		.byte	0x38
 9761 2aac 0A       		.uleb128 0xa
 9762 2aad 2C150000 		.4byte	.LASF563
 9763 2ab1 30       		.byte	0x30
 9764 2ab2 A501     		.2byte	0x1a5
 9765 2ab4 3A000000 		.4byte	0x3a
 9766 2ab8 3C       		.byte	0x3c
 9767 2ab9 0A       		.uleb128 0xa
 9768 2aba AF1A0000 		.4byte	.LASF564
 9769 2abe 30       		.byte	0x30
 9770 2abf A901     		.2byte	0x1a9
 9771 2ac1 522C0000 		.4byte	0x2c52
 9772 2ac5 40       		.byte	0x40
 9773 2ac6 0A       		.uleb128 0xa
 9774 2ac7 33070000 		.4byte	.LASF565
 9775 2acb 30       		.byte	0x30
 9776 2acc AD01     		.2byte	0x1ad
 9777 2ace 241A0000 		.4byte	0x1a24
 9778 2ad2 44       		.byte	0x44
 9779 2ad3 0A       		.uleb128 0xa
 9780 2ad4 45130000 		.4byte	.LASF566
 9781 2ad8 30       		.byte	0x30
 9782 2ad9 B101     		.2byte	0x1b1
 9783 2adb F7000000 		.4byte	0xf7
 9784 2adf 4C       		.byte	0x4c
 9785 2ae0 0A       		.uleb128 0xa
 9786 2ae1 7B130000 		.4byte	.LASF567
 9787 2ae5 30       		.byte	0x30
 9788 2ae6 B501     		.2byte	0x1b5
 9789 2ae8 DC000000 		.4byte	0xdc
 9790 2aec 4E       		.byte	0x4e
 9791 2aed 0A       		.uleb128 0xa
 9792 2aee 9B170000 		.4byte	.LASF568
 9793 2af2 30       		.byte	0x30
 9794 2af3 B901     		.2byte	0x1b9
 9795 2af5 DC000000 		.4byte	0xdc
 9796 2af9 4F       		.byte	0x4f
 9797 2afa 09       		.uleb128 0x9
 9798 2afb 6F746700 		.ascii	"otg\000"
 9799 2aff 30       		.byte	0x30
 9800 2b00 C101     		.2byte	0x1c1
 9801 2b02 DC340000 		.4byte	0x34dc
 9802 2b06 50       		.byte	0x50
 9803 2b07 0A       		.uleb128 0xa
ARM GAS  C:\Users\mathi\AppData\Local\Temp\ccuMtzkg.s 			page 173


 9804 2b08 1E0D0000 		.4byte	.LASF569
 9805 2b0c 30       		.byte	0x30
 9806 2b0d C501     		.2byte	0x1c5
 9807 2b0f E2340000 		.4byte	0x34e2
 9808 2b13 54       		.byte	0x54
 9809 2b14 0A       		.uleb128 0xa
 9810 2b15 161C0000 		.4byte	.LASF570
 9811 2b19 30       		.byte	0x30
 9812 2b1a C901     		.2byte	0x1c9
 9813 2b1c 12010000 		.4byte	0x112
 9814 2b20 58       		.byte	0x58
 9815 2b21 0A       		.uleb128 0xa
 9816 2b22 520C0000 		.4byte	.LASF571
 9817 2b26 30       		.byte	0x30
 9818 2b27 CD01     		.2byte	0x1cd
 9819 2b29 12010000 		.4byte	0x112
 9820 2b2d 5C       		.byte	0x5c
 9821 2b2e 0A       		.uleb128 0xa
 9822 2b2f 17080000 		.4byte	.LASF572
 9823 2b33 30       		.byte	0x30
 9824 2b34 D101     		.2byte	0x1d1
 9825 2b36 EF020000 		.4byte	0x2ef
 9826 2b3a 60       		.byte	0x60
 9827 2b3b 09       		.uleb128 0x9
 9828 2b3c 747200   		.ascii	"tr\000"
 9829 2b3f 30       		.byte	0x30
 9830 2b40 D601     		.2byte	0x1d6
 9831 2b42 EF020000 		.4byte	0x2ef
 9832 2b46 64       		.byte	0x64
 9833 2b47 0A       		.uleb128 0xa
 9834 2b48 63120000 		.4byte	.LASF573
 9835 2b4c 30       		.byte	0x30
 9836 2b4d DA01     		.2byte	0x1da
 9837 2b4f E8340000 		.4byte	0x34e8
 9838 2b53 68       		.byte	0x68
 9839 2b54 00       		.byte	0
 9840 2b55 04       		.uleb128 0x4
 9841 2b56 91090000 		.4byte	.LASF574
 9842 2b5a 2F       		.byte	0x2f
 9843 2b5b FF       		.byte	0xff
 9844 2b5c DC000000 		.4byte	0xdc
 9845 2b60 24       		.uleb128 0x24
 9846 2b61 07       		.byte	0x7
 9847 2b62 01       		.byte	0x1
 9848 2b63 70000000 		.4byte	0x70
 9849 2b67 2F       		.byte	0x2f
 9850 2b68 0401     		.2byte	0x104
 9851 2b6a 8D2B0000 		.4byte	0x2b8d
 9852 2b6e 22       		.uleb128 0x22
 9853 2b6f CA200000 		.4byte	.LASF575
 9854 2b73 00       		.byte	0
 9855 2b74 22       		.uleb128 0x22
 9856 2b75 00000000 		.4byte	.LASF576
 9857 2b79 01       		.byte	0x1
 9858 2b7a 22       		.uleb128 0x22
 9859 2b7b 64110000 		.4byte	.LASF577
 9860 2b7f 02       		.byte	0x2
ARM GAS  C:\Users\mathi\AppData\Local\Temp\ccuMtzkg.s 			page 174


 9861 2b80 22       		.uleb128 0x22
 9862 2b81 62160000 		.4byte	.LASF578
 9863 2b85 03       		.byte	0x3
 9864 2b86 22       		.uleb128 0x22
 9865 2b87 4D080000 		.4byte	.LASF579
 9866 2b8b 04       		.byte	0x4
 9867 2b8c 00       		.byte	0
 9868 2b8d 1A       		.uleb128 0x1a
 9869 2b8e CB210000 		.4byte	.LASF580
 9870 2b92 2F       		.byte	0x2f
 9871 2b93 0A01     		.2byte	0x10a
 9872 2b95 602B0000 		.4byte	0x2b60
 9873 2b99 24       		.uleb128 0x24
 9874 2b9a 07       		.byte	0x7
 9875 2b9b 01       		.byte	0x1
 9876 2b9c 70000000 		.4byte	0x70
 9877 2ba0 2F       		.byte	0x2f
 9878 2ba1 1801     		.2byte	0x118
 9879 2ba3 D22B0000 		.4byte	0x2bd2
 9880 2ba7 22       		.uleb128 0x22
 9881 2ba8 821A0000 		.4byte	.LASF581
 9882 2bac 00       		.byte	0
 9883 2bad 22       		.uleb128 0x22
 9884 2bae 550E0000 		.4byte	.LASF582
 9885 2bb2 01       		.byte	0x1
 9886 2bb3 22       		.uleb128 0x22
 9887 2bb4 51180000 		.4byte	.LASF583
 9888 2bb8 02       		.byte	0x2
 9889 2bb9 22       		.uleb128 0x22
 9890 2bba 06140000 		.4byte	.LASF584
 9891 2bbe 03       		.byte	0x3
 9892 2bbf 22       		.uleb128 0x22
 9893 2bc0 30130000 		.4byte	.LASF585
 9894 2bc4 04       		.byte	0x4
 9895 2bc5 22       		.uleb128 0x22
 9896 2bc6 590F0000 		.4byte	.LASF586
 9897 2bca 05       		.byte	0x5
 9898 2bcb 22       		.uleb128 0x22
 9899 2bcc EA0D0000 		.4byte	.LASF587
 9900 2bd0 06       		.byte	0x6
 9901 2bd1 00       		.byte	0
 9902 2bd2 1A       		.uleb128 0x1a
 9903 2bd3 7F0F0000 		.4byte	.LASF588
 9904 2bd7 2F       		.byte	0x2f
 9905 2bd8 2001     		.2byte	0x120
 9906 2bda 992B0000 		.4byte	0x2b99
 9907 2bde 24       		.uleb128 0x24
 9908 2bdf 07       		.byte	0x7
 9909 2be0 01       		.byte	0x1
 9910 2be1 70000000 		.4byte	0x70
 9911 2be5 2F       		.byte	0x2f
 9912 2be6 2501     		.2byte	0x125
 9913 2be8 112C0000 		.4byte	0x2c11
 9914 2bec 22       		.uleb128 0x22
 9915 2bed 021A0000 		.4byte	.LASF589
 9916 2bf1 00       		.byte	0
 9917 2bf2 22       		.uleb128 0x22
ARM GAS  C:\Users\mathi\AppData\Local\Temp\ccuMtzkg.s 			page 175


 9918 2bf3 BB160000 		.4byte	.LASF590
 9919 2bf7 01       		.byte	0x1
 9920 2bf8 22       		.uleb128 0x22
 9921 2bf9 DE110000 		.4byte	.LASF591
 9922 2bfd 02       		.byte	0x2
 9923 2bfe 22       		.uleb128 0x22
 9924 2bff A3120000 		.4byte	.LASF592
 9925 2c03 03       		.byte	0x3
 9926 2c04 22       		.uleb128 0x22
 9927 2c05 311F0000 		.4byte	.LASF593
 9928 2c09 04       		.byte	0x4
 9929 2c0a 22       		.uleb128 0x22
 9930 2c0b B4110000 		.4byte	.LASF594
 9931 2c0f 05       		.byte	0x5
 9932 2c10 00       		.byte	0
 9933 2c11 1A       		.uleb128 0x1a
 9934 2c12 F3160000 		.4byte	.LASF595
 9935 2c16 2F       		.byte	0x2f
 9936 2c17 2C01     		.2byte	0x12c
 9937 2c19 DE2B0000 		.4byte	0x2bde
 9938 2c1d 19       		.uleb128 0x19
 9939 2c1e 08       		.byte	0x8
 9940 2c1f 2F       		.byte	0x2f
 9941 2c20 3101     		.2byte	0x131
 9942 2c22 412C0000 		.4byte	0x2c41
 9943 2c26 0A       		.uleb128 0xa
 9944 2c27 65210000 		.4byte	.LASF596
 9945 2c2b 2F       		.byte	0x2f
 9946 2c2c 3501     		.2byte	0x135
 9947 2c2e 3A000000 		.4byte	0x3a
 9948 2c32 00       		.byte	0
 9949 2c33 0A       		.uleb128 0xa
 9950 2c34 DC040000 		.4byte	.LASF597
 9951 2c38 2F       		.byte	0x2f
 9952 2c39 3901     		.2byte	0x139
 9953 2c3b 22130000 		.4byte	0x1322
 9954 2c3f 04       		.byte	0x4
 9955 2c40 00       		.byte	0
 9956 2c41 1A       		.uleb128 0x1a
 9957 2c42 5F130000 		.4byte	.LASF598
 9958 2c46 2F       		.byte	0x2f
 9959 2c47 3A01     		.2byte	0x13a
 9960 2c49 1D2C0000 		.4byte	0x2c1d
 9961 2c4d 05       		.uleb128 0x5
 9962 2c4e 412C0000 		.4byte	0x2c41
 9963 2c52 1A       		.uleb128 0x1a
 9964 2c53 07210000 		.4byte	.LASF599
 9965 2c57 2F       		.byte	0x2f
 9966 2c58 4201     		.2byte	0x142
 9967 2c5a 5E2C0000 		.4byte	0x2c5e
 9968 2c5e 0B       		.uleb128 0xb
 9969 2c5f 04       		.byte	0x4
 9970 2c60 642C0000 		.4byte	0x2c64
 9971 2c64 0D       		.uleb128 0xd
 9972 2c65 6F2C0000 		.4byte	0x2c6f
 9973 2c69 0E       		.uleb128 0xe
 9974 2c6a 6F2C0000 		.4byte	0x2c6f
ARM GAS  C:\Users\mathi\AppData\Local\Temp\ccuMtzkg.s 			page 176


 9975 2c6e 00       		.byte	0
 9976 2c6f 0B       		.uleb128 0xb
 9977 2c70 04       		.byte	0x4
 9978 2c71 1E2A0000 		.4byte	0x2a1e
 9979 2c75 1A       		.uleb128 0x1a
 9980 2c76 31050000 		.4byte	.LASF600
 9981 2c7a 2F       		.byte	0x2f
 9982 2c7b 4B01     		.2byte	0x14b
 9983 2c7d 812C0000 		.4byte	0x2c81
 9984 2c81 0B       		.uleb128 0xb
 9985 2c82 04       		.byte	0x4
 9986 2c83 872C0000 		.4byte	0x2c87
 9987 2c87 0D       		.uleb128 0xd
 9988 2c88 972C0000 		.4byte	0x2c97
 9989 2c8c 0E       		.uleb128 0xe
 9990 2c8d 6F2C0000 		.4byte	0x2c6f
 9991 2c91 0E       		.uleb128 0xe
 9992 2c92 552B0000 		.4byte	0x2b55
 9993 2c96 00       		.byte	0
 9994 2c97 1A       		.uleb128 0x1a
 9995 2c98 9B0A0000 		.4byte	.LASF601
 9996 2c9c 2F       		.byte	0x2f
 9997 2c9d 5401     		.2byte	0x154
 9998 2c9f A32C0000 		.4byte	0x2ca3
 9999 2ca3 0B       		.uleb128 0xb
 10000 2ca4 04       		.byte	0x4
 10001 2ca5 A92C0000 		.4byte	0x2ca9
 10002 2ca9 0D       		.uleb128 0xd
 10003 2caa B92C0000 		.4byte	0x2cb9
 10004 2cae 0E       		.uleb128 0xe
 10005 2caf 6F2C0000 		.4byte	0x2c6f
 10006 2cb3 0E       		.uleb128 0xe
 10007 2cb4 112C0000 		.4byte	0x2c11
 10008 2cb8 00       		.byte	0
 10009 2cb9 1A       		.uleb128 0x1a
 10010 2cba 95060000 		.4byte	.LASF602
 10011 2cbe 2F       		.byte	0x2f
 10012 2cbf 6001     		.2byte	0x160
 10013 2cc1 C52C0000 		.4byte	0x2cc5
 10014 2cc5 0B       		.uleb128 0xb
 10015 2cc6 04       		.byte	0x4
 10016 2cc7 CB2C0000 		.4byte	0x2ccb
 10017 2ccb 20       		.uleb128 0x20
 10018 2ccc 09150000 		.4byte	0x1509
 10019 2cd0 DA2C0000 		.4byte	0x2cda
 10020 2cd4 0E       		.uleb128 0xe
 10021 2cd5 6F2C0000 		.4byte	0x2c6f
 10022 2cd9 00       		.byte	0
 10023 2cda 1A       		.uleb128 0x1a
 10024 2cdb 380E0000 		.4byte	.LASF603
 10025 2cdf 2F       		.byte	0x2f
 10026 2ce0 6501     		.2byte	0x165
 10027 2ce2 E62C0000 		.4byte	0x2ce6
 10028 2ce6 0B       		.uleb128 0xb
 10029 2ce7 04       		.byte	0x4
 10030 2ce8 EC2C0000 		.4byte	0x2cec
 10031 2cec 20       		.uleb128 0x20
ARM GAS  C:\Users\mathi\AppData\Local\Temp\ccuMtzkg.s 			page 177


 10032 2ced 0A2D0000 		.4byte	0x2d0a
 10033 2cf1 0A2D0000 		.4byte	0x2d0a
 10034 2cf5 0E       		.uleb128 0xe
 10035 2cf6 6F2C0000 		.4byte	0x2c6f
 10036 2cfa 0E       		.uleb128 0xe
 10037 2cfb DC000000 		.4byte	0xdc
 10038 2cff 0E       		.uleb128 0xe
 10039 2d00 DC000000 		.4byte	0xdc
 10040 2d04 0E       		.uleb128 0xe
 10041 2d05 F7000000 		.4byte	0xf7
 10042 2d09 00       		.byte	0
 10043 2d0a 0B       		.uleb128 0xb
 10044 2d0b 04       		.byte	0x4
 10045 2d0c 4D2C0000 		.4byte	0x2c4d
 10046 2d10 17       		.uleb128 0x17
 10047 2d11 20       		.byte	0x20
 10048 2d12 31       		.byte	0x31
 10049 2d13 35       		.byte	0x35
 10050 2d14 792D0000 		.4byte	0x2d79
 10051 2d18 08       		.uleb128 0x8
 10052 2d19 DE030000 		.4byte	.LASF604
 10053 2d1d 31       		.byte	0x31
 10054 2d1e 36       		.byte	0x36
 10055 2d1f 1D010000 		.4byte	0x11d
 10056 2d23 00       		.byte	0
 10057 2d24 08       		.uleb128 0x8
 10058 2d25 900C0000 		.4byte	.LASF605
 10059 2d29 31       		.byte	0x31
 10060 2d2a 38       		.byte	0x38
 10061 2d2b 1D010000 		.4byte	0x11d
 10062 2d2f 04       		.byte	0x4
 10063 2d30 08       		.uleb128 0x8
 10064 2d31 5B030000 		.4byte	.LASF606
 10065 2d35 31       		.byte	0x31
 10066 2d36 39       		.byte	0x39
 10067 2d37 1D010000 		.4byte	0x11d
 10068 2d3b 08       		.byte	0x8
 10069 2d3c 08       		.uleb128 0x8
 10070 2d3d E5180000 		.4byte	.LASF607
 10071 2d41 31       		.byte	0x31
 10072 2d42 3A       		.byte	0x3a
 10073 2d43 1D010000 		.4byte	0x11d
 10074 2d47 0C       		.byte	0xc
 10075 2d48 08       		.uleb128 0x8
 10076 2d49 D7110000 		.4byte	.LASF608
 10077 2d4d 31       		.byte	0x31
 10078 2d4e 3C       		.byte	0x3c
 10079 2d4f 1D010000 		.4byte	0x11d
 10080 2d53 10       		.byte	0x10
 10081 2d54 08       		.uleb128 0x8
 10082 2d55 BC0C0000 		.4byte	.LASF609
 10083 2d59 31       		.byte	0x31
 10084 2d5a 3E       		.byte	0x3e
 10085 2d5b 1D010000 		.4byte	0x11d
 10086 2d5f 14       		.byte	0x14
 10087 2d60 08       		.uleb128 0x8
 10088 2d61 C40C0000 		.4byte	.LASF610
ARM GAS  C:\Users\mathi\AppData\Local\Temp\ccuMtzkg.s 			page 178


 10089 2d65 31       		.byte	0x31
 10090 2d66 3F       		.byte	0x3f
 10091 2d67 1D010000 		.4byte	0x11d
 10092 2d6b 18       		.byte	0x18
 10093 2d6c 08       		.uleb128 0x8
 10094 2d6d 7E040000 		.4byte	.LASF611
 10095 2d71 31       		.byte	0x31
 10096 2d72 40       		.byte	0x40
 10097 2d73 1D010000 		.4byte	0x11d
 10098 2d77 1C       		.byte	0x1c
 10099 2d78 00       		.byte	0
 10100 2d79 04       		.uleb128 0x4
 10101 2d7a 6D180000 		.4byte	.LASF612
 10102 2d7e 31       		.byte	0x31
 10103 2d7f 41       		.byte	0x41
 10104 2d80 102D0000 		.4byte	0x2d10
 10105 2d84 17       		.uleb128 0x17
 10106 2d85 20       		.byte	0x20
 10107 2d86 31       		.byte	0x31
 10108 2d87 46       		.byte	0x46
 10109 2d88 ED2D0000 		.4byte	0x2ded
 10110 2d8c 08       		.uleb128 0x8
 10111 2d8d 0C0D0000 		.4byte	.LASF613
 10112 2d91 31       		.byte	0x31
 10113 2d92 47       		.byte	0x47
 10114 2d93 1D010000 		.4byte	0x11d
 10115 2d97 00       		.byte	0
 10116 2d98 08       		.uleb128 0x8
 10117 2d99 D30F0000 		.4byte	.LASF614
 10118 2d9d 31       		.byte	0x31
 10119 2d9e 49       		.byte	0x49
 10120 2d9f 1D010000 		.4byte	0x11d
 10121 2da3 04       		.byte	0x4
 10122 2da4 08       		.uleb128 0x8
 10123 2da5 A91C0000 		.4byte	.LASF615
 10124 2da9 31       		.byte	0x31
 10125 2daa 4A       		.byte	0x4a
 10126 2dab 1D010000 		.4byte	0x11d
 10127 2daf 08       		.byte	0x8
 10128 2db0 08       		.uleb128 0x8
 10129 2db1 03100000 		.4byte	.LASF616
 10130 2db5 31       		.byte	0x31
 10131 2db6 4C       		.byte	0x4c
 10132 2db7 1D010000 		.4byte	0x11d
 10133 2dbb 0C       		.byte	0xc
 10134 2dbc 08       		.uleb128 0x8
 10135 2dbd C0140000 		.4byte	.LASF617
 10136 2dc1 31       		.byte	0x31
 10137 2dc2 4D       		.byte	0x4d
 10138 2dc3 1D010000 		.4byte	0x11d
 10139 2dc7 10       		.byte	0x10
 10140 2dc8 08       		.uleb128 0x8
 10141 2dc9 BC0C0000 		.4byte	.LASF609
 10142 2dcd 31       		.byte	0x31
 10143 2dce 4F       		.byte	0x4f
 10144 2dcf 1D010000 		.4byte	0x11d
 10145 2dd3 14       		.byte	0x14
ARM GAS  C:\Users\mathi\AppData\Local\Temp\ccuMtzkg.s 			page 179


 10146 2dd4 08       		.uleb128 0x8
 10147 2dd5 44070000 		.4byte	.LASF618
 10148 2dd9 31       		.byte	0x31
 10149 2dda 50       		.byte	0x50
 10150 2ddb 1D010000 		.4byte	0x11d
 10151 2ddf 18       		.byte	0x18
 10152 2de0 08       		.uleb128 0x8
 10153 2de1 921C0000 		.4byte	.LASF619
 10154 2de5 31       		.byte	0x31
 10155 2de6 52       		.byte	0x52
 10156 2de7 1D010000 		.4byte	0x11d
 10157 2deb 1C       		.byte	0x1c
 10158 2dec 00       		.byte	0
 10159 2ded 04       		.uleb128 0x4
 10160 2dee 58080000 		.4byte	.LASF620
 10161 2df2 31       		.byte	0x31
 10162 2df3 53       		.byte	0x53
 10163 2df4 842D0000 		.4byte	0x2d84
 10164 2df8 17       		.uleb128 0x17
 10165 2df9 20       		.byte	0x20
 10166 2dfa 31       		.byte	0x31
 10167 2dfb 58       		.byte	0x58
 10168 2dfc 612E0000 		.4byte	0x2e61
 10169 2e00 08       		.uleb128 0x8
 10170 2e01 DD180000 		.4byte	.LASF621
 10171 2e05 31       		.byte	0x31
 10172 2e06 59       		.byte	0x59
 10173 2e07 1D010000 		.4byte	0x11d
 10174 2e0b 00       		.byte	0
 10175 2e0c 08       		.uleb128 0x8
 10176 2e0d D30F0000 		.4byte	.LASF614
 10177 2e11 31       		.byte	0x31
 10178 2e12 5B       		.byte	0x5b
 10179 2e13 1D010000 		.4byte	0x11d
 10180 2e17 04       		.byte	0x4
 10181 2e18 08       		.uleb128 0x8
 10182 2e19 DB150000 		.4byte	.LASF622
 10183 2e1d 31       		.byte	0x31
 10184 2e1e 5C       		.byte	0x5c
 10185 2e1f 1D010000 		.4byte	0x11d
 10186 2e23 08       		.byte	0x8
 10187 2e24 08       		.uleb128 0x8
 10188 2e25 03100000 		.4byte	.LASF616
 10189 2e29 31       		.byte	0x31
 10190 2e2a 5E       		.byte	0x5e
 10191 2e2b 1D010000 		.4byte	0x11d
 10192 2e2f 0C       		.byte	0xc
 10193 2e30 08       		.uleb128 0x8
 10194 2e31 C51D0000 		.4byte	.LASF623
 10195 2e35 31       		.byte	0x31
 10196 2e36 5F       		.byte	0x5f
 10197 2e37 1D010000 		.4byte	0x11d
 10198 2e3b 10       		.byte	0x10
 10199 2e3c 08       		.uleb128 0x8
 10200 2e3d BC0C0000 		.4byte	.LASF609
 10201 2e41 31       		.byte	0x31
 10202 2e42 61       		.byte	0x61
ARM GAS  C:\Users\mathi\AppData\Local\Temp\ccuMtzkg.s 			page 180


 10203 2e43 1D010000 		.4byte	0x11d
 10204 2e47 14       		.byte	0x14
 10205 2e48 08       		.uleb128 0x8
 10206 2e49 C40C0000 		.4byte	.LASF610
 10207 2e4d 31       		.byte	0x31
 10208 2e4e 62       		.byte	0x62
 10209 2e4f 1D010000 		.4byte	0x11d
 10210 2e53 18       		.byte	0x18
 10211 2e54 08       		.uleb128 0x8
 10212 2e55 921C0000 		.4byte	.LASF619
 10213 2e59 31       		.byte	0x31
 10214 2e5a 63       		.byte	0x63
 10215 2e5b 1D010000 		.4byte	0x11d
 10216 2e5f 1C       		.byte	0x1c
 10217 2e60 00       		.byte	0
 10218 2e61 04       		.uleb128 0x4
 10219 2e62 E6070000 		.4byte	.LASF624
 10220 2e66 31       		.byte	0x31
 10221 2e67 64       		.byte	0x64
 10222 2e68 F82D0000 		.4byte	0x2df8
 10223 2e6c 26       		.uleb128 0x26
 10224 2e6d 00100100 		.4byte	0x11000
 10225 2e71 31       		.byte	0x31
 10226 2e72 69       		.byte	0x69
 10227 2e73 49310000 		.4byte	0x3149
 10228 2e77 08       		.uleb128 0x8
 10229 2e78 20050000 		.4byte	.LASF625
 10230 2e7c 31       		.byte	0x31
 10231 2e7d 6A       		.byte	0x6a
 10232 2e7e 1D010000 		.4byte	0x11d
 10233 2e82 00       		.byte	0
 10234 2e83 08       		.uleb128 0x8
 10235 2e84 7E0B0000 		.4byte	.LASF626
 10236 2e88 31       		.byte	0x31
 10237 2e89 6B       		.byte	0x6b
 10238 2e8a 1D010000 		.4byte	0x11d
 10239 2e8e 04       		.byte	0x4
 10240 2e8f 08       		.uleb128 0x8
 10241 2e90 7A070000 		.4byte	.LASF627
 10242 2e94 31       		.byte	0x31
 10243 2e95 6C       		.byte	0x6c
 10244 2e96 1D010000 		.4byte	0x11d
 10245 2e9a 08       		.byte	0x8
 10246 2e9b 08       		.uleb128 0x8
 10247 2e9c 15210000 		.4byte	.LASF628
 10248 2ea0 31       		.byte	0x31
 10249 2ea1 6D       		.byte	0x6d
 10250 2ea2 1D010000 		.4byte	0x11d
 10251 2ea6 0C       		.byte	0xc
 10252 2ea7 08       		.uleb128 0x8
 10253 2ea8 74110000 		.4byte	.LASF629
 10254 2eac 31       		.byte	0x31
 10255 2ead 6E       		.byte	0x6e
 10256 2eae 1D010000 		.4byte	0x11d
 10257 2eb2 10       		.byte	0x10
 10258 2eb3 08       		.uleb128 0x8
 10259 2eb4 FA0A0000 		.4byte	.LASF630
ARM GAS  C:\Users\mathi\AppData\Local\Temp\ccuMtzkg.s 			page 181


 10260 2eb8 31       		.byte	0x31
 10261 2eb9 6F       		.byte	0x6f
 10262 2eba 1D010000 		.4byte	0x11d
 10263 2ebe 14       		.byte	0x14
 10264 2ebf 08       		.uleb128 0x8
 10265 2ec0 8A170000 		.4byte	.LASF631
 10266 2ec4 31       		.byte	0x31
 10267 2ec5 70       		.byte	0x70
 10268 2ec6 1D010000 		.4byte	0x11d
 10269 2eca 18       		.byte	0x18
 10270 2ecb 08       		.uleb128 0x8
 10271 2ecc 01080000 		.4byte	.LASF632
 10272 2ed0 31       		.byte	0x31
 10273 2ed1 71       		.byte	0x71
 10274 2ed2 1D010000 		.4byte	0x11d
 10275 2ed6 1C       		.byte	0x1c
 10276 2ed7 08       		.uleb128 0x8
 10277 2ed8 F9070000 		.4byte	.LASF633
 10278 2edc 31       		.byte	0x31
 10279 2edd 73       		.byte	0x73
 10280 2ede 1D010000 		.4byte	0x11d
 10281 2ee2 20       		.byte	0x20
 10282 2ee3 08       		.uleb128 0x8
 10283 2ee4 3F170000 		.4byte	.LASF634
 10284 2ee8 31       		.byte	0x31
 10285 2ee9 75       		.byte	0x75
 10286 2eea 1D010000 		.4byte	0x11d
 10287 2eee 24       		.byte	0x24
 10288 2eef 08       		.uleb128 0x8
 10289 2ef0 6F000000 		.4byte	.LASF635
 10290 2ef4 31       		.byte	0x31
 10291 2ef5 76       		.byte	0x76
 10292 2ef6 1D010000 		.4byte	0x11d
 10293 2efa 28       		.byte	0x28
 10294 2efb 08       		.uleb128 0x8
 10295 2efc 92170000 		.4byte	.LASF636
 10296 2f00 31       		.byte	0x31
 10297 2f01 78       		.byte	0x78
 10298 2f02 1D010000 		.4byte	0x11d
 10299 2f06 2C       		.byte	0x2c
 10300 2f07 08       		.uleb128 0x8
 10301 2f08 B60D0000 		.4byte	.LASF637
 10302 2f0c 31       		.byte	0x31
 10303 2f0d 7A       		.byte	0x7a
 10304 2f0e 1D010000 		.4byte	0x11d
 10305 2f12 30       		.byte	0x30
 10306 2f13 08       		.uleb128 0x8
 10307 2f14 BE0D0000 		.4byte	.LASF638
 10308 2f18 31       		.byte	0x31
 10309 2f19 7B       		.byte	0x7b
 10310 2f1a 1D010000 		.4byte	0x11d
 10311 2f1e 34       		.byte	0x34
 10312 2f1f 08       		.uleb128 0x8
 10313 2f20 A0020000 		.4byte	.LASF639
 10314 2f24 31       		.byte	0x31
 10315 2f25 7C       		.byte	0x7c
 10316 2f26 1D010000 		.4byte	0x11d
ARM GAS  C:\Users\mathi\AppData\Local\Temp\ccuMtzkg.s 			page 182


 10317 2f2a 38       		.byte	0x38
 10318 2f2b 18       		.uleb128 0x18
 10319 2f2c 43494400 		.ascii	"CID\000"
 10320 2f30 31       		.byte	0x31
 10321 2f31 7D       		.byte	0x7d
 10322 2f32 1D010000 		.4byte	0x11d
 10323 2f36 3C       		.byte	0x3c
 10324 2f37 08       		.uleb128 0x8
 10325 2f38 D80E0000 		.4byte	.LASF640
 10326 2f3c 31       		.byte	0x31
 10327 2f3d 7E       		.byte	0x7e
 10328 2f3e 59310000 		.4byte	0x3159
 10329 2f42 40       		.byte	0x40
 10330 2f43 27       		.uleb128 0x27
 10331 2f44 741E0000 		.4byte	.LASF641
 10332 2f48 31       		.byte	0x31
 10333 2f49 7F       		.byte	0x7f
 10334 2f4a 1D010000 		.4byte	0x11d
 10335 2f4e 0001     		.2byte	0x100
 10336 2f50 27       		.uleb128 0x27
 10337 2f51 E6020000 		.4byte	.LASF642
 10338 2f55 31       		.byte	0x31
 10339 2f56 81       		.byte	0x81
 10340 2f57 E90C0000 		.4byte	0xce9
 10341 2f5b 0401     		.2byte	0x104
 10342 2f5d 27       		.uleb128 0x27
 10343 2f5e 82120000 		.4byte	.LASF643
 10344 2f62 31       		.byte	0x31
 10345 2f63 83       		.byte	0x83
 10346 2f64 6E310000 		.4byte	0x316e
 10347 2f68 4001     		.2byte	0x140
 10348 2f6a 27       		.uleb128 0x27
 10349 2f6b 8F150000 		.4byte	.LASF644
 10350 2f6f 31       		.byte	0x31
 10351 2f70 84       		.byte	0x84
 10352 2f71 1D010000 		.4byte	0x11d
 10353 2f75 0004     		.2byte	0x400
 10354 2f77 27       		.uleb128 0x27
 10355 2f78 B3200000 		.4byte	.LASF645
 10356 2f7c 31       		.byte	0x31
 10357 2f7d 85       		.byte	0x85
 10358 2f7e 1D010000 		.4byte	0x11d
 10359 2f82 0404     		.2byte	0x404
 10360 2f84 27       		.uleb128 0x27
 10361 2f85 A8040000 		.4byte	.LASF646
 10362 2f89 31       		.byte	0x31
 10363 2f8a 86       		.byte	0x86
 10364 2f8b 1D010000 		.4byte	0x11d
 10365 2f8f 0804     		.2byte	0x408
 10366 2f91 27       		.uleb128 0x27
 10367 2f92 FC1D0000 		.4byte	.LASF647
 10368 2f96 31       		.byte	0x31
 10369 2f97 88       		.byte	0x88
 10370 2f98 1D010000 		.4byte	0x11d
 10371 2f9c 0C04     		.2byte	0x40c
 10372 2f9e 27       		.uleb128 0x27
 10373 2f9f A5030000 		.4byte	.LASF648
ARM GAS  C:\Users\mathi\AppData\Local\Temp\ccuMtzkg.s 			page 183


 10374 2fa3 31       		.byte	0x31
 10375 2fa4 89       		.byte	0x89
 10376 2fa5 1D010000 		.4byte	0x11d
 10377 2fa9 1004     		.2byte	0x410
 10378 2fab 27       		.uleb128 0x27
 10379 2fac 9D040000 		.4byte	.LASF649
 10380 2fb0 31       		.byte	0x31
 10381 2fb1 8B       		.byte	0x8b
 10382 2fb2 1D010000 		.4byte	0x11d
 10383 2fb6 1404     		.2byte	0x414
 10384 2fb8 27       		.uleb128 0x27
 10385 2fb9 990B0000 		.4byte	.LASF650
 10386 2fbd 31       		.byte	0x31
 10387 2fbe 8D       		.byte	0x8d
 10388 2fbf 1D010000 		.4byte	0x11d
 10389 2fc3 1804     		.2byte	0x418
 10390 2fc5 27       		.uleb128 0x27
 10391 2fc6 CB190000 		.4byte	.LASF651
 10392 2fca 31       		.byte	0x31
 10393 2fcb 8F       		.byte	0x8f
 10394 2fcc 83310000 		.4byte	0x3183
 10395 2fd0 1C04     		.2byte	0x41c
 10396 2fd2 27       		.uleb128 0x27
 10397 2fd3 47030000 		.4byte	.LASF652
 10398 2fd7 31       		.byte	0x31
 10399 2fd8 90       		.byte	0x90
 10400 2fd9 1D010000 		.4byte	0x11d
 10401 2fdd 4004     		.2byte	0x440
 10402 2fdf 27       		.uleb128 0x27
 10403 2fe0 931B0000 		.4byte	.LASF653
 10404 2fe4 31       		.byte	0x31
 10405 2fe5 92       		.byte	0x92
 10406 2fe6 98310000 		.4byte	0x3198
 10407 2fea 4404     		.2byte	0x444
 10408 2fec 28       		.uleb128 0x28
 10409 2fed 686300   		.ascii	"hc\000"
 10410 2ff0 31       		.byte	0x31
 10411 2ff1 93       		.byte	0x93
 10412 2ff2 9D310000 		.4byte	0x319d
 10413 2ff6 0005     		.2byte	0x500
 10414 2ff8 27       		.uleb128 0x27
 10415 2ff9 3B1E0000 		.4byte	.LASF654
 10416 2ffd 31       		.byte	0x31
 10417 2ffe 94       		.byte	0x94
 10418 2fff BD310000 		.4byte	0x31bd
 10419 3003 0007     		.2byte	0x700
 10420 3005 27       		.uleb128 0x27
 10421 3006 6E170000 		.4byte	.LASF655
 10422 300a 31       		.byte	0x31
 10423 300b 95       		.byte	0x95
 10424 300c 1D010000 		.4byte	0x11d
 10425 3010 0008     		.2byte	0x800
 10426 3012 27       		.uleb128 0x27
 10427 3013 081F0000 		.4byte	.LASF656
 10428 3017 31       		.byte	0x31
 10429 3018 96       		.byte	0x96
 10430 3019 1D010000 		.4byte	0x11d
ARM GAS  C:\Users\mathi\AppData\Local\Temp\ccuMtzkg.s 			page 184


 10431 301d 0408     		.2byte	0x804
 10432 301f 27       		.uleb128 0x27
 10433 3020 EF050000 		.4byte	.LASF657
 10434 3024 31       		.byte	0x31
 10435 3025 97       		.byte	0x97
 10436 3026 1D010000 		.4byte	0x11d
 10437 302a 0808     		.2byte	0x808
 10438 302c 27       		.uleb128 0x27
 10439 302d 0E050000 		.4byte	.LASF658
 10440 3031 31       		.byte	0x31
 10441 3032 98       		.byte	0x98
 10442 3033 1D010000 		.4byte	0x11d
 10443 3037 0C08     		.2byte	0x80c
 10444 3039 27       		.uleb128 0x27
 10445 303a 760B0000 		.4byte	.LASF659
 10446 303e 31       		.byte	0x31
 10447 303f 99       		.byte	0x99
 10448 3040 1D010000 		.4byte	0x11d
 10449 3044 1008     		.2byte	0x810
 10450 3046 27       		.uleb128 0x27
 10451 3047 CA1C0000 		.4byte	.LASF660
 10452 304b 31       		.byte	0x31
 10453 304c 9B       		.byte	0x9b
 10454 304d 1D010000 		.4byte	0x11d
 10455 3051 1408     		.2byte	0x814
 10456 3053 27       		.uleb128 0x27
 10457 3054 4E1D0000 		.4byte	.LASF661
 10458 3058 31       		.byte	0x31
 10459 3059 9D       		.byte	0x9d
 10460 305a 1D010000 		.4byte	0x11d
 10461 305e 1808     		.2byte	0x818
 10462 3060 27       		.uleb128 0x27
 10463 3061 571A0000 		.4byte	.LASF662
 10464 3065 31       		.byte	0x31
 10465 3066 9F       		.byte	0x9f
 10466 3067 1D010000 		.4byte	0x11d
 10467 306b 1C08     		.2byte	0x81c
 10468 306d 27       		.uleb128 0x27
 10469 306e 4D060000 		.4byte	.LASF663
 10470 3072 31       		.byte	0x31
 10471 3073 A1       		.byte	0xa1
 10472 3074 1D010000 		.4byte	0x11d
 10473 3078 2008     		.2byte	0x820
 10474 307a 27       		.uleb128 0x27
 10475 307b 6C050000 		.4byte	.LASF664
 10476 307f 31       		.byte	0x31
 10477 3080 A2       		.byte	0xa2
 10478 3081 1D010000 		.4byte	0x11d
 10479 3085 2408     		.2byte	0x824
 10480 3087 27       		.uleb128 0x27
 10481 3088 73170000 		.4byte	.LASF665
 10482 308c 31       		.byte	0x31
 10483 308d A3       		.byte	0xa3
 10484 308e 1D010000 		.4byte	0x11d
 10485 3092 2808     		.2byte	0x828
 10486 3094 27       		.uleb128 0x27
 10487 3095 C60D0000 		.4byte	.LASF666
ARM GAS  C:\Users\mathi\AppData\Local\Temp\ccuMtzkg.s 			page 185


 10488 3099 31       		.byte	0x31
 10489 309a A5       		.byte	0xa5
 10490 309b 1D010000 		.4byte	0x11d
 10491 309f 2C08     		.2byte	0x82c
 10492 30a1 27       		.uleb128 0x27
 10493 30a2 DA060000 		.4byte	.LASF667
 10494 30a6 31       		.byte	0x31
 10495 30a7 A7       		.byte	0xa7
 10496 30a8 1D010000 		.4byte	0x11d
 10497 30ac 3008     		.2byte	0x830
 10498 30ae 27       		.uleb128 0x27
 10499 30af 010D0000 		.4byte	.LASF668
 10500 30b3 31       		.byte	0x31
 10501 30b4 A8       		.byte	0xa8
 10502 30b5 1D010000 		.4byte	0x11d
 10503 30b9 3408     		.2byte	0x834
 10504 30bb 27       		.uleb128 0x27
 10505 30bc ED060000 		.4byte	.LASF669
 10506 30c0 31       		.byte	0x31
 10507 30c1 AA       		.byte	0xaa
 10508 30c2 1D010000 		.4byte	0x11d
 10509 30c6 3808     		.2byte	0x838
 10510 30c8 27       		.uleb128 0x27
 10511 30c9 10070000 		.4byte	.LASF670
 10512 30cd 31       		.byte	0x31
 10513 30ce AB       		.byte	0xab
 10514 30cf 1D010000 		.4byte	0x11d
 10515 30d3 3C08     		.2byte	0x83c
 10516 30d5 27       		.uleb128 0x27
 10517 30d6 9A070000 		.4byte	.LASF671
 10518 30da 31       		.byte	0x31
 10519 30db AC       		.byte	0xac
 10520 30dc D2310000 		.4byte	0x31d2
 10521 30e0 4008     		.2byte	0x840
 10522 30e2 27       		.uleb128 0x27
 10523 30e3 AB0C0000 		.4byte	.LASF672
 10524 30e7 31       		.byte	0x31
 10525 30e8 AD       		.byte	0xad
 10526 30e9 D2310000 		.4byte	0x31d2
 10527 30ed 8008     		.2byte	0x880
 10528 30ef 27       		.uleb128 0x27
 10529 30f0 F00F0000 		.4byte	.LASF673
 10530 30f4 31       		.byte	0x31
 10531 30f5 AE       		.byte	0xae
 10532 30f6 D2310000 		.4byte	0x31d2
 10533 30fa C008     		.2byte	0x8c0
 10534 30fc 28       		.uleb128 0x28
 10535 30fd 696500   		.ascii	"ie\000"
 10536 3100 31       		.byte	0x31
 10537 3101 AF       		.byte	0xaf
 10538 3102 D7310000 		.4byte	0x31d7
 10539 3106 0009     		.2byte	0x900
 10540 3108 28       		.uleb128 0x28
 10541 3109 6F6500   		.ascii	"oe\000"
 10542 310c 31       		.byte	0x31
 10543 310d B0       		.byte	0xb0
 10544 310e E7310000 		.4byte	0x31e7
ARM GAS  C:\Users\mathi\AppData\Local\Temp\ccuMtzkg.s 			page 186


 10545 3112 000B     		.2byte	0xb00
 10546 3114 27       		.uleb128 0x27
 10547 3115 E40A0000 		.4byte	.LASF674
 10548 3119 31       		.byte	0x31
 10549 311a B1       		.byte	0xb1
 10550 311b BD310000 		.4byte	0x31bd
 10551 311f 000D     		.2byte	0xd00
 10552 3121 27       		.uleb128 0x27
 10553 3122 291F0000 		.4byte	.LASF675
 10554 3126 31       		.byte	0x31
 10555 3127 B2       		.byte	0xb2
 10556 3128 1D010000 		.4byte	0x11d
 10557 312c 000E     		.2byte	0xe00
 10558 312e 27       		.uleb128 0x27
 10559 312f 31150000 		.4byte	.LASF676
 10560 3133 31       		.byte	0x31
 10561 3134 B4       		.byte	0xb4
 10562 3135 07320000 		.4byte	0x3207
 10563 3139 040E     		.2byte	0xe04
 10564 313b 27       		.uleb128 0x27
 10565 313c 4B090000 		.4byte	.LASF176
 10566 3140 31       		.byte	0x31
 10567 3141 B5       		.byte	0xb5
 10568 3142 23320000 		.4byte	0x3223
 10569 3146 0010     		.2byte	0x1000
 10570 3148 00       		.byte	0
 10571 3149 13       		.uleb128 0x13
 10572 314a 1D010000 		.4byte	0x11d
 10573 314e 59310000 		.4byte	0x3159
 10574 3152 14       		.uleb128 0x14
 10575 3153 2C000000 		.4byte	0x2c
 10576 3157 2F       		.byte	0x2f
 10577 3158 00       		.byte	0
 10578 3159 06       		.uleb128 0x6
 10579 315a 49310000 		.4byte	0x3149
 10580 315e 13       		.uleb128 0x13
 10581 315f 1D010000 		.4byte	0x11d
 10582 3163 6E310000 		.4byte	0x316e
 10583 3167 14       		.uleb128 0x14
 10584 3168 2C000000 		.4byte	0x2c
 10585 316c AF       		.byte	0xaf
 10586 316d 00       		.byte	0
 10587 316e 06       		.uleb128 0x6
 10588 316f 5E310000 		.4byte	0x315e
 10589 3173 13       		.uleb128 0x13
 10590 3174 1D010000 		.4byte	0x11d
 10591 3178 83310000 		.4byte	0x3183
 10592 317c 14       		.uleb128 0x14
 10593 317d 2C000000 		.4byte	0x2c
 10594 3181 08       		.byte	0x8
 10595 3182 00       		.byte	0
 10596 3183 06       		.uleb128 0x6
 10597 3184 73310000 		.4byte	0x3173
 10598 3188 13       		.uleb128 0x13
 10599 3189 1D010000 		.4byte	0x11d
 10600 318d 98310000 		.4byte	0x3198
 10601 3191 14       		.uleb128 0x14
ARM GAS  C:\Users\mathi\AppData\Local\Temp\ccuMtzkg.s 			page 187


 10602 3192 2C000000 		.4byte	0x2c
 10603 3196 2E       		.byte	0x2e
 10604 3197 00       		.byte	0
 10605 3198 06       		.uleb128 0x6
 10606 3199 88310000 		.4byte	0x3188
 10607 319d 13       		.uleb128 0x13
 10608 319e 792D0000 		.4byte	0x2d79
 10609 31a2 AD310000 		.4byte	0x31ad
 10610 31a6 14       		.uleb128 0x14
 10611 31a7 2C000000 		.4byte	0x2c
 10612 31ab 0F       		.byte	0xf
 10613 31ac 00       		.byte	0
 10614 31ad 13       		.uleb128 0x13
 10615 31ae 1D010000 		.4byte	0x11d
 10616 31b2 BD310000 		.4byte	0x31bd
 10617 31b6 14       		.uleb128 0x14
 10618 31b7 2C000000 		.4byte	0x2c
 10619 31bb 3F       		.byte	0x3f
 10620 31bc 00       		.byte	0
 10621 31bd 06       		.uleb128 0x6
 10622 31be AD310000 		.4byte	0x31ad
 10623 31c2 13       		.uleb128 0x13
 10624 31c3 1D010000 		.4byte	0x11d
 10625 31c7 D2310000 		.4byte	0x31d2
 10626 31cb 14       		.uleb128 0x14
 10627 31cc 2C000000 		.4byte	0x2c
 10628 31d0 0F       		.byte	0xf
 10629 31d1 00       		.byte	0
 10630 31d2 06       		.uleb128 0x6
 10631 31d3 C2310000 		.4byte	0x31c2
 10632 31d7 13       		.uleb128 0x13
 10633 31d8 ED2D0000 		.4byte	0x2ded
 10634 31dc E7310000 		.4byte	0x31e7
 10635 31e0 14       		.uleb128 0x14
 10636 31e1 2C000000 		.4byte	0x2c
 10637 31e5 0F       		.byte	0xf
 10638 31e6 00       		.byte	0
 10639 31e7 13       		.uleb128 0x13
 10640 31e8 612E0000 		.4byte	0x2e61
 10641 31ec F7310000 		.4byte	0x31f7
 10642 31f0 14       		.uleb128 0x14
 10643 31f1 2C000000 		.4byte	0x2c
 10644 31f5 0F       		.byte	0xf
 10645 31f6 00       		.byte	0
 10646 31f7 13       		.uleb128 0x13
 10647 31f8 1D010000 		.4byte	0x11d
 10648 31fc 07320000 		.4byte	0x3207
 10649 3200 14       		.uleb128 0x14
 10650 3201 2C000000 		.4byte	0x2c
 10651 3205 7E       		.byte	0x7e
 10652 3206 00       		.byte	0
 10653 3207 06       		.uleb128 0x6
 10654 3208 F7310000 		.4byte	0x31f7
 10655 320c 13       		.uleb128 0x13
 10656 320d 1D010000 		.4byte	0x11d
 10657 3211 23320000 		.4byte	0x3223
 10658 3215 14       		.uleb128 0x14
ARM GAS  C:\Users\mathi\AppData\Local\Temp\ccuMtzkg.s 			page 188


 10659 3216 2C000000 		.4byte	0x2c
 10660 321a 0F       		.byte	0xf
 10661 321b 29       		.uleb128 0x29
 10662 321c 2C000000 		.4byte	0x2c
 10663 3220 FF03     		.2byte	0x3ff
 10664 3222 00       		.byte	0
 10665 3223 06       		.uleb128 0x6
 10666 3224 0C320000 		.4byte	0x320c
 10667 3228 04       		.uleb128 0x4
 10668 3229 3A210000 		.4byte	.LASF677
 10669 322d 31       		.byte	0x31
 10670 322e B6       		.byte	0xb6
 10671 322f 6C2E0000 		.4byte	0x2e6c
 10672 3233 17       		.uleb128 0x17
 10673 3234 0C       		.byte	0xc
 10674 3235 30       		.byte	0x30
 10675 3236 C6       		.byte	0xc6
 10676 3237 60320000 		.4byte	0x3260
 10677 323b 08       		.uleb128 0x8
 10678 323c E5080000 		.4byte	.LASF678
 10679 3240 30       		.byte	0x30
 10680 3241 C7       		.byte	0xc7
 10681 3242 12010000 		.4byte	0x112
 10682 3246 00       		.byte	0
 10683 3247 08       		.uleb128 0x8
 10684 3248 C40A0000 		.4byte	.LASF679
 10685 324c 30       		.byte	0x30
 10686 324d C8       		.byte	0xc8
 10687 324e 12010000 		.4byte	0x112
 10688 3252 04       		.byte	0x4
 10689 3253 08       		.uleb128 0x8
 10690 3254 0F0E0000 		.4byte	.LASF680
 10691 3258 30       		.byte	0x30
 10692 3259 C9       		.byte	0xc9
 10693 325a 12010000 		.4byte	0x112
 10694 325e 08       		.byte	0x8
 10695 325f 00       		.byte	0
 10696 3260 04       		.uleb128 0x4
 10697 3261 D10A0000 		.4byte	.LASF681
 10698 3265 30       		.byte	0x30
 10699 3266 CA       		.byte	0xca
 10700 3267 33320000 		.4byte	0x3233
 10701 326b 05       		.uleb128 0x5
 10702 326c 60320000 		.4byte	0x3260
 10703 3270 17       		.uleb128 0x17
 10704 3271 04       		.byte	0x4
 10705 3272 30       		.byte	0x30
 10706 3273 DD       		.byte	0xdd
 10707 3274 85320000 		.4byte	0x3285
 10708 3278 08       		.uleb128 0x8
 10709 3279 231F0000 		.4byte	.LASF682
 10710 327d 30       		.byte	0x30
 10711 327e E1       		.byte	0xe1
 10712 327f 22130000 		.4byte	0x1322
 10713 3283 00       		.byte	0
 10714 3284 00       		.byte	0
 10715 3285 17       		.uleb128 0x17
ARM GAS  C:\Users\mathi\AppData\Local\Temp\ccuMtzkg.s 			page 189


 10716 3286 04       		.byte	0x4
 10717 3287 30       		.byte	0x30
 10718 3288 E3       		.byte	0xe3
 10719 3289 9A320000 		.4byte	0x329a
 10720 328d 08       		.uleb128 0x8
 10721 328e 5A090000 		.4byte	.LASF367
 10722 3292 30       		.byte	0x30
 10723 3293 E7       		.byte	0xe7
 10724 3294 9A320000 		.4byte	0x329a
 10725 3298 00       		.byte	0
 10726 3299 00       		.byte	0
 10727 329a 0B       		.uleb128 0xb
 10728 329b 04       		.byte	0x4
 10729 329c FE120000 		.4byte	0x12fe
 10730 32a0 1D       		.uleb128 0x1d
 10731 32a1 04       		.byte	0x4
 10732 32a2 30       		.byte	0x30
 10733 32a3 DC       		.byte	0xdc
 10734 32a4 BF320000 		.4byte	0x32bf
 10735 32a8 2A       		.uleb128 0x2a
 10736 32a9 C81B0000 		.4byte	.LASF683
 10737 32ad 30       		.byte	0x30
 10738 32ae E2       		.byte	0xe2
 10739 32af 70320000 		.4byte	0x3270
 10740 32b3 2A       		.uleb128 0x2a
 10741 32b4 A91A0000 		.4byte	.LASF684
 10742 32b8 30       		.byte	0x30
 10743 32b9 E8       		.byte	0xe8
 10744 32ba 85320000 		.4byte	0x3285
 10745 32be 00       		.byte	0
 10746 32bf 17       		.uleb128 0x17
 10747 32c0 14       		.byte	0x14
 10748 32c1 30       		.byte	0x30
 10749 32c2 CF       		.byte	0xcf
 10750 32c3 04330000 		.4byte	0x3304
 10751 32c7 08       		.uleb128 0x8
 10752 32c8 D7070000 		.4byte	.LASF685
 10753 32cc 30       		.byte	0x30
 10754 32cd D3       		.byte	0xd3
 10755 32ce 09150000 		.4byte	0x1509
 10756 32d2 00       		.byte	0
 10757 32d3 08       		.uleb128 0x8
 10758 32d4 2F110000 		.4byte	.LASF686
 10759 32d8 30       		.byte	0x30
 10760 32d9 D7       		.byte	0xd7
 10761 32da 3A000000 		.4byte	0x3a
 10762 32de 04       		.byte	0x4
 10763 32df 08       		.uleb128 0x8
 10764 32e0 950A0000 		.4byte	.LASF687
 10765 32e4 30       		.byte	0x30
 10766 32e5 DB       		.byte	0xdb
 10767 32e6 3A000000 		.4byte	0x3a
 10768 32ea 08       		.byte	0x8
 10769 32eb 08       		.uleb128 0x8
 10770 32ec 85080000 		.4byte	.LASF413
 10771 32f0 30       		.byte	0x30
 10772 32f1 E9       		.byte	0xe9
ARM GAS  C:\Users\mathi\AppData\Local\Temp\ccuMtzkg.s 			page 190


 10773 32f2 A0320000 		.4byte	0x32a0
 10774 32f6 0C       		.byte	0xc
 10775 32f7 08       		.uleb128 0x8
 10776 32f8 270E0000 		.4byte	.LASF688
 10777 32fc 30       		.byte	0x30
 10778 32fd ED       		.byte	0xed
 10779 32fe 3A000000 		.4byte	0x3a
 10780 3302 10       		.byte	0x10
 10781 3303 00       		.byte	0
 10782 3304 04       		.uleb128 0x4
 10783 3305 E00E0000 		.4byte	.LASF689
 10784 3309 30       		.byte	0x30
 10785 330a EE       		.byte	0xee
 10786 330b BF320000 		.4byte	0x32bf
 10787 330f 19       		.uleb128 0x19
 10788 3310 04       		.byte	0x4
 10789 3311 30       		.byte	0x30
 10790 3312 0101     		.2byte	0x101
 10791 3314 26330000 		.4byte	0x3326
 10792 3318 0A       		.uleb128 0xa
 10793 3319 F40A0000 		.4byte	.LASF690
 10794 331d 30       		.byte	0x30
 10795 331e 0501     		.2byte	0x105
 10796 3320 ED120000 		.4byte	0x12ed
 10797 3324 00       		.byte	0
 10798 3325 00       		.byte	0
 10799 3326 19       		.uleb128 0x19
 10800 3327 04       		.byte	0x4
 10801 3328 30       		.byte	0x30
 10802 3329 0701     		.2byte	0x107
 10803 332b 3D330000 		.4byte	0x333d
 10804 332f 0A       		.uleb128 0xa
 10805 3330 831B0000 		.4byte	.LASF368
 10806 3334 30       		.byte	0x30
 10807 3335 0B01     		.2byte	0x10b
 10808 3337 3D330000 		.4byte	0x333d
 10809 333b 00       		.byte	0
 10810 333c 00       		.byte	0
 10811 333d 0B       		.uleb128 0xb
 10812 333e 04       		.byte	0x4
 10813 333f F3120000 		.4byte	0x12f3
 10814 3343 2B       		.uleb128 0x2b
 10815 3344 04       		.byte	0x4
 10816 3345 30       		.byte	0x30
 10817 3346 0001     		.2byte	0x100
 10818 3348 65330000 		.4byte	0x3365
 10819 334c 1E       		.uleb128 0x1e
 10820 334d C81B0000 		.4byte	.LASF683
 10821 3351 30       		.byte	0x30
 10822 3352 0601     		.2byte	0x106
 10823 3354 0F330000 		.4byte	0x330f
 10824 3358 1E       		.uleb128 0x1e
 10825 3359 A91A0000 		.4byte	.LASF684
 10826 335d 30       		.byte	0x30
 10827 335e 0C01     		.2byte	0x10c
 10828 3360 26330000 		.4byte	0x3326
 10829 3364 00       		.byte	0
ARM GAS  C:\Users\mathi\AppData\Local\Temp\ccuMtzkg.s 			page 191


 10830 3365 17       		.uleb128 0x17
 10831 3366 14       		.byte	0x14
 10832 3367 30       		.byte	0x30
 10833 3368 F3       		.byte	0xf3
 10834 3369 AC330000 		.4byte	0x33ac
 10835 336d 08       		.uleb128 0x8
 10836 336e 29060000 		.4byte	.LASF691
 10837 3372 30       		.byte	0x30
 10838 3373 F7       		.byte	0xf7
 10839 3374 09150000 		.4byte	0x1509
 10840 3378 00       		.byte	0
 10841 3379 08       		.uleb128 0x8
 10842 337a D0110000 		.4byte	.LASF692
 10843 337e 30       		.byte	0x30
 10844 337f FB       		.byte	0xfb
 10845 3380 3A000000 		.4byte	0x3a
 10846 3384 04       		.byte	0x4
 10847 3385 08       		.uleb128 0x8
 10848 3386 6A080000 		.4byte	.LASF693
 10849 338a 30       		.byte	0x30
 10850 338b FF       		.byte	0xff
 10851 338c 3A000000 		.4byte	0x3a
 10852 3390 08       		.byte	0x8
 10853 3391 0A       		.uleb128 0xa
 10854 3392 85080000 		.4byte	.LASF413
 10855 3396 30       		.byte	0x30
 10856 3397 0D01     		.2byte	0x10d
 10857 3399 43330000 		.4byte	0x3343
 10858 339d 0C       		.byte	0xc
 10859 339e 0A       		.uleb128 0xa
 10860 339f 270E0000 		.4byte	.LASF688
 10861 33a3 30       		.byte	0x30
 10862 33a4 1101     		.2byte	0x111
 10863 33a6 3A000000 		.4byte	0x3a
 10864 33aa 10       		.byte	0x10
 10865 33ab 00       		.byte	0
 10866 33ac 1A       		.uleb128 0x1a
 10867 33ad B7190000 		.4byte	.LASF694
 10868 33b1 30       		.byte	0x30
 10869 33b2 1201     		.2byte	0x112
 10870 33b4 65330000 		.4byte	0x3365
 10871 33b8 19       		.uleb128 0x19
 10872 33b9 24       		.byte	0x24
 10873 33ba 30       		.byte	0x30
 10874 33bb 1801     		.2byte	0x118
 10875 33bd 44340000 		.4byte	0x3444
 10876 33c1 0A       		.uleb128 0xa
 10877 33c2 FE140000 		.4byte	.LASF695
 10878 33c6 30       		.byte	0x30
 10879 33c7 1C01     		.2byte	0x11c
 10880 33c9 12010000 		.4byte	0x112
 10881 33cd 00       		.byte	0
 10882 33ce 0A       		.uleb128 0xa
 10883 33cf 2B090000 		.4byte	.LASF696
 10884 33d3 30       		.byte	0x30
 10885 33d4 2701     		.2byte	0x127
 10886 33d6 752C0000 		.4byte	0x2c75
ARM GAS  C:\Users\mathi\AppData\Local\Temp\ccuMtzkg.s 			page 192


 10887 33da 04       		.byte	0x4
 10888 33db 0A       		.uleb128 0xa
 10889 33dc D5150000 		.4byte	.LASF697
 10890 33e0 30       		.byte	0x30
 10891 33e1 2D01     		.2byte	0x12d
 10892 33e3 752C0000 		.4byte	0x2c75
 10893 33e7 08       		.byte	0x8
 10894 33e8 0A       		.uleb128 0xa
 10895 33e9 860B0000 		.4byte	.LASF698
 10896 33ed 30       		.byte	0x30
 10897 33ee 3301     		.2byte	0x133
 10898 33f0 752C0000 		.4byte	0x2c75
 10899 33f4 0C       		.byte	0xc
 10900 33f5 0A       		.uleb128 0xa
 10901 33f6 6D210000 		.4byte	.LASF699
 10902 33fa 30       		.byte	0x30
 10903 33fb 3901     		.2byte	0x139
 10904 33fd F7000000 		.4byte	0xf7
 10905 3401 10       		.byte	0x10
 10906 3402 0A       		.uleb128 0xa
 10907 3403 E90B0000 		.4byte	.LASF700
 10908 3407 30       		.byte	0x30
 10909 3408 3F01     		.2byte	0x13f
 10910 340a F7000000 		.4byte	0xf7
 10911 340e 12       		.byte	0x12
 10912 340f 0A       		.uleb128 0xa
 10913 3410 37200000 		.4byte	.LASF701
 10914 3414 30       		.byte	0x30
 10915 3415 4401     		.2byte	0x144
 10916 3417 44340000 		.4byte	0x3444
 10917 341b 14       		.byte	0x14
 10918 341c 0A       		.uleb128 0xa
 10919 341d 420D0000 		.4byte	.LASF702
 10920 3421 30       		.byte	0x30
 10921 3422 4901     		.2byte	0x149
 10922 3424 4A340000 		.4byte	0x344a
 10923 3428 18       		.byte	0x18
 10924 3429 0A       		.uleb128 0xa
 10925 342a 63100000 		.4byte	.LASF703
 10926 342e 30       		.byte	0x30
 10927 342f 5001     		.2byte	0x150
 10928 3431 F7000000 		.4byte	0xf7
 10929 3435 1C       		.byte	0x1c
 10930 3436 0A       		.uleb128 0xa
 10931 3437 831F0000 		.4byte	.LASF704
 10932 343b 30       		.byte	0x30
 10933 343c 5601     		.2byte	0x156
 10934 343e ED120000 		.4byte	0x12ed
 10935 3442 20       		.byte	0x20
 10936 3443 00       		.byte	0
 10937 3444 0B       		.uleb128 0xb
 10938 3445 04       		.byte	0x4
 10939 3446 04330000 		.4byte	0x3304
 10940 344a 0B       		.uleb128 0xb
 10941 344b 04       		.byte	0x4
 10942 344c AC330000 		.4byte	0x33ac
 10943 3450 1A       		.uleb128 0x1a
ARM GAS  C:\Users\mathi\AppData\Local\Temp\ccuMtzkg.s 			page 193


 10944 3451 531B0000 		.4byte	.LASF705
 10945 3455 30       		.byte	0x30
 10946 3456 5701     		.2byte	0x157
 10947 3458 B8330000 		.4byte	0x33b8
 10948 345c 05       		.uleb128 0x5
 10949 345d 50340000 		.4byte	0x3450
 10950 3461 19       		.uleb128 0x19
 10951 3462 10       		.byte	0x10
 10952 3463 30       		.byte	0x30
 10953 3464 5C01     		.2byte	0x15c
 10954 3466 9F340000 		.4byte	0x349f
 10955 346a 0A       		.uleb128 0xa
 10956 346b 17050000 		.4byte	.LASF706
 10957 346f 30       		.byte	0x30
 10958 3470 6101     		.2byte	0x161
 10959 3472 972C0000 		.4byte	0x2c97
 10960 3476 00       		.byte	0
 10961 3477 0A       		.uleb128 0xa
 10962 3478 C11E0000 		.4byte	.LASF707
 10963 347c 30       		.byte	0x30
 10964 347d 6601     		.2byte	0x166
 10965 347f DA2C0000 		.4byte	0x2cda
 10966 3483 04       		.byte	0x4
 10967 3484 0A       		.uleb128 0xa
 10968 3485 00110000 		.4byte	.LASF708
 10969 3489 30       		.byte	0x30
 10970 348a 6C01     		.2byte	0x16c
 10971 348c B92C0000 		.4byte	0x2cb9
 10972 3490 08       		.byte	0x8
 10973 3491 0A       		.uleb128 0xa
 10974 3492 CC020000 		.4byte	.LASF709
 10975 3496 30       		.byte	0x30
 10976 3497 7001     		.2byte	0x170
 10977 3499 522C0000 		.4byte	0x2c52
 10978 349d 0C       		.byte	0xc
 10979 349e 00       		.byte	0
 10980 349f 1A       		.uleb128 0x1a
 10981 34a0 F90F0000 		.4byte	.LASF710
 10982 34a4 30       		.byte	0x30
 10983 34a5 7201     		.2byte	0x172
 10984 34a7 61340000 		.4byte	0x3461
 10985 34ab 05       		.uleb128 0x5
 10986 34ac 9F340000 		.4byte	0x349f
 10987 34b0 0B       		.uleb128 0xb
 10988 34b1 04       		.byte	0x4
 10989 34b2 AB340000 		.4byte	0x34ab
 10990 34b6 13       		.uleb128 0x13
 10991 34b7 C6340000 		.4byte	0x34c6
 10992 34bb C6340000 		.4byte	0x34c6
 10993 34bf 14       		.uleb128 0x14
 10994 34c0 2C000000 		.4byte	0x2c
 10995 34c4 03       		.byte	0x3
 10996 34c5 00       		.byte	0
 10997 34c6 0B       		.uleb128 0xb
 10998 34c7 04       		.byte	0x4
 10999 34c8 5C340000 		.4byte	0x345c
 11000 34cc 13       		.uleb128 0x13
ARM GAS  C:\Users\mathi\AppData\Local\Temp\ccuMtzkg.s 			page 194


 11001 34cd D7030000 		.4byte	0x3d7
 11002 34d1 DC340000 		.4byte	0x34dc
 11003 34d5 14       		.uleb128 0x14
 11004 34d6 2C000000 		.4byte	0x2c
 11005 34da 02       		.byte	0x2
 11006 34db 00       		.byte	0
 11007 34dc 0B       		.uleb128 0xb
 11008 34dd 04       		.byte	0x4
 11009 34de 28320000 		.4byte	0x3228
 11010 34e2 0B       		.uleb128 0xb
 11011 34e3 04       		.byte	0x4
 11012 34e4 6B320000 		.4byte	0x326b
 11013 34e8 13       		.uleb128 0x13
 11014 34e9 F90C0000 		.4byte	0xcf9
 11015 34ed F8340000 		.4byte	0x34f8
 11016 34f1 14       		.uleb128 0x14
 11017 34f2 2C000000 		.4byte	0x2c
 11018 34f6 3E       		.byte	0x3e
 11019 34f7 00       		.byte	0
 11020 34f8 15       		.uleb128 0x15
 11021 34f9 78000000 		.4byte	.LASF711
 11022 34fd 30       		.byte	0x30
 11023 34fe 0602     		.2byte	0x206
 11024 3500 1E2A0000 		.4byte	0x2a1e
 11025 3504 21       		.uleb128 0x21
 11026 3505 07       		.byte	0x7
 11027 3506 01       		.byte	0x1
 11028 3507 70000000 		.4byte	0x70
 11029 350b 32       		.byte	0x32
 11030 350c 97       		.byte	0x97
 11031 350d 24350000 		.4byte	0x3524
 11032 3511 22       		.uleb128 0x22
 11033 3512 240B0000 		.4byte	.LASF712
 11034 3516 00       		.byte	0
 11035 3517 22       		.uleb128 0x22
 11036 3518 D5160000 		.4byte	.LASF713
 11037 351c 01       		.byte	0x1
 11038 351d 22       		.uleb128 0x22
 11039 351e 90070000 		.4byte	.LASF714
 11040 3522 02       		.byte	0x2
 11041 3523 00       		.byte	0
 11042 3524 04       		.uleb128 0x4
 11043 3525 05070000 		.4byte	.LASF715
 11044 3529 32       		.byte	0x32
 11045 352a 9B       		.byte	0x9b
 11046 352b 04350000 		.4byte	0x3504
 11047 352f 04       		.uleb128 0x4
 11048 3530 07030000 		.4byte	.LASF716
 11049 3534 32       		.byte	0x32
 11050 3535 A0       		.byte	0xa0
 11051 3536 3A350000 		.4byte	0x353a
 11052 353a 2C       		.uleb128 0x2c
 11053 353b 07030000 		.4byte	.LASF716
 11054 353f 5802     		.2byte	0x258
 11055 3541 32       		.byte	0x32
 11056 3542 E5       		.byte	0xe5
 11057 3543 A8350000 		.4byte	0x35a8
ARM GAS  C:\Users\mathi\AppData\Local\Temp\ccuMtzkg.s 			page 195


 11058 3547 18       		.uleb128 0x18
 11059 3548 766D7400 		.ascii	"vmt\000"
 11060 354c 32       		.byte	0x32
 11061 354d E7       		.byte	0xe7
 11062 354e 63360000 		.4byte	0x3663
 11063 3552 00       		.byte	0
 11064 3553 08       		.uleb128 0x8
 11065 3554 32000000 		.4byte	.LASF512
 11066 3558 32       		.byte	0x32
 11067 3559 E8       		.byte	0xe8
 11068 355a 48120000 		.4byte	0x1248
 11069 355e 04       		.byte	0x4
 11070 355f 08       		.uleb128 0x8
 11071 3560 DA130000 		.4byte	.LASF334
 11072 3564 32       		.byte	0x32
 11073 3565 E8       		.byte	0xe8
 11074 3566 24350000 		.4byte	0x3524
 11075 356a 08       		.byte	0x8
 11076 356b 08       		.uleb128 0x8
 11077 356c CE150000 		.4byte	.LASF513
 11078 3570 32       		.byte	0x32
 11079 3571 E8       		.byte	0xe8
 11080 3572 F3120000 		.4byte	0x12f3
 11081 3576 0C       		.byte	0xc
 11082 3577 08       		.uleb128 0x8
 11083 3578 22100000 		.4byte	.LASF514
 11084 357c 32       		.byte	0x32
 11085 357d E8       		.byte	0xe8
 11086 357e FE120000 		.4byte	0x12fe
 11087 3582 30       		.byte	0x30
 11088 3583 18       		.uleb128 0x18
 11089 3584 696200   		.ascii	"ib\000"
 11090 3587 32       		.byte	0x32
 11091 3588 E8       		.byte	0xe8
 11092 3589 69360000 		.4byte	0x3669
 11093 358d 54       		.byte	0x54
 11094 358e 28       		.uleb128 0x28
 11095 358f 6F6200   		.ascii	"ob\000"
 11096 3592 32       		.byte	0x32
 11097 3593 E8       		.byte	0xe8
 11098 3594 69360000 		.4byte	0x3669
 11099 3598 5401     		.2byte	0x154
 11100 359a 27       		.uleb128 0x27
 11101 359b EE180000 		.4byte	.LASF335
 11102 359f 32       		.byte	0x32
 11103 35a0 E8       		.byte	0xe8
 11104 35a1 79360000 		.4byte	0x3679
 11105 35a5 5402     		.2byte	0x254
 11106 35a7 00       		.byte	0
 11107 35a8 17       		.uleb128 0x17
 11108 35a9 08       		.byte	0x8
 11109 35aa 32       		.byte	0x32
 11110 35ab A7       		.byte	0xa7
 11111 35ac E1350000 		.4byte	0x35e1
 11112 35b0 08       		.uleb128 0x8
 11113 35b1 4C1E0000 		.4byte	.LASF717
 11114 35b5 32       		.byte	0x32
ARM GAS  C:\Users\mathi\AppData\Local\Temp\ccuMtzkg.s 			page 196


 11115 35b6 AB       		.byte	0xab
 11116 35b7 6F2C0000 		.4byte	0x2c6f
 11117 35bb 00       		.byte	0
 11118 35bc 08       		.uleb128 0x8
 11119 35bd 790E0000 		.4byte	.LASF718
 11120 35c1 32       		.byte	0x32
 11121 35c2 AF       		.byte	0xaf
 11122 35c3 552B0000 		.4byte	0x2b55
 11123 35c7 04       		.byte	0x4
 11124 35c8 08       		.uleb128 0x8
 11125 35c9 28050000 		.4byte	.LASF719
 11126 35cd 32       		.byte	0x32
 11127 35ce B3       		.byte	0xb3
 11128 35cf 552B0000 		.4byte	0x2b55
 11129 35d3 05       		.byte	0x5
 11130 35d4 08       		.uleb128 0x8
 11131 35d5 6D0F0000 		.4byte	.LASF720
 11132 35d9 32       		.byte	0x32
 11133 35da B9       		.byte	0xb9
 11134 35db 552B0000 		.4byte	0x2b55
 11135 35df 06       		.byte	0x6
 11136 35e0 00       		.byte	0
 11137 35e1 04       		.uleb128 0x4
 11138 35e2 97190000 		.4byte	.LASF721
 11139 35e6 32       		.byte	0x32
 11140 35e7 BA       		.byte	0xba
 11141 35e8 A8350000 		.4byte	0x35a8
 11142 35ec 05       		.uleb128 0x5
 11143 35ed E1350000 		.4byte	0x35e1
 11144 35f1 07       		.uleb128 0x7
 11145 35f2 AD140000 		.4byte	.LASF722
 11146 35f6 20       		.byte	0x20
 11147 35f7 32       		.byte	0x32
 11148 35f8 DA       		.byte	0xda
 11149 35f9 5E360000 		.4byte	0x365e
 11150 35fd 08       		.uleb128 0x8
 11151 35fe C8150000 		.4byte	.LASF517
 11152 3602 32       		.byte	0x32
 11153 3603 DB       		.byte	0xdb
 11154 3604 28130000 		.4byte	0x1328
 11155 3608 00       		.byte	0
 11156 3609 08       		.uleb128 0x8
 11157 360a FE040000 		.4byte	.LASF518
 11158 360e 32       		.byte	0x32
 11159 360f DB       		.byte	0xdb
 11160 3610 47130000 		.4byte	0x1347
 11161 3614 04       		.byte	0x4
 11162 3615 18       		.uleb128 0x18
 11163 3616 70757400 		.ascii	"put\000"
 11164 361a 32       		.byte	0x32
 11165 361b DB       		.byte	0xdb
 11166 361c 61130000 		.4byte	0x1361
 11167 3620 08       		.byte	0x8
 11168 3621 18       		.uleb128 0x18
 11169 3622 67657400 		.ascii	"get\000"
 11170 3626 32       		.byte	0x32
 11171 3627 DB       		.byte	0xdb
ARM GAS  C:\Users\mathi\AppData\Local\Temp\ccuMtzkg.s 			page 197


 11172 3628 76130000 		.4byte	0x1376
 11173 362c 0C       		.byte	0xc
 11174 362d 08       		.uleb128 0x8
 11175 362e FE110000 		.4byte	.LASF519
 11176 3632 32       		.byte	0x32
 11177 3633 DB       		.byte	0xdb
 11178 3634 17140000 		.4byte	0x1417
 11179 3638 10       		.byte	0x10
 11180 3639 08       		.uleb128 0x8
 11181 363a AD150000 		.4byte	.LASF520
 11182 363e 32       		.byte	0x32
 11183 363f DB       		.byte	0xdb
 11184 3640 31140000 		.4byte	0x1431
 11185 3644 14       		.byte	0x14
 11186 3645 08       		.uleb128 0x8
 11187 3646 5F1E0000 		.4byte	.LASF521
 11188 364a 32       		.byte	0x32
 11189 364b DB       		.byte	0xdb
 11190 364c 55140000 		.4byte	0x1455
 11191 3650 18       		.byte	0x18
 11192 3651 08       		.uleb128 0x8
 11193 3652 6E110000 		.4byte	.LASF522
 11194 3656 32       		.byte	0x32
 11195 3657 DB       		.byte	0xdb
 11196 3658 79140000 		.4byte	0x1479
 11197 365c 1C       		.byte	0x1c
 11198 365d 00       		.byte	0
 11199 365e 05       		.uleb128 0x5
 11200 365f F1350000 		.4byte	0x35f1
 11201 3663 0B       		.uleb128 0xb
 11202 3664 04       		.byte	0x4
 11203 3665 5E360000 		.4byte	0x365e
 11204 3669 13       		.uleb128 0x13
 11205 366a DC000000 		.4byte	0xdc
 11206 366e 79360000 		.4byte	0x3679
 11207 3672 14       		.uleb128 0x14
 11208 3673 2C000000 		.4byte	0x2c
 11209 3677 FF       		.byte	0xff
 11210 3678 00       		.byte	0
 11211 3679 0B       		.uleb128 0xb
 11212 367a 04       		.byte	0x4
 11213 367b EC350000 		.4byte	0x35ec
 11214 367f 21       		.uleb128 0x21
 11215 3680 07       		.byte	0x7
 11216 3681 01       		.byte	0x1
 11217 3682 70000000 		.4byte	0x70
 11218 3686 33       		.byte	0x33
 11219 3687 10       		.byte	0x10
 11220 3688 ED360000 		.4byte	0x36ed
 11221 368c 22       		.uleb128 0x22
 11222 368d 31030000 		.4byte	.LASF723
 11223 3691 00       		.byte	0
 11224 3692 22       		.uleb128 0x22
 11225 3693 011C0000 		.4byte	.LASF724
 11226 3697 01       		.byte	0x1
 11227 3698 22       		.uleb128 0x22
 11228 3699 651C0000 		.4byte	.LASF725
ARM GAS  C:\Users\mathi\AppData\Local\Temp\ccuMtzkg.s 			page 198


 11229 369d 02       		.byte	0x2
 11230 369e 22       		.uleb128 0x22
 11231 369f E8150000 		.4byte	.LASF726
 11232 36a3 03       		.byte	0x3
 11233 36a4 22       		.uleb128 0x22
 11234 36a5 121A0000 		.4byte	.LASF727
 11235 36a9 10       		.byte	0x10
 11236 36aa 22       		.uleb128 0x22
 11237 36ab 2B140000 		.4byte	.LASF728
 11238 36af 11       		.byte	0x11
 11239 36b0 22       		.uleb128 0x22
 11240 36b1 A9170000 		.4byte	.LASF729
 11241 36b5 12       		.byte	0x12
 11242 36b6 22       		.uleb128 0x22
 11243 36b7 8D0B0000 		.4byte	.LASF730
 11244 36bb 13       		.byte	0x13
 11245 36bc 22       		.uleb128 0x22
 11246 36bd 7C170000 		.4byte	.LASF731
 11247 36c1 30       		.byte	0x30
 11248 36c2 22       		.uleb128 0x22
 11249 36c3 FF1A0000 		.4byte	.LASF732
 11250 36c7 31       		.byte	0x31
 11251 36c8 22       		.uleb128 0x22
 11252 36c9 39100000 		.4byte	.LASF733
 11253 36cd 32       		.byte	0x32
 11254 36ce 22       		.uleb128 0x22
 11255 36cf A9180000 		.4byte	.LASF734
 11256 36d3 33       		.byte	0x33
 11257 36d4 22       		.uleb128 0x22
 11258 36d5 E0130000 		.4byte	.LASF735
 11259 36d9 36       		.byte	0x36
 11260 36da 22       		.uleb128 0x22
 11261 36db D9000000 		.4byte	.LASF736
 11262 36df 37       		.byte	0x37
 11263 36e0 22       		.uleb128 0x22
 11264 36e1 DB1A0000 		.4byte	.LASF737
 11265 36e5 41       		.byte	0x41
 11266 36e6 22       		.uleb128 0x22
 11267 36e7 DA0F0000 		.4byte	.LASF738
 11268 36eb 44       		.byte	0x44
 11269 36ec 00       		.byte	0
 11270 36ed 04       		.uleb128 0x4
 11271 36ee 5A100000 		.4byte	.LASF739
 11272 36f2 33       		.byte	0x33
 11273 36f3 21       		.byte	0x21
 11274 36f4 7F360000 		.4byte	0x367f
 11275 36f8 21       		.uleb128 0x21
 11276 36f9 07       		.byte	0x7
 11277 36fa 01       		.byte	0x1
 11278 36fb 70000000 		.4byte	0x70
 11279 36ff 33       		.byte	0x33
 11280 3700 23       		.byte	0x23
 11281 3701 18370000 		.4byte	0x3718
 11282 3705 22       		.uleb128 0x22
 11283 3706 42090000 		.4byte	.LASF740
 11284 370a 00       		.byte	0
 11285 370b 22       		.uleb128 0x22
ARM GAS  C:\Users\mathi\AppData\Local\Temp\ccuMtzkg.s 			page 199


 11286 370c 19070000 		.4byte	.LASF741
 11287 3710 01       		.byte	0x1
 11288 3711 22       		.uleb128 0x22
 11289 3712 52170000 		.4byte	.LASF742
 11290 3716 02       		.byte	0x2
 11291 3717 00       		.byte	0
 11292 3718 04       		.uleb128 0x4
 11293 3719 9C1F0000 		.4byte	.LASF743
 11294 371d 33       		.byte	0x33
 11295 371e 27       		.byte	0x27
 11296 371f F8360000 		.4byte	0x36f8
 11297 3723 21       		.uleb128 0x21
 11298 3724 07       		.byte	0x7
 11299 3725 01       		.byte	0x1
 11300 3726 70000000 		.4byte	0x70
 11301 372a 33       		.byte	0x33
 11302 372b 29       		.byte	0x29
 11303 372c 43370000 		.4byte	0x3743
 11304 3730 22       		.uleb128 0x22
 11305 3731 4C030000 		.4byte	.LASF744
 11306 3735 20       		.byte	0x20
 11307 3736 22       		.uleb128 0x22
 11308 3737 D21C0000 		.4byte	.LASF745
 11309 373b 40       		.byte	0x40
 11310 373c 22       		.uleb128 0x22
 11311 373d E11C0000 		.4byte	.LASF746
 11312 3741 80       		.byte	0x80
 11313 3742 00       		.byte	0
 11314 3743 04       		.uleb128 0x4
 11315 3744 030F0000 		.4byte	.LASF747
 11316 3748 33       		.byte	0x33
 11317 3749 2D       		.byte	0x2d
 11318 374a 23370000 		.4byte	0x3723
 11319 374e 07       		.uleb128 0x7
 11320 374f 2F080000 		.4byte	.LASF748
 11321 3753 08       		.byte	0x8
 11322 3754 33       		.byte	0x33
 11323 3755 2F       		.byte	0x2f
 11324 3756 97370000 		.4byte	0x3797
 11325 375a 08       		.uleb128 0x8
 11326 375b EC1A0000 		.4byte	.LASF749
 11327 375f 33       		.byte	0x33
 11328 3760 30       		.byte	0x30
 11329 3761 F7000000 		.4byte	0xf7
 11330 3765 00       		.byte	0
 11331 3766 08       		.uleb128 0x8
 11332 3767 61030000 		.4byte	.LASF750
 11333 376b 33       		.byte	0x33
 11334 376c 31       		.byte	0x31
 11335 376d F7000000 		.4byte	0xf7
 11336 3771 02       		.byte	0x2
 11337 3772 08       		.uleb128 0x8
 11338 3773 03180000 		.4byte	.LASF751
 11339 3777 33       		.byte	0x33
 11340 3778 32       		.byte	0x32
 11341 3779 ED360000 		.4byte	0x36ed
 11342 377d 04       		.byte	0x4
ARM GAS  C:\Users\mathi\AppData\Local\Temp\ccuMtzkg.s 			page 200


 11343 377e 08       		.uleb128 0x8
 11344 377f 421F0000 		.4byte	.LASF752
 11345 3783 33       		.byte	0x33
 11346 3784 33       		.byte	0x33
 11347 3785 43370000 		.4byte	0x3743
 11348 3789 05       		.byte	0x5
 11349 378a 08       		.uleb128 0x8
 11350 378b 551F0000 		.4byte	.LASF753
 11351 378f 33       		.byte	0x33
 11352 3790 34       		.byte	0x34
 11353 3791 43370000 		.4byte	0x3743
 11354 3795 06       		.byte	0x6
 11355 3796 00       		.byte	0
 11356 3797 16       		.uleb128 0x16
 11357 3798 DE080000 		.4byte	.LASF754
 11358 379c 34       		.byte	0x34
 11359 379d 14       		.byte	0x14
 11360 379e AB340000 		.4byte	0x34ab
 11361 37a2 16       		.uleb128 0x16
 11362 37a3 4A0B0000 		.4byte	.LASF755
 11363 37a7 34       		.byte	0x34
 11364 37a8 15       		.byte	0x15
 11365 37a9 E1350000 		.4byte	0x35e1
 11366 37ad 16       		.uleb128 0x16
 11367 37ae 3F0F0000 		.4byte	.LASF756
 11368 37b2 34       		.byte	0x34
 11369 37b3 16       		.byte	0x16
 11370 37b4 2F350000 		.4byte	0x352f
 11371 37b8 2D       		.uleb128 0x2d
 11372 37b9 9F090000 		.4byte	.LASF761
 11373 37bd 01       		.byte	0x1
 11374 37be 4F       		.byte	0x4f
 11375 37bf 4E370000 		.4byte	0x374e
 11376 37c3 05       		.uleb128 0x5
 11377 37c4 03       		.byte	0x3
 11378 37c5 00000000 		.4byte	po8030_conf
 11379 37c9 2E       		.uleb128 0x2e
 11380 37ca CF080000 		.4byte	.LASF762
 11381 37ce 01       		.byte	0x1
 11382 37cf 50       		.byte	0x50
 11383 37d0 09150000 		.4byte	0x1509
 11384 37d4 2F       		.uleb128 0x2f
 11385 37d5 280C0000 		.4byte	.LASF757
 11386 37d9 01       		.byte	0x1
 11387 37da 0D04     		.2byte	0x40d
 11388 37dc 12010000 		.4byte	0x112
 11389 37e0 00000000 		.4byte	.LFB275
 11390 37e4 34000000 		.4byte	.LFE275-.LFB275
 11391 37e8 01       		.uleb128 0x1
 11392 37e9 9C       		.byte	0x9c
 11393 37ea F8370000 		.4byte	0x37f8
 11394 37ee 30       		.uleb128 0x30
 11395 37ef 2C000000 		.4byte	.LVL677
 11396 37f3 76630000 		.4byte	0x6376
 11397 37f7 00       		.byte	0
 11398 37f8 2F       		.uleb128 0x2f
 11399 37f9 E1190000 		.4byte	.LASF758
ARM GAS  C:\Users\mathi\AppData\Local\Temp\ccuMtzkg.s 			page 201


 11400 37fd 01       		.byte	0x1
 11401 37fe F303     		.2byte	0x3f3
 11402 3800 D1000000 		.4byte	0xd1
 11403 3804 00000000 		.4byte	.LFB274
 11404 3808 94000000 		.4byte	.LFE274-.LFB274
 11405 380c 01       		.uleb128 0x1
 11406 380d 9C       		.byte	0x9c
 11407 380e 78390000 		.4byte	0x3978
 11408 3812 31       		.uleb128 0x31
 11409 3813 40200000 		.4byte	.LASF759
 11410 3817 01       		.byte	0x1
 11411 3818 F303     		.2byte	0x3f3
 11412 381a F7000000 		.4byte	0xf7
 11413 381e 00000000 		.4byte	.LLST104
 11414 3822 31       		.uleb128 0x31
 11415 3823 7F060000 		.4byte	.LASF760
 11416 3827 01       		.byte	0x1
 11417 3828 F303     		.2byte	0x3f3
 11418 382a DC000000 		.4byte	0xdc
 11419 382e 21000000 		.4byte	.LLST105
 11420 3832 32       		.uleb128 0x32
 11421 3833 65727200 		.ascii	"err\000"
 11422 3837 01       		.byte	0x1
 11423 3838 F403     		.2byte	0x3f4
 11424 383a D1000000 		.4byte	0xd1
 11425 383e 42000000 		.4byte	.LLST106
 11426 3842 33       		.uleb128 0x33
 11427 3843 78390000 		.4byte	0x3978
 11428 3847 0E000000 		.4byte	.LBB310
 11429 384b 80010000 		.4byte	.Ldebug_ranges0+0x180
 11430 384f 01       		.byte	0x1
 11431 3850 F603     		.2byte	0x3f6
 11432 3852 DC380000 		.4byte	0x38dc
 11433 3856 34       		.uleb128 0x34
 11434 3857 89390000 		.4byte	0x3989
 11435 385b 83000000 		.4byte	.LLST107
 11436 385f 35       		.uleb128 0x35
 11437 3860 80010000 		.4byte	.Ldebug_ranges0+0x180
 11438 3864 36       		.uleb128 0x36
 11439 3865 EB620000 		.4byte	0x62eb
 11440 3869 36       		.uleb128 0x36
 11441 386a F4620000 		.4byte	0x62f4
 11442 386e 33       		.uleb128 0x33
 11443 386f 63460000 		.4byte	0x4663
 11444 3873 10000000 		.4byte	.LBB312
 11445 3877 98010000 		.4byte	.Ldebug_ranges0+0x198
 11446 387b 01       		.byte	0x1
 11447 387c DD03     		.2byte	0x3dd
 11448 387e A6380000 		.4byte	0x38a6
 11449 3882 34       		.uleb128 0x34
 11450 3883 73460000 		.4byte	0x4673
 11451 3887 A3000000 		.4byte	.LLST108
 11452 388b 37       		.uleb128 0x37
 11453 388c 1E000000 		.4byte	.LVL662
 11454 3890 7F630000 		.4byte	0x637f
 11455 3894 38       		.uleb128 0x38
 11456 3895 01       		.uleb128 0x1
ARM GAS  C:\Users\mathi\AppData\Local\Temp\ccuMtzkg.s 			page 202


 11457 3896 50       		.byte	0x50
 11458 3897 02       		.uleb128 0x2
 11459 3898 08       		.byte	0x8
 11460 3899 6E       		.byte	0x6e
 11461 389a 38       		.uleb128 0x38
 11462 389b 01       		.uleb128 0x1
 11463 389c 51       		.byte	0x51
 11464 389d 01       		.uleb128 0x1
 11465 389e 33       		.byte	0x33
 11466 389f 38       		.uleb128 0x38
 11467 38a0 01       		.uleb128 0x1
 11468 38a1 52       		.byte	0x52
 11469 38a2 01       		.uleb128 0x1
 11470 38a3 32       		.byte	0x32
 11471 38a4 00       		.byte	0
 11472 38a5 00       		.byte	0
 11473 38a6 39       		.uleb128 0x39
 11474 38a7 38000000 		.4byte	.LVL665
 11475 38ab 8A630000 		.4byte	0x638a
 11476 38af C5380000 		.4byte	0x38c5
 11477 38b3 38       		.uleb128 0x38
 11478 38b4 01       		.uleb128 0x1
 11479 38b5 50       		.byte	0x50
 11480 38b6 02       		.uleb128 0x2
 11481 38b7 08       		.byte	0x8
 11482 38b8 6E       		.byte	0x6e
 11483 38b9 38       		.uleb128 0x38
 11484 38ba 01       		.uleb128 0x1
 11485 38bb 51       		.byte	0x51
 11486 38bc 01       		.uleb128 0x1
 11487 38bd 34       		.byte	0x34
 11488 38be 38       		.uleb128 0x38
 11489 38bf 01       		.uleb128 0x1
 11490 38c0 52       		.byte	0x52
 11491 38c1 02       		.uleb128 0x2
 11492 38c2 91       		.byte	0x91
 11493 38c3 6B       		.sleb128 -21
 11494 38c4 00       		.byte	0
 11495 38c5 37       		.uleb128 0x37
 11496 38c6 52000000 		.4byte	.LVL667
 11497 38ca 7F630000 		.4byte	0x637f
 11498 38ce 38       		.uleb128 0x38
 11499 38cf 01       		.uleb128 0x1
 11500 38d0 50       		.byte	0x50
 11501 38d1 02       		.uleb128 0x2
 11502 38d2 08       		.byte	0x8
 11503 38d3 6E       		.byte	0x6e
 11504 38d4 38       		.uleb128 0x38
 11505 38d5 01       		.uleb128 0x1
 11506 38d6 51       		.byte	0x51
 11507 38d7 01       		.uleb128 0x1
 11508 38d8 34       		.byte	0x34
 11509 38d9 00       		.byte	0
 11510 38da 00       		.byte	0
 11511 38db 00       		.byte	0
 11512 38dc 3A       		.uleb128 0x3a
 11513 38dd 63460000 		.4byte	0x4663
ARM GAS  C:\Users\mathi\AppData\Local\Temp\ccuMtzkg.s 			page 203


 11514 38e1 56000000 		.4byte	.LBB318
 11515 38e5 0A000000 		.4byte	.LBE318-.LBB318
 11516 38e9 01       		.byte	0x1
 11517 38ea FA03     		.2byte	0x3fa
 11518 38ec 0F390000 		.4byte	0x390f
 11519 38f0 34       		.uleb128 0x34
 11520 38f1 73460000 		.4byte	0x4673
 11521 38f5 B7000000 		.4byte	.LLST109
 11522 38f9 37       		.uleb128 0x37
 11523 38fa 60000000 		.4byte	.LVL669
 11524 38fe 7F630000 		.4byte	0x637f
 11525 3902 38       		.uleb128 0x38
 11526 3903 01       		.uleb128 0x1
 11527 3904 50       		.byte	0x50
 11528 3905 02       		.uleb128 0x2
 11529 3906 08       		.byte	0x8
 11530 3907 6E       		.byte	0x6e
 11531 3908 38       		.uleb128 0x38
 11532 3909 01       		.uleb128 0x1
 11533 390a 51       		.byte	0x51
 11534 390b 01       		.uleb128 0x1
 11535 390c 33       		.byte	0x33
 11536 390d 00       		.byte	0
 11537 390e 00       		.byte	0
 11538 390f 39       		.uleb128 0x39
 11539 3910 6E000000 		.4byte	.LVL670
 11540 3914 7F630000 		.4byte	0x637f
 11541 3918 30390000 		.4byte	0x3930
 11542 391c 38       		.uleb128 0x38
 11543 391d 01       		.uleb128 0x1
 11544 391e 50       		.byte	0x50
 11545 391f 02       		.uleb128 0x2
 11546 3920 08       		.byte	0x8
 11547 3921 6E       		.byte	0x6e
 11548 3922 38       		.uleb128 0x38
 11549 3923 01       		.uleb128 0x1
 11550 3924 51       		.byte	0x51
 11551 3925 01       		.uleb128 0x1
 11552 3926 47       		.byte	0x47
 11553 3927 38       		.uleb128 0x38
 11554 3928 01       		.uleb128 0x1
 11555 3929 52       		.byte	0x52
 11556 392a 04       		.uleb128 0x4
 11557 392b 75       		.byte	0x75
 11558 392c 00       		.sleb128 0
 11559 392d 38       		.byte	0x38
 11560 392e 25       		.byte	0x25
 11561 392f 00       		.byte	0
 11562 3930 39       		.uleb128 0x39
 11563 3931 7C000000 		.4byte	.LVL672
 11564 3935 7F630000 		.4byte	0x637f
 11565 3939 4F390000 		.4byte	0x394f
 11566 393d 38       		.uleb128 0x38
 11567 393e 01       		.uleb128 0x1
 11568 393f 50       		.byte	0x50
 11569 3940 02       		.uleb128 0x2
 11570 3941 08       		.byte	0x8
ARM GAS  C:\Users\mathi\AppData\Local\Temp\ccuMtzkg.s 			page 204


 11571 3942 6E       		.byte	0x6e
 11572 3943 38       		.uleb128 0x38
 11573 3944 01       		.uleb128 0x1
 11574 3945 51       		.byte	0x51
 11575 3946 01       		.uleb128 0x1
 11576 3947 48       		.byte	0x48
 11577 3948 38       		.uleb128 0x38
 11578 3949 01       		.uleb128 0x1
 11579 394a 52       		.byte	0x52
 11580 394b 02       		.uleb128 0x2
 11581 394c 75       		.byte	0x75
 11582 394d 00       		.sleb128 0
 11583 394e 00       		.byte	0
 11584 394f 39       		.uleb128 0x39
 11585 3950 8A000000 		.4byte	.LVL674
 11586 3954 7F630000 		.4byte	0x637f
 11587 3958 6E390000 		.4byte	0x396e
 11588 395c 38       		.uleb128 0x38
 11589 395d 01       		.uleb128 0x1
 11590 395e 50       		.byte	0x50
 11591 395f 02       		.uleb128 0x2
 11592 3960 08       		.byte	0x8
 11593 3961 6E       		.byte	0x6e
 11594 3962 38       		.uleb128 0x38
 11595 3963 01       		.uleb128 0x1
 11596 3964 51       		.byte	0x51
 11597 3965 01       		.uleb128 0x1
 11598 3966 49       		.byte	0x49
 11599 3967 38       		.uleb128 0x38
 11600 3968 01       		.uleb128 0x1
 11601 3969 52       		.byte	0x52
 11602 396a 02       		.uleb128 0x2
 11603 396b 76       		.byte	0x76
 11604 396c 00       		.sleb128 0
 11605 396d 00       		.byte	0
 11606 396e 30       		.uleb128 0x30
 11607 396f 90000000 		.4byte	.LVL676
 11608 3973 76630000 		.4byte	0x6376
 11609 3977 00       		.byte	0
 11610 3978 3B       		.uleb128 0x3b
 11611 3979 601A0000 		.4byte	.LASF765
 11612 397d 01       		.byte	0x1
 11613 397e D903     		.2byte	0x3d9
 11614 3980 D1000000 		.4byte	0xd1
 11615 3984 01       		.byte	0x1
 11616 3985 AD390000 		.4byte	0x39ad
 11617 3989 3C       		.uleb128 0x3c
 11618 398a 616500   		.ascii	"ae\000"
 11619 398d 01       		.byte	0x1
 11620 398e D903     		.2byte	0x3d9
 11621 3990 DC000000 		.4byte	0xdc
 11622 3994 3D       		.uleb128 0x3d
 11623 3995 65727200 		.ascii	"err\000"
 11624 3999 01       		.byte	0x1
 11625 399a DA03     		.2byte	0x3da
 11626 399c D1000000 		.4byte	0xd1
 11627 39a0 3E       		.uleb128 0x3e
ARM GAS  C:\Users\mathi\AppData\Local\Temp\ccuMtzkg.s 			page 205


 11628 39a1 630B0000 		.4byte	.LASF763
 11629 39a5 01       		.byte	0x1
 11630 39a6 DB03     		.2byte	0x3db
 11631 39a8 DC000000 		.4byte	0xdc
 11632 39ac 00       		.byte	0
 11633 39ad 2F       		.uleb128 0x2f
 11634 39ae 87000000 		.4byte	.LASF764
 11635 39b2 01       		.byte	0x1
 11636 39b3 BE03     		.2byte	0x3be
 11637 39b5 D1000000 		.4byte	0xd1
 11638 39b9 00000000 		.4byte	.LFB272
 11639 39bd 98000000 		.4byte	.LFE272-.LFB272
 11640 39c1 01       		.uleb128 0x1
 11641 39c2 9C       		.byte	0x9c
 11642 39c3 383B0000 		.4byte	0x3b38
 11643 39c7 3F       		.uleb128 0x3f
 11644 39c8 7200     		.ascii	"r\000"
 11645 39ca 01       		.byte	0x1
 11646 39cb BE03     		.2byte	0x3be
 11647 39cd DC000000 		.4byte	0xdc
 11648 39d1 CB000000 		.4byte	.LLST94
 11649 39d5 3F       		.uleb128 0x3f
 11650 39d6 6700     		.ascii	"g\000"
 11651 39d8 01       		.byte	0x1
 11652 39d9 BE03     		.2byte	0x3be
 11653 39db DC000000 		.4byte	0xdc
 11654 39df EC000000 		.4byte	.LLST95
 11655 39e3 3F       		.uleb128 0x3f
 11656 39e4 6200     		.ascii	"b\000"
 11657 39e6 01       		.byte	0x1
 11658 39e7 BE03     		.2byte	0x3be
 11659 39e9 DC000000 		.4byte	0xdc
 11660 39ed 0D010000 		.4byte	.LLST96
 11661 39f1 32       		.uleb128 0x32
 11662 39f2 65727200 		.ascii	"err\000"
 11663 39f6 01       		.byte	0x1
 11664 39f7 BF03     		.2byte	0x3bf
 11665 39f9 D1000000 		.4byte	0xd1
 11666 39fd 2E010000 		.4byte	.LLST97
 11667 3a01 33       		.uleb128 0x33
 11668 3a02 383B0000 		.4byte	0x3b38
 11669 3a06 10000000 		.4byte	.LBB288
 11670 3a0a 38010000 		.4byte	.Ldebug_ranges0+0x138
 11671 3a0e 01       		.byte	0x1
 11672 3a0f C103     		.2byte	0x3c1
 11673 3a11 9B3A0000 		.4byte	0x3a9b
 11674 3a15 34       		.uleb128 0x34
 11675 3a16 493B0000 		.4byte	0x3b49
 11676 3a1a 6F010000 		.4byte	.LLST98
 11677 3a1e 35       		.uleb128 0x35
 11678 3a1f 38010000 		.4byte	.Ldebug_ranges0+0x138
 11679 3a23 36       		.uleb128 0x36
 11680 3a24 44620000 		.4byte	0x6244
 11681 3a28 36       		.uleb128 0x36
 11682 3a29 4D620000 		.4byte	0x624d
 11683 3a2d 33       		.uleb128 0x33
 11684 3a2e 63460000 		.4byte	0x4663
ARM GAS  C:\Users\mathi\AppData\Local\Temp\ccuMtzkg.s 			page 206


 11685 3a32 12000000 		.4byte	.LBB290
 11686 3a36 50010000 		.4byte	.Ldebug_ranges0+0x150
 11687 3a3a 01       		.byte	0x1
 11688 3a3b A703     		.2byte	0x3a7
 11689 3a3d 653A0000 		.4byte	0x3a65
 11690 3a41 34       		.uleb128 0x34
 11691 3a42 73460000 		.4byte	0x4673
 11692 3a46 8F010000 		.4byte	.LLST99
 11693 3a4a 37       		.uleb128 0x37
 11694 3a4b 20000000 		.4byte	.LVL633
 11695 3a4f 7F630000 		.4byte	0x637f
 11696 3a53 38       		.uleb128 0x38
 11697 3a54 01       		.uleb128 0x1
 11698 3a55 50       		.byte	0x50
 11699 3a56 02       		.uleb128 0x2
 11700 3a57 08       		.byte	0x8
 11701 3a58 6E       		.byte	0x6e
 11702 3a59 38       		.uleb128 0x38
 11703 3a5a 01       		.uleb128 0x1
 11704 3a5b 51       		.byte	0x51
 11705 3a5c 01       		.uleb128 0x1
 11706 3a5d 33       		.byte	0x33
 11707 3a5e 38       		.uleb128 0x38
 11708 3a5f 01       		.uleb128 0x1
 11709 3a60 52       		.byte	0x52
 11710 3a61 01       		.uleb128 0x1
 11711 3a62 32       		.byte	0x32
 11712 3a63 00       		.byte	0
 11713 3a64 00       		.byte	0
 11714 3a65 39       		.uleb128 0x39
 11715 3a66 3A000000 		.4byte	.LVL636
 11716 3a6a 8A630000 		.4byte	0x638a
 11717 3a6e 843A0000 		.4byte	0x3a84
 11718 3a72 38       		.uleb128 0x38
 11719 3a73 01       		.uleb128 0x1
 11720 3a74 50       		.byte	0x50
 11721 3a75 02       		.uleb128 0x2
 11722 3a76 08       		.byte	0x8
 11723 3a77 6E       		.byte	0x6e
 11724 3a78 38       		.uleb128 0x38
 11725 3a79 01       		.uleb128 0x1
 11726 3a7a 51       		.byte	0x51
 11727 3a7b 01       		.uleb128 0x1
 11728 3a7c 34       		.byte	0x34
 11729 3a7d 38       		.uleb128 0x38
 11730 3a7e 01       		.uleb128 0x1
 11731 3a7f 52       		.byte	0x52
 11732 3a80 02       		.uleb128 0x2
 11733 3a81 91       		.byte	0x91
 11734 3a82 63       		.sleb128 -29
 11735 3a83 00       		.byte	0
 11736 3a84 37       		.uleb128 0x37
 11737 3a85 54000000 		.4byte	.LVL638
 11738 3a89 7F630000 		.4byte	0x637f
 11739 3a8d 38       		.uleb128 0x38
 11740 3a8e 01       		.uleb128 0x1
 11741 3a8f 50       		.byte	0x50
ARM GAS  C:\Users\mathi\AppData\Local\Temp\ccuMtzkg.s 			page 207


 11742 3a90 02       		.uleb128 0x2
 11743 3a91 08       		.byte	0x8
 11744 3a92 6E       		.byte	0x6e
 11745 3a93 38       		.uleb128 0x38
 11746 3a94 01       		.uleb128 0x1
 11747 3a95 51       		.byte	0x51
 11748 3a96 01       		.uleb128 0x1
 11749 3a97 34       		.byte	0x34
 11750 3a98 00       		.byte	0
 11751 3a99 00       		.byte	0
 11752 3a9a 00       		.byte	0
 11753 3a9b 3A       		.uleb128 0x3a
 11754 3a9c 63460000 		.4byte	0x4663
 11755 3aa0 58000000 		.4byte	.LBB296
 11756 3aa4 0A000000 		.4byte	.LBE296-.LBB296
 11757 3aa8 01       		.byte	0x1
 11758 3aa9 C503     		.2byte	0x3c5
 11759 3aab CE3A0000 		.4byte	0x3ace
 11760 3aaf 34       		.uleb128 0x34
 11761 3ab0 73460000 		.4byte	0x4673
 11762 3ab4 A3010000 		.4byte	.LLST100
 11763 3ab8 37       		.uleb128 0x37
 11764 3ab9 62000000 		.4byte	.LVL640
 11765 3abd 7F630000 		.4byte	0x637f
 11766 3ac1 38       		.uleb128 0x38
 11767 3ac2 01       		.uleb128 0x1
 11768 3ac3 50       		.byte	0x50
 11769 3ac4 02       		.uleb128 0x2
 11770 3ac5 08       		.byte	0x8
 11771 3ac6 6E       		.byte	0x6e
 11772 3ac7 38       		.uleb128 0x38
 11773 3ac8 01       		.uleb128 0x1
 11774 3ac9 51       		.byte	0x51
 11775 3aca 01       		.uleb128 0x1
 11776 3acb 33       		.byte	0x33
 11777 3acc 00       		.byte	0
 11778 3acd 00       		.byte	0
 11779 3ace 39       		.uleb128 0x39
 11780 3acf 70000000 		.4byte	.LVL641
 11781 3ad3 7F630000 		.4byte	0x637f
 11782 3ad7 EE3A0000 		.4byte	0x3aee
 11783 3adb 38       		.uleb128 0x38
 11784 3adc 01       		.uleb128 0x1
 11785 3add 50       		.byte	0x50
 11786 3ade 02       		.uleb128 0x2
 11787 3adf 08       		.byte	0x8
 11788 3ae0 6E       		.byte	0x6e
 11789 3ae1 38       		.uleb128 0x38
 11790 3ae2 01       		.uleb128 0x1
 11791 3ae3 51       		.byte	0x51
 11792 3ae4 02       		.uleb128 0x2
 11793 3ae5 08       		.byte	0x8
 11794 3ae6 23       		.byte	0x23
 11795 3ae7 38       		.uleb128 0x38
 11796 3ae8 01       		.uleb128 0x1
 11797 3ae9 52       		.byte	0x52
 11798 3aea 02       		.uleb128 0x2
ARM GAS  C:\Users\mathi\AppData\Local\Temp\ccuMtzkg.s 			page 208


 11799 3aeb 75       		.byte	0x75
 11800 3aec 00       		.sleb128 0
 11801 3aed 00       		.byte	0
 11802 3aee 39       		.uleb128 0x39
 11803 3aef 7E000000 		.4byte	.LVL643
 11804 3af3 7F630000 		.4byte	0x637f
 11805 3af7 0E3B0000 		.4byte	0x3b0e
 11806 3afb 38       		.uleb128 0x38
 11807 3afc 01       		.uleb128 0x1
 11808 3afd 50       		.byte	0x50
 11809 3afe 02       		.uleb128 0x2
 11810 3aff 08       		.byte	0x8
 11811 3b00 6E       		.byte	0x6e
 11812 3b01 38       		.uleb128 0x38
 11813 3b02 01       		.uleb128 0x1
 11814 3b03 51       		.byte	0x51
 11815 3b04 02       		.uleb128 0x2
 11816 3b05 08       		.byte	0x8
 11817 3b06 24       		.byte	0x24
 11818 3b07 38       		.uleb128 0x38
 11819 3b08 01       		.uleb128 0x1
 11820 3b09 52       		.byte	0x52
 11821 3b0a 02       		.uleb128 0x2
 11822 3b0b 76       		.byte	0x76
 11823 3b0c 00       		.sleb128 0
 11824 3b0d 00       		.byte	0
 11825 3b0e 39       		.uleb128 0x39
 11826 3b0f 8C000000 		.4byte	.LVL645
 11827 3b13 7F630000 		.4byte	0x637f
 11828 3b17 2E3B0000 		.4byte	0x3b2e
 11829 3b1b 38       		.uleb128 0x38
 11830 3b1c 01       		.uleb128 0x1
 11831 3b1d 50       		.byte	0x50
 11832 3b1e 02       		.uleb128 0x2
 11833 3b1f 08       		.byte	0x8
 11834 3b20 6E       		.byte	0x6e
 11835 3b21 38       		.uleb128 0x38
 11836 3b22 01       		.uleb128 0x1
 11837 3b23 51       		.byte	0x51
 11838 3b24 02       		.uleb128 0x2
 11839 3b25 08       		.byte	0x8
 11840 3b26 25       		.byte	0x25
 11841 3b27 38       		.uleb128 0x38
 11842 3b28 01       		.uleb128 0x1
 11843 3b29 52       		.byte	0x52
 11844 3b2a 02       		.uleb128 0x2
 11845 3b2b 77       		.byte	0x77
 11846 3b2c 00       		.sleb128 0
 11847 3b2d 00       		.byte	0
 11848 3b2e 30       		.uleb128 0x30
 11849 3b2f 92000000 		.4byte	.LVL647
 11850 3b33 76630000 		.4byte	0x6376
 11851 3b37 00       		.byte	0
 11852 3b38 3B       		.uleb128 0x3b
 11853 3b39 0C130000 		.4byte	.LASF766
 11854 3b3d 01       		.byte	0x1
 11855 3b3e A303     		.2byte	0x3a3
ARM GAS  C:\Users\mathi\AppData\Local\Temp\ccuMtzkg.s 			page 209


 11856 3b40 D1000000 		.4byte	0xd1
 11857 3b44 01       		.byte	0x1
 11858 3b45 6E3B0000 		.4byte	0x3b6e
 11859 3b49 3C       		.uleb128 0x3c
 11860 3b4a 61776200 		.ascii	"awb\000"
 11861 3b4e 01       		.byte	0x1
 11862 3b4f A303     		.2byte	0x3a3
 11863 3b51 DC000000 		.4byte	0xdc
 11864 3b55 3D       		.uleb128 0x3d
 11865 3b56 65727200 		.ascii	"err\000"
 11866 3b5a 01       		.byte	0x1
 11867 3b5b A403     		.2byte	0x3a4
 11868 3b5d D1000000 		.4byte	0xd1
 11869 3b61 3E       		.uleb128 0x3e
 11870 3b62 630B0000 		.4byte	.LASF763
 11871 3b66 01       		.byte	0x1
 11872 3b67 A503     		.2byte	0x3a5
 11873 3b69 DC000000 		.4byte	0xdc
 11874 3b6d 00       		.byte	0
 11875 3b6e 2F       		.uleb128 0x2f
 11876 3b6f 801C0000 		.4byte	.LASF767
 11877 3b73 01       		.byte	0x1
 11878 3b74 8E03     		.2byte	0x38e
 11879 3b76 D1000000 		.4byte	0xd1
 11880 3b7a 00000000 		.4byte	.LFB270
 11881 3b7e 58000000 		.4byte	.LFE270-.LFB270
 11882 3b82 01       		.uleb128 0x1
 11883 3b83 9C       		.byte	0x9c
 11884 3b84 243C0000 		.4byte	0x3c24
 11885 3b88 31       		.uleb128 0x31
 11886 3b89 1A1F0000 		.4byte	.LASF768
 11887 3b8d 01       		.byte	0x1
 11888 3b8e 8E03     		.2byte	0x38e
 11889 3b90 DC000000 		.4byte	0xdc
 11890 3b94 B7010000 		.4byte	.LLST86
 11891 3b98 31       		.uleb128 0x31
 11892 3b99 E51B0000 		.4byte	.LASF769
 11893 3b9d 01       		.byte	0x1
 11894 3b9e 8E03     		.2byte	0x38e
 11895 3ba0 DC000000 		.4byte	0xdc
 11896 3ba4 D8010000 		.4byte	.LLST87
 11897 3ba8 32       		.uleb128 0x32
 11898 3ba9 65727200 		.ascii	"err\000"
 11899 3bad 01       		.byte	0x1
 11900 3bae 8F03     		.2byte	0x38f
 11901 3bb0 D1000000 		.4byte	0xd1
 11902 3bb4 F9010000 		.4byte	.LLST88
 11903 3bb8 40       		.uleb128 0x40
 11904 3bb9 630B0000 		.4byte	.LASF763
 11905 3bbd 01       		.byte	0x1
 11906 3bbe 9003     		.2byte	0x390
 11907 3bc0 DC000000 		.4byte	0xdc
 11908 3bc4 0D020000 		.4byte	.LLST89
 11909 3bc8 3A       		.uleb128 0x3a
 11910 3bc9 63460000 		.4byte	0x4663
 11911 3bcd 0E000000 		.4byte	.LBB274
 11912 3bd1 0A000000 		.4byte	.LBE274-.LBB274
ARM GAS  C:\Users\mathi\AppData\Local\Temp\ccuMtzkg.s 			page 210


 11913 3bd5 01       		.byte	0x1
 11914 3bd6 9203     		.2byte	0x392
 11915 3bd8 003C0000 		.4byte	0x3c00
 11916 3bdc 34       		.uleb128 0x34
 11917 3bdd 73460000 		.4byte	0x4673
 11918 3be1 F9010000 		.4byte	.LLST88
 11919 3be5 37       		.uleb128 0x37
 11920 3be6 18000000 		.4byte	.LVL612
 11921 3bea 7F630000 		.4byte	0x637f
 11922 3bee 38       		.uleb128 0x38
 11923 3bef 01       		.uleb128 0x1
 11924 3bf0 50       		.byte	0x50
 11925 3bf1 02       		.uleb128 0x2
 11926 3bf2 08       		.byte	0x8
 11927 3bf3 6E       		.byte	0x6e
 11928 3bf4 38       		.uleb128 0x38
 11929 3bf5 01       		.uleb128 0x1
 11930 3bf6 51       		.byte	0x51
 11931 3bf7 01       		.uleb128 0x1
 11932 3bf8 33       		.byte	0x33
 11933 3bf9 38       		.uleb128 0x38
 11934 3bfa 01       		.uleb128 0x1
 11935 3bfb 52       		.byte	0x52
 11936 3bfc 01       		.uleb128 0x1
 11937 3bfd 30       		.byte	0x30
 11938 3bfe 00       		.byte	0
 11939 3bff 00       		.byte	0
 11940 3c00 41       		.uleb128 0x41
 11941 3c01 42000000 		.4byte	.LVL615
 11942 3c05 7F630000 		.4byte	0x637f
 11943 3c09 1A3C0000 		.4byte	0x3c1a
 11944 3c0d 38       		.uleb128 0x38
 11945 3c0e 01       		.uleb128 0x1
 11946 3c0f 50       		.byte	0x50
 11947 3c10 02       		.uleb128 0x2
 11948 3c11 08       		.byte	0x8
 11949 3c12 6E       		.byte	0x6e
 11950 3c13 38       		.uleb128 0x38
 11951 3c14 01       		.uleb128 0x1
 11952 3c15 51       		.byte	0x51
 11953 3c16 02       		.uleb128 0x2
 11954 3c17 08       		.byte	0x8
 11955 3c18 6C       		.byte	0x6c
 11956 3c19 00       		.byte	0
 11957 3c1a 30       		.uleb128 0x30
 11958 3c1b 52000000 		.4byte	.LVL617
 11959 3c1f 76630000 		.4byte	0x6376
 11960 3c23 00       		.byte	0
 11961 3c24 2F       		.uleb128 0x2f
 11962 3c25 52050000 		.4byte	.LASF770
 11963 3c29 01       		.byte	0x1
 11964 3c2a 8203     		.2byte	0x382
 11965 3c2c D1000000 		.4byte	0xd1
 11966 3c30 00000000 		.4byte	.LFB269
 11967 3c34 40000000 		.4byte	.LFE269-.LFB269
 11968 3c38 01       		.uleb128 0x1
 11969 3c39 9C       		.byte	0x9c
ARM GAS  C:\Users\mathi\AppData\Local\Temp\ccuMtzkg.s 			page 211


 11970 3c3a BA3C0000 		.4byte	0x3cba
 11971 3c3e 31       		.uleb128 0x31
 11972 3c3f 630B0000 		.4byte	.LASF763
 11973 3c43 01       		.byte	0x1
 11974 3c44 8203     		.2byte	0x382
 11975 3c46 DC000000 		.4byte	0xdc
 11976 3c4a 43020000 		.4byte	.LLST83
 11977 3c4e 32       		.uleb128 0x32
 11978 3c4f 65727200 		.ascii	"err\000"
 11979 3c53 01       		.byte	0x1
 11980 3c54 8303     		.2byte	0x383
 11981 3c56 D1000000 		.4byte	0xd1
 11982 3c5a 64020000 		.4byte	.LLST84
 11983 3c5e 33       		.uleb128 0x33
 11984 3c5f 63460000 		.4byte	0x4663
 11985 3c63 0A000000 		.4byte	.LBB270
 11986 3c67 08010000 		.4byte	.Ldebug_ranges0+0x108
 11987 3c6b 01       		.byte	0x1
 11988 3c6c 8403     		.2byte	0x384
 11989 3c6e 963C0000 		.4byte	0x3c96
 11990 3c72 34       		.uleb128 0x34
 11991 3c73 73460000 		.4byte	0x4673
 11992 3c77 78020000 		.4byte	.LLST85
 11993 3c7b 37       		.uleb128 0x37
 11994 3c7c 16000000 		.4byte	.LVL605
 11995 3c80 7F630000 		.4byte	0x637f
 11996 3c84 38       		.uleb128 0x38
 11997 3c85 01       		.uleb128 0x1
 11998 3c86 50       		.byte	0x50
 11999 3c87 02       		.uleb128 0x2
 12000 3c88 08       		.byte	0x8
 12001 3c89 6E       		.byte	0x6e
 12002 3c8a 38       		.uleb128 0x38
 12003 3c8b 01       		.uleb128 0x1
 12004 3c8c 51       		.byte	0x51
 12005 3c8d 01       		.uleb128 0x1
 12006 3c8e 33       		.byte	0x33
 12007 3c8f 38       		.uleb128 0x38
 12008 3c90 01       		.uleb128 0x1
 12009 3c91 52       		.byte	0x52
 12010 3c92 01       		.uleb128 0x1
 12011 3c93 31       		.byte	0x31
 12012 3c94 00       		.byte	0
 12013 3c95 00       		.byte	0
 12014 3c96 41       		.uleb128 0x41
 12015 3c97 38000000 		.4byte	.LVL606
 12016 3c9b 7F630000 		.4byte	0x637f
 12017 3c9f B03C0000 		.4byte	0x3cb0
 12018 3ca3 38       		.uleb128 0x38
 12019 3ca4 01       		.uleb128 0x1
 12020 3ca5 50       		.byte	0x50
 12021 3ca6 02       		.uleb128 0x2
 12022 3ca7 08       		.byte	0x8
 12023 3ca8 6E       		.byte	0x6e
 12024 3ca9 38       		.uleb128 0x38
 12025 3caa 01       		.uleb128 0x1
 12026 3cab 51       		.byte	0x51
ARM GAS  C:\Users\mathi\AppData\Local\Temp\ccuMtzkg.s 			page 212


 12027 3cac 02       		.uleb128 0x2
 12028 3cad 09       		.byte	0x9
 12029 3cae 9D       		.byte	0x9d
 12030 3caf 00       		.byte	0
 12031 3cb0 30       		.uleb128 0x30
 12032 3cb1 3C000000 		.4byte	.LVL607
 12033 3cb5 76630000 		.4byte	0x6376
 12034 3cb9 00       		.byte	0
 12035 3cba 2F       		.uleb128 0x2f
 12036 3cbb 7B100000 		.4byte	.LASF771
 12037 3cbf 01       		.byte	0x1
 12038 3cc0 7703     		.2byte	0x377
 12039 3cc2 D1000000 		.4byte	0xd1
 12040 3cc6 00000000 		.4byte	.LFB268
 12041 3cca 40000000 		.4byte	.LFE268-.LFB268
 12042 3cce 01       		.uleb128 0x1
 12043 3ccf 9C       		.byte	0x9c
 12044 3cd0 503D0000 		.4byte	0x3d50
 12045 3cd4 31       		.uleb128 0x31
 12046 3cd5 630B0000 		.4byte	.LASF763
 12047 3cd9 01       		.byte	0x1
 12048 3cda 7703     		.2byte	0x377
 12049 3cdc DC000000 		.4byte	0xdc
 12050 3ce0 8C020000 		.4byte	.LLST80
 12051 3ce4 32       		.uleb128 0x32
 12052 3ce5 65727200 		.ascii	"err\000"
 12053 3ce9 01       		.byte	0x1
 12054 3cea 7803     		.2byte	0x378
 12055 3cec D1000000 		.4byte	0xd1
 12056 3cf0 AD020000 		.4byte	.LLST81
 12057 3cf4 33       		.uleb128 0x33
 12058 3cf5 63460000 		.4byte	0x4663
 12059 3cf9 0A000000 		.4byte	.LBB266
 12060 3cfd F0000000 		.4byte	.Ldebug_ranges0+0xf0
 12061 3d01 01       		.byte	0x1
 12062 3d02 7903     		.2byte	0x379
 12063 3d04 2C3D0000 		.4byte	0x3d2c
 12064 3d08 34       		.uleb128 0x34
 12065 3d09 73460000 		.4byte	0x4673
 12066 3d0d C1020000 		.4byte	.LLST82
 12067 3d11 37       		.uleb128 0x37
 12068 3d12 16000000 		.4byte	.LVL599
 12069 3d16 7F630000 		.4byte	0x637f
 12070 3d1a 38       		.uleb128 0x38
 12071 3d1b 01       		.uleb128 0x1
 12072 3d1c 50       		.byte	0x50
 12073 3d1d 02       		.uleb128 0x2
 12074 3d1e 08       		.byte	0x8
 12075 3d1f 6E       		.byte	0x6e
 12076 3d20 38       		.uleb128 0x38
 12077 3d21 01       		.uleb128 0x1
 12078 3d22 51       		.byte	0x51
 12079 3d23 01       		.uleb128 0x1
 12080 3d24 33       		.byte	0x33
 12081 3d25 38       		.uleb128 0x38
 12082 3d26 01       		.uleb128 0x1
 12083 3d27 52       		.byte	0x52
ARM GAS  C:\Users\mathi\AppData\Local\Temp\ccuMtzkg.s 			page 213


 12084 3d28 01       		.uleb128 0x1
 12085 3d29 31       		.byte	0x31
 12086 3d2a 00       		.byte	0
 12087 3d2b 00       		.byte	0
 12088 3d2c 41       		.uleb128 0x41
 12089 3d2d 38000000 		.4byte	.LVL600
 12090 3d31 7F630000 		.4byte	0x637f
 12091 3d35 463D0000 		.4byte	0x3d46
 12092 3d39 38       		.uleb128 0x38
 12093 3d3a 01       		.uleb128 0x1
 12094 3d3b 50       		.byte	0x50
 12095 3d3c 02       		.uleb128 0x2
 12096 3d3d 08       		.byte	0x8
 12097 3d3e 6E       		.byte	0x6e
 12098 3d3f 38       		.uleb128 0x38
 12099 3d40 01       		.uleb128 0x1
 12100 3d41 51       		.byte	0x51
 12101 3d42 02       		.uleb128 0x2
 12102 3d43 09       		.byte	0x9
 12103 3d44 9E       		.byte	0x9e
 12104 3d45 00       		.byte	0
 12105 3d46 30       		.uleb128 0x30
 12106 3d47 3C000000 		.4byte	.LVL601
 12107 3d4b 76630000 		.4byte	0x6376
 12108 3d4f 00       		.byte	0
 12109 3d50 3B       		.uleb128 0x3b
 12110 3d51 17200000 		.4byte	.LASF772
 12111 3d55 01       		.byte	0x1
 12112 3d56 9102     		.2byte	0x291
 12113 3d58 D1000000 		.4byte	0xd1
 12114 3d5c 01       		.byte	0x1
 12115 3d5d 1E3E0000 		.4byte	0x3e1e
 12116 3d61 3C       		.uleb128 0x3c
 12117 3d62 666D7400 		.ascii	"fmt\000"
 12118 3d66 01       		.byte	0x1
 12119 3d67 9102     		.2byte	0x291
 12120 3d69 ED360000 		.4byte	0x36ed
 12121 3d6d 3C       		.uleb128 0x3c
 12122 3d6e 783100   		.ascii	"x1\000"
 12123 3d71 01       		.byte	0x1
 12124 3d72 9102     		.2byte	0x291
 12125 3d74 2C000000 		.4byte	0x2c
 12126 3d78 3C       		.uleb128 0x3c
 12127 3d79 793100   		.ascii	"y1\000"
 12128 3d7c 01       		.byte	0x1
 12129 3d7d 9102     		.2byte	0x291
 12130 3d7f 2C000000 		.4byte	0x2c
 12131 3d83 42       		.uleb128 0x42
 12132 3d84 EC1A0000 		.4byte	.LASF749
 12133 3d88 01       		.byte	0x1
 12134 3d89 9202     		.2byte	0x292
 12135 3d8b 2C000000 		.4byte	0x2c
 12136 3d8f 42       		.uleb128 0x42
 12137 3d90 61030000 		.4byte	.LASF750
 12138 3d94 01       		.byte	0x1
 12139 3d95 9202     		.2byte	0x292
 12140 3d97 2C000000 		.4byte	0x2c
ARM GAS  C:\Users\mathi\AppData\Local\Temp\ccuMtzkg.s 			page 214


 12141 3d9b 42       		.uleb128 0x42
 12142 3d9c 110F0000 		.4byte	.LASF773
 12143 3da0 01       		.byte	0x1
 12144 3da1 9302     		.2byte	0x293
 12145 3da3 43370000 		.4byte	0x3743
 12146 3da7 42       		.uleb128 0x42
 12147 3da8 1F0F0000 		.4byte	.LASF774
 12148 3dac 01       		.byte	0x1
 12149 3dad 9302     		.2byte	0x293
 12150 3daf 43370000 		.4byte	0x3743
 12151 3db3 3D       		.uleb128 0x3d
 12152 3db4 65727200 		.ascii	"err\000"
 12153 3db8 01       		.byte	0x1
 12154 3db9 9402     		.2byte	0x294
 12155 3dbb D1000000 		.4byte	0xd1
 12156 3dbf 3D       		.uleb128 0x3d
 12157 3dc0 783200   		.ascii	"x2\000"
 12158 3dc3 01       		.byte	0x1
 12159 3dc4 9502     		.2byte	0x295
 12160 3dc6 2C000000 		.4byte	0x2c
 12161 3dca 3D       		.uleb128 0x3d
 12162 3dcb 793200   		.ascii	"y2\000"
 12163 3dce 01       		.byte	0x1
 12164 3dcf 9602     		.2byte	0x296
 12165 3dd1 2C000000 		.4byte	0x2c
 12166 3dd5 3E       		.uleb128 0x3e
 12167 3dd6 B5170000 		.4byte	.LASF775
 12168 3dda 01       		.byte	0x1
 12169 3ddb 9702     		.2byte	0x297
 12170 3ddd 2C000000 		.4byte	0x2c
 12171 3de1 3E       		.uleb128 0x3e
 12172 3de2 8A0A0000 		.4byte	.LASF776
 12173 3de6 01       		.byte	0x1
 12174 3de7 9702     		.2byte	0x297
 12175 3de9 2C000000 		.4byte	0x2c
 12176 3ded 3E       		.uleb128 0x3e
 12177 3dee BC0B0000 		.4byte	.LASF777
 12178 3df2 01       		.byte	0x1
 12179 3df3 9802     		.2byte	0x298
 12180 3df5 2C000000 		.4byte	0x2c
 12181 3df9 3E       		.uleb128 0x3e
 12182 3dfa 36180000 		.4byte	.LASF778
 12183 3dfe 01       		.byte	0x1
 12184 3dff 9802     		.2byte	0x298
 12185 3e01 2C000000 		.4byte	0x2c
 12186 3e05 3E       		.uleb128 0x3e
 12187 3e06 74150000 		.4byte	.LASF779
 12188 3e0a 01       		.byte	0x1
 12189 3e0b 9902     		.2byte	0x299
 12190 3e0d 2C000000 		.4byte	0x2c
 12191 3e11 3E       		.uleb128 0x3e
 12192 3e12 3F160000 		.4byte	.LASF780
 12193 3e16 01       		.byte	0x1
 12194 3e17 9A02     		.2byte	0x29a
 12195 3e19 25000000 		.4byte	0x25
 12196 3e1d 00       		.byte	0
 12197 3e1e 2F       		.uleb128 0x2f
ARM GAS  C:\Users\mathi\AppData\Local\Temp\ccuMtzkg.s 			page 215


 12198 3e1f D81D0000 		.4byte	.LASF781
 12199 3e23 01       		.byte	0x1
 12200 3e24 7702     		.2byte	0x277
 12201 3e26 D1000000 		.4byte	0xd1
 12202 3e2a 00000000 		.4byte	.LFB266
 12203 3e2e 80000000 		.4byte	.LFE266-.LFB266
 12204 3e32 01       		.uleb128 0x1
 12205 3e33 9C       		.byte	0x9c
 12206 3e34 313F0000 		.4byte	0x3f31
 12207 3e38 3F       		.uleb128 0x3f
 12208 3e39 666D7400 		.ascii	"fmt\000"
 12209 3e3d 01       		.byte	0x1
 12210 3e3e 7702     		.2byte	0x277
 12211 3e40 ED360000 		.4byte	0x36ed
 12212 3e44 D5020000 		.4byte	.LLST54
 12213 3e48 31       		.uleb128 0x31
 12214 3e49 1C170000 		.4byte	.LASF782
 12215 3e4d 01       		.byte	0x1
 12216 3e4e 7702     		.2byte	0x277
 12217 3e50 18370000 		.4byte	0x3718
 12218 3e54 F6020000 		.4byte	.LLST55
 12219 3e58 32       		.uleb128 0x32
 12220 3e59 65727200 		.ascii	"err\000"
 12221 3e5d 01       		.byte	0x1
 12222 3e5e 7902     		.2byte	0x279
 12223 3e60 D1000000 		.4byte	0xd1
 12224 3e64 17030000 		.4byte	.LLST56
 12225 3e68 3A       		.uleb128 0x3a
 12226 3e69 63460000 		.4byte	0x4663
 12227 3e6d 0E000000 		.4byte	.LBB248
 12228 3e71 0A000000 		.4byte	.LBE248-.LBB248
 12229 3e75 01       		.byte	0x1
 12230 3e76 7B02     		.2byte	0x27b
 12231 3e78 A03E0000 		.4byte	0x3ea0
 12232 3e7c 34       		.uleb128 0x34
 12233 3e7d 73460000 		.4byte	0x4673
 12234 3e81 62030000 		.4byte	.LLST57
 12235 3e85 37       		.uleb128 0x37
 12236 3e86 18000000 		.4byte	.LVL436
 12237 3e8a 7F630000 		.4byte	0x637f
 12238 3e8e 38       		.uleb128 0x38
 12239 3e8f 01       		.uleb128 0x1
 12240 3e90 50       		.byte	0x50
 12241 3e91 02       		.uleb128 0x2
 12242 3e92 08       		.byte	0x8
 12243 3e93 6E       		.byte	0x6e
 12244 3e94 38       		.uleb128 0x38
 12245 3e95 01       		.uleb128 0x1
 12246 3e96 51       		.byte	0x51
 12247 3e97 01       		.uleb128 0x1
 12248 3e98 33       		.byte	0x33
 12249 3e99 38       		.uleb128 0x38
 12250 3e9a 01       		.uleb128 0x1
 12251 3e9b 52       		.byte	0x52
 12252 3e9c 01       		.uleb128 0x1
 12253 3e9d 30       		.byte	0x30
 12254 3e9e 00       		.byte	0
ARM GAS  C:\Users\mathi\AppData\Local\Temp\ccuMtzkg.s 			page 216


 12255 3e9f 00       		.byte	0
 12256 3ea0 33       		.uleb128 0x33
 12257 3ea1 C6450000 		.4byte	0x45c6
 12258 3ea5 3E000000 		.4byte	.LBB250
 12259 3ea9 C0000000 		.4byte	.Ldebug_ranges0+0xc0
 12260 3ead 01       		.byte	0x1
 12261 3eae 8602     		.2byte	0x286
 12262 3eb0 F03E0000 		.4byte	0x3ef0
 12263 3eb4 34       		.uleb128 0x34
 12264 3eb5 D7450000 		.4byte	0x45d7
 12265 3eb9 76030000 		.4byte	.LLST58
 12266 3ebd 43       		.uleb128 0x43
 12267 3ebe C6450000 		.4byte	0x45c6
 12268 3ec2 D8000000 		.4byte	.Ldebug_ranges0+0xd8
 12269 3ec6 DD3E0000 		.4byte	0x3edd
 12270 3eca 34       		.uleb128 0x34
 12271 3ecb D7450000 		.4byte	0x45d7
 12272 3ecf 94030000 		.4byte	.LLST59
 12273 3ed3 30       		.uleb128 0x30
 12274 3ed4 4C000000 		.4byte	.LVL442
 12275 3ed8 E4450000 		.4byte	0x45e4
 12276 3edc 00       		.byte	0
 12277 3edd 30       		.uleb128 0x30
 12278 3ede 6A000000 		.4byte	.LVL444
 12279 3ee2 20460000 		.4byte	0x4620
 12280 3ee6 30       		.uleb128 0x30
 12281 3ee7 70000000 		.4byte	.LVL446
 12282 3eeb 02460000 		.4byte	0x4602
 12283 3eef 00       		.byte	0
 12284 3ef0 39       		.uleb128 0x39
 12285 3ef1 30000000 		.4byte	.LVL437
 12286 3ef5 7F630000 		.4byte	0x637f
 12287 3ef9 0A3F0000 		.4byte	0x3f0a
 12288 3efd 38       		.uleb128 0x38
 12289 3efe 01       		.uleb128 0x1
 12290 3eff 50       		.byte	0x50
 12291 3f00 02       		.uleb128 0x2
 12292 3f01 08       		.byte	0x8
 12293 3f02 6E       		.byte	0x6e
 12294 3f03 38       		.uleb128 0x38
 12295 3f04 01       		.uleb128 0x1
 12296 3f05 51       		.byte	0x51
 12297 3f06 02       		.uleb128 0x2
 12298 3f07 08       		.byte	0x8
 12299 3f08 5B       		.byte	0x5b
 12300 3f09 00       		.byte	0
 12301 3f0a 39       		.uleb128 0x39
 12302 3f0b 3A000000 		.4byte	.LVL439
 12303 3f0f 3C460000 		.4byte	0x463c
 12304 3f13 1E3F0000 		.4byte	0x3f1e
 12305 3f17 38       		.uleb128 0x38
 12306 3f18 01       		.uleb128 0x1
 12307 3f19 50       		.byte	0x50
 12308 3f1a 02       		.uleb128 0x2
 12309 3f1b 75       		.byte	0x75
 12310 3f1c 00       		.sleb128 0
 12311 3f1d 00       		.byte	0
ARM GAS  C:\Users\mathi\AppData\Local\Temp\ccuMtzkg.s 			page 217


 12312 3f1e 44       		.uleb128 0x44
 12313 3f1f 66000000 		.4byte	.LVL443
 12314 3f23 90450000 		.4byte	0x4590
 12315 3f27 30       		.uleb128 0x30
 12316 3f28 7C000000 		.4byte	.LVL450
 12317 3f2c 76630000 		.4byte	0x6376
 12318 3f30 00       		.byte	0
 12319 3f31 45       		.uleb128 0x45
 12320 3f32 F5190000 		.4byte	.LASF802
 12321 3f36 01       		.byte	0x1
 12322 3f37 5D02     		.2byte	0x25d
 12323 3f39 00000000 		.4byte	.LFB265
 12324 3f3d 98020000 		.4byte	.LFE265-.LFB265
 12325 3f41 01       		.uleb128 0x1
 12326 3f42 9C       		.byte	0x9c
 12327 3f43 90450000 		.4byte	0x4590
 12328 3f47 46       		.uleb128 0x46
 12329 3f48 190B0000 		.4byte	.LASF783
 12330 3f4c 01       		.byte	0x1
 12331 3f4d 6202     		.2byte	0x262
 12332 3f4f A2250000 		.4byte	0x25a2
 12333 3f53 05       		.uleb128 0x5
 12334 3f54 03       		.byte	0x3
 12335 3f55 00000000 		.4byte	pwmcfg_cam.9993
 12336 3f59 33       		.uleb128 0x33
 12337 3f5a 503D0000 		.4byte	0x3d50
 12338 3f5e 20000000 		.4byte	.LBB216
 12339 3f62 60000000 		.4byte	.Ldebug_ranges0+0x60
 12340 3f66 01       		.byte	0x1
 12341 3f67 7402     		.2byte	0x274
 12342 3f69 4E450000 		.4byte	0x454e
 12343 3f6d 34       		.uleb128 0x34
 12344 3f6e A73D0000 		.4byte	0x3da7
 12345 3f72 B2030000 		.4byte	.LLST30
 12346 3f76 34       		.uleb128 0x34
 12347 3f77 9B3D0000 		.4byte	0x3d9b
 12348 3f7b B2030000 		.4byte	.LLST30
 12349 3f7f 34       		.uleb128 0x34
 12350 3f80 8F3D0000 		.4byte	0x3d8f
 12351 3f84 D4030000 		.4byte	.LLST32
 12352 3f88 34       		.uleb128 0x34
 12353 3f89 833D0000 		.4byte	0x3d83
 12354 3f8d F6030000 		.4byte	.LLST33
 12355 3f91 34       		.uleb128 0x34
 12356 3f92 783D0000 		.4byte	0x3d78
 12357 3f96 18040000 		.4byte	.LLST34
 12358 3f9a 34       		.uleb128 0x34
 12359 3f9b 6D3D0000 		.4byte	0x3d6d
 12360 3f9f 3A040000 		.4byte	.LLST35
 12361 3fa3 34       		.uleb128 0x34
 12362 3fa4 613D0000 		.4byte	0x3d61
 12363 3fa8 5C040000 		.4byte	.LLST36
 12364 3fac 35       		.uleb128 0x35
 12365 3fad 60000000 		.4byte	.Ldebug_ranges0+0x60
 12366 3fb1 47       		.uleb128 0x47
 12367 3fb2 B33D0000 		.4byte	0x3db3
 12368 3fb6 7C040000 		.4byte	.LLST37
ARM GAS  C:\Users\mathi\AppData\Local\Temp\ccuMtzkg.s 			page 218


 12369 3fba 47       		.uleb128 0x47
 12370 3fbb BF3D0000 		.4byte	0x3dbf
 12371 3fbf CF050000 		.4byte	.LLST38
 12372 3fc3 47       		.uleb128 0x47
 12373 3fc4 CA3D0000 		.4byte	0x3dca
 12374 3fc8 F3050000 		.4byte	.LLST39
 12375 3fcc 47       		.uleb128 0x47
 12376 3fcd D53D0000 		.4byte	0x3dd5
 12377 3fd1 17060000 		.4byte	.LLST40
 12378 3fd5 47       		.uleb128 0x47
 12379 3fd6 E13D0000 		.4byte	0x3de1
 12380 3fda 3B060000 		.4byte	.LLST41
 12381 3fde 47       		.uleb128 0x47
 12382 3fdf ED3D0000 		.4byte	0x3ded
 12383 3fe3 5F060000 		.4byte	.LLST42
 12384 3fe7 47       		.uleb128 0x47
 12385 3fe8 F93D0000 		.4byte	0x3df9
 12386 3fec 81060000 		.4byte	.LLST43
 12387 3ff0 47       		.uleb128 0x47
 12388 3ff1 053E0000 		.4byte	0x3e05
 12389 3ff5 A5060000 		.4byte	.LLST44
 12390 3ff9 47       		.uleb128 0x47
 12391 3ffa 113E0000 		.4byte	0x3e11
 12392 3ffe BA060000 		.4byte	.LLST45
 12393 4002 3A       		.uleb128 0x3a
 12394 4003 63460000 		.4byte	0x4663
 12395 4007 20000000 		.4byte	.LBB218
 12396 400b 0A000000 		.4byte	.LBE218-.LBB218
 12397 400f 01       		.byte	0x1
 12398 4010 EE02     		.2byte	0x2ee
 12399 4012 3A400000 		.4byte	0x403a
 12400 4016 34       		.uleb128 0x34
 12401 4017 73460000 		.4byte	0x4673
 12402 401b D2060000 		.4byte	.LLST46
 12403 401f 37       		.uleb128 0x37
 12404 4020 2A000000 		.4byte	.LVL351
 12405 4024 7F630000 		.4byte	0x637f
 12406 4028 38       		.uleb128 0x38
 12407 4029 01       		.uleb128 0x1
 12408 402a 50       		.byte	0x50
 12409 402b 02       		.uleb128 0x2
 12410 402c 08       		.byte	0x8
 12411 402d 6E       		.byte	0x6e
 12412 402e 38       		.uleb128 0x38
 12413 402f 01       		.uleb128 0x1
 12414 4030 51       		.byte	0x51
 12415 4031 01       		.uleb128 0x1
 12416 4032 33       		.byte	0x33
 12417 4033 38       		.uleb128 0x38
 12418 4034 01       		.uleb128 0x1
 12419 4035 52       		.byte	0x52
 12420 4036 01       		.uleb128 0x1
 12421 4037 30       		.byte	0x30
 12422 4038 00       		.byte	0
 12423 4039 00       		.byte	0
 12424 403a 33       		.uleb128 0x33
 12425 403b 3C460000 		.4byte	0x463c
ARM GAS  C:\Users\mathi\AppData\Local\Temp\ccuMtzkg.s 			page 219


 12426 403f 48000000 		.4byte	.LBB220
 12427 4043 78000000 		.4byte	.Ldebug_ranges0+0x78
 12428 4047 01       		.byte	0x1
 12429 4048 F502     		.2byte	0x2f5
 12430 404a 3D410000 		.4byte	0x413d
 12431 404e 34       		.uleb128 0x34
 12432 404f 4C460000 		.4byte	0x464c
 12433 4053 E6060000 		.4byte	.LLST47
 12434 4057 35       		.uleb128 0x35
 12435 4058 78000000 		.4byte	.Ldebug_ranges0+0x78
 12436 405c 36       		.uleb128 0x36
 12437 405d 7C470000 		.4byte	0x477c
 12438 4061 48       		.uleb128 0x48
 12439 4062 63460000 		.4byte	0x4663
 12440 4066 48000000 		.4byte	.LBB222
 12441 406a 0A000000 		.4byte	.LBE222-.LBB222
 12442 406e 01       		.byte	0x1
 12443 406f 87       		.byte	0x87
 12444 4070 98400000 		.4byte	0x4098
 12445 4074 34       		.uleb128 0x34
 12446 4075 73460000 		.4byte	0x4673
 12447 4079 FA060000 		.4byte	.LLST48
 12448 407d 37       		.uleb128 0x37
 12449 407e 52000000 		.4byte	.LVL357
 12450 4082 7F630000 		.4byte	0x637f
 12451 4086 38       		.uleb128 0x38
 12452 4087 01       		.uleb128 0x1
 12453 4088 50       		.byte	0x50
 12454 4089 02       		.uleb128 0x2
 12455 408a 08       		.byte	0x8
 12456 408b 6E       		.byte	0x6e
 12457 408c 38       		.uleb128 0x38
 12458 408d 01       		.uleb128 0x1
 12459 408e 51       		.byte	0x51
 12460 408f 01       		.uleb128 0x1
 12461 4090 33       		.byte	0x33
 12462 4091 38       		.uleb128 0x38
 12463 4092 01       		.uleb128 0x1
 12464 4093 52       		.byte	0x52
 12465 4094 01       		.uleb128 0x1
 12466 4095 31       		.byte	0x31
 12467 4096 00       		.byte	0
 12468 4097 00       		.byte	0
 12469 4098 43       		.uleb128 0x43
 12470 4099 3C460000 		.4byte	0x463c
 12471 409d 90000000 		.4byte	.Ldebug_ranges0+0x90
 12472 40a1 20410000 		.4byte	0x4120
 12473 40a5 34       		.uleb128 0x34
 12474 40a6 4C460000 		.4byte	0x464c
 12475 40aa 0E070000 		.4byte	.LLST49
 12476 40ae 35       		.uleb128 0x35
 12477 40af 90000000 		.4byte	.Ldebug_ranges0+0x90
 12478 40b3 36       		.uleb128 0x36
 12479 40b4 7C470000 		.4byte	0x477c
 12480 40b8 48       		.uleb128 0x48
 12481 40b9 63460000 		.4byte	0x4663
 12482 40bd 72000000 		.4byte	.LBB226
ARM GAS  C:\Users\mathi\AppData\Local\Temp\ccuMtzkg.s 			page 220


 12483 40c1 0A000000 		.4byte	.LBE226-.LBB226
 12484 40c5 01       		.byte	0x1
 12485 40c6 9D       		.byte	0x9d
 12486 40c7 EA400000 		.4byte	0x40ea
 12487 40cb 34       		.uleb128 0x34
 12488 40cc 73460000 		.4byte	0x4673
 12489 40d0 22070000 		.4byte	.LLST50
 12490 40d4 37       		.uleb128 0x37
 12491 40d5 7C000000 		.4byte	.LVL364
 12492 40d9 7F630000 		.4byte	0x637f
 12493 40dd 38       		.uleb128 0x38
 12494 40de 01       		.uleb128 0x1
 12495 40df 50       		.byte	0x50
 12496 40e0 02       		.uleb128 0x2
 12497 40e1 08       		.byte	0x8
 12498 40e2 6E       		.byte	0x6e
 12499 40e3 38       		.uleb128 0x38
 12500 40e4 01       		.uleb128 0x1
 12501 40e5 51       		.byte	0x51
 12502 40e6 01       		.uleb128 0x1
 12503 40e7 33       		.byte	0x33
 12504 40e8 00       		.byte	0
 12505 40e9 00       		.byte	0
 12506 40ea 39       		.uleb128 0x39
 12507 40eb 6E000000 		.4byte	.LVL361
 12508 40ef 7F630000 		.4byte	0x637f
 12509 40f3 04410000 		.4byte	0x4104
 12510 40f7 38       		.uleb128 0x38
 12511 40f8 01       		.uleb128 0x1
 12512 40f9 50       		.byte	0x50
 12513 40fa 02       		.uleb128 0x2
 12514 40fb 08       		.byte	0x8
 12515 40fc 6E       		.byte	0x6e
 12516 40fd 38       		.uleb128 0x38
 12517 40fe 01       		.uleb128 0x1
 12518 40ff 51       		.byte	0x51
 12519 4100 02       		.uleb128 0x2
 12520 4101 09       		.byte	0x9
 12521 4102 B7       		.byte	0xb7
 12522 4103 00       		.byte	0
 12523 4104 37       		.uleb128 0x37
 12524 4105 8A000000 		.4byte	.LVL365
 12525 4109 7F630000 		.4byte	0x637f
 12526 410d 38       		.uleb128 0x38
 12527 410e 01       		.uleb128 0x1
 12528 410f 50       		.byte	0x50
 12529 4110 02       		.uleb128 0x2
 12530 4111 08       		.byte	0x8
 12531 4112 6E       		.byte	0x6e
 12532 4113 38       		.uleb128 0x38
 12533 4114 01       		.uleb128 0x1
 12534 4115 51       		.byte	0x51
 12535 4116 01       		.uleb128 0x1
 12536 4117 41       		.byte	0x41
 12537 4118 38       		.uleb128 0x38
 12538 4119 01       		.uleb128 0x1
 12539 411a 52       		.byte	0x52
ARM GAS  C:\Users\mathi\AppData\Local\Temp\ccuMtzkg.s 			page 221


 12540 411b 01       		.uleb128 0x1
 12541 411c 3A       		.byte	0x3a
 12542 411d 00       		.byte	0
 12543 411e 00       		.byte	0
 12544 411f 00       		.byte	0
 12545 4120 37       		.uleb128 0x37
 12546 4121 60000000 		.4byte	.LVL358
 12547 4125 7F630000 		.4byte	0x637f
 12548 4129 38       		.uleb128 0x38
 12549 412a 01       		.uleb128 0x1
 12550 412b 50       		.byte	0x50
 12551 412c 02       		.uleb128 0x2
 12552 412d 08       		.byte	0x8
 12553 412e 6E       		.byte	0x6e
 12554 412f 38       		.uleb128 0x38
 12555 4130 01       		.uleb128 0x1
 12556 4131 51       		.byte	0x51
 12557 4132 02       		.uleb128 0x2
 12558 4133 08       		.byte	0x8
 12559 4134 4E       		.byte	0x4e
 12560 4135 38       		.uleb128 0x38
 12561 4136 01       		.uleb128 0x1
 12562 4137 52       		.byte	0x52
 12563 4138 01       		.uleb128 0x1
 12564 4139 32       		.byte	0x32
 12565 413a 00       		.byte	0
 12566 413b 00       		.byte	0
 12567 413c 00       		.byte	0
 12568 413d 33       		.uleb128 0x33
 12569 413e 63460000 		.4byte	0x4663
 12570 4142 94000000 		.4byte	.LBB231
 12571 4146 A8000000 		.4byte	.Ldebug_ranges0+0xa8
 12572 414a 01       		.byte	0x1
 12573 414b F902     		.2byte	0x2f9
 12574 414d 70410000 		.4byte	0x4170
 12575 4151 34       		.uleb128 0x34
 12576 4152 73460000 		.4byte	0x4673
 12577 4156 36070000 		.4byte	.LLST51
 12578 415a 37       		.uleb128 0x37
 12579 415b 9E000000 		.4byte	.LVL368
 12580 415f 7F630000 		.4byte	0x637f
 12581 4163 38       		.uleb128 0x38
 12582 4164 01       		.uleb128 0x1
 12583 4165 50       		.byte	0x50
 12584 4166 02       		.uleb128 0x2
 12585 4167 08       		.byte	0x8
 12586 4168 6E       		.byte	0x6e
 12587 4169 38       		.uleb128 0x38
 12588 416a 01       		.uleb128 0x1
 12589 416b 51       		.byte	0x51
 12590 416c 01       		.uleb128 0x1
 12591 416d 33       		.byte	0x33
 12592 416e 00       		.byte	0
 12593 416f 00       		.byte	0
 12594 4170 3A       		.uleb128 0x3a
 12595 4171 63460000 		.4byte	0x4663
 12596 4175 10020000 		.4byte	.LBB236
ARM GAS  C:\Users\mathi\AppData\Local\Temp\ccuMtzkg.s 			page 222


 12597 4179 0A000000 		.4byte	.LBE236-.LBB236
 12598 417d 01       		.byte	0x1
 12599 417e 4803     		.2byte	0x348
 12600 4180 A8410000 		.4byte	0x41a8
 12601 4184 34       		.uleb128 0x34
 12602 4185 73460000 		.4byte	0x4673
 12603 4189 4A070000 		.4byte	.LLST52
 12604 418d 37       		.uleb128 0x37
 12605 418e 1A020000 		.4byte	.LVL418
 12606 4192 7F630000 		.4byte	0x637f
 12607 4196 38       		.uleb128 0x38
 12608 4197 01       		.uleb128 0x1
 12609 4198 50       		.byte	0x50
 12610 4199 02       		.uleb128 0x2
 12611 419a 08       		.byte	0x8
 12612 419b 6E       		.byte	0x6e
 12613 419c 38       		.uleb128 0x38
 12614 419d 01       		.uleb128 0x1
 12615 419e 51       		.byte	0x51
 12616 419f 01       		.uleb128 0x1
 12617 41a0 33       		.byte	0x33
 12618 41a1 38       		.uleb128 0x38
 12619 41a2 01       		.uleb128 0x1
 12620 41a3 52       		.byte	0x52
 12621 41a4 01       		.uleb128 0x1
 12622 41a5 31       		.byte	0x31
 12623 41a6 00       		.byte	0
 12624 41a7 00       		.byte	0
 12625 41a8 3A       		.uleb128 0x3a
 12626 41a9 63460000 		.4byte	0x4663
 12627 41ad 40020000 		.4byte	.LBB238
 12628 41b1 0A000000 		.4byte	.LBE238-.LBB238
 12629 41b5 01       		.byte	0x1
 12630 41b6 5403     		.2byte	0x354
 12631 41b8 E0410000 		.4byte	0x41e0
 12632 41bc 34       		.uleb128 0x34
 12633 41bd 73460000 		.4byte	0x4673
 12634 41c1 5E070000 		.4byte	.LLST53
 12635 41c5 37       		.uleb128 0x37
 12636 41c6 4A020000 		.4byte	.LVL424
 12637 41ca 7F630000 		.4byte	0x637f
 12638 41ce 38       		.uleb128 0x38
 12639 41cf 01       		.uleb128 0x1
 12640 41d0 50       		.byte	0x50
 12641 41d1 02       		.uleb128 0x2
 12642 41d2 08       		.byte	0x8
 12643 41d3 6E       		.byte	0x6e
 12644 41d4 38       		.uleb128 0x38
 12645 41d5 01       		.uleb128 0x1
 12646 41d6 51       		.byte	0x51
 12647 41d7 01       		.uleb128 0x1
 12648 41d8 33       		.byte	0x33
 12649 41d9 38       		.uleb128 0x38
 12650 41da 01       		.uleb128 0x1
 12651 41db 52       		.byte	0x52
 12652 41dc 01       		.uleb128 0x1
 12653 41dd 31       		.byte	0x31
ARM GAS  C:\Users\mathi\AppData\Local\Temp\ccuMtzkg.s 			page 223


 12654 41de 00       		.byte	0
 12655 41df 00       		.byte	0
 12656 41e0 39       		.uleb128 0x39
 12657 41e1 44000000 		.4byte	.LVL354
 12658 41e5 7F630000 		.4byte	0x637f
 12659 41e9 FA410000 		.4byte	0x41fa
 12660 41ed 38       		.uleb128 0x38
 12661 41ee 01       		.uleb128 0x1
 12662 41ef 50       		.byte	0x50
 12663 41f0 02       		.uleb128 0x2
 12664 41f1 08       		.byte	0x8
 12665 41f2 6E       		.byte	0x6e
 12666 41f3 38       		.uleb128 0x38
 12667 41f4 01       		.uleb128 0x1
 12668 41f5 51       		.byte	0x51
 12669 41f6 02       		.uleb128 0x2
 12670 41f7 08       		.byte	0x8
 12671 41f8 5B       		.byte	0x5b
 12672 41f9 00       		.byte	0
 12673 41fa 39       		.uleb128 0x39
 12674 41fb AC000000 		.4byte	.LVL369
 12675 41ff 7F630000 		.4byte	0x637f
 12676 4203 13420000 		.4byte	0x4213
 12677 4207 38       		.uleb128 0x38
 12678 4208 01       		.uleb128 0x1
 12679 4209 50       		.byte	0x50
 12680 420a 02       		.uleb128 0x2
 12681 420b 08       		.byte	0x8
 12682 420c 6E       		.byte	0x6e
 12683 420d 38       		.uleb128 0x38
 12684 420e 01       		.uleb128 0x1
 12685 420f 51       		.byte	0x51
 12686 4210 01       		.uleb128 0x1
 12687 4211 38       		.byte	0x38
 12688 4212 00       		.byte	0
 12689 4213 39       		.uleb128 0x39
 12690 4214 BA000000 		.4byte	.LVL371
 12691 4218 7F630000 		.4byte	0x637f
 12692 421c 32420000 		.4byte	0x4232
 12693 4220 38       		.uleb128 0x38
 12694 4221 01       		.uleb128 0x1
 12695 4222 50       		.byte	0x50
 12696 4223 02       		.uleb128 0x2
 12697 4224 08       		.byte	0x8
 12698 4225 6E       		.byte	0x6e
 12699 4226 38       		.uleb128 0x38
 12700 4227 01       		.uleb128 0x1
 12701 4228 51       		.byte	0x51
 12702 4229 01       		.uleb128 0x1
 12703 422a 39       		.byte	0x39
 12704 422b 38       		.uleb128 0x38
 12705 422c 01       		.uleb128 0x1
 12706 422d 52       		.byte	0x52
 12707 422e 02       		.uleb128 0x2
 12708 422f 09       		.byte	0x9
 12709 4230 F0       		.byte	0xf0
 12710 4231 00       		.byte	0
ARM GAS  C:\Users\mathi\AppData\Local\Temp\ccuMtzkg.s 			page 224


 12711 4232 39       		.uleb128 0x39
 12712 4233 C8000000 		.4byte	.LVL373
 12713 4237 7F630000 		.4byte	0x637f
 12714 423b 50420000 		.4byte	0x4250
 12715 423f 38       		.uleb128 0x38
 12716 4240 01       		.uleb128 0x1
 12717 4241 50       		.byte	0x50
 12718 4242 02       		.uleb128 0x2
 12719 4243 08       		.byte	0x8
 12720 4244 6E       		.byte	0x6e
 12721 4245 38       		.uleb128 0x38
 12722 4246 01       		.uleb128 0x1
 12723 4247 51       		.byte	0x51
 12724 4248 01       		.uleb128 0x1
 12725 4249 3A       		.byte	0x3a
 12726 424a 38       		.uleb128 0x38
 12727 424b 01       		.uleb128 0x1
 12728 424c 52       		.byte	0x52
 12729 424d 01       		.uleb128 0x1
 12730 424e 30       		.byte	0x30
 12731 424f 00       		.byte	0
 12732 4250 39       		.uleb128 0x39
 12733 4251 D6000000 		.4byte	.LVL375
 12734 4255 7F630000 		.4byte	0x637f
 12735 4259 6F420000 		.4byte	0x426f
 12736 425d 38       		.uleb128 0x38
 12737 425e 01       		.uleb128 0x1
 12738 425f 50       		.byte	0x50
 12739 4260 02       		.uleb128 0x2
 12740 4261 08       		.byte	0x8
 12741 4262 6E       		.byte	0x6e
 12742 4263 38       		.uleb128 0x38
 12743 4264 01       		.uleb128 0x1
 12744 4265 51       		.byte	0x51
 12745 4266 01       		.uleb128 0x1
 12746 4267 3B       		.byte	0x3b
 12747 4268 38       		.uleb128 0x38
 12748 4269 01       		.uleb128 0x1
 12749 426a 52       		.byte	0x52
 12750 426b 02       		.uleb128 0x2
 12751 426c 09       		.byte	0x9
 12752 426d B4       		.byte	0xb4
 12753 426e 00       		.byte	0
 12754 426f 39       		.uleb128 0x39
 12755 4270 E4000000 		.4byte	.LVL377
 12756 4274 7F630000 		.4byte	0x637f
 12757 4278 8D420000 		.4byte	0x428d
 12758 427c 38       		.uleb128 0x38
 12759 427d 01       		.uleb128 0x1
 12760 427e 50       		.byte	0x50
 12761 427f 02       		.uleb128 0x2
 12762 4280 08       		.byte	0x8
 12763 4281 6E       		.byte	0x6e
 12764 4282 38       		.uleb128 0x38
 12765 4283 01       		.uleb128 0x1
 12766 4284 51       		.byte	0x51
 12767 4285 01       		.uleb128 0x1
ARM GAS  C:\Users\mathi\AppData\Local\Temp\ccuMtzkg.s 			page 225


 12768 4286 3C       		.byte	0x3c
 12769 4287 38       		.uleb128 0x38
 12770 4288 01       		.uleb128 0x1
 12771 4289 52       		.byte	0x52
 12772 428a 01       		.uleb128 0x1
 12773 428b 31       		.byte	0x31
 12774 428c 00       		.byte	0
 12775 428d 39       		.uleb128 0x39
 12776 428e F2000000 		.4byte	.LVL379
 12777 4292 7F630000 		.4byte	0x637f
 12778 4296 AC420000 		.4byte	0x42ac
 12779 429a 38       		.uleb128 0x38
 12780 429b 01       		.uleb128 0x1
 12781 429c 50       		.byte	0x50
 12782 429d 02       		.uleb128 0x2
 12783 429e 08       		.byte	0x8
 12784 429f 6E       		.byte	0x6e
 12785 42a0 38       		.uleb128 0x38
 12786 42a1 01       		.uleb128 0x1
 12787 42a2 51       		.byte	0x51
 12788 42a3 01       		.uleb128 0x1
 12789 42a4 3D       		.byte	0x3d
 12790 42a5 38       		.uleb128 0x38
 12791 42a6 01       		.uleb128 0x1
 12792 42a7 52       		.byte	0x52
 12793 42a8 02       		.uleb128 0x2
 12794 42a9 09       		.byte	0x9
 12795 42aa 8F       		.byte	0x8f
 12796 42ab 00       		.byte	0
 12797 42ac 39       		.uleb128 0x39
 12798 42ad 00010000 		.4byte	.LVL381
 12799 42b1 7F630000 		.4byte	0x637f
 12800 42b5 CA420000 		.4byte	0x42ca
 12801 42b9 38       		.uleb128 0x38
 12802 42ba 01       		.uleb128 0x1
 12803 42bb 50       		.byte	0x50
 12804 42bc 02       		.uleb128 0x2
 12805 42bd 08       		.byte	0x8
 12806 42be 6E       		.byte	0x6e
 12807 42bf 38       		.uleb128 0x38
 12808 42c0 01       		.uleb128 0x1
 12809 42c1 51       		.byte	0x51
 12810 42c2 01       		.uleb128 0x1
 12811 42c3 3E       		.byte	0x3e
 12812 42c4 38       		.uleb128 0x38
 12813 42c5 01       		.uleb128 0x1
 12814 42c6 52       		.byte	0x52
 12815 42c7 01       		.uleb128 0x1
 12816 42c8 31       		.byte	0x31
 12817 42c9 00       		.byte	0
 12818 42ca 39       		.uleb128 0x39
 12819 42cb 0E010000 		.4byte	.LVL383
 12820 42cf 7F630000 		.4byte	0x637f
 12821 42d3 E9420000 		.4byte	0x42e9
 12822 42d7 38       		.uleb128 0x38
 12823 42d8 01       		.uleb128 0x1
 12824 42d9 50       		.byte	0x50
ARM GAS  C:\Users\mathi\AppData\Local\Temp\ccuMtzkg.s 			page 226


 12825 42da 02       		.uleb128 0x2
 12826 42db 08       		.byte	0x8
 12827 42dc 6E       		.byte	0x6e
 12828 42dd 38       		.uleb128 0x38
 12829 42de 01       		.uleb128 0x1
 12830 42df 51       		.byte	0x51
 12831 42e0 01       		.uleb128 0x1
 12832 42e1 3F       		.byte	0x3f
 12833 42e2 38       		.uleb128 0x38
 12834 42e3 01       		.uleb128 0x1
 12835 42e4 52       		.byte	0x52
 12836 42e5 02       		.uleb128 0x2
 12837 42e6 08       		.byte	0x8
 12838 42e7 2B       		.byte	0x2b
 12839 42e8 00       		.byte	0
 12840 42e9 39       		.uleb128 0x39
 12841 42ea 1C010000 		.4byte	.LVL385
 12842 42ee 7F630000 		.4byte	0x637f
 12843 42f2 03430000 		.4byte	0x4303
 12844 42f6 38       		.uleb128 0x38
 12845 42f7 01       		.uleb128 0x1
 12846 42f8 50       		.byte	0x50
 12847 42f9 02       		.uleb128 0x2
 12848 42fa 08       		.byte	0x8
 12849 42fb 6E       		.byte	0x6e
 12850 42fc 38       		.uleb128 0x38
 12851 42fd 01       		.uleb128 0x1
 12852 42fe 51       		.byte	0x51
 12853 42ff 02       		.uleb128 0x2
 12854 4300 08       		.byte	0x8
 12855 4301 35       		.byte	0x35
 12856 4302 00       		.byte	0
 12857 4303 39       		.uleb128 0x39
 12858 4304 2A010000 		.4byte	.LVL387
 12859 4308 7F630000 		.4byte	0x637f
 12860 430c 23430000 		.4byte	0x4323
 12861 4310 38       		.uleb128 0x38
 12862 4311 01       		.uleb128 0x1
 12863 4312 50       		.byte	0x50
 12864 4313 02       		.uleb128 0x2
 12865 4314 08       		.byte	0x8
 12866 4315 6E       		.byte	0x6e
 12867 4316 38       		.uleb128 0x38
 12868 4317 01       		.uleb128 0x1
 12869 4318 51       		.byte	0x51
 12870 4319 02       		.uleb128 0x2
 12871 431a 08       		.byte	0x8
 12872 431b 36       		.byte	0x36
 12873 431c 38       		.uleb128 0x38
 12874 431d 01       		.uleb128 0x1
 12875 431e 52       		.byte	0x52
 12876 431f 02       		.uleb128 0x2
 12877 4320 09       		.byte	0x9
 12878 4321 F0       		.byte	0xf0
 12879 4322 00       		.byte	0
 12880 4323 39       		.uleb128 0x39
 12881 4324 3A010000 		.4byte	.LVL389
ARM GAS  C:\Users\mathi\AppData\Local\Temp\ccuMtzkg.s 			page 227


 12882 4328 7F630000 		.4byte	0x637f
 12883 432c 42430000 		.4byte	0x4342
 12884 4330 38       		.uleb128 0x38
 12885 4331 01       		.uleb128 0x1
 12886 4332 50       		.byte	0x50
 12887 4333 02       		.uleb128 0x2
 12888 4334 08       		.byte	0x8
 12889 4335 6E       		.byte	0x6e
 12890 4336 38       		.uleb128 0x38
 12891 4337 01       		.uleb128 0x1
 12892 4338 51       		.byte	0x51
 12893 4339 02       		.uleb128 0x2
 12894 433a 08       		.byte	0x8
 12895 433b 37       		.byte	0x37
 12896 433c 38       		.uleb128 0x38
 12897 433d 01       		.uleb128 0x1
 12898 433e 52       		.byte	0x52
 12899 433f 01       		.uleb128 0x1
 12900 4340 31       		.byte	0x31
 12901 4341 00       		.byte	0
 12902 4342 39       		.uleb128 0x39
 12903 4343 4A010000 		.4byte	.LVL391
 12904 4347 7F630000 		.4byte	0x637f
 12905 434b 62430000 		.4byte	0x4362
 12906 434f 38       		.uleb128 0x38
 12907 4350 01       		.uleb128 0x1
 12908 4351 50       		.byte	0x50
 12909 4352 02       		.uleb128 0x2
 12910 4353 08       		.byte	0x8
 12911 4354 6E       		.byte	0x6e
 12912 4355 38       		.uleb128 0x38
 12913 4356 01       		.uleb128 0x1
 12914 4357 51       		.byte	0x51
 12915 4358 02       		.uleb128 0x2
 12916 4359 08       		.byte	0x8
 12917 435a 38       		.byte	0x38
 12918 435b 38       		.uleb128 0x38
 12919 435c 01       		.uleb128 0x1
 12920 435d 52       		.byte	0x52
 12921 435e 02       		.uleb128 0x2
 12922 435f 09       		.byte	0x9
 12923 4360 8F       		.byte	0x8f
 12924 4361 00       		.byte	0
 12925 4362 39       		.uleb128 0x39
 12926 4363 5A010000 		.4byte	.LVL393
 12927 4367 7F630000 		.4byte	0x637f
 12928 436b 81430000 		.4byte	0x4381
 12929 436f 38       		.uleb128 0x38
 12930 4370 01       		.uleb128 0x1
 12931 4371 50       		.byte	0x50
 12932 4372 02       		.uleb128 0x2
 12933 4373 08       		.byte	0x8
 12934 4374 6E       		.byte	0x6e
 12935 4375 38       		.uleb128 0x38
 12936 4376 01       		.uleb128 0x1
 12937 4377 51       		.byte	0x51
 12938 4378 02       		.uleb128 0x2
ARM GAS  C:\Users\mathi\AppData\Local\Temp\ccuMtzkg.s 			page 228


 12939 4379 08       		.byte	0x8
 12940 437a 39       		.byte	0x39
 12941 437b 38       		.uleb128 0x38
 12942 437c 01       		.uleb128 0x1
 12943 437d 52       		.byte	0x52
 12944 437e 01       		.uleb128 0x1
 12945 437f 30       		.byte	0x30
 12946 4380 00       		.byte	0
 12947 4381 39       		.uleb128 0x39
 12948 4382 6A010000 		.4byte	.LVL395
 12949 4386 7F630000 		.4byte	0x637f
 12950 438a A1430000 		.4byte	0x43a1
 12951 438e 38       		.uleb128 0x38
 12952 438f 01       		.uleb128 0x1
 12953 4390 50       		.byte	0x50
 12954 4391 02       		.uleb128 0x2
 12955 4392 08       		.byte	0x8
 12956 4393 6E       		.byte	0x6e
 12957 4394 38       		.uleb128 0x38
 12958 4395 01       		.uleb128 0x1
 12959 4396 51       		.byte	0x51
 12960 4397 02       		.uleb128 0x2
 12961 4398 08       		.byte	0x8
 12962 4399 3A       		.byte	0x3a
 12963 439a 38       		.uleb128 0x38
 12964 439b 01       		.uleb128 0x1
 12965 439c 52       		.byte	0x52
 12966 439d 02       		.uleb128 0x2
 12967 439e 09       		.byte	0x9
 12968 439f B4       		.byte	0xb4
 12969 43a0 00       		.byte	0
 12970 43a1 39       		.uleb128 0x39
 12971 43a2 7A010000 		.4byte	.LVL397
 12972 43a6 7F630000 		.4byte	0x637f
 12973 43aa C0430000 		.4byte	0x43c0
 12974 43ae 38       		.uleb128 0x38
 12975 43af 01       		.uleb128 0x1
 12976 43b0 50       		.byte	0x50
 12977 43b1 02       		.uleb128 0x2
 12978 43b2 08       		.byte	0x8
 12979 43b3 6E       		.byte	0x6e
 12980 43b4 38       		.uleb128 0x38
 12981 43b5 01       		.uleb128 0x1
 12982 43b6 51       		.byte	0x51
 12983 43b7 02       		.uleb128 0x2
 12984 43b8 08       		.byte	0x8
 12985 43b9 3B       		.byte	0x3b
 12986 43ba 38       		.uleb128 0x38
 12987 43bb 01       		.uleb128 0x1
 12988 43bc 52       		.byte	0x52
 12989 43bd 01       		.uleb128 0x1
 12990 43be 31       		.byte	0x31
 12991 43bf 00       		.byte	0
 12992 43c0 39       		.uleb128 0x39
 12993 43c1 8A010000 		.4byte	.LVL399
 12994 43c5 7F630000 		.4byte	0x637f
 12995 43c9 E0430000 		.4byte	0x43e0
ARM GAS  C:\Users\mathi\AppData\Local\Temp\ccuMtzkg.s 			page 229


 12996 43cd 38       		.uleb128 0x38
 12997 43ce 01       		.uleb128 0x1
 12998 43cf 50       		.byte	0x50
 12999 43d0 02       		.uleb128 0x2
 13000 43d1 08       		.byte	0x8
 13001 43d2 6E       		.byte	0x6e
 13002 43d3 38       		.uleb128 0x38
 13003 43d4 01       		.uleb128 0x1
 13004 43d5 51       		.byte	0x51
 13005 43d6 02       		.uleb128 0x2
 13006 43d7 08       		.byte	0x8
 13007 43d8 3C       		.byte	0x3c
 13008 43d9 38       		.uleb128 0x38
 13009 43da 01       		.uleb128 0x1
 13010 43db 52       		.byte	0x52
 13011 43dc 02       		.uleb128 0x2
 13012 43dd 08       		.byte	0x8
 13013 43de 2B       		.byte	0x2b
 13014 43df 00       		.byte	0
 13015 43e0 39       		.uleb128 0x39
 13016 43e1 9A010000 		.4byte	.LVL401
 13017 43e5 7F630000 		.4byte	0x637f
 13018 43e9 FF430000 		.4byte	0x43ff
 13019 43ed 38       		.uleb128 0x38
 13020 43ee 01       		.uleb128 0x1
 13021 43ef 50       		.byte	0x50
 13022 43f0 02       		.uleb128 0x2
 13023 43f1 08       		.byte	0x8
 13024 43f2 6E       		.byte	0x6e
 13025 43f3 38       		.uleb128 0x38
 13026 43f4 01       		.uleb128 0x1
 13027 43f5 51       		.byte	0x51
 13028 43f6 02       		.uleb128 0x2
 13029 43f7 08       		.byte	0x8
 13030 43f8 3D       		.byte	0x3d
 13031 43f9 38       		.uleb128 0x38
 13032 43fa 01       		.uleb128 0x1
 13033 43fb 52       		.byte	0x52
 13034 43fc 01       		.uleb128 0x1
 13035 43fd 31       		.byte	0x31
 13036 43fe 00       		.byte	0
 13037 43ff 39       		.uleb128 0x39
 13038 4400 AA010000 		.4byte	.LVL403
 13039 4404 7F630000 		.4byte	0x637f
 13040 4408 1F440000 		.4byte	0x441f
 13041 440c 38       		.uleb128 0x38
 13042 440d 01       		.uleb128 0x1
 13043 440e 50       		.byte	0x50
 13044 440f 02       		.uleb128 0x2
 13045 4410 08       		.byte	0x8
 13046 4411 6E       		.byte	0x6e
 13047 4412 38       		.uleb128 0x38
 13048 4413 01       		.uleb128 0x1
 13049 4414 51       		.byte	0x51
 13050 4415 02       		.uleb128 0x2
 13051 4416 08       		.byte	0x8
 13052 4417 3E       		.byte	0x3e
ARM GAS  C:\Users\mathi\AppData\Local\Temp\ccuMtzkg.s 			page 230


 13053 4418 38       		.uleb128 0x38
 13054 4419 01       		.uleb128 0x1
 13055 441a 52       		.byte	0x52
 13056 441b 02       		.uleb128 0x2
 13057 441c 08       		.byte	0x8
 13058 441d 25       		.byte	0x25
 13059 441e 00       		.byte	0
 13060 441f 39       		.uleb128 0x39
 13061 4420 BA010000 		.4byte	.LVL405
 13062 4424 7F630000 		.4byte	0x637f
 13063 4428 3E440000 		.4byte	0x443e
 13064 442c 38       		.uleb128 0x38
 13065 442d 01       		.uleb128 0x1
 13066 442e 50       		.byte	0x50
 13067 442f 02       		.uleb128 0x2
 13068 4430 08       		.byte	0x8
 13069 4431 6E       		.byte	0x6e
 13070 4432 38       		.uleb128 0x38
 13071 4433 01       		.uleb128 0x1
 13072 4434 51       		.byte	0x51
 13073 4435 02       		.uleb128 0x2
 13074 4436 08       		.byte	0x8
 13075 4437 3F       		.byte	0x3f
 13076 4438 38       		.uleb128 0x38
 13077 4439 01       		.uleb128 0x1
 13078 443a 52       		.byte	0x52
 13079 443b 01       		.uleb128 0x1
 13080 443c 31       		.byte	0x31
 13081 443d 00       		.byte	0
 13082 443e 39       		.uleb128 0x39
 13083 443f CA010000 		.4byte	.LVL407
 13084 4443 7F630000 		.4byte	0x637f
 13085 4447 5E440000 		.4byte	0x445e
 13086 444b 38       		.uleb128 0x38
 13087 444c 01       		.uleb128 0x1
 13088 444d 50       		.byte	0x50
 13089 444e 02       		.uleb128 0x2
 13090 444f 08       		.byte	0x8
 13091 4450 6E       		.byte	0x6e
 13092 4451 38       		.uleb128 0x38
 13093 4452 01       		.uleb128 0x1
 13094 4453 51       		.byte	0x51
 13095 4454 02       		.uleb128 0x2
 13096 4455 08       		.byte	0x8
 13097 4456 40       		.byte	0x40
 13098 4457 38       		.uleb128 0x38
 13099 4458 01       		.uleb128 0x1
 13100 4459 52       		.byte	0x52
 13101 445a 02       		.uleb128 0x2
 13102 445b 08       		.byte	0x8
 13103 445c 5A       		.byte	0x5a
 13104 445d 00       		.byte	0
 13105 445e 39       		.uleb128 0x39
 13106 445f DA010000 		.4byte	.LVL409
 13107 4463 7F630000 		.4byte	0x637f
 13108 4467 78440000 		.4byte	0x4478
 13109 446b 38       		.uleb128 0x38
ARM GAS  C:\Users\mathi\AppData\Local\Temp\ccuMtzkg.s 			page 231


 13110 446c 01       		.uleb128 0x1
 13111 446d 50       		.byte	0x50
 13112 446e 02       		.uleb128 0x2
 13113 446f 08       		.byte	0x8
 13114 4470 6E       		.byte	0x6e
 13115 4471 38       		.uleb128 0x38
 13116 4472 01       		.uleb128 0x1
 13117 4473 51       		.byte	0x51
 13118 4474 02       		.uleb128 0x2
 13119 4475 08       		.byte	0x8
 13120 4476 41       		.byte	0x41
 13121 4477 00       		.byte	0
 13122 4478 39       		.uleb128 0x39
 13123 4479 EA010000 		.4byte	.LVL411
 13124 447d 7F630000 		.4byte	0x637f
 13125 4481 98440000 		.4byte	0x4498
 13126 4485 38       		.uleb128 0x38
 13127 4486 01       		.uleb128 0x1
 13128 4487 50       		.byte	0x50
 13129 4488 02       		.uleb128 0x2
 13130 4489 08       		.byte	0x8
 13131 448a 6E       		.byte	0x6e
 13132 448b 38       		.uleb128 0x38
 13133 448c 01       		.uleb128 0x1
 13134 448d 51       		.byte	0x51
 13135 448e 02       		.uleb128 0x2
 13136 448f 08       		.byte	0x8
 13137 4490 42       		.byte	0x42
 13138 4491 38       		.uleb128 0x38
 13139 4492 01       		.uleb128 0x1
 13140 4493 52       		.byte	0x52
 13141 4494 02       		.uleb128 0x2
 13142 4495 09       		.byte	0x9
 13143 4496 DC       		.byte	0xdc
 13144 4497 00       		.byte	0
 13145 4498 39       		.uleb128 0x39
 13146 4499 FA010000 		.4byte	.LVL413
 13147 449d 7F630000 		.4byte	0x637f
 13148 44a1 B7440000 		.4byte	0x44b7
 13149 44a5 38       		.uleb128 0x38
 13150 44a6 01       		.uleb128 0x1
 13151 44a7 50       		.byte	0x50
 13152 44a8 02       		.uleb128 0x2
 13153 44a9 08       		.byte	0x8
 13154 44aa 6E       		.byte	0x6e
 13155 44ab 38       		.uleb128 0x38
 13156 44ac 01       		.uleb128 0x1
 13157 44ad 51       		.byte	0x51
 13158 44ae 02       		.uleb128 0x2
 13159 44af 08       		.byte	0x8
 13160 44b0 43       		.byte	0x43
 13161 44b1 38       		.uleb128 0x38
 13162 44b2 01       		.uleb128 0x1
 13163 44b3 52       		.byte	0x52
 13164 44b4 01       		.uleb128 0x1
 13165 44b5 31       		.byte	0x31
 13166 44b6 00       		.byte	0
ARM GAS  C:\Users\mathi\AppData\Local\Temp\ccuMtzkg.s 			page 232


 13167 44b7 39       		.uleb128 0x39
 13168 44b8 0A020000 		.4byte	.LVL415
 13169 44bc 7F630000 		.4byte	0x637f
 13170 44c0 D6440000 		.4byte	0x44d6
 13171 44c4 38       		.uleb128 0x38
 13172 44c5 01       		.uleb128 0x1
 13173 44c6 50       		.byte	0x50
 13174 44c7 02       		.uleb128 0x2
 13175 44c8 08       		.byte	0x8
 13176 44c9 6E       		.byte	0x6e
 13177 44ca 38       		.uleb128 0x38
 13178 44cb 01       		.uleb128 0x1
 13179 44cc 51       		.byte	0x51
 13180 44cd 02       		.uleb128 0x2
 13181 44ce 08       		.byte	0x8
 13182 44cf 44       		.byte	0x44
 13183 44d0 38       		.uleb128 0x38
 13184 44d1 01       		.uleb128 0x1
 13185 44d2 52       		.byte	0x52
 13186 44d3 01       		.uleb128 0x1
 13187 44d4 34       		.byte	0x34
 13188 44d5 00       		.byte	0
 13189 44d6 39       		.uleb128 0x39
 13190 44d7 2A020000 		.4byte	.LVL419
 13191 44db 7F630000 		.4byte	0x637f
 13192 44df F6440000 		.4byte	0x44f6
 13193 44e3 38       		.uleb128 0x38
 13194 44e4 01       		.uleb128 0x1
 13195 44e5 50       		.byte	0x50
 13196 44e6 02       		.uleb128 0x2
 13197 44e7 08       		.byte	0x8
 13198 44e8 6E       		.byte	0x6e
 13199 44e9 38       		.uleb128 0x38
 13200 44ea 01       		.uleb128 0x1
 13201 44eb 51       		.byte	0x51
 13202 44ec 02       		.uleb128 0x2
 13203 44ed 09       		.byte	0x9
 13204 44ee 93       		.byte	0x93
 13205 44ef 38       		.uleb128 0x38
 13206 44f0 01       		.uleb128 0x1
 13207 44f1 52       		.byte	0x52
 13208 44f2 02       		.uleb128 0x2
 13209 44f3 08       		.byte	0x8
 13210 44f4 20       		.byte	0x20
 13211 44f5 00       		.byte	0
 13212 44f6 39       		.uleb128 0x39
 13213 44f7 3A020000 		.4byte	.LVL421
 13214 44fb 7F630000 		.4byte	0x637f
 13215 44ff 16450000 		.4byte	0x4516
 13216 4503 38       		.uleb128 0x38
 13217 4504 01       		.uleb128 0x1
 13218 4505 50       		.byte	0x50
 13219 4506 02       		.uleb128 0x2
 13220 4507 08       		.byte	0x8
 13221 4508 6E       		.byte	0x6e
 13222 4509 38       		.uleb128 0x38
 13223 450a 01       		.uleb128 0x1
ARM GAS  C:\Users\mathi\AppData\Local\Temp\ccuMtzkg.s 			page 233


 13224 450b 51       		.byte	0x51
 13225 450c 02       		.uleb128 0x2
 13226 450d 09       		.byte	0x9
 13227 450e 94       		.byte	0x94
 13228 450f 38       		.uleb128 0x38
 13229 4510 01       		.uleb128 0x1
 13230 4511 52       		.byte	0x52
 13231 4512 02       		.uleb128 0x2
 13232 4513 08       		.byte	0x8
 13233 4514 20       		.byte	0x20
 13234 4515 00       		.byte	0
 13235 4516 39       		.uleb128 0x39
 13236 4517 5A020000 		.4byte	.LVL426
 13237 451b 7F630000 		.4byte	0x637f
 13238 451f 30450000 		.4byte	0x4530
 13239 4523 38       		.uleb128 0x38
 13240 4524 01       		.uleb128 0x1
 13241 4525 50       		.byte	0x50
 13242 4526 02       		.uleb128 0x2
 13243 4527 08       		.byte	0x8
 13244 4528 6E       		.byte	0x6e
 13245 4529 38       		.uleb128 0x38
 13246 452a 01       		.uleb128 0x1
 13247 452b 51       		.byte	0x51
 13248 452c 02       		.uleb128 0x2
 13249 452d 09       		.byte	0x9
 13250 452e 95       		.byte	0x95
 13251 452f 00       		.byte	0
 13252 4530 37       		.uleb128 0x37
 13253 4531 6A020000 		.4byte	.LVL428
 13254 4535 7F630000 		.4byte	0x637f
 13255 4539 38       		.uleb128 0x38
 13256 453a 01       		.uleb128 0x1
 13257 453b 50       		.byte	0x50
 13258 453c 02       		.uleb128 0x2
 13259 453d 08       		.byte	0x8
 13260 453e 6E       		.byte	0x6e
 13261 453f 38       		.uleb128 0x38
 13262 4540 01       		.uleb128 0x1
 13263 4541 51       		.byte	0x51
 13264 4542 02       		.uleb128 0x2
 13265 4543 09       		.byte	0x9
 13266 4544 96       		.byte	0x96
 13267 4545 38       		.uleb128 0x38
 13268 4546 01       		.uleb128 0x1
 13269 4547 52       		.byte	0x52
 13270 4548 02       		.uleb128 0x2
 13271 4549 09       		.byte	0x9
 13272 454a F5       		.byte	0xf5
 13273 454b 00       		.byte	0
 13274 454c 00       		.byte	0
 13275 454d 00       		.byte	0
 13276 454e 30       		.uleb128 0x30
 13277 454f 0E000000 		.4byte	.LVL348
 13278 4553 95630000 		.4byte	0x6395
 13279 4557 39       		.uleb128 0x39
 13280 4558 16000000 		.4byte	.LVL349
ARM GAS  C:\Users\mathi\AppData\Local\Temp\ccuMtzkg.s 			page 234


 13281 455c A0630000 		.4byte	0x63a0
 13282 4560 6E450000 		.4byte	0x456e
 13283 4564 38       		.uleb128 0x38
 13284 4565 01       		.uleb128 0x1
 13285 4566 51       		.byte	0x51
 13286 4567 05       		.uleb128 0x5
 13287 4568 03       		.byte	0x3
 13288 4569 00000000 		.4byte	.LANCHOR1
 13289 456d 00       		.byte	0
 13290 456e 39       		.uleb128 0x39
 13291 456f 20000000 		.4byte	.LVL350
 13292 4573 AC630000 		.4byte	0x63ac
 13293 4577 86450000 		.4byte	0x4586
 13294 457b 38       		.uleb128 0x38
 13295 457c 01       		.uleb128 0x1
 13296 457d 51       		.byte	0x51
 13297 457e 01       		.uleb128 0x1
 13298 457f 30       		.byte	0x30
 13299 4580 38       		.uleb128 0x38
 13300 4581 01       		.uleb128 0x1
 13301 4582 52       		.byte	0x52
 13302 4583 01       		.uleb128 0x1
 13303 4584 31       		.byte	0x31
 13304 4585 00       		.byte	0
 13305 4586 30       		.uleb128 0x30
 13306 4587 84020000 		.4byte	.LVL431
 13307 458b 76630000 		.4byte	0x6376
 13308 458f 00       		.byte	0
 13309 4590 3B       		.uleb128 0x3b
 13310 4591 82180000 		.4byte	.LASF784
 13311 4595 01       		.byte	0x1
 13312 4596 1202     		.2byte	0x212
 13313 4598 D1000000 		.4byte	0xd1
 13314 459c 01       		.byte	0x1
 13315 459d C6450000 		.4byte	0x45c6
 13316 45a1 3C       		.uleb128 0x3c
 13317 45a2 666D7400 		.ascii	"fmt\000"
 13318 45a6 01       		.byte	0x1
 13319 45a7 1202     		.2byte	0x212
 13320 45a9 ED360000 		.4byte	0x36ed
 13321 45ad 42       		.uleb128 0x42
 13322 45ae 1C170000 		.4byte	.LASF782
 13323 45b2 01       		.byte	0x1
 13324 45b3 1202     		.2byte	0x212
 13325 45b5 18370000 		.4byte	0x3718
 13326 45b9 3D       		.uleb128 0x3d
 13327 45ba 65727200 		.ascii	"err\000"
 13328 45be 01       		.byte	0x1
 13329 45bf 1302     		.2byte	0x213
 13330 45c1 D1000000 		.4byte	0xd1
 13331 45c5 00       		.byte	0
 13332 45c6 3B       		.uleb128 0x3b
 13333 45c7 45140000 		.4byte	.LASF785
 13334 45cb 01       		.byte	0x1
 13335 45cc FB01     		.2byte	0x1fb
 13336 45ce D1000000 		.4byte	0xd1
 13337 45d2 01       		.byte	0x1
ARM GAS  C:\Users\mathi\AppData\Local\Temp\ccuMtzkg.s 			page 235


 13338 45d3 E4450000 		.4byte	0x45e4
 13339 45d7 42       		.uleb128 0x42
 13340 45d8 1C170000 		.4byte	.LASF782
 13341 45dc 01       		.byte	0x1
 13342 45dd FB01     		.2byte	0x1fb
 13343 45df 18370000 		.4byte	0x3718
 13344 45e3 00       		.byte	0
 13345 45e4 3B       		.uleb128 0x3b
 13346 45e5 F01B0000 		.4byte	.LASF786
 13347 45e9 01       		.byte	0x1
 13348 45ea 8C01     		.2byte	0x18c
 13349 45ec D1000000 		.4byte	0xd1
 13350 45f0 01       		.byte	0x1
 13351 45f1 02460000 		.4byte	0x4602
 13352 45f5 3D       		.uleb128 0x3d
 13353 45f6 65727200 		.ascii	"err\000"
 13354 45fa 01       		.byte	0x1
 13355 45fb 8D01     		.2byte	0x18d
 13356 45fd D1000000 		.4byte	0xd1
 13357 4601 00       		.byte	0
 13358 4602 3B       		.uleb128 0x3b
 13359 4603 1F110000 		.4byte	.LASF787
 13360 4607 01       		.byte	0x1
 13361 4608 1F01     		.2byte	0x11f
 13362 460a D1000000 		.4byte	0xd1
 13363 460e 01       		.byte	0x1
 13364 460f 20460000 		.4byte	0x4620
 13365 4613 3D       		.uleb128 0x3d
 13366 4614 65727200 		.ascii	"err\000"
 13367 4618 01       		.byte	0x1
 13368 4619 2001     		.2byte	0x120
 13369 461b D1000000 		.4byte	0xd1
 13370 461f 00       		.byte	0
 13371 4620 49       		.uleb128 0x49
 13372 4621 540B0000 		.4byte	.LASF788
 13373 4625 01       		.byte	0x1
 13374 4626 B2       		.byte	0xb2
 13375 4627 D1000000 		.4byte	0xd1
 13376 462b 01       		.byte	0x1
 13377 462c 3C460000 		.4byte	0x463c
 13378 4630 4A       		.uleb128 0x4a
 13379 4631 65727200 		.ascii	"err\000"
 13380 4635 01       		.byte	0x1
 13381 4636 B3       		.byte	0xb3
 13382 4637 D1000000 		.4byte	0xd1
 13383 463b 00       		.byte	0
 13384 463c 49       		.uleb128 0x49
 13385 463d B8200000 		.4byte	.LASF789
 13386 4641 01       		.byte	0x1
 13387 4642 84       		.byte	0x84
 13388 4643 D1000000 		.4byte	0xd1
 13389 4647 01       		.byte	0x1
 13390 4648 63460000 		.4byte	0x4663
 13391 464c 4B       		.uleb128 0x4b
 13392 464d 666D7400 		.ascii	"fmt\000"
 13393 4651 01       		.byte	0x1
 13394 4652 84       		.byte	0x84
ARM GAS  C:\Users\mathi\AppData\Local\Temp\ccuMtzkg.s 			page 236


 13395 4653 ED360000 		.4byte	0x36ed
 13396 4657 4A       		.uleb128 0x4a
 13397 4658 65727200 		.ascii	"err\000"
 13398 465c 01       		.byte	0x1
 13399 465d 85       		.byte	0x85
 13400 465e D1000000 		.4byte	0xd1
 13401 4662 00       		.byte	0
 13402 4663 49       		.uleb128 0x49
 13403 4664 D51F0000 		.4byte	.LASF790
 13404 4668 01       		.byte	0x1
 13405 4669 76       		.byte	0x76
 13406 466a D1000000 		.4byte	0xd1
 13407 466e 01       		.byte	0x1
 13408 466f 7F460000 		.4byte	0x467f
 13409 4673 4C       		.uleb128 0x4c
 13410 4674 4C180000 		.4byte	.LASF791
 13411 4678 01       		.byte	0x1
 13412 4679 76       		.byte	0x76
 13413 467a DC000000 		.4byte	0xdc
 13414 467e 00       		.byte	0
 13415 467f 4D       		.uleb128 0x4d
 13416 4680 9E140000 		.4byte	.LASF792
 13417 4684 01       		.byte	0x1
 13418 4685 5D       		.byte	0x5d
 13419 4686 D1000000 		.4byte	0xd1
 13420 468a 00000000 		.4byte	.LFB257
 13421 468e 50000000 		.4byte	.LFE257-.LFB257
 13422 4692 01       		.uleb128 0x1
 13423 4693 9C       		.byte	0x9c
 13424 4694 0B470000 		.4byte	0x470b
 13425 4698 4E       		.uleb128 0x4e
 13426 4699 696400   		.ascii	"id\000"
 13427 469c 01       		.byte	0x1
 13428 469d 5D       		.byte	0x5d
 13429 469e 0B470000 		.4byte	0x470b
 13430 46a2 72070000 		.4byte	.LLST0
 13431 46a6 2D       		.uleb128 0x2d
 13432 46a7 C7030000 		.4byte	.LASF793
 13433 46ab 01       		.byte	0x1
 13434 46ac 5E       		.byte	0x5e
 13435 46ad 11470000 		.4byte	0x4711
 13436 46b1 02       		.uleb128 0x2
 13437 46b2 91       		.byte	0x91
 13438 46b3 68       		.sleb128 -24
 13439 46b4 4F       		.uleb128 0x4f
 13440 46b5 65727200 		.ascii	"err\000"
 13441 46b9 01       		.byte	0x1
 13442 46ba 5F       		.byte	0x5f
 13443 46bb D1000000 		.4byte	0xd1
 13444 46bf 90070000 		.4byte	.LLST1
 13445 46c3 39       		.uleb128 0x39
 13446 46c4 1A000000 		.4byte	.LVL3
 13447 46c8 8A630000 		.4byte	0x638a
 13448 46cc E2460000 		.4byte	0x46e2
 13449 46d0 38       		.uleb128 0x38
 13450 46d1 01       		.uleb128 0x1
 13451 46d2 50       		.byte	0x50
ARM GAS  C:\Users\mathi\AppData\Local\Temp\ccuMtzkg.s 			page 237


 13452 46d3 02       		.uleb128 0x2
 13453 46d4 08       		.byte	0x8
 13454 46d5 6E       		.byte	0x6e
 13455 46d6 38       		.uleb128 0x38
 13456 46d7 01       		.uleb128 0x1
 13457 46d8 51       		.byte	0x51
 13458 46d9 01       		.uleb128 0x1
 13459 46da 30       		.byte	0x30
 13460 46db 38       		.uleb128 0x38
 13461 46dc 01       		.uleb128 0x1
 13462 46dd 52       		.byte	0x52
 13463 46de 02       		.uleb128 0x2
 13464 46df 91       		.byte	0x91
 13465 46e0 68       		.sleb128 -24
 13466 46e1 00       		.byte	0
 13467 46e2 39       		.uleb128 0x39
 13468 46e3 34000000 		.4byte	.LVL6
 13469 46e7 8A630000 		.4byte	0x638a
 13470 46eb 01470000 		.4byte	0x4701
 13471 46ef 38       		.uleb128 0x38
 13472 46f0 01       		.uleb128 0x1
 13473 46f1 50       		.byte	0x50
 13474 46f2 02       		.uleb128 0x2
 13475 46f3 08       		.byte	0x8
 13476 46f4 6E       		.byte	0x6e
 13477 46f5 38       		.uleb128 0x38
 13478 46f6 01       		.uleb128 0x1
 13479 46f7 51       		.byte	0x51
 13480 46f8 01       		.uleb128 0x1
 13481 46f9 31       		.byte	0x31
 13482 46fa 38       		.uleb128 0x38
 13483 46fb 01       		.uleb128 0x1
 13484 46fc 52       		.byte	0x52
 13485 46fd 02       		.uleb128 0x2
 13486 46fe 91       		.byte	0x91
 13487 46ff 69       		.sleb128 -23
 13488 4700 00       		.byte	0
 13489 4701 30       		.uleb128 0x30
 13490 4702 4A000000 		.4byte	.LVL7
 13491 4706 76630000 		.4byte	0x6376
 13492 470a 00       		.byte	0
 13493 470b 0B       		.uleb128 0xb
 13494 470c 04       		.byte	0x4
 13495 470d F7000000 		.4byte	0xf7
 13496 4711 13       		.uleb128 0x13
 13497 4712 DC000000 		.4byte	0xdc
 13498 4716 21470000 		.4byte	0x4721
 13499 471a 14       		.uleb128 0x14
 13500 471b 2C000000 		.4byte	0x2c
 13501 471f 01       		.byte	0x1
 13502 4720 00       		.byte	0
 13503 4721 50       		.uleb128 0x50
 13504 4722 63460000 		.4byte	0x4663
 13505 4726 00000000 		.4byte	.LFB258
 13506 472a 2C000000 		.4byte	.LFE258-.LFB258
 13507 472e 01       		.uleb128 0x1
 13508 472f 9C       		.byte	0x9c
ARM GAS  C:\Users\mathi\AppData\Local\Temp\ccuMtzkg.s 			page 238


 13509 4730 60470000 		.4byte	0x4760
 13510 4734 34       		.uleb128 0x34
 13511 4735 73460000 		.4byte	0x4673
 13512 4739 BA070000 		.4byte	.LLST2
 13513 473d 41       		.uleb128 0x41
 13514 473e 22000000 		.4byte	.LVL10
 13515 4742 7F630000 		.4byte	0x637f
 13516 4746 56470000 		.4byte	0x4756
 13517 474a 38       		.uleb128 0x38
 13518 474b 01       		.uleb128 0x1
 13519 474c 50       		.byte	0x50
 13520 474d 02       		.uleb128 0x2
 13521 474e 08       		.byte	0x8
 13522 474f 6E       		.byte	0x6e
 13523 4750 38       		.uleb128 0x38
 13524 4751 01       		.uleb128 0x1
 13525 4752 51       		.byte	0x51
 13526 4753 01       		.uleb128 0x1
 13527 4754 33       		.byte	0x33
 13528 4755 00       		.byte	0
 13529 4756 30       		.uleb128 0x30
 13530 4757 26000000 		.4byte	.LVL11
 13531 475b 76630000 		.4byte	0x6376
 13532 475f 00       		.byte	0
 13533 4760 50       		.uleb128 0x50
 13534 4761 3C460000 		.4byte	0x463c
 13535 4765 00000000 		.4byte	.LFB259
 13536 4769 A8000000 		.4byte	.LFE259-.LFB259
 13537 476d 01       		.uleb128 0x1
 13538 476e 9C       		.byte	0x9c
 13539 476f F7480000 		.4byte	0x48f7
 13540 4773 34       		.uleb128 0x34
 13541 4774 4C460000 		.4byte	0x464c
 13542 4778 F4070000 		.4byte	.LLST3
 13543 477c 47       		.uleb128 0x47
 13544 477d 57460000 		.4byte	0x4657
 13545 4781 15080000 		.4byte	.LLST4
 13546 4785 48       		.uleb128 0x48
 13547 4786 63460000 		.4byte	0x4663
 13548 478a 0C000000 		.4byte	.LBB78
 13549 478e 0A000000 		.4byte	.LBE78-.LBB78
 13550 4792 01       		.byte	0x1
 13551 4793 87       		.byte	0x87
 13552 4794 BC470000 		.4byte	0x47bc
 13553 4798 34       		.uleb128 0x34
 13554 4799 73460000 		.4byte	0x4673
 13555 479d 3F080000 		.4byte	.LLST5
 13556 47a1 37       		.uleb128 0x37
 13557 47a2 16000000 		.4byte	.LVL15
 13558 47a6 7F630000 		.4byte	0x637f
 13559 47aa 38       		.uleb128 0x38
 13560 47ab 01       		.uleb128 0x1
 13561 47ac 50       		.byte	0x50
 13562 47ad 02       		.uleb128 0x2
 13563 47ae 08       		.byte	0x8
 13564 47af 6E       		.byte	0x6e
 13565 47b0 38       		.uleb128 0x38
ARM GAS  C:\Users\mathi\AppData\Local\Temp\ccuMtzkg.s 			page 239


 13566 47b1 01       		.uleb128 0x1
 13567 47b2 51       		.byte	0x51
 13568 47b3 01       		.uleb128 0x1
 13569 47b4 33       		.byte	0x33
 13570 47b5 38       		.uleb128 0x38
 13571 47b6 01       		.uleb128 0x1
 13572 47b7 52       		.byte	0x52
 13573 47b8 01       		.uleb128 0x1
 13574 47b9 31       		.byte	0x31
 13575 47ba 00       		.byte	0
 13576 47bb 00       		.byte	0
 13577 47bc 51       		.uleb128 0x51
 13578 47bd 3C460000 		.4byte	0x463c
 13579 47c1 38000000 		.4byte	.LBB80
 13580 47c5 62000000 		.4byte	.LBE80-.LBB80
 13581 47c9 CD480000 		.4byte	0x48cd
 13582 47cd 34       		.uleb128 0x34
 13583 47ce 4C460000 		.4byte	0x464c
 13584 47d2 53080000 		.4byte	.LLST6
 13585 47d6 52       		.uleb128 0x52
 13586 47d7 38000000 		.4byte	.LBB81
 13587 47db 62000000 		.4byte	.LBE81-.LBB81
 13588 47df 36       		.uleb128 0x36
 13589 47e0 7C470000 		.4byte	0x477c
 13590 47e4 48       		.uleb128 0x48
 13591 47e5 63460000 		.4byte	0x4663
 13592 47e9 5A000000 		.4byte	.LBB82
 13593 47ed 0A000000 		.4byte	.LBE82-.LBB82
 13594 47f1 01       		.byte	0x1
 13595 47f2 93       		.byte	0x93
 13596 47f3 1C480000 		.4byte	0x481c
 13597 47f7 34       		.uleb128 0x34
 13598 47f8 73460000 		.4byte	0x4673
 13599 47fc 66080000 		.4byte	.LLST7
 13600 4800 37       		.uleb128 0x37
 13601 4801 64000000 		.4byte	.LVL26
 13602 4805 7F630000 		.4byte	0x637f
 13603 4809 38       		.uleb128 0x38
 13604 480a 01       		.uleb128 0x1
 13605 480b 50       		.byte	0x50
 13606 480c 02       		.uleb128 0x2
 13607 480d 08       		.byte	0x8
 13608 480e 6E       		.byte	0x6e
 13609 480f 38       		.uleb128 0x38
 13610 4810 01       		.uleb128 0x1
 13611 4811 51       		.byte	0x51
 13612 4812 01       		.uleb128 0x1
 13613 4813 33       		.byte	0x33
 13614 4814 38       		.uleb128 0x38
 13615 4815 01       		.uleb128 0x1
 13616 4816 52       		.byte	0x52
 13617 4817 02       		.uleb128 0x2
 13618 4818 74       		.byte	0x74
 13619 4819 00       		.sleb128 0
 13620 481a 00       		.byte	0
 13621 481b 00       		.byte	0
 13622 481c 48       		.uleb128 0x48
ARM GAS  C:\Users\mathi\AppData\Local\Temp\ccuMtzkg.s 			page 240


 13623 481d 63460000 		.4byte	0x4663
 13624 4821 78000000 		.4byte	.LBB84
 13625 4825 0A000000 		.4byte	.LBE84-.LBB84
 13626 4829 01       		.byte	0x1
 13627 482a 9D       		.byte	0x9d
 13628 482b 54480000 		.4byte	0x4854
 13629 482f 34       		.uleb128 0x34
 13630 4830 73460000 		.4byte	0x4673
 13631 4834 7A080000 		.4byte	.LLST8
 13632 4838 37       		.uleb128 0x37
 13633 4839 82000000 		.4byte	.LVL30
 13634 483d 7F630000 		.4byte	0x637f
 13635 4841 38       		.uleb128 0x38
 13636 4842 01       		.uleb128 0x1
 13637 4843 50       		.byte	0x50
 13638 4844 02       		.uleb128 0x2
 13639 4845 08       		.byte	0x8
 13640 4846 6E       		.byte	0x6e
 13641 4847 38       		.uleb128 0x38
 13642 4848 01       		.uleb128 0x1
 13643 4849 51       		.byte	0x51
 13644 484a 01       		.uleb128 0x1
 13645 484b 33       		.byte	0x33
 13646 484c 38       		.uleb128 0x38
 13647 484d 01       		.uleb128 0x1
 13648 484e 52       		.byte	0x52
 13649 484f 02       		.uleb128 0x2
 13650 4850 74       		.byte	0x74
 13651 4851 00       		.sleb128 0
 13652 4852 00       		.byte	0
 13653 4853 00       		.byte	0
 13654 4854 39       		.uleb128 0x39
 13655 4855 46000000 		.4byte	.LVL19
 13656 4859 7F630000 		.4byte	0x637f
 13657 485d 74480000 		.4byte	0x4874
 13658 4861 38       		.uleb128 0x38
 13659 4862 01       		.uleb128 0x1
 13660 4863 50       		.byte	0x50
 13661 4864 02       		.uleb128 0x2
 13662 4865 08       		.byte	0x8
 13663 4866 6E       		.byte	0x6e
 13664 4867 38       		.uleb128 0x38
 13665 4868 01       		.uleb128 0x1
 13666 4869 51       		.byte	0x51
 13667 486a 02       		.uleb128 0x2
 13668 486b 09       		.byte	0x9
 13669 486c B7       		.byte	0xb7
 13670 486d 38       		.uleb128 0x38
 13671 486e 01       		.uleb128 0x1
 13672 486f 52       		.byte	0x52
 13673 4870 02       		.uleb128 0x2
 13674 4871 74       		.byte	0x74
 13675 4872 00       		.sleb128 0
 13676 4873 00       		.byte	0
 13677 4874 39       		.uleb128 0x39
 13678 4875 56000000 		.4byte	.LVL23
 13679 4879 7F630000 		.4byte	0x637f
ARM GAS  C:\Users\mathi\AppData\Local\Temp\ccuMtzkg.s 			page 241


 13680 487d 93480000 		.4byte	0x4893
 13681 4881 38       		.uleb128 0x38
 13682 4882 01       		.uleb128 0x1
 13683 4883 50       		.byte	0x50
 13684 4884 02       		.uleb128 0x2
 13685 4885 08       		.byte	0x8
 13686 4886 6E       		.byte	0x6e
 13687 4887 38       		.uleb128 0x38
 13688 4888 01       		.uleb128 0x1
 13689 4889 51       		.byte	0x51
 13690 488a 02       		.uleb128 0x2
 13691 488b 09       		.byte	0x9
 13692 488c B7       		.byte	0xb7
 13693 488d 38       		.uleb128 0x38
 13694 488e 01       		.uleb128 0x1
 13695 488f 52       		.byte	0x52
 13696 4890 01       		.uleb128 0x1
 13697 4891 31       		.byte	0x31
 13698 4892 00       		.byte	0
 13699 4893 39       		.uleb128 0x39
 13700 4894 72000000 		.4byte	.LVL27
 13701 4898 7F630000 		.4byte	0x637f
 13702 489c B1480000 		.4byte	0x48b1
 13703 48a0 38       		.uleb128 0x38
 13704 48a1 01       		.uleb128 0x1
 13705 48a2 50       		.byte	0x50
 13706 48a3 02       		.uleb128 0x2
 13707 48a4 08       		.byte	0x8
 13708 48a5 6E       		.byte	0x6e
 13709 48a6 38       		.uleb128 0x38
 13710 48a7 01       		.uleb128 0x1
 13711 48a8 51       		.byte	0x51
 13712 48a9 01       		.uleb128 0x1
 13713 48aa 41       		.byte	0x41
 13714 48ab 38       		.uleb128 0x38
 13715 48ac 01       		.uleb128 0x1
 13716 48ad 52       		.byte	0x52
 13717 48ae 01       		.uleb128 0x1
 13718 48af 33       		.byte	0x33
 13719 48b0 00       		.byte	0
 13720 48b1 37       		.uleb128 0x37
 13721 48b2 90000000 		.4byte	.LVL31
 13722 48b6 7F630000 		.4byte	0x637f
 13723 48ba 38       		.uleb128 0x38
 13724 48bb 01       		.uleb128 0x1
 13725 48bc 50       		.byte	0x50
 13726 48bd 02       		.uleb128 0x2
 13727 48be 08       		.byte	0x8
 13728 48bf 6E       		.byte	0x6e
 13729 48c0 38       		.uleb128 0x38
 13730 48c1 01       		.uleb128 0x1
 13731 48c2 51       		.byte	0x51
 13732 48c3 01       		.uleb128 0x1
 13733 48c4 41       		.byte	0x41
 13734 48c5 38       		.uleb128 0x38
 13735 48c6 01       		.uleb128 0x1
 13736 48c7 52       		.byte	0x52
ARM GAS  C:\Users\mathi\AppData\Local\Temp\ccuMtzkg.s 			page 242


 13737 48c8 01       		.uleb128 0x1
 13738 48c9 3A       		.byte	0x3a
 13739 48ca 00       		.byte	0
 13740 48cb 00       		.byte	0
 13741 48cc 00       		.byte	0
 13742 48cd 39       		.uleb128 0x39
 13743 48ce 32000000 		.4byte	.LVL16
 13744 48d2 7F630000 		.4byte	0x637f
 13745 48d6 ED480000 		.4byte	0x48ed
 13746 48da 38       		.uleb128 0x38
 13747 48db 01       		.uleb128 0x1
 13748 48dc 50       		.byte	0x50
 13749 48dd 02       		.uleb128 0x2
 13750 48de 08       		.byte	0x8
 13751 48df 6E       		.byte	0x6e
 13752 48e0 38       		.uleb128 0x38
 13753 48e1 01       		.uleb128 0x1
 13754 48e2 51       		.byte	0x51
 13755 48e3 02       		.uleb128 0x2
 13756 48e4 08       		.byte	0x8
 13757 48e5 4E       		.byte	0x4e
 13758 48e6 38       		.uleb128 0x38
 13759 48e7 01       		.uleb128 0x1
 13760 48e8 52       		.byte	0x52
 13761 48e9 02       		.uleb128 0x2
 13762 48ea 76       		.byte	0x76
 13763 48eb 00       		.sleb128 0
 13764 48ec 00       		.byte	0
 13765 48ed 30       		.uleb128 0x30
 13766 48ee 9E000000 		.4byte	.LVL33
 13767 48f2 76630000 		.4byte	0x6376
 13768 48f6 00       		.byte	0
 13769 48f7 50       		.uleb128 0x50
 13770 48f8 20460000 		.4byte	0x4620
 13771 48fc 00000000 		.4byte	.LFB260
 13772 4900 D0010000 		.4byte	.LFE260-.LFB260
 13773 4904 01       		.uleb128 0x1
 13774 4905 9C       		.byte	0x9c
 13775 4906 A54C0000 		.4byte	0x4ca5
 13776 490a 47       		.uleb128 0x47
 13777 490b 30460000 		.4byte	0x4630
 13778 490f 8E080000 		.4byte	.LLST9
 13779 4913 48       		.uleb128 0x48
 13780 4914 63460000 		.4byte	0x4663
 13781 4918 0A000000 		.4byte	.LBB96
 13782 491c 0A000000 		.4byte	.LBE96-.LBB96
 13783 4920 01       		.byte	0x1
 13784 4921 B5       		.byte	0xb5
 13785 4922 4A490000 		.4byte	0x494a
 13786 4926 34       		.uleb128 0x34
 13787 4927 73460000 		.4byte	0x4673
 13788 492b CE080000 		.4byte	.LLST10
 13789 492f 37       		.uleb128 0x37
 13790 4930 14000000 		.4byte	.LVL35
 13791 4934 7F630000 		.4byte	0x637f
 13792 4938 38       		.uleb128 0x38
 13793 4939 01       		.uleb128 0x1
ARM GAS  C:\Users\mathi\AppData\Local\Temp\ccuMtzkg.s 			page 243


 13794 493a 50       		.byte	0x50
 13795 493b 02       		.uleb128 0x2
 13796 493c 08       		.byte	0x8
 13797 493d 6E       		.byte	0x6e
 13798 493e 38       		.uleb128 0x38
 13799 493f 01       		.uleb128 0x1
 13800 4940 51       		.byte	0x51
 13801 4941 01       		.uleb128 0x1
 13802 4942 33       		.byte	0x33
 13803 4943 38       		.uleb128 0x38
 13804 4944 01       		.uleb128 0x1
 13805 4945 52       		.byte	0x52
 13806 4946 01       		.uleb128 0x1
 13807 4947 30       		.byte	0x30
 13808 4948 00       		.byte	0
 13809 4949 00       		.byte	0
 13810 494a 53       		.uleb128 0x53
 13811 494b 5C000000 		.4byte	.LBB99
 13812 494f 64010000 		.4byte	.LBE99-.LBB99
 13813 4953 2D4C0000 		.4byte	0x4c2d
 13814 4957 36       		.uleb128 0x36
 13815 4958 0A490000 		.4byte	0x490a
 13816 495c 3A       		.uleb128 0x3a
 13817 495d 63460000 		.4byte	0x4663
 13818 4961 82010000 		.4byte	.LBB100
 13819 4965 0A000000 		.4byte	.LBE100-.LBB100
 13820 4969 01       		.byte	0x1
 13821 496a 0401     		.2byte	0x104
 13822 496c 94490000 		.4byte	0x4994
 13823 4970 34       		.uleb128 0x34
 13824 4971 73460000 		.4byte	0x4673
 13825 4975 E2080000 		.4byte	.LLST11
 13826 4979 37       		.uleb128 0x37
 13827 497a 8C010000 		.4byte	.LVL85
 13828 497e 7F630000 		.4byte	0x637f
 13829 4982 38       		.uleb128 0x38
 13830 4983 01       		.uleb128 0x1
 13831 4984 50       		.byte	0x50
 13832 4985 02       		.uleb128 0x2
 13833 4986 08       		.byte	0x8
 13834 4987 6E       		.byte	0x6e
 13835 4988 38       		.uleb128 0x38
 13836 4989 01       		.uleb128 0x1
 13837 498a 51       		.byte	0x51
 13838 498b 01       		.uleb128 0x1
 13839 498c 33       		.byte	0x33
 13840 498d 38       		.uleb128 0x38
 13841 498e 01       		.uleb128 0x1
 13842 498f 52       		.byte	0x52
 13843 4990 01       		.uleb128 0x1
 13844 4991 31       		.byte	0x31
 13845 4992 00       		.byte	0
 13846 4993 00       		.byte	0
 13847 4994 39       		.uleb128 0x39
 13848 4995 66000000 		.4byte	.LVL44
 13849 4999 7F630000 		.4byte	0x637f
 13850 499d B2490000 		.4byte	0x49b2
ARM GAS  C:\Users\mathi\AppData\Local\Temp\ccuMtzkg.s 			page 244


 13851 49a1 38       		.uleb128 0x38
 13852 49a2 01       		.uleb128 0x1
 13853 49a3 50       		.byte	0x50
 13854 49a4 02       		.uleb128 0x2
 13855 49a5 08       		.byte	0x8
 13856 49a6 6E       		.byte	0x6e
 13857 49a7 38       		.uleb128 0x38
 13858 49a8 01       		.uleb128 0x1
 13859 49a9 51       		.byte	0x51
 13860 49aa 01       		.uleb128 0x1
 13861 49ab 3C       		.byte	0x3c
 13862 49ac 38       		.uleb128 0x38
 13863 49ad 01       		.uleb128 0x1
 13864 49ae 52       		.byte	0x52
 13865 49af 01       		.uleb128 0x1
 13866 49b0 32       		.byte	0x32
 13867 49b1 00       		.byte	0
 13868 49b2 39       		.uleb128 0x39
 13869 49b3 74000000 		.4byte	.LVL46
 13870 49b7 7F630000 		.4byte	0x637f
 13871 49bb D1490000 		.4byte	0x49d1
 13872 49bf 38       		.uleb128 0x38
 13873 49c0 01       		.uleb128 0x1
 13874 49c1 50       		.byte	0x50
 13875 49c2 02       		.uleb128 0x2
 13876 49c3 08       		.byte	0x8
 13877 49c4 6E       		.byte	0x6e
 13878 49c5 38       		.uleb128 0x38
 13879 49c6 01       		.uleb128 0x1
 13880 49c7 51       		.byte	0x51
 13881 49c8 01       		.uleb128 0x1
 13882 49c9 3D       		.byte	0x3d
 13883 49ca 38       		.uleb128 0x38
 13884 49cb 01       		.uleb128 0x1
 13885 49cc 52       		.byte	0x52
 13886 49cd 02       		.uleb128 0x2
 13887 49ce 09       		.byte	0x9
 13888 49cf 80       		.byte	0x80
 13889 49d0 00       		.byte	0
 13890 49d1 39       		.uleb128 0x39
 13891 49d2 82000000 		.4byte	.LVL48
 13892 49d6 7F630000 		.4byte	0x637f
 13893 49da EF490000 		.4byte	0x49ef
 13894 49de 38       		.uleb128 0x38
 13895 49df 01       		.uleb128 0x1
 13896 49e0 50       		.byte	0x50
 13897 49e1 02       		.uleb128 0x2
 13898 49e2 08       		.byte	0x8
 13899 49e3 6E       		.byte	0x6e
 13900 49e4 38       		.uleb128 0x38
 13901 49e5 01       		.uleb128 0x1
 13902 49e6 51       		.byte	0x51
 13903 49e7 01       		.uleb128 0x1
 13904 49e8 3E       		.byte	0x3e
 13905 49e9 38       		.uleb128 0x38
 13906 49ea 01       		.uleb128 0x1
 13907 49eb 52       		.byte	0x52
ARM GAS  C:\Users\mathi\AppData\Local\Temp\ccuMtzkg.s 			page 245


 13908 49ec 01       		.uleb128 0x1
 13909 49ed 31       		.byte	0x31
 13910 49ee 00       		.byte	0
 13911 49ef 39       		.uleb128 0x39
 13912 49f0 90000000 		.4byte	.LVL50
 13913 49f4 7F630000 		.4byte	0x637f
 13914 49f8 0E4A0000 		.4byte	0x4a0e
 13915 49fc 38       		.uleb128 0x38
 13916 49fd 01       		.uleb128 0x1
 13917 49fe 50       		.byte	0x50
 13918 49ff 02       		.uleb128 0x2
 13919 4a00 08       		.byte	0x8
 13920 4a01 6E       		.byte	0x6e
 13921 4a02 38       		.uleb128 0x38
 13922 4a03 01       		.uleb128 0x1
 13923 4a04 51       		.byte	0x51
 13924 4a05 01       		.uleb128 0x1
 13925 4a06 3F       		.byte	0x3f
 13926 4a07 38       		.uleb128 0x38
 13927 4a08 01       		.uleb128 0x1
 13928 4a09 52       		.byte	0x52
 13929 4a0a 02       		.uleb128 0x2
 13930 4a0b 09       		.byte	0x9
 13931 4a0c E0       		.byte	0xe0
 13932 4a0d 00       		.byte	0
 13933 4a0e 39       		.uleb128 0x39
 13934 4a0f 9E000000 		.4byte	.LVL52
 13935 4a13 7F630000 		.4byte	0x637f
 13936 4a17 284A0000 		.4byte	0x4a28
 13937 4a1b 38       		.uleb128 0x38
 13938 4a1c 01       		.uleb128 0x1
 13939 4a1d 50       		.byte	0x50
 13940 4a1e 02       		.uleb128 0x2
 13941 4a1f 08       		.byte	0x8
 13942 4a20 6E       		.byte	0x6e
 13943 4a21 38       		.uleb128 0x38
 13944 4a22 01       		.uleb128 0x1
 13945 4a23 51       		.byte	0x51
 13946 4a24 02       		.uleb128 0x2
 13947 4a25 08       		.byte	0x8
 13948 4a26 35       		.byte	0x35
 13949 4a27 00       		.byte	0
 13950 4a28 39       		.uleb128 0x39
 13951 4a29 AC000000 		.4byte	.LVL54
 13952 4a2d 7F630000 		.4byte	0x637f
 13953 4a31 474A0000 		.4byte	0x4a47
 13954 4a35 38       		.uleb128 0x38
 13955 4a36 01       		.uleb128 0x1
 13956 4a37 50       		.byte	0x50
 13957 4a38 02       		.uleb128 0x2
 13958 4a39 08       		.byte	0x8
 13959 4a3a 6E       		.byte	0x6e
 13960 4a3b 38       		.uleb128 0x38
 13961 4a3c 01       		.uleb128 0x1
 13962 4a3d 51       		.byte	0x51
 13963 4a3e 02       		.uleb128 0x2
 13964 4a3f 08       		.byte	0x8
ARM GAS  C:\Users\mathi\AppData\Local\Temp\ccuMtzkg.s 			page 246


 13965 4a40 36       		.byte	0x36
 13966 4a41 38       		.uleb128 0x38
 13967 4a42 01       		.uleb128 0x1
 13968 4a43 52       		.byte	0x52
 13969 4a44 01       		.uleb128 0x1
 13970 4a45 31       		.byte	0x31
 13971 4a46 00       		.byte	0
 13972 4a47 39       		.uleb128 0x39
 13973 4a48 BA000000 		.4byte	.LVL56
 13974 4a4c 7F630000 		.4byte	0x637f
 13975 4a50 664A0000 		.4byte	0x4a66
 13976 4a54 38       		.uleb128 0x38
 13977 4a55 01       		.uleb128 0x1
 13978 4a56 50       		.byte	0x50
 13979 4a57 02       		.uleb128 0x2
 13980 4a58 08       		.byte	0x8
 13981 4a59 6E       		.byte	0x6e
 13982 4a5a 38       		.uleb128 0x38
 13983 4a5b 01       		.uleb128 0x1
 13984 4a5c 51       		.byte	0x51
 13985 4a5d 02       		.uleb128 0x2
 13986 4a5e 08       		.byte	0x8
 13987 4a5f 37       		.byte	0x37
 13988 4a60 38       		.uleb128 0x38
 13989 4a61 01       		.uleb128 0x1
 13990 4a62 52       		.byte	0x52
 13991 4a63 01       		.uleb128 0x1
 13992 4a64 32       		.byte	0x32
 13993 4a65 00       		.byte	0
 13994 4a66 39       		.uleb128 0x39
 13995 4a67 C8000000 		.4byte	.LVL58
 13996 4a6b 7F630000 		.4byte	0x637f
 13997 4a6f 864A0000 		.4byte	0x4a86
 13998 4a73 38       		.uleb128 0x38
 13999 4a74 01       		.uleb128 0x1
 14000 4a75 50       		.byte	0x50
 14001 4a76 02       		.uleb128 0x2
 14002 4a77 08       		.byte	0x8
 14003 4a78 6E       		.byte	0x6e
 14004 4a79 38       		.uleb128 0x38
 14005 4a7a 01       		.uleb128 0x1
 14006 4a7b 51       		.byte	0x51
 14007 4a7c 02       		.uleb128 0x2
 14008 4a7d 08       		.byte	0x8
 14009 4a7e 38       		.byte	0x38
 14010 4a7f 38       		.uleb128 0x38
 14011 4a80 01       		.uleb128 0x1
 14012 4a81 52       		.byte	0x52
 14013 4a82 02       		.uleb128 0x2
 14014 4a83 09       		.byte	0x9
 14015 4a84 80       		.byte	0x80
 14016 4a85 00       		.byte	0
 14017 4a86 39       		.uleb128 0x39
 14018 4a87 D6000000 		.4byte	.LVL60
 14019 4a8b 7F630000 		.4byte	0x637f
 14020 4a8f A04A0000 		.4byte	0x4aa0
 14021 4a93 38       		.uleb128 0x38
ARM GAS  C:\Users\mathi\AppData\Local\Temp\ccuMtzkg.s 			page 247


 14022 4a94 01       		.uleb128 0x1
 14023 4a95 50       		.byte	0x50
 14024 4a96 02       		.uleb128 0x2
 14025 4a97 08       		.byte	0x8
 14026 4a98 6E       		.byte	0x6e
 14027 4a99 38       		.uleb128 0x38
 14028 4a9a 01       		.uleb128 0x1
 14029 4a9b 51       		.byte	0x51
 14030 4a9c 02       		.uleb128 0x2
 14031 4a9d 08       		.byte	0x8
 14032 4a9e 39       		.byte	0x39
 14033 4a9f 00       		.byte	0
 14034 4aa0 39       		.uleb128 0x39
 14035 4aa1 E4000000 		.4byte	.LVL62
 14036 4aa5 7F630000 		.4byte	0x637f
 14037 4aa9 BF4A0000 		.4byte	0x4abf
 14038 4aad 38       		.uleb128 0x38
 14039 4aae 01       		.uleb128 0x1
 14040 4aaf 50       		.byte	0x50
 14041 4ab0 02       		.uleb128 0x2
 14042 4ab1 08       		.byte	0x8
 14043 4ab2 6E       		.byte	0x6e
 14044 4ab3 38       		.uleb128 0x38
 14045 4ab4 01       		.uleb128 0x1
 14046 4ab5 51       		.byte	0x51
 14047 4ab6 02       		.uleb128 0x2
 14048 4ab7 08       		.byte	0x8
 14049 4ab8 3A       		.byte	0x3a
 14050 4ab9 38       		.uleb128 0x38
 14051 4aba 01       		.uleb128 0x1
 14052 4abb 52       		.byte	0x52
 14053 4abc 01       		.uleb128 0x1
 14054 4abd 31       		.byte	0x31
 14055 4abe 00       		.byte	0
 14056 4abf 39       		.uleb128 0x39
 14057 4ac0 F2000000 		.4byte	.LVL64
 14058 4ac4 7F630000 		.4byte	0x637f
 14059 4ac8 DE4A0000 		.4byte	0x4ade
 14060 4acc 38       		.uleb128 0x38
 14061 4acd 01       		.uleb128 0x1
 14062 4ace 50       		.byte	0x50
 14063 4acf 02       		.uleb128 0x2
 14064 4ad0 08       		.byte	0x8
 14065 4ad1 6E       		.byte	0x6e
 14066 4ad2 38       		.uleb128 0x38
 14067 4ad3 01       		.uleb128 0x1
 14068 4ad4 51       		.byte	0x51
 14069 4ad5 02       		.uleb128 0x2
 14070 4ad6 08       		.byte	0x8
 14071 4ad7 3B       		.byte	0x3b
 14072 4ad8 38       		.uleb128 0x38
 14073 4ad9 01       		.uleb128 0x1
 14074 4ada 52       		.byte	0x52
 14075 4adb 01       		.uleb128 0x1
 14076 4adc 31       		.byte	0x31
 14077 4add 00       		.byte	0
 14078 4ade 39       		.uleb128 0x39
ARM GAS  C:\Users\mathi\AppData\Local\Temp\ccuMtzkg.s 			page 248


 14079 4adf 00010000 		.4byte	.LVL66
 14080 4ae3 7F630000 		.4byte	0x637f
 14081 4ae7 FE4A0000 		.4byte	0x4afe
 14082 4aeb 38       		.uleb128 0x38
 14083 4aec 01       		.uleb128 0x1
 14084 4aed 50       		.byte	0x50
 14085 4aee 02       		.uleb128 0x2
 14086 4aef 08       		.byte	0x8
 14087 4af0 6E       		.byte	0x6e
 14088 4af1 38       		.uleb128 0x38
 14089 4af2 01       		.uleb128 0x1
 14090 4af3 51       		.byte	0x51
 14091 4af4 02       		.uleb128 0x2
 14092 4af5 08       		.byte	0x8
 14093 4af6 3C       		.byte	0x3c
 14094 4af7 38       		.uleb128 0x38
 14095 4af8 01       		.uleb128 0x1
 14096 4af9 52       		.byte	0x52
 14097 4afa 02       		.uleb128 0x2
 14098 4afb 09       		.byte	0x9
 14099 4afc E0       		.byte	0xe0
 14100 4afd 00       		.byte	0
 14101 4afe 39       		.uleb128 0x39
 14102 4aff 0E010000 		.4byte	.LVL68
 14103 4b03 7F630000 		.4byte	0x637f
 14104 4b07 184B0000 		.4byte	0x4b18
 14105 4b0b 38       		.uleb128 0x38
 14106 4b0c 01       		.uleb128 0x1
 14107 4b0d 50       		.byte	0x50
 14108 4b0e 02       		.uleb128 0x2
 14109 4b0f 08       		.byte	0x8
 14110 4b10 6E       		.byte	0x6e
 14111 4b11 38       		.uleb128 0x38
 14112 4b12 01       		.uleb128 0x1
 14113 4b13 51       		.byte	0x51
 14114 4b14 02       		.uleb128 0x2
 14115 4b15 08       		.byte	0x8
 14116 4b16 3D       		.byte	0x3d
 14117 4b17 00       		.byte	0
 14118 4b18 39       		.uleb128 0x39
 14119 4b19 1C010000 		.4byte	.LVL70
 14120 4b1d 7F630000 		.4byte	0x637f
 14121 4b21 384B0000 		.4byte	0x4b38
 14122 4b25 38       		.uleb128 0x38
 14123 4b26 01       		.uleb128 0x1
 14124 4b27 50       		.byte	0x50
 14125 4b28 02       		.uleb128 0x2
 14126 4b29 08       		.byte	0x8
 14127 4b2a 6E       		.byte	0x6e
 14128 4b2b 38       		.uleb128 0x38
 14129 4b2c 01       		.uleb128 0x1
 14130 4b2d 51       		.byte	0x51
 14131 4b2e 02       		.uleb128 0x2
 14132 4b2f 08       		.byte	0x8
 14133 4b30 3E       		.byte	0x3e
 14134 4b31 38       		.uleb128 0x38
 14135 4b32 01       		.uleb128 0x1
ARM GAS  C:\Users\mathi\AppData\Local\Temp\ccuMtzkg.s 			page 249


 14136 4b33 52       		.byte	0x52
 14137 4b34 02       		.uleb128 0x2
 14138 4b35 09       		.byte	0x9
 14139 4b36 D6       		.byte	0xd6
 14140 4b37 00       		.byte	0
 14141 4b38 39       		.uleb128 0x39
 14142 4b39 2C010000 		.4byte	.LVL72
 14143 4b3d 7F630000 		.4byte	0x637f
 14144 4b41 574B0000 		.4byte	0x4b57
 14145 4b45 38       		.uleb128 0x38
 14146 4b46 01       		.uleb128 0x1
 14147 4b47 50       		.byte	0x50
 14148 4b48 02       		.uleb128 0x2
 14149 4b49 08       		.byte	0x8
 14150 4b4a 6E       		.byte	0x6e
 14151 4b4b 38       		.uleb128 0x38
 14152 4b4c 01       		.uleb128 0x1
 14153 4b4d 51       		.byte	0x51
 14154 4b4e 02       		.uleb128 0x2
 14155 4b4f 08       		.byte	0x8
 14156 4b50 3F       		.byte	0x3f
 14157 4b51 38       		.uleb128 0x38
 14158 4b52 01       		.uleb128 0x1
 14159 4b53 52       		.byte	0x52
 14160 4b54 01       		.uleb128 0x1
 14161 4b55 31       		.byte	0x31
 14162 4b56 00       		.byte	0
 14163 4b57 39       		.uleb128 0x39
 14164 4b58 3C010000 		.4byte	.LVL74
 14165 4b5c 7F630000 		.4byte	0x637f
 14166 4b60 774B0000 		.4byte	0x4b77
 14167 4b64 38       		.uleb128 0x38
 14168 4b65 01       		.uleb128 0x1
 14169 4b66 50       		.byte	0x50
 14170 4b67 02       		.uleb128 0x2
 14171 4b68 08       		.byte	0x8
 14172 4b69 6E       		.byte	0x6e
 14173 4b6a 38       		.uleb128 0x38
 14174 4b6b 01       		.uleb128 0x1
 14175 4b6c 51       		.byte	0x51
 14176 4b6d 02       		.uleb128 0x2
 14177 4b6e 08       		.byte	0x8
 14178 4b6f 40       		.byte	0x40
 14179 4b70 38       		.uleb128 0x38
 14180 4b71 01       		.uleb128 0x1
 14181 4b72 52       		.byte	0x52
 14182 4b73 02       		.uleb128 0x2
 14183 4b74 09       		.byte	0x9
 14184 4b75 AB       		.byte	0xab
 14185 4b76 00       		.byte	0
 14186 4b77 39       		.uleb128 0x39
 14187 4b78 4C010000 		.4byte	.LVL76
 14188 4b7c 7F630000 		.4byte	0x637f
 14189 4b80 914B0000 		.4byte	0x4b91
 14190 4b84 38       		.uleb128 0x38
 14191 4b85 01       		.uleb128 0x1
 14192 4b86 50       		.byte	0x50
ARM GAS  C:\Users\mathi\AppData\Local\Temp\ccuMtzkg.s 			page 250


 14193 4b87 02       		.uleb128 0x2
 14194 4b88 08       		.byte	0x8
 14195 4b89 6E       		.byte	0x6e
 14196 4b8a 38       		.uleb128 0x38
 14197 4b8b 01       		.uleb128 0x1
 14198 4b8c 51       		.byte	0x51
 14199 4b8d 02       		.uleb128 0x2
 14200 4b8e 08       		.byte	0x8
 14201 4b8f 41       		.byte	0x41
 14202 4b90 00       		.byte	0
 14203 4b91 39       		.uleb128 0x39
 14204 4b92 5C010000 		.4byte	.LVL78
 14205 4b96 7F630000 		.4byte	0x637f
 14206 4b9a B14B0000 		.4byte	0x4bb1
 14207 4b9e 38       		.uleb128 0x38
 14208 4b9f 01       		.uleb128 0x1
 14209 4ba0 50       		.byte	0x50
 14210 4ba1 02       		.uleb128 0x2
 14211 4ba2 08       		.byte	0x8
 14212 4ba3 6E       		.byte	0x6e
 14213 4ba4 38       		.uleb128 0x38
 14214 4ba5 01       		.uleb128 0x1
 14215 4ba6 51       		.byte	0x51
 14216 4ba7 02       		.uleb128 0x2
 14217 4ba8 08       		.byte	0x8
 14218 4ba9 42       		.byte	0x42
 14219 4baa 38       		.uleb128 0x38
 14220 4bab 01       		.uleb128 0x1
 14221 4bac 52       		.byte	0x52
 14222 4bad 02       		.uleb128 0x2
 14223 4bae 09       		.byte	0x9
 14224 4baf A1       		.byte	0xa1
 14225 4bb0 00       		.byte	0
 14226 4bb1 39       		.uleb128 0x39
 14227 4bb2 6C010000 		.4byte	.LVL80
 14228 4bb6 7F630000 		.4byte	0x637f
 14229 4bba D04B0000 		.4byte	0x4bd0
 14230 4bbe 38       		.uleb128 0x38
 14231 4bbf 01       		.uleb128 0x1
 14232 4bc0 50       		.byte	0x50
 14233 4bc1 02       		.uleb128 0x2
 14234 4bc2 08       		.byte	0x8
 14235 4bc3 6E       		.byte	0x6e
 14236 4bc4 38       		.uleb128 0x38
 14237 4bc5 01       		.uleb128 0x1
 14238 4bc6 51       		.byte	0x51
 14239 4bc7 02       		.uleb128 0x2
 14240 4bc8 08       		.byte	0x8
 14241 4bc9 43       		.byte	0x43
 14242 4bca 38       		.uleb128 0x38
 14243 4bcb 01       		.uleb128 0x1
 14244 4bcc 52       		.byte	0x52
 14245 4bcd 01       		.uleb128 0x1
 14246 4bce 31       		.byte	0x31
 14247 4bcf 00       		.byte	0
 14248 4bd0 39       		.uleb128 0x39
 14249 4bd1 7C010000 		.4byte	.LVL82
ARM GAS  C:\Users\mathi\AppData\Local\Temp\ccuMtzkg.s 			page 251


 14250 4bd5 7F630000 		.4byte	0x637f
 14251 4bd9 F04B0000 		.4byte	0x4bf0
 14252 4bdd 38       		.uleb128 0x38
 14253 4bde 01       		.uleb128 0x1
 14254 4bdf 50       		.byte	0x50
 14255 4be0 02       		.uleb128 0x2
 14256 4be1 08       		.byte	0x8
 14257 4be2 6E       		.byte	0x6e
 14258 4be3 38       		.uleb128 0x38
 14259 4be4 01       		.uleb128 0x1
 14260 4be5 51       		.byte	0x51
 14261 4be6 02       		.uleb128 0x2
 14262 4be7 08       		.byte	0x8
 14263 4be8 44       		.byte	0x44
 14264 4be9 38       		.uleb128 0x38
 14265 4bea 01       		.uleb128 0x1
 14266 4beb 52       		.byte	0x52
 14267 4bec 02       		.uleb128 0x2
 14268 4bed 08       		.byte	0x8
 14269 4bee 40       		.byte	0x40
 14270 4bef 00       		.byte	0
 14271 4bf0 39       		.uleb128 0x39
 14272 4bf1 9C010000 		.4byte	.LVL86
 14273 4bf5 7F630000 		.4byte	0x637f
 14274 4bf9 104C0000 		.4byte	0x4c10
 14275 4bfd 38       		.uleb128 0x38
 14276 4bfe 01       		.uleb128 0x1
 14277 4bff 50       		.byte	0x50
 14278 4c00 02       		.uleb128 0x2
 14279 4c01 08       		.byte	0x8
 14280 4c02 6E       		.byte	0x6e
 14281 4c03 38       		.uleb128 0x38
 14282 4c04 01       		.uleb128 0x1
 14283 4c05 51       		.byte	0x51
 14284 4c06 02       		.uleb128 0x2
 14285 4c07 09       		.byte	0x9
 14286 4c08 93       		.byte	0x93
 14287 4c09 38       		.uleb128 0x38
 14288 4c0a 01       		.uleb128 0x1
 14289 4c0b 52       		.byte	0x52
 14290 4c0c 02       		.uleb128 0x2
 14291 4c0d 08       		.byte	0x8
 14292 4c0e 20       		.byte	0x20
 14293 4c0f 00       		.byte	0
 14294 4c10 37       		.uleb128 0x37
 14295 4c11 AC010000 		.4byte	.LVL88
 14296 4c15 7F630000 		.4byte	0x637f
 14297 4c19 38       		.uleb128 0x38
 14298 4c1a 01       		.uleb128 0x1
 14299 4c1b 50       		.byte	0x50
 14300 4c1c 02       		.uleb128 0x2
 14301 4c1d 08       		.byte	0x8
 14302 4c1e 6E       		.byte	0x6e
 14303 4c1f 38       		.uleb128 0x38
 14304 4c20 01       		.uleb128 0x1
 14305 4c21 51       		.byte	0x51
 14306 4c22 02       		.uleb128 0x2
ARM GAS  C:\Users\mathi\AppData\Local\Temp\ccuMtzkg.s 			page 252


 14307 4c23 09       		.byte	0x9
 14308 4c24 94       		.byte	0x94
 14309 4c25 38       		.uleb128 0x38
 14310 4c26 01       		.uleb128 0x1
 14311 4c27 52       		.byte	0x52
 14312 4c28 02       		.uleb128 0x2
 14313 4c29 08       		.byte	0x8
 14314 4c2a 20       		.byte	0x20
 14315 4c2b 00       		.byte	0
 14316 4c2c 00       		.byte	0
 14317 4c2d 39       		.uleb128 0x39
 14318 4c2e 2E000000 		.4byte	.LVL36
 14319 4c32 7F630000 		.4byte	0x637f
 14320 4c36 464C0000 		.4byte	0x4c46
 14321 4c3a 38       		.uleb128 0x38
 14322 4c3b 01       		.uleb128 0x1
 14323 4c3c 50       		.byte	0x50
 14324 4c3d 02       		.uleb128 0x2
 14325 4c3e 08       		.byte	0x8
 14326 4c3f 6E       		.byte	0x6e
 14327 4c40 38       		.uleb128 0x38
 14328 4c41 01       		.uleb128 0x1
 14329 4c42 51       		.byte	0x51
 14330 4c43 01       		.uleb128 0x1
 14331 4c44 38       		.byte	0x38
 14332 4c45 00       		.byte	0
 14333 4c46 39       		.uleb128 0x39
 14334 4c47 3C000000 		.4byte	.LVL38
 14335 4c4b 7F630000 		.4byte	0x637f
 14336 4c4f 644C0000 		.4byte	0x4c64
 14337 4c53 38       		.uleb128 0x38
 14338 4c54 01       		.uleb128 0x1
 14339 4c55 50       		.byte	0x50
 14340 4c56 02       		.uleb128 0x2
 14341 4c57 08       		.byte	0x8
 14342 4c58 6E       		.byte	0x6e
 14343 4c59 38       		.uleb128 0x38
 14344 4c5a 01       		.uleb128 0x1
 14345 4c5b 51       		.byte	0x51
 14346 4c5c 01       		.uleb128 0x1
 14347 4c5d 39       		.byte	0x39
 14348 4c5e 38       		.uleb128 0x38
 14349 4c5f 01       		.uleb128 0x1
 14350 4c60 52       		.byte	0x52
 14351 4c61 01       		.uleb128 0x1
 14352 4c62 31       		.byte	0x31
 14353 4c63 00       		.byte	0
 14354 4c64 39       		.uleb128 0x39
 14355 4c65 4A000000 		.4byte	.LVL40
 14356 4c69 7F630000 		.4byte	0x637f
 14357 4c6d 7D4C0000 		.4byte	0x4c7d
 14358 4c71 38       		.uleb128 0x38
 14359 4c72 01       		.uleb128 0x1
 14360 4c73 50       		.byte	0x50
 14361 4c74 02       		.uleb128 0x2
 14362 4c75 08       		.byte	0x8
 14363 4c76 6E       		.byte	0x6e
ARM GAS  C:\Users\mathi\AppData\Local\Temp\ccuMtzkg.s 			page 253


 14364 4c77 38       		.uleb128 0x38
 14365 4c78 01       		.uleb128 0x1
 14366 4c79 51       		.byte	0x51
 14367 4c7a 01       		.uleb128 0x1
 14368 4c7b 3A       		.byte	0x3a
 14369 4c7c 00       		.byte	0
 14370 4c7d 39       		.uleb128 0x39
 14371 4c7e 58000000 		.4byte	.LVL42
 14372 4c82 7F630000 		.4byte	0x637f
 14373 4c86 9B4C0000 		.4byte	0x4c9b
 14374 4c8a 38       		.uleb128 0x38
 14375 4c8b 01       		.uleb128 0x1
 14376 4c8c 50       		.byte	0x50
 14377 4c8d 02       		.uleb128 0x2
 14378 4c8e 08       		.byte	0x8
 14379 4c8f 6E       		.byte	0x6e
 14380 4c90 38       		.uleb128 0x38
 14381 4c91 01       		.uleb128 0x1
 14382 4c92 51       		.byte	0x51
 14383 4c93 01       		.uleb128 0x1
 14384 4c94 3B       		.byte	0x3b
 14385 4c95 38       		.uleb128 0x38
 14386 4c96 01       		.uleb128 0x1
 14387 4c97 52       		.byte	0x52
 14388 4c98 01       		.uleb128 0x1
 14389 4c99 31       		.byte	0x31
 14390 4c9a 00       		.byte	0
 14391 4c9b 30       		.uleb128 0x30
 14392 4c9c C4010000 		.4byte	.LVL90
 14393 4ca0 76630000 		.4byte	0x6376
 14394 4ca4 00       		.byte	0
 14395 4ca5 50       		.uleb128 0x50
 14396 4ca6 02460000 		.4byte	0x4602
 14397 4caa 00000000 		.4byte	.LFB261
 14398 4cae D0010000 		.4byte	.LFE261-.LFB261
 14399 4cb2 01       		.uleb128 0x1
 14400 4cb3 9C       		.byte	0x9c
 14401 4cb4 40500000 		.4byte	0x5040
 14402 4cb8 47       		.uleb128 0x47
 14403 4cb9 13460000 		.4byte	0x4613
 14404 4cbd F6080000 		.4byte	.LLST12
 14405 4cc1 3A       		.uleb128 0x3a
 14406 4cc2 63460000 		.4byte	0x4663
 14407 4cc6 0A000000 		.4byte	.LBB110
 14408 4cca 0A000000 		.4byte	.LBE110-.LBB110
 14409 4cce 01       		.byte	0x1
 14410 4ccf 2201     		.2byte	0x122
 14411 4cd1 F94C0000 		.4byte	0x4cf9
 14412 4cd5 34       		.uleb128 0x34
 14413 4cd6 73460000 		.4byte	0x4673
 14414 4cda 36090000 		.4byte	.LLST13
 14415 4cde 37       		.uleb128 0x37
 14416 4cdf 14000000 		.4byte	.LVL92
 14417 4ce3 7F630000 		.4byte	0x637f
 14418 4ce7 38       		.uleb128 0x38
 14419 4ce8 01       		.uleb128 0x1
 14420 4ce9 50       		.byte	0x50
ARM GAS  C:\Users\mathi\AppData\Local\Temp\ccuMtzkg.s 			page 254


 14421 4cea 02       		.uleb128 0x2
 14422 4ceb 08       		.byte	0x8
 14423 4cec 6E       		.byte	0x6e
 14424 4ced 38       		.uleb128 0x38
 14425 4cee 01       		.uleb128 0x1
 14426 4cef 51       		.byte	0x51
 14427 4cf0 01       		.uleb128 0x1
 14428 4cf1 33       		.byte	0x33
 14429 4cf2 38       		.uleb128 0x38
 14430 4cf3 01       		.uleb128 0x1
 14431 4cf4 52       		.byte	0x52
 14432 4cf5 01       		.uleb128 0x1
 14433 4cf6 30       		.byte	0x30
 14434 4cf7 00       		.byte	0
 14435 4cf8 00       		.byte	0
 14436 4cf9 53       		.uleb128 0x53
 14437 4cfa 5C000000 		.4byte	.LBB113
 14438 4cfe 64010000 		.4byte	.LBE113-.LBB113
 14439 4d02 C84F0000 		.4byte	0x4fc8
 14440 4d06 36       		.uleb128 0x36
 14441 4d07 B84C0000 		.4byte	0x4cb8
 14442 4d0b 3A       		.uleb128 0x3a
 14443 4d0c 63460000 		.4byte	0x4663
 14444 4d10 82010000 		.4byte	.LBB114
 14445 4d14 0A000000 		.4byte	.LBE114-.LBB114
 14446 4d18 01       		.byte	0x1
 14447 4d19 7101     		.2byte	0x171
 14448 4d1b 434D0000 		.4byte	0x4d43
 14449 4d1f 34       		.uleb128 0x34
 14450 4d20 73460000 		.4byte	0x4673
 14451 4d24 4A090000 		.4byte	.LLST14
 14452 4d28 37       		.uleb128 0x37
 14453 4d29 8C010000 		.4byte	.LVL142
 14454 4d2d 7F630000 		.4byte	0x637f
 14455 4d31 38       		.uleb128 0x38
 14456 4d32 01       		.uleb128 0x1
 14457 4d33 50       		.byte	0x50
 14458 4d34 02       		.uleb128 0x2
 14459 4d35 08       		.byte	0x8
 14460 4d36 6E       		.byte	0x6e
 14461 4d37 38       		.uleb128 0x38
 14462 4d38 01       		.uleb128 0x1
 14463 4d39 51       		.byte	0x51
 14464 4d3a 01       		.uleb128 0x1
 14465 4d3b 33       		.byte	0x33
 14466 4d3c 38       		.uleb128 0x38
 14467 4d3d 01       		.uleb128 0x1
 14468 4d3e 52       		.byte	0x52
 14469 4d3f 01       		.uleb128 0x1
 14470 4d40 31       		.byte	0x31
 14471 4d41 00       		.byte	0
 14472 4d42 00       		.byte	0
 14473 4d43 39       		.uleb128 0x39
 14474 4d44 66000000 		.4byte	.LVL101
 14475 4d48 7F630000 		.4byte	0x637f
 14476 4d4c 614D0000 		.4byte	0x4d61
 14477 4d50 38       		.uleb128 0x38
ARM GAS  C:\Users\mathi\AppData\Local\Temp\ccuMtzkg.s 			page 255


 14478 4d51 01       		.uleb128 0x1
 14479 4d52 50       		.byte	0x50
 14480 4d53 02       		.uleb128 0x2
 14481 4d54 08       		.byte	0x8
 14482 4d55 6E       		.byte	0x6e
 14483 4d56 38       		.uleb128 0x38
 14484 4d57 01       		.uleb128 0x1
 14485 4d58 51       		.byte	0x51
 14486 4d59 01       		.uleb128 0x1
 14487 4d5a 3C       		.byte	0x3c
 14488 4d5b 38       		.uleb128 0x38
 14489 4d5c 01       		.uleb128 0x1
 14490 4d5d 52       		.byte	0x52
 14491 4d5e 01       		.uleb128 0x1
 14492 4d5f 31       		.byte	0x31
 14493 4d60 00       		.byte	0
 14494 4d61 39       		.uleb128 0x39
 14495 4d62 74000000 		.4byte	.LVL103
 14496 4d66 7F630000 		.4byte	0x637f
 14497 4d6a 804D0000 		.4byte	0x4d80
 14498 4d6e 38       		.uleb128 0x38
 14499 4d6f 01       		.uleb128 0x1
 14500 4d70 50       		.byte	0x50
 14501 4d71 02       		.uleb128 0x2
 14502 4d72 08       		.byte	0x8
 14503 4d73 6E       		.byte	0x6e
 14504 4d74 38       		.uleb128 0x38
 14505 4d75 01       		.uleb128 0x1
 14506 4d76 51       		.byte	0x51
 14507 4d77 01       		.uleb128 0x1
 14508 4d78 3D       		.byte	0x3d
 14509 4d79 38       		.uleb128 0x38
 14510 4d7a 01       		.uleb128 0x1
 14511 4d7b 52       		.byte	0x52
 14512 4d7c 02       		.uleb128 0x2
 14513 4d7d 08       		.byte	0x8
 14514 4d7e 40       		.byte	0x40
 14515 4d7f 00       		.byte	0
 14516 4d80 39       		.uleb128 0x39
 14517 4d81 82000000 		.4byte	.LVL105
 14518 4d85 7F630000 		.4byte	0x637f
 14519 4d89 994D0000 		.4byte	0x4d99
 14520 4d8d 38       		.uleb128 0x38
 14521 4d8e 01       		.uleb128 0x1
 14522 4d8f 50       		.byte	0x50
 14523 4d90 02       		.uleb128 0x2
 14524 4d91 08       		.byte	0x8
 14525 4d92 6E       		.byte	0x6e
 14526 4d93 38       		.uleb128 0x38
 14527 4d94 01       		.uleb128 0x1
 14528 4d95 51       		.byte	0x51
 14529 4d96 01       		.uleb128 0x1
 14530 4d97 3E       		.byte	0x3e
 14531 4d98 00       		.byte	0
 14532 4d99 39       		.uleb128 0x39
 14533 4d9a 90000000 		.4byte	.LVL107
 14534 4d9e 7F630000 		.4byte	0x637f
ARM GAS  C:\Users\mathi\AppData\Local\Temp\ccuMtzkg.s 			page 256


 14535 4da2 B84D0000 		.4byte	0x4db8
 14536 4da6 38       		.uleb128 0x38
 14537 4da7 01       		.uleb128 0x1
 14538 4da8 50       		.byte	0x50
 14539 4da9 02       		.uleb128 0x2
 14540 4daa 08       		.byte	0x8
 14541 4dab 6E       		.byte	0x6e
 14542 4dac 38       		.uleb128 0x38
 14543 4dad 01       		.uleb128 0x1
 14544 4dae 51       		.byte	0x51
 14545 4daf 01       		.uleb128 0x1
 14546 4db0 3F       		.byte	0x3f
 14547 4db1 38       		.uleb128 0x38
 14548 4db2 01       		.uleb128 0x1
 14549 4db3 52       		.byte	0x52
 14550 4db4 02       		.uleb128 0x2
 14551 4db5 09       		.byte	0x9
 14552 4db6 F0       		.byte	0xf0
 14553 4db7 00       		.byte	0
 14554 4db8 39       		.uleb128 0x39
 14555 4db9 9E000000 		.4byte	.LVL109
 14556 4dbd 7F630000 		.4byte	0x637f
 14557 4dc1 D24D0000 		.4byte	0x4dd2
 14558 4dc5 38       		.uleb128 0x38
 14559 4dc6 01       		.uleb128 0x1
 14560 4dc7 50       		.byte	0x50
 14561 4dc8 02       		.uleb128 0x2
 14562 4dc9 08       		.byte	0x8
 14563 4dca 6E       		.byte	0x6e
 14564 4dcb 38       		.uleb128 0x38
 14565 4dcc 01       		.uleb128 0x1
 14566 4dcd 51       		.byte	0x51
 14567 4dce 02       		.uleb128 0x2
 14568 4dcf 08       		.byte	0x8
 14569 4dd0 35       		.byte	0x35
 14570 4dd1 00       		.byte	0
 14571 4dd2 39       		.uleb128 0x39
 14572 4dd3 AC000000 		.4byte	.LVL111
 14573 4dd7 7F630000 		.4byte	0x637f
 14574 4ddb F14D0000 		.4byte	0x4df1
 14575 4ddf 38       		.uleb128 0x38
 14576 4de0 01       		.uleb128 0x1
 14577 4de1 50       		.byte	0x50
 14578 4de2 02       		.uleb128 0x2
 14579 4de3 08       		.byte	0x8
 14580 4de4 6E       		.byte	0x6e
 14581 4de5 38       		.uleb128 0x38
 14582 4de6 01       		.uleb128 0x1
 14583 4de7 51       		.byte	0x51
 14584 4de8 02       		.uleb128 0x2
 14585 4de9 08       		.byte	0x8
 14586 4dea 36       		.byte	0x36
 14587 4deb 38       		.uleb128 0x38
 14588 4dec 01       		.uleb128 0x1
 14589 4ded 52       		.byte	0x52
 14590 4dee 01       		.uleb128 0x1
 14591 4def 31       		.byte	0x31
ARM GAS  C:\Users\mathi\AppData\Local\Temp\ccuMtzkg.s 			page 257


 14592 4df0 00       		.byte	0
 14593 4df1 39       		.uleb128 0x39
 14594 4df2 BA000000 		.4byte	.LVL113
 14595 4df6 7F630000 		.4byte	0x637f
 14596 4dfa 104E0000 		.4byte	0x4e10
 14597 4dfe 38       		.uleb128 0x38
 14598 4dff 01       		.uleb128 0x1
 14599 4e00 50       		.byte	0x50
 14600 4e01 02       		.uleb128 0x2
 14601 4e02 08       		.byte	0x8
 14602 4e03 6E       		.byte	0x6e
 14603 4e04 38       		.uleb128 0x38
 14604 4e05 01       		.uleb128 0x1
 14605 4e06 51       		.byte	0x51
 14606 4e07 02       		.uleb128 0x2
 14607 4e08 08       		.byte	0x8
 14608 4e09 37       		.byte	0x37
 14609 4e0a 38       		.uleb128 0x38
 14610 4e0b 01       		.uleb128 0x1
 14611 4e0c 52       		.byte	0x52
 14612 4e0d 01       		.uleb128 0x1
 14613 4e0e 31       		.byte	0x31
 14614 4e0f 00       		.byte	0
 14615 4e10 39       		.uleb128 0x39
 14616 4e11 C8000000 		.4byte	.LVL115
 14617 4e15 7F630000 		.4byte	0x637f
 14618 4e19 304E0000 		.4byte	0x4e30
 14619 4e1d 38       		.uleb128 0x38
 14620 4e1e 01       		.uleb128 0x1
 14621 4e1f 50       		.byte	0x50
 14622 4e20 02       		.uleb128 0x2
 14623 4e21 08       		.byte	0x8
 14624 4e22 6E       		.byte	0x6e
 14625 4e23 38       		.uleb128 0x38
 14626 4e24 01       		.uleb128 0x1
 14627 4e25 51       		.byte	0x51
 14628 4e26 02       		.uleb128 0x2
 14629 4e27 08       		.byte	0x8
 14630 4e28 38       		.byte	0x38
 14631 4e29 38       		.uleb128 0x38
 14632 4e2a 01       		.uleb128 0x1
 14633 4e2b 52       		.byte	0x52
 14634 4e2c 02       		.uleb128 0x2
 14635 4e2d 08       		.byte	0x8
 14636 4e2e 40       		.byte	0x40
 14637 4e2f 00       		.byte	0
 14638 4e30 39       		.uleb128 0x39
 14639 4e31 D6000000 		.4byte	.LVL117
 14640 4e35 7F630000 		.4byte	0x637f
 14641 4e39 4A4E0000 		.4byte	0x4e4a
 14642 4e3d 38       		.uleb128 0x38
 14643 4e3e 01       		.uleb128 0x1
 14644 4e3f 50       		.byte	0x50
 14645 4e40 02       		.uleb128 0x2
 14646 4e41 08       		.byte	0x8
 14647 4e42 6E       		.byte	0x6e
 14648 4e43 38       		.uleb128 0x38
ARM GAS  C:\Users\mathi\AppData\Local\Temp\ccuMtzkg.s 			page 258


 14649 4e44 01       		.uleb128 0x1
 14650 4e45 51       		.byte	0x51
 14651 4e46 02       		.uleb128 0x2
 14652 4e47 08       		.byte	0x8
 14653 4e48 39       		.byte	0x39
 14654 4e49 00       		.byte	0
 14655 4e4a 39       		.uleb128 0x39
 14656 4e4b E4000000 		.4byte	.LVL119
 14657 4e4f 7F630000 		.4byte	0x637f
 14658 4e53 694E0000 		.4byte	0x4e69
 14659 4e57 38       		.uleb128 0x38
 14660 4e58 01       		.uleb128 0x1
 14661 4e59 50       		.byte	0x50
 14662 4e5a 02       		.uleb128 0x2
 14663 4e5b 08       		.byte	0x8
 14664 4e5c 6E       		.byte	0x6e
 14665 4e5d 38       		.uleb128 0x38
 14666 4e5e 01       		.uleb128 0x1
 14667 4e5f 51       		.byte	0x51
 14668 4e60 02       		.uleb128 0x2
 14669 4e61 08       		.byte	0x8
 14670 4e62 3A       		.byte	0x3a
 14671 4e63 38       		.uleb128 0x38
 14672 4e64 01       		.uleb128 0x1
 14673 4e65 52       		.byte	0x52
 14674 4e66 01       		.uleb128 0x1
 14675 4e67 31       		.byte	0x31
 14676 4e68 00       		.byte	0
 14677 4e69 39       		.uleb128 0x39
 14678 4e6a F2000000 		.4byte	.LVL121
 14679 4e6e 7F630000 		.4byte	0x637f
 14680 4e72 834E0000 		.4byte	0x4e83
 14681 4e76 38       		.uleb128 0x38
 14682 4e77 01       		.uleb128 0x1
 14683 4e78 50       		.byte	0x50
 14684 4e79 02       		.uleb128 0x2
 14685 4e7a 08       		.byte	0x8
 14686 4e7b 6E       		.byte	0x6e
 14687 4e7c 38       		.uleb128 0x38
 14688 4e7d 01       		.uleb128 0x1
 14689 4e7e 51       		.byte	0x51
 14690 4e7f 02       		.uleb128 0x2
 14691 4e80 08       		.byte	0x8
 14692 4e81 3B       		.byte	0x3b
 14693 4e82 00       		.byte	0
 14694 4e83 39       		.uleb128 0x39
 14695 4e84 00010000 		.4byte	.LVL123
 14696 4e88 7F630000 		.4byte	0x637f
 14697 4e8c A34E0000 		.4byte	0x4ea3
 14698 4e90 38       		.uleb128 0x38
 14699 4e91 01       		.uleb128 0x1
 14700 4e92 50       		.byte	0x50
 14701 4e93 02       		.uleb128 0x2
 14702 4e94 08       		.byte	0x8
 14703 4e95 6E       		.byte	0x6e
 14704 4e96 38       		.uleb128 0x38
 14705 4e97 01       		.uleb128 0x1
ARM GAS  C:\Users\mathi\AppData\Local\Temp\ccuMtzkg.s 			page 259


 14706 4e98 51       		.byte	0x51
 14707 4e99 02       		.uleb128 0x2
 14708 4e9a 08       		.byte	0x8
 14709 4e9b 3C       		.byte	0x3c
 14710 4e9c 38       		.uleb128 0x38
 14711 4e9d 01       		.uleb128 0x1
 14712 4e9e 52       		.byte	0x52
 14713 4e9f 02       		.uleb128 0x2
 14714 4ea0 09       		.byte	0x9
 14715 4ea1 F0       		.byte	0xf0
 14716 4ea2 00       		.byte	0
 14717 4ea3 39       		.uleb128 0x39
 14718 4ea4 0E010000 		.4byte	.LVL125
 14719 4ea8 7F630000 		.4byte	0x637f
 14720 4eac BD4E0000 		.4byte	0x4ebd
 14721 4eb0 38       		.uleb128 0x38
 14722 4eb1 01       		.uleb128 0x1
 14723 4eb2 50       		.byte	0x50
 14724 4eb3 02       		.uleb128 0x2
 14725 4eb4 08       		.byte	0x8
 14726 4eb5 6E       		.byte	0x6e
 14727 4eb6 38       		.uleb128 0x38
 14728 4eb7 01       		.uleb128 0x1
 14729 4eb8 51       		.byte	0x51
 14730 4eb9 02       		.uleb128 0x2
 14731 4eba 08       		.byte	0x8
 14732 4ebb 3D       		.byte	0x3d
 14733 4ebc 00       		.byte	0
 14734 4ebd 39       		.uleb128 0x39
 14735 4ebe 1C010000 		.4byte	.LVL127
 14736 4ec2 7F630000 		.4byte	0x637f
 14737 4ec6 DD4E0000 		.4byte	0x4edd
 14738 4eca 38       		.uleb128 0x38
 14739 4ecb 01       		.uleb128 0x1
 14740 4ecc 50       		.byte	0x50
 14741 4ecd 02       		.uleb128 0x2
 14742 4ece 08       		.byte	0x8
 14743 4ecf 6E       		.byte	0x6e
 14744 4ed0 38       		.uleb128 0x38
 14745 4ed1 01       		.uleb128 0x1
 14746 4ed2 51       		.byte	0x51
 14747 4ed3 02       		.uleb128 0x2
 14748 4ed4 08       		.byte	0x8
 14749 4ed5 3E       		.byte	0x3e
 14750 4ed6 38       		.uleb128 0x38
 14751 4ed7 01       		.uleb128 0x1
 14752 4ed8 52       		.byte	0x52
 14753 4ed9 02       		.uleb128 0x2
 14754 4eda 08       		.byte	0x8
 14755 4edb 6B       		.byte	0x6b
 14756 4edc 00       		.byte	0
 14757 4edd 39       		.uleb128 0x39
 14758 4ede 2C010000 		.4byte	.LVL129
 14759 4ee2 7F630000 		.4byte	0x637f
 14760 4ee6 F74E0000 		.4byte	0x4ef7
 14761 4eea 38       		.uleb128 0x38
 14762 4eeb 01       		.uleb128 0x1
ARM GAS  C:\Users\mathi\AppData\Local\Temp\ccuMtzkg.s 			page 260


 14763 4eec 50       		.byte	0x50
 14764 4eed 02       		.uleb128 0x2
 14765 4eee 08       		.byte	0x8
 14766 4eef 6E       		.byte	0x6e
 14767 4ef0 38       		.uleb128 0x38
 14768 4ef1 01       		.uleb128 0x1
 14769 4ef2 51       		.byte	0x51
 14770 4ef3 02       		.uleb128 0x2
 14771 4ef4 08       		.byte	0x8
 14772 4ef5 3F       		.byte	0x3f
 14773 4ef6 00       		.byte	0
 14774 4ef7 39       		.uleb128 0x39
 14775 4ef8 3C010000 		.4byte	.LVL131
 14776 4efc 7F630000 		.4byte	0x637f
 14777 4f00 174F0000 		.4byte	0x4f17
 14778 4f04 38       		.uleb128 0x38
 14779 4f05 01       		.uleb128 0x1
 14780 4f06 50       		.byte	0x50
 14781 4f07 02       		.uleb128 0x2
 14782 4f08 08       		.byte	0x8
 14783 4f09 6E       		.byte	0x6e
 14784 4f0a 38       		.uleb128 0x38
 14785 4f0b 01       		.uleb128 0x1
 14786 4f0c 51       		.byte	0x51
 14787 4f0d 02       		.uleb128 0x2
 14788 4f0e 08       		.byte	0x8
 14789 4f0f 40       		.byte	0x40
 14790 4f10 38       		.uleb128 0x38
 14791 4f11 01       		.uleb128 0x1
 14792 4f12 52       		.byte	0x52
 14793 4f13 02       		.uleb128 0x2
 14794 4f14 09       		.byte	0x9
 14795 4f15 D6       		.byte	0xd6
 14796 4f16 00       		.byte	0
 14797 4f17 39       		.uleb128 0x39
 14798 4f18 4C010000 		.4byte	.LVL133
 14799 4f1c 7F630000 		.4byte	0x637f
 14800 4f20 314F0000 		.4byte	0x4f31
 14801 4f24 38       		.uleb128 0x38
 14802 4f25 01       		.uleb128 0x1
 14803 4f26 50       		.byte	0x50
 14804 4f27 02       		.uleb128 0x2
 14805 4f28 08       		.byte	0x8
 14806 4f29 6E       		.byte	0x6e
 14807 4f2a 38       		.uleb128 0x38
 14808 4f2b 01       		.uleb128 0x1
 14809 4f2c 51       		.byte	0x51
 14810 4f2d 02       		.uleb128 0x2
 14811 4f2e 08       		.byte	0x8
 14812 4f2f 41       		.byte	0x41
 14813 4f30 00       		.byte	0
 14814 4f31 39       		.uleb128 0x39
 14815 4f32 5C010000 		.4byte	.LVL135
 14816 4f36 7F630000 		.4byte	0x637f
 14817 4f3a 514F0000 		.4byte	0x4f51
 14818 4f3e 38       		.uleb128 0x38
 14819 4f3f 01       		.uleb128 0x1
ARM GAS  C:\Users\mathi\AppData\Local\Temp\ccuMtzkg.s 			page 261


 14820 4f40 50       		.byte	0x50
 14821 4f41 02       		.uleb128 0x2
 14822 4f42 08       		.byte	0x8
 14823 4f43 6E       		.byte	0x6e
 14824 4f44 38       		.uleb128 0x38
 14825 4f45 01       		.uleb128 0x1
 14826 4f46 51       		.byte	0x51
 14827 4f47 02       		.uleb128 0x2
 14828 4f48 08       		.byte	0x8
 14829 4f49 42       		.byte	0x42
 14830 4f4a 38       		.uleb128 0x38
 14831 4f4b 01       		.uleb128 0x1
 14832 4f4c 52       		.byte	0x52
 14833 4f4d 02       		.uleb128 0x2
 14834 4f4e 08       		.byte	0x8
 14835 4f4f 50       		.byte	0x50
 14836 4f50 00       		.byte	0
 14837 4f51 39       		.uleb128 0x39
 14838 4f52 6C010000 		.4byte	.LVL137
 14839 4f56 7F630000 		.4byte	0x637f
 14840 4f5a 6B4F0000 		.4byte	0x4f6b
 14841 4f5e 38       		.uleb128 0x38
 14842 4f5f 01       		.uleb128 0x1
 14843 4f60 50       		.byte	0x50
 14844 4f61 02       		.uleb128 0x2
 14845 4f62 08       		.byte	0x8
 14846 4f63 6E       		.byte	0x6e
 14847 4f64 38       		.uleb128 0x38
 14848 4f65 01       		.uleb128 0x1
 14849 4f66 51       		.byte	0x51
 14850 4f67 02       		.uleb128 0x2
 14851 4f68 08       		.byte	0x8
 14852 4f69 43       		.byte	0x43
 14853 4f6a 00       		.byte	0
 14854 4f6b 39       		.uleb128 0x39
 14855 4f6c 7C010000 		.4byte	.LVL139
 14856 4f70 7F630000 		.4byte	0x637f
 14857 4f74 8B4F0000 		.4byte	0x4f8b
 14858 4f78 38       		.uleb128 0x38
 14859 4f79 01       		.uleb128 0x1
 14860 4f7a 50       		.byte	0x50
 14861 4f7b 02       		.uleb128 0x2
 14862 4f7c 08       		.byte	0x8
 14863 4f7d 6E       		.byte	0x6e
 14864 4f7e 38       		.uleb128 0x38
 14865 4f7f 01       		.uleb128 0x1
 14866 4f80 51       		.byte	0x51
 14867 4f81 02       		.uleb128 0x2
 14868 4f82 08       		.byte	0x8
 14869 4f83 44       		.byte	0x44
 14870 4f84 38       		.uleb128 0x38
 14871 4f85 01       		.uleb128 0x1
 14872 4f86 52       		.byte	0x52
 14873 4f87 02       		.uleb128 0x2
 14874 4f88 09       		.byte	0x9
 14875 4f89 A0       		.byte	0xa0
 14876 4f8a 00       		.byte	0
ARM GAS  C:\Users\mathi\AppData\Local\Temp\ccuMtzkg.s 			page 262


 14877 4f8b 39       		.uleb128 0x39
 14878 4f8c 9C010000 		.4byte	.LVL143
 14879 4f90 7F630000 		.4byte	0x637f
 14880 4f94 AB4F0000 		.4byte	0x4fab
 14881 4f98 38       		.uleb128 0x38
 14882 4f99 01       		.uleb128 0x1
 14883 4f9a 50       		.byte	0x50
 14884 4f9b 02       		.uleb128 0x2
 14885 4f9c 08       		.byte	0x8
 14886 4f9d 6E       		.byte	0x6e
 14887 4f9e 38       		.uleb128 0x38
 14888 4f9f 01       		.uleb128 0x1
 14889 4fa0 51       		.byte	0x51
 14890 4fa1 02       		.uleb128 0x2
 14891 4fa2 09       		.byte	0x9
 14892 4fa3 93       		.byte	0x93
 14893 4fa4 38       		.uleb128 0x38
 14894 4fa5 01       		.uleb128 0x1
 14895 4fa6 52       		.byte	0x52
 14896 4fa7 02       		.uleb128 0x2
 14897 4fa8 08       		.byte	0x8
 14898 4fa9 40       		.byte	0x40
 14899 4faa 00       		.byte	0
 14900 4fab 37       		.uleb128 0x37
 14901 4fac AC010000 		.4byte	.LVL145
 14902 4fb0 7F630000 		.4byte	0x637f
 14903 4fb4 38       		.uleb128 0x38
 14904 4fb5 01       		.uleb128 0x1
 14905 4fb6 50       		.byte	0x50
 14906 4fb7 02       		.uleb128 0x2
 14907 4fb8 08       		.byte	0x8
 14908 4fb9 6E       		.byte	0x6e
 14909 4fba 38       		.uleb128 0x38
 14910 4fbb 01       		.uleb128 0x1
 14911 4fbc 51       		.byte	0x51
 14912 4fbd 02       		.uleb128 0x2
 14913 4fbe 09       		.byte	0x9
 14914 4fbf 94       		.byte	0x94
 14915 4fc0 38       		.uleb128 0x38
 14916 4fc1 01       		.uleb128 0x1
 14917 4fc2 52       		.byte	0x52
 14918 4fc3 02       		.uleb128 0x2
 14919 4fc4 08       		.byte	0x8
 14920 4fc5 40       		.byte	0x40
 14921 4fc6 00       		.byte	0
 14922 4fc7 00       		.byte	0
 14923 4fc8 39       		.uleb128 0x39
 14924 4fc9 2E000000 		.4byte	.LVL93
 14925 4fcd 7F630000 		.4byte	0x637f
 14926 4fd1 E14F0000 		.4byte	0x4fe1
 14927 4fd5 38       		.uleb128 0x38
 14928 4fd6 01       		.uleb128 0x1
 14929 4fd7 50       		.byte	0x50
 14930 4fd8 02       		.uleb128 0x2
 14931 4fd9 08       		.byte	0x8
 14932 4fda 6E       		.byte	0x6e
 14933 4fdb 38       		.uleb128 0x38
ARM GAS  C:\Users\mathi\AppData\Local\Temp\ccuMtzkg.s 			page 263


 14934 4fdc 01       		.uleb128 0x1
 14935 4fdd 51       		.byte	0x51
 14936 4fde 01       		.uleb128 0x1
 14937 4fdf 38       		.byte	0x38
 14938 4fe0 00       		.byte	0
 14939 4fe1 39       		.uleb128 0x39
 14940 4fe2 3C000000 		.4byte	.LVL95
 14941 4fe6 7F630000 		.4byte	0x637f
 14942 4fea FF4F0000 		.4byte	0x4fff
 14943 4fee 38       		.uleb128 0x38
 14944 4fef 01       		.uleb128 0x1
 14945 4ff0 50       		.byte	0x50
 14946 4ff1 02       		.uleb128 0x2
 14947 4ff2 08       		.byte	0x8
 14948 4ff3 6E       		.byte	0x6e
 14949 4ff4 38       		.uleb128 0x38
 14950 4ff5 01       		.uleb128 0x1
 14951 4ff6 51       		.byte	0x51
 14952 4ff7 01       		.uleb128 0x1
 14953 4ff8 39       		.byte	0x39
 14954 4ff9 38       		.uleb128 0x38
 14955 4ffa 01       		.uleb128 0x1
 14956 4ffb 52       		.byte	0x52
 14957 4ffc 01       		.uleb128 0x1
 14958 4ffd 31       		.byte	0x31
 14959 4ffe 00       		.byte	0
 14960 4fff 39       		.uleb128 0x39
 14961 5000 4A000000 		.4byte	.LVL97
 14962 5004 7F630000 		.4byte	0x637f
 14963 5008 18500000 		.4byte	0x5018
 14964 500c 38       		.uleb128 0x38
 14965 500d 01       		.uleb128 0x1
 14966 500e 50       		.byte	0x50
 14967 500f 02       		.uleb128 0x2
 14968 5010 08       		.byte	0x8
 14969 5011 6E       		.byte	0x6e
 14970 5012 38       		.uleb128 0x38
 14971 5013 01       		.uleb128 0x1
 14972 5014 51       		.byte	0x51
 14973 5015 01       		.uleb128 0x1
 14974 5016 3A       		.byte	0x3a
 14975 5017 00       		.byte	0
 14976 5018 39       		.uleb128 0x39
 14977 5019 58000000 		.4byte	.LVL99
 14978 501d 7F630000 		.4byte	0x637f
 14979 5021 36500000 		.4byte	0x5036
 14980 5025 38       		.uleb128 0x38
 14981 5026 01       		.uleb128 0x1
 14982 5027 50       		.byte	0x50
 14983 5028 02       		.uleb128 0x2
 14984 5029 08       		.byte	0x8
 14985 502a 6E       		.byte	0x6e
 14986 502b 38       		.uleb128 0x38
 14987 502c 01       		.uleb128 0x1
 14988 502d 51       		.byte	0x51
 14989 502e 01       		.uleb128 0x1
 14990 502f 3B       		.byte	0x3b
ARM GAS  C:\Users\mathi\AppData\Local\Temp\ccuMtzkg.s 			page 264


 14991 5030 38       		.uleb128 0x38
 14992 5031 01       		.uleb128 0x1
 14993 5032 52       		.byte	0x52
 14994 5033 01       		.uleb128 0x1
 14995 5034 31       		.byte	0x31
 14996 5035 00       		.byte	0
 14997 5036 30       		.uleb128 0x30
 14998 5037 C4010000 		.4byte	.LVL147
 14999 503b 76630000 		.4byte	0x6376
 15000 503f 00       		.byte	0
 15001 5040 50       		.uleb128 0x50
 15002 5041 E4450000 		.4byte	0x45e4
 15003 5045 00000000 		.4byte	.LFB262
 15004 5049 D0010000 		.4byte	.LFE262-.LFB262
 15005 504d 01       		.uleb128 0x1
 15006 504e 9C       		.byte	0x9c
 15007 504f D1530000 		.4byte	0x53d1
 15008 5053 47       		.uleb128 0x47
 15009 5054 F5450000 		.4byte	0x45f5
 15010 5058 5E090000 		.4byte	.LLST15
 15011 505c 3A       		.uleb128 0x3a
 15012 505d 63460000 		.4byte	0x4663
 15013 5061 0A000000 		.4byte	.LBB126
 15014 5065 0A000000 		.4byte	.LBE126-.LBB126
 15015 5069 01       		.byte	0x1
 15016 506a 8F01     		.2byte	0x18f
 15017 506c 94500000 		.4byte	0x5094
 15018 5070 34       		.uleb128 0x34
 15019 5071 73460000 		.4byte	0x4673
 15020 5075 9E090000 		.4byte	.LLST16
 15021 5079 37       		.uleb128 0x37
 15022 507a 14000000 		.4byte	.LVL149
 15023 507e 7F630000 		.4byte	0x637f
 15024 5082 38       		.uleb128 0x38
 15025 5083 01       		.uleb128 0x1
 15026 5084 50       		.byte	0x50
 15027 5085 02       		.uleb128 0x2
 15028 5086 08       		.byte	0x8
 15029 5087 6E       		.byte	0x6e
 15030 5088 38       		.uleb128 0x38
 15031 5089 01       		.uleb128 0x1
 15032 508a 51       		.byte	0x51
 15033 508b 01       		.uleb128 0x1
 15034 508c 33       		.byte	0x33
 15035 508d 38       		.uleb128 0x38
 15036 508e 01       		.uleb128 0x1
 15037 508f 52       		.byte	0x52
 15038 5090 01       		.uleb128 0x1
 15039 5091 30       		.byte	0x30
 15040 5092 00       		.byte	0
 15041 5093 00       		.byte	0
 15042 5094 53       		.uleb128 0x53
 15043 5095 5C000000 		.4byte	.LBB129
 15044 5099 64010000 		.4byte	.LBE129-.LBB129
 15045 509d 59530000 		.4byte	0x5359
 15046 50a1 36       		.uleb128 0x36
 15047 50a2 53500000 		.4byte	0x5053
ARM GAS  C:\Users\mathi\AppData\Local\Temp\ccuMtzkg.s 			page 265


 15048 50a6 3A       		.uleb128 0x3a
 15049 50a7 63460000 		.4byte	0x4663
 15050 50ab 82010000 		.4byte	.LBB130
 15051 50af 0A000000 		.4byte	.LBE130-.LBB130
 15052 50b3 01       		.byte	0x1
 15053 50b4 DE01     		.2byte	0x1de
 15054 50b6 DE500000 		.4byte	0x50de
 15055 50ba 34       		.uleb128 0x34
 15056 50bb 73460000 		.4byte	0x4673
 15057 50bf B2090000 		.4byte	.LLST17
 15058 50c3 37       		.uleb128 0x37
 15059 50c4 8C010000 		.4byte	.LVL199
 15060 50c8 7F630000 		.4byte	0x637f
 15061 50cc 38       		.uleb128 0x38
 15062 50cd 01       		.uleb128 0x1
 15063 50ce 50       		.byte	0x50
 15064 50cf 02       		.uleb128 0x2
 15065 50d0 08       		.byte	0x8
 15066 50d1 6E       		.byte	0x6e
 15067 50d2 38       		.uleb128 0x38
 15068 50d3 01       		.uleb128 0x1
 15069 50d4 51       		.byte	0x51
 15070 50d5 01       		.uleb128 0x1
 15071 50d6 33       		.byte	0x33
 15072 50d7 38       		.uleb128 0x38
 15073 50d8 01       		.uleb128 0x1
 15074 50d9 52       		.byte	0x52
 15075 50da 01       		.uleb128 0x1
 15076 50db 31       		.byte	0x31
 15077 50dc 00       		.byte	0
 15078 50dd 00       		.byte	0
 15079 50de 39       		.uleb128 0x39
 15080 50df 66000000 		.4byte	.LVL158
 15081 50e3 7F630000 		.4byte	0x637f
 15082 50e7 F7500000 		.4byte	0x50f7
 15083 50eb 38       		.uleb128 0x38
 15084 50ec 01       		.uleb128 0x1
 15085 50ed 50       		.byte	0x50
 15086 50ee 02       		.uleb128 0x2
 15087 50ef 08       		.byte	0x8
 15088 50f0 6E       		.byte	0x6e
 15089 50f1 38       		.uleb128 0x38
 15090 50f2 01       		.uleb128 0x1
 15091 50f3 51       		.byte	0x51
 15092 50f4 01       		.uleb128 0x1
 15093 50f5 3C       		.byte	0x3c
 15094 50f6 00       		.byte	0
 15095 50f7 39       		.uleb128 0x39
 15096 50f8 74000000 		.4byte	.LVL160
 15097 50fc 7F630000 		.4byte	0x637f
 15098 5100 16510000 		.4byte	0x5116
 15099 5104 38       		.uleb128 0x38
 15100 5105 01       		.uleb128 0x1
 15101 5106 50       		.byte	0x50
 15102 5107 02       		.uleb128 0x2
 15103 5108 08       		.byte	0x8
 15104 5109 6E       		.byte	0x6e
ARM GAS  C:\Users\mathi\AppData\Local\Temp\ccuMtzkg.s 			page 266


 15105 510a 38       		.uleb128 0x38
 15106 510b 01       		.uleb128 0x1
 15107 510c 51       		.byte	0x51
 15108 510d 01       		.uleb128 0x1
 15109 510e 3D       		.byte	0x3d
 15110 510f 38       		.uleb128 0x38
 15111 5110 01       		.uleb128 0x1
 15112 5111 52       		.byte	0x52
 15113 5112 02       		.uleb128 0x2
 15114 5113 09       		.byte	0x9
 15115 5114 A0       		.byte	0xa0
 15116 5115 00       		.byte	0
 15117 5116 39       		.uleb128 0x39
 15118 5117 82000000 		.4byte	.LVL162
 15119 511b 7F630000 		.4byte	0x637f
 15120 511f 2F510000 		.4byte	0x512f
 15121 5123 38       		.uleb128 0x38
 15122 5124 01       		.uleb128 0x1
 15123 5125 50       		.byte	0x50
 15124 5126 02       		.uleb128 0x2
 15125 5127 08       		.byte	0x8
 15126 5128 6E       		.byte	0x6e
 15127 5129 38       		.uleb128 0x38
 15128 512a 01       		.uleb128 0x1
 15129 512b 51       		.byte	0x51
 15130 512c 01       		.uleb128 0x1
 15131 512d 3E       		.byte	0x3e
 15132 512e 00       		.byte	0
 15133 512f 39       		.uleb128 0x39
 15134 5130 90000000 		.4byte	.LVL164
 15135 5134 7F630000 		.4byte	0x637f
 15136 5138 4E510000 		.4byte	0x514e
 15137 513c 38       		.uleb128 0x38
 15138 513d 01       		.uleb128 0x1
 15139 513e 50       		.byte	0x50
 15140 513f 02       		.uleb128 0x2
 15141 5140 08       		.byte	0x8
 15142 5141 6E       		.byte	0x6e
 15143 5142 38       		.uleb128 0x38
 15144 5143 01       		.uleb128 0x1
 15145 5144 51       		.byte	0x51
 15146 5145 01       		.uleb128 0x1
 15147 5146 3F       		.byte	0x3f
 15148 5147 38       		.uleb128 0x38
 15149 5148 01       		.uleb128 0x1
 15150 5149 52       		.byte	0x52
 15151 514a 02       		.uleb128 0x2
 15152 514b 08       		.byte	0x8
 15153 514c 78       		.byte	0x78
 15154 514d 00       		.byte	0
 15155 514e 39       		.uleb128 0x39
 15156 514f 9E000000 		.4byte	.LVL166
 15157 5153 7F630000 		.4byte	0x637f
 15158 5157 68510000 		.4byte	0x5168
 15159 515b 38       		.uleb128 0x38
 15160 515c 01       		.uleb128 0x1
 15161 515d 50       		.byte	0x50
ARM GAS  C:\Users\mathi\AppData\Local\Temp\ccuMtzkg.s 			page 267


 15162 515e 02       		.uleb128 0x2
 15163 515f 08       		.byte	0x8
 15164 5160 6E       		.byte	0x6e
 15165 5161 38       		.uleb128 0x38
 15166 5162 01       		.uleb128 0x1
 15167 5163 51       		.byte	0x51
 15168 5164 02       		.uleb128 0x2
 15169 5165 08       		.byte	0x8
 15170 5166 35       		.byte	0x35
 15171 5167 00       		.byte	0
 15172 5168 39       		.uleb128 0x39
 15173 5169 AC000000 		.4byte	.LVL168
 15174 516d 7F630000 		.4byte	0x637f
 15175 5171 87510000 		.4byte	0x5187
 15176 5175 38       		.uleb128 0x38
 15177 5176 01       		.uleb128 0x1
 15178 5177 50       		.byte	0x50
 15179 5178 02       		.uleb128 0x2
 15180 5179 08       		.byte	0x8
 15181 517a 6E       		.byte	0x6e
 15182 517b 38       		.uleb128 0x38
 15183 517c 01       		.uleb128 0x1
 15184 517d 51       		.byte	0x51
 15185 517e 02       		.uleb128 0x2
 15186 517f 08       		.byte	0x8
 15187 5180 36       		.byte	0x36
 15188 5181 38       		.uleb128 0x38
 15189 5182 01       		.uleb128 0x1
 15190 5183 52       		.byte	0x52
 15191 5184 01       		.uleb128 0x1
 15192 5185 31       		.byte	0x31
 15193 5186 00       		.byte	0
 15194 5187 39       		.uleb128 0x39
 15195 5188 BA000000 		.4byte	.LVL170
 15196 518c 7F630000 		.4byte	0x637f
 15197 5190 A1510000 		.4byte	0x51a1
 15198 5194 38       		.uleb128 0x38
 15199 5195 01       		.uleb128 0x1
 15200 5196 50       		.byte	0x50
 15201 5197 02       		.uleb128 0x2
 15202 5198 08       		.byte	0x8
 15203 5199 6E       		.byte	0x6e
 15204 519a 38       		.uleb128 0x38
 15205 519b 01       		.uleb128 0x1
 15206 519c 51       		.byte	0x51
 15207 519d 02       		.uleb128 0x2
 15208 519e 08       		.byte	0x8
 15209 519f 37       		.byte	0x37
 15210 51a0 00       		.byte	0
 15211 51a1 39       		.uleb128 0x39
 15212 51a2 C8000000 		.4byte	.LVL172
 15213 51a6 7F630000 		.4byte	0x637f
 15214 51aa C1510000 		.4byte	0x51c1
 15215 51ae 38       		.uleb128 0x38
 15216 51af 01       		.uleb128 0x1
 15217 51b0 50       		.byte	0x50
 15218 51b1 02       		.uleb128 0x2
ARM GAS  C:\Users\mathi\AppData\Local\Temp\ccuMtzkg.s 			page 268


 15219 51b2 08       		.byte	0x8
 15220 51b3 6E       		.byte	0x6e
 15221 51b4 38       		.uleb128 0x38
 15222 51b5 01       		.uleb128 0x1
 15223 51b6 51       		.byte	0x51
 15224 51b7 02       		.uleb128 0x2
 15225 51b8 08       		.byte	0x8
 15226 51b9 38       		.byte	0x38
 15227 51ba 38       		.uleb128 0x38
 15228 51bb 01       		.uleb128 0x1
 15229 51bc 52       		.byte	0x52
 15230 51bd 02       		.uleb128 0x2
 15231 51be 09       		.byte	0x9
 15232 51bf A0       		.byte	0xa0
 15233 51c0 00       		.byte	0
 15234 51c1 39       		.uleb128 0x39
 15235 51c2 D6000000 		.4byte	.LVL174
 15236 51c6 7F630000 		.4byte	0x637f
 15237 51ca DB510000 		.4byte	0x51db
 15238 51ce 38       		.uleb128 0x38
 15239 51cf 01       		.uleb128 0x1
 15240 51d0 50       		.byte	0x50
 15241 51d1 02       		.uleb128 0x2
 15242 51d2 08       		.byte	0x8
 15243 51d3 6E       		.byte	0x6e
 15244 51d4 38       		.uleb128 0x38
 15245 51d5 01       		.uleb128 0x1
 15246 51d6 51       		.byte	0x51
 15247 51d7 02       		.uleb128 0x2
 15248 51d8 08       		.byte	0x8
 15249 51d9 39       		.byte	0x39
 15250 51da 00       		.byte	0
 15251 51db 39       		.uleb128 0x39
 15252 51dc E4000000 		.4byte	.LVL176
 15253 51e0 7F630000 		.4byte	0x637f
 15254 51e4 FA510000 		.4byte	0x51fa
 15255 51e8 38       		.uleb128 0x38
 15256 51e9 01       		.uleb128 0x1
 15257 51ea 50       		.byte	0x50
 15258 51eb 02       		.uleb128 0x2
 15259 51ec 08       		.byte	0x8
 15260 51ed 6E       		.byte	0x6e
 15261 51ee 38       		.uleb128 0x38
 15262 51ef 01       		.uleb128 0x1
 15263 51f0 51       		.byte	0x51
 15264 51f1 02       		.uleb128 0x2
 15265 51f2 08       		.byte	0x8
 15266 51f3 3A       		.byte	0x3a
 15267 51f4 38       		.uleb128 0x38
 15268 51f5 01       		.uleb128 0x1
 15269 51f6 52       		.byte	0x52
 15270 51f7 01       		.uleb128 0x1
 15271 51f8 31       		.byte	0x31
 15272 51f9 00       		.byte	0
 15273 51fa 39       		.uleb128 0x39
 15274 51fb F2000000 		.4byte	.LVL178
 15275 51ff 7F630000 		.4byte	0x637f
ARM GAS  C:\Users\mathi\AppData\Local\Temp\ccuMtzkg.s 			page 269


 15276 5203 14520000 		.4byte	0x5214
 15277 5207 38       		.uleb128 0x38
 15278 5208 01       		.uleb128 0x1
 15279 5209 50       		.byte	0x50
 15280 520a 02       		.uleb128 0x2
 15281 520b 08       		.byte	0x8
 15282 520c 6E       		.byte	0x6e
 15283 520d 38       		.uleb128 0x38
 15284 520e 01       		.uleb128 0x1
 15285 520f 51       		.byte	0x51
 15286 5210 02       		.uleb128 0x2
 15287 5211 08       		.byte	0x8
 15288 5212 3B       		.byte	0x3b
 15289 5213 00       		.byte	0
 15290 5214 39       		.uleb128 0x39
 15291 5215 00010000 		.4byte	.LVL180
 15292 5219 7F630000 		.4byte	0x637f
 15293 521d 34520000 		.4byte	0x5234
 15294 5221 38       		.uleb128 0x38
 15295 5222 01       		.uleb128 0x1
 15296 5223 50       		.byte	0x50
 15297 5224 02       		.uleb128 0x2
 15298 5225 08       		.byte	0x8
 15299 5226 6E       		.byte	0x6e
 15300 5227 38       		.uleb128 0x38
 15301 5228 01       		.uleb128 0x1
 15302 5229 51       		.byte	0x51
 15303 522a 02       		.uleb128 0x2
 15304 522b 08       		.byte	0x8
 15305 522c 3C       		.byte	0x3c
 15306 522d 38       		.uleb128 0x38
 15307 522e 01       		.uleb128 0x1
 15308 522f 52       		.byte	0x52
 15309 5230 02       		.uleb128 0x2
 15310 5231 08       		.byte	0x8
 15311 5232 78       		.byte	0x78
 15312 5233 00       		.byte	0
 15313 5234 39       		.uleb128 0x39
 15314 5235 0E010000 		.4byte	.LVL182
 15315 5239 7F630000 		.4byte	0x637f
 15316 523d 4E520000 		.4byte	0x524e
 15317 5241 38       		.uleb128 0x38
 15318 5242 01       		.uleb128 0x1
 15319 5243 50       		.byte	0x50
 15320 5244 02       		.uleb128 0x2
 15321 5245 08       		.byte	0x8
 15322 5246 6E       		.byte	0x6e
 15323 5247 38       		.uleb128 0x38
 15324 5248 01       		.uleb128 0x1
 15325 5249 51       		.byte	0x51
 15326 524a 02       		.uleb128 0x2
 15327 524b 08       		.byte	0x8
 15328 524c 3D       		.byte	0x3d
 15329 524d 00       		.byte	0
 15330 524e 39       		.uleb128 0x39
 15331 524f 1C010000 		.4byte	.LVL184
 15332 5253 7F630000 		.4byte	0x637f
ARM GAS  C:\Users\mathi\AppData\Local\Temp\ccuMtzkg.s 			page 270


 15333 5257 6E520000 		.4byte	0x526e
 15334 525b 38       		.uleb128 0x38
 15335 525c 01       		.uleb128 0x1
 15336 525d 50       		.byte	0x50
 15337 525e 02       		.uleb128 0x2
 15338 525f 08       		.byte	0x8
 15339 5260 6E       		.byte	0x6e
 15340 5261 38       		.uleb128 0x38
 15341 5262 01       		.uleb128 0x1
 15342 5263 51       		.byte	0x51
 15343 5264 02       		.uleb128 0x2
 15344 5265 08       		.byte	0x8
 15345 5266 3E       		.byte	0x3e
 15346 5267 38       		.uleb128 0x38
 15347 5268 01       		.uleb128 0x1
 15348 5269 52       		.byte	0x52
 15349 526a 02       		.uleb128 0x2
 15350 526b 08       		.byte	0x8
 15351 526c 36       		.byte	0x36
 15352 526d 00       		.byte	0
 15353 526e 39       		.uleb128 0x39
 15354 526f 2C010000 		.4byte	.LVL186
 15355 5273 7F630000 		.4byte	0x637f
 15356 5277 88520000 		.4byte	0x5288
 15357 527b 38       		.uleb128 0x38
 15358 527c 01       		.uleb128 0x1
 15359 527d 50       		.byte	0x50
 15360 527e 02       		.uleb128 0x2
 15361 527f 08       		.byte	0x8
 15362 5280 6E       		.byte	0x6e
 15363 5281 38       		.uleb128 0x38
 15364 5282 01       		.uleb128 0x1
 15365 5283 51       		.byte	0x51
 15366 5284 02       		.uleb128 0x2
 15367 5285 08       		.byte	0x8
 15368 5286 3F       		.byte	0x3f
 15369 5287 00       		.byte	0
 15370 5288 39       		.uleb128 0x39
 15371 5289 3C010000 		.4byte	.LVL188
 15372 528d 7F630000 		.4byte	0x637f
 15373 5291 A8520000 		.4byte	0x52a8
 15374 5295 38       		.uleb128 0x38
 15375 5296 01       		.uleb128 0x1
 15376 5297 50       		.byte	0x50
 15377 5298 02       		.uleb128 0x2
 15378 5299 08       		.byte	0x8
 15379 529a 6E       		.byte	0x6e
 15380 529b 38       		.uleb128 0x38
 15381 529c 01       		.uleb128 0x1
 15382 529d 51       		.byte	0x51
 15383 529e 02       		.uleb128 0x2
 15384 529f 08       		.byte	0x8
 15385 52a0 40       		.byte	0x40
 15386 52a1 38       		.uleb128 0x38
 15387 52a2 01       		.uleb128 0x1
 15388 52a3 52       		.byte	0x52
 15389 52a4 02       		.uleb128 0x2
ARM GAS  C:\Users\mathi\AppData\Local\Temp\ccuMtzkg.s 			page 271


 15390 52a5 08       		.byte	0x8
 15391 52a6 6B       		.byte	0x6b
 15392 52a7 00       		.byte	0
 15393 52a8 39       		.uleb128 0x39
 15394 52a9 4C010000 		.4byte	.LVL190
 15395 52ad 7F630000 		.4byte	0x637f
 15396 52b1 C2520000 		.4byte	0x52c2
 15397 52b5 38       		.uleb128 0x38
 15398 52b6 01       		.uleb128 0x1
 15399 52b7 50       		.byte	0x50
 15400 52b8 02       		.uleb128 0x2
 15401 52b9 08       		.byte	0x8
 15402 52ba 6E       		.byte	0x6e
 15403 52bb 38       		.uleb128 0x38
 15404 52bc 01       		.uleb128 0x1
 15405 52bd 51       		.byte	0x51
 15406 52be 02       		.uleb128 0x2
 15407 52bf 08       		.byte	0x8
 15408 52c0 41       		.byte	0x41
 15409 52c1 00       		.byte	0
 15410 52c2 39       		.uleb128 0x39
 15411 52c3 5C010000 		.4byte	.LVL192
 15412 52c7 7F630000 		.4byte	0x637f
 15413 52cb E2520000 		.4byte	0x52e2
 15414 52cf 38       		.uleb128 0x38
 15415 52d0 01       		.uleb128 0x1
 15416 52d1 50       		.byte	0x50
 15417 52d2 02       		.uleb128 0x2
 15418 52d3 08       		.byte	0x8
 15419 52d4 6E       		.byte	0x6e
 15420 52d5 38       		.uleb128 0x38
 15421 52d6 01       		.uleb128 0x1
 15422 52d7 51       		.byte	0x51
 15423 52d8 02       		.uleb128 0x2
 15424 52d9 08       		.byte	0x8
 15425 52da 42       		.byte	0x42
 15426 52db 38       		.uleb128 0x38
 15427 52dc 01       		.uleb128 0x1
 15428 52dd 52       		.byte	0x52
 15429 52de 02       		.uleb128 0x2
 15430 52df 08       		.byte	0x8
 15431 52e0 29       		.byte	0x29
 15432 52e1 00       		.byte	0
 15433 52e2 39       		.uleb128 0x39
 15434 52e3 6C010000 		.4byte	.LVL194
 15435 52e7 7F630000 		.4byte	0x637f
 15436 52eb FC520000 		.4byte	0x52fc
 15437 52ef 38       		.uleb128 0x38
 15438 52f0 01       		.uleb128 0x1
 15439 52f1 50       		.byte	0x50
 15440 52f2 02       		.uleb128 0x2
 15441 52f3 08       		.byte	0x8
 15442 52f4 6E       		.byte	0x6e
 15443 52f5 38       		.uleb128 0x38
 15444 52f6 01       		.uleb128 0x1
 15445 52f7 51       		.byte	0x51
 15446 52f8 02       		.uleb128 0x2
ARM GAS  C:\Users\mathi\AppData\Local\Temp\ccuMtzkg.s 			page 272


 15447 52f9 08       		.byte	0x8
 15448 52fa 43       		.byte	0x43
 15449 52fb 00       		.byte	0
 15450 52fc 39       		.uleb128 0x39
 15451 52fd 7C010000 		.4byte	.LVL196
 15452 5301 7F630000 		.4byte	0x637f
 15453 5305 1C530000 		.4byte	0x531c
 15454 5309 38       		.uleb128 0x38
 15455 530a 01       		.uleb128 0x1
 15456 530b 50       		.byte	0x50
 15457 530c 02       		.uleb128 0x2
 15458 530d 08       		.byte	0x8
 15459 530e 6E       		.byte	0x6e
 15460 530f 38       		.uleb128 0x38
 15461 5310 01       		.uleb128 0x1
 15462 5311 51       		.byte	0x51
 15463 5312 02       		.uleb128 0x2
 15464 5313 08       		.byte	0x8
 15465 5314 44       		.byte	0x44
 15466 5315 38       		.uleb128 0x38
 15467 5316 01       		.uleb128 0x1
 15468 5317 52       		.byte	0x52
 15469 5318 02       		.uleb128 0x2
 15470 5319 08       		.byte	0x8
 15471 531a 50       		.byte	0x50
 15472 531b 00       		.byte	0
 15473 531c 39       		.uleb128 0x39
 15474 531d 9C010000 		.4byte	.LVL200
 15475 5321 7F630000 		.4byte	0x637f
 15476 5325 3C530000 		.4byte	0x533c
 15477 5329 38       		.uleb128 0x38
 15478 532a 01       		.uleb128 0x1
 15479 532b 50       		.byte	0x50
 15480 532c 02       		.uleb128 0x2
 15481 532d 08       		.byte	0x8
 15482 532e 6E       		.byte	0x6e
 15483 532f 38       		.uleb128 0x38
 15484 5330 01       		.uleb128 0x1
 15485 5331 51       		.byte	0x51
 15486 5332 02       		.uleb128 0x2
 15487 5333 09       		.byte	0x9
 15488 5334 93       		.byte	0x93
 15489 5335 38       		.uleb128 0x38
 15490 5336 01       		.uleb128 0x1
 15491 5337 52       		.byte	0x52
 15492 5338 02       		.uleb128 0x2
 15493 5339 09       		.byte	0x9
 15494 533a 80       		.byte	0x80
 15495 533b 00       		.byte	0
 15496 533c 37       		.uleb128 0x37
 15497 533d AC010000 		.4byte	.LVL202
 15498 5341 7F630000 		.4byte	0x637f
 15499 5345 38       		.uleb128 0x38
 15500 5346 01       		.uleb128 0x1
 15501 5347 50       		.byte	0x50
 15502 5348 02       		.uleb128 0x2
 15503 5349 08       		.byte	0x8
ARM GAS  C:\Users\mathi\AppData\Local\Temp\ccuMtzkg.s 			page 273


 15504 534a 6E       		.byte	0x6e
 15505 534b 38       		.uleb128 0x38
 15506 534c 01       		.uleb128 0x1
 15507 534d 51       		.byte	0x51
 15508 534e 02       		.uleb128 0x2
 15509 534f 09       		.byte	0x9
 15510 5350 94       		.byte	0x94
 15511 5351 38       		.uleb128 0x38
 15512 5352 01       		.uleb128 0x1
 15513 5353 52       		.byte	0x52
 15514 5354 02       		.uleb128 0x2
 15515 5355 09       		.byte	0x9
 15516 5356 80       		.byte	0x80
 15517 5357 00       		.byte	0
 15518 5358 00       		.byte	0
 15519 5359 39       		.uleb128 0x39
 15520 535a 2E000000 		.4byte	.LVL150
 15521 535e 7F630000 		.4byte	0x637f
 15522 5362 72530000 		.4byte	0x5372
 15523 5366 38       		.uleb128 0x38
 15524 5367 01       		.uleb128 0x1
 15525 5368 50       		.byte	0x50
 15526 5369 02       		.uleb128 0x2
 15527 536a 08       		.byte	0x8
 15528 536b 6E       		.byte	0x6e
 15529 536c 38       		.uleb128 0x38
 15530 536d 01       		.uleb128 0x1
 15531 536e 51       		.byte	0x51
 15532 536f 01       		.uleb128 0x1
 15533 5370 38       		.byte	0x38
 15534 5371 00       		.byte	0
 15535 5372 39       		.uleb128 0x39
 15536 5373 3C000000 		.4byte	.LVL152
 15537 5377 7F630000 		.4byte	0x637f
 15538 537b 90530000 		.4byte	0x5390
 15539 537f 38       		.uleb128 0x38
 15540 5380 01       		.uleb128 0x1
 15541 5381 50       		.byte	0x50
 15542 5382 02       		.uleb128 0x2
 15543 5383 08       		.byte	0x8
 15544 5384 6E       		.byte	0x6e
 15545 5385 38       		.uleb128 0x38
 15546 5386 01       		.uleb128 0x1
 15547 5387 51       		.byte	0x51
 15548 5388 01       		.uleb128 0x1
 15549 5389 39       		.byte	0x39
 15550 538a 38       		.uleb128 0x38
 15551 538b 01       		.uleb128 0x1
 15552 538c 52       		.byte	0x52
 15553 538d 01       		.uleb128 0x1
 15554 538e 31       		.byte	0x31
 15555 538f 00       		.byte	0
 15556 5390 39       		.uleb128 0x39
 15557 5391 4A000000 		.4byte	.LVL154
 15558 5395 7F630000 		.4byte	0x637f
 15559 5399 A9530000 		.4byte	0x53a9
 15560 539d 38       		.uleb128 0x38
ARM GAS  C:\Users\mathi\AppData\Local\Temp\ccuMtzkg.s 			page 274


 15561 539e 01       		.uleb128 0x1
 15562 539f 50       		.byte	0x50
 15563 53a0 02       		.uleb128 0x2
 15564 53a1 08       		.byte	0x8
 15565 53a2 6E       		.byte	0x6e
 15566 53a3 38       		.uleb128 0x38
 15567 53a4 01       		.uleb128 0x1
 15568 53a5 51       		.byte	0x51
 15569 53a6 01       		.uleb128 0x1
 15570 53a7 3A       		.byte	0x3a
 15571 53a8 00       		.byte	0
 15572 53a9 39       		.uleb128 0x39
 15573 53aa 58000000 		.4byte	.LVL156
 15574 53ae 7F630000 		.4byte	0x637f
 15575 53b2 C7530000 		.4byte	0x53c7
 15576 53b6 38       		.uleb128 0x38
 15577 53b7 01       		.uleb128 0x1
 15578 53b8 50       		.byte	0x50
 15579 53b9 02       		.uleb128 0x2
 15580 53ba 08       		.byte	0x8
 15581 53bb 6E       		.byte	0x6e
 15582 53bc 38       		.uleb128 0x38
 15583 53bd 01       		.uleb128 0x1
 15584 53be 51       		.byte	0x51
 15585 53bf 01       		.uleb128 0x1
 15586 53c0 3B       		.byte	0x3b
 15587 53c1 38       		.uleb128 0x38
 15588 53c2 01       		.uleb128 0x1
 15589 53c3 52       		.byte	0x52
 15590 53c4 01       		.uleb128 0x1
 15591 53c5 31       		.byte	0x31
 15592 53c6 00       		.byte	0
 15593 53c7 30       		.uleb128 0x30
 15594 53c8 C4010000 		.4byte	.LVL204
 15595 53cc 76630000 		.4byte	0x6376
 15596 53d0 00       		.byte	0
 15597 53d1 50       		.uleb128 0x50
 15598 53d2 C6450000 		.4byte	0x45c6
 15599 53d6 00000000 		.4byte	.LFB263
 15600 53da D4030000 		.4byte	.LFE263-.LFB263
 15601 53de 01       		.uleb128 0x1
 15602 53df 9C       		.byte	0x9c
 15603 53e0 4C5B0000 		.4byte	0x5b4c
 15604 53e4 34       		.uleb128 0x34
 15605 53e5 D7450000 		.4byte	0x45d7
 15606 53e9 C6090000 		.4byte	.LLST18
 15607 53ed 43       		.uleb128 0x43
 15608 53ee C6450000 		.4byte	0x45c6
 15609 53f2 00000000 		.4byte	.Ldebug_ranges0+0
 15610 53f6 91570000 		.4byte	0x5791
 15611 53fa 34       		.uleb128 0x34
 15612 53fb D7450000 		.4byte	0x45d7
 15613 53ff 320A0000 		.4byte	.LLST19
 15614 5403 54       		.uleb128 0x54
 15615 5404 E4450000 		.4byte	0x45e4
 15616 5408 18000000 		.4byte	.LBB156
 15617 540c 20000000 		.4byte	.Ldebug_ranges0+0x20
ARM GAS  C:\Users\mathi\AppData\Local\Temp\ccuMtzkg.s 			page 275


 15618 5410 01       		.byte	0x1
 15619 5411 0102     		.2byte	0x201
 15620 5413 35       		.uleb128 0x35
 15621 5414 20000000 		.4byte	.Ldebug_ranges0+0x20
 15622 5418 36       		.uleb128 0x36
 15623 5419 53500000 		.4byte	0x5053
 15624 541d 3A       		.uleb128 0x3a
 15625 541e 63460000 		.4byte	0x4663
 15626 5422 18000000 		.4byte	.LBB158
 15627 5426 0A000000 		.4byte	.LBE158-.LBB158
 15628 542a 01       		.byte	0x1
 15629 542b 8F01     		.2byte	0x18f
 15630 542d 55540000 		.4byte	0x5455
 15631 5431 34       		.uleb128 0x34
 15632 5432 73460000 		.4byte	0x4673
 15633 5436 7A0A0000 		.4byte	.LLST20
 15634 543a 37       		.uleb128 0x37
 15635 543b 22000000 		.4byte	.LVL209
 15636 543f 7F630000 		.4byte	0x637f
 15637 5443 38       		.uleb128 0x38
 15638 5444 01       		.uleb128 0x1
 15639 5445 50       		.byte	0x50
 15640 5446 02       		.uleb128 0x2
 15641 5447 08       		.byte	0x8
 15642 5448 6E       		.byte	0x6e
 15643 5449 38       		.uleb128 0x38
 15644 544a 01       		.uleb128 0x1
 15645 544b 51       		.byte	0x51
 15646 544c 01       		.uleb128 0x1
 15647 544d 33       		.byte	0x33
 15648 544e 38       		.uleb128 0x38
 15649 544f 01       		.uleb128 0x1
 15650 5450 52       		.byte	0x52
 15651 5451 01       		.uleb128 0x1
 15652 5452 30       		.byte	0x30
 15653 5453 00       		.byte	0
 15654 5454 00       		.byte	0
 15655 5455 53       		.uleb128 0x53
 15656 5456 30020000 		.4byte	.LBB161
 15657 545a 7E010000 		.4byte	.LBE161-.LBB161
 15658 545e 24570000 		.4byte	0x5724
 15659 5462 36       		.uleb128 0x36
 15660 5463 53500000 		.4byte	0x5053
 15661 5467 3A       		.uleb128 0x3a
 15662 5468 63460000 		.4byte	0x4663
 15663 546c 70030000 		.4byte	.LBB162
 15664 5470 0A000000 		.4byte	.LBE162-.LBB162
 15665 5474 01       		.byte	0x1
 15666 5475 DE01     		.2byte	0x1de
 15667 5477 9F540000 		.4byte	0x549f
 15668 547b 34       		.uleb128 0x34
 15669 547c 73460000 		.4byte	0x4673
 15670 5480 8E0A0000 		.4byte	.LLST21
 15671 5484 37       		.uleb128 0x37
 15672 5485 7A030000 		.4byte	.LVL317
 15673 5489 7F630000 		.4byte	0x637f
 15674 548d 38       		.uleb128 0x38
ARM GAS  C:\Users\mathi\AppData\Local\Temp\ccuMtzkg.s 			page 276


 15675 548e 01       		.uleb128 0x1
 15676 548f 50       		.byte	0x50
 15677 5490 02       		.uleb128 0x2
 15678 5491 08       		.byte	0x8
 15679 5492 6E       		.byte	0x6e
 15680 5493 38       		.uleb128 0x38
 15681 5494 01       		.uleb128 0x1
 15682 5495 51       		.byte	0x51
 15683 5496 01       		.uleb128 0x1
 15684 5497 33       		.byte	0x33
 15685 5498 38       		.uleb128 0x38
 15686 5499 01       		.uleb128 0x1
 15687 549a 52       		.byte	0x52
 15688 549b 01       		.uleb128 0x1
 15689 549c 31       		.byte	0x31
 15690 549d 00       		.byte	0
 15691 549e 00       		.byte	0
 15692 549f 39       		.uleb128 0x39
 15693 54a0 3A020000 		.4byte	.LVL276
 15694 54a4 7F630000 		.4byte	0x637f
 15695 54a8 B8540000 		.4byte	0x54b8
 15696 54ac 38       		.uleb128 0x38
 15697 54ad 01       		.uleb128 0x1
 15698 54ae 50       		.byte	0x50
 15699 54af 02       		.uleb128 0x2
 15700 54b0 08       		.byte	0x8
 15701 54b1 6E       		.byte	0x6e
 15702 54b2 38       		.uleb128 0x38
 15703 54b3 01       		.uleb128 0x1
 15704 54b4 51       		.byte	0x51
 15705 54b5 01       		.uleb128 0x1
 15706 54b6 3C       		.byte	0x3c
 15707 54b7 00       		.byte	0
 15708 54b8 39       		.uleb128 0x39
 15709 54b9 4A020000 		.4byte	.LVL278
 15710 54bd 7F630000 		.4byte	0x637f
 15711 54c1 D7540000 		.4byte	0x54d7
 15712 54c5 38       		.uleb128 0x38
 15713 54c6 01       		.uleb128 0x1
 15714 54c7 50       		.byte	0x50
 15715 54c8 02       		.uleb128 0x2
 15716 54c9 08       		.byte	0x8
 15717 54ca 6E       		.byte	0x6e
 15718 54cb 38       		.uleb128 0x38
 15719 54cc 01       		.uleb128 0x1
 15720 54cd 51       		.byte	0x51
 15721 54ce 01       		.uleb128 0x1
 15722 54cf 3D       		.byte	0x3d
 15723 54d0 38       		.uleb128 0x38
 15724 54d1 01       		.uleb128 0x1
 15725 54d2 52       		.byte	0x52
 15726 54d3 02       		.uleb128 0x2
 15727 54d4 09       		.byte	0x9
 15728 54d5 A0       		.byte	0xa0
 15729 54d6 00       		.byte	0
 15730 54d7 39       		.uleb128 0x39
 15731 54d8 5A020000 		.4byte	.LVL280
ARM GAS  C:\Users\mathi\AppData\Local\Temp\ccuMtzkg.s 			page 277


 15732 54dc 7F630000 		.4byte	0x637f
 15733 54e0 F5540000 		.4byte	0x54f5
 15734 54e4 38       		.uleb128 0x38
 15735 54e5 01       		.uleb128 0x1
 15736 54e6 50       		.byte	0x50
 15737 54e7 02       		.uleb128 0x2
 15738 54e8 08       		.byte	0x8
 15739 54e9 6E       		.byte	0x6e
 15740 54ea 38       		.uleb128 0x38
 15741 54eb 01       		.uleb128 0x1
 15742 54ec 51       		.byte	0x51
 15743 54ed 01       		.uleb128 0x1
 15744 54ee 3E       		.byte	0x3e
 15745 54ef 38       		.uleb128 0x38
 15746 54f0 01       		.uleb128 0x1
 15747 54f1 52       		.byte	0x52
 15748 54f2 01       		.uleb128 0x1
 15749 54f3 30       		.byte	0x30
 15750 54f4 00       		.byte	0
 15751 54f5 39       		.uleb128 0x39
 15752 54f6 6A020000 		.4byte	.LVL282
 15753 54fa 7F630000 		.4byte	0x637f
 15754 54fe 14550000 		.4byte	0x5514
 15755 5502 38       		.uleb128 0x38
 15756 5503 01       		.uleb128 0x1
 15757 5504 50       		.byte	0x50
 15758 5505 02       		.uleb128 0x2
 15759 5506 08       		.byte	0x8
 15760 5507 6E       		.byte	0x6e
 15761 5508 38       		.uleb128 0x38
 15762 5509 01       		.uleb128 0x1
 15763 550a 51       		.byte	0x51
 15764 550b 01       		.uleb128 0x1
 15765 550c 3F       		.byte	0x3f
 15766 550d 38       		.uleb128 0x38
 15767 550e 01       		.uleb128 0x1
 15768 550f 52       		.byte	0x52
 15769 5510 02       		.uleb128 0x2
 15770 5511 08       		.byte	0x8
 15771 5512 78       		.byte	0x78
 15772 5513 00       		.byte	0
 15773 5514 39       		.uleb128 0x39
 15774 5515 7A020000 		.4byte	.LVL284
 15775 5519 7F630000 		.4byte	0x637f
 15776 551d 2E550000 		.4byte	0x552e
 15777 5521 38       		.uleb128 0x38
 15778 5522 01       		.uleb128 0x1
 15779 5523 50       		.byte	0x50
 15780 5524 02       		.uleb128 0x2
 15781 5525 08       		.byte	0x8
 15782 5526 6E       		.byte	0x6e
 15783 5527 38       		.uleb128 0x38
 15784 5528 01       		.uleb128 0x1
 15785 5529 51       		.byte	0x51
 15786 552a 02       		.uleb128 0x2
 15787 552b 08       		.byte	0x8
 15788 552c 35       		.byte	0x35
ARM GAS  C:\Users\mathi\AppData\Local\Temp\ccuMtzkg.s 			page 278


 15789 552d 00       		.byte	0
 15790 552e 39       		.uleb128 0x39
 15791 552f 8A020000 		.4byte	.LVL286
 15792 5533 7F630000 		.4byte	0x637f
 15793 5537 4D550000 		.4byte	0x554d
 15794 553b 38       		.uleb128 0x38
 15795 553c 01       		.uleb128 0x1
 15796 553d 50       		.byte	0x50
 15797 553e 02       		.uleb128 0x2
 15798 553f 08       		.byte	0x8
 15799 5540 6E       		.byte	0x6e
 15800 5541 38       		.uleb128 0x38
 15801 5542 01       		.uleb128 0x1
 15802 5543 51       		.byte	0x51
 15803 5544 02       		.uleb128 0x2
 15804 5545 08       		.byte	0x8
 15805 5546 36       		.byte	0x36
 15806 5547 38       		.uleb128 0x38
 15807 5548 01       		.uleb128 0x1
 15808 5549 52       		.byte	0x52
 15809 554a 01       		.uleb128 0x1
 15810 554b 31       		.byte	0x31
 15811 554c 00       		.byte	0
 15812 554d 39       		.uleb128 0x39
 15813 554e 9A020000 		.4byte	.LVL288
 15814 5552 7F630000 		.4byte	0x637f
 15815 5556 67550000 		.4byte	0x5567
 15816 555a 38       		.uleb128 0x38
 15817 555b 01       		.uleb128 0x1
 15818 555c 50       		.byte	0x50
 15819 555d 02       		.uleb128 0x2
 15820 555e 08       		.byte	0x8
 15821 555f 6E       		.byte	0x6e
 15822 5560 38       		.uleb128 0x38
 15823 5561 01       		.uleb128 0x1
 15824 5562 51       		.byte	0x51
 15825 5563 02       		.uleb128 0x2
 15826 5564 08       		.byte	0x8
 15827 5565 37       		.byte	0x37
 15828 5566 00       		.byte	0
 15829 5567 39       		.uleb128 0x39
 15830 5568 AA020000 		.4byte	.LVL290
 15831 556c 7F630000 		.4byte	0x637f
 15832 5570 87550000 		.4byte	0x5587
 15833 5574 38       		.uleb128 0x38
 15834 5575 01       		.uleb128 0x1
 15835 5576 50       		.byte	0x50
 15836 5577 02       		.uleb128 0x2
 15837 5578 08       		.byte	0x8
 15838 5579 6E       		.byte	0x6e
 15839 557a 38       		.uleb128 0x38
 15840 557b 01       		.uleb128 0x1
 15841 557c 51       		.byte	0x51
 15842 557d 02       		.uleb128 0x2
 15843 557e 08       		.byte	0x8
 15844 557f 38       		.byte	0x38
 15845 5580 38       		.uleb128 0x38
ARM GAS  C:\Users\mathi\AppData\Local\Temp\ccuMtzkg.s 			page 279


 15846 5581 01       		.uleb128 0x1
 15847 5582 52       		.byte	0x52
 15848 5583 02       		.uleb128 0x2
 15849 5584 09       		.byte	0x9
 15850 5585 A0       		.byte	0xa0
 15851 5586 00       		.byte	0
 15852 5587 39       		.uleb128 0x39
 15853 5588 BA020000 		.4byte	.LVL292
 15854 558c 7F630000 		.4byte	0x637f
 15855 5590 A1550000 		.4byte	0x55a1
 15856 5594 38       		.uleb128 0x38
 15857 5595 01       		.uleb128 0x1
 15858 5596 50       		.byte	0x50
 15859 5597 02       		.uleb128 0x2
 15860 5598 08       		.byte	0x8
 15861 5599 6E       		.byte	0x6e
 15862 559a 38       		.uleb128 0x38
 15863 559b 01       		.uleb128 0x1
 15864 559c 51       		.byte	0x51
 15865 559d 02       		.uleb128 0x2
 15866 559e 08       		.byte	0x8
 15867 559f 39       		.byte	0x39
 15868 55a0 00       		.byte	0
 15869 55a1 39       		.uleb128 0x39
 15870 55a2 CA020000 		.4byte	.LVL294
 15871 55a6 7F630000 		.4byte	0x637f
 15872 55aa C0550000 		.4byte	0x55c0
 15873 55ae 38       		.uleb128 0x38
 15874 55af 01       		.uleb128 0x1
 15875 55b0 50       		.byte	0x50
 15876 55b1 02       		.uleb128 0x2
 15877 55b2 08       		.byte	0x8
 15878 55b3 6E       		.byte	0x6e
 15879 55b4 38       		.uleb128 0x38
 15880 55b5 01       		.uleb128 0x1
 15881 55b6 51       		.byte	0x51
 15882 55b7 02       		.uleb128 0x2
 15883 55b8 08       		.byte	0x8
 15884 55b9 3A       		.byte	0x3a
 15885 55ba 38       		.uleb128 0x38
 15886 55bb 01       		.uleb128 0x1
 15887 55bc 52       		.byte	0x52
 15888 55bd 01       		.uleb128 0x1
 15889 55be 31       		.byte	0x31
 15890 55bf 00       		.byte	0
 15891 55c0 39       		.uleb128 0x39
 15892 55c1 DA020000 		.4byte	.LVL296
 15893 55c5 7F630000 		.4byte	0x637f
 15894 55c9 DA550000 		.4byte	0x55da
 15895 55cd 38       		.uleb128 0x38
 15896 55ce 01       		.uleb128 0x1
 15897 55cf 50       		.byte	0x50
 15898 55d0 02       		.uleb128 0x2
 15899 55d1 08       		.byte	0x8
 15900 55d2 6E       		.byte	0x6e
 15901 55d3 38       		.uleb128 0x38
 15902 55d4 01       		.uleb128 0x1
ARM GAS  C:\Users\mathi\AppData\Local\Temp\ccuMtzkg.s 			page 280


 15903 55d5 51       		.byte	0x51
 15904 55d6 02       		.uleb128 0x2
 15905 55d7 08       		.byte	0x8
 15906 55d8 3B       		.byte	0x3b
 15907 55d9 00       		.byte	0
 15908 55da 39       		.uleb128 0x39
 15909 55db EA020000 		.4byte	.LVL298
 15910 55df 7F630000 		.4byte	0x637f
 15911 55e3 FA550000 		.4byte	0x55fa
 15912 55e7 38       		.uleb128 0x38
 15913 55e8 01       		.uleb128 0x1
 15914 55e9 50       		.byte	0x50
 15915 55ea 02       		.uleb128 0x2
 15916 55eb 08       		.byte	0x8
 15917 55ec 6E       		.byte	0x6e
 15918 55ed 38       		.uleb128 0x38
 15919 55ee 01       		.uleb128 0x1
 15920 55ef 51       		.byte	0x51
 15921 55f0 02       		.uleb128 0x2
 15922 55f1 08       		.byte	0x8
 15923 55f2 3C       		.byte	0x3c
 15924 55f3 38       		.uleb128 0x38
 15925 55f4 01       		.uleb128 0x1
 15926 55f5 52       		.byte	0x52
 15927 55f6 02       		.uleb128 0x2
 15928 55f7 08       		.byte	0x8
 15929 55f8 78       		.byte	0x78
 15930 55f9 00       		.byte	0
 15931 55fa 39       		.uleb128 0x39
 15932 55fb FA020000 		.4byte	.LVL300
 15933 55ff 7F630000 		.4byte	0x637f
 15934 5603 19560000 		.4byte	0x5619
 15935 5607 38       		.uleb128 0x38
 15936 5608 01       		.uleb128 0x1
 15937 5609 50       		.byte	0x50
 15938 560a 02       		.uleb128 0x2
 15939 560b 08       		.byte	0x8
 15940 560c 6E       		.byte	0x6e
 15941 560d 38       		.uleb128 0x38
 15942 560e 01       		.uleb128 0x1
 15943 560f 51       		.byte	0x51
 15944 5610 02       		.uleb128 0x2
 15945 5611 08       		.byte	0x8
 15946 5612 3D       		.byte	0x3d
 15947 5613 38       		.uleb128 0x38
 15948 5614 01       		.uleb128 0x1
 15949 5615 52       		.byte	0x52
 15950 5616 01       		.uleb128 0x1
 15951 5617 30       		.byte	0x30
 15952 5618 00       		.byte	0
 15953 5619 39       		.uleb128 0x39
 15954 561a 0A030000 		.4byte	.LVL302
 15955 561e 7F630000 		.4byte	0x637f
 15956 5622 39560000 		.4byte	0x5639
 15957 5626 38       		.uleb128 0x38
 15958 5627 01       		.uleb128 0x1
 15959 5628 50       		.byte	0x50
ARM GAS  C:\Users\mathi\AppData\Local\Temp\ccuMtzkg.s 			page 281


 15960 5629 02       		.uleb128 0x2
 15961 562a 08       		.byte	0x8
 15962 562b 6E       		.byte	0x6e
 15963 562c 38       		.uleb128 0x38
 15964 562d 01       		.uleb128 0x1
 15965 562e 51       		.byte	0x51
 15966 562f 02       		.uleb128 0x2
 15967 5630 08       		.byte	0x8
 15968 5631 3E       		.byte	0x3e
 15969 5632 38       		.uleb128 0x38
 15970 5633 01       		.uleb128 0x1
 15971 5634 52       		.byte	0x52
 15972 5635 02       		.uleb128 0x2
 15973 5636 08       		.byte	0x8
 15974 5637 36       		.byte	0x36
 15975 5638 00       		.byte	0
 15976 5639 39       		.uleb128 0x39
 15977 563a 1A030000 		.4byte	.LVL304
 15978 563e 7F630000 		.4byte	0x637f
 15979 5642 53560000 		.4byte	0x5653
 15980 5646 38       		.uleb128 0x38
 15981 5647 01       		.uleb128 0x1
 15982 5648 50       		.byte	0x50
 15983 5649 02       		.uleb128 0x2
 15984 564a 08       		.byte	0x8
 15985 564b 6E       		.byte	0x6e
 15986 564c 38       		.uleb128 0x38
 15987 564d 01       		.uleb128 0x1
 15988 564e 51       		.byte	0x51
 15989 564f 02       		.uleb128 0x2
 15990 5650 08       		.byte	0x8
 15991 5651 3F       		.byte	0x3f
 15992 5652 00       		.byte	0
 15993 5653 39       		.uleb128 0x39
 15994 5654 2A030000 		.4byte	.LVL306
 15995 5658 7F630000 		.4byte	0x637f
 15996 565c 73560000 		.4byte	0x5673
 15997 5660 38       		.uleb128 0x38
 15998 5661 01       		.uleb128 0x1
 15999 5662 50       		.byte	0x50
 16000 5663 02       		.uleb128 0x2
 16001 5664 08       		.byte	0x8
 16002 5665 6E       		.byte	0x6e
 16003 5666 38       		.uleb128 0x38
 16004 5667 01       		.uleb128 0x1
 16005 5668 51       		.byte	0x51
 16006 5669 02       		.uleb128 0x2
 16007 566a 08       		.byte	0x8
 16008 566b 40       		.byte	0x40
 16009 566c 38       		.uleb128 0x38
 16010 566d 01       		.uleb128 0x1
 16011 566e 52       		.byte	0x52
 16012 566f 02       		.uleb128 0x2
 16013 5670 08       		.byte	0x8
 16014 5671 6B       		.byte	0x6b
 16015 5672 00       		.byte	0
 16016 5673 39       		.uleb128 0x39
ARM GAS  C:\Users\mathi\AppData\Local\Temp\ccuMtzkg.s 			page 282


 16017 5674 3A030000 		.4byte	.LVL308
 16018 5678 7F630000 		.4byte	0x637f
 16019 567c 8D560000 		.4byte	0x568d
 16020 5680 38       		.uleb128 0x38
 16021 5681 01       		.uleb128 0x1
 16022 5682 50       		.byte	0x50
 16023 5683 02       		.uleb128 0x2
 16024 5684 08       		.byte	0x8
 16025 5685 6E       		.byte	0x6e
 16026 5686 38       		.uleb128 0x38
 16027 5687 01       		.uleb128 0x1
 16028 5688 51       		.byte	0x51
 16029 5689 02       		.uleb128 0x2
 16030 568a 08       		.byte	0x8
 16031 568b 41       		.byte	0x41
 16032 568c 00       		.byte	0
 16033 568d 39       		.uleb128 0x39
 16034 568e 4A030000 		.4byte	.LVL310
 16035 5692 7F630000 		.4byte	0x637f
 16036 5696 AD560000 		.4byte	0x56ad
 16037 569a 38       		.uleb128 0x38
 16038 569b 01       		.uleb128 0x1
 16039 569c 50       		.byte	0x50
 16040 569d 02       		.uleb128 0x2
 16041 569e 08       		.byte	0x8
 16042 569f 6E       		.byte	0x6e
 16043 56a0 38       		.uleb128 0x38
 16044 56a1 01       		.uleb128 0x1
 16045 56a2 51       		.byte	0x51
 16046 56a3 02       		.uleb128 0x2
 16047 56a4 08       		.byte	0x8
 16048 56a5 42       		.byte	0x42
 16049 56a6 38       		.uleb128 0x38
 16050 56a7 01       		.uleb128 0x1
 16051 56a8 52       		.byte	0x52
 16052 56a9 02       		.uleb128 0x2
 16053 56aa 08       		.byte	0x8
 16054 56ab 29       		.byte	0x29
 16055 56ac 00       		.byte	0
 16056 56ad 39       		.uleb128 0x39
 16057 56ae 5A030000 		.4byte	.LVL312
 16058 56b2 7F630000 		.4byte	0x637f
 16059 56b6 C7560000 		.4byte	0x56c7
 16060 56ba 38       		.uleb128 0x38
 16061 56bb 01       		.uleb128 0x1
 16062 56bc 50       		.byte	0x50
 16063 56bd 02       		.uleb128 0x2
 16064 56be 08       		.byte	0x8
 16065 56bf 6E       		.byte	0x6e
 16066 56c0 38       		.uleb128 0x38
 16067 56c1 01       		.uleb128 0x1
 16068 56c2 51       		.byte	0x51
 16069 56c3 02       		.uleb128 0x2
 16070 56c4 08       		.byte	0x8
 16071 56c5 43       		.byte	0x43
 16072 56c6 00       		.byte	0
 16073 56c7 39       		.uleb128 0x39
ARM GAS  C:\Users\mathi\AppData\Local\Temp\ccuMtzkg.s 			page 283


 16074 56c8 6A030000 		.4byte	.LVL314
 16075 56cc 7F630000 		.4byte	0x637f
 16076 56d0 E7560000 		.4byte	0x56e7
 16077 56d4 38       		.uleb128 0x38
 16078 56d5 01       		.uleb128 0x1
 16079 56d6 50       		.byte	0x50
 16080 56d7 02       		.uleb128 0x2
 16081 56d8 08       		.byte	0x8
 16082 56d9 6E       		.byte	0x6e
 16083 56da 38       		.uleb128 0x38
 16084 56db 01       		.uleb128 0x1
 16085 56dc 51       		.byte	0x51
 16086 56dd 02       		.uleb128 0x2
 16087 56de 08       		.byte	0x8
 16088 56df 44       		.byte	0x44
 16089 56e0 38       		.uleb128 0x38
 16090 56e1 01       		.uleb128 0x1
 16091 56e2 52       		.byte	0x52
 16092 56e3 02       		.uleb128 0x2
 16093 56e4 08       		.byte	0x8
 16094 56e5 50       		.byte	0x50
 16095 56e6 00       		.byte	0
 16096 56e7 39       		.uleb128 0x39
 16097 56e8 8A030000 		.4byte	.LVL318
 16098 56ec 7F630000 		.4byte	0x637f
 16099 56f0 07570000 		.4byte	0x5707
 16100 56f4 38       		.uleb128 0x38
 16101 56f5 01       		.uleb128 0x1
 16102 56f6 50       		.byte	0x50
 16103 56f7 02       		.uleb128 0x2
 16104 56f8 08       		.byte	0x8
 16105 56f9 6E       		.byte	0x6e
 16106 56fa 38       		.uleb128 0x38
 16107 56fb 01       		.uleb128 0x1
 16108 56fc 51       		.byte	0x51
 16109 56fd 02       		.uleb128 0x2
 16110 56fe 09       		.byte	0x9
 16111 56ff 93       		.byte	0x93
 16112 5700 38       		.uleb128 0x38
 16113 5701 01       		.uleb128 0x1
 16114 5702 52       		.byte	0x52
 16115 5703 02       		.uleb128 0x2
 16116 5704 09       		.byte	0x9
 16117 5705 80       		.byte	0x80
 16118 5706 00       		.byte	0
 16119 5707 37       		.uleb128 0x37
 16120 5708 9A030000 		.4byte	.LVL320
 16121 570c 7F630000 		.4byte	0x637f
 16122 5710 38       		.uleb128 0x38
 16123 5711 01       		.uleb128 0x1
 16124 5712 50       		.byte	0x50
 16125 5713 02       		.uleb128 0x2
 16126 5714 08       		.byte	0x8
 16127 5715 6E       		.byte	0x6e
 16128 5716 38       		.uleb128 0x38
 16129 5717 01       		.uleb128 0x1
 16130 5718 51       		.byte	0x51
ARM GAS  C:\Users\mathi\AppData\Local\Temp\ccuMtzkg.s 			page 284


 16131 5719 02       		.uleb128 0x2
 16132 571a 09       		.byte	0x9
 16133 571b 94       		.byte	0x94
 16134 571c 38       		.uleb128 0x38
 16135 571d 01       		.uleb128 0x1
 16136 571e 52       		.byte	0x52
 16137 571f 02       		.uleb128 0x2
 16138 5720 09       		.byte	0x9
 16139 5721 80       		.byte	0x80
 16140 5722 00       		.byte	0
 16141 5723 00       		.byte	0
 16142 5724 39       		.uleb128 0x39
 16143 5725 FA010000 		.4byte	.LVL268
 16144 5729 7F630000 		.4byte	0x637f
 16145 572d 3D570000 		.4byte	0x573d
 16146 5731 38       		.uleb128 0x38
 16147 5732 01       		.uleb128 0x1
 16148 5733 50       		.byte	0x50
 16149 5734 02       		.uleb128 0x2
 16150 5735 08       		.byte	0x8
 16151 5736 6E       		.byte	0x6e
 16152 5737 38       		.uleb128 0x38
 16153 5738 01       		.uleb128 0x1
 16154 5739 51       		.byte	0x51
 16155 573a 01       		.uleb128 0x1
 16156 573b 38       		.byte	0x38
 16157 573c 00       		.byte	0
 16158 573d 39       		.uleb128 0x39
 16159 573e 0A020000 		.4byte	.LVL270
 16160 5742 7F630000 		.4byte	0x637f
 16161 5746 5B570000 		.4byte	0x575b
 16162 574a 38       		.uleb128 0x38
 16163 574b 01       		.uleb128 0x1
 16164 574c 50       		.byte	0x50
 16165 574d 02       		.uleb128 0x2
 16166 574e 08       		.byte	0x8
 16167 574f 6E       		.byte	0x6e
 16168 5750 38       		.uleb128 0x38
 16169 5751 01       		.uleb128 0x1
 16170 5752 51       		.byte	0x51
 16171 5753 01       		.uleb128 0x1
 16172 5754 39       		.byte	0x39
 16173 5755 38       		.uleb128 0x38
 16174 5756 01       		.uleb128 0x1
 16175 5757 52       		.byte	0x52
 16176 5758 01       		.uleb128 0x1
 16177 5759 31       		.byte	0x31
 16178 575a 00       		.byte	0
 16179 575b 39       		.uleb128 0x39
 16180 575c 1A020000 		.4byte	.LVL272
 16181 5760 7F630000 		.4byte	0x637f
 16182 5764 74570000 		.4byte	0x5774
 16183 5768 38       		.uleb128 0x38
 16184 5769 01       		.uleb128 0x1
 16185 576a 50       		.byte	0x50
 16186 576b 02       		.uleb128 0x2
 16187 576c 08       		.byte	0x8
ARM GAS  C:\Users\mathi\AppData\Local\Temp\ccuMtzkg.s 			page 285


 16188 576d 6E       		.byte	0x6e
 16189 576e 38       		.uleb128 0x38
 16190 576f 01       		.uleb128 0x1
 16191 5770 51       		.byte	0x51
 16192 5771 01       		.uleb128 0x1
 16193 5772 3A       		.byte	0x3a
 16194 5773 00       		.byte	0
 16195 5774 37       		.uleb128 0x37
 16196 5775 2A020000 		.4byte	.LVL274
 16197 5779 7F630000 		.4byte	0x637f
 16198 577d 38       		.uleb128 0x38
 16199 577e 01       		.uleb128 0x1
 16200 577f 50       		.byte	0x50
 16201 5780 02       		.uleb128 0x2
 16202 5781 08       		.byte	0x8
 16203 5782 6E       		.byte	0x6e
 16204 5783 38       		.uleb128 0x38
 16205 5784 01       		.uleb128 0x1
 16206 5785 51       		.byte	0x51
 16207 5786 01       		.uleb128 0x1
 16208 5787 3B       		.byte	0x3b
 16209 5788 38       		.uleb128 0x38
 16210 5789 01       		.uleb128 0x1
 16211 578a 52       		.byte	0x52
 16212 578b 01       		.uleb128 0x1
 16213 578c 31       		.byte	0x31
 16214 578d 00       		.byte	0
 16215 578e 00       		.byte	0
 16216 578f 00       		.byte	0
 16217 5790 00       		.byte	0
 16218 5791 3A       		.uleb128 0x3a
 16219 5792 20460000 		.4byte	0x4620
 16220 5796 36000000 		.4byte	.LBB168
 16221 579a BA010000 		.4byte	.LBE168-.LBB168
 16222 579e 01       		.byte	0x1
 16223 579f FD01     		.2byte	0x1fd
 16224 57a1 395B0000 		.4byte	0x5b39
 16225 57a5 52       		.uleb128 0x52
 16226 57a6 36000000 		.4byte	.LBB169
 16227 57aa BA010000 		.4byte	.LBE169-.LBB169
 16228 57ae 36       		.uleb128 0x36
 16229 57af 0A490000 		.4byte	0x490a
 16230 57b3 48       		.uleb128 0x48
 16231 57b4 63460000 		.4byte	0x4663
 16232 57b8 36000000 		.4byte	.LBB170
 16233 57bc 0A000000 		.4byte	.LBE170-.LBB170
 16234 57c0 01       		.byte	0x1
 16235 57c1 B5       		.byte	0xb5
 16236 57c2 E5570000 		.4byte	0x57e5
 16237 57c6 34       		.uleb128 0x34
 16238 57c7 73460000 		.4byte	0x4673
 16239 57cb A20A0000 		.4byte	.LLST22
 16240 57cf 37       		.uleb128 0x37
 16241 57d0 40000000 		.4byte	.LVL213
 16242 57d4 7F630000 		.4byte	0x637f
 16243 57d8 38       		.uleb128 0x38
 16244 57d9 01       		.uleb128 0x1
ARM GAS  C:\Users\mathi\AppData\Local\Temp\ccuMtzkg.s 			page 286


 16245 57da 50       		.byte	0x50
 16246 57db 02       		.uleb128 0x2
 16247 57dc 08       		.byte	0x8
 16248 57dd 6E       		.byte	0x6e
 16249 57de 38       		.uleb128 0x38
 16250 57df 01       		.uleb128 0x1
 16251 57e0 51       		.byte	0x51
 16252 57e1 01       		.uleb128 0x1
 16253 57e2 33       		.byte	0x33
 16254 57e3 00       		.byte	0
 16255 57e4 00       		.byte	0
 16256 57e5 53       		.uleb128 0x53
 16257 57e6 7C000000 		.4byte	.LBB173
 16258 57ea 74010000 		.4byte	.LBE173-.LBB173
 16259 57ee CD5A0000 		.4byte	0x5acd
 16260 57f2 36       		.uleb128 0x36
 16261 57f3 0A490000 		.4byte	0x490a
 16262 57f7 3A       		.uleb128 0x3a
 16263 57f8 63460000 		.4byte	0x4663
 16264 57fc A4010000 		.4byte	.LBB174
 16265 5800 0A000000 		.4byte	.LBE174-.LBB174
 16266 5804 01       		.byte	0x1
 16267 5805 0401     		.2byte	0x104
 16268 5807 2F580000 		.4byte	0x582f
 16269 580b 34       		.uleb128 0x34
 16270 580c 73460000 		.4byte	0x4673
 16271 5810 B60A0000 		.4byte	.LLST23
 16272 5814 37       		.uleb128 0x37
 16273 5815 AE010000 		.4byte	.LVL263
 16274 5819 7F630000 		.4byte	0x637f
 16275 581d 38       		.uleb128 0x38
 16276 581e 01       		.uleb128 0x1
 16277 581f 50       		.byte	0x50
 16278 5820 02       		.uleb128 0x2
 16279 5821 08       		.byte	0x8
 16280 5822 6E       		.byte	0x6e
 16281 5823 38       		.uleb128 0x38
 16282 5824 01       		.uleb128 0x1
 16283 5825 51       		.byte	0x51
 16284 5826 01       		.uleb128 0x1
 16285 5827 33       		.byte	0x33
 16286 5828 38       		.uleb128 0x38
 16287 5829 01       		.uleb128 0x1
 16288 582a 52       		.byte	0x52
 16289 582b 01       		.uleb128 0x1
 16290 582c 31       		.byte	0x31
 16291 582d 00       		.byte	0
 16292 582e 00       		.byte	0
 16293 582f 39       		.uleb128 0x39
 16294 5830 86000000 		.4byte	.LVL222
 16295 5834 7F630000 		.4byte	0x637f
 16296 5838 4D580000 		.4byte	0x584d
 16297 583c 38       		.uleb128 0x38
 16298 583d 01       		.uleb128 0x1
 16299 583e 50       		.byte	0x50
 16300 583f 02       		.uleb128 0x2
 16301 5840 08       		.byte	0x8
ARM GAS  C:\Users\mathi\AppData\Local\Temp\ccuMtzkg.s 			page 287


 16302 5841 6E       		.byte	0x6e
 16303 5842 38       		.uleb128 0x38
 16304 5843 01       		.uleb128 0x1
 16305 5844 51       		.byte	0x51
 16306 5845 01       		.uleb128 0x1
 16307 5846 3C       		.byte	0x3c
 16308 5847 38       		.uleb128 0x38
 16309 5848 01       		.uleb128 0x1
 16310 5849 52       		.byte	0x52
 16311 584a 01       		.uleb128 0x1
 16312 584b 32       		.byte	0x32
 16313 584c 00       		.byte	0
 16314 584d 39       		.uleb128 0x39
 16315 584e 94000000 		.4byte	.LVL224
 16316 5852 7F630000 		.4byte	0x637f
 16317 5856 6C580000 		.4byte	0x586c
 16318 585a 38       		.uleb128 0x38
 16319 585b 01       		.uleb128 0x1
 16320 585c 50       		.byte	0x50
 16321 585d 02       		.uleb128 0x2
 16322 585e 08       		.byte	0x8
 16323 585f 6E       		.byte	0x6e
 16324 5860 38       		.uleb128 0x38
 16325 5861 01       		.uleb128 0x1
 16326 5862 51       		.byte	0x51
 16327 5863 01       		.uleb128 0x1
 16328 5864 3D       		.byte	0x3d
 16329 5865 38       		.uleb128 0x38
 16330 5866 01       		.uleb128 0x1
 16331 5867 52       		.byte	0x52
 16332 5868 02       		.uleb128 0x2
 16333 5869 09       		.byte	0x9
 16334 586a 80       		.byte	0x80
 16335 586b 00       		.byte	0
 16336 586c 39       		.uleb128 0x39
 16337 586d A2000000 		.4byte	.LVL226
 16338 5871 7F630000 		.4byte	0x637f
 16339 5875 8A580000 		.4byte	0x588a
 16340 5879 38       		.uleb128 0x38
 16341 587a 01       		.uleb128 0x1
 16342 587b 50       		.byte	0x50
 16343 587c 02       		.uleb128 0x2
 16344 587d 08       		.byte	0x8
 16345 587e 6E       		.byte	0x6e
 16346 587f 38       		.uleb128 0x38
 16347 5880 01       		.uleb128 0x1
 16348 5881 51       		.byte	0x51
 16349 5882 01       		.uleb128 0x1
 16350 5883 3E       		.byte	0x3e
 16351 5884 38       		.uleb128 0x38
 16352 5885 01       		.uleb128 0x1
 16353 5886 52       		.byte	0x52
 16354 5887 01       		.uleb128 0x1
 16355 5888 31       		.byte	0x31
 16356 5889 00       		.byte	0
 16357 588a 39       		.uleb128 0x39
 16358 588b B0000000 		.4byte	.LVL228
ARM GAS  C:\Users\mathi\AppData\Local\Temp\ccuMtzkg.s 			page 288


 16359 588f 7F630000 		.4byte	0x637f
 16360 5893 A9580000 		.4byte	0x58a9
 16361 5897 38       		.uleb128 0x38
 16362 5898 01       		.uleb128 0x1
 16363 5899 50       		.byte	0x50
 16364 589a 02       		.uleb128 0x2
 16365 589b 08       		.byte	0x8
 16366 589c 6E       		.byte	0x6e
 16367 589d 38       		.uleb128 0x38
 16368 589e 01       		.uleb128 0x1
 16369 589f 51       		.byte	0x51
 16370 58a0 01       		.uleb128 0x1
 16371 58a1 3F       		.byte	0x3f
 16372 58a2 38       		.uleb128 0x38
 16373 58a3 01       		.uleb128 0x1
 16374 58a4 52       		.byte	0x52
 16375 58a5 02       		.uleb128 0x2
 16376 58a6 09       		.byte	0x9
 16377 58a7 E0       		.byte	0xe0
 16378 58a8 00       		.byte	0
 16379 58a9 39       		.uleb128 0x39
 16380 58aa BE000000 		.4byte	.LVL230
 16381 58ae 7F630000 		.4byte	0x637f
 16382 58b2 C8580000 		.4byte	0x58c8
 16383 58b6 38       		.uleb128 0x38
 16384 58b7 01       		.uleb128 0x1
 16385 58b8 50       		.byte	0x50
 16386 58b9 02       		.uleb128 0x2
 16387 58ba 08       		.byte	0x8
 16388 58bb 6E       		.byte	0x6e
 16389 58bc 38       		.uleb128 0x38
 16390 58bd 01       		.uleb128 0x1
 16391 58be 51       		.byte	0x51
 16392 58bf 02       		.uleb128 0x2
 16393 58c0 08       		.byte	0x8
 16394 58c1 35       		.byte	0x35
 16395 58c2 38       		.uleb128 0x38
 16396 58c3 01       		.uleb128 0x1
 16397 58c4 52       		.byte	0x52
 16398 58c5 01       		.uleb128 0x1
 16399 58c6 30       		.byte	0x30
 16400 58c7 00       		.byte	0
 16401 58c8 39       		.uleb128 0x39
 16402 58c9 CC000000 		.4byte	.LVL232
 16403 58cd 7F630000 		.4byte	0x637f
 16404 58d1 E7580000 		.4byte	0x58e7
 16405 58d5 38       		.uleb128 0x38
 16406 58d6 01       		.uleb128 0x1
 16407 58d7 50       		.byte	0x50
 16408 58d8 02       		.uleb128 0x2
 16409 58d9 08       		.byte	0x8
 16410 58da 6E       		.byte	0x6e
 16411 58db 38       		.uleb128 0x38
 16412 58dc 01       		.uleb128 0x1
 16413 58dd 51       		.byte	0x51
 16414 58de 02       		.uleb128 0x2
 16415 58df 08       		.byte	0x8
ARM GAS  C:\Users\mathi\AppData\Local\Temp\ccuMtzkg.s 			page 289


 16416 58e0 36       		.byte	0x36
 16417 58e1 38       		.uleb128 0x38
 16418 58e2 01       		.uleb128 0x1
 16419 58e3 52       		.byte	0x52
 16420 58e4 01       		.uleb128 0x1
 16421 58e5 31       		.byte	0x31
 16422 58e6 00       		.byte	0
 16423 58e7 39       		.uleb128 0x39
 16424 58e8 DA000000 		.4byte	.LVL234
 16425 58ec 7F630000 		.4byte	0x637f
 16426 58f0 06590000 		.4byte	0x5906
 16427 58f4 38       		.uleb128 0x38
 16428 58f5 01       		.uleb128 0x1
 16429 58f6 50       		.byte	0x50
 16430 58f7 02       		.uleb128 0x2
 16431 58f8 08       		.byte	0x8
 16432 58f9 6E       		.byte	0x6e
 16433 58fa 38       		.uleb128 0x38
 16434 58fb 01       		.uleb128 0x1
 16435 58fc 51       		.byte	0x51
 16436 58fd 02       		.uleb128 0x2
 16437 58fe 08       		.byte	0x8
 16438 58ff 37       		.byte	0x37
 16439 5900 38       		.uleb128 0x38
 16440 5901 01       		.uleb128 0x1
 16441 5902 52       		.byte	0x52
 16442 5903 01       		.uleb128 0x1
 16443 5904 32       		.byte	0x32
 16444 5905 00       		.byte	0
 16445 5906 39       		.uleb128 0x39
 16446 5907 E8000000 		.4byte	.LVL236
 16447 590b 7F630000 		.4byte	0x637f
 16448 590f 26590000 		.4byte	0x5926
 16449 5913 38       		.uleb128 0x38
 16450 5914 01       		.uleb128 0x1
 16451 5915 50       		.byte	0x50
 16452 5916 02       		.uleb128 0x2
 16453 5917 08       		.byte	0x8
 16454 5918 6E       		.byte	0x6e
 16455 5919 38       		.uleb128 0x38
 16456 591a 01       		.uleb128 0x1
 16457 591b 51       		.byte	0x51
 16458 591c 02       		.uleb128 0x2
 16459 591d 08       		.byte	0x8
 16460 591e 38       		.byte	0x38
 16461 591f 38       		.uleb128 0x38
 16462 5920 01       		.uleb128 0x1
 16463 5921 52       		.byte	0x52
 16464 5922 02       		.uleb128 0x2
 16465 5923 09       		.byte	0x9
 16466 5924 80       		.byte	0x80
 16467 5925 00       		.byte	0
 16468 5926 39       		.uleb128 0x39
 16469 5927 F6000000 		.4byte	.LVL238
 16470 592b 7F630000 		.4byte	0x637f
 16471 592f 40590000 		.4byte	0x5940
 16472 5933 38       		.uleb128 0x38
ARM GAS  C:\Users\mathi\AppData\Local\Temp\ccuMtzkg.s 			page 290


 16473 5934 01       		.uleb128 0x1
 16474 5935 50       		.byte	0x50
 16475 5936 02       		.uleb128 0x2
 16476 5937 08       		.byte	0x8
 16477 5938 6E       		.byte	0x6e
 16478 5939 38       		.uleb128 0x38
 16479 593a 01       		.uleb128 0x1
 16480 593b 51       		.byte	0x51
 16481 593c 02       		.uleb128 0x2
 16482 593d 08       		.byte	0x8
 16483 593e 39       		.byte	0x39
 16484 593f 00       		.byte	0
 16485 5940 39       		.uleb128 0x39
 16486 5941 04010000 		.4byte	.LVL240
 16487 5945 7F630000 		.4byte	0x637f
 16488 5949 5F590000 		.4byte	0x595f
 16489 594d 38       		.uleb128 0x38
 16490 594e 01       		.uleb128 0x1
 16491 594f 50       		.byte	0x50
 16492 5950 02       		.uleb128 0x2
 16493 5951 08       		.byte	0x8
 16494 5952 6E       		.byte	0x6e
 16495 5953 38       		.uleb128 0x38
 16496 5954 01       		.uleb128 0x1
 16497 5955 51       		.byte	0x51
 16498 5956 02       		.uleb128 0x2
 16499 5957 08       		.byte	0x8
 16500 5958 3A       		.byte	0x3a
 16501 5959 38       		.uleb128 0x38
 16502 595a 01       		.uleb128 0x1
 16503 595b 52       		.byte	0x52
 16504 595c 01       		.uleb128 0x1
 16505 595d 31       		.byte	0x31
 16506 595e 00       		.byte	0
 16507 595f 39       		.uleb128 0x39
 16508 5960 12010000 		.4byte	.LVL242
 16509 5964 7F630000 		.4byte	0x637f
 16510 5968 7E590000 		.4byte	0x597e
 16511 596c 38       		.uleb128 0x38
 16512 596d 01       		.uleb128 0x1
 16513 596e 50       		.byte	0x50
 16514 596f 02       		.uleb128 0x2
 16515 5970 08       		.byte	0x8
 16516 5971 6E       		.byte	0x6e
 16517 5972 38       		.uleb128 0x38
 16518 5973 01       		.uleb128 0x1
 16519 5974 51       		.byte	0x51
 16520 5975 02       		.uleb128 0x2
 16521 5976 08       		.byte	0x8
 16522 5977 3B       		.byte	0x3b
 16523 5978 38       		.uleb128 0x38
 16524 5979 01       		.uleb128 0x1
 16525 597a 52       		.byte	0x52
 16526 597b 01       		.uleb128 0x1
 16527 597c 31       		.byte	0x31
 16528 597d 00       		.byte	0
 16529 597e 39       		.uleb128 0x39
ARM GAS  C:\Users\mathi\AppData\Local\Temp\ccuMtzkg.s 			page 291


 16530 597f 20010000 		.4byte	.LVL244
 16531 5983 7F630000 		.4byte	0x637f
 16532 5987 9E590000 		.4byte	0x599e
 16533 598b 38       		.uleb128 0x38
 16534 598c 01       		.uleb128 0x1
 16535 598d 50       		.byte	0x50
 16536 598e 02       		.uleb128 0x2
 16537 598f 08       		.byte	0x8
 16538 5990 6E       		.byte	0x6e
 16539 5991 38       		.uleb128 0x38
 16540 5992 01       		.uleb128 0x1
 16541 5993 51       		.byte	0x51
 16542 5994 02       		.uleb128 0x2
 16543 5995 08       		.byte	0x8
 16544 5996 3C       		.byte	0x3c
 16545 5997 38       		.uleb128 0x38
 16546 5998 01       		.uleb128 0x1
 16547 5999 52       		.byte	0x52
 16548 599a 02       		.uleb128 0x2
 16549 599b 09       		.byte	0x9
 16550 599c E0       		.byte	0xe0
 16551 599d 00       		.byte	0
 16552 599e 39       		.uleb128 0x39
 16553 599f 2E010000 		.4byte	.LVL246
 16554 59a3 7F630000 		.4byte	0x637f
 16555 59a7 B8590000 		.4byte	0x59b8
 16556 59ab 38       		.uleb128 0x38
 16557 59ac 01       		.uleb128 0x1
 16558 59ad 50       		.byte	0x50
 16559 59ae 02       		.uleb128 0x2
 16560 59af 08       		.byte	0x8
 16561 59b0 6E       		.byte	0x6e
 16562 59b1 38       		.uleb128 0x38
 16563 59b2 01       		.uleb128 0x1
 16564 59b3 51       		.byte	0x51
 16565 59b4 02       		.uleb128 0x2
 16566 59b5 08       		.byte	0x8
 16567 59b6 3D       		.byte	0x3d
 16568 59b7 00       		.byte	0
 16569 59b8 39       		.uleb128 0x39
 16570 59b9 3E010000 		.4byte	.LVL248
 16571 59bd 7F630000 		.4byte	0x637f
 16572 59c1 D8590000 		.4byte	0x59d8
 16573 59c5 38       		.uleb128 0x38
 16574 59c6 01       		.uleb128 0x1
 16575 59c7 50       		.byte	0x50
 16576 59c8 02       		.uleb128 0x2
 16577 59c9 08       		.byte	0x8
 16578 59ca 6E       		.byte	0x6e
 16579 59cb 38       		.uleb128 0x38
 16580 59cc 01       		.uleb128 0x1
 16581 59cd 51       		.byte	0x51
 16582 59ce 02       		.uleb128 0x2
 16583 59cf 08       		.byte	0x8
 16584 59d0 3E       		.byte	0x3e
 16585 59d1 38       		.uleb128 0x38
 16586 59d2 01       		.uleb128 0x1
ARM GAS  C:\Users\mathi\AppData\Local\Temp\ccuMtzkg.s 			page 292


 16587 59d3 52       		.byte	0x52
 16588 59d4 02       		.uleb128 0x2
 16589 59d5 09       		.byte	0x9
 16590 59d6 D6       		.byte	0xd6
 16591 59d7 00       		.byte	0
 16592 59d8 39       		.uleb128 0x39
 16593 59d9 4E010000 		.4byte	.LVL250
 16594 59dd 7F630000 		.4byte	0x637f
 16595 59e1 F7590000 		.4byte	0x59f7
 16596 59e5 38       		.uleb128 0x38
 16597 59e6 01       		.uleb128 0x1
 16598 59e7 50       		.byte	0x50
 16599 59e8 02       		.uleb128 0x2
 16600 59e9 08       		.byte	0x8
 16601 59ea 6E       		.byte	0x6e
 16602 59eb 38       		.uleb128 0x38
 16603 59ec 01       		.uleb128 0x1
 16604 59ed 51       		.byte	0x51
 16605 59ee 02       		.uleb128 0x2
 16606 59ef 08       		.byte	0x8
 16607 59f0 3F       		.byte	0x3f
 16608 59f1 38       		.uleb128 0x38
 16609 59f2 01       		.uleb128 0x1
 16610 59f3 52       		.byte	0x52
 16611 59f4 01       		.uleb128 0x1
 16612 59f5 31       		.byte	0x31
 16613 59f6 00       		.byte	0
 16614 59f7 39       		.uleb128 0x39
 16615 59f8 5E010000 		.4byte	.LVL252
 16616 59fc 7F630000 		.4byte	0x637f
 16617 5a00 175A0000 		.4byte	0x5a17
 16618 5a04 38       		.uleb128 0x38
 16619 5a05 01       		.uleb128 0x1
 16620 5a06 50       		.byte	0x50
 16621 5a07 02       		.uleb128 0x2
 16622 5a08 08       		.byte	0x8
 16623 5a09 6E       		.byte	0x6e
 16624 5a0a 38       		.uleb128 0x38
 16625 5a0b 01       		.uleb128 0x1
 16626 5a0c 51       		.byte	0x51
 16627 5a0d 02       		.uleb128 0x2
 16628 5a0e 08       		.byte	0x8
 16629 5a0f 40       		.byte	0x40
 16630 5a10 38       		.uleb128 0x38
 16631 5a11 01       		.uleb128 0x1
 16632 5a12 52       		.byte	0x52
 16633 5a13 02       		.uleb128 0x2
 16634 5a14 09       		.byte	0x9
 16635 5a15 AB       		.byte	0xab
 16636 5a16 00       		.byte	0
 16637 5a17 39       		.uleb128 0x39
 16638 5a18 6E010000 		.4byte	.LVL254
 16639 5a1c 7F630000 		.4byte	0x637f
 16640 5a20 315A0000 		.4byte	0x5a31
 16641 5a24 38       		.uleb128 0x38
 16642 5a25 01       		.uleb128 0x1
 16643 5a26 50       		.byte	0x50
ARM GAS  C:\Users\mathi\AppData\Local\Temp\ccuMtzkg.s 			page 293


 16644 5a27 02       		.uleb128 0x2
 16645 5a28 08       		.byte	0x8
 16646 5a29 6E       		.byte	0x6e
 16647 5a2a 38       		.uleb128 0x38
 16648 5a2b 01       		.uleb128 0x1
 16649 5a2c 51       		.byte	0x51
 16650 5a2d 02       		.uleb128 0x2
 16651 5a2e 08       		.byte	0x8
 16652 5a2f 41       		.byte	0x41
 16653 5a30 00       		.byte	0
 16654 5a31 39       		.uleb128 0x39
 16655 5a32 7E010000 		.4byte	.LVL256
 16656 5a36 7F630000 		.4byte	0x637f
 16657 5a3a 515A0000 		.4byte	0x5a51
 16658 5a3e 38       		.uleb128 0x38
 16659 5a3f 01       		.uleb128 0x1
 16660 5a40 50       		.byte	0x50
 16661 5a41 02       		.uleb128 0x2
 16662 5a42 08       		.byte	0x8
 16663 5a43 6E       		.byte	0x6e
 16664 5a44 38       		.uleb128 0x38
 16665 5a45 01       		.uleb128 0x1
 16666 5a46 51       		.byte	0x51
 16667 5a47 02       		.uleb128 0x2
 16668 5a48 08       		.byte	0x8
 16669 5a49 42       		.byte	0x42
 16670 5a4a 38       		.uleb128 0x38
 16671 5a4b 01       		.uleb128 0x1
 16672 5a4c 52       		.byte	0x52
 16673 5a4d 02       		.uleb128 0x2
 16674 5a4e 09       		.byte	0x9
 16675 5a4f A1       		.byte	0xa1
 16676 5a50 00       		.byte	0
 16677 5a51 39       		.uleb128 0x39
 16678 5a52 8E010000 		.4byte	.LVL258
 16679 5a56 7F630000 		.4byte	0x637f
 16680 5a5a 705A0000 		.4byte	0x5a70
 16681 5a5e 38       		.uleb128 0x38
 16682 5a5f 01       		.uleb128 0x1
 16683 5a60 50       		.byte	0x50
 16684 5a61 02       		.uleb128 0x2
 16685 5a62 08       		.byte	0x8
 16686 5a63 6E       		.byte	0x6e
 16687 5a64 38       		.uleb128 0x38
 16688 5a65 01       		.uleb128 0x1
 16689 5a66 51       		.byte	0x51
 16690 5a67 02       		.uleb128 0x2
 16691 5a68 08       		.byte	0x8
 16692 5a69 43       		.byte	0x43
 16693 5a6a 38       		.uleb128 0x38
 16694 5a6b 01       		.uleb128 0x1
 16695 5a6c 52       		.byte	0x52
 16696 5a6d 01       		.uleb128 0x1
 16697 5a6e 31       		.byte	0x31
 16698 5a6f 00       		.byte	0
 16699 5a70 39       		.uleb128 0x39
 16700 5a71 9E010000 		.4byte	.LVL260
ARM GAS  C:\Users\mathi\AppData\Local\Temp\ccuMtzkg.s 			page 294


 16701 5a75 7F630000 		.4byte	0x637f
 16702 5a79 905A0000 		.4byte	0x5a90
 16703 5a7d 38       		.uleb128 0x38
 16704 5a7e 01       		.uleb128 0x1
 16705 5a7f 50       		.byte	0x50
 16706 5a80 02       		.uleb128 0x2
 16707 5a81 08       		.byte	0x8
 16708 5a82 6E       		.byte	0x6e
 16709 5a83 38       		.uleb128 0x38
 16710 5a84 01       		.uleb128 0x1
 16711 5a85 51       		.byte	0x51
 16712 5a86 02       		.uleb128 0x2
 16713 5a87 08       		.byte	0x8
 16714 5a88 44       		.byte	0x44
 16715 5a89 38       		.uleb128 0x38
 16716 5a8a 01       		.uleb128 0x1
 16717 5a8b 52       		.byte	0x52
 16718 5a8c 02       		.uleb128 0x2
 16719 5a8d 08       		.byte	0x8
 16720 5a8e 40       		.byte	0x40
 16721 5a8f 00       		.byte	0
 16722 5a90 39       		.uleb128 0x39
 16723 5a91 BE010000 		.4byte	.LVL264
 16724 5a95 7F630000 		.4byte	0x637f
 16725 5a99 B05A0000 		.4byte	0x5ab0
 16726 5a9d 38       		.uleb128 0x38
 16727 5a9e 01       		.uleb128 0x1
 16728 5a9f 50       		.byte	0x50
 16729 5aa0 02       		.uleb128 0x2
 16730 5aa1 08       		.byte	0x8
 16731 5aa2 6E       		.byte	0x6e
 16732 5aa3 38       		.uleb128 0x38
 16733 5aa4 01       		.uleb128 0x1
 16734 5aa5 51       		.byte	0x51
 16735 5aa6 02       		.uleb128 0x2
 16736 5aa7 09       		.byte	0x9
 16737 5aa8 93       		.byte	0x93
 16738 5aa9 38       		.uleb128 0x38
 16739 5aaa 01       		.uleb128 0x1
 16740 5aab 52       		.byte	0x52
 16741 5aac 02       		.uleb128 0x2
 16742 5aad 08       		.byte	0x8
 16743 5aae 20       		.byte	0x20
 16744 5aaf 00       		.byte	0
 16745 5ab0 37       		.uleb128 0x37
 16746 5ab1 CE010000 		.4byte	.LVL266
 16747 5ab5 7F630000 		.4byte	0x637f
 16748 5ab9 38       		.uleb128 0x38
 16749 5aba 01       		.uleb128 0x1
 16750 5abb 50       		.byte	0x50
 16751 5abc 02       		.uleb128 0x2
 16752 5abd 08       		.byte	0x8
 16753 5abe 6E       		.byte	0x6e
 16754 5abf 38       		.uleb128 0x38
 16755 5ac0 01       		.uleb128 0x1
 16756 5ac1 51       		.byte	0x51
 16757 5ac2 02       		.uleb128 0x2
ARM GAS  C:\Users\mathi\AppData\Local\Temp\ccuMtzkg.s 			page 295


 16758 5ac3 09       		.byte	0x9
 16759 5ac4 94       		.byte	0x94
 16760 5ac5 38       		.uleb128 0x38
 16761 5ac6 01       		.uleb128 0x1
 16762 5ac7 52       		.byte	0x52
 16763 5ac8 02       		.uleb128 0x2
 16764 5ac9 08       		.byte	0x8
 16765 5aca 20       		.byte	0x20
 16766 5acb 00       		.byte	0
 16767 5acc 00       		.byte	0
 16768 5acd 39       		.uleb128 0x39
 16769 5ace 4E000000 		.4byte	.LVL214
 16770 5ad2 7F630000 		.4byte	0x637f
 16771 5ad6 E65A0000 		.4byte	0x5ae6
 16772 5ada 38       		.uleb128 0x38
 16773 5adb 01       		.uleb128 0x1
 16774 5adc 50       		.byte	0x50
 16775 5add 02       		.uleb128 0x2
 16776 5ade 08       		.byte	0x8
 16777 5adf 6E       		.byte	0x6e
 16778 5ae0 38       		.uleb128 0x38
 16779 5ae1 01       		.uleb128 0x1
 16780 5ae2 51       		.byte	0x51
 16781 5ae3 01       		.uleb128 0x1
 16782 5ae4 38       		.byte	0x38
 16783 5ae5 00       		.byte	0
 16784 5ae6 39       		.uleb128 0x39
 16785 5ae7 5C000000 		.4byte	.LVL216
 16786 5aeb 7F630000 		.4byte	0x637f
 16787 5aef 045B0000 		.4byte	0x5b04
 16788 5af3 38       		.uleb128 0x38
 16789 5af4 01       		.uleb128 0x1
 16790 5af5 50       		.byte	0x50
 16791 5af6 02       		.uleb128 0x2
 16792 5af7 08       		.byte	0x8
 16793 5af8 6E       		.byte	0x6e
 16794 5af9 38       		.uleb128 0x38
 16795 5afa 01       		.uleb128 0x1
 16796 5afb 51       		.byte	0x51
 16797 5afc 01       		.uleb128 0x1
 16798 5afd 39       		.byte	0x39
 16799 5afe 38       		.uleb128 0x38
 16800 5aff 01       		.uleb128 0x1
 16801 5b00 52       		.byte	0x52
 16802 5b01 01       		.uleb128 0x1
 16803 5b02 31       		.byte	0x31
 16804 5b03 00       		.byte	0
 16805 5b04 39       		.uleb128 0x39
 16806 5b05 6A000000 		.4byte	.LVL218
 16807 5b09 7F630000 		.4byte	0x637f
 16808 5b0d 1D5B0000 		.4byte	0x5b1d
 16809 5b11 38       		.uleb128 0x38
 16810 5b12 01       		.uleb128 0x1
 16811 5b13 50       		.byte	0x50
 16812 5b14 02       		.uleb128 0x2
 16813 5b15 08       		.byte	0x8
 16814 5b16 6E       		.byte	0x6e
ARM GAS  C:\Users\mathi\AppData\Local\Temp\ccuMtzkg.s 			page 296


 16815 5b17 38       		.uleb128 0x38
 16816 5b18 01       		.uleb128 0x1
 16817 5b19 51       		.byte	0x51
 16818 5b1a 01       		.uleb128 0x1
 16819 5b1b 3A       		.byte	0x3a
 16820 5b1c 00       		.byte	0
 16821 5b1d 37       		.uleb128 0x37
 16822 5b1e 78000000 		.4byte	.LVL220
 16823 5b22 7F630000 		.4byte	0x637f
 16824 5b26 38       		.uleb128 0x38
 16825 5b27 01       		.uleb128 0x1
 16826 5b28 50       		.byte	0x50
 16827 5b29 02       		.uleb128 0x2
 16828 5b2a 08       		.byte	0x8
 16829 5b2b 6E       		.byte	0x6e
 16830 5b2c 38       		.uleb128 0x38
 16831 5b2d 01       		.uleb128 0x1
 16832 5b2e 51       		.byte	0x51
 16833 5b2f 01       		.uleb128 0x1
 16834 5b30 3B       		.byte	0x3b
 16835 5b31 38       		.uleb128 0x38
 16836 5b32 01       		.uleb128 0x1
 16837 5b33 52       		.byte	0x52
 16838 5b34 01       		.uleb128 0x1
 16839 5b35 31       		.byte	0x31
 16840 5b36 00       		.byte	0
 16841 5b37 00       		.byte	0
 16842 5b38 00       		.byte	0
 16843 5b39 44       		.uleb128 0x44
 16844 5b3a C0030000 		.4byte	.LVL322
 16845 5b3e 02460000 		.4byte	0x4602
 16846 5b42 30       		.uleb128 0x30
 16847 5b43 CA030000 		.4byte	.LVL325
 16848 5b47 76630000 		.4byte	0x6376
 16849 5b4b 00       		.byte	0
 16850 5b4c 50       		.uleb128 0x50
 16851 5b4d 90450000 		.4byte	0x4590
 16852 5b51 00000000 		.4byte	.LFB264
 16853 5b55 F8000000 		.4byte	.LFE264-.LFB264
 16854 5b59 01       		.uleb128 0x1
 16855 5b5a 9C       		.byte	0x9c
 16856 5b5b 9F5C0000 		.4byte	0x5c9f
 16857 5b5f 34       		.uleb128 0x34
 16858 5b60 A1450000 		.4byte	0x45a1
 16859 5b64 CA0A0000 		.4byte	.LLST24
 16860 5b68 34       		.uleb128 0x34
 16861 5b69 AD450000 		.4byte	0x45ad
 16862 5b6d EB0A0000 		.4byte	.LLST25
 16863 5b71 47       		.uleb128 0x47
 16864 5b72 B9450000 		.4byte	0x45b9
 16865 5b76 0C0B0000 		.4byte	.LLST26
 16866 5b7a 3A       		.uleb128 0x3a
 16867 5b7b 63460000 		.4byte	0x4663
 16868 5b7f 0E000000 		.4byte	.LBB184
 16869 5b83 0A000000 		.4byte	.LBE184-.LBB184
 16870 5b87 01       		.byte	0x1
 16871 5b88 1502     		.2byte	0x215
ARM GAS  C:\Users\mathi\AppData\Local\Temp\ccuMtzkg.s 			page 297


 16872 5b8a B25B0000 		.4byte	0x5bb2
 16873 5b8e 34       		.uleb128 0x34
 16874 5b8f 73460000 		.4byte	0x4673
 16875 5b93 200B0000 		.4byte	.LLST27
 16876 5b97 37       		.uleb128 0x37
 16877 5b98 18000000 		.4byte	.LVL330
 16878 5b9c 7F630000 		.4byte	0x637f
 16879 5ba0 38       		.uleb128 0x38
 16880 5ba1 01       		.uleb128 0x1
 16881 5ba2 50       		.byte	0x50
 16882 5ba3 02       		.uleb128 0x2
 16883 5ba4 08       		.byte	0x8
 16884 5ba5 6E       		.byte	0x6e
 16885 5ba6 38       		.uleb128 0x38
 16886 5ba7 01       		.uleb128 0x1
 16887 5ba8 51       		.byte	0x51
 16888 5ba9 01       		.uleb128 0x1
 16889 5baa 33       		.byte	0x33
 16890 5bab 38       		.uleb128 0x38
 16891 5bac 01       		.uleb128 0x1
 16892 5bad 52       		.byte	0x52
 16893 5bae 01       		.uleb128 0x1
 16894 5baf 31       		.byte	0x31
 16895 5bb0 00       		.byte	0
 16896 5bb1 00       		.byte	0
 16897 5bb2 43       		.uleb128 0x43
 16898 5bb3 90450000 		.4byte	0x4590
 16899 5bb7 38000000 		.4byte	.Ldebug_ranges0+0x38
 16900 5bbb 955C0000 		.4byte	0x5c95
 16901 5bbf 34       		.uleb128 0x34
 16902 5bc0 AD450000 		.4byte	0x45ad
 16903 5bc4 340B0000 		.4byte	.LLST28
 16904 5bc8 34       		.uleb128 0x34
 16905 5bc9 A1450000 		.4byte	0x45a1
 16906 5bcd 680B0000 		.4byte	.LLST29
 16907 5bd1 35       		.uleb128 0x35
 16908 5bd2 38000000 		.4byte	.Ldebug_ranges0+0x38
 16909 5bd6 36       		.uleb128 0x36
 16910 5bd7 715B0000 		.4byte	0x5b71
 16911 5bdb 39       		.uleb128 0x39
 16912 5bdc 32000000 		.4byte	.LVL332
 16913 5be0 7F630000 		.4byte	0x637f
 16914 5be4 F55B0000 		.4byte	0x5bf5
 16915 5be8 38       		.uleb128 0x38
 16916 5be9 01       		.uleb128 0x1
 16917 5bea 50       		.byte	0x50
 16918 5beb 02       		.uleb128 0x2
 16919 5bec 08       		.byte	0x8
 16920 5bed 6E       		.byte	0x6e
 16921 5bee 38       		.uleb128 0x38
 16922 5bef 01       		.uleb128 0x1
 16923 5bf0 51       		.byte	0x51
 16924 5bf1 02       		.uleb128 0x2
 16925 5bf2 09       		.byte	0x9
 16926 5bf3 95       		.byte	0x95
 16927 5bf4 00       		.byte	0
 16928 5bf5 39       		.uleb128 0x39
ARM GAS  C:\Users\mathi\AppData\Local\Temp\ccuMtzkg.s 			page 298


 16929 5bf6 56000000 		.4byte	.LVL335
 16930 5bfa 7F630000 		.4byte	0x637f
 16931 5bfe 0F5C0000 		.4byte	0x5c0f
 16932 5c02 38       		.uleb128 0x38
 16933 5c03 01       		.uleb128 0x1
 16934 5c04 50       		.byte	0x50
 16935 5c05 02       		.uleb128 0x2
 16936 5c06 08       		.byte	0x8
 16937 5c07 6E       		.byte	0x6e
 16938 5c08 38       		.uleb128 0x38
 16939 5c09 01       		.uleb128 0x1
 16940 5c0a 51       		.byte	0x51
 16941 5c0b 02       		.uleb128 0x2
 16942 5c0c 09       		.byte	0x9
 16943 5c0d 95       		.byte	0x95
 16944 5c0e 00       		.byte	0
 16945 5c0f 41       		.uleb128 0x41
 16946 5c10 74000000 		.4byte	.LVL338
 16947 5c14 7F630000 		.4byte	0x637f
 16948 5c18 295C0000 		.4byte	0x5c29
 16949 5c1c 38       		.uleb128 0x38
 16950 5c1d 01       		.uleb128 0x1
 16951 5c1e 50       		.byte	0x50
 16952 5c1f 02       		.uleb128 0x2
 16953 5c20 08       		.byte	0x8
 16954 5c21 6E       		.byte	0x6e
 16955 5c22 38       		.uleb128 0x38
 16956 5c23 01       		.uleb128 0x1
 16957 5c24 51       		.byte	0x51
 16958 5c25 02       		.uleb128 0x2
 16959 5c26 09       		.byte	0x9
 16960 5c27 96       		.byte	0x96
 16961 5c28 00       		.byte	0
 16962 5c29 39       		.uleb128 0x39
 16963 5c2a 7E000000 		.4byte	.LVL339
 16964 5c2e 7F630000 		.4byte	0x637f
 16965 5c32 435C0000 		.4byte	0x5c43
 16966 5c36 38       		.uleb128 0x38
 16967 5c37 01       		.uleb128 0x1
 16968 5c38 50       		.byte	0x50
 16969 5c39 02       		.uleb128 0x2
 16970 5c3a 08       		.byte	0x8
 16971 5c3b 6E       		.byte	0x6e
 16972 5c3c 38       		.uleb128 0x38
 16973 5c3d 01       		.uleb128 0x1
 16974 5c3e 51       		.byte	0x51
 16975 5c3f 02       		.uleb128 0x2
 16976 5c40 09       		.byte	0x9
 16977 5c41 95       		.byte	0x95
 16978 5c42 00       		.byte	0
 16979 5c43 39       		.uleb128 0x39
 16980 5c44 9A000000 		.4byte	.LVL341
 16981 5c48 7F630000 		.4byte	0x637f
 16982 5c4c 635C0000 		.4byte	0x5c63
 16983 5c50 38       		.uleb128 0x38
 16984 5c51 01       		.uleb128 0x1
 16985 5c52 50       		.byte	0x50
ARM GAS  C:\Users\mathi\AppData\Local\Temp\ccuMtzkg.s 			page 299


 16986 5c53 02       		.uleb128 0x2
 16987 5c54 08       		.byte	0x8
 16988 5c55 6E       		.byte	0x6e
 16989 5c56 38       		.uleb128 0x38
 16990 5c57 01       		.uleb128 0x1
 16991 5c58 51       		.byte	0x51
 16992 5c59 02       		.uleb128 0x2
 16993 5c5a 09       		.byte	0x9
 16994 5c5b 95       		.byte	0x95
 16995 5c5c 38       		.uleb128 0x38
 16996 5c5d 01       		.uleb128 0x1
 16997 5c5e 52       		.byte	0x52
 16998 5c5f 02       		.uleb128 0x2
 16999 5c60 75       		.byte	0x75
 17000 5c61 00       		.sleb128 0
 17001 5c62 00       		.byte	0
 17002 5c63 39       		.uleb128 0x39
 17003 5c64 C6000000 		.4byte	.LVL345
 17004 5c68 7F630000 		.4byte	0x637f
 17005 5c6c 7D5C0000 		.4byte	0x5c7d
 17006 5c70 38       		.uleb128 0x38
 17007 5c71 01       		.uleb128 0x1
 17008 5c72 50       		.byte	0x50
 17009 5c73 02       		.uleb128 0x2
 17010 5c74 08       		.byte	0x8
 17011 5c75 6E       		.byte	0x6e
 17012 5c76 38       		.uleb128 0x38
 17013 5c77 01       		.uleb128 0x1
 17014 5c78 51       		.byte	0x51
 17015 5c79 02       		.uleb128 0x2
 17016 5c7a 09       		.byte	0x9
 17017 5c7b 95       		.byte	0x95
 17018 5c7c 00       		.byte	0
 17019 5c7d 37       		.uleb128 0x37
 17020 5c7e E2000000 		.4byte	.LVL347
 17021 5c82 7F630000 		.4byte	0x637f
 17022 5c86 38       		.uleb128 0x38
 17023 5c87 01       		.uleb128 0x1
 17024 5c88 50       		.byte	0x50
 17025 5c89 02       		.uleb128 0x2
 17026 5c8a 08       		.byte	0x8
 17027 5c8b 6E       		.byte	0x6e
 17028 5c8c 38       		.uleb128 0x38
 17029 5c8d 01       		.uleb128 0x1
 17030 5c8e 51       		.byte	0x51
 17031 5c8f 02       		.uleb128 0x2
 17032 5c90 09       		.byte	0x9
 17033 5c91 95       		.byte	0x95
 17034 5c92 00       		.byte	0
 17035 5c93 00       		.byte	0
 17036 5c94 00       		.byte	0
 17037 5c95 30       		.uleb128 0x30
 17038 5c96 AE000000 		.4byte	.LVL343
 17039 5c9a 76630000 		.4byte	0x6376
 17040 5c9e 00       		.byte	0
 17041 5c9f 50       		.uleb128 0x50
 17042 5ca0 503D0000 		.4byte	0x3d50
ARM GAS  C:\Users\mathi\AppData\Local\Temp\ccuMtzkg.s 			page 300


 17043 5ca4 00000000 		.4byte	.LFB267
 17044 5ca8 A8040000 		.4byte	.LFE267-.LFB267
 17045 5cac 01       		.uleb128 0x1
 17046 5cad 9C       		.byte	0x9c
 17047 5cae 28620000 		.4byte	0x6228
 17048 5cb2 34       		.uleb128 0x34
 17049 5cb3 613D0000 		.4byte	0x3d61
 17050 5cb7 9C0B0000 		.4byte	.LLST60
 17051 5cbb 34       		.uleb128 0x34
 17052 5cbc 6D3D0000 		.4byte	0x3d6d
 17053 5cc0 9E0C0000 		.4byte	.LLST61
 17054 5cc4 34       		.uleb128 0x34
 17055 5cc5 783D0000 		.4byte	0x3d78
 17056 5cc9 440D0000 		.4byte	.LLST62
 17057 5ccd 34       		.uleb128 0x34
 17058 5cce 833D0000 		.4byte	0x3d83
 17059 5cd2 F50D0000 		.4byte	.LLST63
 17060 5cd6 34       		.uleb128 0x34
 17061 5cd7 8F3D0000 		.4byte	0x3d8f
 17062 5cdb 7A0E0000 		.4byte	.LLST64
 17063 5cdf 34       		.uleb128 0x34
 17064 5ce0 9B3D0000 		.4byte	0x3d9b
 17065 5ce4 9A0E0000 		.4byte	.LLST65
 17066 5ce8 34       		.uleb128 0x34
 17067 5ce9 A73D0000 		.4byte	0x3da7
 17068 5ced BA0E0000 		.4byte	.LLST66
 17069 5cf1 47       		.uleb128 0x47
 17070 5cf2 B33D0000 		.4byte	0x3db3
 17071 5cf6 DA0E0000 		.4byte	.LLST67
 17072 5cfa 47       		.uleb128 0x47
 17073 5cfb BF3D0000 		.4byte	0x3dbf
 17074 5cff 50100000 		.4byte	.LLST68
 17075 5d03 47       		.uleb128 0x47
 17076 5d04 CA3D0000 		.4byte	0x3dca
 17077 5d08 05110000 		.4byte	.LLST69
 17078 5d0c 47       		.uleb128 0x47
 17079 5d0d D53D0000 		.4byte	0x3dd5
 17080 5d11 A6110000 		.4byte	.LLST70
 17081 5d15 47       		.uleb128 0x47
 17082 5d16 E13D0000 		.4byte	0x3de1
 17083 5d1a 53120000 		.4byte	.LLST71
 17084 5d1e 47       		.uleb128 0x47
 17085 5d1f ED3D0000 		.4byte	0x3ded
 17086 5d23 F9120000 		.4byte	.LLST72
 17087 5d27 47       		.uleb128 0x47
 17088 5d28 F93D0000 		.4byte	0x3df9
 17089 5d2c 7C130000 		.4byte	.LLST73
 17090 5d30 47       		.uleb128 0x47
 17091 5d31 053E0000 		.4byte	0x3e05
 17092 5d35 08140000 		.4byte	.LLST74
 17093 5d39 47       		.uleb128 0x47
 17094 5d3a 113E0000 		.4byte	0x3e11
 17095 5d3e 28140000 		.4byte	.LLST75
 17096 5d42 3A       		.uleb128 0x3a
 17097 5d43 63460000 		.4byte	0x4663
 17098 5d47 A0000000 		.4byte	.LBB258
 17099 5d4b 0A000000 		.4byte	.LBE258-.LBB258
ARM GAS  C:\Users\mathi\AppData\Local\Temp\ccuMtzkg.s 			page 301


 17100 5d4f 01       		.byte	0x1
 17101 5d50 EE02     		.2byte	0x2ee
 17102 5d52 7A5D0000 		.4byte	0x5d7a
 17103 5d56 34       		.uleb128 0x34
 17104 5d57 73460000 		.4byte	0x4673
 17105 5d5b BF140000 		.4byte	.LLST76
 17106 5d5f 37       		.uleb128 0x37
 17107 5d60 AA000000 		.4byte	.LVL458
 17108 5d64 7F630000 		.4byte	0x637f
 17109 5d68 38       		.uleb128 0x38
 17110 5d69 01       		.uleb128 0x1
 17111 5d6a 50       		.byte	0x50
 17112 5d6b 02       		.uleb128 0x2
 17113 5d6c 08       		.byte	0x8
 17114 5d6d 6E       		.byte	0x6e
 17115 5d6e 38       		.uleb128 0x38
 17116 5d6f 01       		.uleb128 0x1
 17117 5d70 51       		.byte	0x51
 17118 5d71 01       		.uleb128 0x1
 17119 5d72 33       		.byte	0x33
 17120 5d73 38       		.uleb128 0x38
 17121 5d74 01       		.uleb128 0x1
 17122 5d75 52       		.byte	0x52
 17123 5d76 01       		.uleb128 0x1
 17124 5d77 30       		.byte	0x30
 17125 5d78 00       		.byte	0
 17126 5d79 00       		.byte	0
 17127 5d7a 3A       		.uleb128 0x3a
 17128 5d7b 63460000 		.4byte	0x4663
 17129 5d7f 2E010000 		.4byte	.LBB260
 17130 5d83 0A000000 		.4byte	.LBE260-.LBB260
 17131 5d87 01       		.byte	0x1
 17132 5d88 F902     		.2byte	0x2f9
 17133 5d8a AD5D0000 		.4byte	0x5dad
 17134 5d8e 34       		.uleb128 0x34
 17135 5d8f 73460000 		.4byte	0x4673
 17136 5d93 D3140000 		.4byte	.LLST77
 17137 5d97 37       		.uleb128 0x37
 17138 5d98 38010000 		.4byte	.LVL482
 17139 5d9c 7F630000 		.4byte	0x637f
 17140 5da0 38       		.uleb128 0x38
 17141 5da1 01       		.uleb128 0x1
 17142 5da2 50       		.byte	0x50
 17143 5da3 02       		.uleb128 0x2
 17144 5da4 08       		.byte	0x8
 17145 5da5 6E       		.byte	0x6e
 17146 5da6 38       		.uleb128 0x38
 17147 5da7 01       		.uleb128 0x1
 17148 5da8 51       		.byte	0x51
 17149 5da9 01       		.uleb128 0x1
 17150 5daa 33       		.byte	0x33
 17151 5dab 00       		.byte	0
 17152 5dac 00       		.byte	0
 17153 5dad 3A       		.uleb128 0x3a
 17154 5dae 63460000 		.4byte	0x4663
 17155 5db2 F2020000 		.4byte	.LBB262
 17156 5db6 0A000000 		.4byte	.LBE262-.LBB262
ARM GAS  C:\Users\mathi\AppData\Local\Temp\ccuMtzkg.s 			page 302


 17157 5dba 01       		.byte	0x1
 17158 5dbb 4803     		.2byte	0x348
 17159 5dbd E55D0000 		.4byte	0x5de5
 17160 5dc1 34       		.uleb128 0x34
 17161 5dc2 73460000 		.4byte	0x4673
 17162 5dc6 E7140000 		.4byte	.LLST78
 17163 5dca 37       		.uleb128 0x37
 17164 5dcb FC020000 		.4byte	.LVL532
 17165 5dcf 7F630000 		.4byte	0x637f
 17166 5dd3 38       		.uleb128 0x38
 17167 5dd4 01       		.uleb128 0x1
 17168 5dd5 50       		.byte	0x50
 17169 5dd6 02       		.uleb128 0x2
 17170 5dd7 08       		.byte	0x8
 17171 5dd8 6E       		.byte	0x6e
 17172 5dd9 38       		.uleb128 0x38
 17173 5dda 01       		.uleb128 0x1
 17174 5ddb 51       		.byte	0x51
 17175 5ddc 01       		.uleb128 0x1
 17176 5ddd 33       		.byte	0x33
 17177 5dde 38       		.uleb128 0x38
 17178 5ddf 01       		.uleb128 0x1
 17179 5de0 52       		.byte	0x52
 17180 5de1 01       		.uleb128 0x1
 17181 5de2 31       		.byte	0x31
 17182 5de3 00       		.byte	0
 17183 5de4 00       		.byte	0
 17184 5de5 3A       		.uleb128 0x3a
 17185 5de6 63460000 		.4byte	0x4663
 17186 5dea 22030000 		.4byte	.LBB264
 17187 5dee 0A000000 		.4byte	.LBE264-.LBB264
 17188 5df2 01       		.byte	0x1
 17189 5df3 5403     		.2byte	0x354
 17190 5df5 1D5E0000 		.4byte	0x5e1d
 17191 5df9 34       		.uleb128 0x34
 17192 5dfa 73460000 		.4byte	0x4673
 17193 5dfe FB140000 		.4byte	.LLST79
 17194 5e02 37       		.uleb128 0x37
 17195 5e03 2C030000 		.4byte	.LVL538
 17196 5e07 7F630000 		.4byte	0x637f
 17197 5e0b 38       		.uleb128 0x38
 17198 5e0c 01       		.uleb128 0x1
 17199 5e0d 50       		.byte	0x50
 17200 5e0e 02       		.uleb128 0x2
 17201 5e0f 08       		.byte	0x8
 17202 5e10 6E       		.byte	0x6e
 17203 5e11 38       		.uleb128 0x38
 17204 5e12 01       		.uleb128 0x1
 17205 5e13 51       		.byte	0x51
 17206 5e14 01       		.uleb128 0x1
 17207 5e15 33       		.byte	0x33
 17208 5e16 38       		.uleb128 0x38
 17209 5e17 01       		.uleb128 0x1
 17210 5e18 52       		.byte	0x52
 17211 5e19 01       		.uleb128 0x1
 17212 5e1a 31       		.byte	0x31
 17213 5e1b 00       		.byte	0
ARM GAS  C:\Users\mathi\AppData\Local\Temp\ccuMtzkg.s 			page 303


 17214 5e1c 00       		.byte	0
 17215 5e1d 39       		.uleb128 0x39
 17216 5e1e 20010000 		.4byte	.LVL477
 17217 5e22 7F630000 		.4byte	0x637f
 17218 5e26 375E0000 		.4byte	0x5e37
 17219 5e2a 38       		.uleb128 0x38
 17220 5e2b 01       		.uleb128 0x1
 17221 5e2c 50       		.byte	0x50
 17222 5e2d 02       		.uleb128 0x2
 17223 5e2e 08       		.byte	0x8
 17224 5e2f 6E       		.byte	0x6e
 17225 5e30 38       		.uleb128 0x38
 17226 5e31 01       		.uleb128 0x1
 17227 5e32 51       		.byte	0x51
 17228 5e33 02       		.uleb128 0x2
 17229 5e34 08       		.byte	0x8
 17230 5e35 5B       		.byte	0x5b
 17231 5e36 00       		.byte	0
 17232 5e37 39       		.uleb128 0x39
 17233 5e38 2A010000 		.4byte	.LVL479
 17234 5e3c 3C460000 		.4byte	0x463c
 17235 5e40 4B5E0000 		.4byte	0x5e4b
 17236 5e44 38       		.uleb128 0x38
 17237 5e45 01       		.uleb128 0x1
 17238 5e46 50       		.byte	0x50
 17239 5e47 02       		.uleb128 0x2
 17240 5e48 7A       		.byte	0x7a
 17241 5e49 00       		.sleb128 0
 17242 5e4a 00       		.byte	0
 17243 5e4b 39       		.uleb128 0x39
 17244 5e4c 4C010000 		.4byte	.LVL483
 17245 5e50 7F630000 		.4byte	0x637f
 17246 5e54 6D5E0000 		.4byte	0x5e6d
 17247 5e58 38       		.uleb128 0x38
 17248 5e59 01       		.uleb128 0x1
 17249 5e5a 50       		.byte	0x50
 17250 5e5b 02       		.uleb128 0x2
 17251 5e5c 08       		.byte	0x8
 17252 5e5d 6E       		.byte	0x6e
 17253 5e5e 38       		.uleb128 0x38
 17254 5e5f 01       		.uleb128 0x1
 17255 5e60 51       		.byte	0x51
 17256 5e61 01       		.uleb128 0x1
 17257 5e62 38       		.byte	0x38
 17258 5e63 38       		.uleb128 0x38
 17259 5e64 01       		.uleb128 0x1
 17260 5e65 52       		.byte	0x52
 17261 5e66 05       		.uleb128 0x5
 17262 5e67 91       		.byte	0x91
 17263 5e68 B07F     		.sleb128 -80
 17264 5e6a 94       		.byte	0x94
 17265 5e6b 01       		.byte	0x1
 17266 5e6c 00       		.byte	0
 17267 5e6d 39       		.uleb128 0x39
 17268 5e6e 5E010000 		.4byte	.LVL485
 17269 5e72 7F630000 		.4byte	0x637f
 17270 5e76 8F5E0000 		.4byte	0x5e8f
ARM GAS  C:\Users\mathi\AppData\Local\Temp\ccuMtzkg.s 			page 304


 17271 5e7a 38       		.uleb128 0x38
 17272 5e7b 01       		.uleb128 0x1
 17273 5e7c 50       		.byte	0x50
 17274 5e7d 02       		.uleb128 0x2
 17275 5e7e 08       		.byte	0x8
 17276 5e7f 6E       		.byte	0x6e
 17277 5e80 38       		.uleb128 0x38
 17278 5e81 01       		.uleb128 0x1
 17279 5e82 51       		.byte	0x51
 17280 5e83 01       		.uleb128 0x1
 17281 5e84 39       		.byte	0x39
 17282 5e85 38       		.uleb128 0x38
 17283 5e86 01       		.uleb128 0x1
 17284 5e87 52       		.byte	0x52
 17285 5e88 05       		.uleb128 0x5
 17286 5e89 91       		.byte	0x91
 17287 5e8a B47F     		.sleb128 -76
 17288 5e8c 94       		.byte	0x94
 17289 5e8d 01       		.byte	0x1
 17290 5e8e 00       		.byte	0
 17291 5e8f 39       		.uleb128 0x39
 17292 5e90 72010000 		.4byte	.LVL487
 17293 5e94 7F630000 		.4byte	0x637f
 17294 5e98 B15E0000 		.4byte	0x5eb1
 17295 5e9c 38       		.uleb128 0x38
 17296 5e9d 01       		.uleb128 0x1
 17297 5e9e 50       		.byte	0x50
 17298 5e9f 02       		.uleb128 0x2
 17299 5ea0 08       		.byte	0x8
 17300 5ea1 6E       		.byte	0x6e
 17301 5ea2 38       		.uleb128 0x38
 17302 5ea3 01       		.uleb128 0x1
 17303 5ea4 51       		.byte	0x51
 17304 5ea5 01       		.uleb128 0x1
 17305 5ea6 3A       		.byte	0x3a
 17306 5ea7 38       		.uleb128 0x38
 17307 5ea8 01       		.uleb128 0x1
 17308 5ea9 52       		.byte	0x52
 17309 5eaa 05       		.uleb128 0x5
 17310 5eab 91       		.byte	0x91
 17311 5eac B87F     		.sleb128 -72
 17312 5eae 94       		.byte	0x94
 17313 5eaf 01       		.byte	0x1
 17314 5eb0 00       		.byte	0
 17315 5eb1 39       		.uleb128 0x39
 17316 5eb2 84010000 		.4byte	.LVL489
 17317 5eb6 7F630000 		.4byte	0x637f
 17318 5eba D35E0000 		.4byte	0x5ed3
 17319 5ebe 38       		.uleb128 0x38
 17320 5ebf 01       		.uleb128 0x1
 17321 5ec0 50       		.byte	0x50
 17322 5ec1 02       		.uleb128 0x2
 17323 5ec2 08       		.byte	0x8
 17324 5ec3 6E       		.byte	0x6e
 17325 5ec4 38       		.uleb128 0x38
 17326 5ec5 01       		.uleb128 0x1
 17327 5ec6 51       		.byte	0x51
ARM GAS  C:\Users\mathi\AppData\Local\Temp\ccuMtzkg.s 			page 305


 17328 5ec7 01       		.uleb128 0x1
 17329 5ec8 3B       		.byte	0x3b
 17330 5ec9 38       		.uleb128 0x38
 17331 5eca 01       		.uleb128 0x1
 17332 5ecb 52       		.byte	0x52
 17333 5ecc 05       		.uleb128 0x5
 17334 5ecd 91       		.byte	0x91
 17335 5ece BC7F     		.sleb128 -68
 17336 5ed0 94       		.byte	0x94
 17337 5ed1 01       		.byte	0x1
 17338 5ed2 00       		.byte	0
 17339 5ed3 39       		.uleb128 0x39
 17340 5ed4 98010000 		.4byte	.LVL491
 17341 5ed8 7F630000 		.4byte	0x637f
 17342 5edc F45E0000 		.4byte	0x5ef4
 17343 5ee0 38       		.uleb128 0x38
 17344 5ee1 01       		.uleb128 0x1
 17345 5ee2 50       		.byte	0x50
 17346 5ee3 02       		.uleb128 0x2
 17347 5ee4 08       		.byte	0x8
 17348 5ee5 6E       		.byte	0x6e
 17349 5ee6 38       		.uleb128 0x38
 17350 5ee7 01       		.uleb128 0x1
 17351 5ee8 51       		.byte	0x51
 17352 5ee9 01       		.uleb128 0x1
 17353 5eea 3C       		.byte	0x3c
 17354 5eeb 38       		.uleb128 0x38
 17355 5eec 01       		.uleb128 0x1
 17356 5eed 52       		.byte	0x52
 17357 5eee 04       		.uleb128 0x4
 17358 5eef 91       		.byte	0x91
 17359 5ef0 40       		.sleb128 -64
 17360 5ef1 94       		.byte	0x94
 17361 5ef2 01       		.byte	0x1
 17362 5ef3 00       		.byte	0
 17363 5ef4 39       		.uleb128 0x39
 17364 5ef5 AA010000 		.4byte	.LVL493
 17365 5ef9 7F630000 		.4byte	0x637f
 17366 5efd 155F0000 		.4byte	0x5f15
 17367 5f01 38       		.uleb128 0x38
 17368 5f02 01       		.uleb128 0x1
 17369 5f03 50       		.byte	0x50
 17370 5f04 02       		.uleb128 0x2
 17371 5f05 08       		.byte	0x8
 17372 5f06 6E       		.byte	0x6e
 17373 5f07 38       		.uleb128 0x38
 17374 5f08 01       		.uleb128 0x1
 17375 5f09 51       		.byte	0x51
 17376 5f0a 01       		.uleb128 0x1
 17377 5f0b 3D       		.byte	0x3d
 17378 5f0c 38       		.uleb128 0x38
 17379 5f0d 01       		.uleb128 0x1
 17380 5f0e 52       		.byte	0x52
 17381 5f0f 04       		.uleb128 0x4
 17382 5f10 91       		.byte	0x91
 17383 5f11 44       		.sleb128 -60
 17384 5f12 94       		.byte	0x94
ARM GAS  C:\Users\mathi\AppData\Local\Temp\ccuMtzkg.s 			page 306


 17385 5f13 01       		.byte	0x1
 17386 5f14 00       		.byte	0
 17387 5f15 39       		.uleb128 0x39
 17388 5f16 C0010000 		.4byte	.LVL495
 17389 5f1a 7F630000 		.4byte	0x637f
 17390 5f1e 365F0000 		.4byte	0x5f36
 17391 5f22 38       		.uleb128 0x38
 17392 5f23 01       		.uleb128 0x1
 17393 5f24 50       		.byte	0x50
 17394 5f25 02       		.uleb128 0x2
 17395 5f26 08       		.byte	0x8
 17396 5f27 6E       		.byte	0x6e
 17397 5f28 38       		.uleb128 0x38
 17398 5f29 01       		.uleb128 0x1
 17399 5f2a 51       		.byte	0x51
 17400 5f2b 01       		.uleb128 0x1
 17401 5f2c 3E       		.byte	0x3e
 17402 5f2d 38       		.uleb128 0x38
 17403 5f2e 01       		.uleb128 0x1
 17404 5f2f 52       		.byte	0x52
 17405 5f30 04       		.uleb128 0x4
 17406 5f31 91       		.byte	0x91
 17407 5f32 48       		.sleb128 -56
 17408 5f33 94       		.byte	0x94
 17409 5f34 01       		.byte	0x1
 17410 5f35 00       		.byte	0
 17411 5f36 39       		.uleb128 0x39
 17412 5f37 D4010000 		.4byte	.LVL497
 17413 5f3b 7F630000 		.4byte	0x637f
 17414 5f3f 575F0000 		.4byte	0x5f57
 17415 5f43 38       		.uleb128 0x38
 17416 5f44 01       		.uleb128 0x1
 17417 5f45 50       		.byte	0x50
 17418 5f46 02       		.uleb128 0x2
 17419 5f47 08       		.byte	0x8
 17420 5f48 6E       		.byte	0x6e
 17421 5f49 38       		.uleb128 0x38
 17422 5f4a 01       		.uleb128 0x1
 17423 5f4b 51       		.byte	0x51
 17424 5f4c 01       		.uleb128 0x1
 17425 5f4d 3F       		.byte	0x3f
 17426 5f4e 38       		.uleb128 0x38
 17427 5f4f 01       		.uleb128 0x1
 17428 5f50 52       		.byte	0x52
 17429 5f51 04       		.uleb128 0x4
 17430 5f52 91       		.byte	0x91
 17431 5f53 4C       		.sleb128 -52
 17432 5f54 94       		.byte	0x94
 17433 5f55 01       		.byte	0x1
 17434 5f56 00       		.byte	0
 17435 5f57 39       		.uleb128 0x39
 17436 5f58 E4010000 		.4byte	.LVL499
 17437 5f5c 7F630000 		.4byte	0x637f
 17438 5f60 7A5F0000 		.4byte	0x5f7a
 17439 5f64 38       		.uleb128 0x38
 17440 5f65 01       		.uleb128 0x1
 17441 5f66 50       		.byte	0x50
ARM GAS  C:\Users\mathi\AppData\Local\Temp\ccuMtzkg.s 			page 307


 17442 5f67 02       		.uleb128 0x2
 17443 5f68 08       		.byte	0x8
 17444 5f69 6E       		.byte	0x6e
 17445 5f6a 38       		.uleb128 0x38
 17446 5f6b 01       		.uleb128 0x1
 17447 5f6c 51       		.byte	0x51
 17448 5f6d 02       		.uleb128 0x2
 17449 5f6e 08       		.byte	0x8
 17450 5f6f 35       		.byte	0x35
 17451 5f70 38       		.uleb128 0x38
 17452 5f71 01       		.uleb128 0x1
 17453 5f72 52       		.byte	0x52
 17454 5f73 05       		.uleb128 0x5
 17455 5f74 91       		.byte	0x91
 17456 5f75 B07F     		.sleb128 -80
 17457 5f77 94       		.byte	0x94
 17458 5f78 01       		.byte	0x1
 17459 5f79 00       		.byte	0
 17460 5f7a 39       		.uleb128 0x39
 17461 5f7b F4010000 		.4byte	.LVL501
 17462 5f7f 7F630000 		.4byte	0x637f
 17463 5f83 9D5F0000 		.4byte	0x5f9d
 17464 5f87 38       		.uleb128 0x38
 17465 5f88 01       		.uleb128 0x1
 17466 5f89 50       		.byte	0x50
 17467 5f8a 02       		.uleb128 0x2
 17468 5f8b 08       		.byte	0x8
 17469 5f8c 6E       		.byte	0x6e
 17470 5f8d 38       		.uleb128 0x38
 17471 5f8e 01       		.uleb128 0x1
 17472 5f8f 51       		.byte	0x51
 17473 5f90 02       		.uleb128 0x2
 17474 5f91 08       		.byte	0x8
 17475 5f92 36       		.byte	0x36
 17476 5f93 38       		.uleb128 0x38
 17477 5f94 01       		.uleb128 0x1
 17478 5f95 52       		.byte	0x52
 17479 5f96 05       		.uleb128 0x5
 17480 5f97 91       		.byte	0x91
 17481 5f98 B47F     		.sleb128 -76
 17482 5f9a 94       		.byte	0x94
 17483 5f9b 01       		.byte	0x1
 17484 5f9c 00       		.byte	0
 17485 5f9d 39       		.uleb128 0x39
 17486 5f9e 04020000 		.4byte	.LVL503
 17487 5fa2 7F630000 		.4byte	0x637f
 17488 5fa6 BF5F0000 		.4byte	0x5fbf
 17489 5faa 38       		.uleb128 0x38
 17490 5fab 01       		.uleb128 0x1
 17491 5fac 50       		.byte	0x50
 17492 5fad 02       		.uleb128 0x2
 17493 5fae 08       		.byte	0x8
 17494 5faf 6E       		.byte	0x6e
 17495 5fb0 38       		.uleb128 0x38
 17496 5fb1 01       		.uleb128 0x1
 17497 5fb2 51       		.byte	0x51
 17498 5fb3 02       		.uleb128 0x2
ARM GAS  C:\Users\mathi\AppData\Local\Temp\ccuMtzkg.s 			page 308


 17499 5fb4 08       		.byte	0x8
 17500 5fb5 37       		.byte	0x37
 17501 5fb6 38       		.uleb128 0x38
 17502 5fb7 01       		.uleb128 0x1
 17503 5fb8 52       		.byte	0x52
 17504 5fb9 04       		.uleb128 0x4
 17505 5fba 91       		.byte	0x91
 17506 5fbb 40       		.sleb128 -64
 17507 5fbc 94       		.byte	0x94
 17508 5fbd 01       		.byte	0x1
 17509 5fbe 00       		.byte	0
 17510 5fbf 39       		.uleb128 0x39
 17511 5fc0 14020000 		.4byte	.LVL505
 17512 5fc4 7F630000 		.4byte	0x637f
 17513 5fc8 E15F0000 		.4byte	0x5fe1
 17514 5fcc 38       		.uleb128 0x38
 17515 5fcd 01       		.uleb128 0x1
 17516 5fce 50       		.byte	0x50
 17517 5fcf 02       		.uleb128 0x2
 17518 5fd0 08       		.byte	0x8
 17519 5fd1 6E       		.byte	0x6e
 17520 5fd2 38       		.uleb128 0x38
 17521 5fd3 01       		.uleb128 0x1
 17522 5fd4 51       		.byte	0x51
 17523 5fd5 02       		.uleb128 0x2
 17524 5fd6 08       		.byte	0x8
 17525 5fd7 38       		.byte	0x38
 17526 5fd8 38       		.uleb128 0x38
 17527 5fd9 01       		.uleb128 0x1
 17528 5fda 52       		.byte	0x52
 17529 5fdb 04       		.uleb128 0x4
 17530 5fdc 91       		.byte	0x91
 17531 5fdd 44       		.sleb128 -60
 17532 5fde 94       		.byte	0x94
 17533 5fdf 01       		.byte	0x1
 17534 5fe0 00       		.byte	0
 17535 5fe1 39       		.uleb128 0x39
 17536 5fe2 24020000 		.4byte	.LVL507
 17537 5fe6 7F630000 		.4byte	0x637f
 17538 5fea 04600000 		.4byte	0x6004
 17539 5fee 38       		.uleb128 0x38
 17540 5fef 01       		.uleb128 0x1
 17541 5ff0 50       		.byte	0x50
 17542 5ff1 02       		.uleb128 0x2
 17543 5ff2 08       		.byte	0x8
 17544 5ff3 6E       		.byte	0x6e
 17545 5ff4 38       		.uleb128 0x38
 17546 5ff5 01       		.uleb128 0x1
 17547 5ff6 51       		.byte	0x51
 17548 5ff7 02       		.uleb128 0x2
 17549 5ff8 08       		.byte	0x8
 17550 5ff9 39       		.byte	0x39
 17551 5ffa 38       		.uleb128 0x38
 17552 5ffb 01       		.uleb128 0x1
 17553 5ffc 52       		.byte	0x52
 17554 5ffd 05       		.uleb128 0x5
 17555 5ffe 91       		.byte	0x91
ARM GAS  C:\Users\mathi\AppData\Local\Temp\ccuMtzkg.s 			page 309


 17556 5fff B87F     		.sleb128 -72
 17557 6001 94       		.byte	0x94
 17558 6002 01       		.byte	0x1
 17559 6003 00       		.byte	0
 17560 6004 39       		.uleb128 0x39
 17561 6005 34020000 		.4byte	.LVL509
 17562 6009 7F630000 		.4byte	0x637f
 17563 600d 27600000 		.4byte	0x6027
 17564 6011 38       		.uleb128 0x38
 17565 6012 01       		.uleb128 0x1
 17566 6013 50       		.byte	0x50
 17567 6014 02       		.uleb128 0x2
 17568 6015 08       		.byte	0x8
 17569 6016 6E       		.byte	0x6e
 17570 6017 38       		.uleb128 0x38
 17571 6018 01       		.uleb128 0x1
 17572 6019 51       		.byte	0x51
 17573 601a 02       		.uleb128 0x2
 17574 601b 08       		.byte	0x8
 17575 601c 3A       		.byte	0x3a
 17576 601d 38       		.uleb128 0x38
 17577 601e 01       		.uleb128 0x1
 17578 601f 52       		.byte	0x52
 17579 6020 05       		.uleb128 0x5
 17580 6021 91       		.byte	0x91
 17581 6022 BC7F     		.sleb128 -68
 17582 6024 94       		.byte	0x94
 17583 6025 01       		.byte	0x1
 17584 6026 00       		.byte	0
 17585 6027 39       		.uleb128 0x39
 17586 6028 44020000 		.4byte	.LVL511
 17587 602c 7F630000 		.4byte	0x637f
 17588 6030 49600000 		.4byte	0x6049
 17589 6034 38       		.uleb128 0x38
 17590 6035 01       		.uleb128 0x1
 17591 6036 50       		.byte	0x50
 17592 6037 02       		.uleb128 0x2
 17593 6038 08       		.byte	0x8
 17594 6039 6E       		.byte	0x6e
 17595 603a 38       		.uleb128 0x38
 17596 603b 01       		.uleb128 0x1
 17597 603c 51       		.byte	0x51
 17598 603d 02       		.uleb128 0x2
 17599 603e 08       		.byte	0x8
 17600 603f 3B       		.byte	0x3b
 17601 6040 38       		.uleb128 0x38
 17602 6041 01       		.uleb128 0x1
 17603 6042 52       		.byte	0x52
 17604 6043 04       		.uleb128 0x4
 17605 6044 91       		.byte	0x91
 17606 6045 48       		.sleb128 -56
 17607 6046 94       		.byte	0x94
 17608 6047 01       		.byte	0x1
 17609 6048 00       		.byte	0
 17610 6049 39       		.uleb128 0x39
 17611 604a 54020000 		.4byte	.LVL513
 17612 604e 7F630000 		.4byte	0x637f
ARM GAS  C:\Users\mathi\AppData\Local\Temp\ccuMtzkg.s 			page 310


 17613 6052 6B600000 		.4byte	0x606b
 17614 6056 38       		.uleb128 0x38
 17615 6057 01       		.uleb128 0x1
 17616 6058 50       		.byte	0x50
 17617 6059 02       		.uleb128 0x2
 17618 605a 08       		.byte	0x8
 17619 605b 6E       		.byte	0x6e
 17620 605c 38       		.uleb128 0x38
 17621 605d 01       		.uleb128 0x1
 17622 605e 51       		.byte	0x51
 17623 605f 02       		.uleb128 0x2
 17624 6060 08       		.byte	0x8
 17625 6061 3C       		.byte	0x3c
 17626 6062 38       		.uleb128 0x38
 17627 6063 01       		.uleb128 0x1
 17628 6064 52       		.byte	0x52
 17629 6065 04       		.uleb128 0x4
 17630 6066 91       		.byte	0x91
 17631 6067 4C       		.sleb128 -52
 17632 6068 94       		.byte	0x94
 17633 6069 01       		.byte	0x1
 17634 606a 00       		.byte	0
 17635 606b 39       		.uleb128 0x39
 17636 606c 68020000 		.4byte	.LVL515
 17637 6070 7F630000 		.4byte	0x637f
 17638 6074 92600000 		.4byte	0x6092
 17639 6078 38       		.uleb128 0x38
 17640 6079 01       		.uleb128 0x1
 17641 607a 50       		.byte	0x50
 17642 607b 02       		.uleb128 0x2
 17643 607c 08       		.byte	0x8
 17644 607d 6E       		.byte	0x6e
 17645 607e 38       		.uleb128 0x38
 17646 607f 01       		.uleb128 0x1
 17647 6080 51       		.byte	0x51
 17648 6081 02       		.uleb128 0x2
 17649 6082 08       		.byte	0x8
 17650 6083 3D       		.byte	0x3d
 17651 6084 38       		.uleb128 0x38
 17652 6085 01       		.uleb128 0x1
 17653 6086 52       		.byte	0x52
 17654 6087 09       		.uleb128 0x9
 17655 6088 7D       		.byte	0x7d
 17656 6089 00       		.sleb128 0
 17657 608a 06       		.byte	0x6
 17658 608b 09       		.byte	0x9
 17659 608c F4       		.byte	0xf4
 17660 608d 24       		.byte	0x24
 17661 608e 09       		.byte	0x9
 17662 608f FC       		.byte	0xfc
 17663 6090 25       		.byte	0x25
 17664 6091 00       		.byte	0
 17665 6092 39       		.uleb128 0x39
 17666 6093 7A020000 		.4byte	.LVL517
 17667 6097 7F630000 		.4byte	0x637f
 17668 609b B4600000 		.4byte	0x60b4
 17669 609f 38       		.uleb128 0x38
ARM GAS  C:\Users\mathi\AppData\Local\Temp\ccuMtzkg.s 			page 311


 17670 60a0 01       		.uleb128 0x1
 17671 60a1 50       		.byte	0x50
 17672 60a2 02       		.uleb128 0x2
 17673 60a3 08       		.byte	0x8
 17674 60a4 6E       		.byte	0x6e
 17675 60a5 38       		.uleb128 0x38
 17676 60a6 01       		.uleb128 0x1
 17677 60a7 51       		.byte	0x51
 17678 60a8 02       		.uleb128 0x2
 17679 60a9 08       		.byte	0x8
 17680 60aa 3E       		.byte	0x3e
 17681 60ab 38       		.uleb128 0x38
 17682 60ac 01       		.uleb128 0x1
 17683 60ad 52       		.byte	0x52
 17684 60ae 04       		.uleb128 0x4
 17685 60af 7D       		.byte	0x7d
 17686 60b0 00       		.sleb128 0
 17687 60b1 94       		.byte	0x94
 17688 60b2 01       		.byte	0x1
 17689 60b3 00       		.byte	0
 17690 60b4 39       		.uleb128 0x39
 17691 60b5 8E020000 		.4byte	.LVL519
 17692 60b9 7F630000 		.4byte	0x637f
 17693 60bd DC600000 		.4byte	0x60dc
 17694 60c1 38       		.uleb128 0x38
 17695 60c2 01       		.uleb128 0x1
 17696 60c3 50       		.byte	0x50
 17697 60c4 02       		.uleb128 0x2
 17698 60c5 08       		.byte	0x8
 17699 60c6 6E       		.byte	0x6e
 17700 60c7 38       		.uleb128 0x38
 17701 60c8 01       		.uleb128 0x1
 17702 60c9 51       		.byte	0x51
 17703 60ca 02       		.uleb128 0x2
 17704 60cb 08       		.byte	0x8
 17705 60cc 3F       		.byte	0x3f
 17706 60cd 38       		.uleb128 0x38
 17707 60ce 01       		.uleb128 0x1
 17708 60cf 52       		.byte	0x52
 17709 60d0 0A       		.uleb128 0xa
 17710 60d1 91       		.byte	0x91
 17711 60d2 A47F     		.sleb128 -92
 17712 60d4 06       		.byte	0x6
 17713 60d5 09       		.byte	0x9
 17714 60d6 F4       		.byte	0xf4
 17715 60d7 24       		.byte	0x24
 17716 60d8 09       		.byte	0x9
 17717 60d9 FC       		.byte	0xfc
 17718 60da 25       		.byte	0x25
 17719 60db 00       		.byte	0
 17720 60dc 39       		.uleb128 0x39
 17721 60dd A0020000 		.4byte	.LVL521
 17722 60e1 7F630000 		.4byte	0x637f
 17723 60e5 FF600000 		.4byte	0x60ff
 17724 60e9 38       		.uleb128 0x38
 17725 60ea 01       		.uleb128 0x1
 17726 60eb 50       		.byte	0x50
ARM GAS  C:\Users\mathi\AppData\Local\Temp\ccuMtzkg.s 			page 312


 17727 60ec 02       		.uleb128 0x2
 17728 60ed 08       		.byte	0x8
 17729 60ee 6E       		.byte	0x6e
 17730 60ef 38       		.uleb128 0x38
 17731 60f0 01       		.uleb128 0x1
 17732 60f1 51       		.byte	0x51
 17733 60f2 02       		.uleb128 0x2
 17734 60f3 08       		.byte	0x8
 17735 60f4 40       		.byte	0x40
 17736 60f5 38       		.uleb128 0x38
 17737 60f6 01       		.uleb128 0x1
 17738 60f7 52       		.byte	0x52
 17739 60f8 05       		.uleb128 0x5
 17740 60f9 91       		.byte	0x91
 17741 60fa A47F     		.sleb128 -92
 17742 60fc 94       		.byte	0x94
 17743 60fd 01       		.byte	0x1
 17744 60fe 00       		.byte	0
 17745 60ff 39       		.uleb128 0x39
 17746 6100 B4020000 		.4byte	.LVL523
 17747 6104 7F630000 		.4byte	0x637f
 17748 6108 27610000 		.4byte	0x6127
 17749 610c 38       		.uleb128 0x38
 17750 610d 01       		.uleb128 0x1
 17751 610e 50       		.byte	0x50
 17752 610f 02       		.uleb128 0x2
 17753 6110 08       		.byte	0x8
 17754 6111 6E       		.byte	0x6e
 17755 6112 38       		.uleb128 0x38
 17756 6113 01       		.uleb128 0x1
 17757 6114 51       		.byte	0x51
 17758 6115 02       		.uleb128 0x2
 17759 6116 08       		.byte	0x8
 17760 6117 41       		.byte	0x41
 17761 6118 38       		.uleb128 0x38
 17762 6119 01       		.uleb128 0x1
 17763 611a 52       		.byte	0x52
 17764 611b 0A       		.uleb128 0xa
 17765 611c 91       		.byte	0x91
 17766 611d A87F     		.sleb128 -88
 17767 611f 06       		.byte	0x6
 17768 6120 09       		.byte	0x9
 17769 6121 F4       		.byte	0xf4
 17770 6122 24       		.byte	0x24
 17771 6123 09       		.byte	0x9
 17772 6124 FC       		.byte	0xfc
 17773 6125 25       		.byte	0x25
 17774 6126 00       		.byte	0
 17775 6127 39       		.uleb128 0x39
 17776 6128 C6020000 		.4byte	.LVL525
 17777 612c 7F630000 		.4byte	0x637f
 17778 6130 4A610000 		.4byte	0x614a
 17779 6134 38       		.uleb128 0x38
 17780 6135 01       		.uleb128 0x1
 17781 6136 50       		.byte	0x50
 17782 6137 02       		.uleb128 0x2
 17783 6138 08       		.byte	0x8
ARM GAS  C:\Users\mathi\AppData\Local\Temp\ccuMtzkg.s 			page 313


 17784 6139 6E       		.byte	0x6e
 17785 613a 38       		.uleb128 0x38
 17786 613b 01       		.uleb128 0x1
 17787 613c 51       		.byte	0x51
 17788 613d 02       		.uleb128 0x2
 17789 613e 08       		.byte	0x8
 17790 613f 42       		.byte	0x42
 17791 6140 38       		.uleb128 0x38
 17792 6141 01       		.uleb128 0x1
 17793 6142 52       		.byte	0x52
 17794 6143 05       		.uleb128 0x5
 17795 6144 91       		.byte	0x91
 17796 6145 A87F     		.sleb128 -88
 17797 6147 94       		.byte	0x94
 17798 6148 01       		.byte	0x1
 17799 6149 00       		.byte	0
 17800 614a 39       		.uleb128 0x39
 17801 614b DA020000 		.4byte	.LVL527
 17802 614f 7F630000 		.4byte	0x637f
 17803 6153 72610000 		.4byte	0x6172
 17804 6157 38       		.uleb128 0x38
 17805 6158 01       		.uleb128 0x1
 17806 6159 50       		.byte	0x50
 17807 615a 02       		.uleb128 0x2
 17808 615b 08       		.byte	0x8
 17809 615c 6E       		.byte	0x6e
 17810 615d 38       		.uleb128 0x38
 17811 615e 01       		.uleb128 0x1
 17812 615f 51       		.byte	0x51
 17813 6160 02       		.uleb128 0x2
 17814 6161 08       		.byte	0x8
 17815 6162 43       		.byte	0x43
 17816 6163 38       		.uleb128 0x38
 17817 6164 01       		.uleb128 0x1
 17818 6165 52       		.byte	0x52
 17819 6166 0A       		.uleb128 0xa
 17820 6167 91       		.byte	0x91
 17821 6168 AC7F     		.sleb128 -84
 17822 616a 06       		.byte	0x6
 17823 616b 09       		.byte	0x9
 17824 616c F4       		.byte	0xf4
 17825 616d 24       		.byte	0x24
 17826 616e 09       		.byte	0x9
 17827 616f FC       		.byte	0xfc
 17828 6170 25       		.byte	0x25
 17829 6171 00       		.byte	0
 17830 6172 39       		.uleb128 0x39
 17831 6173 EC020000 		.4byte	.LVL529
 17832 6177 7F630000 		.4byte	0x637f
 17833 617b 95610000 		.4byte	0x6195
 17834 617f 38       		.uleb128 0x38
 17835 6180 01       		.uleb128 0x1
 17836 6181 50       		.byte	0x50
 17837 6182 02       		.uleb128 0x2
 17838 6183 08       		.byte	0x8
 17839 6184 6E       		.byte	0x6e
 17840 6185 38       		.uleb128 0x38
ARM GAS  C:\Users\mathi\AppData\Local\Temp\ccuMtzkg.s 			page 314


 17841 6186 01       		.uleb128 0x1
 17842 6187 51       		.byte	0x51
 17843 6188 02       		.uleb128 0x2
 17844 6189 08       		.byte	0x8
 17845 618a 44       		.byte	0x44
 17846 618b 38       		.uleb128 0x38
 17847 618c 01       		.uleb128 0x1
 17848 618d 52       		.byte	0x52
 17849 618e 05       		.uleb128 0x5
 17850 618f 91       		.byte	0x91
 17851 6190 AC7F     		.sleb128 -84
 17852 6192 94       		.byte	0x94
 17853 6193 01       		.byte	0x1
 17854 6194 00       		.byte	0
 17855 6195 39       		.uleb128 0x39
 17856 6196 0C030000 		.4byte	.LVL533
 17857 619a 7F630000 		.4byte	0x637f
 17858 619e B5610000 		.4byte	0x61b5
 17859 61a2 38       		.uleb128 0x38
 17860 61a3 01       		.uleb128 0x1
 17861 61a4 50       		.byte	0x50
 17862 61a5 02       		.uleb128 0x2
 17863 61a6 08       		.byte	0x8
 17864 61a7 6E       		.byte	0x6e
 17865 61a8 38       		.uleb128 0x38
 17866 61a9 01       		.uleb128 0x1
 17867 61aa 51       		.byte	0x51
 17868 61ab 02       		.uleb128 0x2
 17869 61ac 09       		.byte	0x9
 17870 61ad 93       		.byte	0x93
 17871 61ae 38       		.uleb128 0x38
 17872 61af 01       		.uleb128 0x1
 17873 61b0 52       		.byte	0x52
 17874 61b1 02       		.uleb128 0x2
 17875 61b2 79       		.byte	0x79
 17876 61b3 00       		.sleb128 0
 17877 61b4 00       		.byte	0
 17878 61b5 39       		.uleb128 0x39
 17879 61b6 1C030000 		.4byte	.LVL535
 17880 61ba 7F630000 		.4byte	0x637f
 17881 61be D5610000 		.4byte	0x61d5
 17882 61c2 38       		.uleb128 0x38
 17883 61c3 01       		.uleb128 0x1
 17884 61c4 50       		.byte	0x50
 17885 61c5 02       		.uleb128 0x2
 17886 61c6 08       		.byte	0x8
 17887 61c7 6E       		.byte	0x6e
 17888 61c8 38       		.uleb128 0x38
 17889 61c9 01       		.uleb128 0x1
 17890 61ca 51       		.byte	0x51
 17891 61cb 02       		.uleb128 0x2
 17892 61cc 09       		.byte	0x9
 17893 61cd 94       		.byte	0x94
 17894 61ce 38       		.uleb128 0x38
 17895 61cf 01       		.uleb128 0x1
 17896 61d0 52       		.byte	0x52
 17897 61d1 02       		.uleb128 0x2
ARM GAS  C:\Users\mathi\AppData\Local\Temp\ccuMtzkg.s 			page 315


 17898 61d2 7B       		.byte	0x7b
 17899 61d3 00       		.sleb128 0
 17900 61d4 00       		.byte	0
 17901 61d5 39       		.uleb128 0x39
 17902 61d6 84030000 		.4byte	.LVL545
 17903 61da 7F630000 		.4byte	0x637f
 17904 61de FC610000 		.4byte	0x61fc
 17905 61e2 38       		.uleb128 0x38
 17906 61e3 01       		.uleb128 0x1
 17907 61e4 50       		.byte	0x50
 17908 61e5 02       		.uleb128 0x2
 17909 61e6 08       		.byte	0x8
 17910 61e7 6E       		.byte	0x6e
 17911 61e8 38       		.uleb128 0x38
 17912 61e9 01       		.uleb128 0x1
 17913 61ea 51       		.byte	0x51
 17914 61eb 02       		.uleb128 0x2
 17915 61ec 09       		.byte	0x9
 17916 61ed 95       		.byte	0x95
 17917 61ee 38       		.uleb128 0x38
 17918 61ef 01       		.uleb128 0x1
 17919 61f0 52       		.byte	0x52
 17920 61f1 09       		.uleb128 0x9
 17921 61f2 7D       		.byte	0x7d
 17922 61f3 00       		.sleb128 0
 17923 61f4 06       		.byte	0x6
 17924 61f5 09       		.byte	0x9
 17925 61f6 F4       		.byte	0xf4
 17926 61f7 24       		.byte	0x24
 17927 61f8 09       		.byte	0x9
 17928 61f9 FC       		.byte	0xfc
 17929 61fa 25       		.byte	0x25
 17930 61fb 00       		.byte	0
 17931 61fc 39       		.uleb128 0x39
 17932 61fd 96030000 		.4byte	.LVL547
 17933 6201 7F630000 		.4byte	0x637f
 17934 6205 1E620000 		.4byte	0x621e
 17935 6209 38       		.uleb128 0x38
 17936 620a 01       		.uleb128 0x1
 17937 620b 50       		.byte	0x50
 17938 620c 02       		.uleb128 0x2
 17939 620d 08       		.byte	0x8
 17940 620e 6E       		.byte	0x6e
 17941 620f 38       		.uleb128 0x38
 17942 6210 01       		.uleb128 0x1
 17943 6211 51       		.byte	0x51
 17944 6212 02       		.uleb128 0x2
 17945 6213 09       		.byte	0x9
 17946 6214 96       		.byte	0x96
 17947 6215 38       		.uleb128 0x38
 17948 6216 01       		.uleb128 0x1
 17949 6217 52       		.byte	0x52
 17950 6218 04       		.uleb128 0x4
 17951 6219 7D       		.byte	0x7d
 17952 621a 00       		.sleb128 0
 17953 621b 94       		.byte	0x94
 17954 621c 01       		.byte	0x1
ARM GAS  C:\Users\mathi\AppData\Local\Temp\ccuMtzkg.s 			page 316


 17955 621d 00       		.byte	0
 17956 621e 30       		.uleb128 0x30
 17957 621f 80040000 		.4byte	.LVL591
 17958 6223 76630000 		.4byte	0x6376
 17959 6227 00       		.byte	0
 17960 6228 50       		.uleb128 0x50
 17961 6229 383B0000 		.4byte	0x3b38
 17962 622d 00000000 		.4byte	.LFB271
 17963 6231 64000000 		.4byte	.LFE271-.LFB271
 17964 6235 01       		.uleb128 0x1
 17965 6236 9C       		.byte	0x9c
 17966 6237 CF620000 		.4byte	0x62cf
 17967 623b 34       		.uleb128 0x34
 17968 623c 493B0000 		.4byte	0x3b49
 17969 6240 0F150000 		.4byte	.LLST91
 17970 6244 47       		.uleb128 0x47
 17971 6245 553B0000 		.4byte	0x3b55
 17972 6249 30150000 		.4byte	.LLST92
 17973 624d 55       		.uleb128 0x55
 17974 624e 613B0000 		.4byte	0x3b61
 17975 6252 02       		.uleb128 0x2
 17976 6253 91       		.byte	0x91
 17977 6254 6B       		.sleb128 -21
 17978 6255 33       		.uleb128 0x33
 17979 6256 63460000 		.4byte	0x4663
 17980 625a 0E000000 		.4byte	.LBB278
 17981 625e 20010000 		.4byte	.Ldebug_ranges0+0x120
 17982 6262 01       		.byte	0x1
 17983 6263 A703     		.2byte	0x3a7
 17984 6265 8D620000 		.4byte	0x628d
 17985 6269 34       		.uleb128 0x34
 17986 626a 73460000 		.4byte	0x4673
 17987 626e 4F150000 		.4byte	.LLST93
 17988 6272 37       		.uleb128 0x37
 17989 6273 1C000000 		.4byte	.LVL622
 17990 6277 7F630000 		.4byte	0x637f
 17991 627b 38       		.uleb128 0x38
 17992 627c 01       		.uleb128 0x1
 17993 627d 50       		.byte	0x50
 17994 627e 02       		.uleb128 0x2
 17995 627f 08       		.byte	0x8
 17996 6280 6E       		.byte	0x6e
 17997 6281 38       		.uleb128 0x38
 17998 6282 01       		.uleb128 0x1
 17999 6283 51       		.byte	0x51
 18000 6284 01       		.uleb128 0x1
 18001 6285 33       		.byte	0x33
 18002 6286 38       		.uleb128 0x38
 18003 6287 01       		.uleb128 0x1
 18004 6288 52       		.byte	0x52
 18005 6289 01       		.uleb128 0x1
 18006 628a 32       		.byte	0x32
 18007 628b 00       		.byte	0
 18008 628c 00       		.byte	0
 18009 628d 39       		.uleb128 0x39
 18010 628e 36000000 		.4byte	.LVL623
 18011 6292 8A630000 		.4byte	0x638a
ARM GAS  C:\Users\mathi\AppData\Local\Temp\ccuMtzkg.s 			page 317


 18012 6296 AC620000 		.4byte	0x62ac
 18013 629a 38       		.uleb128 0x38
 18014 629b 01       		.uleb128 0x1
 18015 629c 50       		.byte	0x50
 18016 629d 02       		.uleb128 0x2
 18017 629e 08       		.byte	0x8
 18018 629f 6E       		.byte	0x6e
 18019 62a0 38       		.uleb128 0x38
 18020 62a1 01       		.uleb128 0x1
 18021 62a2 51       		.byte	0x51
 18022 62a3 01       		.uleb128 0x1
 18023 62a4 34       		.byte	0x34
 18024 62a5 38       		.uleb128 0x38
 18025 62a6 01       		.uleb128 0x1
 18026 62a7 52       		.byte	0x52
 18027 62a8 02       		.uleb128 0x2
 18028 62a9 91       		.byte	0x91
 18029 62aa 6B       		.sleb128 -21
 18030 62ab 00       		.byte	0
 18031 62ac 39       		.uleb128 0x39
 18032 62ad 58000000 		.4byte	.LVL625
 18033 62b1 7F630000 		.4byte	0x637f
 18034 62b5 C5620000 		.4byte	0x62c5
 18035 62b9 38       		.uleb128 0x38
 18036 62ba 01       		.uleb128 0x1
 18037 62bb 50       		.byte	0x50
 18038 62bc 02       		.uleb128 0x2
 18039 62bd 08       		.byte	0x8
 18040 62be 6E       		.byte	0x6e
 18041 62bf 38       		.uleb128 0x38
 18042 62c0 01       		.uleb128 0x1
 18043 62c1 51       		.byte	0x51
 18044 62c2 01       		.uleb128 0x1
 18045 62c3 34       		.byte	0x34
 18046 62c4 00       		.byte	0
 18047 62c5 30       		.uleb128 0x30
 18048 62c6 5E000000 		.4byte	.LVL626
 18049 62ca 76630000 		.4byte	0x6376
 18050 62ce 00       		.byte	0
 18051 62cf 50       		.uleb128 0x50
 18052 62d0 78390000 		.4byte	0x3978
 18053 62d4 00000000 		.4byte	.LFB273
 18054 62d8 64000000 		.4byte	.LFE273-.LFB273
 18055 62dc 01       		.uleb128 0x1
 18056 62dd 9C       		.byte	0x9c
 18057 62de 76630000 		.4byte	0x6376
 18058 62e2 34       		.uleb128 0x34
 18059 62e3 89390000 		.4byte	0x3989
 18060 62e7 63150000 		.4byte	.LLST101
 18061 62eb 47       		.uleb128 0x47
 18062 62ec 94390000 		.4byte	0x3994
 18063 62f0 84150000 		.4byte	.LLST102
 18064 62f4 55       		.uleb128 0x55
 18065 62f5 A0390000 		.4byte	0x39a0
 18066 62f9 02       		.uleb128 0x2
 18067 62fa 91       		.byte	0x91
 18068 62fb 6B       		.sleb128 -21
ARM GAS  C:\Users\mathi\AppData\Local\Temp\ccuMtzkg.s 			page 318


 18069 62fc 33       		.uleb128 0x33
 18070 62fd 63460000 		.4byte	0x4663
 18071 6301 0E000000 		.4byte	.LBB300
 18072 6305 68010000 		.4byte	.Ldebug_ranges0+0x168
 18073 6309 01       		.byte	0x1
 18074 630a DD03     		.2byte	0x3dd
 18075 630c 34630000 		.4byte	0x6334
 18076 6310 34       		.uleb128 0x34
 18077 6311 73460000 		.4byte	0x4673
 18078 6315 A3150000 		.4byte	.LLST103
 18079 6319 37       		.uleb128 0x37
 18080 631a 1C000000 		.4byte	.LVL652
 18081 631e 7F630000 		.4byte	0x637f
 18082 6322 38       		.uleb128 0x38
 18083 6323 01       		.uleb128 0x1
 18084 6324 50       		.byte	0x50
 18085 6325 02       		.uleb128 0x2
 18086 6326 08       		.byte	0x8
 18087 6327 6E       		.byte	0x6e
 18088 6328 38       		.uleb128 0x38
 18089 6329 01       		.uleb128 0x1
 18090 632a 51       		.byte	0x51
 18091 632b 01       		.uleb128 0x1
 18092 632c 33       		.byte	0x33
 18093 632d 38       		.uleb128 0x38
 18094 632e 01       		.uleb128 0x1
 18095 632f 52       		.byte	0x52
 18096 6330 01       		.uleb128 0x1
 18097 6331 32       		.byte	0x32
 18098 6332 00       		.byte	0
 18099 6333 00       		.byte	0
 18100 6334 39       		.uleb128 0x39
 18101 6335 36000000 		.4byte	.LVL653
 18102 6339 8A630000 		.4byte	0x638a
 18103 633d 53630000 		.4byte	0x6353
 18104 6341 38       		.uleb128 0x38
 18105 6342 01       		.uleb128 0x1
 18106 6343 50       		.byte	0x50
 18107 6344 02       		.uleb128 0x2
 18108 6345 08       		.byte	0x8
 18109 6346 6E       		.byte	0x6e
 18110 6347 38       		.uleb128 0x38
 18111 6348 01       		.uleb128 0x1
 18112 6349 51       		.byte	0x51
 18113 634a 01       		.uleb128 0x1
 18114 634b 34       		.byte	0x34
 18115 634c 38       		.uleb128 0x38
 18116 634d 01       		.uleb128 0x1
 18117 634e 52       		.byte	0x52
 18118 634f 02       		.uleb128 0x2
 18119 6350 91       		.byte	0x91
 18120 6351 6B       		.sleb128 -21
 18121 6352 00       		.byte	0
 18122 6353 39       		.uleb128 0x39
 18123 6354 58000000 		.4byte	.LVL655
 18124 6358 7F630000 		.4byte	0x637f
 18125 635c 6C630000 		.4byte	0x636c
ARM GAS  C:\Users\mathi\AppData\Local\Temp\ccuMtzkg.s 			page 319


 18126 6360 38       		.uleb128 0x38
 18127 6361 01       		.uleb128 0x1
 18128 6362 50       		.byte	0x50
 18129 6363 02       		.uleb128 0x2
 18130 6364 08       		.byte	0x8
 18131 6365 6E       		.byte	0x6e
 18132 6366 38       		.uleb128 0x38
 18133 6367 01       		.uleb128 0x1
 18134 6368 51       		.byte	0x51
 18135 6369 01       		.uleb128 0x1
 18136 636a 34       		.byte	0x34
 18137 636b 00       		.byte	0
 18138 636c 30       		.uleb128 0x30
 18139 636d 5E000000 		.4byte	.LVL656
 18140 6371 76630000 		.4byte	0x6376
 18141 6375 00       		.byte	0
 18142 6376 56       		.uleb128 0x56
 18143 6377 56060000 		.4byte	.LASF803
 18144 637b 56060000 		.4byte	.LASF803
 18145 637f 57       		.uleb128 0x57
 18146 6380 03190000 		.4byte	.LASF794
 18147 6384 03190000 		.4byte	.LASF794
 18148 6388 35       		.byte	0x35
 18149 6389 2F       		.byte	0x2f
 18150 638a 57       		.uleb128 0x57
 18151 638b 44080000 		.4byte	.LASF795
 18152 638f 44080000 		.4byte	.LASF795
 18153 6393 35       		.byte	0x35
 18154 6394 24       		.byte	0x24
 18155 6395 57       		.uleb128 0x57
 18156 6396 CF1B0000 		.4byte	.LASF796
 18157 639a CF1B0000 		.4byte	.LASF796
 18158 639e 35       		.byte	0x35
 18159 639f 0D       		.byte	0xd
 18160 63a0 58       		.uleb128 0x58
 18161 63a1 56200000 		.4byte	.LASF797
 18162 63a5 56200000 		.4byte	.LASF797
 18163 63a9 27       		.byte	0x27
 18164 63aa 2101     		.2byte	0x121
 18165 63ac 58       		.uleb128 0x58
 18166 63ad 7D1E0000 		.4byte	.LASF798
 18167 63b1 7D1E0000 		.4byte	.LASF798
 18168 63b5 27       		.byte	0x27
 18169 63b6 2401     		.2byte	0x124
 18170 63b8 00       		.byte	0
 18171              		.section	.debug_abbrev,"",%progbits
 18172              	.Ldebug_abbrev0:
 18173 0000 01       		.uleb128 0x1
 18174 0001 11       		.uleb128 0x11
 18175 0002 01       		.byte	0x1
 18176 0003 25       		.uleb128 0x25
 18177 0004 0E       		.uleb128 0xe
 18178 0005 13       		.uleb128 0x13
 18179 0006 0B       		.uleb128 0xb
 18180 0007 03       		.uleb128 0x3
 18181 0008 0E       		.uleb128 0xe
 18182 0009 1B       		.uleb128 0x1b
ARM GAS  C:\Users\mathi\AppData\Local\Temp\ccuMtzkg.s 			page 320


 18183 000a 0E       		.uleb128 0xe
 18184 000b 55       		.uleb128 0x55
 18185 000c 17       		.uleb128 0x17
 18186 000d 11       		.uleb128 0x11
 18187 000e 01       		.uleb128 0x1
 18188 000f 10       		.uleb128 0x10
 18189 0010 17       		.uleb128 0x17
 18190 0011 00       		.byte	0
 18191 0012 00       		.byte	0
 18192 0013 02       		.uleb128 0x2
 18193 0014 24       		.uleb128 0x24
 18194 0015 00       		.byte	0
 18195 0016 0B       		.uleb128 0xb
 18196 0017 0B       		.uleb128 0xb
 18197 0018 3E       		.uleb128 0x3e
 18198 0019 0B       		.uleb128 0xb
 18199 001a 03       		.uleb128 0x3
 18200 001b 0E       		.uleb128 0xe
 18201 001c 00       		.byte	0
 18202 001d 00       		.byte	0
 18203 001e 03       		.uleb128 0x3
 18204 001f 24       		.uleb128 0x24
 18205 0020 00       		.byte	0
 18206 0021 0B       		.uleb128 0xb
 18207 0022 0B       		.uleb128 0xb
 18208 0023 3E       		.uleb128 0x3e
 18209 0024 0B       		.uleb128 0xb
 18210 0025 03       		.uleb128 0x3
 18211 0026 08       		.uleb128 0x8
 18212 0027 00       		.byte	0
 18213 0028 00       		.byte	0
 18214 0029 04       		.uleb128 0x4
 18215 002a 16       		.uleb128 0x16
 18216 002b 00       		.byte	0
 18217 002c 03       		.uleb128 0x3
 18218 002d 0E       		.uleb128 0xe
 18219 002e 3A       		.uleb128 0x3a
 18220 002f 0B       		.uleb128 0xb
 18221 0030 3B       		.uleb128 0x3b
 18222 0031 0B       		.uleb128 0xb
 18223 0032 49       		.uleb128 0x49
 18224 0033 13       		.uleb128 0x13
 18225 0034 00       		.byte	0
 18226 0035 00       		.byte	0
 18227 0036 05       		.uleb128 0x5
 18228 0037 26       		.uleb128 0x26
 18229 0038 00       		.byte	0
 18230 0039 49       		.uleb128 0x49
 18231 003a 13       		.uleb128 0x13
 18232 003b 00       		.byte	0
 18233 003c 00       		.byte	0
 18234 003d 06       		.uleb128 0x6
 18235 003e 35       		.uleb128 0x35
 18236 003f 00       		.byte	0
 18237 0040 49       		.uleb128 0x49
 18238 0041 13       		.uleb128 0x13
 18239 0042 00       		.byte	0
ARM GAS  C:\Users\mathi\AppData\Local\Temp\ccuMtzkg.s 			page 321


 18240 0043 00       		.byte	0
 18241 0044 07       		.uleb128 0x7
 18242 0045 13       		.uleb128 0x13
 18243 0046 01       		.byte	0x1
 18244 0047 03       		.uleb128 0x3
 18245 0048 0E       		.uleb128 0xe
 18246 0049 0B       		.uleb128 0xb
 18247 004a 0B       		.uleb128 0xb
 18248 004b 3A       		.uleb128 0x3a
 18249 004c 0B       		.uleb128 0xb
 18250 004d 3B       		.uleb128 0x3b
 18251 004e 0B       		.uleb128 0xb
 18252 004f 01       		.uleb128 0x1
 18253 0050 13       		.uleb128 0x13
 18254 0051 00       		.byte	0
 18255 0052 00       		.byte	0
 18256 0053 08       		.uleb128 0x8
 18257 0054 0D       		.uleb128 0xd
 18258 0055 00       		.byte	0
 18259 0056 03       		.uleb128 0x3
 18260 0057 0E       		.uleb128 0xe
 18261 0058 3A       		.uleb128 0x3a
 18262 0059 0B       		.uleb128 0xb
 18263 005a 3B       		.uleb128 0x3b
 18264 005b 0B       		.uleb128 0xb
 18265 005c 49       		.uleb128 0x49
 18266 005d 13       		.uleb128 0x13
 18267 005e 38       		.uleb128 0x38
 18268 005f 0B       		.uleb128 0xb
 18269 0060 00       		.byte	0
 18270 0061 00       		.byte	0
 18271 0062 09       		.uleb128 0x9
 18272 0063 0D       		.uleb128 0xd
 18273 0064 00       		.byte	0
 18274 0065 03       		.uleb128 0x3
 18275 0066 08       		.uleb128 0x8
 18276 0067 3A       		.uleb128 0x3a
 18277 0068 0B       		.uleb128 0xb
 18278 0069 3B       		.uleb128 0x3b
 18279 006a 05       		.uleb128 0x5
 18280 006b 49       		.uleb128 0x49
 18281 006c 13       		.uleb128 0x13
 18282 006d 38       		.uleb128 0x38
 18283 006e 0B       		.uleb128 0xb
 18284 006f 00       		.byte	0
 18285 0070 00       		.byte	0
 18286 0071 0A       		.uleb128 0xa
 18287 0072 0D       		.uleb128 0xd
 18288 0073 00       		.byte	0
 18289 0074 03       		.uleb128 0x3
 18290 0075 0E       		.uleb128 0xe
 18291 0076 3A       		.uleb128 0x3a
 18292 0077 0B       		.uleb128 0xb
 18293 0078 3B       		.uleb128 0x3b
 18294 0079 05       		.uleb128 0x5
 18295 007a 49       		.uleb128 0x49
 18296 007b 13       		.uleb128 0x13
ARM GAS  C:\Users\mathi\AppData\Local\Temp\ccuMtzkg.s 			page 322


 18297 007c 38       		.uleb128 0x38
 18298 007d 0B       		.uleb128 0xb
 18299 007e 00       		.byte	0
 18300 007f 00       		.byte	0
 18301 0080 0B       		.uleb128 0xb
 18302 0081 0F       		.uleb128 0xf
 18303 0082 00       		.byte	0
 18304 0083 0B       		.uleb128 0xb
 18305 0084 0B       		.uleb128 0xb
 18306 0085 49       		.uleb128 0x49
 18307 0086 13       		.uleb128 0x13
 18308 0087 00       		.byte	0
 18309 0088 00       		.byte	0
 18310 0089 0C       		.uleb128 0xc
 18311 008a 13       		.uleb128 0x13
 18312 008b 01       		.byte	0x1
 18313 008c 03       		.uleb128 0x3
 18314 008d 0E       		.uleb128 0xe
 18315 008e 0B       		.uleb128 0xb
 18316 008f 0B       		.uleb128 0xb
 18317 0090 3A       		.uleb128 0x3a
 18318 0091 0B       		.uleb128 0xb
 18319 0092 3B       		.uleb128 0x3b
 18320 0093 05       		.uleb128 0x5
 18321 0094 01       		.uleb128 0x1
 18322 0095 13       		.uleb128 0x13
 18323 0096 00       		.byte	0
 18324 0097 00       		.byte	0
 18325 0098 0D       		.uleb128 0xd
 18326 0099 15       		.uleb128 0x15
 18327 009a 01       		.byte	0x1
 18328 009b 27       		.uleb128 0x27
 18329 009c 19       		.uleb128 0x19
 18330 009d 01       		.uleb128 0x1
 18331 009e 13       		.uleb128 0x13
 18332 009f 00       		.byte	0
 18333 00a0 00       		.byte	0
 18334 00a1 0E       		.uleb128 0xe
 18335 00a2 05       		.uleb128 0x5
 18336 00a3 00       		.byte	0
 18337 00a4 49       		.uleb128 0x49
 18338 00a5 13       		.uleb128 0x13
 18339 00a6 00       		.byte	0
 18340 00a7 00       		.byte	0
 18341 00a8 0F       		.uleb128 0xf
 18342 00a9 0F       		.uleb128 0xf
 18343 00aa 00       		.byte	0
 18344 00ab 0B       		.uleb128 0xb
 18345 00ac 0B       		.uleb128 0xb
 18346 00ad 00       		.byte	0
 18347 00ae 00       		.byte	0
 18348 00af 10       		.uleb128 0x10
 18349 00b0 13       		.uleb128 0x13
 18350 00b1 01       		.byte	0x1
 18351 00b2 03       		.uleb128 0x3
 18352 00b3 0E       		.uleb128 0xe
 18353 00b4 0B       		.uleb128 0xb
ARM GAS  C:\Users\mathi\AppData\Local\Temp\ccuMtzkg.s 			page 323


 18354 00b5 05       		.uleb128 0x5
 18355 00b6 3A       		.uleb128 0x3a
 18356 00b7 0B       		.uleb128 0xb
 18357 00b8 3B       		.uleb128 0x3b
 18358 00b9 05       		.uleb128 0x5
 18359 00ba 01       		.uleb128 0x1
 18360 00bb 13       		.uleb128 0x13
 18361 00bc 00       		.byte	0
 18362 00bd 00       		.byte	0
 18363 00be 11       		.uleb128 0x11
 18364 00bf 0D       		.uleb128 0xd
 18365 00c0 00       		.byte	0
 18366 00c1 03       		.uleb128 0x3
 18367 00c2 0E       		.uleb128 0xe
 18368 00c3 3A       		.uleb128 0x3a
 18369 00c4 0B       		.uleb128 0xb
 18370 00c5 3B       		.uleb128 0x3b
 18371 00c6 05       		.uleb128 0x5
 18372 00c7 49       		.uleb128 0x49
 18373 00c8 13       		.uleb128 0x13
 18374 00c9 38       		.uleb128 0x38
 18375 00ca 05       		.uleb128 0x5
 18376 00cb 00       		.byte	0
 18377 00cc 00       		.byte	0
 18378 00cd 12       		.uleb128 0x12
 18379 00ce 0D       		.uleb128 0xd
 18380 00cf 00       		.byte	0
 18381 00d0 03       		.uleb128 0x3
 18382 00d1 08       		.uleb128 0x8
 18383 00d2 3A       		.uleb128 0x3a
 18384 00d3 0B       		.uleb128 0xb
 18385 00d4 3B       		.uleb128 0x3b
 18386 00d5 05       		.uleb128 0x5
 18387 00d6 49       		.uleb128 0x49
 18388 00d7 13       		.uleb128 0x13
 18389 00d8 38       		.uleb128 0x38
 18390 00d9 05       		.uleb128 0x5
 18391 00da 00       		.byte	0
 18392 00db 00       		.byte	0
 18393 00dc 13       		.uleb128 0x13
 18394 00dd 01       		.uleb128 0x1
 18395 00de 01       		.byte	0x1
 18396 00df 49       		.uleb128 0x49
 18397 00e0 13       		.uleb128 0x13
 18398 00e1 01       		.uleb128 0x1
 18399 00e2 13       		.uleb128 0x13
 18400 00e3 00       		.byte	0
 18401 00e4 00       		.byte	0
 18402 00e5 14       		.uleb128 0x14
 18403 00e6 21       		.uleb128 0x21
 18404 00e7 00       		.byte	0
 18405 00e8 49       		.uleb128 0x49
 18406 00e9 13       		.uleb128 0x13
 18407 00ea 2F       		.uleb128 0x2f
 18408 00eb 0B       		.uleb128 0xb
 18409 00ec 00       		.byte	0
 18410 00ed 00       		.byte	0
ARM GAS  C:\Users\mathi\AppData\Local\Temp\ccuMtzkg.s 			page 324


 18411 00ee 15       		.uleb128 0x15
 18412 00ef 34       		.uleb128 0x34
 18413 00f0 00       		.byte	0
 18414 00f1 03       		.uleb128 0x3
 18415 00f2 0E       		.uleb128 0xe
 18416 00f3 3A       		.uleb128 0x3a
 18417 00f4 0B       		.uleb128 0xb
 18418 00f5 3B       		.uleb128 0x3b
 18419 00f6 05       		.uleb128 0x5
 18420 00f7 49       		.uleb128 0x49
 18421 00f8 13       		.uleb128 0x13
 18422 00f9 3F       		.uleb128 0x3f
 18423 00fa 19       		.uleb128 0x19
 18424 00fb 3C       		.uleb128 0x3c
 18425 00fc 19       		.uleb128 0x19
 18426 00fd 00       		.byte	0
 18427 00fe 00       		.byte	0
 18428 00ff 16       		.uleb128 0x16
 18429 0100 34       		.uleb128 0x34
 18430 0101 00       		.byte	0
 18431 0102 03       		.uleb128 0x3
 18432 0103 0E       		.uleb128 0xe
 18433 0104 3A       		.uleb128 0x3a
 18434 0105 0B       		.uleb128 0xb
 18435 0106 3B       		.uleb128 0x3b
 18436 0107 0B       		.uleb128 0xb
 18437 0108 49       		.uleb128 0x49
 18438 0109 13       		.uleb128 0x13
 18439 010a 3F       		.uleb128 0x3f
 18440 010b 19       		.uleb128 0x19
 18441 010c 3C       		.uleb128 0x3c
 18442 010d 19       		.uleb128 0x19
 18443 010e 00       		.byte	0
 18444 010f 00       		.byte	0
 18445 0110 17       		.uleb128 0x17
 18446 0111 13       		.uleb128 0x13
 18447 0112 01       		.byte	0x1
 18448 0113 0B       		.uleb128 0xb
 18449 0114 0B       		.uleb128 0xb
 18450 0115 3A       		.uleb128 0x3a
 18451 0116 0B       		.uleb128 0xb
 18452 0117 3B       		.uleb128 0x3b
 18453 0118 0B       		.uleb128 0xb
 18454 0119 01       		.uleb128 0x1
 18455 011a 13       		.uleb128 0x13
 18456 011b 00       		.byte	0
 18457 011c 00       		.byte	0
 18458 011d 18       		.uleb128 0x18
 18459 011e 0D       		.uleb128 0xd
 18460 011f 00       		.byte	0
 18461 0120 03       		.uleb128 0x3
 18462 0121 08       		.uleb128 0x8
 18463 0122 3A       		.uleb128 0x3a
 18464 0123 0B       		.uleb128 0xb
 18465 0124 3B       		.uleb128 0x3b
 18466 0125 0B       		.uleb128 0xb
 18467 0126 49       		.uleb128 0x49
ARM GAS  C:\Users\mathi\AppData\Local\Temp\ccuMtzkg.s 			page 325


 18468 0127 13       		.uleb128 0x13
 18469 0128 38       		.uleb128 0x38
 18470 0129 0B       		.uleb128 0xb
 18471 012a 00       		.byte	0
 18472 012b 00       		.byte	0
 18473 012c 19       		.uleb128 0x19
 18474 012d 13       		.uleb128 0x13
 18475 012e 01       		.byte	0x1
 18476 012f 0B       		.uleb128 0xb
 18477 0130 0B       		.uleb128 0xb
 18478 0131 3A       		.uleb128 0x3a
 18479 0132 0B       		.uleb128 0xb
 18480 0133 3B       		.uleb128 0x3b
 18481 0134 05       		.uleb128 0x5
 18482 0135 01       		.uleb128 0x1
 18483 0136 13       		.uleb128 0x13
 18484 0137 00       		.byte	0
 18485 0138 00       		.byte	0
 18486 0139 1A       		.uleb128 0x1a
 18487 013a 16       		.uleb128 0x16
 18488 013b 00       		.byte	0
 18489 013c 03       		.uleb128 0x3
 18490 013d 0E       		.uleb128 0xe
 18491 013e 3A       		.uleb128 0x3a
 18492 013f 0B       		.uleb128 0xb
 18493 0140 3B       		.uleb128 0x3b
 18494 0141 05       		.uleb128 0x5
 18495 0142 49       		.uleb128 0x49
 18496 0143 13       		.uleb128 0x13
 18497 0144 00       		.byte	0
 18498 0145 00       		.byte	0
 18499 0146 1B       		.uleb128 0x1b
 18500 0147 13       		.uleb128 0x13
 18501 0148 01       		.byte	0x1
 18502 0149 0B       		.uleb128 0xb
 18503 014a 05       		.uleb128 0x5
 18504 014b 3A       		.uleb128 0x3a
 18505 014c 0B       		.uleb128 0xb
 18506 014d 3B       		.uleb128 0x3b
 18507 014e 05       		.uleb128 0x5
 18508 014f 01       		.uleb128 0x1
 18509 0150 13       		.uleb128 0x13
 18510 0151 00       		.byte	0
 18511 0152 00       		.byte	0
 18512 0153 1C       		.uleb128 0x1c
 18513 0154 13       		.uleb128 0x13
 18514 0155 01       		.byte	0x1
 18515 0156 0B       		.uleb128 0xb
 18516 0157 05       		.uleb128 0x5
 18517 0158 3A       		.uleb128 0x3a
 18518 0159 0B       		.uleb128 0xb
 18519 015a 3B       		.uleb128 0x3b
 18520 015b 0B       		.uleb128 0xb
 18521 015c 01       		.uleb128 0x1
 18522 015d 13       		.uleb128 0x13
 18523 015e 00       		.byte	0
 18524 015f 00       		.byte	0
ARM GAS  C:\Users\mathi\AppData\Local\Temp\ccuMtzkg.s 			page 326


 18525 0160 1D       		.uleb128 0x1d
 18526 0161 17       		.uleb128 0x17
 18527 0162 01       		.byte	0x1
 18528 0163 0B       		.uleb128 0xb
 18529 0164 0B       		.uleb128 0xb
 18530 0165 3A       		.uleb128 0x3a
 18531 0166 0B       		.uleb128 0xb
 18532 0167 3B       		.uleb128 0x3b
 18533 0168 0B       		.uleb128 0xb
 18534 0169 01       		.uleb128 0x1
 18535 016a 13       		.uleb128 0x13
 18536 016b 00       		.byte	0
 18537 016c 00       		.byte	0
 18538 016d 1E       		.uleb128 0x1e
 18539 016e 0D       		.uleb128 0xd
 18540 016f 00       		.byte	0
 18541 0170 03       		.uleb128 0x3
 18542 0171 0E       		.uleb128 0xe
 18543 0172 3A       		.uleb128 0x3a
 18544 0173 0B       		.uleb128 0xb
 18545 0174 3B       		.uleb128 0x3b
 18546 0175 05       		.uleb128 0x5
 18547 0176 49       		.uleb128 0x49
 18548 0177 13       		.uleb128 0x13
 18549 0178 00       		.byte	0
 18550 0179 00       		.byte	0
 18551 017a 1F       		.uleb128 0x1f
 18552 017b 34       		.uleb128 0x34
 18553 017c 00       		.byte	0
 18554 017d 03       		.uleb128 0x3
 18555 017e 08       		.uleb128 0x8
 18556 017f 3A       		.uleb128 0x3a
 18557 0180 0B       		.uleb128 0xb
 18558 0181 3B       		.uleb128 0x3b
 18559 0182 05       		.uleb128 0x5
 18560 0183 49       		.uleb128 0x49
 18561 0184 13       		.uleb128 0x13
 18562 0185 3F       		.uleb128 0x3f
 18563 0186 19       		.uleb128 0x19
 18564 0187 3C       		.uleb128 0x3c
 18565 0188 19       		.uleb128 0x19
 18566 0189 00       		.byte	0
 18567 018a 00       		.byte	0
 18568 018b 20       		.uleb128 0x20
 18569 018c 15       		.uleb128 0x15
 18570 018d 01       		.byte	0x1
 18571 018e 27       		.uleb128 0x27
 18572 018f 19       		.uleb128 0x19
 18573 0190 49       		.uleb128 0x49
 18574 0191 13       		.uleb128 0x13
 18575 0192 01       		.uleb128 0x1
 18576 0193 13       		.uleb128 0x13
 18577 0194 00       		.byte	0
 18578 0195 00       		.byte	0
 18579 0196 21       		.uleb128 0x21
 18580 0197 04       		.uleb128 0x4
 18581 0198 01       		.byte	0x1
ARM GAS  C:\Users\mathi\AppData\Local\Temp\ccuMtzkg.s 			page 327


 18582 0199 3E       		.uleb128 0x3e
 18583 019a 0B       		.uleb128 0xb
 18584 019b 0B       		.uleb128 0xb
 18585 019c 0B       		.uleb128 0xb
 18586 019d 49       		.uleb128 0x49
 18587 019e 13       		.uleb128 0x13
 18588 019f 3A       		.uleb128 0x3a
 18589 01a0 0B       		.uleb128 0xb
 18590 01a1 3B       		.uleb128 0x3b
 18591 01a2 0B       		.uleb128 0xb
 18592 01a3 01       		.uleb128 0x1
 18593 01a4 13       		.uleb128 0x13
 18594 01a5 00       		.byte	0
 18595 01a6 00       		.byte	0
 18596 01a7 22       		.uleb128 0x22
 18597 01a8 28       		.uleb128 0x28
 18598 01a9 00       		.byte	0
 18599 01aa 03       		.uleb128 0x3
 18600 01ab 0E       		.uleb128 0xe
 18601 01ac 1C       		.uleb128 0x1c
 18602 01ad 0B       		.uleb128 0xb
 18603 01ae 00       		.byte	0
 18604 01af 00       		.byte	0
 18605 01b0 23       		.uleb128 0x23
 18606 01b1 0D       		.uleb128 0xd
 18607 01b2 00       		.byte	0
 18608 01b3 03       		.uleb128 0x3
 18609 01b4 08       		.uleb128 0x8
 18610 01b5 3A       		.uleb128 0x3a
 18611 01b6 0B       		.uleb128 0xb
 18612 01b7 3B       		.uleb128 0x3b
 18613 01b8 0B       		.uleb128 0xb
 18614 01b9 49       		.uleb128 0x49
 18615 01ba 13       		.uleb128 0x13
 18616 01bb 00       		.byte	0
 18617 01bc 00       		.byte	0
 18618 01bd 24       		.uleb128 0x24
 18619 01be 04       		.uleb128 0x4
 18620 01bf 01       		.byte	0x1
 18621 01c0 3E       		.uleb128 0x3e
 18622 01c1 0B       		.uleb128 0xb
 18623 01c2 0B       		.uleb128 0xb
 18624 01c3 0B       		.uleb128 0xb
 18625 01c4 49       		.uleb128 0x49
 18626 01c5 13       		.uleb128 0x13
 18627 01c6 3A       		.uleb128 0x3a
 18628 01c7 0B       		.uleb128 0xb
 18629 01c8 3B       		.uleb128 0x3b
 18630 01c9 05       		.uleb128 0x5
 18631 01ca 01       		.uleb128 0x1
 18632 01cb 13       		.uleb128 0x13
 18633 01cc 00       		.byte	0
 18634 01cd 00       		.byte	0
 18635 01ce 25       		.uleb128 0x25
 18636 01cf 26       		.uleb128 0x26
 18637 01d0 00       		.byte	0
 18638 01d1 00       		.byte	0
ARM GAS  C:\Users\mathi\AppData\Local\Temp\ccuMtzkg.s 			page 328


 18639 01d2 00       		.byte	0
 18640 01d3 26       		.uleb128 0x26
 18641 01d4 13       		.uleb128 0x13
 18642 01d5 01       		.byte	0x1
 18643 01d6 0B       		.uleb128 0xb
 18644 01d7 06       		.uleb128 0x6
 18645 01d8 3A       		.uleb128 0x3a
 18646 01d9 0B       		.uleb128 0xb
 18647 01da 3B       		.uleb128 0x3b
 18648 01db 0B       		.uleb128 0xb
 18649 01dc 01       		.uleb128 0x1
 18650 01dd 13       		.uleb128 0x13
 18651 01de 00       		.byte	0
 18652 01df 00       		.byte	0
 18653 01e0 27       		.uleb128 0x27
 18654 01e1 0D       		.uleb128 0xd
 18655 01e2 00       		.byte	0
 18656 01e3 03       		.uleb128 0x3
 18657 01e4 0E       		.uleb128 0xe
 18658 01e5 3A       		.uleb128 0x3a
 18659 01e6 0B       		.uleb128 0xb
 18660 01e7 3B       		.uleb128 0x3b
 18661 01e8 0B       		.uleb128 0xb
 18662 01e9 49       		.uleb128 0x49
 18663 01ea 13       		.uleb128 0x13
 18664 01eb 38       		.uleb128 0x38
 18665 01ec 05       		.uleb128 0x5
 18666 01ed 00       		.byte	0
 18667 01ee 00       		.byte	0
 18668 01ef 28       		.uleb128 0x28
 18669 01f0 0D       		.uleb128 0xd
 18670 01f1 00       		.byte	0
 18671 01f2 03       		.uleb128 0x3
 18672 01f3 08       		.uleb128 0x8
 18673 01f4 3A       		.uleb128 0x3a
 18674 01f5 0B       		.uleb128 0xb
 18675 01f6 3B       		.uleb128 0x3b
 18676 01f7 0B       		.uleb128 0xb
 18677 01f8 49       		.uleb128 0x49
 18678 01f9 13       		.uleb128 0x13
 18679 01fa 38       		.uleb128 0x38
 18680 01fb 05       		.uleb128 0x5
 18681 01fc 00       		.byte	0
 18682 01fd 00       		.byte	0
 18683 01fe 29       		.uleb128 0x29
 18684 01ff 21       		.uleb128 0x21
 18685 0200 00       		.byte	0
 18686 0201 49       		.uleb128 0x49
 18687 0202 13       		.uleb128 0x13
 18688 0203 2F       		.uleb128 0x2f
 18689 0204 05       		.uleb128 0x5
 18690 0205 00       		.byte	0
 18691 0206 00       		.byte	0
 18692 0207 2A       		.uleb128 0x2a
 18693 0208 0D       		.uleb128 0xd
 18694 0209 00       		.byte	0
 18695 020a 03       		.uleb128 0x3
ARM GAS  C:\Users\mathi\AppData\Local\Temp\ccuMtzkg.s 			page 329


 18696 020b 0E       		.uleb128 0xe
 18697 020c 3A       		.uleb128 0x3a
 18698 020d 0B       		.uleb128 0xb
 18699 020e 3B       		.uleb128 0x3b
 18700 020f 0B       		.uleb128 0xb
 18701 0210 49       		.uleb128 0x49
 18702 0211 13       		.uleb128 0x13
 18703 0212 00       		.byte	0
 18704 0213 00       		.byte	0
 18705 0214 2B       		.uleb128 0x2b
 18706 0215 17       		.uleb128 0x17
 18707 0216 01       		.byte	0x1
 18708 0217 0B       		.uleb128 0xb
 18709 0218 0B       		.uleb128 0xb
 18710 0219 3A       		.uleb128 0x3a
 18711 021a 0B       		.uleb128 0xb
 18712 021b 3B       		.uleb128 0x3b
 18713 021c 05       		.uleb128 0x5
 18714 021d 01       		.uleb128 0x1
 18715 021e 13       		.uleb128 0x13
 18716 021f 00       		.byte	0
 18717 0220 00       		.byte	0
 18718 0221 2C       		.uleb128 0x2c
 18719 0222 13       		.uleb128 0x13
 18720 0223 01       		.byte	0x1
 18721 0224 03       		.uleb128 0x3
 18722 0225 0E       		.uleb128 0xe
 18723 0226 0B       		.uleb128 0xb
 18724 0227 05       		.uleb128 0x5
 18725 0228 3A       		.uleb128 0x3a
 18726 0229 0B       		.uleb128 0xb
 18727 022a 3B       		.uleb128 0x3b
 18728 022b 0B       		.uleb128 0xb
 18729 022c 01       		.uleb128 0x1
 18730 022d 13       		.uleb128 0x13
 18731 022e 00       		.byte	0
 18732 022f 00       		.byte	0
 18733 0230 2D       		.uleb128 0x2d
 18734 0231 34       		.uleb128 0x34
 18735 0232 00       		.byte	0
 18736 0233 03       		.uleb128 0x3
 18737 0234 0E       		.uleb128 0xe
 18738 0235 3A       		.uleb128 0x3a
 18739 0236 0B       		.uleb128 0xb
 18740 0237 3B       		.uleb128 0x3b
 18741 0238 0B       		.uleb128 0xb
 18742 0239 49       		.uleb128 0x49
 18743 023a 13       		.uleb128 0x13
 18744 023b 02       		.uleb128 0x2
 18745 023c 18       		.uleb128 0x18
 18746 023d 00       		.byte	0
 18747 023e 00       		.byte	0
 18748 023f 2E       		.uleb128 0x2e
 18749 0240 34       		.uleb128 0x34
 18750 0241 00       		.byte	0
 18751 0242 03       		.uleb128 0x3
 18752 0243 0E       		.uleb128 0xe
ARM GAS  C:\Users\mathi\AppData\Local\Temp\ccuMtzkg.s 			page 330


 18753 0244 3A       		.uleb128 0x3a
 18754 0245 0B       		.uleb128 0xb
 18755 0246 3B       		.uleb128 0x3b
 18756 0247 0B       		.uleb128 0xb
 18757 0248 49       		.uleb128 0x49
 18758 0249 13       		.uleb128 0x13
 18759 024a 00       		.byte	0
 18760 024b 00       		.byte	0
 18761 024c 2F       		.uleb128 0x2f
 18762 024d 2E       		.uleb128 0x2e
 18763 024e 01       		.byte	0x1
 18764 024f 3F       		.uleb128 0x3f
 18765 0250 19       		.uleb128 0x19
 18766 0251 03       		.uleb128 0x3
 18767 0252 0E       		.uleb128 0xe
 18768 0253 3A       		.uleb128 0x3a
 18769 0254 0B       		.uleb128 0xb
 18770 0255 3B       		.uleb128 0x3b
 18771 0256 05       		.uleb128 0x5
 18772 0257 27       		.uleb128 0x27
 18773 0258 19       		.uleb128 0x19
 18774 0259 49       		.uleb128 0x49
 18775 025a 13       		.uleb128 0x13
 18776 025b 11       		.uleb128 0x11
 18777 025c 01       		.uleb128 0x1
 18778 025d 12       		.uleb128 0x12
 18779 025e 06       		.uleb128 0x6
 18780 025f 40       		.uleb128 0x40
 18781 0260 18       		.uleb128 0x18
 18782 0261 9742     		.uleb128 0x2117
 18783 0263 19       		.uleb128 0x19
 18784 0264 01       		.uleb128 0x1
 18785 0265 13       		.uleb128 0x13
 18786 0266 00       		.byte	0
 18787 0267 00       		.byte	0
 18788 0268 30       		.uleb128 0x30
 18789 0269 898201   		.uleb128 0x4109
 18790 026c 00       		.byte	0
 18791 026d 11       		.uleb128 0x11
 18792 026e 01       		.uleb128 0x1
 18793 026f 31       		.uleb128 0x31
 18794 0270 13       		.uleb128 0x13
 18795 0271 00       		.byte	0
 18796 0272 00       		.byte	0
 18797 0273 31       		.uleb128 0x31
 18798 0274 05       		.uleb128 0x5
 18799 0275 00       		.byte	0
 18800 0276 03       		.uleb128 0x3
 18801 0277 0E       		.uleb128 0xe
 18802 0278 3A       		.uleb128 0x3a
 18803 0279 0B       		.uleb128 0xb
 18804 027a 3B       		.uleb128 0x3b
 18805 027b 05       		.uleb128 0x5
 18806 027c 49       		.uleb128 0x49
 18807 027d 13       		.uleb128 0x13
 18808 027e 02       		.uleb128 0x2
 18809 027f 17       		.uleb128 0x17
ARM GAS  C:\Users\mathi\AppData\Local\Temp\ccuMtzkg.s 			page 331


 18810 0280 00       		.byte	0
 18811 0281 00       		.byte	0
 18812 0282 32       		.uleb128 0x32
 18813 0283 34       		.uleb128 0x34
 18814 0284 00       		.byte	0
 18815 0285 03       		.uleb128 0x3
 18816 0286 08       		.uleb128 0x8
 18817 0287 3A       		.uleb128 0x3a
 18818 0288 0B       		.uleb128 0xb
 18819 0289 3B       		.uleb128 0x3b
 18820 028a 05       		.uleb128 0x5
 18821 028b 49       		.uleb128 0x49
 18822 028c 13       		.uleb128 0x13
 18823 028d 02       		.uleb128 0x2
 18824 028e 17       		.uleb128 0x17
 18825 028f 00       		.byte	0
 18826 0290 00       		.byte	0
 18827 0291 33       		.uleb128 0x33
 18828 0292 1D       		.uleb128 0x1d
 18829 0293 01       		.byte	0x1
 18830 0294 31       		.uleb128 0x31
 18831 0295 13       		.uleb128 0x13
 18832 0296 52       		.uleb128 0x52
 18833 0297 01       		.uleb128 0x1
 18834 0298 55       		.uleb128 0x55
 18835 0299 17       		.uleb128 0x17
 18836 029a 58       		.uleb128 0x58
 18837 029b 0B       		.uleb128 0xb
 18838 029c 59       		.uleb128 0x59
 18839 029d 05       		.uleb128 0x5
 18840 029e 01       		.uleb128 0x1
 18841 029f 13       		.uleb128 0x13
 18842 02a0 00       		.byte	0
 18843 02a1 00       		.byte	0
 18844 02a2 34       		.uleb128 0x34
 18845 02a3 05       		.uleb128 0x5
 18846 02a4 00       		.byte	0
 18847 02a5 31       		.uleb128 0x31
 18848 02a6 13       		.uleb128 0x13
 18849 02a7 02       		.uleb128 0x2
 18850 02a8 17       		.uleb128 0x17
 18851 02a9 00       		.byte	0
 18852 02aa 00       		.byte	0
 18853 02ab 35       		.uleb128 0x35
 18854 02ac 0B       		.uleb128 0xb
 18855 02ad 01       		.byte	0x1
 18856 02ae 55       		.uleb128 0x55
 18857 02af 17       		.uleb128 0x17
 18858 02b0 00       		.byte	0
 18859 02b1 00       		.byte	0
 18860 02b2 36       		.uleb128 0x36
 18861 02b3 34       		.uleb128 0x34
 18862 02b4 00       		.byte	0
 18863 02b5 31       		.uleb128 0x31
 18864 02b6 13       		.uleb128 0x13
 18865 02b7 00       		.byte	0
 18866 02b8 00       		.byte	0
ARM GAS  C:\Users\mathi\AppData\Local\Temp\ccuMtzkg.s 			page 332


 18867 02b9 37       		.uleb128 0x37
 18868 02ba 898201   		.uleb128 0x4109
 18869 02bd 01       		.byte	0x1
 18870 02be 11       		.uleb128 0x11
 18871 02bf 01       		.uleb128 0x1
 18872 02c0 31       		.uleb128 0x31
 18873 02c1 13       		.uleb128 0x13
 18874 02c2 00       		.byte	0
 18875 02c3 00       		.byte	0
 18876 02c4 38       		.uleb128 0x38
 18877 02c5 8A8201   		.uleb128 0x410a
 18878 02c8 00       		.byte	0
 18879 02c9 02       		.uleb128 0x2
 18880 02ca 18       		.uleb128 0x18
 18881 02cb 9142     		.uleb128 0x2111
 18882 02cd 18       		.uleb128 0x18
 18883 02ce 00       		.byte	0
 18884 02cf 00       		.byte	0
 18885 02d0 39       		.uleb128 0x39
 18886 02d1 898201   		.uleb128 0x4109
 18887 02d4 01       		.byte	0x1
 18888 02d5 11       		.uleb128 0x11
 18889 02d6 01       		.uleb128 0x1
 18890 02d7 31       		.uleb128 0x31
 18891 02d8 13       		.uleb128 0x13
 18892 02d9 01       		.uleb128 0x1
 18893 02da 13       		.uleb128 0x13
 18894 02db 00       		.byte	0
 18895 02dc 00       		.byte	0
 18896 02dd 3A       		.uleb128 0x3a
 18897 02de 1D       		.uleb128 0x1d
 18898 02df 01       		.byte	0x1
 18899 02e0 31       		.uleb128 0x31
 18900 02e1 13       		.uleb128 0x13
 18901 02e2 11       		.uleb128 0x11
 18902 02e3 01       		.uleb128 0x1
 18903 02e4 12       		.uleb128 0x12
 18904 02e5 06       		.uleb128 0x6
 18905 02e6 58       		.uleb128 0x58
 18906 02e7 0B       		.uleb128 0xb
 18907 02e8 59       		.uleb128 0x59
 18908 02e9 05       		.uleb128 0x5
 18909 02ea 01       		.uleb128 0x1
 18910 02eb 13       		.uleb128 0x13
 18911 02ec 00       		.byte	0
 18912 02ed 00       		.byte	0
 18913 02ee 3B       		.uleb128 0x3b
 18914 02ef 2E       		.uleb128 0x2e
 18915 02f0 01       		.byte	0x1
 18916 02f1 3F       		.uleb128 0x3f
 18917 02f2 19       		.uleb128 0x19
 18918 02f3 03       		.uleb128 0x3
 18919 02f4 0E       		.uleb128 0xe
 18920 02f5 3A       		.uleb128 0x3a
 18921 02f6 0B       		.uleb128 0xb
 18922 02f7 3B       		.uleb128 0x3b
 18923 02f8 05       		.uleb128 0x5
ARM GAS  C:\Users\mathi\AppData\Local\Temp\ccuMtzkg.s 			page 333


 18924 02f9 27       		.uleb128 0x27
 18925 02fa 19       		.uleb128 0x19
 18926 02fb 49       		.uleb128 0x49
 18927 02fc 13       		.uleb128 0x13
 18928 02fd 20       		.uleb128 0x20
 18929 02fe 0B       		.uleb128 0xb
 18930 02ff 01       		.uleb128 0x1
 18931 0300 13       		.uleb128 0x13
 18932 0301 00       		.byte	0
 18933 0302 00       		.byte	0
 18934 0303 3C       		.uleb128 0x3c
 18935 0304 05       		.uleb128 0x5
 18936 0305 00       		.byte	0
 18937 0306 03       		.uleb128 0x3
 18938 0307 08       		.uleb128 0x8
 18939 0308 3A       		.uleb128 0x3a
 18940 0309 0B       		.uleb128 0xb
 18941 030a 3B       		.uleb128 0x3b
 18942 030b 05       		.uleb128 0x5
 18943 030c 49       		.uleb128 0x49
 18944 030d 13       		.uleb128 0x13
 18945 030e 00       		.byte	0
 18946 030f 00       		.byte	0
 18947 0310 3D       		.uleb128 0x3d
 18948 0311 34       		.uleb128 0x34
 18949 0312 00       		.byte	0
 18950 0313 03       		.uleb128 0x3
 18951 0314 08       		.uleb128 0x8
 18952 0315 3A       		.uleb128 0x3a
 18953 0316 0B       		.uleb128 0xb
 18954 0317 3B       		.uleb128 0x3b
 18955 0318 05       		.uleb128 0x5
 18956 0319 49       		.uleb128 0x49
 18957 031a 13       		.uleb128 0x13
 18958 031b 00       		.byte	0
 18959 031c 00       		.byte	0
 18960 031d 3E       		.uleb128 0x3e
 18961 031e 34       		.uleb128 0x34
 18962 031f 00       		.byte	0
 18963 0320 03       		.uleb128 0x3
 18964 0321 0E       		.uleb128 0xe
 18965 0322 3A       		.uleb128 0x3a
 18966 0323 0B       		.uleb128 0xb
 18967 0324 3B       		.uleb128 0x3b
 18968 0325 05       		.uleb128 0x5
 18969 0326 49       		.uleb128 0x49
 18970 0327 13       		.uleb128 0x13
 18971 0328 00       		.byte	0
 18972 0329 00       		.byte	0
 18973 032a 3F       		.uleb128 0x3f
 18974 032b 05       		.uleb128 0x5
 18975 032c 00       		.byte	0
 18976 032d 03       		.uleb128 0x3
 18977 032e 08       		.uleb128 0x8
 18978 032f 3A       		.uleb128 0x3a
 18979 0330 0B       		.uleb128 0xb
 18980 0331 3B       		.uleb128 0x3b
ARM GAS  C:\Users\mathi\AppData\Local\Temp\ccuMtzkg.s 			page 334


 18981 0332 05       		.uleb128 0x5
 18982 0333 49       		.uleb128 0x49
 18983 0334 13       		.uleb128 0x13
 18984 0335 02       		.uleb128 0x2
 18985 0336 17       		.uleb128 0x17
 18986 0337 00       		.byte	0
 18987 0338 00       		.byte	0
 18988 0339 40       		.uleb128 0x40
 18989 033a 34       		.uleb128 0x34
 18990 033b 00       		.byte	0
 18991 033c 03       		.uleb128 0x3
 18992 033d 0E       		.uleb128 0xe
 18993 033e 3A       		.uleb128 0x3a
 18994 033f 0B       		.uleb128 0xb
 18995 0340 3B       		.uleb128 0x3b
 18996 0341 05       		.uleb128 0x5
 18997 0342 49       		.uleb128 0x49
 18998 0343 13       		.uleb128 0x13
 18999 0344 02       		.uleb128 0x2
 19000 0345 17       		.uleb128 0x17
 19001 0346 00       		.byte	0
 19002 0347 00       		.byte	0
 19003 0348 41       		.uleb128 0x41
 19004 0349 898201   		.uleb128 0x4109
 19005 034c 01       		.byte	0x1
 19006 034d 11       		.uleb128 0x11
 19007 034e 01       		.uleb128 0x1
 19008 034f 9542     		.uleb128 0x2115
 19009 0351 19       		.uleb128 0x19
 19010 0352 31       		.uleb128 0x31
 19011 0353 13       		.uleb128 0x13
 19012 0354 01       		.uleb128 0x1
 19013 0355 13       		.uleb128 0x13
 19014 0356 00       		.byte	0
 19015 0357 00       		.byte	0
 19016 0358 42       		.uleb128 0x42
 19017 0359 05       		.uleb128 0x5
 19018 035a 00       		.byte	0
 19019 035b 03       		.uleb128 0x3
 19020 035c 0E       		.uleb128 0xe
 19021 035d 3A       		.uleb128 0x3a
 19022 035e 0B       		.uleb128 0xb
 19023 035f 3B       		.uleb128 0x3b
 19024 0360 05       		.uleb128 0x5
 19025 0361 49       		.uleb128 0x49
 19026 0362 13       		.uleb128 0x13
 19027 0363 00       		.byte	0
 19028 0364 00       		.byte	0
 19029 0365 43       		.uleb128 0x43
 19030 0366 0B       		.uleb128 0xb
 19031 0367 01       		.byte	0x1
 19032 0368 31       		.uleb128 0x31
 19033 0369 13       		.uleb128 0x13
 19034 036a 55       		.uleb128 0x55
 19035 036b 17       		.uleb128 0x17
 19036 036c 01       		.uleb128 0x1
 19037 036d 13       		.uleb128 0x13
ARM GAS  C:\Users\mathi\AppData\Local\Temp\ccuMtzkg.s 			page 335


 19038 036e 00       		.byte	0
 19039 036f 00       		.byte	0
 19040 0370 44       		.uleb128 0x44
 19041 0371 898201   		.uleb128 0x4109
 19042 0374 00       		.byte	0
 19043 0375 11       		.uleb128 0x11
 19044 0376 01       		.uleb128 0x1
 19045 0377 9542     		.uleb128 0x2115
 19046 0379 19       		.uleb128 0x19
 19047 037a 31       		.uleb128 0x31
 19048 037b 13       		.uleb128 0x13
 19049 037c 00       		.byte	0
 19050 037d 00       		.byte	0
 19051 037e 45       		.uleb128 0x45
 19052 037f 2E       		.uleb128 0x2e
 19053 0380 01       		.byte	0x1
 19054 0381 3F       		.uleb128 0x3f
 19055 0382 19       		.uleb128 0x19
 19056 0383 03       		.uleb128 0x3
 19057 0384 0E       		.uleb128 0xe
 19058 0385 3A       		.uleb128 0x3a
 19059 0386 0B       		.uleb128 0xb
 19060 0387 3B       		.uleb128 0x3b
 19061 0388 05       		.uleb128 0x5
 19062 0389 27       		.uleb128 0x27
 19063 038a 19       		.uleb128 0x19
 19064 038b 11       		.uleb128 0x11
 19065 038c 01       		.uleb128 0x1
 19066 038d 12       		.uleb128 0x12
 19067 038e 06       		.uleb128 0x6
 19068 038f 40       		.uleb128 0x40
 19069 0390 18       		.uleb128 0x18
 19070 0391 9742     		.uleb128 0x2117
 19071 0393 19       		.uleb128 0x19
 19072 0394 01       		.uleb128 0x1
 19073 0395 13       		.uleb128 0x13
 19074 0396 00       		.byte	0
 19075 0397 00       		.byte	0
 19076 0398 46       		.uleb128 0x46
 19077 0399 34       		.uleb128 0x34
 19078 039a 00       		.byte	0
 19079 039b 03       		.uleb128 0x3
 19080 039c 0E       		.uleb128 0xe
 19081 039d 3A       		.uleb128 0x3a
 19082 039e 0B       		.uleb128 0xb
 19083 039f 3B       		.uleb128 0x3b
 19084 03a0 05       		.uleb128 0x5
 19085 03a1 49       		.uleb128 0x49
 19086 03a2 13       		.uleb128 0x13
 19087 03a3 02       		.uleb128 0x2
 19088 03a4 18       		.uleb128 0x18
 19089 03a5 00       		.byte	0
 19090 03a6 00       		.byte	0
 19091 03a7 47       		.uleb128 0x47
 19092 03a8 34       		.uleb128 0x34
 19093 03a9 00       		.byte	0
 19094 03aa 31       		.uleb128 0x31
ARM GAS  C:\Users\mathi\AppData\Local\Temp\ccuMtzkg.s 			page 336


 19095 03ab 13       		.uleb128 0x13
 19096 03ac 02       		.uleb128 0x2
 19097 03ad 17       		.uleb128 0x17
 19098 03ae 00       		.byte	0
 19099 03af 00       		.byte	0
 19100 03b0 48       		.uleb128 0x48
 19101 03b1 1D       		.uleb128 0x1d
 19102 03b2 01       		.byte	0x1
 19103 03b3 31       		.uleb128 0x31
 19104 03b4 13       		.uleb128 0x13
 19105 03b5 11       		.uleb128 0x11
 19106 03b6 01       		.uleb128 0x1
 19107 03b7 12       		.uleb128 0x12
 19108 03b8 06       		.uleb128 0x6
 19109 03b9 58       		.uleb128 0x58
 19110 03ba 0B       		.uleb128 0xb
 19111 03bb 59       		.uleb128 0x59
 19112 03bc 0B       		.uleb128 0xb
 19113 03bd 01       		.uleb128 0x1
 19114 03be 13       		.uleb128 0x13
 19115 03bf 00       		.byte	0
 19116 03c0 00       		.byte	0
 19117 03c1 49       		.uleb128 0x49
 19118 03c2 2E       		.uleb128 0x2e
 19119 03c3 01       		.byte	0x1
 19120 03c4 3F       		.uleb128 0x3f
 19121 03c5 19       		.uleb128 0x19
 19122 03c6 03       		.uleb128 0x3
 19123 03c7 0E       		.uleb128 0xe
 19124 03c8 3A       		.uleb128 0x3a
 19125 03c9 0B       		.uleb128 0xb
 19126 03ca 3B       		.uleb128 0x3b
 19127 03cb 0B       		.uleb128 0xb
 19128 03cc 27       		.uleb128 0x27
 19129 03cd 19       		.uleb128 0x19
 19130 03ce 49       		.uleb128 0x49
 19131 03cf 13       		.uleb128 0x13
 19132 03d0 20       		.uleb128 0x20
 19133 03d1 0B       		.uleb128 0xb
 19134 03d2 01       		.uleb128 0x1
 19135 03d3 13       		.uleb128 0x13
 19136 03d4 00       		.byte	0
 19137 03d5 00       		.byte	0
 19138 03d6 4A       		.uleb128 0x4a
 19139 03d7 34       		.uleb128 0x34
 19140 03d8 00       		.byte	0
 19141 03d9 03       		.uleb128 0x3
 19142 03da 08       		.uleb128 0x8
 19143 03db 3A       		.uleb128 0x3a
 19144 03dc 0B       		.uleb128 0xb
 19145 03dd 3B       		.uleb128 0x3b
 19146 03de 0B       		.uleb128 0xb
 19147 03df 49       		.uleb128 0x49
 19148 03e0 13       		.uleb128 0x13
 19149 03e1 00       		.byte	0
 19150 03e2 00       		.byte	0
 19151 03e3 4B       		.uleb128 0x4b
ARM GAS  C:\Users\mathi\AppData\Local\Temp\ccuMtzkg.s 			page 337


 19152 03e4 05       		.uleb128 0x5
 19153 03e5 00       		.byte	0
 19154 03e6 03       		.uleb128 0x3
 19155 03e7 08       		.uleb128 0x8
 19156 03e8 3A       		.uleb128 0x3a
 19157 03e9 0B       		.uleb128 0xb
 19158 03ea 3B       		.uleb128 0x3b
 19159 03eb 0B       		.uleb128 0xb
 19160 03ec 49       		.uleb128 0x49
 19161 03ed 13       		.uleb128 0x13
 19162 03ee 00       		.byte	0
 19163 03ef 00       		.byte	0
 19164 03f0 4C       		.uleb128 0x4c
 19165 03f1 05       		.uleb128 0x5
 19166 03f2 00       		.byte	0
 19167 03f3 03       		.uleb128 0x3
 19168 03f4 0E       		.uleb128 0xe
 19169 03f5 3A       		.uleb128 0x3a
 19170 03f6 0B       		.uleb128 0xb
 19171 03f7 3B       		.uleb128 0x3b
 19172 03f8 0B       		.uleb128 0xb
 19173 03f9 49       		.uleb128 0x49
 19174 03fa 13       		.uleb128 0x13
 19175 03fb 00       		.byte	0
 19176 03fc 00       		.byte	0
 19177 03fd 4D       		.uleb128 0x4d
 19178 03fe 2E       		.uleb128 0x2e
 19179 03ff 01       		.byte	0x1
 19180 0400 3F       		.uleb128 0x3f
 19181 0401 19       		.uleb128 0x19
 19182 0402 03       		.uleb128 0x3
 19183 0403 0E       		.uleb128 0xe
 19184 0404 3A       		.uleb128 0x3a
 19185 0405 0B       		.uleb128 0xb
 19186 0406 3B       		.uleb128 0x3b
 19187 0407 0B       		.uleb128 0xb
 19188 0408 27       		.uleb128 0x27
 19189 0409 19       		.uleb128 0x19
 19190 040a 49       		.uleb128 0x49
 19191 040b 13       		.uleb128 0x13
 19192 040c 11       		.uleb128 0x11
 19193 040d 01       		.uleb128 0x1
 19194 040e 12       		.uleb128 0x12
 19195 040f 06       		.uleb128 0x6
 19196 0410 40       		.uleb128 0x40
 19197 0411 18       		.uleb128 0x18
 19198 0412 9742     		.uleb128 0x2117
 19199 0414 19       		.uleb128 0x19
 19200 0415 01       		.uleb128 0x1
 19201 0416 13       		.uleb128 0x13
 19202 0417 00       		.byte	0
 19203 0418 00       		.byte	0
 19204 0419 4E       		.uleb128 0x4e
 19205 041a 05       		.uleb128 0x5
 19206 041b 00       		.byte	0
 19207 041c 03       		.uleb128 0x3
 19208 041d 08       		.uleb128 0x8
ARM GAS  C:\Users\mathi\AppData\Local\Temp\ccuMtzkg.s 			page 338


 19209 041e 3A       		.uleb128 0x3a
 19210 041f 0B       		.uleb128 0xb
 19211 0420 3B       		.uleb128 0x3b
 19212 0421 0B       		.uleb128 0xb
 19213 0422 49       		.uleb128 0x49
 19214 0423 13       		.uleb128 0x13
 19215 0424 02       		.uleb128 0x2
 19216 0425 17       		.uleb128 0x17
 19217 0426 00       		.byte	0
 19218 0427 00       		.byte	0
 19219 0428 4F       		.uleb128 0x4f
 19220 0429 34       		.uleb128 0x34
 19221 042a 00       		.byte	0
 19222 042b 03       		.uleb128 0x3
 19223 042c 08       		.uleb128 0x8
 19224 042d 3A       		.uleb128 0x3a
 19225 042e 0B       		.uleb128 0xb
 19226 042f 3B       		.uleb128 0x3b
 19227 0430 0B       		.uleb128 0xb
 19228 0431 49       		.uleb128 0x49
 19229 0432 13       		.uleb128 0x13
 19230 0433 02       		.uleb128 0x2
 19231 0434 17       		.uleb128 0x17
 19232 0435 00       		.byte	0
 19233 0436 00       		.byte	0
 19234 0437 50       		.uleb128 0x50
 19235 0438 2E       		.uleb128 0x2e
 19236 0439 01       		.byte	0x1
 19237 043a 31       		.uleb128 0x31
 19238 043b 13       		.uleb128 0x13
 19239 043c 11       		.uleb128 0x11
 19240 043d 01       		.uleb128 0x1
 19241 043e 12       		.uleb128 0x12
 19242 043f 06       		.uleb128 0x6
 19243 0440 40       		.uleb128 0x40
 19244 0441 18       		.uleb128 0x18
 19245 0442 9742     		.uleb128 0x2117
 19246 0444 19       		.uleb128 0x19
 19247 0445 01       		.uleb128 0x1
 19248 0446 13       		.uleb128 0x13
 19249 0447 00       		.byte	0
 19250 0448 00       		.byte	0
 19251 0449 51       		.uleb128 0x51
 19252 044a 0B       		.uleb128 0xb
 19253 044b 01       		.byte	0x1
 19254 044c 31       		.uleb128 0x31
 19255 044d 13       		.uleb128 0x13
 19256 044e 11       		.uleb128 0x11
 19257 044f 01       		.uleb128 0x1
 19258 0450 12       		.uleb128 0x12
 19259 0451 06       		.uleb128 0x6
 19260 0452 01       		.uleb128 0x1
 19261 0453 13       		.uleb128 0x13
 19262 0454 00       		.byte	0
 19263 0455 00       		.byte	0
 19264 0456 52       		.uleb128 0x52
 19265 0457 0B       		.uleb128 0xb
ARM GAS  C:\Users\mathi\AppData\Local\Temp\ccuMtzkg.s 			page 339


 19266 0458 01       		.byte	0x1
 19267 0459 11       		.uleb128 0x11
 19268 045a 01       		.uleb128 0x1
 19269 045b 12       		.uleb128 0x12
 19270 045c 06       		.uleb128 0x6
 19271 045d 00       		.byte	0
 19272 045e 00       		.byte	0
 19273 045f 53       		.uleb128 0x53
 19274 0460 0B       		.uleb128 0xb
 19275 0461 01       		.byte	0x1
 19276 0462 11       		.uleb128 0x11
 19277 0463 01       		.uleb128 0x1
 19278 0464 12       		.uleb128 0x12
 19279 0465 06       		.uleb128 0x6
 19280 0466 01       		.uleb128 0x1
 19281 0467 13       		.uleb128 0x13
 19282 0468 00       		.byte	0
 19283 0469 00       		.byte	0
 19284 046a 54       		.uleb128 0x54
 19285 046b 1D       		.uleb128 0x1d
 19286 046c 01       		.byte	0x1
 19287 046d 31       		.uleb128 0x31
 19288 046e 13       		.uleb128 0x13
 19289 046f 52       		.uleb128 0x52
 19290 0470 01       		.uleb128 0x1
 19291 0471 55       		.uleb128 0x55
 19292 0472 17       		.uleb128 0x17
 19293 0473 58       		.uleb128 0x58
 19294 0474 0B       		.uleb128 0xb
 19295 0475 59       		.uleb128 0x59
 19296 0476 05       		.uleb128 0x5
 19297 0477 00       		.byte	0
 19298 0478 00       		.byte	0
 19299 0479 55       		.uleb128 0x55
 19300 047a 34       		.uleb128 0x34
 19301 047b 00       		.byte	0
 19302 047c 31       		.uleb128 0x31
 19303 047d 13       		.uleb128 0x13
 19304 047e 02       		.uleb128 0x2
 19305 047f 18       		.uleb128 0x18
 19306 0480 00       		.byte	0
 19307 0481 00       		.byte	0
 19308 0482 56       		.uleb128 0x56
 19309 0483 2E       		.uleb128 0x2e
 19310 0484 00       		.byte	0
 19311 0485 3F       		.uleb128 0x3f
 19312 0486 19       		.uleb128 0x19
 19313 0487 3C       		.uleb128 0x3c
 19314 0488 19       		.uleb128 0x19
 19315 0489 6E       		.uleb128 0x6e
 19316 048a 0E       		.uleb128 0xe
 19317 048b 03       		.uleb128 0x3
 19318 048c 0E       		.uleb128 0xe
 19319 048d 00       		.byte	0
 19320 048e 00       		.byte	0
 19321 048f 57       		.uleb128 0x57
 19322 0490 2E       		.uleb128 0x2e
ARM GAS  C:\Users\mathi\AppData\Local\Temp\ccuMtzkg.s 			page 340


 19323 0491 00       		.byte	0
 19324 0492 3F       		.uleb128 0x3f
 19325 0493 19       		.uleb128 0x19
 19326 0494 3C       		.uleb128 0x3c
 19327 0495 19       		.uleb128 0x19
 19328 0496 6E       		.uleb128 0x6e
 19329 0497 0E       		.uleb128 0xe
 19330 0498 03       		.uleb128 0x3
 19331 0499 0E       		.uleb128 0xe
 19332 049a 3A       		.uleb128 0x3a
 19333 049b 0B       		.uleb128 0xb
 19334 049c 3B       		.uleb128 0x3b
 19335 049d 0B       		.uleb128 0xb
 19336 049e 00       		.byte	0
 19337 049f 00       		.byte	0
 19338 04a0 58       		.uleb128 0x58
 19339 04a1 2E       		.uleb128 0x2e
 19340 04a2 00       		.byte	0
 19341 04a3 3F       		.uleb128 0x3f
 19342 04a4 19       		.uleb128 0x19
 19343 04a5 3C       		.uleb128 0x3c
 19344 04a6 19       		.uleb128 0x19
 19345 04a7 6E       		.uleb128 0x6e
 19346 04a8 0E       		.uleb128 0xe
 19347 04a9 03       		.uleb128 0x3
 19348 04aa 0E       		.uleb128 0xe
 19349 04ab 3A       		.uleb128 0x3a
 19350 04ac 0B       		.uleb128 0xb
 19351 04ad 3B       		.uleb128 0x3b
 19352 04ae 05       		.uleb128 0x5
 19353 04af 00       		.byte	0
 19354 04b0 00       		.byte	0
 19355 04b1 00       		.byte	0
 19356              		.section	.debug_loc,"",%progbits
 19357              	.Ldebug_loc0:
 19358              	.LLST104:
 19359 0000 00000000 		.4byte	.LVL657
 19360 0004 16000000 		.4byte	.LVL660
 19361 0008 0100     		.2byte	0x1
 19362 000a 50       		.byte	0x50
 19363 000b 16000000 		.4byte	.LVL660
 19364 000f 94000000 		.4byte	.LFE274
 19365 0013 0400     		.2byte	0x4
 19366 0015 F3       		.byte	0xf3
 19367 0016 01       		.uleb128 0x1
 19368 0017 50       		.byte	0x50
 19369 0018 9F       		.byte	0x9f
 19370 0019 00000000 		.4byte	0
 19371 001d 00000000 		.4byte	0
 19372              	.LLST105:
 19373 0021 00000000 		.4byte	.LVL657
 19374 0025 14000000 		.4byte	.LVL659
 19375 0029 0100     		.2byte	0x1
 19376 002b 51       		.byte	0x51
 19377 002c 14000000 		.4byte	.LVL659
 19378 0030 94000000 		.4byte	.LFE274
 19379 0034 0400     		.2byte	0x4
ARM GAS  C:\Users\mathi\AppData\Local\Temp\ccuMtzkg.s 			page 341


 19380 0036 F3       		.byte	0xf3
 19381 0037 01       		.uleb128 0x1
 19382 0038 51       		.byte	0x51
 19383 0039 9F       		.byte	0x9f
 19384 003a 00000000 		.4byte	0
 19385 003e 00000000 		.4byte	0
 19386              	.LLST106:
 19387 0042 0A000000 		.4byte	.LVL658
 19388 0046 20000000 		.4byte	.LVL663
 19389 004a 0200     		.2byte	0x2
 19390 004c 30       		.byte	0x30
 19391 004d 9F       		.byte	0x9f
 19392 004e 2C000000 		.4byte	.LVL664
 19393 0052 52000000 		.4byte	.LVL667
 19394 0056 0200     		.2byte	0x2
 19395 0058 30       		.byte	0x30
 19396 0059 9F       		.byte	0x9f
 19397 005a 6E000000 		.4byte	.LVL670
 19398 005e 78000000 		.4byte	.LVL671
 19399 0062 0100     		.2byte	0x1
 19400 0064 50       		.byte	0x50
 19401 0065 7C000000 		.4byte	.LVL672
 19402 0069 86000000 		.4byte	.LVL673
 19403 006d 0100     		.2byte	0x1
 19404 006f 50       		.byte	0x50
 19405 0070 8A000000 		.4byte	.LVL674
 19406 0074 8C000000 		.4byte	.LVL675
 19407 0078 0100     		.2byte	0x1
 19408 007a 50       		.byte	0x50
 19409 007b 00000000 		.4byte	0
 19410 007f 00000000 		.4byte	0
 19411              	.LLST107:
 19412 0083 0A000000 		.4byte	.LVL658
 19413 0087 20000000 		.4byte	.LVL663
 19414 008b 0200     		.2byte	0x2
 19415 008d 30       		.byte	0x30
 19416 008e 9F       		.byte	0x9f
 19417 008f 2C000000 		.4byte	.LVL664
 19418 0093 52000000 		.4byte	.LVL667
 19419 0097 0200     		.2byte	0x2
 19420 0099 30       		.byte	0x30
 19421 009a 9F       		.byte	0x9f
 19422 009b 00000000 		.4byte	0
 19423 009f 00000000 		.4byte	0
 19424              	.LLST108:
 19425 00a3 1A000000 		.4byte	.LVL661
 19426 00a7 1E000000 		.4byte	.LVL662
 19427 00ab 0200     		.2byte	0x2
 19428 00ad 32       		.byte	0x32
 19429 00ae 9F       		.byte	0x9f
 19430 00af 00000000 		.4byte	0
 19431 00b3 00000000 		.4byte	0
 19432              	.LLST109:
 19433 00b7 56000000 		.4byte	.LVL668
 19434 00bb 60000000 		.4byte	.LVL669
 19435 00bf 0200     		.2byte	0x2
 19436 00c1 30       		.byte	0x30
ARM GAS  C:\Users\mathi\AppData\Local\Temp\ccuMtzkg.s 			page 342


 19437 00c2 9F       		.byte	0x9f
 19438 00c3 00000000 		.4byte	0
 19439 00c7 00000000 		.4byte	0
 19440              	.LLST94:
 19441 00cb 00000000 		.4byte	.LVL627
 19442 00cf 18000000 		.4byte	.LVL631
 19443 00d3 0100     		.2byte	0x1
 19444 00d5 50       		.byte	0x50
 19445 00d6 18000000 		.4byte	.LVL631
 19446 00da 98000000 		.4byte	.LFE272
 19447 00de 0400     		.2byte	0x4
 19448 00e0 F3       		.byte	0xf3
 19449 00e1 01       		.uleb128 0x1
 19450 00e2 50       		.byte	0x50
 19451 00e3 9F       		.byte	0x9f
 19452 00e4 00000000 		.4byte	0
 19453 00e8 00000000 		.4byte	0
 19454              	.LLST95:
 19455 00ec 00000000 		.4byte	.LVL627
 19456 00f0 16000000 		.4byte	.LVL630
 19457 00f4 0100     		.2byte	0x1
 19458 00f6 51       		.byte	0x51
 19459 00f7 16000000 		.4byte	.LVL630
 19460 00fb 98000000 		.4byte	.LFE272
 19461 00ff 0400     		.2byte	0x4
 19462 0101 F3       		.byte	0xf3
 19463 0102 01       		.uleb128 0x1
 19464 0103 51       		.byte	0x51
 19465 0104 9F       		.byte	0x9f
 19466 0105 00000000 		.4byte	0
 19467 0109 00000000 		.4byte	0
 19468              	.LLST96:
 19469 010d 00000000 		.4byte	.LVL627
 19470 0111 14000000 		.4byte	.LVL629
 19471 0115 0100     		.2byte	0x1
 19472 0117 52       		.byte	0x52
 19473 0118 14000000 		.4byte	.LVL629
 19474 011c 98000000 		.4byte	.LFE272
 19475 0120 0400     		.2byte	0x4
 19476 0122 F3       		.byte	0xf3
 19477 0123 01       		.uleb128 0x1
 19478 0124 52       		.byte	0x52
 19479 0125 9F       		.byte	0x9f
 19480 0126 00000000 		.4byte	0
 19481 012a 00000000 		.4byte	0
 19482              	.LLST97:
 19483 012e 0A000000 		.4byte	.LVL628
 19484 0132 22000000 		.4byte	.LVL634
 19485 0136 0200     		.2byte	0x2
 19486 0138 30       		.byte	0x30
 19487 0139 9F       		.byte	0x9f
 19488 013a 2E000000 		.4byte	.LVL635
 19489 013e 54000000 		.4byte	.LVL638
 19490 0142 0200     		.2byte	0x2
 19491 0144 30       		.byte	0x30
 19492 0145 9F       		.byte	0x9f
 19493 0146 70000000 		.4byte	.LVL641
ARM GAS  C:\Users\mathi\AppData\Local\Temp\ccuMtzkg.s 			page 343


 19494 014a 7A000000 		.4byte	.LVL642
 19495 014e 0100     		.2byte	0x1
 19496 0150 50       		.byte	0x50
 19497 0151 7E000000 		.4byte	.LVL643
 19498 0155 88000000 		.4byte	.LVL644
 19499 0159 0100     		.2byte	0x1
 19500 015b 50       		.byte	0x50
 19501 015c 8C000000 		.4byte	.LVL645
 19502 0160 8E000000 		.4byte	.LVL646
 19503 0164 0100     		.2byte	0x1
 19504 0166 50       		.byte	0x50
 19505 0167 00000000 		.4byte	0
 19506 016b 00000000 		.4byte	0
 19507              	.LLST98:
 19508 016f 0A000000 		.4byte	.LVL628
 19509 0173 22000000 		.4byte	.LVL634
 19510 0177 0200     		.2byte	0x2
 19511 0179 30       		.byte	0x30
 19512 017a 9F       		.byte	0x9f
 19513 017b 2E000000 		.4byte	.LVL635
 19514 017f 54000000 		.4byte	.LVL638
 19515 0183 0200     		.2byte	0x2
 19516 0185 30       		.byte	0x30
 19517 0186 9F       		.byte	0x9f
 19518 0187 00000000 		.4byte	0
 19519 018b 00000000 		.4byte	0
 19520              	.LLST99:
 19521 018f 1C000000 		.4byte	.LVL632
 19522 0193 20000000 		.4byte	.LVL633
 19523 0197 0200     		.2byte	0x2
 19524 0199 32       		.byte	0x32
 19525 019a 9F       		.byte	0x9f
 19526 019b 00000000 		.4byte	0
 19527 019f 00000000 		.4byte	0
 19528              	.LLST100:
 19529 01a3 58000000 		.4byte	.LVL639
 19530 01a7 62000000 		.4byte	.LVL640
 19531 01ab 0200     		.2byte	0x2
 19532 01ad 30       		.byte	0x30
 19533 01ae 9F       		.byte	0x9f
 19534 01af 00000000 		.4byte	0
 19535 01b3 00000000 		.4byte	0
 19536              	.LLST86:
 19537 01b7 00000000 		.4byte	.LVL608
 19538 01bb 14000000 		.4byte	.LVL611
 19539 01bf 0100     		.2byte	0x1
 19540 01c1 50       		.byte	0x50
 19541 01c2 14000000 		.4byte	.LVL611
 19542 01c6 58000000 		.4byte	.LFE270
 19543 01ca 0400     		.2byte	0x4
 19544 01cc F3       		.byte	0xf3
 19545 01cd 01       		.uleb128 0x1
 19546 01ce 50       		.byte	0x50
 19547 01cf 9F       		.byte	0x9f
 19548 01d0 00000000 		.4byte	0
 19549 01d4 00000000 		.4byte	0
 19550              	.LLST87:
ARM GAS  C:\Users\mathi\AppData\Local\Temp\ccuMtzkg.s 			page 344


 19551 01d8 00000000 		.4byte	.LVL608
 19552 01dc 12000000 		.4byte	.LVL610
 19553 01e0 0100     		.2byte	0x1
 19554 01e2 51       		.byte	0x51
 19555 01e3 12000000 		.4byte	.LVL610
 19556 01e7 58000000 		.4byte	.LFE270
 19557 01eb 0400     		.2byte	0x4
 19558 01ed F3       		.byte	0xf3
 19559 01ee 01       		.uleb128 0x1
 19560 01ef 51       		.byte	0x51
 19561 01f0 9F       		.byte	0x9f
 19562 01f1 00000000 		.4byte	0
 19563 01f5 00000000 		.4byte	0
 19564              	.LLST88:
 19565 01f9 0E000000 		.4byte	.LVL609
 19566 01fd 18000000 		.4byte	.LVL612
 19567 0201 0200     		.2byte	0x2
 19568 0203 30       		.byte	0x30
 19569 0204 9F       		.byte	0x9f
 19570 0205 00000000 		.4byte	0
 19571 0209 00000000 		.4byte	0
 19572              	.LLST89:
 19573 020d 0E000000 		.4byte	.LVL609
 19574 0211 2A000000 		.4byte	.LVL613
 19575 0215 0200     		.2byte	0x2
 19576 0217 30       		.byte	0x30
 19577 0218 9F       		.byte	0x9f
 19578 0219 2A000000 		.4byte	.LVL613
 19579 021d 30000000 		.4byte	.LVL614
 19580 0221 0100     		.2byte	0x1
 19581 0223 50       		.byte	0x50
 19582 0224 30000000 		.4byte	.LVL614
 19583 0228 41000000 		.4byte	.LVL615-1
 19584 022c 0100     		.2byte	0x1
 19585 022e 52       		.byte	0x52
 19586 022f 42000000 		.4byte	.LVL615
 19587 0233 4E000000 		.4byte	.LVL616
 19588 0237 0200     		.2byte	0x2
 19589 0239 30       		.byte	0x30
 19590 023a 9F       		.byte	0x9f
 19591 023b 00000000 		.4byte	0
 19592 023f 00000000 		.4byte	0
 19593              	.LLST83:
 19594 0243 00000000 		.4byte	.LVL602
 19595 0247 12000000 		.4byte	.LVL604
 19596 024b 0100     		.2byte	0x1
 19597 024d 50       		.byte	0x50
 19598 024e 12000000 		.4byte	.LVL604
 19599 0252 40000000 		.4byte	.LFE269
 19600 0256 0400     		.2byte	0x4
 19601 0258 F3       		.byte	0xf3
 19602 0259 01       		.uleb128 0x1
 19603 025a 50       		.byte	0x50
 19604 025b 9F       		.byte	0x9f
 19605 025c 00000000 		.4byte	0
 19606 0260 00000000 		.4byte	0
 19607              	.LLST84:
ARM GAS  C:\Users\mathi\AppData\Local\Temp\ccuMtzkg.s 			page 345


 19608 0264 0A000000 		.4byte	.LVL603
 19609 0268 16000000 		.4byte	.LVL605
 19610 026c 0200     		.2byte	0x2
 19611 026e 30       		.byte	0x30
 19612 026f 9F       		.byte	0x9f
 19613 0270 00000000 		.4byte	0
 19614 0274 00000000 		.4byte	0
 19615              	.LLST85:
 19616 0278 0A000000 		.4byte	.LVL603
 19617 027c 16000000 		.4byte	.LVL605
 19618 0280 0200     		.2byte	0x2
 19619 0282 31       		.byte	0x31
 19620 0283 9F       		.byte	0x9f
 19621 0284 00000000 		.4byte	0
 19622 0288 00000000 		.4byte	0
 19623              	.LLST80:
 19624 028c 00000000 		.4byte	.LVL596
 19625 0290 12000000 		.4byte	.LVL598
 19626 0294 0100     		.2byte	0x1
 19627 0296 50       		.byte	0x50
 19628 0297 12000000 		.4byte	.LVL598
 19629 029b 40000000 		.4byte	.LFE268
 19630 029f 0400     		.2byte	0x4
 19631 02a1 F3       		.byte	0xf3
 19632 02a2 01       		.uleb128 0x1
 19633 02a3 50       		.byte	0x50
 19634 02a4 9F       		.byte	0x9f
 19635 02a5 00000000 		.4byte	0
 19636 02a9 00000000 		.4byte	0
 19637              	.LLST81:
 19638 02ad 0A000000 		.4byte	.LVL597
 19639 02b1 16000000 		.4byte	.LVL599
 19640 02b5 0200     		.2byte	0x2
 19641 02b7 30       		.byte	0x30
 19642 02b8 9F       		.byte	0x9f
 19643 02b9 00000000 		.4byte	0
 19644 02bd 00000000 		.4byte	0
 19645              	.LLST82:
 19646 02c1 0A000000 		.4byte	.LVL597
 19647 02c5 16000000 		.4byte	.LVL599
 19648 02c9 0200     		.2byte	0x2
 19649 02cb 31       		.byte	0x31
 19650 02cc 9F       		.byte	0x9f
 19651 02cd 00000000 		.4byte	0
 19652 02d1 00000000 		.4byte	0
 19653              	.LLST54:
 19654 02d5 00000000 		.4byte	.LVL432
 19655 02d9 14000000 		.4byte	.LVL435
 19656 02dd 0100     		.2byte	0x1
 19657 02df 50       		.byte	0x50
 19658 02e0 14000000 		.4byte	.LVL435
 19659 02e4 80000000 		.4byte	.LFE266
 19660 02e8 0400     		.2byte	0x4
 19661 02ea F3       		.byte	0xf3
 19662 02eb 01       		.uleb128 0x1
 19663 02ec 50       		.byte	0x50
 19664 02ed 9F       		.byte	0x9f
ARM GAS  C:\Users\mathi\AppData\Local\Temp\ccuMtzkg.s 			page 346


 19665 02ee 00000000 		.4byte	0
 19666 02f2 00000000 		.4byte	0
 19667              	.LLST55:
 19668 02f6 00000000 		.4byte	.LVL432
 19669 02fa 12000000 		.4byte	.LVL434
 19670 02fe 0100     		.2byte	0x1
 19671 0300 51       		.byte	0x51
 19672 0301 12000000 		.4byte	.LVL434
 19673 0305 80000000 		.4byte	.LFE266
 19674 0309 0400     		.2byte	0x4
 19675 030b F3       		.byte	0xf3
 19676 030c 01       		.uleb128 0x1
 19677 030d 51       		.byte	0x51
 19678 030e 9F       		.byte	0x9f
 19679 030f 00000000 		.4byte	0
 19680 0313 00000000 		.4byte	0
 19681              	.LLST56:
 19682 0317 0E000000 		.4byte	.LVL433
 19683 031b 18000000 		.4byte	.LVL436
 19684 031f 0200     		.2byte	0x2
 19685 0321 30       		.byte	0x30
 19686 0322 9F       		.byte	0x9f
 19687 0323 30000000 		.4byte	.LVL437
 19688 0327 36000000 		.4byte	.LVL438
 19689 032b 0100     		.2byte	0x1
 19690 032d 50       		.byte	0x50
 19691 032e 3A000000 		.4byte	.LVL439
 19692 0332 4B000000 		.4byte	.LVL442-1
 19693 0336 0100     		.2byte	0x1
 19694 0338 50       		.byte	0x50
 19695 0339 66000000 		.4byte	.LVL443
 19696 033d 69000000 		.4byte	.LVL444-1
 19697 0341 0100     		.2byte	0x1
 19698 0343 50       		.byte	0x50
 19699 0344 6C000000 		.4byte	.LVL445
 19700 0348 6F000000 		.4byte	.LVL446-1
 19701 034c 0100     		.2byte	0x1
 19702 034e 50       		.byte	0x50
 19703 034f 72000000 		.4byte	.LVL447
 19704 0353 76000000 		.4byte	.LVL448
 19705 0357 0100     		.2byte	0x1
 19706 0359 50       		.byte	0x50
 19707 035a 00000000 		.4byte	0
 19708 035e 00000000 		.4byte	0
 19709              	.LLST57:
 19710 0362 0E000000 		.4byte	.LVL433
 19711 0366 18000000 		.4byte	.LVL436
 19712 036a 0200     		.2byte	0x2
 19713 036c 30       		.byte	0x30
 19714 036d 9F       		.byte	0x9f
 19715 036e 00000000 		.4byte	0
 19716 0372 00000000 		.4byte	0
 19717              	.LLST58:
 19718 0376 3E000000 		.4byte	.LVL440
 19719 037a 4C000000 		.4byte	.LVL442
 19720 037e 0100     		.2byte	0x1
 19721 0380 56       		.byte	0x56
ARM GAS  C:\Users\mathi\AppData\Local\Temp\ccuMtzkg.s 			page 347


 19722 0381 66000000 		.4byte	.LVL443
 19723 0385 78000000 		.4byte	.LVL449
 19724 0389 0100     		.2byte	0x1
 19725 038b 56       		.byte	0x56
 19726 038c 00000000 		.4byte	0
 19727 0390 00000000 		.4byte	0
 19728              	.LLST59:
 19729 0394 44000000 		.4byte	.LVL441
 19730 0398 4C000000 		.4byte	.LVL442
 19731 039c 0100     		.2byte	0x1
 19732 039e 56       		.byte	0x56
 19733 039f 72000000 		.4byte	.LVL447
 19734 03a3 78000000 		.4byte	.LVL449
 19735 03a7 0100     		.2byte	0x1
 19736 03a9 56       		.byte	0x56
 19737 03aa 00000000 		.4byte	0
 19738 03ae 00000000 		.4byte	0
 19739              	.LLST30:
 19740 03b2 20000000 		.4byte	.LVL350
 19741 03b6 2C000000 		.4byte	.LVL352
 19742 03ba 0300     		.2byte	0x3
 19743 03bc 08       		.byte	0x8
 19744 03bd 20       		.byte	0x20
 19745 03be 9F       		.byte	0x9f
 19746 03bf 3A000000 		.4byte	.LVL353
 19747 03c3 7E020000 		.4byte	.LVL429
 19748 03c7 0300     		.2byte	0x3
 19749 03c9 08       		.byte	0x8
 19750 03ca 20       		.byte	0x20
 19751 03cb 9F       		.byte	0x9f
 19752 03cc 00000000 		.4byte	0
 19753 03d0 00000000 		.4byte	0
 19754              	.LLST32:
 19755 03d4 20000000 		.4byte	.LVL350
 19756 03d8 2C000000 		.4byte	.LVL352
 19757 03dc 0300     		.2byte	0x3
 19758 03de 08       		.byte	0x8
 19759 03df 78       		.byte	0x78
 19760 03e0 9F       		.byte	0x9f
 19761 03e1 3A000000 		.4byte	.LVL353
 19762 03e5 7E020000 		.4byte	.LVL429
 19763 03e9 0300     		.2byte	0x3
 19764 03eb 08       		.byte	0x8
 19765 03ec 78       		.byte	0x78
 19766 03ed 9F       		.byte	0x9f
 19767 03ee 00000000 		.4byte	0
 19768 03f2 00000000 		.4byte	0
 19769              	.LLST33:
 19770 03f6 20000000 		.4byte	.LVL350
 19771 03fa 2C000000 		.4byte	.LVL352
 19772 03fe 0300     		.2byte	0x3
 19773 0400 08       		.byte	0x8
 19774 0401 A0       		.byte	0xa0
 19775 0402 9F       		.byte	0x9f
 19776 0403 3A000000 		.4byte	.LVL353
 19777 0407 7E020000 		.4byte	.LVL429
 19778 040b 0300     		.2byte	0x3
ARM GAS  C:\Users\mathi\AppData\Local\Temp\ccuMtzkg.s 			page 348


 19779 040d 08       		.byte	0x8
 19780 040e A0       		.byte	0xa0
 19781 040f 9F       		.byte	0x9f
 19782 0410 00000000 		.4byte	0
 19783 0414 00000000 		.4byte	0
 19784              	.LLST34:
 19785 0418 20000000 		.4byte	.LVL350
 19786 041c 2C000000 		.4byte	.LVL352
 19787 0420 0300     		.2byte	0x3
 19788 0422 08       		.byte	0x8
 19789 0423 B4       		.byte	0xb4
 19790 0424 9F       		.byte	0x9f
 19791 0425 3A000000 		.4byte	.LVL353
 19792 0429 7E020000 		.4byte	.LVL429
 19793 042d 0300     		.2byte	0x3
 19794 042f 08       		.byte	0x8
 19795 0430 B4       		.byte	0xb4
 19796 0431 9F       		.byte	0x9f
 19797 0432 00000000 		.4byte	0
 19798 0436 00000000 		.4byte	0
 19799              	.LLST35:
 19800 043a 20000000 		.4byte	.LVL350
 19801 043e 2C000000 		.4byte	.LVL352
 19802 0442 0300     		.2byte	0x3
 19803 0444 08       		.byte	0x8
 19804 0445 F0       		.byte	0xf0
 19805 0446 9F       		.byte	0x9f
 19806 0447 3A000000 		.4byte	.LVL353
 19807 044b 7E020000 		.4byte	.LVL429
 19808 044f 0300     		.2byte	0x3
 19809 0451 08       		.byte	0x8
 19810 0452 F0       		.byte	0xf0
 19811 0453 9F       		.byte	0x9f
 19812 0454 00000000 		.4byte	0
 19813 0458 00000000 		.4byte	0
 19814              	.LLST36:
 19815 045c 20000000 		.4byte	.LVL350
 19816 0460 2C000000 		.4byte	.LVL352
 19817 0464 0200     		.2byte	0x2
 19818 0466 32       		.byte	0x32
 19819 0467 9F       		.byte	0x9f
 19820 0468 3A000000 		.4byte	.LVL353
 19821 046c 7E020000 		.4byte	.LVL429
 19822 0470 0200     		.2byte	0x2
 19823 0472 32       		.byte	0x32
 19824 0473 9F       		.byte	0x9f
 19825 0474 00000000 		.4byte	0
 19826 0478 00000000 		.4byte	0
 19827              	.LLST37:
 19828 047c 20000000 		.4byte	.LVL350
 19829 0480 2A000000 		.4byte	.LVL351
 19830 0484 0200     		.2byte	0x2
 19831 0486 30       		.byte	0x30
 19832 0487 9F       		.byte	0x9f
 19833 0488 44000000 		.4byte	.LVL354
 19834 048c 4E000000 		.4byte	.LVL356
 19835 0490 0100     		.2byte	0x1
ARM GAS  C:\Users\mathi\AppData\Local\Temp\ccuMtzkg.s 			page 349


 19836 0492 50       		.byte	0x50
 19837 0493 AC000000 		.4byte	.LVL369
 19838 0497 B6000000 		.4byte	.LVL370
 19839 049b 0100     		.2byte	0x1
 19840 049d 50       		.byte	0x50
 19841 049e BA000000 		.4byte	.LVL371
 19842 04a2 C4000000 		.4byte	.LVL372
 19843 04a6 0100     		.2byte	0x1
 19844 04a8 50       		.byte	0x50
 19845 04a9 C8000000 		.4byte	.LVL373
 19846 04ad D2000000 		.4byte	.LVL374
 19847 04b1 0100     		.2byte	0x1
 19848 04b3 50       		.byte	0x50
 19849 04b4 D6000000 		.4byte	.LVL375
 19850 04b8 E0000000 		.4byte	.LVL376
 19851 04bc 0100     		.2byte	0x1
 19852 04be 50       		.byte	0x50
 19853 04bf E4000000 		.4byte	.LVL377
 19854 04c3 EE000000 		.4byte	.LVL378
 19855 04c7 0100     		.2byte	0x1
 19856 04c9 50       		.byte	0x50
 19857 04ca F2000000 		.4byte	.LVL379
 19858 04ce FC000000 		.4byte	.LVL380
 19859 04d2 0100     		.2byte	0x1
 19860 04d4 50       		.byte	0x50
 19861 04d5 00010000 		.4byte	.LVL381
 19862 04d9 0A010000 		.4byte	.LVL382
 19863 04dd 0100     		.2byte	0x1
 19864 04df 50       		.byte	0x50
 19865 04e0 0E010000 		.4byte	.LVL383
 19866 04e4 18010000 		.4byte	.LVL384
 19867 04e8 0100     		.2byte	0x1
 19868 04ea 50       		.byte	0x50
 19869 04eb 1C010000 		.4byte	.LVL385
 19870 04ef 26010000 		.4byte	.LVL386
 19871 04f3 0100     		.2byte	0x1
 19872 04f5 50       		.byte	0x50
 19873 04f6 2A010000 		.4byte	.LVL387
 19874 04fa 36010000 		.4byte	.LVL388
 19875 04fe 0100     		.2byte	0x1
 19876 0500 50       		.byte	0x50
 19877 0501 3A010000 		.4byte	.LVL389
 19878 0505 46010000 		.4byte	.LVL390
 19879 0509 0100     		.2byte	0x1
 19880 050b 50       		.byte	0x50
 19881 050c 4A010000 		.4byte	.LVL391
 19882 0510 56010000 		.4byte	.LVL392
 19883 0514 0100     		.2byte	0x1
 19884 0516 50       		.byte	0x50
 19885 0517 5A010000 		.4byte	.LVL393
 19886 051b 66010000 		.4byte	.LVL394
 19887 051f 0100     		.2byte	0x1
 19888 0521 50       		.byte	0x50
 19889 0522 6A010000 		.4byte	.LVL395
 19890 0526 76010000 		.4byte	.LVL396
 19891 052a 0100     		.2byte	0x1
 19892 052c 50       		.byte	0x50
ARM GAS  C:\Users\mathi\AppData\Local\Temp\ccuMtzkg.s 			page 350


 19893 052d 7A010000 		.4byte	.LVL397
 19894 0531 86010000 		.4byte	.LVL398
 19895 0535 0100     		.2byte	0x1
 19896 0537 50       		.byte	0x50
 19897 0538 8A010000 		.4byte	.LVL399
 19898 053c 96010000 		.4byte	.LVL400
 19899 0540 0100     		.2byte	0x1
 19900 0542 50       		.byte	0x50
 19901 0543 9A010000 		.4byte	.LVL401
 19902 0547 A6010000 		.4byte	.LVL402
 19903 054b 0100     		.2byte	0x1
 19904 054d 50       		.byte	0x50
 19905 054e AA010000 		.4byte	.LVL403
 19906 0552 B6010000 		.4byte	.LVL404
 19907 0556 0100     		.2byte	0x1
 19908 0558 50       		.byte	0x50
 19909 0559 BA010000 		.4byte	.LVL405
 19910 055d C6010000 		.4byte	.LVL406
 19911 0561 0100     		.2byte	0x1
 19912 0563 50       		.byte	0x50
 19913 0564 CA010000 		.4byte	.LVL407
 19914 0568 D6010000 		.4byte	.LVL408
 19915 056c 0100     		.2byte	0x1
 19916 056e 50       		.byte	0x50
 19917 056f DA010000 		.4byte	.LVL409
 19918 0573 E6010000 		.4byte	.LVL410
 19919 0577 0100     		.2byte	0x1
 19920 0579 50       		.byte	0x50
 19921 057a EA010000 		.4byte	.LVL411
 19922 057e F6010000 		.4byte	.LVL412
 19923 0582 0100     		.2byte	0x1
 19924 0584 50       		.byte	0x50
 19925 0585 FA010000 		.4byte	.LVL413
 19926 0589 06020000 		.4byte	.LVL414
 19927 058d 0100     		.2byte	0x1
 19928 058f 50       		.byte	0x50
 19929 0590 0A020000 		.4byte	.LVL415
 19930 0594 16020000 		.4byte	.LVL417
 19931 0598 0100     		.2byte	0x1
 19932 059a 50       		.byte	0x50
 19933 059b 2A020000 		.4byte	.LVL419
 19934 059f 36020000 		.4byte	.LVL420
 19935 05a3 0100     		.2byte	0x1
 19936 05a5 50       		.byte	0x50
 19937 05a6 3A020000 		.4byte	.LVL421
 19938 05aa 46020000 		.4byte	.LVL423
 19939 05ae 0100     		.2byte	0x1
 19940 05b0 50       		.byte	0x50
 19941 05b1 5A020000 		.4byte	.LVL426
 19942 05b5 66020000 		.4byte	.LVL427
 19943 05b9 0100     		.2byte	0x1
 19944 05bb 50       		.byte	0x50
 19945 05bc 6A020000 		.4byte	.LVL428
 19946 05c0 7E020000 		.4byte	.LVL429
 19947 05c4 0100     		.2byte	0x1
 19948 05c6 50       		.byte	0x50
 19949 05c7 00000000 		.4byte	0
ARM GAS  C:\Users\mathi\AppData\Local\Temp\ccuMtzkg.s 			page 351


 19950 05cb 00000000 		.4byte	0
 19951              	.LLST38:
 19952 05cf 20000000 		.4byte	.LVL350
 19953 05d3 2C000000 		.4byte	.LVL352
 19954 05d7 0400     		.2byte	0x4
 19955 05d9 0A       		.byte	0xa
 19956 05da 8F01     		.2byte	0x18f
 19957 05dc 9F       		.byte	0x9f
 19958 05dd 3A000000 		.4byte	.LVL353
 19959 05e1 7E020000 		.4byte	.LVL429
 19960 05e5 0400     		.2byte	0x4
 19961 05e7 0A       		.byte	0xa
 19962 05e8 8F01     		.2byte	0x18f
 19963 05ea 9F       		.byte	0x9f
 19964 05eb 00000000 		.4byte	0
 19965 05ef 00000000 		.4byte	0
 19966              	.LLST39:
 19967 05f3 20000000 		.4byte	.LVL350
 19968 05f7 2C000000 		.4byte	.LVL352
 19969 05fb 0400     		.2byte	0x4
 19970 05fd 0A       		.byte	0xa
 19971 05fe 2B01     		.2byte	0x12b
 19972 0600 9F       		.byte	0x9f
 19973 0601 3A000000 		.4byte	.LVL353
 19974 0605 7E020000 		.4byte	.LVL429
 19975 0609 0400     		.2byte	0x4
 19976 060b 0A       		.byte	0xa
 19977 060c 2B01     		.2byte	0x12b
 19978 060e 9F       		.byte	0x9f
 19979 060f 00000000 		.4byte	0
 19980 0613 00000000 		.4byte	0
 19981              	.LLST40:
 19982 0617 20000000 		.4byte	.LVL350
 19983 061b 2C000000 		.4byte	.LVL352
 19984 061f 0400     		.2byte	0x4
 19985 0621 0A       		.byte	0xa
 19986 0622 2501     		.2byte	0x125
 19987 0624 9F       		.byte	0x9f
 19988 0625 3A000000 		.4byte	.LVL353
 19989 0629 7E020000 		.4byte	.LVL429
 19990 062d 0400     		.2byte	0x4
 19991 062f 0A       		.byte	0xa
 19992 0630 2501     		.2byte	0x125
 19993 0632 9F       		.byte	0x9f
 19994 0633 00000000 		.4byte	0
 19995 0637 00000000 		.4byte	0
 19996              	.LLST41:
 19997 063b 20000000 		.4byte	.LVL350
 19998 063f 2C000000 		.4byte	.LVL352
 19999 0643 0400     		.2byte	0x4
 20000 0645 0A       		.byte	0xa
 20001 0646 5A01     		.2byte	0x15a
 20002 0648 9F       		.byte	0x9f
 20003 0649 3A000000 		.4byte	.LVL353
 20004 064d 7E020000 		.4byte	.LVL429
 20005 0651 0400     		.2byte	0x4
 20006 0653 0A       		.byte	0xa
ARM GAS  C:\Users\mathi\AppData\Local\Temp\ccuMtzkg.s 			page 352


 20007 0654 5A01     		.2byte	0x15a
 20008 0656 9F       		.byte	0x9f
 20009 0657 00000000 		.4byte	0
 20010 065b 00000000 		.4byte	0
 20011              	.LLST42:
 20012 065f 20000000 		.4byte	.LVL350
 20013 0663 2C000000 		.4byte	.LVL352
 20014 0667 0300     		.2byte	0x3
 20015 0669 08       		.byte	0x8
 20016 066a DC       		.byte	0xdc
 20017 066b 9F       		.byte	0x9f
 20018 066c 3A000000 		.4byte	.LVL353
 20019 0670 7E020000 		.4byte	.LVL429
 20020 0674 0300     		.2byte	0x3
 20021 0676 08       		.byte	0x8
 20022 0677 DC       		.byte	0xdc
 20023 0678 9F       		.byte	0x9f
 20024 0679 00000000 		.4byte	0
 20025 067d 00000000 		.4byte	0
 20026              	.LLST43:
 20027 0681 20000000 		.4byte	.LVL350
 20028 0685 2C000000 		.4byte	.LVL352
 20029 0689 0400     		.2byte	0x4
 20030 068b 0A       		.byte	0xa
 20031 068c 0401     		.2byte	0x104
 20032 068e 9F       		.byte	0x9f
 20033 068f 3A000000 		.4byte	.LVL353
 20034 0693 7E020000 		.4byte	.LVL429
 20035 0697 0400     		.2byte	0x4
 20036 0699 0A       		.byte	0xa
 20037 069a 0401     		.2byte	0x104
 20038 069c 9F       		.byte	0x9f
 20039 069d 00000000 		.4byte	0
 20040 06a1 00000000 		.4byte	0
 20041              	.LLST44:
 20042 06a5 52020000 		.4byte	.LVL425
 20043 06a9 7E020000 		.4byte	.LVL429
 20044 06ad 0300     		.2byte	0x3
 20045 06af 08       		.byte	0x8
 20046 06b0 F5       		.byte	0xf5
 20047 06b1 9F       		.byte	0x9f
 20048 06b2 00000000 		.4byte	0
 20049 06b6 00000000 		.4byte	0
 20050              	.LLST45:
 20051 06ba 52020000 		.4byte	.LVL425
 20052 06be 7E020000 		.4byte	.LVL429
 20053 06c2 0600     		.2byte	0x6
 20054 06c4 9E       		.byte	0x9e
 20055 06c5 04       		.uleb128 0x4
 20056 06c6 377F7543 		.4byte	0x43757f37
 20057 06ca 00000000 		.4byte	0
 20058 06ce 00000000 		.4byte	0
 20059              	.LLST46:
 20060 06d2 20000000 		.4byte	.LVL350
 20061 06d6 2A000000 		.4byte	.LVL351
 20062 06da 0200     		.2byte	0x2
 20063 06dc 30       		.byte	0x30
ARM GAS  C:\Users\mathi\AppData\Local\Temp\ccuMtzkg.s 			page 353


 20064 06dd 9F       		.byte	0x9f
 20065 06de 00000000 		.4byte	0
 20066 06e2 00000000 		.4byte	0
 20067              	.LLST47:
 20068 06e6 48000000 		.4byte	.LVL355
 20069 06ea 9A000000 		.4byte	.LVL367
 20070 06ee 0200     		.2byte	0x2
 20071 06f0 32       		.byte	0x32
 20072 06f1 9F       		.byte	0x9f
 20073 06f2 00000000 		.4byte	0
 20074 06f6 00000000 		.4byte	0
 20075              	.LLST48:
 20076 06fa 48000000 		.4byte	.LVL355
 20077 06fe 52000000 		.4byte	.LVL357
 20078 0702 0200     		.2byte	0x2
 20079 0704 31       		.byte	0x31
 20080 0705 9F       		.byte	0x9f
 20081 0706 00000000 		.4byte	0
 20082 070a 00000000 		.4byte	0
 20083              	.LLST49:
 20084 070e 64000000 		.4byte	.LVL359
 20085 0712 80020000 		.4byte	.LVL430
 20086 0716 0200     		.2byte	0x2
 20087 0718 32       		.byte	0x32
 20088 0719 9F       		.byte	0x9f
 20089 071a 00000000 		.4byte	0
 20090 071e 00000000 		.4byte	0
 20091              	.LLST50:
 20092 0722 72000000 		.4byte	.LVL362
 20093 0726 7C000000 		.4byte	.LVL364
 20094 072a 0200     		.2byte	0x2
 20095 072c 30       		.byte	0x30
 20096 072d 9F       		.byte	0x9f
 20097 072e 00000000 		.4byte	0
 20098 0732 00000000 		.4byte	0
 20099              	.LLST51:
 20100 0736 9A000000 		.4byte	.LVL367
 20101 073a 9E000000 		.4byte	.LVL368
 20102 073e 0200     		.2byte	0x2
 20103 0740 30       		.byte	0x30
 20104 0741 9F       		.byte	0x9f
 20105 0742 00000000 		.4byte	0
 20106 0746 00000000 		.4byte	0
 20107              	.LLST52:
 20108 074a 10020000 		.4byte	.LVL416
 20109 074e 1A020000 		.4byte	.LVL418
 20110 0752 0200     		.2byte	0x2
 20111 0754 31       		.byte	0x31
 20112 0755 9F       		.byte	0x9f
 20113 0756 00000000 		.4byte	0
 20114 075a 00000000 		.4byte	0
 20115              	.LLST53:
 20116 075e 40020000 		.4byte	.LVL422
 20117 0762 4A020000 		.4byte	.LVL424
 20118 0766 0200     		.2byte	0x2
 20119 0768 31       		.byte	0x31
 20120 0769 9F       		.byte	0x9f
ARM GAS  C:\Users\mathi\AppData\Local\Temp\ccuMtzkg.s 			page 354


 20121 076a 00000000 		.4byte	0
 20122 076e 00000000 		.4byte	0
 20123              	.LLST0:
 20124 0772 00000000 		.4byte	.LVL0
 20125 0776 14000000 		.4byte	.LVL2
 20126 077a 0100     		.2byte	0x1
 20127 077c 50       		.byte	0x50
 20128 077d 14000000 		.4byte	.LVL2
 20129 0781 50000000 		.4byte	.LFE257
 20130 0785 0100     		.2byte	0x1
 20131 0787 55       		.byte	0x55
 20132 0788 00000000 		.4byte	0
 20133 078c 00000000 		.4byte	0
 20134              	.LLST1:
 20135 0790 12000000 		.4byte	.LVL1
 20136 0794 1A000000 		.4byte	.LVL3
 20137 0798 0200     		.2byte	0x2
 20138 079a 30       		.byte	0x30
 20139 079b 9F       		.byte	0x9f
 20140 079c 1A000000 		.4byte	.LVL3
 20141 07a0 30000000 		.4byte	.LVL5
 20142 07a4 0100     		.2byte	0x1
 20143 07a6 50       		.byte	0x50
 20144 07a7 34000000 		.4byte	.LVL6
 20145 07ab 49000000 		.4byte	.LVL7-1
 20146 07af 0100     		.2byte	0x1
 20147 07b1 50       		.byte	0x50
 20148 07b2 00000000 		.4byte	0
 20149 07b6 00000000 		.4byte	0
 20150              	.LLST2:
 20151 07ba 00000000 		.4byte	.LVL8
 20152 07be 18000000 		.4byte	.LVL9
 20153 07c2 0100     		.2byte	0x1
 20154 07c4 50       		.byte	0x50
 20155 07c5 18000000 		.4byte	.LVL9
 20156 07c9 22000000 		.4byte	.LVL10
 20157 07cd 0400     		.2byte	0x4
 20158 07cf F3       		.byte	0xf3
 20159 07d0 01       		.uleb128 0x1
 20160 07d1 50       		.byte	0x50
 20161 07d2 9F       		.byte	0x9f
 20162 07d3 22000000 		.4byte	.LVL10
 20163 07d7 25000000 		.4byte	.LVL11-1
 20164 07db 0100     		.2byte	0x1
 20165 07dd 50       		.byte	0x50
 20166 07de 25000000 		.4byte	.LVL11-1
 20167 07e2 2C000000 		.4byte	.LFE258
 20168 07e6 0400     		.2byte	0x4
 20169 07e8 F3       		.byte	0xf3
 20170 07e9 01       		.uleb128 0x1
 20171 07ea 50       		.byte	0x50
 20172 07eb 9F       		.byte	0x9f
 20173 07ec 00000000 		.4byte	0
 20174 07f0 00000000 		.4byte	0
 20175              	.LLST3:
 20176 07f4 00000000 		.4byte	.LVL12
 20177 07f8 12000000 		.4byte	.LVL14
ARM GAS  C:\Users\mathi\AppData\Local\Temp\ccuMtzkg.s 			page 355


 20178 07fc 0100     		.2byte	0x1
 20179 07fe 50       		.byte	0x50
 20180 07ff 12000000 		.4byte	.LVL14
 20181 0803 A8000000 		.4byte	.LFE259
 20182 0807 0400     		.2byte	0x4
 20183 0809 F3       		.byte	0xf3
 20184 080a 01       		.uleb128 0x1
 20185 080b 50       		.byte	0x50
 20186 080c 9F       		.byte	0x9f
 20187 080d 00000000 		.4byte	0
 20188 0811 00000000 		.4byte	0
 20189              	.LLST4:
 20190 0815 0A000000 		.4byte	.LVL13
 20191 0819 16000000 		.4byte	.LVL15
 20192 081d 0200     		.2byte	0x2
 20193 081f 30       		.byte	0x30
 20194 0820 9F       		.byte	0x9f
 20195 0821 32000000 		.4byte	.LVL16
 20196 0825 42000000 		.4byte	.LVL18
 20197 0829 0100     		.2byte	0x1
 20198 082b 50       		.byte	0x50
 20199 082c 4C000000 		.4byte	.LVL21
 20200 0830 52000000 		.4byte	.LVL22
 20201 0834 0100     		.2byte	0x1
 20202 0836 50       		.byte	0x50
 20203 0837 00000000 		.4byte	0
 20204 083b 00000000 		.4byte	0
 20205              	.LLST5:
 20206 083f 0A000000 		.4byte	.LVL13
 20207 0843 16000000 		.4byte	.LVL15
 20208 0847 0200     		.2byte	0x2
 20209 0849 31       		.byte	0x31
 20210 084a 9F       		.byte	0x9f
 20211 084b 00000000 		.4byte	0
 20212 084f 00000000 		.4byte	0
 20213              	.LLST6:
 20214 0853 38000000 		.4byte	.LVL17
 20215 0857 9A000000 		.4byte	.LVL32
 20216 085b 0100     		.2byte	0x1
 20217 085d 56       		.byte	0x56
 20218 085e 00000000 		.4byte	0
 20219 0862 00000000 		.4byte	0
 20220              	.LLST7:
 20221 0866 5A000000 		.4byte	.LVL24
 20222 086a 64000000 		.4byte	.LVL26
 20223 086e 0200     		.2byte	0x2
 20224 0870 30       		.byte	0x30
 20225 0871 9F       		.byte	0x9f
 20226 0872 00000000 		.4byte	0
 20227 0876 00000000 		.4byte	0
 20228              	.LLST8:
 20229 087a 78000000 		.4byte	.LVL28
 20230 087e 82000000 		.4byte	.LVL30
 20231 0882 0200     		.2byte	0x2
 20232 0884 30       		.byte	0x30
 20233 0885 9F       		.byte	0x9f
 20234 0886 00000000 		.4byte	0
ARM GAS  C:\Users\mathi\AppData\Local\Temp\ccuMtzkg.s 			page 356


 20235 088a 00000000 		.4byte	0
 20236              	.LLST9:
 20237 088e 0A000000 		.4byte	.LVL34
 20238 0892 14000000 		.4byte	.LVL35
 20239 0896 0200     		.2byte	0x2
 20240 0898 30       		.byte	0x30
 20241 0899 9F       		.byte	0x9f
 20242 089a 2E000000 		.4byte	.LVL36
 20243 089e 38000000 		.4byte	.LVL37
 20244 08a2 0100     		.2byte	0x1
 20245 08a4 50       		.byte	0x50
 20246 08a5 3C000000 		.4byte	.LVL38
 20247 08a9 46000000 		.4byte	.LVL39
 20248 08ad 0100     		.2byte	0x1
 20249 08af 50       		.byte	0x50
 20250 08b0 4A000000 		.4byte	.LVL40
 20251 08b4 54000000 		.4byte	.LVL41
 20252 08b8 0100     		.2byte	0x1
 20253 08ba 50       		.byte	0x50
 20254 08bb 58000000 		.4byte	.LVL42
 20255 08bf 62000000 		.4byte	.LVL43
 20256 08c3 0100     		.2byte	0x1
 20257 08c5 50       		.byte	0x50
 20258 08c6 00000000 		.4byte	0
 20259 08ca 00000000 		.4byte	0
 20260              	.LLST10:
 20261 08ce 0A000000 		.4byte	.LVL34
 20262 08d2 14000000 		.4byte	.LVL35
 20263 08d6 0200     		.2byte	0x2
 20264 08d8 30       		.byte	0x30
 20265 08d9 9F       		.byte	0x9f
 20266 08da 00000000 		.4byte	0
 20267 08de 00000000 		.4byte	0
 20268              	.LLST11:
 20269 08e2 82010000 		.4byte	.LVL83
 20270 08e6 8C010000 		.4byte	.LVL85
 20271 08ea 0200     		.2byte	0x2
 20272 08ec 31       		.byte	0x31
 20273 08ed 9F       		.byte	0x9f
 20274 08ee 00000000 		.4byte	0
 20275 08f2 00000000 		.4byte	0
 20276              	.LLST12:
 20277 08f6 0A000000 		.4byte	.LVL91
 20278 08fa 14000000 		.4byte	.LVL92
 20279 08fe 0200     		.2byte	0x2
 20280 0900 30       		.byte	0x30
 20281 0901 9F       		.byte	0x9f
 20282 0902 2E000000 		.4byte	.LVL93
 20283 0906 38000000 		.4byte	.LVL94
 20284 090a 0100     		.2byte	0x1
 20285 090c 50       		.byte	0x50
 20286 090d 3C000000 		.4byte	.LVL95
 20287 0911 46000000 		.4byte	.LVL96
 20288 0915 0100     		.2byte	0x1
 20289 0917 50       		.byte	0x50
 20290 0918 4A000000 		.4byte	.LVL97
 20291 091c 54000000 		.4byte	.LVL98
ARM GAS  C:\Users\mathi\AppData\Local\Temp\ccuMtzkg.s 			page 357


 20292 0920 0100     		.2byte	0x1
 20293 0922 50       		.byte	0x50
 20294 0923 58000000 		.4byte	.LVL99
 20295 0927 62000000 		.4byte	.LVL100
 20296 092b 0100     		.2byte	0x1
 20297 092d 50       		.byte	0x50
 20298 092e 00000000 		.4byte	0
 20299 0932 00000000 		.4byte	0
 20300              	.LLST13:
 20301 0936 0A000000 		.4byte	.LVL91
 20302 093a 14000000 		.4byte	.LVL92
 20303 093e 0200     		.2byte	0x2
 20304 0940 30       		.byte	0x30
 20305 0941 9F       		.byte	0x9f
 20306 0942 00000000 		.4byte	0
 20307 0946 00000000 		.4byte	0
 20308              	.LLST14:
 20309 094a 82010000 		.4byte	.LVL140
 20310 094e 8C010000 		.4byte	.LVL142
 20311 0952 0200     		.2byte	0x2
 20312 0954 31       		.byte	0x31
 20313 0955 9F       		.byte	0x9f
 20314 0956 00000000 		.4byte	0
 20315 095a 00000000 		.4byte	0
 20316              	.LLST15:
 20317 095e 0A000000 		.4byte	.LVL148
 20318 0962 14000000 		.4byte	.LVL149
 20319 0966 0200     		.2byte	0x2
 20320 0968 30       		.byte	0x30
 20321 0969 9F       		.byte	0x9f
 20322 096a 2E000000 		.4byte	.LVL150
 20323 096e 38000000 		.4byte	.LVL151
 20324 0972 0100     		.2byte	0x1
 20325 0974 50       		.byte	0x50
 20326 0975 3C000000 		.4byte	.LVL152
 20327 0979 46000000 		.4byte	.LVL153
 20328 097d 0100     		.2byte	0x1
 20329 097f 50       		.byte	0x50
 20330 0980 4A000000 		.4byte	.LVL154
 20331 0984 54000000 		.4byte	.LVL155
 20332 0988 0100     		.2byte	0x1
 20333 098a 50       		.byte	0x50
 20334 098b 58000000 		.4byte	.LVL156
 20335 098f 62000000 		.4byte	.LVL157
 20336 0993 0100     		.2byte	0x1
 20337 0995 50       		.byte	0x50
 20338 0996 00000000 		.4byte	0
 20339 099a 00000000 		.4byte	0
 20340              	.LLST16:
 20341 099e 0A000000 		.4byte	.LVL148
 20342 09a2 14000000 		.4byte	.LVL149
 20343 09a6 0200     		.2byte	0x2
 20344 09a8 30       		.byte	0x30
 20345 09a9 9F       		.byte	0x9f
 20346 09aa 00000000 		.4byte	0
 20347 09ae 00000000 		.4byte	0
 20348              	.LLST17:
ARM GAS  C:\Users\mathi\AppData\Local\Temp\ccuMtzkg.s 			page 358


 20349 09b2 82010000 		.4byte	.LVL197
 20350 09b6 8C010000 		.4byte	.LVL199
 20351 09ba 0200     		.2byte	0x2
 20352 09bc 31       		.byte	0x31
 20353 09bd 9F       		.byte	0x9f
 20354 09be 00000000 		.4byte	0
 20355 09c2 00000000 		.4byte	0
 20356              	.LLST18:
 20357 09c6 00000000 		.4byte	.LVL205
 20358 09ca 1E000000 		.4byte	.LVL208
 20359 09ce 0100     		.2byte	0x1
 20360 09d0 50       		.byte	0x50
 20361 09d1 1E000000 		.4byte	.LVL208
 20362 09d5 36000000 		.4byte	.LVL211
 20363 09d9 0400     		.2byte	0x4
 20364 09db F3       		.byte	0xf3
 20365 09dc 01       		.uleb128 0x1
 20366 09dd 50       		.byte	0x50
 20367 09de 9F       		.byte	0x9f
 20368 09df 36000000 		.4byte	.LVL211
 20369 09e3 3C000000 		.4byte	.LVL212
 20370 09e7 0100     		.2byte	0x1
 20371 09e9 50       		.byte	0x50
 20372 09ea 3C000000 		.4byte	.LVL212
 20373 09ee AE030000 		.4byte	.LVL321
 20374 09f2 0400     		.2byte	0x4
 20375 09f4 F3       		.byte	0xf3
 20376 09f5 01       		.uleb128 0x1
 20377 09f6 50       		.byte	0x50
 20378 09f7 9F       		.byte	0x9f
 20379 09f8 AE030000 		.4byte	.LVL321
 20380 09fc BF030000 		.4byte	.LVL322-1
 20381 0a00 0100     		.2byte	0x1
 20382 0a02 50       		.byte	0x50
 20383 0a03 BF030000 		.4byte	.LVL322-1
 20384 0a07 C0030000 		.4byte	.LVL322
 20385 0a0b 0400     		.2byte	0x4
 20386 0a0d F3       		.byte	0xf3
 20387 0a0e 01       		.uleb128 0x1
 20388 0a0f 50       		.byte	0x50
 20389 0a10 9F       		.byte	0x9f
 20390 0a11 C0030000 		.4byte	.LVL322
 20391 0a15 C4030000 		.4byte	.LVL323
 20392 0a19 0100     		.2byte	0x1
 20393 0a1b 50       		.byte	0x50
 20394 0a1c C4030000 		.4byte	.LVL323
 20395 0a20 D4030000 		.4byte	.LFE263
 20396 0a24 0400     		.2byte	0x4
 20397 0a26 F3       		.byte	0xf3
 20398 0a27 01       		.uleb128 0x1
 20399 0a28 50       		.byte	0x50
 20400 0a29 9F       		.byte	0x9f
 20401 0a2a 00000000 		.4byte	0
 20402 0a2e 00000000 		.4byte	0
 20403              	.LLST19:
 20404 0a32 12000000 		.4byte	.LVL206
 20405 0a36 1E000000 		.4byte	.LVL208
ARM GAS  C:\Users\mathi\AppData\Local\Temp\ccuMtzkg.s 			page 359


 20406 0a3a 0100     		.2byte	0x1
 20407 0a3c 50       		.byte	0x50
 20408 0a3d 1E000000 		.4byte	.LVL208
 20409 0a41 28000000 		.4byte	.LVL210
 20410 0a45 0400     		.2byte	0x4
 20411 0a47 F3       		.byte	0xf3
 20412 0a48 01       		.uleb128 0x1
 20413 0a49 50       		.byte	0x50
 20414 0a4a 9F       		.byte	0x9f
 20415 0a4b F0010000 		.4byte	.LVL267
 20416 0a4f AE030000 		.4byte	.LVL321
 20417 0a53 0400     		.2byte	0x4
 20418 0a55 F3       		.byte	0xf3
 20419 0a56 01       		.uleb128 0x1
 20420 0a57 50       		.byte	0x50
 20421 0a58 9F       		.byte	0x9f
 20422 0a59 C0030000 		.4byte	.LVL322
 20423 0a5d C4030000 		.4byte	.LVL323
 20424 0a61 0100     		.2byte	0x1
 20425 0a63 50       		.byte	0x50
 20426 0a64 C4030000 		.4byte	.LVL323
 20427 0a68 C6030000 		.4byte	.LVL324
 20428 0a6c 0400     		.2byte	0x4
 20429 0a6e F3       		.byte	0xf3
 20430 0a6f 01       		.uleb128 0x1
 20431 0a70 50       		.byte	0x50
 20432 0a71 9F       		.byte	0x9f
 20433 0a72 00000000 		.4byte	0
 20434 0a76 00000000 		.4byte	0
 20435              	.LLST20:
 20436 0a7a 18000000 		.4byte	.LVL207
 20437 0a7e 22000000 		.4byte	.LVL209
 20438 0a82 0200     		.2byte	0x2
 20439 0a84 30       		.byte	0x30
 20440 0a85 9F       		.byte	0x9f
 20441 0a86 00000000 		.4byte	0
 20442 0a8a 00000000 		.4byte	0
 20443              	.LLST21:
 20444 0a8e 70030000 		.4byte	.LVL315
 20445 0a92 7A030000 		.4byte	.LVL317
 20446 0a96 0200     		.2byte	0x2
 20447 0a98 31       		.byte	0x31
 20448 0a99 9F       		.byte	0x9f
 20449 0a9a 00000000 		.4byte	0
 20450 0a9e 00000000 		.4byte	0
 20451              	.LLST22:
 20452 0aa2 36000000 		.4byte	.LVL211
 20453 0aa6 40000000 		.4byte	.LVL213
 20454 0aaa 0200     		.2byte	0x2
 20455 0aac 30       		.byte	0x30
 20456 0aad 9F       		.byte	0x9f
 20457 0aae 00000000 		.4byte	0
 20458 0ab2 00000000 		.4byte	0
 20459              	.LLST23:
 20460 0ab6 A4010000 		.4byte	.LVL261
 20461 0aba AE010000 		.4byte	.LVL263
 20462 0abe 0200     		.2byte	0x2
ARM GAS  C:\Users\mathi\AppData\Local\Temp\ccuMtzkg.s 			page 360


 20463 0ac0 31       		.byte	0x31
 20464 0ac1 9F       		.byte	0x9f
 20465 0ac2 00000000 		.4byte	0
 20466 0ac6 00000000 		.4byte	0
 20467              	.LLST24:
 20468 0aca 00000000 		.4byte	.LVL326
 20469 0ace 14000000 		.4byte	.LVL329
 20470 0ad2 0100     		.2byte	0x1
 20471 0ad4 50       		.byte	0x50
 20472 0ad5 14000000 		.4byte	.LVL329
 20473 0ad9 F8000000 		.4byte	.LFE264
 20474 0add 0400     		.2byte	0x4
 20475 0adf F3       		.byte	0xf3
 20476 0ae0 01       		.uleb128 0x1
 20477 0ae1 50       		.byte	0x50
 20478 0ae2 9F       		.byte	0x9f
 20479 0ae3 00000000 		.4byte	0
 20480 0ae7 00000000 		.4byte	0
 20481              	.LLST25:
 20482 0aeb 00000000 		.4byte	.LVL326
 20483 0aef 12000000 		.4byte	.LVL328
 20484 0af3 0100     		.2byte	0x1
 20485 0af5 51       		.byte	0x51
 20486 0af6 12000000 		.4byte	.LVL328
 20487 0afa F8000000 		.4byte	.LFE264
 20488 0afe 0400     		.2byte	0x4
 20489 0b00 F3       		.byte	0xf3
 20490 0b01 01       		.uleb128 0x1
 20491 0b02 51       		.byte	0x51
 20492 0b03 9F       		.byte	0x9f
 20493 0b04 00000000 		.4byte	0
 20494 0b08 00000000 		.4byte	0
 20495              	.LLST26:
 20496 0b0c 0E000000 		.4byte	.LVL327
 20497 0b10 18000000 		.4byte	.LVL330
 20498 0b14 0200     		.2byte	0x2
 20499 0b16 30       		.byte	0x30
 20500 0b17 9F       		.byte	0x9f
 20501 0b18 00000000 		.4byte	0
 20502 0b1c 00000000 		.4byte	0
 20503              	.LLST27:
 20504 0b20 0E000000 		.4byte	.LVL327
 20505 0b24 18000000 		.4byte	.LVL330
 20506 0b28 0200     		.2byte	0x2
 20507 0b2a 31       		.byte	0x31
 20508 0b2b 9F       		.byte	0x9f
 20509 0b2c 00000000 		.4byte	0
 20510 0b30 00000000 		.4byte	0
 20511              	.LLST28:
 20512 0b34 1A000000 		.4byte	.LVL331
 20513 0b38 36000000 		.4byte	.LVL333
 20514 0b3c 0100     		.2byte	0x1
 20515 0b3e 55       		.byte	0x55
 20516 0b3f 42000000 		.4byte	.LVL334
 20517 0b43 70000000 		.4byte	.LVL337
 20518 0b47 0100     		.2byte	0x1
 20519 0b49 55       		.byte	0x55
ARM GAS  C:\Users\mathi\AppData\Local\Temp\ccuMtzkg.s 			page 361


 20520 0b4a 74000000 		.4byte	.LVL338
 20521 0b4e AA000000 		.4byte	.LVL342
 20522 0b52 0100     		.2byte	0x1
 20523 0b54 55       		.byte	0x55
 20524 0b55 AE000000 		.4byte	.LVL343
 20525 0b59 F8000000 		.4byte	.LFE264
 20526 0b5d 0100     		.2byte	0x1
 20527 0b5f 55       		.byte	0x55
 20528 0b60 00000000 		.4byte	0
 20529 0b64 00000000 		.4byte	0
 20530              	.LLST29:
 20531 0b68 1A000000 		.4byte	.LVL331
 20532 0b6c 36000000 		.4byte	.LVL333
 20533 0b70 0100     		.2byte	0x1
 20534 0b72 56       		.byte	0x56
 20535 0b73 42000000 		.4byte	.LVL334
 20536 0b77 70000000 		.4byte	.LVL337
 20537 0b7b 0100     		.2byte	0x1
 20538 0b7d 56       		.byte	0x56
 20539 0b7e 74000000 		.4byte	.LVL338
 20540 0b82 AA000000 		.4byte	.LVL342
 20541 0b86 0100     		.2byte	0x1
 20542 0b88 56       		.byte	0x56
 20543 0b89 AE000000 		.4byte	.LVL343
 20544 0b8d F8000000 		.4byte	.LFE264
 20545 0b91 0100     		.2byte	0x1
 20546 0b93 56       		.byte	0x56
 20547 0b94 00000000 		.4byte	0
 20548 0b98 00000000 		.4byte	0
 20549              	.LLST60:
 20550 0b9c 00000000 		.4byte	.LVL451
 20551 0ba0 84000000 		.4byte	.LVL456
 20552 0ba4 0100     		.2byte	0x1
 20553 0ba6 50       		.byte	0x50
 20554 0ba7 84000000 		.4byte	.LVL456
 20555 0bab BE000000 		.4byte	.LVL460
 20556 0baf 0400     		.2byte	0x4
 20557 0bb1 F3       		.byte	0xf3
 20558 0bb2 01       		.uleb128 0x1
 20559 0bb3 50       		.byte	0x50
 20560 0bb4 9F       		.byte	0x9f
 20561 0bb5 BE000000 		.4byte	.LVL460
 20562 0bb9 D0000000 		.4byte	.LVL465
 20563 0bbd 0100     		.2byte	0x1
 20564 0bbf 50       		.byte	0x50
 20565 0bc0 D0000000 		.4byte	.LVL465
 20566 0bc4 B6030000 		.4byte	.LVL551
 20567 0bc8 0400     		.2byte	0x4
 20568 0bca F3       		.byte	0xf3
 20569 0bcb 01       		.uleb128 0x1
 20570 0bcc 50       		.byte	0x50
 20571 0bcd 9F       		.byte	0x9f
 20572 0bce B6030000 		.4byte	.LVL551
 20573 0bd2 BE030000 		.4byte	.LVL554
 20574 0bd6 0100     		.2byte	0x1
 20575 0bd8 50       		.byte	0x50
 20576 0bd9 BE030000 		.4byte	.LVL554
ARM GAS  C:\Users\mathi\AppData\Local\Temp\ccuMtzkg.s 			page 362


 20577 0bdd D0030000 		.4byte	.LVL558
 20578 0be1 0400     		.2byte	0x4
 20579 0be3 F3       		.byte	0xf3
 20580 0be4 01       		.uleb128 0x1
 20581 0be5 50       		.byte	0x50
 20582 0be6 9F       		.byte	0x9f
 20583 0be7 D0030000 		.4byte	.LVL558
 20584 0beb E0030000 		.4byte	.LVL563
 20585 0bef 0100     		.2byte	0x1
 20586 0bf1 50       		.byte	0x50
 20587 0bf2 E0030000 		.4byte	.LVL563
 20588 0bf6 52040000 		.4byte	.LVL577
 20589 0bfa 0400     		.2byte	0x4
 20590 0bfc F3       		.byte	0xf3
 20591 0bfd 01       		.uleb128 0x1
 20592 0bfe 50       		.byte	0x50
 20593 0bff 9F       		.byte	0x9f
 20594 0c00 52040000 		.4byte	.LVL577
 20595 0c04 56040000 		.4byte	.LVL578
 20596 0c08 0100     		.2byte	0x1
 20597 0c0a 50       		.byte	0x50
 20598 0c0b 56040000 		.4byte	.LVL578
 20599 0c0f 58040000 		.4byte	.LVL579
 20600 0c13 0400     		.2byte	0x4
 20601 0c15 F3       		.byte	0xf3
 20602 0c16 01       		.uleb128 0x1
 20603 0c17 50       		.byte	0x50
 20604 0c18 9F       		.byte	0x9f
 20605 0c19 58040000 		.4byte	.LVL579
 20606 0c1d 5C040000 		.4byte	.LVL580
 20607 0c21 0100     		.2byte	0x1
 20608 0c23 50       		.byte	0x50
 20609 0c24 5C040000 		.4byte	.LVL580
 20610 0c28 5E040000 		.4byte	.LVL581
 20611 0c2c 0400     		.2byte	0x4
 20612 0c2e F3       		.byte	0xf3
 20613 0c2f 01       		.uleb128 0x1
 20614 0c30 50       		.byte	0x50
 20615 0c31 9F       		.byte	0x9f
 20616 0c32 5E040000 		.4byte	.LVL581
 20617 0c36 62040000 		.4byte	.LVL582
 20618 0c3a 0100     		.2byte	0x1
 20619 0c3c 50       		.byte	0x50
 20620 0c3d 62040000 		.4byte	.LVL582
 20621 0c41 64040000 		.4byte	.LVL583
 20622 0c45 0400     		.2byte	0x4
 20623 0c47 F3       		.byte	0xf3
 20624 0c48 01       		.uleb128 0x1
 20625 0c49 50       		.byte	0x50
 20626 0c4a 9F       		.byte	0x9f
 20627 0c4b 64040000 		.4byte	.LVL583
 20628 0c4f 68040000 		.4byte	.LVL584
 20629 0c53 0100     		.2byte	0x1
 20630 0c55 50       		.byte	0x50
 20631 0c56 68040000 		.4byte	.LVL584
 20632 0c5a 6A040000 		.4byte	.LVL585
 20633 0c5e 0400     		.2byte	0x4
ARM GAS  C:\Users\mathi\AppData\Local\Temp\ccuMtzkg.s 			page 363


 20634 0c60 F3       		.byte	0xf3
 20635 0c61 01       		.uleb128 0x1
 20636 0c62 50       		.byte	0x50
 20637 0c63 9F       		.byte	0x9f
 20638 0c64 6A040000 		.4byte	.LVL585
 20639 0c68 6E040000 		.4byte	.LVL586
 20640 0c6c 0100     		.2byte	0x1
 20641 0c6e 50       		.byte	0x50
 20642 0c6f 6E040000 		.4byte	.LVL586
 20643 0c73 70040000 		.4byte	.LVL587
 20644 0c77 0400     		.2byte	0x4
 20645 0c79 F3       		.byte	0xf3
 20646 0c7a 01       		.uleb128 0x1
 20647 0c7b 50       		.byte	0x50
 20648 0c7c 9F       		.byte	0x9f
 20649 0c7d 70040000 		.4byte	.LVL587
 20650 0c81 74040000 		.4byte	.LVL588
 20651 0c85 0100     		.2byte	0x1
 20652 0c87 50       		.byte	0x50
 20653 0c88 74040000 		.4byte	.LVL588
 20654 0c8c A8040000 		.4byte	.LFE267
 20655 0c90 0400     		.2byte	0x4
 20656 0c92 F3       		.byte	0xf3
 20657 0c93 01       		.uleb128 0x1
 20658 0c94 50       		.byte	0x50
 20659 0c95 9F       		.byte	0x9f
 20660 0c96 00000000 		.4byte	0
 20661 0c9a 00000000 		.4byte	0
 20662              	.LLST61:
 20663 0c9e 00000000 		.4byte	.LVL451
 20664 0ca2 84000000 		.4byte	.LVL456
 20665 0ca6 0100     		.2byte	0x1
 20666 0ca8 51       		.byte	0x51
 20667 0ca9 84000000 		.4byte	.LVL456
 20668 0cad AC000000 		.4byte	.LVL459
 20669 0cb1 0100     		.2byte	0x1
 20670 0cb3 56       		.byte	0x56
 20671 0cb4 BE000000 		.4byte	.LVL460
 20672 0cb8 C8000000 		.4byte	.LVL462
 20673 0cbc 0100     		.2byte	0x1
 20674 0cbe 51       		.byte	0x51
 20675 0cbf C8000000 		.4byte	.LVL462
 20676 0cc3 CC000000 		.4byte	.LVL464
 20677 0cc7 0300     		.2byte	0x3
 20678 0cc9 74       		.byte	0x74
 20679 0cca 01       		.sleb128 1
 20680 0ccb 9F       		.byte	0x9f
 20681 0ccc CC000000 		.4byte	.LVL464
 20682 0cd0 B6030000 		.4byte	.LVL551
 20683 0cd4 0100     		.2byte	0x1
 20684 0cd6 56       		.byte	0x56
 20685 0cd7 B6030000 		.4byte	.LVL551
 20686 0cdb B8030000 		.4byte	.LVL552
 20687 0cdf 0100     		.2byte	0x1
 20688 0ce1 51       		.byte	0x51
 20689 0ce2 B8030000 		.4byte	.LVL552
 20690 0ce6 D0030000 		.4byte	.LVL558
ARM GAS  C:\Users\mathi\AppData\Local\Temp\ccuMtzkg.s 			page 364


 20691 0cea 0100     		.2byte	0x1
 20692 0cec 56       		.byte	0x56
 20693 0ced D0030000 		.4byte	.LVL558
 20694 0cf1 D2030000 		.4byte	.LVL559
 20695 0cf5 0100     		.2byte	0x1
 20696 0cf7 51       		.byte	0x51
 20697 0cf8 D2030000 		.4byte	.LVL559
 20698 0cfc D8030000 		.4byte	.LVL561
 20699 0d00 0100     		.2byte	0x1
 20700 0d02 56       		.byte	0x56
 20701 0d03 D8030000 		.4byte	.LVL561
 20702 0d07 DC030000 		.4byte	.LVL562
 20703 0d0b 0300     		.2byte	0x3
 20704 0d0d 74       		.byte	0x74
 20705 0d0e 01       		.sleb128 1
 20706 0d0f 9F       		.byte	0x9f
 20707 0d10 DC030000 		.4byte	.LVL562
 20708 0d14 52040000 		.4byte	.LVL577
 20709 0d18 0100     		.2byte	0x1
 20710 0d1a 56       		.byte	0x56
 20711 0d1b 52040000 		.4byte	.LVL577
 20712 0d1f 70040000 		.4byte	.LVL587
 20713 0d23 0100     		.2byte	0x1
 20714 0d25 51       		.byte	0x51
 20715 0d26 70040000 		.4byte	.LVL587
 20716 0d2a 7C040000 		.4byte	.LVL590
 20717 0d2e 0100     		.2byte	0x1
 20718 0d30 56       		.byte	0x56
 20719 0d31 80040000 		.4byte	.LVL591
 20720 0d35 A8040000 		.4byte	.LFE267
 20721 0d39 0100     		.2byte	0x1
 20722 0d3b 56       		.byte	0x56
 20723 0d3c 00000000 		.4byte	0
 20724 0d40 00000000 		.4byte	0
 20725              	.LLST62:
 20726 0d44 00000000 		.4byte	.LVL451
 20727 0d48 84000000 		.4byte	.LVL456
 20728 0d4c 0100     		.2byte	0x1
 20729 0d4e 52       		.byte	0x52
 20730 0d4f 84000000 		.4byte	.LVL456
 20731 0d53 AC000000 		.4byte	.LVL459
 20732 0d57 0100     		.2byte	0x1
 20733 0d59 57       		.byte	0x57
 20734 0d5a BE000000 		.4byte	.LVL460
 20735 0d5e C0000000 		.4byte	.LVL461
 20736 0d62 0100     		.2byte	0x1
 20737 0d64 52       		.byte	0x52
 20738 0d65 C0000000 		.4byte	.LVL461
 20739 0d69 F6000000 		.4byte	.LVL472
 20740 0d6d 0100     		.2byte	0x1
 20741 0d6f 57       		.byte	0x57
 20742 0d70 F6000000 		.4byte	.LVL472
 20743 0d74 FC000000 		.4byte	.LVL473
 20744 0d78 0300     		.2byte	0x3
 20745 0d7a 75       		.byte	0x75
 20746 0d7b 01       		.sleb128 1
 20747 0d7c 9F       		.byte	0x9f
ARM GAS  C:\Users\mathi\AppData\Local\Temp\ccuMtzkg.s 			page 365


 20748 0d7d FC000000 		.4byte	.LVL473
 20749 0d81 A2030000 		.4byte	.LVL549
 20750 0d85 0100     		.2byte	0x1
 20751 0d87 57       		.byte	0x57
 20752 0d88 B6030000 		.4byte	.LVL551
 20753 0d8c BA030000 		.4byte	.LVL553
 20754 0d90 0100     		.2byte	0x1
 20755 0d92 52       		.byte	0x52
 20756 0d93 BA030000 		.4byte	.LVL553
 20757 0d97 D0030000 		.4byte	.LVL558
 20758 0d9b 0100     		.2byte	0x1
 20759 0d9d 57       		.byte	0x57
 20760 0d9e D0030000 		.4byte	.LVL558
 20761 0da2 D6030000 		.4byte	.LVL560
 20762 0da6 0100     		.2byte	0x1
 20763 0da8 52       		.byte	0x52
 20764 0da9 D6030000 		.4byte	.LVL560
 20765 0dad 32040000 		.4byte	.LVL573
 20766 0db1 0100     		.2byte	0x1
 20767 0db3 57       		.byte	0x57
 20768 0db4 32040000 		.4byte	.LVL573
 20769 0db8 38040000 		.4byte	.LVL574
 20770 0dbc 0300     		.2byte	0x3
 20771 0dbe 75       		.byte	0x75
 20772 0dbf 01       		.sleb128 1
 20773 0dc0 9F       		.byte	0x9f
 20774 0dc1 38040000 		.4byte	.LVL574
 20775 0dc5 52040000 		.4byte	.LVL577
 20776 0dc9 0100     		.2byte	0x1
 20777 0dcb 57       		.byte	0x57
 20778 0dcc 52040000 		.4byte	.LVL577
 20779 0dd0 70040000 		.4byte	.LVL587
 20780 0dd4 0100     		.2byte	0x1
 20781 0dd6 52       		.byte	0x52
 20782 0dd7 70040000 		.4byte	.LVL587
 20783 0ddb 7C040000 		.4byte	.LVL590
 20784 0ddf 0100     		.2byte	0x1
 20785 0de1 57       		.byte	0x57
 20786 0de2 80040000 		.4byte	.LVL591
 20787 0de6 A8040000 		.4byte	.LFE267
 20788 0dea 0100     		.2byte	0x1
 20789 0dec 57       		.byte	0x57
 20790 0ded 00000000 		.4byte	0
 20791 0df1 00000000 		.4byte	0
 20792              	.LLST63:
 20793 0df5 00000000 		.4byte	.LVL451
 20794 0df9 80000000 		.4byte	.LVL455
 20795 0dfd 0100     		.2byte	0x1
 20796 0dff 53       		.byte	0x53
 20797 0e00 80000000 		.4byte	.LVL455
 20798 0e04 BE000000 		.4byte	.LVL460
 20799 0e08 0400     		.2byte	0x4
 20800 0e0a F3       		.byte	0xf3
 20801 0e0b 01       		.uleb128 0x1
 20802 0e0c 53       		.byte	0x53
 20803 0e0d 9F       		.byte	0x9f
 20804 0e0e BE000000 		.4byte	.LVL460
ARM GAS  C:\Users\mathi\AppData\Local\Temp\ccuMtzkg.s 			page 366


 20805 0e12 DC000000 		.4byte	.LVL467
 20806 0e16 0100     		.2byte	0x1
 20807 0e18 53       		.byte	0x53
 20808 0e19 DC000000 		.4byte	.LVL467
 20809 0e1d B6030000 		.4byte	.LVL551
 20810 0e21 0400     		.2byte	0x4
 20811 0e23 F3       		.byte	0xf3
 20812 0e24 01       		.uleb128 0x1
 20813 0e25 53       		.byte	0x53
 20814 0e26 9F       		.byte	0x9f
 20815 0e27 B6030000 		.4byte	.LVL551
 20816 0e2b BE030000 		.4byte	.LVL554
 20817 0e2f 0100     		.2byte	0x1
 20818 0e31 53       		.byte	0x53
 20819 0e32 BE030000 		.4byte	.LVL554
 20820 0e36 D0030000 		.4byte	.LVL558
 20821 0e3a 0400     		.2byte	0x4
 20822 0e3c F3       		.byte	0xf3
 20823 0e3d 01       		.uleb128 0x1
 20824 0e3e 53       		.byte	0x53
 20825 0e3f 9F       		.byte	0x9f
 20826 0e40 D0030000 		.4byte	.LVL558
 20827 0e44 EC030000 		.4byte	.LVL565
 20828 0e48 0100     		.2byte	0x1
 20829 0e4a 53       		.byte	0x53
 20830 0e4b EC030000 		.4byte	.LVL565
 20831 0e4f 52040000 		.4byte	.LVL577
 20832 0e53 0400     		.2byte	0x4
 20833 0e55 F3       		.byte	0xf3
 20834 0e56 01       		.uleb128 0x1
 20835 0e57 53       		.byte	0x53
 20836 0e58 9F       		.byte	0x9f
 20837 0e59 52040000 		.4byte	.LVL577
 20838 0e5d 76040000 		.4byte	.LVL589
 20839 0e61 0100     		.2byte	0x1
 20840 0e63 53       		.byte	0x53
 20841 0e64 76040000 		.4byte	.LVL589
 20842 0e68 A8040000 		.4byte	.LFE267
 20843 0e6c 0400     		.2byte	0x4
 20844 0e6e F3       		.byte	0xf3
 20845 0e6f 01       		.uleb128 0x1
 20846 0e70 53       		.byte	0x53
 20847 0e71 9F       		.byte	0x9f
 20848 0e72 00000000 		.4byte	0
 20849 0e76 00000000 		.4byte	0
 20850              	.LLST64:
 20851 0e7a 00000000 		.4byte	.LVL451
 20852 0e7e BE000000 		.4byte	.LVL460
 20853 0e82 0200     		.2byte	0x2
 20854 0e84 91       		.byte	0x91
 20855 0e85 00       		.sleb128 0
 20856 0e86 BE000000 		.4byte	.LVL460
 20857 0e8a A8040000 		.4byte	.LFE267
 20858 0e8e 0200     		.2byte	0x2
 20859 0e90 91       		.byte	0x91
 20860 0e91 00       		.sleb128 0
 20861 0e92 00000000 		.4byte	0
ARM GAS  C:\Users\mathi\AppData\Local\Temp\ccuMtzkg.s 			page 367


 20862 0e96 00000000 		.4byte	0
 20863              	.LLST65:
 20864 0e9a 00000000 		.4byte	.LVL451
 20865 0e9e BE000000 		.4byte	.LVL460
 20866 0ea2 0200     		.2byte	0x2
 20867 0ea4 91       		.byte	0x91
 20868 0ea5 04       		.sleb128 4
 20869 0ea6 BE000000 		.4byte	.LVL460
 20870 0eaa A8040000 		.4byte	.LFE267
 20871 0eae 0200     		.2byte	0x2
 20872 0eb0 91       		.byte	0x91
 20873 0eb1 04       		.sleb128 4
 20874 0eb2 00000000 		.4byte	0
 20875 0eb6 00000000 		.4byte	0
 20876              	.LLST66:
 20877 0eba 00000000 		.4byte	.LVL451
 20878 0ebe BE000000 		.4byte	.LVL460
 20879 0ec2 0200     		.2byte	0x2
 20880 0ec4 91       		.byte	0x91
 20881 0ec5 08       		.sleb128 8
 20882 0ec6 BE000000 		.4byte	.LVL460
 20883 0eca A8040000 		.4byte	.LFE267
 20884 0ece 0200     		.2byte	0x2
 20885 0ed0 91       		.byte	0x91
 20886 0ed1 08       		.sleb128 8
 20887 0ed2 00000000 		.4byte	0
 20888 0ed6 00000000 		.4byte	0
 20889              	.LLST67:
 20890 0eda 14000000 		.4byte	.LVL452
 20891 0ede AA000000 		.4byte	.LVL458
 20892 0ee2 0200     		.2byte	0x2
 20893 0ee4 30       		.byte	0x30
 20894 0ee5 9F       		.byte	0x9f
 20895 0ee6 BE000000 		.4byte	.LVL460
 20896 0eea 16010000 		.4byte	.LVL476
 20897 0eee 0200     		.2byte	0x2
 20898 0ef0 30       		.byte	0x30
 20899 0ef1 9F       		.byte	0x9f
 20900 0ef2 20010000 		.4byte	.LVL477
 20901 0ef6 26010000 		.4byte	.LVL478
 20902 0efa 0100     		.2byte	0x1
 20903 0efc 50       		.byte	0x50
 20904 0efd 2A010000 		.4byte	.LVL479
 20905 0f01 34010000 		.4byte	.LVL481
 20906 0f05 0100     		.2byte	0x1
 20907 0f07 50       		.byte	0x50
 20908 0f08 4C010000 		.4byte	.LVL483
 20909 0f0c 58010000 		.4byte	.LVL484
 20910 0f10 0100     		.2byte	0x1
 20911 0f12 50       		.byte	0x50
 20912 0f13 5E010000 		.4byte	.LVL485
 20913 0f17 6C010000 		.4byte	.LVL486
 20914 0f1b 0100     		.2byte	0x1
 20915 0f1d 50       		.byte	0x50
 20916 0f1e 72010000 		.4byte	.LVL487
 20917 0f22 7E010000 		.4byte	.LVL488
 20918 0f26 0100     		.2byte	0x1
ARM GAS  C:\Users\mathi\AppData\Local\Temp\ccuMtzkg.s 			page 368


 20919 0f28 50       		.byte	0x50
 20920 0f29 84010000 		.4byte	.LVL489
 20921 0f2d 92010000 		.4byte	.LVL490
 20922 0f31 0100     		.2byte	0x1
 20923 0f33 50       		.byte	0x50
 20924 0f34 98010000 		.4byte	.LVL491
 20925 0f38 A4010000 		.4byte	.LVL492
 20926 0f3c 0100     		.2byte	0x1
 20927 0f3e 50       		.byte	0x50
 20928 0f3f AA010000 		.4byte	.LVL493
 20929 0f43 BA010000 		.4byte	.LVL494
 20930 0f47 0100     		.2byte	0x1
 20931 0f49 50       		.byte	0x50
 20932 0f4a C0010000 		.4byte	.LVL495
 20933 0f4e CE010000 		.4byte	.LVL496
 20934 0f52 0100     		.2byte	0x1
 20935 0f54 50       		.byte	0x50
 20936 0f55 D4010000 		.4byte	.LVL497
 20937 0f59 E0010000 		.4byte	.LVL498
 20938 0f5d 0100     		.2byte	0x1
 20939 0f5f 50       		.byte	0x50
 20940 0f60 E4010000 		.4byte	.LVL499
 20941 0f64 F0010000 		.4byte	.LVL500
 20942 0f68 0100     		.2byte	0x1
 20943 0f6a 50       		.byte	0x50
 20944 0f6b F4010000 		.4byte	.LVL501
 20945 0f6f 00020000 		.4byte	.LVL502
 20946 0f73 0100     		.2byte	0x1
 20947 0f75 50       		.byte	0x50
 20948 0f76 04020000 		.4byte	.LVL503
 20949 0f7a 10020000 		.4byte	.LVL504
 20950 0f7e 0100     		.2byte	0x1
 20951 0f80 50       		.byte	0x50
 20952 0f81 14020000 		.4byte	.LVL505
 20953 0f85 20020000 		.4byte	.LVL506
 20954 0f89 0100     		.2byte	0x1
 20955 0f8b 50       		.byte	0x50
 20956 0f8c 24020000 		.4byte	.LVL507
 20957 0f90 30020000 		.4byte	.LVL508
 20958 0f94 0100     		.2byte	0x1
 20959 0f96 50       		.byte	0x50
 20960 0f97 34020000 		.4byte	.LVL509
 20961 0f9b 40020000 		.4byte	.LVL510
 20962 0f9f 0100     		.2byte	0x1
 20963 0fa1 50       		.byte	0x50
 20964 0fa2 44020000 		.4byte	.LVL511
 20965 0fa6 50020000 		.4byte	.LVL512
 20966 0faa 0100     		.2byte	0x1
 20967 0fac 50       		.byte	0x50
 20968 0fad 54020000 		.4byte	.LVL513
 20969 0fb1 64020000 		.4byte	.LVL514
 20970 0fb5 0100     		.2byte	0x1
 20971 0fb7 50       		.byte	0x50
 20972 0fb8 68020000 		.4byte	.LVL515
 20973 0fbc 76020000 		.4byte	.LVL516
 20974 0fc0 0100     		.2byte	0x1
 20975 0fc2 50       		.byte	0x50
ARM GAS  C:\Users\mathi\AppData\Local\Temp\ccuMtzkg.s 			page 369


 20976 0fc3 7A020000 		.4byte	.LVL517
 20977 0fc7 8A020000 		.4byte	.LVL518
 20978 0fcb 0100     		.2byte	0x1
 20979 0fcd 50       		.byte	0x50
 20980 0fce 8E020000 		.4byte	.LVL519
 20981 0fd2 9C020000 		.4byte	.LVL520
 20982 0fd6 0100     		.2byte	0x1
 20983 0fd8 50       		.byte	0x50
 20984 0fd9 A0020000 		.4byte	.LVL521
 20985 0fdd B0020000 		.4byte	.LVL522
 20986 0fe1 0100     		.2byte	0x1
 20987 0fe3 50       		.byte	0x50
 20988 0fe4 B4020000 		.4byte	.LVL523
 20989 0fe8 C2020000 		.4byte	.LVL524
 20990 0fec 0100     		.2byte	0x1
 20991 0fee 50       		.byte	0x50
 20992 0fef C6020000 		.4byte	.LVL525
 20993 0ff3 D6020000 		.4byte	.LVL526
 20994 0ff7 0100     		.2byte	0x1
 20995 0ff9 50       		.byte	0x50
 20996 0ffa DA020000 		.4byte	.LVL527
 20997 0ffe E8020000 		.4byte	.LVL528
 20998 1002 0100     		.2byte	0x1
 20999 1004 50       		.byte	0x50
 21000 1005 EC020000 		.4byte	.LVL529
 21001 1009 F8020000 		.4byte	.LVL531
 21002 100d 0100     		.2byte	0x1
 21003 100f 50       		.byte	0x50
 21004 1010 0C030000 		.4byte	.LVL533
 21005 1014 18030000 		.4byte	.LVL534
 21006 1018 0100     		.2byte	0x1
 21007 101a 50       		.byte	0x50
 21008 101b 1C030000 		.4byte	.LVL535
 21009 101f 28030000 		.4byte	.LVL537
 21010 1023 0100     		.2byte	0x1
 21011 1025 50       		.byte	0x50
 21012 1026 84030000 		.4byte	.LVL545
 21013 102a 92030000 		.4byte	.LVL546
 21014 102e 0100     		.2byte	0x1
 21015 1030 50       		.byte	0x50
 21016 1031 96030000 		.4byte	.LVL547
 21017 1035 B6030000 		.4byte	.LVL551
 21018 1039 0100     		.2byte	0x1
 21019 103b 50       		.byte	0x50
 21020 103c B6030000 		.4byte	.LVL551
 21021 1040 7C040000 		.4byte	.LVL590
 21022 1044 0200     		.2byte	0x2
 21023 1046 30       		.byte	0x30
 21024 1047 9F       		.byte	0x9f
 21025 1048 00000000 		.4byte	0
 21026 104c 00000000 		.4byte	0
 21027              	.LLST68:
 21028 1050 28000000 		.4byte	.LVL453
 21029 1054 AC000000 		.4byte	.LVL459
 21030 1058 0100     		.2byte	0x1
 21031 105a 54       		.byte	0x54
 21032 105b BE000000 		.4byte	.LVL460
ARM GAS  C:\Users\mathi\AppData\Local\Temp\ccuMtzkg.s 			page 370


 21033 105f C8000000 		.4byte	.LVL462
 21034 1063 0100     		.2byte	0x1
 21035 1065 54       		.byte	0x54
 21036 1066 C8000000 		.4byte	.LVL462
 21037 106a CA000000 		.4byte	.LVL463
 21038 106e 0800     		.2byte	0x8
 21039 1070 71       		.byte	0x71
 21040 1071 00       		.sleb128 0
 21041 1072 73       		.byte	0x73
 21042 1073 00       		.sleb128 0
 21043 1074 22       		.byte	0x22
 21044 1075 31       		.byte	0x31
 21045 1076 1C       		.byte	0x1c
 21046 1077 9F       		.byte	0x9f
 21047 1078 CA000000 		.4byte	.LVL463
 21048 107c CC000000 		.4byte	.LVL464
 21049 1080 0800     		.2byte	0x8
 21050 1082 73       		.byte	0x73
 21051 1083 00       		.sleb128 0
 21052 1084 76       		.byte	0x76
 21053 1085 00       		.sleb128 0
 21054 1086 22       		.byte	0x22
 21055 1087 31       		.byte	0x31
 21056 1088 1C       		.byte	0x1c
 21057 1089 9F       		.byte	0x9f
 21058 108a CC000000 		.4byte	.LVL464
 21059 108e D8000000 		.4byte	.LVL466
 21060 1092 0900     		.2byte	0x9
 21061 1094 73       		.byte	0x73
 21062 1095 00       		.sleb128 0
 21063 1096 F3       		.byte	0xf3
 21064 1097 01       		.uleb128 0x1
 21065 1098 51       		.byte	0x51
 21066 1099 22       		.byte	0x22
 21067 109a 31       		.byte	0x31
 21068 109b 1C       		.byte	0x1c
 21069 109c 9F       		.byte	0x9f
 21070 109d D8000000 		.4byte	.LVL466
 21071 10a1 34030000 		.4byte	.LVL539
 21072 10a5 0100     		.2byte	0x1
 21073 10a7 54       		.byte	0x54
 21074 10a8 34030000 		.4byte	.LVL539
 21075 10ac A4030000 		.4byte	.LVL550
 21076 10b0 0300     		.2byte	0x3
 21077 10b2 74       		.byte	0x74
 21078 10b3 7F       		.sleb128 -1
 21079 10b4 9F       		.byte	0x9f
 21080 10b5 B6030000 		.4byte	.LVL551
 21081 10b9 D8030000 		.4byte	.LVL561
 21082 10bd 0100     		.2byte	0x1
 21083 10bf 54       		.byte	0x54
 21084 10c0 D8030000 		.4byte	.LVL561
 21085 10c4 DC030000 		.4byte	.LVL562
 21086 10c8 0800     		.2byte	0x8
 21087 10ca 73       		.byte	0x73
 21088 10cb 00       		.sleb128 0
 21089 10cc 76       		.byte	0x76
ARM GAS  C:\Users\mathi\AppData\Local\Temp\ccuMtzkg.s 			page 371


 21090 10cd 00       		.sleb128 0
 21091 10ce 22       		.byte	0x22
 21092 10cf 31       		.byte	0x31
 21093 10d0 1C       		.byte	0x1c
 21094 10d1 9F       		.byte	0x9f
 21095 10d2 DC030000 		.4byte	.LVL562
 21096 10d6 E8030000 		.4byte	.LVL564
 21097 10da 0900     		.2byte	0x9
 21098 10dc 73       		.byte	0x73
 21099 10dd 00       		.sleb128 0
 21100 10de F3       		.byte	0xf3
 21101 10df 01       		.uleb128 0x1
 21102 10e0 51       		.byte	0x51
 21103 10e1 22       		.byte	0x22
 21104 10e2 31       		.byte	0x31
 21105 10e3 1C       		.byte	0x1c
 21106 10e4 9F       		.byte	0x9f
 21107 10e5 E8030000 		.4byte	.LVL564
 21108 10e9 7C040000 		.4byte	.LVL590
 21109 10ed 0100     		.2byte	0x1
 21110 10ef 54       		.byte	0x54
 21111 10f0 80040000 		.4byte	.LVL591
 21112 10f4 A8040000 		.4byte	.LFE267
 21113 10f8 0300     		.2byte	0x3
 21114 10fa 74       		.byte	0x74
 21115 10fb 7F       		.sleb128 -1
 21116 10fc 9F       		.byte	0x9f
 21117 10fd 00000000 		.4byte	0
 21118 1101 00000000 		.4byte	0
 21119              	.LLST69:
 21120 1105 2A000000 		.4byte	.LVL454
 21121 1109 AC000000 		.4byte	.LVL459
 21122 110d 0100     		.2byte	0x1
 21123 110f 55       		.byte	0x55
 21124 1110 BE000000 		.4byte	.LVL460
 21125 1114 F6000000 		.4byte	.LVL472
 21126 1118 0100     		.2byte	0x1
 21127 111a 55       		.byte	0x55
 21128 111b F6000000 		.4byte	.LVL472
 21129 111f FC000000 		.4byte	.LVL473
 21130 1123 0800     		.2byte	0x8
 21131 1125 77       		.byte	0x77
 21132 1126 00       		.sleb128 0
 21133 1127 7C       		.byte	0x7c
 21134 1128 00       		.sleb128 0
 21135 1129 22       		.byte	0x22
 21136 112a 31       		.byte	0x31
 21137 112b 1C       		.byte	0x1c
 21138 112c 9F       		.byte	0x9f
 21139 112d FC000000 		.4byte	.LVL473
 21140 1131 12010000 		.4byte	.LVL474
 21141 1135 0900     		.2byte	0x9
 21142 1137 7C       		.byte	0x7c
 21143 1138 00       		.sleb128 0
 21144 1139 F3       		.byte	0xf3
 21145 113a 01       		.uleb128 0x1
 21146 113b 52       		.byte	0x52
ARM GAS  C:\Users\mathi\AppData\Local\Temp\ccuMtzkg.s 			page 372


 21147 113c 22       		.byte	0x22
 21148 113d 31       		.byte	0x31
 21149 113e 1C       		.byte	0x1c
 21150 113f 9F       		.byte	0x9f
 21151 1140 12010000 		.4byte	.LVL474
 21152 1144 A0030000 		.4byte	.LVL548
 21153 1148 0100     		.2byte	0x1
 21154 114a 55       		.byte	0x55
 21155 114b A0030000 		.4byte	.LVL548
 21156 114f B6030000 		.4byte	.LVL551
 21157 1153 0300     		.2byte	0x3
 21158 1155 75       		.byte	0x75
 21159 1156 7F       		.sleb128 -1
 21160 1157 9F       		.byte	0x9f
 21161 1158 B6030000 		.4byte	.LVL551
 21162 115c 32040000 		.4byte	.LVL573
 21163 1160 0100     		.2byte	0x1
 21164 1162 55       		.byte	0x55
 21165 1163 32040000 		.4byte	.LVL573
 21166 1167 38040000 		.4byte	.LVL574
 21167 116b 0800     		.2byte	0x8
 21168 116d 77       		.byte	0x77
 21169 116e 00       		.sleb128 0
 21170 116f 7C       		.byte	0x7c
 21171 1170 00       		.sleb128 0
 21172 1171 22       		.byte	0x22
 21173 1172 31       		.byte	0x31
 21174 1173 1C       		.byte	0x1c
 21175 1174 9F       		.byte	0x9f
 21176 1175 38040000 		.4byte	.LVL574
 21177 1179 4E040000 		.4byte	.LVL575
 21178 117d 0900     		.2byte	0x9
 21179 117f 7C       		.byte	0x7c
 21180 1180 00       		.sleb128 0
 21181 1181 F3       		.byte	0xf3
 21182 1182 01       		.uleb128 0x1
 21183 1183 52       		.byte	0x52
 21184 1184 22       		.byte	0x22
 21185 1185 31       		.byte	0x31
 21186 1186 1C       		.byte	0x1c
 21187 1187 9F       		.byte	0x9f
 21188 1188 4E040000 		.4byte	.LVL575
 21189 118c 7C040000 		.4byte	.LVL590
 21190 1190 0100     		.2byte	0x1
 21191 1192 55       		.byte	0x55
 21192 1193 80040000 		.4byte	.LVL591
 21193 1197 A8040000 		.4byte	.LFE267
 21194 119b 0100     		.2byte	0x1
 21195 119d 55       		.byte	0x55
 21196 119e 00000000 		.4byte	0
 21197 11a2 00000000 		.4byte	0
 21198              	.LLST70:
 21199 11a6 2A000000 		.4byte	.LVL454
 21200 11aa 84000000 		.4byte	.LVL456
 21201 11ae 0200     		.2byte	0x2
 21202 11b0 30       		.byte	0x30
 21203 11b1 9F       		.byte	0x9f
ARM GAS  C:\Users\mathi\AppData\Local\Temp\ccuMtzkg.s 			page 373


 21204 11b2 84000000 		.4byte	.LVL456
 21205 11b6 AC000000 		.4byte	.LVL459
 21206 11ba 0200     		.2byte	0x2
 21207 11bc 7D       		.byte	0x7d
 21208 11bd 00       		.sleb128 0
 21209 11be BE000000 		.4byte	.LVL460
 21210 11c2 DE000000 		.4byte	.LVL468
 21211 11c6 0200     		.2byte	0x2
 21212 11c8 30       		.byte	0x30
 21213 11c9 9F       		.byte	0x9f
 21214 11ca DE000000 		.4byte	.LVL468
 21215 11ce E6000000 		.4byte	.LVL469
 21216 11d2 0100     		.2byte	0x1
 21217 11d4 53       		.byte	0x53
 21218 11d5 E6000000 		.4byte	.LVL469
 21219 11d9 76030000 		.4byte	.LVL544
 21220 11dd 0200     		.2byte	0x2
 21221 11df 7D       		.byte	0x7d
 21222 11e0 00       		.sleb128 0
 21223 11e1 B6030000 		.4byte	.LVL551
 21224 11e5 C8030000 		.4byte	.LVL555
 21225 11e9 0200     		.2byte	0x2
 21226 11eb 30       		.byte	0x30
 21227 11ec 9F       		.byte	0x9f
 21228 11ed C8030000 		.4byte	.LVL555
 21229 11f1 CC030000 		.4byte	.LVL556
 21230 11f5 0100     		.2byte	0x1
 21231 11f7 53       		.byte	0x53
 21232 11f8 CC030000 		.4byte	.LVL556
 21233 11fc D0030000 		.4byte	.LVL558
 21234 1200 0200     		.2byte	0x2
 21235 1202 7D       		.byte	0x7d
 21236 1203 00       		.sleb128 0
 21237 1204 D0030000 		.4byte	.LVL558
 21238 1208 EE030000 		.4byte	.LVL566
 21239 120c 0200     		.2byte	0x2
 21240 120e 30       		.byte	0x30
 21241 120f 9F       		.byte	0x9f
 21242 1210 EE030000 		.4byte	.LVL566
 21243 1214 F2030000 		.4byte	.LVL567
 21244 1218 0100     		.2byte	0x1
 21245 121a 53       		.byte	0x53
 21246 121b F2030000 		.4byte	.LVL567
 21247 121f 52040000 		.4byte	.LVL577
 21248 1223 0200     		.2byte	0x2
 21249 1225 7D       		.byte	0x7d
 21250 1226 00       		.sleb128 0
 21251 1227 52040000 		.4byte	.LVL577
 21252 122b 76040000 		.4byte	.LVL589
 21253 122f 0200     		.2byte	0x2
 21254 1231 30       		.byte	0x30
 21255 1232 9F       		.byte	0x9f
 21256 1233 76040000 		.4byte	.LVL589
 21257 1237 7C040000 		.4byte	.LVL590
 21258 123b 0200     		.2byte	0x2
 21259 123d 7D       		.byte	0x7d
 21260 123e 00       		.sleb128 0
ARM GAS  C:\Users\mathi\AppData\Local\Temp\ccuMtzkg.s 			page 374


 21261 123f 80040000 		.4byte	.LVL591
 21262 1243 9C040000 		.4byte	.LVL595
 21263 1247 0200     		.2byte	0x2
 21264 1249 7D       		.byte	0x7d
 21265 124a 00       		.sleb128 0
 21266 124b 00000000 		.4byte	0
 21267 124f 00000000 		.4byte	0
 21268              	.LLST71:
 21269 1253 2A000000 		.4byte	.LVL454
 21270 1257 84000000 		.4byte	.LVL456
 21271 125b 0200     		.2byte	0x2
 21272 125d 30       		.byte	0x30
 21273 125e 9F       		.byte	0x9f
 21274 125f 84000000 		.4byte	.LVL456
 21275 1263 AC000000 		.4byte	.LVL459
 21276 1267 0300     		.2byte	0x3
 21277 1269 91       		.byte	0x91
 21278 126a A47F     		.sleb128 -92
 21279 126c BE000000 		.4byte	.LVL460
 21280 1270 E8000000 		.4byte	.LVL470
 21281 1274 0200     		.2byte	0x2
 21282 1276 30       		.byte	0x30
 21283 1277 9F       		.byte	0x9f
 21284 1278 E8000000 		.4byte	.LVL470
 21285 127c EA000000 		.4byte	.LVL471
 21286 1280 0100     		.2byte	0x1
 21287 1282 53       		.byte	0x53
 21288 1283 EA000000 		.4byte	.LVL471
 21289 1287 B6030000 		.4byte	.LVL551
 21290 128b 0300     		.2byte	0x3
 21291 128d 91       		.byte	0x91
 21292 128e A47F     		.sleb128 -92
 21293 1290 B6030000 		.4byte	.LVL551
 21294 1294 CE030000 		.4byte	.LVL557
 21295 1298 0200     		.2byte	0x2
 21296 129a 30       		.byte	0x30
 21297 129b 9F       		.byte	0x9f
 21298 129c CE030000 		.4byte	.LVL557
 21299 12a0 D0030000 		.4byte	.LVL558
 21300 12a4 0100     		.2byte	0x1
 21301 12a6 53       		.byte	0x53
 21302 12a7 D0030000 		.4byte	.LVL558
 21303 12ab F4030000 		.4byte	.LVL568
 21304 12af 0200     		.2byte	0x2
 21305 12b1 30       		.byte	0x30
 21306 12b2 9F       		.byte	0x9f
 21307 12b3 F4030000 		.4byte	.LVL568
 21308 12b7 0C040000 		.4byte	.LVL569
 21309 12bb 0100     		.2byte	0x1
 21310 12bd 53       		.byte	0x53
 21311 12be 0C040000 		.4byte	.LVL569
 21312 12c2 52040000 		.4byte	.LVL577
 21313 12c6 0300     		.2byte	0x3
 21314 12c8 91       		.byte	0x91
 21315 12c9 A47F     		.sleb128 -92
 21316 12cb 52040000 		.4byte	.LVL577
 21317 12cf 76040000 		.4byte	.LVL589
ARM GAS  C:\Users\mathi\AppData\Local\Temp\ccuMtzkg.s 			page 375


 21318 12d3 0200     		.2byte	0x2
 21319 12d5 30       		.byte	0x30
 21320 12d6 9F       		.byte	0x9f
 21321 12d7 76040000 		.4byte	.LVL589
 21322 12db 7C040000 		.4byte	.LVL590
 21323 12df 0300     		.2byte	0x3
 21324 12e1 91       		.byte	0x91
 21325 12e2 A47F     		.sleb128 -92
 21326 12e4 80040000 		.4byte	.LVL591
 21327 12e8 A8040000 		.4byte	.LFE267
 21328 12ec 0300     		.2byte	0x3
 21329 12ee 91       		.byte	0x91
 21330 12ef A47F     		.sleb128 -92
 21331 12f1 00000000 		.4byte	0
 21332 12f5 00000000 		.4byte	0
 21333              	.LLST72:
 21334 12f9 2A000000 		.4byte	.LVL454
 21335 12fd A0000000 		.4byte	.LVL457
 21336 1301 0200     		.2byte	0x2
 21337 1303 30       		.byte	0x30
 21338 1304 9F       		.byte	0x9f
 21339 1305 A0000000 		.4byte	.LVL457
 21340 1309 AC000000 		.4byte	.LVL459
 21341 130d 0300     		.2byte	0x3
 21342 130f 91       		.byte	0x91
 21343 1310 A87F     		.sleb128 -88
 21344 1312 BE000000 		.4byte	.LVL460
 21345 1316 12010000 		.4byte	.LVL474
 21346 131a 0200     		.2byte	0x2
 21347 131c 30       		.byte	0x30
 21348 131d 9F       		.byte	0x9f
 21349 131e 12010000 		.4byte	.LVL474
 21350 1322 B6030000 		.4byte	.LVL551
 21351 1326 0300     		.2byte	0x3
 21352 1328 91       		.byte	0x91
 21353 1329 A87F     		.sleb128 -88
 21354 132b B6030000 		.4byte	.LVL551
 21355 132f 24040000 		.4byte	.LVL570
 21356 1333 0200     		.2byte	0x2
 21357 1335 30       		.byte	0x30
 21358 1336 9F       		.byte	0x9f
 21359 1337 24040000 		.4byte	.LVL570
 21360 133b 28040000 		.4byte	.LVL572
 21361 133f 0100     		.2byte	0x1
 21362 1341 52       		.byte	0x52
 21363 1342 28040000 		.4byte	.LVL572
 21364 1346 4E040000 		.4byte	.LVL575
 21365 134a 0200     		.2byte	0x2
 21366 134c 30       		.byte	0x30
 21367 134d 9F       		.byte	0x9f
 21368 134e 4E040000 		.4byte	.LVL575
 21369 1352 52040000 		.4byte	.LVL577
 21370 1356 0300     		.2byte	0x3
 21371 1358 91       		.byte	0x91
 21372 1359 A87F     		.sleb128 -88
 21373 135b 52040000 		.4byte	.LVL577
 21374 135f 7C040000 		.4byte	.LVL590
ARM GAS  C:\Users\mathi\AppData\Local\Temp\ccuMtzkg.s 			page 376


 21375 1363 0200     		.2byte	0x2
 21376 1365 30       		.byte	0x30
 21377 1366 9F       		.byte	0x9f
 21378 1367 80040000 		.4byte	.LVL591
 21379 136b A8040000 		.4byte	.LFE267
 21380 136f 0300     		.2byte	0x3
 21381 1371 91       		.byte	0x91
 21382 1372 A87F     		.sleb128 -88
 21383 1374 00000000 		.4byte	0
 21384 1378 00000000 		.4byte	0
 21385              	.LLST73:
 21386 137c 2A000000 		.4byte	.LVL454
 21387 1380 A0000000 		.4byte	.LVL457
 21388 1384 0200     		.2byte	0x2
 21389 1386 30       		.byte	0x30
 21390 1387 9F       		.byte	0x9f
 21391 1388 A0000000 		.4byte	.LVL457
 21392 138c AC000000 		.4byte	.LVL459
 21393 1390 0300     		.2byte	0x3
 21394 1392 91       		.byte	0x91
 21395 1393 AC7F     		.sleb128 -84
 21396 1395 BE000000 		.4byte	.LVL460
 21397 1399 14010000 		.4byte	.LVL475
 21398 139d 0200     		.2byte	0x2
 21399 139f 30       		.byte	0x30
 21400 13a0 9F       		.byte	0x9f
 21401 13a1 14010000 		.4byte	.LVL475
 21402 13a5 16010000 		.4byte	.LVL476
 21403 13a9 0100     		.2byte	0x1
 21404 13ab 53       		.byte	0x53
 21405 13ac 16010000 		.4byte	.LVL476
 21406 13b0 B6030000 		.4byte	.LVL551
 21407 13b4 0300     		.2byte	0x3
 21408 13b6 91       		.byte	0x91
 21409 13b7 AC7F     		.sleb128 -84
 21410 13b9 B6030000 		.4byte	.LVL551
 21411 13bd 26040000 		.4byte	.LVL571
 21412 13c1 0200     		.2byte	0x2
 21413 13c3 30       		.byte	0x30
 21414 13c4 9F       		.byte	0x9f
 21415 13c5 26040000 		.4byte	.LVL571
 21416 13c9 28040000 		.4byte	.LVL572
 21417 13cd 0100     		.2byte	0x1
 21418 13cf 53       		.byte	0x53
 21419 13d0 28040000 		.4byte	.LVL572
 21420 13d4 50040000 		.4byte	.LVL576
 21421 13d8 0200     		.2byte	0x2
 21422 13da 30       		.byte	0x30
 21423 13db 9F       		.byte	0x9f
 21424 13dc 50040000 		.4byte	.LVL576
 21425 13e0 52040000 		.4byte	.LVL577
 21426 13e4 0100     		.2byte	0x1
 21427 13e6 53       		.byte	0x53
 21428 13e7 52040000 		.4byte	.LVL577
 21429 13eb 7C040000 		.4byte	.LVL590
 21430 13ef 0200     		.2byte	0x2
 21431 13f1 30       		.byte	0x30
ARM GAS  C:\Users\mathi\AppData\Local\Temp\ccuMtzkg.s 			page 377


 21432 13f2 9F       		.byte	0x9f
 21433 13f3 80040000 		.4byte	.LVL591
 21434 13f7 A8040000 		.4byte	.LFE267
 21435 13fb 0300     		.2byte	0x3
 21436 13fd 91       		.byte	0x91
 21437 13fe AC7F     		.sleb128 -84
 21438 1400 00000000 		.4byte	0
 21439 1404 00000000 		.4byte	0
 21440              	.LLST74:
 21441 1408 76030000 		.4byte	.LVL544
 21442 140c B6030000 		.4byte	.LVL551
 21443 1410 0200     		.2byte	0x2
 21444 1412 7D       		.byte	0x7d
 21445 1413 00       		.sleb128 0
 21446 1414 9C040000 		.4byte	.LVL595
 21447 1418 A8040000 		.4byte	.LFE267
 21448 141c 0200     		.2byte	0x2
 21449 141e 90       		.byte	0x90
 21450 141f 4F       		.uleb128 0x4f
 21451 1420 00000000 		.4byte	0
 21452 1424 00000000 		.4byte	0
 21453              	.LLST75:
 21454 1428 6E030000 		.4byte	.LVL543
 21455 142c 83030000 		.4byte	.LVL545-1
 21456 1430 0200     		.2byte	0x2
 21457 1432 90       		.byte	0x90
 21458 1433 4E       		.uleb128 0x4e
 21459 1434 80040000 		.4byte	.LVL591
 21460 1438 88040000 		.4byte	.LVL592
 21461 143c 1800     		.2byte	0x18
 21462 143e F5       		.byte	0xf5
 21463 143f 4E       		.uleb128 0x4e
 21464 1440 25       		.uleb128 0x25
 21465 1441 F4       		.byte	0xf4
 21466 1442 25       		.uleb128 0x25
 21467 1443 04       		.byte	0x4
 21468 1444 00000041 		.4byte	0x41000000
 21469 1448 22       		.byte	0x22
 21470 1449 F5       		.byte	0xf5
 21471 144a 4F       		.uleb128 0x4f
 21472 144b 25       		.uleb128 0x25
 21473 144c 1E       		.byte	0x1e
 21474 144d F4       		.byte	0xf4
 21475 144e 25       		.uleb128 0x25
 21476 144f 04       		.byte	0x4
 21477 1450 00002444 		.4byte	0x44240000
 21478 1454 1B       		.byte	0x1b
 21479 1455 9F       		.byte	0x9f
 21480 1456 88040000 		.4byte	.LVL592
 21481 145a 90040000 		.4byte	.LVL593
 21482 145e 1B00     		.2byte	0x1b
 21483 1460 73       		.byte	0x73
 21484 1461 00       		.sleb128 0
 21485 1462 F7       		.byte	0xf7
 21486 1463 2C       		.uleb128 0x2c
 21487 1464 F7       		.byte	0xf7
 21488 1465 25       		.uleb128 0x25
ARM GAS  C:\Users\mathi\AppData\Local\Temp\ccuMtzkg.s 			page 378


 21489 1466 F4       		.byte	0xf4
 21490 1467 25       		.uleb128 0x25
 21491 1468 04       		.byte	0x4
 21492 1469 00000041 		.4byte	0x41000000
 21493 146d 22       		.byte	0x22
 21494 146e F5       		.byte	0xf5
 21495 146f 4F       		.uleb128 0x4f
 21496 1470 25       		.uleb128 0x25
 21497 1471 1E       		.byte	0x1e
 21498 1472 F4       		.byte	0xf4
 21499 1473 25       		.uleb128 0x25
 21500 1474 04       		.byte	0x4
 21501 1475 00002444 		.4byte	0x44240000
 21502 1479 1B       		.byte	0x1b
 21503 147a 9F       		.byte	0x9f
 21504 147b 90040000 		.4byte	.LVL593
 21505 147f 94040000 		.4byte	.LVL594
 21506 1483 2600     		.2byte	0x26
 21507 1485 73       		.byte	0x73
 21508 1486 00       		.sleb128 0
 21509 1487 F7       		.byte	0xf7
 21510 1488 2C       		.uleb128 0x2c
 21511 1489 F7       		.byte	0xf7
 21512 148a 25       		.uleb128 0x25
 21513 148b F4       		.byte	0xf4
 21514 148c 25       		.uleb128 0x25
 21515 148d 04       		.byte	0x4
 21516 148e 00000041 		.4byte	0x41000000
 21517 1492 22       		.byte	0x22
 21518 1493 F4       		.byte	0xf4
 21519 1494 25       		.uleb128 0x25
 21520 1495 04       		.byte	0x4
 21521 1496 00002244 		.4byte	0x44220000
 21522 149a 73       		.byte	0x73
 21523 149b 00       		.sleb128 0
 21524 149c F7       		.byte	0xf7
 21525 149d 2C       		.uleb128 0x2c
 21526 149e F7       		.byte	0xf7
 21527 149f 25       		.uleb128 0x25
 21528 14a0 1C       		.byte	0x1c
 21529 14a1 1E       		.byte	0x1e
 21530 14a2 F4       		.byte	0xf4
 21531 14a3 25       		.uleb128 0x25
 21532 14a4 04       		.byte	0x4
 21533 14a5 00002444 		.4byte	0x44240000
 21534 14a9 1B       		.byte	0x1b
 21535 14aa 9F       		.byte	0x9f
 21536 14ab 94040000 		.4byte	.LVL594
 21537 14af A8040000 		.4byte	.LFE267
 21538 14b3 0200     		.2byte	0x2
 21539 14b5 90       		.byte	0x90
 21540 14b6 4E       		.uleb128 0x4e
 21541 14b7 00000000 		.4byte	0
 21542 14bb 00000000 		.4byte	0
 21543              	.LLST76:
 21544 14bf A0000000 		.4byte	.LVL457
 21545 14c3 AA000000 		.4byte	.LVL458
ARM GAS  C:\Users\mathi\AppData\Local\Temp\ccuMtzkg.s 			page 379


 21546 14c7 0200     		.2byte	0x2
 21547 14c9 30       		.byte	0x30
 21548 14ca 9F       		.byte	0x9f
 21549 14cb 00000000 		.4byte	0
 21550 14cf 00000000 		.4byte	0
 21551              	.LLST77:
 21552 14d3 2E010000 		.4byte	.LVL480
 21553 14d7 38010000 		.4byte	.LVL482
 21554 14db 0200     		.2byte	0x2
 21555 14dd 30       		.byte	0x30
 21556 14de 9F       		.byte	0x9f
 21557 14df 00000000 		.4byte	0
 21558 14e3 00000000 		.4byte	0
 21559              	.LLST78:
 21560 14e7 F2020000 		.4byte	.LVL530
 21561 14eb FC020000 		.4byte	.LVL532
 21562 14ef 0200     		.2byte	0x2
 21563 14f1 31       		.byte	0x31
 21564 14f2 9F       		.byte	0x9f
 21565 14f3 00000000 		.4byte	0
 21566 14f7 00000000 		.4byte	0
 21567              	.LLST79:
 21568 14fb 22030000 		.4byte	.LVL536
 21569 14ff 2C030000 		.4byte	.LVL538
 21570 1503 0200     		.2byte	0x2
 21571 1505 31       		.byte	0x31
 21572 1506 9F       		.byte	0x9f
 21573 1507 00000000 		.4byte	0
 21574 150b 00000000 		.4byte	0
 21575              	.LLST91:
 21576 150f 00000000 		.4byte	.LVL618
 21577 1513 14000000 		.4byte	.LVL620
 21578 1517 0100     		.2byte	0x1
 21579 1519 50       		.byte	0x50
 21580 151a 14000000 		.4byte	.LVL620
 21581 151e 64000000 		.4byte	.LFE271
 21582 1522 0400     		.2byte	0x4
 21583 1524 F3       		.byte	0xf3
 21584 1525 01       		.uleb128 0x1
 21585 1526 50       		.byte	0x50
 21586 1527 9F       		.byte	0x9f
 21587 1528 00000000 		.4byte	0
 21588 152c 00000000 		.4byte	0
 21589              	.LLST92:
 21590 1530 0A000000 		.4byte	.LVL619
 21591 1534 1C000000 		.4byte	.LVL622
 21592 1538 0200     		.2byte	0x2
 21593 153a 30       		.byte	0x30
 21594 153b 9F       		.byte	0x9f
 21595 153c 36000000 		.4byte	.LVL623
 21596 1540 50000000 		.4byte	.LVL624
 21597 1544 0100     		.2byte	0x1
 21598 1546 50       		.byte	0x50
 21599 1547 00000000 		.4byte	0
 21600 154b 00000000 		.4byte	0
 21601              	.LLST93:
 21602 154f 18000000 		.4byte	.LVL621
ARM GAS  C:\Users\mathi\AppData\Local\Temp\ccuMtzkg.s 			page 380


 21603 1553 1C000000 		.4byte	.LVL622
 21604 1557 0200     		.2byte	0x2
 21605 1559 32       		.byte	0x32
 21606 155a 9F       		.byte	0x9f
 21607 155b 00000000 		.4byte	0
 21608 155f 00000000 		.4byte	0
 21609              	.LLST101:
 21610 1563 00000000 		.4byte	.LVL648
 21611 1567 14000000 		.4byte	.LVL650
 21612 156b 0100     		.2byte	0x1
 21613 156d 50       		.byte	0x50
 21614 156e 14000000 		.4byte	.LVL650
 21615 1572 64000000 		.4byte	.LFE273
 21616 1576 0400     		.2byte	0x4
 21617 1578 F3       		.byte	0xf3
 21618 1579 01       		.uleb128 0x1
 21619 157a 50       		.byte	0x50
 21620 157b 9F       		.byte	0x9f
 21621 157c 00000000 		.4byte	0
 21622 1580 00000000 		.4byte	0
 21623              	.LLST102:
 21624 1584 0A000000 		.4byte	.LVL649
 21625 1588 1C000000 		.4byte	.LVL652
 21626 158c 0200     		.2byte	0x2
 21627 158e 30       		.byte	0x30
 21628 158f 9F       		.byte	0x9f
 21629 1590 36000000 		.4byte	.LVL653
 21630 1594 50000000 		.4byte	.LVL654
 21631 1598 0100     		.2byte	0x1
 21632 159a 50       		.byte	0x50
 21633 159b 00000000 		.4byte	0
 21634 159f 00000000 		.4byte	0
 21635              	.LLST103:
 21636 15a3 18000000 		.4byte	.LVL651
 21637 15a7 1C000000 		.4byte	.LVL652
 21638 15ab 0200     		.2byte	0x2
 21639 15ad 32       		.byte	0x32
 21640 15ae 9F       		.byte	0x9f
 21641 15af 00000000 		.4byte	0
 21642 15b3 00000000 		.4byte	0
 21643              		.section	.debug_aranges,"",%progbits
 21644 0000 AC000000 		.4byte	0xac
 21645 0004 0200     		.2byte	0x2
 21646 0006 00000000 		.4byte	.Ldebug_info0
 21647 000a 04       		.byte	0x4
 21648 000b 00       		.byte	0
 21649 000c 0000     		.2byte	0
 21650 000e 0000     		.2byte	0
 21651 0010 00000000 		.4byte	.LFB257
 21652 0014 50000000 		.4byte	.LFE257-.LFB257
 21653 0018 00000000 		.4byte	.LFB258
 21654 001c 2C000000 		.4byte	.LFE258-.LFB258
 21655 0020 00000000 		.4byte	.LFB259
 21656 0024 A8000000 		.4byte	.LFE259-.LFB259
 21657 0028 00000000 		.4byte	.LFB260
 21658 002c D0010000 		.4byte	.LFE260-.LFB260
 21659 0030 00000000 		.4byte	.LFB261
ARM GAS  C:\Users\mathi\AppData\Local\Temp\ccuMtzkg.s 			page 381


 21660 0034 D0010000 		.4byte	.LFE261-.LFB261
 21661 0038 00000000 		.4byte	.LFB262
 21662 003c D0010000 		.4byte	.LFE262-.LFB262
 21663 0040 00000000 		.4byte	.LFB263
 21664 0044 D4030000 		.4byte	.LFE263-.LFB263
 21665 0048 00000000 		.4byte	.LFB264
 21666 004c F8000000 		.4byte	.LFE264-.LFB264
 21667 0050 00000000 		.4byte	.LFB265
 21668 0054 98020000 		.4byte	.LFE265-.LFB265
 21669 0058 00000000 		.4byte	.LFB266
 21670 005c 80000000 		.4byte	.LFE266-.LFB266
 21671 0060 00000000 		.4byte	.LFB267
 21672 0064 A8040000 		.4byte	.LFE267-.LFB267
 21673 0068 00000000 		.4byte	.LFB268
 21674 006c 40000000 		.4byte	.LFE268-.LFB268
 21675 0070 00000000 		.4byte	.LFB269
 21676 0074 40000000 		.4byte	.LFE269-.LFB269
 21677 0078 00000000 		.4byte	.LFB270
 21678 007c 58000000 		.4byte	.LFE270-.LFB270
 21679 0080 00000000 		.4byte	.LFB271
 21680 0084 64000000 		.4byte	.LFE271-.LFB271
 21681 0088 00000000 		.4byte	.LFB272
 21682 008c 98000000 		.4byte	.LFE272-.LFB272
 21683 0090 00000000 		.4byte	.LFB273
 21684 0094 64000000 		.4byte	.LFE273-.LFB273
 21685 0098 00000000 		.4byte	.LFB274
 21686 009c 94000000 		.4byte	.LFE274-.LFB274
 21687 00a0 00000000 		.4byte	.LFB275
 21688 00a4 34000000 		.4byte	.LFE275-.LFB275
 21689 00a8 00000000 		.4byte	0
 21690 00ac 00000000 		.4byte	0
 21691              		.section	.debug_ranges,"",%progbits
 21692              	.Ldebug_ranges0:
 21693 0000 12000000 		.4byte	.LBB154
 21694 0004 28000000 		.4byte	.LBE154
 21695 0008 F0010000 		.4byte	.LBB176
 21696 000c AE030000 		.4byte	.LBE176
 21697 0010 C0030000 		.4byte	.LBB177
 21698 0014 C6030000 		.4byte	.LBE177
 21699 0018 00000000 		.4byte	0
 21700 001c 00000000 		.4byte	0
 21701 0020 18000000 		.4byte	.LBB156
 21702 0024 28000000 		.4byte	.LBE156
 21703 0028 F0010000 		.4byte	.LBB165
 21704 002c AE030000 		.4byte	.LBE165
 21705 0030 00000000 		.4byte	0
 21706 0034 00000000 		.4byte	0
 21707 0038 1A000000 		.4byte	.LBB186
 21708 003c 36000000 		.4byte	.LBE186
 21709 0040 42000000 		.4byte	.LBB191
 21710 0044 6A000000 		.4byte	.LBE191
 21711 0048 70000000 		.4byte	.LBB192
 21712 004c AA000000 		.4byte	.LBE192
 21713 0050 AE000000 		.4byte	.LBB193
 21714 0054 F8000000 		.4byte	.LBE193
 21715 0058 00000000 		.4byte	0
 21716 005c 00000000 		.4byte	0
ARM GAS  C:\Users\mathi\AppData\Local\Temp\ccuMtzkg.s 			page 382


 21717 0060 20000000 		.4byte	.LBB216
 21718 0064 2C000000 		.4byte	.LBE216
 21719 0068 3A000000 		.4byte	.LBB241
 21720 006c 7E020000 		.4byte	.LBE241
 21721 0070 00000000 		.4byte	0
 21722 0074 00000000 		.4byte	0
 21723 0078 48000000 		.4byte	.LBB220
 21724 007c 94000000 		.4byte	.LBE220
 21725 0080 98000000 		.4byte	.LBB234
 21726 0084 9A000000 		.4byte	.LBE234
 21727 0088 00000000 		.4byte	0
 21728 008c 00000000 		.4byte	0
 21729 0090 64000000 		.4byte	.LBB224
 21730 0094 94000000 		.4byte	.LBE224
 21731 0098 98000000 		.4byte	.LBB229
 21732 009c 9A000000 		.4byte	.LBE229
 21733 00a0 00000000 		.4byte	0
 21734 00a4 00000000 		.4byte	0
 21735 00a8 94000000 		.4byte	.LBB231
 21736 00ac 98000000 		.4byte	.LBE231
 21737 00b0 9A000000 		.4byte	.LBB235
 21738 00b4 9E000000 		.4byte	.LBE235
 21739 00b8 00000000 		.4byte	0
 21740 00bc 00000000 		.4byte	0
 21741 00c0 3E000000 		.4byte	.LBB250
 21742 00c4 4C000000 		.4byte	.LBE250
 21743 00c8 66000000 		.4byte	.LBB257
 21744 00cc 78000000 		.4byte	.LBE257
 21745 00d0 00000000 		.4byte	0
 21746 00d4 00000000 		.4byte	0
 21747 00d8 44000000 		.4byte	.LBB252
 21748 00dc 4C000000 		.4byte	.LBE252
 21749 00e0 72000000 		.4byte	.LBB255
 21750 00e4 78000000 		.4byte	.LBE255
 21751 00e8 00000000 		.4byte	0
 21752 00ec 00000000 		.4byte	0
 21753 00f0 0A000000 		.4byte	.LBB266
 21754 00f4 0C000000 		.4byte	.LBE266
 21755 00f8 0E000000 		.4byte	.LBB269
 21756 00fc 16000000 		.4byte	.LBE269
 21757 0100 00000000 		.4byte	0
 21758 0104 00000000 		.4byte	0
 21759 0108 0A000000 		.4byte	.LBB270
 21760 010c 0C000000 		.4byte	.LBE270
 21761 0110 0E000000 		.4byte	.LBB273
 21762 0114 16000000 		.4byte	.LBE273
 21763 0118 00000000 		.4byte	0
 21764 011c 00000000 		.4byte	0
 21765 0120 0E000000 		.4byte	.LBB278
 21766 0124 14000000 		.4byte	.LBE278
 21767 0128 18000000 		.4byte	.LBB281
 21768 012c 1C000000 		.4byte	.LBE281
 21769 0130 00000000 		.4byte	0
 21770 0134 00000000 		.4byte	0
 21771 0138 10000000 		.4byte	.LBB288
 21772 013c 22000000 		.4byte	.LBE288
 21773 0140 2E000000 		.4byte	.LBB295
ARM GAS  C:\Users\mathi\AppData\Local\Temp\ccuMtzkg.s 			page 383


 21774 0144 54000000 		.4byte	.LBE295
 21775 0148 00000000 		.4byte	0
 21776 014c 00000000 		.4byte	0
 21777 0150 12000000 		.4byte	.LBB290
 21778 0154 18000000 		.4byte	.LBE290
 21779 0158 1C000000 		.4byte	.LBB293
 21780 015c 20000000 		.4byte	.LBE293
 21781 0160 00000000 		.4byte	0
 21782 0164 00000000 		.4byte	0
 21783 0168 0E000000 		.4byte	.LBB300
 21784 016c 14000000 		.4byte	.LBE300
 21785 0170 18000000 		.4byte	.LBB303
 21786 0174 1C000000 		.4byte	.LBE303
 21787 0178 00000000 		.4byte	0
 21788 017c 00000000 		.4byte	0
 21789 0180 0E000000 		.4byte	.LBB310
 21790 0184 20000000 		.4byte	.LBE310
 21791 0188 2C000000 		.4byte	.LBB317
 21792 018c 52000000 		.4byte	.LBE317
 21793 0190 00000000 		.4byte	0
 21794 0194 00000000 		.4byte	0
 21795 0198 10000000 		.4byte	.LBB312
 21796 019c 16000000 		.4byte	.LBE312
 21797 01a0 1A000000 		.4byte	.LBB315
 21798 01a4 1E000000 		.4byte	.LBE315
 21799 01a8 00000000 		.4byte	0
 21800 01ac 00000000 		.4byte	0
 21801 01b0 00000000 		.4byte	.LFB257
 21802 01b4 50000000 		.4byte	.LFE257
 21803 01b8 00000000 		.4byte	.LFB258
 21804 01bc 2C000000 		.4byte	.LFE258
 21805 01c0 00000000 		.4byte	.LFB259
 21806 01c4 A8000000 		.4byte	.LFE259
 21807 01c8 00000000 		.4byte	.LFB260
 21808 01cc D0010000 		.4byte	.LFE260
 21809 01d0 00000000 		.4byte	.LFB261
 21810 01d4 D0010000 		.4byte	.LFE261
 21811 01d8 00000000 		.4byte	.LFB262
 21812 01dc D0010000 		.4byte	.LFE262
 21813 01e0 00000000 		.4byte	.LFB263
 21814 01e4 D4030000 		.4byte	.LFE263
 21815 01e8 00000000 		.4byte	.LFB264
 21816 01ec F8000000 		.4byte	.LFE264
 21817 01f0 00000000 		.4byte	.LFB265
 21818 01f4 98020000 		.4byte	.LFE265
 21819 01f8 00000000 		.4byte	.LFB266
 21820 01fc 80000000 		.4byte	.LFE266
 21821 0200 00000000 		.4byte	.LFB267
 21822 0204 A8040000 		.4byte	.LFE267
 21823 0208 00000000 		.4byte	.LFB268
 21824 020c 40000000 		.4byte	.LFE268
 21825 0210 00000000 		.4byte	.LFB269
 21826 0214 40000000 		.4byte	.LFE269
 21827 0218 00000000 		.4byte	.LFB270
 21828 021c 58000000 		.4byte	.LFE270
 21829 0220 00000000 		.4byte	.LFB271
 21830 0224 64000000 		.4byte	.LFE271
ARM GAS  C:\Users\mathi\AppData\Local\Temp\ccuMtzkg.s 			page 384


 21831 0228 00000000 		.4byte	.LFB272
 21832 022c 98000000 		.4byte	.LFE272
 21833 0230 00000000 		.4byte	.LFB273
 21834 0234 64000000 		.4byte	.LFE273
 21835 0238 00000000 		.4byte	.LFB274
 21836 023c 94000000 		.4byte	.LFE274
 21837 0240 00000000 		.4byte	.LFB275
 21838 0244 34000000 		.4byte	.LFE275
 21839 0248 00000000 		.4byte	0
 21840 024c 00000000 		.4byte	0
 21841              		.section	.debug_line,"",%progbits
 21842              	.Ldebug_line0:
 21843 0000 460D0000 		.section	.debug_str,"MS",%progbits,1
 21843      02004708 
 21843      00000201 
 21843      FB0E0D00 
 21843      01010101 
 21844              	.LASF576:
 21845 0000 5553425F 		.ascii	"USB_STOP\000"
 21845      53544F50 
 21845      00
 21846              	.LASF189:
 21847 0009 706F7274 		.ascii	"port_intctx\000"
 21847      5F696E74 
 21847      63747800 
 21848              	.LASF198:
 21849 0015 63685F74 		.ascii	"ch_trace_buffer_t\000"
 21849      72616365 
 21849      5F627566 
 21849      6665725F 
 21849      7400
 21850              	.LASF231:
 21851 0027 63685F70 		.ascii	"ch_ptrsize\000"
 21851      74727369 
 21851      7A6500
 21852              	.LASF512:
 21853 0032 6576656E 		.ascii	"event\000"
 21853      7400
 21854              	.LASF362:
 21855 0038 43414E5F 		.ascii	"CAN_STARTING\000"
 21855      53544152 
 21855      54494E47 
 21855      00
 21856              	.LASF33:
 21857 0045 6D73675F 		.ascii	"msg_t\000"
 21857      7400
 21858              	.LASF307:
 21859 004b 61667268 		.ascii	"afrh\000"
 21859      00
 21860              	.LASF455:
 21861 0050 4F504D4F 		.ascii	"OPMODE_SMBUS_DEVICE\000"
 21861      44455F53 
 21861      4D425553 
 21861      5F444556 
 21861      49434500 
 21862              	.LASF209:
 21863 0064 6D5F6372 		.ascii	"m_crit_isr\000"
ARM GAS  C:\Users\mathi\AppData\Local\Temp\ccuMtzkg.s 			page 385


 21863      69745F69 
 21863      737200
 21864              	.LASF635:
 21865 006f 44494550 		.ascii	"DIEPTXF0\000"
 21865      54584630 
 21865      00
 21866              	.LASF711:
 21867 0078 55534244 		.ascii	"USBD1\000"
 21867      3100
 21868              	.LASF361:
 21869 007e 43414E5F 		.ascii	"CAN_STOP\000"
 21869      53544F50 
 21869      00
 21870              	.LASF764:
 21871 0087 706F3830 		.ascii	"po8030_set_rgb_gain\000"
 21871      33305F73 
 21871      65745F72 
 21871      67625F67 
 21871      61696E00 
 21872              	.LASF244:
 21873 009b 63665F6F 		.ascii	"cf_off_time\000"
 21873      66665F74 
 21873      696D6500 
 21874              	.LASF92:
 21875 00a7 63685F73 		.ascii	"ch_system_t\000"
 21875      79737465 
 21875      6D5F7400 
 21876              	.LASF7:
 21877 00b3 5F5F7569 		.ascii	"__uint8_t\000"
 21877      6E74385F 
 21877      7400
 21878              	.LASF215:
 21879 00bd 77747365 		.ascii	"wtsemp\000"
 21879      6D7000
 21880              	.LASF291:
 21881 00c4 5F426F6F 		.ascii	"_Bool\000"
 21881      6C00
 21882              	.LASF403:
 21883 00ca 64617461 		.ascii	"datamode\000"
 21883      6D6F6465 
 21883      00
 21884              	.LASF471:
 21885 00d3 646D6172 		.ascii	"dmarx\000"
 21885      7800
 21886              	.LASF736:
 21887 00d9 464F524D 		.ascii	"FORMAT_RGB444_BYTE_SWAP\000"
 21887      41545F52 
 21887      47423434 
 21887      345F4259 
 21887      54455F53 
 21888              	.LASF476:
 21889 00f1 4932535F 		.ascii	"I2S_READY\000"
 21889      52454144 
 21889      5900
 21890              	.LASF351:
 21891 00fb 73717231 		.ascii	"sqr1\000"
 21891      00
ARM GAS  C:\Users\mathi\AppData\Local\Temp\ccuMtzkg.s 			page 386


 21892              	.LASF278:
 21893 0100 424C4B5F 		.ascii	"BLK_UNINIT\000"
 21893      554E494E 
 21893      495400
 21894              	.LASF483:
 21895 010b 72785F62 		.ascii	"rx_buffer\000"
 21895      75666665 
 21895      7200
 21896              	.LASF467:
 21897 0115 6572726F 		.ascii	"errors\000"
 21897      727300
 21898              	.LASF202:
 21899 011c 776F7273 		.ascii	"worst\000"
 21899      7400
 21900              	.LASF85:
 21901 0122 76745F73 		.ascii	"vt_systime\000"
 21901      79737469 
 21901      6D6500
 21902              	.LASF151:
 21903 012d 444F5231 		.ascii	"DOR1\000"
 21903      00
 21904              	.LASF152:
 21905 0132 444F5232 		.ascii	"DOR2\000"
 21905      00
 21906              	.LASF482:
 21907 0137 74785F62 		.ascii	"tx_buffer\000"
 21907      75666665 
 21907      7200
 21908              	.LASF224:
 21909 0141 6D5F6E65 		.ascii	"m_next\000"
 21909      787400
 21910              	.LASF311:
 21911 0148 50434461 		.ascii	"PCData\000"
 21911      746100
 21912              	.LASF799:
 21913 014f 474E5520 		.ascii	"GNU C11 7.2.1 20170904 (release) [ARM/embedded-7-br"
 21913      43313120 
 21913      372E322E 
 21913      31203230 
 21913      31373039 
 21914 0182 616E6368 		.ascii	"anch revision 255204] -mcpu=cortex-m4 -mfloat-abi=h"
 21914      20726576 
 21914      6973696F 
 21914      6E203235 
 21914      35323034 
 21915 01b5 61726420 		.ascii	"ard -mfpu=fpv4-sp-d16 -mno-thumb-interwork -mthumb "
 21915      2D6D6670 
 21915      753D6670 
 21915      76342D73 
 21915      702D6431 
 21916 01e8 2D676764 		.ascii	"-ggdb -O3 -fomit-frame-pointer -falign-functions=16"
 21916      62202D4F 
 21916      33202D66 
 21916      6F6D6974 
 21916      2D667261 
 21917 021b 202D666E 		.ascii	" -fno-strict-aliasing -fstack-protector-all -ffunct"
 21917      6F2D7374 
ARM GAS  C:\Users\mathi\AppData\Local\Temp\ccuMtzkg.s 			page 387


 21917      72696374 
 21917      2D616C69 
 21917      6173696E 
 21918 024e 696F6E2D 		.ascii	"ion-sections -fdata-sections -fno-common -fsingle-p"
 21918      73656374 
 21918      696F6E73 
 21918      202D6664 
 21918      6174612D 
 21919 0281 72656369 		.ascii	"recision-constant\000"
 21919      73696F6E 
 21919      2D636F6E 
 21919      7374616E 
 21919      7400
 21920              	.LASF174:
 21921 0293 4D41534B 		.ascii	"MASK\000"
 21921      00
 21922              	.LASF336:
 21923 0298 73616D70 		.ascii	"samples\000"
 21923      6C657300 
 21924              	.LASF639:
 21925 02a0 47434346 		.ascii	"GCCFG\000"
 21925      4700
 21926              	.LASF432:
 21927 02a6 42445452 		.ascii	"BDTR\000"
 21927      00
 21928              	.LASF385:
 21929 02ab 7265676D 		.ascii	"regmask\000"
 21929      61736B00 
 21930              	.LASF465:
 21931 02b3 49324343 		.ascii	"I2CConfig\000"
 21931      6F6E6669 
 21931      6700
 21932              	.LASF22:
 21933 02bd 75696E74 		.ascii	"uint16_t\000"
 21933      31365F74 
 21933      00
 21934              	.LASF472:
 21935 02c6 646D6174 		.ascii	"dmatx\000"
 21935      7800
 21936              	.LASF709:
 21937 02cc 736F665F 		.ascii	"sof_cb\000"
 21937      636200
 21938              	.LASF408:
 21939 02d3 4558545F 		.ascii	"EXT_ACTIVE\000"
 21939      41435449 
 21939      564500
 21940              	.LASF304:
 21941 02de 6F737065 		.ascii	"ospeedr\000"
 21941      65647200 
 21942              	.LASF642:
 21943 02e6 44494550 		.ascii	"DIEPTXF\000"
 21943      54584600 
 21944              	.LASF250:
 21945 02ee 656C5F6E 		.ascii	"el_next\000"
 21945      65787400 
 21946              	.LASF331:
 21947 02f6 4144435F 		.ascii	"ADC_ERR_OVERFLOW\000"
ARM GAS  C:\Users\mathi\AppData\Local\Temp\ccuMtzkg.s 			page 388


 21947      4552525F 
 21947      4F564552 
 21947      464C4F57 
 21947      00
 21948              	.LASF716:
 21949 0307 53657269 		.ascii	"SerialUSBDriver\000"
 21949      616C5553 
 21949      42447269 
 21949      76657200 
 21950              	.LASF90:
 21951 0317 6C6F636B 		.ascii	"lock_cnt\000"
 21951      5F636E74 
 21951      00
 21952              	.LASF66:
 21953 0320 63685F74 		.ascii	"ch_threads_queue\000"
 21953      68726561 
 21953      64735F71 
 21953      75657565 
 21953      00
 21954              	.LASF723:
 21955 0331 464F524D 		.ascii	"FORMAT_CBYCRY\000"
 21955      41545F43 
 21955      42594352 
 21955      5900
 21956              	.LASF44:
 21957 033f 705F6E65 		.ascii	"p_newer\000"
 21957      77657200 
 21958              	.LASF652:
 21959 0347 48505254 		.ascii	"HPRT\000"
 21959      00
 21960              	.LASF744:
 21961 034c 53554253 		.ascii	"SUBSAMPLING_X1\000"
 21961      414D504C 
 21961      494E475F 
 21961      583100
 21962              	.LASF606:
 21963 035b 4843494E 		.ascii	"HCINT\000"
 21963      5400
 21964              	.LASF750:
 21965 0361 68656967 		.ascii	"height\000"
 21965      687400
 21966              	.LASF101:
 21967 0368 534D5052 		.ascii	"SMPR1\000"
 21967      3100
 21968              	.LASF102:
 21969 036e 534D5052 		.ascii	"SMPR2\000"
 21969      3200
 21970              	.LASF241:
 21971 0374 63665F6F 		.ascii	"cf_off_flags\000"
 21971      66665F66 
 21971      6C616773 
 21971      00
 21972              	.LASF545:
 21973 0381 5350495F 		.ascii	"SPI_STOP\000"
 21973      53544F50 
 21973      00
 21974              	.LASF499:
ARM GAS  C:\Users\mathi\AppData\Local\Temp\ccuMtzkg.s 			page 389


 21975 038a 70776D63 		.ascii	"pwmchnmsk_t\000"
 21975      686E6D73 
 21975      6B5F7400 
 21976              	.LASF310:
 21977 0396 50424461 		.ascii	"PBData\000"
 21977      746100
 21978              	.LASF229:
 21979 039d 63685F73 		.ascii	"ch_size\000"
 21979      697A6500 
 21980              	.LASF648:
 21981 03a5 48505458 		.ascii	"HPTXSTS\000"
 21981      53545300 
 21982              	.LASF303:
 21983 03ad 6F747970 		.ascii	"otyper\000"
 21983      657200
 21984              	.LASF294:
 21985 03b4 4F545950 		.ascii	"OTYPER\000"
 21985      455200
 21986              	.LASF387:
 21987 03bb 64616370 		.ascii	"dacparams_t\000"
 21987      6172616D 
 21987      735F7400 
 21988              	.LASF793:
 21989 03c7 72656756 		.ascii	"regValue\000"
 21989      616C7565 
 21989      00
 21990              	.LASF523:
 21991 03d0 5344435F 		.ascii	"SDC_MODE_1BIT\000"
 21991      4D4F4445 
 21991      5F314249 
 21991      5400
 21992              	.LASF604:
 21993 03de 48434348 		.ascii	"HCCHAR\000"
 21993      415200
 21994              	.LASF449:
 21995 03e5 4932435F 		.ascii	"I2C_ACTIVE_RX\000"
 21995      41435449 
 21995      56455F52 
 21995      5800
 21996              	.LASF39:
 21997 03f3 74687265 		.ascii	"thread_t\000"
 21997      61645F74 
 21997      00
 21998              	.LASF252:
 21999 03fc 656C5F65 		.ascii	"el_events\000"
 21999      76656E74 
 21999      7300
 22000              	.LASF492:
 22001 0406 70776D73 		.ascii	"pwmstate_t\000"
 22001      74617465 
 22001      5F7400
 22002              	.LASF372:
 22003 0411 736C6565 		.ascii	"sleep_event\000"
 22003      705F6576 
 22003      656E7400 
 22004              	.LASF84:
 22005 041d 63685F76 		.ascii	"ch_virtual_timers_list\000"
ARM GAS  C:\Users\mathi\AppData\Local\Temp\ccuMtzkg.s 			page 390


 22005      69727475 
 22005      616C5F74 
 22005      696D6572 
 22005      735F6C69 
 22006              	.LASF275:
 22007 0434 76656374 		.ascii	"vector\000"
 22007      6F7200
 22008              	.LASF23:
 22009 043b 696E7433 		.ascii	"int32_t\000"
 22009      325F7400 
 22010              	.LASF463:
 22011 0443 636C6F63 		.ascii	"clock_speed\000"
 22011      6B5F7370 
 22011      65656400 
 22012              	.LASF38:
 22013 044f 73797374 		.ascii	"systime_t\000"
 22013      696D655F 
 22013      7400
 22014              	.LASF405:
 22015 0459 44414344 		.ascii	"DACD2\000"
 22015      3200
 22016              	.LASF374:
 22017 045f 43414E44 		.ascii	"CANDriver\000"
 22017      72697665 
 22017      7200
 22018              	.LASF239:
 22019 0469 63665F6F 		.ascii	"cf_off_stklimit\000"
 22019      66665F73 
 22019      746B6C69 
 22019      6D697400 
 22020              	.LASF155:
 22021 0479 4D304152 		.ascii	"M0AR\000"
 22021      00
 22022              	.LASF611:
 22023 047e 72657376 		.ascii	"resvd1c\000"
 22023      64316300 
 22024              	.LASF232:
 22025 0486 63685F74 		.ascii	"ch_timesize\000"
 22025      696D6573 
 22025      697A6500 
 22026              	.LASF453:
 22027 0492 69326366 		.ascii	"i2cflags_t\000"
 22027      6C616773 
 22027      5F7400
 22028              	.LASF649:
 22029 049d 4841494E 		.ascii	"HAINT\000"
 22029      5400
 22030              	.LASF137:
 22031 04a3 46413152 		.ascii	"FA1R\000"
 22031      00
 22032              	.LASF646:
 22033 04a8 48464E55 		.ascii	"HFNUM\000"
 22033      4D00
 22034              	.LASF268:
 22035 04ae 716E6F74 		.ascii	"qnotify_t\000"
 22035      6966795F 
 22035      7400
ARM GAS  C:\Users\mathi\AppData\Local\Temp\ccuMtzkg.s 			page 391


 22036              	.LASF327:
 22037 04b8 61646373 		.ascii	"adcstate_t\000"
 22037      74617465 
 22037      5F7400
 22038              	.LASF273:
 22039 04c3 69736869 		.ascii	"ishift\000"
 22039      667400
 22040              	.LASF422:
 22041 04ca 4750545F 		.ascii	"GPT_ONESHOT\000"
 22041      4F4E4553 
 22041      484F5400 
 22042              	.LASF263:
 22043 04d6 715F746F 		.ascii	"q_top\000"
 22043      7000
 22044              	.LASF597:
 22045 04dc 75645F73 		.ascii	"ud_string\000"
 22045      7472696E 
 22045      6700
 22046              	.LASF466:
 22047 04e6 49324344 		.ascii	"I2CDriver\000"
 22047      72697665 
 22047      7200
 22048              	.LASF448:
 22049 04f0 4932435F 		.ascii	"I2C_ACTIVE_TX\000"
 22049      41435449 
 22049      56455F54 
 22049      5800
 22050              	.LASF518:
 22051 04fe 72656164 		.ascii	"read\000"
 22051      00
 22052              	.LASF454:
 22053 0503 4F504D4F 		.ascii	"OPMODE_I2C\000"
 22053      44455F49 
 22053      324300
 22054              	.LASF658:
 22055 050e 72657376 		.ascii	"resvd80C\000"
 22055      64383043 
 22055      00
 22056              	.LASF706:
 22057 0517 6576656E 		.ascii	"event_cb\000"
 22057      745F6362 
 22057      00
 22058              	.LASF625:
 22059 0520 474F5447 		.ascii	"GOTGCTL\000"
 22059      43544C00 
 22060              	.LASF719:
 22061 0528 62756C6B 		.ascii	"bulk_out\000"
 22061      5F6F7574 
 22061      00
 22062              	.LASF600:
 22063 0531 75736265 		.ascii	"usbepcallback_t\000"
 22063      7063616C 
 22063      6C626163 
 22063      6B5F7400 
 22064              	.LASF452:
 22065 0541 69326361 		.ascii	"i2caddr_t\000"
 22065      6464725F 
ARM GAS  C:\Users\mathi\AppData\Local\Temp\ccuMtzkg.s 			page 392


 22065      7400
 22066              	.LASF95:
 22067 054b 76746C69 		.ascii	"vtlist\000"
 22067      737400
 22068              	.LASF770:
 22069 0552 706F3830 		.ascii	"po8030_set_contrast\000"
 22069      33305F73 
 22069      65745F63 
 22069      6F6E7472 
 22069      61737400 
 22070              	.LASF160:
 22071 0566 54524953 		.ascii	"TRISE\000"
 22071      4500
 22072              	.LASF664:
 22073 056c 72657376 		.ascii	"resvd824\000"
 22073      64383234 
 22073      00
 22074              	.LASF53:
 22075 0575 705F7761 		.ascii	"p_waiting\000"
 22075      6974696E 
 22075      6700
 22076              	.LASF210:
 22077 057f 6B65726E 		.ascii	"kernel_stats_t\000"
 22077      656C5F73 
 22077      74617473 
 22077      5F7400
 22078              	.LASF260:
 22079 058e 715F7761 		.ascii	"q_waiting\000"
 22079      6974696E 
 22079      6700
 22080              	.LASF119:
 22081 0598 43414E5F 		.ascii	"CAN_TxMailBox_TypeDef\000"
 22081      54784D61 
 22081      696C426F 
 22081      785F5479 
 22081      70654465 
 22082              	.LASF94:
 22083 05ae 726C6973 		.ascii	"rlist\000"
 22083      7400
 22084              	.LASF62:
 22085 05b4 74687265 		.ascii	"threads_list_t\000"
 22085      6164735F 
 22085      6C697374 
 22085      5F7400
 22086              	.LASF235:
 22087 05c3 63665F6F 		.ascii	"cf_off_ctx\000"
 22087      66665F63 
 22087      747800
 22088              	.LASF269:
 22089 05ce 696E7075 		.ascii	"input_queue_t\000"
 22089      745F7175 
 22089      6575655F 
 22089      7400
 22090              	.LASF354:
 22091 05dc 41444343 		.ascii	"ADCConversionGroup\000"
 22091      6F6E7665 
 22091      7273696F 
ARM GAS  C:\Users\mathi\AppData\Local\Temp\ccuMtzkg.s 			page 393


 22091      6E47726F 
 22091      757000
 22092              	.LASF657:
 22093 05ef 44535453 		.ascii	"DSTS\000"
 22093      00
 22094              	.LASF458:
 22095 05f4 5354445F 		.ascii	"STD_DUTY_CYCLE\000"
 22095      44555459 
 22095      5F435943 
 22095      4C4500
 22096              	.LASF363:
 22097 0603 43414E5F 		.ascii	"CAN_READY\000"
 22097      52454144 
 22097      5900
 22098              	.LASF237:
 22099 060d 63665F6F 		.ascii	"cf_off_older\000"
 22099      66665F6F 
 22099      6C646572 
 22099      00
 22100              	.LASF27:
 22101 061a 72747469 		.ascii	"rttime_t\000"
 22101      6D655F74 
 22101      00
 22102              	.LASF417:
 22103 0623 45585444 		.ascii	"EXTD1\000"
 22103      3100
 22104              	.LASF691:
 22105 0629 72787175 		.ascii	"rxqueued\000"
 22105      65756564 
 22105      00
 22106              	.LASF365:
 22107 0632 63616E73 		.ascii	"canstate_t\000"
 22107      74617465 
 22107      5F7400
 22108              	.LASF139:
 22109 063d 7346696C 		.ascii	"sFilterRegister\000"
 22109      74657252 
 22109      65676973 
 22109      74657200 
 22110              	.LASF663:
 22111 064d 72657376 		.ascii	"resvd820\000"
 22111      64383230 
 22111      00
 22112              	.LASF803:
 22113 0656 5F5F7374 		.ascii	"__stack_chk_fail\000"
 22113      61636B5F 
 22113      63686B5F 
 22113      6661696C 
 22113      00
 22114              	.LASF166:
 22115 0667 52455350 		.ascii	"RESP1\000"
 22115      3100
 22116              	.LASF167:
 22117 066d 52455350 		.ascii	"RESP2\000"
 22117      3200
 22118              	.LASF168:
 22119 0673 52455350 		.ascii	"RESP3\000"
ARM GAS  C:\Users\mathi\AppData\Local\Temp\ccuMtzkg.s 			page 394


 22119      3300
 22120              	.LASF169:
 22121 0679 52455350 		.ascii	"RESP4\000"
 22121      3400
 22122              	.LASF760:
 22123 067f 66726163 		.ascii	"fractional\000"
 22123      74696F6E 
 22123      616C00
 22124              	.LASF445:
 22125 068a 4932435F 		.ascii	"I2C_UNINIT\000"
 22125      554E494E 
 22125      495400
 22126              	.LASF602:
 22127 0695 75736272 		.ascii	"usbreqhandler_t\000"
 22127      65716861 
 22127      6E646C65 
 22127      725F7400 
 22128              	.LASF325:
 22129 06a5 4144435F 		.ascii	"ADC_COMPLETE\000"
 22129      434F4D50 
 22129      4C455445 
 22129      00
 22130              	.LASF441:
 22131 06b2 47505443 		.ascii	"GPTConfig\000"
 22131      6F6E6669 
 22131      6700
 22132              	.LASF507:
 22133 06bc 53445F55 		.ascii	"SD_UNINIT\000"
 22133      4E494E49 
 22133      5400
 22134              	.LASF32:
 22135 06c6 74707269 		.ascii	"tprio_t\000"
 22135      6F5F7400 
 22136              	.LASF206:
 22137 06ce 6E5F6972 		.ascii	"n_irq\000"
 22137      7100
 22138              	.LASF486:
 22139 06d4 69327370 		.ascii	"i2spr\000"
 22139      7200
 22140              	.LASF667:
 22141 06da 72657376 		.ascii	"resvd830\000"
 22141      64383330 
 22141      00
 22142              	.LASF447:
 22143 06e3 4932435F 		.ascii	"I2C_READY\000"
 22143      52454144 
 22143      5900
 22144              	.LASF669:
 22145 06ed 72657376 		.ascii	"resvd838\000"
 22145      64383338 
 22145      00
 22146              	.LASF461:
 22147 06f6 69326364 		.ascii	"i2cdutycycle_t\000"
 22147      75747963 
 22147      79636C65 
 22147      5F7400
 22148              	.LASF715:
ARM GAS  C:\Users\mathi\AppData\Local\Temp\ccuMtzkg.s 			page 395


 22149 0705 73647573 		.ascii	"sdustate_t\000"
 22149      74617465 
 22149      5F7400
 22150              	.LASF670:
 22151 0710 72657376 		.ascii	"resvd83C\000"
 22151      64383343 
 22151      00
 22152              	.LASF741:
 22153 0719 53495A45 		.ascii	"SIZE_QVGA\000"
 22153      5F515647 
 22153      4100
 22154              	.LASF339:
 22155 0723 74687265 		.ascii	"thread\000"
 22155      616400
 22156              	.LASF384:
 22157 072a 72656773 		.ascii	"regshift\000"
 22157      68696674 
 22157      00
 22158              	.LASF565:
 22159 0733 73657475 		.ascii	"setup\000"
 22159      7000
 22160              	.LASF544:
 22161 0739 5350495F 		.ascii	"SPI_UNINIT\000"
 22161      554E494E 
 22161      495400
 22162              	.LASF618:
 22163 0744 44545846 		.ascii	"DTXFSTS\000"
 22163      53545300 
 22164              	.LASF288:
 22165 074c 626C6B5F 		.ascii	"blk_size\000"
 22165      73697A65 
 22165      00
 22166              	.LASF559:
 22167 0755 696E5F70 		.ascii	"in_params\000"
 22167      6172616D 
 22167      7300
 22168              	.LASF431:
 22169 075f 43434552 		.ascii	"CCER\000"
 22169      00
 22170              	.LASF182:
 22171 0764 49325350 		.ascii	"I2SPR\000"
 22171      5200
 22172              	.LASF489:
 22173 076a 50574D5F 		.ascii	"PWM_UNINIT\000"
 22173      554E494E 
 22173      495400
 22174              	.LASF201:
 22175 0775 62657374 		.ascii	"best\000"
 22175      00
 22176              	.LASF627:
 22177 077a 47414842 		.ascii	"GAHBCFG\000"
 22177      43464700 
 22178              	.LASF394:
 22179 0782 64616363 		.ascii	"daccallback_t\000"
 22179      616C6C62 
 22179      61636B5F 
 22179      7400
ARM GAS  C:\Users\mathi\AppData\Local\Temp\ccuMtzkg.s 			page 396


 22180              	.LASF714:
 22181 0790 5344555F 		.ascii	"SDU_READY\000"
 22181      52454144 
 22181      5900
 22182              	.LASF671:
 22183 079a 72657376 		.ascii	"resvd840\000"
 22183      64383430 
 22183      00
 22184              	.LASF178:
 22185 07a3 43524350 		.ascii	"CRCPR\000"
 22185      5200
 22186              	.LASF283:
 22187 07a9 424C4B5F 		.ascii	"BLK_READY\000"
 22187      52454144 
 22187      5900
 22188              	.LASF9:
 22189 07b3 5F5F696E 		.ascii	"__int16_t\000"
 22189      7431365F 
 22189      7400
 22190              	.LASF11:
 22191 07bd 5F5F7569 		.ascii	"__uint16_t\000"
 22191      6E743136 
 22191      5F7400
 22192              	.LASF421:
 22193 07c8 4750545F 		.ascii	"GPT_CONTINUOUS\000"
 22193      434F4E54 
 22193      494E554F 
 22193      555300
 22194              	.LASF685:
 22195 07d7 74787175 		.ascii	"txqueued\000"
 22195      65756564 
 22195      00
 22196              	.LASF55:
 22197 07e0 705F6D73 		.ascii	"p_msg\000"
 22197      6700
 22198              	.LASF624:
 22199 07e6 73746D33 		.ascii	"stm32_otg_out_ep_t\000"
 22199      325F6F74 
 22199      675F6F75 
 22199      745F6570 
 22199      5F7400
 22200              	.LASF633:
 22201 07f9 47525853 		.ascii	"GRXSTSP\000"
 22201      54535000 
 22202              	.LASF632:
 22203 0801 47525853 		.ascii	"GRXSTSR\000"
 22203      54535200 
 22204              	.LASF212:
 22205 0809 65786974 		.ascii	"exitcode\000"
 22205      636F6465 
 22205      00
 22206              	.LASF156:
 22207 0812 4D314152 		.ascii	"M1AR\000"
 22207      00
 22208              	.LASF572:
 22209 0817 77616974 		.ascii	"wait\000"
 22209      00
ARM GAS  C:\Users\mathi\AppData\Local\Temp\ccuMtzkg.s 			page 397


 22210              	.LASF157:
 22211 081c 444D415F 		.ascii	"DMA_Stream_TypeDef\000"
 22211      53747265 
 22211      616D5F54 
 22211      79706544 
 22211      656600
 22212              	.LASF748:
 22213 082f 706F3830 		.ascii	"po8030_configuration\000"
 22213      33305F63 
 22213      6F6E6669 
 22213      67757261 
 22213      74696F6E 
 22214              	.LASF795:
 22215 0844 72656164 		.ascii	"read_reg\000"
 22215      5F726567 
 22215      00
 22216              	.LASF579:
 22217 084d 5553425F 		.ascii	"USB_ACTIVE\000"
 22217      41435449 
 22217      564500
 22218              	.LASF620:
 22219 0858 73746D33 		.ascii	"stm32_otg_in_ep_t\000"
 22219      325F6F74 
 22219      675F696E 
 22219      5F65705F 
 22219      7400
 22220              	.LASF693:
 22221 086a 7278636E 		.ascii	"rxcnt\000"
 22221      7400
 22222              	.LASF321:
 22223 0870 4144435F 		.ascii	"ADC_UNINIT\000"
 22223      554E494E 
 22223      495400
 22224              	.LASF469:
 22225 087b 7278646D 		.ascii	"rxdmamode\000"
 22225      616D6F64 
 22225      6500
 22226              	.LASF413:
 22227 0885 6D6F6465 		.ascii	"mode\000"
 22227      00
 22228              	.LASF225:
 22229 088a 6D5F636E 		.ascii	"m_cnt\000"
 22229      7400
 22230              	.LASF410:
 22231 0890 45585444 		.ascii	"EXTDriver\000"
 22231      72697665 
 22231      7200
 22232              	.LASF240:
 22233 089a 63665F6F 		.ascii	"cf_off_state\000"
 22233      66665F73 
 22233      74617465 
 22233      00
 22234              	.LASF481:
 22235 08a7 69327363 		.ascii	"i2scallback_t\000"
 22235      616C6C62 
 22235      61636B5F 
 22235      7400
ARM GAS  C:\Users\mathi\AppData\Local\Temp\ccuMtzkg.s 			page 398


 22236              	.LASF553:
 22237 08b5 73737061 		.ascii	"sspad\000"
 22237      6400
 22238              	.LASF470:
 22239 08bb 7478646D 		.ascii	"txdmamode\000"
 22239      616D6F64 
 22239      6500
 22240              	.LASF437:
 22241 08c5 67707466 		.ascii	"gptfreq_t\000"
 22241      7265715F 
 22241      7400
 22242              	.LASF762:
 22243 08cf 63616D5F 		.ascii	"cam_configured\000"
 22243      636F6E66 
 22243      69677572 
 22243      656400
 22244              	.LASF754:
 22245 08de 75736263 		.ascii	"usbcfg\000"
 22245      666700
 22246              	.LASF678:
 22247 08e5 72785F66 		.ascii	"rx_fifo_size\000"
 22247      69666F5F 
 22247      73697A65 
 22247      00
 22248              	.LASF187:
 22249 08f2 73746B61 		.ascii	"stkalign_t\000"
 22249      6C69676E 
 22249      5F7400
 22250              	.LASF392:
 22251 08fd 4441435F 		.ascii	"DAC_ERR_UNDERFLOW\000"
 22251      4552525F 
 22251      554E4445 
 22251      52464C4F 
 22251      5700
 22252              	.LASF373:
 22253 090f 77616B65 		.ascii	"wakeup_event\000"
 22253      75705F65 
 22253      76656E74 
 22253      00
 22254              	.LASF79:
 22255 091c 76745F70 		.ascii	"vt_prev\000"
 22255      72657600 
 22256              	.LASF347:
 22257 0924 656E645F 		.ascii	"end_cb\000"
 22257      636200
 22258              	.LASF696:
 22259 092b 73657475 		.ascii	"setup_cb\000"
 22259      705F6362 
 22259      00
 22260              	.LASF8:
 22261 0934 756E7369 		.ascii	"unsigned char\000"
 22261      676E6564 
 22261      20636861 
 22261      7200
 22262              	.LASF740:
 22263 0942 53495A45 		.ascii	"SIZE_VGA\000"
 22263      5F564741 
ARM GAS  C:\Users\mathi\AppData\Local\Temp\ccuMtzkg.s 			page 399


 22263      00
 22264              	.LASF176:
 22265 094b 4649464F 		.ascii	"FIFO\000"
 22265      00
 22266              	.LASF197:
 22267 0950 74625F62 		.ascii	"tb_buffer\000"
 22267      75666665 
 22267      7200
 22268              	.LASF367:
 22269 095a 74787175 		.ascii	"txqueue\000"
 22269      65756500 
 22270              	.LASF220:
 22271 0962 735F636E 		.ascii	"s_cnt\000"
 22271      7400
 22272              	.LASF67:
 22273 0968 72656164 		.ascii	"ready_list_t\000"
 22273      795F6C69 
 22273      73745F74 
 22273      00
 22274              	.LASF63:
 22275 0975 63685F74 		.ascii	"ch_thread\000"
 22275      68726561 
 22275      6400
 22276              	.LASF456:
 22277 097f 4F504D4F 		.ascii	"OPMODE_SMBUS_HOST\000"
 22277      44455F53 
 22277      4D425553 
 22277      5F484F53 
 22277      5400
 22278              	.LASF574:
 22279 0991 75736265 		.ascii	"usbep_t\000"
 22279      705F7400 
 22280              	.LASF0:
 22281 0999 666C6F61 		.ascii	"float\000"
 22281      7400
 22282              	.LASF761:
 22283 099f 706F3830 		.ascii	"po8030_conf\000"
 22283      33305F63 
 22283      6F6E6600 
 22284              	.LASF406:
 22285 09ab 4558545F 		.ascii	"EXT_UNINIT\000"
 22285      554E494E 
 22285      495400
 22286              	.LASF364:
 22287 09b6 43414E5F 		.ascii	"CAN_SLEEP\000"
 22287      534C4545 
 22287      5000
 22288              	.LASF193:
 22289 09c0 73655F73 		.ascii	"se_state\000"
 22289      74617465 
 22289      00
 22290              	.LASF360:
 22291 09c9 43414E5F 		.ascii	"CAN_UNINIT\000"
 22291      554E494E 
 22291      495400
 22292              	.LASF543:
 22293 09d4 53444344 		.ascii	"SDCD1\000"
ARM GAS  C:\Users\mathi\AppData\Local\Temp\ccuMtzkg.s 			page 400


 22293      3100
 22294              	.LASF86:
 22295 09da 73797374 		.ascii	"system_debug_t\000"
 22295      656D5F64 
 22295      65627567 
 22295      5F7400
 22296              	.LASF144:
 22297 09e9 44485238 		.ascii	"DHR8R1\000"
 22297      523100
 22298              	.LASF147:
 22299 09f0 44485238 		.ascii	"DHR8R2\000"
 22299      523200
 22300              	.LASF428:
 22301 09f7 44494552 		.ascii	"DIER\000"
 22301      00
 22302              	.LASF43:
 22303 09fc 705F6374 		.ascii	"p_ctx\000"
 22303      7800
 22304              	.LASF82:
 22305 0a02 76745F70 		.ascii	"vt_par\000"
 22305      617200
 22306              	.LASF103:
 22307 0a09 4A4F4652 		.ascii	"JOFR1\000"
 22307      3100
 22308              	.LASF104:
 22309 0a0f 4A4F4652 		.ascii	"JOFR2\000"
 22309      3200
 22310              	.LASF105:
 22311 0a15 4A4F4652 		.ascii	"JOFR3\000"
 22311      3300
 22312              	.LASF106:
 22313 0a1b 4A4F4652 		.ascii	"JOFR4\000"
 22313      3400
 22314              	.LASF74:
 22315 0a21 725F6375 		.ascii	"r_current\000"
 22315      7272656E 
 22315      7400
 22316              	.LASF180:
 22317 0a2b 54584352 		.ascii	"TXCRCR\000"
 22317      435200
 22318              	.LASF399:
 22319 0a32 64616364 		.ascii	"dacdhrmode_t\000"
 22319      68726D6F 
 22319      64655F74 
 22319      00
 22320              	.LASF341:
 22321 0a3f 646D6173 		.ascii	"dmastp\000"
 22321      747000
 22322              	.LASF460:
 22323 0a46 46415354 		.ascii	"FAST_DUTY_CYCLE_16_9\000"
 22323      5F445554 
 22323      595F4359 
 22323      434C455F 
 22323      31365F39 
 22324              	.LASF25:
 22325 0a5b 75696E74 		.ascii	"uint64_t\000"
 22325      36345F74 
ARM GAS  C:\Users\mathi\AppData\Local\Temp\ccuMtzkg.s 			page 401


 22325      00
 22326              	.LASF207:
 22327 0a64 6E5F6374 		.ascii	"n_ctxswc\000"
 22327      78737763 
 22327      00
 22328              	.LASF246:
 22329 0a6d 63685F64 		.ascii	"ch_debug\000"
 22329      65627567 
 22329      00
 22330              	.LASF402:
 22331 0a76 696E6974 		.ascii	"init\000"
 22331      00
 22332              	.LASF131:
 22333 0a7b 464D3152 		.ascii	"FM1R\000"
 22333      00
 22334              	.LASF318:
 22335 0a80 50414C43 		.ascii	"PALConfig\000"
 22335      6F6E6669 
 22335      6700
 22336              	.LASF776:
 22337 0a8a 6175746F 		.ascii	"auto_cw_x2\000"
 22337      5F63775F 
 22337      783200
 22338              	.LASF687:
 22339 0a95 7478636E 		.ascii	"txcnt\000"
 22339      7400
 22340              	.LASF601:
 22341 0a9b 75736265 		.ascii	"usbeventcb_t\000"
 22341      76656E74 
 22341      63625F74 
 22341      00
 22342              	.LASF280:
 22343 0aa8 424C4B5F 		.ascii	"BLK_ACTIVE\000"
 22343      41435449 
 22343      564500
 22344              	.LASF248:
 22345 0ab3 6576656E 		.ascii	"event_listener_t\000"
 22345      745F6C69 
 22345      7374656E 
 22345      65725F74 
 22345      00
 22346              	.LASF679:
 22347 0ac4 6F74675F 		.ascii	"otg_ram_size\000"
 22347      72616D5F 
 22347      73697A65 
 22347      00
 22348              	.LASF681:
 22349 0ad1 73746D33 		.ascii	"stm32_otg_params_t\000"
 22349      325F6F74 
 22349      675F7061 
 22349      72616D73 
 22349      5F7400
 22350              	.LASF674:
 22351 0ae4 72657376 		.ascii	"resvdD00\000"
 22351      64443030 
 22351      00
 22352              	.LASF179:
ARM GAS  C:\Users\mathi\AppData\Local\Temp\ccuMtzkg.s 			page 402


 22353 0aed 52584352 		.ascii	"RXCRCR\000"
 22353      435200
 22354              	.LASF690:
 22355 0af4 72786275 		.ascii	"rxbuf\000"
 22355      6600
 22356              	.LASF630:
 22357 0afa 47494E54 		.ascii	"GINTSTS\000"
 22357      53545300 
 22358              	.LASF221:
 22359 0b02 63685F6D 		.ascii	"ch_mutex\000"
 22359      75746578 
 22359      00
 22360              	.LASF370:
 22361 0b0b 7478656D 		.ascii	"txempty_event\000"
 22361      7074795F 
 22361      6576656E 
 22361      7400
 22362              	.LASF783:
 22363 0b19 70776D63 		.ascii	"pwmcfg_cam\000"
 22363      66675F63 
 22363      616D00
 22364              	.LASF712:
 22365 0b24 5344555F 		.ascii	"SDU_UNINIT\000"
 22365      554E494E 
 22365      495400
 22366              	.LASF493:
 22367 0b2f 50574D44 		.ascii	"PWMDriver\000"
 22367      72697665 
 22367      7200
 22368              	.LASF315:
 22369 0b39 50474461 		.ascii	"PGData\000"
 22369      746100
 22370              	.LASF502:
 22371 0b40 50574D43 		.ascii	"PWMConfig\000"
 22371      6F6E6669 
 22371      6700
 22372              	.LASF755:
 22373 0b4a 73657275 		.ascii	"serusbcfg\000"
 22373      73626366 
 22373      6700
 22374              	.LASF788:
 22375 0b54 706F3830 		.ascii	"po8030_set_vga\000"
 22375      33305F73 
 22375      65745F76 
 22375      676100
 22376              	.LASF763:
 22377 0b63 76616C75 		.ascii	"value\000"
 22377      6500
 22378              	.LASF236:
 22379 0b69 63665F6F 		.ascii	"cf_off_newer\000"
 22379      66665F6E 
 22379      65776572 
 22379      00
 22380              	.LASF659:
 22381 0b76 44494550 		.ascii	"DIEPMSK\000"
 22381      4D534B00 
 22382              	.LASF626:
ARM GAS  C:\Users\mathi\AppData\Local\Temp\ccuMtzkg.s 			page 403


 22383 0b7e 474F5447 		.ascii	"GOTGINT\000"
 22383      494E5400 
 22384              	.LASF698:
 22385 0b86 6F75745F 		.ascii	"out_cb\000"
 22385      636200
 22386              	.LASF730:
 22387 0b8d 464F524D 		.ascii	"FORMAT_BGGR\000"
 22387      41545F42 
 22387      47475200 
 22388              	.LASF650:
 22389 0b99 4841494E 		.ascii	"HAINTMSK\000"
 22389      544D534B 
 22389      00
 22390              	.LASF560:
 22391 0ba2 6F75745F 		.ascii	"out_params\000"
 22391      70617261 
 22391      6D7300
 22392              	.LASF192:
 22393 0bad 73655F77 		.ascii	"se_wtobjp\000"
 22393      746F626A 
 22393      7000
 22394              	.LASF110:
 22395 0bb7 4A535152 		.ascii	"JSQR\000"
 22395      00
 22396              	.LASF777:
 22397 0bbc 6175746F 		.ascii	"auto_cw_y1\000"
 22397      5F63775F 
 22397      793100
 22398              	.LASF440:
 22399 0bc7 64696572 		.ascii	"dier\000"
 22399      00
 22400              	.LASF538:
 22401 0bcc 69735F70 		.ascii	"is_protected\000"
 22401      726F7465 
 22401      63746564 
 22401      00
 22402              	.LASF76:
 22403 0bd9 76697274 		.ascii	"virtual_timer_t\000"
 22403      75616C5F 
 22403      74696D65 
 22403      725F7400 
 22404              	.LASF700:
 22405 0be9 6F75745F 		.ascii	"out_maxsize\000"
 22405      6D617873 
 22405      697A6500 
 22406              	.LASF71:
 22407 0bf5 725F6374 		.ascii	"r_ctx\000"
 22407      7800
 22408              	.LASF78:
 22409 0bfb 76745F6E 		.ascii	"vt_next\000"
 22409      65787400 
 22410              	.LASF475:
 22411 0c03 4932535F 		.ascii	"I2S_STOP\000"
 22411      53544F50 
 22411      00
 22412              	.LASF490:
 22413 0c0c 50574D5F 		.ascii	"PWM_STOP\000"
ARM GAS  C:\Users\mathi\AppData\Local\Temp\ccuMtzkg.s 			page 404


 22413      53544F50 
 22413      00
 22414              	.LASF26:
 22415 0c15 7274636E 		.ascii	"rtcnt_t\000"
 22415      745F7400 
 22416              	.LASF340:
 22417 0c1d 6D757465 		.ascii	"mutex\000"
 22417      7800
 22418              	.LASF484:
 22419 0c23 73697A65 		.ascii	"size\000"
 22419      00
 22420              	.LASF757:
 22421 0c28 706F3830 		.ascii	"po8030_get_image_size\000"
 22421      33305F67 
 22421      65745F69 
 22421      6D616765 
 22421      5F73697A 
 22422              	.LASF388:
 22423 0c3e 44414344 		.ascii	"DACDriver\000"
 22423      72697665 
 22423      7200
 22424              	.LASF404:
 22425 0c48 44414343 		.ascii	"DACConfig\000"
 22425      6F6E6669 
 22425      6700
 22426              	.LASF571:
 22427 0c52 74787065 		.ascii	"txpending\000"
 22427      6E64696E 
 22427      6700
 22428              	.LASF425:
 22429 0c5c 636C6F63 		.ascii	"clock\000"
 22429      6B00
 22430              	.LASF292:
 22431 0c62 636C6561 		.ascii	"clear\000"
 22431      7200
 22432              	.LASF435:
 22433 0c68 43435852 		.ascii	"CCXR\000"
 22433      00
 22434              	.LASF140:
 22435 0c6d 43414E5F 		.ascii	"CAN_TypeDef\000"
 22435      54797065 
 22435      44656600 
 22436              	.LASF194:
 22437 0c79 63685F73 		.ascii	"ch_swc_event_t\000"
 22437      77635F65 
 22437      76656E74 
 22437      5F7400
 22438              	.LASF508:
 22439 0c88 53445F53 		.ascii	"SD_STOP\000"
 22439      544F5000 
 22440              	.LASF605:
 22441 0c90 72657376 		.ascii	"resvd8\000"
 22441      643800
 22442              	.LASF4:
 22443 0c97 73697A65 		.ascii	"size_t\000"
 22443      5F7400
 22444              	.LASF97:
ARM GAS  C:\Users\mathi\AppData\Local\Temp\ccuMtzkg.s 			page 405


 22445 0c9e 6B65726E 		.ascii	"kernel_stats\000"
 22445      656C5F73 
 22445      74617473 
 22445      00
 22446              	.LASF672:
 22447 0cab 72657376 		.ascii	"resvd880\000"
 22447      64383830 
 22447      00
 22448              	.LASF20:
 22449 0cb4 75696E74 		.ascii	"uint8_t\000"
 22449      385F7400 
 22450              	.LASF609:
 22451 0cbc 72657376 		.ascii	"resvd14\000"
 22451      64313400 
 22452              	.LASF610:
 22453 0cc4 72657376 		.ascii	"resvd18\000"
 22453      64313800 
 22454              	.LASF73:
 22455 0ccc 725F6F6C 		.ascii	"r_older\000"
 22455      64657200 
 22456              	.LASF41:
 22457 0cd4 705F7072 		.ascii	"p_prev\000"
 22457      657600
 22458              	.LASF238:
 22459 0cdb 63665F6F 		.ascii	"cf_off_name\000"
 22459      66665F6E 
 22459      616D6500 
 22460              	.LASF501:
 22461 0ce7 50574D43 		.ascii	"PWMChannelConfig\000"
 22461      68616E6E 
 22461      656C436F 
 22461      6E666967 
 22461      00
 22462              	.LASF500:
 22463 0cf8 70776D63 		.ascii	"pwmcnt_t\000"
 22463      6E745F74 
 22463      00
 22464              	.LASF668:
 22465 0d01 44494550 		.ascii	"DIEPEMPMSK\000"
 22465      454D504D 
 22465      534B00
 22466              	.LASF613:
 22467 0d0c 44494550 		.ascii	"DIEPCTL\000"
 22467      43544C00 
 22468              	.LASF254:
 22469 0d14 656C5F77 		.ascii	"el_wflags\000"
 22469      666C6167 
 22469      7300
 22470              	.LASF569:
 22471 0d1e 6F746770 		.ascii	"otgparams\000"
 22471      6172616D 
 22471      7300
 22472              	.LASF195:
 22473 0d28 74625F73 		.ascii	"tb_size\000"
 22473      697A6500 
 22474              	.LASF312:
 22475 0d30 50444461 		.ascii	"PDData\000"
ARM GAS  C:\Users\mathi\AppData\Local\Temp\ccuMtzkg.s 			page 406


 22475      746100
 22476              	.LASF533:
 22477 0d37 73637261 		.ascii	"scratchpad\000"
 22477      74636870 
 22477      616400
 22478              	.LASF702:
 22479 0d42 6F75745F 		.ascii	"out_state\000"
 22479      73746174 
 22479      6500
 22480              	.LASF258:
 22481 0d4c 696F5F71 		.ascii	"io_queue_t\000"
 22481      75657565 
 22481      5F7400
 22482              	.LASF549:
 22483 0d57 73706973 		.ascii	"spistate_t\000"
 22483      74617465 
 22483      5F7400
 22484              	.LASF446:
 22485 0d62 4932435F 		.ascii	"I2C_STOP\000"
 22485      53544F50 
 22485      00
 22486              	.LASF468:
 22487 0d6b 61646472 		.ascii	"addr\000"
 22487      00
 22488              	.LASF125:
 22489 0d70 52463052 		.ascii	"RF0R\000"
 22489      00
 22490              	.LASF330:
 22491 0d75 4144435F 		.ascii	"ADC_ERR_DMAFAILURE\000"
 22491      4552525F 
 22491      444D4146 
 22491      41494C55 
 22491      524500
 22492              	.LASF547:
 22493 0d88 5350495F 		.ascii	"SPI_ACTIVE\000"
 22493      41435449 
 22493      564500
 22494              	.LASF414:
 22495 0d93 45585443 		.ascii	"EXTChannelConfig\000"
 22495      68616E6E 
 22495      656C436F 
 22495      6E666967 
 22495      00
 22496              	.LASF295:
 22497 0da4 4F535045 		.ascii	"OSPEEDR\000"
 22497      45445200 
 22498              	.LASF378:
 22499 0dac 4441435F 		.ascii	"DAC_READY\000"
 22499      52454144 
 22499      5900
 22500              	.LASF637:
 22501 0db6 72657376 		.ascii	"resvd30\000"
 22501      64333000 
 22502              	.LASF638:
 22503 0dbe 72657376 		.ascii	"resvd34\000"
 22503      64333400 
 22504              	.LASF666:
ARM GAS  C:\Users\mathi\AppData\Local\Temp\ccuMtzkg.s 			page 407


 22505 0dc6 44564255 		.ascii	"DVBUSPULSE\000"
 22505      5350554C 
 22505      534500
 22506              	.LASF279:
 22507 0dd1 424C4B5F 		.ascii	"BLK_STOP\000"
 22507      53544F50 
 22507      00
 22508              	.LASF516:
 22509 0dda 53657269 		.ascii	"SerialDriverVMT\000"
 22509      616C4472 
 22509      69766572 
 22509      564D5400 
 22510              	.LASF587:
 22511 0dea 5553425F 		.ascii	"USB_EP0_ERROR\000"
 22511      4550305F 
 22511      4552524F 
 22511      5200
 22512              	.LASF539:
 22513 0df8 636F6E6E 		.ascii	"connect\000"
 22513      65637400 
 22514              	.LASF126:
 22515 0e00 52463152 		.ascii	"RF1R\000"
 22515      00
 22516              	.LASF333:
 22517 0e05 41444344 		.ascii	"ADCDriver\000"
 22517      72697665 
 22517      7200
 22518              	.LASF680:
 22519 0e0f 6E756D5F 		.ascii	"num_endpoints\000"
 22519      656E6470 
 22519      6F696E74 
 22519      7300
 22520              	.LASF356:
 22521 0e1d 41444343 		.ascii	"ADCConfig\000"
 22521      6F6E6669 
 22521      6700
 22522              	.LASF688:
 22523 0e27 746F7473 		.ascii	"totsize\000"
 22523      697A6500 
 22524              	.LASF509:
 22525 0e2f 53445F52 		.ascii	"SD_READY\000"
 22525      45414459 
 22525      00
 22526              	.LASF603:
 22527 0e38 75736267 		.ascii	"usbgetdescriptor_t\000"
 22527      65746465 
 22527      73637269 
 22527      70746F72 
 22527      5F7400
 22528              	.LASF381:
 22529 0e4b 4441435F 		.ascii	"DAC_ERROR\000"
 22529      4552524F 
 22529      5200
 22530              	.LASF582:
 22531 0e55 5553425F 		.ascii	"USB_EP0_TX\000"
 22531      4550305F 
 22531      545800
ARM GAS  C:\Users\mathi\AppData\Local\Temp\ccuMtzkg.s 			page 408


 22532              	.LASF561:
 22533 0e60 65703073 		.ascii	"ep0state\000"
 22533      74617465 
 22533      00
 22534              	.LASF272:
 22535 0e69 69666372 		.ascii	"ifcr\000"
 22535      00
 22536              	.LASF474:
 22537 0e6e 4932535F 		.ascii	"I2S_UNINIT\000"
 22537      554E494E 
 22537      495400
 22538              	.LASF718:
 22539 0e79 62756C6B 		.ascii	"bulk_in\000"
 22539      5F696E00 
 22540              	.LASF301:
 22541 0e81 73746D33 		.ascii	"stm32_gpio_t\000"
 22541      325F6770 
 22541      696F5F74 
 22541      00
 22542              	.LASF211:
 22543 0e8e 7264796D 		.ascii	"rdymsg\000"
 22543      736700
 22544              	.LASF491:
 22545 0e95 50574D5F 		.ascii	"PWM_READY\000"
 22545      52454144 
 22545      5900
 22546              	.LASF116:
 22547 0e9f 54445452 		.ascii	"TDTR\000"
 22547      00
 22548              	.LASF124:
 22549 0ea4 43414E5F 		.ascii	"CAN_FilterRegister_TypeDef\000"
 22549      46696C74 
 22549      65725265 
 22549      67697374 
 22549      65725F54 
 22550              	.LASF371:
 22551 0ebf 6572726F 		.ascii	"error_event\000"
 22551      725F6576 
 22551      656E7400 
 22552              	.LASF346:
 22553 0ecb 6E756D5F 		.ascii	"num_channels\000"
 22553      6368616E 
 22553      6E656C73 
 22553      00
 22554              	.LASF640:
 22555 0ed8 72657376 		.ascii	"resvd58\000"
 22555      64353800 
 22556              	.LASF689:
 22557 0ee0 55534249 		.ascii	"USBInEndpointState\000"
 22557      6E456E64 
 22557      706F696E 
 22557      74537461 
 22557      746500
 22558              	.LASF42:
 22559 0ef3 705F7072 		.ascii	"p_prio\000"
 22559      696F00
 22560              	.LASF259:
ARM GAS  C:\Users\mathi\AppData\Local\Temp\ccuMtzkg.s 			page 409


 22561 0efa 696F5F71 		.ascii	"io_queue\000"
 22561      75657565 
 22561      00
 22562              	.LASF747:
 22563 0f03 73756273 		.ascii	"subsampling_t\000"
 22563      616D706C 
 22563      696E675F 
 22563      7400
 22564              	.LASF773:
 22565 0f11 73756273 		.ascii	"subsampling_x\000"
 22565      616D706C 
 22565      696E675F 
 22565      7800
 22566              	.LASF774:
 22567 0f1f 73756273 		.ascii	"subsampling_y\000"
 22567      616D706C 
 22567      696E675F 
 22567      7900
 22568              	.LASF309:
 22569 0f2d 50414461 		.ascii	"PAData\000"
 22569      746100
 22570              	.LASF17:
 22571 0f34 5F5F7569 		.ascii	"__uint64_t\000"
 22571      6E743634 
 22571      5F7400
 22572              	.LASF756:
 22573 0f3f 53445531 		.ascii	"SDU1\000"
 22573      00
 22574              	.LASF496:
 22575 0f44 70776D63 		.ascii	"pwmcallback_t\000"
 22575      616C6C62 
 22575      61636B5F 
 22575      7400
 22576              	.LASF389:
 22577 0f52 70617261 		.ascii	"params\000"
 22577      6D7300
 22578              	.LASF586:
 22579 0f59 5553425F 		.ascii	"USB_EP0_SENDING_STS\000"
 22579      4550305F 
 22579      53454E44 
 22579      494E475F 
 22579      53545300 
 22580              	.LASF720:
 22581 0f6d 696E745F 		.ascii	"int_in\000"
 22581      696E00
 22582              	.LASF451:
 22583 0f74 69326373 		.ascii	"i2cstate_t\000"
 22583      74617465 
 22583      5F7400
 22584              	.LASF588:
 22585 0f7f 75736265 		.ascii	"usbep0state_t\000"
 22585      70307374 
 22585      6174655F 
 22585      7400
 22586              	.LASF393:
 22587 0f8d 64616365 		.ascii	"dacerror_t\000"
 22587      72726F72 
ARM GAS  C:\Users\mathi\AppData\Local\Temp\ccuMtzkg.s 			page 410


 22587      5F7400
 22588              	.LASF128:
 22589 0f98 7354784D 		.ascii	"sTxMailBox\000"
 22589      61696C42 
 22589      6F7800
 22590              	.LASF328:
 22591 0fa3 61646373 		.ascii	"adcsample_t\000"
 22591      616D706C 
 22591      655F7400 
 22592              	.LASF426:
 22593 0faf 67707463 		.ascii	"gptcallback_t\000"
 22593      616C6C62 
 22593      61636B5F 
 22593      7400
 22594              	.LASF262:
 22595 0fbd 715F6275 		.ascii	"q_buffer\000"
 22595      66666572 
 22595      00
 22596              	.LASF40:
 22597 0fc6 705F6E65 		.ascii	"p_next\000"
 22597      787400
 22598              	.LASF473:
 22599 0fcd 49324344 		.ascii	"I2CD1\000"
 22599      3100
 22600              	.LASF614:
 22601 0fd3 72657376 		.ascii	"resvd4\000"
 22601      643400
 22602              	.LASF738:
 22603 0fda 464F524D 		.ascii	"FORMAT_YYYY\000"
 22603      41545F59 
 22603      59595900 
 22604              	.LASF556:
 22605 0fe6 55534244 		.ascii	"USBDriver\000"
 22605      72697665 
 22605      7200
 22606              	.LASF673:
 22607 0ff0 72657376 		.ascii	"resvd8C0\000"
 22607      64384330 
 22607      00
 22608              	.LASF710:
 22609 0ff9 55534243 		.ascii	"USBConfig\000"
 22609      6F6E6669 
 22609      6700
 22610              	.LASF616:
 22611 1003 72657376 		.ascii	"resvdC\000"
 22611      644300
 22612              	.LASF503:
 22613 100a 50574D44 		.ascii	"PWMD2\000"
 22613      3200
 22614              	.LASF504:
 22615 1010 50574D44 		.ascii	"PWMD3\000"
 22615      3300
 22616              	.LASF505:
 22617 1016 50574D44 		.ascii	"PWMD4\000"
 22617      3400
 22618              	.LASF506:
 22619 101c 50574D44 		.ascii	"PWMD5\000"
ARM GAS  C:\Users\mathi\AppData\Local\Temp\ccuMtzkg.s 			page 411


 22619      3500
 22620              	.LASF514:
 22621 1022 6F717565 		.ascii	"oqueue\000"
 22621      756500
 22622              	.LASF30:
 22623 1029 74726566 		.ascii	"trefs_t\000"
 22623      735F7400 
 22624              	.LASF59:
 22625 1031 705F6D70 		.ascii	"p_mpool\000"
 22625      6F6F6C00 
 22626              	.LASF733:
 22627 1039 464F524D 		.ascii	"FORMAT_BGR565\000"
 22627      41545F42 
 22627      47523536 
 22627      3500
 22628              	.LASF401:
 22629 1047 44414343 		.ascii	"DACConversionGroup\000"
 22629      6F6E7665 
 22629      7273696F 
 22629      6E47726F 
 22629      757000
 22630              	.LASF739:
 22631 105a 666F726D 		.ascii	"format_t\000"
 22631      61745F74 
 22631      00
 22632              	.LASF703:
 22633 1063 696E5F6D 		.ascii	"in_multiplier\000"
 22633      756C7469 
 22633      706C6965 
 22633      7200
 22634              	.LASF326:
 22635 1071 4144435F 		.ascii	"ADC_ERROR\000"
 22635      4552524F 
 22635      5200
 22636              	.LASF771:
 22637 107b 706F3830 		.ascii	"po8030_set_brightness\000"
 22637      33305F73 
 22637      65745F62 
 22637      72696768 
 22637      746E6573 
 22638              	.LASF28:
 22639 1091 746D6F64 		.ascii	"tmode_t\000"
 22639      655F7400 
 22640              	.LASF324:
 22641 1099 4144435F 		.ascii	"ADC_ACTIVE\000"
 22641      41435449 
 22641      564500
 22642              	.LASF107:
 22643 10a4 53515231 		.ascii	"SQR1\000"
 22643      00
 22644              	.LASF108:
 22645 10a9 53515232 		.ascii	"SQR2\000"
 22645      00
 22646              	.LASF109:
 22647 10ae 53515233 		.ascii	"SQR3\000"
 22647      00
 22648              	.LASF297:
ARM GAS  C:\Users\mathi\AppData\Local\Temp\ccuMtzkg.s 			page 412


 22649 10b3 42535252 		.ascii	"BSRR\000"
 22649      00
 22650              	.LASF800:
 22651 10b8 2E2E2F2E 		.ascii	"../../lib/e-puck2_main-processor/src/camera/po8030."
 22651      2E2F6C69 
 22651      622F652D 
 22651      7075636B 
 22651      325F6D61 
 22652 10eb 6300     		.ascii	"c\000"
 22653              	.LASF276:
 22654 10ed 73746D33 		.ascii	"stm32_dma_stream_t\000"
 22654      325F646D 
 22654      615F7374 
 22654      7265616D 
 22654      5F7400
 22655              	.LASF708:
 22656 1100 72657175 		.ascii	"requests_hook_cb\000"
 22656      65737473 
 22656      5F686F6F 
 22656      6B5F6362 
 22656      00
 22657              	.LASF525:
 22658 1111 5344435F 		.ascii	"SDC_MODE_8BIT\000"
 22658      4D4F4445 
 22658      5F384249 
 22658      5400
 22659              	.LASF787:
 22660 111f 706F3830 		.ascii	"po8030_set_qvga\000"
 22660      33305F73 
 22660      65745F71 
 22660      76676100 
 22661              	.LASF686:
 22662 112f 74787369 		.ascii	"txsize\000"
 22662      7A6500
 22663              	.LASF397:
 22664 1136 4441435F 		.ascii	"DAC_DHRM_12BIT_LEFT\000"
 22664      4448524D 
 22664      5F313242 
 22664      49545F4C 
 22664      45465400 
 22665              	.LASF494:
 22666 114a 70657269 		.ascii	"period\000"
 22666      6F6400
 22667              	.LASF450:
 22668 1151 4932435F 		.ascii	"I2C_LOCKED\000"
 22668      4C4F434B 
 22668      454400
 22669              	.LASF89:
 22670 115c 6973725F 		.ascii	"isr_cnt\000"
 22670      636E7400 
 22671              	.LASF577:
 22672 1164 5553425F 		.ascii	"USB_READY\000"
 22672      52454144 
 22672      5900
 22673              	.LASF522:
 22674 116e 72656164 		.ascii	"readt\000"
 22674      7400
ARM GAS  C:\Users\mathi\AppData\Local\Temp\ccuMtzkg.s 			page 413


 22675              	.LASF629:
 22676 1174 47525354 		.ascii	"GRSTCTL\000"
 22676      43544C00 
 22677              	.LASF423:
 22678 117c 67707473 		.ascii	"gptstate_t\000"
 22678      74617465 
 22678      5F7400
 22679              	.LASF19:
 22680 1187 696E7438 		.ascii	"int8_t\000"
 22680      5F7400
 22681              	.LASF88:
 22682 118e 70616E69 		.ascii	"panic_msg\000"
 22682      635F6D73 
 22682      6700
 22683              	.LASF548:
 22684 1198 5350495F 		.ascii	"SPI_COMPLETE\000"
 22684      434F4D50 
 22684      4C455445 
 22684      00
 22685              	.LASF170:
 22686 11a5 4454494D 		.ascii	"DTIMER\000"
 22686      455200
 22687              	.LASF72:
 22688 11ac 725F6E65 		.ascii	"r_newer\000"
 22688      77657200 
 22689              	.LASF594:
 22690 11b4 5553425F 		.ascii	"USB_EVENT_STALLED\000"
 22690      4556454E 
 22690      545F5354 
 22690      414C4C45 
 22690      4400
 22691              	.LASF245:
 22692 11c6 63686465 		.ascii	"chdebug_t\000"
 22692      6275675F 
 22692      7400
 22693              	.LASF692:
 22694 11d0 72787369 		.ascii	"rxsize\000"
 22694      7A6500
 22695              	.LASF608:
 22696 11d7 48435453 		.ascii	"HCTSIZ\000"
 22696      495A00
 22697              	.LASF591:
 22698 11de 5553425F 		.ascii	"USB_EVENT_CONFIGURED\000"
 22698      4556454E 
 22698      545F434F 
 22698      4E464947 
 22698      55524544 
 22699              	.LASF540:
 22700 11f3 64697363 		.ascii	"disconnect\000"
 22700      6F6E6E65 
 22700      637400
 22701              	.LASF519:
 22702 11fe 70757474 		.ascii	"putt\000"
 22702      00
 22703              	.LASF31:
 22704 1203 74736C69 		.ascii	"tslices_t\000"
 22704      6365735F 
ARM GAS  C:\Users\mathi\AppData\Local\Temp\ccuMtzkg.s 			page 414


 22704      7400
 22705              	.LASF801:
 22706 120d 433A5C55 		.ascii	"C:\\Users\\mathi\\Documents\\robotique\\robotics_pr"
 22706      73657273 
 22706      5C6D6174 
 22706      68695C44 
 22706      6F63756D 
 22707 123b 6F6A6563 		.ascii	"oject\\robotics_project\\robotics_project\000"
 22707      745C726F 
 22707      626F7469 
 22707      63735F70 
 22707      726F6A65 
 22708              	.LASF573:
 22709 1263 77615F70 		.ascii	"wa_pump\000"
 22709      756D7000 
 22710              	.LASF175:
 22711 126b 4649464F 		.ascii	"FIFOCNT\000"
 22711      434E5400 
 22712              	.LASF257:
 22713 1273 6576656E 		.ascii	"event_source_t\000"
 22713      745F736F 
 22713      75726365 
 22713      5F7400
 22714              	.LASF643:
 22715 1282 72657376 		.ascii	"resvd140\000"
 22715      64313430 
 22715      00
 22716              	.LASF80:
 22717 128b 76745F64 		.ascii	"vt_delta\000"
 22717      656C7461 
 22717      00
 22718              	.LASF196:
 22719 1294 74625F70 		.ascii	"tb_ptr\000"
 22719      747200
 22720              	.LASF400:
 22721 129b 74726967 		.ascii	"trigger\000"
 22721      67657200 
 22722              	.LASF592:
 22723 12a3 5553425F 		.ascii	"USB_EVENT_SUSPEND\000"
 22723      4556454E 
 22723      545F5355 
 22723      5350454E 
 22723      4400
 22724              	.LASF21:
 22725 12b5 696E7431 		.ascii	"int16_t\000"
 22725      365F7400 
 22726              	.LASF419:
 22727 12bd 4750545F 		.ascii	"GPT_STOP\000"
 22727      53544F50 
 22727      00
 22728              	.LASF115:
 22729 12c6 4144435F 		.ascii	"ADC_TypeDef\000"
 22729      54797065 
 22729      44656600 
 22730              	.LASF12:
 22731 12d2 73686F72 		.ascii	"short unsigned int\000"
 22731      7420756E 
ARM GAS  C:\Users\mathi\AppData\Local\Temp\ccuMtzkg.s 			page 415


 22731      7369676E 
 22731      65642069 
 22731      6E7400
 22732              	.LASF462:
 22733 12e5 6F705F6D 		.ascii	"op_mode\000"
 22733      6F646500 
 22734              	.LASF6:
 22735 12ed 7369676E 		.ascii	"signed char\000"
 22735      65642063 
 22735      68617200 
 22736              	.LASF531:
 22737 12f9 63617264 		.ascii	"cardmode\000"
 22737      6D6F6465 
 22737      00
 22738              	.LASF51:
 22739 1302 705F7072 		.ascii	"p_preempt\000"
 22739      65656D70 
 22739      7400
 22740              	.LASF766:
 22741 130c 706F3830 		.ascii	"po8030_set_awb\000"
 22741      33305F73 
 22741      65745F61 
 22741      776200
 22742              	.LASF37:
 22743 131b 75636E74 		.ascii	"ucnt_t\000"
 22743      5F7400
 22744              	.LASF118:
 22745 1322 54444852 		.ascii	"TDHR\000"
 22745      00
 22746              	.LASF322:
 22747 1327 4144435F 		.ascii	"ADC_STOP\000"
 22747      53544F50 
 22747      00
 22748              	.LASF585:
 22749 1330 5553425F 		.ascii	"USB_EP0_RX\000"
 22749      4550305F 
 22749      525800
 22750              	.LASF497:
 22751 133b 70776D6D 		.ascii	"pwmmode_t\000"
 22751      6F64655F 
 22751      7400
 22752              	.LASF566:
 22753 1345 73746174 		.ascii	"status\000"
 22753      757300
 22754              	.LASF171:
 22755 134c 444C454E 		.ascii	"DLEN\000"
 22755      00
 22756              	.LASF524:
 22757 1351 5344435F 		.ascii	"SDC_MODE_4BIT\000"
 22757      4D4F4445 
 22757      5F344249 
 22757      5400
 22758              	.LASF598:
 22759 135f 55534244 		.ascii	"USBDescriptor\000"
 22759      65736372 
 22759      6970746F 
 22759      7200
ARM GAS  C:\Users\mathi\AppData\Local\Temp\ccuMtzkg.s 			page 416


 22760              	.LASF551:
 22761 136d 73706963 		.ascii	"spicallback_t\000"
 22761      616C6C62 
 22761      61636B5F 
 22761      7400
 22762              	.LASF567:
 22763 137b 61646472 		.ascii	"address\000"
 22763      65737300 
 22764              	.LASF54:
 22765 1383 705F6D73 		.ascii	"p_msgqueue\000"
 22765      67717565 
 22765      756500
 22766              	.LASF242:
 22767 138e 63665F6F 		.ascii	"cf_off_refs\000"
 22767      66665F72 
 22767      65667300 
 22768              	.LASF535:
 22769 139a 53444343 		.ascii	"SDCConfig\000"
 22769      6F6E6669 
 22769      6700
 22770              	.LASF223:
 22771 13a4 6D5F6F77 		.ascii	"m_owner\000"
 22771      6E657200 
 22772              	.LASF100:
 22773 13ac 53797374 		.ascii	"SystemCoreClock\000"
 22773      656D436F 
 22773      7265436C 
 22773      6F636B00 
 22774              	.LASF344:
 22775 13bc 61646365 		.ascii	"adcerrorcallback_t\000"
 22775      72726F72 
 22775      63616C6C 
 22775      6261636B 
 22775      5F7400
 22776              	.LASF379:
 22777 13cf 4441435F 		.ascii	"DAC_ACTIVE\000"
 22777      41435449 
 22777      564500
 22778              	.LASF334:
 22779 13da 73746174 		.ascii	"state\000"
 22779      6500
 22780              	.LASF735:
 22781 13e0 464F524D 		.ascii	"FORMAT_RGB444\000"
 22781      41545F52 
 22781      47423434 
 22781      3400
 22782              	.LASF230:
 22783 13ee 63685F76 		.ascii	"ch_version\000"
 22783      65727369 
 22783      6F6E00
 22784              	.LASF532:
 22785 13f9 7364696F 		.ascii	"sdio\000"
 22785      00
 22786              	.LASF141:
 22787 13fe 53575452 		.ascii	"SWTRIGR\000"
 22787      49475200 
 22788              	.LASF584:
ARM GAS  C:\Users\mathi\AppData\Local\Temp\ccuMtzkg.s 			page 417


 22789 1406 5553425F 		.ascii	"USB_EP0_WAITING_STS\000"
 22789      4550305F 
 22789      57414954 
 22789      494E475F 
 22789      53545300 
 22790              	.LASF162:
 22791 141a 4932435F 		.ascii	"I2C_TypeDef\000"
 22791      54797065 
 22791      44656600 
 22792              	.LASF122:
 22793 1426 52444852 		.ascii	"RDHR\000"
 22793      00
 22794              	.LASF728:
 22795 142b 464F524D 		.ascii	"FORMAT_GBRG\000"
 22795      41545F47 
 22795      42524700 
 22796              	.LASF433:
 22797 1437 444D4152 		.ascii	"DMAR\000"
 22797      00
 22798              	.LASF439:
 22799 143c 63616C6C 		.ascii	"callback\000"
 22799      6261636B 
 22799      00
 22800              	.LASF785:
 22801 1445 706F3830 		.ascii	"po8030_set_size\000"
 22801      33305F73 
 22801      65745F73 
 22801      697A6500 
 22802              	.LASF93:
 22803 1455 63685F73 		.ascii	"ch_system\000"
 22803      79737465 
 22803      6D00
 22804              	.LASF163:
 22805 145f 504F5745 		.ascii	"POWER\000"
 22805      5200
 22806              	.LASF91:
 22807 1465 74726163 		.ascii	"trace_buffer\000"
 22807      655F6275 
 22807      66666572 
 22807      00
 22808              	.LASF398:
 22809 1472 4441435F 		.ascii	"DAC_DHRM_8BIT_RIGHT\000"
 22809      4448524D 
 22809      5F384249 
 22809      545F5249 
 22809      47485400 
 22810              	.LASF418:
 22811 1486 4750545F 		.ascii	"GPT_UNINIT\000"
 22811      554E494E 
 22811      495400
 22812              	.LASF218:
 22813 1491 63685F73 		.ascii	"ch_semaphore\000"
 22813      656D6170 
 22813      686F7265 
 22813      00
 22814              	.LASF792:
 22815 149e 706F3830 		.ascii	"po8030_read_id\000"
ARM GAS  C:\Users\mathi\AppData\Local\Temp\ccuMtzkg.s 			page 418


 22815      33305F72 
 22815      6561645F 
 22815      696400
 22816              	.LASF722:
 22817 14ad 53657269 		.ascii	"SerialUSBDriverVMT\000"
 22817      616C5553 
 22817      42447269 
 22817      76657256 
 22817      4D5400
 22818              	.LASF617:
 22819 14c0 44494550 		.ascii	"DIEPTSIZ\000"
 22819      5453495A 
 22819      00
 22820              	.LASF349:
 22821 14c9 736D7072 		.ascii	"smpr1\000"
 22821      3100
 22822              	.LASF350:
 22823 14cf 736D7072 		.ascii	"smpr2\000"
 22823      3200
 22824              	.LASF65:
 22825 14d5 74687265 		.ascii	"threads_queue_t\000"
 22825      6164735F 
 22825      71756575 
 22825      655F7400 
 22826              	.LASF287:
 22827 14e5 626C6B73 		.ascii	"blkstate_t\000"
 22827      74617465 
 22827      5F7400
 22828              	.LASF52:
 22829 14f0 705F7469 		.ascii	"p_time\000"
 22829      6D6500
 22830              	.LASF50:
 22831 14f7 705F7265 		.ascii	"p_refs\000"
 22831      667300
 22832              	.LASF695:
 22833 14fe 65705F6D 		.ascii	"ep_mode\000"
 22833      6F646500 
 22834              	.LASF498:
 22835 1506 70776D63 		.ascii	"pwmchannel_t\000"
 22835      68616E6E 
 22835      656C5F74 
 22835      00
 22836              	.LASF117:
 22837 1513 54444C52 		.ascii	"TDLR\000"
 22837      00
 22838              	.LASF14:
 22839 1518 6C6F6E67 		.ascii	"long int\000"
 22839      20696E74 
 22839      00
 22840              	.LASF96:
 22841 1521 6D61696E 		.ascii	"mainthread\000"
 22841      74687265 
 22841      616400
 22842              	.LASF563:
 22843 152c 6570306E 		.ascii	"ep0n\000"
 22843      00
 22844              	.LASF676:
ARM GAS  C:\Users\mathi\AppData\Local\Temp\ccuMtzkg.s 			page 419


 22845 1531 72657376 		.ascii	"resvdE04\000"
 22845      64453034 
 22845      00
 22846              	.LASF222:
 22847 153a 6D5F7175 		.ascii	"m_queue\000"
 22847      65756500 
 22848              	.LASF386:
 22849 1542 646D6169 		.ascii	"dmairqprio\000"
 22849      72717072 
 22849      696F00
 22850              	.LASF424:
 22851 154d 47505444 		.ascii	"GPTDriver\000"
 22851      72697665 
 22851      7200
 22852              	.LASF528:
 22853 1557 73646366 		.ascii	"sdcflags_t\000"
 22853      6C616773 
 22853      5F7400
 22854              	.LASF316:
 22855 1562 50484461 		.ascii	"PHData\000"
 22855      746100
 22856              	.LASF319:
 22857 1569 696F706F 		.ascii	"ioportid_t\000"
 22857      72746964 
 22857      5F7400
 22858              	.LASF779:
 22859 1574 7363616C 		.ascii	"scale_th\000"
 22859      655F7468 
 22859      00
 22860              	.LASF357:
 22861 157d 41444344 		.ascii	"ADCD1\000"
 22861      3100
 22862              	.LASF358:
 22863 1583 41444344 		.ascii	"ADCD2\000"
 22863      3200
 22864              	.LASF359:
 22865 1589 41444344 		.ascii	"ADCD3\000"
 22865      3300
 22866              	.LASF644:
 22867 158f 48434647 		.ascii	"HCFG\000"
 22867      00
 22868              	.LASF342:
 22869 1594 646D616D 		.ascii	"dmamode\000"
 22869      6F646500 
 22870              	.LASF204:
 22871 159c 63756D75 		.ascii	"cumulative\000"
 22871      6C617469 
 22871      766500
 22872              	.LASF555:
 22873 15a7 53504944 		.ascii	"SPID1\000"
 22873      3100
 22874              	.LASF520:
 22875 15ad 67657474 		.ascii	"gett\000"
 22875      00
 22876              	.LASF214:
 22877 15b2 77747472 		.ascii	"wttrp\000"
 22877      7000
ARM GAS  C:\Users\mathi\AppData\Local\Temp\ccuMtzkg.s 			page 420


 22878              	.LASF265:
 22879 15b8 715F7264 		.ascii	"q_rdptr\000"
 22879      70747200 
 22880              	.LASF188:
 22881 15c0 636F6E74 		.ascii	"context\000"
 22881      65787400 
 22882              	.LASF517:
 22883 15c8 77726974 		.ascii	"write\000"
 22883      6500
 22884              	.LASF513:
 22885 15ce 69717565 		.ascii	"iqueue\000"
 22885      756500
 22886              	.LASF697:
 22887 15d5 696E5F63 		.ascii	"in_cb\000"
 22887      6200
 22888              	.LASF622:
 22889 15db 444F4550 		.ascii	"DOEPINT\000"
 22889      494E5400 
 22890              	.LASF203:
 22891 15e3 6C617374 		.ascii	"last\000"
 22891      00
 22892              	.LASF726:
 22893 15e8 464F524D 		.ascii	"FORMAT_YCRYCB\000"
 22893      41545F59 
 22893      43525943 
 22893      4200
 22894              	.LASF298:
 22895 15f6 4C434B52 		.ascii	"LCKR\000"
 22895      00
 22896              	.LASF510:
 22897 15fb 73647374 		.ascii	"sdstate_t\000"
 22897      6174655F 
 22897      7400
 22898              	.LASF24:
 22899 1605 75696E74 		.ascii	"uint32_t\000"
 22899      33325F74 
 22899      00
 22900              	.LASF383:
 22901 160e 64617461 		.ascii	"dataoffset\000"
 22901      6F666673 
 22901      657400
 22902              	.LASF285:
 22903 1619 424C4B5F 		.ascii	"BLK_WRITING\000"
 22903      57524954 
 22903      494E4700 
 22904              	.LASF121:
 22905 1625 52444C52 		.ascii	"RDLR\000"
 22905      00
 22906              	.LASF3:
 22907 162a 6C6F6E67 		.ascii	"long double\000"
 22907      20646F75 
 22907      626C6500 
 22908              	.LASF186:
 22909 1636 72656761 		.ascii	"regarm_t\000"
 22909      726D5F74 
 22909      00
 22910              	.LASF780:
ARM GAS  C:\Users\mathi\AppData\Local\Temp\ccuMtzkg.s 			page 421


 22911 163f 7363616C 		.ascii	"scale_th_f\000"
 22911      655F7468 
 22911      5F6600
 22912              	.LASF34:
 22913 164a 6576656E 		.ascii	"eventmask_t\000"
 22913      746D6173 
 22913      6B5F7400 
 22914              	.LASF337:
 22915 1656 64657074 		.ascii	"depth\000"
 22915      6800
 22916              	.LASF135:
 22917 165c 46464131 		.ascii	"FFA1R\000"
 22917      5200
 22918              	.LASF578:
 22919 1662 5553425F 		.ascii	"USB_SELECTED\000"
 22919      53454C45 
 22919      43544544 
 22919      00
 22920              	.LASF16:
 22921 166f 6C6F6E67 		.ascii	"long unsigned int\000"
 22921      20756E73 
 22921      69676E65 
 22921      6420696E 
 22921      7400
 22922              	.LASF477:
 22923 1681 4932535F 		.ascii	"I2S_ACTIVE\000"
 22923      41435449 
 22923      564500
 22924              	.LASF420:
 22925 168c 4750545F 		.ascii	"GPT_READY\000"
 22925      52454144 
 22925      5900
 22926              	.LASF382:
 22927 1696 64616373 		.ascii	"dacstate_t\000"
 22927      74617465 
 22927      5F7400
 22928              	.LASF191:
 22929 16a1 73655F74 		.ascii	"se_tp\000"
 22929      7000
 22930              	.LASF264:
 22931 16a7 715F7772 		.ascii	"q_wrptr\000"
 22931      70747200 
 22932              	.LASF390:
 22933 16af 64616373 		.ascii	"dacsample_t\000"
 22933      616D706C 
 22933      655F7400 
 22934              	.LASF590:
 22935 16bb 5553425F 		.ascii	"USB_EVENT_ADDRESS\000"
 22935      4556454E 
 22935      545F4144 
 22935      44524553 
 22935      5300
 22936              	.LASF485:
 22937 16cd 69327363 		.ascii	"i2scfgr\000"
 22937      66677200 
 22938              	.LASF713:
 22939 16d5 5344555F 		.ascii	"SDU_STOP\000"
ARM GAS  C:\Users\mathi\AppData\Local\Temp\ccuMtzkg.s 			page 422


 22939      53544F50 
 22939      00
 22940              	.LASF165:
 22941 16de 52455350 		.ascii	"RESPCMD\000"
 22941      434D4400 
 22942              	.LASF369:
 22943 16e6 72786675 		.ascii	"rxfull_event\000"
 22943      6C6C5F65 
 22943      76656E74 
 22943      00
 22944              	.LASF595:
 22945 16f3 75736265 		.ascii	"usbevent_t\000"
 22945      76656E74 
 22945      5F7400
 22946              	.LASF226:
 22947 16fe 63686172 		.ascii	"char\000"
 22947      00
 22948              	.LASF366:
 22949 1703 43414E43 		.ascii	"CANConfig\000"
 22949      6F6E6669 
 22949      6700
 22950              	.LASF313:
 22951 170d 50454461 		.ascii	"PEData\000"
 22951      746100
 22952              	.LASF69:
 22953 1714 725F7175 		.ascii	"r_queue\000"
 22953      65756500 
 22954              	.LASF782:
 22955 171c 696D6773 		.ascii	"imgsize\000"
 22955      697A6500 
 22956              	.LASF495:
 22957 1724 656E6162 		.ascii	"enabled\000"
 22957      6C656400 
 22958              	.LASF391:
 22959 172c 4441435F 		.ascii	"DAC_ERR_DMAFAILURE\000"
 22959      4552525F 
 22959      444D4146 
 22959      41494C55 
 22959      524500
 22960              	.LASF634:
 22961 173f 47525846 		.ascii	"GRXFSIZ\000"
 22961      53495A00 
 22962              	.LASF541:
 22963 1747 73796E63 		.ascii	"sync\000"
 22963      00
 22964              	.LASF515:
 22965 174c 75736172 		.ascii	"usart\000"
 22965      7400
 22966              	.LASF742:
 22967 1752 53495A45 		.ascii	"SIZE_QQVGA\000"
 22967      5F515156 
 22967      474100
 22968              	.LASF527:
 22969 175d 7364636D 		.ascii	"sdcmode_t\000"
 22969      6F64655F 
 22969      7400
 22970              	.LASF267:
ARM GAS  C:\Users\mathi\AppData\Local\Temp\ccuMtzkg.s 			page 423


 22971 1767 715F6C69 		.ascii	"q_link\000"
 22971      6E6B00
 22972              	.LASF655:
 22973 176e 44434647 		.ascii	"DCFG\000"
 22973      00
 22974              	.LASF665:
 22975 1773 44564255 		.ascii	"DVBUSDIS\000"
 22975      53444953 
 22975      00
 22976              	.LASF731:
 22977 177c 464F524D 		.ascii	"FORMAT_RGB565\000"
 22977      41545F52 
 22977      47423536 
 22977      3500
 22978              	.LASF631:
 22979 178a 47494E54 		.ascii	"GINTMSK\000"
 22979      4D534B00 
 22980              	.LASF636:
 22981 1792 484E5054 		.ascii	"HNPTXSTS\000"
 22981      58535453 
 22981      00
 22982              	.LASF568:
 22983 179b 636F6E66 		.ascii	"configuration\000"
 22983      69677572 
 22983      6174696F 
 22983      6E00
 22984              	.LASF729:
 22985 17a9 464F524D 		.ascii	"FORMAT_GRBG\000"
 22985      41545F47 
 22985      52424700 
 22986              	.LASF775:
 22987 17b5 6175746F 		.ascii	"auto_cw_x1\000"
 22987      5F63775F 
 22987      783100
 22988              	.LASF308:
 22989 17c0 73746D33 		.ascii	"stm32_gpio_setup_t\000"
 22989      325F6770 
 22989      696F5F73 
 22989      65747570 
 22989      5F7400
 22990              	.LASF277:
 22991 17d3 5F73746D 		.ascii	"_stm32_dma_streams\000"
 22991      33325F64 
 22991      6D615F73 
 22991      74726561 
 22991      6D7300
 22992              	.LASF143:
 22993 17e6 44485231 		.ascii	"DHR12L1\000"
 22993      324C3100 
 22994              	.LASF146:
 22995 17ee 44485231 		.ascii	"DHR12L2\000"
 22995      324C3200 
 22996              	.LASF526:
 22997 17f6 73646362 		.ascii	"sdcbusmode_t\000"
 22997      75736D6F 
 22997      64655F74 
 22997      00
ARM GAS  C:\Users\mathi\AppData\Local\Temp\ccuMtzkg.s 			page 424


 22998              	.LASF751:
 22999 1803 63757272 		.ascii	"curr_format\000"
 22999      5F666F72 
 22999      6D617400 
 23000              	.LASF149:
 23001 180f 44485231 		.ascii	"DHR12LD\000"
 23001      324C4400 
 23002              	.LASF343:
 23003 1817 61646363 		.ascii	"adccallback_t\000"
 23003      616C6C62 
 23003      61636B5F 
 23003      7400
 23004              	.LASF47:
 23005 1825 705F7374 		.ascii	"p_stklimit\000"
 23005      6B6C696D 
 23005      697400
 23006              	.LASF36:
 23007 1830 636E745F 		.ascii	"cnt_t\000"
 23007      7400
 23008              	.LASF778:
 23009 1836 6175746F 		.ascii	"auto_cw_y2\000"
 23009      5F63775F 
 23009      793200
 23010              	.LASF409:
 23011 1841 65787473 		.ascii	"extstate_t\000"
 23011      74617465 
 23011      5F7400
 23012              	.LASF791:
 23013 184c 62616E6B 		.ascii	"bank\000"
 23013      00
 23014              	.LASF583:
 23015 1851 5553425F 		.ascii	"USB_EP0_WAITING_TX0\000"
 23015      4550305F 
 23015      57414954 
 23015      494E475F 
 23015      54583000 
 23016              	.LASF562:
 23017 1865 6570306E 		.ascii	"ep0next\000"
 23017      65787400 
 23018              	.LASF612:
 23019 186d 73746D33 		.ascii	"stm32_otg_host_chn_t\000"
 23019      325F6F74 
 23019      675F686F 
 23019      73745F63 
 23019      686E5F74 
 23020              	.LASF784:
 23021 1882 706F3830 		.ascii	"po8030_set_scale_buffer_size\000"
 23021      33305F73 
 23021      65745F73 
 23021      63616C65 
 23021      5F627566 
 23022              	.LASF300:
 23023 189f 41465248 		.ascii	"AFRH\000"
 23023      00
 23024              	.LASF299:
 23025 18a4 4146524C 		.ascii	"AFRL\000"
 23025      00
ARM GAS  C:\Users\mathi\AppData\Local\Temp\ccuMtzkg.s 			page 425


 23026              	.LASF734:
 23027 18a9 464F524D 		.ascii	"FORMAT_BGR565_BYTE_SWAP\000"
 23027      41545F42 
 23027      47523536 
 23027      355F4259 
 23027      54455F53 
 23028              	.LASF243:
 23029 18c1 63665F6F 		.ascii	"cf_off_preempt\000"
 23029      66665F70 
 23029      7265656D 
 23029      707400
 23030              	.LASF380:
 23031 18d0 4441435F 		.ascii	"DAC_COMPLETE\000"
 23031      434F4D50 
 23031      4C455445 
 23031      00
 23032              	.LASF621:
 23033 18dd 444F4550 		.ascii	"DOEPCTL\000"
 23033      43544C00 
 23034              	.LASF607:
 23035 18e5 4843494E 		.ascii	"HCINTMSK\000"
 23035      544D534B 
 23035      00
 23036              	.LASF335:
 23037 18ee 636F6E66 		.ascii	"config\000"
 23037      696700
 23038              	.LASF443:
 23039 18f5 47505444 		.ascii	"GPTD11\000"
 23039      313100
 23040              	.LASF444:
 23041 18fc 47505444 		.ascii	"GPTD12\000"
 23041      313200
 23042              	.LASF794:
 23043 1903 77726974 		.ascii	"write_reg\000"
 23043      655F7265 
 23043      6700
 23044              	.LASF281:
 23045 190d 424C4B5F 		.ascii	"BLK_CONNECTING\000"
 23045      434F4E4E 
 23045      45435449 
 23045      4E4700
 23046              	.LASF376:
 23047 191c 4441435F 		.ascii	"DAC_UNINIT\000"
 23047      554E494E 
 23047      495400
 23048              	.LASF329:
 23049 1927 6164635F 		.ascii	"adc_channels_num_t\000"
 23049      6368616E 
 23049      6E656C73 
 23049      5F6E756D 
 23049      5F7400
 23050              	.LASF75:
 23051 193a 76746675 		.ascii	"vtfunc_t\000"
 23051      6E635F74 
 23051      00
 23052              	.LASF123:
 23053 1943 43414E5F 		.ascii	"CAN_FIFOMailBox_TypeDef\000"
ARM GAS  C:\Users\mathi\AppData\Local\Temp\ccuMtzkg.s 			page 426


 23053      4649464F 
 23053      4D61696C 
 23053      426F785F 
 23053      54797065 
 23054              	.LASF153:
 23055 195b 4441435F 		.ascii	"DAC_TypeDef\000"
 23055      54797065 
 23055      44656600 
 23056              	.LASF213:
 23057 1967 77746F62 		.ascii	"wtobjp\000"
 23057      6A7000
 23058              	.LASF396:
 23059 196e 4441435F 		.ascii	"DAC_DHRM_12BIT_RIGHT\000"
 23059      4448524D 
 23059      5F313242 
 23059      49545F52 
 23059      49474854 
 23060              	.LASF58:
 23061 1983 705F7265 		.ascii	"p_realprio\000"
 23061      616C7072 
 23061      696F00
 23062              	.LASF530:
 23063 198e 63617061 		.ascii	"capacity\000"
 23063      63697479 
 23063      00
 23064              	.LASF721:
 23065 1997 53657269 		.ascii	"SerialUSBConfig\000"
 23065      616C5553 
 23065      42436F6E 
 23065      66696700 
 23066              	.LASF266:
 23067 19a7 715F6E6F 		.ascii	"q_notify\000"
 23067      74696679 
 23067      00
 23068              	.LASF216:
 23069 19b0 77746D74 		.ascii	"wtmtxp\000"
 23069      787000
 23070              	.LASF694:
 23071 19b7 5553424F 		.ascii	"USBOutEndpointState\000"
 23071      7574456E 
 23071      64706F69 
 23071      6E745374 
 23071      61746500 
 23072              	.LASF651:
 23073 19cb 72657376 		.ascii	"resvd41C\000"
 23073      64343143 
 23073      00
 23074              	.LASF120:
 23075 19d4 52445452 		.ascii	"RDTR\000"
 23075      00
 23076              	.LASF289:
 23077 19d9 626C6B5F 		.ascii	"blk_num\000"
 23077      6E756D00 
 23078              	.LASF758:
 23079 19e1 706F3830 		.ascii	"po8030_set_exposure\000"
 23079      33305F73 
 23079      65745F65 
ARM GAS  C:\Users\mathi\AppData\Local\Temp\ccuMtzkg.s 			page 427


 23079      78706F73 
 23079      75726500 
 23080              	.LASF802:
 23081 19f5 706F3830 		.ascii	"po8030_start\000"
 23081      33305F73 
 23081      74617274 
 23081      00
 23082              	.LASF589:
 23083 1a02 5553425F 		.ascii	"USB_EVENT_RESET\000"
 23083      4556454E 
 23083      545F5245 
 23083      53455400 
 23084              	.LASF727:
 23085 1a12 464F524D 		.ascii	"FORMAT_RGGB\000"
 23085      41545F52 
 23085      47474200 
 23086              	.LASF68:
 23087 1a1e 63685F72 		.ascii	"ch_ready_list\000"
 23087      65616479 
 23087      5F6C6973 
 23087      7400
 23088              	.LASF296:
 23089 1a2c 50555044 		.ascii	"PUPDR\000"
 23089      5200
 23090              	.LASF13:
 23091 1a32 5F5F696E 		.ascii	"__int32_t\000"
 23091      7433325F 
 23091      7400
 23092              	.LASF15:
 23093 1a3c 5F5F7569 		.ascii	"__uint32_t\000"
 23093      6E743332 
 23093      5F7400
 23094              	.LASF87:
 23095 1a47 63685F73 		.ascii	"ch_system_debug\000"
 23095      79737465 
 23095      6D5F6465 
 23095      62756700 
 23096              	.LASF662:
 23097 1a57 4441494E 		.ascii	"DAINTMSK\000"
 23097      544D534B 
 23097      00
 23098              	.LASF765:
 23099 1a60 706F3830 		.ascii	"po8030_set_ae\000"
 23099      33305F73 
 23099      65745F61 
 23099      6500
 23100              	.LASF416:
 23101 1a6e 45585443 		.ascii	"EXTConfig\000"
 23101      6F6E6669 
 23101      6700
 23102              	.LASF261:
 23103 1a78 715F636F 		.ascii	"q_counter\000"
 23103      756E7465 
 23103      7200
 23104              	.LASF581:
 23105 1a82 5553425F 		.ascii	"USB_EP0_WAITING_SETUP\000"
 23105      4550305F 
ARM GAS  C:\Users\mathi\AppData\Local\Temp\ccuMtzkg.s 			page 428


 23105      57414954 
 23105      494E475F 
 23105      53455455 
 23106              	.LASF284:
 23107 1a98 424C4B5F 		.ascii	"BLK_READING\000"
 23107      52454144 
 23107      494E4700 
 23108              	.LASF306:
 23109 1aa4 6166726C 		.ascii	"afrl\000"
 23109      00
 23110              	.LASF684:
 23111 1aa9 71756575 		.ascii	"queue\000"
 23111      6500
 23112              	.LASF564:
 23113 1aaf 65703065 		.ascii	"ep0endcb\000"
 23113      6E646362 
 23113      00
 23114              	.LASF274:
 23115 1ab8 73656C66 		.ascii	"selfindex\000"
 23115      696E6465 
 23115      7800
 23116              	.LASF247:
 23117 1ac2 6D757465 		.ascii	"mutex_t\000"
 23117      785F7400 
 23118              	.LASF56:
 23119 1aca 705F6570 		.ascii	"p_epending\000"
 23119      656E6469 
 23119      6E6700
 23120              	.LASF293:
 23121 1ad5 4D4F4445 		.ascii	"MODER\000"
 23121      5200
 23122              	.LASF737:
 23123 1adb 464F524D 		.ascii	"FORMAT_DPC_BAYER\000"
 23123      41545F44 
 23123      50435F42 
 23123      41594552 
 23123      00
 23124              	.LASF749:
 23125 1aec 77696474 		.ascii	"width\000"
 23125      6800
 23126              	.LASF478:
 23127 1af2 4932535F 		.ascii	"I2S_COMPLETE\000"
 23127      434F4D50 
 23127      4C455445 
 23127      00
 23128              	.LASF732:
 23129 1aff 464F524D 		.ascii	"FORMAT_RGB565_BYTE_SWAP\000"
 23129      41545F52 
 23129      47423536 
 23129      355F4259 
 23129      54455F53 
 23130              	.LASF127:
 23131 1b17 52455345 		.ascii	"RESERVED0\000"
 23131      52564544 
 23131      3000
 23132              	.LASF130:
 23133 1b21 52455345 		.ascii	"RESERVED1\000"
ARM GAS  C:\Users\mathi\AppData\Local\Temp\ccuMtzkg.s 			page 429


 23133      52564544 
 23133      3100
 23134              	.LASF132:
 23135 1b2b 52455345 		.ascii	"RESERVED2\000"
 23135      52564544 
 23135      3200
 23136              	.LASF134:
 23137 1b35 52455345 		.ascii	"RESERVED3\000"
 23137      52564544 
 23137      3300
 23138              	.LASF136:
 23139 1b3f 52455345 		.ascii	"RESERVED4\000"
 23139      52564544 
 23139      3400
 23140              	.LASF138:
 23141 1b49 52455345 		.ascii	"RESERVED5\000"
 23141      52564544 
 23141      3500
 23142              	.LASF705:
 23143 1b53 55534245 		.ascii	"USBEndpointConfig\000"
 23143      6E64706F 
 23143      696E7443 
 23143      6F6E6669 
 23143      6700
 23144              	.LASF142:
 23145 1b65 44485231 		.ascii	"DHR12R1\000"
 23145      32523100 
 23146              	.LASF145:
 23147 1b6d 44485231 		.ascii	"DHR12R2\000"
 23147      32523200 
 23148              	.LASF412:
 23149 1b75 65787463 		.ascii	"extcallback_t\000"
 23149      616C6C62 
 23149      61636B5F 
 23149      7400
 23150              	.LASF368:
 23151 1b83 72787175 		.ascii	"rxqueue\000"
 23151      65756500 
 23152              	.LASF190:
 23153 1b8b 73655F74 		.ascii	"se_time\000"
 23153      696D6500 
 23154              	.LASF653:
 23155 1b93 72657376 		.ascii	"resvd444\000"
 23155      64343434 
 23155      00
 23156              	.LASF320:
 23157 1b9c 70616C5F 		.ascii	"pal_default_config\000"
 23157      64656661 
 23157      756C745F 
 23157      636F6E66 
 23157      696700
 23158              	.LASF338:
 23159 1baf 67727070 		.ascii	"grpp\000"
 23159      00
 23160              	.LASF148:
 23161 1bb4 44485231 		.ascii	"DHR12RD\000"
 23161      32524400 
ARM GAS  C:\Users\mathi\AppData\Local\Temp\ccuMtzkg.s 			page 430


 23162              	.LASF251:
 23163 1bbc 656C5F6C 		.ascii	"el_listener\000"
 23163      69737465 
 23163      6E657200 
 23164              	.LASF683:
 23165 1bc8 6C696E65 		.ascii	"linear\000"
 23165      617200
 23166              	.LASF796:
 23167 1bcf 6932635F 		.ascii	"i2c_start\000"
 23167      73746172 
 23167      7400
 23168              	.LASF436:
 23169 1bd9 73746D33 		.ascii	"stm32_tim_t\000"
 23169      325F7469 
 23169      6D5F7400 
 23170              	.LASF769:
 23171 1be5 686F7269 		.ascii	"horizontal\000"
 23171      7A6F6E74 
 23171      616C00
 23172              	.LASF786:
 23173 1bf0 706F3830 		.ascii	"po8030_set_qqvga\000"
 23173      33305F73 
 23173      65745F71 
 23173      71766761 
 23173      00
 23174              	.LASF724:
 23175 1c01 464F524D 		.ascii	"FORMAT_CRYCBY\000"
 23175      41545F43 
 23175      52594342 
 23175      5900
 23176              	.LASF70:
 23177 1c0f 725F7072 		.ascii	"r_prio\000"
 23177      696F00
 23178              	.LASF570:
 23179 1c16 706D6E65 		.ascii	"pmnext\000"
 23179      787400
 23180              	.LASF99:
 23181 1c1d 49544D5F 		.ascii	"ITM_RxBuffer\000"
 23181      52784275 
 23181      66666572 
 23181      00
 23182              	.LASF290:
 23183 1c2a 426C6F63 		.ascii	"BlockDeviceInfo\000"
 23183      6B446576 
 23183      69636549 
 23183      6E666F00 
 23184              	.LASF18:
 23185 1c3a 6C6F6E67 		.ascii	"long long unsigned int\000"
 23185      206C6F6E 
 23185      6720756E 
 23185      7369676E 
 23185      65642069 
 23186              	.LASF177:
 23187 1c51 5344494F 		.ascii	"SDIO_TypeDef\000"
 23187      5F547970 
 23187      65446566 
 23187      00
ARM GAS  C:\Users\mathi\AppData\Local\Temp\ccuMtzkg.s 			page 431


 23188              	.LASF199:
 23189 1c5e 6F666673 		.ascii	"offset\000"
 23189      657400
 23190              	.LASF725:
 23191 1c65 464F524D 		.ascii	"FORMAT_YCBYCR\000"
 23191      41545F59 
 23191      43425943 
 23191      5200
 23192              	.LASF154:
 23193 1c73 4E445452 		.ascii	"NDTR\000"
 23193      00
 23194              	.LASF256:
 23195 1c78 65735F6E 		.ascii	"es_next\000"
 23195      65787400 
 23196              	.LASF767:
 23197 1c80 706F3830 		.ascii	"po8030_set_mirror\000"
 23197      33305F73 
 23197      65745F6D 
 23197      6972726F 
 23197      7200
 23198              	.LASF619:
 23199 1c92 72657376 		.ascii	"resvd1C\000"
 23199      64314300 
 23200              	.LASF98:
 23201 1c9a 69646C65 		.ascii	"idle_thread_wa\000"
 23201      5F746872 
 23201      6561645F 
 23201      776100
 23202              	.LASF615:
 23203 1ca9 44494550 		.ascii	"DIEPINT\000"
 23203      494E5400 
 23204              	.LASF183:
 23205 1cb1 5350495F 		.ascii	"SPI_TypeDef\000"
 23205      54797065 
 23205      44656600 
 23206              	.LASF81:
 23207 1cbd 76745F66 		.ascii	"vt_func\000"
 23207      756E6300 
 23208              	.LASF427:
 23209 1cc5 534D4352 		.ascii	"SMCR\000"
 23209      00
 23210              	.LASF660:
 23211 1cca 444F4550 		.ascii	"DOEPMSK\000"
 23211      4D534B00 
 23212              	.LASF745:
 23213 1cd2 53554253 		.ascii	"SUBSAMPLING_X2\000"
 23213      414D504C 
 23213      494E475F 
 23213      583200
 23214              	.LASF746:
 23215 1ce1 53554253 		.ascii	"SUBSAMPLING_X4\000"
 23215      414D504C 
 23215      494E475F 
 23215      583400
 23216              	.LASF77:
 23217 1cf0 63685F76 		.ascii	"ch_virtual_timer\000"
 23217      69727475 
ARM GAS  C:\Users\mathi\AppData\Local\Temp\ccuMtzkg.s 			page 432


 23217      616C5F74 
 23217      696D6572 
 23217      00
 23218              	.LASF49:
 23219 1d01 705F666C 		.ascii	"p_flags\000"
 23219      61677300 
 23220              	.LASF217:
 23221 1d09 65776D61 		.ascii	"ewmask\000"
 23221      736B00
 23222              	.LASF253:
 23223 1d10 656C5F66 		.ascii	"el_flags\000"
 23223      6C616773 
 23223      00
 23224              	.LASF255:
 23225 1d19 6576656E 		.ascii	"event_source\000"
 23225      745F736F 
 23225      75726365 
 23225      00
 23226              	.LASF57:
 23227 1d26 705F6D74 		.ascii	"p_mtxlist\000"
 23227      786C6973 
 23227      7400
 23228              	.LASF375:
 23229 1d30 43414E44 		.ascii	"CAND1\000"
 23229      3100
 23230              	.LASF133:
 23231 1d36 46533152 		.ascii	"FS1R\000"
 23231      00
 23232              	.LASF29:
 23233 1d3b 74737461 		.ascii	"tstate_t\000"
 23233      74655F74 
 23233      00
 23234              	.LASF550:
 23235 1d44 53504944 		.ascii	"SPIDriver\000"
 23235      72697665 
 23235      7200
 23236              	.LASF661:
 23237 1d4e 4441494E 		.ascii	"DAINT\000"
 23237      5400
 23238              	.LASF554:
 23239 1d54 53504943 		.ascii	"SPIConfig\000"
 23239      6F6E6669 
 23239      6700
 23240              	.LASF305:
 23241 1d5e 70757064 		.ascii	"pupdr\000"
 23241      7200
 23242              	.LASF395:
 23243 1d64 64616365 		.ascii	"dacerrorcallback_t\000"
 23243      72726F72 
 23243      63616C6C 
 23243      6261636B 
 23243      5F7400
 23244              	.LASF557:
 23245 1d77 7472616E 		.ascii	"transmitting\000"
 23245      736D6974 
 23245      74696E67 
 23245      00
ARM GAS  C:\Users\mathi\AppData\Local\Temp\ccuMtzkg.s 			page 433


 23246              	.LASF415:
 23247 1d84 6368616E 		.ascii	"channels\000"
 23247      6E656C73 
 23247      00
 23248              	.LASF164:
 23249 1d8d 434C4B43 		.ascii	"CLKCR\000"
 23249      5200
 23250              	.LASF529:
 23251 1d93 53444344 		.ascii	"SDCDriver\000"
 23251      72697665 
 23251      7200
 23252              	.LASF46:
 23253 1d9d 705F6E61 		.ascii	"p_name\000"
 23253      6D6500
 23254              	.LASF511:
 23255 1da4 53657269 		.ascii	"SerialDriver\000"
 23255      616C4472 
 23255      69766572 
 23255      00
 23256              	.LASF111:
 23257 1db1 4A445231 		.ascii	"JDR1\000"
 23257      00
 23258              	.LASF112:
 23259 1db6 4A445232 		.ascii	"JDR2\000"
 23259      00
 23260              	.LASF113:
 23261 1dbb 4A445233 		.ascii	"JDR3\000"
 23261      00
 23262              	.LASF114:
 23263 1dc0 4A445234 		.ascii	"JDR4\000"
 23263      00
 23264              	.LASF623:
 23265 1dc5 444F4550 		.ascii	"DOEPTSIZ\000"
 23265      5453495A 
 23265      00
 23266              	.LASF323:
 23267 1dce 4144435F 		.ascii	"ADC_READY\000"
 23267      52454144 
 23267      5900
 23268              	.LASF781:
 23269 1dd8 706F3830 		.ascii	"po8030_config\000"
 23269      33305F63 
 23269      6F6E6669 
 23269      6700
 23270              	.LASF83:
 23271 1de6 76697274 		.ascii	"virtual_timers_list_t\000"
 23271      75616C5F 
 23271      74696D65 
 23271      72735F6C 
 23271      6973745F 
 23272              	.LASF647:
 23273 1dfc 72657376 		.ascii	"resvd40C\000"
 23273      64343043 
 23273      00
 23274              	.LASF345:
 23275 1e05 63697263 		.ascii	"circular\000"
 23275      756C6172 
ARM GAS  C:\Users\mathi\AppData\Local\Temp\ccuMtzkg.s 			page 434


 23275      00
 23276              	.LASF479:
 23277 1e0e 69327373 		.ascii	"i2sstate_t\000"
 23277      74617465 
 23277      5F7400
 23278              	.LASF302:
 23279 1e19 6D6F6465 		.ascii	"moder\000"
 23279      7200
 23280              	.LASF219:
 23281 1e1f 735F7175 		.ascii	"s_queue\000"
 23281      65756500 
 23282              	.LASF208:
 23283 1e27 6D5F6372 		.ascii	"m_crit_thd\000"
 23283      69745F74 
 23283      686400
 23284              	.LASF377:
 23285 1e32 4441435F 		.ascii	"DAC_STOP\000"
 23285      53544F50 
 23285      00
 23286              	.LASF654:
 23287 1e3b 72657376 		.ascii	"resvd700\000"
 23287      64373030 
 23287      00
 23288              	.LASF181:
 23289 1e44 49325343 		.ascii	"I2SCFGR\000"
 23289      46475200 
 23290              	.LASF717:
 23291 1e4c 75736270 		.ascii	"usbp\000"
 23291      00
 23292              	.LASF227:
 23293 1e51 63685F69 		.ascii	"ch_identifier\000"
 23293      64656E74 
 23293      69666965 
 23293      7200
 23294              	.LASF521:
 23295 1e5f 77726974 		.ascii	"writet\000"
 23295      657400
 23296              	.LASF2:
 23297 1e66 6C6F6E67 		.ascii	"long long int\000"
 23297      206C6F6E 
 23297      6720696E 
 23297      7400
 23298              	.LASF641:
 23299 1e74 48505458 		.ascii	"HPTXFSIZ\000"
 23299      4653495A 
 23299      00
 23300              	.LASF798:
 23301 1e7d 70776D45 		.ascii	"pwmEnableChannel\000"
 23301      6E61626C 
 23301      65436861 
 23301      6E6E656C 
 23301      00
 23302              	.LASF234:
 23303 1e8e 63665F6F 		.ascii	"cf_off_prio\000"
 23303      66665F70 
 23303      72696F00 
 23304              	.LASF205:
ARM GAS  C:\Users\mathi\AppData\Local\Temp\ccuMtzkg.s 			page 435


 23305 1e9a 74696D65 		.ascii	"time_measurement_t\000"
 23305      5F6D6561 
 23305      73757265 
 23305      6D656E74 
 23305      5F7400
 23306              	.LASF542:
 23307 1ead 6765745F 		.ascii	"get_info\000"
 23307      696E666F 
 23307      00
 23308              	.LASF332:
 23309 1eb6 61646365 		.ascii	"adcerror_t\000"
 23309      72726F72 
 23309      5F7400
 23310              	.LASF707:
 23311 1ec1 6765745F 		.ascii	"get_descriptor_cb\000"
 23311      64657363 
 23311      72697074 
 23311      6F725F63 
 23311      6200
 23312              	.LASF35:
 23313 1ed3 6576656E 		.ascii	"eventflags_t\000"
 23313      74666C61 
 23313      67735F74 
 23313      00
 23314              	.LASF546:
 23315 1ee0 5350495F 		.ascii	"SPI_READY\000"
 23315      52454144 
 23315      5900
 23316              	.LASF129:
 23317 1eea 73464946 		.ascii	"sFIFOMailBox\000"
 23317      4F4D6169 
 23317      6C426F78 
 23317      00
 23318              	.LASF534:
 23319 1ef7 6275735F 		.ascii	"bus_width\000"
 23319      77696474 
 23319      6800
 23320              	.LASF150:
 23321 1f01 44485238 		.ascii	"DHR8RD\000"
 23321      524400
 23322              	.LASF656:
 23323 1f08 4443544C 		.ascii	"DCTL\000"
 23323      00
 23324              	.LASF536:
 23325 1f0d 53444344 		.ascii	"SDCDriverVMT\000"
 23325      72697665 
 23325      72564D54 
 23325      00
 23326              	.LASF768:
 23327 1f1a 76657274 		.ascii	"vertical\000"
 23327      6963616C 
 23327      00
 23328              	.LASF682:
 23329 1f23 74786275 		.ascii	"txbuf\000"
 23329      6600
 23330              	.LASF675:
 23331 1f29 50434743 		.ascii	"PCGCCTL\000"
ARM GAS  C:\Users\mathi\AppData\Local\Temp\ccuMtzkg.s 			page 436


 23331      43544C00 
 23332              	.LASF593:
 23333 1f31 5553425F 		.ascii	"USB_EVENT_WAKEUP\000"
 23333      4556454E 
 23333      545F5741 
 23333      4B455550 
 23333      00
 23334              	.LASF752:
 23335 1f42 63757272 		.ascii	"curr_subsampling_x\000"
 23335      5F737562 
 23335      73616D70 
 23335      6C696E67 
 23335      5F7800
 23336              	.LASF753:
 23337 1f55 63757272 		.ascii	"curr_subsampling_y\000"
 23337      5F737562 
 23337      73616D70 
 23337      6C696E67 
 23337      5F7900
 23338              	.LASF45:
 23339 1f68 705F6F6C 		.ascii	"p_older\000"
 23339      64657200 
 23340              	.LASF286:
 23341 1f70 424C4B5F 		.ascii	"BLK_SYNCING\000"
 23341      53594E43 
 23341      494E4700 
 23342              	.LASF317:
 23343 1f7c 50494461 		.ascii	"PIData\000"
 23343      746100
 23344              	.LASF704:
 23345 1f83 73657475 		.ascii	"setup_buf\000"
 23345      705F6275 
 23345      6600
 23346              	.LASF442:
 23347 1f8d 47505444 		.ascii	"GPTD6\000"
 23347      3600
 23348              	.LASF348:
 23349 1f93 6572726F 		.ascii	"error_cb\000"
 23349      725F6362 
 23349      00
 23350              	.LASF743:
 23351 1f9c 696D6167 		.ascii	"image_size_t\000"
 23351      655F7369 
 23351      7A655F74 
 23351      00
 23352              	.LASF282:
 23353 1fa9 424C4B5F 		.ascii	"BLK_DISCONNECTING\000"
 23353      44495343 
 23353      4F4E4E45 
 23353      4354494E 
 23353      4700
 23354              	.LASF552:
 23355 1fbb 7373706F 		.ascii	"ssport\000"
 23355      727400
 23356              	.LASF61:
 23357 1fc2 74687265 		.ascii	"thread_reference_t\000"
 23357      61645F72 
ARM GAS  C:\Users\mathi\AppData\Local\Temp\ccuMtzkg.s 			page 437


 23357      65666572 
 23357      656E6365 
 23357      5F7400
 23358              	.LASF790:
 23359 1fd5 706F3830 		.ascii	"po8030_set_bank\000"
 23359      33305F73 
 23359      65745F62 
 23359      616E6B00 
 23360              	.LASF411:
 23361 1fe5 65787063 		.ascii	"expchannel_t\000"
 23361      68616E6E 
 23361      656C5F74 
 23361      00
 23362              	.LASF558:
 23363 1ff2 72656365 		.ascii	"receiving\000"
 23363      6976696E 
 23363      6700
 23364              	.LASF438:
 23365 1ffc 66726571 		.ascii	"frequency\000"
 23365      75656E63 
 23365      7900
 23366              	.LASF200:
 23367 2006 746D5F63 		.ascii	"tm_calibration_t\000"
 23367      616C6962 
 23367      72617469 
 23367      6F6E5F74 
 23367      00
 23368              	.LASF772:
 23369 2017 706F3830 		.ascii	"po8030_advanced_config\000"
 23369      33305F61 
 23369      6476616E 
 23369      6365645F 
 23369      636F6E66 
 23370              	.LASF5:
 23371 202e 5F5F696E 		.ascii	"__int8_t\000"
 23371      74385F74 
 23371      00
 23372              	.LASF701:
 23373 2037 696E5F73 		.ascii	"in_state\000"
 23373      74617465 
 23373      00
 23374              	.LASF759:
 23375 2040 696E7465 		.ascii	"integral\000"
 23375      6772616C 
 23375      00
 23376              	.LASF184:
 23377 2049 47545052 		.ascii	"GTPR\000"
 23377      00
 23378              	.LASF228:
 23379 204e 63685F7A 		.ascii	"ch_zero\000"
 23379      65726F00 
 23380              	.LASF797:
 23381 2056 70776D53 		.ascii	"pwmStart\000"
 23381      74617274 
 23381      00
 23382              	.LASF459:
 23383 205f 46415354 		.ascii	"FAST_DUTY_CYCLE_2\000"
ARM GAS  C:\Users\mathi\AppData\Local\Temp\ccuMtzkg.s 			page 438


 23383      5F445554 
 23383      595F4359 
 23383      434C455F 
 23383      3200
 23384              	.LASF172:
 23385 2071 44435452 		.ascii	"DCTRL\000"
 23385      4C00
 23386              	.LASF233:
 23387 2077 63685F74 		.ascii	"ch_threadsize\000"
 23387      68726561 
 23387      6473697A 
 23387      6500
 23388              	.LASF161:
 23389 2085 464C5452 		.ascii	"FLTR\000"
 23389      00
 23390              	.LASF429:
 23391 208a 43434D52 		.ascii	"CCMR1\000"
 23391      3100
 23392              	.LASF430:
 23393 2090 43434D52 		.ascii	"CCMR2\000"
 23393      3200
 23394              	.LASF434:
 23395 2096 43434D52 		.ascii	"CCMR3\000"
 23395      3300
 23396              	.LASF1:
 23397 209c 756E7369 		.ascii	"unsigned int\000"
 23397      676E6564 
 23397      20696E74 
 23397      00
 23398              	.LASF352:
 23399 20a9 73717232 		.ascii	"sqr2\000"
 23399      00
 23400              	.LASF353:
 23401 20ae 73717233 		.ascii	"sqr3\000"
 23401      00
 23402              	.LASF645:
 23403 20b3 48464952 		.ascii	"HFIR\000"
 23403      00
 23404              	.LASF789:
 23405 20b8 706F3830 		.ascii	"po8030_set_format\000"
 23405      33305F73 
 23405      65745F66 
 23405      6F726D61 
 23405      7400
 23406              	.LASF575:
 23407 20ca 5553425F 		.ascii	"USB_UNINIT\000"
 23407      554E494E 
 23407      495400
 23408              	.LASF271:
 23409 20d5 73747265 		.ascii	"stream\000"
 23409      616D00
 23410              	.LASF355:
 23411 20dc 64756D6D 		.ascii	"dummy\000"
 23411      7900
 23412              	.LASF457:
 23413 20e2 6932636F 		.ascii	"i2copmode_t\000"
 23413      706D6F64 
ARM GAS  C:\Users\mathi\AppData\Local\Temp\ccuMtzkg.s 			page 439


 23413      655F7400 
 23414              	.LASF249:
 23415 20ee 6576656E 		.ascii	"event_listener\000"
 23415      745F6C69 
 23415      7374656E 
 23415      657200
 23416              	.LASF10:
 23417 20fd 73686F72 		.ascii	"short int\000"
 23417      7420696E 
 23417      7400
 23418              	.LASF599:
 23419 2107 75736263 		.ascii	"usbcallback_t\000"
 23419      616C6C62 
 23419      61636B5F 
 23419      7400
 23420              	.LASF628:
 23421 2115 47555342 		.ascii	"GUSBCFG\000"
 23421      43464700 
 23422              	.LASF185:
 23423 211d 55534152 		.ascii	"USART_TypeDef\000"
 23423      545F5479 
 23423      70654465 
 23423      6600
 23424              	.LASF270:
 23425 212b 6F757470 		.ascii	"output_queue_t\000"
 23425      75745F71 
 23425      75657565 
 23425      5F7400
 23426              	.LASF677:
 23427 213a 73746D33 		.ascii	"stm32_otg_t\000"
 23427      325F6F74 
 23427      675F7400 
 23428              	.LASF480:
 23429 2146 49325344 		.ascii	"I2SDriver\000"
 23429      72697665 
 23429      7200
 23430              	.LASF464:
 23431 2150 64757479 		.ascii	"duty_cycle\000"
 23431      5F637963 
 23431      6C6500
 23432              	.LASF487:
 23433 215b 49325343 		.ascii	"I2SConfig\000"
 23433      6F6E6669 
 23433      6700
 23434              	.LASF596:
 23435 2165 75645F73 		.ascii	"ud_size\000"
 23435      697A6500 
 23436              	.LASF699:
 23437 216d 696E5F6D 		.ascii	"in_maxsize\000"
 23437      61787369 
 23437      7A6500
 23438              	.LASF314:
 23439 2178 50464461 		.ascii	"PFData\000"
 23439      746100
 23440              	.LASF407:
 23441 217f 4558545F 		.ascii	"EXT_STOP\000"
 23441      53544F50 
ARM GAS  C:\Users\mathi\AppData\Local\Temp\ccuMtzkg.s 			page 440


 23441      00
 23442              	.LASF48:
 23443 2188 705F7374 		.ascii	"p_state\000"
 23443      61746500 
 23444              	.LASF488:
 23445 2190 49325344 		.ascii	"I2SD2\000"
 23445      3200
 23446              	.LASF537:
 23447 2196 69735F69 		.ascii	"is_inserted\000"
 23447      6E736572 
 23447      74656400 
 23448              	.LASF64:
 23449 21a2 63685F74 		.ascii	"ch_threads_list\000"
 23449      68726561 
 23449      64735F6C 
 23449      69737400 
 23450              	.LASF173:
 23451 21b2 44434F55 		.ascii	"DCOUNT\000"
 23451      4E5400
 23452              	.LASF158:
 23453 21b9 4F415231 		.ascii	"OAR1\000"
 23453      00
 23454              	.LASF159:
 23455 21be 4F415232 		.ascii	"OAR2\000"
 23455      00
 23456              	.LASF60:
 23457 21c3 705F7374 		.ascii	"p_stats\000"
 23457      61747300 
 23458              	.LASF580:
 23459 21cb 75736273 		.ascii	"usbstate_t\000"
 23459      74617465 
 23459      5F7400
 23460              		.ident	"GCC: (GNU Tools for Arm Embedded Processors 7-2017-q4-major) 7.2.1 20170904 (release) [ARM
ARM GAS  C:\Users\mathi\AppData\Local\Temp\ccuMtzkg.s 			page 441


DEFINED SYMBOLS
                            *ABS*:00000000 po8030.c
C:\Users\mathi\AppData\Local\Temp\ccuMtzkg.s:18     .text.po8030_read_id:00000000 $t
C:\Users\mathi\AppData\Local\Temp\ccuMtzkg.s:26     .text.po8030_read_id:00000000 po8030_read_id
C:\Users\mathi\AppData\Local\Temp\ccuMtzkg.s:99     .text.po8030_read_id:0000004c $d
C:\Users\mathi\AppData\Local\Temp\ccuMtzkg.s:104    .text.po8030_set_bank:00000000 $t
C:\Users\mathi\AppData\Local\Temp\ccuMtzkg.s:112    .text.po8030_set_bank:00000000 po8030_set_bank
C:\Users\mathi\AppData\Local\Temp\ccuMtzkg.s:155    .text.po8030_set_bank:00000028 $d
C:\Users\mathi\AppData\Local\Temp\ccuMtzkg.s:160    .text.po8030_set_format:00000000 $t
C:\Users\mathi\AppData\Local\Temp\ccuMtzkg.s:168    .text.po8030_set_format:00000000 po8030_set_format
C:\Users\mathi\AppData\Local\Temp\ccuMtzkg.s:320    .text.po8030_set_format:000000a0 $d
C:\Users\mathi\AppData\Local\Temp\ccuMtzkg.s:326    .text.po8030_set_vga:00000000 $t
C:\Users\mathi\AppData\Local\Temp\ccuMtzkg.s:334    .text.po8030_set_vga:00000000 po8030_set_vga
C:\Users\mathi\AppData\Local\Temp\ccuMtzkg.s:645    .text.po8030_set_vga:000001c4 $d
C:\Users\mathi\AppData\Local\Temp\ccuMtzkg.s:652    .text.po8030_set_qvga:00000000 $t
C:\Users\mathi\AppData\Local\Temp\ccuMtzkg.s:660    .text.po8030_set_qvga:00000000 po8030_set_qvga
C:\Users\mathi\AppData\Local\Temp\ccuMtzkg.s:971    .text.po8030_set_qvga:000001c4 $d
C:\Users\mathi\AppData\Local\Temp\ccuMtzkg.s:978    .text.po8030_set_qqvga:00000000 $t
C:\Users\mathi\AppData\Local\Temp\ccuMtzkg.s:986    .text.po8030_set_qqvga:00000000 po8030_set_qqvga
C:\Users\mathi\AppData\Local\Temp\ccuMtzkg.s:1297   .text.po8030_set_qqvga:000001c4 $d
C:\Users\mathi\AppData\Local\Temp\ccuMtzkg.s:1304   .text.po8030_set_size:00000000 $t
C:\Users\mathi\AppData\Local\Temp\ccuMtzkg.s:1312   .text.po8030_set_size:00000000 po8030_set_size
C:\Users\mathi\AppData\Local\Temp\ccuMtzkg.s:1654   .text.po8030_set_size:000001e4 $d
C:\Users\mathi\AppData\Local\Temp\ccuMtzkg.s:1668   .text.po8030_set_size:000001f0 $t
C:\Users\mathi\AppData\Local\Temp\ccuMtzkg.s:1969   .text.po8030_set_size:000003cc $d
C:\Users\mathi\AppData\Local\Temp\ccuMtzkg.s:1975   .text.po8030_set_scale_buffer_size:00000000 $t
C:\Users\mathi\AppData\Local\Temp\ccuMtzkg.s:1983   .text.po8030_set_scale_buffer_size:00000000 po8030_set_scale_buffer_size
C:\Users\mathi\AppData\Local\Temp\ccuMtzkg.s:2195   .text.po8030_set_scale_buffer_size:000000f4 $d
C:\Users\mathi\AppData\Local\Temp\ccuMtzkg.s:2202   .text.po8030_start:00000000 $t
C:\Users\mathi\AppData\Local\Temp\ccuMtzkg.s:2210   .text.po8030_start:00000000 po8030_start
C:\Users\mathi\AppData\Local\Temp\ccuMtzkg.s:2684   .text.po8030_start:00000284 $d
C:\Users\mathi\AppData\Local\Temp\ccuMtzkg.s:2693   .text.po8030_config:00000000 $t
C:\Users\mathi\AppData\Local\Temp\ccuMtzkg.s:2701   .text.po8030_config:00000000 po8030_config
C:\Users\mathi\AppData\Local\Temp\ccuMtzkg.s:2845   .text.po8030_config:0000007c $d
C:\Users\mathi\AppData\Local\Temp\ccuMtzkg.s:2850   .text.po8030_advanced_config:00000000 $t
C:\Users\mathi\AppData\Local\Temp\ccuMtzkg.s:2858   .text.po8030_advanced_config:00000000 po8030_advanced_config
C:\Users\mathi\AppData\Local\Temp\ccuMtzkg.s:3492   .text.po8030_advanced_config:000003f8 $d
C:\Users\mathi\AppData\Local\Temp\ccuMtzkg.s:3500   .text.po8030_advanced_config:0000040c $t
C:\Users\mathi\AppData\Local\Temp\ccuMtzkg.s:3612   .text.po8030_advanced_config:000004a0 $d
C:\Users\mathi\AppData\Local\Temp\ccuMtzkg.s:3618   .text.po8030_set_brightness:00000000 $t
C:\Users\mathi\AppData\Local\Temp\ccuMtzkg.s:3626   .text.po8030_set_brightness:00000000 po8030_set_brightness
C:\Users\mathi\AppData\Local\Temp\ccuMtzkg.s:3705   .text.po8030_set_brightness:0000003c $d
C:\Users\mathi\AppData\Local\Temp\ccuMtzkg.s:3710   .text.po8030_set_contrast:00000000 $t
C:\Users\mathi\AppData\Local\Temp\ccuMtzkg.s:3718   .text.po8030_set_contrast:00000000 po8030_set_contrast
C:\Users\mathi\AppData\Local\Temp\ccuMtzkg.s:3797   .text.po8030_set_contrast:0000003c $d
C:\Users\mathi\AppData\Local\Temp\ccuMtzkg.s:3802   .text.po8030_set_mirror:00000000 $t
C:\Users\mathi\AppData\Local\Temp\ccuMtzkg.s:3810   .text.po8030_set_mirror:00000000 po8030_set_mirror
C:\Users\mathi\AppData\Local\Temp\ccuMtzkg.s:3902   .text.po8030_set_mirror:00000054 $d
C:\Users\mathi\AppData\Local\Temp\ccuMtzkg.s:3907   .text.po8030_set_awb:00000000 $t
C:\Users\mathi\AppData\Local\Temp\ccuMtzkg.s:3915   .text.po8030_set_awb:00000000 po8030_set_awb
C:\Users\mathi\AppData\Local\Temp\ccuMtzkg.s:4003   .text.po8030_set_awb:00000060 $d
C:\Users\mathi\AppData\Local\Temp\ccuMtzkg.s:4008   .text.po8030_set_rgb_gain:00000000 $t
C:\Users\mathi\AppData\Local\Temp\ccuMtzkg.s:4016   .text.po8030_set_rgb_gain:00000000 po8030_set_rgb_gain
C:\Users\mathi\AppData\Local\Temp\ccuMtzkg.s:4159   .text.po8030_set_rgb_gain:00000094 $d
C:\Users\mathi\AppData\Local\Temp\ccuMtzkg.s:4164   .text.po8030_set_ae:00000000 $t
C:\Users\mathi\AppData\Local\Temp\ccuMtzkg.s:4172   .text.po8030_set_ae:00000000 po8030_set_ae
C:\Users\mathi\AppData\Local\Temp\ccuMtzkg.s:4260   .text.po8030_set_ae:00000060 $d
ARM GAS  C:\Users\mathi\AppData\Local\Temp\ccuMtzkg.s 			page 442


C:\Users\mathi\AppData\Local\Temp\ccuMtzkg.s:4265   .text.po8030_set_exposure:00000000 $t
C:\Users\mathi\AppData\Local\Temp\ccuMtzkg.s:4273   .text.po8030_set_exposure:00000000 po8030_set_exposure
C:\Users\mathi\AppData\Local\Temp\ccuMtzkg.s:4413   .text.po8030_set_exposure:00000090 $d
C:\Users\mathi\AppData\Local\Temp\ccuMtzkg.s:4418   .text.po8030_get_image_size:00000000 $t
C:\Users\mathi\AppData\Local\Temp\ccuMtzkg.s:4426   .text.po8030_get_image_size:00000000 po8030_get_image_size
C:\Users\mathi\AppData\Local\Temp\ccuMtzkg.s:4472   .text.po8030_get_image_size:0000002c $d
C:\Users\mathi\AppData\Local\Temp\ccuMtzkg.s:4478   .bss.po8030_conf:00000000 $d
C:\Users\mathi\AppData\Local\Temp\ccuMtzkg.s:4482   .bss.po8030_conf:00000000 po8030_conf
C:\Users\mathi\AppData\Local\Temp\ccuMtzkg.s:4485   .rodata.pwmcfg_cam.9993:00000000 $d
C:\Users\mathi\AppData\Local\Temp\ccuMtzkg.s:4489   .rodata.pwmcfg_cam.9993:00000000 pwmcfg_cam.9993

UNDEFINED SYMBOLS
read_reg
__stack_chk_fail
__stack_chk_guard
write_reg
i2c_start
pwmStart
pwmEnableChannel
PWMD5
