ARM GAS  C:\Users\mathi\AppData\Local\Temp\ccjnRNmO.s 			page 1


   1              		.cpu cortex-m4
   2              		.eabi_attribute 27, 1
   3              		.eabi_attribute 28, 1
   4              		.eabi_attribute 20, 1
   5              		.eabi_attribute 21, 1
   6              		.eabi_attribute 23, 3
   7              		.eabi_attribute 24, 1
   8              		.eabi_attribute 25, 1
   9              		.eabi_attribute 26, 1
  10              		.eabi_attribute 30, 2
  11              		.eabi_attribute 34, 1
  12              		.eabi_attribute 18, 4
  13              		.file	"process_image.c"
  14              		.text
  15              	.Ltext0:
  16              		.cfi_sections	.debug_frame
  17              		.section	.text.ProcessImage,"ax",%progbits
  18              		.align	1
  19              		.p2align 4,,15
  20              		.syntax unified
  21              		.thumb
  22              		.thumb_func
  23              		.fpu fpv4-sp-d16
  24              		.type	ProcessImage, %function
  25              	ProcessImage:
  26              	.LFB258:
  27              		.file 1 "process_image.c"
  28              		.loc 1 36 0
  29              		.cfi_startproc
  30              		@ args = 0, pretend = 0, frame = 648
  31              		@ frame_needed = 0, uses_anonymous_args = 0
  32              	.LVL0:
  33 0000 10B5     		push	{r4, lr}
  34              		.cfi_def_cfa_offset 8
  35              		.cfi_offset 4, -8
  36              		.cfi_offset 14, -4
  37              	.LBB35:
  38              	.LBB36:
  39              		.file 2 "../../lib/e-puck2_main-processor/ChibiOS//os/rt/include/chregistry.h"
  40              		.loc 2 135 0
  41 0002 124A     		ldr	r2, .L8
  42              	.LBE36:
  43              	.LBE35:
  44              		.loc 1 36 0
  45 0004 124B     		ldr	r3, .L8+4
  46              	.LBB38:
  47              	.LBB37:
  48              		.loc 2 135 0
  49 0006 9269     		ldr	r2, [r2, #24]
  50 0008 1249     		ldr	r1, .L8+8
  51 000a 9161     		str	r1, [r2, #24]
  52              	.LBE37:
  53              	.LBE38:
  54              		.loc 1 36 0
  55 000c ADF5227D 		sub	sp, sp, #648
  56              		.cfi_def_cfa_offset 656
  57              		.loc 1 36 0
ARM GAS  C:\Users\mathi\AppData\Local\Temp\ccjnRNmO.s 			page 2


  58 0010 1B68     		ldr	r3, [r3]
  59 0012 A193     		str	r3, [sp, #644]
  60              	.LVL1:
  61              		.loc 1 42 0
  62 0014 01A8     		add	r0, sp, #4
  63              	.LVL2:
  64 0016 4FF42072 		mov	r2, #640
  65 001a 0021     		movs	r1, #0
  66 001c FFF7FEFF 		bl	memset
  67              	.LVL3:
  68              	.LBB39:
  69              	.LBB40:
  70              		.file 3 "../../lib/e-puck2_main-processor/ChibiOS//os/rt/include/chbsem.h"
  71              		.loc 3 143 0
  72 0020 0D4C     		ldr	r4, .L8+12
  73              	.LVL4:
  74              	.L3:
  75 0022 2046     		mov	r0, r4
  76 0024 FFF7FEFF 		bl	chSemWait
  77              	.LVL5:
  78              	.LBE40:
  79              	.LBE39:
  80              		.loc 1 52 0
  81 0028 FFF7FEFF 		bl	dcmi_get_last_image_ptr
  82              	.LVL6:
  83 002c 0DF10302 		add	r2, sp, #3
  84 0030 0021     		movs	r1, #0
  85              	.LVL7:
  86              	.L2:
  87              	.LBB41:
  88              		.loc 1 57 0 discriminator 3
  89 0032 10F81130 		ldrb	r3, [r0, r1, lsl #1]	@ zero_extendqisi2
  90 0036 0131     		adds	r1, r1, #1
  91              	.LVL8:
  92 0038 DB08     		lsrs	r3, r3, #3
  93              		.loc 1 54 0 discriminator 3
  94 003a B1F5207F 		cmp	r1, #640
  95              		.loc 1 56 0 discriminator 3
  96 003e 02F8013F 		strb	r3, [r2, #1]!
  97              		.loc 1 54 0 discriminator 3
  98 0042 F6D1     		bne	.L2
  99              	.LBE41:
 100              		.loc 1 61 0
 101 0044 01A8     		add	r0, sp, #4
 102              	.LVL9:
 103 0046 FFF7FEFF 		bl	SendUint8ToComputer
 104              	.LVL10:
 105              		.loc 1 49 0
 106 004a EAE7     		b	.L3
 107              	.L9:
 108              		.align	2
 109              	.L8:
 110 004c 00000000 		.word	ch
 111 0050 00000000 		.word	__stack_chk_guard
 112 0054 00000000 		.word	.LANCHOR0
 113 0058 00000000 		.word	.LANCHOR1
 114              		.cfi_endproc
ARM GAS  C:\Users\mathi\AppData\Local\Temp\ccjnRNmO.s 			page 3


 115              	.LFE258:
 116              		.size	ProcessImage, .-ProcessImage
 117              		.section	.text.CaptureImage,"ax",%progbits
 118              		.align	1
 119              		.p2align 4,,15
 120              		.syntax unified
 121              		.thumb
 122              		.thumb_func
 123              		.fpu fpv4-sp-d16
 124              		.type	CaptureImage, %function
 125              	CaptureImage:
 126              	.LFB257:
 127              		.loc 1 13 0
 128              		.cfi_startproc
 129              		@ Volatile: function does not return.
 130              		@ args = 0, pretend = 0, frame = 8
 131              		@ frame_needed = 0, uses_anonymous_args = 0
 132              	.LVL11:
 133 0000 80B5     		push	{r7, lr}
 134              		.cfi_def_cfa_offset 8
 135              		.cfi_offset 7, -8
 136              		.cfi_offset 14, -4
 137              	.LBB58:
 138              	.LBB59:
 139              		.loc 2 135 0
 140 0002 234C     		ldr	r4, .L16
 141              	.LBE59:
 142              	.LBE58:
 143              		.loc 1 13 0
 144 0004 234A     		ldr	r2, .L16+4
 145              	.LBB62:
 146              	.LBB60:
 147              		.loc 2 135 0
 148 0006 A369     		ldr	r3, [r4, #24]
 149 0008 2349     		ldr	r1, .L16+8
 150              	.LBE60:
 151              	.LBE62:
 152              		.loc 1 13 0
 153 000a 1668     		ldr	r6, [r2]
 154              	.LBB63:
 155              	.LBB61:
 156              		.loc 2 135 0
 157 000c 9961     		str	r1, [r3, #24]
 158              	.LBE61:
 159              	.LBE63:
 160              		.loc 1 13 0
 161 000e 86B0     		sub	sp, sp, #24
 162              		.cfi_def_cfa_offset 32
 163              		.loc 1 19 0
 164 0010 0223     		movs	r3, #2
 165 0012 2025     		movs	r5, #32
 166 0014 0A22     		movs	r2, #10
 167 0016 0021     		movs	r1, #0
 168 0018 0093     		str	r3, [sp]
 169              		.loc 1 13 0
 170 001a 0596     		str	r6, [sp, #20]
 171              		.loc 1 19 0
ARM GAS  C:\Users\mathi\AppData\Local\Temp\ccjnRNmO.s 			page 4


 172 001c 4FF42073 		mov	r3, #640
 173 0020 CDE90155 		strd	r5, r5, [sp, #4]
 174 0024 3020     		movs	r0, #48
 175              	.LVL12:
 176 0026 1D4E     		ldr	r6, .L16+12
 177              	.LBB64:
 178              	.LBB65:
 179              	.LBB66:
 180              	.LBB67:
 181              		.file 4 "../../lib/e-puck2_main-processor/ChibiOS//os/rt/include/chsys.h"
 182              		.loc 4 367 0
 183 0028 1D4F     		ldr	r7, .L16+16
 184              	.LBE67:
 185              	.LBE66:
 186              	.LBE65:
 187              	.LBE64:
 188              		.loc 1 19 0
 189 002a FFF7FEFF 		bl	po8030_advanced_config
 190              	.LVL13:
 191              		.loc 1 21 0
 192 002e FFF7FEFF 		bl	dcmi_enable_double_buffering
 193              	.LVL14:
 194              		.loc 1 22 0
 195 0032 0020     		movs	r0, #0
 196 0034 FFF7FEFF 		bl	dcmi_set_capture_mode
 197              	.LVL15:
 198              	.LBB85:
 199              	.LBB82:
 200              	.LBB72:
 201              	.LBB73:
 202              		.loc 3 271 0
 203 0038 B046     		mov	r8, r6
 204              	.LBE73:
 205              	.LBE72:
 206              	.LBE82:
 207              	.LBE85:
 208              		.loc 1 23 0
 209 003a FFF7FEFF 		bl	dcmi_prepare
 210              	.LVL16:
 211 003e 13E0     		b	.L13
 212              	.LVL17:
 213              	.L11:
 214              	.LBB86:
 215              	.LBB83:
 216              		.loc 3 286 0
 217 0040 FFF7FEFF 		bl	chSchRescheduleS
 218              	.LVL18:
 219              	.LBB75:
 220              	.LBB71:
 221              		.loc 4 360 0
 222 0044 FFF7FEFF 		bl	_dbg_check_unlock
 223              	.LVL19:
 224              		.loc 4 361 0
 225 0048 FFF7FEFF 		bl	_stats_stop_measure_crit_thd
 226              	.LVL20:
 227              		.loc 4 367 0
 228 004c 2368     		ldr	r3, [r4]
ARM GAS  C:\Users\mathi\AppData\Local\Temp\ccjnRNmO.s 			page 5


 229 004e A342     		cmp	r3, r4
 230 0050 07D0     		beq	.L12
 231 0052 A269     		ldr	r2, [r4, #24]
 232 0054 9B68     		ldr	r3, [r3, #8]
 233 0056 9268     		ldr	r2, [r2, #8]
 234 0058 9A42     		cmp	r2, r3
 235 005a 02D2     		bcs	.L12
 236 005c 3846     		mov	r0, r7
 237 005e FFF7FEFF 		bl	chSysHalt
 238              	.LVL21:
 239              	.L12:
 240              	.LBB68:
 241              	.LBB69:
 242              	.LBB70:
 243              		.file 5 "../../lib/e-puck2_main-processor/ChibiOS//os/ext/CMSIS/include/core_cmFunc.h"
 244              		.loc 5 546 0
 245 0062 0023     		movs	r3, #0
 246              		.syntax unified
 247              	@ 546 "../../lib/e-puck2_main-processor/ChibiOS//os/ext/CMSIS/include/core_cmFunc.h" 1
 248 0064 83F31188 		MSR basepri, r3
 249              	@ 0 "" 2
 250              	.LVL22:
 251              		.thumb
 252              		.syntax unified
 253              	.L13:
 254              	.LBE70:
 255              	.LBE69:
 256              	.LBE68:
 257              	.LBE71:
 258              	.LBE75:
 259              	.LBE83:
 260              	.LBE86:
 261              		.loc 1 27 0 discriminator 1
 262 0068 FFF7FEFF 		bl	dcmi_capture_start
 263              	.LVL23:
 264              		.loc 1 29 0 discriminator 1
 265 006c FFF7FEFF 		bl	wait_image_ready
 266              	.LVL24:
 267              	.LBB87:
 268              	.LBB84:
 269              	.LBB76:
 270              	.LBB77:
 271              	.LBB78:
 272              	.LBB79:
 273              	.LBB80:
 274              		.loc 5 546 0 discriminator 1
 275              		.syntax unified
 276              	@ 546 "../../lib/e-puck2_main-processor/ChibiOS//os/ext/CMSIS/include/core_cmFunc.h" 1
 277 0070 85F31188 		MSR basepri, r5
 278              	@ 0 "" 2
 279              	.LVL25:
 280              		.thumb
 281              		.syntax unified
 282              	.LBE80:
 283              	.LBE79:
 284              	.LBE78:
 285              		.loc 4 349 0 discriminator 1
ARM GAS  C:\Users\mathi\AppData\Local\Temp\ccjnRNmO.s 			page 6


 286 0074 FFF7FEFF 		bl	_stats_start_measure_crit_thd
 287              	.LVL26:
 288              		.loc 4 350 0 discriminator 1
 289 0078 FFF7FEFF 		bl	_dbg_check_lock
 290              	.LVL27:
 291              	.LBE77:
 292              	.LBE76:
 293              	.LBB81:
 294              	.LBB74:
 295              		.loc 3 268 0 discriminator 1
 296 007c FFF7FEFF 		bl	chDbgCheckClassI
 297              	.LVL28:
 298              		.loc 3 270 0 discriminator 1
 299 0080 B368     		ldr	r3, [r6, #8]
 300 0082 002B     		cmp	r3, #0
 301 0084 DCDC     		bgt	.L11
 302              		.loc 3 271 0
 303 0086 4046     		mov	r0, r8
 304 0088 FFF7FEFF 		bl	chSemSignalI
 305              	.LVL29:
 306 008c D8E7     		b	.L11
 307              	.L17:
 308 008e 00BF     		.align	2
 309              	.L16:
 310 0090 00000000 		.word	ch
 311 0094 00000000 		.word	__stack_chk_guard
 312 0098 00000000 		.word	.LANCHOR2
 313 009c 00000000 		.word	.LANCHOR1
 314 00a0 00000000 		.word	.LANCHOR3
 315              	.LBE74:
 316              	.LBE81:
 317              	.LBE84:
 318              	.LBE87:
 319              		.cfi_endproc
 320              	.LFE257:
 321              		.size	CaptureImage, .-CaptureImage
 322              		.section	.text.process_image_start,"ax",%progbits
 323              		.align	1
 324              		.p2align 4,,15
 325              		.global	process_image_start
 326              		.syntax unified
 327              		.thumb
 328              		.thumb_func
 329              		.fpu fpv4-sp-d16
 330              		.type	process_image_start, %function
 331              	process_image_start:
 332              	.LFB259:
 333              		.loc 1 67 0
 334              		.cfi_startproc
 335              		@ args = 0, pretend = 0, frame = 8
 336              		@ frame_needed = 0, uses_anonymous_args = 0
 337 0000 30B5     		push	{r4, r5, lr}
 338              		.cfi_def_cfa_offset 12
 339              		.cfi_offset 4, -12
 340              		.cfi_offset 5, -8
 341              		.cfi_offset 14, -4
 342 0002 0E4C     		ldr	r4, .L22
ARM GAS  C:\Users\mathi\AppData\Local\Temp\ccjnRNmO.s 			page 7


 343              		.loc 1 68 0
 344 0004 0E4B     		ldr	r3, .L22+4
 345              		.loc 1 67 0
 346 0006 2268     		ldr	r2, [r4]
 347              		.loc 1 68 0
 348 0008 0E48     		ldr	r0, .L22+8
 349              		.loc 1 67 0
 350 000a 85B0     		sub	sp, sp, #20
 351              		.cfi_def_cfa_offset 32
 352              		.loc 1 68 0
 353 000c 0025     		movs	r5, #0
 354              		.loc 1 67 0
 355 000e 0392     		str	r2, [sp, #12]
 356              		.loc 1 68 0
 357 0010 44F2C871 		movw	r1, #18376
 358 0014 4022     		movs	r2, #64
 359 0016 0095     		str	r5, [sp]
 360 0018 FFF7FEFF 		bl	chThdCreateStatic
 361              	.LVL30:
 362              		.loc 1 70 0
 363 001c 0A4B     		ldr	r3, .L22+12
 364 001e 0095     		str	r5, [sp]
 365 0020 4022     		movs	r2, #64
 366 0022 0A48     		ldr	r0, .L22+16
 367 0024 4FF41E71 		mov	r1, #632
 368 0028 FFF7FEFF 		bl	chThdCreateStatic
 369              	.LVL31:
 370              		.loc 1 72 0
 371 002c 039A     		ldr	r2, [sp, #12]
 372 002e 2368     		ldr	r3, [r4]
 373 0030 9A42     		cmp	r2, r3
 374 0032 01D1     		bne	.L21
 375 0034 05B0     		add	sp, sp, #20
 376              		.cfi_remember_state
 377              		.cfi_def_cfa_offset 12
 378              		@ sp needed
 379 0036 30BD     		pop	{r4, r5, pc}
 380              	.L21:
 381              		.cfi_restore_state
 382 0038 FFF7FEFF 		bl	__stack_chk_fail
 383              	.LVL32:
 384              	.L23:
 385              		.align	2
 386              	.L22:
 387 003c 00000000 		.word	__stack_chk_guard
 388 0040 00000000 		.word	ProcessImage
 389 0044 00000000 		.word	waProcessImage
 390 0048 00000000 		.word	CaptureImage
 391 004c 00000000 		.word	.LANCHOR4
 392              		.cfi_endproc
 393              	.LFE259:
 394              		.size	process_image_start, .-process_image_start
 395              		.section	.bss.waCaptureImage,"aw",%nobits
 396              		.align	3
 397              		.set	.LANCHOR4,. + 0
 398              		.type	waCaptureImage, %object
 399              		.size	waCaptureImage, 632
ARM GAS  C:\Users\mathi\AppData\Local\Temp\ccjnRNmO.s 			page 8


 400              	waCaptureImage:
 401 0000 00000000 		.space	632
 401      00000000 
 401      00000000 
 401      00000000 
 401      00000000 
 402              		.section	.bss.waProcessImage,"aw",%nobits
 403              		.align	3
 404              		.type	waProcessImage, %object
 405              		.size	waProcessImage, 18376
 406              	waProcessImage:
 407 0000 00000000 		.space	18376
 407      00000000 
 407      00000000 
 407      00000000 
 407      00000000 
 408              		.section	.data.image_ready_sem,"aw",%progbits
 409              		.align	2
 410              		.set	.LANCHOR1,. + 0
 411              		.type	image_ready_sem, %object
 412              		.size	image_ready_sem, 12
 413              	image_ready_sem:
 414 0000 00000000 		.word	image_ready_sem
 415 0004 00000000 		.word	image_ready_sem
 416 0008 00000000 		.word	0
 417              		.section	.rodata.__FUNCTION__.11327,"a",%progbits
 418              		.align	2
 419              		.set	.LANCHOR2,. + 0
 420              		.type	__FUNCTION__.11327, %object
 421              		.size	__FUNCTION__.11327, 13
 422              	__FUNCTION__.11327:
 423 0000 43617074 		.ascii	"CaptureImage\000"
 423      75726549 
 423      6D616765 
 423      00
 424              		.section	.rodata.__FUNCTION__.11333,"a",%progbits
 425              		.align	2
 426              		.set	.LANCHOR0,. + 0
 427              		.type	__FUNCTION__.11333, %object
 428              		.size	__FUNCTION__.11333, 13
 429              	__FUNCTION__.11333:
 430 0000 50726F63 		.ascii	"ProcessImage\000"
 430      65737349 
 430      6D616765 
 430      00
 431              		.section	.rodata.__func__.7153,"a",%progbits
 432              		.align	2
 433              		.set	.LANCHOR3,. + 0
 434              		.type	__func__.7153, %object
 435              		.size	__func__.7153, 12
 436              	__func__.7153:
 437 0000 63685379 		.ascii	"chSysUnlock\000"
 437      73556E6C 
 437      6F636B00 
 438              		.text
 439              	.Letext0:
 440              		.file 6 "c:\\eclipse_e-puck2\\tools\\gcc-arm-none-eabi-7-2017-q4-major-win32\\lib\\gcc\\arm-none-e
ARM GAS  C:\Users\mathi\AppData\Local\Temp\ccjnRNmO.s 			page 9


 441              		.file 7 "c:\\eclipse_e-puck2\\tools\\gcc-arm-none-eabi-7-2017-q4-major-win32\\arm-none-eabi\\inclu
 442              		.file 8 "c:\\eclipse_e-puck2\\tools\\gcc-arm-none-eabi-7-2017-q4-major-win32\\arm-none-eabi\\inclu
 443              		.file 9 "../../lib/e-puck2_main-processor/ChibiOS//os/rt/ports/ARMCMx/compilers/GCC/chtypes.h"
 444              		.file 10 "../../lib/e-puck2_main-processor/ChibiOS//os/rt/include/chsystypes.h"
 445              		.file 11 "../../lib/e-puck2_main-processor/ChibiOS//os/rt/include/chschd.h"
 446              		.file 12 "../../lib/e-puck2_main-processor/ChibiOS//os/ext/CMSIS/include/core_cm4.h"
 447              		.file 13 "../../lib/e-puck2_main-processor/ChibiOS//os/ext/CMSIS/ST/system_stm32f4xx.h"
 448              		.file 14 "../../lib/e-puck2_main-processor/ChibiOS//os/ext/CMSIS/ST/stm32f407xx.h"
 449              		.file 15 "../../lib/e-puck2_main-processor/ChibiOS//os/rt/ports/ARMCMx/chcore.h"
 450              		.file 16 "../../lib/e-puck2_main-processor/ChibiOS//os/rt/ports/ARMCMx/chcore_v7m.h"
 451              		.file 17 "../../lib/e-puck2_main-processor/ChibiOS//os/rt/include/chdebug.h"
 452              		.file 18 "../../lib/e-puck2_main-processor/ChibiOS//os/rt/include/chtm.h"
 453              		.file 19 "../../lib/e-puck2_main-processor/ChibiOS//os/rt/include/chstats.h"
 454              		.file 20 "../../lib/e-puck2_main-processor/ChibiOS//os/rt/include/chsem.h"
 455              		.file 21 "../../lib/e-puck2_main-processor/ChibiOS//os/rt/include/chmtx.h"
 456              		.file 22 "../../lib/e-puck2_main-processor/ChibiOS//os/rt/include/chevents.h"
 457              		.file 23 "../../lib/e-puck2_main-processor/ChibiOS//os/rt/include/chqueues.h"
 458              		.file 24 "../../lib/e-puck2_main-processor/ChibiOS//os/hal/ports/STM32/STM32F4xx/stm32_dma.h"
 459              		.file 25 "../../lib/e-puck2_main-processor/ChibiOS//os/hal/include/hal_ioblock.h"
 460              		.file 26 "../../lib/e-puck2_main-processor/ChibiOS//os/hal/ports/STM32/LLD/GPIOv2/pal_lld.h"
 461              		.file 27 "../../lib/e-puck2_main-processor/ChibiOS//os/hal/include/adc.h"
 462              		.file 28 "../../lib/e-puck2_main-processor/ChibiOS//os/hal/ports/STM32/STM32F4xx/adc_lld.h"
 463              		.file 29 "../../lib/e-puck2_main-processor/ChibiOS//os/hal/include/can.h"
 464              		.file 30 "../../lib/e-puck2_main-processor/ChibiOS//os/hal/ports/STM32/LLD/can_lld.h"
 465              		.file 31 "../../lib/e-puck2_main-processor/ChibiOS//os/hal/include/dac.h"
 466              		.file 32 "../../lib/e-puck2_main-processor/ChibiOS//os/hal/ports/STM32/LLD/DACv1/dac_lld.h"
 467              		.file 33 "../../lib/e-puck2_main-processor/ChibiOS//os/hal/include/ext.h"
 468              		.file 34 "../../lib/e-puck2_main-processor/ChibiOS//os/hal/ports/STM32/LLD/ext_lld.h"
 469              		.file 35 "../../lib/e-puck2_main-processor/ChibiOS//os/hal/include/gpt.h"
 470              		.file 36 "../../lib/e-puck2_main-processor/ChibiOS//os/hal/ports/STM32/LLD/TIMv1/gpt_lld.h"
 471              		.file 37 "../../lib/e-puck2_main-processor/ChibiOS//os/hal/ports/STM32/LLD/TIMv1/stm32_tim.h"
 472              		.file 38 "../../lib/e-puck2_main-processor/ChibiOS//os/hal/include/i2c.h"
 473              		.file 39 "../../lib/e-puck2_main-processor/ChibiOS//os/hal/ports/STM32/LLD/I2Cv1/i2c_lld.h"
 474              		.file 40 "../../lib/e-puck2_main-processor/ChibiOS//os/hal/include/i2s.h"
 475              		.file 41 "../../lib/e-puck2_main-processor/ChibiOS//os/hal/ports/STM32/LLD/SPIv1/i2s_lld.h"
 476              		.file 42 "../../lib/e-puck2_main-processor/ChibiOS//os/hal/include/pwm.h"
 477              		.file 43 "../../lib/e-puck2_main-processor/ChibiOS//os/hal/ports/STM32/LLD/TIMv1/pwm_lld.h"
 478              		.file 44 "../../lib/e-puck2_main-processor/ChibiOS//os/hal/include/serial.h"
 479              		.file 45 "../../lib/e-puck2_main-processor/ChibiOS//os/hal/ports/STM32/LLD/USARTv1/serial_lld.h"
 480              		.file 46 "../../lib/e-puck2_main-processor/ChibiOS//os/hal/include/sdc.h"
 481              		.file 47 "../../lib/e-puck2_main-processor/ChibiOS//os/hal/ports/STM32/LLD/sdc_lld.h"
 482              		.file 48 "../../lib/e-puck2_main-processor/ChibiOS//os/hal/include/spi.h"
 483              		.file 49 "../../lib/e-puck2_main-processor/ChibiOS//os/hal/ports/STM32/LLD/SPIv1/spi_lld.h"
 484              		.file 50 "../../lib/e-puck2_main-processor/ChibiOS//os/hal/include/usb.h"
 485              		.file 51 "../../lib/e-puck2_main-processor/ChibiOS//os/hal/ports/STM32/LLD/OTGv1/usb_lld.h"
 486              		.file 52 "../../lib/e-puck2_main-processor/ChibiOS//os/hal/ports/STM32/LLD/OTGv1/stm32_otg.h"
 487              		.file 53 "../../lib/e-puck2_main-processor/ChibiOS//os/hal/include/serial_usb.h"
 488              		.file 54 "../../lib/e-puck2_main-processor/src/usbcfg.h"
 489              		.file 55 "../../lib/e-puck2_main-processor/src/camera/po8030.h"
 490              		.file 56 "../../lib/e-puck2_main-processor/ChibiOS_ext/os/hal/include/../ports/STM32/STM32F4xx/dcm
 491              		.file 57 "../../lib/e-puck2_main-processor/src/camera/dcmi_camera.h"
 492              		.file 58 "c:\\eclipse_e-puck2\\tools\\gcc-arm-none-eabi-7-2017-q4-major-win32\\arm-none-eabi\\incl
 493              		.file 59 "c:\\eclipse_e-puck2\\tools\\gcc-arm-none-eabi-7-2017-q4-major-win32\\arm-none-eabi\\incl
 494              		.file 60 "c:\\eclipse_e-puck2\\tools\\gcc-arm-none-eabi-7-2017-q4-major-win32\\arm-none-eabi\\incl
 495              		.file 61 "../../lib/e-puck2_main-processor/src/msgbus/messagebus.h"
 496              		.file 62 "c:\\eclipse_e-puck2\\tools\\gcc-arm-none-eabi-7-2017-q4-major-win32\\arm-none-eabi\\incl
 497              		.file 63 "c:\\eclipse_e-puck2\\tools\\gcc-arm-none-eabi-7-2017-q4-major-win32\\arm-none-eabi\\incl
ARM GAS  C:\Users\mathi\AppData\Local\Temp\ccjnRNmO.s 			page 10


 498              		.file 64 "../../lib/e-puck2_main-processor/src/parameter/parameter.h"
 499              		.file 65 "main.h"
 500              		.file 66 "../../lib/e-puck2_main-processor/ChibiOS//os/rt/include/chthreads.h"
 501              		.file 67 "<built-in>"