ARM GAS  C:\Users\mathi\AppData\Local\Temp\ccUaA6jU.s 			page 1


   1              		.cpu cortex-m4
   2              		.eabi_attribute 27, 1
   3              		.eabi_attribute 28, 1
   4              		.eabi_attribute 20, 1
   5              		.eabi_attribute 21, 1
   6              		.eabi_attribute 23, 3
   7              		.eabi_attribute 24, 1
   8              		.eabi_attribute 25, 1
   9              		.eabi_attribute 26, 1
  10              		.eabi_attribute 30, 2
  11              		.eabi_attribute 34, 1
  12              		.eabi_attribute 18, 4
  13              		.file	"proximity.c"
  14              		.text
  15              	.Ltext0:
  16              		.cfi_sections	.debug_frame
  17              		.section	.text.pwm_reset_cb,"ax",%progbits
  18              		.align	1
  19              		.p2align 4,,15
  20              		.syntax unified
  21              		.thumb
  22              		.thumb_func
  23              		.fpu fpv4-sp-d16
  24              		.type	pwm_reset_cb, %function
  25              	pwm_reset_cb:
  26              	.LFB261:
  27              		.file 1 "../../lib/e-puck2_main-processor/src/sensors/proximity.c"
  28              		.loc 1 232 0
  29              		.cfi_startproc
  30              		@ args = 0, pretend = 0, frame = 8
  31              		@ frame_needed = 0, uses_anonymous_args = 0
  32              	.LVL0:
  33 0000 10B5     		push	{r4, lr}
  34              		.cfi_def_cfa_offset 8
  35              		.cfi_offset 4, -8
  36              		.cfi_offset 14, -4
  37              		.loc 1 234 0
  38 0002 1E49     		ldr	r1, .L16
  39              		.loc 1 232 0
  40 0004 1E4A     		ldr	r2, .L16+4
  41              		.loc 1 234 0
  42 0006 0B78     		ldrb	r3, [r1]	@ zero_extendqisi2
  43              		.loc 1 232 0
  44 0008 1068     		ldr	r0, [r2]
  45              	.LVL1:
  46 000a 82B0     		sub	sp, sp, #8
  47              		.cfi_def_cfa_offset 16
  48              		.loc 1 234 0
  49 000c 013B     		subs	r3, r3, #1
  50              		.loc 1 232 0
  51 000e 0190     		str	r0, [sp, #4]
  52              		.loc 1 234 0
  53 0010 072B     		cmp	r3, #7
  54 0012 0AD8     		bhi	.L1
  55 0014 DFE803F0 		tbb	[pc, r3]
  56              	.L4:
  57 0018 12       		.byte	(.L3-.L4)/2
ARM GAS  C:\Users\mathi\AppData\Local\Temp\ccUaA6jU.s 			page 2


  58 0019 15       		.byte	(.L5-.L4)/2
  59 001a 1C       		.byte	(.L6-.L4)/2
  60 001b 1F       		.byte	(.L7-.L4)/2
  61 001c 26       		.byte	(.L8-.L4)/2
  62 001d 29       		.byte	(.L9-.L4)/2
  63 001e 0F       		.byte	(.L10-.L4)/2
  64 001f 04       		.byte	(.L11-.L4)/2
  65              		.p2align 1
  66              	.L11:
  67              		.loc 1 262 0
  68 0020 1848     		ldr	r0, .L16+8
  69 0022 0824     		movs	r4, #8
  70              		.loc 1 263 0
  71 0024 0123     		movs	r3, #1
  72              		.loc 1 262 0
  73 0026 0483     		strh	r4, [r0, #24]	@ movhi
  74              		.loc 1 263 0
  75 0028 0B70     		strb	r3, [r1]
  76              	.L1:
  77              		.loc 1 266 0
  78 002a 0199     		ldr	r1, [sp, #4]
  79 002c 1368     		ldr	r3, [r2]
  80 002e 9942     		cmp	r1, r3
  81 0030 21D1     		bne	.L15
  82 0032 02B0     		add	sp, sp, #8
  83              		.cfi_remember_state
  84              		.cfi_def_cfa_offset 8
  85              		@ sp needed
  86 0034 10BD     		pop	{r4, pc}
  87              	.L10:
  88              		.cfi_restore_state
  89              		.loc 1 259 0
  90 0036 0823     		movs	r3, #8
  91 0038 0B70     		strb	r3, [r1]
  92              		.loc 1 260 0
  93 003a F6E7     		b	.L1
  94              	.L3:
  95              		.loc 1 238 0
  96 003c 0223     		movs	r3, #2
  97 003e 0B70     		strb	r3, [r1]
  98              		.loc 1 239 0
  99 0040 F3E7     		b	.L1
 100              	.L5:
 101              		.loc 1 241 0
 102 0042 1148     		ldr	r0, .L16+12
 103 0044 4FF48054 		mov	r4, #4096
 104              		.loc 1 242 0
 105 0048 0323     		movs	r3, #3
 106              		.loc 1 241 0
 107 004a 0483     		strh	r4, [r0, #24]	@ movhi
 108              		.loc 1 242 0
 109 004c 0B70     		strb	r3, [r1]
 110              		.loc 1 243 0
 111 004e ECE7     		b	.L1
 112              	.L6:
 113              		.loc 1 245 0
 114 0050 0423     		movs	r3, #4
ARM GAS  C:\Users\mathi\AppData\Local\Temp\ccUaA6jU.s 			page 3


 115 0052 0B70     		strb	r3, [r1]
 116              		.loc 1 246 0
 117 0054 E9E7     		b	.L1
 118              	.L7:
 119              		.loc 1 248 0
 120 0056 0C48     		ldr	r0, .L16+12
 121 0058 4FF48044 		mov	r4, #16384
 122              		.loc 1 249 0
 123 005c 0523     		movs	r3, #5
 124              		.loc 1 248 0
 125 005e 0483     		strh	r4, [r0, #24]	@ movhi
 126              		.loc 1 249 0
 127 0060 0B70     		strb	r3, [r1]
 128              		.loc 1 250 0
 129 0062 E2E7     		b	.L1
 130              	.L8:
 131              		.loc 1 252 0
 132 0064 0623     		movs	r3, #6
 133 0066 0B70     		strb	r3, [r1]
 134              		.loc 1 253 0
 135 0068 DFE7     		b	.L1
 136              	.L9:
 137              		.loc 1 255 0
 138 006a 0648     		ldr	r0, .L16+8
 139 006c 0424     		movs	r4, #4
 140              		.loc 1 256 0
 141 006e 0723     		movs	r3, #7
 142              		.loc 1 255 0
 143 0070 0483     		strh	r4, [r0, #24]	@ movhi
 144              		.loc 1 256 0
 145 0072 0B70     		strb	r3, [r1]
 146              		.loc 1 257 0
 147 0074 D9E7     		b	.L1
 148              	.L15:
 149              		.loc 1 266 0
 150 0076 FFF7FEFF 		bl	__stack_chk_fail
 151              	.LVL2:
 152              	.L17:
 153 007a 00BF     		.align	2
 154              	.L16:
 155 007c 00000000 		.word	.LANCHOR0
 156 0080 00000000 		.word	__stack_chk_guard
 157 0084 00100240 		.word	1073876992
 158 0088 00040240 		.word	1073873920
 159              		.cfi_endproc
 160              	.LFE261:
 161              		.size	pwm_reset_cb, .-pwm_reset_cb
 162              		.section	.text.pwm_ch1_cb,"ax",%progbits
 163              		.align	1
 164              		.p2align 4,,15
 165              		.syntax unified
 166              		.thumb
 167              		.thumb_func
 168              		.fpu fpv4-sp-d16
 169              		.type	pwm_ch1_cb, %function
 170              	pwm_ch1_cb:
 171              	.LFB262:
ARM GAS  C:\Users\mathi\AppData\Local\Temp\ccUaA6jU.s 			page 4


 172              		.loc 1 275 0
 173              		.cfi_startproc
 174              		@ args = 0, pretend = 0, frame = 8
 175              		@ frame_needed = 0, uses_anonymous_args = 0
 176              	.LVL3:
 177 0000 30B5     		push	{r4, r5, lr}
 178              		.cfi_def_cfa_offset 12
 179              		.cfi_offset 4, -12
 180              		.cfi_offset 5, -8
 181              		.cfi_offset 14, -4
 182 0002 0C4B     		ldr	r3, .L22
 183              		.loc 1 278 0
 184 0004 0C49     		ldr	r1, .L22+4
 185              		.loc 1 275 0
 186 0006 1868     		ldr	r0, [r3]
 187              	.LVL4:
 188              		.loc 1 280 0
 189 0008 0C4A     		ldr	r2, .L22+8
 190              		.loc 1 275 0
 191 000a 83B0     		sub	sp, sp, #12
 192              		.cfi_def_cfa_offset 24
 193              		.loc 1 279 0
 194 000c 4FF48045 		mov	r5, #16384
 195              		.loc 1 275 0
 196 0010 0190     		str	r0, [sp, #4]
 197              		.loc 1 278 0
 198 0012 4FF48050 		mov	r0, #4096
 199 0016 4883     		strh	r0, [r1, #26]	@ movhi
 200              		.loc 1 280 0
 201 0018 0424     		movs	r4, #4
 202              		.loc 1 281 0
 203 001a 0820     		movs	r0, #8
 204              		.loc 1 279 0
 205 001c 4D83     		strh	r5, [r1, #26]	@ movhi
 206              		.loc 1 280 0
 207 001e 5483     		strh	r4, [r2, #26]	@ movhi
 208              		.loc 1 281 0
 209 0020 5083     		strh	r0, [r2, #26]	@ movhi
 210              		.loc 1 282 0
 211 0022 019A     		ldr	r2, [sp, #4]
 212 0024 1B68     		ldr	r3, [r3]
 213 0026 9A42     		cmp	r2, r3
 214 0028 01D1     		bne	.L21
 215 002a 03B0     		add	sp, sp, #12
 216              		.cfi_remember_state
 217              		.cfi_def_cfa_offset 12
 218              		@ sp needed
 219 002c 30BD     		pop	{r4, r5, pc}
 220              	.L21:
 221              		.cfi_restore_state
 222 002e FFF7FEFF 		bl	__stack_chk_fail
 223              	.LVL5:
 224              	.L23:
 225 0032 00BF     		.align	2
 226              	.L22:
 227 0034 00000000 		.word	__stack_chk_guard
 228 0038 00040240 		.word	1073873920
ARM GAS  C:\Users\mathi\AppData\Local\Temp\ccUaA6jU.s 			page 5


 229 003c 00100240 		.word	1073876992
 230              		.cfi_endproc
 231              	.LFE262:
 232              		.size	pwm_ch1_cb, .-pwm_ch1_cb
 233              		.section	.text.proximity_thd,"ax",%progbits
 234              		.align	1
 235              		.p2align 4,,15
 236              		.syntax unified
 237              		.thumb
 238              		.thumb_func
 239              		.fpu fpv4-sp-d16
 240              		.type	proximity_thd, %function
 241              	proximity_thd:
 242              	.LFB260:
 243              		.loc 1 160 0
 244              		.cfi_startproc
 245              		@ args = 0, pretend = 0, frame = 136
 246              		@ frame_needed = 0, uses_anonymous_args = 0
 247              	.LVL6:
 248 0000 2DE9F04F 		push	{r4, r5, r6, r7, r8, r9, r10, fp, lr}
 249              		.cfi_def_cfa_offset 36
 250              		.cfi_offset 4, -36
 251              		.cfi_offset 5, -32
 252              		.cfi_offset 6, -28
 253              		.cfi_offset 7, -24
 254              		.cfi_offset 8, -20
 255              		.cfi_offset 9, -16
 256              		.cfi_offset 10, -12
 257              		.cfi_offset 11, -8
 258              		.cfi_offset 14, -4
 259              	.LBB48:
 260              	.LBB49:
 261              		.file 2 "../../lib/e-puck2_main-processor/ChibiOS//os/rt/include/chregistry.h"
 262              		.loc 2 135 0
 263 0004 814B     		ldr	r3, .L36
 264              	.LBE49:
 265              	.LBE48:
 266              		.loc 1 160 0
 267 0006 824A     		ldr	r2, .L36+4
 268              	.LBB51:
 269              	.LBB50:
 270              		.loc 2 135 0
 271 0008 9B69     		ldr	r3, [r3, #24]
 272 000a 8249     		ldr	r1, .L36+8
 273 000c 9961     		str	r1, [r3, #24]
 274              	.LBE50:
 275              	.LBE51:
 276              		.loc 1 160 0
 277 000e A5B0     		sub	sp, sp, #148
 278              		.cfi_def_cfa_offset 184
 279              		.loc 1 166 0
 280 0010 05AD     		add	r5, sp, #20
 281              		.loc 1 165 0
 282 0012 07AE     		add	r6, sp, #28
 283              		.loc 1 167 0
 284 0014 8023     		movs	r3, #128
 285              		.loc 1 160 0
ARM GAS  C:\Users\mathi\AppData\Local\Temp\ccUaA6jU.s 			page 6


 286 0016 1768     		ldr	r7, [r2]
 287              		.loc 1 167 0
 288 0018 0093     		str	r3, [sp]
 289 001a 2A46     		mov	r2, r5
 290              		.loc 1 165 0
 291 001c 0024     		movs	r4, #0
 292              		.loc 1 167 0
 293 001e 3146     		mov	r1, r6
 294 0020 0CA8     		add	r0, sp, #48
 295              	.LVL7:
 296 0022 7D4B     		ldr	r3, .L36+12
 297              		.loc 1 165 0
 298 0024 0B94     		str	r4, [sp, #44]
 299              		.loc 1 166 0
 300 0026 CDE90555 		strd	r5, r5, [sp, #20]
 301              		.loc 1 165 0
 302 002a CDE90944 		strd	r4, r4, [sp, #36]
 303              		.loc 1 160 0
 304 002e 2397     		str	r7, [sp, #140]
 305              		.loc 1 165 0
 306 0030 CDE90766 		strd	r6, r6, [sp, #28]
 307              		.loc 1 167 0
 308 0034 FFF7FEFF 		bl	messagebus_topic_init
 309              	.LVL8:
 310              		.loc 1 168 0
 311 0038 0CA9     		add	r1, sp, #48
 312 003a 784A     		ldr	r2, .L36+16
 313 003c 7848     		ldr	r0, .L36+20
 314 003e 764C     		ldr	r4, .L36+12
 315 0040 784D     		ldr	r5, .L36+24
 316 0042 DFF8FCB1 		ldr	fp, .L36+52
 317 0046 DFF8F4A1 		ldr	r10, .L36+48
 318 004a FFF7FEFF 		bl	messagebus_advertise_topic
 319              	.LVL9:
 320              	.L25:
 321              	.LBB52:
 322              	.LBB53:
 323              		.file 3 "../../lib/e-puck2_main-processor/ChibiOS//os/rt/include/chbsem.h"
 324              		.loc 3 143 0
 325 004e 7648     		ldr	r0, .L36+28
 326 0050 FFF7FEFF 		bl	chSemWait
 327              	.LVL10:
 328              	.LBE53:
 329              	.LBE52:
 330              		.loc 1 183 0
 331 0054 A968     		ldr	r1, [r5, #8]
 332              		.loc 1 174 0
 333 0056 2868     		ldr	r0, [r5]
 334 0058 2060     		str	r0, [r4]
 335              	.LBB54:
 336              		.loc 1 193 0
 337 005a 401A     		subs	r0, r0, r1
 338              	.LBE54:
 339              		.loc 1 175 0
 340 005c D5F810E0 		ldr	lr, [r5, #16]
 341              	.LBB55:
 342              		.loc 1 193 0
ARM GAS  C:\Users\mathi\AppData\Local\Temp\ccUaA6jU.s 			page 7


 343 0060 0290     		str	r0, [sp, #8]
 344 0062 A869     		ldr	r0, [r5, #24]
 345              	.LBE55:
 346              		.loc 1 180 0
 347 0064 D5F82490 		ldr	r9, [r5, #36]
 348              		.loc 1 175 0
 349 0068 C4F804E0 		str	lr, [r4, #4]
 350              	.LBB56:
 351              		.loc 1 193 0
 352 006c AEEB000E 		sub	lr, lr, r0
 353              	.LBE56:
 354              		.loc 1 179 0
 355 0070 6869     		ldr	r0, [r5, #20]
 356              		.loc 1 185 0
 357 0072 AB6A     		ldr	r3, [r5, #40]
 358              		.loc 1 176 0
 359 0074 D5F820C0 		ldr	ip, [r5, #32]
 360              		.loc 1 186 0
 361 0078 AA6B     		ldr	r2, [r5, #56]
 362              		.loc 1 177 0
 363 007a 2F6B     		ldr	r7, [r5, #48]
 364              		.loc 1 178 0
 365 007c 6E68     		ldr	r6, [r5, #4]
 366              		.loc 1 183 0
 367 007e 2162     		str	r1, [r4, #32]
 368              		.loc 1 180 0
 369 0080 C4E90509 		strd	r0, r9, [r4, #20]
 370              		.loc 1 184 0
 371 0084 A869     		ldr	r0, [r5, #24]
 372              		.loc 1 187 0
 373 0086 E968     		ldr	r1, [r5, #12]
 374              		.loc 1 181 0
 375 0088 D5F83480 		ldr	r8, [r5, #52]
 376              		.loc 1 176 0
 377 008c C4F808C0 		str	ip, [r4, #8]
 378              		.loc 1 185 0
 379 0090 C4E90903 		strd	r0, r3, [r4, #36]
 380              	.LBB57:
 381              		.loc 1 193 0
 382 0094 ACEB030C 		sub	ip, ip, r3
 383              	.LBE57:
 384              		.loc 1 188 0
 385 0098 EB69     		ldr	r3, [r5, #28]
 386              		.loc 1 177 0
 387 009a E760     		str	r7, [r4, #12]
 388              		.loc 1 178 0
 389 009c 2661     		str	r6, [r4, #16]
 390              	.LBB58:
 391              		.loc 1 193 0
 392 009e BF1A     		subs	r7, r7, r2
 393 00a0 761A     		subs	r6, r6, r1
 394              	.LBE58:
 395              		.loc 1 181 0
 396 00a2 C4F81C80 		str	r8, [r4, #28]
 397              		.loc 1 186 0
 398 00a6 E262     		str	r2, [r4, #44]
 399              		.loc 1 187 0
ARM GAS  C:\Users\mathi\AppData\Local\Temp\ccUaA6jU.s 			page 8


 400 00a8 2163     		str	r1, [r4, #48]
 401              		.loc 1 189 0
 402 00aa EA6A     		ldr	r2, [r5, #44]
 403              		.loc 1 190 0
 404 00ac E96B     		ldr	r1, [r5, #60]
 405              		.loc 1 188 0
 406 00ae 6363     		str	r3, [r4, #52]
 407              	.LBB59:
 408              		.loc 1 193 0
 409 00b0 6869     		ldr	r0, [r5, #20]
 410              	.LBE59:
 411              		.loc 1 189 0
 412 00b2 A263     		str	r2, [r4, #56]
 413              	.LBB60:
 414              		.loc 1 193 0
 415 00b4 C31A     		subs	r3, r0, r3
 416 00b6 0298     		ldr	r0, [sp, #8]
 417              	.LBE60:
 418              		.loc 1 190 0
 419 00b8 E163     		str	r1, [r4, #60]
 420              	.LVL11:
 421              	.LBB61:
 422              		.loc 1 193 0
 423 00ba A9EB0209 		sub	r9, r9, r2
 424 00be A8EB0108 		sub	r8, r8, r1
 425 00c2 2064     		str	r0, [r4, #64]
 426              	.LVL12:
 427              	.LBE61:
 428              		.loc 1 196 0
 429 00c4 8022     		movs	r2, #128
 430 00c6 5449     		ldr	r1, .L36+12
 431              	.LBB62:
 432              		.loc 1 193 0
 433 00c8 C4F85C80 		str	r8, [r4, #92]
 434              	.LBE62:
 435              		.loc 1 196 0
 436 00cc 0CA8     		add	r0, sp, #48
 437              	.LBB63:
 438              		.loc 1 193 0
 439 00ce C4E91539 		strd	r3, r9, [r4, #84]
 440 00d2 C4E911EC 		strd	lr, ip, [r4, #68]
 441              	.LVL13:
 442 00d6 C4E91376 		strd	r7, r6, [r4, #76]
 443              	.LVL14:
 444              	.LBE63:
 445              		.loc 1 196 0
 446 00da FFF7FEFF 		bl	messagebus_topic_publish
 447              	.LVL15:
 448              		.loc 1 198 0
 449 00de 9BF80030 		ldrb	r3, [fp]	@ zero_extendqisi2
 450 00e2 002B     		cmp	r3, #0
 451 00e4 B3D0     		beq	.L25
 452              		.loc 1 199 0
 453 00e6 514B     		ldr	r3, .L36+32
 454 00e8 1E78     		ldrb	r6, [r3]	@ zero_extendqisi2
 455 00ea 002E     		cmp	r6, #0
 456 00ec 7DD0     		beq	.L28
ARM GAS  C:\Users\mathi\AppData\Local\Temp\ccUaA6jU.s 			page 9


 457 00ee 012E     		cmp	r6, #1
 458 00f0 ADD1     		bne	.L25
 459              	.LVL16:
 460              		.loc 1 211 0
 461 00f2 4F4B     		ldr	r3, .L36+36
 462              	.LBB64:
 463              		.loc 1 209 0
 464 00f4 276C     		ldr	r7, [r4, #64]
 465              	.LBE64:
 466              		.loc 1 211 0
 467 00f6 93F800C0 		ldrb	ip, [r3]	@ zero_extendqisi2
 468              	.LBB65:
 469              		.loc 1 209 0
 470 00fa A36C     		ldr	r3, [r4, #72]
 471 00fc DAE90206 		ldrd	r0, r6, [r10, #8]
 472              	.LBE65:
 473              		.loc 1 211 0
 474 0100 0CF1010C 		add	ip, ip, #1
 475              	.LBB66:
 476              		.loc 1 209 0
 477 0104 0344     		add	r3, r3, r0
 478              	.LBE66:
 479              		.loc 1 211 0
 480 0106 4A48     		ldr	r0, .L36+36
 481 0108 5FFA8CFC 		uxtb	ip, ip
 482              	.LBB67:
 483              		.loc 1 209 0
 484 010c DAE90012 		ldrd	r1, r2, [r10]
 485              	.LBE67:
 486              		.loc 1 211 0
 487 0110 80F800C0 		strb	ip, [r0]
 488              	.LBB68:
 489              		.loc 1 209 0
 490 0114 E06C     		ldr	r0, [r4, #76]
 491 0116 3018     		adds	r0, r6, r0
 492 0118 666D     		ldr	r6, [r4, #84]
 493 011a 0290     		str	r0, [sp, #8]
 494 011c 3944     		add	r1, r1, r7
 495 011e 676C     		ldr	r7, [r4, #68]
 496 0120 206D     		ldr	r0, [r4, #80]
 497 0122 CAF80010 		str	r1, [r10]
 498              	.LVL17:
 499 0126 B046     		mov	r8, r6
 500 0128 DAF81460 		ldr	r6, [r10, #20]
 501 012c 3A44     		add	r2, r2, r7
 502 012e DAF81070 		ldr	r7, [r10, #16]
 503 0132 B044     		add	r8, r8, r6
 504 0134 A66D     		ldr	r6, [r4, #88]
 505 0136 00EB070E 		add	lr, r0, r7
 506 013a E06D     		ldr	r0, [r4, #92]
 507 013c DAF81C70 		ldr	r7, [r10, #28]
 508 0140 B146     		mov	r9, r6
 509 0142 DAF81860 		ldr	r6, [r10, #24]
 510 0146 0744     		add	r7, r7, r0
 511 0148 0298     		ldr	r0, [sp, #8]
 512 014a CAF81C70 		str	r7, [r10, #28]
 513 014e B144     		add	r9, r9, r6
ARM GAS  C:\Users\mathi\AppData\Local\Temp\ccUaA6jU.s 			page 10


 514              	.LBE68:
 515              		.loc 1 212 0
 516 0150 BCF1640F 		cmp	ip, #100
 517              	.LBB69:
 518              		.loc 1 209 0
 519 0154 CAE90123 		strd	r2, r3, [r10, #4]
 520              	.LVL18:
 521 0158 CAE9030E 		strd	r0, lr, [r10, #12]
 522              	.LVL19:
 523 015c CAE90589 		strd	r8, r9, [r10, #20]
 524              	.LVL20:
 525              	.LBE69:
 526              		.loc 1 212 0
 527 0160 7FF475AF 		bne	.L25
 528              	.LVL21:
 529              	.LBB70:
 530              		.loc 1 214 0
 531 0164 334E     		ldr	r6, .L36+40
 532 0166 86FB01C0 		smull	ip, r0, r6, r1
 533 016a C917     		asrs	r1, r1, #31
 534 016c 0391     		str	r1, [sp, #12]
 535 016e 86FB021C 		smull	r1, ip, r6, r2
 536 0172 0399     		ldr	r1, [sp, #12]
 537 0174 C1EB6011 		rsb	r1, r1, r0, asr #5
 538 0178 0391     		str	r1, [sp, #12]
 539 017a 86FB0310 		smull	r1, r0, r6, r3
 540 017e 0299     		ldr	r1, [sp, #8]
 541 0180 D217     		asrs	r2, r2, #31
 542 0182 DB17     		asrs	r3, r3, #31
 543 0184 C2EB6C12 		rsb	r2, r2, ip, asr #5
 544 0188 8C46     		mov	ip, r1
 545 018a 86FB0C1C 		smull	r1, ip, r6, ip
 546 018e C3EB6010 		rsb	r0, r3, r0, asr #5
 547 0192 0299     		ldr	r1, [sp, #8]
 548 0194 274B     		ldr	r3, .L36+40
 549 0196 CE17     		asrs	r6, r1, #31
 550 0198 83FB0E13 		smull	r1, r3, r3, lr
 551 019c 4FEAEE7E 		asr	lr, lr, #31
 552 01a0 2449     		ldr	r1, .L36+40
 553 01a2 CEEB631E 		rsb	lr, lr, r3, asr #5
 554 01a6 234B     		ldr	r3, .L36+40
 555 01a8 C6EB6C16 		rsb	r6, r6, ip, asr #5
 556 01ac 81FB081C 		smull	r1, ip, r1, r8
 557 01b0 83FB0913 		smull	r1, r3, r3, r9
 558 01b4 1F49     		ldr	r1, .L36+40
 559 01b6 4FEAE878 		asr	r8, r8, #31
 560 01ba C8EB6C18 		rsb	r8, r8, ip, asr #5
 561 01be 4FEAE979 		asr	r9, r9, #31
 562 01c2 81FB071C 		smull	r1, ip, r1, r7
 563 01c6 FF17     		asrs	r7, r7, #31
 564 01c8 0399     		ldr	r1, [sp, #12]
 565 01ca C9EB6319 		rsb	r9, r9, r3, asr #5
 566 01ce C7EB6C13 		rsb	r3, r7, ip, asr #5
 567              	.LBE70:
 568              		.loc 1 216 0
 569 01d2 0027     		movs	r7, #0
 570              	.LBB71:
ARM GAS  C:\Users\mathi\AppData\Local\Temp\ccUaA6jU.s 			page 11


 571              		.loc 1 214 0
 572 01d4 C4E91812 		strd	r1, r2, [r4, #96]
 573              	.LVL22:
 574 01d8 C4E91A06 		strd	r0, r6, [r4, #104]
 575              	.LVL23:
 576 01dc C4E91CE8 		strd	lr, r8, [r4, #112]
 577              	.LVL24:
 578 01e0 C4E91E93 		strd	r9, r3, [r4, #120]
 579              	.LVL25:
 580              	.LBE71:
 581              		.loc 1 216 0
 582 01e4 8BF80070 		strb	r7, [fp]
 583 01e8 31E7     		b	.L25
 584              	.LVL26:
 585              	.L28:
 586              		.loc 1 201 0
 587 01ea 2022     		movs	r2, #32
 588 01ec 3146     		mov	r1, r6
 589 01ee 1248     		ldr	r0, .L36+44
 590 01f0 FFF7FEFF 		bl	memset
 591              	.LVL27:
 592              		.loc 1 202 0
 593 01f4 2022     		movs	r2, #32
 594 01f6 3146     		mov	r1, r6
 595 01f8 1048     		ldr	r0, .L36+48
 596 01fa FFF7FEFF 		bl	memset
 597              	.LVL28:
 598              		.loc 1 203 0
 599 01fe 0C4A     		ldr	r2, .L36+36
 600 0200 1670     		strb	r6, [r2]
 601              		.loc 1 204 0
 602 0202 0A4A     		ldr	r2, .L36+32
 603 0204 0123     		movs	r3, #1
 604 0206 1370     		strb	r3, [r2]
 605              		.loc 1 205 0
 606 0208 21E7     		b	.L25
 607              	.L37:
 608 020a 00BF     		.align	2
 609              	.L36:
 610 020c 00000000 		.word	ch
 611 0210 00000000 		.word	__stack_chk_guard
 612 0214 00000000 		.word	.LANCHOR1
 613 0218 00000000 		.word	.LANCHOR2
 614 021c 00000000 		.word	.LC0
 615 0220 00000000 		.word	bus
 616 0224 00000000 		.word	.LANCHOR4
 617 0228 00000000 		.word	.LANCHOR3
 618 022c 00000000 		.word	.LANCHOR6
 619 0230 00000000 		.word	.LANCHOR8
 620 0234 1F85EB51 		.word	1374389535
 621 0238 60000000 		.word	.LANCHOR2+96
 622 023c 00000000 		.word	.LANCHOR7
 623 0240 00000000 		.word	.LANCHOR5
 624              		.cfi_endproc
 625              	.LFE260:
 626              		.size	proximity_thd, .-proximity_thd
 627              		.section	.text.adc_cb,"ax",%progbits
ARM GAS  C:\Users\mathi\AppData\Local\Temp\ccUaA6jU.s 			page 12


 628              		.align	1
 629              		.p2align 4,,15
 630              		.syntax unified
 631              		.thumb
 632              		.thumb_func
 633              		.fpu fpv4-sp-d16
 634              		.type	adc_cb, %function
 635              	adc_cb:
 636              	.LFB259:
 637              		.loc 1 66 0
 638              		.cfi_startproc
 639              		@ args = 0, pretend = 0, frame = 8
 640              		@ frame_needed = 0, uses_anonymous_args = 0
 641              	.LVL29:
 642 0000 70B5     		push	{r4, r5, r6, lr}
 643              		.cfi_def_cfa_offset 16
 644              		.cfi_offset 4, -16
 645              		.cfi_offset 5, -12
 646              		.cfi_offset 6, -8
 647              		.cfi_offset 14, -4
 648              		.loc 1 73 0
 649 0002 0269     		ldr	r2, [r0, #16]
 650              	.LVL30:
 651              		.loc 1 66 0
 652 0004 454E     		ldr	r6, .L48
 653              		.loc 1 73 0
 654 0006 464B     		ldr	r3, .L48+4
 655 0008 5288     		ldrh	r2, [r2, #2]
 656              		.loc 1 66 0
 657 000a 82B0     		sub	sp, sp, #8
 658              		.cfi_def_cfa_offset 24
 659              		.loc 1 66 0
 660 000c 0546     		mov	r5, r0
 661 000e 3068     		ldr	r0, [r6]
 662              	.LVL31:
 663 0010 0190     		str	r0, [sp, #4]
 664              	.LVL32:
 665              		.loc 1 73 0
 666 0012 9200     		lsls	r2, r2, #2
 667              		.loc 1 66 0
 668 0014 0C46     		mov	r4, r1
 669              		.loc 1 73 0
 670 0016 1846     		mov	r0, r3
 671 0018 0021     		movs	r1, #0
 672              	.LVL33:
 673 001a FFF7FEFF 		bl	memset
 674              	.LVL34:
 675              	.LBB72:
 676              		.loc 1 76 0
 677 001e 2A69     		ldr	r2, [r5, #16]
 678 0020 5188     		ldrh	r1, [r2, #2]
 679 0022 0029     		cmp	r1, #0
 680 0024 57D0     		beq	.L39
 681              		.loc 1 77 0
 682 0026 2188     		ldrh	r1, [r4]
 683 0028 0160     		str	r1, [r0]
 684              	.LVL35:
ARM GAS  C:\Users\mathi\AppData\Local\Temp\ccUaA6jU.s 			page 13


 685              		.loc 1 76 0
 686 002a 5188     		ldrh	r1, [r2, #2]
 687 002c 0129     		cmp	r1, #1
 688 002e 52D9     		bls	.L39
 689              		.loc 1 77 0
 690 0030 6188     		ldrh	r1, [r4, #2]
 691 0032 4160     		str	r1, [r0, #4]
 692              	.LVL36:
 693              		.loc 1 76 0
 694 0034 5188     		ldrh	r1, [r2, #2]
 695 0036 0229     		cmp	r1, #2
 696 0038 4DD9     		bls	.L39
 697              		.loc 1 77 0
 698 003a A188     		ldrh	r1, [r4, #4]
 699 003c 8160     		str	r1, [r0, #8]
 700              	.LVL37:
 701              		.loc 1 76 0
 702 003e 5188     		ldrh	r1, [r2, #2]
 703 0040 0329     		cmp	r1, #3
 704 0042 48D9     		bls	.L39
 705              		.loc 1 77 0
 706 0044 E188     		ldrh	r1, [r4, #6]
 707 0046 C160     		str	r1, [r0, #12]
 708              	.LVL38:
 709              		.loc 1 76 0
 710 0048 5288     		ldrh	r2, [r2, #2]
 711 004a 042A     		cmp	r2, #4
 712 004c 43D9     		bls	.L39
 713              		.loc 1 77 0
 714 004e 2289     		ldrh	r2, [r4, #8]
 715 0050 0261     		str	r2, [r0, #16]
 716              	.LVL39:
 717              		.loc 1 76 0
 718 0052 2A69     		ldr	r2, [r5, #16]
 719 0054 5288     		ldrh	r2, [r2, #2]
 720 0056 052A     		cmp	r2, #5
 721 0058 3DD9     		bls	.L39
 722              		.loc 1 77 0
 723 005a 6289     		ldrh	r2, [r4, #10]
 724 005c 4261     		str	r2, [r0, #20]
 725              	.LVL40:
 726              		.loc 1 76 0
 727 005e 2A69     		ldr	r2, [r5, #16]
 728 0060 5288     		ldrh	r2, [r2, #2]
 729 0062 062A     		cmp	r2, #6
 730 0064 37D9     		bls	.L39
 731              		.loc 1 77 0
 732 0066 A289     		ldrh	r2, [r4, #12]
 733 0068 8261     		str	r2, [r0, #24]
 734              	.LVL41:
 735              		.loc 1 76 0
 736 006a 2A69     		ldr	r2, [r5, #16]
 737 006c 5288     		ldrh	r2, [r2, #2]
 738 006e 072A     		cmp	r2, #7
 739 0070 31D9     		bls	.L39
 740              		.loc 1 77 0
 741 0072 E289     		ldrh	r2, [r4, #14]
ARM GAS  C:\Users\mathi\AppData\Local\Temp\ccUaA6jU.s 			page 14


 742 0074 C261     		str	r2, [r0, #28]
 743              	.LVL42:
 744              		.loc 1 76 0
 745 0076 2A69     		ldr	r2, [r5, #16]
 746 0078 5288     		ldrh	r2, [r2, #2]
 747 007a 082A     		cmp	r2, #8
 748 007c 2BD9     		bls	.L39
 749              		.loc 1 77 0
 750 007e 228A     		ldrh	r2, [r4, #16]
 751 0080 0262     		str	r2, [r0, #32]
 752              	.LVL43:
 753              		.loc 1 76 0
 754 0082 2A69     		ldr	r2, [r5, #16]
 755 0084 5288     		ldrh	r2, [r2, #2]
 756 0086 092A     		cmp	r2, #9
 757 0088 25D9     		bls	.L39
 758              		.loc 1 77 0
 759 008a 628A     		ldrh	r2, [r4, #18]
 760 008c 4262     		str	r2, [r0, #36]
 761              	.LVL44:
 762              		.loc 1 76 0
 763 008e 2A69     		ldr	r2, [r5, #16]
 764 0090 5288     		ldrh	r2, [r2, #2]
 765 0092 0A2A     		cmp	r2, #10
 766 0094 1FD9     		bls	.L39
 767              		.loc 1 77 0
 768 0096 A28A     		ldrh	r2, [r4, #20]
 769 0098 8262     		str	r2, [r0, #40]
 770              	.LVL45:
 771              		.loc 1 76 0
 772 009a 2A69     		ldr	r2, [r5, #16]
 773 009c 5288     		ldrh	r2, [r2, #2]
 774 009e 0B2A     		cmp	r2, #11
 775 00a0 19D9     		bls	.L39
 776              		.loc 1 77 0
 777 00a2 E28A     		ldrh	r2, [r4, #22]
 778 00a4 C262     		str	r2, [r0, #44]
 779              	.LVL46:
 780              		.loc 1 76 0
 781 00a6 2A69     		ldr	r2, [r5, #16]
 782 00a8 5288     		ldrh	r2, [r2, #2]
 783 00aa 0C2A     		cmp	r2, #12
 784 00ac 13D9     		bls	.L39
 785              		.loc 1 77 0
 786 00ae 228B     		ldrh	r2, [r4, #24]
 787 00b0 0263     		str	r2, [r0, #48]
 788              	.LVL47:
 789              		.loc 1 76 0
 790 00b2 2A69     		ldr	r2, [r5, #16]
 791 00b4 5288     		ldrh	r2, [r2, #2]
 792 00b6 0D2A     		cmp	r2, #13
 793 00b8 0DD9     		bls	.L39
 794              		.loc 1 77 0
 795 00ba 628B     		ldrh	r2, [r4, #26]
 796 00bc 4263     		str	r2, [r0, #52]
 797              	.LVL48:
 798              		.loc 1 76 0
ARM GAS  C:\Users\mathi\AppData\Local\Temp\ccUaA6jU.s 			page 15


 799 00be 2A69     		ldr	r2, [r5, #16]
 800 00c0 5288     		ldrh	r2, [r2, #2]
 801 00c2 0E2A     		cmp	r2, #14
 802 00c4 07D9     		bls	.L39
 803              		.loc 1 77 0
 804 00c6 A28B     		ldrh	r2, [r4, #28]
 805 00c8 8263     		str	r2, [r0, #56]
 806              	.LVL49:
 807              		.loc 1 76 0
 808 00ca 2A69     		ldr	r2, [r5, #16]
 809 00cc 5288     		ldrh	r2, [r2, #2]
 810 00ce 0F2A     		cmp	r2, #15
 811              		.loc 1 77 0
 812 00d0 84BF     		itt	hi
 813 00d2 E28B     		ldrhhi	r2, [r4, #30]
 814 00d4 C263     		strhi	r2, [r0, #60]
 815              	.LVL50:
 816              	.L39:
 817              	.LBE72:
 818              	.LBB73:
 819              	.LBB74:
 820              	.LBB75:
 821              	.LBB76:
 822              	.LBB77:
 823              	.LBB78:
 824              		.file 4 "../../lib/e-puck2_main-processor/ChibiOS//os/ext/CMSIS/include/core_cmFunc.h"
 825              		.loc 4 546 0
 826 00d6 2023     		movs	r3, #32
 827              		.syntax unified
 828              	@ 546 "../../lib/e-puck2_main-processor/ChibiOS//os/ext/CMSIS/include/core_cmFunc.h" 1
 829 00d8 83F31188 		MSR basepri, r3
 830              	@ 0 "" 2
 831              	.LVL51:
 832              		.thumb
 833              		.syntax unified
 834              	.LBE78:
 835              	.LBE77:
 836              	.LBE76:
 837              	.LBE75:
 838              		.file 5 "../../lib/e-puck2_main-processor/ChibiOS//os/rt/include/chsys.h"
 839              		.loc 5 389 0
 840 00dc FFF7FEFF 		bl	_stats_start_measure_crit_isr
 841              	.LVL52:
 842              		.loc 5 390 0
 843 00e0 FFF7FEFF 		bl	_dbg_check_lock_from_isr
 844              	.LVL53:
 845              	.LBE74:
 846              	.LBE73:
 847              	.LBB79:
 848              	.LBB80:
 849              		.loc 3 268 0
 850 00e4 FFF7FEFF 		bl	chDbgCheckClassI
 851              	.LVL54:
 852              		.loc 3 270 0
 853 00e8 0E48     		ldr	r0, .L48+8
 854 00ea 8368     		ldr	r3, [r0, #8]
 855 00ec 002B     		cmp	r3, #0
ARM GAS  C:\Users\mathi\AppData\Local\Temp\ccUaA6jU.s 			page 16


 856 00ee 0FDD     		ble	.L46
 857              	.L40:
 858              	.LVL55:
 859              	.LBE80:
 860              	.LBE79:
 861              	.LBB82:
 862              	.LBB83:
 863              		.loc 5 408 0
 864 00f0 FFF7FEFF 		bl	_dbg_check_unlock_from_isr
 865              	.LVL56:
 866              		.loc 5 409 0
 867 00f4 FFF7FEFF 		bl	_stats_stop_measure_crit_isr
 868              	.LVL57:
 869              	.LBB84:
 870              	.LBB85:
 871              	.LBB86:
 872              	.LBB87:
 873              		.loc 4 546 0
 874 00f8 0023     		movs	r3, #0
 875              		.syntax unified
 876              	@ 546 "../../lib/e-puck2_main-processor/ChibiOS//os/ext/CMSIS/include/core_cmFunc.h" 1
 877 00fa 83F31188 		MSR basepri, r3
 878              	@ 0 "" 2
 879              	.LVL58:
 880              		.thumb
 881              		.syntax unified
 882              	.LBE87:
 883              	.LBE86:
 884              	.LBE85:
 885              	.LBE84:
 886              	.LBE83:
 887              	.LBE82:
 888              		.loc 1 86 0
 889 00fe 019A     		ldr	r2, [sp, #4]
 890 0100 3368     		ldr	r3, [r6]
 891              		.loc 1 85 0
 892 0102 0949     		ldr	r1, .L48+12
 893 0104 0120     		movs	r0, #1
 894              		.loc 1 86 0
 895 0106 9A42     		cmp	r2, r3
 896              		.loc 1 85 0
 897 0108 0870     		strb	r0, [r1]
 898              		.loc 1 86 0
 899 010a 04D1     		bne	.L47
 900 010c 02B0     		add	sp, sp, #8
 901              		.cfi_remember_state
 902              		.cfi_def_cfa_offset 16
 903              		@ sp needed
 904 010e 70BD     		pop	{r4, r5, r6, pc}
 905              	.LVL59:
 906              	.L46:
 907              		.cfi_restore_state
 908              	.LBB88:
 909              	.LBB81:
 910              		.loc 3 271 0
 911 0110 FFF7FEFF 		bl	chSemSignalI
 912              	.LVL60:
ARM GAS  C:\Users\mathi\AppData\Local\Temp\ccUaA6jU.s 			page 17


 913 0114 ECE7     		b	.L40
 914              	.LVL61:
 915              	.L47:
 916              	.LBE81:
 917              	.LBE88:
 918              		.loc 1 86 0
 919 0116 FFF7FEFF 		bl	__stack_chk_fail
 920              	.LVL62:
 921              	.L49:
 922 011a 00BF     		.align	2
 923              	.L48:
 924 011c 00000000 		.word	__stack_chk_guard
 925 0120 00000000 		.word	.LANCHOR4
 926 0124 00000000 		.word	.LANCHOR3
 927 0128 00000000 		.word	.LANCHOR0
 928              		.cfi_endproc
 929              	.LFE259:
 930              		.size	adc_cb, .-adc_cb
 931              		.section	.text.proximity_start,"ax",%progbits
 932              		.align	1
 933              		.p2align 4,,15
 934              		.global	proximity_start
 935              		.syntax unified
 936              		.thumb
 937              		.thumb_func
 938              		.fpu fpv4-sp-d16
 939              		.type	proximity_start, %function
 940              	proximity_start:
 941              	.LFB263:
 942              		.loc 1 290 0
 943              		.cfi_startproc
 944              		@ args = 0, pretend = 0, frame = 8
 945              		@ frame_needed = 0, uses_anonymous_args = 0
 946 0000 70B5     		push	{r4, r5, r6, lr}
 947              		.cfi_def_cfa_offset 16
 948              		.cfi_offset 4, -16
 949              		.cfi_offset 5, -12
 950              		.cfi_offset 6, -8
 951              		.cfi_offset 14, -4
 952              		.loc 1 291 0
 953 0002 1F4D     		ldr	r5, .L56
 954              		.loc 1 290 0
 955 0004 1F4C     		ldr	r4, .L56+4
 956              		.loc 1 291 0
 957 0006 2E78     		ldrb	r6, [r5]	@ zero_extendqisi2
 958              		.loc 1 290 0
 959 0008 2368     		ldr	r3, [r4]
 960 000a 84B0     		sub	sp, sp, #16
 961              		.cfi_def_cfa_offset 32
 962              		.loc 1 291 0
 963 000c 012E     		cmp	r6, #1
 964              		.loc 1 290 0
 965 000e 0393     		str	r3, [sp, #12]
 966              		.loc 1 291 0
 967 0010 05D0     		beq	.L54
 968              	.L50:
 969              		.loc 1 328 0
ARM GAS  C:\Users\mathi\AppData\Local\Temp\ccUaA6jU.s 			page 18


 970 0012 039A     		ldr	r2, [sp, #12]
 971 0014 2368     		ldr	r3, [r4]
 972 0016 9A42     		cmp	r2, r3
 973 0018 2FD1     		bne	.L55
 974 001a 04B0     		add	sp, sp, #16
 975              		.cfi_remember_state
 976              		.cfi_def_cfa_offset 16
 977              		@ sp needed
 978 001c 70BD     		pop	{r4, r5, r6, pc}
 979              	.L54:
 980              		.cfi_restore_state
 981              		.loc 1 313 0
 982 001e 0021     		movs	r1, #0
 983 0020 2846     		mov	r0, r5
 984 0022 FFF7FEFF 		bl	adcStart
 985              	.LVL63:
 986              		.loc 1 314 0
 987 0026 2846     		mov	r0, r5
 988 0028 FFF7FEFF 		bl	adcAcquireBus
 989              	.LVL64:
 990              		.loc 1 316 0
 991 002c 3346     		mov	r3, r6
 992 002e 2846     		mov	r0, r5
 993 0030 154A     		ldr	r2, .L56+8
 994 0032 1649     		ldr	r1, .L56+12
 995 0034 FFF7FEFF 		bl	adcStartConversion
 996              	.LVL65:
 997              		.loc 1 319 0
 998 0038 1549     		ldr	r1, .L56+16
 999 003a 1648     		ldr	r0, .L56+20
 1000 003c FFF7FEFF 		bl	pwmStart
 1001              	.LVL66:
 1002              		.loc 1 321 0
 1003 0040 4FF49672 		mov	r2, #300
 1004 0044 0021     		movs	r1, #0
 1005 0046 1348     		ldr	r0, .L56+20
 1006 0048 FFF7FEFF 		bl	pwmEnableChannel
 1007              	.LVL67:
 1008              		.loc 1 322 0
 1009 004c 0021     		movs	r1, #0
 1010 004e 1148     		ldr	r0, .L56+20
 1011 0050 FFF7FEFF 		bl	pwmEnableChannelNotification
 1012              	.LVL68:
 1013              		.loc 1 323 0
 1014 0054 0F48     		ldr	r0, .L56+20
 1015 0056 FFF7FEFF 		bl	pwmEnablePeriodicNotification
 1016              	.LVL69:
 1017              		.loc 1 324 0
 1018 005a 3146     		mov	r1, r6
 1019 005c 4FF48272 		mov	r2, #260
 1020 0060 0C48     		ldr	r0, .L56+20
 1021 0062 FFF7FEFF 		bl	pwmEnableChannel
 1022              	.LVL70:
 1023              		.loc 1 326 0
 1024 0066 0023     		movs	r3, #0
 1025 0068 0093     		str	r3, [sp]
 1026 006a 4022     		movs	r2, #64
ARM GAS  C:\Users\mathi\AppData\Local\Temp\ccUaA6jU.s 			page 19


 1027 006c 0A4B     		ldr	r3, .L56+24
 1028 006e 0B48     		ldr	r0, .L56+28
 1029 0070 4FF41E71 		mov	r1, #632
 1030 0074 FFF7FEFF 		bl	chThdCreateStatic
 1031              	.LVL71:
 1032 0078 CBE7     		b	.L50
 1033              	.L55:
 1034              		.loc 1 328 0
 1035 007a FFF7FEFF 		bl	__stack_chk_fail
 1036              	.LVL72:
 1037              	.L57:
 1038 007e 00BF     		.align	2
 1039              	.L56:
 1040 0080 00000000 		.word	ADCD2
 1041 0084 00000000 		.word	__stack_chk_guard
 1042 0088 00000000 		.word	.LANCHOR9
 1043 008c 00000000 		.word	.LANCHOR10
 1044 0090 00000000 		.word	.LANCHOR11
 1045 0094 00000000 		.word	PWMD2
 1046 0098 00000000 		.word	proximity_thd
 1047 009c 00000000 		.word	.LANCHOR12
 1048              		.cfi_endproc
 1049              	.LFE263:
 1050              		.size	proximity_start, .-proximity_start
 1051              		.section	.text.calibrate_ir,"ax",%progbits
 1052              		.align	1
 1053              		.p2align 4,,15
 1054              		.global	calibrate_ir
 1055              		.syntax unified
 1056              		.thumb
 1057              		.thumb_func
 1058              		.fpu fpv4-sp-d16
 1059              		.type	calibrate_ir, %function
 1060              	calibrate_ir:
 1061              	.LFB264:
 1062              		.loc 1 330 0
 1063              		.cfi_startproc
 1064              		@ args = 0, pretend = 0, frame = 8
 1065              		@ frame_needed = 0, uses_anonymous_args = 0
 1066 0000 30B5     		push	{r4, r5, lr}
 1067              		.cfi_def_cfa_offset 12
 1068              		.cfi_offset 4, -12
 1069              		.cfi_offset 5, -8
 1070              		.cfi_offset 14, -4
 1071 0002 0C4D     		ldr	r5, .L64
 1072              		.loc 1 331 0
 1073 0004 0C4A     		ldr	r2, .L64+4
 1074              		.loc 1 330 0
 1075 0006 2B68     		ldr	r3, [r5]
 1076              		.loc 1 332 0
 1077 0008 0C4C     		ldr	r4, .L64+8
 1078              		.loc 1 330 0
 1079 000a 83B0     		sub	sp, sp, #12
 1080              		.cfi_def_cfa_offset 24
 1081              		.loc 1 331 0
 1082 000c 0021     		movs	r1, #0
 1083              		.loc 1 330 0
ARM GAS  C:\Users\mathi\AppData\Local\Temp\ccUaA6jU.s 			page 20


 1084 000e 0193     		str	r3, [sp, #4]
 1085              		.loc 1 332 0
 1086 0010 0123     		movs	r3, #1
 1087              		.loc 1 331 0
 1088 0012 1170     		strb	r1, [r2]
 1089              		.loc 1 332 0
 1090 0014 2370     		strb	r3, [r4]
 1091              	.L59:
 1092              		.loc 1 334 0
 1093 0016 1420     		movs	r0, #20
 1094 0018 FFF7FEFF 		bl	chThdSleep
 1095              	.LVL73:
 1096              		.loc 1 333 0
 1097 001c 2378     		ldrb	r3, [r4]	@ zero_extendqisi2
 1098 001e 002B     		cmp	r3, #0
 1099 0020 F9D1     		bne	.L59
 1100              		.loc 1 336 0
 1101 0022 019A     		ldr	r2, [sp, #4]
 1102 0024 2B68     		ldr	r3, [r5]
 1103 0026 9A42     		cmp	r2, r3
 1104 0028 01D1     		bne	.L63
 1105 002a 03B0     		add	sp, sp, #12
 1106              		.cfi_remember_state
 1107              		.cfi_def_cfa_offset 12
 1108              		@ sp needed
 1109 002c 30BD     		pop	{r4, r5, pc}
 1110              	.L63:
 1111              		.cfi_restore_state
 1112 002e FFF7FEFF 		bl	__stack_chk_fail
 1113              	.LVL74:
 1114              	.L65:
 1115 0032 00BF     		.align	2
 1116              	.L64:
 1117 0034 00000000 		.word	__stack_chk_guard
 1118 0038 00000000 		.word	.LANCHOR6
 1119 003c 00000000 		.word	.LANCHOR5
 1120              		.cfi_endproc
 1121              	.LFE264:
 1122              		.size	calibrate_ir, .-calibrate_ir
 1123              		.section	.text.get_prox,"ax",%progbits
 1124              		.align	1
 1125              		.p2align 4,,15
 1126              		.global	get_prox
 1127              		.syntax unified
 1128              		.thumb
 1129              		.thumb_func
 1130              		.fpu fpv4-sp-d16
 1131              		.type	get_prox, %function
 1132              	get_prox:
 1133              	.LFB265:
 1134              		.loc 1 338 0
 1135              		.cfi_startproc
 1136              		@ args = 0, pretend = 0, frame = 8
 1137              		@ frame_needed = 0, uses_anonymous_args = 0
 1138              	.LVL75:
 1139 0000 00B5     		push	{lr}
 1140              		.cfi_def_cfa_offset 4
ARM GAS  C:\Users\mathi\AppData\Local\Temp\ccUaA6jU.s 			page 21


 1141              		.cfi_offset 14, -4
 1142 0002 0A4B     		ldr	r3, .L72
 1143 0004 83B0     		sub	sp, sp, #12
 1144              		.cfi_def_cfa_offset 16
 1145              		.loc 1 338 0
 1146 0006 1A68     		ldr	r2, [r3]
 1147 0008 0192     		str	r2, [sp, #4]
 1148              		.loc 1 339 0
 1149 000a 0728     		cmp	r0, #7
 1150              		.loc 1 342 0
 1151 000c 9BBF     		ittet	ls
 1152 000e 084A     		ldrls	r2, .L72+4
 1153 0010 1030     		addls	r0, r0, #16
 1154              	.LVL76:
 1155              		.loc 1 340 0
 1156 0012 0020     		movhi	r0, #0
 1157              		.loc 1 342 0
 1158 0014 52F82000 		ldrls	r0, [r2, r0, lsl #2]
 1159              		.loc 1 344 0
 1160 0018 019A     		ldr	r2, [sp, #4]
 1161 001a 1B68     		ldr	r3, [r3]
 1162 001c 9A42     		cmp	r2, r3
 1163 001e 02D1     		bne	.L71
 1164 0020 03B0     		add	sp, sp, #12
 1165              		.cfi_remember_state
 1166              		.cfi_def_cfa_offset 4
 1167              		@ sp needed
 1168 0022 5DF804FB 		ldr	pc, [sp], #4
 1169              	.L71:
 1170              		.cfi_restore_state
 1171 0026 FFF7FEFF 		bl	__stack_chk_fail
 1172              	.LVL77:
 1173              	.L73:
 1174 002a 00BF     		.align	2
 1175              	.L72:
 1176 002c 00000000 		.word	__stack_chk_guard
 1177 0030 00000000 		.word	.LANCHOR2
 1178              		.cfi_endproc
 1179              	.LFE265:
 1180              		.size	get_prox, .-get_prox
 1181              		.section	.text.get_calibrated_prox,"ax",%progbits
 1182              		.align	1
 1183              		.p2align 4,,15
 1184              		.global	get_calibrated_prox
 1185              		.syntax unified
 1186              		.thumb
 1187              		.thumb_func
 1188              		.fpu fpv4-sp-d16
 1189              		.type	get_calibrated_prox, %function
 1190              	get_calibrated_prox:
 1191              	.LFB266:
 1192              		.loc 1 346 0
 1193              		.cfi_startproc
 1194              		@ args = 0, pretend = 0, frame = 8
 1195              		@ frame_needed = 0, uses_anonymous_args = 0
 1196              	.LVL78:
 1197 0000 10B5     		push	{r4, lr}
ARM GAS  C:\Users\mathi\AppData\Local\Temp\ccUaA6jU.s 			page 22


 1198              		.cfi_def_cfa_offset 8
 1199              		.cfi_offset 4, -8
 1200              		.cfi_offset 14, -4
 1201 0002 0E4A     		ldr	r2, .L80
 1202 0004 82B0     		sub	sp, sp, #8
 1203              		.cfi_def_cfa_offset 16
 1204              		.loc 1 346 0
 1205 0006 1368     		ldr	r3, [r2]
 1206 0008 0193     		str	r3, [sp, #4]
 1207              		.loc 1 348 0
 1208 000a 0728     		cmp	r0, #7
 1209 000c 11D8     		bhi	.L77
 1210              	.LVL79:
 1211              		.loc 1 351 0
 1212 000e 0C49     		ldr	r1, .L80+4
 1213 0010 00F11803 		add	r3, r0, #24
 1214              	.LVL80:
 1215 0014 00F11004 		add	r4, r0, #16
 1216              	.LVL81:
 1217 0018 51F82330 		ldr	r3, [r1, r3, lsl #2]
 1218              	.LVL82:
 1219 001c 51F82400 		ldr	r0, [r1, r4, lsl #2]
 1220              	.LVL83:
 1221 0020 C01A     		subs	r0, r0, r3
 1222 0022 20EAE070 		bic	r0, r0, r0, asr #31
 1223              	.LVL84:
 1224              	.L74:
 1225              		.loc 1 358 0
 1226 0026 0199     		ldr	r1, [sp, #4]
 1227 0028 1368     		ldr	r3, [r2]
 1228 002a 9942     		cmp	r1, r3
 1229 002c 03D1     		bne	.L79
 1230 002e 02B0     		add	sp, sp, #8
 1231              		.cfi_remember_state
 1232              		.cfi_def_cfa_offset 8
 1233              		@ sp needed
 1234 0030 10BD     		pop	{r4, pc}
 1235              	.LVL85:
 1236              	.L77:
 1237              		.cfi_restore_state
 1238              		.loc 1 349 0
 1239 0032 0020     		movs	r0, #0
 1240              	.LVL86:
 1241 0034 F7E7     		b	.L74
 1242              	.L79:
 1243              		.loc 1 358 0
 1244 0036 FFF7FEFF 		bl	__stack_chk_fail
 1245              	.LVL87:
 1246              	.L81:
 1247 003a 00BF     		.align	2
 1248              	.L80:
 1249 003c 00000000 		.word	__stack_chk_guard
 1250 0040 00000000 		.word	.LANCHOR2
 1251              		.cfi_endproc
 1252              	.LFE266:
 1253              		.size	get_calibrated_prox, .-get_calibrated_prox
 1254              		.section	.text.get_ambient_light,"ax",%progbits
ARM GAS  C:\Users\mathi\AppData\Local\Temp\ccUaA6jU.s 			page 23


 1255              		.align	1
 1256              		.p2align 4,,15
 1257              		.global	get_ambient_light
 1258              		.syntax unified
 1259              		.thumb
 1260              		.thumb_func
 1261              		.fpu fpv4-sp-d16
 1262              		.type	get_ambient_light, %function
 1263              	get_ambient_light:
 1264              	.LFB267:
 1265              		.loc 1 360 0
 1266              		.cfi_startproc
 1267              		@ args = 0, pretend = 0, frame = 8
 1268              		@ frame_needed = 0, uses_anonymous_args = 0
 1269              	.LVL88:
 1270 0000 00B5     		push	{lr}
 1271              		.cfi_def_cfa_offset 4
 1272              		.cfi_offset 14, -4
 1273 0002 0A4B     		ldr	r3, .L88
 1274 0004 83B0     		sub	sp, sp, #12
 1275              		.cfi_def_cfa_offset 16
 1276              		.loc 1 360 0
 1277 0006 1A68     		ldr	r2, [r3]
 1278 0008 0192     		str	r2, [sp, #4]
 1279              		.loc 1 361 0
 1280 000a 0728     		cmp	r0, #7
 1281              		.loc 1 364 0
 1282 000c 9CBF     		itt	ls
 1283 000e 084A     		ldrls	r2, .L88+4
 1284 0010 52F82000 		ldrls	r0, [r2, r0, lsl #2]
 1285              	.LVL89:
 1286              		.loc 1 366 0
 1287 0014 019A     		ldr	r2, [sp, #4]
 1288 0016 1B68     		ldr	r3, [r3]
 1289              		.loc 1 362 0
 1290 0018 88BF     		it	hi
 1291 001a 0020     		movhi	r0, #0
 1292              		.loc 1 366 0
 1293 001c 9A42     		cmp	r2, r3
 1294 001e 02D1     		bne	.L87
 1295 0020 03B0     		add	sp, sp, #12
 1296              		.cfi_remember_state
 1297              		.cfi_def_cfa_offset 4
 1298              		@ sp needed
 1299 0022 5DF804FB 		ldr	pc, [sp], #4
 1300              	.L87:
 1301              		.cfi_restore_state
 1302 0026 FFF7FEFF 		bl	__stack_chk_fail
 1303              	.LVL90:
 1304              	.L89:
 1305 002a 00BF     		.align	2
 1306              	.L88:
 1307 002c 00000000 		.word	__stack_chk_guard
 1308 0030 00000000 		.word	.LANCHOR2
 1309              		.cfi_endproc
 1310              	.LFE267:
 1311              		.size	get_ambient_light, .-get_ambient_light
ARM GAS  C:\Users\mathi\AppData\Local\Temp\ccUaA6jU.s 			page 24


 1312              		.section	.bss.adc2_proximity_samples,"aw",%nobits
 1313              		.align	2
 1314              		.set	.LANCHOR9,. + 0
 1315              		.type	adc2_proximity_samples, %object
 1316              		.size	adc2_proximity_samples, 32
 1317              	adc2_proximity_samples:
 1318 0000 00000000 		.space	32
 1318      00000000 
 1318      00000000 
 1318      00000000 
 1318      00000000 
 1319              		.section	.bss.adc2_values,"aw",%nobits
 1320              		.align	2
 1321              		.set	.LANCHOR4,. + 0
 1322              		.type	adc2_values, %object
 1323              		.size	adc2_values, 64
 1324              	adc2_values:
 1325 0000 00000000 		.space	64
 1325      00000000 
 1325      00000000 
 1325      00000000 
 1325      00000000 
 1326              		.section	.bss.calibrationInProgress,"aw",%nobits
 1327              		.set	.LANCHOR5,. + 0
 1328              		.type	calibrationInProgress, %object
 1329              		.size	calibrationInProgress, 1
 1330              	calibrationInProgress:
 1331 0000 00       		.space	1
 1332              		.section	.bss.calibrationNumSamples,"aw",%nobits
 1333              		.set	.LANCHOR8,. + 0
 1334              		.type	calibrationNumSamples, %object
 1335              		.size	calibrationNumSamples, 1
 1336              	calibrationNumSamples:
 1337 0000 00       		.space	1
 1338              		.section	.bss.calibrationState,"aw",%nobits
 1339              		.set	.LANCHOR6,. + 0
 1340              		.type	calibrationState, %object
 1341              		.size	calibrationState, 1
 1342              	calibrationState:
 1343 0000 00       		.space	1
 1344              		.section	.bss.calibrationSum,"aw",%nobits
 1345              		.align	2
 1346              		.set	.LANCHOR7,. + 0
 1347              		.type	calibrationSum, %object
 1348              		.size	calibrationSum, 32
 1349              	calibrationSum:
 1350 0000 00000000 		.space	32
 1350      00000000 
 1350      00000000 
 1350      00000000 
 1350      00000000 
 1351              		.section	.bss.prox_values,"aw",%nobits
 1352              		.align	2
 1353              		.set	.LANCHOR2,. + 0
 1354              		.type	prox_values, %object
 1355              		.size	prox_values, 128
 1356              	prox_values:
ARM GAS  C:\Users\mathi\AppData\Local\Temp\ccUaA6jU.s 			page 25


 1357 0000 00000000 		.space	128
 1357      00000000 
 1357      00000000 
 1357      00000000 
 1357      00000000 
 1358              		.section	.bss.proximity_thd_wa,"aw",%nobits
 1359              		.align	3
 1360              		.set	.LANCHOR12,. + 0
 1361              		.type	proximity_thd_wa, %object
 1362              		.size	proximity_thd_wa, 632
 1363              	proximity_thd_wa:
 1364 0000 00000000 		.space	632
 1364      00000000 
 1364      00000000 
 1364      00000000 
 1364      00000000 
 1365              		.section	.bss.pulseSeqState,"aw",%nobits
 1366              		.set	.LANCHOR0,. + 0
 1367              		.type	pulseSeqState, %object
 1368              		.size	pulseSeqState, 1
 1369              	pulseSeqState:
 1370 0000 00       		.space	1
 1371              		.section	.data.adc2_ready,"aw",%progbits
 1372              		.align	2
 1373              		.set	.LANCHOR3,. + 0
 1374              		.type	adc2_ready, %object
 1375              		.size	adc2_ready, 12
 1376              	adc2_ready:
 1377 0000 00000000 		.word	adc2_ready
 1378 0004 00000000 		.word	adc2_ready
 1379 0008 00000000 		.word	0
 1380              		.section	.rodata.__FUNCTION__.12264,"a",%progbits
 1381              		.align	2
 1382              		.set	.LANCHOR1,. + 0
 1383              		.type	__FUNCTION__.12264, %object
 1384              		.size	__FUNCTION__.12264, 14
 1385              	__FUNCTION__.12264:
 1386 0000 70726F78 		.ascii	"proximity_thd\000"
 1386      696D6974 
 1386      795F7468 
 1386      6400
 1387              		.section	.rodata.adcgrpcfg2,"a",%progbits
 1388              		.align	2
 1389              		.set	.LANCHOR10,. + 0
 1390              		.type	adcgrpcfg2, %object
 1391              		.size	adcgrpcfg2, 40
 1392              	adcgrpcfg2:
 1393 0000 01       		.byte	1
 1394 0001 00       		.space	1
 1395 0002 1000     		.short	16
 1396 0004 00000000 		.word	adc_cb
 1397 0008 00000000 		.word	0
 1398 000c 00280000 		.word	10240
 1399 0010 00000023 		.word	587202560
 1400 0014 6DDB0200 		.word	187245
 1401 0018 6DDBB62D 		.word	766958445
 1402 001c 6FBDF500 		.word	16104815
ARM GAS  C:\Users\mathi\AppData\Local\Temp\ccUaA6jU.s 			page 26


 1403 0020 0D39E514 		.word	350566669
 1404 0024 2CB1D410 		.word	282374444
 1405              		.section	.rodata.proximity_thd.str1.4,"aMS",%progbits,1
 1406              		.align	2
 1407              	.LC0:
 1408 0000 2F70726F 		.ascii	"/proximity\000"
 1408      78696D69 
 1408      747900
 1409              		.section	.rodata.pwmcfg_proximity.12303,"a",%progbits
 1410              		.align	2
 1411              		.set	.LANCHOR11,. + 0
 1412              		.type	pwmcfg_proximity.12303, %object
 1413              		.size	pwmcfg_proximity.12303, 52
 1414              	pwmcfg_proximity.12303:
 1415 0000 40420F00 		.word	1000000
 1416 0004 E2040000 		.word	1250
 1417 0008 00000000 		.word	pwm_reset_cb
 1418 000c 01000000 		.word	1
 1419 0010 00000000 		.word	pwm_ch1_cb
 1420 0014 01000000 		.word	1
 1421 0018 00000000 		.word	0
 1422 001c 00000000 		.word	0
 1423 0020 00000000 		.word	0
 1424 0024 00000000 		.word	0
 1425 0028 00000000 		.word	0
 1426 002c 00000000 		.word	0
 1427 0030 00000000 		.space	4
 1428              		.text
 1429              	.Letext0:
 1430              		.file 6 "c:\\eclipse_e-puck2\\tools\\gcc-arm-none-eabi-7-2017-q4-major-win32\\arm-none-eabi\\inclu
 1431              		.file 7 "c:\\eclipse_e-puck2\\tools\\gcc-arm-none-eabi-7-2017-q4-major-win32\\lib\\gcc\\arm-none-e
 1432              		.file 8 "c:\\eclipse_e-puck2\\tools\\gcc-arm-none-eabi-7-2017-q4-major-win32\\arm-none-eabi\\inclu
 1433              		.file 9 "c:\\eclipse_e-puck2\\tools\\gcc-arm-none-eabi-7-2017-q4-major-win32\\arm-none-eabi\\inclu
 1434              		.file 10 "c:\\eclipse_e-puck2\\tools\\gcc-arm-none-eabi-7-2017-q4-major-win32\\arm-none-eabi\\incl
 1435              		.file 11 "c:\\eclipse_e-puck2\\tools\\gcc-arm-none-eabi-7-2017-q4-major-win32\\arm-none-eabi\\incl
 1436              		.file 12 "../../lib/e-puck2_main-processor/ChibiOS//os/rt/ports/ARMCMx/compilers/GCC/chtypes.h"
 1437              		.file 13 "../../lib/e-puck2_main-processor/ChibiOS//os/rt/include/chsystypes.h"
 1438              		.file 14 "../../lib/e-puck2_main-processor/ChibiOS//os/rt/include/chschd.h"
 1439              		.file 15 "../../lib/e-puck2_main-processor/ChibiOS//os/ext/CMSIS/include/core_cm4.h"
 1440              		.file 16 "../../lib/e-puck2_main-processor/ChibiOS//os/ext/CMSIS/ST/system_stm32f4xx.h"
 1441              		.file 17 "../../lib/e-puck2_main-processor/ChibiOS//os/ext/CMSIS/ST/stm32f407xx.h"
 1442              		.file 18 "../../lib/e-puck2_main-processor/ChibiOS//os/rt/ports/ARMCMx/chcore.h"
 1443              		.file 19 "../../lib/e-puck2_main-processor/ChibiOS//os/rt/ports/ARMCMx/chcore_v7m.h"
 1444              		.file 20 "../../lib/e-puck2_main-processor/ChibiOS//os/rt/include/chdebug.h"
 1445              		.file 21 "../../lib/e-puck2_main-processor/ChibiOS//os/rt/include/chtm.h"
 1446              		.file 22 "../../lib/e-puck2_main-processor/ChibiOS//os/rt/include/chstats.h"
 1447              		.file 23 "../../lib/e-puck2_main-processor/ChibiOS//os/rt/include/chsem.h"
 1448              		.file 24 "../../lib/e-puck2_main-processor/ChibiOS//os/rt/include/chmtx.h"
 1449              		.file 25 "../../lib/e-puck2_main-processor/ChibiOS//os/rt/include/chcond.h"
 1450              		.file 26 "../../lib/e-puck2_main-processor/ChibiOS//os/rt/include/chevents.h"
 1451              		.file 27 "../../lib/e-puck2_main-processor/ChibiOS//os/rt/include/chqueues.h"
 1452              		.file 28 "../../lib/e-puck2_main-processor/ChibiOS//os/hal/ports/STM32/STM32F4xx/stm32_dma.h"
 1453              		.file 29 "../../lib/e-puck2_main-processor/ChibiOS//os/hal/include/hal_ioblock.h"
 1454              		.file 30 "../../lib/e-puck2_main-processor/ChibiOS//os/hal/ports/STM32/LLD/GPIOv2/pal_lld.h"
 1455              		.file 31 "../../lib/e-puck2_main-processor/ChibiOS//os/hal/include/adc.h"
 1456              		.file 32 "../../lib/e-puck2_main-processor/ChibiOS//os/hal/ports/STM32/STM32F4xx/adc_lld.h"
 1457              		.file 33 "../../lib/e-puck2_main-processor/ChibiOS//os/hal/include/can.h"
ARM GAS  C:\Users\mathi\AppData\Local\Temp\ccUaA6jU.s 			page 27


 1458              		.file 34 "../../lib/e-puck2_main-processor/ChibiOS//os/hal/ports/STM32/LLD/can_lld.h"
 1459              		.file 35 "../../lib/e-puck2_main-processor/ChibiOS//os/hal/include/dac.h"
 1460              		.file 36 "../../lib/e-puck2_main-processor/ChibiOS//os/hal/ports/STM32/LLD/DACv1/dac_lld.h"
 1461              		.file 37 "../../lib/e-puck2_main-processor/ChibiOS//os/hal/include/ext.h"
 1462              		.file 38 "../../lib/e-puck2_main-processor/ChibiOS//os/hal/ports/STM32/LLD/ext_lld.h"
 1463              		.file 39 "../../lib/e-puck2_main-processor/ChibiOS//os/hal/include/gpt.h"
 1464              		.file 40 "../../lib/e-puck2_main-processor/ChibiOS//os/hal/ports/STM32/LLD/TIMv1/gpt_lld.h"
 1465              		.file 41 "../../lib/e-puck2_main-processor/ChibiOS//os/hal/ports/STM32/LLD/TIMv1/stm32_tim.h"
 1466              		.file 42 "../../lib/e-puck2_main-processor/ChibiOS//os/hal/include/i2c.h"
 1467              		.file 43 "../../lib/e-puck2_main-processor/ChibiOS//os/hal/ports/STM32/LLD/I2Cv1/i2c_lld.h"
 1468              		.file 44 "../../lib/e-puck2_main-processor/ChibiOS//os/hal/include/i2s.h"
 1469              		.file 45 "../../lib/e-puck2_main-processor/ChibiOS//os/hal/ports/STM32/LLD/SPIv1/i2s_lld.h"
 1470              		.file 46 "../../lib/e-puck2_main-processor/ChibiOS//os/hal/include/pwm.h"
 1471              		.file 47 "../../lib/e-puck2_main-processor/ChibiOS//os/hal/ports/STM32/LLD/TIMv1/pwm_lld.h"
 1472              		.file 48 "../../lib/e-puck2_main-processor/ChibiOS//os/hal/include/serial.h"
 1473              		.file 49 "../../lib/e-puck2_main-processor/ChibiOS//os/hal/ports/STM32/LLD/USARTv1/serial_lld.h"
 1474              		.file 50 "../../lib/e-puck2_main-processor/ChibiOS//os/hal/include/sdc.h"
 1475              		.file 51 "../../lib/e-puck2_main-processor/ChibiOS//os/hal/ports/STM32/LLD/sdc_lld.h"
 1476              		.file 52 "../../lib/e-puck2_main-processor/ChibiOS//os/hal/include/spi.h"
 1477              		.file 53 "../../lib/e-puck2_main-processor/ChibiOS//os/hal/ports/STM32/LLD/SPIv1/spi_lld.h"
 1478              		.file 54 "../../lib/e-puck2_main-processor/ChibiOS//os/hal/include/usb.h"
 1479              		.file 55 "../../lib/e-puck2_main-processor/ChibiOS//os/hal/ports/STM32/LLD/OTGv1/usb_lld.h"
 1480              		.file 56 "../../lib/e-puck2_main-processor/ChibiOS//os/hal/ports/STM32/LLD/OTGv1/stm32_otg.h"
 1481              		.file 57 "../../lib/e-puck2_main-processor/src/sensors/proximity.h"
 1482              		.file 58 "../../lib/e-puck2_main-processor/ChibiOS_ext/os/hal/include/../ports/STM32/STM32F4xx/dcm
 1483              		.file 59 "c:\\eclipse_e-puck2\\tools\\gcc-arm-none-eabi-7-2017-q4-major-win32\\arm-none-eabi\\incl
 1484              		.file 60 "../../lib/e-puck2_main-processor/src/msgbus/messagebus.h"
 1485              		.file 61 "c:\\eclipse_e-puck2\\tools\\gcc-arm-none-eabi-7-2017-q4-major-win32\\arm-none-eabi\\incl
 1486              		.file 62 "../../lib/e-puck2_main-processor/src/parameter/parameter.h"
 1487              		.file 63 "./main.h"
 1488              		.file 64 "../../lib/e-puck2_main-processor/ChibiOS//os/rt/include/chthreads.h"
 1489              		.file 65 "<built-in>"