ARM GAS  C:\Users\mathi\AppData\Local\Temp\cc1ZTLCV.s 			page 1


   1              		.cpu cortex-m4
   2              		.eabi_attribute 27, 1
   3              		.eabi_attribute 28, 1
   4              		.eabi_attribute 20, 1
   5              		.eabi_attribute 21, 1
   6              		.eabi_attribute 23, 3
   7              		.eabi_attribute 24, 1
   8              		.eabi_attribute 25, 1
   9              		.eabi_attribute 26, 1
  10              		.eabi_attribute 30, 2
  11              		.eabi_attribute 34, 1
  12              		.eabi_attribute 18, 4
  13              		.file	"pwm_lld.c"
  14              		.text
  15              	.Ltext0:
  16              		.cfi_sections	.debug_frame
  17              		.section	.text.VectorB0,"ax",%progbits
  18              		.align	1
  19              		.p2align 4,,15
  20              		.global	VectorB0
  21              		.syntax unified
  22              		.thumb
  23              		.thumb_func
  24              		.fpu fpv4-sp-d16
  25              		.type	VectorB0, %function
  26              	VectorB0:
  27              	.LFB257:
  28              		.file 1 "../../lib/e-puck2_main-processor/ChibiOS//os/hal/ports/STM32/LLD/TIMv1/pwm_lld.c"
  29              		.loc 1 208 0
  30              		.cfi_startproc
  31              		@ args = 0, pretend = 0, frame = 8
  32              		@ frame_needed = 0, uses_anonymous_args = 0
  33 0000 70B5     		push	{r4, r5, r6, lr}
  34              		.cfi_def_cfa_offset 16
  35              		.cfi_offset 4, -16
  36              		.cfi_offset 5, -12
  37              		.cfi_offset 6, -8
  38              		.cfi_offset 14, -4
  39 0002 204D     		ldr	r5, .L42
  40              	.LBB4:
  41              	.LBB5:
  42              		.loc 1 114 0
  43 0004 204E     		ldr	r6, .L42+4
  44              	.LBE5:
  45              	.LBE4:
  46              		.loc 1 208 0
  47 0006 2B68     		ldr	r3, [r5]
  48 0008 82B0     		sub	sp, sp, #8
  49              		.cfi_def_cfa_offset 24
  50              		.loc 1 208 0
  51 000a 0193     		str	r3, [sp, #4]
  52              		.loc 1 210 0
  53 000c FFF7FEFF 		bl	_stats_increase_irq
  54              	.LVL0:
  55 0010 FFF7FEFF 		bl	_dbg_check_enter_isr
  56              	.LVL1:
  57              	.LBB7:
ARM GAS  C:\Users\mathi\AppData\Local\Temp\cc1ZTLCV.s 			page 2


  58              	.LBB6:
  59              		.loc 1 114 0
  60 0014 B369     		ldr	r3, [r6, #24]
  61 0016 1C69     		ldr	r4, [r3, #16]
  62              	.LVL2:
  63              		.loc 1 115 0
  64 0018 DA68     		ldr	r2, [r3, #12]
  65 001a 1440     		ands	r4, r4, r2
  66              	.LVL3:
  67 001c E2B2     		uxtb	r2, r4
  68              		.loc 1 116 0
  69 001e D243     		mvns	r2, r2
  70 0020 1A61     		str	r2, [r3, #16]
  71              		.loc 1 117 0
  72 0022 A307     		lsls	r3, r4, #30
  73 0024 04D5     		bpl	.L2
  74              		.loc 1 118 0
  75 0026 7368     		ldr	r3, [r6, #4]
  76 0028 1B69     		ldr	r3, [r3, #16]
  77              		.loc 1 117 0
  78 002a 0BB1     		cbz	r3, .L2
  79              		.loc 1 119 0
  80 002c 3046     		mov	r0, r6
  81 002e 9847     		blx	r3
  82              	.LVL4:
  83              	.L2:
  84              		.loc 1 120 0
  85 0030 6007     		lsls	r0, r4, #29
  86 0032 04D5     		bpl	.L3
  87              		.loc 1 121 0
  88 0034 7368     		ldr	r3, [r6, #4]
  89 0036 9B69     		ldr	r3, [r3, #24]
  90              		.loc 1 120 0
  91 0038 0BB1     		cbz	r3, .L3
  92              		.loc 1 122 0
  93 003a 1348     		ldr	r0, .L42+4
  94 003c 9847     		blx	r3
  95              	.LVL5:
  96              	.L3:
  97              		.loc 1 123 0
  98 003e 2107     		lsls	r1, r4, #28
  99 0040 04D5     		bpl	.L4
 100              		.loc 1 124 0
 101 0042 7368     		ldr	r3, [r6, #4]
 102 0044 1B6A     		ldr	r3, [r3, #32]
 103              		.loc 1 123 0
 104 0046 0BB1     		cbz	r3, .L4
 105              		.loc 1 125 0
 106 0048 0F48     		ldr	r0, .L42+4
 107 004a 9847     		blx	r3
 108              	.LVL6:
 109              	.L4:
 110              		.loc 1 126 0
 111 004c E206     		lsls	r2, r4, #27
 112 004e 04D5     		bpl	.L5
 113              		.loc 1 127 0
 114 0050 7368     		ldr	r3, [r6, #4]
ARM GAS  C:\Users\mathi\AppData\Local\Temp\cc1ZTLCV.s 			page 3


 115 0052 9B6A     		ldr	r3, [r3, #40]
 116              		.loc 1 126 0
 117 0054 0BB1     		cbz	r3, .L5
 118              		.loc 1 128 0
 119 0056 0C48     		ldr	r0, .L42+4
 120 0058 9847     		blx	r3
 121              	.LVL7:
 122              	.L5:
 123              		.loc 1 129 0
 124 005a E307     		lsls	r3, r4, #31
 125 005c 04D5     		bpl	.L6
 126 005e 7368     		ldr	r3, [r6, #4]
 127 0060 9B68     		ldr	r3, [r3, #8]
 128 0062 0BB1     		cbz	r3, .L6
 129              		.loc 1 130 0
 130 0064 0848     		ldr	r0, .L42+4
 131 0066 9847     		blx	r3
 132              	.LVL8:
 133              	.L6:
 134              	.LBE6:
 135              	.LBE7:
 136              		.loc 1 214 0
 137 0068 FFF7FEFF 		bl	_dbg_check_leave_isr
 138              	.LVL9:
 139 006c 019A     		ldr	r2, [sp, #4]
 140 006e 2B68     		ldr	r3, [r5]
 141 0070 9A42     		cmp	r2, r3
 142 0072 04D1     		bne	.L41
 143              		.loc 1 215 0
 144 0074 02B0     		add	sp, sp, #8
 145              		.cfi_remember_state
 146              		.cfi_def_cfa_offset 16
 147              		@ sp needed
 148 0076 BDE87040 		pop	{r4, r5, r6, lr}
 149              		.cfi_restore 14
 150              		.cfi_restore 6
 151              		.cfi_restore 5
 152              		.cfi_restore 4
 153              		.cfi_def_cfa_offset 0
 154              		.loc 1 214 0
 155 007a FFF7FEBF 		b	_port_irq_epilogue
 156              	.LVL10:
 157              	.L41:
 158              		.cfi_restore_state
 159 007e FFF7FEFF 		bl	__stack_chk_fail
 160              	.LVL11:
 161              	.L43:
 162 0082 00BF     		.align	2
 163              	.L42:
 164 0084 00000000 		.word	__stack_chk_guard
 165 0088 00000000 		.word	.LANCHOR0
 166              		.cfi_endproc
 167              	.LFE257:
 168              		.size	VectorB0, .-VectorB0
 169              		.section	.text.VectorB4,"ax",%progbits
 170              		.align	1
 171              		.p2align 4,,15
ARM GAS  C:\Users\mathi\AppData\Local\Temp\cc1ZTLCV.s 			page 4


 172              		.global	VectorB4
 173              		.syntax unified
 174              		.thumb
 175              		.thumb_func
 176              		.fpu fpv4-sp-d16
 177              		.type	VectorB4, %function
 178              	VectorB4:
 179              	.LFB258:
 180              		.loc 1 227 0
 181              		.cfi_startproc
 182              		@ args = 0, pretend = 0, frame = 8
 183              		@ frame_needed = 0, uses_anonymous_args = 0
 184 0000 70B5     		push	{r4, r5, r6, lr}
 185              		.cfi_def_cfa_offset 16
 186              		.cfi_offset 4, -16
 187              		.cfi_offset 5, -12
 188              		.cfi_offset 6, -8
 189              		.cfi_offset 14, -4
 190 0002 204D     		ldr	r5, .L84
 191              	.LBB10:
 192              	.LBB11:
 193              		.loc 1 114 0
 194 0004 204E     		ldr	r6, .L84+4
 195              	.LBE11:
 196              	.LBE10:
 197              		.loc 1 227 0
 198 0006 2B68     		ldr	r3, [r5]
 199 0008 82B0     		sub	sp, sp, #8
 200              		.cfi_def_cfa_offset 24
 201              		.loc 1 227 0
 202 000a 0193     		str	r3, [sp, #4]
 203              		.loc 1 229 0
 204 000c FFF7FEFF 		bl	_stats_increase_irq
 205              	.LVL12:
 206 0010 FFF7FEFF 		bl	_dbg_check_enter_isr
 207              	.LVL13:
 208              	.LBB13:
 209              	.LBB12:
 210              		.loc 1 114 0
 211 0014 B369     		ldr	r3, [r6, #24]
 212 0016 1C69     		ldr	r4, [r3, #16]
 213              	.LVL14:
 214              		.loc 1 115 0
 215 0018 DA68     		ldr	r2, [r3, #12]
 216 001a 1440     		ands	r4, r4, r2
 217              	.LVL15:
 218 001c E2B2     		uxtb	r2, r4
 219              		.loc 1 116 0
 220 001e D243     		mvns	r2, r2
 221 0020 1A61     		str	r2, [r3, #16]
 222              		.loc 1 117 0
 223 0022 A307     		lsls	r3, r4, #30
 224 0024 04D5     		bpl	.L45
 225              		.loc 1 118 0
 226 0026 7368     		ldr	r3, [r6, #4]
 227 0028 1B69     		ldr	r3, [r3, #16]
 228              		.loc 1 117 0
ARM GAS  C:\Users\mathi\AppData\Local\Temp\cc1ZTLCV.s 			page 5


 229 002a 0BB1     		cbz	r3, .L45
 230              		.loc 1 119 0
 231 002c 3046     		mov	r0, r6
 232 002e 9847     		blx	r3
 233              	.LVL16:
 234              	.L45:
 235              		.loc 1 120 0
 236 0030 6007     		lsls	r0, r4, #29
 237 0032 04D5     		bpl	.L46
 238              		.loc 1 121 0
 239 0034 7368     		ldr	r3, [r6, #4]
 240 0036 9B69     		ldr	r3, [r3, #24]
 241              		.loc 1 120 0
 242 0038 0BB1     		cbz	r3, .L46
 243              		.loc 1 122 0
 244 003a 1348     		ldr	r0, .L84+4
 245 003c 9847     		blx	r3
 246              	.LVL17:
 247              	.L46:
 248              		.loc 1 123 0
 249 003e 2107     		lsls	r1, r4, #28
 250 0040 04D5     		bpl	.L47
 251              		.loc 1 124 0
 252 0042 7368     		ldr	r3, [r6, #4]
 253 0044 1B6A     		ldr	r3, [r3, #32]
 254              		.loc 1 123 0
 255 0046 0BB1     		cbz	r3, .L47
 256              		.loc 1 125 0
 257 0048 0F48     		ldr	r0, .L84+4
 258 004a 9847     		blx	r3
 259              	.LVL18:
 260              	.L47:
 261              		.loc 1 126 0
 262 004c E206     		lsls	r2, r4, #27
 263 004e 04D5     		bpl	.L48
 264              		.loc 1 127 0
 265 0050 7368     		ldr	r3, [r6, #4]
 266 0052 9B6A     		ldr	r3, [r3, #40]
 267              		.loc 1 126 0
 268 0054 0BB1     		cbz	r3, .L48
 269              		.loc 1 128 0
 270 0056 0C48     		ldr	r0, .L84+4
 271 0058 9847     		blx	r3
 272              	.LVL19:
 273              	.L48:
 274              		.loc 1 129 0
 275 005a E307     		lsls	r3, r4, #31
 276 005c 04D5     		bpl	.L49
 277 005e 7368     		ldr	r3, [r6, #4]
 278 0060 9B68     		ldr	r3, [r3, #8]
 279 0062 0BB1     		cbz	r3, .L49
 280              		.loc 1 130 0
 281 0064 0848     		ldr	r0, .L84+4
 282 0066 9847     		blx	r3
 283              	.LVL20:
 284              	.L49:
 285              	.LBE12:
ARM GAS  C:\Users\mathi\AppData\Local\Temp\cc1ZTLCV.s 			page 6


 286              	.LBE13:
 287              		.loc 1 233 0
 288 0068 FFF7FEFF 		bl	_dbg_check_leave_isr
 289              	.LVL21:
 290 006c 019A     		ldr	r2, [sp, #4]
 291 006e 2B68     		ldr	r3, [r5]
 292 0070 9A42     		cmp	r2, r3
 293 0072 04D1     		bne	.L83
 294              		.loc 1 234 0
 295 0074 02B0     		add	sp, sp, #8
 296              		.cfi_remember_state
 297              		.cfi_def_cfa_offset 16
 298              		@ sp needed
 299 0076 BDE87040 		pop	{r4, r5, r6, lr}
 300              		.cfi_restore 14
 301              		.cfi_restore 6
 302              		.cfi_restore 5
 303              		.cfi_restore 4
 304              		.cfi_def_cfa_offset 0
 305              		.loc 1 233 0
 306 007a FFF7FEBF 		b	_port_irq_epilogue
 307              	.LVL22:
 308              	.L83:
 309              		.cfi_restore_state
 310 007e FFF7FEFF 		bl	__stack_chk_fail
 311              	.LVL23:
 312              	.L85:
 313 0082 00BF     		.align	2
 314              	.L84:
 315 0084 00000000 		.word	__stack_chk_guard
 316 0088 00000000 		.word	.LANCHOR1
 317              		.cfi_endproc
 318              	.LFE258:
 319              		.size	VectorB4, .-VectorB4
 320              		.section	.text.VectorB8,"ax",%progbits
 321              		.align	1
 322              		.p2align 4,,15
 323              		.global	VectorB8
 324              		.syntax unified
 325              		.thumb
 326              		.thumb_func
 327              		.fpu fpv4-sp-d16
 328              		.type	VectorB8, %function
 329              	VectorB8:
 330              	.LFB259:
 331              		.loc 1 246 0
 332              		.cfi_startproc
 333              		@ args = 0, pretend = 0, frame = 8
 334              		@ frame_needed = 0, uses_anonymous_args = 0
 335 0000 70B5     		push	{r4, r5, r6, lr}
 336              		.cfi_def_cfa_offset 16
 337              		.cfi_offset 4, -16
 338              		.cfi_offset 5, -12
 339              		.cfi_offset 6, -8
 340              		.cfi_offset 14, -4
 341 0002 204D     		ldr	r5, .L126
 342              	.LBB16:
ARM GAS  C:\Users\mathi\AppData\Local\Temp\cc1ZTLCV.s 			page 7


 343              	.LBB17:
 344              		.loc 1 114 0
 345 0004 204E     		ldr	r6, .L126+4
 346              	.LBE17:
 347              	.LBE16:
 348              		.loc 1 246 0
 349 0006 2B68     		ldr	r3, [r5]
 350 0008 82B0     		sub	sp, sp, #8
 351              		.cfi_def_cfa_offset 24
 352              		.loc 1 246 0
 353 000a 0193     		str	r3, [sp, #4]
 354              		.loc 1 248 0
 355 000c FFF7FEFF 		bl	_stats_increase_irq
 356              	.LVL24:
 357 0010 FFF7FEFF 		bl	_dbg_check_enter_isr
 358              	.LVL25:
 359              	.LBB19:
 360              	.LBB18:
 361              		.loc 1 114 0
 362 0014 B369     		ldr	r3, [r6, #24]
 363 0016 1C69     		ldr	r4, [r3, #16]
 364              	.LVL26:
 365              		.loc 1 115 0
 366 0018 DA68     		ldr	r2, [r3, #12]
 367 001a 1440     		ands	r4, r4, r2
 368              	.LVL27:
 369 001c E2B2     		uxtb	r2, r4
 370              		.loc 1 116 0
 371 001e D243     		mvns	r2, r2
 372 0020 1A61     		str	r2, [r3, #16]
 373              		.loc 1 117 0
 374 0022 A307     		lsls	r3, r4, #30
 375 0024 04D5     		bpl	.L87
 376              		.loc 1 118 0
 377 0026 7368     		ldr	r3, [r6, #4]
 378 0028 1B69     		ldr	r3, [r3, #16]
 379              		.loc 1 117 0
 380 002a 0BB1     		cbz	r3, .L87
 381              		.loc 1 119 0
 382 002c 3046     		mov	r0, r6
 383 002e 9847     		blx	r3
 384              	.LVL28:
 385              	.L87:
 386              		.loc 1 120 0
 387 0030 6007     		lsls	r0, r4, #29
 388 0032 04D5     		bpl	.L88
 389              		.loc 1 121 0
 390 0034 7368     		ldr	r3, [r6, #4]
 391 0036 9B69     		ldr	r3, [r3, #24]
 392              		.loc 1 120 0
 393 0038 0BB1     		cbz	r3, .L88
 394              		.loc 1 122 0
 395 003a 1348     		ldr	r0, .L126+4
 396 003c 9847     		blx	r3
 397              	.LVL29:
 398              	.L88:
 399              		.loc 1 123 0
ARM GAS  C:\Users\mathi\AppData\Local\Temp\cc1ZTLCV.s 			page 8


 400 003e 2107     		lsls	r1, r4, #28
 401 0040 04D5     		bpl	.L89
 402              		.loc 1 124 0
 403 0042 7368     		ldr	r3, [r6, #4]
 404 0044 1B6A     		ldr	r3, [r3, #32]
 405              		.loc 1 123 0
 406 0046 0BB1     		cbz	r3, .L89
 407              		.loc 1 125 0
 408 0048 0F48     		ldr	r0, .L126+4
 409 004a 9847     		blx	r3
 410              	.LVL30:
 411              	.L89:
 412              		.loc 1 126 0
 413 004c E206     		lsls	r2, r4, #27
 414 004e 04D5     		bpl	.L90
 415              		.loc 1 127 0
 416 0050 7368     		ldr	r3, [r6, #4]
 417 0052 9B6A     		ldr	r3, [r3, #40]
 418              		.loc 1 126 0
 419 0054 0BB1     		cbz	r3, .L90
 420              		.loc 1 128 0
 421 0056 0C48     		ldr	r0, .L126+4
 422 0058 9847     		blx	r3
 423              	.LVL31:
 424              	.L90:
 425              		.loc 1 129 0
 426 005a E307     		lsls	r3, r4, #31
 427 005c 04D5     		bpl	.L91
 428 005e 7368     		ldr	r3, [r6, #4]
 429 0060 9B68     		ldr	r3, [r3, #8]
 430 0062 0BB1     		cbz	r3, .L91
 431              		.loc 1 130 0
 432 0064 0848     		ldr	r0, .L126+4
 433 0066 9847     		blx	r3
 434              	.LVL32:
 435              	.L91:
 436              	.LBE18:
 437              	.LBE19:
 438              		.loc 1 252 0
 439 0068 FFF7FEFF 		bl	_dbg_check_leave_isr
 440              	.LVL33:
 441 006c 019A     		ldr	r2, [sp, #4]
 442 006e 2B68     		ldr	r3, [r5]
 443 0070 9A42     		cmp	r2, r3
 444 0072 04D1     		bne	.L125
 445              		.loc 1 253 0
 446 0074 02B0     		add	sp, sp, #8
 447              		.cfi_remember_state
 448              		.cfi_def_cfa_offset 16
 449              		@ sp needed
 450 0076 BDE87040 		pop	{r4, r5, r6, lr}
 451              		.cfi_restore 14
 452              		.cfi_restore 6
 453              		.cfi_restore 5
 454              		.cfi_restore 4
 455              		.cfi_def_cfa_offset 0
 456              		.loc 1 252 0
ARM GAS  C:\Users\mathi\AppData\Local\Temp\cc1ZTLCV.s 			page 9


 457 007a FFF7FEBF 		b	_port_irq_epilogue
 458              	.LVL34:
 459              	.L125:
 460              		.cfi_restore_state
 461 007e FFF7FEFF 		bl	__stack_chk_fail
 462              	.LVL35:
 463              	.L127:
 464 0082 00BF     		.align	2
 465              	.L126:
 466 0084 00000000 		.word	__stack_chk_guard
 467 0088 00000000 		.word	.LANCHOR2
 468              		.cfi_endproc
 469              	.LFE259:
 470              		.size	VectorB8, .-VectorB8
 471              		.section	.text.Vector108,"ax",%progbits
 472              		.align	1
 473              		.p2align 4,,15
 474              		.global	Vector108
 475              		.syntax unified
 476              		.thumb
 477              		.thumb_func
 478              		.fpu fpv4-sp-d16
 479              		.type	Vector108, %function
 480              	Vector108:
 481              	.LFB260:
 482              		.loc 1 265 0
 483              		.cfi_startproc
 484              		@ args = 0, pretend = 0, frame = 8
 485              		@ frame_needed = 0, uses_anonymous_args = 0
 486 0000 70B5     		push	{r4, r5, r6, lr}
 487              		.cfi_def_cfa_offset 16
 488              		.cfi_offset 4, -16
 489              		.cfi_offset 5, -12
 490              		.cfi_offset 6, -8
 491              		.cfi_offset 14, -4
 492 0002 204D     		ldr	r5, .L168
 493              	.LBB22:
 494              	.LBB23:
 495              		.loc 1 114 0
 496 0004 204E     		ldr	r6, .L168+4
 497              	.LBE23:
 498              	.LBE22:
 499              		.loc 1 265 0
 500 0006 2B68     		ldr	r3, [r5]
 501 0008 82B0     		sub	sp, sp, #8
 502              		.cfi_def_cfa_offset 24
 503              		.loc 1 265 0
 504 000a 0193     		str	r3, [sp, #4]
 505              		.loc 1 267 0
 506 000c FFF7FEFF 		bl	_stats_increase_irq
 507              	.LVL36:
 508 0010 FFF7FEFF 		bl	_dbg_check_enter_isr
 509              	.LVL37:
 510              	.LBB25:
 511              	.LBB24:
 512              		.loc 1 114 0
 513 0014 B369     		ldr	r3, [r6, #24]
ARM GAS  C:\Users\mathi\AppData\Local\Temp\cc1ZTLCV.s 			page 10


 514 0016 1C69     		ldr	r4, [r3, #16]
 515              	.LVL38:
 516              		.loc 1 115 0
 517 0018 DA68     		ldr	r2, [r3, #12]
 518 001a 1440     		ands	r4, r4, r2
 519              	.LVL39:
 520 001c E2B2     		uxtb	r2, r4
 521              		.loc 1 116 0
 522 001e D243     		mvns	r2, r2
 523 0020 1A61     		str	r2, [r3, #16]
 524              		.loc 1 117 0
 525 0022 A307     		lsls	r3, r4, #30
 526 0024 04D5     		bpl	.L129
 527              		.loc 1 118 0
 528 0026 7368     		ldr	r3, [r6, #4]
 529 0028 1B69     		ldr	r3, [r3, #16]
 530              		.loc 1 117 0
 531 002a 0BB1     		cbz	r3, .L129
 532              		.loc 1 119 0
 533 002c 3046     		mov	r0, r6
 534 002e 9847     		blx	r3
 535              	.LVL40:
 536              	.L129:
 537              		.loc 1 120 0
 538 0030 6007     		lsls	r0, r4, #29
 539 0032 04D5     		bpl	.L130
 540              		.loc 1 121 0
 541 0034 7368     		ldr	r3, [r6, #4]
 542 0036 9B69     		ldr	r3, [r3, #24]
 543              		.loc 1 120 0
 544 0038 0BB1     		cbz	r3, .L130
 545              		.loc 1 122 0
 546 003a 1348     		ldr	r0, .L168+4
 547 003c 9847     		blx	r3
 548              	.LVL41:
 549              	.L130:
 550              		.loc 1 123 0
 551 003e 2107     		lsls	r1, r4, #28
 552 0040 04D5     		bpl	.L131
 553              		.loc 1 124 0
 554 0042 7368     		ldr	r3, [r6, #4]
 555 0044 1B6A     		ldr	r3, [r3, #32]
 556              		.loc 1 123 0
 557 0046 0BB1     		cbz	r3, .L131
 558              		.loc 1 125 0
 559 0048 0F48     		ldr	r0, .L168+4
 560 004a 9847     		blx	r3
 561              	.LVL42:
 562              	.L131:
 563              		.loc 1 126 0
 564 004c E206     		lsls	r2, r4, #27
 565 004e 04D5     		bpl	.L132
 566              		.loc 1 127 0
 567 0050 7368     		ldr	r3, [r6, #4]
 568 0052 9B6A     		ldr	r3, [r3, #40]
 569              		.loc 1 126 0
 570 0054 0BB1     		cbz	r3, .L132
ARM GAS  C:\Users\mathi\AppData\Local\Temp\cc1ZTLCV.s 			page 11


 571              		.loc 1 128 0
 572 0056 0C48     		ldr	r0, .L168+4
 573 0058 9847     		blx	r3
 574              	.LVL43:
 575              	.L132:
 576              		.loc 1 129 0
 577 005a E307     		lsls	r3, r4, #31
 578 005c 04D5     		bpl	.L133
 579 005e 7368     		ldr	r3, [r6, #4]
 580 0060 9B68     		ldr	r3, [r3, #8]
 581 0062 0BB1     		cbz	r3, .L133
 582              		.loc 1 130 0
 583 0064 0848     		ldr	r0, .L168+4
 584 0066 9847     		blx	r3
 585              	.LVL44:
 586              	.L133:
 587              	.LBE24:
 588              	.LBE25:
 589              		.loc 1 271 0
 590 0068 FFF7FEFF 		bl	_dbg_check_leave_isr
 591              	.LVL45:
 592 006c 019A     		ldr	r2, [sp, #4]
 593 006e 2B68     		ldr	r3, [r5]
 594 0070 9A42     		cmp	r2, r3
 595 0072 04D1     		bne	.L167
 596              		.loc 1 272 0
 597 0074 02B0     		add	sp, sp, #8
 598              		.cfi_remember_state
 599              		.cfi_def_cfa_offset 16
 600              		@ sp needed
 601 0076 BDE87040 		pop	{r4, r5, r6, lr}
 602              		.cfi_restore 14
 603              		.cfi_restore 6
 604              		.cfi_restore 5
 605              		.cfi_restore 4
 606              		.cfi_def_cfa_offset 0
 607              		.loc 1 271 0
 608 007a FFF7FEBF 		b	_port_irq_epilogue
 609              	.LVL46:
 610              	.L167:
 611              		.cfi_restore_state
 612 007e FFF7FEFF 		bl	__stack_chk_fail
 613              	.LVL47:
 614              	.L169:
 615 0082 00BF     		.align	2
 616              	.L168:
 617 0084 00000000 		.word	__stack_chk_guard
 618 0088 00000000 		.word	.LANCHOR3
 619              		.cfi_endproc
 620              	.LFE260:
 621              		.size	Vector108, .-Vector108
 622              		.section	.text.pwm_lld_init,"ax",%progbits
 623              		.align	1
 624              		.p2align 4,,15
 625              		.global	pwm_lld_init
 626              		.syntax unified
 627              		.thumb
ARM GAS  C:\Users\mathi\AppData\Local\Temp\cc1ZTLCV.s 			page 12


 628              		.thumb_func
 629              		.fpu fpv4-sp-d16
 630              		.type	pwm_lld_init, %function
 631              	pwm_lld_init:
 632              	.LFB261:
 633              		.loc 1 364 0
 634              		.cfi_startproc
 635              		@ args = 0, pretend = 0, frame = 8
 636              		@ frame_needed = 0, uses_anonymous_args = 0
 637 0000 2DE9F041 		push	{r4, r5, r6, r7, r8, lr}
 638              		.cfi_def_cfa_offset 24
 639              		.cfi_offset 4, -24
 640              		.cfi_offset 5, -20
 641              		.cfi_offset 6, -16
 642              		.cfi_offset 7, -12
 643              		.cfi_offset 8, -8
 644              		.cfi_offset 14, -4
 645              		.loc 1 375 0
 646 0004 164D     		ldr	r5, .L174
 647              		.loc 1 364 0
 648 0006 DFF87480 		ldr	r8, .L174+28
 649              		.loc 1 382 0
 650 000a 164F     		ldr	r7, .L174+4
 651              		.loc 1 364 0
 652 000c D8F80030 		ldr	r3, [r8]
 653              		.loc 1 389 0
 654 0010 154E     		ldr	r6, .L174+8
 655              		.loc 1 364 0
 656 0012 82B0     		sub	sp, sp, #8
 657              		.cfi_def_cfa_offset 32
 658              		.loc 1 375 0
 659 0014 2846     		mov	r0, r5
 660              		.loc 1 376 0
 661 0016 0424     		movs	r4, #4
 662              		.loc 1 364 0
 663 0018 0193     		str	r3, [sp, #4]
 664              		.loc 1 375 0
 665 001a FFF7FEFF 		bl	pwmObjectInit
 666              	.LVL48:
 667              		.loc 1 377 0
 668 001e 4FF08043 		mov	r3, #1073741824
 669 0022 AB61     		str	r3, [r5, #24]
 670              		.loc 1 382 0
 671 0024 3846     		mov	r0, r7
 672              		.loc 1 376 0
 673 0026 2C74     		strb	r4, [r5, #16]
 674              		.loc 1 396 0
 675 0028 104D     		ldr	r5, .L174+12
 676              		.loc 1 382 0
 677 002a FFF7FEFF 		bl	pwmObjectInit
 678              	.LVL49:
 679              		.loc 1 384 0
 680 002e 104B     		ldr	r3, .L174+16
 681 0030 BB61     		str	r3, [r7, #24]
 682              		.loc 1 389 0
 683 0032 3046     		mov	r0, r6
 684              		.loc 1 383 0
ARM GAS  C:\Users\mathi\AppData\Local\Temp\cc1ZTLCV.s 			page 13


 685 0034 3C74     		strb	r4, [r7, #16]
 686              		.loc 1 389 0
 687 0036 FFF7FEFF 		bl	pwmObjectInit
 688              	.LVL50:
 689              		.loc 1 391 0
 690 003a 0E4B     		ldr	r3, .L174+20
 691 003c B361     		str	r3, [r6, #24]
 692              		.loc 1 396 0
 693 003e 2846     		mov	r0, r5
 694              		.loc 1 390 0
 695 0040 3474     		strb	r4, [r6, #16]
 696              		.loc 1 396 0
 697 0042 FFF7FEFF 		bl	pwmObjectInit
 698              	.LVL51:
 699              		.loc 1 414 0
 700 0046 019A     		ldr	r2, [sp, #4]
 701 0048 D8F80030 		ldr	r3, [r8]
 702              		.loc 1 398 0
 703 004c 0A49     		ldr	r1, .L174+24
 704              		.loc 1 397 0
 705 004e 2C74     		strb	r4, [r5, #16]
 706              		.loc 1 414 0
 707 0050 9A42     		cmp	r2, r3
 708              		.loc 1 398 0
 709 0052 A961     		str	r1, [r5, #24]
 710              		.loc 1 414 0
 711 0054 02D1     		bne	.L173
 712 0056 02B0     		add	sp, sp, #8
 713              		.cfi_remember_state
 714              		.cfi_def_cfa_offset 24
 715              		@ sp needed
 716 0058 BDE8F081 		pop	{r4, r5, r6, r7, r8, pc}
 717              	.L173:
 718              		.cfi_restore_state
 719 005c FFF7FEFF 		bl	__stack_chk_fail
 720              	.LVL52:
 721              	.L175:
 722              		.align	2
 723              	.L174:
 724 0060 00000000 		.word	.LANCHOR0
 725 0064 00000000 		.word	.LANCHOR1
 726 0068 00000000 		.word	.LANCHOR2
 727 006c 00000000 		.word	.LANCHOR3
 728 0070 00040040 		.word	1073742848
 729 0074 00080040 		.word	1073743872
 730 0078 000C0040 		.word	1073744896
 731 007c 00000000 		.word	__stack_chk_guard
 732              		.cfi_endproc
 733              	.LFE261:
 734              		.size	pwm_lld_init, .-pwm_lld_init
 735              		.section	.text.pwm_lld_start,"ax",%progbits
 736              		.align	1
 737              		.p2align 4,,15
 738              		.global	pwm_lld_start
 739              		.syntax unified
 740              		.thumb
 741              		.thumb_func
ARM GAS  C:\Users\mathi\AppData\Local\Temp\cc1ZTLCV.s 			page 14


 742              		.fpu fpv4-sp-d16
 743              		.type	pwm_lld_start, %function
 744              	pwm_lld_start:
 745              	.LFB262:
 746              		.loc 1 425 0
 747              		.cfi_startproc
 748              		@ args = 0, pretend = 0, frame = 8
 749              		@ frame_needed = 0, uses_anonymous_args = 0
 750              	.LVL53:
 751 0000 70B5     		push	{r4, r5, r6, lr}
 752              		.cfi_def_cfa_offset 16
 753              		.cfi_offset 4, -16
 754              		.cfi_offset 5, -12
 755              		.cfi_offset 6, -8
 756              		.cfi_offset 14, -4
 757 0002 6B4D     		ldr	r5, .L219
 758              		.loc 1 429 0
 759 0004 0378     		ldrb	r3, [r0]	@ zero_extendqisi2
 760              		.loc 1 425 0
 761 0006 2A68     		ldr	r2, [r5]
 762 0008 82B0     		sub	sp, sp, #8
 763              		.cfi_def_cfa_offset 24
 764              		.loc 1 429 0
 765 000a 012B     		cmp	r3, #1
 766              		.loc 1 425 0
 767 000c 0446     		mov	r4, r0
 768 000e 0192     		str	r2, [sp, #4]
 769              		.loc 1 429 0
 770 0010 72D0     		beq	.L210
 771              		.loc 1 512 0
 772 0012 8269     		ldr	r2, [r0, #24]
 773 0014 0023     		movs	r3, #0
 774 0016 1360     		str	r3, [r2]
 775              		.loc 1 513 0
 776 0018 8269     		ldr	r2, [r0, #24]
 777 001a 5363     		str	r3, [r2, #52]
 778              		.loc 1 514 0
 779 001c 8269     		ldr	r2, [r0, #24]
 780 001e 9363     		str	r3, [r2, #56]
 781              		.loc 1 515 0
 782 0020 8269     		ldr	r2, [r0, #24]
 783 0022 D363     		str	r3, [r2, #60]
 784              		.loc 1 516 0
 785 0024 8269     		ldr	r2, [r0, #24]
 786 0026 1364     		str	r3, [r2, #64]
 787              		.loc 1 523 0
 788 0028 8269     		ldr	r2, [r0, #24]
 789 002a 5362     		str	r3, [r2, #36]
 790              	.LVL54:
 791              	.L182:
 792              		.loc 1 527 0
 793 002c 6368     		ldr	r3, [r4, #4]
 794 002e 6269     		ldr	r2, [r4, #20]
 795 0030 1968     		ldr	r1, [r3]
 796 0032 B2FBF1F3 		udiv	r3, r2, r1
 797 0036 5E1E     		subs	r6, r3, #1
 798              	.LVL55:
ARM GAS  C:\Users\mathi\AppData\Local\Temp\cc1ZTLCV.s 			page 15


 799              		.loc 1 528 0
 800 0038 B6F5803F 		cmp	r6, #65536
 801 003c 03D2     		bcs	.L183
 802              		.loc 1 528 0 is_stmt 0 discriminator 3
 803 003e 03FB01F3 		mul	r3, r3, r1
 804 0042 9A42     		cmp	r2, r3
 805 0044 02D0     		beq	.L184
 806              	.L183:
 807              		.loc 1 528 0 discriminator 4
 808 0046 5B48     		ldr	r0, .L219+4
 809 0048 FFF7FEFF 		bl	chSysHalt
 810              	.LVL56:
 811              	.L184:
 812              		.loc 1 531 0 is_stmt 1
 813 004c A369     		ldr	r3, [r4, #24]
 814 004e 9E62     		str	r6, [r3, #40]
 815              		.loc 1 532 0
 816 0050 A368     		ldr	r3, [r4, #8]
 817 0052 A269     		ldr	r2, [r4, #24]
 818 0054 013B     		subs	r3, r3, #1
 819 0056 D362     		str	r3, [r2, #44]
 820              		.loc 1 533 0
 821 0058 6268     		ldr	r2, [r4, #4]
 822 005a A369     		ldr	r3, [r4, #24]
 823 005c D26A     		ldr	r2, [r2, #44]
 824 005e 5A60     		str	r2, [r3, #4]
 825              	.LVL57:
 826              		.loc 1 537 0
 827 0060 6268     		ldr	r2, [r4, #4]
 828 0062 D368     		ldr	r3, [r2, #12]
 829 0064 03F00F03 		and	r3, r3, #15
 830 0068 012B     		cmp	r3, #1
 831 006a 03D0     		beq	.L185
 832              		.loc 1 536 0
 833 006c 022B     		cmp	r3, #2
 834 006e 0CBF     		ite	eq
 835 0070 0323     		moveq	r3, #3
 836 0072 0023     		movne	r3, #0
 837              	.L185:
 838              	.LVL58:
 839              		.loc 1 545 0
 840 0074 5169     		ldr	r1, [r2, #20]
 841 0076 01F00F01 		and	r1, r1, #15
 842 007a 0129     		cmp	r1, #1
 843 007c 34D0     		beq	.L189
 844 007e 0229     		cmp	r1, #2
 845 0080 30D0     		beq	.L211
 846              	.L188:
 847              		.loc 1 553 0
 848 0082 D169     		ldr	r1, [r2, #28]
 849 0084 01F00F01 		and	r1, r1, #15
 850 0088 0129     		cmp	r1, #1
 851 008a 21D0     		beq	.L192
 852 008c 0229     		cmp	r1, #2
 853 008e 1DD0     		beq	.L212
 854              		.loc 1 561 0
 855 0090 526A     		ldr	r2, [r2, #36]
ARM GAS  C:\Users\mathi\AppData\Local\Temp\cc1ZTLCV.s 			page 16


 856 0092 02F00F02 		and	r2, r2, #15
 857 0096 012A     		cmp	r2, #1
 858 0098 21D0     		beq	.L195
 859              	.L215:
 860 009a 022A     		cmp	r2, #2
 861 009c 27D0     		beq	.L213
 862              	.L194:
 863              		.loc 1 606 0
 864 009e A269     		ldr	r2, [r4, #24]
 865 00a0 1362     		str	r3, [r2, #32]
 866              		.loc 1 607 0
 867 00a2 A369     		ldr	r3, [r4, #24]
 868              	.LVL59:
 869 00a4 0122     		movs	r2, #1
 870              	.LVL60:
 871 00a6 5A61     		str	r2, [r3, #20]
 872              		.loc 1 608 0
 873 00a8 A369     		ldr	r3, [r4, #24]
 874 00aa 0022     		movs	r2, #0
 875 00ac 1A61     		str	r2, [r3, #16]
 876              		.loc 1 609 0
 877 00ae 6368     		ldr	r3, [r4, #4]
 878 00b0 A269     		ldr	r2, [r4, #24]
 879 00b2 1B6B     		ldr	r3, [r3, #48]
 880 00b4 23F0FF03 		bic	r3, r3, #255
 881 00b8 D360     		str	r3, [r2, #12]
 882              		.loc 1 619 0
 883 00ba A369     		ldr	r3, [r4, #24]
 884 00bc 8522     		movs	r2, #133
 885 00be 1A60     		str	r2, [r3]
 886              		.loc 1 621 0
 887 00c0 019A     		ldr	r2, [sp, #4]
 888 00c2 2B68     		ldr	r3, [r5]
 889 00c4 9A42     		cmp	r2, r3
 890 00c6 71D1     		bne	.L214
 891 00c8 02B0     		add	sp, sp, #8
 892              		.cfi_remember_state
 893              		.cfi_def_cfa_offset 16
 894              		@ sp needed
 895 00ca 70BD     		pop	{r4, r5, r6, pc}
 896              	.LVL61:
 897              	.L212:
 898              		.cfi_restore_state
 899              		.loc 1 555 0
 900 00cc 43F40073 		orr	r3, r3, #512
 901              	.LVL62:
 902              	.L192:
 903              		.loc 1 561 0
 904 00d0 526A     		ldr	r2, [r2, #36]
 905 00d2 02F00F02 		and	r2, r2, #15
 906 00d6 012A     		cmp	r2, #1
 907              		.loc 1 557 0
 908 00d8 43F48073 		orr	r3, r3, #256
 909              	.LVL63:
 910              		.loc 1 561 0
 911 00dc DDD1     		bne	.L215
 912              	.L195:
ARM GAS  C:\Users\mathi\AppData\Local\Temp\cc1ZTLCV.s 			page 17


 913              		.loc 1 565 0
 914 00de 43F48053 		orr	r3, r3, #4096
 915              	.LVL64:
 916 00e2 DCE7     		b	.L194
 917              	.L211:
 918              		.loc 1 547 0
 919 00e4 43F02003 		orr	r3, r3, #32
 920              	.LVL65:
 921              	.L189:
 922              		.loc 1 549 0
 923 00e8 43F01003 		orr	r3, r3, #16
 924              	.LVL66:
 925 00ec C9E7     		b	.L188
 926              	.L213:
 927              		.loc 1 563 0
 928 00ee 43F40053 		orr	r3, r3, #8192
 929              	.LVL67:
 930              		.loc 1 565 0
 931 00f2 43F48053 		orr	r3, r3, #4096
 932              	.LVL68:
 933 00f6 D2E7     		b	.L194
 934              	.LVL69:
 935              	.L210:
 936              		.loc 1 445 0
 937 00f8 2F4B     		ldr	r3, .L219+8
 938 00fa 9842     		cmp	r0, r3
 939 00fc 44D0     		beq	.L216
 940              		.loc 1 453 0
 941 00fe 2F4B     		ldr	r3, .L219+12
 942 0100 9842     		cmp	r0, r3
 943 0102 2FD0     		beq	.L217
 944              		.loc 1 461 0
 945 0104 2E4B     		ldr	r3, .L219+16
 946 0106 9842     		cmp	r0, r3
 947 0108 1AD0     		beq	.L218
 948              		.loc 1 470 0
 949 010a 2E4B     		ldr	r3, .L219+20
 950 010c 9842     		cmp	r0, r3
 951 010e 10D1     		bne	.L179
 952              		.loc 1 471 0
 953 0110 2D4B     		ldr	r3, .L219+24
 954 0112 1A6C     		ldr	r2, [r3, #64]
 955 0114 42F00802 		orr	r2, r2, #8
 956 0118 1A64     		str	r2, [r3, #64]
 957              		.loc 1 472 0
 958 011a 1A6A     		ldr	r2, [r3, #32]
 959 011c 0020     		movs	r0, #0
 960              	.LVL70:
 961 011e 42F00802 		orr	r2, r2, #8
 962 0122 1A62     		str	r2, [r3, #32]
 963              		.loc 1 473 0
 964 0124 0721     		movs	r1, #7
 965              		.loc 1 472 0
 966 0126 1862     		str	r0, [r3, #32]
 967              		.loc 1 473 0
 968 0128 3220     		movs	r0, #50
 969 012a FFF7FEFF 		bl	nvicEnableVector
ARM GAS  C:\Users\mathi\AppData\Local\Temp\cc1ZTLCV.s 			page 18


 970              	.LVL71:
 971              		.loc 1 474 0
 972 012e 274B     		ldr	r3, .L219+28
 973 0130 6361     		str	r3, [r4, #20]
 974              	.L179:
 975              		.loc 1 501 0
 976 0132 A269     		ldr	r2, [r4, #24]
 977 0134 46F66803 		movw	r3, #26728
 978 0138 9361     		str	r3, [r2, #24]
 979              		.loc 1 503 0
 980 013a A269     		ldr	r2, [r4, #24]
 981 013c D361     		str	r3, [r2, #28]
 982 013e 75E7     		b	.L182
 983              	.LVL72:
 984              	.L218:
 985              		.loc 1 462 0
 986 0140 214B     		ldr	r3, .L219+24
 987 0142 1A6C     		ldr	r2, [r3, #64]
 988 0144 42F00402 		orr	r2, r2, #4
 989 0148 1A64     		str	r2, [r3, #64]
 990              		.loc 1 463 0
 991 014a 1A6A     		ldr	r2, [r3, #32]
 992 014c 0020     		movs	r0, #0
 993              	.LVL73:
 994 014e 42F00402 		orr	r2, r2, #4
 995 0152 1A62     		str	r2, [r3, #32]
 996              		.loc 1 464 0
 997 0154 0721     		movs	r1, #7
 998              		.loc 1 463 0
 999 0156 1862     		str	r0, [r3, #32]
 1000              		.loc 1 464 0
 1001 0158 1E20     		movs	r0, #30
 1002 015a FFF7FEFF 		bl	nvicEnableVector
 1003              	.LVL74:
 1004              		.loc 1 465 0
 1005 015e 1B4B     		ldr	r3, .L219+28
 1006 0160 6361     		str	r3, [r4, #20]
 1007 0162 E6E7     		b	.L179
 1008              	.LVL75:
 1009              	.L217:
 1010              		.loc 1 454 0
 1011 0164 184B     		ldr	r3, .L219+24
 1012 0166 1A6C     		ldr	r2, [r3, #64]
 1013 0168 42F00202 		orr	r2, r2, #2
 1014 016c 1A64     		str	r2, [r3, #64]
 1015              		.loc 1 455 0
 1016 016e 1A6A     		ldr	r2, [r3, #32]
 1017 0170 0020     		movs	r0, #0
 1018              	.LVL76:
 1019 0172 42F00202 		orr	r2, r2, #2
 1020 0176 1A62     		str	r2, [r3, #32]
 1021              		.loc 1 456 0
 1022 0178 0721     		movs	r1, #7
 1023              		.loc 1 455 0
 1024 017a 1862     		str	r0, [r3, #32]
 1025              		.loc 1 456 0
 1026 017c 1D20     		movs	r0, #29
ARM GAS  C:\Users\mathi\AppData\Local\Temp\cc1ZTLCV.s 			page 19


 1027 017e FFF7FEFF 		bl	nvicEnableVector
 1028              	.LVL77:
 1029              		.loc 1 457 0
 1030 0182 124B     		ldr	r3, .L219+28
 1031 0184 6361     		str	r3, [r4, #20]
 1032 0186 D4E7     		b	.L179
 1033              	.LVL78:
 1034              	.L216:
 1035              		.loc 1 446 0
 1036 0188 0F4B     		ldr	r3, .L219+24
 1037 018a 1A6C     		ldr	r2, [r3, #64]
 1038 018c 42F00102 		orr	r2, r2, #1
 1039 0190 1A64     		str	r2, [r3, #64]
 1040              		.loc 1 447 0
 1041 0192 1A6A     		ldr	r2, [r3, #32]
 1042 0194 0020     		movs	r0, #0
 1043              	.LVL79:
 1044 0196 42F00102 		orr	r2, r2, #1
 1045 019a 1A62     		str	r2, [r3, #32]
 1046              		.loc 1 448 0
 1047 019c 0721     		movs	r1, #7
 1048              		.loc 1 447 0
 1049 019e 1862     		str	r0, [r3, #32]
 1050              		.loc 1 448 0
 1051 01a0 1C20     		movs	r0, #28
 1052 01a2 FFF7FEFF 		bl	nvicEnableVector
 1053              	.LVL80:
 1054              		.loc 1 449 0
 1055 01a6 094B     		ldr	r3, .L219+28
 1056 01a8 6361     		str	r3, [r4, #20]
 1057 01aa C2E7     		b	.L179
 1058              	.LVL81:
 1059              	.L214:
 1060              		.loc 1 621 0
 1061 01ac FFF7FEFF 		bl	__stack_chk_fail
 1062              	.LVL82:
 1063              	.L220:
 1064              		.align	2
 1065              	.L219:
 1066 01b0 00000000 		.word	__stack_chk_guard
 1067 01b4 00000000 		.word	.LANCHOR4
 1068 01b8 00000000 		.word	.LANCHOR0
 1069 01bc 00000000 		.word	.LANCHOR1
 1070 01c0 00000000 		.word	.LANCHOR2
 1071 01c4 00000000 		.word	.LANCHOR3
 1072 01c8 00380240 		.word	1073887232
 1073 01cc 00BD0105 		.word	84000000
 1074              		.cfi_endproc
 1075              	.LFE262:
 1076              		.size	pwm_lld_start, .-pwm_lld_start
 1077              		.section	.text.pwm_lld_stop,"ax",%progbits
 1078              		.align	1
 1079              		.p2align 4,,15
 1080              		.global	pwm_lld_stop
 1081              		.syntax unified
 1082              		.thumb
 1083              		.thumb_func
ARM GAS  C:\Users\mathi\AppData\Local\Temp\cc1ZTLCV.s 			page 20


 1084              		.fpu fpv4-sp-d16
 1085              		.type	pwm_lld_stop, %function
 1086              	pwm_lld_stop:
 1087              	.LFB263:
 1088              		.loc 1 630 0
 1089              		.cfi_startproc
 1090              		@ args = 0, pretend = 0, frame = 8
 1091              		@ frame_needed = 0, uses_anonymous_args = 0
 1092              	.LVL83:
 1093 0000 10B5     		push	{r4, lr}
 1094              		.cfi_def_cfa_offset 8
 1095              		.cfi_offset 4, -8
 1096              		.cfi_offset 14, -4
 1097 0002 234C     		ldr	r4, .L235
 1098              		.loc 1 633 0
 1099 0004 0378     		ldrb	r3, [r0]	@ zero_extendqisi2
 1100              		.loc 1 630 0
 1101 0006 2268     		ldr	r2, [r4]
 1102 0008 82B0     		sub	sp, sp, #8
 1103              		.cfi_def_cfa_offset 16
 1104              		.loc 1 633 0
 1105 000a 022B     		cmp	r3, #2
 1106              		.loc 1 630 0
 1107 000c 0192     		str	r2, [sp, #4]
 1108              		.loc 1 633 0
 1109 000e 05D0     		beq	.L230
 1110              	.LVL84:
 1111              	.L221:
 1112              		.loc 1 686 0
 1113 0010 019A     		ldr	r2, [sp, #4]
 1114 0012 2368     		ldr	r3, [r4]
 1115 0014 9A42     		cmp	r2, r3
 1116 0016 38D1     		bne	.L231
 1117 0018 02B0     		add	sp, sp, #8
 1118              		.cfi_remember_state
 1119              		.cfi_def_cfa_offset 8
 1120              		@ sp needed
 1121 001a 10BD     		pop	{r4, pc}
 1122              	.LVL85:
 1123              	.L230:
 1124              		.cfi_restore_state
 1125              		.loc 1 634 0
 1126 001c 8169     		ldr	r1, [r0, #24]
 1127              		.loc 1 649 0
 1128 001e 1D4A     		ldr	r2, .L235+4
 1129              		.loc 1 634 0
 1130 0020 0023     		movs	r3, #0
 1131 0022 0B60     		str	r3, [r1]
 1132              		.loc 1 635 0
 1133 0024 8169     		ldr	r1, [r0, #24]
 1134 0026 CB60     		str	r3, [r1, #12]
 1135              		.loc 1 636 0
 1136 0028 8169     		ldr	r1, [r0, #24]
 1137              		.loc 1 649 0
 1138 002a 9042     		cmp	r0, r2
 1139              		.loc 1 636 0
 1140 002c 0B61     		str	r3, [r1, #16]
ARM GAS  C:\Users\mathi\AppData\Local\Temp\cc1ZTLCV.s 			page 21


 1141              		.loc 1 649 0
 1142 002e 23D0     		beq	.L232
 1143              		.loc 1 655 0
 1144 0030 194B     		ldr	r3, .L235+8
 1145 0032 9842     		cmp	r0, r3
 1146 0034 17D0     		beq	.L233
 1147              		.loc 1 661 0
 1148 0036 194B     		ldr	r3, .L235+12
 1149 0038 9842     		cmp	r0, r3
 1150 003a 0BD0     		beq	.L234
 1151              		.loc 1 667 0
 1152 003c 184B     		ldr	r3, .L235+16
 1153 003e 9842     		cmp	r0, r3
 1154 0040 E6D1     		bne	.L221
 1155              		.loc 1 668 0
 1156 0042 3220     		movs	r0, #50
 1157              	.LVL86:
 1158 0044 FFF7FEFF 		bl	nvicDisableVector
 1159              	.LVL87:
 1160              		.loc 1 669 0
 1161 0048 164A     		ldr	r2, .L235+20
 1162 004a 136C     		ldr	r3, [r2, #64]
 1163 004c 23F00803 		bic	r3, r3, #8
 1164 0050 1364     		str	r3, [r2, #64]
 1165              		.loc 1 686 0
 1166 0052 DDE7     		b	.L221
 1167              	.LVL88:
 1168              	.L234:
 1169              		.loc 1 662 0
 1170 0054 1E20     		movs	r0, #30
 1171              	.LVL89:
 1172 0056 FFF7FEFF 		bl	nvicDisableVector
 1173              	.LVL90:
 1174              		.loc 1 663 0
 1175 005a 124A     		ldr	r2, .L235+20
 1176 005c 136C     		ldr	r3, [r2, #64]
 1177 005e 23F00403 		bic	r3, r3, #4
 1178 0062 1364     		str	r3, [r2, #64]
 1179 0064 D4E7     		b	.L221
 1180              	.LVL91:
 1181              	.L233:
 1182              		.loc 1 656 0
 1183 0066 1D20     		movs	r0, #29
 1184              	.LVL92:
 1185 0068 FFF7FEFF 		bl	nvicDisableVector
 1186              	.LVL93:
 1187              		.loc 1 657 0
 1188 006c 0D4A     		ldr	r2, .L235+20
 1189 006e 136C     		ldr	r3, [r2, #64]
 1190 0070 23F00203 		bic	r3, r3, #2
 1191 0074 1364     		str	r3, [r2, #64]
 1192 0076 CBE7     		b	.L221
 1193              	.LVL94:
 1194              	.L232:
 1195              		.loc 1 650 0
 1196 0078 1C20     		movs	r0, #28
 1197              	.LVL95:
ARM GAS  C:\Users\mathi\AppData\Local\Temp\cc1ZTLCV.s 			page 22


 1198 007a FFF7FEFF 		bl	nvicDisableVector
 1199              	.LVL96:
 1200              		.loc 1 651 0
 1201 007e 094A     		ldr	r2, .L235+20
 1202 0080 136C     		ldr	r3, [r2, #64]
 1203 0082 23F00103 		bic	r3, r3, #1
 1204 0086 1364     		str	r3, [r2, #64]
 1205 0088 C2E7     		b	.L221
 1206              	.L231:
 1207              		.loc 1 686 0
 1208 008a FFF7FEFF 		bl	__stack_chk_fail
 1209              	.LVL97:
 1210              	.L236:
 1211 008e 00BF     		.align	2
 1212              	.L235:
 1213 0090 00000000 		.word	__stack_chk_guard
 1214 0094 00000000 		.word	.LANCHOR0
 1215 0098 00000000 		.word	.LANCHOR1
 1216 009c 00000000 		.word	.LANCHOR2
 1217 00a0 00000000 		.word	.LANCHOR3
 1218 00a4 00380240 		.word	1073887232
 1219              		.cfi_endproc
 1220              	.LFE263:
 1221              		.size	pwm_lld_stop, .-pwm_lld_stop
 1222              		.section	.text.pwm_lld_enable_channel,"ax",%progbits
 1223              		.align	1
 1224              		.p2align 4,,15
 1225              		.global	pwm_lld_enable_channel
 1226              		.syntax unified
 1227              		.thumb
 1228              		.thumb_func
 1229              		.fpu fpv4-sp-d16
 1230              		.type	pwm_lld_enable_channel, %function
 1231              	pwm_lld_enable_channel:
 1232              	.LFB264:
 1233              		.loc 1 703 0
 1234              		.cfi_startproc
 1235              		@ args = 0, pretend = 0, frame = 8
 1236              		@ frame_needed = 0, uses_anonymous_args = 0
 1237              	.LVL98:
 1238 0000 00B5     		push	{lr}
 1239              		.cfi_def_cfa_offset 4
 1240              		.cfi_offset 14, -4
 1241              		.loc 1 707 0
 1242 0002 8369     		ldr	r3, [r0, #24]
 1243              		.loc 1 703 0
 1244 0004 0848     		ldr	r0, .L241
 1245              	.LVL99:
 1246              		.loc 1 707 0
 1247 0006 0C31     		adds	r1, r1, #12
 1248              	.LVL100:
 1249 0008 03EB8103 		add	r3, r3, r1, lsl #2
 1250              		.loc 1 703 0
 1251 000c 83B0     		sub	sp, sp, #12
 1252              		.cfi_def_cfa_offset 16
 1253              		.loc 1 703 0
 1254 000e 0168     		ldr	r1, [r0]
ARM GAS  C:\Users\mathi\AppData\Local\Temp\cc1ZTLCV.s 			page 23


 1255 0010 0191     		str	r1, [sp, #4]
 1256              		.loc 1 707 0
 1257 0012 5A60     		str	r2, [r3, #4]
 1258              		.loc 1 714 0
 1259 0014 019A     		ldr	r2, [sp, #4]
 1260              	.LVL101:
 1261 0016 0368     		ldr	r3, [r0]
 1262              	.LVL102:
 1263 0018 9A42     		cmp	r2, r3
 1264 001a 02D1     		bne	.L240
 1265 001c 03B0     		add	sp, sp, #12
 1266              		.cfi_remember_state
 1267              		.cfi_def_cfa_offset 4
 1268              		@ sp needed
 1269 001e 5DF804FB 		ldr	pc, [sp], #4
 1270              	.L240:
 1271              		.cfi_restore_state
 1272 0022 FFF7FEFF 		bl	__stack_chk_fail
 1273              	.LVL103:
 1274              	.L242:
 1275 0026 00BF     		.align	2
 1276              	.L241:
 1277 0028 00000000 		.word	__stack_chk_guard
 1278              		.cfi_endproc
 1279              	.LFE264:
 1280              		.size	pwm_lld_enable_channel, .-pwm_lld_enable_channel
 1281              		.section	.text.pwm_lld_disable_channel,"ax",%progbits
 1282              		.align	1
 1283              		.p2align 4,,15
 1284              		.global	pwm_lld_disable_channel
 1285              		.syntax unified
 1286              		.thumb
 1287              		.thumb_func
 1288              		.fpu fpv4-sp-d16
 1289              		.type	pwm_lld_disable_channel, %function
 1290              	pwm_lld_disable_channel:
 1291              	.LFB265:
 1292              		.loc 1 728 0
 1293              		.cfi_startproc
 1294              		@ args = 0, pretend = 0, frame = 8
 1295              		@ frame_needed = 0, uses_anonymous_args = 0
 1296              	.LVL104:
 1297 0000 10B5     		push	{r4, lr}
 1298              		.cfi_def_cfa_offset 8
 1299              		.cfi_offset 4, -8
 1300              		.cfi_offset 14, -4
 1301 0002 0D4C     		ldr	r4, .L247
 1302              		.loc 1 731 0
 1303 0004 8369     		ldr	r3, [r0, #24]
 1304 0006 01F10C02 		add	r2, r1, #12
 1305              		.loc 1 728 0
 1306 000a 82B0     		sub	sp, sp, #8
 1307              		.cfi_def_cfa_offset 16
 1308              		.loc 1 731 0
 1309 000c 03EB8203 		add	r3, r3, r2, lsl #2
 1310              		.loc 1 728 0
 1311 0010 2268     		ldr	r2, [r4]
ARM GAS  C:\Users\mathi\AppData\Local\Temp\cc1ZTLCV.s 			page 24


 1312 0012 0192     		str	r2, [sp, #4]
 1313              		.loc 1 731 0
 1314 0014 0022     		movs	r2, #0
 1315 0016 5A60     		str	r2, [r3, #4]
 1316              		.loc 1 732 0
 1317 0018 8069     		ldr	r0, [r0, #24]
 1318              	.LVL105:
 1319 001a 0222     		movs	r2, #2
 1320 001c C368     		ldr	r3, [r0, #12]
 1321 001e 02FA01F1 		lsl	r1, r2, r1
 1322              	.LVL106:
 1323 0022 23EA0101 		bic	r1, r3, r1
 1324 0026 C160     		str	r1, [r0, #12]
 1325              		.loc 1 741 0
 1326 0028 019A     		ldr	r2, [sp, #4]
 1327 002a 2368     		ldr	r3, [r4]
 1328 002c 9A42     		cmp	r2, r3
 1329 002e 01D1     		bne	.L246
 1330 0030 02B0     		add	sp, sp, #8
 1331              		.cfi_remember_state
 1332              		.cfi_def_cfa_offset 8
 1333              		@ sp needed
 1334 0032 10BD     		pop	{r4, pc}
 1335              	.L246:
 1336              		.cfi_restore_state
 1337 0034 FFF7FEFF 		bl	__stack_chk_fail
 1338              	.LVL107:
 1339              	.L248:
 1340              		.align	2
 1341              	.L247:
 1342 0038 00000000 		.word	__stack_chk_guard
 1343              		.cfi_endproc
 1344              	.LFE265:
 1345              		.size	pwm_lld_disable_channel, .-pwm_lld_disable_channel
 1346              		.section	.text.pwm_lld_enable_periodic_notification,"ax",%progbits
 1347              		.align	1
 1348              		.p2align 4,,15
 1349              		.global	pwm_lld_enable_periodic_notification
 1350              		.syntax unified
 1351              		.thumb
 1352              		.thumb_func
 1353              		.fpu fpv4-sp-d16
 1354              		.type	pwm_lld_enable_periodic_notification, %function
 1355              	pwm_lld_enable_periodic_notification:
 1356              	.LFB266:
 1357              		.loc 1 752 0
 1358              		.cfi_startproc
 1359              		@ args = 0, pretend = 0, frame = 8
 1360              		@ frame_needed = 0, uses_anonymous_args = 0
 1361              	.LVL108:
 1362 0000 10B5     		push	{r4, lr}
 1363              		.cfi_def_cfa_offset 8
 1364              		.cfi_offset 4, -8
 1365              		.cfi_offset 14, -4
 1366 0002 0C49     		ldr	r1, .L254
 1367              		.loc 1 753 0
 1368 0004 8269     		ldr	r2, [r0, #24]
ARM GAS  C:\Users\mathi\AppData\Local\Temp\cc1ZTLCV.s 			page 25


 1369              		.loc 1 752 0
 1370 0006 0B68     		ldr	r3, [r1]
 1371 0008 82B0     		sub	sp, sp, #8
 1372              		.cfi_def_cfa_offset 16
 1373              		.loc 1 752 0
 1374 000a 0193     		str	r3, [sp, #4]
 1375              		.loc 1 753 0
 1376 000c D368     		ldr	r3, [r2, #12]
 1377              	.LVL109:
 1378              		.loc 1 757 0
 1379 000e DC07     		lsls	r4, r3, #31
 1380 0010 07D4     		bmi	.L249
 1381              		.loc 1 758 0
 1382 0012 1469     		ldr	r4, [r2, #16]
 1383 0014 24F00104 		bic	r4, r4, #1
 1384 0018 1461     		str	r4, [r2, #16]
 1385              		.loc 1 759 0
 1386 001a 8269     		ldr	r2, [r0, #24]
 1387 001c 43F00103 		orr	r3, r3, #1
 1388              	.LVL110:
 1389 0020 D360     		str	r3, [r2, #12]
 1390              	.L249:
 1391              		.loc 1 761 0
 1392 0022 019A     		ldr	r2, [sp, #4]
 1393 0024 0B68     		ldr	r3, [r1]
 1394 0026 9A42     		cmp	r2, r3
 1395 0028 01D1     		bne	.L253
 1396 002a 02B0     		add	sp, sp, #8
 1397              		.cfi_remember_state
 1398              		.cfi_def_cfa_offset 8
 1399              		@ sp needed
 1400 002c 10BD     		pop	{r4, pc}
 1401              	.L253:
 1402              		.cfi_restore_state
 1403 002e FFF7FEFF 		bl	__stack_chk_fail
 1404              	.LVL111:
 1405              	.L255:
 1406 0032 00BF     		.align	2
 1407              	.L254:
 1408 0034 00000000 		.word	__stack_chk_guard
 1409              		.cfi_endproc
 1410              	.LFE266:
 1411              		.size	pwm_lld_enable_periodic_notification, .-pwm_lld_enable_periodic_notification
 1412              		.section	.text.pwm_lld_disable_periodic_notification,"ax",%progbits
 1413              		.align	1
 1414              		.p2align 4,,15
 1415              		.global	pwm_lld_disable_periodic_notification
 1416              		.syntax unified
 1417              		.thumb
 1418              		.thumb_func
 1419              		.fpu fpv4-sp-d16
 1420              		.type	pwm_lld_disable_periodic_notification, %function
 1421              	pwm_lld_disable_periodic_notification:
 1422              	.LFB267:
 1423              		.loc 1 772 0
 1424              		.cfi_startproc
 1425              		@ args = 0, pretend = 0, frame = 8
ARM GAS  C:\Users\mathi\AppData\Local\Temp\cc1ZTLCV.s 			page 26


 1426              		@ frame_needed = 0, uses_anonymous_args = 0
 1427              	.LVL112:
 1428 0000 00B5     		push	{lr}
 1429              		.cfi_def_cfa_offset 4
 1430              		.cfi_offset 14, -4
 1431 0002 094A     		ldr	r2, .L260
 1432              		.loc 1 774 0
 1433 0004 8169     		ldr	r1, [r0, #24]
 1434              		.loc 1 772 0
 1435 0006 1368     		ldr	r3, [r2]
 1436 0008 83B0     		sub	sp, sp, #12
 1437              		.cfi_def_cfa_offset 16
 1438              		.loc 1 772 0
 1439 000a 0193     		str	r3, [sp, #4]
 1440              		.loc 1 774 0
 1441 000c CB68     		ldr	r3, [r1, #12]
 1442 000e 23F00103 		bic	r3, r3, #1
 1443 0012 CB60     		str	r3, [r1, #12]
 1444              		.loc 1 775 0
 1445 0014 0199     		ldr	r1, [sp, #4]
 1446 0016 1368     		ldr	r3, [r2]
 1447 0018 9942     		cmp	r1, r3
 1448 001a 02D1     		bne	.L259
 1449 001c 03B0     		add	sp, sp, #12
 1450              		.cfi_remember_state
 1451              		.cfi_def_cfa_offset 4
 1452              		@ sp needed
 1453 001e 5DF804FB 		ldr	pc, [sp], #4
 1454              	.L259:
 1455              		.cfi_restore_state
 1456 0022 FFF7FEFF 		bl	__stack_chk_fail
 1457              	.LVL113:
 1458              	.L261:
 1459 0026 00BF     		.align	2
 1460              	.L260:
 1461 0028 00000000 		.word	__stack_chk_guard
 1462              		.cfi_endproc
 1463              	.LFE267:
 1464              		.size	pwm_lld_disable_periodic_notification, .-pwm_lld_disable_periodic_notification
 1465              		.section	.text.pwm_lld_enable_channel_notification,"ax",%progbits
 1466              		.align	1
 1467              		.p2align 4,,15
 1468              		.global	pwm_lld_enable_channel_notification
 1469              		.syntax unified
 1470              		.thumb
 1471              		.thumb_func
 1472              		.fpu fpv4-sp-d16
 1473              		.type	pwm_lld_enable_channel_notification, %function
 1474              	pwm_lld_enable_channel_notification:
 1475              	.LFB268:
 1476              		.loc 1 789 0
 1477              		.cfi_startproc
 1478              		@ args = 0, pretend = 0, frame = 8
 1479              		@ frame_needed = 0, uses_anonymous_args = 0
 1480              	.LVL114:
 1481 0000 30B5     		push	{r4, r5, lr}
 1482              		.cfi_def_cfa_offset 12
ARM GAS  C:\Users\mathi\AppData\Local\Temp\cc1ZTLCV.s 			page 27


 1483              		.cfi_offset 4, -12
 1484              		.cfi_offset 5, -8
 1485              		.cfi_offset 14, -4
 1486 0002 0C4C     		ldr	r4, .L267
 1487              		.loc 1 790 0
 1488 0004 8569     		ldr	r5, [r0, #24]
 1489              		.loc 1 789 0
 1490 0006 2368     		ldr	r3, [r4]
 1491 0008 83B0     		sub	sp, sp, #12
 1492              		.cfi_def_cfa_offset 24
 1493              		.loc 1 789 0
 1494 000a 0193     		str	r3, [sp, #4]
 1495              		.loc 1 790 0
 1496 000c EA68     		ldr	r2, [r5, #12]
 1497              	.LVL115:
 1498              		.loc 1 799 0
 1499 000e 0223     		movs	r3, #2
 1500 0010 03FA01F1 		lsl	r1, r3, r1
 1501              	.LVL116:
 1502 0014 1142     		tst	r1, r2
 1503 0016 04D1     		bne	.L262
 1504              		.loc 1 800 0
 1505 0018 0A43     		orrs	r2, r2, r1
 1506              	.LVL117:
 1507 001a EA60     		str	r2, [r5, #12]
 1508              		.loc 1 801 0
 1509 001c 8369     		ldr	r3, [r0, #24]
 1510 001e C943     		mvns	r1, r1
 1511 0020 1961     		str	r1, [r3, #16]
 1512              	.L262:
 1513              		.loc 1 803 0
 1514 0022 019A     		ldr	r2, [sp, #4]
 1515 0024 2368     		ldr	r3, [r4]
 1516 0026 9A42     		cmp	r2, r3
 1517 0028 01D1     		bne	.L266
 1518 002a 03B0     		add	sp, sp, #12
 1519              		.cfi_remember_state
 1520              		.cfi_def_cfa_offset 12
 1521              		@ sp needed
 1522 002c 30BD     		pop	{r4, r5, pc}
 1523              	.L266:
 1524              		.cfi_restore_state
 1525 002e FFF7FEFF 		bl	__stack_chk_fail
 1526              	.LVL118:
 1527              	.L268:
 1528 0032 00BF     		.align	2
 1529              	.L267:
 1530 0034 00000000 		.word	__stack_chk_guard
 1531              		.cfi_endproc
 1532              	.LFE268:
 1533              		.size	pwm_lld_enable_channel_notification, .-pwm_lld_enable_channel_notification
 1534              		.section	.text.pwm_lld_disable_channel_notification,"ax",%progbits
 1535              		.align	1
 1536              		.p2align 4,,15
 1537              		.global	pwm_lld_disable_channel_notification
 1538              		.syntax unified
 1539              		.thumb
ARM GAS  C:\Users\mathi\AppData\Local\Temp\cc1ZTLCV.s 			page 28


 1540              		.thumb_func
 1541              		.fpu fpv4-sp-d16
 1542              		.type	pwm_lld_disable_channel_notification, %function
 1543              	pwm_lld_disable_channel_notification:
 1544              	.LFB269:
 1545              		.loc 1 817 0
 1546              		.cfi_startproc
 1547              		@ args = 0, pretend = 0, frame = 8
 1548              		@ frame_needed = 0, uses_anonymous_args = 0
 1549              	.LVL119:
 1550 0000 10B5     		push	{r4, lr}
 1551              		.cfi_def_cfa_offset 8
 1552              		.cfi_offset 4, -8
 1553              		.cfi_offset 14, -4
 1554 0002 0A4C     		ldr	r4, .L273
 1555              		.loc 1 819 0
 1556 0004 8069     		ldr	r0, [r0, #24]
 1557              	.LVL120:
 1558              		.loc 1 817 0
 1559 0006 2368     		ldr	r3, [r4]
 1560 0008 82B0     		sub	sp, sp, #8
 1561              		.cfi_def_cfa_offset 16
 1562              		.loc 1 819 0
 1563 000a 0222     		movs	r2, #2
 1564              		.loc 1 817 0
 1565 000c 0193     		str	r3, [sp, #4]
 1566              		.loc 1 819 0
 1567 000e C368     		ldr	r3, [r0, #12]
 1568 0010 02FA01F1 		lsl	r1, r2, r1
 1569              	.LVL121:
 1570 0014 23EA0103 		bic	r3, r3, r1
 1571 0018 C360     		str	r3, [r0, #12]
 1572              		.loc 1 820 0
 1573 001a 019A     		ldr	r2, [sp, #4]
 1574 001c 2368     		ldr	r3, [r4]
 1575 001e 9A42     		cmp	r2, r3
 1576 0020 01D1     		bne	.L272
 1577 0022 02B0     		add	sp, sp, #8
 1578              		.cfi_remember_state
 1579              		.cfi_def_cfa_offset 8
 1580              		@ sp needed
 1581 0024 10BD     		pop	{r4, pc}
 1582              	.L272:
 1583              		.cfi_restore_state
 1584 0026 FFF7FEFF 		bl	__stack_chk_fail
 1585              	.LVL122:
 1586              	.L274:
 1587 002a 00BF     		.align	2
 1588              	.L273:
 1589 002c 00000000 		.word	__stack_chk_guard
 1590              		.cfi_endproc
 1591              	.LFE269:
 1592              		.size	pwm_lld_disable_channel_notification, .-pwm_lld_disable_channel_notification
 1593              		.global	PWMD5
 1594              		.global	PWMD4
 1595              		.global	PWMD3
 1596              		.global	PWMD2
ARM GAS  C:\Users\mathi\AppData\Local\Temp\cc1ZTLCV.s 			page 29


 1597              		.section	.bss.PWMD2,"aw",%nobits
 1598              		.align	2
 1599              		.set	.LANCHOR0,. + 0
 1600              		.type	PWMD2, %object
 1601              		.size	PWMD2, 28
 1602              	PWMD2:
 1603 0000 00000000 		.space	28
 1603      00000000 
 1603      00000000 
 1603      00000000 
 1603      00000000 
 1604              		.section	.bss.PWMD3,"aw",%nobits
 1605              		.align	2
 1606              		.set	.LANCHOR1,. + 0
 1607              		.type	PWMD3, %object
 1608              		.size	PWMD3, 28
 1609              	PWMD3:
 1610 0000 00000000 		.space	28
 1610      00000000 
 1610      00000000 
 1610      00000000 
 1610      00000000 
 1611              		.section	.bss.PWMD4,"aw",%nobits
 1612              		.align	2
 1613              		.set	.LANCHOR2,. + 0
 1614              		.type	PWMD4, %object
 1615              		.size	PWMD4, 28
 1616              	PWMD4:
 1617 0000 00000000 		.space	28
 1617      00000000 
 1617      00000000 
 1617      00000000 
 1617      00000000 
 1618              		.section	.bss.PWMD5,"aw",%nobits
 1619              		.align	2
 1620              		.set	.LANCHOR3,. + 0
 1621              		.type	PWMD5, %object
 1622              		.size	PWMD5, 28
 1623              	PWMD5:
 1624 0000 00000000 		.space	28
 1624      00000000 
 1624      00000000 
 1624      00000000 
 1624      00000000 
 1625              		.section	.rodata.__func__.9867,"a",%progbits
 1626              		.align	2
 1627              		.set	.LANCHOR4,. + 0
 1628              		.type	__func__.9867, %object
 1629              		.size	__func__.9867, 14
 1630              	__func__.9867:
 1631 0000 70776D5F 		.ascii	"pwm_lld_start\000"
 1631      6C6C645F 
 1631      73746172 
 1631      7400
 1632              		.text
 1633              	.Letext0:
 1634              		.file 2 "c:\\eclipse_e-puck2\\tools\\gcc-arm-none-eabi-7-2017-q4-major-win32\\lib\\gcc\\arm-none-e
ARM GAS  C:\Users\mathi\AppData\Local\Temp\cc1ZTLCV.s 			page 30


 1635              		.file 3 "c:\\eclipse_e-puck2\\tools\\gcc-arm-none-eabi-7-2017-q4-major-win32\\arm-none-eabi\\inclu
 1636              		.file 4 "c:\\eclipse_e-puck2\\tools\\gcc-arm-none-eabi-7-2017-q4-major-win32\\arm-none-eabi\\inclu
 1637              		.file 5 "../../lib/e-puck2_main-processor/ChibiOS//os/rt/ports/ARMCMx/compilers/GCC/chtypes.h"
 1638              		.file 6 "../../lib/e-puck2_main-processor/ChibiOS//os/rt/include/chsystypes.h"
 1639              		.file 7 "../../lib/e-puck2_main-processor/ChibiOS//os/rt/include/chschd.h"
 1640              		.file 8 "../../lib/e-puck2_main-processor/ChibiOS//os/ext/CMSIS/include/core_cm4.h"
 1641              		.file 9 "../../lib/e-puck2_main-processor/ChibiOS//os/ext/CMSIS/ST/system_stm32f4xx.h"
 1642              		.file 10 "../../lib/e-puck2_main-processor/ChibiOS//os/ext/CMSIS/ST/stm32f407xx.h"
 1643              		.file 11 "../../lib/e-puck2_main-processor/ChibiOS//os/rt/ports/ARMCMx/chcore.h"
 1644              		.file 12 "../../lib/e-puck2_main-processor/ChibiOS//os/rt/ports/ARMCMx/chcore_v7m.h"
 1645              		.file 13 "../../lib/e-puck2_main-processor/ChibiOS//os/rt/include/chdebug.h"
 1646              		.file 14 "../../lib/e-puck2_main-processor/ChibiOS//os/rt/include/chtm.h"
 1647              		.file 15 "../../lib/e-puck2_main-processor/ChibiOS//os/rt/include/chstats.h"
 1648              		.file 16 "../../lib/e-puck2_main-processor/ChibiOS//os/rt/include/chsem.h"
 1649              		.file 17 "../../lib/e-puck2_main-processor/ChibiOS//os/rt/include/chmtx.h"
 1650              		.file 18 "../../lib/e-puck2_main-processor/ChibiOS//os/rt/include/chregistry.h"
 1651              		.file 19 "../../lib/e-puck2_main-processor/ChibiOS//os/rt/include/chevents.h"
 1652              		.file 20 "../../lib/e-puck2_main-processor/ChibiOS//os/rt/include/chqueues.h"
 1653              		.file 21 "../../lib/e-puck2_main-processor/ChibiOS//os/hal/ports/STM32/STM32F4xx/stm32_dma.h"
 1654              		.file 22 "../../lib/e-puck2_main-processor/ChibiOS//os/hal/include/hal_ioblock.h"
 1655              		.file 23 "../../lib/e-puck2_main-processor/ChibiOS//os/hal/ports/STM32/LLD/GPIOv2/pal_lld.h"
 1656              		.file 24 "../../lib/e-puck2_main-processor/ChibiOS//os/hal/include/adc.h"
 1657              		.file 25 "../../lib/e-puck2_main-processor/ChibiOS//os/hal/ports/STM32/STM32F4xx/adc_lld.h"
 1658              		.file 26 "../../lib/e-puck2_main-processor/ChibiOS//os/hal/include/can.h"
 1659              		.file 27 "../../lib/e-puck2_main-processor/ChibiOS//os/hal/ports/STM32/LLD/can_lld.h"
 1660              		.file 28 "../../lib/e-puck2_main-processor/ChibiOS//os/hal/include/dac.h"
 1661              		.file 29 "../../lib/e-puck2_main-processor/ChibiOS//os/hal/ports/STM32/LLD/DACv1/dac_lld.h"
 1662              		.file 30 "../../lib/e-puck2_main-processor/ChibiOS//os/hal/include/ext.h"
 1663              		.file 31 "../../lib/e-puck2_main-processor/ChibiOS//os/hal/ports/STM32/LLD/ext_lld.h"
 1664              		.file 32 "../../lib/e-puck2_main-processor/ChibiOS//os/hal/include/gpt.h"
 1665              		.file 33 "../../lib/e-puck2_main-processor/ChibiOS//os/hal/ports/STM32/LLD/TIMv1/gpt_lld.h"
 1666              		.file 34 "../../lib/e-puck2_main-processor/ChibiOS//os/hal/ports/STM32/LLD/TIMv1/stm32_tim.h"
 1667              		.file 35 "../../lib/e-puck2_main-processor/ChibiOS//os/hal/include/i2c.h"
 1668              		.file 36 "../../lib/e-puck2_main-processor/ChibiOS//os/hal/ports/STM32/LLD/I2Cv1/i2c_lld.h"
 1669              		.file 37 "../../lib/e-puck2_main-processor/ChibiOS//os/hal/include/i2s.h"
 1670              		.file 38 "../../lib/e-puck2_main-processor/ChibiOS//os/hal/ports/STM32/LLD/SPIv1/i2s_lld.h"
 1671              		.file 39 "../../lib/e-puck2_main-processor/ChibiOS//os/hal/include/pwm.h"
 1672              		.file 40 "../../lib/e-puck2_main-processor/ChibiOS//os/hal/ports/STM32/LLD/TIMv1/pwm_lld.h"
 1673              		.file 41 "../../lib/e-puck2_main-processor/ChibiOS//os/hal/include/serial.h"
 1674              		.file 42 "../../lib/e-puck2_main-processor/ChibiOS//os/hal/ports/STM32/LLD/USARTv1/serial_lld.h"
 1675              		.file 43 "../../lib/e-puck2_main-processor/ChibiOS//os/hal/include/sdc.h"
 1676              		.file 44 "../../lib/e-puck2_main-processor/ChibiOS//os/hal/ports/STM32/LLD/sdc_lld.h"
 1677              		.file 45 "../../lib/e-puck2_main-processor/ChibiOS//os/hal/include/spi.h"
 1678              		.file 46 "../../lib/e-puck2_main-processor/ChibiOS//os/hal/ports/STM32/LLD/SPIv1/spi_lld.h"
 1679              		.file 47 "../../lib/e-puck2_main-processor/ChibiOS//os/hal/include/usb.h"
 1680              		.file 48 "../../lib/e-puck2_main-processor/ChibiOS//os/hal/ports/STM32/LLD/OTGv1/usb_lld.h"
 1681              		.file 49 "../../lib/e-puck2_main-processor/ChibiOS//os/hal/ports/STM32/LLD/OTGv1/stm32_otg.h"
 1682              		.file 50 "../../lib/e-puck2_main-processor/ChibiOS//os/hal/ports/common/ARMCMx/nvic.h"
 1683              		.file 51 "../../lib/e-puck2_main-processor/ChibiOS//os/rt/include/chsys.h"