ARM GAS  C:\Users\mathi\AppData\Local\Temp\ccuhldPQ.s 			page 1


   1              		.cpu cortex-m4
   2              		.eabi_attribute 27, 1
   3              		.eabi_attribute 28, 1
   4              		.eabi_attribute 20, 1
   5              		.eabi_attribute 21, 1
   6              		.eabi_attribute 23, 3
   7              		.eabi_attribute 24, 1
   8              		.eabi_attribute 25, 1
   9              		.eabi_attribute 26, 1
  10              		.eabi_attribute 30, 2
  11              		.eabi_attribute 34, 1
  12              		.eabi_attribute 18, 4
  13              		.file	"sdc.c"
  14              		.text
  15              	.Ltext0:
  16              		.cfi_sections	.debug_frame
  17              		.section	.text.sdcGetInfo,"ax",%progbits
  18              		.align	1
  19              		.p2align 4,,15
  20              		.global	sdcGetInfo
  21              		.syntax unified
  22              		.thumb
  23              		.thumb_func
  24              		.fpu fpv4-sp-d16
  25              		.type	sdcGetInfo, %function
  26              	sdcGetInfo:
  27              	.LFB279:
  28              		.file 1 "../../lib/e-puck2_main-processor/ChibiOS//os/hal/src/sdc.c"
  29              		.loc 1 922 0
  30              		.cfi_startproc
  31              		@ args = 0, pretend = 0, frame = 8
  32              		@ frame_needed = 0, uses_anonymous_args = 0
  33              	.LVL0:
  34 0000 70B5     		push	{r4, r5, r6, lr}
  35              		.cfi_def_cfa_offset 16
  36              		.cfi_offset 4, -16
  37              		.cfi_offset 5, -12
  38              		.cfi_offset 6, -8
  39              		.cfi_offset 14, -4
  40 0002 104D     		ldr	r5, .L14
  41 0004 82B0     		sub	sp, sp, #8
  42              		.cfi_def_cfa_offset 24
  43              		.loc 1 922 0
  44 0006 2B68     		ldr	r3, [r5]
  45 0008 0193     		str	r3, [sp, #4]
  46 000a 0E46     		mov	r6, r1
  47              		.loc 1 924 0
  48 000c 0446     		mov	r4, r0
  49 000e 50B1     		cbz	r0, .L2
  50              		.loc 1 924 0 is_stmt 0 discriminator 3
  51 0010 49B1     		cbz	r1, .L2
  52              		.loc 1 926 0 is_stmt 1
  53 0012 2379     		ldrb	r3, [r4, #4]	@ zero_extendqisi2
  54 0014 052B     		cmp	r3, #5
  55 0016 0CD0     		beq	.L12
  56              	.LVL1:
  57              	.L6:
ARM GAS  C:\Users\mathi\AppData\Local\Temp\ccuhldPQ.s 			page 2


  58              		.loc 1 927 0
  59 0018 0120     		movs	r0, #1
  60              	.L4:
  61              		.loc 1 934 0
  62 001a 019A     		ldr	r2, [sp, #4]
  63 001c 2B68     		ldr	r3, [r5]
  64 001e 9A42     		cmp	r2, r3
  65 0020 0ED1     		bne	.L13
  66 0022 02B0     		add	sp, sp, #8
  67              		.cfi_remember_state
  68              		.cfi_def_cfa_offset 16
  69              		@ sp needed
  70 0024 70BD     		pop	{r4, r5, r6, pc}
  71              	.LVL2:
  72              	.L2:
  73              		.cfi_restore_state
  74              		.loc 1 924 0 discriminator 4
  75 0026 0848     		ldr	r0, .L14+4
  76              	.LVL3:
  77 0028 FFF7FEFF 		bl	chSysHalt
  78              	.LVL4:
  79              		.loc 1 926 0 discriminator 4
  80 002c 2379     		ldrb	r3, [r4, #4]	@ zero_extendqisi2
  81 002e 052B     		cmp	r3, #5
  82 0030 F2D1     		bne	.L6
  83              	.L12:
  84              		.loc 1 930 0
  85 0032 A36A     		ldr	r3, [r4, #40]
  86 0034 7360     		str	r3, [r6, #4]
  87              		.loc 1 931 0
  88 0036 4FF40073 		mov	r3, #512
  89 003a 3360     		str	r3, [r6]
  90              		.loc 1 933 0
  91 003c 0020     		movs	r0, #0
  92 003e ECE7     		b	.L4
  93              	.L13:
  94              		.loc 1 934 0
  95 0040 FFF7FEFF 		bl	__stack_chk_fail
  96              	.LVL5:
  97              	.L15:
  98              		.align	2
  99              	.L14:
 100 0044 00000000 		.word	__stack_chk_guard
 101 0048 00000000 		.word	.LANCHOR0
 102              		.cfi_endproc
 103              	.LFE279:
 104              		.size	sdcGetInfo, .-sdcGetInfo
 105              		.section	.text.sdcConnect,"ax",%progbits
 106              		.align	1
 107              		.p2align 4,,15
 108              		.global	sdcConnect
 109              		.syntax unified
 110              		.thumb
 111              		.thumb_func
 112              		.fpu fpv4-sp-d16
 113              		.type	sdcConnect, %function
 114              	sdcConnect:
ARM GAS  C:\Users\mathi\AppData\Local\Temp\ccuhldPQ.s 			page 3


 115              	.LFB273:
 116              		.loc 1 618 0
 117              		.cfi_startproc
 118              		@ args = 0, pretend = 0, frame = 16
 119              		@ frame_needed = 1, uses_anonymous_args = 0
 120              	.LVL6:
 121 0000 2DE9F047 		push	{r4, r5, r6, r7, r8, r9, r10, lr}
 122              		.cfi_def_cfa_offset 32
 123              		.cfi_offset 4, -32
 124              		.cfi_offset 5, -28
 125              		.cfi_offset 6, -24
 126              		.cfi_offset 7, -20
 127              		.cfi_offset 8, -16
 128              		.cfi_offset 9, -12
 129              		.cfi_offset 10, -8
 130              		.cfi_offset 14, -4
 131 0004 DFF89C83 		ldr	r8, .L107+36
 132 0008 86B0     		sub	sp, sp, #24
 133              		.cfi_def_cfa_offset 56
 134 000a 02AF     		add	r7, sp, #8
 135              		.cfi_def_cfa 7, 48
 136              		.loc 1 618 0
 137 000c D8F80030 		ldr	r3, [r8]
 138 0010 FB60     		str	r3, [r7, #12]
 139              	.LVL7:
 140              		.loc 1 622 0
 141 0012 0446     		mov	r4, r0
 142 0014 0028     		cmp	r0, #0
 143 0016 00F01981 		beq	.L97
 144              	.LVL8:
 145              	.L17:
 146              		.loc 1 623 0 discriminator 1
 147 001a 2379     		ldrb	r3, [r4, #4]	@ zero_extendqisi2
 148 001c 022B     		cmp	r3, #2
 149 001e 01D0     		beq	.L18
 150              		.loc 1 623 0 is_stmt 0 discriminator 2
 151 0020 052B     		cmp	r3, #5
 152 0022 2BD1     		bne	.L98
 153              	.L18:
 154              		.loc 1 627 0 is_stmt 1
 155 0024 0323     		movs	r3, #3
 156 0026 2371     		strb	r3, [r4, #4]
 157              		.loc 1 630 0
 158 0028 2046     		mov	r0, r4
 159 002a FFF7FEFF 		bl	sdc_lld_start_clk
 160              	.LVL9:
 161              		.loc 1 633 0
 162 002e 0022     		movs	r2, #0
 163 0030 1146     		mov	r1, r2
 164 0032 2046     		mov	r0, r4
 165 0034 FFF7FEFF 		bl	sdc_lld_send_cmd_none
 166              	.LVL10:
 167              	.LBB112:
 168              	.LBB113:
 169              		.loc 1 103 0
 170 0038 07F10803 		add	r3, r7, #8
 171 003c 4FF4D572 		mov	r2, #426
ARM GAS  C:\Users\mathi\AppData\Local\Temp\ccuhldPQ.s 			page 4


 172 0040 0821     		movs	r1, #8
 173 0042 2046     		mov	r0, r4
 174 0044 FFF7FEFF 		bl	sdc_lld_send_cmd_short_crc
 175              	.LVL11:
 176 0048 E0B9     		cbnz	r0, .L19
 177              		.loc 1 107 0
 178 004a BB68     		ldr	r3, [r7, #8]
 179              		.loc 1 105 0
 180 004c 0122     		movs	r2, #1
 181              		.loc 1 107 0
 182 004e C3F30323 		ubfx	r3, r3, #8, #4
 183 0052 9342     		cmp	r3, r2
 184              		.loc 1 105 0
 185 0054 2263     		str	r2, [r4, #48]
 186              		.loc 1 107 0
 187 0056 00F0FD80 		beq	.L99
 188              	.LVL12:
 189              	.L21:
 190              	.LBE113:
 191              	.LBE112:
 192              		.loc 1 741 0
 193 005a 2046     		mov	r0, r4
 194 005c FFF7FEFF 		bl	sdc_lld_stop_clk
 195              	.LVL13:
 196              		.loc 1 742 0
 197 0060 0223     		movs	r3, #2
 198 0062 2371     		strb	r3, [r4, #4]
 199              		.loc 1 743 0
 200 0064 0125     		movs	r5, #1
 201              	.L63:
 202              		.loc 1 744 0
 203 0066 FA68     		ldr	r2, [r7, #12]
 204 0068 D8F80030 		ldr	r3, [r8]
 205 006c 9A42     		cmp	r2, r3
 206 006e 2846     		mov	r0, r5
 207 0070 40F04681 		bne	.L100
 208 0074 1037     		adds	r7, r7, #16
 209              		.cfi_remember_state
 210              		.cfi_def_cfa_offset 32
 211 0076 BD46     		mov	sp, r7
 212              		.cfi_def_cfa_register 13
 213              		@ sp needed
 214 0078 BDE8F087 		pop	{r4, r5, r6, r7, r8, r9, r10, pc}
 215              	.LVL14:
 216              	.L98:
 217              		.cfi_restore_state
 218              		.loc 1 623 0 discriminator 3
 219 007c C048     		ldr	r0, .L107
 220 007e FFF7FEFF 		bl	chSysHalt
 221              	.LVL15:
 222 0082 CFE7     		b	.L18
 223              	.LVL16:
 224              	.L19:
 225              	.LBB117:
 226              	.LBB114:
 227              		.loc 1 117 0
 228 0084 07F10803 		add	r3, r7, #8
ARM GAS  C:\Users\mathi\AppData\Local\Temp\ccuhldPQ.s 			page 5


 229 0088 0022     		movs	r2, #0
 230 008a 3721     		movs	r1, #55
 231 008c 2046     		mov	r0, r4
 232 008e FFF7FEFF 		bl	sdc_lld_send_cmd_short_crc
 233              	.LVL17:
 234 0092 0028     		cmp	r0, #0
 235 0094 40F0BE80 		bne	.L24
 236              		.loc 1 118 0
 237 0098 BB68     		ldr	r3, [r7, #8]
 238 009a BA4A     		ldr	r2, .L107+4
 239 009c 1A40     		ands	r2, r2, r3
 240              		.loc 1 117 0
 241 009e 002A     		cmp	r2, #0
 242 00a0 40F0B880 		bne	.L24
 243              		.loc 1 122 0
 244 00a4 2263     		str	r2, [r4, #48]
 245              		.loc 1 125 0
 246 00a6 1146     		mov	r1, r2
 247 00a8 2046     		mov	r0, r4
 248 00aa FFF7FEFF 		bl	sdc_lld_send_cmd_none
 249              	.LVL18:
 250              	.L27:
 251              	.LBE114:
 252              	.LBE117:
 253              		.loc 1 641 0
 254 00ae 266B     		ldr	r6, [r4, #48]
 255 00b0 06F00F03 		and	r3, r6, #15
 256 00b4 022B     		cmp	r3, #2
 257 00b6 00F0AF80 		beq	.L26
 258              	.LVL19:
 259              	.LBB118:
 260              	.LBB119:
 261              		.loc 1 189 0
 262 00ba B34E     		ldr	r6, .L107+8
 263 00bc B34A     		ldr	r2, .L107+12
 264              		.loc 1 195 0
 265 00be DFF8C492 		ldr	r9, .L107+4
 266              		.loc 1 189 0
 267 00c2 012B     		cmp	r3, #1
 268 00c4 18BF     		it	ne
 269 00c6 1646     		movne	r6, r2
 270              	.LVL20:
 271 00c8 6425     		movs	r5, #100
 272 00ca 04E0     		b	.L38
 273              	.LVL21:
 274              	.L36:
 275              		.loc 1 207 0
 276 00cc 013D     		subs	r5, r5, #1
 277 00ce C4D0     		beq	.L21
 278              	.LVL22:
 279              	.LBB120:
 280              	.LBB121:
 281              		.file 2 "../../lib/e-puck2_main-processor/ChibiOS//os/hal/osal/rt/osal.h"
 282              		.loc 2 627 0
 283 00d0 0A20     		movs	r0, #10
 284 00d2 FFF7FEFF 		bl	chThdSleep
 285              	.LVL23:
ARM GAS  C:\Users\mathi\AppData\Local\Temp\ccuhldPQ.s 			page 6


 286              	.L38:
 287              	.LBE121:
 288              	.LBE120:
 289              		.loc 1 194 0
 290 00d6 07F10803 		add	r3, r7, #8
 291 00da 0022     		movs	r2, #0
 292 00dc 3721     		movs	r1, #55
 293 00de 2046     		mov	r0, r4
 294 00e0 FFF7FEFF 		bl	sdc_lld_send_cmd_short_crc
 295              	.LVL24:
 296 00e4 0028     		cmp	r0, #0
 297 00e6 B8D1     		bne	.L21
 298              		.loc 1 195 0
 299 00e8 BB68     		ldr	r3, [r7, #8]
 300              		.loc 1 194 0
 301 00ea 13EA090F 		tst	r3, r9
 302 00ee B4D1     		bne	.L21
 303              		.loc 1 198 0
 304 00f0 07F10803 		add	r3, r7, #8
 305 00f4 3246     		mov	r2, r6
 306 00f6 2921     		movs	r1, #41
 307 00f8 2046     		mov	r0, r4
 308 00fa FFF7FEFF 		bl	sdc_lld_send_cmd_short
 309              	.LVL25:
 310 00fe 0028     		cmp	r0, #0
 311 0100 ABD1     		bne	.L21
 312              		.loc 1 201 0
 313 0102 BB68     		ldr	r3, [r7, #8]
 314 0104 002B     		cmp	r3, #0
 315 0106 E1DA     		bge	.L36
 316              		.loc 1 202 0
 317 0108 5B00     		lsls	r3, r3, #1
 318 010a 03D5     		bpl	.L32
 319              	.LVL26:
 320              	.L104:
 321              		.loc 1 203 0
 322 010c 236B     		ldr	r3, [r4, #48]
 323 010e 43F01003 		orr	r3, r3, #16
 324 0112 2363     		str	r3, [r4, #48]
 325              	.L32:
 326              	.LBE119:
 327              	.LBE118:
 328              		.loc 1 653 0
 329 0114 04F10803 		add	r3, r4, #8
 330 0118 0022     		movs	r2, #0
 331 011a 0221     		movs	r1, #2
 332 011c 2046     		mov	r0, r4
 333 011e FFF7FEFF 		bl	sdc_lld_send_cmd_long_crc
 334              	.LVL27:
 335 0122 0028     		cmp	r0, #0
 336 0124 99D1     		bne	.L21
 337              		.loc 1 658 0
 338 0126 0246     		mov	r2, r0
 339 0128 04F13803 		add	r3, r4, #56
 340 012c 0321     		movs	r1, #3
 341 012e 2046     		mov	r0, r4
 342 0130 FFF7FEFF 		bl	sdc_lld_send_cmd_short_crc
ARM GAS  C:\Users\mathi\AppData\Local\Temp\ccuhldPQ.s 			page 7


 343              	.LVL28:
 344 0134 0028     		cmp	r0, #0
 345 0136 90D1     		bne	.L21
 346              		.loc 1 665 0
 347 0138 04F11805 		add	r5, r4, #24
 348              		.loc 1 664 0
 349 013c 2B46     		mov	r3, r5
 350 013e A26B     		ldr	r2, [r4, #56]
 351 0140 0921     		movs	r1, #9
 352 0142 2046     		mov	r0, r4
 353 0144 FFF7FEFF 		bl	sdc_lld_send_cmd_long_crc
 354              	.LVL29:
 355 0148 0028     		cmp	r0, #0
 356 014a 86D1     		bne	.L21
 357              		.loc 1 670 0
 358 014c 3B1D     		adds	r3, r7, #4
 359 014e A26B     		ldr	r2, [r4, #56]
 360 0150 0721     		movs	r1, #7
 361 0152 2046     		mov	r0, r4
 362 0154 FFF7FEFF 		bl	sdc_lld_send_cmd_short_crc
 363              	.LVL30:
 364 0158 8246     		mov	r10, r0
 365 015a 0028     		cmp	r0, #0
 366 015c 7FF47DAF 		bne	.L21
 367              	.LVL31:
 368              	.LBB123:
 369              	.LBB124:
 370              		.loc 1 408 0
 371 0160 236B     		ldr	r3, [r4, #48]
 372 0162 03F00F03 		and	r3, r3, #15
 373 0166 022B     		cmp	r3, #2
 374 0168 00F09780 		beq	.L101
 375              	.LVL32:
 376              	.LBB125:
 377              	.LBB126:
 378              		.loc 1 318 0
 379 016c 6E46     		mov	r6, sp
 380              	.LVL33:
 381              		.loc 1 328 0
 382 016e 7E22     		movs	r2, #126
 383              		.loc 1 321 0
 384 0170 90B0     		sub	sp, sp, #64
 385              		.loc 1 328 0
 386 0172 7F21     		movs	r1, #127
 387 0174 2846     		mov	r0, r5
 388 0176 FFF7FEFF 		bl	_mmcsd_get_slice
 389              	.LVL34:
 390              		.loc 1 321 0
 391 017a 0DF10809 		add	r9, sp, #8
 392              	.LVL35:
 393              		.loc 1 328 0
 394 017e 0028     		cmp	r0, #0
 395 0180 79D1     		bne	.L102
 396              		.loc 1 329 0
 397 0182 0146     		mov	r1, r0
 398 0184 B546     		mov	sp, r6
 399              	.LVL36:
ARM GAS  C:\Users\mathi\AppData\Local\Temp\ccuhldPQ.s 			page 8


 400              	.L44:
 401              	.LBE126:
 402              	.LBE125:
 403              	.LBE124:
 404              	.LBE123:
 405              		.loc 1 679 0
 406 0186 2046     		mov	r0, r4
 407 0188 FFF7FEFF 		bl	sdc_lld_set_data_clk
 408              	.LVL37:
 409              		.loc 1 682 0
 410 018c 236B     		ldr	r3, [r4, #48]
 411 018e 03F00F03 		and	r3, r3, #15
 412 0192 022B     		cmp	r3, #2
 413 0194 00F09680 		beq	.L103
 414              	.L50:
 415              		.loc 1 707 0
 416 0198 2846     		mov	r0, r5
 417 019a FFF7FEFF 		bl	_mmcsd_get_capacity
 418              	.LVL38:
 419 019e A062     		str	r0, [r4, #40]
 420              	.L52:
 421              		.loc 1 711 0
 422 01a0 3B1D     		adds	r3, r7, #4
 423 01a2 4FF40072 		mov	r2, #512
 424 01a6 1021     		movs	r1, #16
 425 01a8 2046     		mov	r0, r4
 426 01aa FFF7FEFF 		bl	sdc_lld_send_cmd_short_crc
 427              	.LVL39:
 428 01ae 0546     		mov	r5, r0
 429 01b0 0028     		cmp	r0, #0
 430 01b2 7FF452AF 		bne	.L21
 431              		.loc 1 713 0
 432 01b6 7B68     		ldr	r3, [r7, #4]
 433 01b8 724E     		ldr	r6, .L107+4
 434              		.loc 1 712 0
 435 01ba 3342     		tst	r3, r6
 436 01bc 7FF44DAF 		bne	.L21
 437              		.loc 1 718 0
 438 01c0 236B     		ldr	r3, [r4, #48]
 439 01c2 03F00F03 		and	r3, r3, #15
 440 01c6 012B     		cmp	r3, #1
 441 01c8 40F2B280 		bls	.L53
 442 01cc 022B     		cmp	r3, #2
 443 01ce 7FF444AF 		bne	.L21
 444              	.LVL40:
 445              	.LBB141:
 446              	.LBB142:
 447              		.loc 1 467 0
 448 01d2 E36A     		ldr	r3, [r4, #44]
 449 01d4 1A79     		ldrb	r2, [r3, #4]	@ zero_extendqisi2
 450 01d6 012A     		cmp	r2, #1
 451 01d8 00F0A880 		beq	.L66
 452 01dc 17D3     		bcc	.L57
 453 01de 022A     		cmp	r2, #2
 454 01e0 40F0E280 		bne	.L91
 455              		.loc 1 475 0
 456 01e4 6A4E     		ldr	r6, .L107+16
ARM GAS  C:\Users\mathi\AppData\Local\Temp\ccuhldPQ.s 			page 9


 457              	.L59:
 458              	.LVL41:
 459              		.loc 1 482 0
 460 01e6 1979     		ldrb	r1, [r3, #4]	@ zero_extendqisi2
 461 01e8 2046     		mov	r0, r4
 462 01ea FFF7FEFF 		bl	sdc_lld_set_bus_mode
 463              	.LVL42:
 464              		.loc 1 483 0
 465 01ee 07F10803 		add	r3, r7, #8
 466 01f2 3246     		mov	r2, r6
 467 01f4 0621     		movs	r1, #6
 468 01f6 2046     		mov	r0, r4
 469 01f8 FFF7FEFF 		bl	sdc_lld_send_cmd_short_crc
 470              	.LVL43:
 471 01fc 0028     		cmp	r0, #0
 472 01fe 7FF42CAF 		bne	.L21
 473              		.loc 1 484 0
 474 0202 BA68     		ldr	r2, [r7, #8]
 475 0204 5F4B     		ldr	r3, .L107+4
 476 0206 1340     		ands	r3, r3, r2
 477              		.loc 1 483 0
 478 0208 002B     		cmp	r3, #0
 479 020a 7FF426AF 		bne	.L21
 480              	.LVL44:
 481              	.L57:
 482              	.LBE142:
 483              	.LBE141:
 484              		.loc 1 736 0
 485 020e 0523     		movs	r3, #5
 486 0210 2371     		strb	r3, [r4, #4]
 487              		.loc 1 737 0
 488 0212 28E7     		b	.L63
 489              	.LVL45:
 490              	.L24:
 491              	.LBB145:
 492              	.LBB115:
 493              		.loc 1 119 0
 494 0214 0223     		movs	r3, #2
 495 0216 2363     		str	r3, [r4, #48]
 496              	.LVL46:
 497              	.L26:
 498              	.LBE115:
 499              	.LBE145:
 500              	.LBB146:
 501              	.LBB147:
 502              		.loc 1 151 0
 503 0218 5E4E     		ldr	r6, .L107+20
 504              	.LBE147:
 505              	.LBE146:
 506              		.loc 1 618 0
 507 021a 6425     		movs	r5, #100
 508 021c 05E0     		b	.L33
 509              	.L30:
 510              	.LBB151:
 511              	.LBB150:
 512              		.loc 1 160 0
 513 021e 013D     		subs	r5, r5, #1
ARM GAS  C:\Users\mathi\AppData\Local\Temp\ccuhldPQ.s 			page 10


 514 0220 3FF41BAF 		beq	.L21
 515              	.LVL47:
 516              	.LBB148:
 517              	.LBB149:
 518              		.loc 2 627 0
 519 0224 0A20     		movs	r0, #10
 520 0226 FFF7FEFF 		bl	chThdSleep
 521              	.LVL48:
 522              	.L33:
 523              	.LBE149:
 524              	.LBE148:
 525              		.loc 1 151 0
 526 022a 07F10803 		add	r3, r7, #8
 527 022e 3246     		mov	r2, r6
 528 0230 0121     		movs	r1, #1
 529 0232 2046     		mov	r0, r4
 530 0234 FFF7FEFF 		bl	sdc_lld_send_cmd_short
 531              	.LVL49:
 532 0238 0028     		cmp	r0, #0
 533 023a 7FF40EAF 		bne	.L21
 534              		.loc 1 154 0
 535 023e BB68     		ldr	r3, [r7, #8]
 536 0240 002B     		cmp	r3, #0
 537 0242 ECDA     		bge	.L30
 538              	.LBE150:
 539              	.LBE151:
 540              	.LBB152:
 541              	.LBB122:
 542              		.loc 1 202 0
 543 0244 5B00     		lsls	r3, r3, #1
 544 0246 7FF565AF 		bpl	.L32
 545 024a 5FE7     		b	.L104
 546              	.LVL50:
 547              	.L97:
 548              	.LBE122:
 549              	.LBE152:
 550              		.loc 1 622 0 discriminator 2
 551 024c 4C48     		ldr	r0, .L107
 552              	.LVL51:
 553 024e FFF7FEFF 		bl	chSysHalt
 554              	.LVL52:
 555 0252 E2E6     		b	.L17
 556              	.LVL53:
 557              	.L99:
 558              	.LBB153:
 559              	.LBB116:
 560              		.loc 1 110 0
 561 0254 0246     		mov	r2, r0
 562 0256 07F10803 		add	r3, r7, #8
 563 025a 3721     		movs	r1, #55
 564 025c 2046     		mov	r0, r4
 565 025e FFF7FEFF 		bl	sdc_lld_send_cmd_short_crc
 566              	.LVL54:
 567 0262 0028     		cmp	r0, #0
 568 0264 7FF4F9AE 		bne	.L21
 569              		.loc 1 111 0
 570 0268 BA68     		ldr	r2, [r7, #8]
ARM GAS  C:\Users\mathi\AppData\Local\Temp\ccuhldPQ.s 			page 11


 571 026a 464B     		ldr	r3, .L107+4
 572 026c 1340     		ands	r3, r3, r2
 573              		.loc 1 110 0
 574 026e 002B     		cmp	r3, #0
 575 0270 7FF4F3AE 		bne	.L21
 576 0274 1BE7     		b	.L27
 577              	.LVL55:
 578              	.L102:
 579              	.LBE116:
 580              	.LBE153:
 581              	.LBB154:
 582              	.LBB139:
 583              	.LBB134:
 584              	.LBB131:
 585              		.loc 1 334 0
 586 0276 CDF800A0 		str	r10, [sp]
 587 027a 0623     		movs	r3, #6
 588 027c 4022     		movs	r2, #64
 589 027e 4946     		mov	r1, r9
 590 0280 2046     		mov	r0, r4
 591 0282 FFF7FEFF 		bl	sdc_lld_read_special
 592              	.LVL56:
 593 0286 0028     		cmp	r0, #0
 594 0288 4ED1     		bne	.L46
 595              	.LBB127:
 596              	.LBB128:
 597              		.loc 1 275 0
 598 028a 99F80D30 		ldrb	r3, [r9, #13]	@ zero_extendqisi2
 599              	.LBE128:
 600              	.LBE127:
 601              		.loc 1 339 0
 602 028e 13F00203 		ands	r3, r3, #2
 603 0292 37D1     		bne	.L105
 604              		.loc 1 324 0
 605 0294 1946     		mov	r1, r3
 606 0296 B546     		mov	sp, r6
 607              	.LVL57:
 608 0298 75E7     		b	.L44
 609              	.LVL58:
 610              	.L101:
 611              	.LBE131:
 612              	.LBE134:
 613              	.LBB135:
 614              	.LBB136:
 615              		.loc 1 375 0
 616 029a E36A     		ldr	r3, [r4, #44]
 617              		.loc 1 381 0
 618 029c 1B68     		ldr	r3, [r3]
 619 029e 7BB1     		cbz	r3, .L94
 620              		.loc 1 386 0
 621 02a0 07F10803 		add	r3, r7, #8
 622 02a4 3C4A     		ldr	r2, .L107+24
 623 02a6 0621     		movs	r1, #6
 624 02a8 2046     		mov	r0, r4
 625 02aa FFF7FEFF 		bl	sdc_lld_send_cmd_short_crc
 626              	.LVL59:
 627 02ae 38B9     		cbnz	r0, .L94
ARM GAS  C:\Users\mathi\AppData\Local\Temp\ccuhldPQ.s 			page 12


 628              		.loc 1 387 0
 629 02b0 BB68     		ldr	r3, [r7, #8]
 630 02b2 3449     		ldr	r1, .L107+4
 631 02b4 1940     		ands	r1, r1, r3
 632              		.loc 1 378 0
 633 02b6 B1FA81F1 		clz	r1, r1
 634 02ba 4909     		lsrs	r1, r1, #5
 635              	.LVL60:
 636 02bc 63E7     		b	.L44
 637              	.LVL61:
 638              	.L106:
 639              	.LBE136:
 640              	.LBE135:
 641              	.LBB137:
 642              	.LBB132:
 643 02be B546     		mov	sp, r6
 644              	.LVL62:
 645              	.L94:
 646              		.loc 1 353 0
 647 02c0 0021     		movs	r1, #0
 648 02c2 60E7     		b	.L44
 649              	.LVL63:
 650              	.L103:
 651              	.LBE132:
 652              	.LBE137:
 653              	.LBE139:
 654              	.LBE154:
 655              		.loc 1 685 0
 656 02c4 7E22     		movs	r2, #126
 657 02c6 7F21     		movs	r1, #127
 658 02c8 2846     		mov	r0, r5
 659 02ca FFF7FEFF 		bl	_mmcsd_get_slice
 660              	.LVL64:
 661 02ce 0128     		cmp	r0, #1
 662 02d0 7FF662AF 		bls	.L50
 663              	.LBB155:
 664              		.loc 1 686 0
 665 02d4 E36A     		ldr	r3, [r4, #44]
 666 02d6 1D68     		ldr	r5, [r3]
 667              	.LVL65:
 668              		.loc 1 689 0
 669 02d8 002D     		cmp	r5, #0
 670 02da 3FF4BEAE 		beq	.L21
 671              		.loc 1 693 0
 672 02de 0023     		movs	r3, #0
 673 02e0 0093     		str	r3, [sp]
 674 02e2 4FF40072 		mov	r2, #512
 675 02e6 0823     		movs	r3, #8
 676 02e8 2946     		mov	r1, r5
 677 02ea 2046     		mov	r0, r4
 678 02ec FFF7FEFF 		bl	sdc_lld_read_special
 679              	.LVL66:
 680 02f0 0028     		cmp	r0, #0
 681 02f2 7FF4B2AE 		bne	.L21
 682              		.loc 1 698 0
 683 02f6 2846     		mov	r0, r5
 684 02f8 FFF7FEFF 		bl	_mmcsd_get_capacity_ext
ARM GAS  C:\Users\mathi\AppData\Local\Temp\ccuhldPQ.s 			page 13


 685              	.LVL67:
 686 02fc A062     		str	r0, [r4, #40]
 687              	.LBE155:
 688 02fe 4FE7     		b	.L52
 689              	.LVL68:
 690              	.L100:
 691              		.loc 1 744 0
 692 0300 FFF7FEFF 		bl	__stack_chk_fail
 693              	.LVL69:
 694              	.L105:
 695              	.LBB156:
 696              	.LBB140:
 697              	.LBB138:
 698              	.LBB133:
 699              		.loc 1 344 0
 700 0304 254B     		ldr	r3, .L107+28
 701 0306 0093     		str	r3, [sp]
 702 0308 4022     		movs	r2, #64
 703 030a 0623     		movs	r3, #6
 704 030c 4946     		mov	r1, r9
 705 030e 2046     		mov	r0, r4
 706 0310 FFF7FEFF 		bl	sdc_lld_read_special
 707              	.LVL70:
 708 0314 40B9     		cbnz	r0, .L46
 709              	.LVL71:
 710              	.LBB129:
 711              	.LBB130:
 712              		.loc 1 298 0
 713 0316 99F81030 		ldrb	r3, [r9, #16]	@ zero_extendqisi2
 714              		.loc 1 299 0
 715 031a 03F00F03 		and	r3, r3, #15
 716              		.loc 1 300 0
 717 031e 0F2B     		cmp	r3, #15
 718 0320 CDD0     		beq	.L106
 719              	.LVL72:
 720              	.LBE130:
 721              	.LBE129:
 722 0322 B546     		mov	sp, r6
 723              	.LVL73:
 724              		.loc 1 350 0
 725 0324 0121     		movs	r1, #1
 726 0326 2EE7     		b	.L44
 727              	.LVL74:
 728              	.L46:
 729 0328 B546     		mov	sp, r6
 730              	.LVL75:
 731 032a 96E6     		b	.L21
 732              	.LVL76:
 733              	.L66:
 734              	.LBE133:
 735              	.LBE138:
 736              	.LBE140:
 737              	.LBE156:
 738              	.LBB157:
 739              	.LBB143:
 740              		.loc 1 472 0
 741 032c 1C4E     		ldr	r6, .L107+32
ARM GAS  C:\Users\mathi\AppData\Local\Temp\ccuhldPQ.s 			page 14


 742 032e 5AE7     		b	.L59
 743              	.LVL77:
 744              	.L53:
 745              	.LBE143:
 746              	.LBE157:
 747              	.LBB158:
 748              	.LBB159:
 749              		.loc 1 428 0
 750 0330 E36A     		ldr	r3, [r4, #44]
 751 0332 1979     		ldrb	r1, [r3, #4]	@ zero_extendqisi2
 752 0334 0029     		cmp	r1, #0
 753 0336 3FF46AAF 		beq	.L57
 754              		.loc 1 432 0
 755 033a 0129     		cmp	r1, #1
 756 033c 7FF48DAE 		bne	.L21
 757              		.loc 1 433 0
 758 0340 2046     		mov	r0, r4
 759 0342 FFF7FEFF 		bl	sdc_lld_set_bus_mode
 760              	.LVL78:
 761              		.loc 1 434 0
 762 0346 07F10803 		add	r3, r7, #8
 763 034a A26B     		ldr	r2, [r4, #56]
 764 034c 3721     		movs	r1, #55
 765 034e 2046     		mov	r0, r4
 766 0350 FFF7FEFF 		bl	sdc_lld_send_cmd_short_crc
 767              	.LVL79:
 768 0354 0028     		cmp	r0, #0
 769 0356 7FF480AE 		bne	.L21
 770              		.loc 1 435 0
 771 035a BB68     		ldr	r3, [r7, #8]
 772              		.loc 1 434 0
 773 035c 3342     		tst	r3, r6
 774 035e 7FF47CAE 		bne	.L21
 775              		.loc 1 439 0
 776 0362 07F10803 		add	r3, r7, #8
 777 0366 0222     		movs	r2, #2
 778 0368 0621     		movs	r1, #6
 779 036a 2046     		mov	r0, r4
 780 036c FFF7FEFF 		bl	sdc_lld_send_cmd_short_crc
 781              	.LVL80:
 782 0370 0028     		cmp	r0, #0
 783 0372 7FF472AE 		bne	.L21
 784              		.loc 1 440 0
 785 0376 BB68     		ldr	r3, [r7, #8]
 786              		.loc 1 439 0
 787 0378 3342     		tst	r3, r6
 788 037a 3FF448AF 		beq	.L57
 789 037e 6CE6     		b	.L21
 790              	.L108:
 791              		.align	2
 792              	.L107:
 793 0380 00000000 		.word	.LANCHOR1
 794 0384 08E0FFFD 		.word	-33562616
 795 0388 000010C0 		.word	-1072693248
 796 038c 00001080 		.word	-2146435072
 797 0390 0002B703 		.word	62325248
 798 0394 0080FFC0 		.word	-1056997376
ARM GAS  C:\Users\mathi\AppData\Local\Temp\ccuhldPQ.s 			page 15


 799 0398 0001B903 		.word	62456064
 800 039c F1FFFF80 		.word	-2130706447
 801 03a0 0001B703 		.word	62324992
 802 03a4 00000000 		.word	__stack_chk_guard
 803              	.LVL81:
 804              	.L91:
 805              	.LBE159:
 806              	.LBE158:
 807              	.LBB160:
 808              	.LBB144:
 809              		.loc 1 478 0
 810 03a8 0248     		ldr	r0, .L109
 811              		.loc 1 465 0
 812 03aa 034E     		ldr	r6, .L109+4
 813              		.loc 1 478 0
 814 03ac FFF7FEFF 		bl	chSysHalt
 815              	.LVL82:
 816 03b0 E36A     		ldr	r3, [r4, #44]
 817 03b2 18E7     		b	.L59
 818              	.L110:
 819              		.align	2
 820              	.L109:
 821 03b4 00000000 		.word	.LANCHOR2
 822 03b8 0000B703 		.word	62324736
 823              	.LBE144:
 824              	.LBE160:
 825              		.cfi_endproc
 826              	.LFE273:
 827              		.size	sdcConnect, .-sdcConnect
 828              		.section	.text.sdcRead,"ax",%progbits
 829              		.align	1
 830              		.p2align 4,,15
 831              		.global	sdcRead
 832              		.syntax unified
 833              		.thumb
 834              		.thumb_func
 835              		.fpu fpv4-sp-d16
 836              		.type	sdcRead, %function
 837              	sdcRead:
 838              	.LFB275:
 839              		.loc 1 800 0
 840              		.cfi_startproc
 841              		@ args = 0, pretend = 0, frame = 8
 842              		@ frame_needed = 0, uses_anonymous_args = 0
 843              	.LVL83:
 844 0000 2DE9F041 		push	{r4, r5, r6, r7, r8, lr}
 845              		.cfi_def_cfa_offset 24
 846              		.cfi_offset 4, -24
 847              		.cfi_offset 5, -20
 848              		.cfi_offset 6, -16
 849              		.cfi_offset 7, -12
 850              		.cfi_offset 8, -8
 851              		.cfi_offset 14, -4
 852 0004 194D     		ldr	r5, .L129
 853 0006 82B0     		sub	sp, sp, #8
 854              		.cfi_def_cfa_offset 32
 855              		.loc 1 800 0
ARM GAS  C:\Users\mathi\AppData\Local\Temp\ccuhldPQ.s 			page 16


 856 0008 2C68     		ldr	r4, [r5]
 857 000a 0194     		str	r4, [sp, #4]
 858 000c 0F46     		mov	r7, r1
 859 000e 9046     		mov	r8, r2
 860 0010 1E46     		mov	r6, r3
 861              		.loc 1 803 0
 862 0012 0446     		mov	r4, r0
 863 0014 C0B1     		cbz	r0, .L112
 864              		.loc 1 803 0 is_stmt 0 discriminator 3
 865 0016 BAB1     		cbz	r2, .L112
 866              		.loc 1 803 0 discriminator 5
 867 0018 B3B1     		cbz	r3, .L112
 868              	.LVL84:
 869              	.L113:
 870              		.loc 1 804 0 is_stmt 1 discriminator 1
 871 001a 2379     		ldrb	r3, [r4, #4]	@ zero_extendqisi2
 872 001c 052B     		cmp	r3, #5
 873 001e 02D0     		beq	.L114
 874              		.loc 1 804 0 is_stmt 0 discriminator 2
 875 0020 1348     		ldr	r0, .L129+4
 876 0022 FFF7FEFF 		bl	chSysHalt
 877              	.LVL85:
 878              	.L114:
 879              		.loc 1 806 0 is_stmt 1
 880 0026 781E     		subs	r0, r7, #1
 881 0028 A36A     		ldr	r3, [r4, #40]
 882 002a 3044     		add	r0, r0, r6
 883 002c 9842     		cmp	r0, r3
 884 002e 0FD9     		bls	.L115
 885              		.loc 1 807 0
 886 0030 636B     		ldr	r3, [r4, #52]
 887 0032 43F08003 		orr	r3, r3, #128
 888 0036 6363     		str	r3, [r4, #52]
 889              		.loc 1 808 0
 890 0038 0120     		movs	r0, #1
 891              	.L116:
 892              		.loc 1 819 0
 893 003a 019A     		ldr	r2, [sp, #4]
 894 003c 2B68     		ldr	r3, [r5]
 895 003e 9A42     		cmp	r2, r3
 896 0040 11D1     		bne	.L128
 897 0042 02B0     		add	sp, sp, #8
 898              		.cfi_remember_state
 899              		.cfi_def_cfa_offset 24
 900              		@ sp needed
 901 0044 BDE8F081 		pop	{r4, r5, r6, r7, r8, pc}
 902              	.LVL86:
 903              	.L112:
 904              		.cfi_restore_state
 905              		.loc 1 803 0 discriminator 6
 906 0048 0948     		ldr	r0, .L129+4
 907              	.LVL87:
 908 004a FFF7FEFF 		bl	chSysHalt
 909              	.LVL88:
 910 004e E4E7     		b	.L113
 911              	.L115:
 912              	.LVL89:
ARM GAS  C:\Users\mathi\AppData\Local\Temp\ccuhldPQ.s 			page 17


 913              	.LBB163:
 914              	.LBB164:
 915              		.loc 1 812 0
 916 0050 0620     		movs	r0, #6
 917              		.loc 1 814 0
 918 0052 3346     		mov	r3, r6
 919              		.loc 1 812 0
 920 0054 2071     		strb	r0, [r4, #4]
 921              		.loc 1 814 0
 922 0056 4246     		mov	r2, r8
 923 0058 3946     		mov	r1, r7
 924 005a 2046     		mov	r0, r4
 925 005c FFF7FEFF 		bl	sdc_lld_read
 926              	.LVL90:
 927              		.loc 1 817 0
 928 0060 0523     		movs	r3, #5
 929 0062 2371     		strb	r3, [r4, #4]
 930              	.LVL91:
 931 0064 E9E7     		b	.L116
 932              	.L128:
 933              	.LBE164:
 934              	.LBE163:
 935              		.loc 1 819 0
 936 0066 FFF7FEFF 		bl	__stack_chk_fail
 937              	.LVL92:
 938              	.L130:
 939 006a 00BF     		.align	2
 940              	.L129:
 941 006c 00000000 		.word	__stack_chk_guard
 942 0070 00000000 		.word	.LANCHOR3
 943              		.cfi_endproc
 944              	.LFE275:
 945              		.size	sdcRead, .-sdcRead
 946              		.section	.text.sdcWrite,"ax",%progbits
 947              		.align	1
 948              		.p2align 4,,15
 949              		.global	sdcWrite
 950              		.syntax unified
 951              		.thumb
 952              		.thumb_func
 953              		.fpu fpv4-sp-d16
 954              		.type	sdcWrite, %function
 955              	sdcWrite:
 956              	.LFB276:
 957              		.loc 1 838 0
 958              		.cfi_startproc
 959              		@ args = 0, pretend = 0, frame = 8
 960              		@ frame_needed = 0, uses_anonymous_args = 0
 961              	.LVL93:
 962 0000 2DE9F041 		push	{r4, r5, r6, r7, r8, lr}
 963              		.cfi_def_cfa_offset 24
 964              		.cfi_offset 4, -24
 965              		.cfi_offset 5, -20
 966              		.cfi_offset 6, -16
 967              		.cfi_offset 7, -12
 968              		.cfi_offset 8, -8
 969              		.cfi_offset 14, -4
ARM GAS  C:\Users\mathi\AppData\Local\Temp\ccuhldPQ.s 			page 18


 970 0004 194D     		ldr	r5, .L149
 971 0006 82B0     		sub	sp, sp, #8
 972              		.cfi_def_cfa_offset 32
 973              		.loc 1 838 0
 974 0008 2C68     		ldr	r4, [r5]
 975 000a 0194     		str	r4, [sp, #4]
 976 000c 0F46     		mov	r7, r1
 977 000e 9046     		mov	r8, r2
 978 0010 1E46     		mov	r6, r3
 979              		.loc 1 841 0
 980 0012 0446     		mov	r4, r0
 981 0014 C0B1     		cbz	r0, .L132
 982              		.loc 1 841 0 is_stmt 0 discriminator 3
 983 0016 BAB1     		cbz	r2, .L132
 984              		.loc 1 841 0 discriminator 5
 985 0018 B3B1     		cbz	r3, .L132
 986              	.LVL94:
 987              	.L133:
 988              		.loc 1 842 0 is_stmt 1 discriminator 1
 989 001a 2379     		ldrb	r3, [r4, #4]	@ zero_extendqisi2
 990 001c 052B     		cmp	r3, #5
 991 001e 02D0     		beq	.L134
 992              		.loc 1 842 0 is_stmt 0 discriminator 2
 993 0020 1348     		ldr	r0, .L149+4
 994 0022 FFF7FEFF 		bl	chSysHalt
 995              	.LVL95:
 996              	.L134:
 997              		.loc 1 844 0 is_stmt 1
 998 0026 781E     		subs	r0, r7, #1
 999 0028 A36A     		ldr	r3, [r4, #40]
 1000 002a 3044     		add	r0, r0, r6
 1001 002c 9842     		cmp	r0, r3
 1002 002e 0FD9     		bls	.L135
 1003              		.loc 1 845 0
 1004 0030 636B     		ldr	r3, [r4, #52]
 1005 0032 43F08003 		orr	r3, r3, #128
 1006 0036 6363     		str	r3, [r4, #52]
 1007              		.loc 1 846 0
 1008 0038 0120     		movs	r0, #1
 1009              	.L136:
 1010              		.loc 1 857 0
 1011 003a 019A     		ldr	r2, [sp, #4]
 1012 003c 2B68     		ldr	r3, [r5]
 1013 003e 9A42     		cmp	r2, r3
 1014 0040 11D1     		bne	.L148
 1015 0042 02B0     		add	sp, sp, #8
 1016              		.cfi_remember_state
 1017              		.cfi_def_cfa_offset 24
 1018              		@ sp needed
 1019 0044 BDE8F081 		pop	{r4, r5, r6, r7, r8, pc}
 1020              	.LVL96:
 1021              	.L132:
 1022              		.cfi_restore_state
 1023              		.loc 1 841 0 discriminator 6
 1024 0048 0948     		ldr	r0, .L149+4
 1025              	.LVL97:
 1026 004a FFF7FEFF 		bl	chSysHalt
ARM GAS  C:\Users\mathi\AppData\Local\Temp\ccuhldPQ.s 			page 19


 1027              	.LVL98:
 1028 004e E4E7     		b	.L133
 1029              	.L135:
 1030              	.LVL99:
 1031              	.LBB167:
 1032              	.LBB168:
 1033              		.loc 1 850 0
 1034 0050 0720     		movs	r0, #7
 1035              		.loc 1 852 0
 1036 0052 3346     		mov	r3, r6
 1037              		.loc 1 850 0
 1038 0054 2071     		strb	r0, [r4, #4]
 1039              		.loc 1 852 0
 1040 0056 4246     		mov	r2, r8
 1041 0058 3946     		mov	r1, r7
 1042 005a 2046     		mov	r0, r4
 1043 005c FFF7FEFF 		bl	sdc_lld_write
 1044              	.LVL100:
 1045              		.loc 1 855 0
 1046 0060 0523     		movs	r3, #5
 1047 0062 2371     		strb	r3, [r4, #4]
 1048              	.LVL101:
 1049 0064 E9E7     		b	.L136
 1050              	.L148:
 1051              	.LBE168:
 1052              	.LBE167:
 1053              		.loc 1 857 0
 1054 0066 FFF7FEFF 		bl	__stack_chk_fail
 1055              	.LVL102:
 1056              	.L150:
 1057 006a 00BF     		.align	2
 1058              	.L149:
 1059 006c 00000000 		.word	__stack_chk_guard
 1060 0070 00000000 		.word	.LANCHOR4
 1061              		.cfi_endproc
 1062              	.LFE276:
 1063              		.size	sdcWrite, .-sdcWrite
 1064              		.section	.text.sdcSync,"ax",%progbits
 1065              		.align	1
 1066              		.p2align 4,,15
 1067              		.global	sdcSync
 1068              		.syntax unified
 1069              		.thumb
 1070              		.thumb_func
 1071              		.fpu fpv4-sp-d16
 1072              		.type	sdcSync, %function
 1073              	sdcSync:
 1074              	.LFB278:
 1075              		.loc 1 891 0
 1076              		.cfi_startproc
 1077              		@ args = 0, pretend = 0, frame = 8
 1078              		@ frame_needed = 0, uses_anonymous_args = 0
 1079              	.LVL103:
 1080 0000 70B5     		push	{r4, r5, r6, lr}
 1081              		.cfi_def_cfa_offset 16
 1082              		.cfi_offset 4, -16
 1083              		.cfi_offset 5, -12
ARM GAS  C:\Users\mathi\AppData\Local\Temp\ccuhldPQ.s 			page 20


 1084              		.cfi_offset 6, -8
 1085              		.cfi_offset 14, -4
 1086 0002 0E4D     		ldr	r5, .L160
 1087 0004 82B0     		sub	sp, sp, #8
 1088              		.cfi_def_cfa_offset 24
 1089              		.loc 1 891 0
 1090 0006 2B68     		ldr	r3, [r5]
 1091 0008 0193     		str	r3, [sp, #4]
 1092              		.loc 1 894 0
 1093 000a 0446     		mov	r4, r0
 1094 000c 80B1     		cbz	r0, .L157
 1095              	.LVL104:
 1096              	.L152:
 1097              		.loc 1 896 0
 1098 000e 2679     		ldrb	r6, [r4, #4]	@ zero_extendqisi2
 1099 0010 052E     		cmp	r6, #5
 1100 0012 06D0     		beq	.L158
 1101              		.loc 1 897 0
 1102 0014 0120     		movs	r0, #1
 1103              	.L153:
 1104              		.loc 1 908 0
 1105 0016 019A     		ldr	r2, [sp, #4]
 1106 0018 2B68     		ldr	r3, [r5]
 1107 001a 9A42     		cmp	r2, r3
 1108 001c 0CD1     		bne	.L159
 1109 001e 02B0     		add	sp, sp, #8
 1110              		.cfi_remember_state
 1111              		.cfi_def_cfa_offset 16
 1112              		@ sp needed
 1113 0020 70BD     		pop	{r4, r5, r6, pc}
 1114              	.LVL105:
 1115              	.L158:
 1116              		.cfi_restore_state
 1117              	.LBB171:
 1118              	.LBB172:
 1119              		.loc 1 901 0
 1120 0022 0823     		movs	r3, #8
 1121 0024 2371     		strb	r3, [r4, #4]
 1122              		.loc 1 903 0
 1123 0026 2046     		mov	r0, r4
 1124 0028 FFF7FEFF 		bl	sdc_lld_sync
 1125              	.LVL106:
 1126              		.loc 1 906 0
 1127 002c 2671     		strb	r6, [r4, #4]
 1128              	.LVL107:
 1129 002e F2E7     		b	.L153
 1130              	.LVL108:
 1131              	.L157:
 1132              	.LBE172:
 1133              	.LBE171:
 1134              		.loc 1 894 0 discriminator 2
 1135 0030 0348     		ldr	r0, .L160+4
 1136              	.LVL109:
 1137 0032 FFF7FEFF 		bl	chSysHalt
 1138              	.LVL110:
 1139 0036 EAE7     		b	.L152
 1140              	.L159:
ARM GAS  C:\Users\mathi\AppData\Local\Temp\ccuhldPQ.s 			page 21


 1141              		.loc 1 908 0
 1142 0038 FFF7FEFF 		bl	__stack_chk_fail
 1143              	.LVL111:
 1144              	.L161:
 1145              		.align	2
 1146              	.L160:
 1147 003c 00000000 		.word	__stack_chk_guard
 1148 0040 00000000 		.word	.LANCHOR5
 1149              		.cfi_endproc
 1150              	.LFE278:
 1151              		.size	sdcSync, .-sdcSync
 1152              		.section	.text.sdcDisconnect,"ax",%progbits
 1153              		.align	1
 1154              		.p2align 4,,15
 1155              		.global	sdcDisconnect
 1156              		.syntax unified
 1157              		.thumb
 1158              		.thumb_func
 1159              		.fpu fpv4-sp-d16
 1160              		.type	sdcDisconnect, %function
 1161              	sdcDisconnect:
 1162              	.LFB274:
 1163              		.loc 1 757 0
 1164              		.cfi_startproc
 1165              		@ args = 0, pretend = 0, frame = 8
 1166              		@ frame_needed = 0, uses_anonymous_args = 0
 1167              	.LVL112:
 1168 0000 F0B5     		push	{r4, r5, r6, r7, lr}
 1169              		.cfi_def_cfa_offset 20
 1170              		.cfi_offset 4, -20
 1171              		.cfi_offset 5, -16
 1172              		.cfi_offset 6, -12
 1173              		.cfi_offset 7, -8
 1174              		.cfi_offset 14, -4
 1175 0002 3A4E     		ldr	r6, .L190
 1176 0004 83B0     		sub	sp, sp, #12
 1177              		.cfi_def_cfa_offset 32
 1178              		.loc 1 757 0
 1179 0006 3368     		ldr	r3, [r6]
 1180 0008 0193     		str	r3, [sp, #4]
 1181              		.loc 1 759 0
 1182 000a 0446     		mov	r4, r0
 1183 000c 0028     		cmp	r0, #0
 1184 000e 66D0     		beq	.L185
 1185              	.LVL113:
 1186              	.L163:
 1187              	.LBB207:
 1188              	.LBB208:
 1189              	.LBB209:
 1190              	.LBB210:
 1191              	.LBB211:
 1192              	.LBB212:
 1193              		.file 3 "../../lib/e-puck2_main-processor/ChibiOS//os/ext/CMSIS/include/core_cmFunc.h"
 1194              		.loc 3 546 0
 1195 0010 2023     		movs	r3, #32
 1196              		.syntax unified
 1197              	@ 546 "../../lib/e-puck2_main-processor/ChibiOS//os/ext/CMSIS/include/core_cmFunc.h" 1
ARM GAS  C:\Users\mathi\AppData\Local\Temp\ccuhldPQ.s 			page 22


 1198 0012 83F31188 		MSR basepri, r3
 1199              	@ 0 "" 2
 1200              	.LVL114:
 1201              		.thumb
 1202              		.syntax unified
 1203              	.LBE212:
 1204              	.LBE211:
 1205              	.LBE210:
 1206              		.file 4 "../../lib/e-puck2_main-processor/ChibiOS//os/rt/include/chsys.h"
 1207              		.loc 4 349 0
 1208 0016 FFF7FEFF 		bl	_stats_start_measure_crit_thd
 1209              	.LVL115:
 1210              		.loc 4 350 0
 1211 001a FFF7FEFF 		bl	_dbg_check_lock
 1212              	.LVL116:
 1213              	.LBE209:
 1214              	.LBE208:
 1215              	.LBE207:
 1216              		.loc 1 762 0
 1217 001e 2379     		ldrb	r3, [r4, #4]	@ zero_extendqisi2
 1218 0020 022B     		cmp	r3, #2
 1219 0022 30D0     		beq	.L168
 1220              		.loc 1 762 0 is_stmt 0 discriminator 2
 1221 0024 052B     		cmp	r3, #5
 1222 0026 28D1     		bne	.L186
 1223              	.L167:
 1224              	.LVL117:
 1225              	.LBB213:
 1226              	.LBB214:
 1227              		.loc 1 768 0 is_stmt 1
 1228 0028 0423     		movs	r3, #4
 1229 002a 2371     		strb	r3, [r4, #4]
 1230              	.LBB215:
 1231              	.LBB216:
 1232              	.LBB217:
 1233              		.loc 4 360 0
 1234 002c FFF7FEFF 		bl	_dbg_check_unlock
 1235              	.LVL118:
 1236              		.loc 4 361 0
 1237 0030 FFF7FEFF 		bl	_stats_stop_measure_crit_thd
 1238              	.LVL119:
 1239              		.loc 4 367 0
 1240 0034 2E4B     		ldr	r3, .L190+4
 1241 0036 1A68     		ldr	r2, [r3]
 1242 0038 9A42     		cmp	r2, r3
 1243 003a 04D0     		beq	.L170
 1244 003c 9969     		ldr	r1, [r3, #24]
 1245 003e 9368     		ldr	r3, [r2, #8]
 1246 0040 8A68     		ldr	r2, [r1, #8]
 1247 0042 9A42     		cmp	r2, r3
 1248 0044 43D3     		bcc	.L187
 1249              	.L170:
 1250              	.LVL120:
 1251              	.LBB218:
 1252              	.LBB219:
 1253              	.LBB220:
 1254              		.loc 3 546 0
ARM GAS  C:\Users\mathi\AppData\Local\Temp\ccuhldPQ.s 			page 23


 1255 0046 0023     		movs	r3, #0
 1256              		.syntax unified
 1257              	@ 546 "../../lib/e-puck2_main-processor/ChibiOS//os/ext/CMSIS/include/core_cmFunc.h" 1
 1258 0048 83F31188 		MSR basepri, r3
 1259              	@ 0 "" 2
 1260              	.LVL121:
 1261              		.thumb
 1262              		.syntax unified
 1263              	.LBE220:
 1264              	.LBE219:
 1265              	.LBE218:
 1266              	.LBE217:
 1267              	.LBE216:
 1268              	.LBE215:
 1269              	.LBB223:
 1270              	.LBB224:
 1271              		.loc 1 508 0
 1272 004c 294F     		ldr	r7, .L190+8
 1273              	.L175:
 1274              		.loc 1 506 0
 1275 004e A26B     		ldr	r2, [r4, #56]
 1276 0050 6B46     		mov	r3, sp
 1277 0052 0D21     		movs	r1, #13
 1278 0054 2046     		mov	r0, r4
 1279 0056 FFF7FEFF 		bl	sdc_lld_send_cmd_short_crc
 1280              	.LVL122:
 1281 005a 0546     		mov	r5, r0
 1282 005c 20BB     		cbnz	r0, .L176
 1283              		.loc 1 508 0
 1284 005e 009B     		ldr	r3, [sp]
 1285              		.loc 1 507 0
 1286 0060 3B42     		tst	r3, r7
 1287 0062 21D1     		bne	.L176
 1288              		.loc 1 512 0
 1289 0064 C3F34323 		ubfx	r3, r3, #9, #4
 1290 0068 042B     		cmp	r3, #4
 1291 006a 2AD0     		beq	.L173
 1292 006c 1CD3     		bcc	.L176
 1293 006e 072B     		cmp	r3, #7
 1294 0070 1AD8     		bhi	.L176
 1295              	.LVL123:
 1296              	.LBB225:
 1297              	.LBB226:
 1298              		.loc 2 627 0
 1299 0072 0120     		movs	r0, #1
 1300 0074 FFF7FEFF 		bl	chThdSleep
 1301              	.LVL124:
 1302 0078 E9E7     		b	.L175
 1303              	.LVL125:
 1304              	.L186:
 1305              	.LBE226:
 1306              	.LBE225:
 1307              	.LBE224:
 1308              	.LBE223:
 1309              	.LBE214:
 1310              	.LBE213:
 1311              		.loc 1 762 0 discriminator 3
ARM GAS  C:\Users\mathi\AppData\Local\Temp\ccuhldPQ.s 			page 24


 1312 007a 1F48     		ldr	r0, .L190+12
 1313 007c FFF7FEFF 		bl	chSysHalt
 1314              	.LVL126:
 1315              		.loc 1 764 0 discriminator 3
 1316 0080 2379     		ldrb	r3, [r4, #4]	@ zero_extendqisi2
 1317 0082 022B     		cmp	r3, #2
 1318 0084 D0D1     		bne	.L167
 1319              	.L168:
 1320              	.LBB230:
 1321              	.LBB231:
 1322              	.LBB232:
 1323              		.loc 4 360 0
 1324 0086 FFF7FEFF 		bl	_dbg_check_unlock
 1325              	.LVL127:
 1326              		.loc 4 361 0
 1327 008a FFF7FEFF 		bl	_stats_stop_measure_crit_thd
 1328              	.LVL128:
 1329              		.loc 4 367 0
 1330 008e 184B     		ldr	r3, .L190+4
 1331 0090 1A68     		ldr	r2, [r3]
 1332 0092 9A42     		cmp	r2, r3
 1333 0094 04D0     		beq	.L166
 1334 0096 9969     		ldr	r1, [r3, #24]
 1335 0098 9368     		ldr	r3, [r2, #8]
 1336 009a 8A68     		ldr	r2, [r1, #8]
 1337 009c 9A42     		cmp	r2, r3
 1338 009e 1AD3     		bcc	.L188
 1339              	.L166:
 1340              	.LVL129:
 1341              	.LBB233:
 1342              	.LBB234:
 1343              	.LBB235:
 1344              		.loc 3 546 0
 1345 00a0 0025     		movs	r5, #0
 1346              		.syntax unified
 1347              	@ 546 "../../lib/e-puck2_main-processor/ChibiOS//os/ext/CMSIS/include/core_cmFunc.h" 1
 1348 00a2 85F31188 		MSR basepri, r5
 1349              	@ 0 "" 2
 1350              	.LVL130:
 1351              		.thumb
 1352              		.syntax unified
 1353 00a6 05E0     		b	.L169
 1354              	.LVL131:
 1355              	.L176:
 1356              	.LBE235:
 1357              	.LBE234:
 1358              	.LBE233:
 1359              	.LBE232:
 1360              	.LBE231:
 1361              	.LBE230:
 1362              	.LBB238:
 1363              	.LBB228:
 1364              		.loc 1 773 0
 1365 00a8 2046     		mov	r0, r4
 1366 00aa FFF7FEFF 		bl	sdc_lld_stop_clk
 1367              	.LVL132:
 1368              		.loc 1 774 0
ARM GAS  C:\Users\mathi\AppData\Local\Temp\ccuhldPQ.s 			page 25


 1369 00ae 0223     		movs	r3, #2
 1370 00b0 2371     		strb	r3, [r4, #4]
 1371              		.loc 1 775 0
 1372 00b2 0125     		movs	r5, #1
 1373              	.LVL133:
 1374              	.L169:
 1375              	.LBE228:
 1376              	.LBE238:
 1377              		.loc 1 782 0
 1378 00b4 019A     		ldr	r2, [sp, #4]
 1379 00b6 3368     		ldr	r3, [r6]
 1380 00b8 9A42     		cmp	r2, r3
 1381 00ba 2846     		mov	r0, r5
 1382 00bc 13D1     		bne	.L189
 1383 00be 03B0     		add	sp, sp, #12
 1384              		.cfi_remember_state
 1385              		.cfi_def_cfa_offset 20
 1386              		@ sp needed
 1387 00c0 F0BD     		pop	{r4, r5, r6, r7, pc}
 1388              	.LVL134:
 1389              	.L173:
 1390              		.cfi_restore_state
 1391              	.LBB239:
 1392              	.LBB229:
 1393              		.loc 1 779 0
 1394 00c2 2046     		mov	r0, r4
 1395 00c4 FFF7FEFF 		bl	sdc_lld_stop_clk
 1396              	.LVL135:
 1397              		.loc 1 780 0
 1398 00c8 0223     		movs	r3, #2
 1399 00ca 2371     		strb	r3, [r4, #4]
 1400 00cc F2E7     		b	.L169
 1401              	.L187:
 1402              	.LBB227:
 1403              	.LBB222:
 1404              	.LBB221:
 1405              		.loc 4 367 0
 1406 00ce 0B48     		ldr	r0, .L190+16
 1407 00d0 FFF7FEFF 		bl	chSysHalt
 1408              	.LVL136:
 1409 00d4 B7E7     		b	.L170
 1410              	.LVL137:
 1411              	.L188:
 1412              	.LBE221:
 1413              	.LBE222:
 1414              	.LBE227:
 1415              	.LBE229:
 1416              	.LBE239:
 1417              	.LBB240:
 1418              	.LBB237:
 1419              	.LBB236:
 1420 00d6 0948     		ldr	r0, .L190+16
 1421 00d8 FFF7FEFF 		bl	chSysHalt
 1422              	.LVL138:
 1423 00dc E0E7     		b	.L166
 1424              	.LVL139:
 1425              	.L185:
ARM GAS  C:\Users\mathi\AppData\Local\Temp\ccuhldPQ.s 			page 26


 1426              	.LBE236:
 1427              	.LBE237:
 1428              	.LBE240:
 1429              		.loc 1 759 0 discriminator 2
 1430 00de 0648     		ldr	r0, .L190+12
 1431              	.LVL140:
 1432 00e0 FFF7FEFF 		bl	chSysHalt
 1433              	.LVL141:
 1434 00e4 94E7     		b	.L163
 1435              	.L189:
 1436              		.loc 1 782 0
 1437 00e6 FFF7FEFF 		bl	__stack_chk_fail
 1438              	.LVL142:
 1439              	.L191:
 1440 00ea 00BF     		.align	2
 1441              	.L190:
 1442 00ec 00000000 		.word	__stack_chk_guard
 1443 00f0 00000000 		.word	ch
 1444 00f4 08E0FFFD 		.word	-33562616
 1445 00f8 00000000 		.word	.LANCHOR6
 1446 00fc 00000000 		.word	.LANCHOR7
 1447              		.cfi_endproc
 1448              	.LFE274:
 1449              		.size	sdcDisconnect, .-sdcDisconnect
 1450              		.section	.text._sdc_wait_for_transfer_state,"ax",%progbits
 1451              		.align	1
 1452              		.p2align 4,,15
 1453              		.global	_sdc_wait_for_transfer_state
 1454              		.syntax unified
 1455              		.thumb
 1456              		.thumb_func
 1457              		.fpu fpv4-sp-d16
 1458              		.type	_sdc_wait_for_transfer_state, %function
 1459              	_sdc_wait_for_transfer_state:
 1460              	.LFB268:
 1461              		.loc 1 502 0
 1462              		.cfi_startproc
 1463              		@ args = 0, pretend = 0, frame = 8
 1464              		@ frame_needed = 0, uses_anonymous_args = 0
 1465              	.LVL143:
 1466 0000 70B5     		push	{r4, r5, r6, lr}
 1467              		.cfi_def_cfa_offset 16
 1468              		.cfi_offset 4, -16
 1469              		.cfi_offset 5, -12
 1470              		.cfi_offset 6, -8
 1471              		.cfi_offset 14, -4
 1472 0002 124D     		ldr	r5, .L205
 1473              		.loc 1 508 0
 1474 0004 124E     		ldr	r6, .L205+4
 1475              		.loc 1 502 0
 1476 0006 2B68     		ldr	r3, [r5]
 1477 0008 82B0     		sub	sp, sp, #8
 1478              		.cfi_def_cfa_offset 24
 1479              		.loc 1 502 0
 1480 000a 0446     		mov	r4, r0
 1481 000c 0193     		str	r3, [sp, #4]
 1482              	.LVL144:
ARM GAS  C:\Users\mathi\AppData\Local\Temp\ccuhldPQ.s 			page 27


 1483              	.L196:
 1484              		.loc 1 506 0
 1485 000e 6B46     		mov	r3, sp
 1486 0010 A26B     		ldr	r2, [r4, #56]
 1487 0012 0D21     		movs	r1, #13
 1488 0014 2046     		mov	r0, r4
 1489 0016 FFF7FEFF 		bl	sdc_lld_send_cmd_short_crc
 1490              	.LVL145:
 1491 001a 78B9     		cbnz	r0, .L193
 1492              		.loc 1 508 0
 1493 001c 009B     		ldr	r3, [sp]
 1494              		.loc 1 507 0
 1495 001e 3342     		tst	r3, r6
 1496 0020 0BD1     		bne	.L198
 1497              		.loc 1 512 0
 1498 0022 C3F34323 		ubfx	r3, r3, #9, #4
 1499 0026 042B     		cmp	r3, #4
 1500 0028 08D0     		beq	.L193
 1501              		.loc 1 525 0
 1502 002a 4FF00100 		mov	r0, #1
 1503              		.loc 1 512 0
 1504 002e 05D3     		bcc	.L193
 1505 0030 072B     		cmp	r3, #7
 1506 0032 03D8     		bhi	.L193
 1507              	.LVL146:
 1508              	.LBB243:
 1509              	.LBB244:
 1510              		.loc 2 627 0
 1511 0034 FFF7FEFF 		bl	chThdSleep
 1512              	.LVL147:
 1513              	.LBE244:
 1514              	.LBE243:
 1515              		.loc 1 506 0
 1516 0038 E9E7     		b	.L196
 1517              	.L198:
 1518              		.loc 1 509 0
 1519 003a 0120     		movs	r0, #1
 1520              	.L193:
 1521              		.loc 1 528 0
 1522 003c 019A     		ldr	r2, [sp, #4]
 1523 003e 2B68     		ldr	r3, [r5]
 1524 0040 9A42     		cmp	r2, r3
 1525 0042 01D1     		bne	.L204
 1526 0044 02B0     		add	sp, sp, #8
 1527              		.cfi_remember_state
 1528              		.cfi_def_cfa_offset 16
 1529              		@ sp needed
 1530 0046 70BD     		pop	{r4, r5, r6, pc}
 1531              	.LVL148:
 1532              	.L204:
 1533              		.cfi_restore_state
 1534 0048 FFF7FEFF 		bl	__stack_chk_fail
 1535              	.LVL149:
 1536              	.L206:
 1537              		.align	2
 1538              	.L205:
 1539 004c 00000000 		.word	__stack_chk_guard
ARM GAS  C:\Users\mathi\AppData\Local\Temp\ccuhldPQ.s 			page 28


 1540 0050 08E0FFFD 		.word	-33562616
 1541              		.cfi_endproc
 1542              	.LFE268:
 1543              		.size	_sdc_wait_for_transfer_state, .-_sdc_wait_for_transfer_state
 1544              		.section	.text.sdcInit,"ax",%progbits
 1545              		.align	1
 1546              		.p2align 4,,15
 1547              		.global	sdcInit
 1548              		.syntax unified
 1549              		.thumb
 1550              		.thumb_func
 1551              		.fpu fpv4-sp-d16
 1552              		.type	sdcInit, %function
 1553              	sdcInit:
 1554              	.LFB269:
 1555              		.loc 1 541 0
 1556              		.cfi_startproc
 1557              		@ args = 0, pretend = 0, frame = 8
 1558              		@ frame_needed = 0, uses_anonymous_args = 0
 1559 0000 00B5     		push	{lr}
 1560              		.cfi_def_cfa_offset 4
 1561              		.cfi_offset 14, -4
 1562 0002 074B     		ldr	r3, .L212
 1563 0004 83B0     		sub	sp, sp, #12
 1564              		.cfi_def_cfa_offset 16
 1565              		.loc 1 541 0
 1566 0006 1A68     		ldr	r2, [r3]
 1567 0008 0192     		str	r2, [sp, #4]
 1568              		.loc 1 543 0
 1569 000a 019A     		ldr	r2, [sp, #4]
 1570 000c 1B68     		ldr	r3, [r3]
 1571 000e 9A42     		cmp	r2, r3
 1572 0010 04D1     		bne	.L211
 1573              		.loc 1 544 0
 1574 0012 03B0     		add	sp, sp, #12
 1575              		.cfi_remember_state
 1576              		.cfi_def_cfa_offset 4
 1577              		@ sp needed
 1578 0014 5DF804EB 		ldr	lr, [sp], #4
 1579              		.cfi_restore 14
 1580              		.cfi_def_cfa_offset 0
 1581              		.loc 1 543 0
 1582 0018 FFF7FEBF 		b	sdc_lld_init
 1583              	.LVL150:
 1584              	.L211:
 1585              		.cfi_restore_state
 1586 001c FFF7FEFF 		bl	__stack_chk_fail
 1587              	.LVL151:
 1588              	.L213:
 1589              		.align	2
 1590              	.L212:
 1591 0020 00000000 		.word	__stack_chk_guard
 1592              		.cfi_endproc
 1593              	.LFE269:
 1594              		.size	sdcInit, .-sdcInit
 1595              		.section	.text.sdcObjectInit,"ax",%progbits
 1596              		.align	1
ARM GAS  C:\Users\mathi\AppData\Local\Temp\ccuhldPQ.s 			page 29


 1597              		.p2align 4,,15
 1598              		.global	sdcObjectInit
 1599              		.syntax unified
 1600              		.thumb
 1601              		.thumb_func
 1602              		.fpu fpv4-sp-d16
 1603              		.type	sdcObjectInit, %function
 1604              	sdcObjectInit:
 1605              	.LFB270:
 1606              		.loc 1 553 0
 1607              		.cfi_startproc
 1608              		@ args = 0, pretend = 0, frame = 8
 1609              		@ frame_needed = 0, uses_anonymous_args = 0
 1610              	.LVL152:
 1611 0000 10B5     		push	{r4, lr}
 1612              		.cfi_def_cfa_offset 8
 1613              		.cfi_offset 4, -8
 1614              		.cfi_offset 14, -4
 1615 0002 0A4B     		ldr	r3, .L218
 1616              		.loc 1 555 0
 1617 0004 0A4A     		ldr	r2, .L218+4
 1618              		.loc 1 553 0
 1619 0006 1968     		ldr	r1, [r3]
 1620              		.loc 1 555 0
 1621 0008 0260     		str	r2, [r0]
 1622              		.loc 1 553 0
 1623 000a 82B0     		sub	sp, sp, #8
 1624              		.cfi_def_cfa_offset 16
 1625              		.loc 1 556 0
 1626 000c 0124     		movs	r4, #1
 1627              		.loc 1 553 0
 1628 000e 0191     		str	r1, [sp, #4]
 1629              		.loc 1 560 0
 1630 0010 0199     		ldr	r1, [sp, #4]
 1631 0012 1A68     		ldr	r2, [r3]
 1632              		.loc 1 556 0
 1633 0014 0471     		strb	r4, [r0, #4]
 1634              		.loc 1 557 0
 1635 0016 0023     		movs	r3, #0
 1636              		.loc 1 560 0
 1637 0018 9142     		cmp	r1, r2
 1638              		.loc 1 557 0
 1639 001a 4363     		str	r3, [r0, #52]
 1640              		.loc 1 559 0
 1641 001c C0E90A33 		strd	r3, r3, [r0, #40]
 1642              		.loc 1 560 0
 1643 0020 01D1     		bne	.L217
 1644 0022 02B0     		add	sp, sp, #8
 1645              		.cfi_remember_state
 1646              		.cfi_def_cfa_offset 8
 1647              		@ sp needed
 1648 0024 10BD     		pop	{r4, pc}
 1649              	.L217:
 1650              		.cfi_restore_state
 1651 0026 FFF7FEFF 		bl	__stack_chk_fail
 1652              	.LVL153:
 1653              	.L219:
ARM GAS  C:\Users\mathi\AppData\Local\Temp\ccuhldPQ.s 			page 30


 1654 002a 00BF     		.align	2
 1655              	.L218:
 1656 002c 00000000 		.word	__stack_chk_guard
 1657 0030 00000000 		.word	.LANCHOR8
 1658              		.cfi_endproc
 1659              	.LFE270:
 1660              		.size	sdcObjectInit, .-sdcObjectInit
 1661              		.section	.text.sdcStart,"ax",%progbits
 1662              		.align	1
 1663              		.p2align 4,,15
 1664              		.global	sdcStart
 1665              		.syntax unified
 1666              		.thumb
 1667              		.thumb_func
 1668              		.fpu fpv4-sp-d16
 1669              		.type	sdcStart, %function
 1670              	sdcStart:
 1671              	.LFB271:
 1672              		.loc 1 572 0
 1673              		.cfi_startproc
 1674              		@ args = 0, pretend = 0, frame = 8
 1675              		@ frame_needed = 0, uses_anonymous_args = 0
 1676              	.LVL154:
 1677 0000 70B5     		push	{r4, r5, r6, lr}
 1678              		.cfi_def_cfa_offset 16
 1679              		.cfi_offset 4, -16
 1680              		.cfi_offset 5, -12
 1681              		.cfi_offset 6, -8
 1682              		.cfi_offset 14, -4
 1683 0002 1D4D     		ldr	r5, .L229
 1684 0004 82B0     		sub	sp, sp, #8
 1685              		.cfi_def_cfa_offset 24
 1686              		.loc 1 572 0
 1687 0006 2B68     		ldr	r3, [r5]
 1688 0008 0193     		str	r3, [sp, #4]
 1689 000a 0E46     		mov	r6, r1
 1690              		.loc 1 574 0
 1691 000c 0446     		mov	r4, r0
 1692 000e 68B3     		cbz	r0, .L226
 1693              	.LVL155:
 1694              	.L221:
 1695              	.LBB258:
 1696              	.LBB259:
 1697              	.LBB260:
 1698              	.LBB261:
 1699              	.LBB262:
 1700              	.LBB263:
 1701              		.loc 3 546 0
 1702 0010 2023     		movs	r3, #32
 1703              		.syntax unified
 1704              	@ 546 "../../lib/e-puck2_main-processor/ChibiOS//os/ext/CMSIS/include/core_cmFunc.h" 1
 1705 0012 83F31188 		MSR basepri, r3
 1706              	@ 0 "" 2
 1707              	.LVL156:
 1708              		.thumb
 1709              		.syntax unified
 1710              	.LBE263:
ARM GAS  C:\Users\mathi\AppData\Local\Temp\ccuhldPQ.s 			page 31


 1711              	.LBE262:
 1712              	.LBE261:
 1713              		.loc 4 349 0
 1714 0016 FFF7FEFF 		bl	_stats_start_measure_crit_thd
 1715              	.LVL157:
 1716              		.loc 4 350 0
 1717 001a FFF7FEFF 		bl	_dbg_check_lock
 1718              	.LVL158:
 1719              	.LBE260:
 1720              	.LBE259:
 1721              	.LBE258:
 1722              		.loc 1 577 0
 1723 001e 2379     		ldrb	r3, [r4, #4]	@ zero_extendqisi2
 1724 0020 013B     		subs	r3, r3, #1
 1725 0022 012B     		cmp	r3, #1
 1726 0024 02D9     		bls	.L222
 1727              		.loc 1 577 0 is_stmt 0 discriminator 2
 1728 0026 1548     		ldr	r0, .L229+4
 1729 0028 FFF7FEFF 		bl	chSysHalt
 1730              	.LVL159:
 1731              	.L222:
 1732              		.loc 1 580 0 is_stmt 1
 1733 002c 2046     		mov	r0, r4
 1734              		.loc 1 579 0
 1735 002e E662     		str	r6, [r4, #44]
 1736              		.loc 1 580 0
 1737 0030 FFF7FEFF 		bl	sdc_lld_start
 1738              	.LVL160:
 1739              		.loc 1 581 0
 1740 0034 0223     		movs	r3, #2
 1741 0036 2371     		strb	r3, [r4, #4]
 1742              	.LBB264:
 1743              	.LBB265:
 1744              	.LBB266:
 1745              		.loc 4 360 0
 1746 0038 FFF7FEFF 		bl	_dbg_check_unlock
 1747              	.LVL161:
 1748              		.loc 4 361 0
 1749 003c FFF7FEFF 		bl	_stats_stop_measure_crit_thd
 1750              	.LVL162:
 1751              		.loc 4 367 0
 1752 0040 0F4B     		ldr	r3, .L229+8
 1753 0042 1A68     		ldr	r2, [r3]
 1754 0044 9A42     		cmp	r2, r3
 1755 0046 04D0     		beq	.L223
 1756 0048 9969     		ldr	r1, [r3, #24]
 1757 004a 9368     		ldr	r3, [r2, #8]
 1758 004c 8A68     		ldr	r2, [r1, #8]
 1759 004e 9A42     		cmp	r2, r3
 1760 0050 08D3     		bcc	.L227
 1761              	.L223:
 1762              	.LVL163:
 1763              	.LBB267:
 1764              	.LBB268:
 1765              	.LBB269:
 1766              		.loc 3 546 0
 1767 0052 0023     		movs	r3, #0
ARM GAS  C:\Users\mathi\AppData\Local\Temp\ccuhldPQ.s 			page 32


 1768              		.syntax unified
 1769              	@ 546 "../../lib/e-puck2_main-processor/ChibiOS//os/ext/CMSIS/include/core_cmFunc.h" 1
 1770 0054 83F31188 		MSR basepri, r3
 1771              	@ 0 "" 2
 1772              	.LVL164:
 1773              		.thumb
 1774              		.syntax unified
 1775              	.LBE269:
 1776              	.LBE268:
 1777              	.LBE267:
 1778              	.LBE266:
 1779              	.LBE265:
 1780              	.LBE264:
 1781              		.loc 1 583 0
 1782 0058 019A     		ldr	r2, [sp, #4]
 1783 005a 2B68     		ldr	r3, [r5]
 1784 005c 9A42     		cmp	r2, r3
 1785 005e 09D1     		bne	.L228
 1786 0060 02B0     		add	sp, sp, #8
 1787              		.cfi_remember_state
 1788              		.cfi_def_cfa_offset 16
 1789              		@ sp needed
 1790 0062 70BD     		pop	{r4, r5, r6, pc}
 1791              	.LVL165:
 1792              	.L227:
 1793              		.cfi_restore_state
 1794              	.LBB272:
 1795              	.LBB271:
 1796              	.LBB270:
 1797              		.loc 4 367 0
 1798 0064 0748     		ldr	r0, .L229+12
 1799 0066 FFF7FEFF 		bl	chSysHalt
 1800              	.LVL166:
 1801 006a F2E7     		b	.L223
 1802              	.LVL167:
 1803              	.L226:
 1804              	.LBE270:
 1805              	.LBE271:
 1806              	.LBE272:
 1807              		.loc 1 574 0 discriminator 2
 1808 006c 0348     		ldr	r0, .L229+4
 1809              	.LVL168:
 1810 006e FFF7FEFF 		bl	chSysHalt
 1811              	.LVL169:
 1812 0072 CDE7     		b	.L221
 1813              	.L228:
 1814              		.loc 1 583 0
 1815 0074 FFF7FEFF 		bl	__stack_chk_fail
 1816              	.LVL170:
 1817              	.L230:
 1818              		.align	2
 1819              	.L229:
 1820 0078 00000000 		.word	__stack_chk_guard
 1821 007c 00000000 		.word	.LANCHOR9
 1822 0080 00000000 		.word	ch
 1823 0084 00000000 		.word	.LANCHOR7
 1824              		.cfi_endproc
ARM GAS  C:\Users\mathi\AppData\Local\Temp\ccuhldPQ.s 			page 33


 1825              	.LFE271:
 1826              		.size	sdcStart, .-sdcStart
 1827              		.section	.text.sdcStop,"ax",%progbits
 1828              		.align	1
 1829              		.p2align 4,,15
 1830              		.global	sdcStop
 1831              		.syntax unified
 1832              		.thumb
 1833              		.thumb_func
 1834              		.fpu fpv4-sp-d16
 1835              		.type	sdcStop, %function
 1836              	sdcStop:
 1837              	.LFB272:
 1838              		.loc 1 592 0
 1839              		.cfi_startproc
 1840              		@ args = 0, pretend = 0, frame = 8
 1841              		@ frame_needed = 0, uses_anonymous_args = 0
 1842              	.LVL171:
 1843 0000 30B5     		push	{r4, r5, lr}
 1844              		.cfi_def_cfa_offset 12
 1845              		.cfi_offset 4, -12
 1846              		.cfi_offset 5, -8
 1847              		.cfi_offset 14, -4
 1848 0002 1C4D     		ldr	r5, .L240
 1849 0004 83B0     		sub	sp, sp, #12
 1850              		.cfi_def_cfa_offset 24
 1851              		.loc 1 592 0
 1852 0006 2B68     		ldr	r3, [r5]
 1853 0008 0193     		str	r3, [sp, #4]
 1854              		.loc 1 594 0
 1855 000a 0446     		mov	r4, r0
 1856 000c 60B3     		cbz	r0, .L237
 1857              	.LVL172:
 1858              	.L232:
 1859              	.LBB286:
 1860              	.LBB287:
 1861              	.LBB288:
 1862              	.LBB289:
 1863              	.LBB290:
 1864              	.LBB291:
 1865              		.loc 3 546 0
 1866 000e 2023     		movs	r3, #32
 1867              		.syntax unified
 1868              	@ 546 "../../lib/e-puck2_main-processor/ChibiOS//os/ext/CMSIS/include/core_cmFunc.h" 1
 1869 0010 83F31188 		MSR basepri, r3
 1870              	@ 0 "" 2
 1871              	.LVL173:
 1872              		.thumb
 1873              		.syntax unified
 1874              	.LBE291:
 1875              	.LBE290:
 1876              	.LBE289:
 1877              		.loc 4 349 0
 1878 0014 FFF7FEFF 		bl	_stats_start_measure_crit_thd
 1879              	.LVL174:
 1880              		.loc 4 350 0
 1881 0018 FFF7FEFF 		bl	_dbg_check_lock
ARM GAS  C:\Users\mathi\AppData\Local\Temp\ccuhldPQ.s 			page 34


 1882              	.LVL175:
 1883              	.LBE288:
 1884              	.LBE287:
 1885              	.LBE286:
 1886              		.loc 1 597 0
 1887 001c 2379     		ldrb	r3, [r4, #4]	@ zero_extendqisi2
 1888 001e 013B     		subs	r3, r3, #1
 1889 0020 012B     		cmp	r3, #1
 1890 0022 02D9     		bls	.L233
 1891              		.loc 1 597 0 is_stmt 0 discriminator 2
 1892 0024 1448     		ldr	r0, .L240+4
 1893 0026 FFF7FEFF 		bl	chSysHalt
 1894              	.LVL176:
 1895              	.L233:
 1896              		.loc 1 599 0 is_stmt 1
 1897 002a 2046     		mov	r0, r4
 1898 002c FFF7FEFF 		bl	sdc_lld_stop
 1899              	.LVL177:
 1900              		.loc 1 600 0
 1901 0030 0123     		movs	r3, #1
 1902 0032 2371     		strb	r3, [r4, #4]
 1903              	.LBB292:
 1904              	.LBB293:
 1905              	.LBB294:
 1906              		.loc 4 360 0
 1907 0034 FFF7FEFF 		bl	_dbg_check_unlock
 1908              	.LVL178:
 1909              		.loc 4 361 0
 1910 0038 FFF7FEFF 		bl	_stats_stop_measure_crit_thd
 1911              	.LVL179:
 1912              		.loc 4 367 0
 1913 003c 0F4B     		ldr	r3, .L240+8
 1914 003e 1A68     		ldr	r2, [r3]
 1915 0040 9A42     		cmp	r2, r3
 1916 0042 04D0     		beq	.L234
 1917 0044 9969     		ldr	r1, [r3, #24]
 1918 0046 9368     		ldr	r3, [r2, #8]
 1919 0048 8A68     		ldr	r2, [r1, #8]
 1920 004a 9A42     		cmp	r2, r3
 1921 004c 08D3     		bcc	.L238
 1922              	.L234:
 1923              	.LVL180:
 1924              	.LBB295:
 1925              	.LBB296:
 1926              	.LBB297:
 1927              		.loc 3 546 0
 1928 004e 0023     		movs	r3, #0
 1929              		.syntax unified
 1930              	@ 546 "../../lib/e-puck2_main-processor/ChibiOS//os/ext/CMSIS/include/core_cmFunc.h" 1
 1931 0050 83F31188 		MSR basepri, r3
 1932              	@ 0 "" 2
 1933              	.LVL181:
 1934              		.thumb
 1935              		.syntax unified
 1936              	.LBE297:
 1937              	.LBE296:
 1938              	.LBE295:
ARM GAS  C:\Users\mathi\AppData\Local\Temp\ccuhldPQ.s 			page 35


 1939              	.LBE294:
 1940              	.LBE293:
 1941              	.LBE292:
 1942              		.loc 1 602 0
 1943 0054 019A     		ldr	r2, [sp, #4]
 1944 0056 2B68     		ldr	r3, [r5]
 1945 0058 9A42     		cmp	r2, r3
 1946 005a 09D1     		bne	.L239
 1947 005c 03B0     		add	sp, sp, #12
 1948              		.cfi_remember_state
 1949              		.cfi_def_cfa_offset 12
 1950              		@ sp needed
 1951 005e 30BD     		pop	{r4, r5, pc}
 1952              	.LVL182:
 1953              	.L238:
 1954              		.cfi_restore_state
 1955              	.LBB300:
 1956              	.LBB299:
 1957              	.LBB298:
 1958              		.loc 4 367 0
 1959 0060 0748     		ldr	r0, .L240+12
 1960 0062 FFF7FEFF 		bl	chSysHalt
 1961              	.LVL183:
 1962 0066 F2E7     		b	.L234
 1963              	.LVL184:
 1964              	.L237:
 1965              	.LBE298:
 1966              	.LBE299:
 1967              	.LBE300:
 1968              		.loc 1 594 0 discriminator 2
 1969 0068 0348     		ldr	r0, .L240+4
 1970              	.LVL185:
 1971 006a FFF7FEFF 		bl	chSysHalt
 1972              	.LVL186:
 1973 006e CEE7     		b	.L232
 1974              	.L239:
 1975              		.loc 1 602 0
 1976 0070 FFF7FEFF 		bl	__stack_chk_fail
 1977              	.LVL187:
 1978              	.L241:
 1979              		.align	2
 1980              	.L240:
 1981 0074 00000000 		.word	__stack_chk_guard
 1982 0078 00000000 		.word	.LANCHOR10
 1983 007c 00000000 		.word	ch
 1984 0080 00000000 		.word	.LANCHOR7
 1985              		.cfi_endproc
 1986              	.LFE272:
 1987              		.size	sdcStop, .-sdcStop
 1988              		.section	.text.sdcGetAndClearErrors,"ax",%progbits
 1989              		.align	1
 1990              		.p2align 4,,15
 1991              		.global	sdcGetAndClearErrors
 1992              		.syntax unified
 1993              		.thumb
 1994              		.thumb_func
 1995              		.fpu fpv4-sp-d16
ARM GAS  C:\Users\mathi\AppData\Local\Temp\ccuhldPQ.s 			page 36


 1996              		.type	sdcGetAndClearErrors, %function
 1997              	sdcGetAndClearErrors:
 1998              	.LFB277:
 1999              		.loc 1 867 0
 2000              		.cfi_startproc
 2001              		@ args = 0, pretend = 0, frame = 8
 2002              		@ frame_needed = 0, uses_anonymous_args = 0
 2003              	.LVL188:
 2004 0000 70B5     		push	{r4, r5, r6, lr}
 2005              		.cfi_def_cfa_offset 16
 2006              		.cfi_offset 4, -16
 2007              		.cfi_offset 5, -12
 2008              		.cfi_offset 6, -8
 2009              		.cfi_offset 14, -4
 2010 0002 1B4D     		ldr	r5, .L254
 2011 0004 82B0     		sub	sp, sp, #8
 2012              		.cfi_def_cfa_offset 24
 2013              		.loc 1 867 0
 2014 0006 2B68     		ldr	r3, [r5]
 2015 0008 0193     		str	r3, [sp, #4]
 2016              		.loc 1 870 0
 2017 000a 0446     		mov	r4, r0
 2018 000c 50B3     		cbz	r0, .L251
 2019              	.LVL189:
 2020              	.L243:
 2021              		.loc 1 871 0 discriminator 1
 2022 000e 2379     		ldrb	r3, [r4, #4]	@ zero_extendqisi2
 2023 0010 052B     		cmp	r3, #5
 2024 0012 02D0     		beq	.L244
 2025              		.loc 1 871 0 is_stmt 0 discriminator 2
 2026 0014 1748     		ldr	r0, .L254+4
 2027 0016 FFF7FEFF 		bl	chSysHalt
 2028              	.LVL190:
 2029              	.L244:
 2030              	.LBB314:
 2031              	.LBB315:
 2032              	.LBB316:
 2033              	.LBB317:
 2034              	.LBB318:
 2035              	.LBB319:
 2036              		.loc 3 546 0 is_stmt 1
 2037 001a 2023     		movs	r3, #32
 2038              		.syntax unified
 2039              	@ 546 "../../lib/e-puck2_main-processor/ChibiOS//os/ext/CMSIS/include/core_cmFunc.h" 1
 2040 001c 83F31188 		MSR basepri, r3
 2041              	@ 0 "" 2
 2042              	.LVL191:
 2043              		.thumb
 2044              		.syntax unified
 2045              	.LBE319:
 2046              	.LBE318:
 2047              	.LBE317:
 2048              		.loc 4 349 0
 2049 0020 FFF7FEFF 		bl	_stats_start_measure_crit_thd
 2050              	.LVL192:
 2051              		.loc 4 350 0
 2052 0024 FFF7FEFF 		bl	_dbg_check_lock
ARM GAS  C:\Users\mathi\AppData\Local\Temp\ccuhldPQ.s 			page 37


 2053              	.LVL193:
 2054              	.LBE316:
 2055              	.LBE315:
 2056              	.LBE314:
 2057              		.loc 1 875 0
 2058 0028 0023     		movs	r3, #0
 2059              		.loc 1 874 0
 2060 002a 666B     		ldr	r6, [r4, #52]
 2061              	.LVL194:
 2062              		.loc 1 875 0
 2063 002c 6363     		str	r3, [r4, #52]
 2064              	.LBB320:
 2065              	.LBB321:
 2066              	.LBB322:
 2067              		.loc 4 360 0
 2068 002e FFF7FEFF 		bl	_dbg_check_unlock
 2069              	.LVL195:
 2070              		.loc 4 361 0
 2071 0032 FFF7FEFF 		bl	_stats_stop_measure_crit_thd
 2072              	.LVL196:
 2073              		.loc 4 367 0
 2074 0036 104B     		ldr	r3, .L254+8
 2075 0038 1A68     		ldr	r2, [r3]
 2076 003a 9A42     		cmp	r2, r3
 2077 003c 04D0     		beq	.L245
 2078 003e 9969     		ldr	r1, [r3, #24]
 2079 0040 9368     		ldr	r3, [r2, #8]
 2080 0042 8A68     		ldr	r2, [r1, #8]
 2081 0044 9A42     		cmp	r2, r3
 2082 0046 09D3     		bcc	.L252
 2083              	.L245:
 2084              	.LVL197:
 2085              	.LBB323:
 2086              	.LBB324:
 2087              	.LBB325:
 2088              		.loc 3 546 0
 2089 0048 0023     		movs	r3, #0
 2090              		.syntax unified
 2091              	@ 546 "../../lib/e-puck2_main-processor/ChibiOS//os/ext/CMSIS/include/core_cmFunc.h" 1
 2092 004a 83F31188 		MSR basepri, r3
 2093              	@ 0 "" 2
 2094              	.LVL198:
 2095              		.thumb
 2096              		.syntax unified
 2097              	.LBE325:
 2098              	.LBE324:
 2099              	.LBE323:
 2100              	.LBE322:
 2101              	.LBE321:
 2102              	.LBE320:
 2103              		.loc 1 878 0
 2104 004e 019A     		ldr	r2, [sp, #4]
 2105 0050 2B68     		ldr	r3, [r5]
 2106 0052 9A42     		cmp	r2, r3
 2107 0054 3046     		mov	r0, r6
 2108 0056 09D1     		bne	.L253
 2109              	.LVL199:
ARM GAS  C:\Users\mathi\AppData\Local\Temp\ccuhldPQ.s 			page 38


 2110 0058 02B0     		add	sp, sp, #8
 2111              		.cfi_remember_state
 2112              		.cfi_def_cfa_offset 16
 2113              		@ sp needed
 2114 005a 70BD     		pop	{r4, r5, r6, pc}
 2115              	.LVL200:
 2116              	.L252:
 2117              		.cfi_restore_state
 2118              	.LBB328:
 2119              	.LBB327:
 2120              	.LBB326:
 2121              		.loc 4 367 0
 2122 005c 0748     		ldr	r0, .L254+12
 2123 005e FFF7FEFF 		bl	chSysHalt
 2124              	.LVL201:
 2125 0062 F1E7     		b	.L245
 2126              	.LVL202:
 2127              	.L251:
 2128              	.LBE326:
 2129              	.LBE327:
 2130              	.LBE328:
 2131              		.loc 1 870 0 discriminator 2
 2132 0064 0348     		ldr	r0, .L254+4
 2133              	.LVL203:
 2134 0066 FFF7FEFF 		bl	chSysHalt
 2135              	.LVL204:
 2136 006a D0E7     		b	.L243
 2137              	.LVL205:
 2138              	.L253:
 2139              		.loc 1 878 0
 2140 006c FFF7FEFF 		bl	__stack_chk_fail
 2141              	.LVL206:
 2142              	.L255:
 2143              		.align	2
 2144              	.L254:
 2145 0070 00000000 		.word	__stack_chk_guard
 2146 0074 00000000 		.word	.LANCHOR11
 2147 0078 00000000 		.word	ch
 2148 007c 00000000 		.word	.LANCHOR7
 2149              		.cfi_endproc
 2150              	.LFE277:
 2151              		.size	sdcGetAndClearErrors, .-sdcGetAndClearErrors
 2152              		.section	.text.sdcErase,"ax",%progbits
 2153              		.align	1
 2154              		.p2align 4,,15
 2155              		.global	sdcErase
 2156              		.syntax unified
 2157              		.thumb
 2158              		.thumb_func
 2159              		.fpu fpv4-sp-d16
 2160              		.type	sdcErase, %function
 2161              	sdcErase:
 2162              	.LFB280:
 2163              		.loc 1 949 0
 2164              		.cfi_startproc
 2165              		@ args = 0, pretend = 0, frame = 8
 2166              		@ frame_needed = 0, uses_anonymous_args = 0
ARM GAS  C:\Users\mathi\AppData\Local\Temp\ccuhldPQ.s 			page 39


 2167              	.LVL207:
 2168 0000 2DE9F041 		push	{r4, r5, r6, r7, r8, lr}
 2169              		.cfi_def_cfa_offset 24
 2170              		.cfi_offset 4, -24
 2171              		.cfi_offset 5, -20
 2172              		.cfi_offset 6, -16
 2173              		.cfi_offset 7, -12
 2174              		.cfi_offset 8, -8
 2175              		.cfi_offset 14, -4
 2176 0004 304D     		ldr	r5, .L279
 2177 0006 82B0     		sub	sp, sp, #8
 2178              		.cfi_def_cfa_offset 32
 2179              		.loc 1 949 0
 2180 0008 2B68     		ldr	r3, [r5]
 2181 000a 0193     		str	r3, [sp, #4]
 2182 000c 0F46     		mov	r7, r1
 2183 000e 9046     		mov	r8, r2
 2184              		.loc 1 952 0
 2185 0010 0446     		mov	r4, r0
 2186 0012 0028     		cmp	r0, #0
 2187 0014 51D0     		beq	.L277
 2188              	.LVL208:
 2189              	.L257:
 2190              		.loc 1 953 0 discriminator 1
 2191 0016 2379     		ldrb	r3, [r4, #4]	@ zero_extendqisi2
 2192 0018 052B     		cmp	r3, #5
 2193 001a 02D0     		beq	.L258
 2194              		.loc 1 953 0 is_stmt 0 discriminator 2
 2195 001c 2B48     		ldr	r0, .L279+4
 2196 001e FFF7FEFF 		bl	chSysHalt
 2197              	.LVL209:
 2198              	.L258:
 2199              		.loc 1 959 0 is_stmt 1
 2200 0022 236B     		ldr	r3, [r4, #48]
 2201              	.LBB333:
 2202              	.LBB334:
 2203              		.loc 1 508 0
 2204 0024 2A4E     		ldr	r6, .L279+8
 2205              	.LBE334:
 2206              	.LBE333:
 2207              		.loc 1 959 0
 2208 0026 DB06     		lsls	r3, r3, #27
 2209              		.loc 1 956 0
 2210 0028 4FF00702 		mov	r2, #7
 2211 002c 2271     		strb	r2, [r4, #4]
 2212              		.loc 1 960 0
 2213 002e 44BF     		itt	mi
 2214 0030 7F02     		lslmi	r7, r7, #9
 2215              	.LVL210:
 2216              		.loc 1 961 0
 2217 0032 4FEA4828 		lslmi	r8, r8, #9
 2218              	.LVL211:
 2219              	.L264:
 2220              	.LBB339:
 2221              	.LBB337:
 2222              		.loc 1 506 0
 2223 0036 6B46     		mov	r3, sp
ARM GAS  C:\Users\mathi\AppData\Local\Temp\ccuhldPQ.s 			page 40


 2224 0038 A26B     		ldr	r2, [r4, #56]
 2225 003a 0D21     		movs	r1, #13
 2226 003c 2046     		mov	r0, r4
 2227 003e FFF7FEFF 		bl	sdc_lld_send_cmd_short_crc
 2228              	.LVL212:
 2229 0042 0028     		cmp	r0, #0
 2230 0044 37D1     		bne	.L260
 2231              		.loc 1 508 0
 2232 0046 009B     		ldr	r3, [sp]
 2233              		.loc 1 507 0
 2234 0048 3342     		tst	r3, r6
 2235 004a 34D1     		bne	.L260
 2236              		.loc 1 512 0
 2237 004c C3F34323 		ubfx	r3, r3, #9, #4
 2238 0050 042B     		cmp	r3, #4
 2239 0052 07D0     		beq	.L262
 2240              	.LBE337:
 2241              	.LBE339:
 2242              		.loc 1 999 0
 2243 0054 4FF00100 		mov	r0, #1
 2244              	.LBB340:
 2245              	.LBB338:
 2246              		.loc 1 512 0
 2247 0058 24D3     		bcc	.L265
 2248 005a 072B     		cmp	r3, #7
 2249 005c 22D8     		bhi	.L265
 2250              	.LVL213:
 2251              	.LBB335:
 2252              	.LBB336:
 2253              		.loc 2 627 0
 2254 005e FFF7FEFF 		bl	chThdSleep
 2255              	.LVL214:
 2256 0062 E8E7     		b	.L264
 2257              	.L262:
 2258              	.LVL215:
 2259              	.LBE336:
 2260              	.LBE335:
 2261              	.LBE338:
 2262              	.LBE340:
 2263              		.loc 1 968 0
 2264 0064 3A46     		mov	r2, r7
 2265 0066 6B46     		mov	r3, sp
 2266 0068 2021     		movs	r1, #32
 2267 006a 2046     		mov	r0, r4
 2268 006c FFF7FEFF 		bl	sdc_lld_send_cmd_short_crc
 2269              	.LVL216:
 2270 0070 08BB     		cbnz	r0, .L260
 2271              		.loc 1 970 0
 2272 0072 009B     		ldr	r3, [sp]
 2273              		.loc 1 969 0
 2274 0074 3342     		tst	r3, r6
 2275 0076 1ED1     		bne	.L260
 2276              		.loc 1 974 0
 2277 0078 4246     		mov	r2, r8
 2278 007a 6B46     		mov	r3, sp
 2279 007c 2121     		movs	r1, #33
 2280 007e 2046     		mov	r0, r4
ARM GAS  C:\Users\mathi\AppData\Local\Temp\ccuhldPQ.s 			page 41


 2281 0080 FFF7FEFF 		bl	sdc_lld_send_cmd_short_crc
 2282              	.LVL217:
 2283 0084 B8B9     		cbnz	r0, .L260
 2284              		.loc 1 976 0
 2285 0086 009A     		ldr	r2, [sp]
 2286              		.loc 1 975 0
 2287 0088 3240     		ands	r2, r2, r6
 2288 008a 14D1     		bne	.L260
 2289              		.loc 1 980 0
 2290 008c 6B46     		mov	r3, sp
 2291 008e 2621     		movs	r1, #38
 2292 0090 2046     		mov	r0, r4
 2293 0092 FFF7FEFF 		bl	sdc_lld_send_cmd_short_crc
 2294              	.LVL218:
 2295 0096 70B9     		cbnz	r0, .L260
 2296              		.loc 1 982 0
 2297 0098 009B     		ldr	r3, [sp]
 2298              		.loc 1 981 0
 2299 009a 3342     		tst	r3, r6
 2300 009c 0BD1     		bne	.L260
 2301              		.loc 1 990 0
 2302 009e 2046     		mov	r0, r4
 2303 00a0 FFF7FEFF 		bl	_sdc_wait_for_transfer_state
 2304              	.LVL219:
 2305              	.L265:
 2306              		.loc 1 1000 0
 2307 00a4 019A     		ldr	r2, [sp, #4]
 2308 00a6 2B68     		ldr	r3, [r5]
 2309 00a8 0521     		movs	r1, #5
 2310 00aa 9A42     		cmp	r2, r3
 2311 00ac 2171     		strb	r1, [r4, #4]
 2312 00ae 08D1     		bne	.L278
 2313 00b0 02B0     		add	sp, sp, #8
 2314              		.cfi_remember_state
 2315              		.cfi_def_cfa_offset 24
 2316              		@ sp needed
 2317 00b2 BDE8F081 		pop	{r4, r5, r6, r7, r8, pc}
 2318              	.LVL220:
 2319              	.L260:
 2320              		.cfi_restore_state
 2321              		.loc 1 999 0
 2322 00b6 0120     		movs	r0, #1
 2323 00b8 F4E7     		b	.L265
 2324              	.LVL221:
 2325              	.L277:
 2326              		.loc 1 952 0 discriminator 2
 2327 00ba 0448     		ldr	r0, .L279+4
 2328              	.LVL222:
 2329 00bc FFF7FEFF 		bl	chSysHalt
 2330              	.LVL223:
 2331 00c0 A9E7     		b	.L257
 2332              	.L278:
 2333              		.loc 1 1000 0
 2334 00c2 FFF7FEFF 		bl	__stack_chk_fail
 2335              	.LVL224:
 2336              	.L280:
 2337 00c6 00BF     		.align	2
ARM GAS  C:\Users\mathi\AppData\Local\Temp\ccuhldPQ.s 			page 42


 2338              	.L279:
 2339 00c8 00000000 		.word	__stack_chk_guard
 2340 00cc 00000000 		.word	.LANCHOR12
 2341 00d0 08E0FFFD 		.word	-33562616
 2342              		.cfi_endproc
 2343              	.LFE280:
 2344              		.size	sdcErase, .-sdcErase
 2345              		.section	.rodata.__func__.10349,"a",%progbits
 2346              		.align	2
 2347              		.set	.LANCHOR2,. + 0
 2348              		.type	__func__.10349, %object
 2349              		.size	__func__.10349, 18
 2350              	__func__.10349:
 2351 0000 6D6D635F 		.ascii	"mmc_set_bus_width\000"
 2351      7365745F 
 2351      6275735F 
 2351      77696474 
 2351      6800
 2352              		.section	.rodata.__func__.10371,"a",%progbits
 2353              		.align	2
 2354              		.set	.LANCHOR9,. + 0
 2355              		.type	__func__.10371, %object
 2356              		.size	__func__.10371, 9
 2357              	__func__.10371:
 2358 0000 73646353 		.ascii	"sdcStart\000"
 2358      74617274 
 2358      00
 2359              		.section	.rodata.__func__.10375,"a",%progbits
 2360              		.align	2
 2361              		.set	.LANCHOR10,. + 0
 2362              		.type	__func__.10375, %object
 2363              		.size	__func__.10375, 8
 2364              	__func__.10375:
 2365 0000 73646353 		.ascii	"sdcStop\000"
 2365      746F7000 
 2366              		.section	.rodata.__func__.10381,"a",%progbits
 2367              		.align	2
 2368              		.set	.LANCHOR1,. + 0
 2369              		.type	__func__.10381, %object
 2370              		.size	__func__.10381, 11
 2371              	__func__.10381:
 2372 0000 73646343 		.ascii	"sdcConnect\000"
 2372      6F6E6E65 
 2372      637400
 2373              		.section	.rodata.__func__.10392,"a",%progbits
 2374              		.align	2
 2375              		.set	.LANCHOR6,. + 0
 2376              		.type	__func__.10392, %object
 2377              		.size	__func__.10392, 14
 2378              	__func__.10392:
 2379 0000 73646344 		.ascii	"sdcDisconnect\000"
 2379      6973636F 
 2379      6E6E6563 
 2379      7400
 2380              		.section	.rodata.__func__.10400,"a",%progbits
 2381              		.align	2
 2382              		.set	.LANCHOR3,. + 0
ARM GAS  C:\Users\mathi\AppData\Local\Temp\ccuhldPQ.s 			page 43


 2383              		.type	__func__.10400, %object
 2384              		.size	__func__.10400, 8
 2385              	__func__.10400:
 2386 0000 73646352 		.ascii	"sdcRead\000"
 2386      65616400 
 2387              		.section	.rodata.__func__.10408,"a",%progbits
 2388              		.align	2
 2389              		.set	.LANCHOR4,. + 0
 2390              		.type	__func__.10408, %object
 2391              		.size	__func__.10408, 9
 2392              	__func__.10408:
 2393 0000 73646357 		.ascii	"sdcWrite\000"
 2393      72697465 
 2393      00
 2394              		.section	.rodata.__func__.10413,"a",%progbits
 2395              		.align	2
 2396              		.set	.LANCHOR11,. + 0
 2397              		.type	__func__.10413, %object
 2398              		.size	__func__.10413, 21
 2399              	__func__.10413:
 2400 0000 73646347 		.ascii	"sdcGetAndClearErrors\000"
 2400      6574416E 
 2400      64436C65 
 2400      61724572 
 2400      726F7273 
 2401              		.section	.rodata.__func__.10418,"a",%progbits
 2402              		.align	2
 2403              		.set	.LANCHOR5,. + 0
 2404              		.type	__func__.10418, %object
 2405              		.size	__func__.10418, 8
 2406              	__func__.10418:
 2407 0000 73646353 		.ascii	"sdcSync\000"
 2407      796E6300 
 2408              		.section	.rodata.__func__.10423,"a",%progbits
 2409              		.align	2
 2410              		.set	.LANCHOR0,. + 0
 2411              		.type	__func__.10423, %object
 2412              		.size	__func__.10423, 11
 2413              	__func__.10423:
 2414 0000 73646347 		.ascii	"sdcGetInfo\000"
 2414      6574496E 
 2414      666F00
 2415              		.section	.rodata.__func__.10430,"a",%progbits
 2416              		.align	2
 2417              		.set	.LANCHOR12,. + 0
 2418              		.type	__func__.10430, %object
 2419              		.size	__func__.10430, 9
 2420              	__func__.10430:
 2421 0000 73646345 		.ascii	"sdcErase\000"
 2421      72617365 
 2421      00
 2422              		.section	.rodata.__func__.7554,"a",%progbits
 2423              		.align	2
 2424              		.set	.LANCHOR7,. + 0
 2425              		.type	__func__.7554, %object
 2426              		.size	__func__.7554, 12
 2427              	__func__.7554:
ARM GAS  C:\Users\mathi\AppData\Local\Temp\ccuhldPQ.s 			page 44


 2428 0000 63685379 		.ascii	"chSysUnlock\000"
 2428      73556E6C 
 2428      6F636B00 
 2429              		.section	.rodata.sdc_vmt,"a",%progbits
 2430              		.align	2
 2431              		.set	.LANCHOR8,. + 0
 2432              		.type	sdc_vmt, %object
 2433              		.size	sdc_vmt, 32
 2434              	sdc_vmt:
 2435 0000 00000000 		.word	sdc_lld_is_card_inserted
 2436 0004 00000000 		.word	sdc_lld_is_write_protected
 2437 0008 00000000 		.word	sdcConnect
 2438 000c 00000000 		.word	sdcDisconnect
 2439 0010 00000000 		.word	sdcRead
 2440 0014 00000000 		.word	sdcWrite
 2441 0018 00000000 		.word	sdcSync
 2442 001c 00000000 		.word	sdcGetInfo
 2443              		.text
 2444              	.Letext0:
 2445              		.file 5 "c:\\eclipse_e-puck2\\tools\\gcc-arm-none-eabi-7-2017-q4-major-win32\\lib\\gcc\\arm-none-e
 2446              		.file 6 "c:\\eclipse_e-puck2\\tools\\gcc-arm-none-eabi-7-2017-q4-major-win32\\arm-none-eabi\\inclu
 2447              		.file 7 "c:\\eclipse_e-puck2\\tools\\gcc-arm-none-eabi-7-2017-q4-major-win32\\arm-none-eabi\\inclu
 2448              		.file 8 "c:\\eclipse_e-puck2\\tools\\gcc-arm-none-eabi-7-2017-q4-major-win32\\arm-none-eabi\\inclu
 2449              		.file 9 "c:\\eclipse_e-puck2\\tools\\gcc-arm-none-eabi-7-2017-q4-major-win32\\arm-none-eabi\\inclu
 2450              		.file 10 "c:\\eclipse_e-puck2\\tools\\gcc-arm-none-eabi-7-2017-q4-major-win32\\arm-none-eabi\\incl
 2451              		.file 11 "../../lib/e-puck2_main-processor/ChibiOS//os/rt/ports/ARMCMx/compilers/GCC/chtypes.h"
 2452              		.file 12 "../../lib/e-puck2_main-processor/ChibiOS//os/rt/include/chsystypes.h"
 2453              		.file 13 "../../lib/e-puck2_main-processor/ChibiOS//os/rt/include/chschd.h"
 2454              		.file 14 "../../lib/e-puck2_main-processor/ChibiOS//os/ext/CMSIS/include/core_cm4.h"
 2455              		.file 15 "../../lib/e-puck2_main-processor/ChibiOS//os/ext/CMSIS/ST/system_stm32f4xx.h"
 2456              		.file 16 "../../lib/e-puck2_main-processor/ChibiOS//os/ext/CMSIS/ST/stm32f407xx.h"
 2457              		.file 17 "../../lib/e-puck2_main-processor/ChibiOS//os/rt/ports/ARMCMx/chcore.h"
 2458              		.file 18 "../../lib/e-puck2_main-processor/ChibiOS//os/rt/ports/ARMCMx/chcore_v7m.h"
 2459              		.file 19 "../../lib/e-puck2_main-processor/ChibiOS//os/rt/include/chdebug.h"
 2460              		.file 20 "../../lib/e-puck2_main-processor/ChibiOS//os/rt/include/chtm.h"
 2461              		.file 21 "../../lib/e-puck2_main-processor/ChibiOS//os/rt/include/chstats.h"
 2462              		.file 22 "../../lib/e-puck2_main-processor/ChibiOS//os/rt/include/chsem.h"
 2463              		.file 23 "../../lib/e-puck2_main-processor/ChibiOS//os/rt/include/chmtx.h"
 2464              		.file 24 "../../lib/e-puck2_main-processor/ChibiOS//os/rt/include/chregistry.h"
 2465              		.file 25 "../../lib/e-puck2_main-processor/ChibiOS//os/rt/include/chevents.h"
 2466              		.file 26 "../../lib/e-puck2_main-processor/ChibiOS//os/rt/include/chqueues.h"
 2467              		.file 27 "../../lib/e-puck2_main-processor/ChibiOS//os/hal/ports/STM32/STM32F4xx/stm32_dma.h"
 2468              		.file 28 "../../lib/e-puck2_main-processor/ChibiOS//os/hal/include/hal_ioblock.h"
 2469              		.file 29 "../../lib/e-puck2_main-processor/ChibiOS//os/hal/ports/STM32/LLD/GPIOv2/pal_lld.h"
 2470              		.file 30 "../../lib/e-puck2_main-processor/ChibiOS//os/hal/include/adc.h"
 2471              		.file 31 "../../lib/e-puck2_main-processor/ChibiOS//os/hal/ports/STM32/STM32F4xx/adc_lld.h"
 2472              		.file 32 "../../lib/e-puck2_main-processor/ChibiOS//os/hal/include/can.h"
 2473              		.file 33 "../../lib/e-puck2_main-processor/ChibiOS//os/hal/ports/STM32/LLD/can_lld.h"
 2474              		.file 34 "../../lib/e-puck2_main-processor/ChibiOS//os/hal/include/dac.h"
 2475              		.file 35 "../../lib/e-puck2_main-processor/ChibiOS//os/hal/ports/STM32/LLD/DACv1/dac_lld.h"
 2476              		.file 36 "../../lib/e-puck2_main-processor/ChibiOS//os/hal/include/ext.h"
 2477              		.file 37 "../../lib/e-puck2_main-processor/ChibiOS//os/hal/ports/STM32/LLD/ext_lld.h"
 2478              		.file 38 "../../lib/e-puck2_main-processor/ChibiOS//os/hal/include/gpt.h"
 2479              		.file 39 "../../lib/e-puck2_main-processor/ChibiOS//os/hal/ports/STM32/LLD/TIMv1/gpt_lld.h"
 2480              		.file 40 "../../lib/e-puck2_main-processor/ChibiOS//os/hal/ports/STM32/LLD/TIMv1/stm32_tim.h"
 2481              		.file 41 "../../lib/e-puck2_main-processor/ChibiOS//os/hal/include/i2c.h"
 2482              		.file 42 "../../lib/e-puck2_main-processor/ChibiOS//os/hal/ports/STM32/LLD/I2Cv1/i2c_lld.h"
ARM GAS  C:\Users\mathi\AppData\Local\Temp\ccuhldPQ.s 			page 45


 2483              		.file 43 "../../lib/e-puck2_main-processor/ChibiOS//os/hal/include/i2s.h"
 2484              		.file 44 "../../lib/e-puck2_main-processor/ChibiOS//os/hal/ports/STM32/LLD/SPIv1/i2s_lld.h"
 2485              		.file 45 "../../lib/e-puck2_main-processor/ChibiOS//os/hal/include/pwm.h"
 2486              		.file 46 "../../lib/e-puck2_main-processor/ChibiOS//os/hal/ports/STM32/LLD/TIMv1/pwm_lld.h"
 2487              		.file 47 "../../lib/e-puck2_main-processor/ChibiOS//os/hal/include/serial.h"
 2488              		.file 48 "../../lib/e-puck2_main-processor/ChibiOS//os/hal/ports/STM32/LLD/USARTv1/serial_lld.h"
 2489              		.file 49 "../../lib/e-puck2_main-processor/ChibiOS//os/hal/include/sdc.h"
 2490              		.file 50 "../../lib/e-puck2_main-processor/ChibiOS//os/hal/ports/STM32/LLD/sdc_lld.h"
 2491              		.file 51 "../../lib/e-puck2_main-processor/ChibiOS//os/hal/include/spi.h"
 2492              		.file 52 "../../lib/e-puck2_main-processor/ChibiOS//os/hal/ports/STM32/LLD/SPIv1/spi_lld.h"
 2493              		.file 53 "../../lib/e-puck2_main-processor/ChibiOS//os/hal/include/usb.h"
 2494              		.file 54 "../../lib/e-puck2_main-processor/ChibiOS//os/hal/ports/STM32/LLD/OTGv1/usb_lld.h"
 2495              		.file 55 "../../lib/e-puck2_main-processor/ChibiOS//os/hal/ports/STM32/LLD/OTGv1/stm32_otg.h"
 2496              		.file 56 "../../lib/e-puck2_main-processor/ChibiOS//os/rt/include/chthreads.h"
 2497              		.file 57 "../../lib/e-puck2_main-processor/ChibiOS//os/hal/include/hal_mmcsd.h"