ARM GAS  C:\Users\mathi\AppData\Local\Temp\cct6Ydad.s 			page 1


   1              		.cpu cortex-m4
   2              		.eabi_attribute 27, 1
   3              		.eabi_attribute 28, 1
   4              		.eabi_attribute 20, 1
   5              		.eabi_attribute 21, 1
   6              		.eabi_attribute 23, 3
   7              		.eabi_attribute 24, 1
   8              		.eabi_attribute 25, 1
   9              		.eabi_attribute 26, 1
  10              		.eabi_attribute 30, 2
  11              		.eabi_attribute 34, 1
  12              		.eabi_attribute 18, 4
  13              		.file	"serial_datagram.c"
  14              		.text
  15              	.Ltext0:
  16              		.cfi_sections	.debug_frame
  17              		.section	.text.serial_datagram_send_chunk,"ax",%progbits
  18              		.align	1
  19              		.p2align 4,,15
  20              		.global	serial_datagram_send_chunk
  21              		.syntax unified
  22              		.thumb
  23              		.thumb_func
  24              		.fpu fpv4-sp-d16
  25              		.type	serial_datagram_send_chunk, %function
  26              	serial_datagram_send_chunk:
  27              	.LFB1:
  28              		.file 1 "../../lib/e-puck2_main-processor/src/serial-datagram/serial_datagram.c"
  29              		.loc 1 22 0
  30              		.cfi_startproc
  31              		@ args = 4, pretend = 0, frame = 8
  32              		@ frame_needed = 0, uses_anonymous_args = 0
  33              	.LVL0:
  34 0000 2DE9F04F 		push	{r4, r5, r6, r7, r8, r9, r10, fp, lr}
  35              		.cfi_def_cfa_offset 36
  36              		.cfi_offset 4, -36
  37              		.cfi_offset 5, -32
  38              		.cfi_offset 6, -28
  39              		.cfi_offset 7, -24
  40              		.cfi_offset 8, -20
  41              		.cfi_offset 9, -16
  42              		.cfi_offset 10, -12
  43              		.cfi_offset 11, -8
  44              		.cfi_offset 14, -4
  45 0004 264C     		ldr	r4, .L14
  46 0006 83B0     		sub	sp, sp, #12
  47              		.cfi_def_cfa_offset 48
  48              		.loc 1 22 0
  49 0008 2468     		ldr	r4, [r4]
  50 000a 0C9E     		ldr	r6, [sp, #48]
  51 000c 0194     		str	r4, [sp, #4]
  52 000e 0746     		mov	r7, r0
  53              	.LVL1:
  54 0010 9346     		mov	fp, r2
  55 0012 1D46     		mov	r5, r3
  56              		.loc 1 26 0
  57 0014 8846     		mov	r8, r1
ARM GAS  C:\Users\mathi\AppData\Local\Temp\cct6Ydad.s 			page 2


  58 0016 0029     		cmp	r1, #0
  59 0018 3CD0     		beq	.L7
  60              		.loc 1 25 0
  61 001a 0020     		movs	r0, #0
  62              	.LVL2:
  63              		.loc 1 29 0
  64 001c DFF88890 		ldr	r9, .L14+8
  65              		.loc 1 25 0
  66 0020 0246     		mov	r2, r0
  67              	.LVL3:
  68              		.loc 1 26 0
  69 0022 BA46     		mov	r10, r7
  70 0024 0BE0     		b	.L5
  71              	.LVL4:
  72              	.L12:
  73              		.loc 1 28 0
  74 0026 821A     		subs	r2, r0, r2
  75              	.LVL5:
  76 0028 3046     		mov	r0, r6
  77 002a A847     		blx	r5
  78              	.LVL6:
  79              		.loc 1 29 0
  80 002c 0222     		movs	r2, #2
  81 002e 4946     		mov	r1, r9
  82 0030 3046     		mov	r0, r6
  83 0032 A847     		blx	r5
  84              	.LVL7:
  85 0034 5146     		mov	r1, r10
  86 0036 2246     		mov	r2, r4
  87              	.L4:
  88              	.LVL8:
  89              		.loc 1 26 0
  90 0038 4445     		cmp	r4, r8
  91 003a 2046     		mov	r0, r4
  92 003c 16D0     		beq	.L11
  93              	.LVL9:
  94              	.L5:
  95              		.loc 1 27 0
  96 003e 1AF8013B 		ldrb	r3, [r10], #1	@ zero_extendqisi2
  97 0042 C02B     		cmp	r3, #192
  98 0044 07EB0201 		add	r1, r7, r2
  99 0048 00F10104 		add	r4, r0, #1
 100 004c EBD0     		beq	.L12
 101              		.loc 1 31 0
 102 004e DB2B     		cmp	r3, #219
 103 0050 F2D1     		bne	.L4
 104              		.loc 1 32 0
 105 0052 821A     		subs	r2, r0, r2
 106              	.LVL10:
 107 0054 3046     		mov	r0, r6
 108 0056 A847     		blx	r5
 109              	.LVL11:
 110              		.loc 1 33 0
 111 0058 0222     		movs	r2, #2
 112 005a 1249     		ldr	r1, .L14+4
 113 005c 3046     		mov	r0, r6
 114 005e A847     		blx	r5
ARM GAS  C:\Users\mathi\AppData\Local\Temp\cct6Ydad.s 			page 3


 115              	.LVL12:
 116              		.loc 1 26 0
 117 0060 4445     		cmp	r4, r8
 118 0062 07EB0401 		add	r1, r7, r4
 119              		.loc 1 33 0
 120 0066 2246     		mov	r2, r4
 121              	.LVL13:
 122 0068 2046     		mov	r0, r4
 123              		.loc 1 26 0
 124 006a E8D1     		bne	.L5
 125              	.LVL14:
 126              	.L11:
 127 006c A8EB0202 		sub	r2, r8, r2
 128              	.LVL15:
 129              	.L2:
 130              		.loc 1 38 0
 131 0070 3046     		mov	r0, r6
 132 0072 A847     		blx	r5
 133              	.LVL16:
 134              		.loc 1 41 0
 135 0074 4246     		mov	r2, r8
 136 0076 3946     		mov	r1, r7
 137 0078 DBF80000 		ldr	r0, [fp]
 138 007c FFF7FEFF 		bl	crc32
 139              	.LVL17:
 140              		.loc 1 42 0
 141 0080 074B     		ldr	r3, .L14
 142              		.loc 1 41 0
 143 0082 CBF80000 		str	r0, [fp]
 144              		.loc 1 42 0
 145 0086 019A     		ldr	r2, [sp, #4]
 146 0088 1B68     		ldr	r3, [r3]
 147 008a 9A42     		cmp	r2, r3
 148 008c 05D1     		bne	.L13
 149 008e 03B0     		add	sp, sp, #12
 150              		.cfi_remember_state
 151              		.cfi_def_cfa_offset 36
 152              		@ sp needed
 153 0090 BDE8F08F 		pop	{r4, r5, r6, r7, r8, r9, r10, fp, pc}
 154              	.LVL18:
 155              	.L7:
 156              		.cfi_restore_state
 157              		.loc 1 26 0
 158 0094 0A46     		mov	r2, r1
 159              	.LVL19:
 160 0096 0146     		mov	r1, r0
 161              	.LVL20:
 162 0098 EAE7     		b	.L2
 163              	.LVL21:
 164              	.L13:
 165              		.loc 1 42 0
 166 009a FFF7FEFF 		bl	__stack_chk_fail
 167              	.LVL22:
 168              	.L15:
 169 009e 00BF     		.align	2
 170              	.L14:
 171 00a0 00000000 		.word	__stack_chk_guard
ARM GAS  C:\Users\mathi\AppData\Local\Temp\cct6Ydad.s 			page 4


 172 00a4 00000000 		.word	.LANCHOR1
 173 00a8 00000000 		.word	.LANCHOR0
 174              		.cfi_endproc
 175              	.LFE1:
 176              		.size	serial_datagram_send_chunk, .-serial_datagram_send_chunk
 177              		.section	.text.serial_datagram_send_end,"ax",%progbits
 178              		.align	1
 179              		.p2align 4,,15
 180              		.global	serial_datagram_send_end
 181              		.syntax unified
 182              		.thumb
 183              		.thumb_func
 184              		.fpu fpv4-sp-d16
 185              		.type	serial_datagram_send_end, %function
 186              	serial_datagram_send_end:
 187              	.LFB2:
 188              		.loc 1 46 0
 189              		.cfi_startproc
 190              		@ args = 0, pretend = 0, frame = 16
 191              		@ frame_needed = 0, uses_anonymous_args = 0
 192              	.LVL23:
 193 0000 F0B5     		push	{r4, r5, r6, r7, lr}
 194              		.cfi_def_cfa_offset 20
 195              		.cfi_offset 4, -20
 196              		.cfi_offset 5, -16
 197              		.cfi_offset 6, -12
 198              		.cfi_offset 7, -8
 199              		.cfi_offset 14, -4
 200 0002 524C     		ldr	r4, .L36
 201 0004 85B0     		sub	sp, sp, #20
 202              		.cfi_def_cfa_offset 40
 203              		.loc 1 46 0
 204 0006 2368     		ldr	r3, [r4]
 205 0008 0393     		str	r3, [sp, #12]
 206              	.LVL24:
 207              		.loc 1 52 0
 208 000a 030E     		lsrs	r3, r0, #24
 209 000c DB2B     		cmp	r3, #219
 210              		.loc 1 46 0
 211 000e 0D46     		mov	r5, r1
 212              		.loc 1 52 0
 213 0010 6ED0     		beq	.L17
 214              		.loc 1 55 0
 215 0012 C02B     		cmp	r3, #192
 216 0014 34D0     		beq	.L18
 217              	.LVL25:
 218              		.loc 1 59 0
 219 0016 8DF80030 		strb	r3, [sp]
 220 001a 0123     		movs	r3, #1
 221              	.LVL26:
 222              	.L19:
 223              		.loc 1 52 0
 224 001c 070C     		lsrs	r7, r0, #16
 225 001e FEB2     		uxtb	r6, r7
 226 0020 DB2E     		cmp	r6, #219
 227 0022 03F10101 		add	r1, r3, #1
 228              	.LVL27:
ARM GAS  C:\Users\mathi\AppData\Local\Temp\cct6Ydad.s 			page 5


 229 0026 37D0     		beq	.L20
 230              	.L34:
 231              		.loc 1 55 0
 232 0028 C02E     		cmp	r6, #192
 233              		.loc 1 57 0
 234 002a 04AE     		add	r6, sp, #16
 235              		.loc 1 55 0
 236 002c 66D0     		beq	.L21
 237              	.LVL28:
 238              		.loc 1 59 0
 239 002e 3344     		add	r3, r3, r6
 240              	.LVL29:
 241 0030 03F8107C 		strb	r7, [r3, #-16]
 242              	.L22:
 243              	.LVL30:
 244              		.loc 1 52 0
 245 0034 070A     		lsrs	r7, r0, #8
 246 0036 FEB2     		uxtb	r6, r7
 247 0038 DB2E     		cmp	r6, #219
 248 003a 01F10103 		add	r3, r1, #1
 249 003e 3CD0     		beq	.L23
 250              	.L35:
 251              		.loc 1 55 0
 252 0040 C02E     		cmp	r6, #192
 253              		.loc 1 57 0
 254 0042 04AE     		add	r6, sp, #16
 255              		.loc 1 55 0
 256 0044 73D0     		beq	.L24
 257              	.LVL31:
 258              		.loc 1 59 0
 259 0046 3144     		add	r1, r1, r6
 260              	.LVL32:
 261 0048 01F8107C 		strb	r7, [r1, #-16]
 262              	.L25:
 263              	.LVL33:
 264              		.loc 1 52 0
 265 004c C1B2     		uxtb	r1, r0
 266 004e DB29     		cmp	r1, #219
 267 0050 03F10106 		add	r6, r3, #1
 268 0054 41D0     		beq	.L31
 269              	.L26:
 270              		.loc 1 55 0
 271 0056 C029     		cmp	r1, #192
 272              		.loc 1 57 0
 273 0058 04A9     		add	r1, sp, #16
 274              		.loc 1 55 0
 275 005a 5CD0     		beq	.L32
 276              	.LVL34:
 277              		.loc 1 59 0
 278 005c 0B44     		add	r3, r3, r1
 279              	.LVL35:
 280 005e 03F8100C 		strb	r0, [r3, #-16]
 281              	.LVL36:
 282              	.L27:
 283              		.loc 1 62 0 discriminator 2
 284 0062 04AB     		add	r3, sp, #16
 285 0064 3344     		add	r3, r3, r6
ARM GAS  C:\Users\mathi\AppData\Local\Temp\cct6Ydad.s 			page 6


 286              		.loc 1 63 0 discriminator 2
 287 0066 1046     		mov	r0, r2
 288 0068 6946     		mov	r1, sp
 289 006a 721C     		adds	r2, r6, #1
 290              	.LVL37:
 291              		.loc 1 62 0 discriminator 2
 292 006c C026     		movs	r6, #192
 293 006e 03F8106C 		strb	r6, [r3, #-16]
 294              		.loc 1 63 0 discriminator 2
 295 0072 A847     		blx	r5
 296              	.LVL38:
 297              		.loc 1 64 0 discriminator 2
 298 0074 039A     		ldr	r2, [sp, #12]
 299 0076 2368     		ldr	r3, [r4]
 300 0078 9A42     		cmp	r2, r3
 301 007a 65D1     		bne	.L33
 302              		.loc 1 64 0 is_stmt 0
 303 007c 05B0     		add	sp, sp, #20
 304              		.cfi_remember_state
 305              		.cfi_def_cfa_offset 20
 306              		@ sp needed
 307 007e F0BD     		pop	{r4, r5, r6, r7, pc}
 308              	.LVL39:
 309              	.L18:
 310              		.cfi_restore_state
 311              		.loc 1 52 0 is_stmt 1
 312 0080 070C     		lsrs	r7, r0, #16
 313              		.loc 1 56 0
 314 0082 4DF6DB43 		movw	r3, #56539
 315              		.loc 1 52 0
 316 0086 FEB2     		uxtb	r6, r7
 317              		.loc 1 56 0
 318 0088 ADF80030 		strh	r3, [sp]	@ movhi
 319              		.loc 1 52 0
 320 008c DB2E     		cmp	r6, #219
 321              		.loc 1 57 0
 322 008e 4FF00203 		mov	r3, #2
 323              	.LVL40:
 324 0092 03F10101 		add	r1, r3, #1
 325              	.LVL41:
 326              		.loc 1 52 0
 327 0096 C7D1     		bne	.L34
 328              	.L20:
 329              	.LVL42:
 330              		.loc 1 54 0
 331 0098 04AF     		add	r7, sp, #16
 332 009a 0F44     		add	r7, r7, r1
 333              		.loc 1 53 0
 334 009c 04A9     		add	r1, sp, #16
 335 009e 1944     		add	r1, r1, r3
 336              		.loc 1 54 0
 337 00a0 4FF0DD0C 		mov	ip, #221
 338              		.loc 1 53 0
 339 00a4 01F8106C 		strb	r6, [r1, #-16]
 340              		.loc 1 54 0
 341 00a8 07F810CC 		strb	ip, [r7, #-16]
 342              	.LVL43:
ARM GAS  C:\Users\mathi\AppData\Local\Temp\cct6Ydad.s 			page 7


 343              		.loc 1 52 0
 344 00ac 070A     		lsrs	r7, r0, #8
 345 00ae FEB2     		uxtb	r6, r7
 346              		.loc 1 54 0
 347 00b0 991C     		adds	r1, r3, #2
 348              	.LVL44:
 349              		.loc 1 52 0
 350 00b2 DB2E     		cmp	r6, #219
 351 00b4 01F10103 		add	r3, r1, #1
 352 00b8 C2D1     		bne	.L35
 353              	.L23:
 354              	.LVL45:
 355              		.loc 1 54 0
 356 00ba 04AF     		add	r7, sp, #16
 357 00bc 1F44     		add	r7, r7, r3
 358              		.loc 1 53 0
 359 00be 04AB     		add	r3, sp, #16
 360 00c0 0B44     		add	r3, r3, r1
 361              		.loc 1 54 0
 362 00c2 4FF0DD0C 		mov	ip, #221
 363              		.loc 1 53 0
 364 00c6 03F8106C 		strb	r6, [r3, #-16]
 365              		.loc 1 54 0
 366 00ca 8B1C     		adds	r3, r1, #2
 367              	.LVL46:
 368              		.loc 1 52 0
 369 00cc C1B2     		uxtb	r1, r0
 370 00ce DB29     		cmp	r1, #219
 371              		.loc 1 54 0
 372 00d0 07F810CC 		strb	ip, [r7, #-16]
 373              	.LVL47:
 374 00d4 03F10106 		add	r6, r3, #1
 375              		.loc 1 52 0
 376 00d8 BDD1     		bne	.L26
 377              	.L31:
 378              	.LVL48:
 379              		.loc 1 54 0
 380 00da 04A8     		add	r0, sp, #16
 381              	.LVL49:
 382 00dc 3044     		add	r0, r0, r6
 383              		.loc 1 53 0
 384 00de 04AE     		add	r6, sp, #16
 385 00e0 1E44     		add	r6, r6, r3
 386              		.loc 1 54 0
 387 00e2 DD27     		movs	r7, #221
 388              		.loc 1 53 0
 389 00e4 06F8101C 		strb	r1, [r6, #-16]
 390              		.loc 1 54 0
 391 00e8 9E1C     		adds	r6, r3, #2
 392              	.LVL50:
 393 00ea 00F8107C 		strb	r7, [r0, #-16]
 394 00ee B8E7     		b	.L27
 395              	.LVL51:
 396              	.L17:
 397              		.loc 1 53 0
 398 00f0 4DF6DB53 		movw	r3, #56795
 399 00f4 ADF80030 		strh	r3, [sp]	@ movhi
ARM GAS  C:\Users\mathi\AppData\Local\Temp\cct6Ydad.s 			page 8


 400              		.loc 1 54 0
 401 00f8 0223     		movs	r3, #2
 402 00fa 8FE7     		b	.L19
 403              	.LVL52:
 404              	.L21:
 405              		.loc 1 57 0
 406 00fc 0E44     		add	r6, r6, r1
 407              		.loc 1 56 0
 408 00fe 04A9     		add	r1, sp, #16
 409 0100 01EB030C 		add	ip, r1, r3
 410 0104 4FF0DB0E 		mov	lr, #219
 411              		.loc 1 57 0
 412 0108 DC27     		movs	r7, #220
 413              		.loc 1 56 0
 414 010a 0CF810EC 		strb	lr, [ip, #-16]
 415              		.loc 1 57 0
 416 010e 991C     		adds	r1, r3, #2
 417              	.LVL53:
 418 0110 06F8107C 		strb	r7, [r6, #-16]
 419 0114 8EE7     		b	.L22
 420              	.LVL54:
 421              	.L32:
 422              		.loc 1 56 0
 423 0116 04A8     		add	r0, sp, #16
 424              	.LVL55:
 425              		.loc 1 57 0
 426 0118 3144     		add	r1, r1, r6
 427              		.loc 1 56 0
 428 011a C718     		adds	r7, r0, r3
 429 011c 4FF0DB0C 		mov	ip, #219
 430              		.loc 1 57 0
 431 0120 DC20     		movs	r0, #220
 432              		.loc 1 56 0
 433 0122 07F810CC 		strb	ip, [r7, #-16]
 434              		.loc 1 57 0
 435 0126 9E1C     		adds	r6, r3, #2
 436              	.LVL56:
 437 0128 01F8100C 		strb	r0, [r1, #-16]
 438 012c 99E7     		b	.L27
 439              	.LVL57:
 440              	.L24:
 441 012e 1E44     		add	r6, r6, r3
 442              		.loc 1 56 0
 443 0130 04AB     		add	r3, sp, #16
 444 0132 03EB010C 		add	ip, r3, r1
 445 0136 4FF0DB0E 		mov	lr, #219
 446              		.loc 1 57 0
 447 013a DC27     		movs	r7, #220
 448              		.loc 1 56 0
 449 013c 0CF810EC 		strb	lr, [ip, #-16]
 450              		.loc 1 57 0
 451 0140 8B1C     		adds	r3, r1, #2
 452              	.LVL58:
 453 0142 06F8107C 		strb	r7, [r6, #-16]
 454 0146 81E7     		b	.L25
 455              	.LVL59:
 456              	.L33:
ARM GAS  C:\Users\mathi\AppData\Local\Temp\cct6Ydad.s 			page 9


 457              		.loc 1 64 0
 458 0148 FFF7FEFF 		bl	__stack_chk_fail
 459              	.LVL60:
 460              	.L37:
 461              		.align	2
 462              	.L36:
 463 014c 00000000 		.word	__stack_chk_guard
 464              		.cfi_endproc
 465              	.LFE2:
 466              		.size	serial_datagram_send_end, .-serial_datagram_send_end
 467              		.section	.text.serial_datagram_send,"ax",%progbits
 468              		.align	1
 469              		.p2align 4,,15
 470              		.global	serial_datagram_send
 471              		.syntax unified
 472              		.thumb
 473              		.thumb_func
 474              		.fpu fpv4-sp-d16
 475              		.type	serial_datagram_send, %function
 476              	serial_datagram_send:
 477              	.LFB3:
 478              		.loc 1 68 0
 479              		.cfi_startproc
 480              		@ args = 0, pretend = 0, frame = 24
 481              		@ frame_needed = 0, uses_anonymous_args = 0
 482              	.LVL61:
 483 0000 F0B5     		push	{r4, r5, r6, r7, lr}
 484              		.cfi_def_cfa_offset 20
 485              		.cfi_offset 4, -20
 486              		.cfi_offset 5, -16
 487              		.cfi_offset 6, -12
 488              		.cfi_offset 7, -8
 489              		.cfi_offset 14, -4
 490 0002 89B0     		sub	sp, sp, #36
 491              		.cfi_def_cfa_offset 56
 492              		.loc 1 69 0
 493 0004 08AF     		add	r7, sp, #32
 494 0006 0024     		movs	r4, #0
 495 0008 47F8144D 		str	r4, [r7, #-20]!
 496              		.loc 1 68 0
 497 000c 554C     		ldr	r4, .L58
 498              		.loc 1 70 0
 499 000e 0093     		str	r3, [sp]
 500              		.loc 1 68 0
 501 0010 1546     		mov	r5, r2
 502 0012 1E46     		mov	r6, r3
 503 0014 2368     		ldr	r3, [r4]
 504              	.LVL62:
 505 0016 0793     		str	r3, [sp, #28]
 506              		.loc 1 70 0
 507 0018 3A46     		mov	r2, r7
 508              	.LVL63:
 509 001a 2B46     		mov	r3, r5
 510 001c FFF7FEFF 		bl	serial_datagram_send_chunk
 511              	.LVL64:
 512              		.loc 1 71 0
 513 0020 0399     		ldr	r1, [sp, #12]
ARM GAS  C:\Users\mathi\AppData\Local\Temp\cct6Ydad.s 			page 10


 514              	.LVL65:
 515              	.LBB14:
 516              	.LBB15:
 517              		.loc 1 52 0
 518 0022 0B0E     		lsrs	r3, r1, #24
 519 0024 DB2B     		cmp	r3, #219
 520 0026 6ED0     		beq	.L39
 521              		.loc 1 55 0
 522 0028 C02B     		cmp	r3, #192
 523 002a 34D0     		beq	.L40
 524              	.LVL66:
 525              		.loc 1 59 0
 526 002c 8DF81030 		strb	r3, [sp, #16]
 527 0030 0123     		movs	r3, #1
 528              	.LVL67:
 529              	.L41:
 530              		.loc 1 52 0
 531 0032 0F0C     		lsrs	r7, r1, #16
 532 0034 F8B2     		uxtb	r0, r7
 533 0036 DB28     		cmp	r0, #219
 534 0038 03F10102 		add	r2, r3, #1
 535 003c 37D0     		beq	.L42
 536              	.L56:
 537              		.loc 1 55 0
 538 003e C028     		cmp	r0, #192
 539              		.loc 1 57 0
 540 0040 08A8     		add	r0, sp, #32
 541              		.loc 1 55 0
 542 0042 66D0     		beq	.L43
 543              	.LVL68:
 544              		.loc 1 59 0
 545 0044 0344     		add	r3, r3, r0
 546              	.LVL69:
 547 0046 03F8107C 		strb	r7, [r3, #-16]
 548              	.L44:
 549              	.LVL70:
 550              		.loc 1 52 0
 551 004a 0F0A     		lsrs	r7, r1, #8
 552 004c F8B2     		uxtb	r0, r7
 553 004e DB28     		cmp	r0, #219
 554 0050 02F10103 		add	r3, r2, #1
 555 0054 3CD0     		beq	.L45
 556              	.L57:
 557              		.loc 1 55 0
 558 0056 C028     		cmp	r0, #192
 559              		.loc 1 57 0
 560 0058 08A8     		add	r0, sp, #32
 561              		.loc 1 55 0
 562 005a 74D0     		beq	.L46
 563              	.LVL71:
 564              		.loc 1 59 0
 565 005c 0244     		add	r2, r2, r0
 566              	.LVL72:
 567 005e 02F8107C 		strb	r7, [r2, #-16]
 568              	.L47:
 569              	.LVL73:
 570              		.loc 1 52 0
ARM GAS  C:\Users\mathi\AppData\Local\Temp\cct6Ydad.s 			page 11


 571 0062 C8B2     		uxtb	r0, r1
 572 0064 DB28     		cmp	r0, #219
 573 0066 03F10102 		add	r2, r3, #1
 574 006a 41D0     		beq	.L53
 575              	.L48:
 576              		.loc 1 55 0
 577 006c C028     		cmp	r0, #192
 578 006e 5DD0     		beq	.L54
 579              	.LVL74:
 580              		.loc 1 59 0
 581 0070 08A8     		add	r0, sp, #32
 582 0072 0344     		add	r3, r3, r0
 583              	.LVL75:
 584 0074 03F8101C 		strb	r1, [r3, #-16]
 585              	.LVL76:
 586              	.L49:
 587              		.loc 1 62 0
 588 0078 08AB     		add	r3, sp, #32
 589 007a 1344     		add	r3, r3, r2
 590              		.loc 1 63 0
 591 007c 3046     		mov	r0, r6
 592 007e 0132     		adds	r2, r2, #1
 593              	.LVL77:
 594              		.loc 1 62 0
 595 0080 C026     		movs	r6, #192
 596              	.LVL78:
 597              		.loc 1 63 0
 598 0082 04A9     		add	r1, sp, #16
 599              		.loc 1 62 0
 600 0084 03F8106C 		strb	r6, [r3, #-16]
 601              		.loc 1 63 0
 602 0088 A847     		blx	r5
 603              	.LVL79:
 604              	.LBE15:
 605              	.LBE14:
 606              		.loc 1 72 0
 607 008a 079A     		ldr	r2, [sp, #28]
 608 008c 2368     		ldr	r3, [r4]
 609 008e 9A42     		cmp	r2, r3
 610 0090 66D1     		bne	.L55
 611 0092 09B0     		add	sp, sp, #36
 612              		.cfi_remember_state
 613              		.cfi_def_cfa_offset 20
 614              		@ sp needed
 615 0094 F0BD     		pop	{r4, r5, r6, r7, pc}
 616              	.LVL80:
 617              	.L40:
 618              		.cfi_restore_state
 619              	.LBB17:
 620              	.LBB16:
 621              		.loc 1 52 0
 622 0096 0F0C     		lsrs	r7, r1, #16
 623              		.loc 1 56 0
 624 0098 4DF6DB43 		movw	r3, #56539
 625              		.loc 1 52 0
 626 009c F8B2     		uxtb	r0, r7
 627              		.loc 1 56 0
ARM GAS  C:\Users\mathi\AppData\Local\Temp\cct6Ydad.s 			page 12


 628 009e ADF81030 		strh	r3, [sp, #16]	@ movhi
 629              		.loc 1 52 0
 630 00a2 DB28     		cmp	r0, #219
 631              		.loc 1 57 0
 632 00a4 4FF00203 		mov	r3, #2
 633              	.LVL81:
 634 00a8 03F10102 		add	r2, r3, #1
 635              		.loc 1 52 0
 636 00ac C7D1     		bne	.L56
 637              	.L42:
 638              	.LVL82:
 639              		.loc 1 54 0
 640 00ae 08AF     		add	r7, sp, #32
 641 00b0 1744     		add	r7, r7, r2
 642              		.loc 1 53 0
 643 00b2 08AA     		add	r2, sp, #32
 644 00b4 1A44     		add	r2, r2, r3
 645              		.loc 1 54 0
 646 00b6 4FF0DD0C 		mov	ip, #221
 647              		.loc 1 53 0
 648 00ba 02F8100C 		strb	r0, [r2, #-16]
 649              		.loc 1 54 0
 650 00be 07F810CC 		strb	ip, [r7, #-16]
 651              	.LVL83:
 652              		.loc 1 52 0
 653 00c2 0F0A     		lsrs	r7, r1, #8
 654 00c4 F8B2     		uxtb	r0, r7
 655              		.loc 1 54 0
 656 00c6 9A1C     		adds	r2, r3, #2
 657              	.LVL84:
 658              		.loc 1 52 0
 659 00c8 DB28     		cmp	r0, #219
 660 00ca 02F10103 		add	r3, r2, #1
 661 00ce C2D1     		bne	.L57
 662              	.L45:
 663              	.LVL85:
 664              		.loc 1 54 0
 665 00d0 08AF     		add	r7, sp, #32
 666 00d2 1F44     		add	r7, r7, r3
 667              		.loc 1 53 0
 668 00d4 08AB     		add	r3, sp, #32
 669 00d6 1344     		add	r3, r3, r2
 670              		.loc 1 54 0
 671 00d8 4FF0DD0C 		mov	ip, #221
 672              		.loc 1 53 0
 673 00dc 03F8100C 		strb	r0, [r3, #-16]
 674              		.loc 1 52 0
 675 00e0 C8B2     		uxtb	r0, r1
 676              		.loc 1 54 0
 677 00e2 931C     		adds	r3, r2, #2
 678              	.LVL86:
 679              		.loc 1 52 0
 680 00e4 DB28     		cmp	r0, #219
 681              		.loc 1 54 0
 682 00e6 07F810CC 		strb	ip, [r7, #-16]
 683              	.LVL87:
 684 00ea 03F10102 		add	r2, r3, #1
ARM GAS  C:\Users\mathi\AppData\Local\Temp\cct6Ydad.s 			page 13


 685              		.loc 1 52 0
 686 00ee BDD1     		bne	.L48
 687              	.L53:
 688              	.LVL88:
 689              		.loc 1 54 0
 690 00f0 08A9     		add	r1, sp, #32
 691              	.LVL89:
 692 00f2 1144     		add	r1, r1, r2
 693              		.loc 1 53 0
 694 00f4 08AA     		add	r2, sp, #32
 695 00f6 1A44     		add	r2, r2, r3
 696              		.loc 1 54 0
 697 00f8 DD27     		movs	r7, #221
 698              		.loc 1 53 0
 699 00fa 02F8100C 		strb	r0, [r2, #-16]
 700              		.loc 1 54 0
 701 00fe 9A1C     		adds	r2, r3, #2
 702              	.LVL90:
 703 0100 01F8107C 		strb	r7, [r1, #-16]
 704 0104 B8E7     		b	.L49
 705              	.LVL91:
 706              	.L39:
 707              		.loc 1 53 0
 708 0106 4DF6DB53 		movw	r3, #56795
 709 010a ADF81030 		strh	r3, [sp, #16]	@ movhi
 710              		.loc 1 54 0
 711 010e 0223     		movs	r3, #2
 712 0110 8FE7     		b	.L41
 713              	.LVL92:
 714              	.L43:
 715              		.loc 1 57 0
 716 0112 1044     		add	r0, r0, r2
 717              		.loc 1 56 0
 718 0114 08AA     		add	r2, sp, #32
 719 0116 02EB030C 		add	ip, r2, r3
 720 011a 4FF0DB0E 		mov	lr, #219
 721              		.loc 1 57 0
 722 011e DC27     		movs	r7, #220
 723              		.loc 1 56 0
 724 0120 0CF810EC 		strb	lr, [ip, #-16]
 725              		.loc 1 57 0
 726 0124 9A1C     		adds	r2, r3, #2
 727              	.LVL93:
 728 0126 00F8107C 		strb	r7, [r0, #-16]
 729 012a 8EE7     		b	.L44
 730              	.LVL94:
 731              	.L54:
 732 012c 08A9     		add	r1, sp, #32
 733              	.LVL95:
 734 012e 1144     		add	r1, r1, r2
 735              		.loc 1 56 0
 736 0130 08AA     		add	r2, sp, #32
 737 0132 D718     		adds	r7, r2, r3
 738 0134 4FF0DB0C 		mov	ip, #219
 739              		.loc 1 57 0
 740 0138 DC20     		movs	r0, #220
 741              		.loc 1 56 0
ARM GAS  C:\Users\mathi\AppData\Local\Temp\cct6Ydad.s 			page 14


 742 013a 07F810CC 		strb	ip, [r7, #-16]
 743              		.loc 1 57 0
 744 013e 9A1C     		adds	r2, r3, #2
 745              	.LVL96:
 746 0140 01F8100C 		strb	r0, [r1, #-16]
 747 0144 98E7     		b	.L49
 748              	.LVL97:
 749              	.L46:
 750 0146 1844     		add	r0, r0, r3
 751              		.loc 1 56 0
 752 0148 08AB     		add	r3, sp, #32
 753 014a 03EB020C 		add	ip, r3, r2
 754 014e 4FF0DB0E 		mov	lr, #219
 755              		.loc 1 57 0
 756 0152 DC27     		movs	r7, #220
 757              		.loc 1 56 0
 758 0154 0CF810EC 		strb	lr, [ip, #-16]
 759              		.loc 1 57 0
 760 0158 931C     		adds	r3, r2, #2
 761              	.LVL98:
 762 015a 00F8107C 		strb	r7, [r0, #-16]
 763 015e 80E7     		b	.L47
 764              	.LVL99:
 765              	.L55:
 766              	.LBE16:
 767              	.LBE17:
 768              		.loc 1 72 0
 769 0160 FFF7FEFF 		bl	__stack_chk_fail
 770              	.LVL100:
 771              	.L59:
 772              		.align	2
 773              	.L58:
 774 0164 00000000 		.word	__stack_chk_guard
 775              		.cfi_endproc
 776              	.LFE3:
 777              		.size	serial_datagram_send, .-serial_datagram_send
 778              		.section	.text.serial_datagram_rcv_handler_init,"ax",%progbits
 779              		.align	1
 780              		.p2align 4,,15
 781              		.global	serial_datagram_rcv_handler_init
 782              		.syntax unified
 783              		.thumb
 784              		.thumb_func
 785              		.fpu fpv4-sp-d16
 786              		.type	serial_datagram_rcv_handler_init, %function
 787              	serial_datagram_rcv_handler_init:
 788              	.LFB5:
 789              		.loc 1 83 0
 790              		.cfi_startproc
 791              		@ args = 4, pretend = 0, frame = 8
 792              		@ frame_needed = 0, uses_anonymous_args = 0
 793              	.LVL101:
 794 0000 70B5     		push	{r4, r5, r6, lr}
 795              		.cfi_def_cfa_offset 16
 796              		.cfi_offset 4, -16
 797              		.cfi_offset 5, -12
 798              		.cfi_offset 6, -8
ARM GAS  C:\Users\mathi\AppData\Local\Temp\cct6Ydad.s 			page 15


 799              		.cfi_offset 14, -4
 800 0002 0A4C     		ldr	r4, .L64
 801              		.loc 1 85 0
 802 0004 4260     		str	r2, [r0, #4]
 803              		.loc 1 83 0
 804 0006 82B0     		sub	sp, sp, #8
 805              		.cfi_def_cfa_offset 24
 806              		.loc 1 83 0
 807 0008 2668     		ldr	r6, [r4]
 808 000a 0196     		str	r6, [sp, #4]
 809              		.loc 1 84 0
 810 000c 0160     		str	r1, [r0]
 811              		.loc 1 89 0
 812 000e 019E     		ldr	r6, [sp, #4]
 813 0010 2168     		ldr	r1, [r4]
 814              	.LVL102:
 815              		.loc 1 83 0
 816 0012 069D     		ldr	r5, [sp, #24]
 817              	.LBB18:
 818              	.LBB19:
 819              		.loc 1 76 0
 820 0014 0022     		movs	r2, #0
 821              	.LVL103:
 822              	.LBE19:
 823              	.LBE18:
 824              		.loc 1 89 0
 825 0016 8E42     		cmp	r6, r1
 826              		.loc 1 87 0
 827 0018 C0E90335 		strd	r3, r5, [r0, #12]
 828              	.LVL104:
 829              	.LBB21:
 830              	.LBB20:
 831              		.loc 1 76 0
 832 001c 8260     		str	r2, [r0, #8]
 833              		.loc 1 77 0
 834 001e 0275     		strb	r2, [r0, #20]
 835              		.loc 1 78 0
 836 0020 4275     		strb	r2, [r0, #21]
 837              	.LVL105:
 838              	.LBE20:
 839              	.LBE21:
 840              		.loc 1 89 0
 841 0022 01D1     		bne	.L63
 842 0024 02B0     		add	sp, sp, #8
 843              		.cfi_remember_state
 844              		.cfi_def_cfa_offset 16
 845              		@ sp needed
 846 0026 70BD     		pop	{r4, r5, r6, pc}
 847              	.LVL106:
 848              	.L63:
 849              		.cfi_restore_state
 850 0028 FFF7FEFF 		bl	__stack_chk_fail
 851              	.LVL107:
 852              	.L65:
 853              		.align	2
 854              	.L64:
 855 002c 00000000 		.word	__stack_chk_guard
ARM GAS  C:\Users\mathi\AppData\Local\Temp\cct6Ydad.s 			page 16


 856              		.cfi_endproc
 857              	.LFE5:
 858              		.size	serial_datagram_rcv_handler_init, .-serial_datagram_rcv_handler_init
 859              		.section	.text.serial_datagram_receive,"ax",%progbits
 860              		.align	1
 861              		.p2align 4,,15
 862              		.global	serial_datagram_receive
 863              		.syntax unified
 864              		.thumb
 865              		.thumb_func
 866              		.fpu fpv4-sp-d16
 867              		.type	serial_datagram_receive, %function
 868              	serial_datagram_receive:
 869              	.LFB6:
 870              		.loc 1 93 0
 871              		.cfi_startproc
 872              		@ args = 0, pretend = 0, frame = 8
 873              		@ frame_needed = 0, uses_anonymous_args = 0
 874              	.LVL108:
 875 0000 2DE9F04F 		push	{r4, r5, r6, r7, r8, r9, r10, fp, lr}
 876              		.cfi_def_cfa_offset 36
 877              		.cfi_offset 4, -36
 878              		.cfi_offset 5, -32
 879              		.cfi_offset 6, -28
 880              		.cfi_offset 7, -24
 881              		.cfi_offset 8, -20
 882              		.cfi_offset 9, -16
 883              		.cfi_offset 10, -12
 884              		.cfi_offset 11, -8
 885              		.cfi_offset 14, -4
 886 0004 DFF81891 		ldr	r9, .L93
 887 0008 83B0     		sub	sp, sp, #12
 888              		.cfi_def_cfa_offset 48
 889              		.loc 1 93 0
 890 000a D9F80030 		ldr	r3, [r9]
 891 000e 0193     		str	r3, [sp, #4]
 892              	.LVL109:
 893              		.loc 1 96 0
 894 0010 002A     		cmp	r2, #0
 895 0012 72D0     		beq	.L80
 896 0014 561E     		subs	r6, r2, #1
 897              	.LVL110:
 898              		.loc 1 95 0
 899 0016 0027     		movs	r7, #0
 900 0018 0446     		mov	r4, r0
 901 001a 0E44     		add	r6, r6, r1
 902              	.LVL111:
 903 001c 4D1E     		subs	r5, r1, #1
 904              		.loc 1 131 0
 905 001e B846     		mov	r8, r7
 906              		.loc 1 133 0
 907 0020 4FF0010A 		mov	r10, #1
 908 0024 03E0     		b	.L78
 909              	.LVL112:
 910              	.L85:
 911              		.loc 1 98 0
 912 0026 C02B     		cmp	r3, #192
ARM GAS  C:\Users\mathi\AppData\Local\Temp\cct6Ydad.s 			page 17


 913 0028 40D0     		beq	.L71
 914              	.L69:
 915              	.LVL113:
 916              		.loc 1 96 0
 917 002a B542     		cmp	r5, r6
 918 002c 18D0     		beq	.L66
 919              	.LVL114:
 920              	.L78:
 921              		.loc 1 97 0
 922 002e 207D     		ldrb	r0, [r4, #20]	@ zero_extendqisi2
 923 0030 15F8013F 		ldrb	r3, [r5, #1]!	@ zero_extendqisi2
 924              	.LVL115:
 925 0034 0028     		cmp	r0, #0
 926 0036 F6D1     		bne	.L85
 927              		.loc 1 101 0
 928 0038 C02B     		cmp	r3, #192
 929 003a A168     		ldr	r1, [r4, #8]
 930 003c 3DD0     		beq	.L86
 931              		.loc 1 119 0
 932 003e 6268     		ldr	r2, [r4, #4]
 933 0040 8A42     		cmp	r2, r1
 934 0042 45D0     		beq	.L87
 935              		.loc 1 122 0
 936 0044 627D     		ldrb	r2, [r4, #21]	@ zero_extendqisi2
 937 0046 002A     		cmp	r2, #0
 938 0048 46D0     		beq	.L73
 939              		.loc 1 123 0
 940 004a DD2B     		cmp	r3, #221
 941 004c 4FD0     		beq	.L88
 942              		.loc 1 125 0
 943 004e DC2B     		cmp	r3, #220
 944 0050 55D0     		beq	.L89
 945              	.LVL116:
 946              		.loc 1 129 0
 947 0052 84F814A0 		strb	r10, [r4, #20]
 948              		.loc 1 128 0
 949 0056 0327     		movs	r7, #3
 950              	.LVL117:
 951              	.L75:
 952              		.loc 1 96 0
 953 0058 B542     		cmp	r5, r6
 954              		.loc 1 131 0
 955 005a 84F81580 		strb	r8, [r4, #21]
 956              	.LVL118:
 957              		.loc 1 96 0
 958 005e E6D1     		bne	.L78
 959              	.LVL119:
 960              	.L66:
 961              		.loc 1 140 0
 962 0060 019A     		ldr	r2, [sp, #4]
 963 0062 D9F80030 		ldr	r3, [r9]
 964 0066 9A42     		cmp	r2, r3
 965 0068 3846     		mov	r0, r7
 966 006a 56D1     		bne	.L90
 967 006c 03B0     		add	sp, sp, #12
 968              		.cfi_remember_state
 969              		.cfi_def_cfa_offset 36
ARM GAS  C:\Users\mathi\AppData\Local\Temp\cct6Ydad.s 			page 18


 970              		@ sp needed
 971 006e BDE8F08F 		pop	{r4, r5, r6, r7, r8, r9, r10, fp, pc}
 972              	.LVL120:
 973              	.L91:
 974              		.cfi_restore_state
 975              	.LBB22:
 976              	.LBB23:
 977              	.LBB24:
 978              	.LBB25:
 979              		.loc 1 14 0
 980 0072 5A46     		mov	r2, fp
 981 0074 2168     		ldr	r1, [r4]
 982 0076 FFF7FEFF 		bl	crc32
 983              	.LVL121:
 984              	.LBE25:
 985              	.LBE24:
 986              		.loc 1 106 0
 987 007a 2268     		ldr	r2, [r4]
 988 007c A168     		ldr	r1, [r4, #8]
 989              	.LVL122:
 990 007e 1144     		add	r1, r1, r2
 991              	.LVL123:
 992              		.loc 1 107 0
 993 0080 11F8033C 		ldrb	r3, [r1, #-3]	@ zero_extendqisi2
 994              		.loc 1 106 0
 995 0084 11F804EC 		ldrb	lr, [r1, #-4]	@ zero_extendqisi2
 996              		.loc 1 109 0
 997 0088 11F801CC 		ldrb	ip, [r1, #-1]	@ zero_extendqisi2
 998              		.loc 1 108 0
 999 008c 11F8021C 		ldrb	r1, [r1, #-2]	@ zero_extendqisi2
 1000              	.LVL124:
 1001              		.loc 1 107 0
 1002 0090 1B04     		lsls	r3, r3, #16
 1003              		.loc 1 106 0
 1004 0092 43EA0E63 		orr	r3, r3, lr, lsl #24
 1005              		.loc 1 105 0
 1006 0096 43EA0C03 		orr	r3, r3, ip
 1007 009a 43EA0123 		orr	r3, r3, r1, lsl #8
 1008              		.loc 1 110 0
 1009 009e 8342     		cmp	r3, r0
 1010 00a0 33D1     		bne	.L82
 1011              		.loc 1 113 0
 1012 00a2 1046     		mov	r0, r2
 1013 00a4 5946     		mov	r1, fp
 1014 00a6 D4E90332 		ldrd	r3, r2, [r4, #12]
 1015              	.LVL125:
 1016 00aa 9847     		blx	r3
 1017              	.LVL126:
 1018              	.L71:
 1019              	.LBE23:
 1020              	.LBB26:
 1021              	.LBB27:
 1022              		.loc 1 76 0
 1023 00ac C4F80880 		str	r8, [r4, #8]
 1024              		.loc 1 77 0
 1025 00b0 84F81480 		strb	r8, [r4, #20]
 1026              		.loc 1 78 0
ARM GAS  C:\Users\mathi\AppData\Local\Temp\cct6Ydad.s 			page 19


 1027 00b4 84F81580 		strb	r8, [r4, #21]
 1028 00b8 B7E7     		b	.L69
 1029              	.LVL127:
 1030              	.L86:
 1031              	.LBE27:
 1032              	.LBE26:
 1033              		.loc 1 103 0
 1034 00ba B1F1040B 		subs	fp, r1, #4
 1035              	.LVL128:
 1036 00be D8D5     		bpl	.L91
 1037              		.loc 1 116 0
 1038 00c0 0327     		movs	r7, #3
 1039              	.LVL129:
 1040              	.LBB30:
 1041              	.LBB28:
 1042              		.loc 1 76 0
 1043 00c2 C4F80880 		str	r8, [r4, #8]
 1044              		.loc 1 77 0
 1045 00c6 84F81480 		strb	r8, [r4, #20]
 1046              		.loc 1 78 0
 1047 00ca 84F81580 		strb	r8, [r4, #21]
 1048 00ce ACE7     		b	.L69
 1049              	.LVL130:
 1050              	.L87:
 1051              	.LBE28:
 1052              	.LBE30:
 1053              	.LBE22:
 1054              		.loc 1 120 0
 1055 00d0 84F814A0 		strb	r10, [r4, #20]
 1056              	.LVL131:
 1057              		.loc 1 121 0
 1058 00d4 0127     		movs	r7, #1
 1059 00d6 A8E7     		b	.L69
 1060              	.LVL132:
 1061              	.L73:
 1062              		.loc 1 132 0
 1063 00d8 DB2B     		cmp	r3, #219
 1064 00da 05D0     		beq	.L92
 1065              		.loc 1 135 0
 1066 00dc 4B1C     		adds	r3, r1, #1
 1067 00de A360     		str	r3, [r4, #8]
 1068 00e0 2368     		ldr	r3, [r4]
 1069 00e2 2A78     		ldrb	r2, [r5]	@ zero_extendqisi2
 1070 00e4 5A54     		strb	r2, [r3, r1]
 1071 00e6 A0E7     		b	.L69
 1072              	.L92:
 1073              		.loc 1 133 0
 1074 00e8 84F815A0 		strb	r10, [r4, #21]
 1075 00ec 9DE7     		b	.L69
 1076              	.L88:
 1077              		.loc 1 124 0
 1078 00ee 2368     		ldr	r3, [r4]
 1079 00f0 481C     		adds	r0, r1, #1
 1080 00f2 DB22     		movs	r2, #219
 1081 00f4 A060     		str	r0, [r4, #8]
 1082 00f6 5A54     		strb	r2, [r3, r1]
 1083 00f8 AEE7     		b	.L75
ARM GAS  C:\Users\mathi\AppData\Local\Temp\cct6Ydad.s 			page 20


 1084              	.LVL133:
 1085              	.L80:
 1086              		.loc 1 95 0
 1087 00fa 1746     		mov	r7, r2
 1088              		.loc 1 139 0
 1089 00fc B0E7     		b	.L66
 1090              	.LVL134:
 1091              	.L89:
 1092              		.loc 1 126 0
 1093 00fe 2368     		ldr	r3, [r4]
 1094 0100 481C     		adds	r0, r1, #1
 1095 0102 C022     		movs	r2, #192
 1096 0104 A060     		str	r0, [r4, #8]
 1097 0106 5A54     		strb	r2, [r3, r1]
 1098 0108 A6E7     		b	.L75
 1099              	.LVL135:
 1100              	.L82:
 1101              	.LBB33:
 1102              	.LBB31:
 1103              		.loc 1 111 0
 1104 010a 0227     		movs	r7, #2
 1105              	.LVL136:
 1106              	.LBE31:
 1107              	.LBB32:
 1108              	.LBB29:
 1109              		.loc 1 76 0
 1110 010c C4F80880 		str	r8, [r4, #8]
 1111              	.LVL137:
 1112              		.loc 1 77 0
 1113 0110 84F81480 		strb	r8, [r4, #20]
 1114              		.loc 1 78 0
 1115 0114 84F81580 		strb	r8, [r4, #21]
 1116 0118 87E7     		b	.L69
 1117              	.LVL138:
 1118              	.L90:
 1119              	.LBE29:
 1120              	.LBE32:
 1121              	.LBE33:
 1122              		.loc 1 140 0
 1123 011a FFF7FEFF 		bl	__stack_chk_fail
 1124              	.LVL139:
 1125              	.L94:
 1126 011e 00BF     		.align	2
 1127              	.L93:
 1128 0120 00000000 		.word	__stack_chk_guard
 1129              		.cfi_endproc
 1130              	.LFE6:
 1131              		.size	serial_datagram_receive, .-serial_datagram_receive
 1132              		.section	.rodata.esc_end,"a",%progbits
 1133              		.align	2
 1134              		.set	.LANCHOR0,. + 0
 1135              		.type	esc_end, %object
 1136              		.size	esc_end, 2
 1137              	esc_end:
 1138 0000 DB       		.byte	-37
 1139 0001 DC       		.byte	-36
 1140              		.section	.rodata.esc_esc,"a",%progbits
ARM GAS  C:\Users\mathi\AppData\Local\Temp\cct6Ydad.s 			page 21


 1141              		.align	2
 1142              		.set	.LANCHOR1,. + 0
 1143              		.type	esc_esc, %object
 1144              		.size	esc_esc, 2
 1145              	esc_esc:
 1146 0000 DB       		.byte	-37
 1147 0001 DD       		.byte	-35
 1148              		.text
 1149              	.Letext0:
 1150              		.file 2 "c:\\eclipse_e-puck2\\tools\\gcc-arm-none-eabi-7-2017-q4-major-win32\\arm-none-eabi\\inclu
 1151              		.file 3 "c:\\eclipse_e-puck2\\tools\\gcc-arm-none-eabi-7-2017-q4-major-win32\\arm-none-eabi\\inclu
 1152              		.file 4 "c:\\eclipse_e-puck2\\tools\\gcc-arm-none-eabi-7-2017-q4-major-win32\\lib\\gcc\\arm-none-e
 1153              		.file 5 "c:\\eclipse_e-puck2\\tools\\gcc-arm-none-eabi-7-2017-q4-major-win32\\arm-none-eabi\\inclu
 1154              		.file 6 "c:\\eclipse_e-puck2\\tools\\gcc-arm-none-eabi-7-2017-q4-major-win32\\arm-none-eabi\\inclu
 1155              		.file 7 "c:\\eclipse_e-puck2\\tools\\gcc-arm-none-eabi-7-2017-q4-major-win32\\arm-none-eabi\\inclu
 1156              		.file 8 "c:\\eclipse_e-puck2\\tools\\gcc-arm-none-eabi-7-2017-q4-major-win32\\arm-none-eabi\\inclu
 1157              		.file 9 "../../lib/e-puck2_main-processor/src/serial-datagram/serial_datagram.h"
 1158              		.file 10 "../../lib/e-puck2_main-processor/src/crc/crc32.h"