ARM GAS  C:\Users\mathi\AppData\Local\Temp\cc6PZgsO.s 			page 1


   1              		.cpu cortex-m4
   2              		.eabi_attribute 27, 1
   3              		.eabi_attribute 28, 1
   4              		.eabi_attribute 20, 1
   5              		.eabi_attribute 21, 1
   6              		.eabi_attribute 23, 3
   7              		.eabi_attribute 24, 1
   8              		.eabi_attribute 25, 1
   9              		.eabi_attribute 26, 1
  10              		.eabi_attribute 30, 2
  11              		.eabi_attribute 34, 1
  12              		.eabi_attribute 18, 4
  13              		.file	"serial_lld.c"
  14              		.text
  15              	.Ltext0:
  16              		.cfi_sections	.debug_frame
  17              		.section	.text.notify3,"ax",%progbits
  18              		.align	1
  19              		.p2align 4,,15
  20              		.syntax unified
  21              		.thumb
  22              		.thumb_func
  23              		.fpu fpv4-sp-d16
  24              		.type	notify3, %function
  25              	notify3:
  26              	.LFB260:
  27              		.file 1 "../../lib/e-puck2_main-processor/ChibiOS//os/hal/ports/STM32/LLD/USARTv1/serial_lld.c"
  28              		.loc 1 224 0
  29              		.cfi_startproc
  30              		@ args = 0, pretend = 0, frame = 8
  31              		@ frame_needed = 0, uses_anonymous_args = 0
  32              	.LVL0:
  33 0000 00B5     		push	{lr}
  34              		.cfi_def_cfa_offset 4
  35              		.cfi_offset 14, -4
  36 0002 094A     		ldr	r2, .L6
  37              		.loc 1 227 0
  38 0004 0949     		ldr	r1, .L6+4
  39              		.loc 1 224 0
  40 0006 1368     		ldr	r3, [r2]
  41 0008 83B0     		sub	sp, sp, #12
  42              		.cfi_def_cfa_offset 16
  43              		.loc 1 224 0
  44 000a 0193     		str	r3, [sp, #4]
  45              		.loc 1 227 0
  46 000c CB68     		ldr	r3, [r1, #12]
  47 000e 43F08003 		orr	r3, r3, #128
  48 0012 CB60     		str	r3, [r1, #12]
  49              		.loc 1 228 0
  50 0014 0199     		ldr	r1, [sp, #4]
  51 0016 1368     		ldr	r3, [r2]
  52 0018 9942     		cmp	r1, r3
  53 001a 02D1     		bne	.L5
  54 001c 03B0     		add	sp, sp, #12
  55              		.cfi_remember_state
  56              		.cfi_def_cfa_offset 4
  57              		@ sp needed
ARM GAS  C:\Users\mathi\AppData\Local\Temp\cc6PZgsO.s 			page 2


  58 001e 5DF804FB 		ldr	pc, [sp], #4
  59              	.L5:
  60              		.cfi_restore_state
  61 0022 FFF7FEFF 		bl	__stack_chk_fail
  62              	.LVL1:
  63              	.L7:
  64 0026 00BF     		.align	2
  65              	.L6:
  66 0028 00000000 		.word	__stack_chk_guard
  67 002c 00480040 		.word	1073760256
  68              		.cfi_endproc
  69              	.LFE260:
  70              		.size	notify3, .-notify3
  71              		.section	.text.VectorDC,"ax",%progbits
  72              		.align	1
  73              		.p2align 4,,15
  74              		.global	VectorDC
  75              		.syntax unified
  76              		.thumb
  77              		.thumb_func
  78              		.fpu fpv4-sp-d16
  79              		.type	VectorDC, %function
  80              	VectorDC:
  81              	.LFB261:
  82              		.loc 1 306 0
  83              		.cfi_startproc
  84              		@ args = 0, pretend = 0, frame = 16
  85              		@ frame_needed = 0, uses_anonymous_args = 0
  86 0000 2DE9F04F 		push	{r4, r5, r6, r7, r8, r9, r10, fp, lr}
  87              		.cfi_def_cfa_offset 36
  88              		.cfi_offset 4, -36
  89              		.cfi_offset 5, -32
  90              		.cfi_offset 6, -28
  91              		.cfi_offset 7, -24
  92              		.cfi_offset 8, -20
  93              		.cfi_offset 9, -16
  94              		.cfi_offset 10, -12
  95              		.cfi_offset 11, -8
  96              		.cfi_offset 14, -4
  97 0004 DFF8DC81 		ldr	r8, .L62+12
  98              	.LBB256:
  99              	.LBB257:
 100              		.loc 1 154 0
 101 0008 734F     		ldr	r7, .L62
 102              	.LBE257:
 103              	.LBE256:
 104              		.loc 1 306 0
 105 000a D8F80030 		ldr	r3, [r8]
 106 000e 85B0     		sub	sp, sp, #20
 107              		.cfi_def_cfa_offset 56
 108              		.loc 1 306 0
 109 0010 0393     		str	r3, [sp, #12]
 110              		.loc 1 308 0
 111 0012 FFF7FEFF 		bl	_stats_increase_irq
 112              	.LVL2:
 113 0016 FFF7FEFF 		bl	_dbg_check_enter_isr
 114              	.LVL3:
ARM GAS  C:\Users\mathi\AppData\Local\Temp\cc6PZgsO.s 			page 3


 115              	.LBB339:
 116              	.LBB337:
 117              		.loc 1 154 0
 118 001a 7D6F     		ldr	r5, [r7, #116]
 119              	.LVL4:
 120              		.loc 1 155 0
 121 001c EB68     		ldr	r3, [r5, #12]
 122 001e 0193     		str	r3, [sp, #4]
 123              	.LVL5:
 124              		.loc 1 156 0
 125 0020 2B68     		ldr	r3, [r5]
 126              		.loc 1 159 0
 127 0022 DA05     		lsls	r2, r3, #23
 128              		.loc 1 156 0
 129 0024 9CB2     		uxth	r4, r3
 130              	.LVL6:
 131              		.loc 1 159 0
 132 0026 00F19580 		bmi	.L54
 133              	.L9:
 134              	.LVL7:
 135              	.LBB258:
 136              	.LBB259:
 137              	.LBB260:
 138              	.LBB261:
 139              	.LBB262:
 140              	.LBB263:
 141              	.LBB264:
 142              		.file 2 "../../lib/e-puck2_main-processor/ChibiOS//os/ext/CMSIS/include/core_cmFunc.h"
 143              		.loc 2 546 0
 144 002a 2023     		movs	r3, #32
 145              		.syntax unified
 146              	@ 546 "../../lib/e-puck2_main-processor/ChibiOS//os/ext/CMSIS/include/core_cmFunc.h" 1
 147 002c 83F31188 		MSR basepri, r3
 148              	@ 0 "" 2
 149              	.LVL8:
 150              		.thumb
 151              		.syntax unified
 152              	.LBE264:
 153              	.LBE263:
 154              	.LBE262:
 155              	.LBE261:
 156              		.file 3 "../../lib/e-puck2_main-processor/ChibiOS//os/rt/include/chsys.h"
 157              		.loc 3 389 0
 158 0030 FFF7FEFF 		bl	_stats_start_measure_crit_isr
 159              	.LVL9:
 160              		.loc 3 390 0
 161 0034 FFF7FEFF 		bl	_dbg_check_lock_from_isr
 162              	.LVL10:
 163              	.LBE260:
 164              	.LBE259:
 165              	.LBE258:
 166              		.loc 1 168 0
 167 0038 14F02F0F 		tst	r4, #47
 168 003c 0CD0     		beq	.L11
 169              	.LBB265:
 170              	.LBB266:
 171              	.LBB267:
ARM GAS  C:\Users\mathi\AppData\Local\Temp\cc6PZgsO.s 			page 4


 172              	.LBB268:
 173              	.LBB269:
 174              		.file 4 "../../lib/e-puck2_main-processor/ChibiOS//os/hal/osal/rt/osal.h"
 175              		.loc 4 798 0
 176 003e 674E     		ldr	r6, .L62+4
 177              	.LBE269:
 178              	.LBE268:
 179              	.LBE267:
 180              	.LBE266:
 181              		.loc 1 177 0
 182 0040 A6F10409 		sub	r9, r6, #4
 183              	.L10:
 184              		.loc 1 173 0
 185 0044 2307     		lsls	r3, r4, #28
 186 0046 2ED1     		bne	.L55
 187              	.L12:
 188              		.loc 1 176 0
 189 0048 A406     		lsls	r4, r4, #26
 190              	.LVL11:
 191              		.loc 1 175 0
 192 004a 6968     		ldr	r1, [r5, #4]
 193              	.LVL12:
 194              		.loc 1 176 0
 195 004c 20D4     		bmi	.L56
 196              		.loc 1 178 0
 197 004e 2C68     		ldr	r4, [r5]
 198 0050 A4B2     		uxth	r4, r4
 199              	.LVL13:
 200              	.LBE265:
 201              		.loc 1 168 0
 202 0052 14F02F0F 		tst	r4, #47
 203 0056 F5D1     		bne	.L10
 204              	.LVL14:
 205              	.L11:
 206              	.LBB274:
 207              	.LBB275:
 208              	.LBB276:
 209              		.loc 3 408 0
 210 0058 FFF7FEFF 		bl	_dbg_check_unlock_from_isr
 211              	.LVL15:
 212              		.loc 3 409 0
 213 005c FFF7FEFF 		bl	_stats_stop_measure_crit_isr
 214              	.LVL16:
 215              	.LBB277:
 216              	.LBB278:
 217              	.LBB279:
 218              	.LBB280:
 219              		.loc 2 546 0
 220 0060 0023     		movs	r3, #0
 221              		.syntax unified
 222              	@ 546 "../../lib/e-puck2_main-processor/ChibiOS//os/ext/CMSIS/include/core_cmFunc.h" 1
 223 0062 83F31188 		MSR basepri, r3
 224              	@ 0 "" 2
 225              	.LVL17:
 226              		.thumb
 227              		.syntax unified
 228              	.LBE280:
ARM GAS  C:\Users\mathi\AppData\Local\Temp\cc6PZgsO.s 			page 5


 229              	.LBE279:
 230              	.LBE278:
 231              	.LBE277:
 232              	.LBE276:
 233              	.LBE275:
 234              	.LBE274:
 235              		.loc 1 183 0
 236 0066 019B     		ldr	r3, [sp, #4]
 237 0068 1906     		lsls	r1, r3, #24
 238 006a 02D5     		bpl	.L20
 239 006c 2206     		lsls	r2, r4, #24
 240 006e 00F18880 		bmi	.L57
 241              	.L20:
 242              		.loc 1 197 0
 243 0072 6306     		lsls	r3, r4, #25
 244 0074 50D4     		bmi	.L58
 245              	.L23:
 246              	.LVL18:
 247              	.LBE337:
 248              	.LBE339:
 249              		.loc 1 312 0
 250 0076 FFF7FEFF 		bl	_dbg_check_leave_isr
 251              	.LVL19:
 252 007a 039A     		ldr	r2, [sp, #12]
 253 007c D8F80030 		ldr	r3, [r8]
 254 0080 9A42     		cmp	r2, r3
 255 0082 40F0A780 		bne	.L59
 256              		.loc 1 313 0
 257 0086 05B0     		add	sp, sp, #20
 258              		.cfi_remember_state
 259              		.cfi_def_cfa_offset 36
 260              		@ sp needed
 261 0088 BDE8F04F 		pop	{r4, r5, r6, r7, r8, r9, r10, fp, lr}
 262              		.cfi_restore 14
 263              		.cfi_restore 11
 264              		.cfi_restore 10
 265              		.cfi_restore 9
 266              		.cfi_restore 8
 267              		.cfi_restore 7
 268              		.cfi_restore 6
 269              		.cfi_restore 5
 270              		.cfi_restore 4
 271              		.cfi_def_cfa_offset 0
 272              	.LVL20:
 273              		.loc 1 312 0
 274 008c FFF7FEBF 		b	_port_irq_epilogue
 275              	.LVL21:
 276              	.L56:
 277              		.cfi_restore_state
 278              	.LBB340:
 279              	.LBB338:
 280              	.LBB281:
 281              		.loc 1 177 0
 282 0090 C9B2     		uxtb	r1, r1
 283 0092 4846     		mov	r0, r9
 284 0094 FFF7FEFF 		bl	sdIncomingDataI
 285              	.LVL22:
ARM GAS  C:\Users\mathi\AppData\Local\Temp\cc6PZgsO.s 			page 6


 286              		.loc 1 178 0
 287 0098 2C68     		ldr	r4, [r5]
 288 009a A4B2     		uxth	r4, r4
 289              	.LVL23:
 290              	.LBE281:
 291              		.loc 1 168 0
 292 009c 14F02F0F 		tst	r4, #47
 293 00a0 DAD0     		beq	.L11
 294              	.LBB282:
 295              		.loc 1 173 0
 296 00a2 2307     		lsls	r3, r4, #28
 297 00a4 D0D0     		beq	.L12
 298              	.L55:
 299              	.LVL24:
 300              	.LBB273:
 301              	.LBB272:
 302              		.loc 1 137 0
 303 00a6 04F00803 		and	r3, r4, #8
 304 00aa 002B     		cmp	r3, #0
 305 00ac 15BF     		itete	ne
 306 00ae 4FF4C073 		movne	r3, #384
 307 00b2 4FF48073 		moveq	r3, #256
 308 00b6 4FF4E070 		movne	r0, #448
 309 00ba 4FF4A070 		moveq	r0, #320
 310 00be 15BF     		itete	ne
 311 00c0 C022     		movne	r2, #192
 312 00c2 4022     		moveq	r2, #64
 313 00c4 4FF4D07B 		movne	fp, #416
 314 00c8 4FF4907B 		moveq	fp, #288
 315 00cc 15BF     		itete	ne
 316 00ce 4FF4F07A 		movne	r10, #480
 317 00d2 4FF4B07A 		moveq	r10, #352
 318 00d6 4FF0E00E 		movne	lr, #224
 319 00da 4FF0600E 		moveq	lr, #96
 320 00de 15BF     		itete	ne
 321 00e0 4FF0A00C 		movne	ip, #160
 322 00e4 4FF0200C 		moveq	ip, #32
 323 00e8 8021     		movne	r1, #128
 324 00ea 0021     		moveq	r1, #0
 325              	.LVL25:
 326              		.loc 1 139 0
 327 00ec 14F0010F 		tst	r4, #1
 328 00f0 03D0     		beq	.L14
 329 00f2 5B46     		mov	r3, fp
 330 00f4 5046     		mov	r0, r10
 331 00f6 7246     		mov	r2, lr
 332              		.loc 1 140 0
 333 00f8 6146     		mov	r1, ip
 334              	.LVL26:
 335              	.L14:
 336              		.loc 1 141 0
 337 00fa 04F0020C 		and	ip, r4, #2
 338 00fe BCF1000F 		cmp	ip, #0
 339 0102 1CBF     		itt	ne
 340 0104 0346     		movne	r3, r0
 341 0106 1146     		movne	r1, r2
 342              	.LVL27:
ARM GAS  C:\Users\mathi\AppData\Local\Temp\cc6PZgsO.s 			page 7


 343              		.loc 1 144 0
 344 0108 14F0040F 		tst	r4, #4
 345              	.LVL28:
 346              	.LBB271:
 347              	.LBB270:
 348              		.loc 4 798 0
 349 010c 18BF     		it	ne
 350 010e 1946     		movne	r1, r3
 351              	.LVL29:
 352 0110 3046     		mov	r0, r6
 353 0112 FFF7FEFF 		bl	chEvtBroadcastFlagsI
 354              	.LVL30:
 355 0116 97E7     		b	.L12
 356              	.LVL31:
 357              	.L58:
 358              	.LBE270:
 359              	.LBE271:
 360              	.LBE272:
 361              	.LBE273:
 362              	.LBE282:
 363              	.LBB283:
 364              	.LBB284:
 365              	.LBB285:
 366              	.LBB286:
 367              	.LBB287:
 368              	.LBB288:
 369              	.LBB289:
 370              		.loc 2 546 0
 371 0118 2023     		movs	r3, #32
 372              		.syntax unified
 373              	@ 546 "../../lib/e-puck2_main-processor/ChibiOS//os/ext/CMSIS/include/core_cmFunc.h" 1
 374 011a 83F31188 		MSR basepri, r3
 375              	@ 0 "" 2
 376              	.LVL32:
 377              		.thumb
 378              		.syntax unified
 379              	.LBE289:
 380              	.LBE288:
 381              	.LBE287:
 382              	.LBE286:
 383              		.loc 3 389 0
 384 011e FFF7FEFF 		bl	_stats_start_measure_crit_isr
 385              	.LVL33:
 386              		.loc 3 390 0
 387 0122 FFF7FEFF 		bl	_dbg_check_lock_from_isr
 388              	.LVL34:
 389              	.LBE285:
 390              	.LBE284:
 391              	.LBE283:
 392              	.LBB290:
 393              	.LBB291:
 394              		.file 5 "../../lib/e-puck2_main-processor/ChibiOS//os/rt/include/chqueues.h"
 395              		.loc 5 388 0
 396 0126 FFF7FEFF 		bl	chDbgCheckClassI
 397              	.LVL35:
 398              		.loc 5 390 0
 399 012a D7E91123 		ldrd	r2, r3, [r7, #68]
ARM GAS  C:\Users\mathi\AppData\Local\Temp\cc6PZgsO.s 			page 8


 400 012e 9A42     		cmp	r2, r3
 401 0130 3CD0     		beq	.L60
 402              	.LVL36:
 403              	.L24:
 404              	.LBE291:
 405              	.LBE290:
 406              		.loc 1 201 0
 407 0132 019A     		ldr	r2, [sp, #4]
 408 0134 4FF6BF73 		movw	r3, #65471
 409 0138 1A40     		ands	r2, r2, r3
 410 013a 1346     		mov	r3, r2
 411              		.loc 1 202 0
 412 013c 6FF04002 		mvn	r2, #64
 413              		.loc 1 201 0
 414 0140 EB60     		str	r3, [r5, #12]
 415              		.loc 1 202 0
 416 0142 2A60     		str	r2, [r5]
 417              	.LBB293:
 418              	.LBB294:
 419              	.LBB295:
 420              		.loc 3 408 0
 421 0144 FFF7FEFF 		bl	_dbg_check_unlock_from_isr
 422              	.LVL37:
 423              		.loc 3 409 0
 424 0148 FFF7FEFF 		bl	_stats_stop_measure_crit_isr
 425              	.LVL38:
 426              	.LBB296:
 427              	.LBB297:
 428              	.LBB298:
 429              	.LBB299:
 430              		.loc 2 546 0
 431 014c 0023     		movs	r3, #0
 432              		.syntax unified
 433              	@ 546 "../../lib/e-puck2_main-processor/ChibiOS//os/ext/CMSIS/include/core_cmFunc.h" 1
 434 014e 83F31188 		MSR basepri, r3
 435              	@ 0 "" 2
 436              	.LVL39:
 437              		.thumb
 438              		.syntax unified
 439 0152 90E7     		b	.L23
 440              	.L54:
 441              	.LVL40:
 442              	.LBE299:
 443              	.LBE298:
 444              	.LBE297:
 445              	.LBE296:
 446              	.LBE295:
 447              	.LBE294:
 448              	.LBE293:
 449              	.LBB300:
 450              	.LBB301:
 451              	.LBB302:
 452              	.LBB303:
 453              	.LBB304:
 454              	.LBB305:
 455              	.LBB306:
 456 0154 2023     		movs	r3, #32
ARM GAS  C:\Users\mathi\AppData\Local\Temp\cc6PZgsO.s 			page 9


 457              		.syntax unified
 458              	@ 546 "../../lib/e-puck2_main-processor/ChibiOS//os/ext/CMSIS/include/core_cmFunc.h" 1
 459 0156 83F31188 		MSR basepri, r3
 460              	@ 0 "" 2
 461              	.LVL41:
 462              		.thumb
 463              		.syntax unified
 464              	.LBE306:
 465              	.LBE305:
 466              	.LBE304:
 467              	.LBE303:
 468              		.loc 3 389 0
 469 015a FFF7FEFF 		bl	_stats_start_measure_crit_isr
 470              	.LVL42:
 471              		.loc 3 390 0
 472 015e FFF7FEFF 		bl	_dbg_check_lock_from_isr
 473              	.LVL43:
 474              	.LBE302:
 475              	.LBE301:
 476              	.LBE300:
 477              	.LBB307:
 478              	.LBB308:
 479              		.loc 4 798 0
 480 0162 381D     		adds	r0, r7, #4
 481 0164 4FF40071 		mov	r1, #512
 482 0168 FFF7FEFF 		bl	chEvtBroadcastFlagsI
 483              	.LVL44:
 484              	.LBE308:
 485              	.LBE307:
 486              		.loc 1 162 0
 487 016c 6FF48073 		mvn	r3, #256
 488 0170 2B60     		str	r3, [r5]
 489              	.LBB309:
 490              	.LBB310:
 491              	.LBB311:
 492              		.loc 3 408 0
 493 0172 FFF7FEFF 		bl	_dbg_check_unlock_from_isr
 494              	.LVL45:
 495              		.loc 3 409 0
 496 0176 FFF7FEFF 		bl	_stats_stop_measure_crit_isr
 497              	.LVL46:
 498              	.LBB312:
 499              	.LBB313:
 500              	.LBB314:
 501              	.LBB315:
 502              		.loc 2 546 0
 503 017a 0023     		movs	r3, #0
 504              		.syntax unified
 505              	@ 546 "../../lib/e-puck2_main-processor/ChibiOS//os/ext/CMSIS/include/core_cmFunc.h" 1
 506 017c 83F31188 		MSR basepri, r3
 507              	@ 0 "" 2
 508              	.LVL47:
 509              		.thumb
 510              		.syntax unified
 511 0180 53E7     		b	.L9
 512              	.L57:
 513              	.LVL48:
ARM GAS  C:\Users\mathi\AppData\Local\Temp\cc6PZgsO.s 			page 10


 514              	.LBE315:
 515              	.LBE314:
 516              	.LBE313:
 517              	.LBE312:
 518              	.LBE311:
 519              	.LBE310:
 520              	.LBE309:
 521              	.LBB316:
 522              	.LBB317:
 523              	.LBB318:
 524              	.LBB319:
 525              	.LBB320:
 526              	.LBB321:
 527              	.LBB322:
 528              	.LBB323:
 529 0182 2023     		movs	r3, #32
 530              		.syntax unified
 531              	@ 546 "../../lib/e-puck2_main-processor/ChibiOS//os/ext/CMSIS/include/core_cmFunc.h" 1
 532 0184 83F31188 		MSR basepri, r3
 533              	@ 0 "" 2
 534              	.LVL49:
 535              		.thumb
 536              		.syntax unified
 537              	.LBE323:
 538              	.LBE322:
 539              	.LBE321:
 540              	.LBE320:
 541              		.loc 3 389 0
 542 0188 FFF7FEFF 		bl	_stats_start_measure_crit_isr
 543              	.LVL50:
 544              		.loc 3 390 0
 545 018c FFF7FEFF 		bl	_dbg_check_lock_from_isr
 546              	.LVL51:
 547              	.LBE319:
 548              	.LBE318:
 549              	.LBE317:
 550              		.loc 1 186 0
 551 0190 1348     		ldr	r0, .L62+8
 552 0192 FFF7FEFF 		bl	chOQGetI
 553              	.LVL52:
 554              		.loc 1 187 0
 555 0196 0028     		cmp	r0, #0
 556 0198 10DB     		blt	.L61
 557              		.loc 1 192 0
 558 019a 6860     		str	r0, [r5, #4]
 559              	.LVL53:
 560              	.L22:
 561              	.LBB324:
 562              	.LBB325:
 563              	.LBB326:
 564              		.loc 3 408 0
 565 019c FFF7FEFF 		bl	_dbg_check_unlock_from_isr
 566              	.LVL54:
 567              		.loc 3 409 0
 568 01a0 FFF7FEFF 		bl	_stats_stop_measure_crit_isr
 569              	.LVL55:
 570              	.LBB327:
ARM GAS  C:\Users\mathi\AppData\Local\Temp\cc6PZgsO.s 			page 11


 571              	.LBB328:
 572              	.LBB329:
 573              	.LBB330:
 574              		.loc 2 546 0
 575 01a4 0023     		movs	r3, #0
 576              		.syntax unified
 577              	@ 546 "../../lib/e-puck2_main-processor/ChibiOS//os/ext/CMSIS/include/core_cmFunc.h" 1
 578 01a6 83F31188 		MSR basepri, r3
 579              	@ 0 "" 2
 580              	.LVL56:
 581              		.thumb
 582              		.syntax unified
 583 01aa 62E7     		b	.L20
 584              	.LVL57:
 585              	.L60:
 586              	.LBE330:
 587              	.LBE329:
 588              	.LBE328:
 589              	.LBE327:
 590              	.LBE326:
 591              	.LBE325:
 592              	.LBE324:
 593              	.LBE316:
 594              	.LBB333:
 595              	.LBB292:
 596              		.loc 5 390 0
 597 01ac BB6B     		ldr	r3, [r7, #56]
 598 01ae 002B     		cmp	r3, #0
 599 01b0 BFD0     		beq	.L24
 600              	.LVL58:
 601              	.LBE292:
 602              	.LBE333:
 603              	.LBB334:
 604              	.LBB335:
 605              		.loc 4 798 0
 606 01b2 1021     		movs	r1, #16
 607 01b4 0948     		ldr	r0, .L62+4
 608 01b6 FFF7FEFF 		bl	chEvtBroadcastFlagsI
 609              	.LVL59:
 610 01ba BAE7     		b	.L24
 611              	.LVL60:
 612              	.L61:
 613              	.LBE335:
 614              	.LBE334:
 615              	.LBB336:
 616              	.LBB331:
 617              	.LBB332:
 618 01bc 0821     		movs	r1, #8
 619 01be 0748     		ldr	r0, .L62+4
 620              	.LVL61:
 621 01c0 FFF7FEFF 		bl	chEvtBroadcastFlagsI
 622              	.LVL62:
 623              	.LBE332:
 624              	.LBE331:
 625              		.loc 1 189 0
 626 01c4 019A     		ldr	r2, [sp, #4]
 627 01c6 4FF63F73 		movw	r3, #65343
ARM GAS  C:\Users\mathi\AppData\Local\Temp\cc6PZgsO.s 			page 12


 628 01ca 1340     		ands	r3, r3, r2
 629 01cc 43F04003 		orr	r3, r3, #64
 630 01d0 EB60     		str	r3, [r5, #12]
 631 01d2 E3E7     		b	.L22
 632              	.LVL63:
 633              	.L59:
 634              	.LBE336:
 635              	.LBE338:
 636              	.LBE340:
 637              		.loc 1 312 0
 638 01d4 FFF7FEFF 		bl	__stack_chk_fail
 639              	.LVL64:
 640              	.L63:
 641              		.align	2
 642              	.L62:
 643 01d8 00000000 		.word	.LANCHOR0
 644 01dc 04000000 		.word	.LANCHOR0+4
 645 01e0 30000000 		.word	.LANCHOR0+48
 646 01e4 00000000 		.word	__stack_chk_guard
 647              		.cfi_endproc
 648              	.LFE261:
 649              		.size	VectorDC, .-VectorDC
 650              		.section	.text.sd_lld_init,"ax",%progbits
 651              		.align	1
 652              		.p2align 4,,15
 653              		.global	sd_lld_init
 654              		.syntax unified
 655              		.thumb
 656              		.thumb_func
 657              		.fpu fpv4-sp-d16
 658              		.type	sd_lld_init, %function
 659              	sd_lld_init:
 660              	.LFB262:
 661              		.loc 1 382 0
 662              		.cfi_startproc
 663              		@ args = 0, pretend = 0, frame = 8
 664              		@ frame_needed = 0, uses_anonymous_args = 0
 665 0000 30B5     		push	{r4, r5, lr}
 666              		.cfi_def_cfa_offset 12
 667              		.cfi_offset 4, -12
 668              		.cfi_offset 5, -8
 669              		.cfi_offset 14, -4
 670 0002 0A4D     		ldr	r5, .L68
 671              		.loc 1 395 0
 672 0004 0A4C     		ldr	r4, .L68+4
 673              		.loc 1 382 0
 674 0006 2B68     		ldr	r3, [r5]
 675              		.loc 1 395 0
 676 0008 0A4A     		ldr	r2, .L68+8
 677              		.loc 1 382 0
 678 000a 83B0     		sub	sp, sp, #12
 679              		.cfi_def_cfa_offset 24
 680              		.loc 1 395 0
 681 000c 0021     		movs	r1, #0
 682 000e 2046     		mov	r0, r4
 683              		.loc 1 382 0
 684 0010 0193     		str	r3, [sp, #4]
ARM GAS  C:\Users\mathi\AppData\Local\Temp\cc6PZgsO.s 			page 13


 685              		.loc 1 395 0
 686 0012 FFF7FEFF 		bl	sdObjectInit
 687              	.LVL65:
 688              		.loc 1 413 0
 689 0016 019A     		ldr	r2, [sp, #4]
 690 0018 2B68     		ldr	r3, [r5]
 691              		.loc 1 396 0
 692 001a 0749     		ldr	r1, .L68+12
 693 001c 6167     		str	r1, [r4, #116]
 694              		.loc 1 413 0
 695 001e 9A42     		cmp	r2, r3
 696 0020 01D1     		bne	.L67
 697 0022 03B0     		add	sp, sp, #12
 698              		.cfi_remember_state
 699              		.cfi_def_cfa_offset 12
 700              		@ sp needed
 701 0024 30BD     		pop	{r4, r5, pc}
 702              	.L67:
 703              		.cfi_restore_state
 704 0026 FFF7FEFF 		bl	__stack_chk_fail
 705              	.LVL66:
 706              	.L69:
 707 002a 00BF     		.align	2
 708              	.L68:
 709 002c 00000000 		.word	__stack_chk_guard
 710 0030 00000000 		.word	.LANCHOR0
 711 0034 00000000 		.word	notify3
 712 0038 00480040 		.word	1073760256
 713              		.cfi_endproc
 714              	.LFE262:
 715              		.size	sd_lld_init, .-sd_lld_init
 716              		.section	.text.sd_lld_start,"ax",%progbits
 717              		.align	1
 718              		.p2align 4,,15
 719              		.global	sd_lld_start
 720              		.syntax unified
 721              		.thumb
 722              		.thumb_func
 723              		.fpu fpv4-sp-d16
 724              		.type	sd_lld_start, %function
 725              	sd_lld_start:
 726              	.LFB263:
 727              		.loc 1 425 0
 728              		.cfi_startproc
 729              		@ args = 0, pretend = 0, frame = 8
 730              		@ frame_needed = 0, uses_anonymous_args = 0
 731              	.LVL67:
 732 0000 70B5     		push	{r4, r5, r6, lr}
 733              		.cfi_def_cfa_offset 16
 734              		.cfi_offset 4, -16
 735              		.cfi_offset 5, -12
 736              		.cfi_offset 6, -8
 737              		.cfi_offset 14, -4
 738 0002 224E     		ldr	r6, .L81
 739              		.loc 1 430 0
 740 0004 037A     		ldrb	r3, [r0, #8]	@ zero_extendqisi2
 741              		.loc 1 428 0
ARM GAS  C:\Users\mathi\AppData\Local\Temp\cc6PZgsO.s 			page 14


 742 0006 224C     		ldr	r4, .L81+4
 743              		.loc 1 425 0
 744 0008 3268     		ldr	r2, [r6]
 745 000a 82B0     		sub	sp, sp, #8
 746              		.cfi_def_cfa_offset 24
 747              		.loc 1 428 0
 748 000c 0029     		cmp	r1, #0
 749 000e 18BF     		it	ne
 750 0010 0C46     		movne	r4, r1
 751              	.LVL68:
 752              		.loc 1 430 0
 753 0012 012B     		cmp	r3, #1
 754              		.loc 1 425 0
 755 0014 0546     		mov	r5, r0
 756 0016 0192     		str	r2, [sp, #4]
 757              		.loc 1 430 0
 758 0018 28D0     		beq	.L79
 759              	.LVL69:
 760              	.L72:
 761 001a 6B6F     		ldr	r3, [r5, #116]
 762              	.LVL70:
 763              	.LBB341:
 764              	.LBB342:
 765              		.loc 1 96 0
 766 001c 1D49     		ldr	r1, .L81+8
 767 001e 2068     		ldr	r0, [r4]
 768 0020 8B42     		cmp	r3, r1
 769 0022 1ED0     		beq	.L73
 770 0024 1C4A     		ldr	r2, .L81+12
 771 0026 9342     		cmp	r3, r2
 772 0028 1BD0     		beq	.L73
 773              		.loc 1 102 0
 774 002a 1C4A     		ldr	r2, .L81+16
 775 002c B2FBF0F2 		udiv	r2, r2, r0
 776 0030 9A60     		str	r2, [r3, #8]
 777              	.L75:
 778              		.loc 1 105 0
 779 0032 E288     		ldrh	r2, [r4, #6]
 780 0034 42F04002 		orr	r2, r2, #64
 781 0038 1A61     		str	r2, [r3, #16]
 782              		.loc 1 106 0
 783 003a 2289     		ldrh	r2, [r4, #8]
 784 003c 42F00102 		orr	r2, r2, #1
 785 0040 5A61     		str	r2, [r3, #20]
 786              		.loc 1 108 0
 787 0042 A288     		ldrh	r2, [r4, #4]
 788 0044 42F40452 		orr	r2, r2, #8448
 789 0048 42F02C02 		orr	r2, r2, #44
 790              		.loc 1 110 0
 791 004c 0021     		movs	r1, #0
 792              		.loc 1 107 0
 793 004e DA60     		str	r2, [r3, #12]
 794              		.loc 1 110 0
 795 0050 1960     		str	r1, [r3]
 796              		.loc 1 111 0
 797 0052 1A68     		ldr	r2, [r3]
 798              		.loc 1 112 0
ARM GAS  C:\Users\mathi\AppData\Local\Temp\cc6PZgsO.s 			page 15


 799 0054 5B68     		ldr	r3, [r3, #4]
 800              	.LVL71:
 801              	.LBE342:
 802              	.LBE341:
 803              		.loc 1 469 0
 804 0056 019A     		ldr	r2, [sp, #4]
 805 0058 3368     		ldr	r3, [r6]
 806 005a 9A42     		cmp	r2, r3
 807 005c 13D1     		bne	.L80
 808 005e 02B0     		add	sp, sp, #8
 809              		.cfi_remember_state
 810              		.cfi_def_cfa_offset 16
 811              		@ sp needed
 812 0060 70BD     		pop	{r4, r5, r6, pc}
 813              	.LVL72:
 814              	.L73:
 815              		.cfi_restore_state
 816              	.LBB344:
 817              	.LBB343:
 818              		.loc 1 100 0
 819 0062 0F4A     		ldr	r2, .L81+20
 820 0064 B2FBF0F2 		udiv	r2, r2, r0
 821 0068 9A60     		str	r2, [r3, #8]
 822 006a E2E7     		b	.L75
 823              	.LVL73:
 824              	.L79:
 825              	.LBE343:
 826              	.LBE344:
 827              		.loc 1 444 0
 828 006c 0D4B     		ldr	r3, .L81+24
 829 006e 9842     		cmp	r0, r3
 830 0070 D3D1     		bne	.L72
 831              		.loc 1 445 0
 832 0072 0D4A     		ldr	r2, .L81+28
 833 0074 136C     		ldr	r3, [r2, #64]
 834 0076 43F48023 		orr	r3, r3, #262144
 835 007a 1364     		str	r3, [r2, #64]
 836              		.loc 1 446 0
 837 007c 0C21     		movs	r1, #12
 838 007e 2720     		movs	r0, #39
 839              	.LVL74:
 840 0080 FFF7FEFF 		bl	nvicEnableVector
 841              	.LVL75:
 842 0084 C9E7     		b	.L72
 843              	.LVL76:
 844              	.L80:
 845              		.loc 1 469 0
 846 0086 FFF7FEFF 		bl	__stack_chk_fail
 847              	.LVL77:
 848              	.L82:
 849 008a 00BF     		.align	2
 850              	.L81:
 851 008c 00000000 		.word	__stack_chk_guard
 852 0090 00000000 		.word	.LANCHOR1
 853 0094 00100140 		.word	1073811456
 854 0098 00140140 		.word	1073812480
 855 009c 80DE8002 		.word	42000000
ARM GAS  C:\Users\mathi\AppData\Local\Temp\cc6PZgsO.s 			page 16


 856 00a0 00BD0105 		.word	84000000
 857 00a4 00000000 		.word	.LANCHOR0
 858 00a8 00380240 		.word	1073887232
 859              		.cfi_endproc
 860              	.LFE263:
 861              		.size	sd_lld_start, .-sd_lld_start
 862              		.section	.text.sd_lld_stop,"ax",%progbits
 863              		.align	1
 864              		.p2align 4,,15
 865              		.global	sd_lld_stop
 866              		.syntax unified
 867              		.thumb
 868              		.thumb_func
 869              		.fpu fpv4-sp-d16
 870              		.type	sd_lld_stop, %function
 871              	sd_lld_stop:
 872              	.LFB264:
 873              		.loc 1 480 0
 874              		.cfi_startproc
 875              		@ args = 0, pretend = 0, frame = 8
 876              		@ frame_needed = 0, uses_anonymous_args = 0
 877              	.LVL78:
 878 0000 10B5     		push	{r4, lr}
 879              		.cfi_def_cfa_offset 8
 880              		.cfi_offset 4, -8
 881              		.cfi_offset 14, -4
 882 0002 134B     		ldr	r3, .L92
 883              		.loc 1 482 0
 884 0004 027A     		ldrb	r2, [r0, #8]	@ zero_extendqisi2
 885              		.loc 1 480 0
 886 0006 1968     		ldr	r1, [r3]
 887 0008 82B0     		sub	sp, sp, #8
 888              		.cfi_def_cfa_offset 16
 889              		.loc 1 482 0
 890 000a 022A     		cmp	r2, #2
 891              		.loc 1 480 0
 892 000c 0191     		str	r1, [sp, #4]
 893              		.loc 1 482 0
 894 000e 05D0     		beq	.L91
 895              	.L83:
 896              		.loc 1 527 0
 897 0010 019A     		ldr	r2, [sp, #4]
 898 0012 1B68     		ldr	r3, [r3]
 899 0014 9A42     		cmp	r2, r3
 900 0016 18D1     		bne	.L90
 901 0018 02B0     		add	sp, sp, #8
 902              		.cfi_remember_state
 903              		.cfi_def_cfa_offset 8
 904              		@ sp needed
 905 001a 10BD     		pop	{r4, pc}
 906              	.L91:
 907              		.cfi_restore_state
 908              		.loc 1 499 0
 909 001c 0D4C     		ldr	r4, .L92+4
 910              		.loc 1 483 0
 911 001e 426F     		ldr	r2, [r0, #116]
 912              	.LVL79:
ARM GAS  C:\Users\mathi\AppData\Local\Temp\cc6PZgsO.s 			page 17


 913              	.LBB345:
 914              	.LBB346:
 915              		.loc 1 123 0
 916 0020 0021     		movs	r1, #0
 917              	.LBE346:
 918              	.LBE345:
 919              		.loc 1 499 0
 920 0022 A042     		cmp	r0, r4
 921              	.LBB348:
 922              	.LBB347:
 923              		.loc 1 123 0
 924 0024 D160     		str	r1, [r2, #12]
 925              		.loc 1 124 0
 926 0026 1161     		str	r1, [r2, #16]
 927              		.loc 1 125 0
 928 0028 5161     		str	r1, [r2, #20]
 929              	.LVL80:
 930              	.LBE347:
 931              	.LBE348:
 932              		.loc 1 499 0
 933 002a F1D1     		bne	.L83
 934              		.loc 1 500 0
 935 002c 0A49     		ldr	r1, .L92+8
 936 002e 0A6C     		ldr	r2, [r1, #64]
 937 0030 22F48022 		bic	r2, r2, #262144
 938 0034 0A64     		str	r2, [r1, #64]
 939              		.loc 1 501 0
 940 0036 019A     		ldr	r2, [sp, #4]
 941 0038 1B68     		ldr	r3, [r3]
 942 003a 9A42     		cmp	r2, r3
 943 003c 05D1     		bne	.L90
 944 003e 2720     		movs	r0, #39
 945              	.LVL81:
 946              		.loc 1 527 0
 947 0040 02B0     		add	sp, sp, #8
 948              		.cfi_remember_state
 949              		.cfi_def_cfa_offset 8
 950              		@ sp needed
 951 0042 BDE81040 		pop	{r4, lr}
 952              		.cfi_restore 14
 953              		.cfi_restore 4
 954              		.cfi_def_cfa_offset 0
 955              		.loc 1 501 0
 956 0046 FFF7FEBF 		b	nvicDisableVector
 957              	.LVL82:
 958              	.L90:
 959              		.cfi_restore_state
 960              		.loc 1 527 0
 961 004a FFF7FEFF 		bl	__stack_chk_fail
 962              	.LVL83:
 963              	.L93:
 964 004e 00BF     		.align	2
 965              	.L92:
 966 0050 00000000 		.word	__stack_chk_guard
 967 0054 00000000 		.word	.LANCHOR0
 968 0058 00380240 		.word	1073887232
 969              		.cfi_endproc
ARM GAS  C:\Users\mathi\AppData\Local\Temp\cc6PZgsO.s 			page 18


 970              	.LFE264:
 971              		.size	sd_lld_stop, .-sd_lld_stop
 972              		.global	SD3
 973              		.section	.bss.SD3,"aw",%nobits
 974              		.align	2
 975              		.set	.LANCHOR0,. + 0
 976              		.type	SD3, %object
 977              		.size	SD3, 120
 978              	SD3:
 979 0000 00000000 		.space	120
 979      00000000 
 979      00000000 
 979      00000000 
 979      00000000 
 980              		.section	.rodata.default_config,"a",%progbits
 981              		.align	2
 982              		.set	.LANCHOR1,. + 0
 983              		.type	default_config, %object
 984              		.size	default_config, 12
 985              	default_config:
 986 0000 00C20100 		.word	115200
 987 0004 0000     		.short	0
 988 0006 0040     		.short	16384
 989 0008 0000     		.short	0
 990 000a 0000     		.space	2
 991              		.text
 992              	.Letext0:
 993              		.file 6 "c:\\eclipse_e-puck2\\tools\\gcc-arm-none-eabi-7-2017-q4-major-win32\\lib\\gcc\\arm-none-e
 994              		.file 7 "c:\\eclipse_e-puck2\\tools\\gcc-arm-none-eabi-7-2017-q4-major-win32\\arm-none-eabi\\inclu
 995              		.file 8 "c:\\eclipse_e-puck2\\tools\\gcc-arm-none-eabi-7-2017-q4-major-win32\\arm-none-eabi\\inclu
 996              		.file 9 "../../lib/e-puck2_main-processor/ChibiOS//os/rt/ports/ARMCMx/compilers/GCC/chtypes.h"
 997              		.file 10 "../../lib/e-puck2_main-processor/ChibiOS//os/rt/include/chsystypes.h"
 998              		.file 11 "../../lib/e-puck2_main-processor/ChibiOS//os/rt/include/chschd.h"
 999              		.file 12 "../../lib/e-puck2_main-processor/ChibiOS//os/ext/CMSIS/include/core_cm4.h"
 1000              		.file 13 "../../lib/e-puck2_main-processor/ChibiOS//os/ext/CMSIS/ST/system_stm32f4xx.h"
 1001              		.file 14 "../../lib/e-puck2_main-processor/ChibiOS//os/ext/CMSIS/ST/stm32f407xx.h"
 1002              		.file 15 "../../lib/e-puck2_main-processor/ChibiOS//os/rt/ports/ARMCMx/chcore.h"
 1003              		.file 16 "../../lib/e-puck2_main-processor/ChibiOS//os/rt/ports/ARMCMx/chcore_v7m.h"
 1004              		.file 17 "../../lib/e-puck2_main-processor/ChibiOS//os/rt/include/chdebug.h"
 1005              		.file 18 "../../lib/e-puck2_main-processor/ChibiOS//os/rt/include/chtm.h"
 1006              		.file 19 "../../lib/e-puck2_main-processor/ChibiOS//os/rt/include/chstats.h"
 1007              		.file 20 "../../lib/e-puck2_main-processor/ChibiOS//os/rt/include/chsem.h"
 1008              		.file 21 "../../lib/e-puck2_main-processor/ChibiOS//os/rt/include/chmtx.h"
 1009              		.file 22 "../../lib/e-puck2_main-processor/ChibiOS//os/rt/include/chregistry.h"
 1010              		.file 23 "../../lib/e-puck2_main-processor/ChibiOS//os/rt/include/chevents.h"
 1011              		.file 24 "../../lib/e-puck2_main-processor/ChibiOS//os/hal/ports/STM32/STM32F4xx/stm32_dma.h"
 1012              		.file 25 "../../lib/e-puck2_main-processor/ChibiOS//os/hal/include/hal_ioblock.h"
 1013              		.file 26 "../../lib/e-puck2_main-processor/ChibiOS//os/hal/ports/STM32/LLD/GPIOv2/pal_lld.h"
 1014              		.file 27 "../../lib/e-puck2_main-processor/ChibiOS//os/hal/include/adc.h"
 1015              		.file 28 "../../lib/e-puck2_main-processor/ChibiOS//os/hal/ports/STM32/STM32F4xx/adc_lld.h"
 1016              		.file 29 "../../lib/e-puck2_main-processor/ChibiOS//os/hal/include/can.h"
 1017              		.file 30 "../../lib/e-puck2_main-processor/ChibiOS//os/hal/ports/STM32/LLD/can_lld.h"
 1018              		.file 31 "../../lib/e-puck2_main-processor/ChibiOS//os/hal/include/dac.h"
 1019              		.file 32 "../../lib/e-puck2_main-processor/ChibiOS//os/hal/ports/STM32/LLD/DACv1/dac_lld.h"
 1020              		.file 33 "../../lib/e-puck2_main-processor/ChibiOS//os/hal/include/ext.h"
 1021              		.file 34 "../../lib/e-puck2_main-processor/ChibiOS//os/hal/ports/STM32/LLD/ext_lld.h"
 1022              		.file 35 "../../lib/e-puck2_main-processor/ChibiOS//os/hal/include/gpt.h"
ARM GAS  C:\Users\mathi\AppData\Local\Temp\cc6PZgsO.s 			page 19


 1023              		.file 36 "../../lib/e-puck2_main-processor/ChibiOS//os/hal/ports/STM32/LLD/TIMv1/gpt_lld.h"
 1024              		.file 37 "../../lib/e-puck2_main-processor/ChibiOS//os/hal/ports/STM32/LLD/TIMv1/stm32_tim.h"
 1025              		.file 38 "../../lib/e-puck2_main-processor/ChibiOS//os/hal/include/i2c.h"
 1026              		.file 39 "../../lib/e-puck2_main-processor/ChibiOS//os/hal/ports/STM32/LLD/I2Cv1/i2c_lld.h"
 1027              		.file 40 "../../lib/e-puck2_main-processor/ChibiOS//os/hal/include/i2s.h"
 1028              		.file 41 "../../lib/e-puck2_main-processor/ChibiOS//os/hal/ports/STM32/LLD/SPIv1/i2s_lld.h"
 1029              		.file 42 "../../lib/e-puck2_main-processor/ChibiOS//os/hal/include/pwm.h"
 1030              		.file 43 "../../lib/e-puck2_main-processor/ChibiOS//os/hal/ports/STM32/LLD/TIMv1/pwm_lld.h"
 1031              		.file 44 "../../lib/e-puck2_main-processor/ChibiOS//os/hal/include/serial.h"
 1032              		.file 45 "../../lib/e-puck2_main-processor/ChibiOS//os/hal/ports/STM32/LLD/USARTv1/serial_lld.h"
 1033              		.file 46 "../../lib/e-puck2_main-processor/ChibiOS//os/hal/include/sdc.h"
 1034              		.file 47 "../../lib/e-puck2_main-processor/ChibiOS//os/hal/ports/STM32/LLD/sdc_lld.h"
 1035              		.file 48 "../../lib/e-puck2_main-processor/ChibiOS//os/hal/include/spi.h"
 1036              		.file 49 "../../lib/e-puck2_main-processor/ChibiOS//os/hal/ports/STM32/LLD/SPIv1/spi_lld.h"
 1037              		.file 50 "../../lib/e-puck2_main-processor/ChibiOS//os/hal/include/usb.h"
 1038              		.file 51 "../../lib/e-puck2_main-processor/ChibiOS//os/hal/ports/STM32/LLD/OTGv1/usb_lld.h"
 1039              		.file 52 "../../lib/e-puck2_main-processor/ChibiOS//os/hal/ports/STM32/LLD/OTGv1/stm32_otg.h"
 1040              		.file 53 "../../lib/e-puck2_main-processor/ChibiOS//os/hal/ports/common/ARMCMx/nvic.h"