ARM GAS  C:\Users\mathi\AppData\Local\Temp\ccr0Ufef.s 			page 1


   1              		.cpu cortex-m4
   2              		.eabi_attribute 27, 1
   3              		.eabi_attribute 28, 1
   4              		.eabi_attribute 20, 1
   5              		.eabi_attribute 21, 1
   6              		.eabi_attribute 23, 3
   7              		.eabi_attribute 24, 1
   8              		.eabi_attribute 25, 1
   9              		.eabi_attribute 26, 1
  10              		.eabi_attribute 30, 2
  11              		.eabi_attribute 34, 1
  12              		.eabi_attribute 18, 4
  13              		.file	"skel_user.c"
  14              		.text
  15              	.Ltext0:
  16              		.cfi_sections	.debug_frame
  17              		.section	.text.AsebaNative__system_reboot,"ax",%progbits
  18              		.align	1
  19              		.p2align 4,,15
  20              		.global	AsebaNative__system_reboot
  21              		.syntax unified
  22              		.thumb
  23              		.thumb_func
  24              		.fpu fpv4-sp-d16
  25              		.type	AsebaNative__system_reboot, %function
  26              	AsebaNative__system_reboot:
  27              	.LFB266:
  28              		.file 1 "../../lib/e-puck2_main-processor/src/aseba_vm/skel_user.c"
  29              		.loc 1 134 0
  30              		.cfi_startproc
  31              		@ Volatile: function does not return.
  32              		@ args = 0, pretend = 0, frame = 8
  33              		@ frame_needed = 0, uses_anonymous_args = 0
  34              		@ link register save eliminated.
  35              	.LVL0:
  36 0000 074B     		ldr	r3, .L6
  37 0002 82B0     		sub	sp, sp, #8
  38              		.cfi_def_cfa_offset 8
  39              		.loc 1 134 0
  40 0004 1B68     		ldr	r3, [r3]
  41 0006 0193     		str	r3, [sp, #4]
  42              	.LBB20:
  43              	.LBB21:
  44              	.LBB22:
  45              	.LBB23:
  46              		.file 2 "../../lib/e-puck2_main-processor/ChibiOS//os/ext/CMSIS/include/core_cmInstr.h"
  47              		.loc 2 382 0
  48              		.syntax unified
  49              	@ 382 "../../lib/e-puck2_main-processor/ChibiOS//os/ext/CMSIS/include/core_cmInstr.h" 1
  50 0008 BFF34F8F 		dsb
  51              	@ 0 "" 2
  52              		.thumb
  53              		.syntax unified
  54              	.LBE23:
  55              	.LBE22:
  56              		.file 3 "../../lib/e-puck2_main-processor/ChibiOS//os/ext/CMSIS/include/core_cm4.h"
  57              		.loc 3 1643 0
ARM GAS  C:\Users\mathi\AppData\Local\Temp\ccr0Ufef.s 			page 2


  58 000c 0549     		ldr	r1, .L6+4
  59 000e 064B     		ldr	r3, .L6+8
  60 0010 CA68     		ldr	r2, [r1, #12]
  61 0012 02F4E062 		and	r2, r2, #1792
  62 0016 1343     		orrs	r3, r3, r2
  63              		.loc 3 1642 0
  64 0018 CB60     		str	r3, [r1, #12]
  65              	.LBB24:
  66              	.LBB25:
  67              		.loc 2 382 0
  68              		.syntax unified
  69              	@ 382 "../../lib/e-puck2_main-processor/ChibiOS//os/ext/CMSIS/include/core_cmInstr.h" 1
  70 001a BFF34F8F 		dsb
  71              	@ 0 "" 2
  72              		.thumb
  73              		.syntax unified
  74              	.L2:
  75 001e FEE7     		b	.L2
  76              	.L7:
  77              		.align	2
  78              	.L6:
  79 0020 00000000 		.word	__stack_chk_guard
  80 0024 00ED00E0 		.word	-536810240
  81 0028 0400FA05 		.word	100270084
  82              	.LBE25:
  83              	.LBE24:
  84              	.LBE21:
  85              	.LBE20:
  86              		.cfi_endproc
  87              	.LFE266:
  88              		.size	AsebaNative__system_reboot, .-AsebaNative__system_reboot
  89              		.section	.text.clear_all_leds,"ax",%progbits
  90              		.align	1
  91              		.p2align 4,,15
  92              		.global	clear_all_leds
  93              		.syntax unified
  94              		.thumb
  95              		.thumb_func
  96              		.fpu fpv4-sp-d16
  97              		.type	clear_all_leds, %function
  98              	clear_all_leds:
  99              	.LFB271:
 100              		.loc 1 242 0
 101              		.cfi_startproc
 102              		@ args = 0, pretend = 0, frame = 8
 103              		@ frame_needed = 0, uses_anonymous_args = 0
 104              	.LVL1:
 105 0000 00B5     		push	{lr}
 106              		.cfi_def_cfa_offset 4
 107              		.cfi_offset 14, -4
 108 0002 0F4A     		ldr	r2, .L12
 109              		.loc 1 245 0
 110 0004 0F4B     		ldr	r3, .L12+4
 111              		.loc 1 242 0
 112 0006 1168     		ldr	r1, [r2]
 113 0008 83B0     		sub	sp, sp, #12
 114              		.cfi_def_cfa_offset 16
ARM GAS  C:\Users\mathi\AppData\Local\Temp\ccr0Ufef.s 			page 3


 115              		.loc 1 242 0
 116 000a 0191     		str	r1, [sp, #4]
 117              		.loc 1 262 0
 118 000c 0198     		ldr	r0, [sp, #4]
 119              	.LVL2:
 120 000e 1168     		ldr	r1, [r2]
 121              		.loc 1 245 0
 122 0010 0022     		movs	r2, #0
 123              		.loc 1 262 0
 124 0012 8842     		cmp	r0, r1
 125              		.loc 1 245 0
 126 0014 C3F84A20 		str	r2, [r3, #74]	@ unaligned
 127 0018 C3F84E20 		str	r2, [r3, #78]	@ unaligned
 128 001c C3F85220 		str	r2, [r3, #82]	@ unaligned
 129 0020 C3F85620 		str	r2, [r3, #86]	@ unaligned
 130 0024 C3F85A20 		str	r2, [r3, #90]	@ unaligned
 131 0028 C3F85E20 		str	r2, [r3, #94]	@ unaligned
 132 002c C3F86220 		str	r2, [r3, #98]	@ unaligned
 133 0030 C3F86620 		str	r2, [r3, #102]	@ unaligned
 134              		.loc 1 262 0
 135 0034 02D1     		bne	.L11
 136 0036 03B0     		add	sp, sp, #12
 137              		.cfi_remember_state
 138              		.cfi_def_cfa_offset 4
 139              		@ sp needed
 140 0038 5DF804FB 		ldr	pc, [sp], #4
 141              	.L11:
 142              		.cfi_restore_state
 143 003c FFF7FEFF 		bl	__stack_chk_fail
 144              	.LVL3:
 145              	.L13:
 146              		.align	2
 147              	.L12:
 148 0040 00000000 		.word	__stack_chk_guard
 149 0044 00000000 		.word	.LANCHOR0
 150              		.cfi_endproc
 151              	.LFE271:
 152              		.size	clear_all_leds, .-clear_all_leds
 153              		.section	.text.AsebaNative_settings_save,"ax",%progbits
 154              		.align	1
 155              		.p2align 4,,15
 156              		.global	AsebaNative_settings_save
 157              		.syntax unified
 158              		.thumb
 159              		.thumb_func
 160              		.fpu fpv4-sp-d16
 161              		.type	AsebaNative_settings_save, %function
 162              	AsebaNative_settings_save:
 163              	.LFB269:
 164              		.loc 1 197 0
 165              		.cfi_startproc
 166              		@ args = 0, pretend = 0, frame = 8
 167              		@ frame_needed = 0, uses_anonymous_args = 0
 168              	.LVL4:
 169 0000 70B5     		push	{r4, r5, r6, lr}
 170              		.cfi_def_cfa_offset 16
 171              		.cfi_offset 4, -16
ARM GAS  C:\Users\mathi\AppData\Local\Temp\ccr0Ufef.s 			page 4


 172              		.cfi_offset 5, -12
 173              		.cfi_offset 6, -8
 174              		.cfi_offset 14, -4
 175              		.loc 1 199 0
 176 0002 1149     		ldr	r1, .L21
 177 0004 114C     		ldr	r4, .L21+4
 178              		.loc 1 197 0
 179 0006 124D     		ldr	r5, .L21+8
 180              		.loc 1 203 0
 181 0008 124A     		ldr	r2, .L21+12
 182              		.loc 1 197 0
 183 000a 2B68     		ldr	r3, [r5]
 184 000c 82B0     		sub	sp, sp, #8
 185              		.cfi_def_cfa_offset 24
 186              		.loc 1 199 0
 187 000e 091B     		subs	r1, r1, r4
 188              		.loc 1 203 0
 189 0010 8910     		asrs	r1, r1, #2
 190              		.loc 1 197 0
 191 0012 0646     		mov	r6, r0
 192              		.loc 1 203 0
 193 0014 2046     		mov	r0, r4
 194              	.LVL5:
 195              		.loc 1 197 0
 196 0016 0193     		str	r3, [sp, #4]
 197              	.LVL6:
 198              		.loc 1 203 0
 199 0018 FFF7FEFF 		bl	config_save
 200              	.LVL7:
 201              		.loc 1 206 0
 202 001c 2146     		mov	r1, r4
 203 001e 0D48     		ldr	r0, .L21+12
 204 0020 FFF7FEFF 		bl	config_load
 205              	.LVL8:
 206              		.loc 1 209 0
 207 0024 019A     		ldr	r2, [sp, #4]
 208 0026 2B68     		ldr	r3, [r5]
 209              		.loc 1 208 0
 210 0028 18B1     		cbz	r0, .L20
 211              		.loc 1 211 0
 212 002a 9A42     		cmp	r2, r3
 213 002c 0AD1     		bne	.L19
 214 002e 02B0     		add	sp, sp, #8
 215              		.cfi_remember_state
 216              		.cfi_def_cfa_offset 16
 217              		@ sp needed
 218 0030 70BD     		pop	{r4, r5, r6, pc}
 219              	.LVL9:
 220              	.L20:
 221              		.cfi_restore_state
 222              		.loc 1 209 0
 223 0032 9A42     		cmp	r2, r3
 224 0034 06D1     		bne	.L19
 225 0036 0849     		ldr	r1, .L21+16
 226 0038 3046     		mov	r0, r6
 227              	.LVL10:
 228              		.loc 1 211 0
ARM GAS  C:\Users\mathi\AppData\Local\Temp\ccr0Ufef.s 			page 5


 229 003a 02B0     		add	sp, sp, #8
 230              		.cfi_remember_state
 231              		.cfi_def_cfa_offset 16
 232              		@ sp needed
 233 003c BDE87040 		pop	{r4, r5, r6, lr}
 234              		.cfi_restore 14
 235              		.cfi_restore 6
 236              		.cfi_restore 5
 237              		.cfi_restore 4
 238              		.cfi_def_cfa_offset 0
 239              	.LVL11:
 240              		.loc 1 209 0
 241 0040 FFF7FEBF 		b	AsebaVMEmitNodeSpecificError
 242              	.LVL12:
 243              	.L19:
 244              		.cfi_restore_state
 245              		.loc 1 211 0
 246 0044 FFF7FEFF 		bl	__stack_chk_fail
 247              	.LVL13:
 248              	.L22:
 249              		.align	2
 250              	.L21:
 251 0048 00000000 		.word	_config_end
 252 004c 00000000 		.word	_config_start
 253 0050 00000000 		.word	__stack_chk_guard
 254 0054 00000000 		.word	parameter_root
 255 0058 00000000 		.word	.LC0
 256              		.cfi_endproc
 257              	.LFE269:
 258              		.size	AsebaNative_settings_save, .-AsebaNative_settings_save
 259              		.section	.text.AsebaNative_settings_erase,"ax",%progbits
 260              		.align	1
 261              		.p2align 4,,15
 262              		.global	AsebaNative_settings_erase
 263              		.syntax unified
 264              		.thumb
 265              		.thumb_func
 266              		.fpu fpv4-sp-d16
 267              		.type	AsebaNative_settings_erase, %function
 268              	AsebaNative_settings_erase:
 269              	.LFB270:
 270              		.loc 1 224 0
 271              		.cfi_startproc
 272              		@ args = 0, pretend = 0, frame = 8
 273              		@ frame_needed = 0, uses_anonymous_args = 0
 274              	.LVL14:
 275 0000 00B5     		push	{lr}
 276              		.cfi_def_cfa_offset 4
 277              		.cfi_offset 14, -4
 278 0002 084B     		ldr	r3, .L28
 279 0004 83B0     		sub	sp, sp, #12
 280              		.cfi_def_cfa_offset 16
 281              		.loc 1 224 0
 282 0006 1A68     		ldr	r2, [r3]
 283 0008 0192     		str	r2, [sp, #4]
 284              		.loc 1 229 0
 285 000a 019A     		ldr	r2, [sp, #4]
ARM GAS  C:\Users\mathi\AppData\Local\Temp\ccr0Ufef.s 			page 6


 286 000c 1B68     		ldr	r3, [r3]
 287 000e 9A42     		cmp	r2, r3
 288 0010 05D1     		bne	.L27
 289 0012 0548     		ldr	r0, .L28+4
 290              	.LVL15:
 291              		.loc 1 230 0
 292 0014 03B0     		add	sp, sp, #12
 293              		.cfi_remember_state
 294              		.cfi_def_cfa_offset 4
 295              		@ sp needed
 296 0016 5DF804EB 		ldr	lr, [sp], #4
 297              		.cfi_restore 14
 298              		.cfi_def_cfa_offset 0
 299              		.loc 1 229 0
 300 001a FFF7FEBF 		b	config_erase
 301              	.LVL16:
 302              	.L27:
 303              		.cfi_restore_state
 304 001e FFF7FEFF 		bl	__stack_chk_fail
 305              	.LVL17:
 306              	.L29:
 307 0022 00BF     		.align	2
 308              	.L28:
 309 0024 00000000 		.word	__stack_chk_guard
 310 0028 00000000 		.word	_config_start
 311              		.cfi_endproc
 312              	.LFE270:
 313              		.size	AsebaNative_settings_erase, .-AsebaNative_settings_erase
 314              		.section	.text.AsebaNative__system_settings_write,"ax",%progbits
 315              		.align	1
 316              		.p2align 4,,15
 317              		.syntax unified
 318              		.thumb
 319              		.thumb_func
 320              		.fpu fpv4-sp-d16
 321              		.type	AsebaNative__system_settings_write, %function
 322              	AsebaNative__system_settings_write:
 323              	.LFB268:
 324              		.loc 1 173 0
 325              		.cfi_startproc
 326              		@ args = 0, pretend = 0, frame = 8
 327              		@ frame_needed = 0, uses_anonymous_args = 0
 328              	.LVL18:
 329 0000 F0B5     		push	{r4, r5, r6, r7, lr}
 330              		.cfi_def_cfa_offset 20
 331              		.cfi_offset 4, -20
 332              		.cfi_offset 5, -16
 333              		.cfi_offset 6, -12
 334              		.cfi_offset 7, -8
 335              		.cfi_offset 14, -4
 336              	.LBB26:
 337              	.LBB27:
 338              		.file 4 "../../lib/e-puck2_main-processor/aseba/vm/natives.h"
 339              		.loc 4 90 0
 340 0002 B0F91C40 		ldrsh	r4, [r0, #28]
 341 0006 4769     		ldr	r7, [r0, #20]
 342              	.LVL19:
ARM GAS  C:\Users\mathi\AppData\Local\Temp\ccr0Ufef.s 			page 7


 343              	.LBE27:
 344              	.LBE26:
 345              		.loc 1 174 0
 346 0008 C668     		ldr	r6, [r0, #12]
 347              		.loc 1 173 0
 348 000a 174D     		ldr	r5, .L38
 349              	.LBB29:
 350              	.LBB28:
 351              		.loc 4 90 0
 352 000c A2B2     		uxth	r2, r4
 353 000e 511E     		subs	r1, r2, #1
 354 0010 09B2     		sxth	r1, r1
 355 0012 8183     		strh	r1, [r0, #28]	@ movhi
 356              	.LBE28:
 357              	.LBE29:
 358              		.loc 1 174 0
 359 0014 37F91440 		ldrsh	r4, [r7, r4, lsl #1]
 360              		.loc 1 173 0
 361 0018 D5F800C0 		ldr	ip, [r5]
 362              		.loc 1 174 0
 363 001c 36F81440 		ldrh	r4, [r6, r4, lsl #1]
 364              	.LVL20:
 365              		.loc 1 173 0
 366 0020 83B0     		sub	sp, sp, #12
 367              		.cfi_def_cfa_offset 32
 368              	.LBB30:
 369              	.LBB31:
 370              		.loc 4 90 0
 371 0022 023A     		subs	r2, r2, #2
 372              	.LBE31:
 373              	.LBE30:
 374              		.loc 1 173 0
 375 0024 CDF804C0 		str	ip, [sp, #4]
 376              		.loc 1 177 0
 377 0028 1F2C     		cmp	r4, #31
 378              	.LBB33:
 379              	.LBB32:
 380              		.loc 4 90 0
 381 002a 8283     		strh	r2, [r0, #28]	@ movhi
 382              	.LVL21:
 383              	.LBE32:
 384              	.LBE33:
 385              		.loc 1 178 0
 386 002c 019A     		ldr	r2, [sp, #4]
 387 002e 2B68     		ldr	r3, [r5]
 388              		.loc 1 177 0
 389 0030 07D9     		bls	.L37
 390              		.loc 1 180 0
 391 0032 9A42     		cmp	r2, r3
 392 0034 15D1     		bne	.L36
 393 0036 0D49     		ldr	r1, .L38+4
 394              	.LVL22:
 395              		.loc 1 182 0
 396 0038 03B0     		add	sp, sp, #12
 397              		.cfi_remember_state
 398              		.cfi_def_cfa_offset 20
 399              		@ sp needed
ARM GAS  C:\Users\mathi\AppData\Local\Temp\ccr0Ufef.s 			page 8


 400 003a BDE8F040 		pop	{r4, r5, r6, r7, lr}
 401              		.cfi_restore 14
 402              		.cfi_restore 7
 403              		.cfi_restore 6
 404              		.cfi_restore 5
 405              		.cfi_restore 4
 406              		.cfi_def_cfa_offset 0
 407              	.LVL23:
 408              		.loc 1 180 0
 409 003e FFF7FEBF 		b	AsebaVMEmitNodeSpecificError
 410              	.LVL24:
 411              	.L37:
 412              		.cfi_restore_state
 413              		.loc 1 178 0
 414 0042 9A42     		cmp	r2, r3
 415 0044 0DD1     		bne	.L36
 416              		.loc 1 175 0
 417 0046 37F91130 		ldrsh	r3, [r7, r1, lsl #1]
 418              		.loc 1 178 0
 419 004a 0948     		ldr	r0, .L38+8
 420              	.LVL25:
 421 004c 36F81310 		ldrh	r1, [r6, r3, lsl #1]
 422              	.LVL26:
 423 0050 04EB4404 		add	r4, r4, r4, lsl #1
 424              	.LVL27:
 425 0054 00EBC400 		add	r0, r0, r4, lsl #3
 426              		.loc 1 182 0
 427 0058 03B0     		add	sp, sp, #12
 428              		.cfi_remember_state
 429              		.cfi_def_cfa_offset 20
 430              		@ sp needed
 431 005a BDE8F040 		pop	{r4, r5, r6, r7, lr}
 432              		.cfi_restore 14
 433              		.cfi_restore 7
 434              		.cfi_restore 6
 435              		.cfi_restore 5
 436              		.cfi_restore 4
 437              		.cfi_def_cfa_offset 0
 438              		.loc 1 178 0
 439 005e FFF7FEBF 		b	parameter_integer_set
 440              	.LVL28:
 441              	.L36:
 442              		.cfi_restore_state
 443              		.loc 1 180 0
 444 0062 FFF7FEFF 		bl	__stack_chk_fail
 445              	.LVL29:
 446              	.L39:
 447 0066 00BF     		.align	2
 448              	.L38:
 449 0068 00000000 		.word	__stack_chk_guard
 450 006c 00000000 		.word	.LC1
 451 0070 00000000 		.word	.LANCHOR1
 452              		.cfi_endproc
 453              	.LFE268:
 454              		.size	AsebaNative__system_settings_write, .-AsebaNative__system_settings_write
 455              		.section	.text.AsebaNative__system_settings_read,"ax",%progbits
 456              		.align	1
ARM GAS  C:\Users\mathi\AppData\Local\Temp\ccr0Ufef.s 			page 9


 457              		.p2align 4,,15
 458              		.syntax unified
 459              		.thumb
 460              		.thumb_func
 461              		.fpu fpv4-sp-d16
 462              		.type	AsebaNative__system_settings_read, %function
 463              	AsebaNative__system_settings_read:
 464              	.LFB267:
 465              		.loc 1 151 0
 466              		.cfi_startproc
 467              		@ args = 0, pretend = 0, frame = 8
 468              		@ frame_needed = 0, uses_anonymous_args = 0
 469              	.LVL30:
 470 0000 F0B5     		push	{r4, r5, r6, r7, lr}
 471              		.cfi_def_cfa_offset 20
 472              		.cfi_offset 4, -20
 473              		.cfi_offset 5, -16
 474              		.cfi_offset 6, -12
 475              		.cfi_offset 7, -8
 476              		.cfi_offset 14, -4
 477              	.LBB34:
 478              	.LBB35:
 479              		.loc 4 90 0
 480 0002 B0F91C10 		ldrsh	r1, [r0, #28]
 481 0006 4769     		ldr	r7, [r0, #20]
 482              	.LVL31:
 483              	.LBE35:
 484              	.LBE34:
 485              		.loc 1 152 0
 486 0008 C668     		ldr	r6, [r0, #12]
 487              		.loc 1 151 0
 488 000a 184D     		ldr	r5, .L48
 489              	.LBB37:
 490              	.LBB36:
 491              		.loc 4 90 0
 492 000c 8BB2     		uxth	r3, r1
 493 000e 5A1E     		subs	r2, r3, #1
 494 0010 12B2     		sxth	r2, r2
 495 0012 8283     		strh	r2, [r0, #28]	@ movhi
 496              	.LBE36:
 497              	.LBE37:
 498              		.loc 1 152 0
 499 0014 37F91110 		ldrsh	r1, [r7, r1, lsl #1]
 500 0018 36F81110 		ldrh	r1, [r6, r1, lsl #1]
 501              	.LVL32:
 502              		.loc 1 151 0
 503 001c 2E68     		ldr	r6, [r5]
 504 001e 83B0     		sub	sp, sp, #12
 505              		.cfi_def_cfa_offset 32
 506              	.LBB38:
 507              	.LBB39:
 508              		.loc 4 90 0
 509 0020 023B     		subs	r3, r3, #2
 510              	.LBE39:
 511              	.LBE38:
 512              		.loc 1 154 0
 513 0022 1F29     		cmp	r1, #31
ARM GAS  C:\Users\mathi\AppData\Local\Temp\ccr0Ufef.s 			page 10


 514              		.loc 1 151 0
 515 0024 0196     		str	r6, [sp, #4]
 516              	.LBB42:
 517              	.LBB40:
 518              		.loc 4 90 0
 519 0026 8383     		strh	r3, [r0, #28]	@ movhi
 520              	.LVL33:
 521              	.LBE40:
 522              	.LBE42:
 523              		.loc 1 154 0
 524 0028 09D9     		bls	.L47
 525              		.loc 1 157 0
 526 002a 019A     		ldr	r2, [sp, #4]
 527              	.LVL34:
 528 002c 2B68     		ldr	r3, [r5]
 529              	.LVL35:
 530 002e 9A42     		cmp	r2, r3
 531 0030 19D1     		bne	.L45
 532 0032 0F49     		ldr	r1, .L48+4
 533              	.LVL36:
 534              		.loc 1 159 0
 535 0034 03B0     		add	sp, sp, #12
 536              		.cfi_remember_state
 537              		.cfi_def_cfa_offset 20
 538              		@ sp needed
 539 0036 BDE8F040 		pop	{r4, r5, r6, r7, lr}
 540              		.cfi_restore 14
 541              		.cfi_restore 7
 542              		.cfi_restore 6
 543              		.cfi_restore 5
 544              		.cfi_restore 4
 545              		.cfi_def_cfa_offset 0
 546              		.loc 1 157 0
 547 003a FFF7FEBF 		b	AsebaVMEmitNodeSpecificError
 548              	.LVL37:
 549              	.L47:
 550              		.cfi_restore_state
 551 003e 0446     		mov	r4, r0
 552              		.loc 1 155 0
 553 0040 0C48     		ldr	r0, .L48+8
 554              	.LVL38:
 555              	.LBB43:
 556              	.LBB41:
 557              		.loc 4 90 0
 558 0042 37F91260 		ldrsh	r6, [r7, r2, lsl #1]
 559              	.LBE41:
 560              	.LBE43:
 561              		.loc 1 155 0
 562 0046 01EB4101 		add	r1, r1, r1, lsl #1
 563              	.LVL39:
 564 004a 00EBC100 		add	r0, r0, r1, lsl #3
 565 004e FFF7FEFF 		bl	parameter_integer_get
 566              	.LVL40:
 567 0052 B6B2     		uxth	r6, r6
 568 0054 E368     		ldr	r3, [r4, #12]
 569              		.loc 1 159 0
 570 0056 019A     		ldr	r2, [sp, #4]
ARM GAS  C:\Users\mathi\AppData\Local\Temp\ccr0Ufef.s 			page 11


 571              		.loc 1 155 0
 572 0058 23F81600 		strh	r0, [r3, r6, lsl #1]	@ movhi
 573              		.loc 1 159 0
 574 005c 2B68     		ldr	r3, [r5]
 575 005e 9A42     		cmp	r2, r3
 576 0060 01D1     		bne	.L45
 577 0062 03B0     		add	sp, sp, #12
 578              		.cfi_remember_state
 579              		.cfi_def_cfa_offset 20
 580              		@ sp needed
 581 0064 F0BD     		pop	{r4, r5, r6, r7, pc}
 582              	.LVL41:
 583              	.L45:
 584              		.cfi_restore_state
 585 0066 FFF7FEFF 		bl	__stack_chk_fail
 586              	.LVL42:
 587              	.L49:
 588 006a 00BF     		.align	2
 589              	.L48:
 590 006c 00000000 		.word	__stack_chk_guard
 591 0070 00000000 		.word	.LC1
 592 0074 00000000 		.word	.LANCHOR1
 593              		.cfi_endproc
 594              	.LFE267:
 595              		.size	AsebaNative__system_settings_read, .-AsebaNative__system_settings_read
 596              		.section	.text.aseba_variables_init,"ax",%progbits
 597              		.align	1
 598              		.p2align 4,,15
 599              		.global	aseba_variables_init
 600              		.syntax unified
 601              		.thumb
 602              		.thumb_func
 603              		.fpu fpv4-sp-d16
 604              		.type	aseba_variables_init, %function
 605              	aseba_variables_init:
 606              	.LFB260:
 607              		.loc 1 57 0
 608              		.cfi_startproc
 609              		@ args = 0, pretend = 0, frame = 8
 610              		@ frame_needed = 0, uses_anonymous_args = 0
 611              	.LVL43:
 612 0000 2DE9F043 		push	{r4, r5, r6, r7, r8, r9, lr}
 613              		.cfi_def_cfa_offset 28
 614              		.cfi_offset 4, -28
 615              		.cfi_offset 5, -24
 616              		.cfi_offset 6, -20
 617              		.cfi_offset 7, -16
 618              		.cfi_offset 8, -12
 619              		.cfi_offset 9, -8
 620              		.cfi_offset 14, -4
 621 0004 DFF87090 		ldr	r9, .L56+16
 622              		.loc 1 59 0
 623 0008 174B     		ldr	r3, .L56
 624              		.loc 1 57 0
 625 000a D9F80020 		ldr	r2, [r9]
 626 000e 174D     		ldr	r5, .L56+4
 627 0010 174E     		ldr	r6, .L56+8
ARM GAS  C:\Users\mathi\AppData\Local\Temp\ccr0Ufef.s 			page 12


 628              		.loc 1 70 0
 629 0012 184F     		ldr	r7, .L56+12
 630              		.loc 1 57 0
 631 0014 83B0     		sub	sp, sp, #12
 632              		.cfi_def_cfa_offset 40
 633              		.loc 1 57 0
 634 0016 8046     		mov	r8, r0
 635 0018 0192     		str	r2, [sp, #4]
 636              		.loc 1 59 0
 637 001a 1846     		mov	r0, r3
 638              	.LVL44:
 639 001c 40F27622 		movw	r2, #630
 640 0020 0021     		movs	r1, #0
 641 0022 FFF7FEFF 		bl	memset
 642              	.LVL45:
 643              		.loc 1 63 0
 644 0026 0122     		movs	r2, #1
 645 0028 A0F84620 		strh	r2, [r0, #70]	@ movhi
 646              	.LVL46:
 647              		.loc 1 69 0
 648 002c 1F24     		movs	r4, #31
 649              	.LVL47:
 650              	.L51:
 651              		.loc 1 70 0 discriminator 3
 652 002e 2246     		mov	r2, r4
 653 0030 3946     		mov	r1, r7
 654 0032 2846     		mov	r0, r5
 655 0034 FFF7FEFF 		bl	sprintf
 656              	.LVL48:
 657              		.loc 1 69 0 discriminator 3
 658 0038 013C     		subs	r4, r4, #1
 659              	.LVL49:
 660              		.loc 1 71 0 discriminator 3
 661 003a 0023     		movs	r3, #0
 662 003c 2A46     		mov	r2, r5
 663 003e 3046     		mov	r0, r6
 664 0040 4146     		mov	r1, r8
 665 0042 FFF7FEFF 		bl	parameter_integer_declare_with_default
 666              	.LVL50:
 667              		.loc 1 69 0 discriminator 3
 668 0046 631C     		adds	r3, r4, #1
 669 0048 A5F10A05 		sub	r5, r5, #10
 670 004c A6F11806 		sub	r6, r6, #24
 671 0050 EDD1     		bne	.L51
 672              		.loc 1 76 0
 673 0052 019A     		ldr	r2, [sp, #4]
 674 0054 D9F80030 		ldr	r3, [r9]
 675 0058 9A42     		cmp	r2, r3
 676 005a 02D1     		bne	.L55
 677 005c 03B0     		add	sp, sp, #12
 678              		.cfi_remember_state
 679              		.cfi_def_cfa_offset 28
 680              		@ sp needed
 681 005e BDE8F083 		pop	{r4, r5, r6, r7, r8, r9, pc}
 682              	.LVL51:
 683              	.L55:
 684              		.cfi_restore_state
ARM GAS  C:\Users\mathi\AppData\Local\Temp\ccr0Ufef.s 			page 13


 685 0062 FFF7FEFF 		bl	__stack_chk_fail
 686              	.LVL52:
 687              	.L57:
 688 0066 00BF     		.align	2
 689              	.L56:
 690 0068 00000000 		.word	.LANCHOR0
 691 006c 36010000 		.word	.LANCHOR2+310
 692 0070 E8020000 		.word	.LANCHOR1+744
 693 0074 00000000 		.word	.LC2
 694 0078 00000000 		.word	__stack_chk_guard
 695              		.cfi_endproc
 696              	.LFE260:
 697              		.size	aseba_variables_init, .-aseba_variables_init
 698              		.section	.text.aseba_read_variables_from_system,"ax",%progbits
 699              		.align	1
 700              		.p2align 4,,15
 701              		.global	aseba_read_variables_from_system
 702              		.syntax unified
 703              		.thumb
 704              		.thumb_func
 705              		.fpu fpv4-sp-d16
 706              		.type	aseba_read_variables_from_system, %function
 707              	aseba_read_variables_from_system:
 708              	.LFB261:
 709              		.loc 1 79 0
 710              		.cfi_startproc
 711              		@ args = 0, pretend = 0, frame = 8
 712              		@ frame_needed = 0, uses_anonymous_args = 0
 713              	.LVL53:
 714 0000 00B5     		push	{lr}
 715              		.cfi_def_cfa_offset 4
 716              		.cfi_offset 14, -4
 717 0002 084B     		ldr	r3, .L62
 718              		.loc 1 80 0
 719 0004 0849     		ldr	r1, .L62+4
 720              		.loc 1 79 0
 721 0006 1A68     		ldr	r2, [r3]
 722              		.loc 1 80 0
 723 0008 0088     		ldrh	r0, [r0]
 724              	.LVL54:
 725 000a 0880     		strh	r0, [r1]	@ movhi
 726              		.loc 1 79 0
 727 000c 83B0     		sub	sp, sp, #12
 728              		.cfi_def_cfa_offset 16
 729              		.loc 1 79 0
 730 000e 0192     		str	r2, [sp, #4]
 731              		.loc 1 81 0
 732 0010 019A     		ldr	r2, [sp, #4]
 733 0012 1B68     		ldr	r3, [r3]
 734 0014 9A42     		cmp	r2, r3
 735 0016 02D1     		bne	.L61
 736 0018 03B0     		add	sp, sp, #12
 737              		.cfi_remember_state
 738              		.cfi_def_cfa_offset 4
 739              		@ sp needed
 740 001a 5DF804FB 		ldr	pc, [sp], #4
 741              	.L61:
ARM GAS  C:\Users\mathi\AppData\Local\Temp\ccr0Ufef.s 			page 14


 742              		.cfi_restore_state
 743 001e FFF7FEFF 		bl	__stack_chk_fail
 744              	.LVL55:
 745              	.L63:
 746 0022 00BF     		.align	2
 747              	.L62:
 748 0024 00000000 		.word	__stack_chk_guard
 749 0028 00000000 		.word	.LANCHOR0
 750              		.cfi_endproc
 751              	.LFE261:
 752              		.size	aseba_read_variables_from_system, .-aseba_read_variables_from_system
 753              		.section	.text.imu_cb,"ax",%progbits
 754              		.align	1
 755              		.p2align 4,,15
 756              		.global	imu_cb
 757              		.syntax unified
 758              		.thumb
 759              		.thumb_func
 760              		.fpu fpv4-sp-d16
 761              		.type	imu_cb, %function
 762              	imu_cb:
 763              	.LFB263:
 764              		.loc 1 93 0
 765              		.cfi_startproc
 766              		@ args = 0, pretend = 0, frame = 8
 767              		@ frame_needed = 0, uses_anonymous_args = 0
 768 0000 70B5     		push	{r4, r5, r6, lr}
 769              		.cfi_def_cfa_offset 16
 770              		.cfi_offset 4, -16
 771              		.cfi_offset 5, -12
 772              		.cfi_offset 6, -8
 773              		.cfi_offset 14, -4
 774 0002 2DED028B 		vpush.64	{d8}
 775              		.cfi_def_cfa_offset 24
 776              		.cfi_offset 80, -24
 777              		.cfi_offset 81, -20
 778 0006 234D     		ldr	r5, .L68
 779              		.loc 1 94 0
 780 0008 9FED238A 		vldr.32	s16, .L68+4
 781              		.loc 1 93 0
 782 000c 2B68     		ldr	r3, [r5]
 783              		.loc 1 94 0
 784 000e 234C     		ldr	r4, .L68+8
 785              		.loc 1 93 0
 786 0010 82B0     		sub	sp, sp, #8
 787              		.cfi_def_cfa_offset 32
 788              		.loc 1 94 0
 789 0012 0020     		movs	r0, #0
 790              		.loc 1 93 0
 791 0014 0193     		str	r3, [sp, #4]
 792              		.loc 1 94 0
 793 0016 FFF7FEFF 		bl	get_acceleration
 794              	.LVL56:
 795 001a 20EE080A 		vmul.f32	s0, s0, s16
 796              		.loc 1 95 0
 797 001e 0120     		movs	r0, #1
 798              		.loc 1 94 0
ARM GAS  C:\Users\mathi\AppData\Local\Temp\ccr0Ufef.s 			page 15


 799 0020 BDEEC00A 		vcvt.s32.f32	s0, s0
 800 0024 10EE103A 		vmov	r3, s0	@ int
 801 0028 A4F86A30 		strh	r3, [r4, #106]	@ movhi
 802              		.loc 1 95 0
 803 002c FFF7FEFF 		bl	get_acceleration
 804              	.LVL57:
 805 0030 20EE080A 		vmul.f32	s0, s0, s16
 806              		.loc 1 96 0
 807 0034 0220     		movs	r0, #2
 808              		.loc 1 95 0
 809 0036 BDEEC00A 		vcvt.s32.f32	s0, s0
 810 003a 10EE103A 		vmov	r3, s0	@ int
 811 003e A4F86C30 		strh	r3, [r4, #108]	@ movhi
 812              		.loc 1 96 0
 813 0042 FFF7FEFF 		bl	get_acceleration
 814              	.LVL58:
 815 0046 20EE080A 		vmul.f32	s0, s0, s16
 816              		.loc 1 98 0
 817 004a 0020     		movs	r0, #0
 818              		.loc 1 96 0
 819 004c BDEEC00A 		vcvt.s32.f32	s0, s0
 820 0050 10EE103A 		vmov	r3, s0	@ int
 821 0054 A4F86E30 		strh	r3, [r4, #110]	@ movhi
 822              		.loc 1 98 0
 823 0058 FFF7FEFF 		bl	get_gyro
 824              	.LVL59:
 825 005c A4F87000 		strh	r0, [r4, #112]	@ movhi
 826              		.loc 1 99 0
 827 0060 0120     		movs	r0, #1
 828 0062 FFF7FEFF 		bl	get_gyro
 829              	.LVL60:
 830 0066 A4F87200 		strh	r0, [r4, #114]	@ movhi
 831              		.loc 1 100 0
 832 006a 0220     		movs	r0, #2
 833 006c FFF7FEFF 		bl	get_gyro
 834              	.LVL61:
 835              		.loc 1 102 0
 836 0070 0B4A     		ldr	r2, .L68+12
 837              		.loc 1 103 0
 838 0072 019E     		ldr	r6, [sp, #4]
 839              		.loc 1 102 0
 840 0074 1368     		ldr	r3, [r2]
 841              		.loc 1 103 0
 842 0076 2968     		ldr	r1, [r5]
 843              		.loc 1 100 0
 844 0078 A4F87400 		strh	r0, [r4, #116]	@ movhi
 845              		.loc 1 102 0
 846 007c 43F00103 		orr	r3, r3, #1
 847              		.loc 1 103 0
 848 0080 8E42     		cmp	r6, r1
 849              		.loc 1 102 0
 850 0082 1360     		str	r3, [r2]
 851              		.loc 1 103 0
 852 0084 03D1     		bne	.L67
 853 0086 02B0     		add	sp, sp, #8
 854              		.cfi_remember_state
 855              		.cfi_def_cfa_offset 24
ARM GAS  C:\Users\mathi\AppData\Local\Temp\ccr0Ufef.s 			page 16


 856              		@ sp needed
 857 0088 BDEC028B 		vldm	sp!, {d8}
 858              		.cfi_restore 80
 859              		.cfi_restore 81
 860              		.cfi_def_cfa_offset 16
 861 008c 70BD     		pop	{r4, r5, r6, pc}
 862              	.L67:
 863              		.cfi_restore_state
 864 008e FFF7FEFF 		bl	__stack_chk_fail
 865              	.LVL62:
 866              	.L69:
 867 0092 00BF     		.align	2
 868              	.L68:
 869 0094 00000000 		.word	__stack_chk_guard
 870 0098 00007A44 		.word	1148846080
 871 009c 00000000 		.word	.LANCHOR0
 872 00a0 00000000 		.word	events_flags
 873              		.cfi_endproc
 874              	.LFE263:
 875              		.size	imu_cb, .-imu_cb
 876              		.section	.text.leds_cb,"ax",%progbits
 877              		.align	1
 878              		.p2align 4,,15
 879              		.global	leds_cb
 880              		.syntax unified
 881              		.thumb
 882              		.thumb_func
 883              		.fpu fpv4-sp-d16
 884              		.type	leds_cb, %function
 885              	leds_cb:
 886              	.LFB264:
 887              		.loc 1 105 0
 888              		.cfi_startproc
 889              		@ args = 0, pretend = 0, frame = 8
 890              		@ frame_needed = 0, uses_anonymous_args = 0
 891 0000 30B5     		push	{r4, r5, lr}
 892              		.cfi_def_cfa_offset 12
 893              		.cfi_offset 4, -12
 894              		.cfi_offset 5, -8
 895              		.cfi_offset 14, -4
 896              		.loc 1 107 0
 897 0002 234C     		ldr	r4, .L75
 898              		.loc 1 105 0
 899 0004 234D     		ldr	r5, .L75+4
 900              		.loc 1 107 0
 901 0006 B4F84A10 		ldrh	r1, [r4, #74]
 902              		.loc 1 105 0
 903 000a 2B68     		ldr	r3, [r5]
 904 000c 83B0     		sub	sp, sp, #12
 905              		.cfi_def_cfa_offset 24
 906              		.loc 1 107 0
 907 000e 0020     		movs	r0, #0
 908              		.loc 1 105 0
 909 0010 0193     		str	r3, [sp, #4]
 910              		.loc 1 107 0
 911 0012 FFF7FEFF 		bl	set_led
 912              	.LVL63:
ARM GAS  C:\Users\mathi\AppData\Local\Temp\ccr0Ufef.s 			page 17


 913              		.loc 1 108 0
 914 0016 94F85030 		ldrb	r3, [r4, #80]	@ zero_extendqisi2
 915 001a 94F84E20 		ldrb	r2, [r4, #78]	@ zero_extendqisi2
 916 001e 94F84C10 		ldrb	r1, [r4, #76]	@ zero_extendqisi2
 917 0022 0020     		movs	r0, #0
 918 0024 FFF7FEFF 		bl	set_rgb_led
 919              	.LVL64:
 920              		.loc 1 109 0
 921 0028 B4F85210 		ldrh	r1, [r4, #82]
 922 002c 0120     		movs	r0, #1
 923 002e FFF7FEFF 		bl	set_led
 924              	.LVL65:
 925              		.loc 1 110 0
 926 0032 94F85830 		ldrb	r3, [r4, #88]	@ zero_extendqisi2
 927 0036 94F85620 		ldrb	r2, [r4, #86]	@ zero_extendqisi2
 928 003a 94F85410 		ldrb	r1, [r4, #84]	@ zero_extendqisi2
 929 003e 0120     		movs	r0, #1
 930 0040 FFF7FEFF 		bl	set_rgb_led
 931              	.LVL66:
 932              		.loc 1 111 0
 933 0044 B4F85A10 		ldrh	r1, [r4, #90]
 934 0048 0220     		movs	r0, #2
 935 004a FFF7FEFF 		bl	set_led
 936              	.LVL67:
 937              		.loc 1 112 0
 938 004e 94F86030 		ldrb	r3, [r4, #96]	@ zero_extendqisi2
 939 0052 94F85E20 		ldrb	r2, [r4, #94]	@ zero_extendqisi2
 940 0056 94F85C10 		ldrb	r1, [r4, #92]	@ zero_extendqisi2
 941 005a 0220     		movs	r0, #2
 942 005c FFF7FEFF 		bl	set_rgb_led
 943              	.LVL68:
 944              		.loc 1 113 0
 945 0060 B4F86210 		ldrh	r1, [r4, #98]
 946 0064 0320     		movs	r0, #3
 947 0066 FFF7FEFF 		bl	set_led
 948              	.LVL69:
 949              		.loc 1 114 0
 950 006a 019A     		ldr	r2, [sp, #4]
 951 006c 2B68     		ldr	r3, [r5]
 952 006e 9A42     		cmp	r2, r3
 953 0070 0BD1     		bne	.L74
 954 0072 94F86830 		ldrb	r3, [r4, #104]	@ zero_extendqisi2
 955 0076 94F86620 		ldrb	r2, [r4, #102]	@ zero_extendqisi2
 956 007a 94F86410 		ldrb	r1, [r4, #100]	@ zero_extendqisi2
 957 007e 0320     		movs	r0, #3
 958              		.loc 1 115 0
 959 0080 03B0     		add	sp, sp, #12
 960              		.cfi_remember_state
 961              		.cfi_def_cfa_offset 12
 962              		@ sp needed
 963 0082 BDE83040 		pop	{r4, r5, lr}
 964              		.cfi_restore 14
 965              		.cfi_restore 5
 966              		.cfi_restore 4
 967              		.cfi_def_cfa_offset 0
 968              		.loc 1 114 0
 969 0086 FFF7FEBF 		b	set_rgb_led
ARM GAS  C:\Users\mathi\AppData\Local\Temp\ccr0Ufef.s 			page 18


 970              	.LVL70:
 971              	.L74:
 972              		.cfi_restore_state
 973 008a FFF7FEFF 		bl	__stack_chk_fail
 974              	.LVL71:
 975              	.L76:
 976 008e 00BF     		.align	2
 977              	.L75:
 978 0090 00000000 		.word	.LANCHOR0
 979 0094 00000000 		.word	__stack_chk_guard
 980              		.cfi_endproc
 981              	.LFE264:
 982              		.size	leds_cb, .-leds_cb
 983              		.section	.text.aseba_write_variables_to_system,"ax",%progbits
 984              		.align	1
 985              		.p2align 4,,15
 986              		.global	aseba_write_variables_to_system
 987              		.syntax unified
 988              		.thumb
 989              		.thumb_func
 990              		.fpu fpv4-sp-d16
 991              		.type	aseba_write_variables_to_system, %function
 992              	aseba_write_variables_to_system:
 993              	.LFB262:
 994              		.loc 1 84 0
 995              		.cfi_startproc
 996              		@ args = 0, pretend = 0, frame = 8
 997              		@ frame_needed = 0, uses_anonymous_args = 0
 998              	.LVL72:
 999 0000 70B5     		push	{r4, r5, r6, lr}
 1000              		.cfi_def_cfa_offset 16
 1001              		.cfi_offset 4, -16
 1002              		.cfi_offset 5, -12
 1003              		.cfi_offset 6, -8
 1004              		.cfi_offset 14, -4
 1005 0002 2DED028B 		vpush.64	{d8}
 1006              		.cfi_def_cfa_offset 24
 1007              		.cfi_offset 80, -24
 1008              		.cfi_offset 81, -20
 1009 0006 244D     		ldr	r5, .L82
 1010              	.LBB46:
 1011              	.LBB47:
 1012              		.loc 1 94 0
 1013 0008 9FED248A 		vldr.32	s16, .L82+4
 1014              	.LBE47:
 1015              	.LBE46:
 1016              		.loc 1 84 0
 1017 000c 2B68     		ldr	r3, [r5]
 1018              	.LBB54:
 1019              	.LBB48:
 1020              		.loc 1 94 0
 1021 000e 244C     		ldr	r4, .L82+8
 1022              	.LBE48:
 1023              	.LBE54:
 1024              		.loc 1 84 0
 1025 0010 82B0     		sub	sp, sp, #8
 1026              		.cfi_def_cfa_offset 32
ARM GAS  C:\Users\mathi\AppData\Local\Temp\ccr0Ufef.s 			page 19


 1027              	.LBB55:
 1028              	.LBB49:
 1029              		.loc 1 94 0
 1030 0012 0020     		movs	r0, #0
 1031              	.LVL73:
 1032              	.LBE49:
 1033              	.LBE55:
 1034              		.loc 1 84 0
 1035 0014 0193     		str	r3, [sp, #4]
 1036              	.LBB56:
 1037              	.LBB50:
 1038              		.loc 1 94 0
 1039 0016 FFF7FEFF 		bl	get_acceleration
 1040              	.LVL74:
 1041 001a 20EE080A 		vmul.f32	s0, s0, s16
 1042              		.loc 1 95 0
 1043 001e 0120     		movs	r0, #1
 1044              		.loc 1 94 0
 1045 0020 BDEEC00A 		vcvt.s32.f32	s0, s0
 1046 0024 10EE103A 		vmov	r3, s0	@ int
 1047 0028 A4F86A30 		strh	r3, [r4, #106]	@ movhi
 1048              		.loc 1 95 0
 1049 002c FFF7FEFF 		bl	get_acceleration
 1050              	.LVL75:
 1051 0030 20EE080A 		vmul.f32	s0, s0, s16
 1052              		.loc 1 96 0
 1053 0034 0220     		movs	r0, #2
 1054              		.loc 1 95 0
 1055 0036 BDEEC00A 		vcvt.s32.f32	s0, s0
 1056 003a 10EE103A 		vmov	r3, s0	@ int
 1057 003e A4F86C30 		strh	r3, [r4, #108]	@ movhi
 1058              		.loc 1 96 0
 1059 0042 FFF7FEFF 		bl	get_acceleration
 1060              	.LVL76:
 1061 0046 20EE080A 		vmul.f32	s0, s0, s16
 1062              		.loc 1 98 0
 1063 004a 0020     		movs	r0, #0
 1064              		.loc 1 96 0
 1065 004c BDEEC00A 		vcvt.s32.f32	s0, s0
 1066 0050 10EE103A 		vmov	r3, s0	@ int
 1067 0054 A4F86E30 		strh	r3, [r4, #110]	@ movhi
 1068              		.loc 1 98 0
 1069 0058 FFF7FEFF 		bl	get_gyro
 1070              	.LVL77:
 1071 005c A4F87000 		strh	r0, [r4, #112]	@ movhi
 1072              		.loc 1 99 0
 1073 0060 0120     		movs	r0, #1
 1074 0062 FFF7FEFF 		bl	get_gyro
 1075              	.LVL78:
 1076 0066 A4F87200 		strh	r0, [r4, #114]	@ movhi
 1077              		.loc 1 100 0
 1078 006a 0220     		movs	r0, #2
 1079 006c FFF7FEFF 		bl	get_gyro
 1080              	.LVL79:
 1081              		.loc 1 102 0
 1082 0070 0C4A     		ldr	r2, .L82+12
 1083              	.LBE50:
ARM GAS  C:\Users\mathi\AppData\Local\Temp\ccr0Ufef.s 			page 20


 1084              	.LBE56:
 1085              		.loc 1 88 0
 1086 0072 019E     		ldr	r6, [sp, #4]
 1087              	.LBB57:
 1088              	.LBB51:
 1089              		.loc 1 102 0
 1090 0074 1368     		ldr	r3, [r2]
 1091              	.LBE51:
 1092              	.LBE57:
 1093              		.loc 1 88 0
 1094 0076 2968     		ldr	r1, [r5]
 1095              	.LBB58:
 1096              	.LBB52:
 1097              		.loc 1 100 0
 1098 0078 A4F87400 		strh	r0, [r4, #116]	@ movhi
 1099              		.loc 1 102 0
 1100 007c 43F00103 		orr	r3, r3, #1
 1101              	.LBE52:
 1102              	.LBE58:
 1103              		.loc 1 88 0
 1104 0080 8E42     		cmp	r6, r1
 1105              	.LBB59:
 1106              	.LBB53:
 1107              		.loc 1 102 0
 1108 0082 1360     		str	r3, [r2]
 1109              	.LBE53:
 1110              	.LBE59:
 1111              		.loc 1 88 0
 1112 0084 06D1     		bne	.L81
 1113              		.loc 1 89 0
 1114 0086 02B0     		add	sp, sp, #8
 1115              		.cfi_remember_state
 1116              		.cfi_def_cfa_offset 24
 1117              		@ sp needed
 1118 0088 BDEC028B 		vldm	sp!, {d8}
 1119              		.cfi_restore 80
 1120              		.cfi_restore 81
 1121              		.cfi_def_cfa_offset 16
 1122 008c BDE87040 		pop	{r4, r5, r6, lr}
 1123              		.cfi_restore 14
 1124              		.cfi_restore 6
 1125              		.cfi_restore 5
 1126              		.cfi_restore 4
 1127              		.cfi_def_cfa_offset 0
 1128              		.loc 1 88 0
 1129 0090 FFF7FEBF 		b	leds_cb
 1130              	.LVL80:
 1131              	.L81:
 1132              		.cfi_restore_state
 1133 0094 FFF7FEFF 		bl	__stack_chk_fail
 1134              	.LVL81:
 1135              	.L83:
 1136              		.align	2
 1137              	.L82:
 1138 0098 00000000 		.word	__stack_chk_guard
 1139 009c 00007A44 		.word	1148846080
 1140 00a0 00000000 		.word	.LANCHOR0
ARM GAS  C:\Users\mathi\AppData\Local\Temp\ccr0Ufef.s 			page 21


 1141 00a4 00000000 		.word	events_flags
 1142              		.cfi_endproc
 1143              	.LFE262:
 1144              		.size	aseba_write_variables_to_system, .-aseba_write_variables_to_system
 1145              		.section	.text.button_cb,"ax",%progbits
 1146              		.align	1
 1147              		.p2align 4,,15
 1148              		.global	button_cb
 1149              		.syntax unified
 1150              		.thumb
 1151              		.thumb_func
 1152              		.fpu fpv4-sp-d16
 1153              		.type	button_cb, %function
 1154              	button_cb:
 1155              	.LFB265:
 1156              		.loc 1 118 0
 1157              		.cfi_startproc
 1158              		@ args = 0, pretend = 0, frame = 8
 1159              		@ frame_needed = 0, uses_anonymous_args = 0
 1160 0000 00B5     		push	{lr}
 1161              		.cfi_def_cfa_offset 4
 1162              		.cfi_offset 14, -4
 1163 0002 0949     		ldr	r1, .L88
 1164              		.loc 1 119 0
 1165 0004 094A     		ldr	r2, .L88+4
 1166              		.loc 1 118 0
 1167 0006 0B68     		ldr	r3, [r1]
 1168 0008 83B0     		sub	sp, sp, #12
 1169              		.cfi_def_cfa_offset 16
 1170              		.loc 1 118 0
 1171 000a 0193     		str	r3, [sp, #4]
 1172              		.loc 1 120 0
 1173 000c 0198     		ldr	r0, [sp, #4]
 1174              		.loc 1 119 0
 1175 000e 1368     		ldr	r3, [r2]
 1176              		.loc 1 120 0
 1177 0010 0968     		ldr	r1, [r1]
 1178              		.loc 1 119 0
 1179 0012 43F00203 		orr	r3, r3, #2
 1180              		.loc 1 120 0
 1181 0016 8842     		cmp	r0, r1
 1182              		.loc 1 119 0
 1183 0018 1360     		str	r3, [r2]
 1184              		.loc 1 120 0
 1185 001a 02D1     		bne	.L87
 1186 001c 03B0     		add	sp, sp, #12
 1187              		.cfi_remember_state
 1188              		.cfi_def_cfa_offset 4
 1189              		@ sp needed
 1190 001e 5DF804FB 		ldr	pc, [sp], #4
 1191              	.L87:
 1192              		.cfi_restore_state
 1193 0022 FFF7FEFF 		bl	__stack_chk_fail
 1194              	.LVL82:
 1195              	.L89:
 1196 0026 00BF     		.align	2
 1197              	.L88:
ARM GAS  C:\Users\mathi\AppData\Local\Temp\ccr0Ufef.s 			page 22


 1198 0028 00000000 		.word	__stack_chk_guard
 1199 002c 00000000 		.word	events_flags
 1200              		.cfi_endproc
 1201              	.LFE265:
 1202              		.size	button_cb, .-button_cb
 1203              		.global	nativeFunctions_length
 1204              		.global	nativeFunctions
 1205              		.global	nativeFunctionsDescription
 1206              		.global	AsebaNativeDescription_clear_all_leds
 1207              		.global	localEvents
 1208              		.global	vmDescription
 1209              		.global	vmVariables
 1210              		.section	.bss.aseba_settings,"aw",%nobits
 1211              		.align	2
 1212              		.set	.LANCHOR1,. + 0
 1213              		.type	aseba_settings, %object
 1214              		.size	aseba_settings, 768
 1215              	aseba_settings:
 1216 0000 00000000 		.space	768
 1216      00000000 
 1216      00000000 
 1216      00000000 
 1216      00000000 
 1217              		.section	.bss.aseba_settings_name,"aw",%nobits
 1218              		.align	2
 1219              		.set	.LANCHOR2,. + 0
 1220              		.type	aseba_settings_name, %object
 1221              		.size	aseba_settings_name, 320
 1222              	aseba_settings_name:
 1223 0000 00000000 		.space	320
 1223      00000000 
 1223      00000000 
 1223      00000000 
 1223      00000000 
 1224              		.section	.bss.vmVariables,"aw",%nobits
 1225              		.align	2
 1226              		.set	.LANCHOR0,. + 0
 1227              		.type	vmVariables, %object
 1228              		.size	vmVariables, 630
 1229              	vmVariables:
 1230 0000 00000000 		.space	630
 1230      00000000 
 1230      00000000 
 1230      00000000 
 1230      00000000 
 1231              		.section	.data.AsebaNativeDescription__system_reboot,"aw",%progbits
 1232              		.align	2
 1233              		.type	AsebaNativeDescription__system_reboot, %object
 1234              		.size	AsebaNativeDescription__system_reboot, 16
 1235              	AsebaNativeDescription__system_reboot:
 1236 0000 04010000 		.word	.LC15
 1237 0004 14010000 		.word	.LC16
 1238 0008 0000     		.short	0
 1239 000a 0000     		.space	2
 1240 000c 00000000 		.word	0
 1241              		.section	.data.AsebaNativeDescription__system_settings_read,"aw",%progbits
 1242              		.align	2
ARM GAS  C:\Users\mathi\AppData\Local\Temp\ccr0Ufef.s 			page 23


 1243              		.type	AsebaNativeDescription__system_settings_read, %object
 1244              		.size	AsebaNativeDescription__system_settings_read, 32
 1245              	AsebaNativeDescription__system_settings_read:
 1246 0000 DC000000 		.word	.LC13
 1247 0004 F4000000 		.word	.LC14
 1248 0008 0100     		.short	1
 1249 000a 0000     		.space	2
 1250 000c CC000000 		.word	.LC11
 1251 0010 0100     		.short	1
 1252 0012 0000     		.space	2
 1253 0014 D4000000 		.word	.LC12
 1254 0018 0000     		.short	0
 1255 001a 0000     		.space	2
 1256 001c 00000000 		.word	0
 1257              		.section	.data.AsebaNativeDescription__system_settings_write,"aw",%progbits
 1258              		.align	2
 1259              		.type	AsebaNativeDescription__system_settings_write, %object
 1260              		.size	AsebaNativeDescription__system_settings_write, 32
 1261              	AsebaNativeDescription__system_settings_write:
 1262 0000 A4000000 		.word	.LC9
 1263 0004 BC000000 		.word	.LC10
 1264 0008 0100     		.short	1
 1265 000a 0000     		.space	2
 1266 000c CC000000 		.word	.LC11
 1267 0010 0100     		.short	1
 1268 0012 0000     		.space	2
 1269 0014 D4000000 		.word	.LC12
 1270 0018 0000     		.short	0
 1271 001a 0000     		.space	2
 1272 001c 00000000 		.word	0
 1273              		.section	.data.AsebaNativeDescription_clear_all_leds,"aw",%progbits
 1274              		.align	2
 1275              		.type	AsebaNativeDescription_clear_all_leds, %object
 1276              		.size	AsebaNativeDescription_clear_all_leds, 16
 1277              	AsebaNativeDescription_clear_all_leds:
 1278 0000 00000000 		.word	.LC3
 1279 0004 10000000 		.word	.LC4
 1280 0008 0000     		.short	0
 1281 000a 0000     		.space	2
 1282 000c 00000000 		.word	0
 1283              		.section	.data.AsebaNativeDescription_settings_erase,"aw",%progbits
 1284              		.align	2
 1285              		.type	AsebaNativeDescription_settings_erase, %object
 1286              		.size	AsebaNativeDescription_settings_erase, 16
 1287              	AsebaNativeDescription_settings_erase:
 1288 0000 24000000 		.word	.LC5
 1289 0004 3C000000 		.word	.LC6
 1290 0008 0000     		.short	0
 1291 000a 0000     		.space	2
 1292 000c 00000000 		.word	0
 1293              		.section	.data.AsebaNativeDescription_settings_save,"aw",%progbits
 1294              		.align	2
 1295              		.type	AsebaNativeDescription_settings_save, %object
 1296              		.size	AsebaNativeDescription_settings_save, 16
 1297              	AsebaNativeDescription_settings_save:
 1298 0000 70000000 		.word	.LC7
 1299 0004 88000000 		.word	.LC8
ARM GAS  C:\Users\mathi\AppData\Local\Temp\ccr0Ufef.s 			page 24


 1300 0008 0000     		.short	0
 1301 000a 0000     		.space	2
 1302 000c 00000000 		.word	0
 1303              		.section	.data.nativeFunctions,"aw",%progbits
 1304              		.align	2
 1305              		.type	nativeFunctions, %object
 1306              		.size	nativeFunctions, 108
 1307              	nativeFunctions:
 1308 0000 00000000 		.word	AsebaNative__system_reboot
 1309 0004 00000000 		.word	AsebaNative__system_settings_read
 1310 0008 00000000 		.word	AsebaNative__system_settings_write
 1311 000c 00000000 		.word	AsebaNative_settings_save
 1312 0010 00000000 		.word	AsebaNative_settings_erase
 1313 0014 00000000 		.word	clear_all_leds
 1314 0018 00000000 		.word	AsebaNative_veccopy
 1315 001c 00000000 		.word	AsebaNative_vecfill
 1316 0020 00000000 		.word	AsebaNative_vecaddscalar
 1317 0024 00000000 		.word	AsebaNative_vecadd
 1318 0028 00000000 		.word	AsebaNative_vecsub
 1319 002c 00000000 		.word	AsebaNative_vecmul
 1320 0030 00000000 		.word	AsebaNative_vecdiv
 1321 0034 00000000 		.word	AsebaNative_vecmin
 1322 0038 00000000 		.word	AsebaNative_vecmax
 1323 003c 00000000 		.word	AsebaNative_vecclamp
 1324 0040 00000000 		.word	AsebaNative_vecdot
 1325 0044 00000000 		.word	AsebaNative_vecstat
 1326 0048 00000000 		.word	AsebaNative_vecargbounds
 1327 004c 00000000 		.word	AsebaNative_vecsort
 1328 0050 00000000 		.word	AsebaNative_mathmuldiv
 1329 0054 00000000 		.word	AsebaNative_mathatan2
 1330 0058 00000000 		.word	AsebaNative_mathsin
 1331 005c 00000000 		.word	AsebaNative_mathcos
 1332 0060 00000000 		.word	AsebaNative_mathrot2
 1333 0064 00000000 		.word	AsebaNative_mathsqrt
 1334 0068 00000000 		.word	AsebaNative_rand
 1335              		.section	.data.nativeFunctionsDescription,"aw",%progbits
 1336              		.align	2
 1337              		.type	nativeFunctionsDescription, %object
 1338              		.size	nativeFunctionsDescription, 112
 1339              	nativeFunctionsDescription:
 1340 0000 00000000 		.word	AsebaNativeDescription__system_reboot
 1341 0004 00000000 		.word	AsebaNativeDescription__system_settings_read
 1342 0008 00000000 		.word	AsebaNativeDescription__system_settings_write
 1343 000c 00000000 		.word	AsebaNativeDescription_settings_save
 1344 0010 00000000 		.word	AsebaNativeDescription_settings_erase
 1345 0014 00000000 		.word	AsebaNativeDescription_clear_all_leds
 1346 0018 00000000 		.word	AsebaNativeDescription_veccopy
 1347 001c 00000000 		.word	AsebaNativeDescription_vecfill
 1348 0020 00000000 		.word	AsebaNativeDescription_vecaddscalar
 1349 0024 00000000 		.word	AsebaNativeDescription_vecadd
 1350 0028 00000000 		.word	AsebaNativeDescription_vecsub
 1351 002c 00000000 		.word	AsebaNativeDescription_vecmul
 1352 0030 00000000 		.word	AsebaNativeDescription_vecdiv
 1353 0034 00000000 		.word	AsebaNativeDescription_vecmin
 1354 0038 00000000 		.word	AsebaNativeDescription_vecmax
 1355 003c 00000000 		.word	AsebaNativeDescription_vecclamp
 1356 0040 00000000 		.word	AsebaNativeDescription_vecdot
ARM GAS  C:\Users\mathi\AppData\Local\Temp\ccr0Ufef.s 			page 25


 1357 0044 00000000 		.word	AsebaNativeDescription_vecstat
 1358 0048 00000000 		.word	AsebaNativeDescription_vecargbounds
 1359 004c 00000000 		.word	AsebaNativeDescription_vecsort
 1360 0050 00000000 		.word	AsebaNativeDescription_mathmuldiv
 1361 0054 00000000 		.word	AsebaNativeDescription_mathatan2
 1362 0058 00000000 		.word	AsebaNativeDescription_mathsin
 1363 005c 00000000 		.word	AsebaNativeDescription_mathcos
 1364 0060 00000000 		.word	AsebaNativeDescription_mathrot2
 1365 0064 00000000 		.word	AsebaNativeDescription_mathsqrt
 1366 0068 00000000 		.word	AsebaNativeDescription_rand
 1367 006c 00000000 		.word	0
 1368              		.section	.rodata.AsebaNative__system_settings_write.str1.4,"aMS",%progbits,1
 1369              		.align	2
 1370              	.LC1:
 1371 0000 496E7661 		.ascii	"Invalid settings address.\000"
 1371      6C696420 
 1371      73657474 
 1371      696E6773 
 1371      20616464 
 1372              		.section	.rodata.AsebaNative_settings_save.str1.4,"aMS",%progbits,1
 1373              		.align	2
 1374              	.LC0:
 1375 0000 436F6E66 		.ascii	"Config save failed!\000"
 1375      69672073 
 1375      61766520 
 1375      6661696C 
 1375      65642100 
 1376              		.section	.rodata.aseba_variables_init.str1.4,"aMS",%progbits,1
 1377              		.align	2
 1378              	.LC2:
 1379 0000 256400   		.ascii	"%d\000"
 1380              		.section	.rodata.localEvents,"a",%progbits
 1381              		.align	2
 1382              		.type	localEvents, %object
 1383              		.size	localEvents, 24
 1384              	localEvents:
 1385 0000 30010000 		.word	.LC17
 1386 0004 38010000 		.word	.LC18
 1387 0008 4C010000 		.word	.LC19
 1388 000c 54010000 		.word	.LC20
 1389 0010 00000000 		.word	0
 1390 0014 00000000 		.word	0
 1391              		.section	.rodata.nativeFunctions_length,"a",%progbits
 1392              		.align	2
 1393              		.type	nativeFunctions_length, %object
 1394              		.size	nativeFunctions_length, 4
 1395              	nativeFunctions_length:
 1396 0000 1B000000 		.word	27
 1397              		.section	.rodata.str1.4,"aMS",%progbits,1
 1398              		.align	2
 1399              	.LC3:
 1400 0000 6C656473 		.ascii	"leds.clear_all\000"
 1400      2E636C65 
 1400      61725F61 
 1400      6C6C00
 1401 000f 00       		.space	1
 1402              	.LC4:
ARM GAS  C:\Users\mathi\AppData\Local\Temp\ccr0Ufef.s 			page 26


 1403 0010 436C6561 		.ascii	"Clear all the LEDs\000"
 1403      7220616C 
 1403      6C207468 
 1403      65204C45 
 1403      447300
 1404 0023 00       		.space	1
 1405              	.LC5:
 1406 0024 5F737973 		.ascii	"_system.settings.erase\000"
 1406      74656D2E 
 1406      73657474 
 1406      696E6773 
 1406      2E657261 
 1407 003b 00       		.space	1
 1408              	.LC6:
 1409 003c 52657374 		.ascii	"Restore settings to default value (erases flash)\000"
 1409      6F726520 
 1409      73657474 
 1409      696E6773 
 1409      20746F20 
 1410 006d 000000   		.space	3
 1411              	.LC7:
 1412 0070 5F737973 		.ascii	"_system.settings.flash\000"
 1412      74656D2E 
 1412      73657474 
 1412      696E6773 
 1412      2E666C61 
 1413 0087 00       		.space	1
 1414              	.LC8:
 1415 0088 53617665 		.ascii	"Save settings into flash\000"
 1415      20736574 
 1415      74696E67 
 1415      7320696E 
 1415      746F2066 
 1416 00a1 000000   		.space	3
 1417              	.LC9:
 1418 00a4 5F737973 		.ascii	"_system.settings.write\000"
 1418      74656D2E 
 1418      73657474 
 1418      696E6773 
 1418      2E777269 
 1419 00bb 00       		.space	1
 1420              	.LC10:
 1421 00bc 57726974 		.ascii	"Write a setting\000"
 1421      65206120 
 1421      73657474 
 1421      696E6700 
 1422              	.LC11:
 1423 00cc 61646472 		.ascii	"address\000"
 1423      65737300 
 1424              	.LC12:
 1425 00d4 76616C75 		.ascii	"value\000"
 1425      6500
 1426 00da 0000     		.space	2
 1427              	.LC13:
 1428 00dc 5F737973 		.ascii	"_system.settings.read\000"
 1428      74656D2E 
 1428      73657474 
ARM GAS  C:\Users\mathi\AppData\Local\Temp\ccr0Ufef.s 			page 27


 1428      696E6773 
 1428      2E726561 
 1429 00f2 0000     		.space	2
 1430              	.LC14:
 1431 00f4 52656164 		.ascii	"Read a setting\000"
 1431      20612073 
 1431      65747469 
 1431      6E6700
 1432 0103 00       		.space	1
 1433              	.LC15:
 1434 0104 5F737973 		.ascii	"_system.reboot\000"
 1434      74656D2E 
 1434      7265626F 
 1434      6F7400
 1435 0113 00       		.space	1
 1436              	.LC16:
 1437 0114 5265626F 		.ascii	"Reboot the microcontroller\000"
 1437      6F742074 
 1437      6865206D 
 1437      6963726F 
 1437      636F6E74 
 1438 012f 00       		.space	1
 1439              	.LC17:
 1440 0130 6E65775F 		.ascii	"new_imu\000"
 1440      696D7500 
 1441              	.LC18:
 1442 0138 4E657720 		.ascii	"New imu measurement\000"
 1442      696D7520 
 1442      6D656173 
 1442      7572656D 
 1442      656E7400 
 1443              	.LC19:
 1444 014c 62757474 		.ascii	"button\000"
 1444      6F6E00
 1445 0153 00       		.space	1
 1446              	.LC20:
 1447 0154 55736572 		.ascii	"User button clicked\000"
 1447      20627574 
 1447      746F6E20 
 1447      636C6963 
 1447      6B656400 
 1448              	.LC21:
 1449 0168 47435472 		.ascii	"GCTronic-MobotsEPFL e-puck V2.0_F\000"
 1449      6F6E6963 
 1449      2D4D6F62 
 1449      6F747345 
 1449      50464C20 
 1450 018a 0000     		.space	2
 1451              	.LC22:
 1452 018c 5F696400 		.ascii	"_id\000"
 1453              	.LC23:
 1454 0190 6576656E 		.ascii	"event.source\000"
 1454      742E736F 
 1454      75726365 
 1454      00
 1455 019d 000000   		.space	3
 1456              	.LC24:
ARM GAS  C:\Users\mathi\AppData\Local\Temp\ccr0Ufef.s 			page 28


 1457 01a0 6576656E 		.ascii	"event.args\000"
 1457      742E6172 
 1457      677300
 1458 01ab 00       		.space	1
 1459              	.LC25:
 1460 01ac 5F667776 		.ascii	"_fwversion\000"
 1460      65727369 
 1460      6F6E00
 1461 01b7 00       		.space	1
 1462              	.LC26:
 1463 01b8 5F70726F 		.ascii	"_productId\000"
 1463      64756374 
 1463      496400
 1464 01c3 00       		.space	1
 1465              	.LC27:
 1466 01c4 6C656431 		.ascii	"led1\000"
 1466      00
 1467 01c9 000000   		.space	3
 1468              	.LC28:
 1469 01cc 6C656432 		.ascii	"led2\000"
 1469      00
 1470 01d1 000000   		.space	3
 1471              	.LC29:
 1472 01d4 6C656433 		.ascii	"led3\000"
 1472      00
 1473 01d9 000000   		.space	3
 1474              	.LC30:
 1475 01dc 6C656434 		.ascii	"led4\000"
 1475      00
 1476 01e1 000000   		.space	3
 1477              	.LC31:
 1478 01e4 6C656435 		.ascii	"led5\000"
 1478      00
 1479 01e9 000000   		.space	3
 1480              	.LC32:
 1481 01ec 6C656436 		.ascii	"led6\000"
 1481      00
 1482 01f1 000000   		.space	3
 1483              	.LC33:
 1484 01f4 6C656437 		.ascii	"led7\000"
 1484      00
 1485 01f9 000000   		.space	3
 1486              	.LC34:
 1487 01fc 6C656438 		.ascii	"led8\000"
 1487      00
 1488 0201 000000   		.space	3
 1489              	.LC35:
 1490 0204 61636300 		.ascii	"acc\000"
 1491              	.LC36:
 1492 0208 6779726F 		.ascii	"gyro\000"
 1492      00
 1493              		.section	.rodata.vmDescription,"a",%progbits
 1494              		.align	2
 1495              		.type	vmDescription, %object
 1496              		.size	vmDescription, 132
 1497              	vmDescription:
 1498 0000 68010000 		.word	.LC21
ARM GAS  C:\Users\mathi\AppData\Local\Temp\ccr0Ufef.s 			page 29


 1499 0004 0100     		.short	1
 1500 0006 0000     		.space	2
 1501 0008 8C010000 		.word	.LC22
 1502 000c 0100     		.short	1
 1503 000e 0000     		.space	2
 1504 0010 90010000 		.word	.LC23
 1505 0014 2000     		.short	32
 1506 0016 0000     		.space	2
 1507 0018 A0010000 		.word	.LC24
 1508 001c 0200     		.short	2
 1509 001e 0000     		.space	2
 1510 0020 AC010000 		.word	.LC25
 1511 0024 0100     		.short	1
 1512 0026 0000     		.space	2
 1513 0028 B8010000 		.word	.LC26
 1514 002c 0100     		.short	1
 1515 002e 0000     		.space	2
 1516 0030 C4010000 		.word	.LC27
 1517 0034 0300     		.short	3
 1518 0036 0000     		.space	2
 1519 0038 CC010000 		.word	.LC28
 1520 003c 0100     		.short	1
 1521 003e 0000     		.space	2
 1522 0040 D4010000 		.word	.LC29
 1523 0044 0300     		.short	3
 1524 0046 0000     		.space	2
 1525 0048 DC010000 		.word	.LC30
 1526 004c 0100     		.short	1
 1527 004e 0000     		.space	2
 1528 0050 E4010000 		.word	.LC31
 1529 0054 0300     		.short	3
 1530 0056 0000     		.space	2
 1531 0058 EC010000 		.word	.LC32
 1532 005c 0100     		.short	1
 1533 005e 0000     		.space	2
 1534 0060 F4010000 		.word	.LC33
 1535 0064 0300     		.short	3
 1536 0066 0000     		.space	2
 1537 0068 FC010000 		.word	.LC34
 1538 006c 0300     		.short	3
 1539 006e 0000     		.space	2
 1540 0070 04020000 		.word	.LC35
 1541 0074 0300     		.short	3
 1542 0076 0000     		.space	2
 1543 0078 08020000 		.word	.LC36
 1544 007c 0000     		.short	0
 1545 007e 0000     		.space	2
 1546 0080 00000000 		.word	0
 1547              		.text
 1548              	.Letext0:
 1549              		.file 5 "c:\\eclipse_e-puck2\\tools\\gcc-arm-none-eabi-7-2017-q4-major-win32\\lib\\gcc\\arm-none-e
 1550              		.file 6 "c:\\eclipse_e-puck2\\tools\\gcc-arm-none-eabi-7-2017-q4-major-win32\\arm-none-eabi\\inclu
 1551              		.file 7 "c:\\eclipse_e-puck2\\tools\\gcc-arm-none-eabi-7-2017-q4-major-win32\\arm-none-eabi\\inclu
 1552              		.file 8 "c:\\eclipse_e-puck2\\tools\\gcc-arm-none-eabi-7-2017-q4-major-win32\\arm-none-eabi\\inclu
 1553              		.file 9 "c:\\eclipse_e-puck2\\tools\\gcc-arm-none-eabi-7-2017-q4-major-win32\\arm-none-eabi\\inclu
 1554              		.file 10 "c:\\eclipse_e-puck2\\tools\\gcc-arm-none-eabi-7-2017-q4-major-win32\\arm-none-eabi\\incl
 1555              		.file 11 "../../lib/e-puck2_main-processor/ChibiOS//os/rt/ports/ARMCMx/compilers/GCC/chtypes.h"
ARM GAS  C:\Users\mathi\AppData\Local\Temp\ccr0Ufef.s 			page 30


 1556              		.file 12 "../../lib/e-puck2_main-processor/ChibiOS//os/rt/include/chsystypes.h"
 1557              		.file 13 "../../lib/e-puck2_main-processor/ChibiOS//os/rt/include/chschd.h"
 1558              		.file 14 "../../lib/e-puck2_main-processor/ChibiOS//os/ext/CMSIS/ST/system_stm32f4xx.h"
 1559              		.file 15 "../../lib/e-puck2_main-processor/ChibiOS//os/ext/CMSIS/ST/stm32f407xx.h"
 1560              		.file 16 "../../lib/e-puck2_main-processor/ChibiOS//os/rt/ports/ARMCMx/chcore.h"
 1561              		.file 17 "../../lib/e-puck2_main-processor/ChibiOS//os/rt/ports/ARMCMx/chcore_v7m.h"
 1562              		.file 18 "../../lib/e-puck2_main-processor/ChibiOS//os/rt/include/chdebug.h"
 1563              		.file 19 "../../lib/e-puck2_main-processor/ChibiOS//os/rt/include/chtm.h"
 1564              		.file 20 "../../lib/e-puck2_main-processor/ChibiOS//os/rt/include/chstats.h"
 1565              		.file 21 "../../lib/e-puck2_main-processor/ChibiOS//os/rt/include/chsem.h"
 1566              		.file 22 "../../lib/e-puck2_main-processor/ChibiOS//os/rt/include/chmtx.h"
 1567              		.file 23 "../../lib/e-puck2_main-processor/ChibiOS//os/rt/include/chregistry.h"
 1568              		.file 24 "../../lib/e-puck2_main-processor/ChibiOS//os/rt/include/chevents.h"
 1569              		.file 25 "../../lib/e-puck2_main-processor/ChibiOS//os/rt/include/chqueues.h"
 1570              		.file 26 "../../lib/e-puck2_main-processor/ChibiOS//os/hal/ports/STM32/STM32F4xx/stm32_dma.h"
 1571              		.file 27 "../../lib/e-puck2_main-processor/ChibiOS//os/hal/include/hal_ioblock.h"
 1572              		.file 28 "../../lib/e-puck2_main-processor/ChibiOS//os/hal/ports/STM32/LLD/GPIOv2/pal_lld.h"
 1573              		.file 29 "../../lib/e-puck2_main-processor/ChibiOS//os/hal/include/adc.h"
 1574              		.file 30 "../../lib/e-puck2_main-processor/ChibiOS//os/hal/ports/STM32/STM32F4xx/adc_lld.h"
 1575              		.file 31 "../../lib/e-puck2_main-processor/ChibiOS//os/hal/include/can.h"
 1576              		.file 32 "../../lib/e-puck2_main-processor/ChibiOS//os/hal/ports/STM32/LLD/can_lld.h"
 1577              		.file 33 "../../lib/e-puck2_main-processor/ChibiOS//os/hal/include/dac.h"
 1578              		.file 34 "../../lib/e-puck2_main-processor/ChibiOS//os/hal/ports/STM32/LLD/DACv1/dac_lld.h"
 1579              		.file 35 "../../lib/e-puck2_main-processor/ChibiOS//os/hal/include/ext.h"
 1580              		.file 36 "../../lib/e-puck2_main-processor/ChibiOS//os/hal/ports/STM32/LLD/ext_lld.h"
 1581              		.file 37 "../../lib/e-puck2_main-processor/ChibiOS//os/hal/include/gpt.h"
 1582              		.file 38 "../../lib/e-puck2_main-processor/ChibiOS//os/hal/ports/STM32/LLD/TIMv1/gpt_lld.h"
 1583              		.file 39 "../../lib/e-puck2_main-processor/ChibiOS//os/hal/ports/STM32/LLD/TIMv1/stm32_tim.h"
 1584              		.file 40 "../../lib/e-puck2_main-processor/ChibiOS//os/hal/include/i2c.h"
 1585              		.file 41 "../../lib/e-puck2_main-processor/ChibiOS//os/hal/ports/STM32/LLD/I2Cv1/i2c_lld.h"
 1586              		.file 42 "../../lib/e-puck2_main-processor/ChibiOS//os/hal/include/i2s.h"
 1587              		.file 43 "../../lib/e-puck2_main-processor/ChibiOS//os/hal/ports/STM32/LLD/SPIv1/i2s_lld.h"
 1588              		.file 44 "../../lib/e-puck2_main-processor/ChibiOS//os/hal/include/pwm.h"
 1589              		.file 45 "../../lib/e-puck2_main-processor/ChibiOS//os/hal/ports/STM32/LLD/TIMv1/pwm_lld.h"
 1590              		.file 46 "../../lib/e-puck2_main-processor/ChibiOS//os/hal/include/serial.h"
 1591              		.file 47 "../../lib/e-puck2_main-processor/ChibiOS//os/hal/ports/STM32/LLD/USARTv1/serial_lld.h"
 1592              		.file 48 "../../lib/e-puck2_main-processor/ChibiOS//os/hal/include/sdc.h"
 1593              		.file 49 "../../lib/e-puck2_main-processor/ChibiOS//os/hal/ports/STM32/LLD/sdc_lld.h"
 1594              		.file 50 "../../lib/e-puck2_main-processor/ChibiOS//os/hal/include/spi.h"
 1595              		.file 51 "../../lib/e-puck2_main-processor/ChibiOS//os/hal/ports/STM32/LLD/SPIv1/spi_lld.h"
 1596              		.file 52 "../../lib/e-puck2_main-processor/ChibiOS//os/hal/include/usb.h"
 1597              		.file 53 "../../lib/e-puck2_main-processor/ChibiOS//os/hal/ports/STM32/LLD/OTGv1/usb_lld.h"
 1598              		.file 54 "../../lib/e-puck2_main-processor/ChibiOS//os/hal/ports/STM32/LLD/OTGv1/stm32_otg.h"
 1599              		.file 55 "c:\\eclipse_e-puck2\\tools\\gcc-arm-none-eabi-7-2017-q4-major-win32\\arm-none-eabi\\incl
 1600              		.file 56 "../../lib/e-puck2_main-processor/aseba/common/types.h"
 1601              		.file 57 "../../lib/e-puck2_main-processor/aseba/vm/vm.h"
 1602              		.file 58 "../../lib/e-puck2_main-processor/src/parameter/parameter.h"
 1603              		.file 59 "../../lib/e-puck2_main-processor/src/aseba_vm/aseba_node.h"
 1604              		.file 60 "../../lib/e-puck2_main-processor/src/sensors/mpu9250.h"
 1605              		.file 61 "../../lib/e-puck2_main-processor/src/leds.h"
 1606              		.file 62 "../../lib/e-puck2_main-processor/src/aseba_vm/skel_user.h"
 1607              		.file 63 "../../lib/e-puck2_main-processor/aseba/common/productids.h"
 1608              		.file 64 "../../lib/e-puck2_main-processor/ChibiOS_ext/os/hal/include/../ports/STM32/STM32F4xx/dcm
 1609              		.file 65 "c:\\eclipse_e-puck2\\tools\\gcc-arm-none-eabi-7-2017-q4-major-win32\\arm-none-eabi\\incl
 1610              		.file 66 "../../lib/e-puck2_main-processor/src/msgbus/messagebus.h"
 1611              		.file 67 "./main.h"
 1612              		.file 68 "../../lib/e-puck2_main-processor/src/config_flash_storage.h"
ARM GAS  C:\Users\mathi\AppData\Local\Temp\ccr0Ufef.s 			page 31


 1613              		.file 69 "../../lib/e-puck2_main-processor/src/sensors/imu.h"
 1614              		.file 70 "c:\\eclipse_e-puck2\\tools\\gcc-arm-none-eabi-7-2017-q4-major-win32\\arm-none-eabi\\incl
 1615              		.file 71 "<built-in>"