ARM GAS  C:\Users\mathi\AppData\Local\Temp\ccmVpADE.s 			page 1


   1              		.cpu cortex-m4
   2              		.eabi_attribute 27, 1
   3              		.eabi_attribute 28, 1
   4              		.eabi_attribute 20, 1
   5              		.eabi_attribute 21, 1
   6              		.eabi_attribute 23, 3
   7              		.eabi_attribute 24, 1
   8              		.eabi_attribute 25, 1
   9              		.eabi_attribute 26, 1
  10              		.eabi_attribute 30, 2
  11              		.eabi_attribute 34, 1
  12              		.eabi_attribute 18, 4
  13              		.file	"stm32_dma.c"
  14              		.text
  15              	.Ltext0:
  16              		.cfi_sections	.debug_frame
  17              		.section	.text.Vector6C,"ax",%progbits
  18              		.align	1
  19              		.p2align 4,,15
  20              		.global	Vector6C
  21              		.syntax unified
  22              		.thumb
  23              		.thumb_func
  24              		.fpu fpv4-sp-d16
  25              		.type	Vector6C, %function
  26              	Vector6C:
  27              	.LFB256:
  28              		.file 1 "../../lib/e-puck2_main-processor/ChibiOS//os/hal/ports/STM32/STM32F4xx/stm32_dma.c"
  29              		.loc 1 127 0
  30              		.cfi_startproc
  31              		@ args = 0, pretend = 0, frame = 8
  32              		@ frame_needed = 0, uses_anonymous_args = 0
  33 0000 10B5     		push	{r4, lr}
  34              		.cfi_def_cfa_offset 8
  35              		.cfi_offset 4, -8
  36              		.cfi_offset 14, -4
  37 0002 0F4C     		ldr	r4, .L11
  38 0004 82B0     		sub	sp, sp, #8
  39              		.cfi_def_cfa_offset 16
  40              		.loc 1 127 0
  41 0006 2368     		ldr	r3, [r4]
  42 0008 0193     		str	r3, [sp, #4]
  43              		.loc 1 130 0
  44 000a FFF7FEFF 		bl	_stats_increase_irq
  45              	.LVL0:
  46 000e FFF7FEFF 		bl	_dbg_check_enter_isr
  47              	.LVL1:
  48              		.loc 1 132 0
  49 0012 0C4B     		ldr	r3, .L11+4
  50              		.loc 1 134 0
  51 0014 0C4A     		ldr	r2, .L11+8
  52              		.loc 1 132 0
  53 0016 1968     		ldr	r1, [r3]
  54 0018 01F03D01 		and	r1, r1, #61
  55              	.LVL2:
  56              		.loc 1 133 0
  57 001c 9960     		str	r1, [r3, #8]
ARM GAS  C:\Users\mathi\AppData\Local\Temp\ccmVpADE.s 			page 2


  58              		.loc 1 134 0
  59 001e 1368     		ldr	r3, [r2]
  60 0020 0BB1     		cbz	r3, .L2
  61              		.loc 1 135 0
  62 0022 5068     		ldr	r0, [r2, #4]
  63 0024 9847     		blx	r3
  64              	.LVL3:
  65              	.L2:
  66              		.loc 1 137 0
  67 0026 FFF7FEFF 		bl	_dbg_check_leave_isr
  68              	.LVL4:
  69 002a 019A     		ldr	r2, [sp, #4]
  70 002c 2368     		ldr	r3, [r4]
  71 002e 9A42     		cmp	r2, r3
  72 0030 04D1     		bne	.L10
  73              		.loc 1 138 0
  74 0032 02B0     		add	sp, sp, #8
  75              		.cfi_remember_state
  76              		.cfi_def_cfa_offset 8
  77              		@ sp needed
  78 0034 BDE81040 		pop	{r4, lr}
  79              		.cfi_restore 14
  80              		.cfi_restore 4
  81              		.cfi_def_cfa_offset 0
  82              		.loc 1 137 0
  83 0038 FFF7FEBF 		b	_port_irq_epilogue
  84              	.LVL5:
  85              	.L10:
  86              		.cfi_restore_state
  87 003c FFF7FEFF 		bl	__stack_chk_fail
  88              	.LVL6:
  89              	.L12:
  90              		.align	2
  91              	.L11:
  92 0040 00000000 		.word	__stack_chk_guard
  93 0044 00600240 		.word	1073897472
  94 0048 00000000 		.word	.LANCHOR0
  95              		.cfi_endproc
  96              	.LFE256:
  97              		.size	Vector6C, .-Vector6C
  98              		.section	.text.Vector70,"ax",%progbits
  99              		.align	1
 100              		.p2align 4,,15
 101              		.global	Vector70
 102              		.syntax unified
 103              		.thumb
 104              		.thumb_func
 105              		.fpu fpv4-sp-d16
 106              		.type	Vector70, %function
 107              	Vector70:
 108              	.LFB257:
 109              		.loc 1 145 0
 110              		.cfi_startproc
 111              		@ args = 0, pretend = 0, frame = 8
 112              		@ frame_needed = 0, uses_anonymous_args = 0
 113 0000 30B5     		push	{r4, r5, lr}
 114              		.cfi_def_cfa_offset 12
ARM GAS  C:\Users\mathi\AppData\Local\Temp\ccmVpADE.s 			page 3


 115              		.cfi_offset 4, -12
 116              		.cfi_offset 5, -8
 117              		.cfi_offset 14, -4
 118 0002 104C     		ldr	r4, .L22
 119 0004 83B0     		sub	sp, sp, #12
 120              		.cfi_def_cfa_offset 24
 121              		.loc 1 145 0
 122 0006 2368     		ldr	r3, [r4]
 123 0008 0193     		str	r3, [sp, #4]
 124              		.loc 1 148 0
 125 000a FFF7FEFF 		bl	_stats_increase_irq
 126              	.LVL7:
 127 000e FFF7FEFF 		bl	_dbg_check_enter_isr
 128              	.LVL8:
 129              		.loc 1 150 0
 130 0012 0D4B     		ldr	r3, .L22+4
 131              		.loc 1 152 0
 132 0014 0D48     		ldr	r0, .L22+8
 133              		.loc 1 150 0
 134 0016 1968     		ldr	r1, [r3]
 135              		.loc 1 152 0
 136 0018 8268     		ldr	r2, [r0, #8]
 137              		.loc 1 150 0
 138 001a 8909     		lsrs	r1, r1, #6
 139 001c 01F03D01 		and	r1, r1, #61
 140              	.LVL9:
 141              		.loc 1 151 0
 142 0020 8D01     		lsls	r5, r1, #6
 143 0022 9D60     		str	r5, [r3, #8]
 144              		.loc 1 152 0
 145 0024 0AB1     		cbz	r2, .L14
 146              		.loc 1 153 0
 147 0026 C068     		ldr	r0, [r0, #12]
 148 0028 9047     		blx	r2
 149              	.LVL10:
 150              	.L14:
 151              		.loc 1 155 0
 152 002a FFF7FEFF 		bl	_dbg_check_leave_isr
 153              	.LVL11:
 154 002e 019A     		ldr	r2, [sp, #4]
 155 0030 2368     		ldr	r3, [r4]
 156 0032 9A42     		cmp	r2, r3
 157 0034 04D1     		bne	.L21
 158              		.loc 1 156 0
 159 0036 03B0     		add	sp, sp, #12
 160              		.cfi_remember_state
 161              		.cfi_def_cfa_offset 12
 162              		@ sp needed
 163 0038 BDE83040 		pop	{r4, r5, lr}
 164              		.cfi_restore 14
 165              		.cfi_restore 5
 166              		.cfi_restore 4
 167              		.cfi_def_cfa_offset 0
 168              		.loc 1 155 0
 169 003c FFF7FEBF 		b	_port_irq_epilogue
 170              	.LVL12:
 171              	.L21:
ARM GAS  C:\Users\mathi\AppData\Local\Temp\ccmVpADE.s 			page 4


 172              		.cfi_restore_state
 173 0040 FFF7FEFF 		bl	__stack_chk_fail
 174              	.LVL13:
 175              	.L23:
 176              		.align	2
 177              	.L22:
 178 0044 00000000 		.word	__stack_chk_guard
 179 0048 00600240 		.word	1073897472
 180 004c 00000000 		.word	.LANCHOR0
 181              		.cfi_endproc
 182              	.LFE257:
 183              		.size	Vector70, .-Vector70
 184              		.section	.text.Vector74,"ax",%progbits
 185              		.align	1
 186              		.p2align 4,,15
 187              		.global	Vector74
 188              		.syntax unified
 189              		.thumb
 190              		.thumb_func
 191              		.fpu fpv4-sp-d16
 192              		.type	Vector74, %function
 193              	Vector74:
 194              	.LFB258:
 195              		.loc 1 163 0
 196              		.cfi_startproc
 197              		@ args = 0, pretend = 0, frame = 8
 198              		@ frame_needed = 0, uses_anonymous_args = 0
 199 0000 30B5     		push	{r4, r5, lr}
 200              		.cfi_def_cfa_offset 12
 201              		.cfi_offset 4, -12
 202              		.cfi_offset 5, -8
 203              		.cfi_offset 14, -4
 204 0002 104C     		ldr	r4, .L33
 205 0004 83B0     		sub	sp, sp, #12
 206              		.cfi_def_cfa_offset 24
 207              		.loc 1 163 0
 208 0006 2368     		ldr	r3, [r4]
 209 0008 0193     		str	r3, [sp, #4]
 210              		.loc 1 166 0
 211 000a FFF7FEFF 		bl	_stats_increase_irq
 212              	.LVL14:
 213 000e FFF7FEFF 		bl	_dbg_check_enter_isr
 214              	.LVL15:
 215              		.loc 1 168 0
 216 0012 0D4B     		ldr	r3, .L33+4
 217              		.loc 1 170 0
 218 0014 0D48     		ldr	r0, .L33+8
 219              		.loc 1 168 0
 220 0016 1968     		ldr	r1, [r3]
 221              		.loc 1 170 0
 222 0018 0269     		ldr	r2, [r0, #16]
 223              		.loc 1 168 0
 224 001a 090C     		lsrs	r1, r1, #16
 225 001c 01F03D01 		and	r1, r1, #61
 226              	.LVL16:
 227              		.loc 1 169 0
 228 0020 0D04     		lsls	r5, r1, #16
ARM GAS  C:\Users\mathi\AppData\Local\Temp\ccmVpADE.s 			page 5


 229 0022 9D60     		str	r5, [r3, #8]
 230              		.loc 1 170 0
 231 0024 0AB1     		cbz	r2, .L25
 232              		.loc 1 171 0
 233 0026 4069     		ldr	r0, [r0, #20]
 234 0028 9047     		blx	r2
 235              	.LVL17:
 236              	.L25:
 237              		.loc 1 173 0
 238 002a FFF7FEFF 		bl	_dbg_check_leave_isr
 239              	.LVL18:
 240 002e 019A     		ldr	r2, [sp, #4]
 241 0030 2368     		ldr	r3, [r4]
 242 0032 9A42     		cmp	r2, r3
 243 0034 04D1     		bne	.L32
 244              		.loc 1 174 0
 245 0036 03B0     		add	sp, sp, #12
 246              		.cfi_remember_state
 247              		.cfi_def_cfa_offset 12
 248              		@ sp needed
 249 0038 BDE83040 		pop	{r4, r5, lr}
 250              		.cfi_restore 14
 251              		.cfi_restore 5
 252              		.cfi_restore 4
 253              		.cfi_def_cfa_offset 0
 254              		.loc 1 173 0
 255 003c FFF7FEBF 		b	_port_irq_epilogue
 256              	.LVL19:
 257              	.L32:
 258              		.cfi_restore_state
 259 0040 FFF7FEFF 		bl	__stack_chk_fail
 260              	.LVL20:
 261              	.L34:
 262              		.align	2
 263              	.L33:
 264 0044 00000000 		.word	__stack_chk_guard
 265 0048 00600240 		.word	1073897472
 266 004c 00000000 		.word	.LANCHOR0
 267              		.cfi_endproc
 268              	.LFE258:
 269              		.size	Vector74, .-Vector74
 270              		.section	.text.Vector78,"ax",%progbits
 271              		.align	1
 272              		.p2align 4,,15
 273              		.global	Vector78
 274              		.syntax unified
 275              		.thumb
 276              		.thumb_func
 277              		.fpu fpv4-sp-d16
 278              		.type	Vector78, %function
 279              	Vector78:
 280              	.LFB259:
 281              		.loc 1 181 0
 282              		.cfi_startproc
 283              		@ args = 0, pretend = 0, frame = 8
 284              		@ frame_needed = 0, uses_anonymous_args = 0
 285 0000 30B5     		push	{r4, r5, lr}
ARM GAS  C:\Users\mathi\AppData\Local\Temp\ccmVpADE.s 			page 6


 286              		.cfi_def_cfa_offset 12
 287              		.cfi_offset 4, -12
 288              		.cfi_offset 5, -8
 289              		.cfi_offset 14, -4
 290 0002 104C     		ldr	r4, .L44
 291 0004 83B0     		sub	sp, sp, #12
 292              		.cfi_def_cfa_offset 24
 293              		.loc 1 181 0
 294 0006 2368     		ldr	r3, [r4]
 295 0008 0193     		str	r3, [sp, #4]
 296              		.loc 1 184 0
 297 000a FFF7FEFF 		bl	_stats_increase_irq
 298              	.LVL21:
 299 000e FFF7FEFF 		bl	_dbg_check_enter_isr
 300              	.LVL22:
 301              		.loc 1 186 0
 302 0012 0D4B     		ldr	r3, .L44+4
 303              		.loc 1 188 0
 304 0014 0D48     		ldr	r0, .L44+8
 305              		.loc 1 186 0
 306 0016 1968     		ldr	r1, [r3]
 307              		.loc 1 188 0
 308 0018 8269     		ldr	r2, [r0, #24]
 309              		.loc 1 186 0
 310 001a 890D     		lsrs	r1, r1, #22
 311 001c 01F03D01 		and	r1, r1, #61
 312              	.LVL23:
 313              		.loc 1 187 0
 314 0020 8D05     		lsls	r5, r1, #22
 315 0022 9D60     		str	r5, [r3, #8]
 316              		.loc 1 188 0
 317 0024 0AB1     		cbz	r2, .L36
 318              		.loc 1 189 0
 319 0026 C069     		ldr	r0, [r0, #28]
 320 0028 9047     		blx	r2
 321              	.LVL24:
 322              	.L36:
 323              		.loc 1 191 0
 324 002a FFF7FEFF 		bl	_dbg_check_leave_isr
 325              	.LVL25:
 326 002e 019A     		ldr	r2, [sp, #4]
 327 0030 2368     		ldr	r3, [r4]
 328 0032 9A42     		cmp	r2, r3
 329 0034 04D1     		bne	.L43
 330              		.loc 1 192 0
 331 0036 03B0     		add	sp, sp, #12
 332              		.cfi_remember_state
 333              		.cfi_def_cfa_offset 12
 334              		@ sp needed
 335 0038 BDE83040 		pop	{r4, r5, lr}
 336              		.cfi_restore 14
 337              		.cfi_restore 5
 338              		.cfi_restore 4
 339              		.cfi_def_cfa_offset 0
 340              		.loc 1 191 0
 341 003c FFF7FEBF 		b	_port_irq_epilogue
 342              	.LVL26:
ARM GAS  C:\Users\mathi\AppData\Local\Temp\ccmVpADE.s 			page 7


 343              	.L43:
 344              		.cfi_restore_state
 345 0040 FFF7FEFF 		bl	__stack_chk_fail
 346              	.LVL27:
 347              	.L45:
 348              		.align	2
 349              	.L44:
 350 0044 00000000 		.word	__stack_chk_guard
 351 0048 00600240 		.word	1073897472
 352 004c 00000000 		.word	.LANCHOR0
 353              		.cfi_endproc
 354              	.LFE259:
 355              		.size	Vector78, .-Vector78
 356              		.section	.text.Vector7C,"ax",%progbits
 357              		.align	1
 358              		.p2align 4,,15
 359              		.global	Vector7C
 360              		.syntax unified
 361              		.thumb
 362              		.thumb_func
 363              		.fpu fpv4-sp-d16
 364              		.type	Vector7C, %function
 365              	Vector7C:
 366              	.LFB260:
 367              		.loc 1 199 0
 368              		.cfi_startproc
 369              		@ args = 0, pretend = 0, frame = 8
 370              		@ frame_needed = 0, uses_anonymous_args = 0
 371 0000 10B5     		push	{r4, lr}
 372              		.cfi_def_cfa_offset 8
 373              		.cfi_offset 4, -8
 374              		.cfi_offset 14, -4
 375 0002 0F4C     		ldr	r4, .L55
 376 0004 82B0     		sub	sp, sp, #8
 377              		.cfi_def_cfa_offset 16
 378              		.loc 1 199 0
 379 0006 2368     		ldr	r3, [r4]
 380 0008 0193     		str	r3, [sp, #4]
 381              		.loc 1 202 0
 382 000a FFF7FEFF 		bl	_stats_increase_irq
 383              	.LVL28:
 384 000e FFF7FEFF 		bl	_dbg_check_enter_isr
 385              	.LVL29:
 386              		.loc 1 204 0
 387 0012 0C4B     		ldr	r3, .L55+4
 388              		.loc 1 206 0
 389 0014 0C48     		ldr	r0, .L55+8
 390              		.loc 1 204 0
 391 0016 5968     		ldr	r1, [r3, #4]
 392              		.loc 1 206 0
 393 0018 026A     		ldr	r2, [r0, #32]
 394              		.loc 1 204 0
 395 001a 01F03D01 		and	r1, r1, #61
 396              	.LVL30:
 397              		.loc 1 205 0
 398 001e D960     		str	r1, [r3, #12]
 399              		.loc 1 206 0
ARM GAS  C:\Users\mathi\AppData\Local\Temp\ccmVpADE.s 			page 8


 400 0020 0AB1     		cbz	r2, .L47
 401              		.loc 1 207 0
 402 0022 406A     		ldr	r0, [r0, #36]
 403 0024 9047     		blx	r2
 404              	.LVL31:
 405              	.L47:
 406              		.loc 1 209 0
 407 0026 FFF7FEFF 		bl	_dbg_check_leave_isr
 408              	.LVL32:
 409 002a 019A     		ldr	r2, [sp, #4]
 410 002c 2368     		ldr	r3, [r4]
 411 002e 9A42     		cmp	r2, r3
 412 0030 04D1     		bne	.L54
 413              		.loc 1 210 0
 414 0032 02B0     		add	sp, sp, #8
 415              		.cfi_remember_state
 416              		.cfi_def_cfa_offset 8
 417              		@ sp needed
 418 0034 BDE81040 		pop	{r4, lr}
 419              		.cfi_restore 14
 420              		.cfi_restore 4
 421              		.cfi_def_cfa_offset 0
 422              		.loc 1 209 0
 423 0038 FFF7FEBF 		b	_port_irq_epilogue
 424              	.LVL33:
 425              	.L54:
 426              		.cfi_restore_state
 427 003c FFF7FEFF 		bl	__stack_chk_fail
 428              	.LVL34:
 429              	.L56:
 430              		.align	2
 431              	.L55:
 432 0040 00000000 		.word	__stack_chk_guard
 433 0044 00600240 		.word	1073897472
 434 0048 00000000 		.word	.LANCHOR0
 435              		.cfi_endproc
 436              	.LFE260:
 437              		.size	Vector7C, .-Vector7C
 438              		.section	.text.Vector80,"ax",%progbits
 439              		.align	1
 440              		.p2align 4,,15
 441              		.global	Vector80
 442              		.syntax unified
 443              		.thumb
 444              		.thumb_func
 445              		.fpu fpv4-sp-d16
 446              		.type	Vector80, %function
 447              	Vector80:
 448              	.LFB261:
 449              		.loc 1 217 0
 450              		.cfi_startproc
 451              		@ args = 0, pretend = 0, frame = 8
 452              		@ frame_needed = 0, uses_anonymous_args = 0
 453 0000 30B5     		push	{r4, r5, lr}
 454              		.cfi_def_cfa_offset 12
 455              		.cfi_offset 4, -12
 456              		.cfi_offset 5, -8
ARM GAS  C:\Users\mathi\AppData\Local\Temp\ccmVpADE.s 			page 9


 457              		.cfi_offset 14, -4
 458 0002 104C     		ldr	r4, .L66
 459 0004 83B0     		sub	sp, sp, #12
 460              		.cfi_def_cfa_offset 24
 461              		.loc 1 217 0
 462 0006 2368     		ldr	r3, [r4]
 463 0008 0193     		str	r3, [sp, #4]
 464              		.loc 1 220 0
 465 000a FFF7FEFF 		bl	_stats_increase_irq
 466              	.LVL35:
 467 000e FFF7FEFF 		bl	_dbg_check_enter_isr
 468              	.LVL36:
 469              		.loc 1 222 0
 470 0012 0D4B     		ldr	r3, .L66+4
 471              		.loc 1 224 0
 472 0014 0D48     		ldr	r0, .L66+8
 473              		.loc 1 222 0
 474 0016 5968     		ldr	r1, [r3, #4]
 475              		.loc 1 224 0
 476 0018 826A     		ldr	r2, [r0, #40]
 477              		.loc 1 222 0
 478 001a 8909     		lsrs	r1, r1, #6
 479 001c 01F03D01 		and	r1, r1, #61
 480              	.LVL37:
 481              		.loc 1 223 0
 482 0020 8D01     		lsls	r5, r1, #6
 483 0022 DD60     		str	r5, [r3, #12]
 484              		.loc 1 224 0
 485 0024 0AB1     		cbz	r2, .L58
 486              		.loc 1 225 0
 487 0026 C06A     		ldr	r0, [r0, #44]
 488 0028 9047     		blx	r2
 489              	.LVL38:
 490              	.L58:
 491              		.loc 1 227 0
 492 002a FFF7FEFF 		bl	_dbg_check_leave_isr
 493              	.LVL39:
 494 002e 019A     		ldr	r2, [sp, #4]
 495 0030 2368     		ldr	r3, [r4]
 496 0032 9A42     		cmp	r2, r3
 497 0034 04D1     		bne	.L65
 498              		.loc 1 228 0
 499 0036 03B0     		add	sp, sp, #12
 500              		.cfi_remember_state
 501              		.cfi_def_cfa_offset 12
 502              		@ sp needed
 503 0038 BDE83040 		pop	{r4, r5, lr}
 504              		.cfi_restore 14
 505              		.cfi_restore 5
 506              		.cfi_restore 4
 507              		.cfi_def_cfa_offset 0
 508              		.loc 1 227 0
 509 003c FFF7FEBF 		b	_port_irq_epilogue
 510              	.LVL40:
 511              	.L65:
 512              		.cfi_restore_state
 513 0040 FFF7FEFF 		bl	__stack_chk_fail
ARM GAS  C:\Users\mathi\AppData\Local\Temp\ccmVpADE.s 			page 10


 514              	.LVL41:
 515              	.L67:
 516              		.align	2
 517              	.L66:
 518 0044 00000000 		.word	__stack_chk_guard
 519 0048 00600240 		.word	1073897472
 520 004c 00000000 		.word	.LANCHOR0
 521              		.cfi_endproc
 522              	.LFE261:
 523              		.size	Vector80, .-Vector80
 524              		.section	.text.Vector84,"ax",%progbits
 525              		.align	1
 526              		.p2align 4,,15
 527              		.global	Vector84
 528              		.syntax unified
 529              		.thumb
 530              		.thumb_func
 531              		.fpu fpv4-sp-d16
 532              		.type	Vector84, %function
 533              	Vector84:
 534              	.LFB262:
 535              		.loc 1 235 0
 536              		.cfi_startproc
 537              		@ args = 0, pretend = 0, frame = 8
 538              		@ frame_needed = 0, uses_anonymous_args = 0
 539 0000 30B5     		push	{r4, r5, lr}
 540              		.cfi_def_cfa_offset 12
 541              		.cfi_offset 4, -12
 542              		.cfi_offset 5, -8
 543              		.cfi_offset 14, -4
 544 0002 104C     		ldr	r4, .L77
 545 0004 83B0     		sub	sp, sp, #12
 546              		.cfi_def_cfa_offset 24
 547              		.loc 1 235 0
 548 0006 2368     		ldr	r3, [r4]
 549 0008 0193     		str	r3, [sp, #4]
 550              		.loc 1 238 0
 551 000a FFF7FEFF 		bl	_stats_increase_irq
 552              	.LVL42:
 553 000e FFF7FEFF 		bl	_dbg_check_enter_isr
 554              	.LVL43:
 555              		.loc 1 240 0
 556 0012 0D4B     		ldr	r3, .L77+4
 557              		.loc 1 242 0
 558 0014 0D48     		ldr	r0, .L77+8
 559              		.loc 1 240 0
 560 0016 5968     		ldr	r1, [r3, #4]
 561              		.loc 1 242 0
 562 0018 026B     		ldr	r2, [r0, #48]
 563              		.loc 1 240 0
 564 001a 090C     		lsrs	r1, r1, #16
 565 001c 01F03D01 		and	r1, r1, #61
 566              	.LVL44:
 567              		.loc 1 241 0
 568 0020 0D04     		lsls	r5, r1, #16
 569 0022 DD60     		str	r5, [r3, #12]
 570              		.loc 1 242 0
ARM GAS  C:\Users\mathi\AppData\Local\Temp\ccmVpADE.s 			page 11


 571 0024 0AB1     		cbz	r2, .L69
 572              		.loc 1 243 0
 573 0026 406B     		ldr	r0, [r0, #52]
 574 0028 9047     		blx	r2
 575              	.LVL45:
 576              	.L69:
 577              		.loc 1 245 0
 578 002a FFF7FEFF 		bl	_dbg_check_leave_isr
 579              	.LVL46:
 580 002e 019A     		ldr	r2, [sp, #4]
 581 0030 2368     		ldr	r3, [r4]
 582 0032 9A42     		cmp	r2, r3
 583 0034 04D1     		bne	.L76
 584              		.loc 1 246 0
 585 0036 03B0     		add	sp, sp, #12
 586              		.cfi_remember_state
 587              		.cfi_def_cfa_offset 12
 588              		@ sp needed
 589 0038 BDE83040 		pop	{r4, r5, lr}
 590              		.cfi_restore 14
 591              		.cfi_restore 5
 592              		.cfi_restore 4
 593              		.cfi_def_cfa_offset 0
 594              		.loc 1 245 0
 595 003c FFF7FEBF 		b	_port_irq_epilogue
 596              	.LVL47:
 597              	.L76:
 598              		.cfi_restore_state
 599 0040 FFF7FEFF 		bl	__stack_chk_fail
 600              	.LVL48:
 601              	.L78:
 602              		.align	2
 603              	.L77:
 604 0044 00000000 		.word	__stack_chk_guard
 605 0048 00600240 		.word	1073897472
 606 004c 00000000 		.word	.LANCHOR0
 607              		.cfi_endproc
 608              	.LFE262:
 609              		.size	Vector84, .-Vector84
 610              		.section	.text.VectorFC,"ax",%progbits
 611              		.align	1
 612              		.p2align 4,,15
 613              		.global	VectorFC
 614              		.syntax unified
 615              		.thumb
 616              		.thumb_func
 617              		.fpu fpv4-sp-d16
 618              		.type	VectorFC, %function
 619              	VectorFC:
 620              	.LFB263:
 621              		.loc 1 253 0
 622              		.cfi_startproc
 623              		@ args = 0, pretend = 0, frame = 8
 624              		@ frame_needed = 0, uses_anonymous_args = 0
 625 0000 30B5     		push	{r4, r5, lr}
 626              		.cfi_def_cfa_offset 12
 627              		.cfi_offset 4, -12
ARM GAS  C:\Users\mathi\AppData\Local\Temp\ccmVpADE.s 			page 12


 628              		.cfi_offset 5, -8
 629              		.cfi_offset 14, -4
 630 0002 104C     		ldr	r4, .L88
 631 0004 83B0     		sub	sp, sp, #12
 632              		.cfi_def_cfa_offset 24
 633              		.loc 1 253 0
 634 0006 2368     		ldr	r3, [r4]
 635 0008 0193     		str	r3, [sp, #4]
 636              		.loc 1 256 0
 637 000a FFF7FEFF 		bl	_stats_increase_irq
 638              	.LVL49:
 639 000e FFF7FEFF 		bl	_dbg_check_enter_isr
 640              	.LVL50:
 641              		.loc 1 258 0
 642 0012 0D4B     		ldr	r3, .L88+4
 643              		.loc 1 260 0
 644 0014 0D48     		ldr	r0, .L88+8
 645              		.loc 1 258 0
 646 0016 5968     		ldr	r1, [r3, #4]
 647              		.loc 1 260 0
 648 0018 826B     		ldr	r2, [r0, #56]
 649              		.loc 1 258 0
 650 001a 890D     		lsrs	r1, r1, #22
 651 001c 01F03D01 		and	r1, r1, #61
 652              	.LVL51:
 653              		.loc 1 259 0
 654 0020 8D05     		lsls	r5, r1, #22
 655 0022 DD60     		str	r5, [r3, #12]
 656              		.loc 1 260 0
 657 0024 0AB1     		cbz	r2, .L80
 658              		.loc 1 261 0
 659 0026 C06B     		ldr	r0, [r0, #60]
 660 0028 9047     		blx	r2
 661              	.LVL52:
 662              	.L80:
 663              		.loc 1 263 0
 664 002a FFF7FEFF 		bl	_dbg_check_leave_isr
 665              	.LVL53:
 666 002e 019A     		ldr	r2, [sp, #4]
 667 0030 2368     		ldr	r3, [r4]
 668 0032 9A42     		cmp	r2, r3
 669 0034 04D1     		bne	.L87
 670              		.loc 1 264 0
 671 0036 03B0     		add	sp, sp, #12
 672              		.cfi_remember_state
 673              		.cfi_def_cfa_offset 12
 674              		@ sp needed
 675 0038 BDE83040 		pop	{r4, r5, lr}
 676              		.cfi_restore 14
 677              		.cfi_restore 5
 678              		.cfi_restore 4
 679              		.cfi_def_cfa_offset 0
 680              		.loc 1 263 0
 681 003c FFF7FEBF 		b	_port_irq_epilogue
 682              	.LVL54:
 683              	.L87:
 684              		.cfi_restore_state
ARM GAS  C:\Users\mathi\AppData\Local\Temp\ccmVpADE.s 			page 13


 685 0040 FFF7FEFF 		bl	__stack_chk_fail
 686              	.LVL55:
 687              	.L89:
 688              		.align	2
 689              	.L88:
 690 0044 00000000 		.word	__stack_chk_guard
 691 0048 00600240 		.word	1073897472
 692 004c 00000000 		.word	.LANCHOR0
 693              		.cfi_endproc
 694              	.LFE263:
 695              		.size	VectorFC, .-VectorFC
 696              		.section	.text.Vector120,"ax",%progbits
 697              		.align	1
 698              		.p2align 4,,15
 699              		.global	Vector120
 700              		.syntax unified
 701              		.thumb
 702              		.thumb_func
 703              		.fpu fpv4-sp-d16
 704              		.type	Vector120, %function
 705              	Vector120:
 706              	.LFB264:
 707              		.loc 1 271 0
 708              		.cfi_startproc
 709              		@ args = 0, pretend = 0, frame = 8
 710              		@ frame_needed = 0, uses_anonymous_args = 0
 711 0000 10B5     		push	{r4, lr}
 712              		.cfi_def_cfa_offset 8
 713              		.cfi_offset 4, -8
 714              		.cfi_offset 14, -4
 715 0002 0F4C     		ldr	r4, .L99
 716 0004 82B0     		sub	sp, sp, #8
 717              		.cfi_def_cfa_offset 16
 718              		.loc 1 271 0
 719 0006 2368     		ldr	r3, [r4]
 720 0008 0193     		str	r3, [sp, #4]
 721              		.loc 1 274 0
 722 000a FFF7FEFF 		bl	_stats_increase_irq
 723              	.LVL56:
 724 000e FFF7FEFF 		bl	_dbg_check_enter_isr
 725              	.LVL57:
 726              		.loc 1 276 0
 727 0012 0C4B     		ldr	r3, .L99+4
 728              		.loc 1 278 0
 729 0014 0C48     		ldr	r0, .L99+8
 730              		.loc 1 276 0
 731 0016 1968     		ldr	r1, [r3]
 732              		.loc 1 278 0
 733 0018 026C     		ldr	r2, [r0, #64]
 734              		.loc 1 276 0
 735 001a 01F03D01 		and	r1, r1, #61
 736              	.LVL58:
 737              		.loc 1 277 0
 738 001e 9960     		str	r1, [r3, #8]
 739              		.loc 1 278 0
 740 0020 0AB1     		cbz	r2, .L91
 741              		.loc 1 279 0
ARM GAS  C:\Users\mathi\AppData\Local\Temp\ccmVpADE.s 			page 14


 742 0022 406C     		ldr	r0, [r0, #68]
 743 0024 9047     		blx	r2
 744              	.LVL59:
 745              	.L91:
 746              		.loc 1 281 0
 747 0026 FFF7FEFF 		bl	_dbg_check_leave_isr
 748              	.LVL60:
 749 002a 019A     		ldr	r2, [sp, #4]
 750 002c 2368     		ldr	r3, [r4]
 751 002e 9A42     		cmp	r2, r3
 752 0030 04D1     		bne	.L98
 753              		.loc 1 282 0
 754 0032 02B0     		add	sp, sp, #8
 755              		.cfi_remember_state
 756              		.cfi_def_cfa_offset 8
 757              		@ sp needed
 758 0034 BDE81040 		pop	{r4, lr}
 759              		.cfi_restore 14
 760              		.cfi_restore 4
 761              		.cfi_def_cfa_offset 0
 762              		.loc 1 281 0
 763 0038 FFF7FEBF 		b	_port_irq_epilogue
 764              	.LVL61:
 765              	.L98:
 766              		.cfi_restore_state
 767 003c FFF7FEFF 		bl	__stack_chk_fail
 768              	.LVL62:
 769              	.L100:
 770              		.align	2
 771              	.L99:
 772 0040 00000000 		.word	__stack_chk_guard
 773 0044 00640240 		.word	1073898496
 774 0048 00000000 		.word	.LANCHOR0
 775              		.cfi_endproc
 776              	.LFE264:
 777              		.size	Vector120, .-Vector120
 778              		.section	.text.Vector124,"ax",%progbits
 779              		.align	1
 780              		.p2align 4,,15
 781              		.global	Vector124
 782              		.syntax unified
 783              		.thumb
 784              		.thumb_func
 785              		.fpu fpv4-sp-d16
 786              		.type	Vector124, %function
 787              	Vector124:
 788              	.LFB265:
 789              		.loc 1 289 0
 790              		.cfi_startproc
 791              		@ args = 0, pretend = 0, frame = 8
 792              		@ frame_needed = 0, uses_anonymous_args = 0
 793 0000 30B5     		push	{r4, r5, lr}
 794              		.cfi_def_cfa_offset 12
 795              		.cfi_offset 4, -12
 796              		.cfi_offset 5, -8
 797              		.cfi_offset 14, -4
 798 0002 104C     		ldr	r4, .L110
ARM GAS  C:\Users\mathi\AppData\Local\Temp\ccmVpADE.s 			page 15


 799 0004 83B0     		sub	sp, sp, #12
 800              		.cfi_def_cfa_offset 24
 801              		.loc 1 289 0
 802 0006 2368     		ldr	r3, [r4]
 803 0008 0193     		str	r3, [sp, #4]
 804              		.loc 1 292 0
 805 000a FFF7FEFF 		bl	_stats_increase_irq
 806              	.LVL63:
 807 000e FFF7FEFF 		bl	_dbg_check_enter_isr
 808              	.LVL64:
 809              		.loc 1 294 0
 810 0012 0D4B     		ldr	r3, .L110+4
 811              		.loc 1 296 0
 812 0014 0D48     		ldr	r0, .L110+8
 813              		.loc 1 294 0
 814 0016 1968     		ldr	r1, [r3]
 815              		.loc 1 296 0
 816 0018 826C     		ldr	r2, [r0, #72]
 817              		.loc 1 294 0
 818 001a 8909     		lsrs	r1, r1, #6
 819 001c 01F03D01 		and	r1, r1, #61
 820              	.LVL65:
 821              		.loc 1 295 0
 822 0020 8D01     		lsls	r5, r1, #6
 823 0022 9D60     		str	r5, [r3, #8]
 824              		.loc 1 296 0
 825 0024 0AB1     		cbz	r2, .L102
 826              		.loc 1 297 0
 827 0026 C06C     		ldr	r0, [r0, #76]
 828 0028 9047     		blx	r2
 829              	.LVL66:
 830              	.L102:
 831              		.loc 1 299 0
 832 002a FFF7FEFF 		bl	_dbg_check_leave_isr
 833              	.LVL67:
 834 002e 019A     		ldr	r2, [sp, #4]
 835 0030 2368     		ldr	r3, [r4]
 836 0032 9A42     		cmp	r2, r3
 837 0034 04D1     		bne	.L109
 838              		.loc 1 300 0
 839 0036 03B0     		add	sp, sp, #12
 840              		.cfi_remember_state
 841              		.cfi_def_cfa_offset 12
 842              		@ sp needed
 843 0038 BDE83040 		pop	{r4, r5, lr}
 844              		.cfi_restore 14
 845              		.cfi_restore 5
 846              		.cfi_restore 4
 847              		.cfi_def_cfa_offset 0
 848              		.loc 1 299 0
 849 003c FFF7FEBF 		b	_port_irq_epilogue
 850              	.LVL68:
 851              	.L109:
 852              		.cfi_restore_state
 853 0040 FFF7FEFF 		bl	__stack_chk_fail
 854              	.LVL69:
 855              	.L111:
ARM GAS  C:\Users\mathi\AppData\Local\Temp\ccmVpADE.s 			page 16


 856              		.align	2
 857              	.L110:
 858 0044 00000000 		.word	__stack_chk_guard
 859 0048 00640240 		.word	1073898496
 860 004c 00000000 		.word	.LANCHOR0
 861              		.cfi_endproc
 862              	.LFE265:
 863              		.size	Vector124, .-Vector124
 864              		.section	.text.Vector128,"ax",%progbits
 865              		.align	1
 866              		.p2align 4,,15
 867              		.global	Vector128
 868              		.syntax unified
 869              		.thumb
 870              		.thumb_func
 871              		.fpu fpv4-sp-d16
 872              		.type	Vector128, %function
 873              	Vector128:
 874              	.LFB266:
 875              		.loc 1 307 0
 876              		.cfi_startproc
 877              		@ args = 0, pretend = 0, frame = 8
 878              		@ frame_needed = 0, uses_anonymous_args = 0
 879 0000 30B5     		push	{r4, r5, lr}
 880              		.cfi_def_cfa_offset 12
 881              		.cfi_offset 4, -12
 882              		.cfi_offset 5, -8
 883              		.cfi_offset 14, -4
 884 0002 104C     		ldr	r4, .L121
 885 0004 83B0     		sub	sp, sp, #12
 886              		.cfi_def_cfa_offset 24
 887              		.loc 1 307 0
 888 0006 2368     		ldr	r3, [r4]
 889 0008 0193     		str	r3, [sp, #4]
 890              		.loc 1 310 0
 891 000a FFF7FEFF 		bl	_stats_increase_irq
 892              	.LVL70:
 893 000e FFF7FEFF 		bl	_dbg_check_enter_isr
 894              	.LVL71:
 895              		.loc 1 312 0
 896 0012 0D4B     		ldr	r3, .L121+4
 897              		.loc 1 314 0
 898 0014 0D48     		ldr	r0, .L121+8
 899              		.loc 1 312 0
 900 0016 1968     		ldr	r1, [r3]
 901              		.loc 1 314 0
 902 0018 026D     		ldr	r2, [r0, #80]
 903              		.loc 1 312 0
 904 001a 090C     		lsrs	r1, r1, #16
 905 001c 01F03D01 		and	r1, r1, #61
 906              	.LVL72:
 907              		.loc 1 313 0
 908 0020 0D04     		lsls	r5, r1, #16
 909 0022 9D60     		str	r5, [r3, #8]
 910              		.loc 1 314 0
 911 0024 0AB1     		cbz	r2, .L113
 912              		.loc 1 315 0
ARM GAS  C:\Users\mathi\AppData\Local\Temp\ccmVpADE.s 			page 17


 913 0026 406D     		ldr	r0, [r0, #84]
 914 0028 9047     		blx	r2
 915              	.LVL73:
 916              	.L113:
 917              		.loc 1 317 0
 918 002a FFF7FEFF 		bl	_dbg_check_leave_isr
 919              	.LVL74:
 920 002e 019A     		ldr	r2, [sp, #4]
 921 0030 2368     		ldr	r3, [r4]
 922 0032 9A42     		cmp	r2, r3
 923 0034 04D1     		bne	.L120
 924              		.loc 1 318 0
 925 0036 03B0     		add	sp, sp, #12
 926              		.cfi_remember_state
 927              		.cfi_def_cfa_offset 12
 928              		@ sp needed
 929 0038 BDE83040 		pop	{r4, r5, lr}
 930              		.cfi_restore 14
 931              		.cfi_restore 5
 932              		.cfi_restore 4
 933              		.cfi_def_cfa_offset 0
 934              		.loc 1 317 0
 935 003c FFF7FEBF 		b	_port_irq_epilogue
 936              	.LVL75:
 937              	.L120:
 938              		.cfi_restore_state
 939 0040 FFF7FEFF 		bl	__stack_chk_fail
 940              	.LVL76:
 941              	.L122:
 942              		.align	2
 943              	.L121:
 944 0044 00000000 		.word	__stack_chk_guard
 945 0048 00640240 		.word	1073898496
 946 004c 00000000 		.word	.LANCHOR0
 947              		.cfi_endproc
 948              	.LFE266:
 949              		.size	Vector128, .-Vector128
 950              		.section	.text.Vector12C,"ax",%progbits
 951              		.align	1
 952              		.p2align 4,,15
 953              		.global	Vector12C
 954              		.syntax unified
 955              		.thumb
 956              		.thumb_func
 957              		.fpu fpv4-sp-d16
 958              		.type	Vector12C, %function
 959              	Vector12C:
 960              	.LFB267:
 961              		.loc 1 325 0
 962              		.cfi_startproc
 963              		@ args = 0, pretend = 0, frame = 8
 964              		@ frame_needed = 0, uses_anonymous_args = 0
 965 0000 30B5     		push	{r4, r5, lr}
 966              		.cfi_def_cfa_offset 12
 967              		.cfi_offset 4, -12
 968              		.cfi_offset 5, -8
 969              		.cfi_offset 14, -4
ARM GAS  C:\Users\mathi\AppData\Local\Temp\ccmVpADE.s 			page 18


 970 0002 104C     		ldr	r4, .L132
 971 0004 83B0     		sub	sp, sp, #12
 972              		.cfi_def_cfa_offset 24
 973              		.loc 1 325 0
 974 0006 2368     		ldr	r3, [r4]
 975 0008 0193     		str	r3, [sp, #4]
 976              		.loc 1 328 0
 977 000a FFF7FEFF 		bl	_stats_increase_irq
 978              	.LVL77:
 979 000e FFF7FEFF 		bl	_dbg_check_enter_isr
 980              	.LVL78:
 981              		.loc 1 330 0
 982 0012 0D4B     		ldr	r3, .L132+4
 983              		.loc 1 332 0
 984 0014 0D48     		ldr	r0, .L132+8
 985              		.loc 1 330 0
 986 0016 1968     		ldr	r1, [r3]
 987              		.loc 1 332 0
 988 0018 826D     		ldr	r2, [r0, #88]
 989              		.loc 1 330 0
 990 001a 890D     		lsrs	r1, r1, #22
 991 001c 01F03D01 		and	r1, r1, #61
 992              	.LVL79:
 993              		.loc 1 331 0
 994 0020 8D05     		lsls	r5, r1, #22
 995 0022 9D60     		str	r5, [r3, #8]
 996              		.loc 1 332 0
 997 0024 0AB1     		cbz	r2, .L124
 998              		.loc 1 333 0
 999 0026 C06D     		ldr	r0, [r0, #92]
 1000 0028 9047     		blx	r2
 1001              	.LVL80:
 1002              	.L124:
 1003              		.loc 1 335 0
 1004 002a FFF7FEFF 		bl	_dbg_check_leave_isr
 1005              	.LVL81:
 1006 002e 019A     		ldr	r2, [sp, #4]
 1007 0030 2368     		ldr	r3, [r4]
 1008 0032 9A42     		cmp	r2, r3
 1009 0034 04D1     		bne	.L131
 1010              		.loc 1 336 0
 1011 0036 03B0     		add	sp, sp, #12
 1012              		.cfi_remember_state
 1013              		.cfi_def_cfa_offset 12
 1014              		@ sp needed
 1015 0038 BDE83040 		pop	{r4, r5, lr}
 1016              		.cfi_restore 14
 1017              		.cfi_restore 5
 1018              		.cfi_restore 4
 1019              		.cfi_def_cfa_offset 0
 1020              		.loc 1 335 0
 1021 003c FFF7FEBF 		b	_port_irq_epilogue
 1022              	.LVL82:
 1023              	.L131:
 1024              		.cfi_restore_state
 1025 0040 FFF7FEFF 		bl	__stack_chk_fail
 1026              	.LVL83:
ARM GAS  C:\Users\mathi\AppData\Local\Temp\ccmVpADE.s 			page 19


 1027              	.L133:
 1028              		.align	2
 1029              	.L132:
 1030 0044 00000000 		.word	__stack_chk_guard
 1031 0048 00640240 		.word	1073898496
 1032 004c 00000000 		.word	.LANCHOR0
 1033              		.cfi_endproc
 1034              	.LFE267:
 1035              		.size	Vector12C, .-Vector12C
 1036              		.section	.text.Vector130,"ax",%progbits
 1037              		.align	1
 1038              		.p2align 4,,15
 1039              		.global	Vector130
 1040              		.syntax unified
 1041              		.thumb
 1042              		.thumb_func
 1043              		.fpu fpv4-sp-d16
 1044              		.type	Vector130, %function
 1045              	Vector130:
 1046              	.LFB268:
 1047              		.loc 1 343 0
 1048              		.cfi_startproc
 1049              		@ args = 0, pretend = 0, frame = 8
 1050              		@ frame_needed = 0, uses_anonymous_args = 0
 1051 0000 10B5     		push	{r4, lr}
 1052              		.cfi_def_cfa_offset 8
 1053              		.cfi_offset 4, -8
 1054              		.cfi_offset 14, -4
 1055 0002 0F4C     		ldr	r4, .L143
 1056 0004 82B0     		sub	sp, sp, #8
 1057              		.cfi_def_cfa_offset 16
 1058              		.loc 1 343 0
 1059 0006 2368     		ldr	r3, [r4]
 1060 0008 0193     		str	r3, [sp, #4]
 1061              		.loc 1 346 0
 1062 000a FFF7FEFF 		bl	_stats_increase_irq
 1063              	.LVL84:
 1064 000e FFF7FEFF 		bl	_dbg_check_enter_isr
 1065              	.LVL85:
 1066              		.loc 1 348 0
 1067 0012 0C4B     		ldr	r3, .L143+4
 1068              		.loc 1 350 0
 1069 0014 0C48     		ldr	r0, .L143+8
 1070              		.loc 1 348 0
 1071 0016 5968     		ldr	r1, [r3, #4]
 1072              		.loc 1 350 0
 1073 0018 026E     		ldr	r2, [r0, #96]
 1074              		.loc 1 348 0
 1075 001a 01F03D01 		and	r1, r1, #61
 1076              	.LVL86:
 1077              		.loc 1 349 0
 1078 001e D960     		str	r1, [r3, #12]
 1079              		.loc 1 350 0
 1080 0020 0AB1     		cbz	r2, .L135
 1081              		.loc 1 351 0
 1082 0022 406E     		ldr	r0, [r0, #100]
 1083 0024 9047     		blx	r2
ARM GAS  C:\Users\mathi\AppData\Local\Temp\ccmVpADE.s 			page 20


 1084              	.LVL87:
 1085              	.L135:
 1086              		.loc 1 353 0
 1087 0026 FFF7FEFF 		bl	_dbg_check_leave_isr
 1088              	.LVL88:
 1089 002a 019A     		ldr	r2, [sp, #4]
 1090 002c 2368     		ldr	r3, [r4]
 1091 002e 9A42     		cmp	r2, r3
 1092 0030 04D1     		bne	.L142
 1093              		.loc 1 354 0
 1094 0032 02B0     		add	sp, sp, #8
 1095              		.cfi_remember_state
 1096              		.cfi_def_cfa_offset 8
 1097              		@ sp needed
 1098 0034 BDE81040 		pop	{r4, lr}
 1099              		.cfi_restore 14
 1100              		.cfi_restore 4
 1101              		.cfi_def_cfa_offset 0
 1102              		.loc 1 353 0
 1103 0038 FFF7FEBF 		b	_port_irq_epilogue
 1104              	.LVL89:
 1105              	.L142:
 1106              		.cfi_restore_state
 1107 003c FFF7FEFF 		bl	__stack_chk_fail
 1108              	.LVL90:
 1109              	.L144:
 1110              		.align	2
 1111              	.L143:
 1112 0040 00000000 		.word	__stack_chk_guard
 1113 0044 00640240 		.word	1073898496
 1114 0048 00000000 		.word	.LANCHOR0
 1115              		.cfi_endproc
 1116              	.LFE268:
 1117              		.size	Vector130, .-Vector130
 1118              		.section	.text.Vector150,"ax",%progbits
 1119              		.align	1
 1120              		.p2align 4,,15
 1121              		.global	Vector150
 1122              		.syntax unified
 1123              		.thumb
 1124              		.thumb_func
 1125              		.fpu fpv4-sp-d16
 1126              		.type	Vector150, %function
 1127              	Vector150:
 1128              	.LFB269:
 1129              		.loc 1 361 0
 1130              		.cfi_startproc
 1131              		@ args = 0, pretend = 0, frame = 8
 1132              		@ frame_needed = 0, uses_anonymous_args = 0
 1133 0000 30B5     		push	{r4, r5, lr}
 1134              		.cfi_def_cfa_offset 12
 1135              		.cfi_offset 4, -12
 1136              		.cfi_offset 5, -8
 1137              		.cfi_offset 14, -4
 1138 0002 104C     		ldr	r4, .L154
 1139 0004 83B0     		sub	sp, sp, #12
 1140              		.cfi_def_cfa_offset 24
ARM GAS  C:\Users\mathi\AppData\Local\Temp\ccmVpADE.s 			page 21


 1141              		.loc 1 361 0
 1142 0006 2368     		ldr	r3, [r4]
 1143 0008 0193     		str	r3, [sp, #4]
 1144              		.loc 1 364 0
 1145 000a FFF7FEFF 		bl	_stats_increase_irq
 1146              	.LVL91:
 1147 000e FFF7FEFF 		bl	_dbg_check_enter_isr
 1148              	.LVL92:
 1149              		.loc 1 366 0
 1150 0012 0D4B     		ldr	r3, .L154+4
 1151              		.loc 1 368 0
 1152 0014 0D48     		ldr	r0, .L154+8
 1153              		.loc 1 366 0
 1154 0016 5968     		ldr	r1, [r3, #4]
 1155              		.loc 1 368 0
 1156 0018 826E     		ldr	r2, [r0, #104]
 1157              		.loc 1 366 0
 1158 001a 8909     		lsrs	r1, r1, #6
 1159 001c 01F03D01 		and	r1, r1, #61
 1160              	.LVL93:
 1161              		.loc 1 367 0
 1162 0020 8D01     		lsls	r5, r1, #6
 1163 0022 DD60     		str	r5, [r3, #12]
 1164              		.loc 1 368 0
 1165 0024 0AB1     		cbz	r2, .L146
 1166              		.loc 1 369 0
 1167 0026 C06E     		ldr	r0, [r0, #108]
 1168 0028 9047     		blx	r2
 1169              	.LVL94:
 1170              	.L146:
 1171              		.loc 1 371 0
 1172 002a FFF7FEFF 		bl	_dbg_check_leave_isr
 1173              	.LVL95:
 1174 002e 019A     		ldr	r2, [sp, #4]
 1175 0030 2368     		ldr	r3, [r4]
 1176 0032 9A42     		cmp	r2, r3
 1177 0034 04D1     		bne	.L153
 1178              		.loc 1 372 0
 1179 0036 03B0     		add	sp, sp, #12
 1180              		.cfi_remember_state
 1181              		.cfi_def_cfa_offset 12
 1182              		@ sp needed
 1183 0038 BDE83040 		pop	{r4, r5, lr}
 1184              		.cfi_restore 14
 1185              		.cfi_restore 5
 1186              		.cfi_restore 4
 1187              		.cfi_def_cfa_offset 0
 1188              		.loc 1 371 0
 1189 003c FFF7FEBF 		b	_port_irq_epilogue
 1190              	.LVL96:
 1191              	.L153:
 1192              		.cfi_restore_state
 1193 0040 FFF7FEFF 		bl	__stack_chk_fail
 1194              	.LVL97:
 1195              	.L155:
 1196              		.align	2
 1197              	.L154:
ARM GAS  C:\Users\mathi\AppData\Local\Temp\ccmVpADE.s 			page 22


 1198 0044 00000000 		.word	__stack_chk_guard
 1199 0048 00640240 		.word	1073898496
 1200 004c 00000000 		.word	.LANCHOR0
 1201              		.cfi_endproc
 1202              	.LFE269:
 1203              		.size	Vector150, .-Vector150
 1204              		.section	.text.Vector154,"ax",%progbits
 1205              		.align	1
 1206              		.p2align 4,,15
 1207              		.global	Vector154
 1208              		.syntax unified
 1209              		.thumb
 1210              		.thumb_func
 1211              		.fpu fpv4-sp-d16
 1212              		.type	Vector154, %function
 1213              	Vector154:
 1214              	.LFB270:
 1215              		.loc 1 379 0
 1216              		.cfi_startproc
 1217              		@ args = 0, pretend = 0, frame = 8
 1218              		@ frame_needed = 0, uses_anonymous_args = 0
 1219 0000 30B5     		push	{r4, r5, lr}
 1220              		.cfi_def_cfa_offset 12
 1221              		.cfi_offset 4, -12
 1222              		.cfi_offset 5, -8
 1223              		.cfi_offset 14, -4
 1224 0002 104C     		ldr	r4, .L165
 1225 0004 83B0     		sub	sp, sp, #12
 1226              		.cfi_def_cfa_offset 24
 1227              		.loc 1 379 0
 1228 0006 2368     		ldr	r3, [r4]
 1229 0008 0193     		str	r3, [sp, #4]
 1230              		.loc 1 382 0
 1231 000a FFF7FEFF 		bl	_stats_increase_irq
 1232              	.LVL98:
 1233 000e FFF7FEFF 		bl	_dbg_check_enter_isr
 1234              	.LVL99:
 1235              		.loc 1 384 0
 1236 0012 0D4B     		ldr	r3, .L165+4
 1237              		.loc 1 386 0
 1238 0014 0D48     		ldr	r0, .L165+8
 1239              		.loc 1 384 0
 1240 0016 5968     		ldr	r1, [r3, #4]
 1241              		.loc 1 386 0
 1242 0018 026F     		ldr	r2, [r0, #112]
 1243              		.loc 1 384 0
 1244 001a 090C     		lsrs	r1, r1, #16
 1245 001c 01F03D01 		and	r1, r1, #61
 1246              	.LVL100:
 1247              		.loc 1 385 0
 1248 0020 0D04     		lsls	r5, r1, #16
 1249 0022 DD60     		str	r5, [r3, #12]
 1250              		.loc 1 386 0
 1251 0024 0AB1     		cbz	r2, .L157
 1252              		.loc 1 387 0
 1253 0026 406F     		ldr	r0, [r0, #116]
 1254 0028 9047     		blx	r2
ARM GAS  C:\Users\mathi\AppData\Local\Temp\ccmVpADE.s 			page 23


 1255              	.LVL101:
 1256              	.L157:
 1257              		.loc 1 389 0
 1258 002a FFF7FEFF 		bl	_dbg_check_leave_isr
 1259              	.LVL102:
 1260 002e 019A     		ldr	r2, [sp, #4]
 1261 0030 2368     		ldr	r3, [r4]
 1262 0032 9A42     		cmp	r2, r3
 1263 0034 04D1     		bne	.L164
 1264              		.loc 1 390 0
 1265 0036 03B0     		add	sp, sp, #12
 1266              		.cfi_remember_state
 1267              		.cfi_def_cfa_offset 12
 1268              		@ sp needed
 1269 0038 BDE83040 		pop	{r4, r5, lr}
 1270              		.cfi_restore 14
 1271              		.cfi_restore 5
 1272              		.cfi_restore 4
 1273              		.cfi_def_cfa_offset 0
 1274              		.loc 1 389 0
 1275 003c FFF7FEBF 		b	_port_irq_epilogue
 1276              	.LVL103:
 1277              	.L164:
 1278              		.cfi_restore_state
 1279 0040 FFF7FEFF 		bl	__stack_chk_fail
 1280              	.LVL104:
 1281              	.L166:
 1282              		.align	2
 1283              	.L165:
 1284 0044 00000000 		.word	__stack_chk_guard
 1285 0048 00640240 		.word	1073898496
 1286 004c 00000000 		.word	.LANCHOR0
 1287              		.cfi_endproc
 1288              	.LFE270:
 1289              		.size	Vector154, .-Vector154
 1290              		.section	.text.Vector158,"ax",%progbits
 1291              		.align	1
 1292              		.p2align 4,,15
 1293              		.global	Vector158
 1294              		.syntax unified
 1295              		.thumb
 1296              		.thumb_func
 1297              		.fpu fpv4-sp-d16
 1298              		.type	Vector158, %function
 1299              	Vector158:
 1300              	.LFB271:
 1301              		.loc 1 397 0
 1302              		.cfi_startproc
 1303              		@ args = 0, pretend = 0, frame = 8
 1304              		@ frame_needed = 0, uses_anonymous_args = 0
 1305 0000 30B5     		push	{r4, r5, lr}
 1306              		.cfi_def_cfa_offset 12
 1307              		.cfi_offset 4, -12
 1308              		.cfi_offset 5, -8
 1309              		.cfi_offset 14, -4
 1310 0002 104C     		ldr	r4, .L176
 1311 0004 83B0     		sub	sp, sp, #12
ARM GAS  C:\Users\mathi\AppData\Local\Temp\ccmVpADE.s 			page 24


 1312              		.cfi_def_cfa_offset 24
 1313              		.loc 1 397 0
 1314 0006 2368     		ldr	r3, [r4]
 1315 0008 0193     		str	r3, [sp, #4]
 1316              		.loc 1 400 0
 1317 000a FFF7FEFF 		bl	_stats_increase_irq
 1318              	.LVL105:
 1319 000e FFF7FEFF 		bl	_dbg_check_enter_isr
 1320              	.LVL106:
 1321              		.loc 1 402 0
 1322 0012 0D4B     		ldr	r3, .L176+4
 1323              		.loc 1 404 0
 1324 0014 0D48     		ldr	r0, .L176+8
 1325              		.loc 1 402 0
 1326 0016 5968     		ldr	r1, [r3, #4]
 1327              		.loc 1 404 0
 1328 0018 826F     		ldr	r2, [r0, #120]
 1329              		.loc 1 402 0
 1330 001a 890D     		lsrs	r1, r1, #22
 1331 001c 01F03D01 		and	r1, r1, #61
 1332              	.LVL107:
 1333              		.loc 1 403 0
 1334 0020 8D05     		lsls	r5, r1, #22
 1335 0022 DD60     		str	r5, [r3, #12]
 1336              		.loc 1 404 0
 1337 0024 0AB1     		cbz	r2, .L168
 1338              		.loc 1 405 0
 1339 0026 C06F     		ldr	r0, [r0, #124]
 1340 0028 9047     		blx	r2
 1341              	.LVL108:
 1342              	.L168:
 1343              		.loc 1 407 0
 1344 002a FFF7FEFF 		bl	_dbg_check_leave_isr
 1345              	.LVL109:
 1346 002e 019A     		ldr	r2, [sp, #4]
 1347 0030 2368     		ldr	r3, [r4]
 1348 0032 9A42     		cmp	r2, r3
 1349 0034 04D1     		bne	.L175
 1350              		.loc 1 408 0
 1351 0036 03B0     		add	sp, sp, #12
 1352              		.cfi_remember_state
 1353              		.cfi_def_cfa_offset 12
 1354              		@ sp needed
 1355 0038 BDE83040 		pop	{r4, r5, lr}
 1356              		.cfi_restore 14
 1357              		.cfi_restore 5
 1358              		.cfi_restore 4
 1359              		.cfi_def_cfa_offset 0
 1360              		.loc 1 407 0
 1361 003c FFF7FEBF 		b	_port_irq_epilogue
 1362              	.LVL110:
 1363              	.L175:
 1364              		.cfi_restore_state
 1365 0040 FFF7FEFF 		bl	__stack_chk_fail
 1366              	.LVL111:
 1367              	.L177:
 1368              		.align	2
ARM GAS  C:\Users\mathi\AppData\Local\Temp\ccmVpADE.s 			page 25


 1369              	.L176:
 1370 0044 00000000 		.word	__stack_chk_guard
 1371 0048 00640240 		.word	1073898496
 1372 004c 00000000 		.word	.LANCHOR0
 1373              		.cfi_endproc
 1374              	.LFE271:
 1375              		.size	Vector158, .-Vector158
 1376              		.section	.text.dmaInit,"ax",%progbits
 1377              		.align	1
 1378              		.p2align 4,,15
 1379              		.global	dmaInit
 1380              		.syntax unified
 1381              		.thumb
 1382              		.thumb_func
 1383              		.fpu fpv4-sp-d16
 1384              		.type	dmaInit, %function
 1385              	dmaInit:
 1386              	.LFB272:
 1387              		.loc 1 419 0
 1388              		.cfi_startproc
 1389              		@ args = 0, pretend = 0, frame = 8
 1390              		@ frame_needed = 0, uses_anonymous_args = 0
 1391 0000 70B5     		push	{r4, r5, r6, lr}
 1392              		.cfi_def_cfa_offset 16
 1393              		.cfi_offset 4, -16
 1394              		.cfi_offset 5, -12
 1395              		.cfi_offset 6, -8
 1396              		.cfi_offset 14, -4
 1397 0002 2348     		ldr	r0, .L182
 1398              		.loc 1 422 0
 1399 0004 234C     		ldr	r4, .L182+4
 1400              		.loc 1 419 0
 1401 0006 0368     		ldr	r3, [r0]
 1402              		.loc 1 425 0
 1403 0008 234A     		ldr	r2, .L182+8
 1404              		.loc 1 424 0
 1405 000a 2449     		ldr	r1, .L182+12
 1406 000c 244D     		ldr	r5, .L182+16
 1407 000e 254E     		ldr	r6, .L182+20
 1408              		.loc 1 419 0
 1409 0010 82B0     		sub	sp, sp, #8
 1410              		.cfi_def_cfa_offset 24
 1411              		.loc 1 427 0
 1412 0012 703D     		subs	r5, r5, #112
 1413              		.loc 1 419 0
 1414 0014 0193     		str	r3, [sp, #4]
 1415              		.loc 1 422 0
 1416 0016 0023     		movs	r3, #0
 1417 0018 2360     		str	r3, [r4]
 1418              	.LVL112:
 1419              		.loc 1 424 0
 1420 001a 234C     		ldr	r4, .L182+24
 1421 001c 0B60     		str	r3, [r1]
 1422              		.loc 1 425 0
 1423 001e 1360     		str	r3, [r2]
 1424              	.LVL113:
 1425 0020 9360     		str	r3, [r2, #8]
ARM GAS  C:\Users\mathi\AppData\Local\Temp\ccmVpADE.s 			page 26


 1426              	.LVL114:
 1427 0022 1361     		str	r3, [r2, #16]
 1428              	.LVL115:
 1429 0024 9361     		str	r3, [r2, #24]
 1430              	.LVL116:
 1431 0026 1362     		str	r3, [r2, #32]
 1432              	.LVL117:
 1433 0028 9362     		str	r3, [r2, #40]
 1434              	.LVL118:
 1435 002a 1363     		str	r3, [r2, #48]
 1436              	.LVL119:
 1437 002c 9363     		str	r3, [r2, #56]
 1438              	.LVL120:
 1439 002e 1364     		str	r3, [r2, #64]
 1440              	.LVL121:
 1441 0030 9364     		str	r3, [r2, #72]
 1442              	.LVL122:
 1443 0032 1365     		str	r3, [r2, #80]
 1444              	.LVL123:
 1445 0034 9365     		str	r3, [r2, #88]
 1446              	.LVL124:
 1447 0036 1366     		str	r3, [r2, #96]
 1448              	.LVL125:
 1449 0038 9366     		str	r3, [r2, #104]
 1450              	.LVL126:
 1451              		.loc 1 424 0
 1452 003a 3360     		str	r3, [r6]
 1453 003c 2360     		str	r3, [r4]
 1454 003e 8B64     		str	r3, [r1, #72]
 1455 0040 2B67     		str	r3, [r5, #112]
 1456 0042 A364     		str	r3, [r4, #72]
 1457 0044 C1F89030 		str	r3, [r1, #144]
 1458 0048 C5F8B830 		str	r3, [r5, #184]
 1459 004c C4F8D033 		str	r3, [r4, #976]
 1460 0050 C1F81834 		str	r3, [r1, #1048]
 1461 0054 C5F84034 		str	r3, [r5, #1088]
 1462 0058 C4F81834 		str	r3, [r4, #1048]
 1463 005c C1F86034 		str	r3, [r1, #1120]
 1464 0060 C5F88834 		str	r3, [r5, #1160]
 1465 0064 C4F86034 		str	r3, [r4, #1120]
 1466              		.loc 1 425 0
 1467 0068 1367     		str	r3, [r2, #112]
 1468              	.LVL127:
 1469              		.loc 1 424 0
 1470 006a C1F8A834 		str	r3, [r1, #1192]
 1471              		.loc 1 427 0
 1472 006e 4FF0FF31 		mov	r1, #-1
 1473 0072 A960     		str	r1, [r5, #8]
 1474              		.loc 1 428 0
 1475 0074 E960     		str	r1, [r5, #12]
 1476              		.loc 1 429 0
 1477 0076 C4F8C813 		str	r1, [r4, #968]
 1478              		.loc 1 430 0
 1479 007a C4F8CC13 		str	r1, [r4, #972]
 1480              		.loc 1 431 0
 1481 007e 019C     		ldr	r4, [sp, #4]
 1482 0080 0168     		ldr	r1, [r0]
ARM GAS  C:\Users\mathi\AppData\Local\Temp\ccmVpADE.s 			page 27


 1483              		.loc 1 425 0
 1484 0082 9367     		str	r3, [r2, #120]
 1485              	.LVL128:
 1486              		.loc 1 431 0
 1487 0084 8C42     		cmp	r4, r1
 1488 0086 01D1     		bne	.L181
 1489 0088 02B0     		add	sp, sp, #8
 1490              		.cfi_remember_state
 1491              		.cfi_def_cfa_offset 16
 1492              		@ sp needed
 1493 008a 70BD     		pop	{r4, r5, r6, pc}
 1494              	.L181:
 1495              		.cfi_restore_state
 1496 008c FFF7FEFF 		bl	__stack_chk_fail
 1497              	.LVL129:
 1498              	.L183:
 1499              		.align	2
 1500              	.L182:
 1501 0090 00000000 		.word	__stack_chk_guard
 1502 0094 00000000 		.word	.LANCHOR1
 1503 0098 00000000 		.word	.LANCHOR0
 1504 009c 10600240 		.word	1073897488
 1505 00a0 70600240 		.word	1073897584
 1506 00a4 28600240 		.word	1073897512
 1507 00a8 40600240 		.word	1073897536
 1508              		.cfi_endproc
 1509              	.LFE272:
 1510              		.size	dmaInit, .-dmaInit
 1511              		.section	.text.dmaStreamAllocate,"ax",%progbits
 1512              		.align	1
 1513              		.p2align 4,,15
 1514              		.global	dmaStreamAllocate
 1515              		.syntax unified
 1516              		.thumb
 1517              		.thumb_func
 1518              		.fpu fpv4-sp-d16
 1519              		.type	dmaStreamAllocate, %function
 1520              	dmaStreamAllocate:
 1521              	.LFB273:
 1522              		.loc 1 460 0
 1523              		.cfi_startproc
 1524              		@ args = 0, pretend = 0, frame = 24
 1525              		@ frame_needed = 0, uses_anonymous_args = 0
 1526              	.LVL130:
 1527 0000 F0B5     		push	{r4, r5, r6, r7, lr}
 1528              		.cfi_def_cfa_offset 20
 1529              		.cfi_offset 4, -20
 1530              		.cfi_offset 5, -16
 1531              		.cfi_offset 6, -12
 1532              		.cfi_offset 7, -8
 1533              		.cfi_offset 14, -4
 1534 0002 2D4F     		ldr	r7, .L204
 1535 0004 87B0     		sub	sp, sp, #28
 1536              		.cfi_def_cfa_offset 48
 1537              		.loc 1 460 0
 1538 0006 3C68     		ldr	r4, [r7]
 1539 0008 0594     		str	r4, [sp, #20]
ARM GAS  C:\Users\mathi\AppData\Local\Temp\ccmVpADE.s 			page 28


 1540              		.loc 1 462 0
 1541 000a 0546     		mov	r5, r0
 1542 000c 0028     		cmp	r0, #0
 1543 000e 47D0     		beq	.L201
 1544              	.LVL131:
 1545              	.L185:
 1546              		.loc 1 465 0
 1547 0010 DFF8B4C0 		ldr	ip, .L204+16
 1548 0014 6C7A     		ldrb	r4, [r5, #9]	@ zero_extendqisi2
 1549 0016 DCF800E0 		ldr	lr, [ip]
 1550 001a 0120     		movs	r0, #1
 1551 001c 00FA04F6 		lsl	r6, r0, r4
 1552 0020 16EA0E0F 		tst	r6, lr
 1553 0024 2ED1     		bne	.L186
 1554              		.loc 1 469 0
 1555 0026 2548     		ldr	r0, .L204+4
 1556              		.loc 1 471 0
 1557 0028 46EA0E06 		orr	r6, r6, lr
 1558              		.loc 1 470 0
 1559 002c 00EBC40E 		add	lr, r0, r4, lsl #3
 1560              		.loc 1 474 0
 1561 0030 16F0FF0F 		tst	r6, #255
 1562              		.loc 1 471 0
 1563 0034 CCF80060 		str	r6, [ip]
 1564              		.loc 1 469 0
 1565 0038 40F83420 		str	r2, [r0, r4, lsl #3]
 1566              		.loc 1 470 0
 1567 003c CEF80430 		str	r3, [lr, #4]
 1568              		.loc 1 474 0
 1569 0040 04D0     		beq	.L187
 1570              		.loc 1 475 0
 1571 0042 1F48     		ldr	r0, .L204+8
 1572 0044 036B     		ldr	r3, [r0, #48]
 1573 0046 43F40013 		orr	r3, r3, #2097152
 1574 004a 0363     		str	r3, [r0, #48]
 1575              	.L187:
 1576              		.loc 1 476 0
 1577 004c 16F47F4F 		tst	r6, #65280
 1578 0050 1ED1     		bne	.L202
 1579              	.L188:
 1580              		.loc 1 480 0
 1581 0052 2868     		ldr	r0, [r5]
 1582 0054 0368     		ldr	r3, [r0]
 1583 0056 23F01F03 		bic	r3, r3, #31
 1584 005a 0360     		str	r3, [r0]
 1585 005c 2868     		ldr	r0, [r5]
 1586              	.L189:
 1587              		.loc 1 480 0 is_stmt 0 discriminator 2
 1588 005e 0468     		ldr	r4, [r0]
 1589 0060 14F00104 		ands	r4, r4, #1
 1590 0064 FBD1     		bne	.L189
 1591              		.loc 1 480 0 discriminator 3
 1592 0066 2E7A     		ldrb	r6, [r5, #8]	@ zero_extendqisi2
 1593 0068 6868     		ldr	r0, [r5, #4]
 1594 006a 3D23     		movs	r3, #61
 1595 006c B340     		lsls	r3, r3, r6
 1596 006e 0360     		str	r3, [r0]
ARM GAS  C:\Users\mathi\AppData\Local\Temp\ccmVpADE.s 			page 29


 1597              		.loc 1 481 0 is_stmt 1 discriminator 3
 1598 0070 2B68     		ldr	r3, [r5]
 1599 0072 1C60     		str	r4, [r3]
 1600              		.loc 1 482 0 discriminator 3
 1601 0074 2B68     		ldr	r3, [r5]
 1602 0076 2120     		movs	r0, #33
 1603 0078 5861     		str	r0, [r3, #20]
 1604              		.loc 1 485 0 discriminator 3
 1605 007a 7AB1     		cbz	r2, .L192
 1606              		.loc 1 486 0
 1607 007c A87A     		ldrb	r0, [r5, #10]	@ zero_extendqisi2
 1608 007e FFF7FEFF 		bl	nvicEnableVector
 1609              	.LVL132:
 1610              		.loc 1 488 0
 1611 0082 2046     		mov	r0, r4
 1612              	.L186:
 1613              		.loc 1 489 0
 1614 0084 059A     		ldr	r2, [sp, #20]
 1615 0086 3B68     		ldr	r3, [r7]
 1616 0088 9A42     		cmp	r2, r3
 1617 008a 13D1     		bne	.L203
 1618 008c 07B0     		add	sp, sp, #28
 1619              		.cfi_remember_state
 1620              		.cfi_def_cfa_offset 20
 1621              		@ sp needed
 1622 008e F0BD     		pop	{r4, r5, r6, r7, pc}
 1623              	.LVL133:
 1624              	.L202:
 1625              		.cfi_restore_state
 1626              		.loc 1 477 0
 1627 0090 0B48     		ldr	r0, .L204+8
 1628 0092 036B     		ldr	r3, [r0, #48]
 1629 0094 43F48003 		orr	r3, r3, #4194304
 1630 0098 0363     		str	r3, [r0, #48]
 1631 009a DAE7     		b	.L188
 1632              	.L192:
 1633              		.loc 1 488 0
 1634 009c 1046     		mov	r0, r2
 1635 009e F1E7     		b	.L186
 1636              	.LVL134:
 1637              	.L201:
 1638              		.loc 1 462 0 discriminator 2
 1639 00a0 0848     		ldr	r0, .L204+12
 1640              	.LVL135:
 1641 00a2 0191     		str	r1, [sp, #4]
 1642 00a4 CDE90223 		strd	r2, r3, [sp, #8]
 1643 00a8 FFF7FEFF 		bl	chSysHalt
 1644              	.LVL136:
 1645 00ac DDE90223 		ldrd	r2, r3, [sp, #8]
 1646 00b0 0199     		ldr	r1, [sp, #4]
 1647 00b2 ADE7     		b	.L185
 1648              	.LVL137:
 1649              	.L203:
 1650              		.loc 1 489 0
 1651 00b4 FFF7FEFF 		bl	__stack_chk_fail
 1652              	.LVL138:
 1653              	.L205:
ARM GAS  C:\Users\mathi\AppData\Local\Temp\ccmVpADE.s 			page 30


 1654              		.align	2
 1655              	.L204:
 1656 00b8 00000000 		.word	__stack_chk_guard
 1657 00bc 00000000 		.word	.LANCHOR0
 1658 00c0 00380240 		.word	1073887232
 1659 00c4 00000000 		.word	.LANCHOR2
 1660 00c8 00000000 		.word	.LANCHOR1
 1661              		.cfi_endproc
 1662              	.LFE273:
 1663              		.size	dmaStreamAllocate, .-dmaStreamAllocate
 1664              		.section	.text.dmaStreamRelease,"ax",%progbits
 1665              		.align	1
 1666              		.p2align 4,,15
 1667              		.global	dmaStreamRelease
 1668              		.syntax unified
 1669              		.thumb
 1670              		.thumb_func
 1671              		.fpu fpv4-sp-d16
 1672              		.type	dmaStreamRelease, %function
 1673              	dmaStreamRelease:
 1674              	.LFB274:
 1675              		.loc 1 504 0
 1676              		.cfi_startproc
 1677              		@ args = 0, pretend = 0, frame = 8
 1678              		@ frame_needed = 0, uses_anonymous_args = 0
 1679              	.LVL139:
 1680 0000 70B5     		push	{r4, r5, r6, lr}
 1681              		.cfi_def_cfa_offset 16
 1682              		.cfi_offset 4, -16
 1683              		.cfi_offset 5, -12
 1684              		.cfi_offset 6, -8
 1685              		.cfi_offset 14, -4
 1686 0002 1B4E     		ldr	r6, .L216
 1687 0004 82B0     		sub	sp, sp, #8
 1688              		.cfi_def_cfa_offset 24
 1689              		.loc 1 504 0
 1690 0006 3368     		ldr	r3, [r6]
 1691 0008 0193     		str	r3, [sp, #4]
 1692              		.loc 1 506 0
 1693 000a 0446     		mov	r4, r0
 1694 000c 50B3     		cbz	r0, .L213
 1695              	.LVL140:
 1696              	.L207:
 1697              		.loc 1 509 0 discriminator 1
 1698 000e 194D     		ldr	r5, .L216+4
 1699 0010 617A     		ldrb	r1, [r4, #9]	@ zero_extendqisi2
 1700 0012 2A68     		ldr	r2, [r5]
 1701 0014 0123     		movs	r3, #1
 1702 0016 8B40     		lsls	r3, r3, r1
 1703 0018 1342     		tst	r3, r2
 1704 001a 1FD0     		beq	.L214
 1705              	.L208:
 1706              		.loc 1 513 0
 1707 001c A07A     		ldrb	r0, [r4, #10]	@ zero_extendqisi2
 1708 001e FFF7FEFF 		bl	nvicDisableVector
 1709              	.LVL141:
 1710              		.loc 1 516 0
ARM GAS  C:\Users\mathi\AppData\Local\Temp\ccmVpADE.s 			page 31


 1711 0022 617A     		ldrb	r1, [r4, #9]	@ zero_extendqisi2
 1712 0024 2B68     		ldr	r3, [r5]
 1713 0026 0122     		movs	r2, #1
 1714 0028 8A40     		lsls	r2, r2, r1
 1715 002a 23EA0203 		bic	r3, r3, r2
 1716              		.loc 1 519 0
 1717 002e 13F0FF0F 		tst	r3, #255
 1718              		.loc 1 516 0
 1719 0032 2B60     		str	r3, [r5]
 1720              		.loc 1 519 0
 1721 0034 04D1     		bne	.L209
 1722              		.loc 1 520 0
 1723 0036 1049     		ldr	r1, .L216+8
 1724 0038 0A6B     		ldr	r2, [r1, #48]
 1725 003a 22F40012 		bic	r2, r2, #2097152
 1726 003e 0A63     		str	r2, [r1, #48]
 1727              	.L209:
 1728              		.loc 1 521 0
 1729 0040 13F47F4F 		tst	r3, #65280
 1730 0044 04D1     		bne	.L206
 1731              		.loc 1 522 0
 1732 0046 0C4A     		ldr	r2, .L216+8
 1733 0048 136B     		ldr	r3, [r2, #48]
 1734 004a 23F48003 		bic	r3, r3, #4194304
 1735 004e 1363     		str	r3, [r2, #48]
 1736              	.L206:
 1737              		.loc 1 523 0
 1738 0050 019A     		ldr	r2, [sp, #4]
 1739 0052 3368     		ldr	r3, [r6]
 1740 0054 9A42     		cmp	r2, r3
 1741 0056 09D1     		bne	.L215
 1742 0058 02B0     		add	sp, sp, #8
 1743              		.cfi_remember_state
 1744              		.cfi_def_cfa_offset 16
 1745              		@ sp needed
 1746 005a 70BD     		pop	{r4, r5, r6, pc}
 1747              	.LVL142:
 1748              	.L214:
 1749              		.cfi_restore_state
 1750              		.loc 1 509 0 discriminator 2
 1751 005c 0748     		ldr	r0, .L216+12
 1752 005e FFF7FEFF 		bl	chSysHalt
 1753              	.LVL143:
 1754 0062 DBE7     		b	.L208
 1755              	.LVL144:
 1756              	.L213:
 1757              		.loc 1 506 0 discriminator 2
 1758 0064 0548     		ldr	r0, .L216+12
 1759              	.LVL145:
 1760 0066 FFF7FEFF 		bl	chSysHalt
 1761              	.LVL146:
 1762 006a D0E7     		b	.L207
 1763              	.L215:
 1764              		.loc 1 523 0
 1765 006c FFF7FEFF 		bl	__stack_chk_fail
 1766              	.LVL147:
 1767              	.L217:
ARM GAS  C:\Users\mathi\AppData\Local\Temp\ccmVpADE.s 			page 32


 1768              		.align	2
 1769              	.L216:
 1770 0070 00000000 		.word	__stack_chk_guard
 1771 0074 00000000 		.word	.LANCHOR1
 1772 0078 00380240 		.word	1073887232
 1773 007c 00000000 		.word	.LANCHOR3
 1774              		.cfi_endproc
 1775              	.LFE274:
 1776              		.size	dmaStreamRelease, .-dmaStreamRelease
 1777              		.global	_stm32_dma_streams
 1778              		.section	.bss.dma_isr_redir,"aw",%nobits
 1779              		.align	2
 1780              		.set	.LANCHOR0,. + 0
 1781              		.type	dma_isr_redir, %object
 1782              		.size	dma_isr_redir, 128
 1783              	dma_isr_redir:
 1784 0000 00000000 		.space	128
 1784      00000000 
 1784      00000000 
 1784      00000000 
 1784      00000000 
 1785              		.section	.bss.dma_streams_mask,"aw",%nobits
 1786              		.align	2
 1787              		.set	.LANCHOR1,. + 0
 1788              		.type	dma_streams_mask, %object
 1789              		.size	dma_streams_mask, 4
 1790              	dma_streams_mask:
 1791 0000 00000000 		.space	4
 1792              		.section	.rodata.__func__.9923,"a",%progbits
 1793              		.align	2
 1794              		.set	.LANCHOR2,. + 0
 1795              		.type	__func__.9923, %object
 1796              		.size	__func__.9923, 18
 1797              	__func__.9923:
 1798 0000 646D6153 		.ascii	"dmaStreamAllocate\000"
 1798      74726561 
 1798      6D416C6C 
 1798      6F636174 
 1798      6500
 1799              		.section	.rodata.__func__.9930,"a",%progbits
 1800              		.align	2
 1801              		.set	.LANCHOR3,. + 0
 1802              		.type	__func__.9930, %object
 1803              		.size	__func__.9930, 17
 1804              	__func__.9930:
 1805 0000 646D6153 		.ascii	"dmaStreamRelease\000"
 1805      74726561 
 1805      6D52656C 
 1805      65617365 
 1805      00
 1806              		.section	.rodata._stm32_dma_streams,"a",%progbits
 1807              		.align	2
 1808              		.type	_stm32_dma_streams, %object
 1809              		.size	_stm32_dma_streams, 192
 1810              	_stm32_dma_streams:
 1811 0000 10600240 		.word	1073897488
 1812 0004 08600240 		.word	1073897480
ARM GAS  C:\Users\mathi\AppData\Local\Temp\ccmVpADE.s 			page 33


 1813 0008 00       		.byte	0
 1814 0009 00       		.byte	0
 1815 000a 0B       		.byte	11
 1816 000b 00       		.space	1
 1817 000c 28600240 		.word	1073897512
 1818 0010 08600240 		.word	1073897480
 1819 0014 06       		.byte	6
 1820 0015 01       		.byte	1
 1821 0016 0C       		.byte	12
 1822 0017 00       		.space	1
 1823 0018 40600240 		.word	1073897536
 1824 001c 08600240 		.word	1073897480
 1825 0020 10       		.byte	16
 1826 0021 02       		.byte	2
 1827 0022 0D       		.byte	13
 1828 0023 00       		.space	1
 1829 0024 58600240 		.word	1073897560
 1830 0028 08600240 		.word	1073897480
 1831 002c 16       		.byte	22
 1832 002d 03       		.byte	3
 1833 002e 0E       		.byte	14
 1834 002f 00       		.space	1
 1835 0030 70600240 		.word	1073897584
 1836 0034 0C600240 		.word	1073897484
 1837 0038 00       		.byte	0
 1838 0039 04       		.byte	4
 1839 003a 0F       		.byte	15
 1840 003b 00       		.space	1
 1841 003c 88600240 		.word	1073897608
 1842 0040 0C600240 		.word	1073897484
 1843 0044 06       		.byte	6
 1844 0045 05       		.byte	5
 1845 0046 10       		.byte	16
 1846 0047 00       		.space	1
 1847 0048 A0600240 		.word	1073897632
 1848 004c 0C600240 		.word	1073897484
 1849 0050 10       		.byte	16
 1850 0051 06       		.byte	6
 1851 0052 11       		.byte	17
 1852 0053 00       		.space	1
 1853 0054 B8600240 		.word	1073897656
 1854 0058 0C600240 		.word	1073897484
 1855 005c 16       		.byte	22
 1856 005d 07       		.byte	7
 1857 005e 2F       		.byte	47
 1858 005f 00       		.space	1
 1859 0060 10640240 		.word	1073898512
 1860 0064 08640240 		.word	1073898504
 1861 0068 00       		.byte	0
 1862 0069 08       		.byte	8
 1863 006a 38       		.byte	56
 1864 006b 00       		.space	1
 1865 006c 28640240 		.word	1073898536
 1866 0070 08640240 		.word	1073898504
 1867 0074 06       		.byte	6
 1868 0075 09       		.byte	9
 1869 0076 39       		.byte	57
ARM GAS  C:\Users\mathi\AppData\Local\Temp\ccmVpADE.s 			page 34


 1870 0077 00       		.space	1
 1871 0078 40640240 		.word	1073898560
 1872 007c 08640240 		.word	1073898504
 1873 0080 10       		.byte	16
 1874 0081 0A       		.byte	10
 1875 0082 3A       		.byte	58
 1876 0083 00       		.space	1
 1877 0084 58640240 		.word	1073898584
 1878 0088 08640240 		.word	1073898504
 1879 008c 16       		.byte	22
 1880 008d 0B       		.byte	11
 1881 008e 3B       		.byte	59
 1882 008f 00       		.space	1
 1883 0090 70640240 		.word	1073898608
 1884 0094 0C640240 		.word	1073898508
 1885 0098 00       		.byte	0
 1886 0099 0C       		.byte	12
 1887 009a 3C       		.byte	60
 1888 009b 00       		.space	1
 1889 009c 88640240 		.word	1073898632
 1890 00a0 0C640240 		.word	1073898508
 1891 00a4 06       		.byte	6
 1892 00a5 0D       		.byte	13
 1893 00a6 44       		.byte	68
 1894 00a7 00       		.space	1
 1895 00a8 A0640240 		.word	1073898656
 1896 00ac 0C640240 		.word	1073898508
 1897 00b0 10       		.byte	16
 1898 00b1 0E       		.byte	14
 1899 00b2 45       		.byte	69
 1900 00b3 00       		.space	1
 1901 00b4 B8640240 		.word	1073898680
 1902 00b8 0C640240 		.word	1073898508
 1903 00bc 16       		.byte	22
 1904 00bd 0F       		.byte	15
 1905 00be 46       		.byte	70
 1906 00bf 00       		.space	1
 1907              		.text
 1908              	.Letext0:
 1909              		.file 2 "c:\\eclipse_e-puck2\\tools\\gcc-arm-none-eabi-7-2017-q4-major-win32\\lib\\gcc\\arm-none-e
 1910              		.file 3 "c:\\eclipse_e-puck2\\tools\\gcc-arm-none-eabi-7-2017-q4-major-win32\\arm-none-eabi\\inclu
 1911              		.file 4 "c:\\eclipse_e-puck2\\tools\\gcc-arm-none-eabi-7-2017-q4-major-win32\\arm-none-eabi\\inclu
 1912              		.file 5 "../../lib/e-puck2_main-processor/ChibiOS//os/rt/ports/ARMCMx/compilers/GCC/chtypes.h"
 1913              		.file 6 "../../lib/e-puck2_main-processor/ChibiOS//os/rt/include/chsystypes.h"
 1914              		.file 7 "../../lib/e-puck2_main-processor/ChibiOS//os/rt/include/chschd.h"
 1915              		.file 8 "../../lib/e-puck2_main-processor/ChibiOS//os/ext/CMSIS/include/core_cm4.h"
 1916              		.file 9 "../../lib/e-puck2_main-processor/ChibiOS//os/ext/CMSIS/ST/system_stm32f4xx.h"
 1917              		.file 10 "../../lib/e-puck2_main-processor/ChibiOS//os/ext/CMSIS/ST/stm32f407xx.h"
 1918              		.file 11 "../../lib/e-puck2_main-processor/ChibiOS//os/rt/ports/ARMCMx/chcore.h"
 1919              		.file 12 "../../lib/e-puck2_main-processor/ChibiOS//os/rt/ports/ARMCMx/chcore_v7m.h"
 1920              		.file 13 "../../lib/e-puck2_main-processor/ChibiOS//os/rt/include/chdebug.h"
 1921              		.file 14 "../../lib/e-puck2_main-processor/ChibiOS//os/rt/include/chtm.h"
 1922              		.file 15 "../../lib/e-puck2_main-processor/ChibiOS//os/rt/include/chstats.h"
 1923              		.file 16 "../../lib/e-puck2_main-processor/ChibiOS//os/rt/include/chsem.h"
 1924              		.file 17 "../../lib/e-puck2_main-processor/ChibiOS//os/rt/include/chmtx.h"
 1925              		.file 18 "../../lib/e-puck2_main-processor/ChibiOS//os/rt/include/chregistry.h"
 1926              		.file 19 "../../lib/e-puck2_main-processor/ChibiOS//os/rt/include/chevents.h"
ARM GAS  C:\Users\mathi\AppData\Local\Temp\ccmVpADE.s 			page 35


 1927              		.file 20 "../../lib/e-puck2_main-processor/ChibiOS//os/rt/include/chqueues.h"
 1928              		.file 21 "../../lib/e-puck2_main-processor/ChibiOS//os/hal/ports/STM32/STM32F4xx/stm32_dma.h"
 1929              		.file 22 "../../lib/e-puck2_main-processor/ChibiOS//os/hal/include/hal_ioblock.h"
 1930              		.file 23 "../../lib/e-puck2_main-processor/ChibiOS//os/hal/ports/STM32/LLD/GPIOv2/pal_lld.h"
 1931              		.file 24 "../../lib/e-puck2_main-processor/ChibiOS//os/hal/include/adc.h"
 1932              		.file 25 "../../lib/e-puck2_main-processor/ChibiOS//os/hal/ports/STM32/STM32F4xx/adc_lld.h"
 1933              		.file 26 "../../lib/e-puck2_main-processor/ChibiOS//os/hal/include/can.h"
 1934              		.file 27 "../../lib/e-puck2_main-processor/ChibiOS//os/hal/ports/STM32/LLD/can_lld.h"
 1935              		.file 28 "../../lib/e-puck2_main-processor/ChibiOS//os/hal/include/dac.h"
 1936              		.file 29 "../../lib/e-puck2_main-processor/ChibiOS//os/hal/ports/STM32/LLD/DACv1/dac_lld.h"
 1937              		.file 30 "../../lib/e-puck2_main-processor/ChibiOS//os/hal/include/ext.h"
 1938              		.file 31 "../../lib/e-puck2_main-processor/ChibiOS//os/hal/ports/STM32/LLD/ext_lld.h"
 1939              		.file 32 "../../lib/e-puck2_main-processor/ChibiOS//os/hal/include/gpt.h"
 1940              		.file 33 "../../lib/e-puck2_main-processor/ChibiOS//os/hal/ports/STM32/LLD/TIMv1/gpt_lld.h"
 1941              		.file 34 "../../lib/e-puck2_main-processor/ChibiOS//os/hal/ports/STM32/LLD/TIMv1/stm32_tim.h"
 1942              		.file 35 "../../lib/e-puck2_main-processor/ChibiOS//os/hal/include/i2c.h"
 1943              		.file 36 "../../lib/e-puck2_main-processor/ChibiOS//os/hal/ports/STM32/LLD/I2Cv1/i2c_lld.h"
 1944              		.file 37 "../../lib/e-puck2_main-processor/ChibiOS//os/hal/include/i2s.h"
 1945              		.file 38 "../../lib/e-puck2_main-processor/ChibiOS//os/hal/ports/STM32/LLD/SPIv1/i2s_lld.h"
 1946              		.file 39 "../../lib/e-puck2_main-processor/ChibiOS//os/hal/include/pwm.h"
 1947              		.file 40 "../../lib/e-puck2_main-processor/ChibiOS//os/hal/ports/STM32/LLD/TIMv1/pwm_lld.h"
 1948              		.file 41 "../../lib/e-puck2_main-processor/ChibiOS//os/hal/include/serial.h"
 1949              		.file 42 "../../lib/e-puck2_main-processor/ChibiOS//os/hal/ports/STM32/LLD/USARTv1/serial_lld.h"
 1950              		.file 43 "../../lib/e-puck2_main-processor/ChibiOS//os/hal/include/sdc.h"
 1951              		.file 44 "../../lib/e-puck2_main-processor/ChibiOS//os/hal/ports/STM32/LLD/sdc_lld.h"
 1952              		.file 45 "../../lib/e-puck2_main-processor/ChibiOS//os/hal/include/spi.h"
 1953              		.file 46 "../../lib/e-puck2_main-processor/ChibiOS//os/hal/ports/STM32/LLD/SPIv1/spi_lld.h"
 1954              		.file 47 "../../lib/e-puck2_main-processor/ChibiOS//os/hal/include/usb.h"
 1955              		.file 48 "../../lib/e-puck2_main-processor/ChibiOS//os/hal/ports/STM32/LLD/OTGv1/usb_lld.h"
 1956              		.file 49 "../../lib/e-puck2_main-processor/ChibiOS//os/hal/ports/STM32/LLD/OTGv1/stm32_otg.h"
 1957              		.file 50 "../../lib/e-puck2_main-processor/ChibiOS//os/hal/ports/common/ARMCMx/nvic.h"
 1958              		.file 51 "../../lib/e-puck2_main-processor/ChibiOS//os/rt/include/chsys.h"