ARM GAS  C:\Users\mathi\AppData\Local\Temp\ccRLxsF0.s 			page 1


   1              		.cpu cortex-m4
   2              		.eabi_attribute 27, 1
   3              		.eabi_attribute 28, 1
   4              		.eabi_attribute 20, 1
   5              		.eabi_attribute 21, 1
   6              		.eabi_attribute 23, 3
   7              		.eabi_attribute 24, 1
   8              		.eabi_attribute 25, 1
   9              		.eabi_attribute 26, 1
  10              		.eabi_attribute 30, 2
  11              		.eabi_attribute 34, 1
  12              		.eabi_attribute 18, 4
  13              		.file	"test.c"
  14              		.text
  15              	.Ltext0:
  16              		.cfi_sections	.debug_frame
  17              		.section	.text.tmr,"ax",%progbits
  18              		.align	1
  19              		.p2align 4,,15
  20              		.syntax unified
  21              		.thumb
  22              		.thumb_func
  23              		.fpu fpv4-sp-d16
  24              		.type	tmr, %function
  25              	tmr:
  26              	.LFB270:
  27              		.file 1 "../../lib/e-puck2_main-processor/ChibiOS//test/rt/test.c"
  28              		.loc 1 264 0
  29              		.cfi_startproc
  30              		@ args = 0, pretend = 0, frame = 8
  31              		@ frame_needed = 0, uses_anonymous_args = 0
  32              	.LVL0:
  33 0000 00B5     		push	{lr}
  34              		.cfi_def_cfa_offset 4
  35              		.cfi_offset 14, -4
  36 0002 084B     		ldr	r3, .L6
  37              		.loc 1 267 0
  38 0004 0849     		ldr	r1, .L6+4
  39              		.loc 1 264 0
  40 0006 1A68     		ldr	r2, [r3]
  41 0008 83B0     		sub	sp, sp, #12
  42              		.cfi_def_cfa_offset 16
  43              		.loc 1 267 0
  44 000a 0120     		movs	r0, #1
  45              	.LVL1:
  46              		.loc 1 264 0
  47 000c 0192     		str	r2, [sp, #4]
  48              		.loc 1 268 0
  49 000e 019A     		ldr	r2, [sp, #4]
  50 0010 1B68     		ldr	r3, [r3]
  51              		.loc 1 267 0
  52 0012 0870     		strb	r0, [r1]
  53              		.loc 1 268 0
  54 0014 9A42     		cmp	r2, r3
  55 0016 02D1     		bne	.L5
  56 0018 03B0     		add	sp, sp, #12
  57              		.cfi_remember_state
ARM GAS  C:\Users\mathi\AppData\Local\Temp\ccRLxsF0.s 			page 2


  58              		.cfi_def_cfa_offset 4
  59              		@ sp needed
  60 001a 5DF804FB 		ldr	pc, [sp], #4
  61              	.L5:
  62              		.cfi_restore_state
  63 001e FFF7FEFF 		bl	__stack_chk_fail
  64              	.LVL2:
  65              	.L7:
  66 0022 00BF     		.align	2
  67              	.L6:
  68 0024 00000000 		.word	__stack_chk_guard
  69 0028 00000000 		.word	.LANCHOR0
  70              		.cfi_endproc
  71              	.LFE270:
  72              		.size	tmr, .-tmr
  73              		.section	.text.test_printn,"ax",%progbits
  74              		.align	1
  75              		.p2align 4,,15
  76              		.global	test_printn
  77              		.syntax unified
  78              		.thumb
  79              		.thumb_func
  80              		.fpu fpv4-sp-d16
  81              		.type	test_printn, %function
  82              	test_printn:
  83              	.LFB256:
  84              		.loc 1 94 0
  85              		.cfi_startproc
  86              		@ args = 0, pretend = 0, frame = 24
  87              		@ frame_needed = 0, uses_anonymous_args = 0
  88              	.LVL3:
  89 0000 F0B5     		push	{r4, r5, r6, r7, lr}
  90              		.cfi_def_cfa_offset 20
  91              		.cfi_offset 4, -20
  92              		.cfi_offset 5, -16
  93              		.cfi_offset 6, -12
  94              		.cfi_offset 7, -8
  95              		.cfi_offset 14, -4
  96 0002 1A4D     		ldr	r5, .L21
  97 0004 87B0     		sub	sp, sp, #28
  98              		.cfi_def_cfa_offset 48
  99              		.loc 1 94 0
 100 0006 2B68     		ldr	r3, [r5]
 101 0008 0593     		str	r3, [sp, #20]
 102              		.loc 1 97 0
 103 000a 60B9     		cbnz	r0, .L20
 104              		.loc 1 98 0
 105 000c 059A     		ldr	r2, [sp, #20]
 106 000e 2B68     		ldr	r3, [r5]
 107 0010 1749     		ldr	r1, .L21+4
 108 0012 9A42     		cmp	r2, r3
 109 0014 0868     		ldr	r0, [r1]
 110              	.LVL4:
 111 0016 27D1     		bne	.L19
 112 0018 0368     		ldr	r3, [r0]
 113 001a 9B68     		ldr	r3, [r3, #8]
 114 001c 3021     		movs	r1, #48
ARM GAS  C:\Users\mathi\AppData\Local\Temp\ccRLxsF0.s 			page 3


 115              		.loc 1 106 0
 116 001e 07B0     		add	sp, sp, #28
 117              		.cfi_remember_state
 118              		.cfi_def_cfa_offset 20
 119              		@ sp needed
 120 0020 BDE8F040 		pop	{r4, r5, r6, r7, lr}
 121              		.cfi_restore 14
 122              		.cfi_restore 7
 123              		.cfi_restore 6
 124              		.cfi_restore 5
 125              		.cfi_restore 4
 126              		.cfi_def_cfa_offset 0
 127              		.loc 1 98 0
 128 0024 1847     		bx	r3
 129              	.LVL5:
 130              	.L20:
 131              		.cfi_restore_state
 132              	.LBB124:
 133              	.LBB125:
 134              		.loc 1 100 0
 135 0026 01AE     		add	r6, sp, #4
 136              		.loc 1 102 0
 137 0028 1249     		ldr	r1, .L21+8
 138              		.loc 1 100 0
 139 002a 3446     		mov	r4, r6
 140              	.LVL6:
 141              	.L10:
 142              		.loc 1 102 0
 143 002c A1FB0023 		umull	r2, r3, r1, r0
 144 0030 DB08     		lsrs	r3, r3, #3
 145 0032 03EB8302 		add	r2, r3, r3, lsl #2
 146 0036 A0EB4200 		sub	r0, r0, r2, lsl #1
 147              	.LVL7:
 148 003a 3030     		adds	r0, r0, #48
 149 003c 04F8010B 		strb	r0, [r4], #1
 150              	.LVL8:
 151              		.loc 1 101 0
 152 0040 1846     		mov	r0, r3
 153 0042 002B     		cmp	r3, #0
 154 0044 F2D1     		bne	.L10
 155              		.loc 1 103 0
 156 0046 B442     		cmp	r4, r6
 157 0048 08D9     		bls	.L8
 158 004a 094F     		ldr	r7, .L21+4
 159              	.LVL9:
 160              	.L12:
 161              		.loc 1 104 0
 162 004c 3868     		ldr	r0, [r7]
 163 004e 14F8011D 		ldrb	r1, [r4, #-1]!	@ zero_extendqisi2
 164              	.LVL10:
 165 0052 0368     		ldr	r3, [r0]
 166 0054 9B68     		ldr	r3, [r3, #8]
 167 0056 9847     		blx	r3
 168              	.LVL11:
 169              		.loc 1 103 0
 170 0058 B442     		cmp	r4, r6
 171 005a F7D1     		bne	.L12
ARM GAS  C:\Users\mathi\AppData\Local\Temp\ccRLxsF0.s 			page 4


 172              	.L8:
 173              	.LBE125:
 174              	.LBE124:
 175              		.loc 1 106 0
 176 005c 059A     		ldr	r2, [sp, #20]
 177 005e 2B68     		ldr	r3, [r5]
 178 0060 9A42     		cmp	r2, r3
 179 0062 01D1     		bne	.L19
 180 0064 07B0     		add	sp, sp, #28
 181              		.cfi_remember_state
 182              		.cfi_def_cfa_offset 20
 183              		@ sp needed
 184 0066 F0BD     		pop	{r4, r5, r6, r7, pc}
 185              	.LVL12:
 186              	.L19:
 187              		.cfi_restore_state
 188 0068 FFF7FEFF 		bl	__stack_chk_fail
 189              	.LVL13:
 190              	.L22:
 191              		.align	2
 192              	.L21:
 193 006c 00000000 		.word	__stack_chk_guard
 194 0070 00000000 		.word	.LANCHOR1
 195 0074 CDCCCCCC 		.word	-858993459
 196              		.cfi_endproc
 197              	.LFE256:
 198              		.size	test_printn, .-test_printn
 199              		.section	.text.test_print,"ax",%progbits
 200              		.align	1
 201              		.p2align 4,,15
 202              		.global	test_print
 203              		.syntax unified
 204              		.thumb
 205              		.thumb_func
 206              		.fpu fpv4-sp-d16
 207              		.type	test_print, %function
 208              	test_print:
 209              	.LFB257:
 210              		.loc 1 113 0
 211              		.cfi_startproc
 212              		@ args = 0, pretend = 0, frame = 8
 213              		@ frame_needed = 0, uses_anonymous_args = 0
 214              	.LVL14:
 215 0000 70B5     		push	{r4, r5, r6, lr}
 216              		.cfi_def_cfa_offset 16
 217              		.cfi_offset 4, -16
 218              		.cfi_offset 5, -12
 219              		.cfi_offset 6, -8
 220              		.cfi_offset 14, -4
 221 0002 0C4E     		ldr	r6, .L33
 222              		.loc 1 115 0
 223 0004 0178     		ldrb	r1, [r0]	@ zero_extendqisi2
 224              		.loc 1 113 0
 225 0006 3368     		ldr	r3, [r6]
 226 0008 82B0     		sub	sp, sp, #8
 227              		.cfi_def_cfa_offset 24
 228              		.loc 1 113 0
ARM GAS  C:\Users\mathi\AppData\Local\Temp\ccRLxsF0.s 			page 5


 229 000a 0193     		str	r3, [sp, #4]
 230              		.loc 1 115 0
 231 000c 49B1     		cbz	r1, .L23
 232 000e 0A4D     		ldr	r5, .L33+4
 233 0010 0446     		mov	r4, r0
 234              	.LVL15:
 235              	.L25:
 236              		.loc 1 116 0
 237 0012 2868     		ldr	r0, [r5]
 238 0014 0368     		ldr	r3, [r0]
 239 0016 9B68     		ldr	r3, [r3, #8]
 240 0018 9847     		blx	r3
 241              	.LVL16:
 242              		.loc 1 115 0
 243 001a 14F8011F 		ldrb	r1, [r4, #1]!	@ zero_extendqisi2
 244              	.LVL17:
 245 001e 0029     		cmp	r1, #0
 246 0020 F7D1     		bne	.L25
 247              	.LVL18:
 248              	.L23:
 249              		.loc 1 117 0
 250 0022 019A     		ldr	r2, [sp, #4]
 251 0024 3368     		ldr	r3, [r6]
 252 0026 9A42     		cmp	r2, r3
 253 0028 01D1     		bne	.L32
 254 002a 02B0     		add	sp, sp, #8
 255              		.cfi_remember_state
 256              		.cfi_def_cfa_offset 16
 257              		@ sp needed
 258 002c 70BD     		pop	{r4, r5, r6, pc}
 259              	.L32:
 260              		.cfi_restore_state
 261 002e FFF7FEFF 		bl	__stack_chk_fail
 262              	.LVL19:
 263              	.L34:
 264 0032 00BF     		.align	2
 265              	.L33:
 266 0034 00000000 		.word	__stack_chk_guard
 267 0038 00000000 		.word	.LANCHOR1
 268              		.cfi_endproc
 269              	.LFE257:
 270              		.size	test_print, .-test_print
 271              		.section	.text.test_println,"ax",%progbits
 272              		.align	1
 273              		.p2align 4,,15
 274              		.global	test_println
 275              		.syntax unified
 276              		.thumb
 277              		.thumb_func
 278              		.fpu fpv4-sp-d16
 279              		.type	test_println, %function
 280              	test_println:
 281              	.LFB258:
 282              		.loc 1 124 0
 283              		.cfi_startproc
 284              		@ args = 0, pretend = 0, frame = 8
 285              		@ frame_needed = 0, uses_anonymous_args = 0
ARM GAS  C:\Users\mathi\AppData\Local\Temp\ccRLxsF0.s 			page 6


 286              	.LVL20:
 287 0000 70B5     		push	{r4, r5, r6, lr}
 288              		.cfi_def_cfa_offset 16
 289              		.cfi_offset 4, -16
 290              		.cfi_offset 5, -12
 291              		.cfi_offset 6, -8
 292              		.cfi_offset 14, -4
 293 0002 104E     		ldr	r6, .L47
 294              	.LBB128:
 295              	.LBB129:
 296              		.loc 1 115 0
 297 0004 0178     		ldrb	r1, [r0]	@ zero_extendqisi2
 298              	.LBE129:
 299              	.LBE128:
 300              		.loc 1 124 0
 301 0006 3368     		ldr	r3, [r6]
 302 0008 82B0     		sub	sp, sp, #8
 303              		.cfi_def_cfa_offset 24
 304              		.loc 1 124 0
 305 000a 0193     		str	r3, [sp, #4]
 306              	.LVL21:
 307              	.LBB131:
 308              	.LBB130:
 309              		.loc 1 115 0
 310 000c B1B1     		cbz	r1, .L45
 311 000e 0E4D     		ldr	r5, .L47+4
 312 0010 0446     		mov	r4, r0
 313              	.LVL22:
 314              	.L37:
 315              		.loc 1 116 0
 316 0012 2868     		ldr	r0, [r5]
 317 0014 0368     		ldr	r3, [r0]
 318 0016 9B68     		ldr	r3, [r3, #8]
 319 0018 9847     		blx	r3
 320              	.LVL23:
 321              		.loc 1 115 0
 322 001a 14F8011F 		ldrb	r1, [r4, #1]!	@ zero_extendqisi2
 323              	.LVL24:
 324 001e 0029     		cmp	r1, #0
 325 0020 F7D1     		bne	.L37
 326              	.LVL25:
 327              	.L36:
 328              	.LBE130:
 329              	.LBE131:
 330              		.loc 1 127 0
 331 0022 019A     		ldr	r2, [sp, #4]
 332 0024 3368     		ldr	r3, [r6]
 333 0026 2868     		ldr	r0, [r5]
 334 0028 9A42     		cmp	r2, r3
 335 002a 09D1     		bne	.L46
 336 002c 0368     		ldr	r3, [r0]
 337 002e 0749     		ldr	r1, .L47+8
 338 0030 1B68     		ldr	r3, [r3]
 339 0032 0222     		movs	r2, #2
 340              		.loc 1 128 0
 341 0034 02B0     		add	sp, sp, #8
 342              		.cfi_remember_state
ARM GAS  C:\Users\mathi\AppData\Local\Temp\ccRLxsF0.s 			page 7


 343              		.cfi_def_cfa_offset 16
 344              		@ sp needed
 345 0036 BDE87040 		pop	{r4, r5, r6, lr}
 346              		.cfi_restore 14
 347              		.cfi_restore 6
 348              		.cfi_restore 5
 349              		.cfi_restore 4
 350              		.cfi_def_cfa_offset 0
 351              		.loc 1 127 0
 352 003a 1847     		bx	r3
 353              	.LVL26:
 354              	.L45:
 355              		.cfi_restore_state
 356 003c 024D     		ldr	r5, .L47+4
 357 003e F0E7     		b	.L36
 358              	.LVL27:
 359              	.L46:
 360 0040 FFF7FEFF 		bl	__stack_chk_fail
 361              	.LVL28:
 362              	.L48:
 363              		.align	2
 364              	.L47:
 365 0044 00000000 		.word	__stack_chk_guard
 366 0048 00000000 		.word	.LANCHOR1
 367 004c 00000000 		.word	.LC0
 368              		.cfi_endproc
 369              	.LFE258:
 370              		.size	test_println, .-test_println
 371              		.section	.text.test_emit_token,"ax",%progbits
 372              		.align	1
 373              		.p2align 4,,15
 374              		.global	test_emit_token
 375              		.syntax unified
 376              		.thumb
 377              		.thumb_func
 378              		.fpu fpv4-sp-d16
 379              		.type	test_emit_token, %function
 380              	test_emit_token:
 381              	.LFB261:
 382              		.loc 1 150 0
 383              		.cfi_startproc
 384              		@ args = 0, pretend = 0, frame = 8
 385              		@ frame_needed = 0, uses_anonymous_args = 0
 386              	.LVL29:
 387 0000 30B5     		push	{r4, r5, lr}
 388              		.cfi_def_cfa_offset 12
 389              		.cfi_offset 4, -12
 390              		.cfi_offset 5, -8
 391              		.cfi_offset 14, -4
 392 0002 164C     		ldr	r4, .L55
 393 0004 83B0     		sub	sp, sp, #12
 394              		.cfi_def_cfa_offset 24
 395              		.loc 1 150 0
 396 0006 2368     		ldr	r3, [r4]
 397 0008 0193     		str	r3, [sp, #4]
 398              	.LVL30:
 399 000a 0546     		mov	r5, r0
ARM GAS  C:\Users\mathi\AppData\Local\Temp\ccRLxsF0.s 			page 8


 400              	.LBB142:
 401              	.LBB143:
 402              	.LBB144:
 403              	.LBB145:
 404              	.LBB146:
 405              		.file 2 "../../lib/e-puck2_main-processor/ChibiOS//os/ext/CMSIS/include/core_cmFunc.h"
 406              		.loc 2 546 0
 407 000c 2023     		movs	r3, #32
 408              		.syntax unified
 409              	@ 546 "../../lib/e-puck2_main-processor/ChibiOS//os/ext/CMSIS/include/core_cmFunc.h" 1
 410 000e 83F31188 		MSR basepri, r3
 411              	@ 0 "" 2
 412              	.LVL31:
 413              		.thumb
 414              		.syntax unified
 415              	.LBE146:
 416              	.LBE145:
 417              	.LBE144:
 418              		.file 3 "../../lib/e-puck2_main-processor/ChibiOS//os/rt/include/chsys.h"
 419              		.loc 3 349 0
 420 0012 FFF7FEFF 		bl	_stats_start_measure_crit_thd
 421              	.LVL32:
 422              		.loc 3 350 0
 423 0016 FFF7FEFF 		bl	_dbg_check_lock
 424              	.LVL33:
 425              	.LBE143:
 426              	.LBE142:
 427              		.loc 1 153 0
 428 001a 114A     		ldr	r2, .L55+4
 429 001c 1368     		ldr	r3, [r2]
 430 001e 1D70     		strb	r5, [r3]
 431 0020 0133     		adds	r3, r3, #1
 432 0022 1360     		str	r3, [r2]
 433              	.LBB147:
 434              	.LBB148:
 435              		.loc 3 360 0
 436 0024 FFF7FEFF 		bl	_dbg_check_unlock
 437              	.LVL34:
 438              		.loc 3 361 0
 439 0028 FFF7FEFF 		bl	_stats_stop_measure_crit_thd
 440              	.LVL35:
 441              		.loc 3 367 0
 442 002c 0D4B     		ldr	r3, .L55+8
 443 002e 1A68     		ldr	r2, [r3]
 444 0030 9A42     		cmp	r2, r3
 445 0032 04D0     		beq	.L50
 446 0034 9969     		ldr	r1, [r3, #24]
 447 0036 9368     		ldr	r3, [r2, #8]
 448 0038 8A68     		ldr	r2, [r1, #8]
 449 003a 9A42     		cmp	r2, r3
 450 003c 08D3     		bcc	.L53
 451              	.L50:
 452              	.LVL36:
 453              	.LBB149:
 454              	.LBB150:
 455              	.LBB151:
 456              		.loc 2 546 0
ARM GAS  C:\Users\mathi\AppData\Local\Temp\ccRLxsF0.s 			page 9


 457 003e 0023     		movs	r3, #0
 458              		.syntax unified
 459              	@ 546 "../../lib/e-puck2_main-processor/ChibiOS//os/ext/CMSIS/include/core_cmFunc.h" 1
 460 0040 83F31188 		MSR basepri, r3
 461              	@ 0 "" 2
 462              	.LVL37:
 463              		.thumb
 464              		.syntax unified
 465              	.LBE151:
 466              	.LBE150:
 467              	.LBE149:
 468              	.LBE148:
 469              	.LBE147:
 470              		.loc 1 155 0
 471 0044 019A     		ldr	r2, [sp, #4]
 472 0046 2368     		ldr	r3, [r4]
 473 0048 9A42     		cmp	r2, r3
 474 004a 05D1     		bne	.L54
 475 004c 03B0     		add	sp, sp, #12
 476              		.cfi_remember_state
 477              		.cfi_def_cfa_offset 12
 478              		@ sp needed
 479 004e 30BD     		pop	{r4, r5, pc}
 480              	.L53:
 481              		.cfi_restore_state
 482              	.LBB153:
 483              	.LBB152:
 484              		.loc 3 367 0
 485 0050 0548     		ldr	r0, .L55+12
 486 0052 FFF7FEFF 		bl	chSysHalt
 487              	.LVL38:
 488 0056 F2E7     		b	.L50
 489              	.L54:
 490              	.LBE152:
 491              	.LBE153:
 492              		.loc 1 155 0
 493 0058 FFF7FEFF 		bl	__stack_chk_fail
 494              	.LVL39:
 495              	.L56:
 496              		.align	2
 497              	.L55:
 498 005c 00000000 		.word	__stack_chk_guard
 499 0060 00000000 		.word	.LANCHOR2
 500 0064 00000000 		.word	ch
 501 0068 00000000 		.word	.LANCHOR3
 502              		.cfi_endproc
 503              	.LFE261:
 504              		.size	test_emit_token, .-test_emit_token
 505              		.section	.text._test_fail,"ax",%progbits
 506              		.align	1
 507              		.p2align 4,,15
 508              		.global	_test_fail
 509              		.syntax unified
 510              		.thumb
 511              		.thumb_func
 512              		.fpu fpv4-sp-d16
 513              		.type	_test_fail, %function
ARM GAS  C:\Users\mathi\AppData\Local\Temp\ccRLxsF0.s 			page 10


 514              	_test_fail:
 515              	.LFB262:
 516              		.loc 1 160 0
 517              		.cfi_startproc
 518              		@ args = 0, pretend = 0, frame = 8
 519              		@ frame_needed = 0, uses_anonymous_args = 0
 520              	.LVL40:
 521 0000 30B5     		push	{r4, r5, lr}
 522              		.cfi_def_cfa_offset 12
 523              		.cfi_offset 4, -12
 524              		.cfi_offset 5, -8
 525              		.cfi_offset 14, -4
 526 0002 094B     		ldr	r3, .L61
 527              		.loc 1 164 0
 528 0004 094D     		ldr	r5, .L61+4
 529              		.loc 1 160 0
 530 0006 1A68     		ldr	r2, [r3]
 531              		.loc 1 162 0
 532 0008 094C     		ldr	r4, .L61+8
 533              		.loc 1 163 0
 534 000a 0A49     		ldr	r1, .L61+12
 535              		.loc 1 164 0
 536 000c 2860     		str	r0, [r5]
 537              		.loc 1 160 0
 538 000e 83B0     		sub	sp, sp, #12
 539              		.cfi_def_cfa_offset 24
 540              		.loc 1 162 0
 541 0010 0120     		movs	r0, #1
 542              	.LVL41:
 543              		.loc 1 160 0
 544 0012 0192     		str	r2, [sp, #4]
 545              		.loc 1 166 0
 546 0014 019A     		ldr	r2, [sp, #4]
 547 0016 1B68     		ldr	r3, [r3]
 548              		.loc 1 162 0
 549 0018 2070     		strb	r0, [r4]
 550              		.loc 1 166 0
 551 001a 9A42     		cmp	r2, r3
 552              		.loc 1 163 0
 553 001c 0870     		strb	r0, [r1]
 554              		.loc 1 166 0
 555 001e 01D1     		bne	.L60
 556 0020 03B0     		add	sp, sp, #12
 557              		.cfi_remember_state
 558              		.cfi_def_cfa_offset 12
 559              		@ sp needed
 560 0022 30BD     		pop	{r4, r5, pc}
 561              	.L60:
 562              		.cfi_restore_state
 563 0024 FFF7FEFF 		bl	__stack_chk_fail
 564              	.LVL42:
 565              	.L62:
 566              		.align	2
 567              	.L61:
 568 0028 00000000 		.word	__stack_chk_guard
 569 002c 00000000 		.word	.LANCHOR6
 570 0030 00000000 		.word	.LANCHOR4
ARM GAS  C:\Users\mathi\AppData\Local\Temp\ccRLxsF0.s 			page 11


 571 0034 00000000 		.word	.LANCHOR5
 572              		.cfi_endproc
 573              	.LFE262:
 574              		.size	_test_fail, .-_test_fail
 575              		.section	.text._test_assert,"ax",%progbits
 576              		.align	1
 577              		.p2align 4,,15
 578              		.global	_test_assert
 579              		.syntax unified
 580              		.thumb
 581              		.thumb_func
 582              		.fpu fpv4-sp-d16
 583              		.type	_test_assert, %function
 584              	_test_assert:
 585              	.LFB263:
 586              		.loc 1 168 0
 587              		.cfi_startproc
 588              		@ args = 0, pretend = 0, frame = 8
 589              		@ frame_needed = 0, uses_anonymous_args = 0
 590              	.LVL43:
 591 0000 30B5     		push	{r4, r5, lr}
 592              		.cfi_def_cfa_offset 12
 593              		.cfi_offset 4, -12
 594              		.cfi_offset 5, -8
 595              		.cfi_offset 14, -4
 596 0002 0B4A     		ldr	r2, .L69
 597 0004 83B0     		sub	sp, sp, #12
 598              		.cfi_def_cfa_offset 24
 599              		.loc 1 168 0
 600 0006 1368     		ldr	r3, [r2]
 601 0008 0193     		str	r3, [sp, #4]
 602              		.loc 1 170 0
 603 000a 69B9     		cbnz	r1, .L66
 604              	.LVL44:
 605              	.LBB154:
 606              	.LBB155:
 607              		.loc 1 162 0
 608 000c 094D     		ldr	r5, .L69+4
 609              		.loc 1 163 0
 610 000e 0A4C     		ldr	r4, .L69+8
 611              		.loc 1 164 0
 612 0010 0A49     		ldr	r1, .L69+12
 613              	.LVL45:
 614              		.loc 1 162 0
 615 0012 0123     		movs	r3, #1
 616 0014 2B70     		strb	r3, [r5]
 617              		.loc 1 163 0
 618 0016 2370     		strb	r3, [r4]
 619              		.loc 1 164 0
 620 0018 0860     		str	r0, [r1]
 621              	.LVL46:
 622              	.L64:
 623              	.LBE155:
 624              	.LBE154:
 625              		.loc 1 173 0
 626 001a 0199     		ldr	r1, [sp, #4]
 627 001c 1268     		ldr	r2, [r2]
ARM GAS  C:\Users\mathi\AppData\Local\Temp\ccRLxsF0.s 			page 12


 628 001e 9142     		cmp	r1, r2
 629 0020 1846     		mov	r0, r3
 630              	.LVL47:
 631 0022 03D1     		bne	.L68
 632 0024 03B0     		add	sp, sp, #12
 633              		.cfi_remember_state
 634              		.cfi_def_cfa_offset 12
 635              		@ sp needed
 636 0026 30BD     		pop	{r4, r5, pc}
 637              	.LVL48:
 638              	.L66:
 639              		.cfi_restore_state
 640              		.loc 1 172 0
 641 0028 0023     		movs	r3, #0
 642 002a F6E7     		b	.L64
 643              	.LVL49:
 644              	.L68:
 645              		.loc 1 173 0
 646 002c FFF7FEFF 		bl	__stack_chk_fail
 647              	.LVL50:
 648              	.L70:
 649              		.align	2
 650              	.L69:
 651 0030 00000000 		.word	__stack_chk_guard
 652 0034 00000000 		.word	.LANCHOR4
 653 0038 00000000 		.word	.LANCHOR5
 654 003c 00000000 		.word	.LANCHOR6
 655              		.cfi_endproc
 656              	.LFE263:
 657              		.size	_test_assert, .-_test_assert
 658              		.section	.text._test_assert_sequence,"ax",%progbits
 659              		.align	1
 660              		.p2align 4,,15
 661              		.global	_test_assert_sequence
 662              		.syntax unified
 663              		.thumb
 664              		.thumb_func
 665              		.fpu fpv4-sp-d16
 666              		.type	_test_assert_sequence, %function
 667              	_test_assert_sequence:
 668              	.LFB264:
 669              		.loc 1 175 0
 670              		.cfi_startproc
 671              		@ args = 0, pretend = 0, frame = 8
 672              		@ frame_needed = 0, uses_anonymous_args = 0
 673              	.LVL51:
 674 0000 F0B5     		push	{r4, r5, r6, r7, lr}
 675              		.cfi_def_cfa_offset 20
 676              		.cfi_offset 4, -20
 677              		.cfi_offset 5, -16
 678              		.cfi_offset 6, -12
 679              		.cfi_offset 7, -8
 680              		.cfi_offset 14, -4
 681 0002 134E     		ldr	r6, .L80
 682              		.loc 1 177 0
 683 0004 134F     		ldr	r7, .L80+4
 684              		.loc 1 176 0
ARM GAS  C:\Users\mathi\AppData\Local\Temp\ccRLxsF0.s 			page 13


 685 0006 DFF85CC0 		ldr	ip, .L80+20
 686              		.loc 1 175 0
 687 000a 3368     		ldr	r3, [r6]
 688              		.loc 1 177 0
 689 000c 3D68     		ldr	r5, [r7]
 690              		.loc 1 175 0
 691 000e 83B0     		sub	sp, sp, #12
 692              		.cfi_def_cfa_offset 32
 693 0010 0139     		subs	r1, r1, #1
 694              	.LVL52:
 695              		.loc 1 175 0
 696 0012 0193     		str	r3, [sp, #4]
 697              	.LVL53:
 698              		.loc 1 176 0
 699 0014 6346     		mov	r3, ip
 700              		.loc 1 177 0
 701 0016 03E0     		b	.L72
 702              	.LVL54:
 703              	.L74:
 704              		.loc 1 178 0
 705 0018 13F8014B 		ldrb	r4, [r3], #1	@ zero_extendqisi2
 706              	.LVL55:
 707 001c 9442     		cmp	r4, r2
 708 001e 07D1     		bne	.L75
 709              	.LVL56:
 710              	.L72:
 711              		.loc 1 177 0
 712 0020 9D42     		cmp	r5, r3
 713 0022 11F8012F 		ldrb	r2, [r1, #1]!	@ zero_extendqisi2
 714              	.LVL57:
 715 0026 F7D8     		bhi	.L74
 716              		.loc 1 181 0
 717 0028 12B9     		cbnz	r2, .L75
 718              	.LBB156:
 719              	.LBB157:
 720              		.loc 1 135 0
 721 002a C7F800C0 		str	ip, [r7]
 722              	.LBE157:
 723              	.LBE156:
 724              		.loc 1 184 0
 725 002e 06E0     		b	.L73
 726              	.LVL58:
 727              	.L75:
 728              	.LBB158:
 729              	.LBB159:
 730              		.loc 1 162 0
 731 0030 094C     		ldr	r4, .L80+8
 732              		.loc 1 163 0
 733 0032 0A49     		ldr	r1, .L80+12
 734              		.loc 1 164 0
 735 0034 0A4B     		ldr	r3, .L80+16
 736              		.loc 1 162 0
 737 0036 0122     		movs	r2, #1
 738 0038 2270     		strb	r2, [r4]
 739              		.loc 1 163 0
 740 003a 0A70     		strb	r2, [r1]
 741              		.loc 1 164 0
ARM GAS  C:\Users\mathi\AppData\Local\Temp\ccRLxsF0.s 			page 14


 742 003c 1860     		str	r0, [r3]
 743              	.LVL59:
 744              	.L73:
 745              	.LBE159:
 746              	.LBE158:
 747              		.loc 1 185 0
 748 003e 0199     		ldr	r1, [sp, #4]
 749 0040 3368     		ldr	r3, [r6]
 750 0042 9942     		cmp	r1, r3
 751 0044 1046     		mov	r0, r2
 752              	.LVL60:
 753 0046 01D1     		bne	.L79
 754 0048 03B0     		add	sp, sp, #12
 755              		.cfi_remember_state
 756              		.cfi_def_cfa_offset 20
 757              		@ sp needed
 758 004a F0BD     		pop	{r4, r5, r6, r7, pc}
 759              	.L79:
 760              		.cfi_restore_state
 761 004c FFF7FEFF 		bl	__stack_chk_fail
 762              	.LVL61:
 763              	.L81:
 764              		.align	2
 765              	.L80:
 766 0050 00000000 		.word	__stack_chk_guard
 767 0054 00000000 		.word	.LANCHOR2
 768 0058 00000000 		.word	.LANCHOR4
 769 005c 00000000 		.word	.LANCHOR5
 770 0060 00000000 		.word	.LANCHOR6
 771 0064 00000000 		.word	.LANCHOR7
 772              		.cfi_endproc
 773              	.LFE264:
 774              		.size	_test_assert_sequence, .-_test_assert_sequence
 775              		.section	.text._test_assert_time_window,"ax",%progbits
 776              		.align	1
 777              		.p2align 4,,15
 778              		.global	_test_assert_time_window
 779              		.syntax unified
 780              		.thumb
 781              		.thumb_func
 782              		.fpu fpv4-sp-d16
 783              		.type	_test_assert_time_window, %function
 784              	_test_assert_time_window:
 785              	.LFB265:
 786              		.loc 1 187 0
 787              		.cfi_startproc
 788              		@ args = 0, pretend = 0, frame = 8
 789              		@ frame_needed = 0, uses_anonymous_args = 0
 790              	.LVL62:
 791 0000 2DE9F043 		push	{r4, r5, r6, r7, r8, r9, lr}
 792              		.cfi_def_cfa_offset 28
 793              		.cfi_offset 4, -28
 794              		.cfi_offset 5, -24
 795              		.cfi_offset 6, -20
 796              		.cfi_offset 7, -16
 797              		.cfi_offset 8, -12
 798              		.cfi_offset 9, -8
ARM GAS  C:\Users\mathi\AppData\Local\Temp\ccRLxsF0.s 			page 15


 799              		.cfi_offset 14, -4
 800 0004 DFF88880 		ldr	r8, .L90+20
 801 0008 83B0     		sub	sp, sp, #12
 802              		.cfi_def_cfa_offset 40
 803              		.loc 1 187 0
 804 000a D8F80030 		ldr	r3, [r8]
 805 000e 0193     		str	r3, [sp, #4]
 806 0010 0746     		mov	r7, r0
 807 0012 8946     		mov	r9, r1
 808              	.LVL63:
 809 0014 1546     		mov	r5, r2
 810              	.LVL64:
 811              	.LBB182:
 812              	.LBB183:
 813              	.LBB184:
 814              	.LBB185:
 815              	.LBB186:
 816              	.LBB187:
 817              	.LBB188:
 818              	.LBB189:
 819              		.loc 2 546 0
 820 0016 2023     		movs	r3, #32
 821              		.syntax unified
 822              	@ 546 "../../lib/e-puck2_main-processor/ChibiOS//os/ext/CMSIS/include/core_cmFunc.h" 1
 823 0018 83F31188 		MSR basepri, r3
 824              	@ 0 "" 2
 825              	.LVL65:
 826              		.thumb
 827              		.syntax unified
 828              	.LBE189:
 829              	.LBE188:
 830              	.LBE187:
 831              	.LBE186:
 832              	.LBE185:
 833              	.LBB191:
 834              	.LBB192:
 835              		.file 4 "../../lib/e-puck2_main-processor/ChibiOS//os/rt/include/chvt.h"
 836              		.loc 4 231 0
 837 001c 174C     		ldr	r4, .L90
 838              	.LBE192:
 839              	.LBE191:
 840              	.LBB194:
 841              	.LBB190:
 842              		.loc 3 349 0
 843 001e FFF7FEFF 		bl	_stats_start_measure_crit_thd
 844              	.LVL66:
 845              		.loc 3 350 0
 846 0022 FFF7FEFF 		bl	_dbg_check_lock
 847              	.LVL67:
 848              	.LBE190:
 849              	.LBE194:
 850              	.LBB195:
 851              	.LBB193:
 852              		.loc 4 231 0
 853 0026 A66A     		ldr	r6, [r4, #40]
 854              	.LBE193:
 855              	.LBE195:
ARM GAS  C:\Users\mathi\AppData\Local\Temp\ccRLxsF0.s 			page 16


 856              	.LBB196:
 857              	.LBB197:
 858              		.loc 3 360 0
 859 0028 FFF7FEFF 		bl	_dbg_check_unlock
 860              	.LVL68:
 861              		.loc 3 361 0
 862 002c FFF7FEFF 		bl	_stats_stop_measure_crit_thd
 863              	.LVL69:
 864              		.loc 3 367 0
 865 0030 2368     		ldr	r3, [r4]
 866 0032 A342     		cmp	r3, r4
 867 0034 04D0     		beq	.L83
 868 0036 A269     		ldr	r2, [r4, #24]
 869 0038 9B68     		ldr	r3, [r3, #8]
 870 003a 9268     		ldr	r2, [r2, #8]
 871 003c 9A42     		cmp	r2, r3
 872 003e 17D3     		bcc	.L88
 873              	.L83:
 874              	.LVL70:
 875              	.LBB198:
 876              	.LBB199:
 877              	.LBB200:
 878              		.loc 2 546 0
 879 0040 0020     		movs	r0, #0
 880              		.syntax unified
 881              	@ 546 "../../lib/e-puck2_main-processor/ChibiOS//os/ext/CMSIS/include/core_cmFunc.h" 1
 882 0042 80F31188 		MSR basepri, r0
 883              	@ 0 "" 2
 884              	.LVL71:
 885              		.thumb
 886              		.syntax unified
 887              	.LBE200:
 888              	.LBE199:
 889              	.LBE198:
 890              	.LBE197:
 891              	.LBE196:
 892              	.LBE184:
 893              	.LBE183:
 894              	.LBB204:
 895              	.LBB205:
 896              		.loc 4 288 0
 897 0046 A6EB0906 		sub	r6, r6, r9
 898 004a A5EB0905 		sub	r5, r5, r9
 899              	.LVL72:
 900              	.LBE205:
 901              	.LBE204:
 902              	.LBE182:
 903              	.LBB207:
 904              	.LBB208:
 905              		.loc 1 170 0
 906 004e AE42     		cmp	r6, r5
 907 0050 06D3     		bcc	.L84
 908              	.LVL73:
 909              	.LBB209:
 910              	.LBB210:
 911              		.loc 1 162 0
 912 0052 0B49     		ldr	r1, .L90+4
ARM GAS  C:\Users\mathi\AppData\Local\Temp\ccRLxsF0.s 			page 17


 913              		.loc 1 163 0
 914 0054 0B4A     		ldr	r2, .L90+8
 915              		.loc 1 164 0
 916 0056 0C4B     		ldr	r3, .L90+12
 917              		.loc 1 162 0
 918 0058 0120     		movs	r0, #1
 919 005a 0870     		strb	r0, [r1]
 920              		.loc 1 163 0
 921 005c 1070     		strb	r0, [r2]
 922              		.loc 1 164 0
 923 005e 1F60     		str	r7, [r3]
 924              	.LVL74:
 925              	.L84:
 926              	.LBE210:
 927              	.LBE209:
 928              	.LBE208:
 929              	.LBE207:
 930              		.loc 1 190 0
 931 0060 019A     		ldr	r2, [sp, #4]
 932 0062 D8F80030 		ldr	r3, [r8]
 933 0066 9A42     		cmp	r2, r3
 934 0068 06D1     		bne	.L89
 935 006a 03B0     		add	sp, sp, #12
 936              		.cfi_remember_state
 937              		.cfi_def_cfa_offset 28
 938              		@ sp needed
 939 006c BDE8F083 		pop	{r4, r5, r6, r7, r8, r9, pc}
 940              	.LVL75:
 941              	.L88:
 942              		.cfi_restore_state
 943              	.LBB211:
 944              	.LBB206:
 945              	.LBB203:
 946              	.LBB202:
 947              	.LBB201:
 948              		.loc 3 367 0
 949 0070 0648     		ldr	r0, .L90+16
 950 0072 FFF7FEFF 		bl	chSysHalt
 951              	.LVL76:
 952 0076 E3E7     		b	.L83
 953              	.LVL77:
 954              	.L89:
 955              	.LBE201:
 956              	.LBE202:
 957              	.LBE203:
 958              	.LBE206:
 959              	.LBE211:
 960              		.loc 1 190 0
 961 0078 FFF7FEFF 		bl	__stack_chk_fail
 962              	.LVL78:
 963              	.L91:
 964              		.align	2
 965              	.L90:
 966 007c 00000000 		.word	ch
 967 0080 00000000 		.word	.LANCHOR4
 968 0084 00000000 		.word	.LANCHOR5
 969 0088 00000000 		.word	.LANCHOR6
ARM GAS  C:\Users\mathi\AppData\Local\Temp\ccRLxsF0.s 			page 18


 970 008c 00000000 		.word	.LANCHOR3
 971 0090 00000000 		.word	__stack_chk_guard
 972              		.cfi_endproc
 973              	.LFE265:
 974              		.size	_test_assert_time_window, .-_test_assert_time_window
 975              		.section	.text.test_terminate_threads,"ax",%progbits
 976              		.align	1
 977              		.p2align 4,,15
 978              		.global	test_terminate_threads
 979              		.syntax unified
 980              		.thumb
 981              		.thumb_func
 982              		.fpu fpv4-sp-d16
 983              		.type	test_terminate_threads, %function
 984              	test_terminate_threads:
 985              	.LFB266:
 986              		.loc 1 199 0
 987              		.cfi_startproc
 988              		@ args = 0, pretend = 0, frame = 8
 989              		@ frame_needed = 0, uses_anonymous_args = 0
 990 0000 70B5     		push	{r4, r5, r6, lr}
 991              		.cfi_def_cfa_offset 16
 992              		.cfi_offset 4, -16
 993              		.cfi_offset 5, -12
 994              		.cfi_offset 6, -8
 995              		.cfi_offset 14, -4
 996 0002 0B4E     		ldr	r6, .L102
 997 0004 0B4C     		ldr	r4, .L102+4
 998 0006 3368     		ldr	r3, [r6]
 999 0008 82B0     		sub	sp, sp, #8
 1000              		.cfi_def_cfa_offset 24
 1001 000a 04F11405 		add	r5, r4, #20
 1002              		.loc 1 199 0
 1003 000e 0193     		str	r3, [sp, #4]
 1004              	.LVL79:
 1005              	.L94:
 1006              		.loc 1 203 0
 1007 0010 54F8040B 		ldr	r0, [r4], #4
 1008 0014 08B1     		cbz	r0, .L93
 1009              		.loc 1 204 0
 1010 0016 FFF7FEFF 		bl	chThdTerminate
 1011              	.LVL80:
 1012              	.L93:
 1013              		.loc 1 202 0 discriminator 2
 1014 001a AC42     		cmp	r4, r5
 1015 001c F8D1     		bne	.L94
 1016              		.loc 1 205 0
 1017 001e 019A     		ldr	r2, [sp, #4]
 1018 0020 3368     		ldr	r3, [r6]
 1019 0022 9A42     		cmp	r2, r3
 1020 0024 01D1     		bne	.L101
 1021 0026 02B0     		add	sp, sp, #8
 1022              		.cfi_remember_state
 1023              		.cfi_def_cfa_offset 16
 1024              		@ sp needed
 1025 0028 70BD     		pop	{r4, r5, r6, pc}
 1026              	.L101:
ARM GAS  C:\Users\mathi\AppData\Local\Temp\ccRLxsF0.s 			page 19


 1027              		.cfi_restore_state
 1028 002a FFF7FEFF 		bl	__stack_chk_fail
 1029              	.LVL81:
 1030              	.L103:
 1031 002e 00BF     		.align	2
 1032              	.L102:
 1033 0030 00000000 		.word	__stack_chk_guard
 1034 0034 00000000 		.word	.LANCHOR8
 1035              		.cfi_endproc
 1036              	.LFE266:
 1037              		.size	test_terminate_threads, .-test_terminate_threads
 1038              		.section	.text.test_wait_threads,"ax",%progbits
 1039              		.align	1
 1040              		.p2align 4,,15
 1041              		.global	test_wait_threads
 1042              		.syntax unified
 1043              		.thumb
 1044              		.thumb_func
 1045              		.fpu fpv4-sp-d16
 1046              		.type	test_wait_threads, %function
 1047              	test_wait_threads:
 1048              	.LFB267:
 1049              		.loc 1 210 0
 1050              		.cfi_startproc
 1051              		@ args = 0, pretend = 0, frame = 8
 1052              		@ frame_needed = 0, uses_anonymous_args = 0
 1053 0000 F0B5     		push	{r4, r5, r6, r7, lr}
 1054              		.cfi_def_cfa_offset 20
 1055              		.cfi_offset 4, -20
 1056              		.cfi_offset 5, -16
 1057              		.cfi_offset 6, -12
 1058              		.cfi_offset 7, -8
 1059              		.cfi_offset 14, -4
 1060 0002 0C4F     		ldr	r7, .L114
 1061 0004 0C4C     		ldr	r4, .L114+4
 1062 0006 3B68     		ldr	r3, [r7]
 1063 0008 83B0     		sub	sp, sp, #12
 1064              		.cfi_def_cfa_offset 32
 1065 000a 04F11405 		add	r5, r4, #20
 1066              		.loc 1 210 0
 1067 000e 0193     		str	r3, [sp, #4]
 1068              	.LVL82:
 1069              		.loc 1 216 0
 1070 0010 0026     		movs	r6, #0
 1071              	.LVL83:
 1072              	.L106:
 1073              		.loc 1 214 0
 1074 0012 54F8040B 		ldr	r0, [r4], #4
 1075 0016 18B1     		cbz	r0, .L105
 1076              		.loc 1 215 0
 1077 0018 FFF7FEFF 		bl	chThdWait
 1078              	.LVL84:
 1079              		.loc 1 216 0
 1080 001c 44F8046C 		str	r6, [r4, #-4]
 1081              	.L105:
 1082              		.loc 1 213 0 discriminator 2
 1083 0020 AC42     		cmp	r4, r5
ARM GAS  C:\Users\mathi\AppData\Local\Temp\ccRLxsF0.s 			page 20


 1084 0022 F6D1     		bne	.L106
 1085              		.loc 1 218 0
 1086 0024 019A     		ldr	r2, [sp, #4]
 1087 0026 3B68     		ldr	r3, [r7]
 1088 0028 9A42     		cmp	r2, r3
 1089 002a 01D1     		bne	.L113
 1090 002c 03B0     		add	sp, sp, #12
 1091              		.cfi_remember_state
 1092              		.cfi_def_cfa_offset 20
 1093              		@ sp needed
 1094 002e F0BD     		pop	{r4, r5, r6, r7, pc}
 1095              	.L113:
 1096              		.cfi_restore_state
 1097 0030 FFF7FEFF 		bl	__stack_chk_fail
 1098              	.LVL85:
 1099              	.L115:
 1100              		.align	2
 1101              	.L114:
 1102 0034 00000000 		.word	__stack_chk_guard
 1103 0038 00000000 		.word	.LANCHOR8
 1104              		.cfi_endproc
 1105              	.LFE267:
 1106              		.size	test_wait_threads, .-test_wait_threads
 1107              		.section	.text.test_cpu_pulse,"ax",%progbits
 1108              		.align	1
 1109              		.p2align 4,,15
 1110              		.global	test_cpu_pulse
 1111              		.syntax unified
 1112              		.thumb
 1113              		.thumb_func
 1114              		.fpu fpv4-sp-d16
 1115              		.type	test_cpu_pulse, %function
 1116              	test_cpu_pulse:
 1117              	.LFB268:
 1118              		.loc 1 227 0
 1119              		.cfi_startproc
 1120              		@ args = 0, pretend = 0, frame = 8
 1121              		@ frame_needed = 0, uses_anonymous_args = 0
 1122              	.LVL86:
 1123 0000 10B5     		push	{r4, lr}
 1124              		.cfi_def_cfa_offset 8
 1125              		.cfi_offset 4, -8
 1126              		.cfi_offset 14, -4
 1127 0002 134C     		ldr	r4, .L128
 1128              	.LBB212:
 1129              	.LBB213:
 1130              		.file 5 "../../lib/e-puck2_main-processor/ChibiOS//os/rt/include/chthreads.h"
 1131              		.loc 5 176 0
 1132 0004 134A     		ldr	r2, .L128+4
 1133              	.LBE213:
 1134              	.LBE212:
 1135              		.loc 1 227 0
 1136 0006 2368     		ldr	r3, [r4]
 1137              	.LBB215:
 1138              	.LBB214:
 1139              		.loc 5 176 0
 1140 0008 9169     		ldr	r1, [r2, #24]
ARM GAS  C:\Users\mathi\AppData\Local\Temp\ccRLxsF0.s 			page 21


 1141              	.LBE214:
 1142              	.LBE215:
 1143              		.loc 1 227 0
 1144 000a 82B0     		sub	sp, sp, #8
 1145              		.cfi_def_cfa_offset 16
 1146              		.loc 1 227 0
 1147 000c 0193     		str	r3, [sp, #4]
 1148              		.loc 1 231 0
 1149 000e 4FF47A73 		mov	r3, #1000
 1150 0012 03FB00F3 		mul	r3, r3, r0
 1151 0016 1048     		ldr	r0, .L128+8
 1152              	.LVL87:
 1153              	.LBB216:
 1154              	.LBB217:
 1155              		.loc 5 205 0
 1156 0018 4A6A     		ldr	r2, [r1, #36]
 1157              	.LBE217:
 1158              	.LBE216:
 1159              		.loc 1 231 0
 1160 001a 03F2E733 		addw	r3, r3, #999
 1161 001e A0FB0303 		umull	r0, r3, r0, r3
 1162 0022 02EB9313 		add	r3, r2, r3, lsr #6
 1163              	.LVL88:
 1164 0026 9342     		cmp	r3, r2
 1165 0028 0AD8     		bhi	.L117
 1166              	.L118:
 1167              	.LBB218:
 1168              	.LBB219:
 1169              		.loc 5 205 0
 1170 002a 486A     		ldr	r0, [r1, #36]
 1171              	.LBE219:
 1172              	.LBE218:
 1173              		.loc 1 239 0
 1174 002c 9042     		cmp	r0, r2
 1175 002e FCD2     		bcs	.L118
 1176 0030 9842     		cmp	r0, r3
 1177 0032 FAD3     		bcc	.L118
 1178              	.L116:
 1179              		.loc 1 240 0
 1180 0034 019A     		ldr	r2, [sp, #4]
 1181 0036 2368     		ldr	r3, [r4]
 1182              	.LVL89:
 1183 0038 9A42     		cmp	r2, r3
 1184 003a 07D1     		bne	.L127
 1185 003c 02B0     		add	sp, sp, #8
 1186              		.cfi_remember_state
 1187              		.cfi_def_cfa_offset 8
 1188              		@ sp needed
 1189 003e 10BD     		pop	{r4, pc}
 1190              	.LVL90:
 1191              	.L117:
 1192              		.cfi_restore_state
 1193              	.LBB221:
 1194              	.LBB220:
 1195              		.loc 5 205 0
 1196 0040 486A     		ldr	r0, [r1, #36]
 1197              	.LBE220:
ARM GAS  C:\Users\mathi\AppData\Local\Temp\ccRLxsF0.s 			page 22


 1198              	.LBE221:
 1199              		.loc 1 238 0
 1200 0042 8242     		cmp	r2, r0
 1201 0044 F6D8     		bhi	.L116
 1202 0046 8342     		cmp	r3, r0
 1203 0048 FAD8     		bhi	.L117
 1204 004a F3E7     		b	.L116
 1205              	.LVL91:
 1206              	.L127:
 1207              		.loc 1 240 0
 1208 004c FFF7FEFF 		bl	__stack_chk_fail
 1209              	.LVL92:
 1210              	.L129:
 1211              		.align	2
 1212              	.L128:
 1213 0050 00000000 		.word	__stack_chk_guard
 1214 0054 00000000 		.word	ch
 1215 0058 D34D6210 		.word	274877907
 1216              		.cfi_endproc
 1217              	.LFE268:
 1218              		.size	test_cpu_pulse, .-test_cpu_pulse
 1219              		.section	.text.test_wait_tick,"ax",%progbits
 1220              		.align	1
 1221              		.p2align 4,,15
 1222              		.global	test_wait_tick
 1223              		.syntax unified
 1224              		.thumb
 1225              		.thumb_func
 1226              		.fpu fpv4-sp-d16
 1227              		.type	test_wait_tick, %function
 1228              	test_wait_tick:
 1229              	.LFB269:
 1230              		.loc 1 248 0
 1231              		.cfi_startproc
 1232              		@ args = 0, pretend = 0, frame = 8
 1233              		@ frame_needed = 0, uses_anonymous_args = 0
 1234 0000 70B5     		push	{r4, r5, r6, lr}
 1235              		.cfi_def_cfa_offset 16
 1236              		.cfi_offset 4, -16
 1237              		.cfi_offset 5, -12
 1238              		.cfi_offset 6, -8
 1239              		.cfi_offset 14, -4
 1240 0002 164D     		ldr	r5, .L136
 1241 0004 82B0     		sub	sp, sp, #8
 1242              		.cfi_def_cfa_offset 24
 1243              		.loc 1 248 0
 1244 0006 2B68     		ldr	r3, [r5]
 1245 0008 0193     		str	r3, [sp, #4]
 1246              		.loc 1 250 0
 1247 000a 0120     		movs	r0, #1
 1248 000c FFF7FEFF 		bl	chThdSleep
 1249              	.LVL93:
 1250              	.LBB236:
 1251              	.LBB237:
 1252              	.LBB238:
 1253              	.LBB239:
 1254              	.LBB240:
ARM GAS  C:\Users\mathi\AppData\Local\Temp\ccRLxsF0.s 			page 23


 1255              	.LBB241:
 1256              	.LBB242:
 1257              		.loc 2 546 0
 1258 0010 2023     		movs	r3, #32
 1259              		.syntax unified
 1260              	@ 546 "../../lib/e-puck2_main-processor/ChibiOS//os/ext/CMSIS/include/core_cmFunc.h" 1
 1261 0012 83F31188 		MSR basepri, r3
 1262              	@ 0 "" 2
 1263              	.LVL94:
 1264              		.thumb
 1265              		.syntax unified
 1266              	.LBE242:
 1267              	.LBE241:
 1268              	.LBE240:
 1269              	.LBE239:
 1270              	.LBE238:
 1271              	.LBB244:
 1272              	.LBB245:
 1273              		.loc 4 231 0
 1274 0016 124C     		ldr	r4, .L136+4
 1275              	.LBE245:
 1276              	.LBE244:
 1277              	.LBB247:
 1278              	.LBB243:
 1279              		.loc 3 349 0
 1280 0018 FFF7FEFF 		bl	_stats_start_measure_crit_thd
 1281              	.LVL95:
 1282              		.loc 3 350 0
 1283 001c FFF7FEFF 		bl	_dbg_check_lock
 1284              	.LVL96:
 1285              	.LBE243:
 1286              	.LBE247:
 1287              	.LBB248:
 1288              	.LBB246:
 1289              		.loc 4 231 0
 1290 0020 A66A     		ldr	r6, [r4, #40]
 1291              	.LBE246:
 1292              	.LBE248:
 1293              	.LBB249:
 1294              	.LBB250:
 1295              		.loc 3 360 0
 1296 0022 FFF7FEFF 		bl	_dbg_check_unlock
 1297              	.LVL97:
 1298              		.loc 3 361 0
 1299 0026 FFF7FEFF 		bl	_stats_stop_measure_crit_thd
 1300              	.LVL98:
 1301              		.loc 3 367 0
 1302 002a 2368     		ldr	r3, [r4]
 1303 002c A342     		cmp	r3, r4
 1304 002e 04D0     		beq	.L131
 1305 0030 A269     		ldr	r2, [r4, #24]
 1306 0032 9B68     		ldr	r3, [r3, #8]
 1307 0034 9268     		ldr	r2, [r2, #8]
 1308 0036 9A42     		cmp	r2, r3
 1309 0038 09D3     		bcc	.L134
 1310              	.L131:
 1311              	.LVL99:
ARM GAS  C:\Users\mathi\AppData\Local\Temp\ccRLxsF0.s 			page 24


 1312              	.LBB251:
 1313              	.LBB252:
 1314              	.LBB253:
 1315              		.loc 2 546 0
 1316 003a 0023     		movs	r3, #0
 1317              		.syntax unified
 1318              	@ 546 "../../lib/e-puck2_main-processor/ChibiOS//os/ext/CMSIS/include/core_cmFunc.h" 1
 1319 003c 83F31188 		MSR basepri, r3
 1320              	@ 0 "" 2
 1321              	.LVL100:
 1322              		.thumb
 1323              		.syntax unified
 1324              	.LBE253:
 1325              	.LBE252:
 1326              	.LBE251:
 1327              	.LBE250:
 1328              	.LBE249:
 1329              	.LBE237:
 1330              	.LBE236:
 1331              		.loc 1 252 0
 1332 0040 019A     		ldr	r2, [sp, #4]
 1333 0042 2B68     		ldr	r3, [r5]
 1334 0044 9A42     		cmp	r2, r3
 1335 0046 3046     		mov	r0, r6
 1336 0048 05D1     		bne	.L135
 1337 004a 02B0     		add	sp, sp, #8
 1338              		.cfi_remember_state
 1339              		.cfi_def_cfa_offset 16
 1340              		@ sp needed
 1341 004c 70BD     		pop	{r4, r5, r6, pc}
 1342              	.L134:
 1343              		.cfi_restore_state
 1344              	.LBB257:
 1345              	.LBB256:
 1346              	.LBB255:
 1347              	.LBB254:
 1348              		.loc 3 367 0
 1349 004e 0548     		ldr	r0, .L136+8
 1350 0050 FFF7FEFF 		bl	chSysHalt
 1351              	.LVL101:
 1352 0054 F1E7     		b	.L131
 1353              	.L135:
 1354              	.LBE254:
 1355              	.LBE255:
 1356              	.LBE256:
 1357              	.LBE257:
 1358              		.loc 1 252 0
 1359 0056 FFF7FEFF 		bl	__stack_chk_fail
 1360              	.LVL102:
 1361              	.L137:
 1362 005a 00BF     		.align	2
 1363              	.L136:
 1364 005c 00000000 		.word	__stack_chk_guard
 1365 0060 00000000 		.word	ch
 1366 0064 00000000 		.word	.LANCHOR3
 1367              		.cfi_endproc
 1368              	.LFE269:
ARM GAS  C:\Users\mathi\AppData\Local\Temp\ccRLxsF0.s 			page 25


 1369              		.size	test_wait_tick, .-test_wait_tick
 1370              		.section	.text.test_start_timer,"ax",%progbits
 1371              		.align	1
 1372              		.p2align 4,,15
 1373              		.global	test_start_timer
 1374              		.syntax unified
 1375              		.thumb
 1376              		.thumb_func
 1377              		.fpu fpv4-sp-d16
 1378              		.type	test_start_timer, %function
 1379              	test_start_timer:
 1380              	.LFB271:
 1381              		.loc 1 275 0
 1382              		.cfi_startproc
 1383              		@ args = 0, pretend = 0, frame = 8
 1384              		@ frame_needed = 0, uses_anonymous_args = 0
 1385              	.LVL103:
 1386 0000 30B5     		push	{r4, r5, lr}
 1387              		.cfi_def_cfa_offset 12
 1388              		.cfi_offset 4, -12
 1389              		.cfi_offset 5, -8
 1390              		.cfi_offset 14, -4
 1391 0002 204D     		ldr	r5, .L148
 1392              		.loc 1 278 0
 1393 0004 204B     		ldr	r3, .L148+4
 1394              		.loc 1 275 0
 1395 0006 2A68     		ldr	r2, [r5]
 1396              		.loc 1 277 0
 1397 0008 4FF47A74 		mov	r4, #1000
 1398              		.loc 1 275 0
 1399 000c 83B0     		sub	sp, sp, #12
 1400              		.cfi_def_cfa_offset 24
 1401              		.loc 1 277 0
 1402 000e 04FB00F4 		mul	r4, r4, r0
 1403 0012 1E48     		ldr	r0, .L148+8
 1404              	.LVL104:
 1405              		.loc 1 275 0
 1406 0014 0192     		str	r2, [sp, #4]
 1407              		.loc 1 277 0
 1408 0016 04F2E734 		addw	r4, r4, #999
 1409 001a A0FB0424 		umull	r2, r4, r0, r4
 1410              		.loc 1 278 0
 1411 001e 0022     		movs	r2, #0
 1412 0020 1A70     		strb	r2, [r3]
 1413              		.loc 1 277 0
 1414 0022 A409     		lsrs	r4, r4, #6
 1415              	.LVL105:
 1416              	.LBB276:
 1417              	.LBB277:
 1418              	.LBB278:
 1419              	.LBB279:
 1420              	.LBB280:
 1421              	.LBB281:
 1422              		.loc 2 546 0
 1423 0024 2023     		movs	r3, #32
 1424              		.syntax unified
 1425              	@ 546 "../../lib/e-puck2_main-processor/ChibiOS//os/ext/CMSIS/include/core_cmFunc.h" 1
ARM GAS  C:\Users\mathi\AppData\Local\Temp\ccRLxsF0.s 			page 26


 1426 0026 83F31188 		MSR basepri, r3
 1427              	@ 0 "" 2
 1428              	.LVL106:
 1429              		.thumb
 1430              		.syntax unified
 1431              	.LBE281:
 1432              	.LBE280:
 1433              	.LBE279:
 1434              		.loc 3 349 0
 1435 002a FFF7FEFF 		bl	_stats_start_measure_crit_thd
 1436              	.LVL107:
 1437              		.loc 3 350 0
 1438 002e FFF7FEFF 		bl	_dbg_check_lock
 1439              	.LVL108:
 1440              	.LBE278:
 1441              	.LBE277:
 1442              	.LBB282:
 1443              	.LBB283:
 1444              	.LBB284:
 1445              	.LBB285:
 1446              	.LBB286:
 1447              	.LBB287:
 1448              		.loc 4 339 0
 1449 0032 FFF7FEFF 		bl	chDbgCheckClassI
 1450              	.LVL109:
 1451              		.loc 4 341 0
 1452 0036 1648     		ldr	r0, .L148+12
 1453              	.LBE287:
 1454              	.LBE286:
 1455              		.loc 4 376 0
 1456 0038 C368     		ldr	r3, [r0, #12]
 1457 003a 0BB1     		cbz	r3, .L139
 1458              		.loc 4 377 0
 1459 003c FFF7FEFF 		bl	chVTDoResetI
 1460              	.LVL110:
 1461              	.L139:
 1462              	.LBE285:
 1463              	.LBE284:
 1464              		.loc 4 424 0
 1465 0040 0023     		movs	r3, #0
 1466 0042 144A     		ldr	r2, .L148+16
 1467 0044 1248     		ldr	r0, .L148+12
 1468 0046 2146     		mov	r1, r4
 1469 0048 FFF7FEFF 		bl	chVTDoSetI
 1470              	.LVL111:
 1471              	.LBE283:
 1472              	.LBE282:
 1473              	.LBB288:
 1474              	.LBB289:
 1475              		.loc 3 360 0
 1476 004c FFF7FEFF 		bl	_dbg_check_unlock
 1477              	.LVL112:
 1478              		.loc 3 361 0
 1479 0050 FFF7FEFF 		bl	_stats_stop_measure_crit_thd
 1480              	.LVL113:
 1481              		.loc 3 367 0
 1482 0054 104B     		ldr	r3, .L148+20
ARM GAS  C:\Users\mathi\AppData\Local\Temp\ccRLxsF0.s 			page 27


 1483 0056 1A68     		ldr	r2, [r3]
 1484 0058 9A42     		cmp	r2, r3
 1485 005a 04D0     		beq	.L140
 1486 005c 9969     		ldr	r1, [r3, #24]
 1487 005e 9368     		ldr	r3, [r2, #8]
 1488 0060 8A68     		ldr	r2, [r1, #8]
 1489 0062 9A42     		cmp	r2, r3
 1490 0064 08D3     		bcc	.L146
 1491              	.L140:
 1492              	.LVL114:
 1493              	.LBB290:
 1494              	.LBB291:
 1495              	.LBB292:
 1496              		.loc 2 546 0
 1497 0066 0023     		movs	r3, #0
 1498              		.syntax unified
 1499              	@ 546 "../../lib/e-puck2_main-processor/ChibiOS//os/ext/CMSIS/include/core_cmFunc.h" 1
 1500 0068 83F31188 		MSR basepri, r3
 1501              	@ 0 "" 2
 1502              	.LVL115:
 1503              		.thumb
 1504              		.syntax unified
 1505              	.LBE292:
 1506              	.LBE291:
 1507              	.LBE290:
 1508              	.LBE289:
 1509              	.LBE288:
 1510              	.LBE276:
 1511              		.loc 1 280 0
 1512 006c 019A     		ldr	r2, [sp, #4]
 1513 006e 2B68     		ldr	r3, [r5]
 1514 0070 9A42     		cmp	r2, r3
 1515 0072 05D1     		bne	.L147
 1516 0074 03B0     		add	sp, sp, #12
 1517              		.cfi_remember_state
 1518              		.cfi_def_cfa_offset 12
 1519              		@ sp needed
 1520 0076 30BD     		pop	{r4, r5, pc}
 1521              	.LVL116:
 1522              	.L146:
 1523              		.cfi_restore_state
 1524              	.LBB295:
 1525              	.LBB294:
 1526              	.LBB293:
 1527              		.loc 3 367 0
 1528 0078 0848     		ldr	r0, .L148+24
 1529 007a FFF7FEFF 		bl	chSysHalt
 1530              	.LVL117:
 1531 007e F2E7     		b	.L140
 1532              	.LVL118:
 1533              	.L147:
 1534              	.LBE293:
 1535              	.LBE294:
 1536              	.LBE295:
 1537              		.loc 1 280 0
 1538 0080 FFF7FEFF 		bl	__stack_chk_fail
 1539              	.LVL119:
ARM GAS  C:\Users\mathi\AppData\Local\Temp\ccRLxsF0.s 			page 28


 1540              	.L149:
 1541              		.align	2
 1542              	.L148:
 1543 0084 00000000 		.word	__stack_chk_guard
 1544 0088 00000000 		.word	.LANCHOR0
 1545 008c D34D6210 		.word	274877907
 1546 0090 00000000 		.word	.LANCHOR9
 1547 0094 00000000 		.word	tmr
 1548 0098 00000000 		.word	ch
 1549 009c 00000000 		.word	.LANCHOR3
 1550              		.cfi_endproc
 1551              	.LFE271:
 1552              		.size	test_start_timer, .-test_start_timer
 1553              		.section	.text.TestThread,"ax",%progbits
 1554              		.align	1
 1555              		.p2align 4,,15
 1556              		.global	TestThread
 1557              		.syntax unified
 1558              		.thumb
 1559              		.thumb_func
 1560              		.fpu fpv4-sp-d16
 1561              		.type	TestThread, %function
 1562              	TestThread:
 1563              	.LFB274:
 1564              		.loc 1 316 0
 1565              		.cfi_startproc
 1566              		@ args = 0, pretend = 0, frame = 40
 1567              		@ frame_needed = 0, uses_anonymous_args = 0
 1568              	.LVL120:
 1569 0000 2DE9F04F 		push	{r4, r5, r6, r7, r8, r9, r10, fp, lr}
 1570              		.cfi_def_cfa_offset 36
 1571              		.cfi_offset 4, -36
 1572              		.cfi_offset 5, -32
 1573              		.cfi_offset 6, -28
 1574              		.cfi_offset 7, -24
 1575              		.cfi_offset 8, -20
 1576              		.cfi_offset 9, -16
 1577              		.cfi_offset 10, -12
 1578              		.cfi_offset 11, -8
 1579              		.cfi_offset 14, -4
 1580              	.LBB422:
 1581              	.LBB423:
 1582              		.loc 1 127 0
 1583 0004 0268     		ldr	r2, [r0]
 1584              	.LBE423:
 1585              	.LBE422:
 1586              		.loc 1 319 0
 1587 0006 954C     		ldr	r4, .L266
 1588              	.LBB428:
 1589              	.LBB424:
 1590              		.loc 1 127 0
 1591 0008 1668     		ldr	r6, [r2]
 1592              	.LBE424:
 1593              	.LBE428:
 1594              		.loc 1 316 0
 1595 000a 954A     		ldr	r2, .L266+4
 1596              	.LBB429:
ARM GAS  C:\Users\mathi\AppData\Local\Temp\ccRLxsF0.s 			page 29


 1597              	.LBB425:
 1598              		.loc 1 127 0
 1599 000c 9549     		ldr	r1, .L266+8
 1600              	.LBE425:
 1601              	.LBE429:
 1602              		.loc 1 316 0
 1603 000e 1568     		ldr	r5, [r2]
 1604              		.loc 1 319 0
 1605 0010 2060     		str	r0, [r4]
 1606              	.LVL121:
 1607              		.loc 1 316 0
 1608 0012 8BB0     		sub	sp, sp, #44
 1609              		.cfi_def_cfa_offset 80
 1610              	.LBB430:
 1611              	.LBB426:
 1612              		.loc 1 127 0
 1613 0014 0222     		movs	r2, #2
 1614              	.LBE426:
 1615              	.LBE430:
 1616              		.loc 1 316 0
 1617 0016 0995     		str	r5, [sp, #36]
 1618              	.LBB431:
 1619              	.LBB427:
 1620              		.loc 1 127 0
 1621 0018 934D     		ldr	r5, .L266+12
 1622 001a B047     		blx	r6
 1623              	.LVL122:
 1624              	.LBE427:
 1625              	.LBE431:
 1626              	.LBB432:
 1627              	.LBB433:
 1628              	.LBB434:
 1629              	.LBB435:
 1630              		.loc 1 115 0
 1631 001c 2A21     		movs	r1, #42
 1632              	.LVL123:
 1633              	.L151:
 1634              		.loc 1 116 0
 1635 001e 2068     		ldr	r0, [r4]
 1636 0020 0368     		ldr	r3, [r0]
 1637 0022 9B68     		ldr	r3, [r3, #8]
 1638 0024 9847     		blx	r3
 1639              	.LVL124:
 1640              		.loc 1 115 0
 1641 0026 15F8011F 		ldrb	r1, [r5, #1]!	@ zero_extendqisi2
 1642              	.LVL125:
 1643 002a 0029     		cmp	r1, #0
 1644 002c F7D1     		bne	.L151
 1645              	.LVL126:
 1646              	.LBE435:
 1647              	.LBE434:
 1648              		.loc 1 127 0
 1649 002e 2068     		ldr	r0, [r4]
 1650 0030 8C49     		ldr	r1, .L266+8
 1651 0032 0368     		ldr	r3, [r0]
 1652 0034 8D4D     		ldr	r5, .L266+16
 1653 0036 1B68     		ldr	r3, [r3]
ARM GAS  C:\Users\mathi\AppData\Local\Temp\ccRLxsF0.s 			page 30


 1654 0038 0222     		movs	r2, #2
 1655 003a 9847     		blx	r3
 1656              	.LVL127:
 1657              	.LBE433:
 1658              	.LBE432:
 1659              	.LBB436:
 1660              	.LBB437:
 1661              	.LBB438:
 1662              	.LBB439:
 1663              		.loc 1 115 0
 1664 003c 2A21     		movs	r1, #42
 1665              	.LVL128:
 1666              	.L152:
 1667              		.loc 1 116 0
 1668 003e 2068     		ldr	r0, [r4]
 1669 0040 0368     		ldr	r3, [r0]
 1670 0042 9B68     		ldr	r3, [r3, #8]
 1671 0044 9847     		blx	r3
 1672              	.LVL129:
 1673              		.loc 1 115 0
 1674 0046 15F8011F 		ldrb	r1, [r5, #1]!	@ zero_extendqisi2
 1675              	.LVL130:
 1676 004a 0029     		cmp	r1, #0
 1677 004c F7D1     		bne	.L152
 1678              	.LVL131:
 1679              	.LBE439:
 1680              	.LBE438:
 1681              		.loc 1 127 0
 1682 004e 2068     		ldr	r0, [r4]
 1683 0050 8449     		ldr	r1, .L266+8
 1684 0052 0368     		ldr	r3, [r0]
 1685 0054 864D     		ldr	r5, .L266+20
 1686 0056 1B68     		ldr	r3, [r3]
 1687 0058 0222     		movs	r2, #2
 1688 005a 9847     		blx	r3
 1689              	.LVL132:
 1690              	.LBE437:
 1691              	.LBE436:
 1692              	.LBB440:
 1693              	.LBB441:
 1694              		.loc 1 115 0
 1695 005c 2A21     		movs	r1, #42
 1696              	.LVL133:
 1697              	.L153:
 1698              		.loc 1 116 0
 1699 005e 2068     		ldr	r0, [r4]
 1700 0060 0368     		ldr	r3, [r0]
 1701 0062 9B68     		ldr	r3, [r3, #8]
 1702 0064 9847     		blx	r3
 1703              	.LVL134:
 1704              		.loc 1 115 0
 1705 0066 15F8011F 		ldrb	r1, [r5, #1]!	@ zero_extendqisi2
 1706              	.LVL135:
 1707 006a 0029     		cmp	r1, #0
 1708 006c F7D1     		bne	.L153
 1709 006e 814D     		ldr	r5, .L266+24
 1710              	.LVL136:
ARM GAS  C:\Users\mathi\AppData\Local\Temp\ccRLxsF0.s 			page 31


 1711              	.LBE441:
 1712              	.LBE440:
 1713              	.LBB442:
 1714              	.LBB443:
 1715              	.LBB444:
 1716              	.LBB445:
 1717 0070 3321     		movs	r1, #51
 1718              	.L154:
 1719              	.LVL137:
 1720              		.loc 1 116 0
 1721 0072 2068     		ldr	r0, [r4]
 1722 0074 0368     		ldr	r3, [r0]
 1723 0076 9B68     		ldr	r3, [r3, #8]
 1724 0078 9847     		blx	r3
 1725              	.LVL138:
 1726              		.loc 1 115 0
 1727 007a 15F8011F 		ldrb	r1, [r5, #1]!	@ zero_extendqisi2
 1728              	.LVL139:
 1729 007e 0029     		cmp	r1, #0
 1730 0080 F7D1     		bne	.L154
 1731              	.LVL140:
 1732              	.LBE445:
 1733              	.LBE444:
 1734              		.loc 1 127 0
 1735 0082 2068     		ldr	r0, [r4]
 1736 0084 7749     		ldr	r1, .L266+8
 1737 0086 0368     		ldr	r3, [r0]
 1738 0088 7B4D     		ldr	r5, .L266+28
 1739 008a 1B68     		ldr	r3, [r3]
 1740 008c 0222     		movs	r2, #2
 1741 008e 9847     		blx	r3
 1742              	.LVL141:
 1743              	.LBE443:
 1744              	.LBE442:
 1745              	.LBB446:
 1746              	.LBB447:
 1747              		.loc 1 115 0
 1748 0090 2A21     		movs	r1, #42
 1749              	.LVL142:
 1750              	.L155:
 1751              		.loc 1 116 0
 1752 0092 2068     		ldr	r0, [r4]
 1753 0094 0368     		ldr	r3, [r0]
 1754 0096 9B68     		ldr	r3, [r3, #8]
 1755 0098 9847     		blx	r3
 1756              	.LVL143:
 1757              		.loc 1 115 0
 1758 009a 15F8011F 		ldrb	r1, [r5, #1]!	@ zero_extendqisi2
 1759              	.LVL144:
 1760 009e 0029     		cmp	r1, #0
 1761 00a0 F7D1     		bne	.L155
 1762 00a2 764D     		ldr	r5, .L266+32
 1763              	.LVL145:
 1764              	.LBE447:
 1765              	.LBE446:
 1766              	.LBB448:
 1767              	.LBB449:
ARM GAS  C:\Users\mathi\AppData\Local\Temp\ccRLxsF0.s 			page 32


 1768              	.LBB450:
 1769              	.LBB451:
 1770 00a4 4121     		movs	r1, #65
 1771              	.L156:
 1772              	.LVL146:
 1773              		.loc 1 116 0
 1774 00a6 2068     		ldr	r0, [r4]
 1775 00a8 0368     		ldr	r3, [r0]
 1776 00aa 9B68     		ldr	r3, [r3, #8]
 1777 00ac 9847     		blx	r3
 1778              	.LVL147:
 1779              		.loc 1 115 0
 1780 00ae 15F8011F 		ldrb	r1, [r5, #1]!	@ zero_extendqisi2
 1781              	.LVL148:
 1782 00b2 0029     		cmp	r1, #0
 1783 00b4 F7D1     		bne	.L156
 1784              	.LVL149:
 1785              	.LBE451:
 1786              	.LBE450:
 1787              		.loc 1 127 0
 1788 00b6 2068     		ldr	r0, [r4]
 1789 00b8 6A49     		ldr	r1, .L266+8
 1790 00ba 0368     		ldr	r3, [r0]
 1791 00bc 704D     		ldr	r5, .L266+36
 1792 00be 1B68     		ldr	r3, [r3]
 1793 00c0 0222     		movs	r2, #2
 1794 00c2 9847     		blx	r3
 1795              	.LVL150:
 1796              	.LBE449:
 1797              	.LBE448:
 1798              	.LBB452:
 1799              	.LBB453:
 1800              		.loc 1 115 0
 1801 00c4 2A21     		movs	r1, #42
 1802              	.LVL151:
 1803              	.L157:
 1804              		.loc 1 116 0
 1805 00c6 2068     		ldr	r0, [r4]
 1806 00c8 0368     		ldr	r3, [r0]
 1807 00ca 9B68     		ldr	r3, [r3, #8]
 1808 00cc 9847     		blx	r3
 1809              	.LVL152:
 1810              		.loc 1 115 0
 1811 00ce 15F8011F 		ldrb	r1, [r5, #1]!	@ zero_extendqisi2
 1812              	.LVL153:
 1813 00d2 0029     		cmp	r1, #0
 1814 00d4 F7D1     		bne	.L157
 1815 00d6 6B4D     		ldr	r5, .L266+40
 1816              	.LVL154:
 1817              	.LBE453:
 1818              	.LBE452:
 1819              	.LBB454:
 1820              	.LBB455:
 1821              	.LBB456:
 1822              	.LBB457:
 1823 00d8 4721     		movs	r1, #71
 1824              	.L158:
ARM GAS  C:\Users\mathi\AppData\Local\Temp\ccRLxsF0.s 			page 33


 1825              	.LVL155:
 1826              		.loc 1 116 0
 1827 00da 2068     		ldr	r0, [r4]
 1828 00dc 0368     		ldr	r3, [r0]
 1829 00de 9B68     		ldr	r3, [r3, #8]
 1830 00e0 9847     		blx	r3
 1831              	.LVL156:
 1832              		.loc 1 115 0
 1833 00e2 15F8011F 		ldrb	r1, [r5, #1]!	@ zero_extendqisi2
 1834              	.LVL157:
 1835 00e6 0029     		cmp	r1, #0
 1836 00e8 F7D1     		bne	.L158
 1837              	.LVL158:
 1838              	.LBE457:
 1839              	.LBE456:
 1840              		.loc 1 127 0
 1841 00ea 2068     		ldr	r0, [r4]
 1842 00ec 5D49     		ldr	r1, .L266+8
 1843 00ee 0368     		ldr	r3, [r0]
 1844 00f0 654D     		ldr	r5, .L266+44
 1845 00f2 1B68     		ldr	r3, [r3]
 1846 00f4 0222     		movs	r2, #2
 1847 00f6 9847     		blx	r3
 1848              	.LVL159:
 1849              	.LBE455:
 1850              	.LBE454:
 1851              	.LBB458:
 1852              	.LBB459:
 1853              		.loc 1 115 0
 1854 00f8 2A21     		movs	r1, #42
 1855              	.LVL160:
 1856              	.L159:
 1857              		.loc 1 116 0
 1858 00fa 2068     		ldr	r0, [r4]
 1859 00fc 0368     		ldr	r3, [r0]
 1860 00fe 9B68     		ldr	r3, [r3, #8]
 1861 0100 9847     		blx	r3
 1862              	.LVL161:
 1863              		.loc 1 115 0
 1864 0102 15F8011F 		ldrb	r1, [r5, #1]!	@ zero_extendqisi2
 1865              	.LVL162:
 1866 0106 0029     		cmp	r1, #0
 1867 0108 F7D1     		bne	.L159
 1868 010a 604D     		ldr	r5, .L266+48
 1869              	.LVL163:
 1870              	.LBE459:
 1871              	.LBE458:
 1872              	.LBB460:
 1873              	.LBB461:
 1874              	.LBB462:
 1875              	.LBB463:
 1876 010c 4121     		movs	r1, #65
 1877              	.L160:
 1878              	.LVL164:
 1879              		.loc 1 116 0
 1880 010e 2068     		ldr	r0, [r4]
 1881 0110 0368     		ldr	r3, [r0]
ARM GAS  C:\Users\mathi\AppData\Local\Temp\ccRLxsF0.s 			page 34


 1882 0112 9B68     		ldr	r3, [r3, #8]
 1883 0114 9847     		blx	r3
 1884              	.LVL165:
 1885              		.loc 1 115 0
 1886 0116 15F8011F 		ldrb	r1, [r5, #1]!	@ zero_extendqisi2
 1887              	.LVL166:
 1888 011a 0029     		cmp	r1, #0
 1889 011c F7D1     		bne	.L160
 1890              	.LVL167:
 1891              	.LBE463:
 1892              	.LBE462:
 1893              		.loc 1 127 0
 1894 011e 2068     		ldr	r0, [r4]
 1895 0120 5049     		ldr	r1, .L266+8
 1896 0122 0368     		ldr	r3, [r0]
 1897 0124 5A4D     		ldr	r5, .L266+52
 1898 0126 1B68     		ldr	r3, [r3]
 1899 0128 0222     		movs	r2, #2
 1900 012a 9847     		blx	r3
 1901              	.LVL168:
 1902              	.LBE461:
 1903              	.LBE460:
 1904              	.LBB464:
 1905              	.LBB465:
 1906              		.loc 1 115 0
 1907 012c 2A21     		movs	r1, #42
 1908              	.LVL169:
 1909              	.L161:
 1910              		.loc 1 116 0
 1911 012e 2068     		ldr	r0, [r4]
 1912 0130 0368     		ldr	r3, [r0]
 1913 0132 9B68     		ldr	r3, [r3, #8]
 1914 0134 9847     		blx	r3
 1915              	.LVL170:
 1916              		.loc 1 115 0
 1917 0136 15F8011F 		ldrb	r1, [r5, #1]!	@ zero_extendqisi2
 1918              	.LVL171:
 1919 013a 0029     		cmp	r1, #0
 1920 013c F7D1     		bne	.L161
 1921 013e 554D     		ldr	r5, .L266+56
 1922              	.LVL172:
 1923              	.LBE465:
 1924              	.LBE464:
 1925              	.LBB466:
 1926              	.LBB467:
 1927              	.LBB468:
 1928              	.LBB469:
 1929 0140 4321     		movs	r1, #67
 1930              	.L162:
 1931              	.LVL173:
 1932              		.loc 1 116 0
 1933 0142 2068     		ldr	r0, [r4]
 1934 0144 0368     		ldr	r3, [r0]
 1935 0146 9B68     		ldr	r3, [r3, #8]
 1936 0148 9847     		blx	r3
 1937              	.LVL174:
 1938              		.loc 1 115 0
ARM GAS  C:\Users\mathi\AppData\Local\Temp\ccRLxsF0.s 			page 35


 1939 014a 15F8011F 		ldrb	r1, [r5, #1]!	@ zero_extendqisi2
 1940              	.LVL175:
 1941 014e 0029     		cmp	r1, #0
 1942 0150 F7D1     		bne	.L162
 1943              	.LVL176:
 1944              	.LBE469:
 1945              	.LBE468:
 1946              		.loc 1 127 0
 1947 0152 2068     		ldr	r0, [r4]
 1948 0154 4349     		ldr	r1, .L266+8
 1949 0156 0368     		ldr	r3, [r0]
 1950 0158 4F4D     		ldr	r5, .L266+60
 1951 015a 1B68     		ldr	r3, [r3]
 1952 015c 0222     		movs	r2, #2
 1953 015e 9847     		blx	r3
 1954              	.LVL177:
 1955              	.LBE467:
 1956              	.LBE466:
 1957              	.LBB470:
 1958              	.LBB471:
 1959              		.loc 1 115 0
 1960 0160 2A21     		movs	r1, #42
 1961              	.LVL178:
 1962              	.L163:
 1963              		.loc 1 116 0
 1964 0162 2068     		ldr	r0, [r4]
 1965 0164 0368     		ldr	r3, [r0]
 1966 0166 9B68     		ldr	r3, [r3, #8]
 1967 0168 9847     		blx	r3
 1968              	.LVL179:
 1969              		.loc 1 115 0
 1970 016a 15F8011F 		ldrb	r1, [r5, #1]!	@ zero_extendqisi2
 1971              	.LVL180:
 1972 016e 0029     		cmp	r1, #0
 1973 0170 F7D1     		bne	.L163
 1974 0172 4A4D     		ldr	r5, .L266+64
 1975              	.LVL181:
 1976              	.LBE471:
 1977              	.LBE470:
 1978              	.LBB472:
 1979              	.LBB473:
 1980              	.LBB474:
 1981              	.LBB475:
 1982 0174 4121     		movs	r1, #65
 1983              	.L164:
 1984              	.LVL182:
 1985              		.loc 1 116 0
 1986 0176 2068     		ldr	r0, [r4]
 1987 0178 0368     		ldr	r3, [r0]
 1988 017a 9B68     		ldr	r3, [r3, #8]
 1989 017c 9847     		blx	r3
 1990              	.LVL183:
 1991              		.loc 1 115 0
 1992 017e 15F8011F 		ldrb	r1, [r5, #1]!	@ zero_extendqisi2
 1993              	.LVL184:
 1994 0182 0029     		cmp	r1, #0
 1995 0184 F7D1     		bne	.L164
ARM GAS  C:\Users\mathi\AppData\Local\Temp\ccRLxsF0.s 			page 36


 1996              	.LVL185:
 1997              	.LBE475:
 1998              	.LBE474:
 1999              		.loc 1 127 0
 2000 0186 2068     		ldr	r0, [r4]
 2001 0188 3649     		ldr	r1, .L266+8
 2002 018a 0368     		ldr	r3, [r0]
 2003 018c 444D     		ldr	r5, .L266+68
 2004 018e 1B68     		ldr	r3, [r3]
 2005 0190 0222     		movs	r2, #2
 2006 0192 9847     		blx	r3
 2007              	.LVL186:
 2008              	.LBE473:
 2009              	.LBE472:
 2010              	.LBB476:
 2011              	.LBB477:
 2012              		.loc 1 115 0
 2013 0194 2A21     		movs	r1, #42
 2014              	.LVL187:
 2015              	.L165:
 2016              		.loc 1 116 0
 2017 0196 2068     		ldr	r0, [r4]
 2018 0198 0368     		ldr	r3, [r0]
 2019 019a 9B68     		ldr	r3, [r3, #8]
 2020 019c 9847     		blx	r3
 2021              	.LVL188:
 2022              		.loc 1 115 0
 2023 019e 15F8011F 		ldrb	r1, [r5, #1]!	@ zero_extendqisi2
 2024              	.LVL189:
 2025 01a2 0029     		cmp	r1, #0
 2026 01a4 F7D1     		bne	.L165
 2027 01a6 3F4D     		ldr	r5, .L266+72
 2028              	.LVL190:
 2029              	.LBE477:
 2030              	.LBE476:
 2031              	.LBB478:
 2032              	.LBB479:
 2033              	.LBB480:
 2034              	.LBB481:
 2035 01a8 5321     		movs	r1, #83
 2036              	.L166:
 2037              	.LVL191:
 2038              		.loc 1 116 0
 2039 01aa 2068     		ldr	r0, [r4]
 2040 01ac 0368     		ldr	r3, [r0]
 2041 01ae 9B68     		ldr	r3, [r3, #8]
 2042 01b0 9847     		blx	r3
 2043              	.LVL192:
 2044              		.loc 1 115 0
 2045 01b2 15F8011F 		ldrb	r1, [r5, #1]!	@ zero_extendqisi2
 2046              	.LVL193:
 2047 01b6 0029     		cmp	r1, #0
 2048 01b8 F7D1     		bne	.L166
 2049              	.LVL194:
 2050              	.LBE481:
 2051              	.LBE480:
 2052              		.loc 1 127 0
ARM GAS  C:\Users\mathi\AppData\Local\Temp\ccRLxsF0.s 			page 37


 2053 01ba 2068     		ldr	r0, [r4]
 2054 01bc 2949     		ldr	r1, .L266+8
 2055 01be 0368     		ldr	r3, [r0]
 2056 01c0 394D     		ldr	r5, .L266+76
 2057 01c2 1B68     		ldr	r3, [r3]
 2058 01c4 0222     		movs	r2, #2
 2059 01c6 9847     		blx	r3
 2060              	.LVL195:
 2061              	.LBE479:
 2062              	.LBE478:
 2063              	.LBB482:
 2064              	.LBB483:
 2065              		.loc 1 115 0
 2066 01c8 2A21     		movs	r1, #42
 2067              	.LVL196:
 2068              	.L167:
 2069              		.loc 1 116 0
 2070 01ca 2068     		ldr	r0, [r4]
 2071 01cc 0368     		ldr	r3, [r0]
 2072 01ce 9B68     		ldr	r3, [r3, #8]
 2073 01d0 9847     		blx	r3
 2074              	.LVL197:
 2075              		.loc 1 115 0
 2076 01d2 15F8011F 		ldrb	r1, [r5, #1]!	@ zero_extendqisi2
 2077              	.LVL198:
 2078 01d6 0029     		cmp	r1, #0
 2079 01d8 F7D1     		bne	.L167
 2080              	.LBE483:
 2081              	.LBE482:
 2082              	.LBB485:
 2083              	.LBB486:
 2084              	.LBB487:
 2085              	.LBB488:
 2086 01da 4725     		movs	r5, #71
 2087              	.LVL199:
 2088              	.LBE488:
 2089              	.LBE487:
 2090              	.LBE486:
 2091              	.LBE485:
 2092              	.LBB493:
 2093              	.LBB484:
 2094 01dc 334E     		ldr	r6, .L266+80
 2095              	.LBE484:
 2096              	.LBE493:
 2097              	.LBB494:
 2098              	.LBB491:
 2099              	.LBB490:
 2100              	.LBB489:
 2101 01de 2946     		mov	r1, r5
 2102              	.L168:
 2103              	.LVL200:
 2104              		.loc 1 116 0
 2105 01e0 2068     		ldr	r0, [r4]
 2106 01e2 0368     		ldr	r3, [r0]
 2107 01e4 9B68     		ldr	r3, [r3, #8]
 2108 01e6 9847     		blx	r3
 2109              	.LVL201:
ARM GAS  C:\Users\mathi\AppData\Local\Temp\ccRLxsF0.s 			page 38


 2110              		.loc 1 115 0
 2111 01e8 16F8011F 		ldrb	r1, [r6, #1]!	@ zero_extendqisi2
 2112              	.LVL202:
 2113 01ec 0029     		cmp	r1, #0
 2114 01ee F7D1     		bne	.L168
 2115              	.LBE489:
 2116              	.LBE490:
 2117              		.loc 1 127 0
 2118 01f0 2068     		ldr	r0, [r4]
 2119 01f2 2F4A     		ldr	r2, .L266+84
 2120 01f4 0368     		ldr	r3, [r0]
 2121 01f6 0392     		str	r2, [sp, #12]
 2122 01f8 0D46     		mov	r5, r1
 2123              	.LVL203:
 2124 01fa 1B68     		ldr	r3, [r3]
 2125 01fc 1949     		ldr	r1, .L266+8
 2126              	.LBE491:
 2127              	.LBE494:
 2128              		.loc 1 351 0
 2129 01fe DFF8C0A0 		ldr	r10, .L266+100
 2130              	.LBB495:
 2131              	.LBB492:
 2132              		.loc 1 127 0
 2133 0202 0222     		movs	r2, #2
 2134 0204 9847     		blx	r3
 2135              	.LVL204:
 2136              	.LBE492:
 2137              	.LBE495:
 2138              	.LBB496:
 2139              	.LBB497:
 2140 0206 2068     		ldr	r0, [r4]
 2141 0208 1649     		ldr	r1, .L266+8
 2142 020a 0368     		ldr	r3, [r0]
 2143 020c 0222     		movs	r2, #2
 2144 020e 1B68     		ldr	r3, [r3]
 2145 0210 9847     		blx	r3
 2146              	.LVL205:
 2147              	.LBE497:
 2148              	.LBE496:
 2149              		.loc 1 351 0
 2150 0212 284B     		ldr	r3, .L266+88
 2151              		.loc 1 352 0
 2152 0214 0195     		str	r5, [sp, #4]
 2153              		.loc 1 351 0
 2154 0216 1D70     		strb	r5, [r3]
 2155              	.LVL206:
 2156              	.L169:
 2157 0218 019B     		ldr	r3, [sp, #4]
 2158              	.LBB498:
 2159              	.LBB499:
 2160              	.LBB500:
 2161              	.LBB501:
 2162              		.loc 1 102 0
 2163 021a 274A     		ldr	r2, .L266+92
 2164 021c 0133     		adds	r3, r3, #1
 2165 021e 0193     		str	r3, [sp, #4]
 2166              	.LVL207:
ARM GAS  C:\Users\mathi\AppData\Local\Temp\ccRLxsF0.s 			page 39


 2167 0220 A2FB0323 		umull	r2, r3, r2, r3
 2168              	.LVL208:
 2169 0224 DB08     		lsrs	r3, r3, #3
 2170 0226 0293     		str	r3, [sp, #8]
 2171              	.LBE501:
 2172              	.LBE500:
 2173              	.LBE499:
 2174              	.LBE498:
 2175              		.loc 1 354 0
 2176 0228 0025     		movs	r5, #0
 2177              	.L199:
 2178              	.LVL209:
 2179              		.loc 1 355 0
 2180 022a 5AF82530 		ldr	r3, [r10, r5, lsl #2]
 2181 022e 0AEB8506 		add	r6, r10, r5, lsl #2
 2182 0232 002B     		cmp	r3, #0
 2183 0234 00F02481 		beq	.L262
 2184              	.L208:
 2185 0238 4C27     		movs	r7, #76
 2186              	.L170:
 2187              	.LBB508:
 2188              	.LBB509:
 2189              		.loc 1 307 0
 2190 023a 2068     		ldr	r0, [r4]
 2191 023c 0368     		ldr	r3, [r0]
 2192 023e 2D21     		movs	r1, #45
 2193 0240 9B68     		ldr	r3, [r3, #8]
 2194 0242 9847     		blx	r3
 2195              	.LVL210:
 2196              		.loc 1 306 0
 2197 0244 013F     		subs	r7, r7, #1
 2198 0246 F8D1     		bne	.L170
 2199              		.loc 1 308 0
 2200 0248 2068     		ldr	r0, [r4]
 2201 024a 0649     		ldr	r1, .L266+8
 2202 024c 0368     		ldr	r3, [r0]
 2203 024e 1B4F     		ldr	r7, .L266+96
 2204 0250 1B68     		ldr	r3, [r3]
 2205 0252 0222     		movs	r2, #2
 2206 0254 9847     		blx	r3
 2207              	.LVL211:
 2208              	.LBE509:
 2209              	.LBE508:
 2210              	.LBB510:
 2211              	.LBB511:
 2212              		.loc 1 115 0
 2213 0256 2D21     		movs	r1, #45
 2214 0258 34E0     		b	.L267
 2215              	.L268:
 2216 025a 00BF     		.align	2
 2217              	.L266:
 2218 025c 00000000 		.word	.LANCHOR1
 2219 0260 00000000 		.word	__stack_chk_guard
 2220 0264 00000000 		.word	.LC0
 2221 0268 00000000 		.word	.LC1
 2222 026c 1C000000 		.word	.LC2
 2223 0270 20000000 		.word	.LC3
ARM GAS  C:\Users\mathi\AppData\Local\Temp\ccRLxsF0.s 			page 40


 2224 0274 34000000 		.word	.LC4
 2225 0278 3C000000 		.word	.LC5
 2226 027c 50000000 		.word	.LC6
 2227 0280 68000000 		.word	.LC7
 2228 0284 7C000000 		.word	.LC8
 2229 0288 C4000000 		.word	.LC9
 2230 028c D8000000 		.word	.LC10
 2231 0290 E4000000 		.word	.LC11
 2232 0294 F8000000 		.word	.LC12
 2233 0298 04010000 		.word	.LC13
 2234 029c 18010000 		.word	.LC14
 2235 02a0 30010000 		.word	.LC15
 2236 02a4 44010000 		.word	.LC16
 2237 02a8 70010000 		.word	.LC17
 2238 02ac 84010000 		.word	.LC18
 2239 02b0 00000000 		.word	.LANCHOR10
 2240 02b4 00000000 		.word	.LANCHOR4
 2241 02b8 CDCCCCCC 		.word	-858993459
 2242 02bc A8010000 		.word	.LC19
 2243 02c0 00000000 		.word	patternsys
 2244              	.L267:
 2245              	.LVL212:
 2246              	.L171:
 2247              		.loc 1 116 0
 2248 02c4 2068     		ldr	r0, [r4]
 2249 02c6 0368     		ldr	r3, [r0]
 2250 02c8 9B68     		ldr	r3, [r3, #8]
 2251 02ca 9847     		blx	r3
 2252              	.LVL213:
 2253              		.loc 1 115 0
 2254 02cc 17F8011F 		ldrb	r1, [r7, #1]!	@ zero_extendqisi2
 2255              	.LVL214:
 2256 02d0 0029     		cmp	r1, #0
 2257 02d2 F7D1     		bne	.L171
 2258              	.LVL215:
 2259              	.LBE511:
 2260              	.LBE510:
 2261              	.LBB512:
 2262              	.LBB506:
 2263              	.LBB504:
 2264              	.LBB502:
 2265              		.loc 1 102 0
 2266 02d4 029B     		ldr	r3, [sp, #8]
 2267 02d6 019A     		ldr	r2, [sp, #4]
 2268 02d8 03EB8303 		add	r3, r3, r3, lsl #2
 2269 02dc A2EB4303 		sub	r3, r2, r3, lsl #1
 2270 02e0 3033     		adds	r3, r3, #48
 2271              		.loc 1 101 0
 2272 02e2 092A     		cmp	r2, #9
 2273              		.loc 1 102 0
 2274 02e4 8DF81430 		strb	r3, [sp, #20]
 2275              	.LVL216:
 2276 02e8 05AF     		add	r7, sp, #20
 2277              		.loc 1 101 0
 2278 02ea 40F33781 		ble	.L172
 2279              	.LVL217:
 2280              		.loc 1 102 0
ARM GAS  C:\Users\mathi\AppData\Local\Temp\ccRLxsF0.s 			page 41


 2281 02ee 3123     		movs	r3, #49
 2282 02f0 7B70     		strb	r3, [r7, #1]
 2283              	.LVL218:
 2284 02f2 0DF11608 		add	r8, sp, #22
 2285              	.LVL219:
 2286              	.L173:
 2287              		.loc 1 104 0
 2288 02f6 2068     		ldr	r0, [r4]
 2289 02f8 18F8011D 		ldrb	r1, [r8, #-1]!	@ zero_extendqisi2
 2290              	.LVL220:
 2291 02fc 0368     		ldr	r3, [r0]
 2292 02fe 9B68     		ldr	r3, [r3, #8]
 2293 0300 9847     		blx	r3
 2294              	.LVL221:
 2295              		.loc 1 103 0
 2296 0302 B845     		cmp	r8, r7
 2297 0304 F7D1     		bne	.L173
 2298              	.LVL222:
 2299              	.L205:
 2300              	.LBE502:
 2301              	.LBE504:
 2302              	.LBE506:
 2303              	.LBE512:
 2304              	.LBB513:
 2305              	.LBB514:
 2306              		.loc 1 116 0
 2307 0306 2068     		ldr	r0, [r4]
 2308              	.LVL223:
 2309 0308 0368     		ldr	r3, [r0]
 2310              	.LBE514:
 2311              	.LBE513:
 2312              		.loc 1 360 0
 2313 030a 0135     		adds	r5, r5, #1
 2314              	.LVL224:
 2315              	.LBB516:
 2316              	.LBB515:
 2317              		.loc 1 116 0
 2318 030c 9B68     		ldr	r3, [r3, #8]
 2319 030e 2E21     		movs	r1, #46
 2320 0310 9847     		blx	r3
 2321              	.LVL225:
 2322              	.LBE515:
 2323              	.LBE516:
 2324              	.LBB517:
 2325              	.LBB518:
 2326              	.LBB519:
 2327              	.LBB520:
 2328              		.loc 1 100 0
 2329 0312 B846     		mov	r8, r7
 2330              	.LBE520:
 2331              	.LBE519:
 2332              	.LBE518:
 2333              	.LBE517:
 2334              		.loc 1 360 0
 2335 0314 2B46     		mov	r3, r5
 2336              	.L174:
 2337              	.LVL226:
ARM GAS  C:\Users\mathi\AppData\Local\Temp\ccRLxsF0.s 			page 42


 2338              	.LBB524:
 2339              	.LBB523:
 2340              	.LBB522:
 2341              	.LBB521:
 2342              		.loc 1 102 0
 2343 0316 9B4A     		ldr	r2, .L269
 2344 0318 A2FB0312 		umull	r1, r2, r2, r3
 2345 031c D208     		lsrs	r2, r2, #3
 2346 031e 02EB8201 		add	r1, r2, r2, lsl #2
 2347 0322 A3EB4103 		sub	r3, r3, r1, lsl #1
 2348              	.LVL227:
 2349 0326 3033     		adds	r3, r3, #48
 2350 0328 08F8013B 		strb	r3, [r8], #1
 2351              	.LVL228:
 2352              		.loc 1 101 0
 2353 032c 1346     		mov	r3, r2
 2354 032e 002A     		cmp	r2, #0
 2355 0330 F1D1     		bne	.L174
 2356              		.loc 1 103 0
 2357 0332 B845     		cmp	r8, r7
 2358 0334 07D9     		bls	.L175
 2359              	.LVL229:
 2360              	.L176:
 2361              		.loc 1 104 0
 2362 0336 2068     		ldr	r0, [r4]
 2363 0338 18F8011D 		ldrb	r1, [r8, #-1]!	@ zero_extendqisi2
 2364              	.LVL230:
 2365 033c 0368     		ldr	r3, [r0]
 2366 033e 9B68     		ldr	r3, [r3, #8]
 2367 0340 9847     		blx	r3
 2368              	.LVL231:
 2369              		.loc 1 103 0
 2370 0342 B845     		cmp	r8, r7
 2371 0344 F7D1     		bne	.L176
 2372              	.L175:
 2373              	.LVL232:
 2374 0346 DFF87882 		ldr	r8, .L269+60
 2375              	.LVL233:
 2376              	.LBE521:
 2377              	.LBE522:
 2378              	.LBE523:
 2379              	.LBE524:
 2380              	.LBB525:
 2381              	.LBB526:
 2382              		.loc 1 115 0
 2383 034a 2021     		movs	r1, #32
 2384              	.LVL234:
 2385              	.L177:
 2386              		.loc 1 116 0
 2387 034c 2068     		ldr	r0, [r4]
 2388 034e 0368     		ldr	r3, [r0]
 2389 0350 9B68     		ldr	r3, [r3, #8]
 2390 0352 9847     		blx	r3
 2391              	.LVL235:
 2392              		.loc 1 115 0
 2393 0354 18F8011F 		ldrb	r1, [r8, #1]!	@ zero_extendqisi2
 2394              	.LVL236:
ARM GAS  C:\Users\mathi\AppData\Local\Temp\ccRLxsF0.s 			page 43


 2395 0358 0029     		cmp	r1, #0
 2396 035a F7D1     		bne	.L177
 2397              	.LVL237:
 2398              	.LBE526:
 2399              	.LBE525:
 2400              		.loc 1 362 0
 2401 035c 3368     		ldr	r3, [r6]
 2402 035e D3F80080 		ldr	r8, [r3]
 2403              	.LVL238:
 2404              	.LBB527:
 2405              	.LBB528:
 2406              		.loc 1 115 0
 2407 0362 98F80010 		ldrb	r1, [r8]	@ zero_extendqisi2
 2408 0366 39B1     		cbz	r1, .L178
 2409              	.LVL239:
 2410              	.L179:
 2411              		.loc 1 116 0
 2412 0368 2068     		ldr	r0, [r4]
 2413 036a 0368     		ldr	r3, [r0]
 2414 036c 9B68     		ldr	r3, [r3, #8]
 2415 036e 9847     		blx	r3
 2416              	.LVL240:
 2417              		.loc 1 115 0
 2418 0370 18F8011F 		ldrb	r1, [r8, #1]!	@ zero_extendqisi2
 2419              	.LVL241:
 2420 0374 0029     		cmp	r1, #0
 2421 0376 F7D1     		bne	.L179
 2422              	.LVL242:
 2423              	.L178:
 2424              	.LBE528:
 2425              	.LBE527:
 2426              	.LBB529:
 2427              	.LBB530:
 2428              	.LBB531:
 2429              	.LBB532:
 2430              		.loc 1 116 0
 2431 0378 2068     		ldr	r0, [r4]
 2432              	.LVL243:
 2433 037a 0368     		ldr	r3, [r0]
 2434 037c 2921     		movs	r1, #41
 2435 037e 9B68     		ldr	r3, [r3, #8]
 2436 0380 9847     		blx	r3
 2437              	.LVL244:
 2438              	.LBE532:
 2439              	.LBE531:
 2440              		.loc 1 127 0
 2441 0382 2068     		ldr	r0, [r4]
 2442 0384 8049     		ldr	r1, .L269+4
 2443 0386 0368     		ldr	r3, [r0]
 2444 0388 0222     		movs	r2, #2
 2445 038a 1B68     		ldr	r3, [r3]
 2446 038c 9847     		blx	r3
 2447              	.LVL245:
 2448              	.LBE530:
 2449              	.LBE529:
 2450              		.loc 1 365 0
 2451 038e C820     		movs	r0, #200
ARM GAS  C:\Users\mathi\AppData\Local\Temp\ccRLxsF0.s 			page 44


 2452 0390 FFF7FEFF 		bl	chThdSleep
 2453              	.LVL246:
 2454              		.loc 1 367 0
 2455 0394 D6F80080 		ldr	r8, [r6]
 2456              	.LVL247:
 2457              	.LBB533:
 2458              	.LBB534:
 2459              	.LBB535:
 2460              	.LBB536:
 2461              		.loc 1 135 0
 2462 0398 7C4E     		ldr	r6, .L269+8
 2463              	.LBE536:
 2464              	.LBE535:
 2465              		.loc 1 292 0
 2466 039a 7D4A     		ldr	r2, .L269+12
 2467              	.LBB538:
 2468              	.LBB537:
 2469              		.loc 1 135 0
 2470 039c 7D4B     		ldr	r3, .L269+16
 2471 039e 3360     		str	r3, [r6]
 2472              	.LBE537:
 2473              	.LBE538:
 2474              		.loc 1 290 0
 2475 03a0 0023     		movs	r3, #0
 2476              		.loc 1 292 0
 2477 03a2 C2E90033 		strd	r3, r3, [r2]
 2478 03a6 C2E90233 		strd	r3, r3, [r2, #8]
 2479 03aa 1361     		str	r3, [r2, #16]
 2480              		.loc 1 290 0
 2481 03ac 7A49     		ldr	r1, .L269+20
 2482              		.loc 1 294 0
 2483 03ae D8F80420 		ldr	r2, [r8, #4]
 2484              		.loc 1 290 0
 2485 03b2 0B70     		strb	r3, [r1]
 2486              	.LVL248:
 2487              		.loc 1 294 0
 2488 03b4 02B1     		cbz	r2, .L180
 2489              		.loc 1 295 0
 2490 03b6 9047     		blx	r2
 2491              	.LVL249:
 2492              	.L180:
 2493              		.loc 1 296 0
 2494 03b8 D8F80C30 		ldr	r3, [r8, #12]
 2495 03bc 9847     		blx	r3
 2496              	.LVL250:
 2497              		.loc 1 297 0
 2498 03be D8F80830 		ldr	r3, [r8, #8]
 2499 03c2 03B1     		cbz	r3, .L181
 2500              		.loc 1 298 0
 2501 03c4 9847     		blx	r3
 2502              	.LVL251:
 2503              	.L181:
 2504 03c6 DFF8C891 		ldr	r9, .L269+12
 2505              	.LBB539:
 2506              	.LBB540:
 2507              		.loc 1 216 0
 2508 03ca 4FF00008 		mov	r8, #0
ARM GAS  C:\Users\mathi\AppData\Local\Temp\ccRLxsF0.s 			page 45


 2509              	.LVL252:
 2510 03ce 09F1140B 		add	fp, r9, #20
 2511              	.L183:
 2512              		.loc 1 214 0
 2513 03d2 59F8040B 		ldr	r0, [r9], #4
 2514 03d6 18B1     		cbz	r0, .L182
 2515              		.loc 1 215 0
 2516 03d8 FFF7FEFF 		bl	chThdWait
 2517              	.LVL253:
 2518              		.loc 1 216 0
 2519 03dc 49F8048C 		str	r8, [r9, #-4]
 2520              	.L182:
 2521              	.LVL254:
 2522              		.loc 1 213 0
 2523 03e0 D945     		cmp	r9, fp
 2524 03e2 F6D1     		bne	.L183
 2525              	.LVL255:
 2526              	.LBE540:
 2527              	.LBE539:
 2528              	.LBE534:
 2529              	.LBE533:
 2530              		.loc 1 368 0
 2531 03e4 6C4B     		ldr	r3, .L269+20
 2532 03e6 1B78     		ldrb	r3, [r3]	@ zero_extendqisi2
 2533 03e8 002B     		cmp	r3, #0
 2534 03ea 00F08B80 		beq	.L207
 2535 03ee DFF8D481 		ldr	r8, .L269+64
 2536              	.LBB541:
 2537              	.LBB542:
 2538              		.loc 1 115 0
 2539 03f2 2D21     		movs	r1, #45
 2540              	.L185:
 2541              	.LVL256:
 2542              		.loc 1 116 0
 2543 03f4 2068     		ldr	r0, [r4]
 2544 03f6 0368     		ldr	r3, [r0]
 2545 03f8 9B68     		ldr	r3, [r3, #8]
 2546 03fa 9847     		blx	r3
 2547              	.LVL257:
 2548              		.loc 1 115 0
 2549 03fc 18F8011F 		ldrb	r1, [r8, #1]!	@ zero_extendqisi2
 2550              	.LVL258:
 2551 0400 0029     		cmp	r1, #0
 2552 0402 F7D1     		bne	.L185
 2553              	.LVL259:
 2554              	.LBE542:
 2555              	.LBE541:
 2556              		.loc 1 370 0
 2557 0404 654B     		ldr	r3, .L269+24
 2558 0406 2068     		ldr	r0, [r4]
 2559 0408 1B68     		ldr	r3, [r3]
 2560              	.LVL260:
 2561              	.LBB543:
 2562              	.LBB544:
 2563              		.loc 1 97 0
 2564 040a 002B     		cmp	r3, #0
 2565 040c 40F08B80 		bne	.L263
ARM GAS  C:\Users\mathi\AppData\Local\Temp\ccRLxsF0.s 			page 46


 2566              		.loc 1 98 0
 2567 0410 0368     		ldr	r3, [r0]
 2568              	.LVL261:
 2569 0412 3021     		movs	r1, #48
 2570 0414 9B68     		ldr	r3, [r3, #8]
 2571 0416 9847     		blx	r3
 2572              	.LVL262:
 2573 0418 2068     		ldr	r0, [r4]
 2574              	.L192:
 2575              	.LVL263:
 2576              	.LBE544:
 2577              	.LBE543:
 2578              	.LBB548:
 2579              	.LBB549:
 2580              		.loc 1 115 0
 2581 041a 614F     		ldr	r7, .L269+28
 2582 041c 2021     		movs	r1, #32
 2583 041e 00E0     		b	.L191
 2584              	.LVL264:
 2585              	.L193:
 2586 0420 2068     		ldr	r0, [r4]
 2587              	.LVL265:
 2588              	.L191:
 2589              		.loc 1 116 0
 2590 0422 0368     		ldr	r3, [r0]
 2591 0424 9B68     		ldr	r3, [r3, #8]
 2592 0426 9847     		blx	r3
 2593              	.LVL266:
 2594              		.loc 1 115 0
 2595 0428 17F8011F 		ldrb	r1, [r7, #1]!	@ zero_extendqisi2
 2596              	.LVL267:
 2597 042c 0029     		cmp	r1, #0
 2598 042e F7D1     		bne	.L193
 2599              	.LVL268:
 2600              	.LBE549:
 2601              	.LBE548:
 2602              	.LBB550:
 2603              	.LBB551:
 2604              		.loc 1 141 0
 2605 0430 3368     		ldr	r3, [r6]
 2606 0432 584A     		ldr	r2, .L269+16
 2607 0434 9342     		cmp	r3, r2
 2608 0436 09D9     		bls	.L194
 2609              		.loc 1 139 0
 2610 0438 1746     		mov	r7, r2
 2611              	.LVL269:
 2612              	.L195:
 2613              		.loc 1 142 0
 2614 043a 2068     		ldr	r0, [r4]
 2615 043c 17F8011B 		ldrb	r1, [r7], #1	@ zero_extendqisi2
 2616              	.LVL270:
 2617 0440 0368     		ldr	r3, [r0]
 2618 0442 9B68     		ldr	r3, [r3, #8]
 2619 0444 9847     		blx	r3
 2620              	.LVL271:
 2621              		.loc 1 141 0
 2622 0446 3368     		ldr	r3, [r6]
ARM GAS  C:\Users\mathi\AppData\Local\Temp\ccRLxsF0.s 			page 47


 2623 0448 9F42     		cmp	r7, r3
 2624 044a F6D3     		bcc	.L195
 2625              	.LVL272:
 2626              	.L194:
 2627              	.LBE551:
 2628              	.LBE550:
 2629              	.LBB552:
 2630              	.LBB553:
 2631              	.LBB554:
 2632              	.LBB555:
 2633              		.loc 1 115 0
 2634 044c 554E     		ldr	r6, .L269+32
 2635 044e 5D21     		movs	r1, #93
 2636              	.LVL273:
 2637              	.L196:
 2638              		.loc 1 116 0
 2639 0450 2068     		ldr	r0, [r4]
 2640 0452 0368     		ldr	r3, [r0]
 2641 0454 9B68     		ldr	r3, [r3, #8]
 2642 0456 9847     		blx	r3
 2643              	.LVL274:
 2644              		.loc 1 115 0
 2645 0458 16F8011F 		ldrb	r1, [r6, #1]!	@ zero_extendqisi2
 2646              	.LVL275:
 2647 045c 0029     		cmp	r1, #0
 2648 045e F7D1     		bne	.L196
 2649              	.LVL276:
 2650              	.LBE555:
 2651              	.LBE554:
 2652              		.loc 1 127 0
 2653 0460 2068     		ldr	r0, [r4]
 2654 0462 4949     		ldr	r1, .L269+4
 2655 0464 0368     		ldr	r3, [r0]
 2656 0466 0222     		movs	r2, #2
 2657 0468 1B68     		ldr	r3, [r3]
 2658 046a 9847     		blx	r3
 2659              	.LVL277:
 2660 046c 039B     		ldr	r3, [sp, #12]
 2661 046e D3F800A0 		ldr	r10, [r3]
 2662              	.LVL278:
 2663              	.LBE553:
 2664              	.LBE552:
 2665              		.loc 1 355 0
 2666 0472 5AF82530 		ldr	r3, [r10, r5, lsl #2]
 2667 0476 0AEB8506 		add	r6, r10, r5, lsl #2
 2668 047a 002B     		cmp	r3, #0
 2669 047c 7FF4DCAE 		bne	.L208
 2670              	.LVL279:
 2671              	.L262:
 2672              		.loc 1 353 0
 2673 0480 039B     		ldr	r3, [sp, #12]
 2674 0482 53F804AF 		ldr	r10, [r3, #4]!
 2675 0486 0393     		str	r3, [sp, #12]
 2676 0488 BAF1000F 		cmp	r10, #0
 2677 048c 7FF4C4AE 		bne	.L169
 2678 0490 4C25     		movs	r5, #76
 2679              	.LVL280:
ARM GAS  C:\Users\mathi\AppData\Local\Temp\ccRLxsF0.s 			page 48


 2680              	.L198:
 2681              	.LBB556:
 2682              	.LBB557:
 2683              		.loc 1 307 0
 2684 0492 2068     		ldr	r0, [r4]
 2685 0494 0368     		ldr	r3, [r0]
 2686 0496 2D21     		movs	r1, #45
 2687 0498 9B68     		ldr	r3, [r3, #8]
 2688 049a 9847     		blx	r3
 2689              	.LVL281:
 2690              		.loc 1 306 0
 2691 049c 013D     		subs	r5, r5, #1
 2692 049e F8D1     		bne	.L198
 2693              		.loc 1 308 0
 2694 04a0 2068     		ldr	r0, [r4]
 2695 04a2 3949     		ldr	r1, .L269+4
 2696 04a4 0368     		ldr	r3, [r0]
 2697              	.LBE557:
 2698              	.LBE556:
 2699              	.LBB559:
 2700              	.LBB560:
 2701              		.loc 1 127 0
 2702 04a6 404D     		ldr	r5, .L269+36
 2703              	.LBE560:
 2704              	.LBE559:
 2705              	.LBB562:
 2706              	.LBB558:
 2707              		.loc 1 308 0
 2708 04a8 1B68     		ldr	r3, [r3]
 2709 04aa 0222     		movs	r2, #2
 2710 04ac 9847     		blx	r3
 2711              	.LVL282:
 2712              	.LBE558:
 2713              	.LBE562:
 2714              	.LBB563:
 2715              	.LBB561:
 2716              		.loc 1 127 0
 2717 04ae 2068     		ldr	r0, [r4]
 2718 04b0 3549     		ldr	r1, .L269+4
 2719 04b2 0368     		ldr	r3, [r0]
 2720 04b4 0222     		movs	r2, #2
 2721 04b6 1B68     		ldr	r3, [r3]
 2722 04b8 9847     		blx	r3
 2723              	.LVL283:
 2724              	.LBE561:
 2725              	.LBE563:
 2726              	.LBB564:
 2727              	.LBB565:
 2728              		.loc 1 115 0
 2729 04ba 4621     		movs	r1, #70
 2730              	.LVL284:
 2731              	.L200:
 2732              		.loc 1 116 0
 2733 04bc 2068     		ldr	r0, [r4]
 2734 04be 0368     		ldr	r3, [r0]
 2735 04c0 9B68     		ldr	r3, [r3, #8]
 2736 04c2 9847     		blx	r3
ARM GAS  C:\Users\mathi\AppData\Local\Temp\ccRLxsF0.s 			page 49


 2737              	.LVL285:
 2738              		.loc 1 115 0
 2739 04c4 15F8011F 		ldrb	r1, [r5, #1]!	@ zero_extendqisi2
 2740              	.LVL286:
 2741 04c8 0029     		cmp	r1, #0
 2742 04ca F7D1     		bne	.L200
 2743              	.LVL287:
 2744              	.LBE565:
 2745              	.LBE564:
 2746              		.loc 1 384 0
 2747 04cc 374B     		ldr	r3, .L269+40
 2748 04ce 1B78     		ldrb	r3, [r3]	@ zero_extendqisi2
 2749 04d0 002B     		cmp	r3, #0
 2750 04d2 4AD1     		bne	.L264
 2751 04d4 364D     		ldr	r5, .L269+44
 2752              	.LBB566:
 2753              	.LBB567:
 2754              	.LBB568:
 2755              	.LBB569:
 2756              		.loc 1 115 0
 2757 04d6 5321     		movs	r1, #83
 2758              	.L201:
 2759              	.LVL288:
 2760              		.loc 1 116 0
 2761 04d8 2068     		ldr	r0, [r4]
 2762 04da 0368     		ldr	r3, [r0]
 2763 04dc 9B68     		ldr	r3, [r3, #8]
 2764 04de 9847     		blx	r3
 2765              	.LVL289:
 2766              		.loc 1 115 0
 2767 04e0 15F8011F 		ldrb	r1, [r5, #1]!	@ zero_extendqisi2
 2768              	.LVL290:
 2769 04e4 0029     		cmp	r1, #0
 2770 04e6 F7D1     		bne	.L201
 2771              	.LVL291:
 2772              	.L261:
 2773              	.LBE569:
 2774              	.LBE568:
 2775              		.loc 1 127 0
 2776 04e8 324B     		ldr	r3, .L269+48
 2777 04ea 099A     		ldr	r2, [sp, #36]
 2778 04ec 1B68     		ldr	r3, [r3]
 2779 04ee 2068     		ldr	r0, [r4]
 2780 04f0 9A42     		cmp	r2, r3
 2781 04f2 45D1     		bne	.L265
 2782 04f4 0368     		ldr	r3, [r0]
 2783 04f6 2449     		ldr	r1, .L269+4
 2784 04f8 1B68     		ldr	r3, [r3]
 2785 04fa 0222     		movs	r2, #2
 2786              	.LBE567:
 2787              	.LBE566:
 2788              		.loc 1 388 0
 2789 04fc 0BB0     		add	sp, sp, #44
 2790              		.cfi_remember_state
 2791              		.cfi_def_cfa_offset 36
 2792              		@ sp needed
 2793 04fe BDE8F04F 		pop	{r4, r5, r6, r7, r8, r9, r10, fp, lr}
ARM GAS  C:\Users\mathi\AppData\Local\Temp\ccRLxsF0.s 			page 50


 2794              		.cfi_restore 14
 2795              		.cfi_restore 11
 2796              		.cfi_restore 10
 2797              		.cfi_restore 9
 2798              		.cfi_restore 8
 2799              		.cfi_restore 7
 2800              		.cfi_restore 6
 2801              		.cfi_restore 5
 2802              		.cfi_restore 4
 2803              		.cfi_def_cfa_offset 0
 2804              	.LVL292:
 2805              	.LBB572:
 2806              	.LBB570:
 2807              		.loc 1 127 0
 2808 0502 1847     		bx	r3
 2809              	.LVL293:
 2810              	.L207:
 2811              		.cfi_restore_state
 2812              	.LBE570:
 2813              	.LBE572:
 2814 0504 2C4E     		ldr	r6, .L269+52
 2815              	.LBB573:
 2816              	.LBB574:
 2817              	.LBB575:
 2818              	.LBB576:
 2819              		.loc 1 115 0
 2820 0506 2D21     		movs	r1, #45
 2821              	.L184:
 2822              	.LVL294:
 2823              		.loc 1 116 0
 2824 0508 2068     		ldr	r0, [r4]
 2825 050a 0368     		ldr	r3, [r0]
 2826 050c 9B68     		ldr	r3, [r3, #8]
 2827 050e 9847     		blx	r3
 2828              	.LVL295:
 2829              		.loc 1 115 0
 2830 0510 16F8011F 		ldrb	r1, [r6, #1]!	@ zero_extendqisi2
 2831              	.LVL296:
 2832 0514 0029     		cmp	r1, #0
 2833 0516 F7D1     		bne	.L184
 2834              	.LVL297:
 2835              	.LBE576:
 2836              	.LBE575:
 2837              		.loc 1 127 0
 2838 0518 2068     		ldr	r0, [r4]
 2839 051a 1B49     		ldr	r1, .L269+4
 2840 051c 0368     		ldr	r3, [r0]
 2841 051e 0222     		movs	r2, #2
 2842 0520 1B68     		ldr	r3, [r3]
 2843 0522 9847     		blx	r3
 2844              	.LVL298:
 2845 0524 81E6     		b	.L199
 2846              	.LVL299:
 2847              	.L263:
 2848              	.LBE574:
 2849              	.LBE573:
 2850              	.LBB577:
ARM GAS  C:\Users\mathi\AppData\Local\Temp\ccRLxsF0.s 			page 51


 2851              	.LBB547:
 2852              	.LBB545:
 2853              	.LBB546:
 2854              		.loc 1 100 0
 2855 0526 B846     		mov	r8, r7
 2856              	.LVL300:
 2857              	.L187:
 2858              		.loc 1 102 0
 2859 0528 164A     		ldr	r2, .L269
 2860 052a A2FB0312 		umull	r1, r2, r2, r3
 2861 052e D208     		lsrs	r2, r2, #3
 2862 0530 02EB8201 		add	r1, r2, r2, lsl #2
 2863 0534 A3EB4103 		sub	r3, r3, r1, lsl #1
 2864              	.LVL301:
 2865 0538 3033     		adds	r3, r3, #48
 2866 053a 08F8013B 		strb	r3, [r8], #1
 2867              	.LVL302:
 2868              		.loc 1 101 0
 2869 053e 1346     		mov	r3, r2
 2870 0540 002A     		cmp	r2, #0
 2871 0542 F1D1     		bne	.L187
 2872              		.loc 1 103 0
 2873 0544 B845     		cmp	r8, r7
 2874 0546 7FF668AF 		bls	.L192
 2875              	.LVL303:
 2876              	.L190:
 2877              		.loc 1 104 0
 2878 054a 0368     		ldr	r3, [r0]
 2879 054c 18F8011D 		ldrb	r1, [r8, #-1]!	@ zero_extendqisi2
 2880              	.LVL304:
 2881 0550 9B68     		ldr	r3, [r3, #8]
 2882 0552 9847     		blx	r3
 2883              	.LVL305:
 2884              		.loc 1 103 0
 2885 0554 B845     		cmp	r8, r7
 2886 0556 2068     		ldr	r0, [r4]
 2887 0558 F7D1     		bne	.L190
 2888 055a 5EE7     		b	.L192
 2889              	.LVL306:
 2890              	.L172:
 2891              	.LBE546:
 2892              	.LBE545:
 2893              	.LBE547:
 2894              	.LBE577:
 2895              	.LBB578:
 2896              	.LBB507:
 2897              	.LBB505:
 2898              	.LBB503:
 2899              		.loc 1 104 0
 2900 055c 2068     		ldr	r0, [r4]
 2901              	.LVL307:
 2902 055e 9DF81410 		ldrb	r1, [sp, #20]	@ zero_extendqisi2
 2903 0562 0368     		ldr	r3, [r0]
 2904 0564 9B68     		ldr	r3, [r3, #8]
 2905 0566 9847     		blx	r3
 2906              	.LVL308:
 2907 0568 CDE6     		b	.L205
ARM GAS  C:\Users\mathi\AppData\Local\Temp\ccRLxsF0.s 			page 52


 2908              	.LVL309:
 2909              	.L264:
 2910              	.LBE503:
 2911              	.LBE505:
 2912              	.LBE507:
 2913              	.LBE578:
 2914 056a 144D     		ldr	r5, .L269+56
 2915              	.LBB579:
 2916              	.LBB580:
 2917              	.LBB581:
 2918              	.LBB582:
 2919              		.loc 1 115 0
 2920 056c 4621     		movs	r1, #70
 2921              	.L202:
 2922              	.LVL310:
 2923              		.loc 1 116 0
 2924 056e 2068     		ldr	r0, [r4]
 2925 0570 0368     		ldr	r3, [r0]
 2926 0572 9B68     		ldr	r3, [r3, #8]
 2927 0574 9847     		blx	r3
 2928              	.LVL311:
 2929              		.loc 1 115 0
 2930 0576 15F8011F 		ldrb	r1, [r5, #1]!	@ zero_extendqisi2
 2931              	.LVL312:
 2932 057a 0029     		cmp	r1, #0
 2933 057c F7D1     		bne	.L202
 2934 057e B3E7     		b	.L261
 2935              	.LVL313:
 2936              	.L265:
 2937              	.LBE582:
 2938              	.LBE581:
 2939              	.LBE580:
 2940              	.LBE579:
 2941              	.LBB583:
 2942              	.LBB571:
 2943              		.loc 1 127 0
 2944 0580 FFF7FEFF 		bl	__stack_chk_fail
 2945              	.LVL314:
 2946              	.L270:
 2947              		.align	2
 2948              	.L269:
 2949 0584 CDCCCCCC 		.word	-858993459
 2950 0588 00000000 		.word	.LC0
 2951 058c 00000000 		.word	.LANCHOR2
 2952 0590 00000000 		.word	.LANCHOR8
 2953 0594 00000000 		.word	.LANCHOR7
 2954 0598 00000000 		.word	.LANCHOR5
 2955 059c 00000000 		.word	.LANCHOR6
 2956 05a0 D4010000 		.word	.LC22
 2957 05a4 D8010000 		.word	.LC23
 2958 05a8 F0010000 		.word	.LC25
 2959 05ac 00000000 		.word	.LANCHOR4
 2960 05b0 08020000 		.word	.LC27
 2961 05b4 00000000 		.word	__stack_chk_guard
 2962 05b8 DC010000 		.word	.LC24
 2963 05bc 00020000 		.word	.LC26
 2964 05c0 B8010000 		.word	.LC20
ARM GAS  C:\Users\mathi\AppData\Local\Temp\ccRLxsF0.s 			page 53


 2965 05c4 BC010000 		.word	.LC21
 2966              	.LBE571:
 2967              	.LBE583:
 2968              		.cfi_endproc
 2969              	.LFE274:
 2970              		.size	TestThread, .-TestThread
 2971              		.global	test_timer_done
 2972              		.global	wa
 2973              		.global	threads
 2974              		.global	test
 2975              		.global	test_global_fail
 2976              		.section	.bss.chp,"aw",%nobits
 2977              		.align	2
 2978              		.set	.LANCHOR1,. + 0
 2979              		.type	chp, %object
 2980              		.size	chp, 4
 2981              	chp:
 2982 0000 00000000 		.space	4
 2983              		.section	.bss.failpoint,"aw",%nobits
 2984              		.align	2
 2985              		.set	.LANCHOR6,. + 0
 2986              		.type	failpoint, %object
 2987              		.size	failpoint, 4
 2988              	failpoint:
 2989 0000 00000000 		.space	4
 2990              		.section	.bss.local_fail,"aw",%nobits
 2991              		.set	.LANCHOR5,. + 0
 2992              		.type	local_fail, %object
 2993              		.size	local_fail, 1
 2994              	local_fail:
 2995 0000 00       		.space	1
 2996              		.section	.bss.test,"aw",%nobits
 2997              		.align	3
 2998              		.type	test, %object
 2999              		.size	test, 2520
 3000              	test:
 3001 0000 00000000 		.space	2520
 3001      00000000 
 3001      00000000 
 3001      00000000 
 3001      00000000 
 3002              		.section	.bss.test_global_fail,"aw",%nobits
 3003              		.set	.LANCHOR4,. + 0
 3004              		.type	test_global_fail, %object
 3005              		.size	test_global_fail, 1
 3006              	test_global_fail:
 3007 0000 00       		.space	1
 3008              		.section	.bss.test_timer_done,"aw",%nobits
 3009              		.set	.LANCHOR0,. + 0
 3010              		.type	test_timer_done, %object
 3011              		.size	test_timer_done, 1
 3012              	test_timer_done:
 3013 0000 00       		.space	1
 3014              		.section	.bss.threads,"aw",%nobits
 3015              		.align	2
 3016              		.set	.LANCHOR8,. + 0
 3017              		.type	threads, %object
ARM GAS  C:\Users\mathi\AppData\Local\Temp\ccRLxsF0.s 			page 54


 3018              		.size	threads, 20
 3019              	threads:
 3020 0000 00000000 		.space	20
 3020      00000000 
 3020      00000000 
 3020      00000000 
 3020      00000000 
 3021              		.section	.bss.tokens_buffer,"aw",%nobits
 3022              		.align	2
 3023              		.set	.LANCHOR7,. + 0
 3024              		.type	tokens_buffer, %object
 3025              		.size	tokens_buffer, 16
 3026              	tokens_buffer:
 3027 0000 00000000 		.space	16
 3027      00000000 
 3027      00000000 
 3027      00000000 
 3028              		.section	.bss.tokp,"aw",%nobits
 3029              		.align	2
 3030              		.set	.LANCHOR2,. + 0
 3031              		.type	tokp, %object
 3032              		.size	tokp, 4
 3033              	tokp:
 3034 0000 00000000 		.space	4
 3035              		.section	.bss.vt,"aw",%nobits
 3036              		.align	2
 3037              		.set	.LANCHOR9,. + 0
 3038              		.type	vt, %object
 3039              		.size	vt, 20
 3040              	vt:
 3041 0000 00000000 		.space	20
 3041      00000000 
 3041      00000000 
 3041      00000000 
 3041      00000000 
 3042              		.section	.rodata.TestThread.str1.4,"aMS",%progbits,1
 3043              		.align	2
 3044              	.LC1:
 3045 0000 2A2A2A20 		.ascii	"*** ChibiOS/RT test suite\000"
 3045      43686962 
 3045      694F532F 
 3045      52542074 
 3045      65737420 
 3046 001a 0000     		.space	2
 3047              	.LC2:
 3048 001c 2A2A2A00 		.ascii	"***\000"
 3049              	.LC3:
 3050 0020 2A2A2A20 		.ascii	"*** Kernel:       \000"
 3050      4B65726E 
 3050      656C3A20 
 3050      20202020 
 3050      202000
 3051 0033 00       		.space	1
 3052              	.LC4:
 3053 0034 332E302E 		.ascii	"3.0.0\000"
 3053      3000
 3054 003a 0000     		.space	2
ARM GAS  C:\Users\mathi\AppData\Local\Temp\ccRLxsF0.s 			page 55


 3055              	.LC5:
 3056 003c 2A2A2A20 		.ascii	"*** Compiled:     \000"
 3056      436F6D70 
 3056      696C6564 
 3056      3A202020 
 3056      202000
 3057 004f 00       		.space	1
 3058              	.LC6:
 3059 0050 41707220 		.ascii	"Apr 10 2022 - 21:02:10\000"
 3059      31302032 
 3059      30323220 
 3059      2D203231 
 3059      3A30323A 
 3060 0067 00       		.space	1
 3061              	.LC7:
 3062 0068 2A2A2A20 		.ascii	"*** Compiler:     \000"
 3062      436F6D70 
 3062      696C6572 
 3062      3A202020 
 3062      202000
 3063 007b 00       		.space	1
 3064              	.LC8:
 3065 007c 47434320 		.ascii	"GCC 7.2.1 20170904 (release) [ARM/embedded-7-branch"
 3065      372E322E 
 3065      31203230 
 3065      31373039 
 3065      30342028 
 3066 00af 20726576 		.ascii	" revision 255204]\000"
 3066      6973696F 
 3066      6E203235 
 3066      35323034 
 3066      5D00
 3067 00c1 000000   		.space	3
 3068              	.LC9:
 3069 00c4 2A2A2A20 		.ascii	"*** Architecture: \000"
 3069      41726368 
 3069      69746563 
 3069      74757265 
 3069      3A2000
 3070 00d7 00       		.space	1
 3071              	.LC10:
 3072 00d8 41524D76 		.ascii	"ARMv7-ME\000"
 3072      372D4D45 
 3072      00
 3073 00e1 000000   		.space	3
 3074              	.LC11:
 3075 00e4 2A2A2A20 		.ascii	"*** Core Variant: \000"
 3075      436F7265 
 3075      20566172 
 3075      69616E74 
 3075      3A2000
 3076 00f7 00       		.space	1
 3077              	.LC12:
 3078 00f8 436F7274 		.ascii	"Cortex-M4F\000"
 3078      65782D4D 
 3078      344600
 3079 0103 00       		.space	1
ARM GAS  C:\Users\mathi\AppData\Local\Temp\ccRLxsF0.s 			page 56


 3080              	.LC13:
 3081 0104 2A2A2A20 		.ascii	"*** Port Info:    \000"
 3081      506F7274 
 3081      20496E66 
 3081      6F3A2020 
 3081      202000
 3082 0117 00       		.space	1
 3083              	.LC14:
 3084 0118 41647661 		.ascii	"Advanced kernel mode\000"
 3084      6E636564 
 3084      206B6572 
 3084      6E656C20 
 3084      6D6F6465 
 3085 012d 000000   		.space	3
 3086              	.LC15:
 3087 0130 2A2A2A20 		.ascii	"*** Platform:     \000"
 3087      506C6174 
 3087      666F726D 
 3087      3A202020 
 3087      202000
 3088 0143 00       		.space	1
 3089              	.LC16:
 3090 0144 53544D33 		.ascii	"STM32F407 High Performance with DSP and FPU\000"
 3090      32463430 
 3090      37204869 
 3090      67682050 
 3090      6572666F 
 3091              	.LC17:
 3092 0170 2A2A2A20 		.ascii	"*** Test Board:   \000"
 3092      54657374 
 3092      20426F61 
 3092      72643A20 
 3092      202000
 3093 0183 00       		.space	1
 3094              	.LC18:
 3095 0184 47435472 		.ascii	"GCTronic-MobotsEPFL e-puck V2.0_F\000"
 3095      6F6E6963 
 3095      2D4D6F62 
 3095      6F747345 
 3095      50464C20 
 3096 01a6 0000     		.space	2
 3097              	.LC19:
 3098 01a8 2D2D2D20 		.ascii	"--- Test Case \000"
 3098      54657374 
 3098      20436173 
 3098      652000
 3099 01b7 00       		.space	1
 3100              	.LC20:
 3101 01b8 202800   		.ascii	" (\000"
 3102 01bb 00       		.space	1
 3103              	.LC21:
 3104 01bc 2D2D2D20 		.ascii	"--- Result: FAILURE (#\000"
 3104      52657375 
 3104      6C743A20 
 3104      4641494C 
 3104      55524520 
 3105 01d3 00       		.space	1
ARM GAS  C:\Users\mathi\AppData\Local\Temp\ccRLxsF0.s 			page 57


 3106              	.LC22:
 3107 01d4 205B00   		.ascii	" [\000"
 3108 01d7 00       		.space	1
 3109              	.LC23:
 3110 01d8 5D2900   		.ascii	"])\000"
 3111 01db 00       		.space	1
 3112              	.LC24:
 3113 01dc 2D2D2D20 		.ascii	"--- Result: SUCCESS\000"
 3113      52657375 
 3113      6C743A20 
 3113      53554343 
 3113      45535300 
 3114              	.LC25:
 3115 01f0 46696E61 		.ascii	"Final result: \000"
 3115      6C207265 
 3115      73756C74 
 3115      3A2000
 3116 01ff 00       		.space	1
 3117              	.LC26:
 3118 0200 4641494C 		.ascii	"FAILURE\000"
 3118      55524500 
 3119              	.LC27:
 3120 0208 53554343 		.ascii	"SUCCESS\000"
 3120      45535300 
 3121              		.section	.rodata.__func__.7153,"a",%progbits
 3122              		.align	2
 3123              		.set	.LANCHOR3,. + 0
 3124              		.type	__func__.7153, %object
 3125              		.size	__func__.7153, 12
 3126              	__func__.7153:
 3127 0000 63685379 		.ascii	"chSysUnlock\000"
 3127      73556E6C 
 3127      6F636B00 
 3128              		.section	.rodata.patterns,"a",%progbits
 3129              		.align	2
 3130              		.set	.LANCHOR10,. + 0
 3131              		.type	patterns, %object
 3132              		.size	patterns, 52
 3133              	patterns:
 3134 0000 00000000 		.word	patternsys
 3135 0004 00000000 		.word	patternthd
 3136 0008 00000000 		.word	patternsem
 3137 000c 00000000 		.word	patternmtx
 3138 0010 00000000 		.word	patternmsg
 3139 0014 00000000 		.word	patternmbox
 3140 0018 00000000 		.word	patternevt
 3141 001c 00000000 		.word	patternheap
 3142 0020 00000000 		.word	patternpools
 3143 0024 00000000 		.word	patterndyn
 3144 0028 00000000 		.word	patternqueues
 3145 002c 00000000 		.word	patternbmk
 3146 0030 00000000 		.word	0
 3147              		.section	.rodata.test_println.str1.4,"aMS",%progbits,1
 3148              		.align	2
 3149              	.LC0:
 3150 0000 0D0A00   		.ascii	"\015\012\000"
 3151              		.section	.rodata.wa,"a",%progbits
ARM GAS  C:\Users\mathi\AppData\Local\Temp\ccRLxsF0.s 			page 58


 3152              		.align	2
 3153              		.type	wa, %object
 3154              		.size	wa, 20
 3155              	wa:
 3156 0000 00000000 		.word	test
 3157 0004 F8010000 		.word	test+504
 3158 0008 F0030000 		.word	test+1008
 3159 000c E8050000 		.word	test+1512
 3160 0010 E0070000 		.word	test+2016
 3161              		.text
 3162              	.Letext0:
 3163              		.file 6 "c:\\eclipse_e-puck2\\tools\\gcc-arm-none-eabi-7-2017-q4-major-win32\\lib\\gcc\\arm-none-e
 3164              		.file 7 "c:\\eclipse_e-puck2\\tools\\gcc-arm-none-eabi-7-2017-q4-major-win32\\arm-none-eabi\\inclu
 3165              		.file 8 "c:\\eclipse_e-puck2\\tools\\gcc-arm-none-eabi-7-2017-q4-major-win32\\arm-none-eabi\\inclu
 3166              		.file 9 "../../lib/e-puck2_main-processor/ChibiOS//os/rt/ports/ARMCMx/compilers/GCC/chtypes.h"
 3167              		.file 10 "../../lib/e-puck2_main-processor/ChibiOS//os/rt/include/chsystypes.h"
 3168              		.file 11 "../../lib/e-puck2_main-processor/ChibiOS//os/rt/include/chschd.h"
 3169              		.file 12 "../../lib/e-puck2_main-processor/ChibiOS//os/ext/CMSIS/include/core_cm4.h"
 3170              		.file 13 "../../lib/e-puck2_main-processor/ChibiOS//os/ext/CMSIS/ST/system_stm32f4xx.h"
 3171              		.file 14 "../../lib/e-puck2_main-processor/ChibiOS//os/ext/CMSIS/ST/stm32f407xx.h"
 3172              		.file 15 "../../lib/e-puck2_main-processor/ChibiOS//os/rt/ports/ARMCMx/chcore.h"
 3173              		.file 16 "../../lib/e-puck2_main-processor/ChibiOS//os/rt/ports/ARMCMx/chcore_v7m.h"
 3174              		.file 17 "../../lib/e-puck2_main-processor/ChibiOS//os/rt/include/chdebug.h"
 3175              		.file 18 "../../lib/e-puck2_main-processor/ChibiOS//os/rt/include/chtm.h"
 3176              		.file 19 "../../lib/e-puck2_main-processor/ChibiOS//os/rt/include/chstats.h"
 3177              		.file 20 "../../lib/e-puck2_main-processor/ChibiOS//os/rt/include/chsem.h"
 3178              		.file 21 "../../lib/e-puck2_main-processor/ChibiOS//os/rt/include/chmtx.h"
 3179              		.file 22 "../../lib/e-puck2_main-processor/ChibiOS//os/rt/include/chregistry.h"
 3180              		.file 23 "../../lib/e-puck2_main-processor/ChibiOS//os/rt/include/chevents.h"
 3181              		.file 24 "../../lib/e-puck2_main-processor/ChibiOS//os/rt/include/chqueues.h"
 3182              		.file 25 "../../lib/e-puck2_main-processor/ChibiOS//os/rt/include/chstreams.h"
 3183              		.file 26 "../../lib/e-puck2_main-processor/ChibiOS//os/hal/ports/STM32/STM32F4xx/stm32_dma.h"
 3184              		.file 27 "../../lib/e-puck2_main-processor/ChibiOS//os/hal/include/hal_ioblock.h"
 3185              		.file 28 "../../lib/e-puck2_main-processor/ChibiOS//os/hal/ports/STM32/LLD/GPIOv2/pal_lld.h"
 3186              		.file 29 "../../lib/e-puck2_main-processor/ChibiOS//os/hal/include/adc.h"
 3187              		.file 30 "../../lib/e-puck2_main-processor/ChibiOS//os/hal/ports/STM32/STM32F4xx/adc_lld.h"
 3188              		.file 31 "../../lib/e-puck2_main-processor/ChibiOS//os/hal/include/can.h"
 3189              		.file 32 "../../lib/e-puck2_main-processor/ChibiOS//os/hal/ports/STM32/LLD/can_lld.h"
 3190              		.file 33 "../../lib/e-puck2_main-processor/ChibiOS//os/hal/include/dac.h"
 3191              		.file 34 "../../lib/e-puck2_main-processor/ChibiOS//os/hal/ports/STM32/LLD/DACv1/dac_lld.h"
 3192              		.file 35 "../../lib/e-puck2_main-processor/ChibiOS//os/hal/include/ext.h"
 3193              		.file 36 "../../lib/e-puck2_main-processor/ChibiOS//os/hal/ports/STM32/LLD/ext_lld.h"
 3194              		.file 37 "../../lib/e-puck2_main-processor/ChibiOS//os/hal/include/gpt.h"
 3195              		.file 38 "../../lib/e-puck2_main-processor/ChibiOS//os/hal/ports/STM32/LLD/TIMv1/gpt_lld.h"
 3196              		.file 39 "../../lib/e-puck2_main-processor/ChibiOS//os/hal/ports/STM32/LLD/TIMv1/stm32_tim.h"
 3197              		.file 40 "../../lib/e-puck2_main-processor/ChibiOS//os/hal/include/i2c.h"
 3198              		.file 41 "../../lib/e-puck2_main-processor/ChibiOS//os/hal/ports/STM32/LLD/I2Cv1/i2c_lld.h"
 3199              		.file 42 "../../lib/e-puck2_main-processor/ChibiOS//os/hal/include/i2s.h"
 3200              		.file 43 "../../lib/e-puck2_main-processor/ChibiOS//os/hal/ports/STM32/LLD/SPIv1/i2s_lld.h"
 3201              		.file 44 "../../lib/e-puck2_main-processor/ChibiOS//os/hal/include/pwm.h"
 3202              		.file 45 "../../lib/e-puck2_main-processor/ChibiOS//os/hal/ports/STM32/LLD/TIMv1/pwm_lld.h"
 3203              		.file 46 "../../lib/e-puck2_main-processor/ChibiOS//os/hal/include/serial.h"
 3204              		.file 47 "../../lib/e-puck2_main-processor/ChibiOS//os/hal/ports/STM32/LLD/USARTv1/serial_lld.h"
 3205              		.file 48 "../../lib/e-puck2_main-processor/ChibiOS//os/hal/include/sdc.h"
 3206              		.file 49 "../../lib/e-puck2_main-processor/ChibiOS//os/hal/ports/STM32/LLD/sdc_lld.h"
 3207              		.file 50 "../../lib/e-puck2_main-processor/ChibiOS//os/hal/include/spi.h"
 3208              		.file 51 "../../lib/e-puck2_main-processor/ChibiOS//os/hal/ports/STM32/LLD/SPIv1/spi_lld.h"
ARM GAS  C:\Users\mathi\AppData\Local\Temp\ccRLxsF0.s 			page 59


 3209              		.file 52 "../../lib/e-puck2_main-processor/ChibiOS//os/hal/include/usb.h"
 3210              		.file 53 "../../lib/e-puck2_main-processor/ChibiOS//os/hal/ports/STM32/LLD/OTGv1/usb_lld.h"
 3211              		.file 54 "../../lib/e-puck2_main-processor/ChibiOS//os/hal/ports/STM32/LLD/OTGv1/stm32_otg.h"
 3212              		.file 55 "../../lib/e-puck2_main-processor/ChibiOS//test/rt/test.h"
 3213              		.file 56 "../../lib/e-puck2_main-processor/ChibiOS//test/rt/testsys.h"
 3214              		.file 57 "../../lib/e-puck2_main-processor/ChibiOS//test/rt/testthd.h"
 3215              		.file 58 "../../lib/e-puck2_main-processor/ChibiOS//test/rt/testsem.h"
 3216              		.file 59 "../../lib/e-puck2_main-processor/ChibiOS//test/rt/testmtx.h"
 3217              		.file 60 "../../lib/e-puck2_main-processor/ChibiOS//test/rt/testmsg.h"
 3218              		.file 61 "../../lib/e-puck2_main-processor/ChibiOS//test/rt/testmbox.h"
 3219              		.file 62 "../../lib/e-puck2_main-processor/ChibiOS//test/rt/testevt.h"
 3220              		.file 63 "../../lib/e-puck2_main-processor/ChibiOS//test/rt/testheap.h"
 3221              		.file 64 "../../lib/e-puck2_main-processor/ChibiOS//test/rt/testpools.h"
 3222              		.file 65 "../../lib/e-puck2_main-processor/ChibiOS//test/rt/testdyn.h"
 3223              		.file 66 "../../lib/e-puck2_main-processor/ChibiOS//test/rt/testqueues.h"
 3224              		.file 67 "../../lib/e-puck2_main-processor/ChibiOS//test/rt/testbmk.h"