ARM GAS  C:\Users\mathi\AppData\Local\Temp\ccRLxsF0.s 			page 1


   1              		.cpu cortex-m4
   2              		.eabi_attribute 27, 1
   3              		.eabi_attribute 28, 1
   4              		.eabi_attribute 20, 1
   5              		.eabi_attribute 21, 1
   6              		.eabi_attribute 23, 3
   7              		.eabi_attribute 24, 1
   8              		.eabi_attribute 25, 1
   9              		.eabi_attribute 26, 1
  10              		.eabi_attribute 30, 2
  11              		.eabi_attribute 34, 1
  12              		.eabi_attribute 18, 4
  13              		.file	"test.c"
  14              		.text
  15              	.Ltext0:
  16              		.cfi_sections	.debug_frame
  17              		.section	.text.tmr,"ax",%progbits
  18              		.align	1
  19              		.p2align 4,,15
  20              		.syntax unified
  21              		.thumb
  22              		.thumb_func
  23              		.fpu fpv4-sp-d16
  24              		.type	tmr, %function
  25              	tmr:
  26              	.LFB270:
  27              		.file 1 "../../lib/e-puck2_main-processor/ChibiOS//test/rt/test.c"
  28              		.loc 1 264 0
  29              		.cfi_startproc
  30              		@ args = 0, pretend = 0, frame = 8
  31              		@ frame_needed = 0, uses_anonymous_args = 0
  32              	.LVL0:
  33 0000 00B5     		push	{lr}
  34              		.cfi_def_cfa_offset 4
  35              		.cfi_offset 14, -4
  36 0002 084B     		ldr	r3, .L6
  37              		.loc 1 267 0
  38 0004 0849     		ldr	r1, .L6+4
  39              		.loc 1 264 0
  40 0006 1A68     		ldr	r2, [r3]
  41 0008 83B0     		sub	sp, sp, #12
  42              		.cfi_def_cfa_offset 16
  43              		.loc 1 267 0
  44 000a 0120     		movs	r0, #1
  45              	.LVL1:
  46              		.loc 1 264 0
  47 000c 0192     		str	r2, [sp, #4]
  48              		.loc 1 268 0
  49 000e 019A     		ldr	r2, [sp, #4]
  50 0010 1B68     		ldr	r3, [r3]
  51              		.loc 1 267 0
  52 0012 0870     		strb	r0, [r1]
  53              		.loc 1 268 0
  54 0014 9A42     		cmp	r2, r3
  55 0016 02D1     		bne	.L5
  56 0018 03B0     		add	sp, sp, #12
  57              		.cfi_remember_state
ARM GAS  C:\Users\mathi\AppData\Local\Temp\ccRLxsF0.s 			page 2


  58              		.cfi_def_cfa_offset 4
  59              		@ sp needed
  60 001a 5DF804FB 		ldr	pc, [sp], #4
  61              	.L5:
  62              		.cfi_restore_state
  63 001e FFF7FEFF 		bl	__stack_chk_fail
  64              	.LVL2:
  65              	.L7:
  66 0022 00BF     		.align	2
  67              	.L6:
  68 0024 00000000 		.word	__stack_chk_guard
  69 0028 00000000 		.word	.LANCHOR0
  70              		.cfi_endproc
  71              	.LFE270:
  72              		.size	tmr, .-tmr
  73              		.section	.text.test_printn,"ax",%progbits
  74              		.align	1
  75              		.p2align 4,,15
  76              		.global	test_printn
  77              		.syntax unified
  78              		.thumb
  79              		.thumb_func
  80              		.fpu fpv4-sp-d16
  81              		.type	test_printn, %function
  82              	test_printn:
  83              	.LFB256:
  84              		.loc 1 94 0
  85              		.cfi_startproc
  86              		@ args = 0, pretend = 0, frame = 24
  87              		@ frame_needed = 0, uses_anonymous_args = 0
  88              	.LVL3:
  89 0000 F0B5     		push	{r4, r5, r6, r7, lr}
  90              		.cfi_def_cfa_offset 20
  91              		.cfi_offset 4, -20
  92              		.cfi_offset 5, -16
  93              		.cfi_offset 6, -12
  94              		.cfi_offset 7, -8
  95              		.cfi_offset 14, -4
  96 0002 1A4D     		ldr	r5, .L21
  97 0004 87B0     		sub	sp, sp, #28
  98              		.cfi_def_cfa_offset 48
  99              		.loc 1 94 0
 100 0006 2B68     		ldr	r3, [r5]
 101 0008 0593     		str	r3, [sp, #20]
 102              		.loc 1 97 0
 103 000a 60B9     		cbnz	r0, .L20
 104              		.loc 1 98 0
 105 000c 059A     		ldr	r2, [sp, #20]
 106 000e 2B68     		ldr	r3, [r5]
 107 0010 1749     		ldr	r1, .L21+4
 108 0012 9A42     		cmp	r2, r3
 109 0014 0868     		ldr	r0, [r1]
 110              	.LVL4:
 111 0016 27D1     		bne	.L19
 112 0018 0368     		ldr	r3, [r0]
 113 001a 9B68     		ldr	r3, [r3, #8]
 114 001c 3021     		movs	r1, #48
ARM GAS  C:\Users\mathi\AppData\Local\Temp\ccRLxsF0.s 			page 3


 115              		.loc 1 106 0
 116 001e 07B0     		add	sp, sp, #28
 117              		.cfi_remember_state
 118              		.cfi_def_cfa_offset 20
 119              		@ sp needed
 120 0020 BDE8F040 		pop	{r4, r5, r6, r7, lr}
 121              		.cfi_restore 14
 122              		.cfi_restore 7
 123              		.cfi_restore 6
 124              		.cfi_restore 5
 125              		.cfi_restore 4
 126              		.cfi_def_cfa_offset 0
 127              		.loc 1 98 0
 128 0024 1847     		bx	r3
 129              	.LVL5:
 130              	.L20:
 131              		.cfi_restore_state
 132              	.LBB124:
 133              	.LBB125:
 134              		.loc 1 100 0
 135 0026 01AE     		add	r6, sp, #4
 136              		.loc 1 102 0
 137 0028 1249     		ldr	r1, .L21+8
 138              		.loc 1 100 0
 139 002a 3446     		mov	r4, r6
 140              	.LVL6:
 141              	.L10:
 142              		.loc 1 102 0
 143 002c A1FB0023 		umull	r2, r3, r1, r0
 144 0030 DB08     		lsrs	r3, r3, #3
 145 0032 03EB8302 		add	r2, r3, r3, lsl #2
 146 0036 A0EB4200 		sub	r0, r0, r2, lsl #1
 147              	.LVL7:
 148 003a 3030     		adds	r0, r0, #48
 149 003c 04F8010B 		strb	r0, [r4], #1
 150              	.LVL8:
 151              		.loc 1 101 0
 152 0040 1846     		mov	r0, r3
 153 0042 002B     		cmp	r3, #0
 154 0044 F2D1     		bne	.L10
 155              		.loc 1 103 0
 156 0046 B442     		cmp	r4, r6
 157 0048 08D9     		bls	.L8
 158 004a 094F     		ldr	r7, .L21+4
 159              	.LVL9:
 160              	.L12:
 161              		.loc 1 104 0
 162 004c 3868     		ldr	r0, [r7]
 163 004e 14F8011D 		ldrb	r1, [r4, #-1]!	@ zero_extendqisi2
 164              	.LVL10:
 165 0052 0368     		ldr	r3, [r0]
 166 0054 9B68     		ldr	r3, [r3, #8]
 167 0056 9847     		blx	r3
 168              	.LVL11:
 169              		.loc 1 103 0
 170 0058 B442     		cmp	r4, r6
 171 005a F7D1     		bne	.L12
ARM GAS  C:\Users\mathi\AppData\Local\Temp\ccRLxsF0.s 			page 4


 172              	.L8:
 173              	.LBE125:
 174              	.LBE124:
 175              		.loc 1 106 0
 176 005c 059A     		ldr	r2, [sp, #20]
 177 005e 2B68     		ldr	r3, [r5]
 178 0060 9A42     		cmp	r2, r3
 179 0062 01D1     		bne	.L19
 180 0064 07B0     		add	sp, sp, #28
 181              		.cfi_remember_state
 182              		.cfi_def_cfa_offset 20
 183              		@ sp needed
 184 0066 F0BD     		pop	{r4, r5, r6, r7, pc}
 185              	.LVL12:
 186              	.L19:
 187              		.cfi_restore_state
 188 0068 FFF7FEFF 		bl	__stack_chk_fail
 189              	.LVL13:
 190              	.L22:
 191              		.align	2
 192              	.L21:
 193 006c 00000000 		.word	__stack_chk_guard
 194 0070 00000000 		.word	.LANCHOR1
 195 0074 CDCCCCCC 		.word	-858993459
 196              		.cfi_endproc
 197              	.LFE256:
 198              		.size	test_printn, .-test_printn
 199              		.section	.text.test_print,"ax",%progbits
 200              		.align	1
 201              		.p2align 4,,15
 202              		.global	test_print
 203              		.syntax unified
 204              		.thumb
 205              		.thumb_func
 206              		.fpu fpv4-sp-d16
 207              		.type	test_print, %function
 208              	test_print:
 209              	.LFB257:
 210              		.loc 1 113 0
 211              		.cfi_startproc
 212              		@ args = 0, pretend = 0, frame = 8
 213              		@ frame_needed = 0, uses_anonymous_args = 0
 214              	.LVL14:
 215 0000 70B5     		push	{r4, r5, r6, lr}
 216              		.cfi_def_cfa_offset 16
 217              		.cfi_offset 4, -16
 218              		.cfi_offset 5, -12
 219              		.cfi_offset 6, -8
 220              		.cfi_offset 14, -4
 221 0002 0C4E     		ldr	r6, .L33
 222              		.loc 1 115 0
 223 0004 0178     		ldrb	r1, [r0]	@ zero_extendqisi2
 224              		.loc 1 113 0
 225 0006 3368     		ldr	r3, [r6]
 226 0008 82B0     		sub	sp, sp, #8
 227              		.cfi_def_cfa_offset 24
 228              		.loc 1 113 0
ARM GAS  C:\Users\mathi\AppData\Local\Temp\ccRLxsF0.s 			page 5


 229 000a 0193     		str	r3, [sp, #4]
 230              		.loc 1 115 0
 231 000c 49B1     		cbz	r1, .L23
 232 000e 0A4D     		ldr	r5, .L33+4
 233 0010 0446     		mov	r4, r0
 234              	.LVL15:
 235              	.L25:
 236              		.loc 1 116 0
 237 0012 2868     		ldr	r0, [r5]
 238 0014 0368     		ldr	r3, [r0]
 239 0016 9B68     		ldr	r3, [r3, #8]
 240 0018 9847     		blx	r3
 241              	.LVL16:
 242              		.loc 1 115 0
 243 001a 14F8011F 		ldrb	r1, [r4, #1]!	@ zero_extendqisi2
 244              	.LVL17:
 245 001e 0029     		cmp	r1, #0
 246 0020 F7D1     		bne	.L25
 247              	.LVL18:
 248              	.L23:
 249              		.loc 1 117 0
 250 0022 019A     		ldr	r2, [sp, #4]
 251 0024 3368     		ldr	r3, [r6]
 252 0026 9A42     		cmp	r2, r3
 253 0028 01D1     		bne	.L32
 254 002a 02B0     		add	sp, sp, #8
 255              		.cfi_remember_state
 256              		.cfi_def_cfa_offset 16
 257              		@ sp needed
 258 002c 70BD     		pop	{r4, r5, r6, pc}
 259              	.L32:
 260              		.cfi_restore_state
 261 002e FFF7FEFF 		bl	__stack_chk_fail
 262              	.LVL19:
 263              	.L34:
 264 0032 00BF     		.align	2
 265              	.L33:
 266 0034 00000000 		.word	__stack_chk_guard
 267 0038 00000000 		.word	.LANCHOR1
 268              		.cfi_endproc
 269              	.LFE257:
 270              		.size	test_print, .-test_print
 271              		.section	.text.test_println,"ax",%progbits
 272              		.align	1
 273              		.p2align 4,,15
 274              		.global	test_println
 275              		.syntax unified
 276              		.thumb
 277              		.thumb_func
 278              		.fpu fpv4-sp-d16
 279              		.type	test_println, %function
 280              	test_println:
 281              	.LFB258:
 282              		.loc 1 124 0
 283              		.cfi_startproc
 284              		@ args = 0, pretend = 0, frame = 8
 285              		@ frame_needed = 0, uses_anonymous_args = 0
ARM GAS  C:\Users\mathi\AppData\Local\Temp\ccRLxsF0.s 			page 6


 286              	.LVL20:
 287 0000 70B5     		push	{r4, r5, r6, lr}
 288              		.cfi_def_cfa_offset 16
 289              		.cfi_offset 4, -16
 290              		.cfi_offset 5, -12
 291              		.cfi_offset 6, -8
 292              		.cfi_offset 14, -4
 293 0002 104E     		ldr	r6, .L47
 294              	.LBB128:
 295              	.LBB129:
 296              		.loc 1 115 0
 297 0004 0178     		ldrb	r1, [r0]	@ zero_extendqisi2
 298              	.LBE129:
 299              	.LBE128:
 300              		.loc 1 124 0
 301 0006 3368     		ldr	r3, [r6]
 302 0008 82B0     		sub	sp, sp, #8
 303              		.cfi_def_cfa_offset 24
 304              		.loc 1 124 0
 305 000a 0193     		str	r3, [sp, #4]
 306              	.LVL21:
 307              	.LBB131:
 308              	.LBB130:
 309              		.loc 1 115 0
 310 000c B1B1     		cbz	r1, .L45
 311 000e 0E4D     		ldr	r5, .L47+4
 312 0010 0446     		mov	r4, r0
 313              	.LVL22:
 314              	.L37:
 315              		.loc 1 116 0
 316 0012 2868     		ldr	r0, [r5]
 317 0014 0368     		ldr	r3, [r0]
 318 0016 9B68     		ldr	r3, [r3, #8]
 319 0018 9847     		blx	r3
 320              	.LVL23:
 321              		.loc 1 115 0
 322 001a 14F8011F 		ldrb	r1, [r4, #1]!	@ zero_extendqisi2
 323              	.LVL24:
 324 001e 0029     		cmp	r1, #0
 325 0020 F7D1     		bne	.L37
 326              	.LVL25:
 327              	.L36:
 328              	.LBE130:
 329              	.LBE131:
 330              		.loc 1 127 0
 331 0022 019A     		ldr	r2, [sp, #4]
 332 0024 3368     		ldr	r3, [r6]
 333 0026 2868     		ldr	r0, [r5]
 334 0028 9A42     		cmp	r2, r3
 335 002a 09D1     		bne	.L46
 336 002c 0368     		ldr	r3, [r0]
 337 002e 0749     		ldr	r1, .L47+8
 338 0030 1B68     		ldr	r3, [r3]
 339 0032 0222     		movs	r2, #2
 340              		.loc 1 128 0
 341 0034 02B0     		add	sp, sp, #8
 342              		.cfi_remember_state
ARM GAS  C:\Users\mathi\AppData\Local\Temp\ccRLxsF0.s 			page 7


 343              		.cfi_def_cfa_offset 16
 344              		@ sp needed
 345 0036 BDE87040 		pop	{r4, r5, r6, lr}
 346              		.cfi_restore 14
 347              		.cfi_restore 6
 348              		.cfi_restore 5
 349              		.cfi_restore 4
 350              		.cfi_def_cfa_offset 0
 351              		.loc 1 127 0
 352 003a 1847     		bx	r3
 353              	.LVL26:
 354              	.L45:
 355              		.cfi_restore_state
 356 003c 024D     		ldr	r5, .L47+4
 357 003e F0E7     		b	.L36
 358              	.LVL27:
 359              	.L46:
 360 0040 FFF7FEFF 		bl	__stack_chk_fail
 361              	.LVL28:
 362              	.L48:
 363              		.align	2
 364              	.L47:
 365 0044 00000000 		.word	__stack_chk_guard
 366 0048 00000000 		.word	.LANCHOR1
 367 004c 00000000 		.word	.LC0
 368              		.cfi_endproc
 369              	.LFE258:
 370              		.size	test_println, .-test_println
 371              		.section	.text.test_emit_token,"ax",%progbits
 372              		.align	1
 373              		.p2align 4,,15
 374              		.global	test_emit_token
 375              		.syntax unified
 376              		.thumb
 377              		.thumb_func
 378              		.fpu fpv4-sp-d16
 379              		.type	test_emit_token, %function
 380              	test_emit_token:
 381              	.LFB261:
 382              		.loc 1 150 0
 383              		.cfi_startproc
 384              		@ args = 0, pretend = 0, frame = 8
 385              		@ frame_needed = 0, uses_anonymous_args = 0
 386              	.LVL29:
 387 0000 30B5     		push	{r4, r5, lr}
 388              		.cfi_def_cfa_offset 12
 389              		.cfi_offset 4, -12
 390              		.cfi_offset 5, -8
 391              		.cfi_offset 14, -4
 392 0002 164C     		ldr	r4, .L55
 393 0004 83B0     		sub	sp, sp, #12
 394              		.cfi_def_cfa_offset 24
 395              		.loc 1 150 0
 396 0006 2368     		ldr	r3, [r4]
 397 0008 0193     		str	r3, [sp, #4]
 398              	.LVL30:
 399 000a 0546     		mov	r5, r0
ARM GAS  C:\Users\mathi\AppData\Local\Temp\ccRLxsF0.s 			page 8


 400              	.LBB142:
 401              	.LBB143:
 402              	.LBB144:
 403              	.LBB145:
 404              	.LBB146:
 405              		.file 2 "../../lib/e-puck2_main-processor/ChibiOS//os/ext/CMSIS/include/core_cmFunc.h"
 406              		.loc 2 546 0
 407 000c 2023     		movs	r3, #32
 408              		.syntax unified
 409              	@ 546 "../../lib/e-puck2_main-processor/ChibiOS//os/ext/CMSIS/include/core_cmFunc.h" 1
 410 000e 83F31188 		MSR basepri, r3
 411              	@ 0 "" 2
 412              	.LVL31:
 413              		.thumb
 414              		.syntax unified
 415              	.LBE146:
 416              	.LBE145:
 417              	.LBE144:
 418              		.file 3 "../../lib/e-puck2_main-processor/ChibiOS//os/rt/include/chsys.h"
 419              		.loc 3 349 0
 420 0012 FFF7FEFF 		bl	_stats_start_measure_crit_thd
 421              	.LVL32:
 422              		.loc 3 350 0
 423 0016 FFF7FEFF 		bl	_dbg_check_lock
 424              	.LVL33:
 425              	.LBE143:
 426              	.LBE142:
 427              		.loc 1 153 0
 428 001a 114A     		ldr	r2, .L55+4
 429 001c 1368     		ldr	r3, [r2]
 430 001e 1D70     		strb	r5, [r3]
 431 0020 0133     		adds	r3, r3, #1
 432 0022 1360     		str	r3, [r2]
 433              	.LBB147:
 434              	.LBB148:
 435              		.loc 3 360 0
 436 0024 FFF7FEFF 		bl	_dbg_check_unlock
 437              	.LVL34:
 438              		.loc 3 361 0
 439 0028 FFF7FEFF 		bl	_stats_stop_measure_crit_thd
 440              	.LVL35:
 441              		.loc 3 367 0
 442 002c 0D4B     		ldr	r3, .L55+8
 443 002e 1A68     		ldr	r2, [r3]
 444 0030 9A42     		cmp	r2, r3
 445 0032 04D0     		beq	.L50
 446 0034 9969     		ldr	r1, [r3, #24]
 447 0036 9368     		ldr	r3, [r2, #8]
 448 0038 8A68     		ldr	r2, [r1, #8]
 449 003a 9A42     		cmp	r2, r3
 450 003c 08D3     		bcc	.L53
 451              	.L50:
 452              	.LVL36:
 453              	.LBB149:
 454              	.LBB150:
 455              	.LBB151:
 456              		.loc 2 546 0
ARM GAS  C:\Users\mathi\AppData\Local\Temp\ccRLxsF0.s 			page 9


 457 003e 0023     		movs	r3, #0
 458              		.syntax unified
 459              	@ 546 "../../lib/e-puck2_main-processor/ChibiOS//os/ext/CMSIS/include/core_cmFunc.h" 1
 460 0040 83F31188 		MSR basepri, r3
 461              	@ 0 "" 2
 462              	.LVL37:
 463              		.thumb
 464              		.syntax unified
 465              	.LBE151:
 466              	.LBE150:
 467              	.LBE149:
 468              	.LBE148:
 469              	.LBE147:
 470              		.loc 1 155 0
 471 0044 019A     		ldr	r2, [sp, #4]
 472 0046 2368     		ldr	r3, [r4]
 473 0048 9A42     		cmp	r2, r3
 474 004a 05D1     		bne	.L54
 475 004c 03B0     		add	sp, sp, #12
 476              		.cfi_remember_state
 477              		.cfi_def_cfa_offset 12
 478              		@ sp needed
 479 004e 30BD     		pop	{r4, r5, pc}
 480              	.L53:
 481              		.cfi_restore_state
 482              	.LBB153:
 483              	.LBB152:
 484              		.loc 3 367 0
 485 0050 0548     		ldr	r0, .L55+12
 486 0052 FFF7FEFF 		bl	chSysHalt
 487              	.LVL38:
 488 0056 F2E7     		b	.L50
 489              	.L54:
 490              	.LBE152:
 491              	.LBE153:
 492              		.loc 1 155 0
 493 0058 FFF7FEFF 		bl	__stack_chk_fail
 494              	.LVL39:
 495              	.L56:
 496              		.align	2
 497              	.L55:
 498 005c 00000000 		.word	__stack_chk_guard
 499 0060 00000000 		.word	.LANCHOR2
 500 0064 00000000 		.word	ch
 501 0068 00000000 		.word	.LANCHOR3
 502              		.cfi_endproc
 503              	.LFE261:
 504              		.size	test_emit_token, .-test_emit_token
 505              		.section	.text._test_fail,"ax",%progbits
 506              		.align	1
 507              		.p2align 4,,15
 508              		.global	_test_fail
 509              		.syntax unified
 510              		.thumb
 511              		.thumb_func
 512              		.fpu fpv4-sp-d16
 513              		.type	_test_fail, %function
ARM GAS  C:\Users\mathi\AppData\Local\Temp\ccRLxsF0.s 			page 10


 514              	_test_fail:
 515              	.LFB262:
 516              		.loc 1 160 0
 517              		.cfi_startproc
 518              		@ args = 0, pretend = 0, frame = 8
 519              		@ frame_needed = 0, uses_anonymous_args = 0
 520              	.LVL40:
 521 0000 30B5     		push	{r4, r5, lr}
 522              		.cfi_def_cfa_offset 12
 523              		.cfi_offset 4, -12
 524              		.cfi_offset 5, -8
 525              		.cfi_offset 14, -4
 526 0002 094B     		ldr	r3, .L61
 527              		.loc 1 164 0
 528 0004 094D     		ldr	r5, .L61+4
 529              		.loc 1 160 0
 530 0006 1A68     		ldr	r2, [r3]
 531              		.loc 1 162 0
 532 0008 094C     		ldr	r4, .L61+8
 533              		.loc 1 163 0
 534 000a 0A49     		ldr	r1, .L61+12
 535              		.loc 1 164 0
 536 000c 2860     		str	r0, [r5]
 537              		.loc 1 160 0
 538 000e 83B0     		sub	sp, sp, #12
 539              		.cfi_def_cfa_offset 24
 540              		.loc 1 162 0
 541 0010 0120     		movs	r0, #1
 542              	.LVL41:
 543              		.loc 1 160 0
 544 0012 0192     		str	r2, [sp, #4]
 545              		.loc 1 166 0
 546 0014 019A     		ldr	r2, [sp, #4]
 547 0016 1B68     		ldr	r3, [r3]
 548              		.loc 1 162 0
 549 0018 2070     		strb	r0, [r4]
 550              		.loc 1 166 0
 551 001a 9A42     		cmp	r2, r3
 552              		.loc 1 163 0
 553 001c 0870     		strb	r0, [r1]
 554              		.loc 1 166 0
 555 001e 01D1     		bne	.L60
 556 0020 03B0     		add	sp, sp, #12
 557              		.cfi_remember_state
 558              		.cfi_def_cfa_offset 12
 559              		@ sp needed
 560 0022 30BD     		pop	{r4, r5, pc}
 561              	.L60:
 562              		.cfi_restore_state
 563 0024 FFF7FEFF 		bl	__stack_chk_fail
 564              	.LVL42:
 565              	.L62:
 566              		.align	2
 567              	.L61:
 568 0028 00000000 		.word	__stack_chk_guard
 569 002c 00000000 		.word	.LANCHOR6
 570 0030 00000000 		.word	.LANCHOR4
ARM GAS  C:\Users\mathi\AppData\Local\Temp\ccRLxsF0.s 			page 11


 571 0034 00000000 		.word	.LANCHOR5
 572              		.cfi_endproc
 573              	.LFE262:
 574              		.size	_test_fail, .-_test_fail
 575              		.section	.text._test_assert,"ax",%progbits
 576              		.align	1
 577              		.p2align 4,,15
 578              		.global	_test_assert
 579              		.syntax unified
 580              		.thumb
 581              		.thumb_func
 582              		.fpu fpv4-sp-d16
 583              		.type	_test_assert, %function
 584              	_test_assert:
 585              	.LFB263:
 586              		.loc 1 168 0
 587              		.cfi_startproc
 588              		@ args = 0, pretend = 0, frame = 8
 589              		@ frame_needed = 0, uses_anonymous_args = 0
 590              	.LVL43:
 591 0000 30B5     		push	{r4, r5, lr}
 592              		.cfi_def_cfa_offset 12
 593              		.cfi_offset 4, -12
 594              		.cfi_offset 5, -8
 595              		.cfi_offset 14, -4
 596 0002 0B4A     		ldr	r2, .L69
 597 0004 83B0     		sub	sp, sp, #12
 598              		.cfi_def_cfa_offset 24
 599              		.loc 1 168 0
 600 0006 1368     		ldr	r3, [r2]
 601 0008 0193     		str	r3, [sp, #4]
 602              		.loc 1 170 0
 603 000a 69B9     		cbnz	r1, .L66
 604              	.LVL44:
 605              	.LBB154:
 606              	.LBB155:
 607              		.loc 1 162 0
 608 000c 094D     		ldr	r5, .L69+4
 609              		.loc 1 163 0
 610 000e 0A4C     		ldr	r4, .L69+8
 611              		.loc 1 164 0
 612 0010 0A49     		ldr	r1, .L69+12
 613              	.LVL45:
 614              		.loc 1 162 0
 615 0012 0123     		movs	r3, #1
 616 0014 2B70     		strb	r3, [r5]
 617              		.loc 1 163 0
 618 0016 2370     		strb	r3, [r4]
 619              		.loc 1 164 0
 620 0018 0860     		str	r0, [r1]
 621              	.LVL46:
 622              	.L64:
 623              	.LBE155:
 624              	.LBE154:
 625              		.loc 1 173 0
 626 001a 0199     		ldr	r1, [sp, #4]
 627 001c 1268     		ldr	r2, [r2]
ARM GAS  C:\Users\mathi\AppData\Local\Temp\ccRLxsF0.s 			page 12


 628 001e 9142     		cmp	r1, r2
 629 0020 1846     		mov	r0, r3
 630              	.LVL47:
 631 0022 03D1     		bne	.L68
 632 0024 03B0     		add	sp, sp, #12
 633              		.cfi_remember_state
 634              		.cfi_def_cfa_offset 12
 635              		@ sp needed
 636 0026 30BD     		pop	{r4, r5, pc}
 637              	.LVL48:
 638              	.L66:
 639              		.cfi_restore_state
 640              		.loc 1 172 0
 641 0028 0023     		movs	r3, #0
 642 002a F6E7     		b	.L64
 643              	.LVL49:
 644              	.L68:
 645              		.loc 1 173 0
 646 002c FFF7FEFF 		bl	__stack_chk_fail
 647              	.LVL50:
 648              	.L70:
 649              		.align	2
 650              	.L69:
 651 0030 00000000 		.word	__stack_chk_guard
 652 0034 00000000 		.word	.LANCHOR4
 653 0038 00000000 		.word	.LANCHOR5
 654 003c 00000000 		.word	.LANCHOR6
 655              		.cfi_endproc
 656              	.LFE263:
 657              		.size	_test_assert, .-_test_assert
 658              		.section	.text._test_assert_sequence,"ax",%progbits
 659              		.align	1
 660              		.p2align 4,,15
 661              		.global	_test_assert_sequence
 662              		.syntax unified
 663              		.thumb
 664              		.thumb_func
 665              		.fpu fpv4-sp-d16
 666              		.type	_test_assert_sequence, %function
 667              	_test_assert_sequence:
 668              	.LFB264:
 669              		.loc 1 175 0
 670              		.cfi_startproc
 671              		@ args = 0, pretend = 0, frame = 8
 672              		@ frame_needed = 0, uses_anonymous_args = 0
 673              	.LVL51:
 674 0000 F0B5     		push	{r4, r5, r6, r7, lr}
 675              		.cfi_def_cfa_offset 20
 676              		.cfi_offset 4, -20
 677              		.cfi_offset 5, -16
 678              		.cfi_offset 6, -12
 679              		.cfi_offset 7, -8
 680              		.cfi_offset 14, -4
 681 0002 134E     		ldr	r6, .L80
 682              		.loc 1 177 0
 683 0004 134F     		ldr	r7, .L80+4
 684              		.loc 1 176 0
ARM GAS  C:\Users\mathi\AppData\Local\Temp\ccRLxsF0.s 			page 13


 685 0006 DFF85CC0 		ldr	ip, .L80+20
 686              		.loc 1 175 0
 687 000a 3368     		ldr	r3, [r6]
 688              		.loc 1 177 0
 689 000c 3D68     		ldr	r5, [r7]
 690              		.loc 1 175 0
 691 000e 83B0     		sub	sp, sp, #12
 692              		.cfi_def_cfa_offset 32
 693 0010 0139     		subs	r1, r1, #1
 694              	.LVL52:
 695              		.loc 1 175 0
 696 0012 0193     		str	r3, [sp, #4]
 697              	.LVL53:
 698              		.loc 1 176 0
 699 0014 6346     		mov	r3, ip
 700              		.loc 1 177 0
 701 0016 03E0     		b	.L72
 702              	.LVL54:
 703              	.L74:
 704              		.loc 1 178 0
 705 0018 13F8014B 		ldrb	r4, [r3], #1	@ zero_extendqisi2
 706              	.LVL55:
 707 001c 9442     		cmp	r4, r2
 708 001e 07D1     		bne	.L75
 709              	.LVL56:
 710              	.L72:
 711              		.loc 1 177 0
 712 0020 9D42     		cmp	r5, r3
 713 0022 11F8012F 		ldrb	r2, [r1, #1]!	@ zero_extendqisi2
 714              	.LVL57:
 715 0026 F7D8     		bhi	.L74
 716              		.loc 1 181 0
 717 0028 12B9     		cbnz	r2, .L75
 718              	.LBB156:
 719              	.LBB157:
 720              		.loc 1 135 0
 721 002a C7F800C0 		str	ip, [r7]
 722              	.LBE157:
 723              	.LBE156:
 724              		.loc 1 184 0
 725 002e 06E0     		b	.L73
 726              	.LVL58:
 727              	.L75:
 728              	.LBB158:
 729              	.LBB159:
 730              		.loc 1 162 0
 731 0030 094C     		ldr	r4, .L80+8
 732              		.loc 1 163 0
 733 0032 0A49     		ldr	r1, .L80+12
 734              		.loc 1 164 0
 735 0034 0A4B     		ldr	r3, .L80+16
 736              		.loc 1 162 0
 737 0036 0122     		movs	r2, #1
 738 0038 2270     		strb	r2, [r4]
 739              		.loc 1 163 0
 740 003a 0A70     		strb	r2, [r1]
 741              		.loc 1 164 0
ARM GAS  C:\Users\mathi\AppData\Local\Temp\ccRLxsF0.s 			page 14


 742 003c 1860     		str	r0, [r3]
 743              	.LVL59:
 744              	.L73:
 745              	.LBE159:
 746              	.LBE158:
 747              		.loc 1 185 0
 748 003e 0199     		ldr	r1, [sp, #4]
 749 0040 3368     		ldr	r3, [r6]
 750 0042 9942     		cmp	r1, r3
 751 0044 1046     		mov	r0, r2
 752              	.LVL60:
 753 0046 01D1     		bne	.L79
 754 0048 03B0     		add	sp, sp, #12
 755              		.cfi_remember_state
 756              		.cfi_def_cfa_offset 20
 757              		@ sp needed
 758 004a F0BD     		pop	{r4, r5, r6, r7, pc}
 759              	.L79:
 760              		.cfi_restore_state
 761 004c FFF7FEFF 		bl	__stack_chk_fail
 762              	.LVL61:
 763              	.L81:
 764              		.align	2
 765              	.L80:
 766 0050 00000000 		.word	__stack_chk_guard
 767 0054 00000000 		.word	.LANCHOR2
 768 0058 00000000 		.word	.LANCHOR4
 769 005c 00000000 		.word	.LANCHOR5
 770 0060 00000000 		.word	.LANCHOR6
 771 0064 00000000 		.word	.LANCHOR7
 772              		.cfi_endproc
 773              	.LFE264:
 774              		.size	_test_assert_sequence, .-_test_assert_sequence
 775              		.section	.text._test_assert_time_window,"ax",%progbits
 776              		.align	1
 777              		.p2align 4,,15
 778              		.global	_test_assert_time_window
 779              		.syntax unified
 780              		.thumb
 781              		.thumb_func
 782              		.fpu fpv4-sp-d16
 783              		.type	_test_assert_time_window, %function
 784              	_test_assert_time_window:
 785              	.LFB265:
 786              		.loc 1 187 0
 787              		.cfi_startproc
 788              		@ args = 0, pretend = 0, frame = 8
 789              		@ frame_needed = 0, uses_anonymous_args = 0
 790              	.LVL62:
 791 0000 2DE9F043 		push	{r4, r5, r6, r7, r8, r9, lr}
 792              		.cfi_def_cfa_offset 28
 793              		.cfi_offset 4, -28
 794              		.cfi_offset 5, -24
 795              		.cfi_offset 6, -20
 796              		.cfi_offset 7, -16
 797              		.cfi_offset 8, -12
 798              		.cfi_offset 9, -8
ARM GAS  C:\Users\mathi\AppData\Local\Temp\ccRLxsF0.s 			page 15


 799              		.cfi_offset 14, -4
 800 0004 DFF88880 		ldr	r8, .L90+20
 801 0008 83B0     		sub	sp, sp, #12
 802              		.cfi_def_cfa_offset 40
 803              		.loc 1 187 0
 804 000a D8F80030 		ldr	r3, [r8]
 805 000e 0193     		str	r3, [sp, #4]
 806 0010 0746     		mov	r7, r0
 807 0012 8946     		mov	r9, r1
 808              	.LVL63:
 809 0014 1546     		mov	r5, r2
 810              	.LVL64:
 811              	.LBB182:
 812              	.LBB183:
 813              	.LBB184:
 814              	.LBB185:
 815              	.LBB186:
 816              	.LBB187:
 817              	.LBB188:
 818              	.LBB189:
 819              		.loc 2 546 0
 820 0016 2023     		movs	r3, #32
 821              		.syntax unified
 822              	@ 546 "../../lib/e-puck2_main-processor/ChibiOS//os/ext/CMSIS/include/core_cmFunc.h" 1
 823 0018 83F31188 		MSR basepri, r3
 824              	@ 0 "" 2
 825              	.LVL65:
 826              		.thumb
 827              		.syntax unified
 828              	.LBE189:
 829              	.LBE188:
 830              	.LBE187:
 831              	.LBE186:
 832              	.LBE185:
 833              	.LBB191:
 834              	.LBB192:
 835              		.file 4 "../../lib/e-puck2_main-processor/ChibiOS//os/rt/include/chvt.h"
 836              		.loc 4 231 0
 837 001c 174C     		ldr	r4, .L90
 838              	.LBE192:
 839              	.LBE191:
 840              	.LBB194:
 841              	.LBB190:
 842              		.loc 3 349 0
 843 001e FFF7FEFF 		bl	_stats_start_measure_crit_thd
 844              	.LVL66:
 845              		.loc 3 350 0
 846 0022 FFF7FEFF 		bl	_dbg_check_lock
 847              	.LVL67:
 848              	.LBE190:
 849              	.LBE194:
 850              	.LBB195:
 851              	.LBB193:
 852              		.loc 4 231 0
 853 0026 A66A     		ldr	r6, [r4, #40]
 854              	.LBE193:
 855              	.LBE195:
ARM GAS  C:\Users\mathi\AppData\Local\Temp\ccRLxsF0.s 			page 16


 856              	.LBB196:
 857              	.LBB197:
 858              		.loc 3 360 0
 859 0028 FFF7FEFF 		bl	_dbg_check_unlock
 860              	.LVL68:
 861              		.loc 3 361 0
 862 002c FFF7FEFF 		bl	_stats_stop_measure_crit_thd
 863              	.LVL69:
 864              		.loc 3 367 0
 865 0030 2368     		ldr	r3, [r4]
 866 0032 A342     		cmp	r3, r4
 867 0034 04D0     		beq	.L83
 868 0036 A269     		ldr	r2, [r4, #24]
 869 0038 9B68     		ldr	r3, [r3, #8]
 870 003a 9268     		ldr	r2, [r2, #8]
 871 003c 9A42     		cmp	r2, r3
 872 003e 17D3     		bcc	.L88
 873              	.L83:
 874              	.LVL70:
 875              	.LBB198:
 876              	.LBB199:
 877              	.LBB200:
 878              		.loc 2 546 0
 879 0040 0020     		movs	r0, #0
 880              		.syntax unified
 881              	@ 546 "../../lib/e-puck2_main-processor/ChibiOS//os/ext/CMSIS/include/core_cmFunc.h" 1
 882 0042 80F31188 		MSR basepri, r0
 883              	@ 0 "" 2
 884              	.LVL71:
 885              		.thumb
 886              		.syntax unified
 887              	.LBE200:
 888              	.LBE199:
 889              	.LBE198:
 890              	.LBE197:
 891              	.LBE196:
 892              	.LBE184:
 893              	.LBE183:
 894              	.LBB204:
 895              	.LBB205:
 896              		.loc 4 288 0
 897 0046 A6EB0906 		sub	r6, r6, r9
 898 004a A5EB0905 		sub	r5, r5, r9
 899              	.LVL72:
 900              	.LBE205:
 901              	.LBE204:
 902              	.LBE182:
 903              	.LBB207:
 904              	.LBB208:
 905              		.loc 1 170 0
 906 004e AE42     		cmp	r6, r5
 907 0050 06D3     		bcc	.L84
 908              	.LVL73:
 909              	.LBB209:
 910              	.LBB210:
 911              		.loc 1 162 0
 912 0052 0B49     		ldr	r1, .L90+4
ARM GAS  C:\Users\mathi\AppData\Local\Temp\ccRLxsF0.s 			page 17


 913              		.loc 1 163 0
 914 0054 0B4A     		ldr	r2, .L90+8
 915              		.loc 1 164 0
 916 0056 0C4B     		ldr	r3, .L90+12
 917              		.loc 1 162 0
 918 0058 0120     		movs	r0, #1
 919 005a 0870     		strb	r0, [r1]
 920              		.loc 1 163 0
 921 005c 1070     		strb	r0, [r2]
 922              		.loc 1 164 0
 923 005e 1F60     		str	r7, [r3]
 924              	.LVL74:
 925              	.L84:
 926              	.LBE210:
 927              	.LBE209:
 928              	.LBE208:
 929              	.LBE207:
 930              		.loc 1 190 0
 931 0060 019A     		ldr	r2, [sp, #4]
 932 0062 D8F80030 		ldr	r3, [r8]
 933 0066 9A42     		cmp	r2, r3
 934 0068 06D1     		bne	.L89
 935 006a 03B0     		add	sp, sp, #12
 936              		.cfi_remember_state
 937              		.cfi_def_cfa_offset 28
 938              		@ sp needed
 939 006c BDE8F083 		pop	{r4, r5, r6, r7, r8, r9, pc}
 940              	.LVL75:
 941              	.L88:
 942              		.cfi_restore_state
 943              	.LBB211:
 944              	.LBB206:
 945              	.LBB203:
 946              	.LBB202:
 947              	.LBB201:
 948              		.loc 3 367 0
 949 0070 0648     		ldr	r0, .L90+16
 950 0072 FFF7FEFF 		bl	chSysHalt
 951              	.LVL76:
 952 0076 E3E7     		b	.L83
 953              	.LVL77:
 954              	.L89:
 955              	.LBE201:
 956              	.LBE202:
 957              	.LBE203:
 958              	.LBE206:
 959              	.LBE211:
 960              		.loc 1 190 0
 961 0078 FFF7FEFF 		bl	__stack_chk_fail
 962              	.LVL78:
 963              	.L91:
 964              		.align	2
 965              	.L90:
 966 007c 00000000 		.word	ch
 967 0080 00000000 		.word	.LANCHOR4
 968 0084 00000000 		.word	.LANCHOR5
 969 0088 00000000 		.word	.LANCHOR6
ARM GAS  C:\Users\mathi\AppData\Local\Temp\ccRLxsF0.s 			page 18


 970 008c 00000000 		.word	.LANCHOR3
 971 0090 00000000 		.word	__stack_chk_guard
 972              		.cfi_endproc
 973              	.LFE265:
 974              		.size	_test_assert_time_window, .-_test_assert_time_window
 975              		.section	.text.test_terminate_threads,"ax",%progbits
 976              		.align	1
 977              		.p2align 4,,15
 978              		.global	test_terminate_threads
 979              		.syntax unified
 980              		.thumb
 981              		.thumb_func
 982              		.fpu fpv4-sp-d16
 983              		.type	test_terminate_threads, %function
 984              	test_terminate_threads:
 985              	.LFB266:
 986              		.loc 1 199 0
 987              		.cfi_startproc
 988              		@ args = 0, pretend = 0, frame = 8
 989              		@ frame_needed = 0, uses_anonymous_args = 0
 990 0000 70B5     		push	{r4, r5, r6, lr}
 991              		.cfi_def_cfa_offset 16
 992              		.cfi_offset 4, -16
 993              		.cfi_offset 5, -12
 994              		.cfi_offset 6, -8
 995              		.cfi_offset 14, -4
 996 0002 0B4E     		ldr	r6, .L102
 997 0004 0B4C     		ldr	r4, .L102+4
 998 0006 3368     		ldr	r3, [r6]
 999 0008 82B0     		sub	sp, sp, #8
 1000              		.cfi_def_cfa_offset 24
 1001 000a 04F11405 		add	r5, r4, #20
 1002              		.loc 1 199 0
 1003 000e 0193     		str	r3, [sp, #4]
 1004              	.LVL79:
 1005              	.L94:
 1006              		.loc 1 203 0
 1007 0010 54F8040B 		ldr	r0, [r4], #4
 1008 0014 08B1     		cbz	r0, .L93
 1009              		.loc 1 204 0
 1010 0016 FFF7FEFF 		bl	chThdTerminate
 1011              	.LVL80:
 1012              	.L93:
 1013              		.loc 1 202 0 discriminator 2
 1014 001a AC42     		cmp	r4, r5
 1015 001c F8D1     		bne	.L94
 1016              		.loc 1 205 0
 1017 001e 019A     		ldr	r2, [sp, #4]
 1018 0020 3368     		ldr	r3, [r6]
 1019 0022 9A42     		cmp	r2, r3
 1020 0024 01D1     		bne	.L101
 1021 0026 02B0     		add	sp, sp, #8
 1022              		.cfi_remember_state
 1023              		.cfi_def_cfa_offset 16
 1024              		@ sp needed
 1025 0028 70BD     		pop	{r4, r5, r6, pc}
 1026              	.L101:
ARM GAS  C:\Users\mathi\AppData\Local\Temp\ccRLxsF0.s 			page 19


 1027              		.cfi_restore_state
 1028 002a FFF7FEFF 		bl	__stack_chk_fail
 1029              	.LVL81:
 1030              	.L103:
 1031 002e 00BF     		.align	2
 1032              	.L102:
 1033 0030 00000000 		.word	__stack_chk_guard
 1034 0034 00000000 		.word	.LANCHOR8
 1035              		.cfi_endproc
 1036              	.LFE266:
 1037              		.size	test_terminate_threads, .-test_terminate_threads
 1038              		.section	.text.test_wait_threads,"ax",%progbits
 1039              		.align	1
 1040              		.p2align 4,,15
 1041              		.global	test_wait_threads
 1042              		.syntax unified
 1043              		.thumb
 1044              		.thumb_func
 1045              		.fpu fpv4-sp-d16
 1046              		.type	test_wait_threads, %function
 1047              	test_wait_threads:
 1048              	.LFB267:
 1049              		.loc 1 210 0
 1050              		.cfi_startproc
 1051              		@ args = 0, pretend = 0, frame = 8
 1052              		@ frame_needed = 0, uses_anonymous_args = 0
 1053 0000 F0B5     		push	{r4, r5, r6, r7, lr}
 1054              		.cfi_def_cfa_offset 20
 1055              		.cfi_offset 4, -20
 1056              		.cfi_offset 5, -16
 1057              		.cfi_offset 6, -12
 1058              		.cfi_offset 7, -8
 1059              		.cfi_offset 14, -4
 1060 0002 0C4F     		ldr	r7, .L114
 1061 0004 0C4C     		ldr	r4, .L114+4
 1062 0006 3B68     		ldr	r3, [r7]
 1063 0008 83B0     		sub	sp, sp, #12
 1064              		.cfi_def_cfa_offset 32
 1065 000a 04F11405 		add	r5, r4, #20
 1066              		.loc 1 210 0
 1067 000e 0193     		str	r3, [sp, #4]
 1068              	.LVL82:
 1069              		.loc 1 216 0
 1070 0010 0026     		movs	r6, #0
 1071              	.LVL83:
 1072              	.L106:
 1073              		.loc 1 214 0
 1074 0012 54F8040B 		ldr	r0, [r4], #4
 1075 0016 18B1     		cbz	r0, .L105
 1076              		.loc 1 215 0
 1077 0018 FFF7FEFF 		bl	chThdWait
 1078              	.LVL84:
 1079              		.loc 1 216 0
 1080 001c 44F8046C 		str	r6, [r4, #-4]
 1081              	.L105:
 1082              		.loc 1 213 0 discriminator 2
 1083 0020 AC42     		cmp	r4, r5
ARM GAS  C:\Users\mathi\AppData\Local\Temp\ccRLxsF0.s 			page 20


 1084 0022 F6D1     		bne	.L106
 1085              		.loc 1 218 0
 1086 0024 019A     		ldr	r2, [sp, #4]
 1087 0026 3B68     		ldr	r3, [r7]
 1088 0028 9A42     		cmp	r2, r3
 1089 002a 01D1     		bne	.L113
 1090 002c 03B0     		add	sp, sp, #12
 1091              		.cfi_remember_state
 1092              		.cfi_def_cfa_offset 20
 1093              		@ sp needed
 1094 002e F0BD     		pop	{r4, r5, r6, r7, pc}
 1095              	.L113:
 1096              		.cfi_restore_state
 1097 0030 FFF7FEFF 		bl	__stack_chk_fail
 1098              	.LVL85:
 1099              	.L115:
 1100              		.align	2
 1101              	.L114:
 1102 0034 00000000 		.word	__stack_chk_guard
 1103 0038 00000000 		.word	.LANCHOR8
 1104              		.cfi_endproc
 1105              	.LFE267:
 1106              		.size	test_wait_threads, .-test_wait_threads
 1107              		.section	.text.test_cpu_pulse,"ax",%progbits
 1108              		.align	1
 1109              		.p2align 4,,15
 1110              		.global	test_cpu_pulse
 1111              		.syntax unified
 1112              		.thumb
 1113              		.thumb_func
 1114              		.fpu fpv4-sp-d16
 1115              		.type	test_cpu_pulse, %function
 1116              	test_cpu_pulse:
 1117              	.LFB268:
 1118              		.loc 1 227 0
 1119              		.cfi_startproc
 1120              		@ args = 0, pretend = 0, frame = 8
 1121              		@ frame_needed = 0, uses_anonymous_args = 0
 1122              	.LVL86:
 1123 0000 10B5     		push	{r4, lr}
 1124              		.cfi_def_cfa_offset 8
 1125              		.cfi_offset 4, -8
 1126              		.cfi_offset 14, -4
 1127 0002 134C     		ldr	r4, .L128
 1128              	.LBB212:
 1129              	.LBB213:
 1130              		.file 5 "../../lib/e-puck2_main-processor/ChibiOS//os/rt/include/chthreads.h"
 1131              		.loc 5 176 0
 1132 0004 134A     		ldr	r2, .L128+4
 1133              	.LBE213:
 1134              	.LBE212:
 1135              		.loc 1 227 0
 1136 0006 2368     		ldr	r3, [r4]
 1137              	.LBB215:
 1138              	.LBB214:
 1139              		.loc 5 176 0
 1140 0008 9169     		ldr	r1, [r2, #24]
ARM GAS  C:\Users\mathi\AppData\Local\Temp\ccRLxsF0.s 			page 21


 1141              	.LBE214:
 1142              	.LBE215:
 1143              		.loc 1 227 0
 1144 000a 82B0     		sub	sp, sp, #8
 1145              		.cfi_def_cfa_offset 16
 1146              		.loc 1 227 0
 1147 000c 0193     		str	r3, [sp, #4]
 1148              		.loc 1 231 0
 1149 000e 4FF47A73 		mov	r3, #1000
 1150 0012 03FB00F3 		mul	r3, r3, r0
 1151 0016 1048     		ldr	r0, .L128+8
 1152              	.LVL87:
 1153              	.LBB216:
 1154              	.LBB217:
 1155              		.loc 5 205 0
 1156 0018 4A6A     		ldr	r2, [r1, #36]
 1157              	.LBE217:
 1158              	.LBE216:
 1159              		.loc 1 231 0
 1160 001a 03F2E733 		addw	r3, r3, #999
 1161 001e A0FB0303 		umull	r0, r3, r0, r3
 1162 0022 02EB9313 		add	r3, r2, r3, lsr #6
 1163              	.LVL88:
 1164 0026 9342     		cmp	r3, r2
 1165 0028 0AD8     		bhi	.L117
 1166              	.L118:
 1167              	.LBB218:
 1168              	.LBB219:
 1169              		.loc 5 205 0
 1170 002a 486A     		ldr	r0, [r1, #36]
 1171              	.LBE219:
 1172              	.LBE218:
 1173              		.loc 1 239 0
 1174 002c 9042     		cmp	r0, r2
 1175 002e FCD2     		bcs	.L118
 1176 0030 9842     		cmp	r0, r3
 1177 0032 FAD3     		bcc	.L118
 1178              	.L116:
 1179              		.loc 1 240 0
 1180 0034 019A     		ldr	r2, [sp, #4]
 1181 0036 2368     		ldr	r3, [r4]
 1182              	.LVL89:
 1183 0038 9A42     		cmp	r2, r3
 1184 003a 07D1     		bne	.L127
 1185 003c 02B0     		add	sp, sp, #8
 1186              		.cfi_remember_state
 1187              		.cfi_def_cfa_offset 8
 1188              		@ sp needed
 1189 003e 10BD     		pop	{r4, pc}
 1190              	.LVL90:
 1191              	.L117:
 1192              		.cfi_restore_state
 1193              	.LBB221:
 1194              	.LBB220:
 1195              		.loc 5 205 0
 1196 0040 486A     		ldr	r0, [r1, #36]
 1197              	.LBE220:
ARM GAS  C:\Users\mathi\AppData\Local\Temp\ccRLxsF0.s 			page 22


 1198              	.LBE221:
 1199              		.loc 1 238 0
 1200 0042 8242     		cmp	r2, r0
 1201 0044 F6D8     		bhi	.L116
 1202 0046 8342     		cmp	r3, r0
 1203 0048 FAD8     		bhi	.L117
 1204 004a F3E7     		b	.L116
 1205              	.LVL91:
 1206              	.L127:
 1207              		.loc 1 240 0
 1208 004c FFF7FEFF 		bl	__stack_chk_fail
 1209              	.LVL92:
 1210              	.L129:
 1211              		.align	2
 1212              	.L128:
 1213 0050 00000000 		.word	__stack_chk_guard
 1214 0054 00000000 		.word	ch
 1215 0058 D34D6210 		.word	274877907
 1216              		.cfi_endproc
 1217              	.LFE268:
 1218              		.size	test_cpu_pulse, .-test_cpu_pulse
 1219              		.section	.text.test_wait_tick,"ax",%progbits
 1220              		.align	1
 1221              		.p2align 4,,15
 1222              		.global	test_wait_tick
 1223              		.syntax unified
 1224              		.thumb
 1225              		.thumb_func
 1226              		.fpu fpv4-sp-d16
 1227              		.type	test_wait_tick, %function
 1228              	test_wait_tick:
 1229              	.LFB269:
 1230              		.loc 1 248 0
 1231              		.cfi_startproc
 1232              		@ args = 0, pretend = 0, frame = 8
 1233              		@ frame_needed = 0, uses_anonymous_args = 0
 1234 0000 70B5     		push	{r4, r5, r6, lr}
 1235              		.cfi_def_cfa_offset 16
 1236              		.cfi_offset 4, -16
 1237              		.cfi_offset 5, -12
 1238              		.cfi_offset 6, -8
 1239              		.cfi_offset 14, -4
 1240 0002 164D     		ldr	r5, .L136
 1241 0004 82B0     		sub	sp, sp, #8
 1242              		.cfi_def_cfa_offset 24
 1243              		.loc 1 248 0
 1244 0006 2B68     		ldr	r3, [r5]
 1245 0008 0193     		str	r3, [sp, #4]
 1246              		.loc 1 250 0
 1247 000a 0120     		movs	r0, #1
 1248 000c FFF7FEFF 		bl	chThdSleep
 1249              	.LVL93:
 1250              	.LBB236:
 1251              	.LBB237:
 1252              	.LBB238:
 1253              	.LBB239:
 1254              	.LBB240:
ARM GAS  C:\Users\mathi\AppData\Local\Temp\ccRLxsF0.s 			page 23


 1255              	.LBB241:
 1256              	.LBB242:
 1257              		.loc 2 546 0
 1258 0010 2023     		movs	r3, #32
 1259              		.syntax unified
 1260              	@ 546 "../../lib/e-puck2_main-processor/ChibiOS//os/ext/CMSIS/include/core_cmFunc.h" 1
 1261 0012 83F31188 		MSR basepri, r3
 1262              	@ 0 "" 2
 1263              	.LVL94:
 1264              		.thumb
 1265              		.syntax unified
 1266              	.LBE242:
 1267              	.LBE241:
 1268              	.LBE240:
 1269              	.LBE239:
 1270              	.LBE238:
 1271              	.LBB244:
 1272              	.LBB245:
 1273              		.loc 4 231 0
 1274 0016 124C     		ldr	r4, .L136+4
 1275              	.LBE245:
 1276              	.LBE244:
 1277              	.LBB247:
 1278              	.LBB243:
 1279              		.loc 3 349 0
 1280 0018 FFF7FEFF 		bl	_stats_start_measure_crit_thd
 1281              	.LVL95:
 1282              		.loc 3 350 0
 1283 001c FFF7FEFF 		bl	_dbg_check_lock
 1284              	.LVL96:
 1285              	.LBE243:
 1286              	.LBE247:
 1287              	.LBB248:
 1288              	.LBB246:
 1289              		.loc 4 231 0
 1290 0020 A66A     		ldr	r6, [r4, #40]
 1291              	.LBE246:
 1292              	.LBE248:
 1293              	.LBB249:
 1294              	.LBB250:
 1295              		.loc 3 360 0
 1296 0022 FFF7FEFF 		bl	_dbg_check_unlock
 1297              	.LVL97:
 1298              		.loc 3 361 0
 1299 0026 FFF7FEFF 		bl	_stats_stop_measure_crit_thd
 1300              	.LVL98:
 1301              		.loc 3 367 0
 1302 002a 2368     		ldr	r3, [r4]
 1303 002c A342     		cmp	r3, r4
 1304 002e 04D0     		beq	.L131
 1305 0030 A269     		ldr	r2, [r4, #24]
 1306 0032 9B68     		ldr	r3, [r3, #8]
 1307 0034 9268     		ldr	r2, [r2, #8]
 1308 0036 9A42     		cmp	r2, r3
 1309 0038 09D3     		bcc	.L134
 1310              	.L131:
 1311              	.LVL99:
ARM GAS  C:\Users\mathi\AppData\Local\Temp\ccRLxsF0.s 			page 24


 1312              	.LBB251:
 1313              	.LBB252:
 1314              	.LBB253:
 1315              		.loc 2 546 0
 1316 003a 0023     		movs	r3, #0
 1317              		.syntax unified
 1318              	@ 546 "../../lib/e-puck2_main-processor/ChibiOS//os/ext/CMSIS/include/core_cmFunc.h" 1
 1319 003c 83F31188 		MSR basepri, r3
 1320              	@ 0 "" 2
 1321              	.LVL100:
 1322              		.thumb
 1323              		.syntax unified
 1324              	.LBE253:
 1325              	.LBE252:
 1326              	.LBE251:
 1327              	.LBE250:
 1328              	.LBE249:
 1329              	.LBE237:
 1330              	.LBE236:
 1331              		.loc 1 252 0
 1332 0040 019A     		ldr	r2, [sp, #4]
 1333 0042 2B68     		ldr	r3, [r5]
 1334 0044 9A42     		cmp	r2, r3
 1335 0046 3046     		mov	r0, r6
 1336 0048 05D1     		bne	.L135
 1337 004a 02B0     		add	sp, sp, #8
 1338              		.cfi_remember_state
 1339              		.cfi_def_cfa_offset 16
 1340              		@ sp needed
 1341 004c 70BD     		pop	{r4, r5, r6, pc}
 1342              	.L134:
 1343              		.cfi_restore_state
 1344              	.LBB257:
 1345              	.LBB256:
 1346              	.LBB255:
 1347              	.LBB254:
 1348              		.loc 3 367 0
 1349 004e 0548     		ldr	r0, .L136+8
 1350 0050 FFF7FEFF 		bl	chSysHalt
 1351              	.LVL101:
 1352 0054 F1E7     		b	.L131
 1353              	.L135:
 1354              	.LBE254:
 1355              	.LBE255:
 1356              	.LBE256:
 1357              	.LBE257:
 1358              		.loc 1 252 0
 1359 0056 FFF7FEFF 		bl	__stack_chk_fail
 1360              	.LVL102:
 1361              	.L137:
 1362 005a 00BF     		.align	2
 1363              	.L136:
 1364 005c 00000000 		.word	__stack_chk_guard
 1365 0060 00000000 		.word	ch
 1366 0064 00000000 		.word	.LANCHOR3
 1367              		.cfi_endproc
 1368              	.LFE269:
ARM GAS  C:\Users\mathi\AppData\Local\Temp\ccRLxsF0.s 			page 25


 1369              		.size	test_wait_tick, .-test_wait_tick
 1370              		.section	.text.test_start_timer,"ax",%progbits
 1371              		.align	1
 1372              		.p2align 4,,15
 1373              		.global	test_start_timer
 1374              		.syntax unified
 1375              		.thumb
 1376              		.thumb_func
 1377              		.fpu fpv4-sp-d16
 1378              		.type	test_start_timer, %function
 1379              	test_start_timer:
 1380              	.LFB271:
 1381              		.loc 1 275 0
 1382              		.cfi_startproc
 1383              		@ args = 0, pretend = 0, frame = 8
 1384              		@ frame_needed = 0, uses_anonymous_args = 0
 1385              	.LVL103:
 1386 0000 30B5     		push	{r4, r5, lr}
 1387              		.cfi_def_cfa_offset 12
 1388              		.cfi_offset 4, -12
 1389              		.cfi_offset 5, -8
 1390              		.cfi_offset 14, -4
 1391 0002 204D     		ldr	r5, .L148
 1392              		.loc 1 278 0
 1393 0004 204B     		ldr	r3, .L148+4
 1394              		.loc 1 275 0
 1395 0006 2A68     		ldr	r2, [r5]
 1396              		.loc 1 277 0
 1397 0008 4FF47A74 		mov	r4, #1000
 1398              		.loc 1 275 0
 1399 000c 83B0     		sub	sp, sp, #12
 1400              		.cfi_def_cfa_offset 24
 1401              		.loc 1 277 0
 1402 000e 04FB00F4 		mul	r4, r4, r0
 1403 0012 1E48     		ldr	r0, .L148+8
 1404              	.LVL104:
 1405              		.loc 1 275 0
 1406 0014 0192     		str	r2, [sp, #4]
 1407              		.loc 1 277 0
 1408 0016 04F2E734 		addw	r4, r4, #999
 1409 001a A0FB0424 		umull	r2, r4, r0, r4
 1410              		.loc 1 278 0
 1411 001e 0022     		movs	r2, #0
 1412 0020 1A70     		strb	r2, [r3]
 1413              		.loc 1 277 0
 1414 0022 A409     		lsrs	r4, r4, #6
 1415              	.LVL105:
 1416              	.LBB276:
 1417              	.LBB277:
 1418              	.LBB278:
 1419              	.LBB279:
 1420              	.LBB280:
 1421              	.LBB281:
 1422              		.loc 2 546 0
 1423 0024 2023     		movs	r3, #32
 1424              		.syntax unified
 1425              	@ 546 "../../lib/e-puck2_main-processor/ChibiOS//os/ext/CMSIS/include/core_cmFunc.h" 1
ARM GAS  C:\Users\mathi\AppData\Local\Temp\ccRLxsF0.s 			page 26


 1426 0026 83F31188 		MSR basepri, r3
 1427              	@ 0 "" 2
 1428              	.LVL106:
 1429              		.thumb
 1430              		.syntax unified
 1431              	.LBE281:
 1432              	.LBE280:
 1433              	.LBE279:
 1434              		.loc 3 349 0
 1435 002a FFF7FEFF 		bl	_stats_start_measure_crit_thd
 1436              	.LVL107:
 1437              		.loc 3 350 0
 1438 002e FFF7FEFF 		bl	_dbg_check_lock
 1439              	.LVL108:
 1440              	.LBE278:
 1441              	.LBE277:
 1442              	.LBB282:
 1443              	.LBB283:
 1444              	.LBB284:
 1445              	.LBB285:
 1446              	.LBB286:
 1447              	.LBB287:
 1448              		.loc 4 339 0
 1449 0032 FFF7FEFF 		bl	chDbgCheckClassI
 1450              	.LVL109:
 1451              		.loc 4 341 0
 1452 0036 1648     		ldr	r0, .L148+12
 1453              	.LBE287:
 1454              	.LBE286:
 1455              		.loc 4 376 0
 1456 0038 C368     		ldr	r3, [r0, #12]
 1457 003a 0BB1     		cbz	r3, .L139
 1458              		.loc 4 377 0
 1459 003c FFF7FEFF 		bl	chVTDoResetI
 1460              	.LVL110:
 1461              	.L139:
 1462              	.LBE285:
 1463              	.LBE284:
 1464              		.loc 4 424 0
 1465 0040 0023     		movs	r3, #0
 1466 0042 144A     		ldr	r2, .L148+16
 1467 0044 1248     		ldr	r0, .L148+12
 1468 0046 2146     		mov	r1, r4
 1469 0048 FFF7FEFF 		bl	chVTDoSetI
 1470              	.LVL111:
 1471              	.LBE283:
 1472              	.LBE282:
 1473              	.LBB288:
 1474              	.LBB289:
 1475              		.loc 3 360 0
 1476 004c FFF7FEFF 		bl	_dbg_check_unlock
 1477              	.LVL112:
 1478              		.loc 3 361 0
 1479 0050 FFF7FEFF 		bl	_stats_stop_measure_crit_thd
 1480              	.LVL113:
 1481              		.loc 3 367 0
 1482 0054 104B     		ldr	r3, .L148+20
ARM GAS  C:\Users\mathi\AppData\Local\Temp\ccRLxsF0.s 			page 27


 1483 0056 1A68     		ldr	r2, [r3]
 1484 0058 9A42     		cmp	r2, r3
 1485 005a 04D0     		beq	.L140
 1486 005c 9969     		ldr	r1, [r3, #24]
 1487 005e 9368     		ldr	r3, [r2, #8]
 1488 0060 8A68     		ldr	r2, [r1, #8]
 1489 0062 9A42     		cmp	r2, r3
 1490 0064 08D3     		bcc	.L146
 1491              	.L140:
 1492              	.LVL114:
 1493              	.LBB290:
 1494              	.LBB291:
 1495              	.LBB292:
 1496              		.loc 2 546 0
 1497 0066 0023     		movs	r3, #0
 1498              		.syntax unified
 1499              	@ 546 "../../lib/e-puck2_main-processor/ChibiOS//os/ext/CMSIS/include/core_cmFunc.h" 1
 1500 0068 83F31188 		MSR basepri, r3
 1501              	@ 0 "" 2
 1502              	.LVL115:
 1503              		.thumb
 1504              		.syntax unified
 1505              	.LBE292:
 1506              	.LBE291:
 1507              	.LBE290:
 1508              	.LBE289:
 1509              	.LBE288:
 1510              	.LBE276:
 1511              		.loc 1 280 0
 1512 006c 019A     		ldr	r2, [sp, #4]
 1513 006e 2B68     		ldr	r3, [r5]
 1514 0070 9A42     		cmp	r2, r3
 1515 0072 05D1     		bne	.L147
 1516 0074 03B0     		add	sp, sp, #12
 1517              		.cfi_remember_state
 1518              		.cfi_def_cfa_offset 12
 1519              		@ sp needed
 1520 0076 30BD     		pop	{r4, r5, pc}
 1521              	.LVL116:
 1522              	.L146:
 1523              		.cfi_restore_state
 1524              	.LBB295:
 1525              	.LBB294:
 1526              	.LBB293:
 1527              		.loc 3 367 0
 1528 0078 0848     		ldr	r0, .L148+24
 1529 007a FFF7FEFF 		bl	chSysHalt
 1530              	.LVL117:
 1531 007e F2E7     		b	.L140
 1532              	.LVL118:
 1533              	.L147:
 1534              	.LBE293:
 1535              	.LBE294:
 1536              	.LBE295:
 1537              		.loc 1 280 0
 1538 0080 FFF7FEFF 		bl	__stack_chk_fail
 1539              	.LVL119:
ARM GAS  C:\Users\mathi\AppData\Local\Temp\ccRLxsF0.s 			page 28


 1540              	.L149:
 1541              		.align	2
 1542              	.L148:
 1543 0084 00000000 		.word	__stack_chk_guard
 1544 0088 00000000 		.word	.LANCHOR0
 1545 008c D34D6210 		.word	274877907
 1546 0090 00000000 		.word	.LANCHOR9
 1547 0094 00000000 		.word	tmr
 1548 0098 00000000 		.word	ch
 1549 009c 00000000 		.word	.LANCHOR3
 1550              		.cfi_endproc
 1551              	.LFE271:
 1552              		.size	test_start_timer, .-test_start_timer
 1553              		.section	.text.TestThread,"ax",%progbits
 1554              		.align	1
 1555              		.p2align 4,,15
 1556              		.global	TestThread
 1557              		.syntax unified
 1558              		.thumb
 1559              		.thumb_func
 1560              		.fpu fpv4-sp-d16
 1561              		.type	TestThread, %function
 1562              	TestThread:
 1563              	.LFB274:
 1564              		.loc 1 316 0
 1565              		.cfi_startproc
 1566              		@ args = 0, pretend = 0, frame = 40
 1567              		@ frame_needed = 0, uses_anonymous_args = 0
 1568              	.LVL120:
 1569 0000 2DE9F04F 		push	{r4, r5, r6, r7, r8, r9, r10, fp, lr}
 1570              		.cfi_def_cfa_offset 36
 1571              		.cfi_offset 4, -36
 1572              		.cfi_offset 5, -32
 1573              		.cfi_offset 6, -28
 1574              		.cfi_offset 7, -24
 1575              		.cfi_offset 8, -20
 1576              		.cfi_offset 9, -16
 1577              		.cfi_offset 10, -12
 1578              		.cfi_offset 11, -8
 1579              		.cfi_offset 14, -4
 1580              	.LBB422:
 1581              	.LBB423:
 1582              		.loc 1 127 0
 1583 0004 0268     		ldr	r2, [r0]
 1584              	.LBE423:
 1585              	.LBE422:
 1586              		.loc 1 319 0
 1587 0006 954C     		ldr	r4, .L266
 1588              	.LBB428:
 1589              	.LBB424:
 1590              		.loc 1 127 0
 1591 0008 1668     		ldr	r6, [r2]
 1592              	.LBE424:
 1593              	.LBE428:
 1594              		.loc 1 316 0
 1595 000a 954A     		ldr	r2, .L266+4
 1596              	.LBB429:
ARM GAS  C:\Users\mathi\AppData\Local\Temp\ccRLxsF0.s 			page 29


 1597              	.LBB425:
 1598              		.loc 1 127 0
 1599 000c 9549     		ldr	r1, .L266+8
 1600              	.LBE425:
 1601              	.LBE429:
 1602              		.loc 1 316 0
 1603 000e 1568     		ldr	r5, [r2]
 1604              		.loc 1 319 0
 1605 0010 2060     		str	r0, [r4]
 1606              	.LVL121:
 1607              		.loc 1 316 0
 1608 0012 8BB0     		sub	sp, sp, #44
 1609              		.cfi_def_cfa_offset 80
 1610              	.LBB430:
 1611              	.LBB426:
 1612              		.loc 1 127 0
 1613 0014 0222     		movs	r2, #2
 1614              	.LBE426:
 1615              	.LBE430:
 1616              		.loc 1 316 0
 1617 0016 0995     		str	r5, [sp, #36]
 1618              	.LBB431:
 1619              	.LBB427:
 1620              		.loc 1 127 0
 1621 0018 934D     		ldr	r5, .L266+12
 1622 001a B047     		blx	r6
 1623              	.LVL122:
 1624              	.LBE427:
 1625              	.LBE431:
 1626              	.LBB432:
 1627              	.LBB433:
 1628              	.LBB434:
 1629              	.LBB435:
 1630              		.loc 1 115 0
 1631 001c 2A21     		movs	r1, #42
 1632              	.LVL123:
 1633              	.L151:
 1634              		.loc 1 116 0
 1635 001e 2068     		ldr	r0, [r4]
 1636 0020 0368     		ldr	r3, [r0]
 1637 0022 9B68     		ldr	r3, [r3, #8]
 1638 0024 9847     		blx	r3
 1639              	.LVL124:
 1640              		.loc 1 115 0
 1641 0026 15F8011F 		ldrb	r1, [r5, #1]!	@ zero_extendqisi2
 1642              	.LVL125:
 1643 002a 0029     		cmp	r1, #0
 1644 002c F7D1     		bne	.L151
 1645              	.LVL126:
 1646              	.LBE435:
 1647              	.LBE434:
 1648              		.loc 1 127 0
 1649 002e 2068     		ldr	r0, [r4]
 1650 0030 8C49     		ldr	r1, .L266+8
 1651 0032 0368     		ldr	r3, [r0]
 1652 0034 8D4D     		ldr	r5, .L266+16
 1653 0036 1B68     		ldr	r3, [r3]
ARM GAS  C:\Users\mathi\AppData\Local\Temp\ccRLxsF0.s 			page 30


 1654 0038 0222     		movs	r2, #2
 1655 003a 9847     		blx	r3
 1656              	.LVL127:
 1657              	.LBE433:
 1658              	.LBE432:
 1659              	.LBB436:
 1660              	.LBB437:
 1661              	.LBB438:
 1662              	.LBB439:
 1663              		.loc 1 115 0
 1664 003c 2A21     		movs	r1, #42
 1665              	.LVL128:
 1666              	.L152:
 1667              		.loc 1 116 0
 1668 003e 2068     		ldr	r0, [r4]
 1669 0040 0368     		ldr	r3, [r0]
 1670 0042 9B68     		ldr	r3, [r3, #8]
 1671 0044 9847     		blx	r3
 1672              	.LVL129:
 1673              		.loc 1 115 0
 1674 0046 15F8011F 		ldrb	r1, [r5, #1]!	@ zero_extendqisi2
 1675              	.LVL130:
 1676 004a 0029     		cmp	r1, #0
 1677 004c F7D1     		bne	.L152
 1678              	.LVL131:
 1679              	.LBE439:
 1680              	.LBE438:
 1681              		.loc 1 127 0
 1682 004e 2068     		ldr	r0, [r4]
 1683 0050 8449     		ldr	r1, .L266+8
 1684 0052 0368     		ldr	r3, [r0]
 1685 0054 864D     		ldr	r5, .L266+20
 1686 0056 1B68     		ldr	r3, [r3]
 1687 0058 0222     		movs	r2, #2
 1688 005a 9847     		blx	r3
 1689              	.LVL132:
 1690              	.LBE437:
 1691              	.LBE436:
 1692              	.LBB440:
 1693              	.LBB441:
 1694              		.loc 1 115 0
 1695 005c 2A21     		movs	r1, #42
 1696              	.LVL133:
 1697              	.L153:
 1698              		.loc 1 116 0
 1699 005e 2068     		ldr	r0, [r4]
 1700 0060 0368     		ldr	r3, [r0]
 1701 0062 9B68     		ldr	r3, [r3, #8]
 1702 0064 9847     		blx	r3
 1703              	.LVL134:
 1704              		.loc 1 115 0
 1705 0066 15F8011F 		ldrb	r1, [r5, #1]!	@ zero_extendqisi2
 1706              	.LVL135:
 1707 006a 0029     		cmp	r1, #0
 1708 006c F7D1     		bne	.L153
 1709 006e 814D     		ldr	r5, .L266+24
 1710              	.LVL136:
ARM GAS  C:\Users\mathi\AppData\Local\Temp\ccRLxsF0.s 			page 31


 1711              	.LBE441:
 1712              	.LBE440:
 1713              	.LBB442:
 1714              	.LBB443:
 1715              	.LBB444:
 1716              	.LBB445:
 1717 0070 3321     		movs	r1, #51
 1718              	.L154:
 1719              	.LVL137:
 1720              		.loc 1 116 0
 1721 0072 2068     		ldr	r0, [r4]
 1722 0074 0368     		ldr	r3, [r0]
 1723 0076 9B68     		ldr	r3, [r3, #8]
 1724 0078 9847     		blx	r3
 1725              	.LVL138:
 1726              		.loc 1 115 0
 1727 007a 15F8011F 		ldrb	r1, [r5, #1]!	@ zero_extendqisi2
 1728              	.LVL139:
 1729 007e 0029     		cmp	r1, #0
 1730 0080 F7D1     		bne	.L154
 1731              	.LVL140:
 1732              	.LBE445:
 1733              	.LBE444:
 1734              		.loc 1 127 0
 1735 0082 2068     		ldr	r0, [r4]
 1736 0084 7749     		ldr	r1, .L266+8
 1737 0086 0368     		ldr	r3, [r0]
 1738 0088 7B4D     		ldr	r5, .L266+28
 1739 008a 1B68     		ldr	r3, [r3]
 1740 008c 0222     		movs	r2, #2
 1741 008e 9847     		blx	r3
 1742              	.LVL141:
 1743              	.LBE443:
 1744              	.LBE442:
 1745              	.LBB446:
 1746              	.LBB447:
 1747              		.loc 1 115 0
 1748 0090 2A21     		movs	r1, #42
 1749              	.LVL142:
 1750              	.L155:
 1751              		.loc 1 116 0
 1752 0092 2068     		ldr	r0, [r4]
 1753 0094 0368     		ldr	r3, [r0]
 1754 0096 9B68     		ldr	r3, [r3, #8]
 1755 0098 9847     		blx	r3
 1756              	.LVL143:
 1757              		.loc 1 115 0
 1758 009a 15F8011F 		ldrb	r1, [r5, #1]!	@ zero_extendqisi2
 1759              	.LVL144:
 1760 009e 0029     		cmp	r1, #0
 1761 00a0 F7D1     		bne	.L155
 1762 00a2 764D     		ldr	r5, .L266+32
 1763              	.LVL145:
 1764              	.LBE447:
 1765              	.LBE446:
 1766              	.LBB448:
 1767              	.LBB449:
ARM GAS  C:\Users\mathi\AppData\Local\Temp\ccRLxsF0.s 			page 32


 1768              	.LBB450:
 1769              	.LBB451:
 1770 00a4 4121     		movs	r1, #65
 1771              	.L156:
 1772              	.LVL146:
 1773              		.loc 1 116 0
 1774 00a6 2068     		ldr	r0, [r4]
 1775 00a8 0368     		ldr	r3, [r0]
 1776 00aa 9B68     		ldr	r3, [r3, #8]
 1777 00ac 9847     		blx	r3
 1778              	.LVL147:
 1779              		.loc 1 115 0
 1780 00ae 15F8011F 		ldrb	r1, [r5, #1]!	@ zero_extendqisi2
 1781              	.LVL148:
 1782 00b2 0029     		cmp	r1, #0
 1783 00b4 F7D1     		bne	.L156
 1784              	.LVL149:
 1785              	.LBE451:
 1786              	.LBE450:
 1787              		.loc 1 127 0
 1788 00b6 2068     		ldr	r0, [r4]
 1789 00b8 6A49     		ldr	r1, .L266+8
 1790 00ba 0368     		ldr	r3, [r0]
 1791 00bc 704D     		ldr	r5, .L266+36
 1792 00be 1B68     		ldr	r3, [r3]
 1793 00c0 0222     		movs	r2, #2
 1794 00c2 9847     		blx	r3
 1795              	.LVL150:
 1796              	.LBE449:
 1797              	.LBE448:
 1798              	.LBB452:
 1799              	.LBB453:
 1800              		.loc 1 115 0
 1801 00c4 2A21     		movs	r1, #42
 1802              	.LVL151:
 1803              	.L157:
 1804              		.loc 1 116 0
 1805 00c6 2068     		ldr	r0, [r4]
 1806 00c8 0368     		ldr	r3, [r0]
 1807 00ca 9B68     		ldr	r3, [r3, #8]
 1808 00cc 9847     		blx	r3
 1809              	.LVL152:
 1810              		.loc 1 115 0
 1811 00ce 15F8011F 		ldrb	r1, [r5, #1]!	@ zero_extendqisi2
 1812              	.LVL153:
 1813 00d2 0029     		cmp	r1, #0
 1814 00d4 F7D1     		bne	.L157
 1815 00d6 6B4D     		ldr	r5, .L266+40
 1816              	.LVL154:
 1817              	.LBE453:
 1818              	.LBE452:
 1819              	.LBB454:
 1820              	.LBB455:
 1821              	.LBB456:
 1822              	.LBB457:
 1823 00d8 4721     		movs	r1, #71
 1824              	.L158:
ARM GAS  C:\Users\mathi\AppData\Local\Temp\ccRLxsF0.s 			page 33


 1825              	.LVL155:
 1826              		.loc 1 116 0
 1827 00da 2068     		ldr	r0, [r4]
 1828 00dc 0368     		ldr	r3, [r0]
 1829 00de 9B68     		ldr	r3, [r3, #8]
 1830 00e0 9847     		blx	r3
 1831              	.LVL156:
 1832              		.loc 1 115 0
 1833 00e2 15F8011F 		ldrb	r1, [r5, #1]!	@ zero_extendqisi2
 1834              	.LVL157:
 1835 00e6 0029     		cmp	r1, #0
 1836 00e8 F7D1     		bne	.L158
 1837              	.LVL158:
 1838              	.LBE457:
 1839              	.LBE456:
 1840              		.loc 1 127 0
 1841 00ea 2068     		ldr	r0, [r4]
 1842 00ec 5D49     		ldr	r1, .L266+8
 1843 00ee 0368     		ldr	r3, [r0]
 1844 00f0 654D     		ldr	r5, .L266+44
 1845 00f2 1B68     		ldr	r3, [r3]
 1846 00f4 0222     		movs	r2, #2
 1847 00f6 9847     		blx	r3
 1848              	.LVL159:
 1849              	.LBE455:
 1850              	.LBE454:
 1851              	.LBB458:
 1852              	.LBB459:
 1853              		.loc 1 115 0
 1854 00f8 2A21     		movs	r1, #42
 1855              	.LVL160:
 1856              	.L159:
 1857              		.loc 1 116 0
 1858 00fa 2068     		ldr	r0, [r4]
 1859 00fc 0368     		ldr	r3, [r0]
 1860 00fe 9B68     		ldr	r3, [r3, #8]
 1861 0100 9847     		blx	r3
 1862              	.LVL161:
 1863              		.loc 1 115 0
 1864 0102 15F8011F 		ldrb	r1, [r5, #1]!	@ zero_extendqisi2
 1865              	.LVL162:
 1866 0106 0029     		cmp	r1, #0
 1867 0108 F7D1     		bne	.L159
 1868 010a 604D     		ldr	r5, .L266+48
 1869              	.LVL163:
 1870              	.LBE459:
 1871              	.LBE458:
 1872              	.LBB460:
 1873              	.LBB461:
 1874              	.LBB462:
 1875              	.LBB463:
 1876 010c 4121     		movs	r1, #65
 1877              	.L160:
 1878              	.LVL164:
 1879              		.loc 1 116 0
 1880 010e 2068     		ldr	r0, [r4]
 1881 0110 0368     		ldr	r3, [r0]
ARM GAS  C:\Users\mathi\AppData\Local\Temp\ccRLxsF0.s 			page 34


 1882 0112 9B68     		ldr	r3, [r3, #8]
 1883 0114 9847     		blx	r3
 1884              	.LVL165:
 1885              		.loc 1 115 0
 1886 0116 15F8011F 		ldrb	r1, [r5, #1]!	@ zero_extendqisi2
 1887              	.LVL166:
 1888 011a 0029     		cmp	r1, #0
 1889 011c F7D1     		bne	.L160
 1890              	.LVL167:
 1891              	.LBE463:
 1892              	.LBE462:
 1893              		.loc 1 127 0
 1894 011e 2068     		ldr	r0, [r4]
 1895 0120 5049     		ldr	r1, .L266+8
 1896 0122 0368     		ldr	r3, [r0]
 1897 0124 5A4D     		ldr	r5, .L266+52
 1898 0126 1B68     		ldr	r3, [r3]
 1899 0128 0222     		movs	r2, #2
 1900 012a 9847     		blx	r3
 1901              	.LVL168:
 1902              	.LBE461:
 1903              	.LBE460:
 1904              	.LBB464:
 1905              	.LBB465:
 1906              		.loc 1 115 0
 1907 012c 2A21     		movs	r1, #42
 1908              	.LVL169:
 1909              	.L161:
 1910              		.loc 1 116 0
 1911 012e 2068     		ldr	r0, [r4]
 1912 0130 0368     		ldr	r3, [r0]
 1913 0132 9B68     		ldr	r3, [r3, #8]
 1914 0134 9847     		blx	r3
 1915              	.LVL170:
 1916              		.loc 1 115 0
 1917 0136 15F8011F 		ldrb	r1, [r5, #1]!	@ zero_extendqisi2
 1918              	.LVL171:
 1919 013a 0029     		cmp	r1, #0
 1920 013c F7D1     		bne	.L161
 1921 013e 554D     		ldr	r5, .L266+56
 1922              	.LVL172:
 1923              	.LBE465:
 1924              	.LBE464:
 1925              	.LBB466:
 1926              	.LBB467:
 1927              	.LBB468:
 1928              	.LBB469:
 1929 0140 4321     		movs	r1, #67
 1930              	.L162:
 1931              	.LVL173:
 1932              		.loc 1 116 0
 1933 0142 2068     		ldr	r0, [r4]
 1934 0144 0368     		ldr	r3, [r0]
 1935 0146 9B68     		ldr	r3, [r3, #8]
 1936 0148 9847     		blx	r3
 1937              	.LVL174:
 1938              		.loc 1 115 0
ARM GAS  C:\Users\mathi\AppData\Local\Temp\ccRLxsF0.s 			page 35


 1939 014a 15F8011F 		ldrb	r1, [r5, #1]!	@ zero_extendqisi2
 1940              	.LVL175:
 1941 014e 0029     		cmp	r1, #0
 1942 0150 F7D1     		bne	.L162
 1943              	.LVL176:
 1944              	.LBE469:
 1945              	.LBE468:
 1946              		.loc 1 127 0
 1947 0152 2068     		ldr	r0, [r4]
 1948 0154 4349     		ldr	r1, .L266+8
 1949 0156 0368     		ldr	r3, [r0]
 1950 0158 4F4D     		ldr	r5, .L266+60
 1951 015a 1B68     		ldr	r3, [r3]
 1952 015c 0222     		movs	r2, #2
 1953 015e 9847     		blx	r3
 1954              	.LVL177:
 1955              	.LBE467:
 1956              	.LBE466:
 1957              	.LBB470:
 1958              	.LBB471:
 1959              		.loc 1 115 0
 1960 0160 2A21     		movs	r1, #42
 1961              	.LVL178:
 1962              	.L163:
 1963              		.loc 1 116 0
 1964 0162 2068     		ldr	r0, [r4]
 1965 0164 0368     		ldr	r3, [r0]
 1966 0166 9B68     		ldr	r3, [r3, #8]
 1967 0168 9847     		blx	r3
 1968              	.LVL179:
 1969              		.loc 1 115 0
 1970 016a 15F8011F 		ldrb	r1, [r5, #1]!	@ zero_extendqisi2
 1971              	.LVL180:
 1972 016e 0029     		cmp	r1, #0
 1973 0170 F7D1     		bne	.L163
 1974 0172 4A4D     		ldr	r5, .L266+64
 1975              	.LVL181:
 1976              	.LBE471:
 1977              	.LBE470:
 1978              	.LBB472:
 1979              	.LBB473:
 1980              	.LBB474:
 1981              	.LBB475:
 1982 0174 4121     		movs	r1, #65
 1983              	.L164:
 1984              	.LVL182:
 1985              		.loc 1 116 0
 1986 0176 2068     		ldr	r0, [r4]
 1987 0178 0368     		ldr	r3, [r0]
 1988 017a 9B68     		ldr	r3, [r3, #8]
 1989 017c 9847     		blx	r3
 1990              	.LVL183:
 1991              		.loc 1 115 0
 1992 017e 15F8011F 		ldrb	r1, [r5, #1]!	@ zero_extendqisi2
 1993              	.LVL184:
 1994 0182 0029     		cmp	r1, #0
 1995 0184 F7D1     		bne	.L164
ARM GAS  C:\Users\mathi\AppData\Local\Temp\ccRLxsF0.s 			page 36


 1996              	.LVL185:
 1997              	.LBE475:
 1998              	.LBE474:
 1999              		.loc 1 127 0
 2000 0186 2068     		ldr	r0, [r4]
 2001 0188 3649     		ldr	r1, .L266+8
 2002 018a 0368     		ldr	r3, [r0]
 2003 018c 444D     		ldr	r5, .L266+68
 2004 018e 1B68     		ldr	r3, [r3]
 2005 0190 0222     		movs	r2, #2
 2006 0192 9847     		blx	r3
 2007              	.LVL186:
 2008              	.LBE473:
 2009              	.LBE472:
 2010              	.LBB476:
 2011              	.LBB477:
 2012              		.loc 1 115 0
 2013 0194 2A21     		movs	r1, #42
 2014              	.LVL187:
 2015              	.L165:
 2016              		.loc 1 116 0
 2017 0196 2068     		ldr	r0, [r4]
 2018 0198 0368     		ldr	r3, [r0]
 2019 019a 9B68     		ldr	r3, [r3, #8]
 2020 019c 9847     		blx	r3
 2021              	.LVL188:
 2022              		.loc 1 115 0
 2023 019e 15F8011F 		ldrb	r1, [r5, #1]!	@ zero_extendqisi2
 2024              	.LVL189:
 2025 01a2 0029     		cmp	r1, #0
 2026 01a4 F7D1     		bne	.L165
 2027 01a6 3F4D     		ldr	r5, .L266+72
 2028              	.LVL190:
 2029              	.LBE477:
 2030              	.LBE476:
 2031              	.LBB478:
 2032              	.LBB479:
 2033              	.LBB480:
 2034              	.LBB481:
 2035 01a8 5321     		movs	r1, #83
 2036              	.L166:
 2037              	.LVL191:
 2038              		.loc 1 116 0
 2039 01aa 2068     		ldr	r0, [r4]
 2040 01ac 0368     		ldr	r3, [r0]
 2041 01ae 9B68     		ldr	r3, [r3, #8]
 2042 01b0 9847     		blx	r3
 2043              	.LVL192:
 2044              		.loc 1 115 0
 2045 01b2 15F8011F 		ldrb	r1, [r5, #1]!	@ zero_extendqisi2
 2046              	.LVL193:
 2047 01b6 0029     		cmp	r1, #0
 2048 01b8 F7D1     		bne	.L166
 2049              	.LVL194:
 2050              	.LBE481:
 2051              	.LBE480:
 2052              		.loc 1 127 0
ARM GAS  C:\Users\mathi\AppData\Local\Temp\ccRLxsF0.s 			page 37


 2053 01ba 2068     		ldr	r0, [r4]
 2054 01bc 2949     		ldr	r1, .L266+8
 2055 01be 0368     		ldr	r3, [r0]
 2056 01c0 394D     		ldr	r5, .L266+76
 2057 01c2 1B68     		ldr	r3, [r3]
 2058 01c4 0222     		movs	r2, #2
 2059 01c6 9847     		blx	r3
 2060              	.LVL195:
 2061              	.LBE479:
 2062              	.LBE478:
 2063              	.LBB482:
 2064              	.LBB483:
 2065              		.loc 1 115 0
 2066 01c8 2A21     		movs	r1, #42
 2067              	.LVL196:
 2068              	.L167:
 2069              		.loc 1 116 0
 2070 01ca 2068     		ldr	r0, [r4]
 2071 01cc 0368     		ldr	r3, [r0]
 2072 01ce 9B68     		ldr	r3, [r3, #8]
 2073 01d0 9847     		blx	r3
 2074              	.LVL197:
 2075              		.loc 1 115 0
 2076 01d2 15F8011F 		ldrb	r1, [r5, #1]!	@ zero_extendqisi2
 2077              	.LVL198:
 2078 01d6 0029     		cmp	r1, #0
 2079 01d8 F7D1     		bne	.L167
 2080              	.LBE483:
 2081              	.LBE482:
 2082              	.LBB485:
 2083              	.LBB486:
 2084              	.LBB487:
 2085              	.LBB488:
 2086 01da 4725     		movs	r5, #71
 2087              	.LVL199:
 2088              	.LBE488:
 2089              	.LBE487:
 2090              	.LBE486:
 2091              	.LBE485:
 2092              	.LBB493:
 2093              	.LBB484:
 2094 01dc 334E     		ldr	r6, .L266+80
 2095              	.LBE484:
 2096              	.LBE493:
 2097              	.LBB494:
 2098              	.LBB491:
 2099              	.LBB490:
 2100              	.LBB489:
 2101 01de 2946     		mov	r1, r5
 2102              	.L168:
 2103              	.LVL200:
 2104              		.loc 1 116 0
 2105 01e0 2068     		ldr	r0, [r4]
 2106 01e2 0368     		ldr	r3, [r0]
 2107 01e4 9B68     		ldr	r3, [r3, #8]
 2108 01e6 9847     		blx	r3
 2109              	.LVL201:
ARM GAS  C:\Users\mathi\AppData\Local\Temp\ccRLxsF0.s 			page 38


 2110              		.loc 1 115 0
 2111 01e8 16F8011F 		ldrb	r1, [r6, #1]!	@ zero_extendqisi2
 2112              	.LVL202:
 2113 01ec 0029     		cmp	r1, #0
 2114 01ee F7D1     		bne	.L168
 2115              	.LBE489:
 2116              	.LBE490:
 2117              		.loc 1 127 0
 2118 01f0 2068     		ldr	r0, [r4]
 2119 01f2 2F4A     		ldr	r2, .L266+84
 2120 01f4 0368     		ldr	r3, [r0]
 2121 01f6 0392     		str	r2, [sp, #12]
 2122 01f8 0D46     		mov	r5, r1
 2123              	.LVL203:
 2124 01fa 1B68     		ldr	r3, [r3]
 2125 01fc 1949     		ldr	r1, .L266+8
 2126              	.LBE491:
 2127              	.LBE494:
 2128              		.loc 1 351 0
 2129 01fe DFF8C0A0 		ldr	r10, .L266+100
 2130              	.LBB495:
 2131              	.LBB492:
 2132              		.loc 1 127 0
 2133 0202 0222     		movs	r2, #2
 2134 0204 9847     		blx	r3
 2135              	.LVL204:
 2136              	.LBE492:
 2137              	.LBE495:
 2138              	.LBB496:
 2139              	.LBB497:
 2140 0206 2068     		ldr	r0, [r4]
 2141 0208 1649     		ldr	r1, .L266+8
 2142 020a 0368     		ldr	r3, [r0]
 2143 020c 0222     		movs	r2, #2
 2144 020e 1B68     		ldr	r3, [r3]
 2145 0210 9847     		blx	r3
 2146              	.LVL205:
 2147              	.LBE497:
 2148              	.LBE496:
 2149              		.loc 1 351 0
 2150 0212 284B     		ldr	r3, .L266+88
 2151              		.loc 1 352 0
 2152 0214 0195     		str	r5, [sp, #4]
 2153              		.loc 1 351 0
 2154 0216 1D70     		strb	r5, [r3]
 2155              	.LVL206:
 2156              	.L169:
 2157 0218 019B     		ldr	r3, [sp, #4]
 2158              	.LBB498:
 2159              	.LBB499:
 2160              	.LBB500:
 2161              	.LBB501:
 2162              		.loc 1 102 0
 2163 021a 274A     		ldr	r2, .L266+92
 2164 021c 0133     		adds	r3, r3, #1
 2165 021e 0193     		str	r3, [sp, #4]
 2166              	.LVL207:
ARM GAS  C:\Users\mathi\AppData\Local\Temp\ccRLxsF0.s 			page 39


 2167 0220 A2FB0323 		umull	r2, r3, r2, r3
 2168              	.LVL208:
 2169 0224 DB08     		lsrs	r3, r3, #3
 2170 0226 0293     		str	r3, [sp, #8]
 2171              	.LBE501:
 2172              	.LBE500:
 2173              	.LBE499:
 2174              	.LBE498:
 2175              		.loc 1 354 0
 2176 0228 0025     		movs	r5, #0
 2177              	.L199:
 2178              	.LVL209:
 2179              		.loc 1 355 0
 2180 022a 5AF82530 		ldr	r3, [r10, r5, lsl #2]
 2181 022e 0AEB8506 		add	r6, r10, r5, lsl #2
 2182 0232 002B     		cmp	r3, #0
 2183 0234 00F02481 		beq	.L262
 2184              	.L208:
 2185 0238 4C27     		movs	r7, #76
 2186              	.L170:
 2187              	.LBB508:
 2188              	.LBB509:
 2189              		.loc 1 307 0
 2190 023a 2068     		ldr	r0, [r4]
 2191 023c 0368     		ldr	r3, [r0]
 2192 023e 2D21     		movs	r1, #45
 2193 0240 9B68     		ldr	r3, [r3, #8]
 2194 0242 9847     		blx	r3
 2195              	.LVL210:
 2196              		.loc 1 306 0
 2197 0244 013F     		subs	r7, r7, #1
 2198 0246 F8D1     		bne	.L170
 2199              		.loc 1 308 0
 2200 0248 2068     		ldr	r0, [r4]
 2201 024a 0649     		ldr	r1, .L266+8
 2202 024c 0368     		ldr	r3, [r0]
 2203 024e 1B4F     		ldr	r7, .L266+96
 2204 0250 1B68     		ldr	r3, [r3]
 2205 0252 0222     		movs	r2, #2
 2206 0254 9847     		blx	r3
 2207              	.LVL211:
 2208              	.LBE509:
 2209              	.LBE508:
 2210              	.LBB510:
 2211              	.LBB511:
 2212              		.loc 1 115 0
 2213 0256 2D21     		movs	r1, #45
 2214 0258 34E0     		b	.L267
 2215              	.L268:
 2216 025a 00BF     		.align	2
 2217              	.L266:
 2218 025c 00000000 		.word	.LANCHOR1
 2219 0260 00000000 		.word	__stack_chk_guard
 2220 0264 00000000 		.word	.LC0
 2221 0268 00000000 		.word	.LC1
 2222 026c 1C000000 		.word	.LC2
 2223 0270 20000000 		.word	.LC3
ARM GAS  C:\Users\mathi\AppData\Local\Temp\ccRLxsF0.s 			page 40


 2224 0274 34000000 		.word	.LC4
 2225 0278 3C000000 		.word	.LC5
 2226 027c 50000000 		.word	.LC6
 2227 0280 68000000 		.word	.LC7
 2228 0284 7C000000 		.word	.LC8
 2229 0288 C4000000 		.word	.LC9
 2230 028c D8000000 		.word	.LC10
 2231 0290 E4000000 		.word	.LC11
 2232 0294 F8000000 		.word	.LC12
 2233 0298 04010000 		.word	.LC13
 2234 029c 18010000 		.word	.LC14
 2235 02a0 30010000 		.word	.LC15
 2236 02a4 44010000 		.word	.LC16
 2237 02a8 70010000 		.word	.LC17
 2238 02ac 84010000 		.word	.LC18
 2239 02b0 00000000 		.word	.LANCHOR10
 2240 02b4 00000000 		.word	.LANCHOR4
 2241 02b8 CDCCCCCC 		.word	-858993459
 2242 02bc A8010000 		.word	.LC19
 2243 02c0 00000000 		.word	patternsys
 2244              	.L267:
 2245              	.LVL212:
 2246              	.L171:
 2247              		.loc 1 116 0
 2248 02c4 2068     		ldr	r0, [r4]
 2249 02c6 0368     		ldr	r3, [r0]
 2250 02c8 9B68     		ldr	r3, [r3, #8]
 2251 02ca 9847     		blx	r3
 2252              	.LVL213:
 2253              		.loc 1 115 0
 2254 02cc 17F8011F 		ldrb	r1, [r7, #1]!	@ zero_extendqisi2
 2255              	.LVL214:
 2256 02d0 0029     		cmp	r1, #0
 2257 02d2 F7D1     		bne	.L171
 2258              	.LVL215:
 2259              	.LBE511:
 2260              	.LBE510:
 2261              	.LBB512:
 2262              	.LBB506:
 2263              	.LBB504:
 2264              	.LBB502:
 2265              		.loc 1 102 0
 2266 02d4 029B     		ldr	r3, [sp, #8]
 2267 02d6 019A     		ldr	r2, [sp, #4]
 2268 02d8 03EB8303 		add	r3, r3, r3, lsl #2
 2269 02dc A2EB4303 		sub	r3, r2, r3, lsl #1
 2270 02e0 3033     		adds	r3, r3, #48
 2271              		.loc 1 101 0
 2272 02e2 092A     		cmp	r2, #9
 2273              		.loc 1 102 0
 2274 02e4 8DF81430 		strb	r3, [sp, #20]
 2275              	.LVL216:
 2276 02e8 05AF     		add	r7, sp, #20
 2277              		.loc 1 101 0
 2278 02ea 40F33781 		ble	.L172
 2279              	.LVL217:
 2280              		.loc 1 102 0
ARM GAS  C:\Users\mathi\AppData\Local\Temp\ccRLxsF0.s 			page 41


 2281 02ee 3123     		movs	r3, #49
 2282 02f0 7B70     		strb	r3, [r7, #1]
 2283              	.LVL218:
 2284 02f2 0DF11608 		add	r8, sp, #22
 2285              	.LVL219:
 2286              	.L173:
 2287              		.loc 1 104 0
 2288 02f6 2068     		ldr	r0, [r4]
 2289 02f8 18F8011D 		ldrb	r1, [r8, #-1]!	@ zero_extendqisi2
 2290              	.LVL220:
 2291 02fc 0368     		ldr	r3, [r0]
 2292 02fe 9B68     		ldr	r3, [r3, #8]
 2293 0300 9847     		blx	r3
 2294              	.LVL221:
 2295              		.loc 1 103 0
 2296 0302 B845     		cmp	r8, r7
 2297 0304 F7D1     		bne	.L173
 2298              	.LVL222:
 2299              	.L205:
 2300              	.LBE502:
 2301              	.LBE504:
 2302              	.LBE506:
 2303              	.LBE512:
 2304              	.LBB513:
 2305              	.LBB514:
 2306              		.loc 1 116 0
 2307 0306 2068     		ldr	r0, [r4]
 2308              	.LVL223:
 2309 0308 0368     		ldr	r3, [r0]
 2310              	.LBE514:
 2311              	.LBE513:
 2312              		.loc 1 360 0
 2313 030a 0135     		adds	r5, r5, #1
 2314              	.LVL224:
 2315              	.LBB516:
 2316              	.LBB515:
 2317              		.loc 1 116 0
 2318 030c 9B68     		ldr	r3, [r3, #8]
 2319 030e 2E21     		movs	r1, #46
 2320 0310 9847     		blx	r3
 2321              	.LVL225:
 2322              	.LBE515:
 2323              	.LBE516:
 2324              	.LBB517:
 2325              	.LBB518:
 2326              	.LBB519:
 2327              	.LBB520:
 2328              		.loc 1 100 0
 2329 0312 B846     		mov	r8, r7
 2330              	.LBE520:
 2331              	.LBE519:
 2332              	.LBE518:
 2333              	.LBE517:
 2334              		.loc 1 360 0
 2335 0314 2B46     		mov	r3, r5
 2336              	.L174:
 2337              	.LVL226:
ARM GAS  C:\Users\mathi\AppData\Local\Temp\ccRLxsF0.s 			page 42


 2338              	.LBB524:
 2339              	.LBB523:
 2340              	.LBB522:
 2341              	.LBB521:
 2342              		.loc 1 102 0
 2343 0316 9B4A     		ldr	r2, .L269
 2344 0318 A2FB0312 		umull	r1, r2, r2, r3
 2345 031c D208     		lsrs	r2, r2, #3
 2346 031e 02EB8201 		add	r1, r2, r2, lsl #2
 2347 0322 A3EB4103 		sub	r3, r3, r1, lsl #1
 2348              	.LVL227:
 2349 0326 3033     		adds	r3, r3, #48
 2350 0328 08F8013B 		strb	r3, [r8], #1
 2351              	.LVL228:
 2352              		.loc 1 101 0
 2353 032c 1346     		mov	r3, r2
 2354 032e 002A     		cmp	r2, #0
 2355 0330 F1D1     		bne	.L174
 2356              		.loc 1 103 0
 2357 0332 B845     		cmp	r8, r7
 2358 0334 07D9     		bls	.L175
 2359              	.LVL229:
 2360              	.L176:
 2361              		.loc 1 104 0
 2362 0336 2068     		ldr	r0, [r4]
 2363 0338 18F8011D 		ldrb	r1, [r8, #-1]!	@ zero_extendqisi2
 2364              	.LVL230:
 2365 033c 0368     		ldr	r3, [r0]
 2366 033e 9B68     		ldr	r3, [r3, #8]
 2367 0340 9847     		blx	r3
 2368              	.LVL231:
 2369              		.loc 1 103 0
 2370 0342 B845     		cmp	r8, r7
 2371 0344 F7D1     		bne	.L176
 2372              	.L175:
 2373              	.LVL232:
 2374 0346 DFF87882 		ldr	r8, .L269+60
 2375              	.LVL233:
 2376              	.LBE521:
 2377              	.LBE522:
 2378              	.LBE523:
 2379              	.LBE524:
 2380              	.LBB525:
 2381              	.LBB526:
 2382              		.loc 1 115 0
 2383 034a 2021     		movs	r1, #32
 2384              	.LVL234:
 2385              	.L177:
 2386              		.loc 1 116 0
 2387 034c 2068     		ldr	r0, [r4]
 2388 034e 0368     		ldr	r3, [r0]
 2389 0350 9B68     		ldr	r3, [r3, #8]
 2390 0352 9847     		blx	r3
 2391              	.LVL235:
 2392              		.loc 1 115 0
 2393 0354 18F8011F 		ldrb	r1, [r8, #1]!	@ zero_extendqisi2
 2394              	.LVL236:
ARM GAS  C:\Users\mathi\AppData\Local\Temp\ccRLxsF0.s 			page 43


 2395 0358 0029     		cmp	r1, #0
 2396 035a F7D1     		bne	.L177
 2397              	.LVL237:
 2398              	.LBE526:
 2399              	.LBE525:
 2400              		.loc 1 362 0
 2401 035c 3368     		ldr	r3, [r6]
 2402 035e D3F80080 		ldr	r8, [r3]
 2403              	.LVL238:
 2404              	.LBB527:
 2405              	.LBB528:
 2406              		.loc 1 115 0
 2407 0362 98F80010 		ldrb	r1, [r8]	@ zero_extendqisi2
 2408 0366 39B1     		cbz	r1, .L178
 2409              	.LVL239:
 2410              	.L179:
 2411              		.loc 1 116 0
 2412 0368 2068     		ldr	r0, [r4]
 2413 036a 0368     		ldr	r3, [r0]
 2414 036c 9B68     		ldr	r3, [r3, #8]
 2415 036e 9847     		blx	r3
 2416              	.LVL240:
 2417              		.loc 1 115 0
 2418 0370 18F8011F 		ldrb	r1, [r8, #1]!	@ zero_extendqisi2
 2419              	.LVL241:
 2420 0374 0029     		cmp	r1, #0
 2421 0376 F7D1     		bne	.L179
 2422              	.LVL242:
 2423              	.L178:
 2424              	.LBE528:
 2425              	.LBE527:
 2426              	.LBB529:
 2427              	.LBB530:
 2428              	.LBB531:
 2429              	.LBB532:
 2430              		.loc 1 116 0
 2431 0378 2068     		ldr	r0, [r4]
 2432              	.LVL243:
 2433 037a 0368     		ldr	r3, [r0]
 2434 037c 2921     		movs	r1, #41
 2435 037e 9B68     		ldr	r3, [r3, #8]
 2436 0380 9847     		blx	r3
 2437              	.LVL244:
 2438              	.LBE532:
 2439              	.LBE531:
 2440              		.loc 1 127 0
 2441 0382 2068     		ldr	r0, [r4]
 2442 0384 8049     		ldr	r1, .L269+4
 2443 0386 0368     		ldr	r3, [r0]
 2444 0388 0222     		movs	r2, #2
 2445 038a 1B68     		ldr	r3, [r3]
 2446 038c 9847     		blx	r3
 2447              	.LVL245:
 2448              	.LBE530:
 2449              	.LBE529:
 2450              		.loc 1 365 0
 2451 038e C820     		movs	r0, #200
ARM GAS  C:\Users\mathi\AppData\Local\Temp\ccRLxsF0.s 			page 44


 2452 0390 FFF7FEFF 		bl	chThdSleep
 2453              	.LVL246:
 2454              		.loc 1 367 0
 2455 0394 D6F80080 		ldr	r8, [r6]
 2456              	.LVL247:
 2457              	.LBB533:
 2458              	.LBB534:
 2459              	.LBB535:
 2460              	.LBB536:
 2461              		.loc 1 135 0
 2462 0398 7C4E     		ldr	r6, .L269+8
 2463              	.LBE536:
 2464              	.LBE535:
 2465              		.loc 1 292 0
 2466 039a 7D4A     		ldr	r2, .L269+12
 2467              	.LBB538:
 2468              	.LBB537:
 2469              		.loc 1 135 0
 2470 039c 7D4B     		ldr	r3, .L269+16
 2471 039e 3360     		str	r3, [r6]
 2472              	.LBE537:
 2473              	.LBE538:
 2474              		.loc 1 290 0
 2475 03a0 0023     		movs	r3, #0
 2476              		.loc 1 292 0
 2477 03a2 C2E90033 		strd	r3, r3, [r2]
 2478 03a6 C2E90233 		strd	r3, r3, [r2, #8]
 2479 03aa 1361     		str	r3, [r2, #16]
 2480              		.loc 1 290 0
 2481 03ac 7A49     		ldr	r1, .L269+20
 2482              		.loc 1 294 0
 2483 03ae D8F80420 		ldr	r2, [r8, #4]
 2484              		.loc 1 290 0
 2485 03b2 0B70     		strb	r3, [r1]
 2486              	.LVL248:
 2487              		.loc 1 294 0
 2488 03b4 02B1     		cbz	r2, .L180
 2489              		.loc 1 295 0
 2490 03b6 9047     		blx	r2
 2491              	.LVL249:
 2492              	.L180:
 2493              		.loc 1 296 0
 2494 03b8 D8F80C30 		ldr	r3, [r8, #12]
 2495 03bc 9847     		blx	r3
 2496              	.LVL250:
 2497              		.loc 1 297 0
 2498 03be D8F80830 		ldr	r3, [r8, #8]
 2499 03c2 03B1     		cbz	r3, .L181
 2500              		.loc 1 298 0
 2501 03c4 9847     		blx	r3
 2502              	.LVL251:
 2503              	.L181:
 2504 03c6 DFF8C891 		ldr	r9, .L269+12
 2505              	.LBB539:
 2506              	.LBB540:
 2507              		.loc 1 216 0
 2508 03ca 4FF00008 		mov	r8, #0
ARM GAS  C:\Users\mathi\AppData\Local\Temp\ccRLxsF0.s 			page 45


 2509              	.LVL252:
 2510 03ce 09F1140B 		add	fp, r9, #20
 2511              	.L183:
 2512              		.loc 1 214 0
 2513 03d2 59F8040B 		ldr	r0, [r9], #4
 2514 03d6 18B1     		cbz	r0, .L182
 2515              		.loc 1 215 0
 2516 03d8 FFF7FEFF 		bl	chThdWait
 2517              	.LVL253:
 2518              		.loc 1 216 0
 2519 03dc 49F8048C 		str	r8, [r9, #-4]
 2520              	.L182:
 2521              	.LVL254:
 2522              		.loc 1 213 0
 2523 03e0 D945     		cmp	r9, fp
 2524 03e2 F6D1     		bne	.L183
 2525              	.LVL255:
 2526              	.LBE540:
 2527              	.LBE539:
 2528              	.LBE534:
 2529              	.LBE533:
 2530              		.loc 1 368 0
 2531 03e4 6C4B     		ldr	r3, .L269+20
 2532 03e6 1B78     		ldrb	r3, [r3]	@ zero_extendqisi2
 2533 03e8 002B     		cmp	r3, #0
 2534 03ea 00F08B80 		beq	.L207
 2535 03ee DFF8D481 		ldr	r8, .L269+64
 2536              	.LBB541:
 2537              	.LBB542:
 2538              		.loc 1 115 0
 2539 03f2 2D21     		movs	r1, #45
 2540              	.L185:
 2541              	.LVL256:
 2542              		.loc 1 116 0
 2543 03f4 2068     		ldr	r0, [r4]
 2544 03f6 0368     		ldr	r3, [r0]
 2545 03f8 9B68     		ldr	r3, [r3, #8]
 2546 03fa 9847     		blx	r3
 2547              	.LVL257:
 2548              		.loc 1 115 0
 2549 03fc 18F8011F 		ldrb	r1, [r8, #1]!	@ zero_extendqisi2
 2550              	.LVL258:
 2551 0400 0029     		cmp	r1, #0
 2552 0402 F7D1     		bne	.L185
 2553              	.LVL259:
 2554              	.LBE542:
 2555              	.LBE541:
 2556              		.loc 1 370 0
 2557 0404 654B     		ldr	r3, .L269+24
 2558 0406 2068     		ldr	r0, [r4]
 2559 0408 1B68     		ldr	r3, [r3]
 2560              	.LVL260:
 2561              	.LBB543:
 2562              	.LBB544:
 2563              		.loc 1 97 0
 2564 040a 002B     		cmp	r3, #0
 2565 040c 40F08B80 		bne	.L263
ARM GAS  C:\Users\mathi\AppData\Local\Temp\ccRLxsF0.s 			page 46


 2566              		.loc 1 98 0
 2567 0410 0368     		ldr	r3, [r0]
 2568              	.LVL261:
 2569 0412 3021     		movs	r1, #48
 2570 0414 9B68     		ldr	r3, [r3, #8]
 2571 0416 9847     		blx	r3
 2572              	.LVL262:
 2573 0418 2068     		ldr	r0, [r4]
 2574              	.L192:
 2575              	.LVL263:
 2576              	.LBE544:
 2577              	.LBE543:
 2578              	.LBB548:
 2579              	.LBB549:
 2580              		.loc 1 115 0
 2581 041a 614F     		ldr	r7, .L269+28
 2582 041c 2021     		movs	r1, #32
 2583 041e 00E0     		b	.L191
 2584              	.LVL264:
 2585              	.L193:
 2586 0420 2068     		ldr	r0, [r4]
 2587              	.LVL265:
 2588              	.L191:
 2589              		.loc 1 116 0
 2590 0422 0368     		ldr	r3, [r0]
 2591 0424 9B68     		ldr	r3, [r3, #8]
 2592 0426 9847     		blx	r3
 2593              	.LVL266:
 2594              		.loc 1 115 0
 2595 0428 17F8011F 		ldrb	r1, [r7, #1]!	@ zero_extendqisi2
 2596              	.LVL267:
 2597 042c 0029     		cmp	r1, #0
 2598 042e F7D1     		bne	.L193
 2599              	.LVL268:
 2600              	.LBE549:
 2601              	.LBE548:
 2602              	.LBB550:
 2603              	.LBB551:
 2604              		.loc 1 141 0
 2605 0430 3368     		ldr	r3, [r6]
 2606 0432 584A     		ldr	r2, .L269+16
 2607 0434 9342     		cmp	r3, r2
 2608 0436 09D9     		bls	.L194
 2609              		.loc 1 139 0
 2610 0438 1746     		mov	r7, r2
 2611              	.LVL269:
 2612              	.L195:
 2613              		.loc 1 142 0
 2614 043a 2068     		ldr	r0, [r4]
 2615 043c 17F8011B 		ldrb	r1, [r7], #1	@ zero_extendqisi2
 2616              	.LVL270:
 2617 0440 0368     		ldr	r3, [r0]
 2618 0442 9B68     		ldr	r3, [r3, #8]
 2619 0444 9847     		blx	r3
 2620              	.LVL271:
 2621              		.loc 1 141 0
 2622 0446 3368     		ldr	r3, [r6]
ARM GAS  C:\Users\mathi\AppData\Local\Temp\ccRLxsF0.s 			page 47


 2623 0448 9F42     		cmp	r7, r3
 2624 044a F6D3     		bcc	.L195
 2625              	.LVL272:
 2626              	.L194:
 2627              	.LBE551:
 2628              	.LBE550:
 2629              	.LBB552:
 2630              	.LBB553:
 2631              	.LBB554:
 2632              	.LBB555:
 2633              		.loc 1 115 0
 2634 044c 554E     		ldr	r6, .L269+32
 2635 044e 5D21     		movs	r1, #93
 2636              	.LVL273:
 2637              	.L196:
 2638              		.loc 1 116 0
 2639 0450 2068     		ldr	r0, [r4]
 2640 0452 0368     		ldr	r3, [r0]
 2641 0454 9B68     		ldr	r3, [r3, #8]
 2642 0456 9847     		blx	r3
 2643              	.LVL274:
 2644              		.loc 1 115 0
 2645 0458 16F8011F 		ldrb	r1, [r6, #1]!	@ zero_extendqisi2
 2646              	.LVL275:
 2647 045c 0029     		cmp	r1, #0
 2648 045e F7D1     		bne	.L196
 2649              	.LVL276:
 2650              	.LBE555:
 2651              	.LBE554:
 2652              		.loc 1 127 0
 2653 0460 2068     		ldr	r0, [r4]
 2654 0462 4949     		ldr	r1, .L269+4
 2655 0464 0368     		ldr	r3, [r0]
 2656 0466 0222     		movs	r2, #2
 2657 0468 1B68     		ldr	r3, [r3]
 2658 046a 9847     		blx	r3
 2659              	.LVL277:
 2660 046c 039B     		ldr	r3, [sp, #12]
 2661 046e D3F800A0 		ldr	r10, [r3]
 2662              	.LVL278:
 2663              	.LBE553:
 2664              	.LBE552:
 2665              		.loc 1 355 0
 2666 0472 5AF82530 		ldr	r3, [r10, r5, lsl #2]
 2667 0476 0AEB8506 		add	r6, r10, r5, lsl #2
 2668 047a 002B     		cmp	r3, #0
 2669 047c 7FF4DCAE 		bne	.L208
 2670              	.LVL279:
 2671              	.L262:
 2672              		.loc 1 353 0
 2673 0480 039B     		ldr	r3, [sp, #12]
 2674 0482 53F804AF 		ldr	r10, [r3, #4]!
 2675 0486 0393     		str	r3, [sp, #12]
 2676 0488 BAF1000F 		cmp	r10, #0
 2677 048c 7FF4C4AE 		bne	.L169
 2678 0490 4C25     		movs	r5, #76
 2679              	.LVL280:
ARM GAS  C:\Users\mathi\AppData\Local\Temp\ccRLxsF0.s 			page 48


 2680              	.L198:
 2681              	.LBB556:
 2682              	.LBB557:
 2683              		.loc 1 307 0
 2684 0492 2068     		ldr	r0, [r4]
 2685 0494 0368     		ldr	r3, [r0]
 2686 0496 2D21     		movs	r1, #45
 2687 0498 9B68     		ldr	r3, [r3, #8]
 2688 049a 9847     		blx	r3
 2689              	.LVL281:
 2690              		.loc 1 306 0
 2691 049c 013D     		subs	r5, r5, #1
 2692 049e F8D1     		bne	.L198
 2693              		.loc 1 308 0
 2694 04a0 2068     		ldr	r0, [r4]
 2695 04a2 3949     		ldr	r1, .L269+4
 2696 04a4 0368     		ldr	r3, [r0]
 2697              	.LBE557:
 2698              	.LBE556:
 2699              	.LBB559:
 2700              	.LBB560:
 2701              		.loc 1 127 0
 2702 04a6 404D     		ldr	r5, .L269+36
 2703              	.LBE560:
 2704              	.LBE559:
 2705              	.LBB562:
 2706              	.LBB558:
 2707              		.loc 1 308 0
 2708 04a8 1B68     		ldr	r3, [r3]
 2709 04aa 0222     		movs	r2, #2
 2710 04ac 9847     		blx	r3
 2711              	.LVL282:
 2712              	.LBE558:
 2713              	.LBE562:
 2714              	.LBB563:
 2715              	.LBB561:
 2716              		.loc 1 127 0
 2717 04ae 2068     		ldr	r0, [r4]
 2718 04b0 3549     		ldr	r1, .L269+4
 2719 04b2 0368     		ldr	r3, [r0]
 2720 04b4 0222     		movs	r2, #2
 2721 04b6 1B68     		ldr	r3, [r3]
 2722 04b8 9847     		blx	r3
 2723              	.LVL283:
 2724              	.LBE561:
 2725              	.LBE563:
 2726              	.LBB564:
 2727              	.LBB565:
 2728              		.loc 1 115 0
 2729 04ba 4621     		movs	r1, #70
 2730              	.LVL284:
 2731              	.L200:
 2732              		.loc 1 116 0
 2733 04bc 2068     		ldr	r0, [r4]
 2734 04be 0368     		ldr	r3, [r0]
 2735 04c0 9B68     		ldr	r3, [r3, #8]
 2736 04c2 9847     		blx	r3
ARM GAS  C:\Users\mathi\AppData\Local\Temp\ccRLxsF0.s 			page 49


 2737              	.LVL285:
 2738              		.loc 1 115 0
 2739 04c4 15F8011F 		ldrb	r1, [r5, #1]!	@ zero_extendqisi2
 2740              	.LVL286:
 2741 04c8 0029     		cmp	r1, #0
 2742 04ca F7D1     		bne	.L200
 2743              	.LVL287:
 2744              	.LBE565:
 2745              	.LBE564:
 2746              		.loc 1 384 0
 2747 04cc 374B     		ldr	r3, .L269+40
 2748 04ce 1B78     		ldrb	r3, [r3]	@ zero_extendqisi2
 2749 04d0 002B     		cmp	r3, #0
 2750 04d2 4AD1     		bne	.L264
 2751 04d4 364D     		ldr	r5, .L269+44
 2752              	.LBB566:
 2753              	.LBB567:
 2754              	.LBB568:
 2755              	.LBB569:
 2756              		.loc 1 115 0
 2757 04d6 5321     		movs	r1, #83
 2758              	.L201:
 2759              	.LVL288:
 2760              		.loc 1 116 0
 2761 04d8 2068     		ldr	r0, [r4]
 2762 04da 0368     		ldr	r3, [r0]
 2763 04dc 9B68     		ldr	r3, [r3, #8]
 2764 04de 9847     		blx	r3
 2765              	.LVL289:
 2766              		.loc 1 115 0
 2767 04e0 15F8011F 		ldrb	r1, [r5, #1]!	@ zero_extendqisi2
 2768              	.LVL290:
 2769 04e4 0029     		cmp	r1, #0
 2770 04e6 F7D1     		bne	.L201
 2771              	.LVL291:
 2772              	.L261:
 2773              	.LBE569:
 2774              	.LBE568:
 2775              		.loc 1 127 0
 2776 04e8 324B     		ldr	r3, .L269+48
 2777 04ea 099A     		ldr	r2, [sp, #36]
 2778 04ec 1B68     		ldr	r3, [r3]
 2779 04ee 2068     		ldr	r0, [r4]
 2780 04f0 9A42     		cmp	r2, r3
 2781 04f2 45D1     		bne	.L265
 2782 04f4 0368     		ldr	r3, [r0]
 2783 04f6 2449     		ldr	r1, .L269+4
 2784 04f8 1B68     		ldr	r3, [r3]
 2785 04fa 0222     		movs	r2, #2
 2786              	.LBE567:
 2787              	.LBE566:
 2788              		.loc 1 388 0
 2789 04fc 0BB0     		add	sp, sp, #44
 2790              		.cfi_remember_state
 2791              		.cfi_def_cfa_offset 36
 2792              		@ sp needed
 2793 04fe BDE8F04F 		pop	{r4, r5, r6, r7, r8, r9, r10, fp, lr}
ARM GAS  C:\Users\mathi\AppData\Local\Temp\ccRLxsF0.s 			page 50


 2794              		.cfi_restore 14
 2795              		.cfi_restore 11
 2796              		.cfi_restore 10
 2797              		.cfi_restore 9
 2798              		.cfi_restore 8
 2799              		.cfi_restore 7
 2800              		.cfi_restore 6
 2801              		.cfi_restore 5
 2802              		.cfi_restore 4
 2803              		.cfi_def_cfa_offset 0
 2804              	.LVL292:
 2805              	.LBB572:
 2806              	.LBB570:
 2807              		.loc 1 127 0
 2808 0502 1847     		bx	r3
 2809              	.LVL293:
 2810              	.L207:
 2811              		.cfi_restore_state
 2812              	.LBE570:
 2813              	.LBE572:
 2814 0504 2C4E     		ldr	r6, .L269+52
 2815              	.LBB573:
 2816              	.LBB574:
 2817              	.LBB575:
 2818              	.LBB576:
 2819              		.loc 1 115 0
 2820 0506 2D21     		movs	r1, #45
 2821              	.L184:
 2822              	.LVL294:
 2823              		.loc 1 116 0
 2824 0508 2068     		ldr	r0, [r4]
 2825 050a 0368     		ldr	r3, [r0]
 2826 050c 9B68     		ldr	r3, [r3, #8]
 2827 050e 9847     		blx	r3
 2828              	.LVL295:
 2829              		.loc 1 115 0
 2830 0510 16F8011F 		ldrb	r1, [r6, #1]!	@ zero_extendqisi2
 2831              	.LVL296:
 2832 0514 0029     		cmp	r1, #0
 2833 0516 F7D1     		bne	.L184
 2834              	.LVL297:
 2835              	.LBE576:
 2836              	.LBE575:
 2837              		.loc 1 127 0
 2838 0518 2068     		ldr	r0, [r4]
 2839 051a 1B49     		ldr	r1, .L269+4
 2840 051c 0368     		ldr	r3, [r0]
 2841 051e 0222     		movs	r2, #2
 2842 0520 1B68     		ldr	r3, [r3]
 2843 0522 9847     		blx	r3
 2844              	.LVL298:
 2845 0524 81E6     		b	.L199
 2846              	.LVL299:
 2847              	.L263:
 2848              	.LBE574:
 2849              	.LBE573:
 2850              	.LBB577:
ARM GAS  C:\Users\mathi\AppData\Local\Temp\ccRLxsF0.s 			page 51


 2851              	.LBB547:
 2852              	.LBB545:
 2853              	.LBB546:
 2854              		.loc 1 100 0
 2855 0526 B846     		mov	r8, r7
 2856              	.LVL300:
 2857              	.L187:
 2858              		.loc 1 102 0
 2859 0528 164A     		ldr	r2, .L269
 2860 052a A2FB0312 		umull	r1, r2, r2, r3
 2861 052e D208     		lsrs	r2, r2, #3
 2862 0530 02EB8201 		add	r1, r2, r2, lsl #2
 2863 0534 A3EB4103 		sub	r3, r3, r1, lsl #1
 2864              	.LVL301:
 2865 0538 3033     		adds	r3, r3, #48
 2866 053a 08F8013B 		strb	r3, [r8], #1
 2867              	.LVL302:
 2868              		.loc 1 101 0
 2869 053e 1346     		mov	r3, r2
 2870 0540 002A     		cmp	r2, #0
 2871 0542 F1D1     		bne	.L187
 2872              		.loc 1 103 0
 2873 0544 B845     		cmp	r8, r7
 2874 0546 7FF668AF 		bls	.L192
 2875              	.LVL303:
 2876              	.L190:
 2877              		.loc 1 104 0
 2878 054a 0368     		ldr	r3, [r0]
 2879 054c 18F8011D 		ldrb	r1, [r8, #-1]!	@ zero_extendqisi2
 2880              	.LVL304:
 2881 0550 9B68     		ldr	r3, [r3, #8]
 2882 0552 9847     		blx	r3
 2883              	.LVL305:
 2884              		.loc 1 103 0
 2885 0554 B845     		cmp	r8, r7
 2886 0556 2068     		ldr	r0, [r4]
 2887 0558 F7D1     		bne	.L190
 2888 055a 5EE7     		b	.L192
 2889              	.LVL306:
 2890              	.L172:
 2891              	.LBE546:
 2892              	.LBE545:
 2893              	.LBE547:
 2894              	.LBE577:
 2895              	.LBB578:
 2896              	.LBB507:
 2897              	.LBB505:
 2898              	.LBB503:
 2899              		.loc 1 104 0
 2900 055c 2068     		ldr	r0, [r4]
 2901              	.LVL307:
 2902 055e 9DF81410 		ldrb	r1, [sp, #20]	@ zero_extendqisi2
 2903 0562 0368     		ldr	r3, [r0]
 2904 0564 9B68     		ldr	r3, [r3, #8]
 2905 0566 9847     		blx	r3
 2906              	.LVL308:
 2907 0568 CDE6     		b	.L205
ARM GAS  C:\Users\mathi\AppData\Local\Temp\ccRLxsF0.s 			page 52


 2908              	.LVL309:
 2909              	.L264:
 2910              	.LBE503:
 2911              	.LBE505:
 2912              	.LBE507:
 2913              	.LBE578:
 2914 056a 144D     		ldr	r5, .L269+56
 2915              	.LBB579:
 2916              	.LBB580:
 2917              	.LBB581:
 2918              	.LBB582:
 2919              		.loc 1 115 0
 2920 056c 4621     		movs	r1, #70
 2921              	.L202:
 2922              	.LVL310:
 2923              		.loc 1 116 0
 2924 056e 2068     		ldr	r0, [r4]
 2925 0570 0368     		ldr	r3, [r0]
 2926 0572 9B68     		ldr	r3, [r3, #8]
 2927 0574 9847     		blx	r3
 2928              	.LVL311:
 2929              		.loc 1 115 0
 2930 0576 15F8011F 		ldrb	r1, [r5, #1]!	@ zero_extendqisi2
 2931              	.LVL312:
 2932 057a 0029     		cmp	r1, #0
 2933 057c F7D1     		bne	.L202
 2934 057e B3E7     		b	.L261
 2935              	.LVL313:
 2936              	.L265:
 2937              	.LBE582:
 2938              	.LBE581:
 2939              	.LBE580:
 2940              	.LBE579:
 2941              	.LBB583:
 2942              	.LBB571:
 2943              		.loc 1 127 0
 2944 0580 FFF7FEFF 		bl	__stack_chk_fail
 2945              	.LVL314:
 2946              	.L270:
 2947              		.align	2
 2948              	.L269:
 2949 0584 CDCCCCCC 		.word	-858993459
 2950 0588 00000000 		.word	.LC0
 2951 058c 00000000 		.word	.LANCHOR2
 2952 0590 00000000 		.word	.LANCHOR8
 2953 0594 00000000 		.word	.LANCHOR7
 2954 0598 00000000 		.word	.LANCHOR5
 2955 059c 00000000 		.word	.LANCHOR6
 2956 05a0 D4010000 		.word	.LC22
 2957 05a4 D8010000 		.word	.LC23
 2958 05a8 F0010000 		.word	.LC25
 2959 05ac 00000000 		.word	.LANCHOR4
 2960 05b0 08020000 		.word	.LC27
 2961 05b4 00000000 		.word	__stack_chk_guard
 2962 05b8 DC010000 		.word	.LC24
 2963 05bc 00020000 		.word	.LC26
 2964 05c0 B8010000 		.word	.LC20
ARM GAS  C:\Users\mathi\AppData\Local\Temp\ccRLxsF0.s 			page 53


 2965 05c4 BC010000 		.word	.LC21
 2966              	.LBE571:
 2967              	.LBE583:
 2968              		.cfi_endproc
 2969              	.LFE274:
 2970              		.size	TestThread, .-TestThread
 2971              		.global	test_timer_done
 2972              		.global	wa
 2973              		.global	threads
 2974              		.global	test
 2975              		.global	test_global_fail
 2976              		.section	.bss.chp,"aw",%nobits
 2977              		.align	2
 2978              		.set	.LANCHOR1,. + 0
 2979              		.type	chp, %object
 2980              		.size	chp, 4
 2981              	chp:
 2982 0000 00000000 		.space	4
 2983              		.section	.bss.failpoint,"aw",%nobits
 2984              		.align	2
 2985              		.set	.LANCHOR6,. + 0
 2986              		.type	failpoint, %object
 2987              		.size	failpoint, 4
 2988              	failpoint:
 2989 0000 00000000 		.space	4
 2990              		.section	.bss.local_fail,"aw",%nobits
 2991              		.set	.LANCHOR5,. + 0
 2992              		.type	local_fail, %object
 2993              		.size	local_fail, 1
 2994              	local_fail:
 2995 0000 00       		.space	1
 2996              		.section	.bss.test,"aw",%nobits
 2997              		.align	3
 2998              		.type	test, %object
 2999              		.size	test, 2520
 3000              	test:
 3001 0000 00000000 		.space	2520
 3001      00000000 
 3001      00000000 
 3001      00000000 
 3001      00000000 
 3002              		.section	.bss.test_global_fail,"aw",%nobits
 3003              		.set	.LANCHOR4,. + 0
 3004              		.type	test_global_fail, %object
 3005              		.size	test_global_fail, 1
 3006              	test_global_fail:
 3007 0000 00       		.space	1
 3008              		.section	.bss.test_timer_done,"aw",%nobits
 3009              		.set	.LANCHOR0,. + 0
 3010              		.type	test_timer_done, %object
 3011              		.size	test_timer_done, 1
 3012              	test_timer_done:
 3013 0000 00       		.space	1
 3014              		.section	.bss.threads,"aw",%nobits
 3015              		.align	2
 3016              		.set	.LANCHOR8,. + 0
 3017              		.type	threads, %object
ARM GAS  C:\Users\mathi\AppData\Local\Temp\ccRLxsF0.s 			page 54


 3018              		.size	threads, 20
 3019              	threads:
 3020 0000 00000000 		.space	20
 3020      00000000 
 3020      00000000 
 3020      00000000 
 3020      00000000 
 3021              		.section	.bss.tokens_buffer,"aw",%nobits
 3022              		.align	2
 3023              		.set	.LANCHOR7,. + 0
 3024              		.type	tokens_buffer, %object
 3025              		.size	tokens_buffer, 16
 3026              	tokens_buffer:
 3027 0000 00000000 		.space	16
 3027      00000000 
 3027      00000000 
 3027      00000000 
 3028              		.section	.bss.tokp,"aw",%nobits
 3029              		.align	2
 3030              		.set	.LANCHOR2,. + 0
 3031              		.type	tokp, %object
 3032              		.size	tokp, 4
 3033              	tokp:
 3034 0000 00000000 		.space	4
 3035              		.section	.bss.vt,"aw",%nobits
 3036              		.align	2
 3037              		.set	.LANCHOR9,. + 0
 3038              		.type	vt, %object
 3039              		.size	vt, 20
 3040              	vt:
 3041 0000 00000000 		.space	20
 3041      00000000 
 3041      00000000 
 3041      00000000 
 3041      00000000 
 3042              		.section	.rodata.TestThread.str1.4,"aMS",%progbits,1
 3043              		.align	2
 3044              	.LC1:
 3045 0000 2A2A2A20 		.ascii	"*** ChibiOS/RT test suite\000"
 3045      43686962 
 3045      694F532F 
 3045      52542074 
 3045      65737420 
 3046 001a 0000     		.space	2
 3047              	.LC2:
 3048 001c 2A2A2A00 		.ascii	"***\000"
 3049              	.LC3:
 3050 0020 2A2A2A20 		.ascii	"*** Kernel:       \000"
 3050      4B65726E 
 3050      656C3A20 
 3050      20202020 
 3050      202000
 3051 0033 00       		.space	1
 3052              	.LC4:
 3053 0034 332E302E 		.ascii	"3.0.0\000"
 3053      3000
 3054 003a 0000     		.space	2
ARM GAS  C:\Users\mathi\AppData\Local\Temp\ccRLxsF0.s 			page 55


 3055              	.LC5:
 3056 003c 2A2A2A20 		.ascii	"*** Compiled:     \000"
 3056      436F6D70 
 3056      696C6564 
 3056      3A202020 
 3056      202000
 3057 004f 00       		.space	1
 3058              	.LC6:
 3059 0050 41707220 		.ascii	"Apr 10 2022 - 21:02:10\000"
 3059      31302032 
 3059      30323220 
 3059      2D203231 
 3059      3A30323A 
 3060 0067 00       		.space	1
 3061              	.LC7:
 3062 0068 2A2A2A20 		.ascii	"*** Compiler:     \000"
 3062      436F6D70 
 3062      696C6572 
 3062      3A202020 
 3062      202000
 3063 007b 00       		.space	1
 3064              	.LC8:
 3065 007c 47434320 		.ascii	"GCC 7.2.1 20170904 (release) [ARM/embedded-7-branch"
 3065      372E322E 
 3065      31203230 
 3065      31373039 
 3065      30342028 
 3066 00af 20726576 		.ascii	" revision 255204]\000"
 3066      6973696F 
 3066      6E203235 
 3066      35323034 
 3066      5D00
 3067 00c1 000000   		.space	3
 3068              	.LC9:
 3069 00c4 2A2A2A20 		.ascii	"*** Architecture: \000"
 3069      41726368 
 3069      69746563 
 3069      74757265 
 3069      3A2000
 3070 00d7 00       		.space	1
 3071              	.LC10:
 3072 00d8 41524D76 		.ascii	"ARMv7-ME\000"
 3072      372D4D45 
 3072      00
 3073 00e1 000000   		.space	3
 3074              	.LC11:
 3075 00e4 2A2A2A20 		.ascii	"*** Core Variant: \000"
 3075      436F7265 
 3075      20566172 
 3075      69616E74 
 3075      3A2000
 3076 00f7 00       		.space	1
 3077              	.LC12:
 3078 00f8 436F7274 		.ascii	"Cortex-M4F\000"
 3078      65782D4D 
 3078      344600
 3079 0103 00       		.space	1
ARM GAS  C:\Users\mathi\AppData\Local\Temp\ccRLxsF0.s 			page 56


 3080              	.LC13:
 3081 0104 2A2A2A20 		.ascii	"*** Port Info:    \000"
 3081      506F7274 
 3081      20496E66 
 3081      6F3A2020 
 3081      202000
 3082 0117 00       		.space	1
 3083              	.LC14:
 3084 0118 41647661 		.ascii	"Advanced kernel mode\000"
 3084      6E636564 
 3084      206B6572 
 3084      6E656C20 
 3084      6D6F6465 
 3085 012d 000000   		.space	3
 3086              	.LC15:
 3087 0130 2A2A2A20 		.ascii	"*** Platform:     \000"
 3087      506C6174 
 3087      666F726D 
 3087      3A202020 
 3087      202000
 3088 0143 00       		.space	1
 3089              	.LC16:
 3090 0144 53544D33 		.ascii	"STM32F407 High Performance with DSP and FPU\000"
 3090      32463430 
 3090      37204869 
 3090      67682050 
 3090      6572666F 
 3091              	.LC17:
 3092 0170 2A2A2A20 		.ascii	"*** Test Board:   \000"
 3092      54657374 
 3092      20426F61 
 3092      72643A20 
 3092      202000
 3093 0183 00       		.space	1
 3094              	.LC18:
 3095 0184 47435472 		.ascii	"GCTronic-MobotsEPFL e-puck V2.0_F\000"
 3095      6F6E6963 
 3095      2D4D6F62 
 3095      6F747345 
 3095      50464C20 
 3096 01a6 0000     		.space	2
 3097              	.LC19:
 3098 01a8 2D2D2D20 		.ascii	"--- Test Case \000"
 3098      54657374 
 3098      20436173 
 3098      652000
 3099 01b7 00       		.space	1
 3100              	.LC20:
 3101 01b8 202800   		.ascii	" (\000"
 3102 01bb 00       		.space	1
 3103              	.LC21:
 3104 01bc 2D2D2D20 		.ascii	"--- Result: FAILURE (#\000"
 3104      52657375 
 3104      6C743A20 
 3104      4641494C 
 3104      55524520 
 3105 01d3 00       		.space	1
ARM GAS  C:\Users\mathi\AppData\Local\Temp\ccRLxsF0.s 			page 57


 3106              	.LC22:
 3107 01d4 205B00   		.ascii	" [\000"
 3108 01d7 00       		.space	1
 3109              	.LC23:
 3110 01d8 5D2900   		.ascii	"])\000"
 3111 01db 00       		.space	1
 3112              	.LC24:
 3113 01dc 2D2D2D20 		.ascii	"--- Result: SUCCESS\000"
 3113      52657375 
 3113      6C743A20 
 3113      53554343 
 3113      45535300 
 3114              	.LC25:
 3115 01f0 46696E61 		.ascii	"Final result: \000"
 3115      6C207265 
 3115      73756C74 
 3115      3A2000
 3116 01ff 00       		.space	1
 3117              	.LC26:
 3118 0200 4641494C 		.ascii	"FAILURE\000"
 3118      55524500 
 3119              	.LC27:
 3120 0208 53554343 		.ascii	"SUCCESS\000"
 3120      45535300 
 3121              		.section	.rodata.__func__.7153,"a",%progbits
 3122              		.align	2
 3123              		.set	.LANCHOR3,. + 0
 3124              		.type	__func__.7153, %object
 3125              		.size	__func__.7153, 12
 3126              	__func__.7153:
 3127 0000 63685379 		.ascii	"chSysUnlock\000"
 3127      73556E6C 
 3127      6F636B00 
 3128              		.section	.rodata.patterns,"a",%progbits
 3129              		.align	2
 3130              		.set	.LANCHOR10,. + 0
 3131              		.type	patterns, %object
 3132              		.size	patterns, 52
 3133              	patterns:
 3134 0000 00000000 		.word	patternsys
 3135 0004 00000000 		.word	patternthd
 3136 0008 00000000 		.word	patternsem
 3137 000c 00000000 		.word	patternmtx
 3138 0010 00000000 		.word	patternmsg
 3139 0014 00000000 		.word	patternmbox
 3140 0018 00000000 		.word	patternevt
 3141 001c 00000000 		.word	patternheap
 3142 0020 00000000 		.word	patternpools
 3143 0024 00000000 		.word	patterndyn
 3144 0028 00000000 		.word	patternqueues
 3145 002c 00000000 		.word	patternbmk
 3146 0030 00000000 		.word	0
 3147              		.section	.rodata.test_println.str1.4,"aMS",%progbits,1
 3148              		.align	2
 3149              	.LC0:
 3150 0000 0D0A00   		.ascii	"\015\012\000"
 3151              		.section	.rodata.wa,"a",%progbits
ARM GAS  C:\Users\mathi\AppData\Local\Temp\ccRLxsF0.s 			page 58


 3152              		.align	2
 3153              		.type	wa, %object
 3154              		.size	wa, 20
 3155              	wa:
 3156 0000 00000000 		.word	test
 3157 0004 F8010000 		.word	test+504
 3158 0008 F0030000 		.word	test+1008
 3159 000c E8050000 		.word	test+1512
 3160 0010 E0070000 		.word	test+2016
 3161              		.text
 3162              	.Letext0:
 3163              		.file 6 "c:\\eclipse_e-puck2\\tools\\gcc-arm-none-eabi-7-2017-q4-major-win32\\lib\\gcc\\arm-none-e
 3164              		.file 7 "c:\\eclipse_e-puck2\\tools\\gcc-arm-none-eabi-7-2017-q4-major-win32\\arm-none-eabi\\inclu
 3165              		.file 8 "c:\\eclipse_e-puck2\\tools\\gcc-arm-none-eabi-7-2017-q4-major-win32\\arm-none-eabi\\inclu
 3166              		.file 9 "../../lib/e-puck2_main-processor/ChibiOS//os/rt/ports/ARMCMx/compilers/GCC/chtypes.h"
 3167              		.file 10 "../../lib/e-puck2_main-processor/ChibiOS//os/rt/include/chsystypes.h"
 3168              		.file 11 "../../lib/e-puck2_main-processor/ChibiOS//os/rt/include/chschd.h"
 3169              		.file 12 "../../lib/e-puck2_main-processor/ChibiOS//os/ext/CMSIS/include/core_cm4.h"
 3170              		.file 13 "../../lib/e-puck2_main-processor/ChibiOS//os/ext/CMSIS/ST/system_stm32f4xx.h"
 3171              		.file 14 "../../lib/e-puck2_main-processor/ChibiOS//os/ext/CMSIS/ST/stm32f407xx.h"
 3172              		.file 15 "../../lib/e-puck2_main-processor/ChibiOS//os/rt/ports/ARMCMx/chcore.h"
 3173              		.file 16 "../../lib/e-puck2_main-processor/ChibiOS//os/rt/ports/ARMCMx/chcore_v7m.h"
 3174              		.file 17 "../../lib/e-puck2_main-processor/ChibiOS//os/rt/include/chdebug.h"
 3175              		.file 18 "../../lib/e-puck2_main-processor/ChibiOS//os/rt/include/chtm.h"
 3176              		.file 19 "../../lib/e-puck2_main-processor/ChibiOS//os/rt/include/chstats.h"
 3177              		.file 20 "../../lib/e-puck2_main-processor/ChibiOS//os/rt/include/chsem.h"
 3178              		.file 21 "../../lib/e-puck2_main-processor/ChibiOS//os/rt/include/chmtx.h"
 3179              		.file 22 "../../lib/e-puck2_main-processor/ChibiOS//os/rt/include/chregistry.h"
 3180              		.file 23 "../../lib/e-puck2_main-processor/ChibiOS//os/rt/include/chevents.h"
 3181              		.file 24 "../../lib/e-puck2_main-processor/ChibiOS//os/rt/include/chqueues.h"
 3182              		.file 25 "../../lib/e-puck2_main-processor/ChibiOS//os/rt/include/chstreams.h"
 3183              		.file 26 "../../lib/e-puck2_main-processor/ChibiOS//os/hal/ports/STM32/STM32F4xx/stm32_dma.h"
 3184              		.file 27 "../../lib/e-puck2_main-processor/ChibiOS//os/hal/include/hal_ioblock.h"
 3185              		.file 28 "../../lib/e-puck2_main-processor/ChibiOS//os/hal/ports/STM32/LLD/GPIOv2/pal_lld.h"
 3186              		.file 29 "../../lib/e-puck2_main-processor/ChibiOS//os/hal/include/adc.h"
 3187              		.file 30 "../../lib/e-puck2_main-processor/ChibiOS//os/hal/ports/STM32/STM32F4xx/adc_lld.h"
 3188              		.file 31 "../../lib/e-puck2_main-processor/ChibiOS//os/hal/include/can.h"
 3189              		.file 32 "../../lib/e-puck2_main-processor/ChibiOS//os/hal/ports/STM32/LLD/can_lld.h"
 3190              		.file 33 "../../lib/e-puck2_main-processor/ChibiOS//os/hal/include/dac.h"
 3191              		.file 34 "../../lib/e-puck2_main-processor/ChibiOS//os/hal/ports/STM32/LLD/DACv1/dac_lld.h"
 3192              		.file 35 "../../lib/e-puck2_main-processor/ChibiOS//os/hal/include/ext.h"
 3193              		.file 36 "../../lib/e-puck2_main-processor/ChibiOS//os/hal/ports/STM32/LLD/ext_lld.h"
 3194              		.file 37 "../../lib/e-puck2_main-processor/ChibiOS//os/hal/include/gpt.h"
 3195              		.file 38 "../../lib/e-puck2_main-processor/ChibiOS//os/hal/ports/STM32/LLD/TIMv1/gpt_lld.h"
 3196              		.file 39 "../../lib/e-puck2_main-processor/ChibiOS//os/hal/ports/STM32/LLD/TIMv1/stm32_tim.h"
 3197              		.file 40 "../../lib/e-puck2_main-processor/ChibiOS//os/hal/include/i2c.h"
 3198              		.file 41 "../../lib/e-puck2_main-processor/ChibiOS//os/hal/ports/STM32/LLD/I2Cv1/i2c_lld.h"
 3199              		.file 42 "../../lib/e-puck2_main-processor/ChibiOS//os/hal/include/i2s.h"
 3200              		.file 43 "../../lib/e-puck2_main-processor/ChibiOS//os/hal/ports/STM32/LLD/SPIv1/i2s_lld.h"
 3201              		.file 44 "../../lib/e-puck2_main-processor/ChibiOS//os/hal/include/pwm.h"
 3202              		.file 45 "../../lib/e-puck2_main-processor/ChibiOS//os/hal/ports/STM32/LLD/TIMv1/pwm_lld.h"
 3203              		.file 46 "../../lib/e-puck2_main-processor/ChibiOS//os/hal/include/serial.h"
 3204              		.file 47 "../../lib/e-puck2_main-processor/ChibiOS//os/hal/ports/STM32/LLD/USARTv1/serial_lld.h"
 3205              		.file 48 "../../lib/e-puck2_main-processor/ChibiOS//os/hal/include/sdc.h"
 3206              		.file 49 "../../lib/e-puck2_main-processor/ChibiOS//os/hal/ports/STM32/LLD/sdc_lld.h"
 3207              		.file 50 "../../lib/e-puck2_main-processor/ChibiOS//os/hal/include/spi.h"
 3208              		.file 51 "../../lib/e-puck2_main-processor/ChibiOS//os/hal/ports/STM32/LLD/SPIv1/spi_lld.h"
ARM GAS  C:\Users\mathi\AppData\Local\Temp\ccRLxsF0.s 			page 59


 3209              		.file 52 "../../lib/e-puck2_main-processor/ChibiOS//os/hal/include/usb.h"
 3210              		.file 53 "../../lib/e-puck2_main-processor/ChibiOS//os/hal/ports/STM32/LLD/OTGv1/usb_lld.h"
 3211              		.file 54 "../../lib/e-puck2_main-processor/ChibiOS//os/hal/ports/STM32/LLD/OTGv1/stm32_otg.h"
 3212              		.file 55 "../../lib/e-puck2_main-processor/ChibiOS//test/rt/test.h"
 3213              		.file 56 "../../lib/e-puck2_main-processor/ChibiOS//test/rt/testsys.h"
 3214              		.file 57 "../../lib/e-puck2_main-processor/ChibiOS//test/rt/testthd.h"
 3215              		.file 58 "../../lib/e-puck2_main-processor/ChibiOS//test/rt/testsem.h"
 3216              		.file 59 "../../lib/e-puck2_main-processor/ChibiOS//test/rt/testmtx.h"
 3217              		.file 60 "../../lib/e-puck2_main-processor/ChibiOS//test/rt/testmsg.h"
 3218              		.file 61 "../../lib/e-puck2_main-processor/ChibiOS//test/rt/testmbox.h"
 3219              		.file 62 "../../lib/e-puck2_main-processor/ChibiOS//test/rt/testevt.h"
 3220              		.file 63 "../../lib/e-puck2_main-processor/ChibiOS//test/rt/testheap.h"
 3221              		.file 64 "../../lib/e-puck2_main-processor/ChibiOS//test/rt/testpools.h"
 3222              		.file 65 "../../lib/e-puck2_main-processor/ChibiOS//test/rt/testdyn.h"
 3223              		.file 66 "../../lib/e-puck2_main-processor/ChibiOS//test/rt/testqueues.h"
 3224              		.file 67 "../../lib/e-puck2_main-processor/ChibiOS//test/rt/testbmk.h"
 3225              		.section	.debug_info,"",%progbits
 3226              	.Ldebug_info0:
 3227 0000 9A4D0000 		.4byte	0x4d9a
 3228 0004 0400     		.2byte	0x4
 3229 0006 00000000 		.4byte	.Ldebug_abbrev0
 3230 000a 04       		.byte	0x4
 3231 000b 01       		.uleb128 0x1
 3232 000c 53010000 		.4byte	.LASF794
 3233 0010 0C       		.byte	0xc
 3234 0011 38180000 		.4byte	.LASF795
 3235 0015 CE110000 		.4byte	.LASF796
 3236 0019 B8020000 		.4byte	.Ldebug_ranges0+0x2b8
 3237 001d 00000000 		.4byte	0
 3238 0021 00000000 		.4byte	.Ldebug_line0
 3239 0025 02       		.uleb128 0x2
 3240 0026 04       		.byte	0x4
 3241 0027 07       		.byte	0x7
 3242 0028 2A200000 		.4byte	.LASF0
 3243 002c 03       		.uleb128 0x3
 3244 002d 04       		.byte	0x4
 3245 002e 05       		.byte	0x5
 3246 002f 696E7400 		.ascii	"int\000"
 3247 0033 04       		.uleb128 0x4
 3248 0034 980C0000 		.4byte	.LASF4
 3249 0038 06       		.byte	0x6
 3250 0039 D8       		.byte	0xd8
 3251 003a 25000000 		.4byte	0x25
 3252 003e 02       		.uleb128 0x2
 3253 003f 08       		.byte	0x8
 3254 0040 05       		.byte	0x5
 3255 0041 E91D0000 		.4byte	.LASF1
 3256 0045 02       		.uleb128 0x2
 3257 0046 08       		.byte	0x8
 3258 0047 04       		.byte	0x4
 3259 0048 33160000 		.4byte	.LASF2
 3260 004c 02       		.uleb128 0x2
 3261 004d 01       		.byte	0x1
 3262 004e 06       		.byte	0x6
 3263 004f AE120000 		.4byte	.LASF3
 3264 0053 04       		.uleb128 0x4
 3265 0054 CF000000 		.4byte	.LASF5
ARM GAS  C:\Users\mathi\AppData\Local\Temp\ccRLxsF0.s 			page 60


 3266 0058 07       		.byte	0x7
 3267 0059 2B       		.byte	0x2b
 3268 005a 5E000000 		.4byte	0x5e
 3269 005e 02       		.uleb128 0x2
 3270 005f 01       		.byte	0x1
 3271 0060 08       		.byte	0x8
 3272 0061 78090000 		.4byte	.LASF6
 3273 0065 04       		.uleb128 0x4
 3274 0066 02080000 		.4byte	.LASF7
 3275 006a 07       		.byte	0x7
 3276 006b 37       		.byte	0x37
 3277 006c 70000000 		.4byte	0x70
 3278 0070 02       		.uleb128 0x2
 3279 0071 02       		.byte	0x2
 3280 0072 05       		.byte	0x5
 3281 0073 86200000 		.4byte	.LASF8
 3282 0077 04       		.uleb128 0x4
 3283 0078 0C080000 		.4byte	.LASF9
 3284 007c 07       		.byte	0x7
 3285 007d 39       		.byte	0x39
 3286 007e 82000000 		.4byte	0x82
 3287 0082 02       		.uleb128 0x2
 3288 0083 02       		.byte	0x2
 3289 0084 07       		.byte	0x7
 3290 0085 93120000 		.4byte	.LASF10
 3291 0089 04       		.uleb128 0x4
 3292 008a 241A0000 		.4byte	.LASF11
 3293 008e 07       		.byte	0x7
 3294 008f 4D       		.byte	0x4d
 3295 0090 94000000 		.4byte	0x94
 3296 0094 02       		.uleb128 0x2
 3297 0095 04       		.byte	0x4
 3298 0096 05       		.byte	0x5
 3299 0097 CF140000 		.4byte	.LASF12
 3300 009b 04       		.uleb128 0x4
 3301 009c 2E1A0000 		.4byte	.LASF13
 3302 00a0 07       		.byte	0x7
 3303 00a1 4F       		.byte	0x4f
 3304 00a2 A6000000 		.4byte	0xa6
 3305 00a6 02       		.uleb128 0x2
 3306 00a7 04       		.byte	0x4
 3307 00a8 07       		.byte	0x7
 3308 00a9 6D160000 		.4byte	.LASF14
 3309 00ad 04       		.uleb128 0x4
 3310 00ae 440F0000 		.4byte	.LASF15
 3311 00b2 07       		.byte	0x7
 3312 00b3 69       		.byte	0x69
 3313 00b4 B8000000 		.4byte	0xb8
 3314 00b8 02       		.uleb128 0x2
 3315 00b9 08       		.byte	0x8
 3316 00ba 07       		.byte	0x7
 3317 00bb D51B0000 		.4byte	.LASF16
 3318 00bf 04       		.uleb128 0x4
 3319 00c0 B50C0000 		.4byte	.LASF17
 3320 00c4 08       		.byte	0x8
 3321 00c5 18       		.byte	0x18
 3322 00c6 53000000 		.4byte	0x53
ARM GAS  C:\Users\mathi\AppData\Local\Temp\ccRLxsF0.s 			page 61


 3323 00ca 05       		.uleb128 0x5
 3324 00cb BF000000 		.4byte	0xbf
 3325 00cf 04       		.uleb128 0x4
 3326 00d0 76120000 		.4byte	.LASF18
 3327 00d4 08       		.byte	0x8
 3328 00d5 20       		.byte	0x20
 3329 00d6 65000000 		.4byte	0x65
 3330 00da 04       		.uleb128 0x4
 3331 00db C1020000 		.4byte	.LASF19
 3332 00df 08       		.byte	0x8
 3333 00e0 24       		.byte	0x24
 3334 00e1 77000000 		.4byte	0x77
 3335 00e5 04       		.uleb128 0x4
 3336 00e6 41040000 		.4byte	.LASF20
 3337 00ea 08       		.byte	0x8
 3338 00eb 2C       		.byte	0x2c
 3339 00ec 89000000 		.4byte	0x89
 3340 00f0 06       		.uleb128 0x6
 3341 00f1 E5000000 		.4byte	0xe5
 3342 00f5 04       		.uleb128 0x4
 3343 00f6 D4150000 		.4byte	.LASF21
 3344 00fa 08       		.byte	0x8
 3345 00fb 30       		.byte	0x30
 3346 00fc 9B000000 		.4byte	0x9b
 3347 0100 06       		.uleb128 0x6
 3348 0101 F5000000 		.4byte	0xf5
 3349 0105 05       		.uleb128 0x5
 3350 0106 00010000 		.4byte	0x100
 3351 010a 04       		.uleb128 0x4
 3352 010b 980A0000 		.4byte	.LASF22
 3353 010f 08       		.byte	0x8
 3354 0110 3C       		.byte	0x3c
 3355 0111 AD000000 		.4byte	0xad
 3356 0115 04       		.uleb128 0x4
 3357 0116 1D0C0000 		.4byte	.LASF23
 3358 011a 09       		.byte	0x9
 3359 011b 45       		.byte	0x45
 3360 011c F5000000 		.4byte	0xf5
 3361 0120 04       		.uleb128 0x4
 3362 0121 46060000 		.4byte	.LASF24
 3363 0125 09       		.byte	0x9
 3364 0126 46       		.byte	0x46
 3365 0127 0A010000 		.4byte	0x10a
 3366 012b 04       		.uleb128 0x4
 3367 012c 73100000 		.4byte	.LASF25
 3368 0130 09       		.byte	0x9
 3369 0131 48       		.byte	0x48
 3370 0132 BF000000 		.4byte	0xbf
 3371 0136 04       		.uleb128 0x4
 3372 0137 CC1C0000 		.4byte	.LASF26
 3373 013b 09       		.byte	0x9
 3374 013c 49       		.byte	0x49
 3375 013d BF000000 		.4byte	0xbf
 3376 0141 04       		.uleb128 0x4
 3377 0142 32100000 		.4byte	.LASF27
 3378 0146 09       		.byte	0x9
 3379 0147 4A       		.byte	0x4a
ARM GAS  C:\Users\mathi\AppData\Local\Temp\ccRLxsF0.s 			page 62


 3380 0148 BF000000 		.4byte	0xbf
 3381 014c 04       		.uleb128 0x4
 3382 014d C4110000 		.4byte	.LASF28
 3383 0151 09       		.byte	0x9
 3384 0152 4B       		.byte	0x4b
 3385 0153 BF000000 		.4byte	0xbf
 3386 0157 04       		.uleb128 0x4
 3387 0158 29070000 		.4byte	.LASF29
 3388 015c 09       		.byte	0x9
 3389 015d 4C       		.byte	0x4c
 3390 015e F5000000 		.4byte	0xf5
 3391 0162 04       		.uleb128 0x4
 3392 0163 5C000000 		.4byte	.LASF30
 3393 0167 09       		.byte	0x9
 3394 0168 4D       		.byte	0x4d
 3395 0169 E5000000 		.4byte	0xe5
 3396 016d 04       		.uleb128 0x4
 3397 016e 48160000 		.4byte	.LASF31
 3398 0172 09       		.byte	0x9
 3399 0173 4F       		.byte	0x4f
 3400 0174 F5000000 		.4byte	0xf5
 3401 0178 04       		.uleb128 0x4
 3402 0179 571E0000 		.4byte	.LASF32
 3403 017d 09       		.byte	0x9
 3404 017e 50       		.byte	0x50
 3405 017f F5000000 		.4byte	0xf5
 3406 0183 04       		.uleb128 0x4
 3407 0184 8A180000 		.4byte	.LASF33
 3408 0188 09       		.byte	0x9
 3409 0189 51       		.byte	0x51
 3410 018a E5000000 		.4byte	0xe5
 3411 018e 04       		.uleb128 0x4
 3412 018f CD120000 		.4byte	.LASF34
 3413 0193 09       		.byte	0x9
 3414 0194 52       		.byte	0x52
 3415 0195 F5000000 		.4byte	0xf5
 3416 0199 04       		.uleb128 0x4
 3417 019a 55040000 		.4byte	.LASF35
 3418 019e 0A       		.byte	0xa
 3419 019f 33       		.byte	0x33
 3420 01a0 F5000000 		.4byte	0xf5
 3421 01a4 06       		.uleb128 0x6
 3422 01a5 99010000 		.4byte	0x199
 3423 01a9 04       		.uleb128 0x4
 3424 01aa F9030000 		.4byte	.LASF36
 3425 01ae 0A       		.byte	0xa
 3426 01af 3F       		.byte	0x3f
 3427 01b0 B4010000 		.4byte	0x1b4
 3428 01b4 07       		.uleb128 0x7
 3429 01b5 B0090000 		.4byte	.LASF60
 3430 01b9 68       		.byte	0x68
 3431 01ba 0B       		.byte	0xb
 3432 01bb C2       		.byte	0xc2
 3433 01bc D2020000 		.4byte	0x2d2
 3434 01c0 08       		.uleb128 0x8
 3435 01c1 D50F0000 		.4byte	.LASF37
 3436 01c5 0B       		.byte	0xb
ARM GAS  C:\Users\mathi\AppData\Local\Temp\ccRLxsF0.s 			page 63


 3437 01c6 C3       		.byte	0xc3
 3438 01c7 DD020000 		.4byte	0x2dd
 3439 01cb 00       		.byte	0
 3440 01cc 08       		.uleb128 0x8
 3441 01cd D50C0000 		.4byte	.LASF38
 3442 01d1 0B       		.byte	0xb
 3443 01d2 C5       		.byte	0xc5
 3444 01d3 DD020000 		.4byte	0x2dd
 3445 01d7 04       		.byte	0x4
 3446 01d8 08       		.uleb128 0x8
 3447 01d9 2D0F0000 		.4byte	.LASF39
 3448 01dd 0B       		.byte	0xb
 3449 01de C7       		.byte	0xc7
 3450 01df 57010000 		.4byte	0x157
 3451 01e3 08       		.byte	0x8
 3452 01e4 08       		.uleb128 0x8
 3453 01e5 390A0000 		.4byte	.LASF40
 3454 01e9 0B       		.byte	0xb
 3455 01ea C8       		.byte	0xc8
 3456 01eb EC0C0000 		.4byte	0xcec
 3457 01ef 0C       		.byte	0xc
 3458 01f0 08       		.uleb128 0x8
 3459 01f1 39030000 		.4byte	.LASF41
 3460 01f5 0B       		.byte	0xb
 3461 01f6 CA       		.byte	0xca
 3462 01f7 DD020000 		.4byte	0x2dd
 3463 01fb 10       		.byte	0x10
 3464 01fc 08       		.uleb128 0x8
 3465 01fd E11E0000 		.4byte	.LASF42
 3466 0201 0B       		.byte	0xb
 3467 0202 CB       		.byte	0xcb
 3468 0203 DD020000 		.4byte	0x2dd
 3469 0207 14       		.byte	0x14
 3470 0208 08       		.uleb128 0x8
 3471 0209 2E1D0000 		.4byte	.LASF43
 3472 020d 0B       		.byte	0xb
 3473 020e D2       		.byte	0xd2
 3474 020f 62100000 		.4byte	0x1062
 3475 0213 18       		.byte	0x18
 3476 0214 08       		.uleb128 0x8
 3477 0215 7F180000 		.4byte	.LASF44
 3478 0219 0B       		.byte	0xb
 3479 021a D8       		.byte	0xd8
 3480 021b 79100000 		.4byte	0x1079
 3481 021f 1C       		.byte	0x1c
 3482 0220 08       		.uleb128 0x8
 3483 0221 11210000 		.4byte	.LASF45
 3484 0225 0B       		.byte	0xb
 3485 0226 DD       		.byte	0xdd
 3486 0227 36010000 		.4byte	0x136
 3487 022b 20       		.byte	0x20
 3488 022c 08       		.uleb128 0x8
 3489 022d 6A1C0000 		.4byte	.LASF46
 3490 0231 0B       		.byte	0xb
 3491 0232 E1       		.byte	0xe1
 3492 0233 2B010000 		.4byte	0x12b
 3493 0237 21       		.byte	0x21
ARM GAS  C:\Users\mathi\AppData\Local\Temp\ccRLxsF0.s 			page 64


 3494 0238 08       		.uleb128 0x8
 3495 0239 AE140000 		.4byte	.LASF47
 3496 023d 0B       		.byte	0xb
 3497 023e E6       		.byte	0xe6
 3498 023f 41010000 		.4byte	0x141
 3499 0243 22       		.byte	0x22
 3500 0244 08       		.uleb128 0x8
 3501 0245 C3120000 		.4byte	.LASF48
 3502 0249 0B       		.byte	0xb
 3503 024a EC       		.byte	0xec
 3504 024b 4C010000 		.4byte	0x14c
 3505 024f 23       		.byte	0x23
 3506 0250 08       		.uleb128 0x8
 3507 0251 A7140000 		.4byte	.LASF49
 3508 0255 0B       		.byte	0xb
 3509 0256 F3       		.byte	0xf3
 3510 0257 A4010000 		.4byte	0x1a4
 3511 025b 24       		.byte	0x24
 3512 025c 09       		.uleb128 0x9
 3513 025d 705F7500 		.ascii	"p_u\000"
 3514 0261 0B       		.byte	0xb
 3515 0262 3101     		.2byte	0x131
 3516 0264 910F0000 		.4byte	0xf91
 3517 0268 28       		.byte	0x28
 3518 0269 0A       		.uleb128 0xa
 3519 026a A1050000 		.4byte	.LASF50
 3520 026e 0B       		.byte	0xb
 3521 026f 3601     		.2byte	0x136
 3522 0271 E3020000 		.4byte	0x2e3
 3523 0275 2C       		.byte	0x2c
 3524 0276 0A       		.uleb128 0xa
 3525 0277 35130000 		.4byte	.LASF51
 3526 027b 0B       		.byte	0xb
 3527 027c 3C01     		.2byte	0x13c
 3528 027e 07030000 		.4byte	0x307
 3529 0282 30       		.byte	0x30
 3530 0283 0A       		.uleb128 0xa
 3531 0284 45080000 		.4byte	.LASF52
 3532 0288 0B       		.byte	0xb
 3533 0289 4001     		.2byte	0x140
 3534 028b 62010000 		.4byte	0x162
 3535 028f 38       		.byte	0x38
 3536 0290 0A       		.uleb128 0xa
 3537 0291 B81A0000 		.4byte	.LASF53
 3538 0295 0B       		.byte	0xb
 3539 0296 4601     		.2byte	0x146
 3540 0298 6D010000 		.4byte	0x16d
 3541 029c 3C       		.byte	0x3c
 3542 029d 0A       		.uleb128 0xa
 3543 029e A61C0000 		.4byte	.LASF54
 3544 02a2 0B       		.byte	0xb
 3545 02a3 4D01     		.2byte	0x14d
 3546 02a5 5C100000 		.4byte	0x105c
 3547 02a9 40       		.byte	0x40
 3548 02aa 0A       		.uleb128 0xa
 3549 02ab 9A190000 		.4byte	.LASF55
 3550 02af 0B       		.byte	0xb
ARM GAS  C:\Users\mathi\AppData\Local\Temp\ccRLxsF0.s 			page 65


 3551 02b0 5101     		.2byte	0x151
 3552 02b2 57010000 		.4byte	0x157
 3553 02b6 44       		.byte	0x44
 3554 02b7 0A       		.uleb128 0xa
 3555 02b8 3A100000 		.4byte	.LASF56
 3556 02bc 0B       		.byte	0xb
 3557 02bd 5801     		.2byte	0x158
 3558 02bf BA030000 		.4byte	0x3ba
 3559 02c3 48       		.byte	0x48
 3560 02c4 0A       		.uleb128 0xa
 3561 02c5 4C210000 		.4byte	.LASF57
 3562 02c9 0B       		.byte	0xb
 3563 02ca 5E01     		.2byte	0x15e
 3564 02cc 420F0000 		.4byte	0xf42
 3565 02d0 50       		.byte	0x50
 3566 02d1 00       		.byte	0
 3567 02d2 04       		.uleb128 0x4
 3568 02d3 461F0000 		.4byte	.LASF58
 3569 02d7 0A       		.byte	0xa
 3570 02d8 44       		.byte	0x44
 3571 02d9 DD020000 		.4byte	0x2dd
 3572 02dd 0B       		.uleb128 0xb
 3573 02de 04       		.byte	0x4
 3574 02df A9010000 		.4byte	0x1a9
 3575 02e3 04       		.uleb128 0x4
 3576 02e4 E0050000 		.4byte	.LASF59
 3577 02e8 0A       		.byte	0xa
 3578 02e9 49       		.byte	0x49
 3579 02ea EE020000 		.4byte	0x2ee
 3580 02ee 07       		.uleb128 0x7
 3581 02ef 2B210000 		.4byte	.LASF61
 3582 02f3 04       		.byte	0x4
 3583 02f4 0B       		.byte	0xb
 3584 02f5 B0       		.byte	0xb0
 3585 02f6 07030000 		.4byte	0x307
 3586 02fa 08       		.uleb128 0x8
 3587 02fb D50F0000 		.4byte	.LASF37
 3588 02ff 0B       		.byte	0xb
 3589 0300 B1       		.byte	0xb1
 3590 0301 DD020000 		.4byte	0x2dd
 3591 0305 00       		.byte	0
 3592 0306 00       		.byte	0
 3593 0307 04       		.uleb128 0x4
 3594 0308 7D140000 		.4byte	.LASF62
 3595 030c 0A       		.byte	0xa
 3596 030d 50       		.byte	0x50
 3597 030e 12030000 		.4byte	0x312
 3598 0312 07       		.uleb128 0x7
 3599 0313 28030000 		.4byte	.LASF63
 3600 0317 08       		.byte	0x8
 3601 0318 0B       		.byte	0xb
 3602 0319 B7       		.byte	0xb7
 3603 031a 37030000 		.4byte	0x337
 3604 031e 08       		.uleb128 0x8
 3605 031f D50F0000 		.4byte	.LASF37
 3606 0323 0B       		.byte	0xb
 3607 0324 B8       		.byte	0xb8
ARM GAS  C:\Users\mathi\AppData\Local\Temp\ccRLxsF0.s 			page 66


 3608 0325 DD020000 		.4byte	0x2dd
 3609 0329 00       		.byte	0
 3610 032a 08       		.uleb128 0x8
 3611 032b D50C0000 		.4byte	.LASF38
 3612 032f 0B       		.byte	0xb
 3613 0330 B9       		.byte	0xb9
 3614 0331 DD020000 		.4byte	0x2dd
 3615 0335 04       		.byte	0x4
 3616 0336 00       		.byte	0
 3617 0337 04       		.uleb128 0x4
 3618 0338 A3090000 		.4byte	.LASF64
 3619 033c 0A       		.byte	0xa
 3620 033d 57       		.byte	0x57
 3621 033e 42030000 		.4byte	0x342
 3622 0342 0C       		.uleb128 0xc
 3623 0343 101A0000 		.4byte	.LASF65
 3624 0347 1C       		.byte	0x1c
 3625 0348 0B       		.byte	0xb
 3626 0349 9001     		.2byte	0x190
 3627 034b 9E030000 		.4byte	0x39e
 3628 034f 0A       		.uleb128 0xa
 3629 0350 12170000 		.4byte	.LASF66
 3630 0354 0B       		.byte	0xb
 3631 0355 9101     		.2byte	0x191
 3632 0357 07030000 		.4byte	0x307
 3633 035b 00       		.byte	0
 3634 035c 0A       		.uleb128 0xa
 3635 035d 9A1B0000 		.4byte	.LASF67
 3636 0361 0B       		.byte	0xb
 3637 0362 9201     		.2byte	0x192
 3638 0364 57010000 		.4byte	0x157
 3639 0368 08       		.byte	0x8
 3640 0369 0A       		.uleb128 0xa
 3641 036a EC0B0000 		.4byte	.LASF68
 3642 036e 0B       		.byte	0xb
 3643 036f 9401     		.2byte	0x194
 3644 0371 EC0C0000 		.4byte	0xcec
 3645 0375 0C       		.byte	0xc
 3646 0376 0A       		.uleb128 0xa
 3647 0377 5B110000 		.4byte	.LASF69
 3648 037b 0B       		.byte	0xb
 3649 037c 9701     		.2byte	0x197
 3650 037e DD020000 		.4byte	0x2dd
 3651 0382 10       		.byte	0x10
 3652 0383 0A       		.uleb128 0xa
 3653 0384 CD0C0000 		.4byte	.LASF70
 3654 0388 0B       		.byte	0xb
 3655 0389 9801     		.2byte	0x198
 3656 038b DD020000 		.4byte	0x2dd
 3657 038f 14       		.byte	0x14
 3658 0390 0A       		.uleb128 0xa
 3659 0391 5E0A0000 		.4byte	.LASF71
 3660 0395 0B       		.byte	0xb
 3661 0396 9B01     		.2byte	0x19b
 3662 0398 DD020000 		.4byte	0x2dd
 3663 039c 18       		.byte	0x18
 3664 039d 00       		.byte	0
ARM GAS  C:\Users\mathi\AppData\Local\Temp\ccRLxsF0.s 			page 67


 3665 039e 04       		.uleb128 0x4
 3666 039f 51190000 		.4byte	.LASF72
 3667 03a3 0A       		.byte	0xa
 3668 03a4 5C       		.byte	0x5c
 3669 03a5 A9030000 		.4byte	0x3a9
 3670 03a9 0B       		.uleb128 0xb
 3671 03aa 04       		.byte	0x4
 3672 03ab AF030000 		.4byte	0x3af
 3673 03af 0D       		.uleb128 0xd
 3674 03b0 BA030000 		.4byte	0x3ba
 3675 03b4 0E       		.uleb128 0xe
 3676 03b5 BA030000 		.4byte	0x3ba
 3677 03b9 00       		.byte	0
 3678 03ba 0F       		.uleb128 0xf
 3679 03bb 04       		.byte	0x4
 3680 03bc 05       		.uleb128 0x5
 3681 03bd BA030000 		.4byte	0x3ba
 3682 03c1 04       		.uleb128 0x4
 3683 03c2 D00B0000 		.4byte	.LASF73
 3684 03c6 0A       		.byte	0xa
 3685 03c7 61       		.byte	0x61
 3686 03c8 CC030000 		.4byte	0x3cc
 3687 03cc 0C       		.uleb128 0xc
 3688 03cd 591C0000 		.4byte	.LASF74
 3689 03d1 14       		.byte	0x14
 3690 03d2 0B       		.byte	0xb
 3691 03d3 6B01     		.2byte	0x16b
 3692 03d5 1B040000 		.4byte	0x41b
 3693 03d9 0A       		.uleb128 0xa
 3694 03da F20B0000 		.4byte	.LASF75
 3695 03de 0B       		.byte	0xb
 3696 03df 6C01     		.2byte	0x16c
 3697 03e1 7F100000 		.4byte	0x107f
 3698 03e5 00       		.byte	0
 3699 03e6 0A       		.uleb128 0xa
 3700 03e7 60090000 		.4byte	.LASF76
 3701 03eb 0B       		.byte	0xb
 3702 03ec 6D01     		.2byte	0x16d
 3703 03ee 7F100000 		.4byte	0x107f
 3704 03f2 04       		.byte	0x4
 3705 03f3 0A       		.uleb128 0xa
 3706 03f4 4C120000 		.4byte	.LASF77
 3707 03f8 0B       		.byte	0xb
 3708 03f9 6E01     		.2byte	0x16e
 3709 03fb 99010000 		.4byte	0x199
 3710 03ff 08       		.byte	0x8
 3711 0400 0A       		.uleb128 0xa
 3712 0401 441C0000 		.4byte	.LASF78
 3713 0405 0B       		.byte	0xb
 3714 0406 6F01     		.2byte	0x16f
 3715 0408 9E030000 		.4byte	0x39e
 3716 040c 0C       		.byte	0xc
 3717 040d 0A       		.uleb128 0xa
 3718 040e 3F0A0000 		.4byte	.LASF79
 3719 0412 0B       		.byte	0xb
 3720 0413 7101     		.2byte	0x171
 3721 0415 BA030000 		.4byte	0x3ba
ARM GAS  C:\Users\mathi\AppData\Local\Temp\ccRLxsF0.s 			page 68


 3722 0419 10       		.byte	0x10
 3723 041a 00       		.byte	0
 3724 041b 04       		.uleb128 0x4
 3725 041c 6E1D0000 		.4byte	.LASF80
 3726 0420 0A       		.byte	0xa
 3727 0421 66       		.byte	0x66
 3728 0422 26040000 		.4byte	0x426
 3729 0426 0C       		.uleb128 0xc
 3730 0427 23040000 		.4byte	.LASF81
 3731 042b 10       		.byte	0x10
 3732 042c 0B       		.byte	0xb
 3733 042d 7B01     		.2byte	0x17b
 3734 042f 68040000 		.4byte	0x468
 3735 0433 0A       		.uleb128 0xa
 3736 0434 F20B0000 		.4byte	.LASF75
 3737 0438 0B       		.byte	0xb
 3738 0439 7C01     		.2byte	0x17c
 3739 043b 7F100000 		.4byte	0x107f
 3740 043f 00       		.byte	0
 3741 0440 0A       		.uleb128 0xa
 3742 0441 60090000 		.4byte	.LASF76
 3743 0445 0B       		.byte	0xb
 3744 0446 7E01     		.2byte	0x17e
 3745 0448 7F100000 		.4byte	0x107f
 3746 044c 04       		.byte	0x4
 3747 044d 0A       		.uleb128 0xa
 3748 044e 4C120000 		.4byte	.LASF77
 3749 0452 0B       		.byte	0xb
 3750 0453 8001     		.2byte	0x180
 3751 0455 99010000 		.4byte	0x199
 3752 0459 08       		.byte	0x8
 3753 045a 0A       		.uleb128 0xa
 3754 045b 26010000 		.4byte	.LASF82
 3755 045f 0B       		.byte	0xb
 3756 0460 8201     		.2byte	0x182
 3757 0462 A4010000 		.4byte	0x1a4
 3758 0466 0C       		.byte	0xc
 3759 0467 00       		.byte	0
 3760 0468 04       		.uleb128 0x4
 3761 0469 170A0000 		.4byte	.LASF83
 3762 046d 0A       		.byte	0xa
 3763 046e 6B       		.byte	0x6b
 3764 046f 73040000 		.4byte	0x473
 3765 0473 10       		.uleb128 0x10
 3766 0474 391A0000 		.4byte	.LASF84
 3767 0478 1404     		.2byte	0x414
 3768 047a 0B       		.byte	0xb
 3769 047b A201     		.2byte	0x1a2
 3770 047d B6040000 		.4byte	0x4b6
 3771 0481 0A       		.uleb128 0xa
 3772 0482 3D110000 		.4byte	.LASF85
 3773 0486 0B       		.byte	0xb
 3774 0487 AA01     		.2byte	0x1aa
 3775 0489 68100000 		.4byte	0x1068
 3776 048d 00       		.byte	0
 3777 048e 0A       		.uleb128 0xa
 3778 048f 12110000 		.4byte	.LASF86
ARM GAS  C:\Users\mathi\AppData\Local\Temp\ccRLxsF0.s 			page 69


 3779 0493 0B       		.byte	0xb
 3780 0494 AF01     		.2byte	0x1af
 3781 0496 83010000 		.4byte	0x183
 3782 049a 04       		.byte	0x4
 3783 049b 0A       		.uleb128 0xa
 3784 049c 1F030000 		.4byte	.LASF87
 3785 04a0 0B       		.byte	0xb
 3786 04a1 B301     		.2byte	0x1b3
 3787 04a3 83010000 		.4byte	0x183
 3788 04a7 08       		.byte	0x8
 3789 04a8 0A       		.uleb128 0xa
 3790 04a9 FE130000 		.4byte	.LASF88
 3791 04ad 0B       		.byte	0xb
 3792 04ae B901     		.2byte	0x1b9
 3793 04b0 D40E0000 		.4byte	0xed4
 3794 04b4 0C       		.byte	0xc
 3795 04b5 00       		.byte	0
 3796 04b6 04       		.uleb128 0x4
 3797 04b7 C3000000 		.4byte	.LASF89
 3798 04bb 0A       		.byte	0xa
 3799 04bc 70       		.byte	0x70
 3800 04bd C1040000 		.4byte	0x4c1
 3801 04c1 10       		.uleb128 0x10
 3802 04c2 EE130000 		.4byte	.LASF90
 3803 04c6 7006     		.2byte	0x670
 3804 04c8 0B       		.byte	0xb
 3805 04c9 C201     		.2byte	0x1c2
 3806 04cb 2E050000 		.4byte	0x52e
 3807 04cf 0A       		.uleb128 0xa
 3808 04d0 DA050000 		.4byte	.LASF91
 3809 04d4 0B       		.byte	0xb
 3810 04d5 C601     		.2byte	0x1c6
 3811 04d7 37030000 		.4byte	0x337
 3812 04db 00       		.byte	0
 3813 04dc 0A       		.uleb128 0xa
 3814 04dd 86050000 		.4byte	.LASF92
 3815 04e1 0B       		.byte	0xb
 3816 04e2 CA01     		.2byte	0x1ca
 3817 04e4 1B040000 		.4byte	0x41b
 3818 04e8 1C       		.byte	0x1c
 3819 04e9 09       		.uleb128 0x9
 3820 04ea 64626700 		.ascii	"dbg\000"
 3821 04ee 0B       		.byte	0xb
 3822 04ef CE01     		.2byte	0x1ce
 3823 04f1 68040000 		.4byte	0x468
 3824 04f5 2C       		.byte	0x2c
 3825 04f6 11       		.uleb128 0x11
 3826 04f7 D8140000 		.4byte	.LASF93
 3827 04fb 0B       		.byte	0xb
 3828 04fc D201     		.2byte	0x1d2
 3829 04fe A9010000 		.4byte	0x1a9
 3830 0502 4004     		.2byte	0x440
 3831 0504 12       		.uleb128 0x12
 3832 0505 746D00   		.ascii	"tm\000"
 3833 0508 0B       		.byte	0xb
 3834 0509 D701     		.2byte	0x1d7
 3835 050b F40E0000 		.4byte	0xef4
ARM GAS  C:\Users\mathi\AppData\Local\Temp\ccRLxsF0.s 			page 70


 3836 050f A804     		.2byte	0x4a8
 3837 0511 11       		.uleb128 0x11
 3838 0512 9F0C0000 		.4byte	.LASF94
 3839 0516 0B       		.byte	0xb
 3840 0517 DD01     		.2byte	0x1dd
 3841 0519 860F0000 		.4byte	0xf86
 3842 051d B004     		.2byte	0x4b0
 3843 051f 11       		.uleb128 0x11
 3844 0520 211C0000 		.4byte	.LASF95
 3845 0524 0B       		.byte	0xb
 3846 0525 E301     		.2byte	0x1e3
 3847 0527 85100000 		.4byte	0x1085
 3848 052b E804     		.2byte	0x4e8
 3849 052d 00       		.byte	0
 3850 052e 13       		.uleb128 0x13
 3851 052f F5000000 		.4byte	0xf5
 3852 0533 3E050000 		.4byte	0x53e
 3853 0537 14       		.uleb128 0x14
 3854 0538 25000000 		.4byte	0x25
 3855 053c 01       		.byte	0x1
 3856 053d 00       		.byte	0
 3857 053e 13       		.uleb128 0x13
 3858 053f F5000000 		.4byte	0xf5
 3859 0543 4E050000 		.4byte	0x54e
 3860 0547 14       		.uleb128 0x14
 3861 0548 25000000 		.4byte	0x25
 3862 054c 07       		.byte	0x7
 3863 054d 00       		.byte	0
 3864 054e 15       		.uleb128 0x15
 3865 054f A81B0000 		.4byte	.LASF96
 3866 0553 0C       		.byte	0xc
 3867 0554 A706     		.2byte	0x6a7
 3868 0556 F0000000 		.4byte	0xf0
 3869 055a 16       		.uleb128 0x16
 3870 055b 5E130000 		.4byte	.LASF97
 3871 055f 0D       		.byte	0xd
 3872 0560 4C       		.byte	0x4c
 3873 0561 F5000000 		.4byte	0xf5
 3874 0565 17       		.uleb128 0x17
 3875 0566 50       		.byte	0x50
 3876 0567 0E       		.byte	0xe
 3877 0568 C4       		.byte	0xc4
 3878 0569 5C060000 		.4byte	0x65c
 3879 056d 18       		.uleb128 0x18
 3880 056e 535200   		.ascii	"SR\000"
 3881 0571 0E       		.byte	0xe
 3882 0572 C6       		.byte	0xc6
 3883 0573 00010000 		.4byte	0x100
 3884 0577 00       		.byte	0
 3885 0578 18       		.uleb128 0x18
 3886 0579 43523100 		.ascii	"CR1\000"
 3887 057d 0E       		.byte	0xe
 3888 057e C7       		.byte	0xc7
 3889 057f 00010000 		.4byte	0x100
 3890 0583 04       		.byte	0x4
 3891 0584 18       		.uleb128 0x18
 3892 0585 43523200 		.ascii	"CR2\000"
ARM GAS  C:\Users\mathi\AppData\Local\Temp\ccRLxsF0.s 			page 71


 3893 0589 0E       		.byte	0xe
 3894 058a C8       		.byte	0xc8
 3895 058b 00010000 		.4byte	0x100
 3896 058f 08       		.byte	0x8
 3897 0590 08       		.uleb128 0x8
 3898 0591 57030000 		.4byte	.LASF98
 3899 0595 0E       		.byte	0xe
 3900 0596 C9       		.byte	0xc9
 3901 0597 00010000 		.4byte	0x100
 3902 059b 0C       		.byte	0xc
 3903 059c 08       		.uleb128 0x8
 3904 059d 5D030000 		.4byte	.LASF99
 3905 05a1 0E       		.byte	0xe
 3906 05a2 CA       		.byte	0xca
 3907 05a3 00010000 		.4byte	0x100
 3908 05a7 10       		.byte	0x10
 3909 05a8 08       		.uleb128 0x8
 3910 05a9 460A0000 		.4byte	.LASF100
 3911 05ad 0E       		.byte	0xe
 3912 05ae CB       		.byte	0xcb
 3913 05af 00010000 		.4byte	0x100
 3914 05b3 14       		.byte	0x14
 3915 05b4 08       		.uleb128 0x8
 3916 05b5 4C0A0000 		.4byte	.LASF101
 3917 05b9 0E       		.byte	0xe
 3918 05ba CC       		.byte	0xcc
 3919 05bb 00010000 		.4byte	0x100
 3920 05bf 18       		.byte	0x18
 3921 05c0 08       		.uleb128 0x8
 3922 05c1 520A0000 		.4byte	.LASF102
 3923 05c5 0E       		.byte	0xe
 3924 05c6 CD       		.byte	0xcd
 3925 05c7 00010000 		.4byte	0x100
 3926 05cb 1C       		.byte	0x1c
 3927 05cc 08       		.uleb128 0x8
 3928 05cd 580A0000 		.4byte	.LASF103
 3929 05d1 0E       		.byte	0xe
 3930 05d2 CE       		.byte	0xce
 3931 05d3 00010000 		.4byte	0x100
 3932 05d7 20       		.byte	0x20
 3933 05d8 18       		.uleb128 0x18
 3934 05d9 48545200 		.ascii	"HTR\000"
 3935 05dd 0E       		.byte	0xe
 3936 05de CF       		.byte	0xcf
 3937 05df 00010000 		.4byte	0x100
 3938 05e3 24       		.byte	0x24
 3939 05e4 18       		.uleb128 0x18
 3940 05e5 4C545200 		.ascii	"LTR\000"
 3941 05e9 0E       		.byte	0xe
 3942 05ea D0       		.byte	0xd0
 3943 05eb 00010000 		.4byte	0x100
 3944 05ef 28       		.byte	0x28
 3945 05f0 08       		.uleb128 0x8
 3946 05f1 93100000 		.4byte	.LASF104
 3947 05f5 0E       		.byte	0xe
 3948 05f6 D1       		.byte	0xd1
 3949 05f7 00010000 		.4byte	0x100
ARM GAS  C:\Users\mathi\AppData\Local\Temp\ccRLxsF0.s 			page 72


 3950 05fb 2C       		.byte	0x2c
 3951 05fc 08       		.uleb128 0x8
 3952 05fd 98100000 		.4byte	.LASF105
 3953 0601 0E       		.byte	0xe
 3954 0602 D2       		.byte	0xd2
 3955 0603 00010000 		.4byte	0x100
 3956 0607 30       		.byte	0x30
 3957 0608 08       		.uleb128 0x8
 3958 0609 9D100000 		.4byte	.LASF106
 3959 060d 0E       		.byte	0xe
 3960 060e D3       		.byte	0xd3
 3961 060f 00010000 		.4byte	0x100
 3962 0613 34       		.byte	0x34
 3963 0614 08       		.uleb128 0x8
 3964 0615 B90B0000 		.4byte	.LASF107
 3965 0619 0E       		.byte	0xe
 3966 061a D4       		.byte	0xd4
 3967 061b 00010000 		.4byte	0x100
 3968 061f 38       		.byte	0x38
 3969 0620 08       		.uleb128 0x8
 3970 0621 421D0000 		.4byte	.LASF108
 3971 0625 0E       		.byte	0xe
 3972 0626 D5       		.byte	0xd5
 3973 0627 00010000 		.4byte	0x100
 3974 062b 3C       		.byte	0x3c
 3975 062c 08       		.uleb128 0x8
 3976 062d 471D0000 		.4byte	.LASF109
 3977 0631 0E       		.byte	0xe
 3978 0632 D6       		.byte	0xd6
 3979 0633 00010000 		.4byte	0x100
 3980 0637 40       		.byte	0x40
 3981 0638 08       		.uleb128 0x8
 3982 0639 4C1D0000 		.4byte	.LASF110
 3983 063d 0E       		.byte	0xe
 3984 063e D7       		.byte	0xd7
 3985 063f 00010000 		.4byte	0x100
 3986 0643 44       		.byte	0x44
 3987 0644 08       		.uleb128 0x8
 3988 0645 511D0000 		.4byte	.LASF111
 3989 0649 0E       		.byte	0xe
 3990 064a D8       		.byte	0xd8
 3991 064b 00010000 		.4byte	0x100
 3992 064f 48       		.byte	0x48
 3993 0650 18       		.uleb128 0x18
 3994 0651 445200   		.ascii	"DR\000"
 3995 0654 0E       		.byte	0xe
 3996 0655 D9       		.byte	0xd9
 3997 0656 00010000 		.4byte	0x100
 3998 065a 4C       		.byte	0x4c
 3999 065b 00       		.byte	0
 4000 065c 04       		.uleb128 0x4
 4001 065d 87120000 		.4byte	.LASF112
 4002 0661 0E       		.byte	0xe
 4003 0662 DA       		.byte	0xda
 4004 0663 65050000 		.4byte	0x565
 4005 0667 17       		.uleb128 0x17
 4006 0668 10       		.byte	0x10
ARM GAS  C:\Users\mathi\AppData\Local\Temp\ccRLxsF0.s 			page 73


 4007 0669 0E       		.byte	0xe
 4008 066a E9       		.byte	0xe9
 4009 066b A0060000 		.4byte	0x6a0
 4010 066f 18       		.uleb128 0x18
 4011 0670 54495200 		.ascii	"TIR\000"
 4012 0674 0E       		.byte	0xe
 4013 0675 EB       		.byte	0xeb
 4014 0676 00010000 		.4byte	0x100
 4015 067a 00       		.byte	0
 4016 067b 08       		.uleb128 0x8
 4017 067c CE0E0000 		.4byte	.LASF113
 4018 0680 0E       		.byte	0xe
 4019 0681 EC       		.byte	0xec
 4020 0682 00010000 		.4byte	0x100
 4021 0686 04       		.byte	0x4
 4022 0687 08       		.uleb128 0x8
 4023 0688 CA140000 		.4byte	.LASF114
 4024 068c 0E       		.byte	0xe
 4025 068d ED       		.byte	0xed
 4026 068e 00010000 		.4byte	0x100
 4027 0692 08       		.byte	0x8
 4028 0693 08       		.uleb128 0x8
 4029 0694 D4120000 		.4byte	.LASF115
 4030 0698 0E       		.byte	0xe
 4031 0699 EE       		.byte	0xee
 4032 069a 00010000 		.4byte	0x100
 4033 069e 0C       		.byte	0xc
 4034 069f 00       		.byte	0
 4035 06a0 04       		.uleb128 0x4
 4036 06a1 C4050000 		.4byte	.LASF116
 4037 06a5 0E       		.byte	0xe
 4038 06a6 EF       		.byte	0xef
 4039 06a7 67060000 		.4byte	0x667
 4040 06ab 17       		.uleb128 0x17
 4041 06ac 10       		.byte	0x10
 4042 06ad 0E       		.byte	0xe
 4043 06ae F5       		.byte	0xf5
 4044 06af E4060000 		.4byte	0x6e4
 4045 06b3 18       		.uleb128 0x18
 4046 06b4 52495200 		.ascii	"RIR\000"
 4047 06b8 0E       		.byte	0xe
 4048 06b9 F7       		.byte	0xf7
 4049 06ba 00010000 		.4byte	0x100
 4050 06be 00       		.byte	0
 4051 06bf 08       		.uleb128 0x8
 4052 06c0 E6190000 		.4byte	.LASF117
 4053 06c4 0E       		.byte	0xe
 4054 06c5 F8       		.byte	0xf8
 4055 06c6 00010000 		.4byte	0x100
 4056 06ca 04       		.byte	0x4
 4057 06cb 08       		.uleb128 0x8
 4058 06cc 01160000 		.4byte	.LASF118
 4059 06d0 0E       		.byte	0xe
 4060 06d1 F9       		.byte	0xf9
 4061 06d2 00010000 		.4byte	0x100
 4062 06d6 08       		.byte	0x8
 4063 06d7 08       		.uleb128 0x8
ARM GAS  C:\Users\mathi\AppData\Local\Temp\ccRLxsF0.s 			page 74


 4064 06d8 DB130000 		.4byte	.LASF119
 4065 06dc 0E       		.byte	0xe
 4066 06dd FA       		.byte	0xfa
 4067 06de 00010000 		.4byte	0x100
 4068 06e2 0C       		.byte	0xc
 4069 06e3 00       		.byte	0
 4070 06e4 04       		.uleb128 0x4
 4071 06e5 5A190000 		.4byte	.LASF120
 4072 06e9 0E       		.byte	0xe
 4073 06ea FB       		.byte	0xfb
 4074 06eb AB060000 		.4byte	0x6ab
 4075 06ef 19       		.uleb128 0x19
 4076 06f0 08       		.byte	0x8
 4077 06f1 0E       		.byte	0xe
 4078 06f2 0101     		.2byte	0x101
 4079 06f4 13070000 		.4byte	0x713
 4080 06f8 09       		.uleb128 0x9
 4081 06f9 46523100 		.ascii	"FR1\000"
 4082 06fd 0E       		.byte	0xe
 4083 06fe 0301     		.2byte	0x103
 4084 0700 00010000 		.4byte	0x100
 4085 0704 00       		.byte	0
 4086 0705 09       		.uleb128 0x9
 4087 0706 46523200 		.ascii	"FR2\000"
 4088 070a 0E       		.byte	0xe
 4089 070b 0401     		.2byte	0x104
 4090 070d 00010000 		.4byte	0x100
 4091 0711 04       		.byte	0x4
 4092 0712 00       		.byte	0
 4093 0713 1A       		.uleb128 0x1a
 4094 0714 DE0E0000 		.4byte	.LASF121
 4095 0718 0E       		.byte	0xe
 4096 0719 0501     		.2byte	0x105
 4097 071b EF060000 		.4byte	0x6ef
 4098 071f 1B       		.uleb128 0x1b
 4099 0720 2003     		.2byte	0x320
 4100 0722 0E       		.byte	0xe
 4101 0723 0B01     		.2byte	0x10b
 4102 0725 55080000 		.4byte	0x855
 4103 0729 09       		.uleb128 0x9
 4104 072a 4D435200 		.ascii	"MCR\000"
 4105 072e 0E       		.byte	0xe
 4106 072f 0D01     		.2byte	0x10d
 4107 0731 00010000 		.4byte	0x100
 4108 0735 00       		.byte	0
 4109 0736 09       		.uleb128 0x9
 4110 0737 4D535200 		.ascii	"MSR\000"
 4111 073b 0E       		.byte	0xe
 4112 073c 0E01     		.2byte	0x10e
 4113 073e 00010000 		.4byte	0x100
 4114 0742 04       		.byte	0x4
 4115 0743 09       		.uleb128 0x9
 4116 0744 54535200 		.ascii	"TSR\000"
 4117 0748 0E       		.byte	0xe
 4118 0749 0F01     		.2byte	0x10f
 4119 074b 00010000 		.4byte	0x100
 4120 074f 08       		.byte	0x8
ARM GAS  C:\Users\mathi\AppData\Local\Temp\ccRLxsF0.s 			page 75


 4121 0750 0A       		.uleb128 0xa
 4122 0751 830D0000 		.4byte	.LASF122
 4123 0755 0E       		.byte	0xe
 4124 0756 1001     		.2byte	0x110
 4125 0758 00010000 		.4byte	0x100
 4126 075c 0C       		.byte	0xc
 4127 075d 0A       		.uleb128 0xa
 4128 075e 130E0000 		.4byte	.LASF123
 4129 0762 0E       		.byte	0xe
 4130 0763 1101     		.2byte	0x111
 4131 0765 00010000 		.4byte	0x100
 4132 0769 10       		.byte	0x10
 4133 076a 09       		.uleb128 0x9
 4134 076b 49455200 		.ascii	"IER\000"
 4135 076f 0E       		.byte	0xe
 4136 0770 1201     		.2byte	0x112
 4137 0772 00010000 		.4byte	0x100
 4138 0776 14       		.byte	0x14
 4139 0777 09       		.uleb128 0x9
 4140 0778 45535200 		.ascii	"ESR\000"
 4141 077c 0E       		.byte	0xe
 4142 077d 1301     		.2byte	0x113
 4143 077f 00010000 		.4byte	0x100
 4144 0783 18       		.byte	0x18
 4145 0784 09       		.uleb128 0x9
 4146 0785 42545200 		.ascii	"BTR\000"
 4147 0789 0E       		.byte	0xe
 4148 078a 1401     		.2byte	0x114
 4149 078c 00010000 		.4byte	0x100
 4150 0790 1C       		.byte	0x1c
 4151 0791 0A       		.uleb128 0xa
 4152 0792 D61A0000 		.4byte	.LASF124
 4153 0796 0E       		.byte	0xe
 4154 0797 1501     		.2byte	0x115
 4155 0799 55080000 		.4byte	0x855
 4156 079d 20       		.byte	0x20
 4157 079e 11       		.uleb128 0x11
 4158 079f A70F0000 		.4byte	.LASF125
 4159 07a3 0E       		.byte	0xe
 4160 07a4 1601     		.2byte	0x116
 4161 07a6 65080000 		.4byte	0x865
 4162 07aa 8001     		.2byte	0x180
 4163 07ac 11       		.uleb128 0x11
 4164 07ad 6E1E0000 		.4byte	.LASF126
 4165 07b1 0E       		.byte	0xe
 4166 07b2 1701     		.2byte	0x117
 4167 07b4 75080000 		.4byte	0x875
 4168 07b8 B001     		.2byte	0x1b0
 4169 07ba 11       		.uleb128 0x11
 4170 07bb E01A0000 		.4byte	.LASF127
 4171 07bf 0E       		.byte	0xe
 4172 07c0 1801     		.2byte	0x118
 4173 07c2 85080000 		.4byte	0x885
 4174 07c6 D001     		.2byte	0x1d0
 4175 07c8 12       		.uleb128 0x12
 4176 07c9 464D5200 		.ascii	"FMR\000"
 4177 07cd 0E       		.byte	0xe
ARM GAS  C:\Users\mathi\AppData\Local\Temp\ccRLxsF0.s 			page 76


 4178 07ce 1901     		.2byte	0x119
 4179 07d0 00010000 		.4byte	0x100
 4180 07d4 0002     		.2byte	0x200
 4181 07d6 11       		.uleb128 0x11
 4182 07d7 B80A0000 		.4byte	.LASF128
 4183 07db 0E       		.byte	0xe
 4184 07dc 1A01     		.2byte	0x11a
 4185 07de 00010000 		.4byte	0x100
 4186 07e2 0402     		.2byte	0x204
 4187 07e4 11       		.uleb128 0x11
 4188 07e5 EA1A0000 		.4byte	.LASF129
 4189 07e9 0E       		.byte	0xe
 4190 07ea 1B01     		.2byte	0x11b
 4191 07ec F5000000 		.4byte	0xf5
 4192 07f0 0802     		.2byte	0x208
 4193 07f2 11       		.uleb128 0x11
 4194 07f3 C71C0000 		.4byte	.LASF130
 4195 07f7 0E       		.byte	0xe
 4196 07f8 1C01     		.2byte	0x11c
 4197 07fa 00010000 		.4byte	0x100
 4198 07fe 0C02     		.2byte	0x20c
 4199 0800 11       		.uleb128 0x11
 4200 0801 F41A0000 		.4byte	.LASF131
 4201 0805 0E       		.byte	0xe
 4202 0806 1D01     		.2byte	0x11d
 4203 0808 F5000000 		.4byte	0xf5
 4204 080c 1002     		.2byte	0x210
 4205 080e 11       		.uleb128 0x11
 4206 080f 5A160000 		.4byte	.LASF132
 4207 0813 0E       		.byte	0xe
 4208 0814 1E01     		.2byte	0x11e
 4209 0816 00010000 		.4byte	0x100
 4210 081a 1402     		.2byte	0x214
 4211 081c 11       		.uleb128 0x11
 4212 081d FE1A0000 		.4byte	.LASF133
 4213 0821 0E       		.byte	0xe
 4214 0822 1F01     		.2byte	0x11f
 4215 0824 F5000000 		.4byte	0xf5
 4216 0828 1802     		.2byte	0x218
 4217 082a 11       		.uleb128 0x11
 4218 082b B9040000 		.4byte	.LASF134
 4219 082f 0E       		.byte	0xe
 4220 0830 2001     		.2byte	0x120
 4221 0832 00010000 		.4byte	0x100
 4222 0836 1C02     		.2byte	0x21c
 4223 0838 11       		.uleb128 0x11
 4224 0839 081B0000 		.4byte	.LASF135
 4225 083d 0E       		.byte	0xe
 4226 083e 2101     		.2byte	0x121
 4227 0840 3E050000 		.4byte	0x53e
 4228 0844 2002     		.2byte	0x220
 4229 0846 11       		.uleb128 0x11
 4230 0847 76060000 		.4byte	.LASF136
 4231 084b 0E       		.byte	0xe
 4232 084c 2201     		.2byte	0x122
 4233 084e 95080000 		.4byte	0x895
 4234 0852 4002     		.2byte	0x240
ARM GAS  C:\Users\mathi\AppData\Local\Temp\ccRLxsF0.s 			page 77


 4235 0854 00       		.byte	0
 4236 0855 13       		.uleb128 0x13
 4237 0856 F5000000 		.4byte	0xf5
 4238 085a 65080000 		.4byte	0x865
 4239 085e 14       		.uleb128 0x14
 4240 085f 25000000 		.4byte	0x25
 4241 0863 57       		.byte	0x57
 4242 0864 00       		.byte	0
 4243 0865 13       		.uleb128 0x13
 4244 0866 A0060000 		.4byte	0x6a0
 4245 086a 75080000 		.4byte	0x875
 4246 086e 14       		.uleb128 0x14
 4247 086f 25000000 		.4byte	0x25
 4248 0873 02       		.byte	0x2
 4249 0874 00       		.byte	0
 4250 0875 13       		.uleb128 0x13
 4251 0876 E4060000 		.4byte	0x6e4
 4252 087a 85080000 		.4byte	0x885
 4253 087e 14       		.uleb128 0x14
 4254 087f 25000000 		.4byte	0x25
 4255 0883 01       		.byte	0x1
 4256 0884 00       		.byte	0
 4257 0885 13       		.uleb128 0x13
 4258 0886 F5000000 		.4byte	0xf5
 4259 088a 95080000 		.4byte	0x895
 4260 088e 14       		.uleb128 0x14
 4261 088f 25000000 		.4byte	0x25
 4262 0893 0B       		.byte	0xb
 4263 0894 00       		.byte	0
 4264 0895 13       		.uleb128 0x13
 4265 0896 13070000 		.4byte	0x713
 4266 089a A5080000 		.4byte	0x8a5
 4267 089e 14       		.uleb128 0x14
 4268 089f 25000000 		.4byte	0x25
 4269 08a3 1B       		.byte	0x1b
 4270 08a4 00       		.byte	0
 4271 08a5 1A       		.uleb128 0x1a
 4272 08a6 5F0C0000 		.4byte	.LASF137
 4273 08aa 0E       		.byte	0xe
 4274 08ab 2301     		.2byte	0x123
 4275 08ad 1F070000 		.4byte	0x71f
 4276 08b1 19       		.uleb128 0x19
 4277 08b2 38       		.byte	0x38
 4278 08b3 0E       		.byte	0xe
 4279 08b4 3601     		.2byte	0x136
 4280 08b6 6F090000 		.4byte	0x96f
 4281 08ba 09       		.uleb128 0x9
 4282 08bb 435200   		.ascii	"CR\000"
 4283 08be 0E       		.byte	0xe
 4284 08bf 3801     		.2byte	0x138
 4285 08c1 00010000 		.4byte	0x100
 4286 08c5 00       		.byte	0
 4287 08c6 0A       		.uleb128 0xa
 4288 08c7 B3130000 		.4byte	.LASF138
 4289 08cb 0E       		.byte	0xe
 4290 08cc 3901     		.2byte	0x139
 4291 08ce 00010000 		.4byte	0x100
ARM GAS  C:\Users\mathi\AppData\Local\Temp\ccRLxsF0.s 			page 78


 4292 08d2 04       		.byte	0x4
 4293 08d3 0A       		.uleb128 0xa
 4294 08d4 241B0000 		.4byte	.LASF139
 4295 08d8 0E       		.byte	0xe
 4296 08d9 3A01     		.2byte	0x13a
 4297 08db 00010000 		.4byte	0x100
 4298 08df 08       		.byte	0x8
 4299 08e0 0A       		.uleb128 0xa
 4300 08e1 13180000 		.4byte	.LASF140
 4301 08e5 0E       		.byte	0xe
 4302 08e6 3B01     		.2byte	0x13b
 4303 08e8 00010000 		.4byte	0x100
 4304 08ec 0C       		.byte	0xc
 4305 08ed 0A       		.uleb128 0xa
 4306 08ee 260A0000 		.4byte	.LASF141
 4307 08f2 0E       		.byte	0xe
 4308 08f3 3C01     		.2byte	0x13c
 4309 08f5 00010000 		.4byte	0x100
 4310 08f9 10       		.byte	0x10
 4311 08fa 0A       		.uleb128 0xa
 4312 08fb 2C1B0000 		.4byte	.LASF142
 4313 08ff 0E       		.byte	0xe
 4314 0900 3D01     		.2byte	0x13d
 4315 0902 00010000 		.4byte	0x100
 4316 0906 14       		.byte	0x14
 4317 0907 0A       		.uleb128 0xa
 4318 0908 1B180000 		.4byte	.LASF143
 4319 090c 0E       		.byte	0xe
 4320 090d 3E01     		.2byte	0x13e
 4321 090f 00010000 		.4byte	0x100
 4322 0913 18       		.byte	0x18
 4323 0914 0A       		.uleb128 0xa
 4324 0915 2D0A0000 		.4byte	.LASF144
 4325 0919 0E       		.byte	0xe
 4326 091a 3F01     		.2byte	0x13f
 4327 091c 00010000 		.4byte	0x100
 4328 0920 1C       		.byte	0x1c
 4329 0921 0A       		.uleb128 0xa
 4330 0922 731B0000 		.4byte	.LASF145
 4331 0926 0E       		.byte	0xe
 4332 0927 4001     		.2byte	0x140
 4333 0929 00010000 		.4byte	0x100
 4334 092d 20       		.byte	0x20
 4335 092e 0A       		.uleb128 0xa
 4336 092f 30180000 		.4byte	.LASF146
 4337 0933 0E       		.byte	0xe
 4338 0934 4101     		.2byte	0x141
 4339 0936 00010000 		.4byte	0x100
 4340 093a 24       		.byte	0x24
 4341 093b 0A       		.uleb128 0xa
 4342 093c 931E0000 		.4byte	.LASF147
 4343 0940 0E       		.byte	0xe
 4344 0941 4201     		.2byte	0x142
 4345 0943 00010000 		.4byte	0x100
 4346 0947 28       		.byte	0x28
 4347 0948 0A       		.uleb128 0xa
 4348 0949 31010000 		.4byte	.LASF148
ARM GAS  C:\Users\mathi\AppData\Local\Temp\ccRLxsF0.s 			page 79


 4349 094d 0E       		.byte	0xe
 4350 094e 4301     		.2byte	0x143
 4351 0950 00010000 		.4byte	0x100
 4352 0954 2C       		.byte	0x2c
 4353 0955 0A       		.uleb128 0xa
 4354 0956 36010000 		.4byte	.LASF149
 4355 095a 0E       		.byte	0xe
 4356 095b 4401     		.2byte	0x144
 4357 095d 00010000 		.4byte	0x100
 4358 0961 30       		.byte	0x30
 4359 0962 09       		.uleb128 0x9
 4360 0963 535200   		.ascii	"SR\000"
 4361 0966 0E       		.byte	0xe
 4362 0967 4501     		.2byte	0x145
 4363 0969 00010000 		.4byte	0x100
 4364 096d 34       		.byte	0x34
 4365 096e 00       		.byte	0
 4366 096f 1A       		.uleb128 0x1a
 4367 0970 72190000 		.4byte	.LASF150
 4368 0974 0E       		.byte	0xe
 4369 0975 4601     		.2byte	0x146
 4370 0977 B1080000 		.4byte	0x8b1
 4371 097b 19       		.uleb128 0x19
 4372 097c 18       		.byte	0x18
 4373 097d 0E       		.byte	0xe
 4374 097e 6B01     		.2byte	0x16b
 4375 0980 D2090000 		.4byte	0x9d2
 4376 0984 09       		.uleb128 0x9
 4377 0985 435200   		.ascii	"CR\000"
 4378 0988 0E       		.byte	0xe
 4379 0989 6D01     		.2byte	0x16d
 4380 098b 00010000 		.4byte	0x100
 4381 098f 00       		.byte	0
 4382 0990 0A       		.uleb128 0xa
 4383 0991 0C1C0000 		.4byte	.LASF151
 4384 0995 0E       		.byte	0xe
 4385 0996 6E01     		.2byte	0x16e
 4386 0998 00010000 		.4byte	0x100
 4387 099c 04       		.byte	0x4
 4388 099d 09       		.uleb128 0x9
 4389 099e 50415200 		.ascii	"PAR\000"
 4390 09a2 0E       		.byte	0xe
 4391 09a3 6F01     		.2byte	0x16f
 4392 09a5 00010000 		.4byte	0x100
 4393 09a9 08       		.byte	0x8
 4394 09aa 0A       		.uleb128 0xa
 4395 09ab 7F040000 		.4byte	.LASF152
 4396 09af 0E       		.byte	0xe
 4397 09b0 7001     		.2byte	0x170
 4398 09b2 00010000 		.4byte	0x100
 4399 09b6 0C       		.byte	0xc
 4400 09b7 0A       		.uleb128 0xa
 4401 09b8 77080000 		.4byte	.LASF153
 4402 09bc 0E       		.byte	0xe
 4403 09bd 7101     		.2byte	0x171
 4404 09bf 00010000 		.4byte	0x100
 4405 09c3 10       		.byte	0x10
ARM GAS  C:\Users\mathi\AppData\Local\Temp\ccRLxsF0.s 			page 80


 4406 09c4 09       		.uleb128 0x9
 4407 09c5 46435200 		.ascii	"FCR\000"
 4408 09c9 0E       		.byte	0xe
 4409 09ca 7201     		.2byte	0x172
 4410 09cc 00010000 		.4byte	0x100
 4411 09d0 14       		.byte	0x14
 4412 09d1 00       		.byte	0
 4413 09d2 1A       		.uleb128 0x1a
 4414 09d3 81080000 		.4byte	.LASF154
 4415 09d7 0E       		.byte	0xe
 4416 09d8 7301     		.2byte	0x173
 4417 09da 7B090000 		.4byte	0x97b
 4418 09de 13       		.uleb128 0x13
 4419 09df 00010000 		.4byte	0x100
 4420 09e3 EE090000 		.4byte	0x9ee
 4421 09e7 14       		.uleb128 0x14
 4422 09e8 25000000 		.4byte	0x25
 4423 09ec 01       		.byte	0x1
 4424 09ed 00       		.byte	0
 4425 09ee 06       		.uleb128 0x6
 4426 09ef DE090000 		.4byte	0x9de
 4427 09f3 13       		.uleb128 0x13
 4428 09f4 00010000 		.4byte	0x100
 4429 09f8 030A0000 		.4byte	0xa03
 4430 09fc 14       		.uleb128 0x14
 4431 09fd 25000000 		.4byte	0x25
 4432 0a01 03       		.byte	0x3
 4433 0a02 00       		.byte	0
 4434 0a03 06       		.uleb128 0x6
 4435 0a04 F3090000 		.4byte	0x9f3
 4436 0a08 19       		.uleb128 0x19
 4437 0a09 28       		.byte	0x28
 4438 0a0a 0E       		.byte	0xe
 4439 0a0b 3F02     		.2byte	0x23f
 4440 0a0d 930A0000 		.4byte	0xa93
 4441 0a11 09       		.uleb128 0x9
 4442 0a12 43523100 		.ascii	"CR1\000"
 4443 0a16 0E       		.byte	0xe
 4444 0a17 4102     		.2byte	0x241
 4445 0a19 00010000 		.4byte	0x100
 4446 0a1d 00       		.byte	0
 4447 0a1e 09       		.uleb128 0x9
 4448 0a1f 43523200 		.ascii	"CR2\000"
 4449 0a23 0E       		.byte	0xe
 4450 0a24 4202     		.2byte	0x242
 4451 0a26 00010000 		.4byte	0x100
 4452 0a2a 04       		.byte	0x4
 4453 0a2b 0A       		.uleb128 0xa
 4454 0a2c 42210000 		.4byte	.LASF155
 4455 0a30 0E       		.byte	0xe
 4456 0a31 4302     		.2byte	0x243
 4457 0a33 00010000 		.4byte	0x100
 4458 0a37 08       		.byte	0x8
 4459 0a38 0A       		.uleb128 0xa
 4460 0a39 47210000 		.4byte	.LASF156
 4461 0a3d 0E       		.byte	0xe
 4462 0a3e 4402     		.2byte	0x244
ARM GAS  C:\Users\mathi\AppData\Local\Temp\ccRLxsF0.s 			page 81


 4463 0a40 00010000 		.4byte	0x100
 4464 0a44 0C       		.byte	0xc
 4465 0a45 09       		.uleb128 0x9
 4466 0a46 445200   		.ascii	"DR\000"
 4467 0a49 0E       		.byte	0xe
 4468 0a4a 4502     		.2byte	0x245
 4469 0a4c 00010000 		.4byte	0x100
 4470 0a50 10       		.byte	0x10
 4471 0a51 09       		.uleb128 0x9
 4472 0a52 53523100 		.ascii	"SR1\000"
 4473 0a56 0E       		.byte	0xe
 4474 0a57 4602     		.2byte	0x246
 4475 0a59 00010000 		.4byte	0x100
 4476 0a5d 14       		.byte	0x14
 4477 0a5e 09       		.uleb128 0x9
 4478 0a5f 53523200 		.ascii	"SR2\000"
 4479 0a63 0E       		.byte	0xe
 4480 0a64 4702     		.2byte	0x247
 4481 0a66 00010000 		.4byte	0x100
 4482 0a6a 18       		.byte	0x18
 4483 0a6b 09       		.uleb128 0x9
 4484 0a6c 43435200 		.ascii	"CCR\000"
 4485 0a70 0E       		.byte	0xe
 4486 0a71 4802     		.2byte	0x248
 4487 0a73 00010000 		.4byte	0x100
 4488 0a77 1C       		.byte	0x1c
 4489 0a78 0A       		.uleb128 0xa
 4490 0a79 92050000 		.4byte	.LASF157
 4491 0a7d 0E       		.byte	0xe
 4492 0a7e 4902     		.2byte	0x249
 4493 0a80 00010000 		.4byte	0x100
 4494 0a84 20       		.byte	0x20
 4495 0a85 0A       		.uleb128 0xa
 4496 0a86 13200000 		.4byte	.LASF158
 4497 0a8a 0E       		.byte	0xe
 4498 0a8b 4A02     		.2byte	0x24a
 4499 0a8d 00010000 		.4byte	0x100
 4500 0a91 24       		.byte	0x24
 4501 0a92 00       		.byte	0
 4502 0a93 1A       		.uleb128 0x1a
 4503 0a94 CF130000 		.4byte	.LASF159
 4504 0a98 0E       		.byte	0xe
 4505 0a99 4B02     		.2byte	0x24b
 4506 0a9b 080A0000 		.4byte	0xa08
 4507 0a9f 19       		.uleb128 0x19
 4508 0aa0 84       		.byte	0x84
 4509 0aa1 0E       		.byte	0xe
 4510 0aa2 BF02     		.2byte	0x2bf
 4511 0aa4 AD0B0000 		.4byte	0xbad
 4512 0aa8 0A       		.uleb128 0xa
 4513 0aa9 F8130000 		.4byte	.LASF160
 4514 0aad 0E       		.byte	0xe
 4515 0aae C102     		.2byte	0x2c1
 4516 0ab0 00010000 		.4byte	0x100
 4517 0ab4 00       		.byte	0
 4518 0ab5 0A       		.uleb128 0xa
 4519 0ab6 1E1D0000 		.4byte	.LASF161
ARM GAS  C:\Users\mathi\AppData\Local\Temp\ccRLxsF0.s 			page 82


 4520 0aba 0E       		.byte	0xe
 4521 0abb C202     		.2byte	0x2c2
 4522 0abd 00010000 		.4byte	0x100
 4523 0ac1 04       		.byte	0x4
 4524 0ac2 09       		.uleb128 0x9
 4525 0ac3 41524700 		.ascii	"ARG\000"
 4526 0ac7 0E       		.byte	0xe
 4527 0ac8 C302     		.2byte	0x2c3
 4528 0aca 00010000 		.4byte	0x100
 4529 0ace 08       		.byte	0x8
 4530 0acf 09       		.uleb128 0x9
 4531 0ad0 434D4400 		.ascii	"CMD\000"
 4532 0ad4 0E       		.byte	0xe
 4533 0ad5 C402     		.2byte	0x2c4
 4534 0ad7 00010000 		.4byte	0x100
 4535 0adb 0C       		.byte	0xc
 4536 0adc 0A       		.uleb128 0xa
 4537 0add D3160000 		.4byte	.LASF162
 4538 0ae1 0E       		.byte	0xe
 4539 0ae2 C502     		.2byte	0x2c5
 4540 0ae4 05010000 		.4byte	0x105
 4541 0ae8 10       		.byte	0x10
 4542 0ae9 0A       		.uleb128 0xa
 4543 0aea A0060000 		.4byte	.LASF163
 4544 0aee 0E       		.byte	0xe
 4545 0aef C602     		.2byte	0x2c6
 4546 0af1 05010000 		.4byte	0x105
 4547 0af5 14       		.byte	0x14
 4548 0af6 0A       		.uleb128 0xa
 4549 0af7 A6060000 		.4byte	.LASF164
 4550 0afb 0E       		.byte	0xe
 4551 0afc C702     		.2byte	0x2c7
 4552 0afe 05010000 		.4byte	0x105
 4553 0b02 18       		.byte	0x18
 4554 0b03 0A       		.uleb128 0xa
 4555 0b04 AC060000 		.4byte	.LASF165
 4556 0b08 0E       		.byte	0xe
 4557 0b09 C802     		.2byte	0x2c8
 4558 0b0b 05010000 		.4byte	0x105
 4559 0b0f 1C       		.byte	0x1c
 4560 0b10 0A       		.uleb128 0xa
 4561 0b11 B2060000 		.4byte	.LASF166
 4562 0b15 0E       		.byte	0xe
 4563 0b16 C902     		.2byte	0x2c9
 4564 0b18 05010000 		.4byte	0x105
 4565 0b1c 20       		.byte	0x20
 4566 0b1d 0A       		.uleb128 0xa
 4567 0b1e 54110000 		.4byte	.LASF167
 4568 0b22 0E       		.byte	0xe
 4569 0b23 CA02     		.2byte	0x2ca
 4570 0b25 00010000 		.4byte	0x100
 4571 0b29 24       		.byte	0x24
 4572 0b2a 0A       		.uleb128 0xa
 4573 0b2b FE120000 		.4byte	.LASF168
 4574 0b2f 0E       		.byte	0xe
 4575 0b30 CB02     		.2byte	0x2cb
 4576 0b32 00010000 		.4byte	0x100
ARM GAS  C:\Users\mathi\AppData\Local\Temp\ccRLxsF0.s 			page 83


 4577 0b36 28       		.byte	0x28
 4578 0b37 0A       		.uleb128 0xa
 4579 0b38 FF1F0000 		.4byte	.LASF169
 4580 0b3c 0E       		.byte	0xe
 4581 0b3d CC02     		.2byte	0x2cc
 4582 0b3f 00010000 		.4byte	0x100
 4583 0b43 2C       		.byte	0x2c
 4584 0b44 0A       		.uleb128 0xa
 4585 0b45 3B210000 		.4byte	.LASF170
 4586 0b49 0E       		.byte	0xe
 4587 0b4a CD02     		.2byte	0x2cd
 4588 0b4c 05010000 		.4byte	0x105
 4589 0b50 30       		.byte	0x30
 4590 0b51 09       		.uleb128 0x9
 4591 0b52 53544100 		.ascii	"STA\000"
 4592 0b56 0E       		.byte	0xe
 4593 0b57 CE02     		.2byte	0x2ce
 4594 0b59 05010000 		.4byte	0x105
 4595 0b5d 34       		.byte	0x34
 4596 0b5e 09       		.uleb128 0x9
 4597 0b5f 49435200 		.ascii	"ICR\000"
 4598 0b63 0E       		.byte	0xe
 4599 0b64 CF02     		.2byte	0x2cf
 4600 0b66 00010000 		.4byte	0x100
 4601 0b6a 38       		.byte	0x38
 4602 0b6b 0A       		.uleb128 0xa
 4603 0b6c 97020000 		.4byte	.LASF171
 4604 0b70 0E       		.byte	0xe
 4605 0b71 D002     		.2byte	0x2d0
 4606 0b73 00010000 		.4byte	0x100
 4607 0b77 3C       		.byte	0x3c
 4608 0b78 0A       		.uleb128 0xa
 4609 0b79 D61A0000 		.4byte	.LASF124
 4610 0b7d 0E       		.byte	0xe
 4611 0b7e D102     		.2byte	0x2d1
 4612 0b80 2E050000 		.4byte	0x52e
 4613 0b84 40       		.byte	0x40
 4614 0b85 0A       		.uleb128 0xa
 4615 0b86 2C120000 		.4byte	.LASF172
 4616 0b8a 0E       		.byte	0xe
 4617 0b8b D202     		.2byte	0x2d2
 4618 0b8d 05010000 		.4byte	0x105
 4619 0b91 48       		.byte	0x48
 4620 0b92 0A       		.uleb128 0xa
 4621 0b93 E01A0000 		.4byte	.LASF127
 4622 0b97 0E       		.byte	0xe
 4623 0b98 D302     		.2byte	0x2d3
 4624 0b9a AD0B0000 		.4byte	0xbad
 4625 0b9e 4C       		.byte	0x4c
 4626 0b9f 0A       		.uleb128 0xa
 4627 0ba0 86090000 		.4byte	.LASF173
 4628 0ba4 0E       		.byte	0xe
 4629 0ba5 D402     		.2byte	0x2d4
 4630 0ba7 00010000 		.4byte	0x100
 4631 0bab 80       		.byte	0x80
 4632 0bac 00       		.byte	0
 4633 0bad 13       		.uleb128 0x13
ARM GAS  C:\Users\mathi\AppData\Local\Temp\ccRLxsF0.s 			page 84


 4634 0bae F5000000 		.4byte	0xf5
 4635 0bb2 BD0B0000 		.4byte	0xbbd
 4636 0bb6 14       		.uleb128 0x14
 4637 0bb7 25000000 		.4byte	0x25
 4638 0bbb 0C       		.byte	0xc
 4639 0bbc 00       		.byte	0
 4640 0bbd 1A       		.uleb128 0x1a
 4641 0bbe EC1B0000 		.4byte	.LASF174
 4642 0bc2 0E       		.byte	0xe
 4643 0bc3 D502     		.2byte	0x2d5
 4644 0bc5 9F0A0000 		.4byte	0xa9f
 4645 0bc9 19       		.uleb128 0x19
 4646 0bca 24       		.byte	0x24
 4647 0bcb 0E       		.byte	0xe
 4648 0bcc DB02     		.2byte	0x2db
 4649 0bce 460C0000 		.4byte	0xc46
 4650 0bd2 09       		.uleb128 0x9
 4651 0bd3 43523100 		.ascii	"CR1\000"
 4652 0bd7 0E       		.byte	0xe
 4653 0bd8 DD02     		.2byte	0x2dd
 4654 0bda 00010000 		.4byte	0x100
 4655 0bde 00       		.byte	0
 4656 0bdf 09       		.uleb128 0x9
 4657 0be0 43523200 		.ascii	"CR2\000"
 4658 0be4 0E       		.byte	0xe
 4659 0be5 DE02     		.2byte	0x2de
 4660 0be7 00010000 		.4byte	0x100
 4661 0beb 04       		.byte	0x4
 4662 0bec 09       		.uleb128 0x9
 4663 0bed 535200   		.ascii	"SR\000"
 4664 0bf0 0E       		.byte	0xe
 4665 0bf1 DF02     		.2byte	0x2df
 4666 0bf3 00010000 		.4byte	0x100
 4667 0bf7 08       		.byte	0x8
 4668 0bf8 09       		.uleb128 0x9
 4669 0bf9 445200   		.ascii	"DR\000"
 4670 0bfc 0E       		.byte	0xe
 4671 0bfd E002     		.2byte	0x2e0
 4672 0bff 00010000 		.4byte	0x100
 4673 0c03 0C       		.byte	0xc
 4674 0c04 0A       		.uleb128 0xa
 4675 0c05 F2070000 		.4byte	.LASF175
 4676 0c09 0E       		.byte	0xe
 4677 0c0a E102     		.2byte	0x2e1
 4678 0c0c 00010000 		.4byte	0x100
 4679 0c10 10       		.byte	0x10
 4680 0c11 0A       		.uleb128 0xa
 4681 0c12 1F0B0000 		.4byte	.LASF176
 4682 0c16 0E       		.byte	0xe
 4683 0c17 E202     		.2byte	0x2e2
 4684 0c19 00010000 		.4byte	0x100
 4685 0c1d 14       		.byte	0x14
 4686 0c1e 0A       		.uleb128 0xa
 4687 0c1f 680A0000 		.4byte	.LASF177
 4688 0c23 0E       		.byte	0xe
 4689 0c24 E302     		.2byte	0x2e3
 4690 0c26 00010000 		.4byte	0x100
ARM GAS  C:\Users\mathi\AppData\Local\Temp\ccRLxsF0.s 			page 85


 4691 0c2a 18       		.byte	0x18
 4692 0c2b 0A       		.uleb128 0xa
 4693 0c2c CC1D0000 		.4byte	.LASF178
 4694 0c30 0E       		.byte	0xe
 4695 0c31 E402     		.2byte	0x2e4
 4696 0c33 00010000 		.4byte	0x100
 4697 0c37 1C       		.byte	0x1c
 4698 0c38 0A       		.uleb128 0xa
 4699 0c39 BD070000 		.4byte	.LASF179
 4700 0c3d 0E       		.byte	0xe
 4701 0c3e E502     		.2byte	0x2e5
 4702 0c40 00010000 		.4byte	0x100
 4703 0c44 20       		.byte	0x20
 4704 0c45 00       		.byte	0
 4705 0c46 1A       		.uleb128 0x1a
 4706 0c47 381C0000 		.4byte	.LASF180
 4707 0c4b 0E       		.byte	0xe
 4708 0c4c E602     		.2byte	0x2e6
 4709 0c4e C90B0000 		.4byte	0xbc9
 4710 0c52 19       		.uleb128 0x19
 4711 0c53 1C       		.byte	0x1c
 4712 0c54 0E       		.byte	0xe
 4713 0c55 0903     		.2byte	0x309
 4714 0c57 B50C0000 		.4byte	0xcb5
 4715 0c5b 09       		.uleb128 0x9
 4716 0c5c 535200   		.ascii	"SR\000"
 4717 0c5f 0E       		.byte	0xe
 4718 0c60 0B03     		.2byte	0x30b
 4719 0c62 00010000 		.4byte	0x100
 4720 0c66 00       		.byte	0
 4721 0c67 09       		.uleb128 0x9
 4722 0c68 445200   		.ascii	"DR\000"
 4723 0c6b 0E       		.byte	0xe
 4724 0c6c 0C03     		.2byte	0x30c
 4725 0c6e 00010000 		.4byte	0x100
 4726 0c72 04       		.byte	0x4
 4727 0c73 09       		.uleb128 0x9
 4728 0c74 42525200 		.ascii	"BRR\000"
 4729 0c78 0E       		.byte	0xe
 4730 0c79 0D03     		.2byte	0x30d
 4731 0c7b 00010000 		.4byte	0x100
 4732 0c7f 08       		.byte	0x8
 4733 0c80 09       		.uleb128 0x9
 4734 0c81 43523100 		.ascii	"CR1\000"
 4735 0c85 0E       		.byte	0xe
 4736 0c86 0E03     		.2byte	0x30e
 4737 0c88 00010000 		.4byte	0x100
 4738 0c8c 0C       		.byte	0xc
 4739 0c8d 09       		.uleb128 0x9
 4740 0c8e 43523200 		.ascii	"CR2\000"
 4741 0c92 0E       		.byte	0xe
 4742 0c93 0F03     		.2byte	0x30f
 4743 0c95 00010000 		.4byte	0x100
 4744 0c99 10       		.byte	0x10
 4745 0c9a 09       		.uleb128 0x9
 4746 0c9b 43523300 		.ascii	"CR3\000"
 4747 0c9f 0E       		.byte	0xe
ARM GAS  C:\Users\mathi\AppData\Local\Temp\ccRLxsF0.s 			page 86


 4748 0ca0 1003     		.2byte	0x310
 4749 0ca2 00010000 		.4byte	0x100
 4750 0ca6 14       		.byte	0x14
 4751 0ca7 0A       		.uleb128 0xa
 4752 0ca8 CD1F0000 		.4byte	.LASF181
 4753 0cac 0E       		.byte	0xe
 4754 0cad 1103     		.2byte	0x311
 4755 0caf 00010000 		.4byte	0x100
 4756 0cb3 18       		.byte	0x18
 4757 0cb4 00       		.byte	0
 4758 0cb5 1A       		.uleb128 0x1a
 4759 0cb6 A6200000 		.4byte	.LASF182
 4760 0cba 0E       		.byte	0xe
 4761 0cbb 1203     		.2byte	0x312
 4762 0cbd 520C0000 		.4byte	0xc52
 4763 0cc1 13       		.uleb128 0x13
 4764 0cc2 00010000 		.4byte	0x100
 4765 0cc6 D10C0000 		.4byte	0xcd1
 4766 0cca 14       		.uleb128 0x14
 4767 0ccb 25000000 		.4byte	0x25
 4768 0ccf 0E       		.byte	0xe
 4769 0cd0 00       		.byte	0
 4770 0cd1 06       		.uleb128 0x6
 4771 0cd2 C10C0000 		.4byte	0xcc1
 4772 0cd6 04       		.uleb128 0x4
 4773 0cd7 3F160000 		.4byte	.LASF183
 4774 0cdb 0F       		.byte	0xf
 4775 0cdc 65       		.byte	0x65
 4776 0cdd BA030000 		.4byte	0x3ba
 4777 0ce1 04       		.uleb128 0x4
 4778 0ce2 36090000 		.4byte	.LASF184
 4779 0ce6 0F       		.byte	0xf
 4780 0ce7 6D       		.byte	0x6d
 4781 0ce8 0A010000 		.4byte	0x10a
 4782 0cec 07       		.uleb128 0x7
 4783 0ced 86150000 		.4byte	.LASF185
 4784 0cf1 04       		.byte	0x4
 4785 0cf2 0F       		.byte	0xf
 4786 0cf3 89       		.byte	0x89
 4787 0cf4 050D0000 		.4byte	0xd05
 4788 0cf8 18       		.uleb128 0x18
 4789 0cf9 72313300 		.ascii	"r13\000"
 4790 0cfd 0F       		.byte	0xf
 4791 0cfe 8A       		.byte	0x8a
 4792 0cff 460E0000 		.4byte	0xe46
 4793 0d03 00       		.byte	0
 4794 0d04 00       		.byte	0
 4795 0d05 07       		.uleb128 0x7
 4796 0d06 17000000 		.4byte	.LASF186
 4797 0d0a 64       		.byte	0x64
 4798 0d0b 10       		.byte	0x10
 4799 0d0c F4       		.byte	0xf4
 4800 0d0d 460E0000 		.4byte	0xe46
 4801 0d11 18       		.uleb128 0x18
 4802 0d12 73313600 		.ascii	"s16\000"
 4803 0d16 10       		.byte	0x10
 4804 0d17 F6       		.byte	0xf6
ARM GAS  C:\Users\mathi\AppData\Local\Temp\ccRLxsF0.s 			page 87


 4805 0d18 D60C0000 		.4byte	0xcd6
 4806 0d1c 00       		.byte	0
 4807 0d1d 18       		.uleb128 0x18
 4808 0d1e 73313700 		.ascii	"s17\000"
 4809 0d22 10       		.byte	0x10
 4810 0d23 F7       		.byte	0xf7
 4811 0d24 D60C0000 		.4byte	0xcd6
 4812 0d28 04       		.byte	0x4
 4813 0d29 18       		.uleb128 0x18
 4814 0d2a 73313800 		.ascii	"s18\000"
 4815 0d2e 10       		.byte	0x10
 4816 0d2f F8       		.byte	0xf8
 4817 0d30 D60C0000 		.4byte	0xcd6
 4818 0d34 08       		.byte	0x8
 4819 0d35 18       		.uleb128 0x18
 4820 0d36 73313900 		.ascii	"s19\000"
 4821 0d3a 10       		.byte	0x10
 4822 0d3b F9       		.byte	0xf9
 4823 0d3c D60C0000 		.4byte	0xcd6
 4824 0d40 0C       		.byte	0xc
 4825 0d41 18       		.uleb128 0x18
 4826 0d42 73323000 		.ascii	"s20\000"
 4827 0d46 10       		.byte	0x10
 4828 0d47 FA       		.byte	0xfa
 4829 0d48 D60C0000 		.4byte	0xcd6
 4830 0d4c 10       		.byte	0x10
 4831 0d4d 18       		.uleb128 0x18
 4832 0d4e 73323100 		.ascii	"s21\000"
 4833 0d52 10       		.byte	0x10
 4834 0d53 FB       		.byte	0xfb
 4835 0d54 D60C0000 		.4byte	0xcd6
 4836 0d58 14       		.byte	0x14
 4837 0d59 18       		.uleb128 0x18
 4838 0d5a 73323200 		.ascii	"s22\000"
 4839 0d5e 10       		.byte	0x10
 4840 0d5f FC       		.byte	0xfc
 4841 0d60 D60C0000 		.4byte	0xcd6
 4842 0d64 18       		.byte	0x18
 4843 0d65 18       		.uleb128 0x18
 4844 0d66 73323300 		.ascii	"s23\000"
 4845 0d6a 10       		.byte	0x10
 4846 0d6b FD       		.byte	0xfd
 4847 0d6c D60C0000 		.4byte	0xcd6
 4848 0d70 1C       		.byte	0x1c
 4849 0d71 18       		.uleb128 0x18
 4850 0d72 73323400 		.ascii	"s24\000"
 4851 0d76 10       		.byte	0x10
 4852 0d77 FE       		.byte	0xfe
 4853 0d78 D60C0000 		.4byte	0xcd6
 4854 0d7c 20       		.byte	0x20
 4855 0d7d 18       		.uleb128 0x18
 4856 0d7e 73323500 		.ascii	"s25\000"
 4857 0d82 10       		.byte	0x10
 4858 0d83 FF       		.byte	0xff
 4859 0d84 D60C0000 		.4byte	0xcd6
 4860 0d88 24       		.byte	0x24
 4861 0d89 09       		.uleb128 0x9
ARM GAS  C:\Users\mathi\AppData\Local\Temp\ccRLxsF0.s 			page 88


 4862 0d8a 73323600 		.ascii	"s26\000"
 4863 0d8e 10       		.byte	0x10
 4864 0d8f 0001     		.2byte	0x100
 4865 0d91 D60C0000 		.4byte	0xcd6
 4866 0d95 28       		.byte	0x28
 4867 0d96 09       		.uleb128 0x9
 4868 0d97 73323700 		.ascii	"s27\000"
 4869 0d9b 10       		.byte	0x10
 4870 0d9c 0101     		.2byte	0x101
 4871 0d9e D60C0000 		.4byte	0xcd6
 4872 0da2 2C       		.byte	0x2c
 4873 0da3 09       		.uleb128 0x9
 4874 0da4 73323800 		.ascii	"s28\000"
 4875 0da8 10       		.byte	0x10
 4876 0da9 0201     		.2byte	0x102
 4877 0dab D60C0000 		.4byte	0xcd6
 4878 0daf 30       		.byte	0x30
 4879 0db0 09       		.uleb128 0x9
 4880 0db1 73323900 		.ascii	"s29\000"
 4881 0db5 10       		.byte	0x10
 4882 0db6 0301     		.2byte	0x103
 4883 0db8 D60C0000 		.4byte	0xcd6
 4884 0dbc 34       		.byte	0x34
 4885 0dbd 09       		.uleb128 0x9
 4886 0dbe 73333000 		.ascii	"s30\000"
 4887 0dc2 10       		.byte	0x10
 4888 0dc3 0401     		.2byte	0x104
 4889 0dc5 D60C0000 		.4byte	0xcd6
 4890 0dc9 38       		.byte	0x38
 4891 0dca 09       		.uleb128 0x9
 4892 0dcb 73333100 		.ascii	"s31\000"
 4893 0dcf 10       		.byte	0x10
 4894 0dd0 0501     		.2byte	0x105
 4895 0dd2 D60C0000 		.4byte	0xcd6
 4896 0dd6 3C       		.byte	0x3c
 4897 0dd7 09       		.uleb128 0x9
 4898 0dd8 723400   		.ascii	"r4\000"
 4899 0ddb 10       		.byte	0x10
 4900 0ddc 0701     		.2byte	0x107
 4901 0dde D60C0000 		.4byte	0xcd6
 4902 0de2 40       		.byte	0x40
 4903 0de3 09       		.uleb128 0x9
 4904 0de4 723500   		.ascii	"r5\000"
 4905 0de7 10       		.byte	0x10
 4906 0de8 0801     		.2byte	0x108
 4907 0dea D60C0000 		.4byte	0xcd6
 4908 0dee 44       		.byte	0x44
 4909 0def 09       		.uleb128 0x9
 4910 0df0 723600   		.ascii	"r6\000"
 4911 0df3 10       		.byte	0x10
 4912 0df4 0901     		.2byte	0x109
 4913 0df6 D60C0000 		.4byte	0xcd6
 4914 0dfa 48       		.byte	0x48
 4915 0dfb 09       		.uleb128 0x9
 4916 0dfc 723700   		.ascii	"r7\000"
 4917 0dff 10       		.byte	0x10
 4918 0e00 0A01     		.2byte	0x10a
ARM GAS  C:\Users\mathi\AppData\Local\Temp\ccRLxsF0.s 			page 89


 4919 0e02 D60C0000 		.4byte	0xcd6
 4920 0e06 4C       		.byte	0x4c
 4921 0e07 09       		.uleb128 0x9
 4922 0e08 723800   		.ascii	"r8\000"
 4923 0e0b 10       		.byte	0x10
 4924 0e0c 0B01     		.2byte	0x10b
 4925 0e0e D60C0000 		.4byte	0xcd6
 4926 0e12 50       		.byte	0x50
 4927 0e13 09       		.uleb128 0x9
 4928 0e14 723900   		.ascii	"r9\000"
 4929 0e17 10       		.byte	0x10
 4930 0e18 0C01     		.2byte	0x10c
 4931 0e1a D60C0000 		.4byte	0xcd6
 4932 0e1e 54       		.byte	0x54
 4933 0e1f 09       		.uleb128 0x9
 4934 0e20 72313000 		.ascii	"r10\000"
 4935 0e24 10       		.byte	0x10
 4936 0e25 0D01     		.2byte	0x10d
 4937 0e27 D60C0000 		.4byte	0xcd6
 4938 0e2b 58       		.byte	0x58
 4939 0e2c 09       		.uleb128 0x9
 4940 0e2d 72313100 		.ascii	"r11\000"
 4941 0e31 10       		.byte	0x10
 4942 0e32 0E01     		.2byte	0x10e
 4943 0e34 D60C0000 		.4byte	0xcd6
 4944 0e38 5C       		.byte	0x5c
 4945 0e39 09       		.uleb128 0x9
 4946 0e3a 6C7200   		.ascii	"lr\000"
 4947 0e3d 10       		.byte	0x10
 4948 0e3e 0F01     		.2byte	0x10f
 4949 0e40 D60C0000 		.4byte	0xcd6
 4950 0e44 60       		.byte	0x60
 4951 0e45 00       		.byte	0
 4952 0e46 0B       		.uleb128 0xb
 4953 0e47 04       		.byte	0x4
 4954 0e48 050D0000 		.4byte	0xd05
 4955 0e4c 17       		.uleb128 0x17
 4956 0e4d 10       		.byte	0x10
 4957 0e4e 11       		.byte	0x11
 4958 0e4f 51       		.byte	0x51
 4959 0e50 850E0000 		.4byte	0xe85
 4960 0e54 08       		.uleb128 0x8
 4961 0e55 4A1B0000 		.4byte	.LASF187
 4962 0e59 11       		.byte	0x11
 4963 0e5a 55       		.byte	0x55
 4964 0e5b 99010000 		.4byte	0x199
 4965 0e5f 00       		.byte	0
 4966 0e60 08       		.uleb128 0x8
 4967 0e61 9F160000 		.4byte	.LASF188
 4968 0e65 11       		.byte	0x11
 4969 0e66 59       		.byte	0x59
 4970 0e67 DD020000 		.4byte	0x2dd
 4971 0e6b 04       		.byte	0x4
 4972 0e6c 08       		.uleb128 0x8
 4973 0e6d AF0B0000 		.4byte	.LASF189
 4974 0e71 11       		.byte	0x11
 4975 0e72 5D       		.byte	0x5d
ARM GAS  C:\Users\mathi\AppData\Local\Temp\ccRLxsF0.s 			page 90


 4976 0e73 BA030000 		.4byte	0x3ba
 4977 0e77 08       		.byte	0x8
 4978 0e78 08       		.uleb128 0x8
 4979 0e79 FD090000 		.4byte	.LASF190
 4980 0e7d 11       		.byte	0x11
 4981 0e7e 61       		.byte	0x61
 4982 0e7f BF000000 		.4byte	0xbf
 4983 0e83 0C       		.byte	0xc
 4984 0e84 00       		.byte	0
 4985 0e85 04       		.uleb128 0x4
 4986 0e86 7A0C0000 		.4byte	.LASF191
 4987 0e8a 11       		.byte	0x11
 4988 0e8b 62       		.byte	0x62
 4989 0e8c 4C0E0000 		.4byte	0xe4c
 4990 0e90 1C       		.uleb128 0x1c
 4991 0e91 0804     		.2byte	0x408
 4992 0e93 11       		.byte	0x11
 4993 0e94 67       		.byte	0x67
 4994 0e95 BE0E0000 		.4byte	0xebe
 4995 0e99 08       		.uleb128 0x8
 4996 0e9a 290D0000 		.4byte	.LASF192
 4997 0e9e 11       		.byte	0x11
 4998 0e9f 6B       		.byte	0x6b
 4999 0ea0 25000000 		.4byte	0x25
 5000 0ea4 00       		.byte	0
 5001 0ea5 08       		.uleb128 0x8
 5002 0ea6 55120000 		.4byte	.LASF193
 5003 0eaa 11       		.byte	0x11
 5004 0eab 6F       		.byte	0x6f
 5005 0eac BE0E0000 		.4byte	0xebe
 5006 0eb0 04       		.byte	0x4
 5007 0eb1 08       		.uleb128 0x8
 5008 0eb2 8B090000 		.4byte	.LASF194
 5009 0eb6 11       		.byte	0x11
 5010 0eb7 73       		.byte	0x73
 5011 0eb8 C40E0000 		.4byte	0xec4
 5012 0ebc 08       		.byte	0x8
 5013 0ebd 00       		.byte	0
 5014 0ebe 0B       		.uleb128 0xb
 5015 0ebf 04       		.byte	0x4
 5016 0ec0 850E0000 		.4byte	0xe85
 5017 0ec4 13       		.uleb128 0x13
 5018 0ec5 850E0000 		.4byte	0xe85
 5019 0ec9 D40E0000 		.4byte	0xed4
 5020 0ecd 14       		.uleb128 0x14
 5021 0ece 25000000 		.4byte	0x25
 5022 0ed2 3F       		.byte	0x3f
 5023 0ed3 00       		.byte	0
 5024 0ed4 04       		.uleb128 0x4
 5025 0ed5 23000000 		.4byte	.LASF195
 5026 0ed9 11       		.byte	0x11
 5027 0eda 74       		.byte	0x74
 5028 0edb 900E0000 		.4byte	0xe90
 5029 0edf 17       		.uleb128 0x17
 5030 0ee0 04       		.byte	0x4
 5031 0ee1 12       		.byte	0x12
 5032 0ee2 38       		.byte	0x38
ARM GAS  C:\Users\mathi\AppData\Local\Temp\ccRLxsF0.s 			page 91


 5033 0ee3 F40E0000 		.4byte	0xef4
 5034 0ee7 08       		.uleb128 0x8
 5035 0ee8 F91B0000 		.4byte	.LASF196
 5036 0eec 12       		.byte	0x12
 5037 0eed 3C       		.byte	0x3c
 5038 0eee 15010000 		.4byte	0x115
 5039 0ef2 00       		.byte	0
 5040 0ef3 00       		.byte	0
 5041 0ef4 04       		.uleb128 0x4
 5042 0ef5 B31F0000 		.4byte	.LASF197
 5043 0ef9 12       		.byte	0x12
 5044 0efa 3D       		.byte	0x3d
 5045 0efb DF0E0000 		.4byte	0xedf
 5046 0eff 17       		.uleb128 0x17
 5047 0f00 18       		.byte	0x18
 5048 0f01 12       		.byte	0x12
 5049 0f02 48       		.byte	0x48
 5050 0f03 420F0000 		.4byte	0xf42
 5051 0f07 08       		.uleb128 0x8
 5052 0f08 CE070000 		.4byte	.LASF198
 5053 0f0c 12       		.byte	0x12
 5054 0f0d 49       		.byte	0x49
 5055 0f0e 15010000 		.4byte	0x115
 5056 0f12 00       		.byte	0
 5057 0f13 08       		.uleb128 0x8
 5058 0f14 20010000 		.4byte	.LASF199
 5059 0f18 12       		.byte	0x12
 5060 0f19 4A       		.byte	0x4a
 5061 0f1a 15010000 		.4byte	0x115
 5062 0f1e 04       		.byte	0x4
 5063 0f1f 08       		.uleb128 0x8
 5064 0f20 C0150000 		.4byte	.LASF200
 5065 0f24 12       		.byte	0x12
 5066 0f25 4B       		.byte	0x4b
 5067 0f26 15010000 		.4byte	0x115
 5068 0f2a 08       		.byte	0x8
 5069 0f2b 18       		.uleb128 0x18
 5070 0f2c 6E00     		.ascii	"n\000"
 5071 0f2e 12       		.byte	0x12
 5072 0f2f 4C       		.byte	0x4c
 5073 0f30 8E010000 		.4byte	0x18e
 5074 0f34 0C       		.byte	0xc
 5075 0f35 08       		.uleb128 0x8
 5076 0f36 4A150000 		.4byte	.LASF201
 5077 0f3a 12       		.byte	0x12
 5078 0f3b 4D       		.byte	0x4d
 5079 0f3c 20010000 		.4byte	0x120
 5080 0f40 10       		.byte	0x10
 5081 0f41 00       		.byte	0
 5082 0f42 04       		.uleb128 0x4
 5083 0f43 0C1E0000 		.4byte	.LASF202
 5084 0f47 12       		.byte	0x12
 5085 0f48 4E       		.byte	0x4e
 5086 0f49 FF0E0000 		.4byte	0xeff
 5087 0f4d 17       		.uleb128 0x17
 5088 0f4e 38       		.byte	0x38
 5089 0f4f 13       		.byte	0x13
ARM GAS  C:\Users\mathi\AppData\Local\Temp\ccRLxsF0.s 			page 92


 5090 0f50 38       		.byte	0x38
 5091 0f51 860F0000 		.4byte	0xf86
 5092 0f55 08       		.uleb128 0x8
 5093 0f56 31070000 		.4byte	.LASF203
 5094 0f5a 13       		.byte	0x13
 5095 0f5b 39       		.byte	0x39
 5096 0f5c 8E010000 		.4byte	0x18e
 5097 0f60 00       		.byte	0
 5098 0f61 08       		.uleb128 0x8
 5099 0f62 A10A0000 		.4byte	.LASF204
 5100 0f66 13       		.byte	0x13
 5101 0f67 3A       		.byte	0x3a
 5102 0f68 8E010000 		.4byte	0x18e
 5103 0f6c 04       		.byte	0x4
 5104 0f6d 08       		.uleb128 0x8
 5105 0f6e AF1D0000 		.4byte	.LASF205
 5106 0f72 13       		.byte	0x13
 5107 0f73 3B       		.byte	0x3b
 5108 0f74 420F0000 		.4byte	0xf42
 5109 0f78 08       		.byte	0x8
 5110 0f79 08       		.uleb128 0x8
 5111 0f7a 7B000000 		.4byte	.LASF206
 5112 0f7e 13       		.byte	0x13
 5113 0f7f 3D       		.byte	0x3d
 5114 0f80 420F0000 		.4byte	0xf42
 5115 0f84 20       		.byte	0x20
 5116 0f85 00       		.byte	0
 5117 0f86 04       		.uleb128 0x4
 5118 0f87 AB050000 		.4byte	.LASF207
 5119 0f8b 13       		.byte	0x13
 5120 0f8c 3F       		.byte	0x3f
 5121 0f8d 4D0F0000 		.4byte	0xf4d
 5122 0f91 1D       		.uleb128 0x1d
 5123 0f92 04       		.byte	0x4
 5124 0f93 0B       		.byte	0xb
 5125 0f94 FA       		.byte	0xfa
 5126 0f95 EE0F0000 		.4byte	0xfee
 5127 0f99 1E       		.uleb128 0x1e
 5128 0f9a BD0E0000 		.4byte	.LASF208
 5129 0f9e 0B       		.byte	0xb
 5130 0f9f 0101     		.2byte	0x101
 5131 0fa1 62010000 		.4byte	0x162
 5132 0fa5 1E       		.uleb128 0x1e
 5133 0fa6 6E080000 		.4byte	.LASF209
 5134 0faa 0B       		.byte	0xb
 5135 0fab 0801     		.2byte	0x108
 5136 0fad 62010000 		.4byte	0x162
 5137 0fb1 1E       		.uleb128 0x1e
 5138 0fb2 7E190000 		.4byte	.LASF210
 5139 0fb6 0B       		.byte	0xb
 5140 0fb7 0F01     		.2byte	0x10f
 5141 0fb9 BA030000 		.4byte	0x3ba
 5142 0fbd 1E       		.uleb128 0x1e
 5143 0fbe 78150000 		.4byte	.LASF211
 5144 0fc2 0B       		.byte	0xb
 5145 0fc3 1601     		.2byte	0x116
 5146 0fc5 EE0F0000 		.4byte	0xfee
ARM GAS  C:\Users\mathi\AppData\Local\Temp\ccRLxsF0.s 			page 93


 5147 0fc9 1E       		.uleb128 0x1e
 5148 0fca D9000000 		.4byte	.LASF212
 5149 0fce 0B       		.byte	0xb
 5150 0fcf 1E01     		.2byte	0x11e
 5151 0fd1 19100000 		.4byte	0x1019
 5152 0fd5 1E       		.uleb128 0x1e
 5153 0fd6 B7190000 		.4byte	.LASF213
 5154 0fda 0B       		.byte	0xb
 5155 0fdb 2701     		.2byte	0x127
 5156 0fdd 5C100000 		.4byte	0x105c
 5157 0fe1 1E       		.uleb128 0x1e
 5158 0fe2 7A1C0000 		.4byte	.LASF214
 5159 0fe6 0B       		.byte	0xb
 5160 0fe7 2F01     		.2byte	0x12f
 5161 0fe9 6D010000 		.4byte	0x16d
 5162 0fed 00       		.byte	0
 5163 0fee 0B       		.uleb128 0xb
 5164 0fef 04       		.byte	0x4
 5165 0ff0 D2020000 		.4byte	0x2d2
 5166 0ff4 07       		.uleb128 0x7
 5167 0ff5 40140000 		.4byte	.LASF215
 5168 0ff9 0C       		.byte	0xc
 5169 0ffa 14       		.byte	0x14
 5170 0ffb 34       		.byte	0x34
 5171 0ffc 19100000 		.4byte	0x1019
 5172 1000 08       		.uleb128 0x8
 5173 1001 A71D0000 		.4byte	.LASF216
 5174 1005 14       		.byte	0x14
 5175 1006 35       		.byte	0x35
 5176 1007 07030000 		.4byte	0x307
 5177 100b 00       		.byte	0
 5178 100c 08       		.uleb128 0x8
 5179 100d 9D090000 		.4byte	.LASF217
 5180 1011 14       		.byte	0x14
 5181 1012 37       		.byte	0x37
 5182 1013 83010000 		.4byte	0x183
 5183 1017 08       		.byte	0x8
 5184 1018 00       		.byte	0
 5185 1019 0B       		.uleb128 0xb
 5186 101a 04       		.byte	0x4
 5187 101b F40F0000 		.4byte	0xff4
 5188 101f 07       		.uleb128 0x7
 5189 1020 340B0000 		.4byte	.LASF218
 5190 1024 14       		.byte	0x14
 5191 1025 15       		.byte	0x15
 5192 1026 39       		.byte	0x39
 5193 1027 5C100000 		.4byte	0x105c
 5194 102b 08       		.uleb128 0x8
 5195 102c F1140000 		.4byte	.LASF219
 5196 1030 15       		.byte	0x15
 5197 1031 3A       		.byte	0x3a
 5198 1032 07030000 		.4byte	0x307
 5199 1036 00       		.byte	0
 5200 1037 08       		.uleb128 0x8
 5201 1038 56130000 		.4byte	.LASF220
 5202 103c 15       		.byte	0x15
 5203 103d 3C       		.byte	0x3c
ARM GAS  C:\Users\mathi\AppData\Local\Temp\ccRLxsF0.s 			page 94


 5204 103e DD020000 		.4byte	0x2dd
 5205 1042 08       		.byte	0x8
 5206 1043 08       		.uleb128 0x8
 5207 1044 45010000 		.4byte	.LASF221
 5208 1048 15       		.byte	0x15
 5209 1049 3E       		.byte	0x3e
 5210 104a B7110000 		.4byte	0x11b7
 5211 104e 0C       		.byte	0xc
 5212 104f 08       		.uleb128 0x8
 5213 1050 D9080000 		.4byte	.LASF222
 5214 1054 15       		.byte	0x15
 5215 1055 41       		.byte	0x41
 5216 1056 83010000 		.4byte	0x183
 5217 105a 10       		.byte	0x10
 5218 105b 00       		.byte	0
 5219 105c 0B       		.uleb128 0xb
 5220 105d 04       		.byte	0x4
 5221 105e 1F100000 		.4byte	0x101f
 5222 1062 0B       		.uleb128 0xb
 5223 1063 04       		.byte	0x4
 5224 1064 74100000 		.4byte	0x1074
 5225 1068 06       		.uleb128 0x6
 5226 1069 62100000 		.4byte	0x1062
 5227 106d 02       		.uleb128 0x2
 5228 106e 01       		.byte	0x1
 5229 106f 08       		.byte	0x8
 5230 1070 FC160000 		.4byte	.LASF223
 5231 1074 05       		.uleb128 0x5
 5232 1075 6D100000 		.4byte	0x106d
 5233 1079 0B       		.uleb128 0xb
 5234 107a 04       		.byte	0x4
 5235 107b E10C0000 		.4byte	0xce1
 5236 107f 0B       		.uleb128 0xb
 5237 1080 04       		.byte	0x4
 5238 1081 C1030000 		.4byte	0x3c1
 5239 1085 13       		.uleb128 0x13
 5240 1086 E10C0000 		.4byte	0xce1
 5241 108a 95100000 		.4byte	0x1095
 5242 108e 14       		.uleb128 0x14
 5243 108f 25000000 		.4byte	0x25
 5244 1093 30       		.byte	0x30
 5245 1094 00       		.byte	0
 5246 1095 1F       		.uleb128 0x1f
 5247 1096 636800   		.ascii	"ch\000"
 5248 1099 0B       		.byte	0xb
 5249 109a 0902     		.2byte	0x209
 5250 109c B6040000 		.4byte	0x4b6
 5251 10a0 17       		.uleb128 0x17
 5252 10a1 16       		.byte	0x16
 5253 10a2 16       		.byte	0x16
 5254 10a3 34       		.byte	0x34
 5255 10a4 81110000 		.4byte	0x1181
 5256 10a8 08       		.uleb128 0x8
 5257 10a9 D41D0000 		.4byte	.LASF224
 5258 10ad 16       		.byte	0x16
 5259 10ae 35       		.byte	0x35
 5260 10af 81110000 		.4byte	0x1181
ARM GAS  C:\Users\mathi\AppData\Local\Temp\ccRLxsF0.s 			page 95


 5261 10b3 00       		.byte	0
 5262 10b4 08       		.uleb128 0x8
 5263 10b5 DF1F0000 		.4byte	.LASF225
 5264 10b9 16       		.byte	0x16
 5265 10ba 36       		.byte	0x36
 5266 10bb BF000000 		.4byte	0xbf
 5267 10bf 04       		.byte	0x4
 5268 10c0 08       		.uleb128 0x8
 5269 10c1 A1030000 		.4byte	.LASF226
 5270 10c5 16       		.byte	0x16
 5271 10c6 37       		.byte	0x37
 5272 10c7 BF000000 		.4byte	0xbf
 5273 10cb 05       		.byte	0x5
 5274 10cc 08       		.uleb128 0x8
 5275 10cd A3130000 		.4byte	.LASF227
 5276 10d1 16       		.byte	0x16
 5277 10d2 38       		.byte	0x38
 5278 10d3 DA000000 		.4byte	0xda
 5279 10d7 06       		.byte	0x6
 5280 10d8 08       		.uleb128 0x8
 5281 10d9 35000000 		.4byte	.LASF228
 5282 10dd 16       		.byte	0x16
 5283 10de 39       		.byte	0x39
 5284 10df BF000000 		.4byte	0xbf
 5285 10e3 08       		.byte	0x8
 5286 10e4 08       		.uleb128 0x8
 5287 10e5 8C040000 		.4byte	.LASF229
 5288 10e9 16       		.byte	0x16
 5289 10ea 3A       		.byte	0x3a
 5290 10eb BF000000 		.4byte	0xbf
 5291 10ef 09       		.byte	0x9
 5292 10f0 08       		.uleb128 0x8
 5293 10f1 05200000 		.4byte	.LASF230
 5294 10f5 16       		.byte	0x16
 5295 10f6 3B       		.byte	0x3b
 5296 10f7 BF000000 		.4byte	0xbf
 5297 10fb 0A       		.byte	0xa
 5298 10fc 08       		.uleb128 0x8
 5299 10fd 001E0000 		.4byte	.LASF231
 5300 1101 16       		.byte	0x16
 5301 1102 3C       		.byte	0x3c
 5302 1103 BF000000 		.4byte	0xbf
 5303 1107 0B       		.byte	0xb
 5304 1108 08       		.uleb128 0x8
 5305 1109 EF050000 		.4byte	.LASF232
 5306 110d 16       		.byte	0x16
 5307 110e 3D       		.byte	0x3d
 5308 110f BF000000 		.4byte	0xbf
 5309 1113 0C       		.byte	0xc
 5310 1114 08       		.uleb128 0x8
 5311 1115 770B0000 		.4byte	.LASF233
 5312 1119 16       		.byte	0x16
 5313 111a 3E       		.byte	0x3e
 5314 111b BF000000 		.4byte	0xbf
 5315 111f 0D       		.byte	0xd
 5316 1120 08       		.uleb128 0x8
 5317 1121 39060000 		.4byte	.LASF234
ARM GAS  C:\Users\mathi\AppData\Local\Temp\ccRLxsF0.s 			page 96


 5318 1125 16       		.byte	0x16
 5319 1126 3F       		.byte	0x3f
 5320 1127 BF000000 		.4byte	0xbf
 5321 112b 0E       		.byte	0xe
 5322 112c 08       		.uleb128 0x8
 5323 112d DC0C0000 		.4byte	.LASF235
 5324 1131 16       		.byte	0x16
 5325 1132 40       		.byte	0x40
 5326 1133 BF000000 		.4byte	0xbf
 5327 1137 0F       		.byte	0xf
 5328 1138 08       		.uleb128 0x8
 5329 1139 6F040000 		.4byte	.LASF236
 5330 113d 16       		.byte	0x16
 5331 113e 41       		.byte	0x41
 5332 113f BF000000 		.4byte	0xbf
 5333 1143 10       		.byte	0x10
 5334 1144 08       		.uleb128 0x8
 5335 1145 E9080000 		.4byte	.LASF237
 5336 1149 16       		.byte	0x16
 5337 114a 43       		.byte	0x43
 5338 114b BF000000 		.4byte	0xbf
 5339 114f 11       		.byte	0x11
 5340 1150 08       		.uleb128 0x8
 5341 1151 63030000 		.4byte	.LASF238
 5342 1155 16       		.byte	0x16
 5343 1156 44       		.byte	0x44
 5344 1157 BF000000 		.4byte	0xbf
 5345 115b 12       		.byte	0x12
 5346 115c 08       		.uleb128 0x8
 5347 115d 40130000 		.4byte	.LASF239
 5348 1161 16       		.byte	0x16
 5349 1162 45       		.byte	0x45
 5350 1163 BF000000 		.4byte	0xbf
 5351 1167 13       		.byte	0x13
 5352 1168 08       		.uleb128 0x8
 5353 1169 E2180000 		.4byte	.LASF240
 5354 116d 16       		.byte	0x16
 5355 116e 46       		.byte	0x46
 5356 116f BF000000 		.4byte	0xbf
 5357 1173 14       		.byte	0x14
 5358 1174 08       		.uleb128 0x8
 5359 1175 B7000000 		.4byte	.LASF241
 5360 1179 16       		.byte	0x16
 5361 117a 48       		.byte	0x48
 5362 117b BF000000 		.4byte	0xbf
 5363 117f 15       		.byte	0x15
 5364 1180 00       		.byte	0
 5365 1181 13       		.uleb128 0x13
 5366 1182 6D100000 		.4byte	0x106d
 5367 1186 91110000 		.4byte	0x1191
 5368 118a 14       		.uleb128 0x14
 5369 118b 25000000 		.4byte	0x25
 5370 118f 03       		.byte	0x3
 5371 1190 00       		.byte	0
 5372 1191 04       		.uleb128 0x4
 5373 1192 75110000 		.4byte	.LASF242
 5374 1196 16       		.byte	0x16
ARM GAS  C:\Users\mathi\AppData\Local\Temp\ccRLxsF0.s 			page 97


 5375 1197 49       		.byte	0x49
 5376 1198 A0100000 		.4byte	0x10a0
 5377 119c 05       		.uleb128 0x5
 5378 119d 91110000 		.4byte	0x1191
 5379 11a1 16       		.uleb128 0x16
 5380 11a2 AA0A0000 		.4byte	.LASF243
 5381 11a6 16       		.byte	0x16
 5382 11a7 6E       		.byte	0x6e
 5383 11a8 9C110000 		.4byte	0x119c
 5384 11ac 04       		.uleb128 0x4
 5385 11ad B01A0000 		.4byte	.LASF244
 5386 11b1 15       		.byte	0x15
 5387 11b2 34       		.byte	0x34
 5388 11b3 1F100000 		.4byte	0x101f
 5389 11b7 0B       		.uleb128 0xb
 5390 11b8 04       		.byte	0x4
 5391 11b9 AC110000 		.4byte	0x11ac
 5392 11bd 04       		.uleb128 0x4
 5393 11be E50A0000 		.4byte	.LASF245
 5394 11c2 17       		.byte	0x17
 5395 11c3 34       		.byte	0x34
 5396 11c4 C8110000 		.4byte	0x11c8
 5397 11c8 07       		.uleb128 0x7
 5398 11c9 77200000 		.4byte	.LASF246
 5399 11cd 14       		.byte	0x14
 5400 11ce 17       		.byte	0x17
 5401 11cf 39       		.byte	0x39
 5402 11d0 11120000 		.4byte	0x1211
 5403 11d4 08       		.uleb128 0x8
 5404 11d5 06030000 		.4byte	.LASF247
 5405 11d9 17       		.byte	0x17
 5406 11da 3A       		.byte	0x3a
 5407 11db 11120000 		.4byte	0x1211
 5408 11df 00       		.byte	0
 5409 11e0 08       		.uleb128 0x8
 5410 11e1 7B1B0000 		.4byte	.LASF248
 5411 11e5 17       		.byte	0x17
 5412 11e6 3D       		.byte	0x3d
 5413 11e7 DD020000 		.4byte	0x2dd
 5414 11eb 04       		.byte	0x4
 5415 11ec 08       		.uleb128 0x8
 5416 11ed 02040000 		.4byte	.LASF249
 5417 11f1 17       		.byte	0x17
 5418 11f2 3F       		.byte	0x3f
 5419 11f3 6D010000 		.4byte	0x16d
 5420 11f7 08       		.byte	0x8
 5421 11f8 08       		.uleb128 0x8
 5422 11f9 901C0000 		.4byte	.LASF250
 5423 11fd 17       		.byte	0x17
 5424 11fe 41       		.byte	0x41
 5425 11ff 78010000 		.4byte	0x178
 5426 1203 0C       		.byte	0xc
 5427 1204 08       		.uleb128 0x8
 5428 1205 150D0000 		.4byte	.LASF251
 5429 1209 17       		.byte	0x17
 5430 120a 43       		.byte	0x43
 5431 120b 78010000 		.4byte	0x178
ARM GAS  C:\Users\mathi\AppData\Local\Temp\ccRLxsF0.s 			page 98


 5432 120f 10       		.byte	0x10
 5433 1210 00       		.byte	0
 5434 1211 0B       		.uleb128 0xb
 5435 1212 04       		.byte	0x4
 5436 1213 BD110000 		.4byte	0x11bd
 5437 1217 07       		.uleb128 0x7
 5438 1218 991C0000 		.4byte	.LASF252
 5439 121c 04       		.byte	0x4
 5440 121d 17       		.byte	0x17
 5441 121e 4A       		.byte	0x4a
 5442 121f 30120000 		.4byte	0x1230
 5443 1223 08       		.uleb128 0x8
 5444 1224 111C0000 		.4byte	.LASF253
 5445 1228 17       		.byte	0x17
 5446 1229 4B       		.byte	0x4b
 5447 122a 11120000 		.4byte	0x1211
 5448 122e 00       		.byte	0
 5449 122f 00       		.byte	0
 5450 1230 04       		.uleb128 0x4
 5451 1231 34120000 		.4byte	.LASF254
 5452 1235 17       		.byte	0x17
 5453 1236 4E       		.byte	0x4e
 5454 1237 17120000 		.4byte	0x1217
 5455 123b 04       		.uleb128 0x4
 5456 123c 4D0D0000 		.4byte	.LASF255
 5457 1240 18       		.byte	0x18
 5458 1241 3F       		.byte	0x3f
 5459 1242 46120000 		.4byte	0x1246
 5460 1246 07       		.uleb128 0x7
 5461 1247 340F0000 		.4byte	.LASF256
 5462 124b 24       		.byte	0x24
 5463 124c 18       		.byte	0x18
 5464 124d 4D       		.byte	0x4d
 5465 124e B3120000 		.4byte	0x12b3
 5466 1252 08       		.uleb128 0x8
 5467 1253 BA050000 		.4byte	.LASF257
 5468 1257 18       		.byte	0x18
 5469 1258 4E       		.byte	0x4e
 5470 1259 07030000 		.4byte	0x307
 5471 125d 00       		.byte	0
 5472 125e 08       		.uleb128 0x8
 5473 125f 5C1A0000 		.4byte	.LASF258
 5474 1263 18       		.byte	0x18
 5475 1264 4F       		.byte	0x4f
 5476 1265 33000000 		.4byte	0x33
 5477 1269 08       		.byte	0x8
 5478 126a 08       		.uleb128 0x8
 5479 126b CC0F0000 		.4byte	.LASF259
 5480 126f 18       		.byte	0x18
 5481 1270 50       		.byte	0x50
 5482 1271 D5120000 		.4byte	0x12d5
 5483 1275 0C       		.byte	0xc
 5484 1276 08       		.uleb128 0x8
 5485 1277 06050000 		.4byte	.LASF260
 5486 127b 18       		.byte	0x18
 5487 127c 51       		.byte	0x51
 5488 127d D5120000 		.4byte	0x12d5
ARM GAS  C:\Users\mathi\AppData\Local\Temp\ccRLxsF0.s 			page 99


 5489 1281 10       		.byte	0x10
 5490 1282 08       		.uleb128 0x8
 5491 1283 A5160000 		.4byte	.LASF261
 5492 1287 18       		.byte	0x18
 5493 1288 53       		.byte	0x53
 5494 1289 D5120000 		.4byte	0x12d5
 5495 128d 14       		.byte	0x14
 5496 128e 08       		.uleb128 0x8
 5497 128f 7E150000 		.4byte	.LASF262
 5498 1293 18       		.byte	0x18
 5499 1294 54       		.byte	0x54
 5500 1295 D5120000 		.4byte	0x12d5
 5501 1299 18       		.byte	0x18
 5502 129a 08       		.uleb128 0x8
 5503 129b AE190000 		.4byte	.LASF263
 5504 129f 18       		.byte	0x18
 5505 12a0 55       		.byte	0x55
 5506 12a1 B3120000 		.4byte	0x12b3
 5507 12a5 1C       		.byte	0x1c
 5508 12a6 08       		.uleb128 0x8
 5509 12a7 6F170000 		.4byte	.LASF264
 5510 12ab 18       		.byte	0x18
 5511 12ac 56       		.byte	0x56
 5512 12ad BA030000 		.4byte	0x3ba
 5513 12b1 20       		.byte	0x20
 5514 12b2 00       		.byte	0
 5515 12b3 04       		.uleb128 0x4
 5516 12b4 DE040000 		.4byte	.LASF265
 5517 12b8 18       		.byte	0x18
 5518 12b9 42       		.byte	0x42
 5519 12ba BE120000 		.4byte	0x12be
 5520 12be 0B       		.uleb128 0xb
 5521 12bf 04       		.byte	0x4
 5522 12c0 C4120000 		.4byte	0x12c4
 5523 12c4 0D       		.uleb128 0xd
 5524 12c5 CF120000 		.4byte	0x12cf
 5525 12c9 0E       		.uleb128 0xe
 5526 12ca CF120000 		.4byte	0x12cf
 5527 12ce 00       		.byte	0
 5528 12cf 0B       		.uleb128 0xb
 5529 12d0 04       		.byte	0x4
 5530 12d1 3B120000 		.4byte	0x123b
 5531 12d5 0B       		.uleb128 0xb
 5532 12d6 04       		.byte	0x4
 5533 12d7 BF000000 		.4byte	0xbf
 5534 12db 04       		.uleb128 0x4
 5535 12dc FA050000 		.4byte	.LASF266
 5536 12e0 18       		.byte	0x18
 5537 12e1 64       		.byte	0x64
 5538 12e2 3B120000 		.4byte	0x123b
 5539 12e6 04       		.uleb128 0x4
 5540 12e7 B4200000 		.4byte	.LASF267
 5541 12eb 18       		.byte	0x18
 5542 12ec 71       		.byte	0x71
 5543 12ed 3B120000 		.4byte	0x123b
 5544 12f1 07       		.uleb128 0x7
 5545 12f2 2E1F0000 		.4byte	.LASF268
ARM GAS  C:\Users\mathi\AppData\Local\Temp\ccRLxsF0.s 			page 100


 5546 12f6 10       		.byte	0x10
 5547 12f7 19       		.byte	0x19
 5548 12f8 40       		.byte	0x40
 5549 12f9 2E130000 		.4byte	0x132e
 5550 12fd 08       		.uleb128 0x8
 5551 12fe 8E150000 		.4byte	.LASF269
 5552 1302 19       		.byte	0x19
 5553 1303 41       		.byte	0x41
 5554 1304 52130000 		.4byte	0x1352
 5555 1308 00       		.byte	0
 5556 1309 08       		.uleb128 0x8
 5557 130a 2E050000 		.4byte	.LASF270
 5558 130e 19       		.byte	0x19
 5559 130f 41       		.byte	0x41
 5560 1310 71130000 		.4byte	0x1371
 5561 1314 04       		.byte	0x4
 5562 1315 18       		.uleb128 0x18
 5563 1316 70757400 		.ascii	"put\000"
 5564 131a 19       		.byte	0x19
 5565 131b 41       		.byte	0x41
 5566 131c 8B130000 		.4byte	0x138b
 5567 1320 08       		.byte	0x8
 5568 1321 18       		.uleb128 0x18
 5569 1322 67657400 		.ascii	"get\000"
 5570 1326 19       		.byte	0x19
 5571 1327 41       		.byte	0x41
 5572 1328 A0130000 		.4byte	0x13a0
 5573 132c 0C       		.byte	0xc
 5574 132d 00       		.byte	0
 5575 132e 05       		.uleb128 0x5
 5576 132f F1120000 		.4byte	0x12f1
 5577 1333 20       		.uleb128 0x20
 5578 1334 33000000 		.4byte	0x33
 5579 1338 4C130000 		.4byte	0x134c
 5580 133c 0E       		.uleb128 0xe
 5581 133d BA030000 		.4byte	0x3ba
 5582 1341 0E       		.uleb128 0xe
 5583 1342 4C130000 		.4byte	0x134c
 5584 1346 0E       		.uleb128 0xe
 5585 1347 33000000 		.4byte	0x33
 5586 134b 00       		.byte	0
 5587 134c 0B       		.uleb128 0xb
 5588 134d 04       		.byte	0x4
 5589 134e CA000000 		.4byte	0xca
 5590 1352 0B       		.uleb128 0xb
 5591 1353 04       		.byte	0x4
 5592 1354 33130000 		.4byte	0x1333
 5593 1358 20       		.uleb128 0x20
 5594 1359 33000000 		.4byte	0x33
 5595 135d 71130000 		.4byte	0x1371
 5596 1361 0E       		.uleb128 0xe
 5597 1362 BA030000 		.4byte	0x3ba
 5598 1366 0E       		.uleb128 0xe
 5599 1367 D5120000 		.4byte	0x12d5
 5600 136b 0E       		.uleb128 0xe
 5601 136c 33000000 		.4byte	0x33
 5602 1370 00       		.byte	0
ARM GAS  C:\Users\mathi\AppData\Local\Temp\ccRLxsF0.s 			page 101


 5603 1371 0B       		.uleb128 0xb
 5604 1372 04       		.byte	0x4
 5605 1373 58130000 		.4byte	0x1358
 5606 1377 20       		.uleb128 0x20
 5607 1378 62010000 		.4byte	0x162
 5608 137c 8B130000 		.4byte	0x138b
 5609 1380 0E       		.uleb128 0xe
 5610 1381 BA030000 		.4byte	0x3ba
 5611 1385 0E       		.uleb128 0xe
 5612 1386 BF000000 		.4byte	0xbf
 5613 138a 00       		.byte	0
 5614 138b 0B       		.uleb128 0xb
 5615 138c 04       		.byte	0x4
 5616 138d 77130000 		.4byte	0x1377
 5617 1391 20       		.uleb128 0x20
 5618 1392 62010000 		.4byte	0x162
 5619 1396 A0130000 		.4byte	0x13a0
 5620 139a 0E       		.uleb128 0xe
 5621 139b BA030000 		.4byte	0x3ba
 5622 139f 00       		.byte	0
 5623 13a0 0B       		.uleb128 0xb
 5624 13a1 04       		.byte	0x4
 5625 13a2 91130000 		.4byte	0x1391
 5626 13a6 17       		.uleb128 0x17
 5627 13a7 04       		.byte	0x4
 5628 13a8 19       		.byte	0x19
 5629 13a9 49       		.byte	0x49
 5630 13aa BB130000 		.4byte	0x13bb
 5631 13ae 18       		.uleb128 0x18
 5632 13af 766D7400 		.ascii	"vmt\000"
 5633 13b3 19       		.byte	0x19
 5634 13b4 4B       		.byte	0x4b
 5635 13b5 BB130000 		.4byte	0x13bb
 5636 13b9 00       		.byte	0
 5637 13ba 00       		.byte	0
 5638 13bb 0B       		.uleb128 0xb
 5639 13bc 04       		.byte	0x4
 5640 13bd 2E130000 		.4byte	0x132e
 5641 13c1 04       		.uleb128 0x4
 5642 13c2 79030000 		.4byte	.LASF271
 5643 13c6 19       		.byte	0x19
 5644 13c7 4D       		.byte	0x4d
 5645 13c8 A6130000 		.4byte	0x13a6
 5646 13cc 17       		.uleb128 0x17
 5647 13cd 0C       		.byte	0xc
 5648 13ce 1A       		.byte	0x1a
 5649 13cf DA       		.byte	0xda
 5650 13d0 11140000 		.4byte	0x1411
 5651 13d4 08       		.uleb128 0x8
 5652 13d5 5E200000 		.4byte	.LASF272
 5653 13d9 1A       		.byte	0x1a
 5654 13da DB       		.byte	0xdb
 5655 13db 11140000 		.4byte	0x1411
 5656 13df 00       		.byte	0
 5657 13e0 08       		.uleb128 0x8
 5658 13e1 960E0000 		.4byte	.LASF273
 5659 13e5 1A       		.byte	0x1a
ARM GAS  C:\Users\mathi\AppData\Local\Temp\ccRLxsF0.s 			page 102


 5660 13e6 DC       		.byte	0xdc
 5661 13e7 17140000 		.4byte	0x1417
 5662 13eb 04       		.byte	0x4
 5663 13ec 08       		.uleb128 0x8
 5664 13ed F3040000 		.4byte	.LASF274
 5665 13f1 1A       		.byte	0x1a
 5666 13f2 DD       		.byte	0xdd
 5667 13f3 BF000000 		.4byte	0xbf
 5668 13f7 08       		.byte	0x8
 5669 13f8 08       		.uleb128 0x8
 5670 13f9 A61A0000 		.4byte	.LASF275
 5671 13fd 1A       		.byte	0x1a
 5672 13fe DF       		.byte	0xdf
 5673 13ff BF000000 		.4byte	0xbf
 5674 1403 09       		.byte	0x9
 5675 1404 08       		.uleb128 0x8
 5676 1405 3A040000 		.4byte	.LASF276
 5677 1409 1A       		.byte	0x1a
 5678 140a E0       		.byte	0xe0
 5679 140b BF000000 		.4byte	0xbf
 5680 140f 0A       		.byte	0xa
 5681 1410 00       		.byte	0
 5682 1411 0B       		.uleb128 0xb
 5683 1412 04       		.byte	0x4
 5684 1413 D2090000 		.4byte	0x9d2
 5685 1417 0B       		.uleb128 0xb
 5686 1418 04       		.byte	0x4
 5687 1419 00010000 		.4byte	0x100
 5688 141d 04       		.uleb128 0x4
 5689 141e B3100000 		.4byte	.LASF277
 5690 1422 1A       		.byte	0x1a
 5691 1423 E1       		.byte	0xe1
 5692 1424 CC130000 		.4byte	0x13cc
 5693 1428 05       		.uleb128 0x5
 5694 1429 1D140000 		.4byte	0x141d
 5695 142d 13       		.uleb128 0x13
 5696 142e 28140000 		.4byte	0x1428
 5697 1432 3D140000 		.4byte	0x143d
 5698 1436 14       		.uleb128 0x14
 5699 1437 25000000 		.4byte	0x25
 5700 143b 0F       		.byte	0xf
 5701 143c 00       		.byte	0
 5702 143d 05       		.uleb128 0x5
 5703 143e 2D140000 		.4byte	0x142d
 5704 1442 15       		.uleb128 0x15
 5705 1443 00180000 		.4byte	.LASF278
 5706 1447 1A       		.byte	0x1a
 5707 1448 BB01     		.2byte	0x1bb
 5708 144a 3D140000 		.4byte	0x143d
 5709 144e 20       		.uleb128 0x20
 5710 144f 62010000 		.4byte	0x162
 5711 1453 67140000 		.4byte	0x1467
 5712 1457 0E       		.uleb128 0xe
 5713 1458 BA030000 		.4byte	0x3ba
 5714 145c 0E       		.uleb128 0xe
 5715 145d BF000000 		.4byte	0xbf
 5716 1461 0E       		.uleb128 0xe
ARM GAS  C:\Users\mathi\AppData\Local\Temp\ccRLxsF0.s 			page 103


 5717 1462 99010000 		.4byte	0x199
 5718 1466 00       		.byte	0
 5719 1467 0B       		.uleb128 0xb
 5720 1468 04       		.byte	0x4
 5721 1469 4E140000 		.4byte	0x144e
 5722 146d 20       		.uleb128 0x20
 5723 146e 62010000 		.4byte	0x162
 5724 1472 81140000 		.4byte	0x1481
 5725 1476 0E       		.uleb128 0xe
 5726 1477 BA030000 		.4byte	0x3ba
 5727 147b 0E       		.uleb128 0xe
 5728 147c 99010000 		.4byte	0x199
 5729 1480 00       		.byte	0
 5730 1481 0B       		.uleb128 0xb
 5731 1482 04       		.byte	0x4
 5732 1483 6D140000 		.4byte	0x146d
 5733 1487 20       		.uleb128 0x20
 5734 1488 33000000 		.4byte	0x33
 5735 148c A5140000 		.4byte	0x14a5
 5736 1490 0E       		.uleb128 0xe
 5737 1491 BA030000 		.4byte	0x3ba
 5738 1495 0E       		.uleb128 0xe
 5739 1496 4C130000 		.4byte	0x134c
 5740 149a 0E       		.uleb128 0xe
 5741 149b 33000000 		.4byte	0x33
 5742 149f 0E       		.uleb128 0xe
 5743 14a0 99010000 		.4byte	0x199
 5744 14a4 00       		.byte	0
 5745 14a5 0B       		.uleb128 0xb
 5746 14a6 04       		.byte	0x4
 5747 14a7 87140000 		.4byte	0x1487
 5748 14ab 20       		.uleb128 0x20
 5749 14ac 33000000 		.4byte	0x33
 5750 14b0 C9140000 		.4byte	0x14c9
 5751 14b4 0E       		.uleb128 0xe
 5752 14b5 BA030000 		.4byte	0x3ba
 5753 14b9 0E       		.uleb128 0xe
 5754 14ba D5120000 		.4byte	0x12d5
 5755 14be 0E       		.uleb128 0xe
 5756 14bf 33000000 		.4byte	0x33
 5757 14c3 0E       		.uleb128 0xe
 5758 14c4 99010000 		.4byte	0x199
 5759 14c8 00       		.byte	0
 5760 14c9 0B       		.uleb128 0xb
 5761 14ca 04       		.byte	0x4
 5762 14cb AB140000 		.4byte	0x14ab
 5763 14cf 21       		.uleb128 0x21
 5764 14d0 07       		.byte	0x7
 5765 14d1 01       		.byte	0x1
 5766 14d2 5E000000 		.4byte	0x5e
 5767 14d6 1B       		.byte	0x1b
 5768 14d7 28       		.byte	0x28
 5769 14d8 13150000 		.4byte	0x1513
 5770 14dc 22       		.uleb128 0x22
 5771 14dd 04010000 		.4byte	.LASF279
 5772 14e1 00       		.byte	0
 5773 14e2 22       		.uleb128 0x22
ARM GAS  C:\Users\mathi\AppData\Local\Temp\ccRLxsF0.s 			page 104


 5774 14e3 E40D0000 		.4byte	.LASF280
 5775 14e7 01       		.byte	0x1
 5776 14e8 22       		.uleb128 0x22
 5777 14e9 DA0A0000 		.4byte	.LASF281
 5778 14ed 02       		.byte	0x2
 5779 14ee 22       		.uleb128 0x22
 5780 14ef 24190000 		.4byte	.LASF282
 5781 14f3 03       		.byte	0x3
 5782 14f4 22       		.uleb128 0x22
 5783 14f5 151F0000 		.4byte	.LASF283
 5784 14f9 04       		.byte	0x4
 5785 14fa 22       		.uleb128 0x22
 5786 14fb F8070000 		.4byte	.LASF284
 5787 14ff 05       		.byte	0x5
 5788 1500 22       		.uleb128 0x22
 5789 1501 7C1A0000 		.4byte	.LASF285
 5790 1505 06       		.byte	0x6
 5791 1506 22       		.uleb128 0x22
 5792 1507 F5150000 		.4byte	.LASF286
 5793 150b 07       		.byte	0x7
 5794 150c 22       		.uleb128 0x22
 5795 150d E91E0000 		.4byte	.LASF287
 5796 1511 08       		.byte	0x8
 5797 1512 00       		.byte	0
 5798 1513 04       		.uleb128 0x4
 5799 1514 8D140000 		.4byte	.LASF288
 5800 1518 1B       		.byte	0x1b
 5801 1519 32       		.byte	0x32
 5802 151a CF140000 		.4byte	0x14cf
 5803 151e 17       		.uleb128 0x17
 5804 151f 08       		.byte	0x8
 5805 1520 1B       		.byte	0x1b
 5806 1521 37       		.byte	0x37
 5807 1522 3F150000 		.4byte	0x153f
 5808 1526 08       		.uleb128 0x8
 5809 1527 9F070000 		.4byte	.LASF289
 5810 152b 1B       		.byte	0x1b
 5811 152c 38       		.byte	0x38
 5812 152d F5000000 		.4byte	0xf5
 5813 1531 00       		.byte	0
 5814 1532 08       		.uleb128 0x8
 5815 1533 EB190000 		.4byte	.LASF290
 5816 1537 1B       		.byte	0x1b
 5817 1538 39       		.byte	0x39
 5818 1539 F5000000 		.4byte	0xf5
 5819 153d 04       		.byte	0x4
 5820 153e 00       		.byte	0
 5821 153f 04       		.uleb128 0x4
 5822 1540 C51B0000 		.4byte	.LASF291
 5823 1544 1B       		.byte	0x1b
 5824 1545 3A       		.byte	0x3a
 5825 1546 1E150000 		.4byte	0x151e
 5826 154a 20       		.uleb128 0x20
 5827 154b 59150000 		.4byte	0x1559
 5828 154f 59150000 		.4byte	0x1559
 5829 1553 0E       		.uleb128 0xe
 5830 1554 BA030000 		.4byte	0x3ba
ARM GAS  C:\Users\mathi\AppData\Local\Temp\ccRLxsF0.s 			page 105


 5831 1558 00       		.byte	0
 5832 1559 02       		.uleb128 0x2
 5833 155a 01       		.byte	0x1
 5834 155b 02       		.byte	0x2
 5835 155c E0000000 		.4byte	.LASF292
 5836 1560 0B       		.uleb128 0xb
 5837 1561 04       		.byte	0x4
 5838 1562 4A150000 		.4byte	0x154a
 5839 1566 20       		.uleb128 0x20
 5840 1567 59150000 		.4byte	0x1559
 5841 156b 84150000 		.4byte	0x1584
 5842 156f 0E       		.uleb128 0xe
 5843 1570 BA030000 		.4byte	0x3ba
 5844 1574 0E       		.uleb128 0xe
 5845 1575 F5000000 		.4byte	0xf5
 5846 1579 0E       		.uleb128 0xe
 5847 157a D5120000 		.4byte	0x12d5
 5848 157e 0E       		.uleb128 0xe
 5849 157f F5000000 		.4byte	0xf5
 5850 1583 00       		.byte	0
 5851 1584 0B       		.uleb128 0xb
 5852 1585 04       		.byte	0x4
 5853 1586 66150000 		.4byte	0x1566
 5854 158a 20       		.uleb128 0x20
 5855 158b 59150000 		.4byte	0x1559
 5856 158f A8150000 		.4byte	0x15a8
 5857 1593 0E       		.uleb128 0xe
 5858 1594 BA030000 		.4byte	0x3ba
 5859 1598 0E       		.uleb128 0xe
 5860 1599 F5000000 		.4byte	0xf5
 5861 159d 0E       		.uleb128 0xe
 5862 159e 4C130000 		.4byte	0x134c
 5863 15a2 0E       		.uleb128 0xe
 5864 15a3 F5000000 		.4byte	0xf5
 5865 15a7 00       		.byte	0
 5866 15a8 0B       		.uleb128 0xb
 5867 15a9 04       		.byte	0x4
 5868 15aa 8A150000 		.4byte	0x158a
 5869 15ae 20       		.uleb128 0x20
 5870 15af 59150000 		.4byte	0x1559
 5871 15b3 C2150000 		.4byte	0x15c2
 5872 15b7 0E       		.uleb128 0xe
 5873 15b8 BA030000 		.4byte	0x3ba
 5874 15bc 0E       		.uleb128 0xe
 5875 15bd C2150000 		.4byte	0x15c2
 5876 15c1 00       		.byte	0
 5877 15c2 0B       		.uleb128 0xb
 5878 15c3 04       		.byte	0x4
 5879 15c4 3F150000 		.4byte	0x153f
 5880 15c8 0B       		.uleb128 0xb
 5881 15c9 04       		.byte	0x4
 5882 15ca AE150000 		.4byte	0x15ae
 5883 15ce 13       		.uleb128 0x13
 5884 15cf F5000000 		.4byte	0xf5
 5885 15d3 DE150000 		.4byte	0x15de
 5886 15d7 14       		.uleb128 0x14
 5887 15d8 25000000 		.4byte	0x25
ARM GAS  C:\Users\mathi\AppData\Local\Temp\ccRLxsF0.s 			page 106


 5888 15dc 03       		.byte	0x3
 5889 15dd 00       		.byte	0
 5890 15de 17       		.uleb128 0x17
 5891 15df 04       		.byte	0x4
 5892 15e0 1C       		.byte	0x1c
 5893 15e1 B3       		.byte	0xb3
 5894 15e2 FF150000 		.4byte	0x15ff
 5895 15e6 18       		.uleb128 0x18
 5896 15e7 73657400 		.ascii	"set\000"
 5897 15eb 1C       		.byte	0x1c
 5898 15ec B4       		.byte	0xb4
 5899 15ed DA000000 		.4byte	0xda
 5900 15f1 00       		.byte	0
 5901 15f2 08       		.uleb128 0x8
 5902 15f3 540C0000 		.4byte	.LASF293
 5903 15f7 1C       		.byte	0x1c
 5904 15f8 B5       		.byte	0xb5
 5905 15f9 DA000000 		.4byte	0xda
 5906 15fd 02       		.byte	0x2
 5907 15fe 00       		.byte	0
 5908 15ff 1D       		.uleb128 0x1d
 5909 1600 04       		.byte	0x4
 5910 1601 1C       		.byte	0x1c
 5911 1602 B1       		.byte	0xb1
 5912 1603 1A160000 		.4byte	0x161a
 5913 1607 23       		.uleb128 0x23
 5914 1608 5700     		.ascii	"W\000"
 5915 160a 1C       		.byte	0x1c
 5916 160b B2       		.byte	0xb2
 5917 160c F5000000 		.4byte	0xf5
 5918 1610 23       		.uleb128 0x23
 5919 1611 4800     		.ascii	"H\000"
 5920 1613 1C       		.byte	0x1c
 5921 1614 B6       		.byte	0xb6
 5922 1615 DE150000 		.4byte	0x15de
 5923 1619 00       		.byte	0
 5924 161a 06       		.uleb128 0x6
 5925 161b FF150000 		.4byte	0x15ff
 5926 161f 17       		.uleb128 0x17
 5927 1620 2C       		.byte	0x2c
 5928 1621 1C       		.byte	0x1c
 5929 1622 A9       		.byte	0xa9
 5930 1623 AC160000 		.4byte	0x16ac
 5931 1627 08       		.uleb128 0x8
 5932 1628 C31A0000 		.4byte	.LASF294
 5933 162c 1C       		.byte	0x1c
 5934 162d AB       		.byte	0xab
 5935 162e 00010000 		.4byte	0x100
 5936 1632 00       		.byte	0
 5937 1633 08       		.uleb128 0x8
 5938 1634 C3030000 		.4byte	.LASF295
 5939 1638 1C       		.byte	0x1c
 5940 1639 AC       		.byte	0xac
 5941 163a 00010000 		.4byte	0x100
 5942 163e 04       		.byte	0x4
 5943 163f 08       		.uleb128 0x8
 5944 1640 B70D0000 		.4byte	.LASF296
ARM GAS  C:\Users\mathi\AppData\Local\Temp\ccRLxsF0.s 			page 107


 5945 1644 1C       		.byte	0x1c
 5946 1645 AD       		.byte	0xad
 5947 1646 00010000 		.4byte	0x100
 5948 164a 08       		.byte	0x8
 5949 164b 08       		.uleb128 0x8
 5950 164c 1E1A0000 		.4byte	.LASF297
 5951 1650 1C       		.byte	0x1c
 5952 1651 AE       		.byte	0xae
 5953 1652 00010000 		.4byte	0x100
 5954 1656 0C       		.byte	0xc
 5955 1657 18       		.uleb128 0x18
 5956 1658 49445200 		.ascii	"IDR\000"
 5957 165c 1C       		.byte	0x1c
 5958 165d AF       		.byte	0xaf
 5959 165e 00010000 		.4byte	0x100
 5960 1662 10       		.byte	0x10
 5961 1663 18       		.uleb128 0x18
 5962 1664 4F445200 		.ascii	"ODR\000"
 5963 1668 1C       		.byte	0x1c
 5964 1669 B0       		.byte	0xb0
 5965 166a 00010000 		.4byte	0x100
 5966 166e 14       		.byte	0x14
 5967 166f 08       		.uleb128 0x8
 5968 1670 A2100000 		.4byte	.LASF298
 5969 1674 1C       		.byte	0x1c
 5970 1675 B7       		.byte	0xb7
 5971 1676 1A160000 		.4byte	0x161a
 5972 167a 18       		.byte	0x18
 5973 167b 08       		.uleb128 0x8
 5974 167c C5150000 		.4byte	.LASF299
 5975 1680 1C       		.byte	0x1c
 5976 1681 B8       		.byte	0xb8
 5977 1682 00010000 		.4byte	0x100
 5978 1686 1C       		.byte	0x1c
 5979 1687 08       		.uleb128 0x8
 5980 1688 D8180000 		.4byte	.LASF300
 5981 168c 1C       		.byte	0x1c
 5982 168d B9       		.byte	0xb9
 5983 168e 00010000 		.4byte	0x100
 5984 1692 20       		.byte	0x20
 5985 1693 08       		.uleb128 0x8
 5986 1694 CC180000 		.4byte	.LASF301
 5987 1698 1C       		.byte	0x1c
 5988 1699 BA       		.byte	0xba
 5989 169a 00010000 		.4byte	0x100
 5990 169e 24       		.byte	0x24
 5991 169f 18       		.uleb128 0x18
 5992 16a0 42525200 		.ascii	"BRR\000"
 5993 16a4 1C       		.byte	0x1c
 5994 16a5 BB       		.byte	0xbb
 5995 16a6 00010000 		.4byte	0x100
 5996 16aa 28       		.byte	0x28
 5997 16ab 00       		.byte	0
 5998 16ac 04       		.uleb128 0x4
 5999 16ad B00E0000 		.4byte	.LASF302
 6000 16b1 1C       		.byte	0x1c
 6001 16b2 BC       		.byte	0xbc
ARM GAS  C:\Users\mathi\AppData\Local\Temp\ccRLxsF0.s 			page 108


 6002 16b3 1F160000 		.4byte	0x161f
 6003 16b7 17       		.uleb128 0x17
 6004 16b8 1C       		.byte	0x1c
 6005 16b9 1C       		.byte	0x1c
 6006 16ba C1       		.byte	0xc1
 6007 16bb 14170000 		.4byte	0x1714
 6008 16bf 08       		.uleb128 0x8
 6009 16c0 A11D0000 		.4byte	.LASF303
 6010 16c4 1C       		.byte	0x1c
 6011 16c5 C3       		.byte	0xc3
 6012 16c6 F5000000 		.4byte	0xf5
 6013 16ca 00       		.byte	0
 6014 16cb 08       		.uleb128 0x8
 6015 16cc B1030000 		.4byte	.LASF304
 6016 16d0 1C       		.byte	0x1c
 6017 16d1 C5       		.byte	0xc5
 6018 16d2 F5000000 		.4byte	0xf5
 6019 16d6 04       		.byte	0x4
 6020 16d7 08       		.uleb128 0x8
 6021 16d8 EB020000 		.4byte	.LASF305
 6022 16dc 1C       		.byte	0x1c
 6023 16dd C7       		.byte	0xc7
 6024 16de F5000000 		.4byte	0xf5
 6025 16e2 08       		.byte	0x8
 6026 16e3 08       		.uleb128 0x8
 6027 16e4 EF1C0000 		.4byte	.LASF306
 6028 16e8 1C       		.byte	0x1c
 6029 16e9 C9       		.byte	0xc9
 6030 16ea F5000000 		.4byte	0xf5
 6031 16ee 0C       		.byte	0xc
 6032 16ef 18       		.uleb128 0x18
 6033 16f0 6F647200 		.ascii	"odr\000"
 6034 16f4 1C       		.byte	0x1c
 6035 16f5 CB       		.byte	0xcb
 6036 16f6 F5000000 		.4byte	0xf5
 6037 16fa 10       		.byte	0x10
 6038 16fb 08       		.uleb128 0x8
 6039 16fc 881A0000 		.4byte	.LASF307
 6040 1700 1C       		.byte	0x1c
 6041 1701 CD       		.byte	0xcd
 6042 1702 F5000000 		.4byte	0xf5
 6043 1706 14       		.byte	0x14
 6044 1707 08       		.uleb128 0x8
 6045 1708 62000000 		.4byte	.LASF308
 6046 170c 1C       		.byte	0x1c
 6047 170d CF       		.byte	0xcf
 6048 170e F5000000 		.4byte	0xf5
 6049 1712 18       		.byte	0x18
 6050 1713 00       		.byte	0
 6051 1714 04       		.uleb128 0x4
 6052 1715 DC170000 		.4byte	.LASF309
 6053 1719 1C       		.byte	0x1c
 6054 171a D0       		.byte	0xd0
 6055 171b B7160000 		.4byte	0x16b7
 6056 171f 17       		.uleb128 0x17
 6057 1720 FC       		.byte	0xfc
 6058 1721 1C       		.byte	0x1c
ARM GAS  C:\Users\mathi\AppData\Local\Temp\ccRLxsF0.s 			page 109


 6059 1722 D9       		.byte	0xd9
 6060 1723 94170000 		.4byte	0x1794
 6061 1727 08       		.uleb128 0x8
 6062 1728 3D0F0000 		.4byte	.LASF310
 6063 172c 1C       		.byte	0x1c
 6064 172d DC       		.byte	0xdc
 6065 172e 14170000 		.4byte	0x1714
 6066 1732 00       		.byte	0
 6067 1733 08       		.uleb128 0x8
 6068 1734 9A030000 		.4byte	.LASF311
 6069 1738 1C       		.byte	0x1c
 6070 1739 E0       		.byte	0xe0
 6071 173a 14170000 		.4byte	0x1714
 6072 173e 1C       		.byte	0x1c
 6073 173f 08       		.uleb128 0x8
 6074 1740 4C010000 		.4byte	.LASF312
 6075 1744 1C       		.byte	0x1c
 6076 1745 E4       		.byte	0xe4
 6077 1746 14170000 		.4byte	0x1714
 6078 174a 38       		.byte	0x38
 6079 174b 08       		.uleb128 0x8
 6080 174c 310D0000 		.4byte	.LASF313
 6081 1750 1C       		.byte	0x1c
 6082 1751 E8       		.byte	0xe8
 6083 1752 14170000 		.4byte	0x1714
 6084 1756 54       		.byte	0x54
 6085 1757 08       		.uleb128 0x8
 6086 1758 0B170000 		.4byte	.LASF314
 6087 175c 1C       		.byte	0x1c
 6088 175d EC       		.byte	0xec
 6089 175e 14170000 		.4byte	0x1714
 6090 1762 70       		.byte	0x70
 6091 1763 08       		.uleb128 0x8
 6092 1764 01210000 		.4byte	.LASF315
 6093 1768 1C       		.byte	0x1c
 6094 1769 F0       		.byte	0xf0
 6095 176a 14170000 		.4byte	0x1714
 6096 176e 8C       		.byte	0x8c
 6097 176f 08       		.uleb128 0x8
 6098 1770 550B0000 		.4byte	.LASF316
 6099 1774 1C       		.byte	0x1c
 6100 1775 F4       		.byte	0xf4
 6101 1776 14170000 		.4byte	0x1714
 6102 177a A8       		.byte	0xa8
 6103 177b 08       		.uleb128 0x8
 6104 177c 19150000 		.4byte	.LASF317
 6105 1780 1C       		.byte	0x1c
 6106 1781 F8       		.byte	0xf8
 6107 1782 14170000 		.4byte	0x1714
 6108 1786 C4       		.byte	0xc4
 6109 1787 08       		.uleb128 0x8
 6110 1788 F51E0000 		.4byte	.LASF318
 6111 178c 1C       		.byte	0x1c
 6112 178d FC       		.byte	0xfc
 6113 178e 14170000 		.4byte	0x1714
 6114 1792 E0       		.byte	0xe0
 6115 1793 00       		.byte	0
ARM GAS  C:\Users\mathi\AppData\Local\Temp\ccRLxsF0.s 			page 110


 6116 1794 04       		.uleb128 0x4
 6117 1795 BD0A0000 		.4byte	.LASF319
 6118 1799 1C       		.byte	0x1c
 6119 179a FE       		.byte	0xfe
 6120 179b 1F170000 		.4byte	0x171f
 6121 179f 05       		.uleb128 0x5
 6122 17a0 94170000 		.4byte	0x1794
 6123 17a4 1A       		.uleb128 0x1a
 6124 17a5 20150000 		.4byte	.LASF320
 6125 17a9 1C       		.byte	0x1c
 6126 17aa 1B01     		.2byte	0x11b
 6127 17ac B0170000 		.4byte	0x17b0
 6128 17b0 0B       		.uleb128 0xb
 6129 17b1 04       		.byte	0x4
 6130 17b2 AC160000 		.4byte	0x16ac
 6131 17b6 15       		.uleb128 0x15
 6132 17b7 5B1B0000 		.4byte	.LASF321
 6133 17bb 1C       		.byte	0x1c
 6134 17bc DA01     		.2byte	0x1da
 6135 17be 9F170000 		.4byte	0x179f
 6136 17c2 21       		.uleb128 0x21
 6137 17c3 07       		.byte	0x7
 6138 17c4 01       		.byte	0x1
 6139 17c5 5E000000 		.4byte	0x5e
 6140 17c9 1D       		.byte	0x1d
 6141 17ca 46       		.byte	0x46
 6142 17cb F4170000 		.4byte	0x17f4
 6143 17cf 22       		.uleb128 0x22
 6144 17d0 BF080000 		.4byte	.LASF322
 6145 17d4 00       		.byte	0
 6146 17d5 22       		.uleb128 0x22
 6147 17d6 D9120000 		.4byte	.LASF323
 6148 17da 01       		.byte	0x1
 6149 17db 22       		.uleb128 0x22
 6150 17dc 5F1D0000 		.4byte	.LASF324
 6151 17e0 02       		.byte	0x2
 6152 17e1 22       		.uleb128 0x22
 6153 17e2 88100000 		.4byte	.LASF325
 6154 17e6 03       		.byte	0x3
 6155 17e7 22       		.uleb128 0x22
 6156 17e8 08070000 		.4byte	.LASF326
 6157 17ec 04       		.byte	0x4
 6158 17ed 22       		.uleb128 0x22
 6159 17ee 69100000 		.4byte	.LASF327
 6160 17f2 05       		.byte	0x5
 6161 17f3 00       		.byte	0
 6162 17f4 04       		.uleb128 0x4
 6163 17f5 E8040000 		.4byte	.LASF328
 6164 17f9 1D       		.byte	0x1d
 6165 17fa 4D       		.byte	0x4d
 6166 17fb C2170000 		.4byte	0x17c2
 6167 17ff 1A       		.uleb128 0x1a
 6168 1800 B20F0000 		.4byte	.LASF329
 6169 1804 1E       		.byte	0x1e
 6170 1805 2701     		.2byte	0x127
 6171 1807 DA000000 		.4byte	0xda
 6172 180b 1A       		.uleb128 0x1a
ARM GAS  C:\Users\mathi\AppData\Local\Temp\ccRLxsF0.s 			page 111


 6173 180c 3E190000 		.4byte	.LASF330
 6174 1810 1E       		.byte	0x1e
 6175 1811 2C01     		.2byte	0x12c
 6176 1813 DA000000 		.4byte	0xda
 6177 1817 24       		.uleb128 0x24
 6178 1818 07       		.byte	0x7
 6179 1819 01       		.byte	0x1
 6180 181a 5E000000 		.4byte	0x5e
 6181 181e 1E       		.byte	0x1e
 6182 181f 3301     		.2byte	0x133
 6183 1821 32180000 		.4byte	0x1832
 6184 1825 22       		.uleb128 0x22
 6185 1826 880D0000 		.4byte	.LASF331
 6186 182a 00       		.byte	0
 6187 182b 22       		.uleb128 0x22
 6188 182c 0E030000 		.4byte	.LASF332
 6189 1830 01       		.byte	0x1
 6190 1831 00       		.byte	0
 6191 1832 1A       		.uleb128 0x1a
 6192 1833 3A1E0000 		.4byte	.LASF333
 6193 1837 1E       		.byte	0x1e
 6194 1838 3601     		.2byte	0x136
 6195 183a 17180000 		.4byte	0x1817
 6196 183e 1A       		.uleb128 0x1a
 6197 183f 180E0000 		.4byte	.LASF334
 6198 1843 1E       		.byte	0x1e
 6199 1844 3B01     		.2byte	0x13b
 6200 1846 4A180000 		.4byte	0x184a
 6201 184a 0C       		.uleb128 0xc
 6202 184b 180E0000 		.4byte	.LASF334
 6203 184f 38       		.byte	0x38
 6204 1850 1E       		.byte	0x1e
 6205 1851 9F01     		.2byte	0x19f
 6206 1853 DA180000 		.4byte	0x18da
 6207 1857 0A       		.uleb128 0xa
 6208 1858 9D130000 		.4byte	.LASF335
 6209 185c 1E       		.byte	0x1e
 6210 185d A301     		.2byte	0x1a3
 6211 185f F4170000 		.4byte	0x17f4
 6212 1863 00       		.byte	0
 6213 1864 0A       		.uleb128 0xa
 6214 1865 0F190000 		.4byte	.LASF336
 6215 1869 1E       		.byte	0x1e
 6216 186a A701     		.2byte	0x1a7
 6217 186c 011A0000 		.4byte	0x1a01
 6218 1870 04       		.byte	0x4
 6219 1871 0A       		.uleb128 0xa
 6220 1872 9C020000 		.4byte	.LASF337
 6221 1876 1E       		.byte	0x1e
 6222 1877 AB01     		.2byte	0x1ab
 6223 1879 07190000 		.4byte	0x1907
 6224 187d 08       		.byte	0x8
 6225 187e 0A       		.uleb128 0xa
 6226 187f 54160000 		.4byte	.LASF338
 6227 1883 1E       		.byte	0x1e
 6228 1884 AF01     		.2byte	0x1af
 6229 1886 33000000 		.4byte	0x33
ARM GAS  C:\Users\mathi\AppData\Local\Temp\ccRLxsF0.s 			page 112


 6230 188a 0C       		.byte	0xc
 6231 188b 0A       		.uleb128 0xa
 6232 188c 6E1B0000 		.4byte	.LASF339
 6233 1890 1E       		.byte	0x1e
 6234 1891 B301     		.2byte	0x1b3
 6235 1893 071A0000 		.4byte	0x1a07
 6236 1897 10       		.byte	0x10
 6237 1898 0A       		.uleb128 0xa
 6238 1899 76070000 		.4byte	.LASF340
 6239 189d 1E       		.byte	0x1e
 6240 189e B801     		.2byte	0x1b8
 6241 18a0 D2020000 		.4byte	0x2d2
 6242 18a4 14       		.byte	0x14
 6243 18a5 0A       		.uleb128 0xa
 6244 18a6 250C0000 		.4byte	.LASF341
 6245 18aa 1E       		.byte	0x1e
 6246 18ab BE01     		.2byte	0x1be
 6247 18ad AC110000 		.4byte	0x11ac
 6248 18b1 18       		.byte	0x18
 6249 18b2 09       		.uleb128 0x9
 6250 18b3 61646300 		.ascii	"adc\000"
 6251 18b7 1E       		.byte	0x1e
 6252 18b8 C701     		.2byte	0x1c7
 6253 18ba 0D1A0000 		.4byte	0x1a0d
 6254 18be 2C       		.byte	0x2c
 6255 18bf 0A       		.uleb128 0xa
 6256 18c0 7C0A0000 		.4byte	.LASF342
 6257 18c4 1E       		.byte	0x1e
 6258 18c5 CB01     		.2byte	0x1cb
 6259 18c7 131A0000 		.4byte	0x1a13
 6260 18cb 30       		.byte	0x30
 6261 18cc 0A       		.uleb128 0xa
 6262 18cd 42150000 		.4byte	.LASF343
 6263 18d1 1E       		.byte	0x1e
 6264 18d2 CF01     		.2byte	0x1cf
 6265 18d4 F5000000 		.4byte	0xf5
 6266 18d8 34       		.byte	0x34
 6267 18d9 00       		.byte	0
 6268 18da 1A       		.uleb128 0x1a
 6269 18db 71180000 		.4byte	.LASF344
 6270 18df 1E       		.byte	0x1e
 6271 18e0 4501     		.2byte	0x145
 6272 18e2 E6180000 		.4byte	0x18e6
 6273 18e6 0B       		.uleb128 0xb
 6274 18e7 04       		.byte	0x4
 6275 18e8 EC180000 		.4byte	0x18ec
 6276 18ec 0D       		.uleb128 0xd
 6277 18ed 01190000 		.4byte	0x1901
 6278 18f1 0E       		.uleb128 0xe
 6279 18f2 01190000 		.4byte	0x1901
 6280 18f6 0E       		.uleb128 0xe
 6281 18f7 07190000 		.4byte	0x1907
 6282 18fb 0E       		.uleb128 0xe
 6283 18fc 33000000 		.4byte	0x33
 6284 1900 00       		.byte	0
 6285 1901 0B       		.uleb128 0xb
 6286 1902 04       		.byte	0x4
ARM GAS  C:\Users\mathi\AppData\Local\Temp\ccRLxsF0.s 			page 113


 6287 1903 3E180000 		.4byte	0x183e
 6288 1907 0B       		.uleb128 0xb
 6289 1908 04       		.byte	0x4
 6290 1909 FF170000 		.4byte	0x17ff
 6291 190d 1A       		.uleb128 0x1a
 6292 190e 6E130000 		.4byte	.LASF345
 6293 1912 1E       		.byte	0x1e
 6294 1913 4E01     		.2byte	0x14e
 6295 1915 19190000 		.4byte	0x1919
 6296 1919 0B       		.uleb128 0xb
 6297 191a 04       		.byte	0x4
 6298 191b 1F190000 		.4byte	0x191f
 6299 191f 0D       		.uleb128 0xd
 6300 1920 2F190000 		.4byte	0x192f
 6301 1924 0E       		.uleb128 0xe
 6302 1925 01190000 		.4byte	0x1901
 6303 1929 0E       		.uleb128 0xe
 6304 192a 32180000 		.4byte	0x1832
 6305 192e 00       		.byte	0
 6306 192f 19       		.uleb128 0x19
 6307 1930 28       		.byte	0x28
 6308 1931 1E       		.byte	0x1e
 6309 1932 5801     		.2byte	0x158
 6310 1934 C8190000 		.4byte	0x19c8
 6311 1938 0A       		.uleb128 0xa
 6312 1939 8D1D0000 		.4byte	.LASF346
 6313 193d 1E       		.byte	0x1e
 6314 193e 5C01     		.2byte	0x15c
 6315 1940 59150000 		.4byte	0x1559
 6316 1944 00       		.byte	0
 6317 1945 0A       		.uleb128 0xa
 6318 1946 050F0000 		.4byte	.LASF347
 6319 194a 1E       		.byte	0x1e
 6320 194b 6001     		.2byte	0x160
 6321 194d 0B180000 		.4byte	0x180b
 6322 1951 02       		.byte	0x2
 6323 1952 0A       		.uleb128 0xa
 6324 1953 68090000 		.4byte	.LASF348
 6325 1957 1E       		.byte	0x1e
 6326 1958 6401     		.2byte	0x164
 6327 195a DA180000 		.4byte	0x18da
 6328 195e 04       		.byte	0x4
 6329 195f 0A       		.uleb128 0xa
 6330 1960 0C1F0000 		.4byte	.LASF349
 6331 1964 1E       		.byte	0x1e
 6332 1965 6801     		.2byte	0x168
 6333 1967 0D190000 		.4byte	0x190d
 6334 196b 08       		.byte	0x8
 6335 196c 09       		.uleb128 0x9
 6336 196d 63723100 		.ascii	"cr1\000"
 6337 1971 1E       		.byte	0x1e
 6338 1972 6F01     		.2byte	0x16f
 6339 1974 F5000000 		.4byte	0xf5
 6340 1978 0C       		.byte	0xc
 6341 1979 09       		.uleb128 0x9
 6342 197a 63723200 		.ascii	"cr2\000"
 6343 197e 1E       		.byte	0x1e
ARM GAS  C:\Users\mathi\AppData\Local\Temp\ccRLxsF0.s 			page 114


 6344 197f 7601     		.2byte	0x176
 6345 1981 F5000000 		.4byte	0xf5
 6346 1985 10       		.byte	0x10
 6347 1986 0A       		.uleb128 0xa
 6348 1987 71140000 		.4byte	.LASF350
 6349 198b 1E       		.byte	0x1e
 6350 198c 7C01     		.2byte	0x17c
 6351 198e F5000000 		.4byte	0xf5
 6352 1992 14       		.byte	0x14
 6353 1993 0A       		.uleb128 0xa
 6354 1994 77140000 		.4byte	.LASF351
 6355 1998 1E       		.byte	0x1e
 6356 1999 8201     		.2byte	0x182
 6357 199b F5000000 		.4byte	0xf5
 6358 199f 18       		.byte	0x18
 6359 19a0 0A       		.uleb128 0xa
 6360 19a1 FF000000 		.4byte	.LASF352
 6361 19a5 1E       		.byte	0x1e
 6362 19a6 8701     		.2byte	0x187
 6363 19a8 F5000000 		.4byte	0xf5
 6364 19ac 1C       		.byte	0x1c
 6365 19ad 0A       		.uleb128 0xa
 6366 19ae 37200000 		.4byte	.LASF353
 6367 19b2 1E       		.byte	0x1e
 6368 19b3 8C01     		.2byte	0x18c
 6369 19b5 F5000000 		.4byte	0xf5
 6370 19b9 20       		.byte	0x20
 6371 19ba 0A       		.uleb128 0xa
 6372 19bb 3C200000 		.4byte	.LASF354
 6373 19bf 1E       		.byte	0x1e
 6374 19c0 9101     		.2byte	0x191
 6375 19c2 F5000000 		.4byte	0xf5
 6376 19c6 24       		.byte	0x24
 6377 19c7 00       		.byte	0
 6378 19c8 1A       		.uleb128 0x1a
 6379 19c9 08060000 		.4byte	.LASF355
 6380 19cd 1E       		.byte	0x1e
 6381 19ce 9201     		.2byte	0x192
 6382 19d0 2F190000 		.4byte	0x192f
 6383 19d4 05       		.uleb128 0x5
 6384 19d5 C8190000 		.4byte	0x19c8
 6385 19d9 19       		.uleb128 0x19
 6386 19da 04       		.byte	0x4
 6387 19db 1E       		.byte	0x1e
 6388 19dc 9801     		.2byte	0x198
 6389 19de F0190000 		.4byte	0x19f0
 6390 19e2 0A       		.uleb128 0xa
 6391 19e3 65200000 		.4byte	.LASF356
 6392 19e7 1E       		.byte	0x1e
 6393 19e8 9901     		.2byte	0x199
 6394 19ea F5000000 		.4byte	0xf5
 6395 19ee 00       		.byte	0
 6396 19ef 00       		.byte	0
 6397 19f0 1A       		.uleb128 0x1a
 6398 19f1 300E0000 		.4byte	.LASF357
 6399 19f5 1E       		.byte	0x1e
 6400 19f6 9A01     		.2byte	0x19a
ARM GAS  C:\Users\mathi\AppData\Local\Temp\ccRLxsF0.s 			page 115


 6401 19f8 D9190000 		.4byte	0x19d9
 6402 19fc 05       		.uleb128 0x5
 6403 19fd F0190000 		.4byte	0x19f0
 6404 1a01 0B       		.uleb128 0xb
 6405 1a02 04       		.byte	0x4
 6406 1a03 FC190000 		.4byte	0x19fc
 6407 1a07 0B       		.uleb128 0xb
 6408 1a08 04       		.byte	0x4
 6409 1a09 D4190000 		.4byte	0x19d4
 6410 1a0d 0B       		.uleb128 0xb
 6411 1a0e 04       		.byte	0x4
 6412 1a0f 5C060000 		.4byte	0x65c
 6413 1a13 0B       		.uleb128 0xb
 6414 1a14 04       		.byte	0x4
 6415 1a15 28140000 		.4byte	0x1428
 6416 1a19 15       		.uleb128 0x15
 6417 1a1a 2B150000 		.4byte	.LASF358
 6418 1a1e 1E       		.byte	0x1e
 6419 1a1f 1402     		.2byte	0x214
 6420 1a21 3E180000 		.4byte	0x183e
 6421 1a25 15       		.uleb128 0x15
 6422 1a26 31150000 		.4byte	.LASF359
 6423 1a2a 1E       		.byte	0x1e
 6424 1a2b 1802     		.2byte	0x218
 6425 1a2d 3E180000 		.4byte	0x183e
 6426 1a31 15       		.uleb128 0x15
 6427 1a32 37150000 		.4byte	.LASF360
 6428 1a36 1E       		.byte	0x1e
 6429 1a37 1C02     		.2byte	0x21c
 6430 1a39 3E180000 		.4byte	0x183e
 6431 1a3d 21       		.uleb128 0x21
 6432 1a3e 07       		.byte	0x7
 6433 1a3f 01       		.byte	0x1
 6434 1a40 5E000000 		.4byte	0x5e
 6435 1a44 1F       		.byte	0x1f
 6436 1a45 5F       		.byte	0x5f
 6437 1a46 691A0000 		.4byte	0x1a69
 6438 1a4a 22       		.uleb128 0x22
 6439 1a4b 060A0000 		.4byte	.LASF361
 6440 1a4f 00       		.byte	0
 6441 1a50 22       		.uleb128 0x22
 6442 1a51 AE000000 		.4byte	.LASF362
 6443 1a55 01       		.byte	0x1
 6444 1a56 22       		.uleb128 0x22
 6445 1a57 46000000 		.4byte	.LASF363
 6446 1a5b 02       		.byte	0x2
 6447 1a5c 22       		.uleb128 0x22
 6448 1a5d 2F060000 		.4byte	.LASF364
 6449 1a61 03       		.byte	0x3
 6450 1a62 22       		.uleb128 0x22
 6451 1a63 DF090000 		.4byte	.LASF365
 6452 1a67 04       		.byte	0x4
 6453 1a68 00       		.byte	0
 6454 1a69 04       		.uleb128 0x4
 6455 1a6a 6B060000 		.4byte	.LASF366
 6456 1a6e 1F       		.byte	0x1f
 6457 1a6f 65       		.byte	0x65
ARM GAS  C:\Users\mathi\AppData\Local\Temp\ccRLxsF0.s 			page 116


 6458 1a70 3D1A0000 		.4byte	0x1a3d
 6459 1a74 13       		.uleb128 0x13
 6460 1a75 BF000000 		.4byte	0xbf
 6461 1a79 841A0000 		.4byte	0x1a84
 6462 1a7d 14       		.uleb128 0x14
 6463 1a7e 25000000 		.4byte	0x25
 6464 1a82 07       		.byte	0x7
 6465 1a83 00       		.byte	0
 6466 1a84 17       		.uleb128 0x17
 6467 1a85 08       		.byte	0x8
 6468 1a86 20       		.byte	0x20
 6469 1a87 F4       		.byte	0xf4
 6470 1a88 A61A0000 		.4byte	0x1aa6
 6471 1a8c 18       		.uleb128 0x18
 6472 1a8d 6D637200 		.ascii	"mcr\000"
 6473 1a91 20       		.byte	0x20
 6474 1a92 FA       		.byte	0xfa
 6475 1a93 F5000000 		.4byte	0xf5
 6476 1a97 00       		.byte	0
 6477 1a98 09       		.uleb128 0x9
 6478 1a99 62747200 		.ascii	"btr\000"
 6479 1a9d 20       		.byte	0x20
 6480 1a9e 0001     		.2byte	0x100
 6481 1aa0 F5000000 		.4byte	0xf5
 6482 1aa4 04       		.byte	0x4
 6483 1aa5 00       		.byte	0
 6484 1aa6 1A       		.uleb128 0x1a
 6485 1aa7 01170000 		.4byte	.LASF367
 6486 1aab 20       		.byte	0x20
 6487 1aac 0101     		.2byte	0x101
 6488 1aae 841A0000 		.4byte	0x1a84
 6489 1ab2 05       		.uleb128 0x5
 6490 1ab3 A61A0000 		.4byte	0x1aa6
 6491 1ab7 19       		.uleb128 0x19
 6492 1ab8 30       		.byte	0x30
 6493 1ab9 20       		.byte	0x20
 6494 1aba 0601     		.2byte	0x106
 6495 1abc 431B0000 		.4byte	0x1b43
 6496 1ac0 0A       		.uleb128 0xa
 6497 1ac1 9D130000 		.4byte	.LASF335
 6498 1ac5 20       		.byte	0x20
 6499 1ac6 0A01     		.2byte	0x10a
 6500 1ac8 691A0000 		.4byte	0x1a69
 6501 1acc 00       		.byte	0
 6502 1acd 0A       		.uleb128 0xa
 6503 1ace 0F190000 		.4byte	.LASF336
 6504 1ad2 20       		.byte	0x20
 6505 1ad3 0E01     		.2byte	0x10e
 6506 1ad5 431B0000 		.4byte	0x1b43
 6507 1ad9 04       		.byte	0x4
 6508 1ada 0A       		.uleb128 0xa
 6509 1adb 95090000 		.4byte	.LASF368
 6510 1adf 20       		.byte	0x20
 6511 1ae0 1201     		.2byte	0x112
 6512 1ae2 07030000 		.4byte	0x307
 6513 1ae6 08       		.byte	0x8
 6514 1ae7 0A       		.uleb128 0xa
ARM GAS  C:\Users\mathi\AppData\Local\Temp\ccRLxsF0.s 			page 117


 6515 1ae8 421B0000 		.4byte	.LASF369
 6516 1aec 20       		.byte	0x20
 6517 1aed 1601     		.2byte	0x116
 6518 1aef 07030000 		.4byte	0x307
 6519 1af3 10       		.byte	0x10
 6520 1af4 0A       		.uleb128 0xa
 6521 1af5 DB160000 		.4byte	.LASF370
 6522 1af9 20       		.byte	0x20
 6523 1afa 2301     		.2byte	0x123
 6524 1afc 30120000 		.4byte	0x1230
 6525 1b00 18       		.byte	0x18
 6526 1b01 0A       		.uleb128 0xa
 6527 1b02 3D0B0000 		.4byte	.LASF371
 6528 1b06 20       		.byte	0x20
 6529 1b07 2A01     		.2byte	0x12a
 6530 1b09 30120000 		.4byte	0x1230
 6531 1b0d 1C       		.byte	0x1c
 6532 1b0e 0A       		.uleb128 0xa
 6533 1b0f F90E0000 		.4byte	.LASF372
 6534 1b13 20       		.byte	0x20
 6535 1b14 3001     		.2byte	0x130
 6536 1b16 30120000 		.4byte	0x1230
 6537 1b1a 20       		.byte	0x20
 6538 1b1b 0A       		.uleb128 0xa
 6539 1b1c 17040000 		.4byte	.LASF373
 6540 1b20 20       		.byte	0x20
 6541 1b21 3501     		.2byte	0x135
 6542 1b23 30120000 		.4byte	0x1230
 6543 1b27 24       		.byte	0x24
 6544 1b28 0A       		.uleb128 0xa
 6545 1b29 53090000 		.4byte	.LASF374
 6546 1b2d 20       		.byte	0x20
 6547 1b2e 3901     		.2byte	0x139
 6548 1b30 30120000 		.4byte	0x1230
 6549 1b34 28       		.byte	0x28
 6550 1b35 09       		.uleb128 0x9
 6551 1b36 63616E00 		.ascii	"can\000"
 6552 1b3a 20       		.byte	0x20
 6553 1b3b 3F01     		.2byte	0x13f
 6554 1b3d 491B0000 		.4byte	0x1b49
 6555 1b41 2C       		.byte	0x2c
 6556 1b42 00       		.byte	0
 6557 1b43 0B       		.uleb128 0xb
 6558 1b44 04       		.byte	0x4
 6559 1b45 B21A0000 		.4byte	0x1ab2
 6560 1b49 0B       		.uleb128 0xb
 6561 1b4a 04       		.byte	0x4
 6562 1b4b A5080000 		.4byte	0x8a5
 6563 1b4f 1A       		.uleb128 0x1a
 6564 1b50 65040000 		.4byte	.LASF375
 6565 1b54 20       		.byte	0x20
 6566 1b55 4001     		.2byte	0x140
 6567 1b57 B71A0000 		.4byte	0x1ab7
 6568 1b5b 15       		.uleb128 0x15
 6569 1b5c C11C0000 		.4byte	.LASF376
 6570 1b60 20       		.byte	0x20
 6571 1b61 4B01     		.2byte	0x14b
ARM GAS  C:\Users\mathi\AppData\Local\Temp\ccRLxsF0.s 			page 118


 6572 1b63 4F1B0000 		.4byte	0x1b4f
 6573 1b67 21       		.uleb128 0x21
 6574 1b68 07       		.byte	0x7
 6575 1b69 01       		.byte	0x1
 6576 1b6a 5E000000 		.4byte	0x5e
 6577 1b6e 21       		.byte	0x21
 6578 1b6f 46       		.byte	0x46
 6579 1b70 991B0000 		.4byte	0x1b99
 6580 1b74 22       		.uleb128 0x22
 6581 1b75 33190000 		.4byte	.LASF377
 6582 1b79 00       		.byte	0
 6583 1b7a 22       		.uleb128 0x22
 6584 1b7b BA1D0000 		.4byte	.LASF378
 6585 1b7f 01       		.byte	0x1
 6586 1b80 22       		.uleb128 0x22
 6587 1b81 BF0D0000 		.4byte	.LASF379
 6588 1b85 02       		.byte	0x2
 6589 1b86 22       		.uleb128 0x22
 6590 1b87 81130000 		.4byte	.LASF380
 6591 1b8b 03       		.byte	0x3
 6592 1b8c 22       		.uleb128 0x22
 6593 1b8d F1180000 		.4byte	.LASF381
 6594 1b91 04       		.byte	0x4
 6595 1b92 22       		.uleb128 0x22
 6596 1b93 6D0E0000 		.4byte	.LASF382
 6597 1b97 05       		.byte	0x5
 6598 1b98 00       		.byte	0
 6599 1b99 04       		.uleb128 0x4
 6600 1b9a 94160000 		.4byte	.LASF383
 6601 1b9e 21       		.byte	0x21
 6602 1b9f 4D       		.byte	0x4d
 6603 1ba0 671B0000 		.4byte	0x1b67
 6604 1ba4 17       		.uleb128 0x17
 6605 1ba5 1C       		.byte	0x1c
 6606 1ba6 22       		.byte	0x22
 6607 1ba7 F9       		.byte	0xf9
 6608 1ba8 071C0000 		.4byte	0x1c07
 6609 1bac 18       		.uleb128 0x18
 6610 1bad 64616300 		.ascii	"dac\000"
 6611 1bb1 22       		.byte	0x22
 6612 1bb2 FD       		.byte	0xfd
 6613 1bb3 071C0000 		.4byte	0x1c07
 6614 1bb7 00       		.byte	0
 6615 1bb8 0A       		.uleb128 0xa
 6616 1bb9 EA150000 		.4byte	.LASF384
 6617 1bbd 22       		.byte	0x22
 6618 1bbe 0101     		.2byte	0x101
 6619 1bc0 F5000000 		.4byte	0xf5
 6620 1bc4 04       		.byte	0x4
 6621 1bc5 0A       		.uleb128 0xa
 6622 1bc6 7D070000 		.4byte	.LASF385
 6623 1bca 22       		.byte	0x22
 6624 1bcb 0501     		.2byte	0x105
 6625 1bcd F5000000 		.4byte	0xf5
 6626 1bd1 08       		.byte	0x8
 6627 1bd2 0A       		.uleb128 0xa
 6628 1bd3 AF020000 		.4byte	.LASF386
ARM GAS  C:\Users\mathi\AppData\Local\Temp\ccRLxsF0.s 			page 119


 6629 1bd7 22       		.byte	0x22
 6630 1bd8 0901     		.2byte	0x109
 6631 1bda F5000000 		.4byte	0xf5
 6632 1bde 0C       		.byte	0xc
 6633 1bdf 09       		.uleb128 0x9
 6634 1be0 646D6100 		.ascii	"dma\000"
 6635 1be4 22       		.byte	0x22
 6636 1be5 0D01     		.2byte	0x10d
 6637 1be7 131A0000 		.4byte	0x1a13
 6638 1beb 10       		.byte	0x10
 6639 1bec 0A       		.uleb128 0xa
 6640 1bed 42150000 		.4byte	.LASF343
 6641 1bf1 22       		.byte	0x22
 6642 1bf2 1101     		.2byte	0x111
 6643 1bf4 F5000000 		.4byte	0xf5
 6644 1bf8 14       		.byte	0x14
 6645 1bf9 0A       		.uleb128 0xa
 6646 1bfa F9140000 		.4byte	.LASF387
 6647 1bfe 22       		.byte	0x22
 6648 1bff 1501     		.2byte	0x115
 6649 1c01 F5000000 		.4byte	0xf5
 6650 1c05 18       		.byte	0x18
 6651 1c06 00       		.byte	0
 6652 1c07 0B       		.uleb128 0xb
 6653 1c08 04       		.byte	0x4
 6654 1c09 6F090000 		.4byte	0x96f
 6655 1c0d 1A       		.uleb128 0x1a
 6656 1c0e CA030000 		.4byte	.LASF388
 6657 1c12 22       		.byte	0x22
 6658 1c13 1601     		.2byte	0x116
 6659 1c15 A41B0000 		.4byte	0x1ba4
 6660 1c19 05       		.uleb128 0x5
 6661 1c1a 0D1C0000 		.4byte	0x1c0d
 6662 1c1e 1A       		.uleb128 0x1a
 6663 1c1f 300C0000 		.4byte	.LASF389
 6664 1c23 22       		.byte	0x22
 6665 1c24 1B01     		.2byte	0x11b
 6666 1c26 2A1C0000 		.4byte	0x1c2a
 6667 1c2a 0C       		.uleb128 0xc
 6668 1c2b 300C0000 		.4byte	.LASF389
 6669 1c2f 30       		.byte	0x30
 6670 1c30 22       		.byte	0x22
 6671 1c31 7B01     		.2byte	0x17b
 6672 1c33 A01C0000 		.4byte	0x1ca0
 6673 1c37 0A       		.uleb128 0xa
 6674 1c38 9D130000 		.4byte	.LASF335
 6675 1c3c 22       		.byte	0x22
 6676 1c3d 7F01     		.2byte	0x17f
 6677 1c3f 991B0000 		.4byte	0x1b99
 6678 1c43 00       		.byte	0
 6679 1c44 0A       		.uleb128 0xa
 6680 1c45 6E1B0000 		.4byte	.LASF339
 6681 1c49 22       		.byte	0x22
 6682 1c4a 8301     		.2byte	0x183
 6683 1c4c DE1D0000 		.4byte	0x1dde
 6684 1c50 04       		.byte	0x4
 6685 1c51 0A       		.uleb128 0xa
ARM GAS  C:\Users\mathi\AppData\Local\Temp\ccRLxsF0.s 			page 120


 6686 1c52 9C020000 		.4byte	.LASF337
 6687 1c56 22       		.byte	0x22
 6688 1c57 8701     		.2byte	0x187
 6689 1c59 051D0000 		.4byte	0x1d05
 6690 1c5d 08       		.byte	0x8
 6691 1c5e 0A       		.uleb128 0xa
 6692 1c5f 54160000 		.4byte	.LASF338
 6693 1c63 22       		.byte	0x22
 6694 1c64 8B01     		.2byte	0x18b
 6695 1c66 DA000000 		.4byte	0xda
 6696 1c6a 0C       		.byte	0xc
 6697 1c6b 0A       		.uleb128 0xa
 6698 1c6c 0F190000 		.4byte	.LASF336
 6699 1c70 22       		.byte	0x22
 6700 1c71 8F01     		.2byte	0x18f
 6701 1c73 E41D0000 		.4byte	0x1de4
 6702 1c77 10       		.byte	0x10
 6703 1c78 0A       		.uleb128 0xa
 6704 1c79 76070000 		.4byte	.LASF340
 6705 1c7d 22       		.byte	0x22
 6706 1c7e 9401     		.2byte	0x194
 6707 1c80 D2020000 		.4byte	0x2d2
 6708 1c84 14       		.byte	0x14
 6709 1c85 0A       		.uleb128 0xa
 6710 1c86 250C0000 		.4byte	.LASF341
 6711 1c8a 22       		.byte	0x22
 6712 1c8b 9A01     		.2byte	0x19a
 6713 1c8d AC110000 		.4byte	0x11ac
 6714 1c91 18       		.byte	0x18
 6715 1c92 0A       		.uleb128 0xa
 6716 1c93 5D0F0000 		.4byte	.LASF390
 6717 1c97 22       		.byte	0x22
 6718 1c98 A301     		.2byte	0x1a3
 6719 1c9a EA1D0000 		.4byte	0x1dea
 6720 1c9e 2C       		.byte	0x2c
 6721 1c9f 00       		.byte	0
 6722 1ca0 1A       		.uleb128 0x1a
 6723 1ca1 AD160000 		.4byte	.LASF391
 6724 1ca5 22       		.byte	0x22
 6725 1ca6 2001     		.2byte	0x120
 6726 1ca8 DA000000 		.4byte	0xda
 6727 1cac 05       		.uleb128 0x5
 6728 1cad A01C0000 		.4byte	0x1ca0
 6729 1cb1 24       		.uleb128 0x24
 6730 1cb2 07       		.byte	0x7
 6731 1cb3 01       		.byte	0x1
 6732 1cb4 5E000000 		.4byte	0x5e
 6733 1cb8 22       		.byte	0x22
 6734 1cb9 2701     		.2byte	0x127
 6735 1cbb CC1C0000 		.4byte	0x1ccc
 6736 1cbf 22       		.uleb128 0x22
 6737 1cc0 22170000 		.4byte	.LASF392
 6738 1cc4 00       		.byte	0
 6739 1cc5 22       		.uleb128 0x22
 6740 1cc6 41090000 		.4byte	.LASF393
 6741 1cca 01       		.byte	0x1
 6742 1ccb 00       		.byte	0
ARM GAS  C:\Users\mathi\AppData\Local\Temp\ccRLxsF0.s 			page 121


 6743 1ccc 1A       		.uleb128 0x1a
 6744 1ccd 9C0F0000 		.4byte	.LASF394
 6745 1cd1 22       		.byte	0x22
 6746 1cd2 2A01     		.2byte	0x12a
 6747 1cd4 B11C0000 		.4byte	0x1cb1
 6748 1cd8 1A       		.uleb128 0x1a
 6749 1cd9 DB070000 		.4byte	.LASF395
 6750 1cdd 22       		.byte	0x22
 6751 1cde 3401     		.2byte	0x134
 6752 1ce0 E41C0000 		.4byte	0x1ce4
 6753 1ce4 0B       		.uleb128 0xb
 6754 1ce5 04       		.byte	0x4
 6755 1ce6 EA1C0000 		.4byte	0x1cea
 6756 1cea 0D       		.uleb128 0xd
 6757 1ceb FF1C0000 		.4byte	0x1cff
 6758 1cef 0E       		.uleb128 0xe
 6759 1cf0 FF1C0000 		.4byte	0x1cff
 6760 1cf4 0E       		.uleb128 0xe
 6761 1cf5 051D0000 		.4byte	0x1d05
 6762 1cf9 0E       		.uleb128 0xe
 6763 1cfa 33000000 		.4byte	0x33
 6764 1cfe 00       		.byte	0
 6765 1cff 0B       		.uleb128 0xb
 6766 1d00 04       		.byte	0x4
 6767 1d01 1E1C0000 		.4byte	0x1c1e
 6768 1d05 0B       		.uleb128 0xb
 6769 1d06 04       		.byte	0x4
 6770 1d07 AC1C0000 		.4byte	0x1cac
 6771 1d0b 1A       		.uleb128 0x1a
 6772 1d0c F51C0000 		.4byte	.LASF396
 6773 1d10 22       		.byte	0x22
 6774 1d11 3F01     		.2byte	0x13f
 6775 1d13 171D0000 		.4byte	0x1d17
 6776 1d17 0B       		.uleb128 0xb
 6777 1d18 04       		.byte	0x4
 6778 1d19 1D1D0000 		.4byte	0x1d1d
 6779 1d1d 0D       		.uleb128 0xd
 6780 1d1e 2D1D0000 		.4byte	0x1d2d
 6781 1d22 0E       		.uleb128 0xe
 6782 1d23 FF1C0000 		.4byte	0x1cff
 6783 1d27 0E       		.uleb128 0xe
 6784 1d28 CC1C0000 		.4byte	0x1ccc
 6785 1d2c 00       		.byte	0
 6786 1d2d 24       		.uleb128 0x24
 6787 1d2e 07       		.byte	0x7
 6788 1d2f 01       		.byte	0x1
 6789 1d30 5E000000 		.4byte	0x5e
 6790 1d34 22       		.byte	0x22
 6791 1d35 4401     		.2byte	0x144
 6792 1d37 4E1D0000 		.4byte	0x1d4e
 6793 1d3b 22       		.uleb128 0x22
 6794 1d3c 85190000 		.4byte	.LASF397
 6795 1d40 00       		.byte	0
 6796 1d41 22       		.uleb128 0x22
 6797 1d42 EC100000 		.4byte	.LASF398
 6798 1d46 01       		.byte	0x1
 6799 1d47 22       		.uleb128 0x22
ARM GAS  C:\Users\mathi\AppData\Local\Temp\ccRLxsF0.s 			page 122


 6800 1d48 18140000 		.4byte	.LASF399
 6801 1d4c 02       		.byte	0x2
 6802 1d4d 00       		.byte	0
 6803 1d4e 1A       		.uleb128 0x1a
 6804 1d4f 6F0A0000 		.4byte	.LASF400
 6805 1d53 22       		.byte	0x22
 6806 1d54 4D01     		.2byte	0x14d
 6807 1d56 2D1D0000 		.4byte	0x1d2d
 6808 1d5a 19       		.uleb128 0x19
 6809 1d5b 10       		.byte	0x10
 6810 1d5c 22       		.byte	0x22
 6811 1d5d 5201     		.2byte	0x152
 6812 1d5f 981D0000 		.4byte	0x1d98
 6813 1d63 0A       		.uleb128 0xa
 6814 1d64 050F0000 		.4byte	.LASF347
 6815 1d68 22       		.byte	0x22
 6816 1d69 5601     		.2byte	0x156
 6817 1d6b F5000000 		.4byte	0xf5
 6818 1d6f 00       		.byte	0
 6819 1d70 0A       		.uleb128 0xa
 6820 1d71 68090000 		.4byte	.LASF348
 6821 1d75 22       		.byte	0x22
 6822 1d76 5A01     		.2byte	0x15a
 6823 1d78 D81C0000 		.4byte	0x1cd8
 6824 1d7c 04       		.byte	0x4
 6825 1d7d 0A       		.uleb128 0xa
 6826 1d7e 0C1F0000 		.4byte	.LASF349
 6827 1d82 22       		.byte	0x22
 6828 1d83 5E01     		.2byte	0x15e
 6829 1d85 0B1D0000 		.4byte	0x1d0b
 6830 1d89 08       		.byte	0x8
 6831 1d8a 0A       		.uleb128 0xa
 6832 1d8b 5C120000 		.4byte	.LASF401
 6833 1d8f 22       		.byte	0x22
 6834 1d90 6601     		.2byte	0x166
 6835 1d92 F5000000 		.4byte	0xf5
 6836 1d96 0C       		.byte	0xc
 6837 1d97 00       		.byte	0
 6838 1d98 1A       		.uleb128 0x1a
 6839 1d99 48100000 		.4byte	.LASF402
 6840 1d9d 22       		.byte	0x22
 6841 1d9e 6701     		.2byte	0x167
 6842 1da0 5A1D0000 		.4byte	0x1d5a
 6843 1da4 05       		.uleb128 0x5
 6844 1da5 981D0000 		.4byte	0x1d98
 6845 1da9 19       		.uleb128 0x19
 6846 1daa 04       		.byte	0x4
 6847 1dab 22       		.byte	0x22
 6848 1dac 6C01     		.2byte	0x16c
 6849 1dae CD1D0000 		.4byte	0x1dcd
 6850 1db2 0A       		.uleb128 0xa
 6851 1db3 B30A0000 		.4byte	.LASF403
 6852 1db7 22       		.byte	0x22
 6853 1db8 7101     		.2byte	0x171
 6854 1dba A01C0000 		.4byte	0x1ca0
 6855 1dbe 00       		.byte	0
 6856 1dbf 0A       		.uleb128 0xa
ARM GAS  C:\Users\mathi\AppData\Local\Temp\ccRLxsF0.s 			page 123


 6857 1dc0 E6000000 		.4byte	.LASF404
 6858 1dc4 22       		.byte	0x22
 6859 1dc5 7501     		.2byte	0x175
 6860 1dc7 4E1D0000 		.4byte	0x1d4e
 6861 1dcb 02       		.byte	0x2
 6862 1dcc 00       		.byte	0
 6863 1dcd 1A       		.uleb128 0x1a
 6864 1dce 3A0C0000 		.4byte	.LASF405
 6865 1dd2 22       		.byte	0x22
 6866 1dd3 7601     		.2byte	0x176
 6867 1dd5 A91D0000 		.4byte	0x1da9
 6868 1dd9 05       		.uleb128 0x5
 6869 1dda CD1D0000 		.4byte	0x1dcd
 6870 1dde 0B       		.uleb128 0xb
 6871 1ddf 04       		.byte	0x4
 6872 1de0 A41D0000 		.4byte	0x1da4
 6873 1de4 0B       		.uleb128 0xb
 6874 1de5 04       		.byte	0x4
 6875 1de6 D91D0000 		.4byte	0x1dd9
 6876 1dea 0B       		.uleb128 0xb
 6877 1deb 04       		.byte	0x4
 6878 1dec 191C0000 		.4byte	0x1c19
 6879 1df0 15       		.uleb128 0x15
 6880 1df1 5F040000 		.4byte	.LASF406
 6881 1df5 22       		.byte	0x22
 6882 1df6 B301     		.2byte	0x1b3
 6883 1df8 1E1C0000 		.4byte	0x1c1e
 6884 1dfc 21       		.uleb128 0x21
 6885 1dfd 07       		.byte	0x7
 6886 1dfe 01       		.byte	0x1
 6887 1dff 5E000000 		.4byte	0x5e
 6888 1e03 23       		.byte	0x23
 6889 1e04 3F       		.byte	0x3f
 6890 1e05 1C1E0000 		.4byte	0x1e1c
 6891 1e09 22       		.uleb128 0x22
 6892 1e0a D4090000 		.4byte	.LASF407
 6893 1e0e 00       		.byte	0
 6894 1e0f 22       		.uleb128 0x22
 6895 1e10 08210000 		.4byte	.LASF408
 6896 1e14 01       		.byte	0x1
 6897 1e15 22       		.uleb128 0x22
 6898 1e16 E0020000 		.4byte	.LASF409
 6899 1e1a 02       		.byte	0x2
 6900 1e1b 00       		.byte	0
 6901 1e1c 04       		.uleb128 0x4
 6902 1e1d 90180000 		.4byte	.LASF410
 6903 1e21 23       		.byte	0x23
 6904 1e22 43       		.byte	0x43
 6905 1e23 FC1D0000 		.4byte	0x1dfc
 6906 1e27 04       		.uleb128 0x4
 6907 1e28 DF080000 		.4byte	.LASF411
 6908 1e2c 23       		.byte	0x23
 6909 1e2d 48       		.byte	0x48
 6910 1e2e 321E0000 		.4byte	0x1e32
 6911 1e32 07       		.uleb128 0x7
 6912 1e33 DF080000 		.4byte	.LASF411
 6913 1e37 08       		.byte	0x8
ARM GAS  C:\Users\mathi\AppData\Local\Temp\ccRLxsF0.s 			page 124


 6914 1e38 24       		.byte	0x24
 6915 1e39 71       		.byte	0x71
 6916 1e3a 571E0000 		.4byte	0x1e57
 6917 1e3e 08       		.uleb128 0x8
 6918 1e3f 9D130000 		.4byte	.LASF335
 6919 1e43 24       		.byte	0x24
 6920 1e44 75       		.byte	0x75
 6921 1e45 1C1E0000 		.4byte	0x1e1c
 6922 1e49 00       		.byte	0
 6923 1e4a 08       		.uleb128 0x8
 6924 1e4b 0F190000 		.4byte	.LASF336
 6925 1e4f 24       		.byte	0x24
 6926 1e50 79       		.byte	0x79
 6927 1e51 E91E0000 		.4byte	0x1ee9
 6928 1e55 04       		.byte	0x4
 6929 1e56 00       		.byte	0
 6930 1e57 04       		.uleb128 0x4
 6931 1e58 621F0000 		.4byte	.LASF412
 6932 1e5c 24       		.byte	0x24
 6933 1e5d 47       		.byte	0x47
 6934 1e5e F5000000 		.4byte	0xf5
 6935 1e62 04       		.uleb128 0x4
 6936 1e63 341B0000 		.4byte	.LASF413
 6937 1e67 24       		.byte	0x24
 6938 1e68 4F       		.byte	0x4f
 6939 1e69 6D1E0000 		.4byte	0x1e6d
 6940 1e6d 0B       		.uleb128 0xb
 6941 1e6e 04       		.byte	0x4
 6942 1e6f 731E0000 		.4byte	0x1e73
 6943 1e73 0D       		.uleb128 0xd
 6944 1e74 831E0000 		.4byte	0x1e83
 6945 1e78 0E       		.uleb128 0xe
 6946 1e79 831E0000 		.4byte	0x1e83
 6947 1e7d 0E       		.uleb128 0xe
 6948 1e7e 571E0000 		.4byte	0x1e57
 6949 1e82 00       		.byte	0
 6950 1e83 0B       		.uleb128 0xb
 6951 1e84 04       		.byte	0x4
 6952 1e85 271E0000 		.4byte	0x1e27
 6953 1e89 17       		.uleb128 0x17
 6954 1e8a 08       		.byte	0x8
 6955 1e8b 24       		.byte	0x24
 6956 1e8c 54       		.byte	0x54
 6957 1e8d A91E0000 		.4byte	0x1ea9
 6958 1e91 08       		.uleb128 0x8
 6959 1e92 D4080000 		.4byte	.LASF414
 6960 1e96 24       		.byte	0x24
 6961 1e97 58       		.byte	0x58
 6962 1e98 F5000000 		.4byte	0xf5
 6963 1e9c 00       		.byte	0
 6964 1e9d 18       		.uleb128 0x18
 6965 1e9e 636200   		.ascii	"cb\000"
 6966 1ea1 24       		.byte	0x24
 6967 1ea2 5F       		.byte	0x5f
 6968 1ea3 621E0000 		.4byte	0x1e62
 6969 1ea7 04       		.byte	0x4
 6970 1ea8 00       		.byte	0
ARM GAS  C:\Users\mathi\AppData\Local\Temp\ccRLxsF0.s 			page 125


 6971 1ea9 04       		.uleb128 0x4
 6972 1eaa A60D0000 		.4byte	.LASF415
 6973 1eae 24       		.byte	0x24
 6974 1eaf 60       		.byte	0x60
 6975 1eb0 891E0000 		.4byte	0x1e89
 6976 1eb4 17       		.uleb128 0x17
 6977 1eb5 B8       		.byte	0xb8
 6978 1eb6 24       		.byte	0x24
 6979 1eb7 66       		.byte	0x66
 6980 1eb8 C91E0000 		.4byte	0x1ec9
 6981 1ebc 08       		.uleb128 0x8
 6982 1ebd 151D0000 		.4byte	.LASF416
 6983 1ec1 24       		.byte	0x24
 6984 1ec2 6A       		.byte	0x6a
 6985 1ec3 C91E0000 		.4byte	0x1ec9
 6986 1ec7 00       		.byte	0
 6987 1ec8 00       		.byte	0
 6988 1ec9 13       		.uleb128 0x13
 6989 1eca A91E0000 		.4byte	0x1ea9
 6990 1ece D91E0000 		.4byte	0x1ed9
 6991 1ed2 14       		.uleb128 0x14
 6992 1ed3 25000000 		.4byte	0x25
 6993 1ed7 16       		.byte	0x16
 6994 1ed8 00       		.byte	0
 6995 1ed9 04       		.uleb128 0x4
 6996 1eda 521A0000 		.4byte	.LASF417
 6997 1ede 24       		.byte	0x24
 6998 1edf 6C       		.byte	0x6c
 6999 1ee0 B41E0000 		.4byte	0x1eb4
 7000 1ee4 05       		.uleb128 0x5
 7001 1ee5 D91E0000 		.4byte	0x1ed9
 7002 1ee9 0B       		.uleb128 0xb
 7003 1eea 04       		.byte	0x4
 7004 1eeb E41E0000 		.4byte	0x1ee4
 7005 1eef 16       		.uleb128 0x16
 7006 1ef0 4F060000 		.4byte	.LASF418
 7007 1ef4 24       		.byte	0x24
 7008 1ef5 86       		.byte	0x86
 7009 1ef6 271E0000 		.4byte	0x1e27
 7010 1efa 21       		.uleb128 0x21
 7011 1efb 07       		.byte	0x7
 7012 1efc 01       		.byte	0x1
 7013 1efd 5E000000 		.4byte	0x5e
 7014 1f01 25       		.byte	0x25
 7015 1f02 31       		.byte	0x31
 7016 1f03 261F0000 		.4byte	0x1f26
 7017 1f07 22       		.uleb128 0x22
 7018 1f08 2C140000 		.4byte	.LASF419
 7019 1f0c 00       		.byte	0
 7020 1f0d 22       		.uleb128 0x22
 7021 1f0e 7E120000 		.4byte	.LASF420
 7022 1f12 01       		.byte	0x1
 7023 1f13 22       		.uleb128 0x22
 7024 1f14 8A160000 		.4byte	.LASF421
 7025 1f18 02       		.byte	0x2
 7026 1f19 22       		.uleb128 0x22
 7027 1f1a 2D080000 		.4byte	.LASF422
ARM GAS  C:\Users\mathi\AppData\Local\Temp\ccRLxsF0.s 			page 126


 7028 1f1e 03       		.byte	0x3
 7029 1f1f 22       		.uleb128 0x22
 7030 1f20 FA040000 		.4byte	.LASF423
 7031 1f24 04       		.byte	0x4
 7032 1f25 00       		.byte	0
 7033 1f26 04       		.uleb128 0x4
 7034 1f27 32110000 		.4byte	.LASF424
 7035 1f2b 25       		.byte	0x25
 7036 1f2c 37       		.byte	0x37
 7037 1f2d FA1E0000 		.4byte	0x1efa
 7038 1f31 04       		.uleb128 0x4
 7039 1f32 04150000 		.4byte	.LASF425
 7040 1f36 25       		.byte	0x25
 7041 1f37 3C       		.byte	0x3c
 7042 1f38 3C1F0000 		.4byte	0x1f3c
 7043 1f3c 0C       		.uleb128 0xc
 7044 1f3d 04150000 		.4byte	.LASF425
 7045 1f41 10       		.byte	0x10
 7046 1f42 26       		.byte	0x26
 7047 1f43 9701     		.2byte	0x197
 7048 1f45 7E1F0000 		.4byte	0x1f7e
 7049 1f49 0A       		.uleb128 0xa
 7050 1f4a 9D130000 		.4byte	.LASF335
 7051 1f4e 26       		.byte	0x26
 7052 1f4f 9B01     		.2byte	0x19b
 7053 1f51 261F0000 		.4byte	0x1f26
 7054 1f55 00       		.byte	0
 7055 1f56 0A       		.uleb128 0xa
 7056 1f57 0F190000 		.4byte	.LASF336
 7057 1f5b 26       		.byte	0x26
 7058 1f5c 9F01     		.2byte	0x19f
 7059 1f5e 13210000 		.4byte	0x2113
 7060 1f62 04       		.byte	0x4
 7061 1f63 0A       		.uleb128 0xa
 7062 1f64 4E0C0000 		.4byte	.LASF426
 7063 1f68 26       		.byte	0x26
 7064 1f69 A701     		.2byte	0x1a7
 7065 1f6b F5000000 		.4byte	0xf5
 7066 1f6f 08       		.byte	0x8
 7067 1f70 09       		.uleb128 0x9
 7068 1f71 74696D00 		.ascii	"tim\000"
 7069 1f75 26       		.byte	0x26
 7070 1f76 AB01     		.2byte	0x1ab
 7071 1f78 19210000 		.4byte	0x2119
 7072 1f7c 0C       		.byte	0xc
 7073 1f7d 00       		.byte	0
 7074 1f7e 04       		.uleb128 0x4
 7075 1f7f BE0F0000 		.4byte	.LASF427
 7076 1f83 25       		.byte	0x25
 7077 1f84 43       		.byte	0x43
 7078 1f85 891F0000 		.4byte	0x1f89
 7079 1f89 0B       		.uleb128 0xb
 7080 1f8a 04       		.byte	0x4
 7081 1f8b 8F1F0000 		.4byte	0x1f8f
 7082 1f8f 0D       		.uleb128 0xd
 7083 1f90 9A1F0000 		.4byte	0x1f9a
 7084 1f94 0E       		.uleb128 0xe
ARM GAS  C:\Users\mathi\AppData\Local\Temp\ccRLxsF0.s 			page 127


 7085 1f95 9A1F0000 		.4byte	0x1f9a
 7086 1f99 00       		.byte	0
 7087 1f9a 0B       		.uleb128 0xb
 7088 1f9b 04       		.byte	0x4
 7089 1f9c 311F0000 		.4byte	0x1f31
 7090 1fa0 19       		.uleb128 0x19
 7091 1fa1 60       		.byte	0x60
 7092 1fa2 27       		.byte	0x27
 7093 1fa3 9E01     		.2byte	0x19e
 7094 1fa5 AC200000 		.4byte	0x20ac
 7095 1fa9 09       		.uleb128 0x9
 7096 1faa 43523100 		.ascii	"CR1\000"
 7097 1fae 27       		.byte	0x27
 7098 1faf 9F01     		.2byte	0x19f
 7099 1fb1 00010000 		.4byte	0x100
 7100 1fb5 00       		.byte	0
 7101 1fb6 09       		.uleb128 0x9
 7102 1fb7 43523200 		.ascii	"CR2\000"
 7103 1fbb 27       		.byte	0x27
 7104 1fbc A001     		.2byte	0x1a0
 7105 1fbe 00010000 		.4byte	0x100
 7106 1fc2 04       		.byte	0x4
 7107 1fc3 0A       		.uleb128 0xa
 7108 1fc4 4C1C0000 		.4byte	.LASF428
 7109 1fc8 27       		.byte	0x27
 7110 1fc9 A101     		.2byte	0x1a1
 7111 1fcb 00010000 		.4byte	0x100
 7112 1fcf 08       		.byte	0x8
 7113 1fd0 0A       		.uleb128 0xa
 7114 1fd1 340A0000 		.4byte	.LASF429
 7115 1fd5 27       		.byte	0x27
 7116 1fd6 A201     		.2byte	0x1a2
 7117 1fd8 00010000 		.4byte	0x100
 7118 1fdc 0C       		.byte	0xc
 7119 1fdd 09       		.uleb128 0x9
 7120 1fde 535200   		.ascii	"SR\000"
 7121 1fe1 27       		.byte	0x27
 7122 1fe2 A301     		.2byte	0x1a3
 7123 1fe4 00010000 		.4byte	0x100
 7124 1fe8 10       		.byte	0x10
 7125 1fe9 09       		.uleb128 0x9
 7126 1fea 45475200 		.ascii	"EGR\000"
 7127 1fee 27       		.byte	0x27
 7128 1fef A401     		.2byte	0x1a4
 7129 1ff1 00010000 		.4byte	0x100
 7130 1ff5 14       		.byte	0x14
 7131 1ff6 0A       		.uleb128 0xa
 7132 1ff7 18200000 		.4byte	.LASF430
 7133 1ffb 27       		.byte	0x27
 7134 1ffc A501     		.2byte	0x1a5
 7135 1ffe 00010000 		.4byte	0x100
 7136 2002 18       		.byte	0x18
 7137 2003 0A       		.uleb128 0xa
 7138 2004 1E200000 		.4byte	.LASF431
 7139 2008 27       		.byte	0x27
 7140 2009 A601     		.2byte	0x1a6
 7141 200b 00010000 		.4byte	0x100
ARM GAS  C:\Users\mathi\AppData\Local\Temp\ccRLxsF0.s 			page 128


 7142 200f 1C       		.byte	0x1c
 7143 2010 0A       		.uleb128 0xa
 7144 2011 B8070000 		.4byte	.LASF432
 7145 2015 27       		.byte	0x27
 7146 2016 A701     		.2byte	0x1a7
 7147 2018 00010000 		.4byte	0x100
 7148 201c 20       		.byte	0x20
 7149 201d 09       		.uleb128 0x9
 7150 201e 434E5400 		.ascii	"CNT\000"
 7151 2022 27       		.byte	0x27
 7152 2023 A801     		.2byte	0x1a8
 7153 2025 00010000 		.4byte	0x100
 7154 2029 24       		.byte	0x24
 7155 202a 09       		.uleb128 0x9
 7156 202b 50534300 		.ascii	"PSC\000"
 7157 202f 27       		.byte	0x27
 7158 2030 A901     		.2byte	0x1a9
 7159 2032 00010000 		.4byte	0x100
 7160 2036 28       		.byte	0x28
 7161 2037 09       		.uleb128 0x9
 7162 2038 41525200 		.ascii	"ARR\000"
 7163 203c 27       		.byte	0x27
 7164 203d AA01     		.2byte	0x1aa
 7165 203f 00010000 		.4byte	0x100
 7166 2043 2C       		.byte	0x2c
 7167 2044 09       		.uleb128 0x9
 7168 2045 52435200 		.ascii	"RCR\000"
 7169 2049 27       		.byte	0x27
 7170 204a AB01     		.2byte	0x1ab
 7171 204c 00010000 		.4byte	0x100
 7172 2050 30       		.byte	0x30
 7173 2051 09       		.uleb128 0x9
 7174 2052 43435200 		.ascii	"CCR\000"
 7175 2056 27       		.byte	0x27
 7176 2057 AC01     		.2byte	0x1ac
 7177 2059 030A0000 		.4byte	0xa03
 7178 205d 34       		.byte	0x34
 7179 205e 0A       		.uleb128 0xa
 7180 205f AA020000 		.4byte	.LASF433
 7181 2063 27       		.byte	0x27
 7182 2064 AD01     		.2byte	0x1ad
 7183 2066 00010000 		.4byte	0x100
 7184 206a 44       		.byte	0x44
 7185 206b 09       		.uleb128 0x9
 7186 206c 44435200 		.ascii	"DCR\000"
 7187 2070 27       		.byte	0x27
 7188 2071 AE01     		.2byte	0x1ae
 7189 2073 00010000 		.4byte	0x100
 7190 2077 48       		.byte	0x48
 7191 2078 0A       		.uleb128 0xa
 7192 2079 E0130000 		.4byte	.LASF434
 7193 207d 27       		.byte	0x27
 7194 207e AF01     		.2byte	0x1af
 7195 2080 00010000 		.4byte	0x100
 7196 2084 4C       		.byte	0x4c
 7197 2085 09       		.uleb128 0x9
 7198 2086 4F5200   		.ascii	"OR\000"
ARM GAS  C:\Users\mathi\AppData\Local\Temp\ccRLxsF0.s 			page 129


 7199 2089 27       		.byte	0x27
 7200 208a B001     		.2byte	0x1b0
 7201 208c 00010000 		.4byte	0x100
 7202 2090 50       		.byte	0x50
 7203 2091 0A       		.uleb128 0xa
 7204 2092 24200000 		.4byte	.LASF435
 7205 2096 27       		.byte	0x27
 7206 2097 B101     		.2byte	0x1b1
 7207 2099 00010000 		.4byte	0x100
 7208 209d 54       		.byte	0x54
 7209 209e 0A       		.uleb128 0xa
 7210 209f 5A0C0000 		.4byte	.LASF436
 7211 20a3 27       		.byte	0x27
 7212 20a4 B201     		.2byte	0x1b2
 7213 20a6 EE090000 		.4byte	0x9ee
 7214 20aa 58       		.byte	0x58
 7215 20ab 00       		.byte	0
 7216 20ac 1A       		.uleb128 0x1a
 7217 20ad 8E1B0000 		.4byte	.LASF437
 7218 20b1 27       		.byte	0x27
 7219 20b2 B301     		.2byte	0x1b3
 7220 20b4 A01F0000 		.4byte	0x1fa0
 7221 20b8 1A       		.uleb128 0x1a
 7222 20b9 14090000 		.4byte	.LASF438
 7223 20bd 26       		.byte	0x26
 7224 20be 6D01     		.2byte	0x16d
 7225 20c0 F5000000 		.4byte	0xf5
 7226 20c4 19       		.uleb128 0x19
 7227 20c5 10       		.byte	0x10
 7228 20c6 26       		.byte	0x26
 7229 20c7 7801     		.2byte	0x178
 7230 20c9 02210000 		.4byte	0x2102
 7231 20cd 0A       		.uleb128 0xa
 7232 20ce 8B1F0000 		.4byte	.LASF439
 7233 20d2 26       		.byte	0x26
 7234 20d3 7E01     		.2byte	0x17e
 7235 20d5 B8200000 		.4byte	0x20b8
 7236 20d9 00       		.byte	0
 7237 20da 0A       		.uleb128 0xa
 7238 20db E5130000 		.4byte	.LASF440
 7239 20df 26       		.byte	0x26
 7240 20e0 8501     		.2byte	0x185
 7241 20e2 7E1F0000 		.4byte	0x1f7e
 7242 20e6 04       		.byte	0x4
 7243 20e7 09       		.uleb128 0x9
 7244 20e8 63723200 		.ascii	"cr2\000"
 7245 20ec 26       		.byte	0x26
 7246 20ed 8B01     		.2byte	0x18b
 7247 20ef F5000000 		.4byte	0xf5
 7248 20f3 08       		.byte	0x8
 7249 20f4 0A       		.uleb128 0xa
 7250 20f5 BE0B0000 		.4byte	.LASF441
 7251 20f9 26       		.byte	0x26
 7252 20fa 9101     		.2byte	0x191
 7253 20fc F5000000 		.4byte	0xf5
 7254 2100 0C       		.byte	0xc
 7255 2101 00       		.byte	0
ARM GAS  C:\Users\mathi\AppData\Local\Temp\ccRLxsF0.s 			page 130


 7256 2102 1A       		.uleb128 0x1a
 7257 2103 15070000 		.4byte	.LASF442
 7258 2107 26       		.byte	0x26
 7259 2108 9201     		.2byte	0x192
 7260 210a C4200000 		.4byte	0x20c4
 7261 210e 05       		.uleb128 0x5
 7262 210f 02210000 		.4byte	0x2102
 7263 2113 0B       		.uleb128 0xb
 7264 2114 04       		.byte	0x4
 7265 2115 0E210000 		.4byte	0x210e
 7266 2119 0B       		.uleb128 0xb
 7267 211a 04       		.byte	0x4
 7268 211b AC200000 		.4byte	0x20ac
 7269 211f 15       		.uleb128 0x15
 7270 2120 061F0000 		.4byte	.LASF443
 7271 2124 26       		.byte	0x26
 7272 2125 F201     		.2byte	0x1f2
 7273 2127 311F0000 		.4byte	0x1f31
 7274 212b 15       		.uleb128 0x15
 7275 212c 16190000 		.4byte	.LASF444
 7276 2130 26       		.byte	0x26
 7277 2131 0202     		.2byte	0x202
 7278 2133 311F0000 		.4byte	0x1f31
 7279 2137 15       		.uleb128 0x15
 7280 2138 1D190000 		.4byte	.LASF445
 7281 213c 26       		.byte	0x26
 7282 213d 0602     		.2byte	0x206
 7283 213f 311F0000 		.4byte	0x1f31
 7284 2143 21       		.uleb128 0x21
 7285 2144 07       		.byte	0x7
 7286 2145 01       		.byte	0x1
 7287 2146 5E000000 		.4byte	0x5e
 7288 214a 28       		.byte	0x28
 7289 214b 4C       		.byte	0x4c
 7290 214c 75210000 		.4byte	0x2175
 7291 2150 22       		.uleb128 0x22
 7292 2151 ED060000 		.4byte	.LASF446
 7293 2155 00       		.byte	0
 7294 2156 22       		.uleb128 0x22
 7295 2157 750D0000 		.4byte	.LASF447
 7296 215b 01       		.byte	0x1
 7297 215c 22       		.uleb128 0x22
 7298 215d 4B070000 		.4byte	.LASF448
 7299 2161 02       		.byte	0x2
 7300 2162 22       		.uleb128 0x22
 7301 2163 20050000 		.4byte	.LASF449
 7302 2167 03       		.byte	0x3
 7303 2168 22       		.uleb128 0x22
 7304 2169 EB030000 		.4byte	.LASF450
 7305 216d 04       		.byte	0x4
 7306 216e 22       		.uleb128 0x22
 7307 216f 07110000 		.4byte	.LASF451
 7308 2173 05       		.byte	0x5
 7309 2174 00       		.byte	0
 7310 2175 04       		.uleb128 0x4
 7311 2176 830F0000 		.4byte	.LASF452
 7312 217a 28       		.byte	0x28
ARM GAS  C:\Users\mathi\AppData\Local\Temp\ccRLxsF0.s 			page 131


 7313 217b 53       		.byte	0x53
 7314 217c 43210000 		.4byte	0x2143
 7315 2180 1A       		.uleb128 0x1a
 7316 2181 7C050000 		.4byte	.LASF453
 7317 2185 29       		.byte	0x29
 7318 2186 6A01     		.2byte	0x16a
 7319 2188 DA000000 		.4byte	0xda
 7320 218c 1A       		.uleb128 0x1a
 7321 218d 98040000 		.4byte	.LASF454
 7322 2191 29       		.byte	0x29
 7323 2192 6F01     		.2byte	0x16f
 7324 2194 F5000000 		.4byte	0xf5
 7325 2198 24       		.uleb128 0x24
 7326 2199 07       		.byte	0x7
 7327 219a 01       		.byte	0x1
 7328 219b 5E000000 		.4byte	0x5e
 7329 219f 29       		.byte	0x29
 7330 21a0 7401     		.2byte	0x174
 7331 21a2 B9210000 		.4byte	0x21b9
 7332 21a6 22       		.uleb128 0x22
 7333 21a7 33050000 		.4byte	.LASF455
 7334 21ab 01       		.byte	0x1
 7335 21ac 22       		.uleb128 0x22
 7336 21ad 67000000 		.4byte	.LASF456
 7337 21b1 02       		.byte	0x2
 7338 21b2 22       		.uleb128 0x22
 7339 21b3 BA090000 		.4byte	.LASF457
 7340 21b7 03       		.byte	0x3
 7341 21b8 00       		.byte	0
 7342 21b9 1A       		.uleb128 0x1a
 7343 21ba 6B200000 		.4byte	.LASF458
 7344 21be 29       		.byte	0x29
 7345 21bf 7801     		.2byte	0x178
 7346 21c1 98210000 		.4byte	0x2198
 7347 21c5 24       		.uleb128 0x24
 7348 21c6 07       		.byte	0x7
 7349 21c7 01       		.byte	0x1
 7350 21c8 5E000000 		.4byte	0x5e
 7351 21cc 29       		.byte	0x29
 7352 21cd 7D01     		.2byte	0x17d
 7353 21cf E6210000 		.4byte	0x21e6
 7354 21d3 22       		.uleb128 0x22
 7355 21d4 20060000 		.4byte	.LASF459
 7356 21d8 01       		.byte	0x1
 7357 21d9 22       		.uleb128 0x22
 7358 21da E71F0000 		.4byte	.LASF460
 7359 21de 02       		.byte	0x2
 7360 21df 22       		.uleb128 0x22
 7361 21e0 830A0000 		.4byte	.LASF461
 7362 21e4 03       		.byte	0x3
 7363 21e5 00       		.byte	0
 7364 21e6 1A       		.uleb128 0x1a
 7365 21e7 5E070000 		.4byte	.LASF462
 7366 21eb 29       		.byte	0x29
 7367 21ec 8101     		.2byte	0x181
 7368 21ee C5210000 		.4byte	0x21c5
 7369 21f2 19       		.uleb128 0x19
ARM GAS  C:\Users\mathi\AppData\Local\Temp\ccRLxsF0.s 			page 132


 7370 21f3 0C       		.byte	0xc
 7371 21f4 29       		.byte	0x29
 7372 21f5 8601     		.2byte	0x186
 7373 21f7 23220000 		.4byte	0x2223
 7374 21fb 0A       		.uleb128 0xa
 7375 21fc A6120000 		.4byte	.LASF463
 7376 2200 29       		.byte	0x29
 7377 2201 8801     		.2byte	0x188
 7378 2203 B9210000 		.4byte	0x21b9
 7379 2207 00       		.byte	0
 7380 2208 0A       		.uleb128 0xa
 7381 2209 49040000 		.4byte	.LASF464
 7382 220d 29       		.byte	0x29
 7383 220e 8901     		.2byte	0x189
 7384 2210 F5000000 		.4byte	0xf5
 7385 2214 04       		.byte	0x4
 7386 2215 0A       		.uleb128 0xa
 7387 2216 D9200000 		.4byte	.LASF465
 7388 221a 29       		.byte	0x29
 7389 221b 8C01     		.2byte	0x18c
 7390 221d E6210000 		.4byte	0x21e6
 7391 2221 08       		.byte	0x8
 7392 2222 00       		.byte	0
 7393 2223 1A       		.uleb128 0x1a
 7394 2224 B7020000 		.4byte	.LASF466
 7395 2228 29       		.byte	0x29
 7396 2229 8E01     		.2byte	0x18e
 7397 222b F2210000 		.4byte	0x21f2
 7398 222f 05       		.uleb128 0x5
 7399 2230 23220000 		.4byte	0x2223
 7400 2234 1A       		.uleb128 0x1a
 7401 2235 16050000 		.4byte	.LASF467
 7402 2239 29       		.byte	0x29
 7403 223a 9301     		.2byte	0x193
 7404 223c 40220000 		.4byte	0x2240
 7405 2240 0C       		.uleb128 0xc
 7406 2241 16050000 		.4byte	.LASF467
 7407 2245 3C       		.byte	0x3c
 7408 2246 29       		.byte	0x29
 7409 2247 9801     		.2byte	0x198
 7410 2249 DD220000 		.4byte	0x22dd
 7411 224d 0A       		.uleb128 0xa
 7412 224e 9D130000 		.4byte	.LASF335
 7413 2252 29       		.byte	0x29
 7414 2253 9C01     		.2byte	0x19c
 7415 2255 75210000 		.4byte	0x2175
 7416 2259 00       		.byte	0
 7417 225a 0A       		.uleb128 0xa
 7418 225b 0F190000 		.4byte	.LASF336
 7419 225f 29       		.byte	0x29
 7420 2260 A001     		.2byte	0x1a0
 7421 2262 DD220000 		.4byte	0x22dd
 7422 2266 04       		.byte	0x4
 7423 2267 0A       		.uleb128 0xa
 7424 2268 19010000 		.4byte	.LASF468
 7425 226c 29       		.byte	0x29
 7426 226d A401     		.2byte	0x1a4
ARM GAS  C:\Users\mathi\AppData\Local\Temp\ccRLxsF0.s 			page 133


 7427 226f 8C210000 		.4byte	0x218c
 7428 2273 08       		.byte	0x8
 7429 2274 0A       		.uleb128 0xa
 7430 2275 250C0000 		.4byte	.LASF341
 7431 2279 29       		.byte	0x29
 7432 227a A901     		.2byte	0x1a9
 7433 227c AC110000 		.4byte	0x11ac
 7434 2280 0C       		.byte	0xc
 7435 2281 0A       		.uleb128 0xa
 7436 2282 76070000 		.4byte	.LASF340
 7437 2286 29       		.byte	0x29
 7438 2287 B201     		.2byte	0x1b2
 7439 2289 D2020000 		.4byte	0x2d2
 7440 228d 20       		.byte	0x20
 7441 228e 0A       		.uleb128 0xa
 7442 228f 7E0D0000 		.4byte	.LASF469
 7443 2293 29       		.byte	0x29
 7444 2294 B601     		.2byte	0x1b6
 7445 2296 80210000 		.4byte	0x2180
 7446 229a 24       		.byte	0x24
 7447 229b 0A       		.uleb128 0xa
 7448 229c CA080000 		.4byte	.LASF470
 7449 22a0 29       		.byte	0x29
 7450 22a1 BA01     		.2byte	0x1ba
 7451 22a3 F5000000 		.4byte	0xf5
 7452 22a7 28       		.byte	0x28
 7453 22a8 0A       		.uleb128 0xa
 7454 22a9 0A090000 		.4byte	.LASF471
 7455 22ad 29       		.byte	0x29
 7456 22ae BE01     		.2byte	0x1be
 7457 22b0 F5000000 		.4byte	0xf5
 7458 22b4 2C       		.byte	0x2c
 7459 22b5 0A       		.uleb128 0xa
 7460 22b6 EF000000 		.4byte	.LASF472
 7461 22ba 29       		.byte	0x29
 7462 22bb C201     		.2byte	0x1c2
 7463 22bd 131A0000 		.4byte	0x1a13
 7464 22c1 30       		.byte	0x30
 7465 22c2 0A       		.uleb128 0xa
 7466 22c3 CA020000 		.4byte	.LASF473
 7467 22c7 29       		.byte	0x29
 7468 22c8 C601     		.2byte	0x1c6
 7469 22ca 131A0000 		.4byte	0x1a13
 7470 22ce 34       		.byte	0x34
 7471 22cf 09       		.uleb128 0x9
 7472 22d0 69326300 		.ascii	"i2c\000"
 7473 22d4 29       		.byte	0x29
 7474 22d5 CA01     		.2byte	0x1ca
 7475 22d7 E3220000 		.4byte	0x22e3
 7476 22db 38       		.byte	0x38
 7477 22dc 00       		.byte	0
 7478 22dd 0B       		.uleb128 0xb
 7479 22de 04       		.byte	0x4
 7480 22df 2F220000 		.4byte	0x222f
 7481 22e3 0B       		.uleb128 0xb
 7482 22e4 04       		.byte	0x4
 7483 22e5 930A0000 		.4byte	0xa93
ARM GAS  C:\Users\mathi\AppData\Local\Temp\ccRLxsF0.s 			page 134


 7484 22e9 15       		.uleb128 0x15
 7485 22ea DC0F0000 		.4byte	.LASF474
 7486 22ee 29       		.byte	0x29
 7487 22ef E001     		.2byte	0x1e0
 7488 22f1 34220000 		.4byte	0x2234
 7489 22f5 21       		.uleb128 0x21
 7490 22f6 07       		.byte	0x7
 7491 22f7 01       		.byte	0x1
 7492 22f8 5E000000 		.4byte	0x5e
 7493 22fc 2A       		.byte	0x2a
 7494 22fd 39       		.byte	0x39
 7495 22fe 21230000 		.4byte	0x2321
 7496 2302 22       		.uleb128 0x22
 7497 2303 9B0E0000 		.4byte	.LASF475
 7498 2307 00       		.byte	0
 7499 2308 22       		.uleb128 0x22
 7500 2309 FA0B0000 		.4byte	.LASF476
 7501 230d 01       		.byte	0x1
 7502 230e 22       		.uleb128 0x22
 7503 230f F5000000 		.4byte	.LASF477
 7504 2313 02       		.byte	0x2
 7505 2314 22       		.uleb128 0x22
 7506 2315 7F160000 		.4byte	.LASF478
 7507 2319 03       		.byte	0x3
 7508 231a 22       		.uleb128 0x22
 7509 231b C91A0000 		.4byte	.LASF479
 7510 231f 04       		.byte	0x4
 7511 2320 00       		.byte	0
 7512 2321 04       		.uleb128 0x4
 7513 2322 961D0000 		.4byte	.LASF480
 7514 2326 2A       		.byte	0x2a
 7515 2327 3F       		.byte	0x3f
 7516 2328 F5220000 		.4byte	0x22f5
 7517 232c 04       		.uleb128 0x4
 7518 232d CF200000 		.4byte	.LASF481
 7519 2331 2B       		.byte	0x2b
 7520 2332 E2       		.byte	0xe2
 7521 2333 37230000 		.4byte	0x2337
 7522 2337 0C       		.uleb128 0xc
 7523 2338 CF200000 		.4byte	.LASF481
 7524 233c 20       		.byte	0x20
 7525 233d 2B       		.byte	0x2b
 7526 233e 1B01     		.2byte	0x11b
 7527 2340 AD230000 		.4byte	0x23ad
 7528 2344 0A       		.uleb128 0xa
 7529 2345 9D130000 		.4byte	.LASF335
 7530 2349 2B       		.byte	0x2b
 7531 234a 1F01     		.2byte	0x11f
 7532 234c 21230000 		.4byte	0x2321
 7533 2350 00       		.byte	0
 7534 2351 0A       		.uleb128 0xa
 7535 2352 0F190000 		.4byte	.LASF336
 7536 2356 2B       		.byte	0x2b
 7537 2357 2301     		.2byte	0x123
 7538 2359 45240000 		.4byte	0x2445
 7539 235d 04       		.byte	0x4
 7540 235e 09       		.uleb128 0x9
ARM GAS  C:\Users\mathi\AppData\Local\Temp\ccRLxsF0.s 			page 135


 7541 235f 73706900 		.ascii	"spi\000"
 7542 2363 2B       		.byte	0x2b
 7543 2364 2801     		.2byte	0x128
 7544 2366 4B240000 		.4byte	0x244b
 7545 236a 08       		.byte	0x8
 7546 236b 09       		.uleb128 0x9
 7547 236c 63666700 		.ascii	"cfg\000"
 7548 2370 2B       		.byte	0x2b
 7549 2371 2C01     		.2byte	0x12c
 7550 2373 DA000000 		.4byte	0xda
 7551 2377 0C       		.byte	0xc
 7552 2378 0A       		.uleb128 0xa
 7553 2379 EF000000 		.4byte	.LASF472
 7554 237d 2B       		.byte	0x2b
 7555 237e 3001     		.2byte	0x130
 7556 2380 131A0000 		.4byte	0x1a13
 7557 2384 10       		.byte	0x10
 7558 2385 0A       		.uleb128 0xa
 7559 2386 CA020000 		.4byte	.LASF473
 7560 238a 2B       		.byte	0x2b
 7561 238b 3401     		.2byte	0x134
 7562 238d 131A0000 		.4byte	0x1a13
 7563 2391 14       		.byte	0x14
 7564 2392 0A       		.uleb128 0xa
 7565 2393 CA080000 		.4byte	.LASF470
 7566 2397 2B       		.byte	0x2b
 7567 2398 3801     		.2byte	0x138
 7568 239a F5000000 		.4byte	0xf5
 7569 239e 18       		.byte	0x18
 7570 239f 0A       		.uleb128 0xa
 7571 23a0 0A090000 		.4byte	.LASF471
 7572 23a4 2B       		.byte	0x2b
 7573 23a5 3C01     		.2byte	0x13c
 7574 23a7 F5000000 		.4byte	0xf5
 7575 23ab 1C       		.byte	0x1c
 7576 23ac 00       		.byte	0
 7577 23ad 04       		.uleb128 0x4
 7578 23ae F6080000 		.4byte	.LASF482
 7579 23b2 2B       		.byte	0x2b
 7580 23b3 EB       		.byte	0xeb
 7581 23b4 B8230000 		.4byte	0x23b8
 7582 23b8 0B       		.uleb128 0xb
 7583 23b9 04       		.byte	0x4
 7584 23ba BE230000 		.4byte	0x23be
 7585 23be 0D       		.uleb128 0xd
 7586 23bf D3230000 		.4byte	0x23d3
 7587 23c3 0E       		.uleb128 0xe
 7588 23c4 D3230000 		.4byte	0x23d3
 7589 23c8 0E       		.uleb128 0xe
 7590 23c9 33000000 		.4byte	0x33
 7591 23cd 0E       		.uleb128 0xe
 7592 23ce 33000000 		.4byte	0x33
 7593 23d2 00       		.byte	0
 7594 23d3 0B       		.uleb128 0xb
 7595 23d4 04       		.byte	0x4
 7596 23d5 2C230000 		.4byte	0x232c
 7597 23d9 17       		.uleb128 0x17
ARM GAS  C:\Users\mathi\AppData\Local\Temp\ccRLxsF0.s 			page 136


 7598 23da 14       		.byte	0x14
 7599 23db 2B       		.byte	0x2b
 7600 23dc F1       		.byte	0xf1
 7601 23dd 2D240000 		.4byte	0x242d
 7602 23e1 08       		.uleb128 0x8
 7603 23e2 3B010000 		.4byte	.LASF483
 7604 23e6 2B       		.byte	0x2b
 7605 23e7 F6       		.byte	0xf6
 7606 23e8 2D240000 		.4byte	0x242d
 7607 23ec 00       		.byte	0
 7608 23ed 08       		.uleb128 0x8
 7609 23ee 0F010000 		.4byte	.LASF484
 7610 23f2 2B       		.byte	0x2b
 7611 23f3 FB       		.byte	0xfb
 7612 23f4 BA030000 		.4byte	0x3ba
 7613 23f8 04       		.byte	0x4
 7614 23f9 08       		.uleb128 0x8
 7615 23fa 2B0C0000 		.4byte	.LASF485
 7616 23fe 2B       		.byte	0x2b
 7617 23ff FF       		.byte	0xff
 7618 2400 33000000 		.4byte	0x33
 7619 2404 08       		.byte	0x8
 7620 2405 0A       		.uleb128 0xa
 7621 2406 68090000 		.4byte	.LASF348
 7622 240a 2B       		.byte	0x2b
 7623 240b 0301     		.2byte	0x103
 7624 240d AD230000 		.4byte	0x23ad
 7625 2411 0C       		.byte	0xc
 7626 2412 0A       		.uleb128 0xa
 7627 2413 CB160000 		.4byte	.LASF486
 7628 2417 2B       		.byte	0x2b
 7629 2418 0F01     		.2byte	0x10f
 7630 241a CF000000 		.4byte	0xcf
 7631 241e 10       		.byte	0x10
 7632 241f 0A       		.uleb128 0xa
 7633 2420 37070000 		.4byte	.LASF487
 7634 2424 2B       		.byte	0x2b
 7635 2425 1501     		.2byte	0x115
 7636 2427 CF000000 		.4byte	0xcf
 7637 242b 12       		.byte	0x12
 7638 242c 00       		.byte	0
 7639 242d 0B       		.uleb128 0xb
 7640 242e 04       		.byte	0x4
 7641 242f 33240000 		.4byte	0x2433
 7642 2433 25       		.uleb128 0x25
 7643 2434 1A       		.uleb128 0x1a
 7644 2435 E4200000 		.4byte	.LASF488
 7645 2439 2B       		.byte	0x2b
 7646 243a 1601     		.2byte	0x116
 7647 243c D9230000 		.4byte	0x23d9
 7648 2440 05       		.uleb128 0x5
 7649 2441 34240000 		.4byte	0x2434
 7650 2445 0B       		.uleb128 0xb
 7651 2446 04       		.byte	0x4
 7652 2447 40240000 		.4byte	0x2440
 7653 244b 0B       		.uleb128 0xb
 7654 244c 04       		.byte	0x4
ARM GAS  C:\Users\mathi\AppData\Local\Temp\ccRLxsF0.s 			page 137


 7655 244d 460C0000 		.4byte	0xc46
 7656 2451 15       		.uleb128 0x15
 7657 2452 19210000 		.4byte	.LASF489
 7658 2456 2B       		.byte	0x2b
 7659 2457 4801     		.2byte	0x148
 7660 2459 2C230000 		.4byte	0x232c
 7661 245d 21       		.uleb128 0x21
 7662 245e 07       		.byte	0x7
 7663 245f 01       		.byte	0x1
 7664 2460 5E000000 		.4byte	0x5e
 7665 2464 2C       		.byte	0x2c
 7666 2465 4A       		.byte	0x4a
 7667 2466 7D240000 		.4byte	0x247d
 7668 246a 22       		.uleb128 0x22
 7669 246b C3070000 		.4byte	.LASF490
 7670 246f 00       		.byte	0
 7671 2470 22       		.uleb128 0x22
 7672 2471 030C0000 		.4byte	.LASF491
 7673 2475 01       		.byte	0x1
 7674 2476 22       		.uleb128 0x22
 7675 2477 C40E0000 		.4byte	.LASF492
 7676 247b 02       		.byte	0x2
 7677 247c 00       		.byte	0
 7678 247d 04       		.uleb128 0x4
 7679 247e 0C040000 		.4byte	.LASF493
 7680 2482 2C       		.byte	0x2c
 7681 2483 4E       		.byte	0x4e
 7682 2484 5D240000 		.4byte	0x245d
 7683 2488 04       		.uleb128 0x4
 7684 2489 4B0B0000 		.4byte	.LASF494
 7685 248d 2C       		.byte	0x2c
 7686 248e 53       		.byte	0x53
 7687 248f 93240000 		.4byte	0x2493
 7688 2493 0C       		.uleb128 0xc
 7689 2494 4B0B0000 		.4byte	.LASF494
 7690 2498 1C       		.byte	0x1c
 7691 2499 2D       		.byte	0x2d
 7692 249a 7901     		.2byte	0x179
 7693 249c FC240000 		.4byte	0x24fc
 7694 24a0 0A       		.uleb128 0xa
 7695 24a1 9D130000 		.4byte	.LASF335
 7696 24a5 2D       		.byte	0x2d
 7697 24a6 7D01     		.2byte	0x17d
 7698 24a8 7D240000 		.4byte	0x247d
 7699 24ac 00       		.byte	0
 7700 24ad 0A       		.uleb128 0xa
 7701 24ae 0F190000 		.4byte	.LASF336
 7702 24b2 2D       		.byte	0x2d
 7703 24b3 8101     		.2byte	0x181
 7704 24b5 F7250000 		.4byte	0x25f7
 7705 24b9 04       		.byte	0x4
 7706 24ba 0A       		.uleb128 0xa
 7707 24bb 00110000 		.4byte	.LASF495
 7708 24bf 2D       		.byte	0x2d
 7709 24c0 8501     		.2byte	0x185
 7710 24c2 42250000 		.4byte	0x2542
 7711 24c6 08       		.byte	0x8
ARM GAS  C:\Users\mathi\AppData\Local\Temp\ccRLxsF0.s 			page 138


 7712 24c7 0A       		.uleb128 0xa
 7713 24c8 1A170000 		.4byte	.LASF496
 7714 24cc 2D       		.byte	0x2d
 7715 24cd 8901     		.2byte	0x189
 7716 24cf 36250000 		.4byte	0x2536
 7717 24d3 0C       		.byte	0xc
 7718 24d4 0A       		.uleb128 0xa
 7719 24d5 151D0000 		.4byte	.LASF416
 7720 24d9 2D       		.byte	0x2d
 7721 24da 8D01     		.2byte	0x18d
 7722 24dc 2A250000 		.4byte	0x252a
 7723 24e0 10       		.byte	0x10
 7724 24e1 0A       		.uleb128 0xa
 7725 24e2 4E0C0000 		.4byte	.LASF426
 7726 24e6 2D       		.byte	0x2d
 7727 24e7 9501     		.2byte	0x195
 7728 24e9 F5000000 		.4byte	0xf5
 7729 24ed 14       		.byte	0x14
 7730 24ee 09       		.uleb128 0x9
 7731 24ef 74696D00 		.ascii	"tim\000"
 7732 24f3 2D       		.byte	0x2d
 7733 24f4 9901     		.2byte	0x199
 7734 24f6 19210000 		.4byte	0x2119
 7735 24fa 18       		.byte	0x18
 7736 24fb 00       		.byte	0
 7737 24fc 04       		.uleb128 0x4
 7738 24fd 4F0F0000 		.4byte	.LASF497
 7739 2501 2C       		.byte	0x2c
 7740 2502 5A       		.byte	0x5a
 7741 2503 07250000 		.4byte	0x2507
 7742 2507 0B       		.uleb128 0xb
 7743 2508 04       		.byte	0x4
 7744 2509 0D250000 		.4byte	0x250d
 7745 250d 0D       		.uleb128 0xd
 7746 250e 18250000 		.4byte	0x2518
 7747 2512 0E       		.uleb128 0xe
 7748 2513 18250000 		.4byte	0x2518
 7749 2517 00       		.byte	0
 7750 2518 0B       		.uleb128 0xb
 7751 2519 04       		.byte	0x4
 7752 251a 88240000 		.4byte	0x2488
 7753 251e 1A       		.uleb128 0x1a
 7754 251f ED120000 		.4byte	.LASF498
 7755 2523 2D       		.byte	0x2d
 7756 2524 2501     		.2byte	0x125
 7757 2526 F5000000 		.4byte	0xf5
 7758 252a 1A       		.uleb128 0x1a
 7759 252b BD140000 		.4byte	.LASF499
 7760 252f 2D       		.byte	0x2d
 7761 2530 2A01     		.2byte	0x12a
 7762 2532 BF000000 		.4byte	0xbf
 7763 2536 1A       		.uleb128 0x1a
 7764 2537 8E030000 		.4byte	.LASF500
 7765 253b 2D       		.byte	0x2d
 7766 253c 2F01     		.2byte	0x12f
 7767 253e F5000000 		.4byte	0xf5
 7768 2542 1A       		.uleb128 0x1a
ARM GAS  C:\Users\mathi\AppData\Local\Temp\ccRLxsF0.s 			page 139


 7769 2543 F90C0000 		.4byte	.LASF501
 7770 2547 2D       		.byte	0x2d
 7771 2548 3401     		.2byte	0x134
 7772 254a F5000000 		.4byte	0xf5
 7773 254e 19       		.uleb128 0x19
 7774 254f 08       		.byte	0x8
 7775 2550 2D       		.byte	0x2d
 7776 2551 3901     		.2byte	0x139
 7777 2553 72250000 		.4byte	0x2572
 7778 2557 0A       		.uleb128 0xa
 7779 2558 D4080000 		.4byte	.LASF414
 7780 255c 2D       		.byte	0x2d
 7781 255d 3D01     		.2byte	0x13d
 7782 255f 1E250000 		.4byte	0x251e
 7783 2563 00       		.byte	0
 7784 2564 0A       		.uleb128 0xa
 7785 2565 E5130000 		.4byte	.LASF440
 7786 2569 2D       		.byte	0x2d
 7787 256a 4301     		.2byte	0x143
 7788 256c FC240000 		.4byte	0x24fc
 7789 2570 04       		.byte	0x4
 7790 2571 00       		.byte	0
 7791 2572 1A       		.uleb128 0x1a
 7792 2573 E80C0000 		.4byte	.LASF502
 7793 2577 2D       		.byte	0x2d
 7794 2578 4501     		.2byte	0x145
 7795 257a 4E250000 		.4byte	0x254e
 7796 257e 19       		.uleb128 0x19
 7797 257f 34       		.byte	0x34
 7798 2580 2D       		.byte	0x2d
 7799 2581 4A01     		.2byte	0x14a
 7800 2583 D6250000 		.4byte	0x25d6
 7801 2587 0A       		.uleb128 0xa
 7802 2588 8B1F0000 		.4byte	.LASF439
 7803 258c 2D       		.byte	0x2d
 7804 258d 5001     		.2byte	0x150
 7805 258f F5000000 		.4byte	0xf5
 7806 2593 00       		.byte	0
 7807 2594 0A       		.uleb128 0xa
 7808 2595 00110000 		.4byte	.LASF495
 7809 2599 2D       		.byte	0x2d
 7810 259a 5601     		.2byte	0x156
 7811 259c 42250000 		.4byte	0x2542
 7812 25a0 04       		.byte	0x4
 7813 25a1 0A       		.uleb128 0xa
 7814 25a2 E5130000 		.4byte	.LASF440
 7815 25a6 2D       		.byte	0x2d
 7816 25a7 5C01     		.2byte	0x15c
 7817 25a9 FC240000 		.4byte	0x24fc
 7818 25ad 08       		.byte	0x8
 7819 25ae 0A       		.uleb128 0xa
 7820 25af 151D0000 		.4byte	.LASF416
 7821 25b3 2D       		.byte	0x2d
 7822 25b4 6001     		.2byte	0x160
 7823 25b6 D6250000 		.4byte	0x25d6
 7824 25ba 0C       		.byte	0xc
 7825 25bb 09       		.uleb128 0x9
ARM GAS  C:\Users\mathi\AppData\Local\Temp\ccRLxsF0.s 			page 140


 7826 25bc 63723200 		.ascii	"cr2\000"
 7827 25c0 2D       		.byte	0x2d
 7828 25c1 6601     		.2byte	0x166
 7829 25c3 F5000000 		.4byte	0xf5
 7830 25c7 2C       		.byte	0x2c
 7831 25c8 0A       		.uleb128 0xa
 7832 25c9 BE0B0000 		.4byte	.LASF441
 7833 25cd 2D       		.byte	0x2d
 7834 25ce 7301     		.2byte	0x173
 7835 25d0 F5000000 		.4byte	0xf5
 7836 25d4 30       		.byte	0x30
 7837 25d5 00       		.byte	0
 7838 25d6 13       		.uleb128 0x13
 7839 25d7 72250000 		.4byte	0x2572
 7840 25db E6250000 		.4byte	0x25e6
 7841 25df 14       		.uleb128 0x14
 7842 25e0 25000000 		.4byte	0x25
 7843 25e4 03       		.byte	0x3
 7844 25e5 00       		.byte	0
 7845 25e6 1A       		.uleb128 0x1a
 7846 25e7 5C0B0000 		.4byte	.LASF503
 7847 25eb 2D       		.byte	0x2d
 7848 25ec 7401     		.2byte	0x174
 7849 25ee 7E250000 		.4byte	0x257e
 7850 25f2 05       		.uleb128 0x5
 7851 25f3 E6250000 		.4byte	0x25e6
 7852 25f7 0B       		.uleb128 0xb
 7853 25f8 04       		.byte	0x4
 7854 25f9 F2250000 		.4byte	0x25f2
 7855 25fd 15       		.uleb128 0x15
 7856 25fe 0D100000 		.4byte	.LASF504
 7857 2602 2D       		.byte	0x2d
 7858 2603 BC01     		.2byte	0x1bc
 7859 2605 88240000 		.4byte	0x2488
 7860 2609 15       		.uleb128 0x15
 7861 260a 13100000 		.4byte	.LASF505
 7862 260e 2D       		.byte	0x2d
 7863 260f C001     		.2byte	0x1c0
 7864 2611 88240000 		.4byte	0x2488
 7865 2615 15       		.uleb128 0x15
 7866 2616 19100000 		.4byte	.LASF506
 7867 261a 2D       		.byte	0x2d
 7868 261b C401     		.2byte	0x1c4
 7869 261d 88240000 		.4byte	0x2488
 7870 2621 15       		.uleb128 0x15
 7871 2622 1F100000 		.4byte	.LASF507
 7872 2626 2D       		.byte	0x2d
 7873 2627 C801     		.2byte	0x1c8
 7874 2629 88240000 		.4byte	0x2488
 7875 262d 21       		.uleb128 0x21
 7876 262e 07       		.byte	0x7
 7877 262f 01       		.byte	0x1
 7878 2630 5E000000 		.4byte	0x5e
 7879 2634 2E       		.byte	0x2e
 7880 2635 55       		.byte	0x55
 7881 2636 4D260000 		.4byte	0x264d
 7882 263a 22       		.uleb128 0x22
ARM GAS  C:\Users\mathi\AppData\Local\Temp\ccRLxsF0.s 			page 141


 7883 263b 1F070000 		.4byte	.LASF508
 7884 263f 00       		.byte	0
 7885 2640 22       		.uleb128 0x22
 7886 2641 890C0000 		.4byte	.LASF509
 7887 2645 01       		.byte	0x1
 7888 2646 22       		.uleb128 0x22
 7889 2647 420E0000 		.4byte	.LASF510
 7890 264b 02       		.byte	0x2
 7891 264c 00       		.byte	0
 7892 264d 04       		.uleb128 0x4
 7893 264e CA150000 		.4byte	.LASF511
 7894 2652 2E       		.byte	0x2e
 7895 2653 59       		.byte	0x59
 7896 2654 2D260000 		.4byte	0x262d
 7897 2658 04       		.uleb128 0x4
 7898 2659 351D0000 		.4byte	.LASF512
 7899 265d 2E       		.byte	0x2e
 7900 265e 5E       		.byte	0x5e
 7901 265f 63260000 		.4byte	0x2663
 7902 2663 07       		.uleb128 0x7
 7903 2664 351D0000 		.4byte	.LASF512
 7904 2668 78       		.byte	0x78
 7905 2669 2E       		.byte	0x2e
 7906 266a 78       		.byte	0x78
 7907 266b CE260000 		.4byte	0x26ce
 7908 266f 18       		.uleb128 0x18
 7909 2670 766D7400 		.ascii	"vmt\000"
 7910 2674 2E       		.byte	0x2e
 7911 2675 7A       		.byte	0x7a
 7912 2676 4C270000 		.4byte	0x274c
 7913 267a 00       		.byte	0
 7914 267b 08       		.uleb128 0x8
 7915 267c 40000000 		.4byte	.LASF513
 7916 2680 2E       		.byte	0x2e
 7917 2681 7B       		.byte	0x7b
 7918 2682 30120000 		.4byte	0x1230
 7919 2686 04       		.byte	0x4
 7920 2687 08       		.uleb128 0x8
 7921 2688 9D130000 		.4byte	.LASF335
 7922 268c 2E       		.byte	0x2e
 7923 268d 7B       		.byte	0x7b
 7924 268e 4D260000 		.4byte	0x264d
 7925 2692 08       		.byte	0x8
 7926 2693 08       		.uleb128 0x8
 7927 2694 AB150000 		.4byte	.LASF514
 7928 2698 2E       		.byte	0x2e
 7929 2699 7B       		.byte	0x7b
 7930 269a DB120000 		.4byte	0x12db
 7931 269e 0C       		.byte	0xc
 7932 269f 08       		.uleb128 0x8
 7933 26a0 2B100000 		.4byte	.LASF515
 7934 26a4 2E       		.byte	0x2e
 7935 26a5 7B       		.byte	0x7b
 7936 26a6 E6120000 		.4byte	0x12e6
 7937 26aa 30       		.byte	0x30
 7938 26ab 18       		.uleb128 0x18
 7939 26ac 696200   		.ascii	"ib\000"
ARM GAS  C:\Users\mathi\AppData\Local\Temp\ccRLxsF0.s 			page 142


 7940 26af 2E       		.byte	0x2e
 7941 26b0 7B       		.byte	0x7b
 7942 26b1 52270000 		.4byte	0x2752
 7943 26b5 54       		.byte	0x54
 7944 26b6 18       		.uleb128 0x18
 7945 26b7 6F6200   		.ascii	"ob\000"
 7946 26ba 2E       		.byte	0x2e
 7947 26bb 7B       		.byte	0x7b
 7948 26bc 52270000 		.4byte	0x2752
 7949 26c0 64       		.byte	0x64
 7950 26c1 08       		.uleb128 0x8
 7951 26c2 42170000 		.4byte	.LASF516
 7952 26c6 2E       		.byte	0x2e
 7953 26c7 7B       		.byte	0x7b
 7954 26c8 62270000 		.4byte	0x2762
 7955 26cc 74       		.byte	0x74
 7956 26cd 00       		.byte	0
 7957 26ce 1F       		.uleb128 0x1f
 7958 26cf 53443300 		.ascii	"SD3\000"
 7959 26d3 2F       		.byte	0x2f
 7960 26d4 1501     		.2byte	0x115
 7961 26d6 58260000 		.4byte	0x2658
 7962 26da 07       		.uleb128 0x7
 7963 26db ED0D0000 		.4byte	.LASF517
 7964 26df 20       		.byte	0x20
 7965 26e0 2E       		.byte	0x2e
 7966 26e1 6D       		.byte	0x6d
 7967 26e2 47270000 		.4byte	0x2747
 7968 26e6 08       		.uleb128 0x8
 7969 26e7 8E150000 		.4byte	.LASF269
 7970 26eb 2E       		.byte	0x2e
 7971 26ec 6E       		.byte	0x6e
 7972 26ed 52130000 		.4byte	0x1352
 7973 26f1 00       		.byte	0
 7974 26f2 08       		.uleb128 0x8
 7975 26f3 2E050000 		.4byte	.LASF270
 7976 26f7 2E       		.byte	0x2e
 7977 26f8 6E       		.byte	0x6e
 7978 26f9 71130000 		.4byte	0x1371
 7979 26fd 04       		.byte	0x4
 7980 26fe 18       		.uleb128 0x18
 7981 26ff 70757400 		.ascii	"put\000"
 7982 2703 2E       		.byte	0x2e
 7983 2704 6E       		.byte	0x6e
 7984 2705 8B130000 		.4byte	0x138b
 7985 2709 08       		.byte	0x8
 7986 270a 18       		.uleb128 0x18
 7987 270b 67657400 		.ascii	"get\000"
 7988 270f 2E       		.byte	0x2e
 7989 2710 6E       		.byte	0x6e
 7990 2711 A0130000 		.4byte	0x13a0
 7991 2715 0C       		.byte	0xc
 7992 2716 08       		.uleb128 0x8
 7993 2717 BF110000 		.4byte	.LASF518
 7994 271b 2E       		.byte	0x2e
 7995 271c 6E       		.byte	0x6e
 7996 271d 67140000 		.4byte	0x1467
ARM GAS  C:\Users\mathi\AppData\Local\Temp\ccRLxsF0.s 			page 143


 7997 2721 10       		.byte	0x10
 7998 2722 08       		.uleb128 0x8
 7999 2723 5B150000 		.4byte	.LASF519
 8000 2727 2E       		.byte	0x2e
 8001 2728 6E       		.byte	0x6e
 8002 2729 81140000 		.4byte	0x1481
 8003 272d 14       		.byte	0x14
 8004 272e 08       		.uleb128 0x8
 8005 272f E21D0000 		.4byte	.LASF520
 8006 2733 2E       		.byte	0x2e
 8007 2734 6E       		.byte	0x6e
 8008 2735 A5140000 		.4byte	0x14a5
 8009 2739 18       		.byte	0x18
 8010 273a 08       		.uleb128 0x8
 8011 273b 24110000 		.4byte	.LASF521
 8012 273f 2E       		.byte	0x2e
 8013 2740 6E       		.byte	0x6e
 8014 2741 C9140000 		.4byte	0x14c9
 8015 2745 1C       		.byte	0x1c
 8016 2746 00       		.byte	0
 8017 2747 05       		.uleb128 0x5
 8018 2748 DA260000 		.4byte	0x26da
 8019 274c 0B       		.uleb128 0xb
 8020 274d 04       		.byte	0x4
 8021 274e 47270000 		.4byte	0x2747
 8022 2752 13       		.uleb128 0x13
 8023 2753 BF000000 		.4byte	0xbf
 8024 2757 62270000 		.4byte	0x2762
 8025 275b 14       		.uleb128 0x14
 8026 275c 25000000 		.4byte	0x25
 8027 2760 0F       		.byte	0xf
 8028 2761 00       		.byte	0
 8029 2762 0B       		.uleb128 0xb
 8030 2763 04       		.byte	0x4
 8031 2764 B50C0000 		.4byte	0xcb5
 8032 2768 21       		.uleb128 0x21
 8033 2769 07       		.byte	0x7
 8034 276a 01       		.byte	0x1
 8035 276b 5E000000 		.4byte	0x5e
 8036 276f 30       		.byte	0x30
 8037 2770 6C       		.byte	0x6c
 8038 2771 88270000 		.4byte	0x2788
 8039 2775 22       		.uleb128 0x22
 8040 2776 D6030000 		.4byte	.LASF522
 8041 277a 00       		.byte	0
 8042 277b 22       		.uleb128 0x22
 8043 277c 03130000 		.4byte	.LASF523
 8044 2780 01       		.byte	0x1
 8045 2781 22       		.uleb128 0x22
 8046 2782 D7100000 		.4byte	.LASF524
 8047 2786 02       		.byte	0x2
 8048 2787 00       		.byte	0
 8049 2788 04       		.uleb128 0x4
 8050 2789 23180000 		.4byte	.LASF525
 8051 278d 30       		.byte	0x30
 8052 278e 70       		.byte	0x70
 8053 278f 68270000 		.4byte	0x2768
ARM GAS  C:\Users\mathi\AppData\Local\Temp\ccRLxsF0.s 			page 144


 8054 2793 04       		.uleb128 0x4
 8055 2794 65170000 		.4byte	.LASF526
 8056 2798 31       		.byte	0x31
 8057 2799 BF       		.byte	0xbf
 8058 279a F5000000 		.4byte	0xf5
 8059 279e 04       		.uleb128 0x4
 8060 279f 0E150000 		.4byte	.LASF527
 8061 27a3 31       		.byte	0x31
 8062 27a4 C4       		.byte	0xc4
 8063 27a5 F5000000 		.4byte	0xf5
 8064 27a9 04       		.uleb128 0x4
 8065 27aa 241D0000 		.4byte	.LASF528
 8066 27ae 31       		.byte	0x31
 8067 27af C9       		.byte	0xc9
 8068 27b0 B4270000 		.4byte	0x27b4
 8069 27b4 07       		.uleb128 0x7
 8070 27b5 241D0000 		.4byte	.LASF528
 8071 27b9 4C       		.byte	0x4c
 8072 27ba 31       		.byte	0x31
 8073 27bb F2       		.byte	0xf2
 8074 27bc 63280000 		.4byte	0x2863
 8075 27c0 18       		.uleb128 0x18
 8076 27c1 766D7400 		.ascii	"vmt\000"
 8077 27c5 31       		.byte	0x31
 8078 27c6 F6       		.byte	0xf6
 8079 27c7 06290000 		.4byte	0x2906
 8080 27cb 00       		.byte	0
 8081 27cc 08       		.uleb128 0x8
 8082 27cd 9D130000 		.4byte	.LASF335
 8083 27d1 31       		.byte	0x31
 8084 27d2 F7       		.byte	0xf7
 8085 27d3 13150000 		.4byte	0x1513
 8086 27d7 04       		.byte	0x4
 8087 27d8 18       		.uleb128 0x18
 8088 27d9 63696400 		.ascii	"cid\000"
 8089 27dd 31       		.byte	0x31
 8090 27de F7       		.byte	0xf7
 8091 27df CE150000 		.4byte	0x15ce
 8092 27e3 08       		.byte	0x8
 8093 27e4 18       		.uleb128 0x18
 8094 27e5 63736400 		.ascii	"csd\000"
 8095 27e9 31       		.byte	0x31
 8096 27ea F7       		.byte	0xf7
 8097 27eb CE150000 		.4byte	0x15ce
 8098 27ef 18       		.byte	0x18
 8099 27f0 08       		.uleb128 0x8
 8100 27f1 A5190000 		.4byte	.LASF529
 8101 27f5 31       		.byte	0x31
 8102 27f6 F7       		.byte	0xf7
 8103 27f7 F5000000 		.4byte	0xf5
 8104 27fb 28       		.byte	0x28
 8105 27fc 08       		.uleb128 0x8
 8106 27fd 0F190000 		.4byte	.LASF336
 8107 2801 31       		.byte	0x31
 8108 2802 FB       		.byte	0xfb
 8109 2803 0C290000 		.4byte	0x290c
 8110 2807 2C       		.byte	0x2c
ARM GAS  C:\Users\mathi\AppData\Local\Temp\ccRLxsF0.s 			page 145


 8111 2808 08       		.uleb128 0x8
 8112 2809 BA120000 		.4byte	.LASF530
 8113 280d 31       		.byte	0x31
 8114 280e FF       		.byte	0xff
 8115 280f 93270000 		.4byte	0x2793
 8116 2813 30       		.byte	0x30
 8117 2814 0A       		.uleb128 0xa
 8118 2815 19010000 		.4byte	.LASF468
 8119 2819 31       		.byte	0x31
 8120 281a 0301     		.2byte	0x103
 8121 281c 9E270000 		.4byte	0x279e
 8122 2820 34       		.byte	0x34
 8123 2821 09       		.uleb128 0x9
 8124 2822 72636100 		.ascii	"rca\000"
 8125 2826 31       		.byte	0x31
 8126 2827 0701     		.2byte	0x107
 8127 2829 F5000000 		.4byte	0xf5
 8128 282d 38       		.byte	0x38
 8129 282e 0A       		.uleb128 0xa
 8130 282f 76070000 		.4byte	.LASF340
 8131 2833 31       		.byte	0x31
 8132 2834 0C01     		.2byte	0x10c
 8133 2836 D2020000 		.4byte	0x2d2
 8134 283a 3C       		.byte	0x3c
 8135 283b 0A       		.uleb128 0xa
 8136 283c 42150000 		.4byte	.LASF343
 8137 2840 31       		.byte	0x31
 8138 2841 1001     		.2byte	0x110
 8139 2843 F5000000 		.4byte	0xf5
 8140 2847 40       		.byte	0x40
 8141 2848 09       		.uleb128 0x9
 8142 2849 646D6100 		.ascii	"dma\000"
 8143 284d 31       		.byte	0x31
 8144 284e 1401     		.2byte	0x114
 8145 2850 131A0000 		.4byte	0x1a13
 8146 2854 44       		.byte	0x44
 8147 2855 0A       		.uleb128 0xa
 8148 2856 AE130000 		.4byte	.LASF531
 8149 285a 31       		.byte	0x31
 8150 285b 1901     		.2byte	0x119
 8151 285d 12290000 		.4byte	0x2912
 8152 2861 48       		.byte	0x48
 8153 2862 00       		.byte	0
 8154 2863 17       		.uleb128 0x17
 8155 2864 08       		.byte	0x8
 8156 2865 31       		.byte	0x31
 8157 2866 CF       		.byte	0xcf
 8158 2867 84280000 		.4byte	0x2884
 8159 286b 08       		.uleb128 0x8
 8160 286c 380D0000 		.4byte	.LASF532
 8161 2870 31       		.byte	0x31
 8162 2871 D8       		.byte	0xd8
 8163 2872 D5120000 		.4byte	0x12d5
 8164 2876 00       		.byte	0
 8165 2877 08       		.uleb128 0x8
 8166 2878 7B1E0000 		.4byte	.LASF533
 8167 287c 31       		.byte	0x31
ARM GAS  C:\Users\mathi\AppData\Local\Temp\ccRLxsF0.s 			page 146


 8168 287d DC       		.byte	0xdc
 8169 287e 88270000 		.4byte	0x2788
 8170 2882 04       		.byte	0x4
 8171 2883 00       		.byte	0
 8172 2884 04       		.uleb128 0x4
 8173 2885 4C130000 		.4byte	.LASF534
 8174 2889 31       		.byte	0x31
 8175 288a DE       		.byte	0xde
 8176 288b 63280000 		.4byte	0x2863
 8177 288f 05       		.uleb128 0x5
 8178 2890 84280000 		.4byte	0x2884
 8179 2894 07       		.uleb128 0x7
 8180 2895 9F1E0000 		.4byte	.LASF535
 8181 2899 20       		.byte	0x20
 8182 289a 31       		.byte	0x31
 8183 289b EB       		.byte	0xeb
 8184 289c 01290000 		.4byte	0x2901
 8185 28a0 08       		.uleb128 0x8
 8186 28a1 1F210000 		.4byte	.LASF536
 8187 28a5 31       		.byte	0x31
 8188 28a6 EC       		.byte	0xec
 8189 28a7 60150000 		.4byte	0x1560
 8190 28ab 00       		.byte	0
 8191 28ac 08       		.uleb128 0x8
 8192 28ad C30B0000 		.4byte	.LASF537
 8193 28b1 31       		.byte	0x31
 8194 28b2 EC       		.byte	0xec
 8195 28b3 60150000 		.4byte	0x1560
 8196 28b7 04       		.byte	0x4
 8197 28b8 08       		.uleb128 0x8
 8198 28b9 0B0E0000 		.4byte	.LASF538
 8199 28bd 31       		.byte	0x31
 8200 28be EC       		.byte	0xec
 8201 28bf 60150000 		.4byte	0x1560
 8202 28c3 08       		.byte	0x8
 8203 28c4 08       		.uleb128 0x8
 8204 28c5 B4110000 		.4byte	.LASF539
 8205 28c9 31       		.byte	0x31
 8206 28ca EC       		.byte	0xec
 8207 28cb 60150000 		.4byte	0x1560
 8208 28cf 0C       		.byte	0xc
 8209 28d0 08       		.uleb128 0x8
 8210 28d1 2E050000 		.4byte	.LASF270
 8211 28d5 31       		.byte	0x31
 8212 28d6 EC       		.byte	0xec
 8213 28d7 84150000 		.4byte	0x1584
 8214 28db 10       		.byte	0x10
 8215 28dc 08       		.uleb128 0x8
 8216 28dd 8E150000 		.4byte	.LASF269
 8217 28e1 31       		.byte	0x31
 8218 28e2 EC       		.byte	0xec
 8219 28e3 A8150000 		.4byte	0x15a8
 8220 28e7 14       		.byte	0x14
 8221 28e8 08       		.uleb128 0x8
 8222 28e9 3D170000 		.4byte	.LASF540
 8223 28ed 31       		.byte	0x31
 8224 28ee EC       		.byte	0xec
ARM GAS  C:\Users\mathi\AppData\Local\Temp\ccRLxsF0.s 			page 147


 8225 28ef 60150000 		.4byte	0x1560
 8226 28f3 18       		.byte	0x18
 8227 28f4 08       		.uleb128 0x8
 8228 28f5 311E0000 		.4byte	.LASF541
 8229 28f9 31       		.byte	0x31
 8230 28fa EC       		.byte	0xec
 8231 28fb C8150000 		.4byte	0x15c8
 8232 28ff 1C       		.byte	0x1c
 8233 2900 00       		.byte	0
 8234 2901 05       		.uleb128 0x5
 8235 2902 94280000 		.4byte	0x2894
 8236 2906 0B       		.uleb128 0xb
 8237 2907 04       		.byte	0x4
 8238 2908 01290000 		.4byte	0x2901
 8239 290c 0B       		.uleb128 0xb
 8240 290d 04       		.byte	0x4
 8241 290e 8F280000 		.4byte	0x288f
 8242 2912 0B       		.uleb128 0xb
 8243 2913 04       		.byte	0x4
 8244 2914 BD0B0000 		.4byte	0xbbd
 8245 2918 15       		.uleb128 0x15
 8246 2919 110A0000 		.4byte	.LASF542
 8247 291d 31       		.byte	0x31
 8248 291e 2501     		.2byte	0x125
 8249 2920 A9270000 		.4byte	0x27a9
 8250 2924 21       		.uleb128 0x21
 8251 2925 07       		.byte	0x7
 8252 2926 01       		.byte	0x1
 8253 2927 5E000000 		.4byte	0x5e
 8254 292b 32       		.byte	0x32
 8255 292c 46       		.byte	0x46
 8256 292d 50290000 		.4byte	0x2950
 8257 2931 22       		.uleb128 0x22
 8258 2932 8C070000 		.4byte	.LASF543
 8259 2936 00       		.byte	0
 8260 2937 22       		.uleb128 0x22
 8261 2938 70030000 		.4byte	.LASF544
 8262 293c 01       		.byte	0x1
 8263 293d 22       		.uleb128 0x22
 8264 293e 641E0000 		.4byte	.LASF545
 8265 2942 02       		.byte	0x2
 8266 2943 22       		.uleb128 0x22
 8267 2944 9B0D0000 		.4byte	.LASF546
 8268 2948 03       		.byte	0x3
 8269 2949 22       		.uleb128 0x22
 8270 294a 47110000 		.4byte	.LASF547
 8271 294e 04       		.byte	0x4
 8272 294f 00       		.byte	0
 8273 2950 04       		.uleb128 0x4
 8274 2951 580D0000 		.4byte	.LASF548
 8275 2955 32       		.byte	0x32
 8276 2956 4C       		.byte	0x4c
 8277 2957 24290000 		.4byte	0x2924
 8278 295b 1A       		.uleb128 0x1a
 8279 295c D51C0000 		.4byte	.LASF549
 8280 2960 33       		.byte	0x33
 8281 2961 9601     		.2byte	0x196
ARM GAS  C:\Users\mathi\AppData\Local\Temp\ccRLxsF0.s 			page 148


 8282 2963 67290000 		.4byte	0x2967
 8283 2967 0C       		.uleb128 0xc
 8284 2968 D51C0000 		.4byte	.LASF549
 8285 296c 34       		.byte	0x34
 8286 296d 33       		.byte	0x33
 8287 296e BA01     		.2byte	0x1ba
 8288 2970 EA290000 		.4byte	0x29ea
 8289 2974 0A       		.uleb128 0xa
 8290 2975 9D130000 		.4byte	.LASF335
 8291 2979 33       		.byte	0x33
 8292 297a BE01     		.2byte	0x1be
 8293 297c 50290000 		.4byte	0x2950
 8294 2980 00       		.byte	0
 8295 2981 0A       		.uleb128 0xa
 8296 2982 0F190000 		.4byte	.LASF336
 8297 2986 33       		.byte	0x33
 8298 2987 C201     		.2byte	0x1c2
 8299 2989 5C2A0000 		.4byte	0x2a5c
 8300 298d 04       		.byte	0x4
 8301 298e 0A       		.uleb128 0xa
 8302 298f 76070000 		.4byte	.LASF340
 8303 2993 33       		.byte	0x33
 8304 2994 C701     		.2byte	0x1c7
 8305 2996 D2020000 		.4byte	0x2d2
 8306 299a 08       		.byte	0x8
 8307 299b 0A       		.uleb128 0xa
 8308 299c 250C0000 		.4byte	.LASF341
 8309 29a0 33       		.byte	0x33
 8310 29a1 CD01     		.2byte	0x1cd
 8311 29a3 AC110000 		.4byte	0x11ac
 8312 29a7 0C       		.byte	0xc
 8313 29a8 09       		.uleb128 0x9
 8314 29a9 73706900 		.ascii	"spi\000"
 8315 29ad 33       		.byte	0x33
 8316 29ae D601     		.2byte	0x1d6
 8317 29b0 4B240000 		.4byte	0x244b
 8318 29b4 20       		.byte	0x20
 8319 29b5 0A       		.uleb128 0xa
 8320 29b6 EF000000 		.4byte	.LASF472
 8321 29ba 33       		.byte	0x33
 8322 29bb DA01     		.2byte	0x1da
 8323 29bd 131A0000 		.4byte	0x1a13
 8324 29c1 24       		.byte	0x24
 8325 29c2 0A       		.uleb128 0xa
 8326 29c3 CA020000 		.4byte	.LASF473
 8327 29c7 33       		.byte	0x33
 8328 29c8 DE01     		.2byte	0x1de
 8329 29ca 131A0000 		.4byte	0x1a13
 8330 29ce 28       		.byte	0x28
 8331 29cf 0A       		.uleb128 0xa
 8332 29d0 CA080000 		.4byte	.LASF470
 8333 29d4 33       		.byte	0x33
 8334 29d5 E201     		.2byte	0x1e2
 8335 29d7 F5000000 		.4byte	0xf5
 8336 29db 2C       		.byte	0x2c
 8337 29dc 0A       		.uleb128 0xa
 8338 29dd 0A090000 		.4byte	.LASF471
ARM GAS  C:\Users\mathi\AppData\Local\Temp\ccRLxsF0.s 			page 149


 8339 29e1 33       		.byte	0x33
 8340 29e2 E601     		.2byte	0x1e6
 8341 29e4 F5000000 		.4byte	0xf5
 8342 29e8 30       		.byte	0x30
 8343 29e9 00       		.byte	0
 8344 29ea 1A       		.uleb128 0x1a
 8345 29eb 1F130000 		.4byte	.LASF550
 8346 29ef 33       		.byte	0x33
 8347 29f0 9E01     		.2byte	0x19e
 8348 29f2 F6290000 		.4byte	0x29f6
 8349 29f6 0B       		.uleb128 0xb
 8350 29f7 04       		.byte	0x4
 8351 29f8 FC290000 		.4byte	0x29fc
 8352 29fc 0D       		.uleb128 0xd
 8353 29fd 072A0000 		.4byte	0x2a07
 8354 2a01 0E       		.uleb128 0xe
 8355 2a02 072A0000 		.4byte	0x2a07
 8356 2a06 00       		.byte	0
 8357 2a07 0B       		.uleb128 0xb
 8358 2a08 04       		.byte	0x4
 8359 2a09 5B290000 		.4byte	0x295b
 8360 2a0d 19       		.uleb128 0x19
 8361 2a0e 0C       		.byte	0xc
 8362 2a0f 33       		.byte	0x33
 8363 2a10 A301     		.2byte	0x1a3
 8364 2a12 4B2A0000 		.4byte	0x2a4b
 8365 2a16 0A       		.uleb128 0xa
 8366 2a17 68090000 		.4byte	.LASF348
 8367 2a1b 33       		.byte	0x33
 8368 2a1c A701     		.2byte	0x1a7
 8369 2a1e EA290000 		.4byte	0x29ea
 8370 2a22 00       		.byte	0
 8371 2a23 0A       		.uleb128 0xa
 8372 2a24 271F0000 		.4byte	.LASF551
 8373 2a28 33       		.byte	0x33
 8374 2a29 AC01     		.2byte	0x1ac
 8375 2a2b A4170000 		.4byte	0x17a4
 8376 2a2f 04       		.byte	0x4
 8377 2a30 0A       		.uleb128 0xa
 8378 2a31 04090000 		.4byte	.LASF552
 8379 2a35 33       		.byte	0x33
 8380 2a36 B001     		.2byte	0x1b0
 8381 2a38 DA000000 		.4byte	0xda
 8382 2a3c 08       		.byte	0x8
 8383 2a3d 09       		.uleb128 0x9
 8384 2a3e 63723100 		.ascii	"cr1\000"
 8385 2a42 33       		.byte	0x33
 8386 2a43 B401     		.2byte	0x1b4
 8387 2a45 DA000000 		.4byte	0xda
 8388 2a49 0A       		.byte	0xa
 8389 2a4a 00       		.byte	0
 8390 2a4b 1A       		.uleb128 0x1a
 8391 2a4c E51C0000 		.4byte	.LASF553
 8392 2a50 33       		.byte	0x33
 8393 2a51 B501     		.2byte	0x1b5
 8394 2a53 0D2A0000 		.4byte	0x2a0d
 8395 2a57 05       		.uleb128 0x5
ARM GAS  C:\Users\mathi\AppData\Local\Temp\ccRLxsF0.s 			page 150


 8396 2a58 4B2A0000 		.4byte	0x2a4b
 8397 2a5c 0B       		.uleb128 0xb
 8398 2a5d 04       		.byte	0x4
 8399 2a5e 572A0000 		.4byte	0x2a57
 8400 2a62 15       		.uleb128 0x15
 8401 2a63 55150000 		.4byte	.LASF554
 8402 2a67 33       		.byte	0x33
 8403 2a68 F201     		.2byte	0x1f2
 8404 2a6a 5B290000 		.4byte	0x295b
 8405 2a6e 04       		.uleb128 0x4
 8406 2a6f E90F0000 		.4byte	.LASF555
 8407 2a73 34       		.byte	0x34
 8408 2a74 FA       		.byte	0xfa
 8409 2a75 792A0000 		.4byte	0x2a79
 8410 2a79 10       		.uleb128 0x10
 8411 2a7a E90F0000 		.4byte	.LASF555
 8412 2a7e 6002     		.2byte	0x260
 8413 2a80 35       		.byte	0x35
 8414 2a81 7701     		.2byte	0x177
 8415 2a83 A52B0000 		.4byte	0x2ba5
 8416 2a87 0A       		.uleb128 0xa
 8417 2a88 9D130000 		.4byte	.LASF335
 8418 2a8c 35       		.byte	0x35
 8419 2a8d 7B01     		.2byte	0x17b
 8420 2a8f DD2B0000 		.4byte	0x2bdd
 8421 2a93 00       		.byte	0
 8422 2a94 0A       		.uleb128 0xa
 8423 2a95 0F190000 		.4byte	.LASF336
 8424 2a99 35       		.byte	0x35
 8425 2a9a 7F01     		.2byte	0x17f
 8426 2a9c 00350000 		.4byte	0x3500
 8427 2aa0 04       		.byte	0x4
 8428 2aa1 0A       		.uleb128 0xa
 8429 2aa2 081D0000 		.4byte	.LASF556
 8430 2aa6 35       		.byte	0x35
 8431 2aa7 8301     		.2byte	0x183
 8432 2aa9 DA000000 		.4byte	0xda
 8433 2aad 08       		.byte	0x8
 8434 2aae 0A       		.uleb128 0xa
 8435 2aaf 6F1F0000 		.4byte	.LASF557
 8436 2ab3 35       		.byte	0x35
 8437 2ab4 8701     		.2byte	0x187
 8438 2ab6 DA000000 		.4byte	0xda
 8439 2aba 0A       		.byte	0xa
 8440 2abb 09       		.uleb128 0x9
 8441 2abc 65706300 		.ascii	"epc\000"
 8442 2ac0 35       		.byte	0x35
 8443 2ac1 8B01     		.2byte	0x18b
 8444 2ac3 06350000 		.4byte	0x3506
 8445 2ac7 0C       		.byte	0xc
 8446 2ac8 0A       		.uleb128 0xa
 8447 2ac9 AE070000 		.4byte	.LASF558
 8448 2acd 35       		.byte	0x35
 8449 2ace 9201     		.2byte	0x192
 8450 2ad0 1C350000 		.4byte	0x351c
 8451 2ad4 1C       		.byte	0x1c
 8452 2ad5 0A       		.uleb128 0xa
ARM GAS  C:\Users\mathi\AppData\Local\Temp\ccRLxsF0.s 			page 151


 8453 2ad6 A40B0000 		.4byte	.LASF559
 8454 2ada 35       		.byte	0x35
 8455 2adb 9901     		.2byte	0x199
 8456 2add 1C350000 		.4byte	0x351c
 8457 2ae1 28       		.byte	0x28
 8458 2ae2 0A       		.uleb128 0xa
 8459 2ae3 820E0000 		.4byte	.LASF560
 8460 2ae7 35       		.byte	0x35
 8461 2ae8 9D01     		.2byte	0x19d
 8462 2aea 222C0000 		.4byte	0x2c22
 8463 2aee 34       		.byte	0x34
 8464 2aef 0A       		.uleb128 0xa
 8465 2af0 AF180000 		.4byte	.LASF561
 8466 2af4 35       		.byte	0x35
 8467 2af5 A101     		.2byte	0x1a1
 8468 2af7 D5120000 		.4byte	0x12d5
 8469 2afb 38       		.byte	0x38
 8470 2afc 0A       		.uleb128 0xa
 8471 2afd E3140000 		.4byte	.LASF562
 8472 2b01 35       		.byte	0x35
 8473 2b02 A501     		.2byte	0x1a5
 8474 2b04 33000000 		.4byte	0x33
 8475 2b08 3C       		.byte	0x3c
 8476 2b09 0A       		.uleb128 0xa
 8477 2b0a 9D1A0000 		.4byte	.LASF563
 8478 2b0e 35       		.byte	0x35
 8479 2b0f A901     		.2byte	0x1a9
 8480 2b11 A22C0000 		.4byte	0x2ca2
 8481 2b15 40       		.byte	0x40
 8482 2b16 0A       		.uleb128 0xa
 8483 2b17 86070000 		.4byte	.LASF564
 8484 2b1b 35       		.byte	0x35
 8485 2b1c AD01     		.2byte	0x1ad
 8486 2b1e 741A0000 		.4byte	0x1a74
 8487 2b22 44       		.byte	0x44
 8488 2b23 0A       		.uleb128 0xa
 8489 2b24 F7120000 		.4byte	.LASF565
 8490 2b28 35       		.byte	0x35
 8491 2b29 B101     		.2byte	0x1b1
 8492 2b2b DA000000 		.4byte	0xda
 8493 2b2f 4C       		.byte	0x4c
 8494 2b30 0A       		.uleb128 0xa
 8495 2b31 2D130000 		.4byte	.LASF566
 8496 2b35 35       		.byte	0x35
 8497 2b36 B501     		.2byte	0x1b5
 8498 2b38 BF000000 		.4byte	0xbf
 8499 2b3c 4E       		.byte	0x4e
 8500 2b3d 0A       		.uleb128 0xa
 8501 2b3e CE170000 		.4byte	.LASF567
 8502 2b42 35       		.byte	0x35
 8503 2b43 B901     		.2byte	0x1b9
 8504 2b45 BF000000 		.4byte	0xbf
 8505 2b49 4F       		.byte	0x4f
 8506 2b4a 09       		.uleb128 0x9
 8507 2b4b 6F746700 		.ascii	"otg\000"
 8508 2b4f 35       		.byte	0x35
 8509 2b50 C101     		.2byte	0x1c1
ARM GAS  C:\Users\mathi\AppData\Local\Temp\ccRLxsF0.s 			page 152


 8510 2b52 2C350000 		.4byte	0x352c
 8511 2b56 50       		.byte	0x50
 8512 2b57 0A       		.uleb128 0xa
 8513 2b58 1F0D0000 		.4byte	.LASF568
 8514 2b5c 35       		.byte	0x35
 8515 2b5d C501     		.2byte	0x1c5
 8516 2b5f 32350000 		.4byte	0x3532
 8517 2b63 54       		.byte	0x54
 8518 2b64 0A       		.uleb128 0xa
 8519 2b65 A11B0000 		.4byte	.LASF569
 8520 2b69 35       		.byte	0x35
 8521 2b6a C901     		.2byte	0x1c9
 8522 2b6c F5000000 		.4byte	0xf5
 8523 2b70 58       		.byte	0x58
 8524 2b71 0A       		.uleb128 0xa
 8525 2b72 440C0000 		.4byte	.LASF570
 8526 2b76 35       		.byte	0x35
 8527 2b77 CD01     		.2byte	0x1cd
 8528 2b79 F5000000 		.4byte	0xf5
 8529 2b7d 5C       		.byte	0x5c
 8530 2b7e 0A       		.uleb128 0xa
 8531 2b7f 7C080000 		.4byte	.LASF571
 8532 2b83 35       		.byte	0x35
 8533 2b84 D101     		.2byte	0x1d1
 8534 2b86 D2020000 		.4byte	0x2d2
 8535 2b8a 60       		.byte	0x60
 8536 2b8b 09       		.uleb128 0x9
 8537 2b8c 747200   		.ascii	"tr\000"
 8538 2b8f 35       		.byte	0x35
 8539 2b90 D601     		.2byte	0x1d6
 8540 2b92 D2020000 		.4byte	0x2d2
 8541 2b96 64       		.byte	0x64
 8542 2b97 0A       		.uleb128 0xa
 8543 2b98 24120000 		.4byte	.LASF572
 8544 2b9c 35       		.byte	0x35
 8545 2b9d DA01     		.2byte	0x1da
 8546 2b9f 38350000 		.4byte	0x3538
 8547 2ba3 68       		.byte	0x68
 8548 2ba4 00       		.byte	0
 8549 2ba5 04       		.uleb128 0x4
 8550 2ba6 CC090000 		.4byte	.LASF573
 8551 2baa 34       		.byte	0x34
 8552 2bab FF       		.byte	0xff
 8553 2bac BF000000 		.4byte	0xbf
 8554 2bb0 24       		.uleb128 0x24
 8555 2bb1 07       		.byte	0x7
 8556 2bb2 01       		.byte	0x1
 8557 2bb3 5E000000 		.4byte	0x5e
 8558 2bb7 34       		.byte	0x34
 8559 2bb8 0401     		.2byte	0x104
 8560 2bba DD2B0000 		.4byte	0x2bdd
 8561 2bbe 22       		.uleb128 0x22
 8562 2bbf 46200000 		.4byte	.LASF574
 8563 2bc3 00       		.byte	0
 8564 2bc4 22       		.uleb128 0x22
 8565 2bc5 0E000000 		.4byte	.LASF575
 8566 2bc9 01       		.byte	0x1
ARM GAS  C:\Users\mathi\AppData\Local\Temp\ccRLxsF0.s 			page 153


 8567 2bca 22       		.uleb128 0x22
 8568 2bcb 1A110000 		.4byte	.LASF576
 8569 2bcf 02       		.byte	0x2
 8570 2bd0 22       		.uleb128 0x22
 8571 2bd1 60160000 		.4byte	.LASF577
 8572 2bd5 03       		.byte	0x3
 8573 2bd6 22       		.uleb128 0x22
 8574 2bd7 94080000 		.4byte	.LASF578
 8575 2bdb 04       		.byte	0x4
 8576 2bdc 00       		.byte	0
 8577 2bdd 1A       		.uleb128 0x1a
 8578 2bde 54210000 		.4byte	.LASF579
 8579 2be2 34       		.byte	0x34
 8580 2be3 0A01     		.2byte	0x10a
 8581 2be5 B02B0000 		.4byte	0x2bb0
 8582 2be9 24       		.uleb128 0x24
 8583 2bea 07       		.byte	0x7
 8584 2beb 01       		.byte	0x1
 8585 2bec 5E000000 		.4byte	0x5e
 8586 2bf0 34       		.byte	0x34
 8587 2bf1 1801     		.2byte	0x118
 8588 2bf3 222C0000 		.4byte	0x2c22
 8589 2bf7 22       		.uleb128 0x22
 8590 2bf8 661A0000 		.4byte	.LASF580
 8591 2bfc 00       		.byte	0
 8592 2bfd 22       		.uleb128 0x22
 8593 2bfe 770E0000 		.4byte	.LASF581
 8594 2c02 01       		.byte	0x1
 8595 2c03 22       		.uleb128 0x22
 8596 2c04 9B180000 		.4byte	.LASF582
 8597 2c08 02       		.byte	0x2
 8598 2c09 22       		.uleb128 0x22
 8599 2c0a BB130000 		.4byte	.LASF583
 8600 2c0e 03       		.byte	0x3
 8601 2c0f 22       		.uleb128 0x22
 8602 2c10 E2120000 		.4byte	.LASF584
 8603 2c14 04       		.byte	0x4
 8604 2c15 22       		.uleb128 0x22
 8605 2c16 640F0000 		.4byte	.LASF585
 8606 2c1a 05       		.byte	0x5
 8607 2c1b 22       		.uleb128 0x22
 8608 2c1c FD0D0000 		.4byte	.LASF586
 8609 2c20 06       		.byte	0x6
 8610 2c21 00       		.byte	0
 8611 2c22 1A       		.uleb128 0x1a
 8612 2c23 8E0F0000 		.4byte	.LASF587
 8613 2c27 34       		.byte	0x34
 8614 2c28 2001     		.2byte	0x120
 8615 2c2a E92B0000 		.4byte	0x2be9
 8616 2c2e 24       		.uleb128 0x24
 8617 2c2f 07       		.byte	0x7
 8618 2c30 01       		.byte	0x1
 8619 2c31 5E000000 		.4byte	0x5e
 8620 2c35 34       		.byte	0x34
 8621 2c36 2501     		.2byte	0x125
 8622 2c38 612C0000 		.4byte	0x2c61
 8623 2c3c 22       		.uleb128 0x22
ARM GAS  C:\Users\mathi\AppData\Local\Temp\ccRLxsF0.s 			page 154


 8624 2c3d 001A0000 		.4byte	.LASF588
 8625 2c41 00       		.byte	0
 8626 2c42 22       		.uleb128 0x22
 8627 2c43 B9160000 		.4byte	.LASF589
 8628 2c47 01       		.byte	0x1
 8629 2c48 22       		.uleb128 0x22
 8630 2c49 9F110000 		.4byte	.LASF590
 8631 2c4d 02       		.byte	0x2
 8632 2c4e 22       		.uleb128 0x22
 8633 2c4f 64120000 		.4byte	.LASF591
 8634 2c53 03       		.byte	0x3
 8635 2c54 22       		.uleb128 0x22
 8636 2c55 C21E0000 		.4byte	.LASF592
 8637 2c59 04       		.byte	0x4
 8638 2c5a 22       		.uleb128 0x22
 8639 2c5b 63110000 		.4byte	.LASF593
 8640 2c5f 05       		.byte	0x5
 8641 2c60 00       		.byte	0
 8642 2c61 1A       		.uleb128 0x1a
 8643 2c62 F1160000 		.4byte	.LASF594
 8644 2c66 34       		.byte	0x34
 8645 2c67 2C01     		.2byte	0x12c
 8646 2c69 2E2C0000 		.4byte	0x2c2e
 8647 2c6d 19       		.uleb128 0x19
 8648 2c6e 08       		.byte	0x8
 8649 2c6f 34       		.byte	0x34
 8650 2c70 3101     		.2byte	0x131
 8651 2c72 912C0000 		.4byte	0x2c91
 8652 2c76 0A       		.uleb128 0xa
 8653 2c77 EE200000 		.4byte	.LASF595
 8654 2c7b 34       		.byte	0x34
 8655 2c7c 3501     		.2byte	0x135
 8656 2c7e 33000000 		.4byte	0x33
 8657 2c82 00       		.byte	0
 8658 2c83 0A       		.uleb128 0xa
 8659 2c84 0C050000 		.4byte	.LASF596
 8660 2c88 34       		.byte	0x34
 8661 2c89 3901     		.2byte	0x139
 8662 2c8b 4C130000 		.4byte	0x134c
 8663 2c8f 04       		.byte	0x4
 8664 2c90 00       		.byte	0
 8665 2c91 1A       		.uleb128 0x1a
 8666 2c92 11130000 		.4byte	.LASF597
 8667 2c96 34       		.byte	0x34
 8668 2c97 3A01     		.2byte	0x13a
 8669 2c99 6D2C0000 		.4byte	0x2c6d
 8670 2c9d 05       		.uleb128 0x5
 8671 2c9e 912C0000 		.4byte	0x2c91
 8672 2ca2 1A       		.uleb128 0x1a
 8673 2ca3 90200000 		.4byte	.LASF598
 8674 2ca7 34       		.byte	0x34
 8675 2ca8 4201     		.2byte	0x142
 8676 2caa AE2C0000 		.4byte	0x2cae
 8677 2cae 0B       		.uleb128 0xb
 8678 2caf 04       		.byte	0x4
 8679 2cb0 B42C0000 		.4byte	0x2cb4
 8680 2cb4 0D       		.uleb128 0xd
ARM GAS  C:\Users\mathi\AppData\Local\Temp\ccRLxsF0.s 			page 155


 8681 2cb5 BF2C0000 		.4byte	0x2cbf
 8682 2cb9 0E       		.uleb128 0xe
 8683 2cba BF2C0000 		.4byte	0x2cbf
 8684 2cbe 00       		.byte	0
 8685 2cbf 0B       		.uleb128 0xb
 8686 2cc0 04       		.byte	0x4
 8687 2cc1 6E2A0000 		.4byte	0x2a6e
 8688 2cc5 1A       		.uleb128 0x1a
 8689 2cc6 6C050000 		.4byte	.LASF599
 8690 2cca 34       		.byte	0x34
 8691 2ccb 4B01     		.2byte	0x14b
 8692 2ccd D12C0000 		.4byte	0x2cd1
 8693 2cd1 0B       		.uleb128 0xb
 8694 2cd2 04       		.byte	0x4
 8695 2cd3 D72C0000 		.4byte	0x2cd7
 8696 2cd7 0D       		.uleb128 0xd
 8697 2cd8 E72C0000 		.4byte	0x2ce7
 8698 2cdc 0E       		.uleb128 0xe
 8699 2cdd BF2C0000 		.4byte	0x2cbf
 8700 2ce1 0E       		.uleb128 0xe
 8701 2ce2 A52B0000 		.4byte	0x2ba5
 8702 2ce6 00       		.byte	0
 8703 2ce7 1A       		.uleb128 0x1a
 8704 2ce8 CD0A0000 		.4byte	.LASF600
 8705 2cec 34       		.byte	0x34
 8706 2ced 5401     		.2byte	0x154
 8707 2cef F32C0000 		.4byte	0x2cf3
 8708 2cf3 0B       		.uleb128 0xb
 8709 2cf4 04       		.byte	0x4
 8710 2cf5 F92C0000 		.4byte	0x2cf9
 8711 2cf9 0D       		.uleb128 0xd
 8712 2cfa 092D0000 		.4byte	0x2d09
 8713 2cfe 0E       		.uleb128 0xe
 8714 2cff BF2C0000 		.4byte	0x2cbf
 8715 2d03 0E       		.uleb128 0xe
 8716 2d04 612C0000 		.4byte	0x2c61
 8717 2d08 00       		.byte	0
 8718 2d09 1A       		.uleb128 0x1a
 8719 2d0a F8060000 		.4byte	.LASF601
 8720 2d0e 34       		.byte	0x34
 8721 2d0f 6001     		.2byte	0x160
 8722 2d11 152D0000 		.4byte	0x2d15
 8723 2d15 0B       		.uleb128 0xb
 8724 2d16 04       		.byte	0x4
 8725 2d17 1B2D0000 		.4byte	0x2d1b
 8726 2d1b 20       		.uleb128 0x20
 8727 2d1c 59150000 		.4byte	0x1559
 8728 2d20 2A2D0000 		.4byte	0x2d2a
 8729 2d24 0E       		.uleb128 0xe
 8730 2d25 BF2C0000 		.4byte	0x2cbf
 8731 2d29 00       		.byte	0
 8732 2d2a 1A       		.uleb128 0x1a
 8733 2d2b 4B0E0000 		.4byte	.LASF602
 8734 2d2f 34       		.byte	0x34
 8735 2d30 6501     		.2byte	0x165
 8736 2d32 362D0000 		.4byte	0x2d36
 8737 2d36 0B       		.uleb128 0xb
ARM GAS  C:\Users\mathi\AppData\Local\Temp\ccRLxsF0.s 			page 156


 8738 2d37 04       		.byte	0x4
 8739 2d38 3C2D0000 		.4byte	0x2d3c
 8740 2d3c 20       		.uleb128 0x20
 8741 2d3d 5A2D0000 		.4byte	0x2d5a
 8742 2d41 5A2D0000 		.4byte	0x2d5a
 8743 2d45 0E       		.uleb128 0xe
 8744 2d46 BF2C0000 		.4byte	0x2cbf
 8745 2d4a 0E       		.uleb128 0xe
 8746 2d4b BF000000 		.4byte	0xbf
 8747 2d4f 0E       		.uleb128 0xe
 8748 2d50 BF000000 		.4byte	0xbf
 8749 2d54 0E       		.uleb128 0xe
 8750 2d55 DA000000 		.4byte	0xda
 8751 2d59 00       		.byte	0
 8752 2d5a 0B       		.uleb128 0xb
 8753 2d5b 04       		.byte	0x4
 8754 2d5c 9D2C0000 		.4byte	0x2c9d
 8755 2d60 17       		.uleb128 0x17
 8756 2d61 20       		.byte	0x20
 8757 2d62 36       		.byte	0x36
 8758 2d63 35       		.byte	0x35
 8759 2d64 C92D0000 		.4byte	0x2dc9
 8760 2d68 08       		.uleb128 0x8
 8761 2d69 E4030000 		.4byte	.LASF603
 8762 2d6d 36       		.byte	0x36
 8763 2d6e 36       		.byte	0x36
 8764 2d6f 00010000 		.4byte	0x100
 8765 2d73 00       		.byte	0
 8766 2d74 08       		.uleb128 0x8
 8767 2d75 910C0000 		.4byte	.LASF604
 8768 2d79 36       		.byte	0x36
 8769 2d7a 38       		.byte	0x38
 8770 2d7b 00010000 		.4byte	0x100
 8771 2d7f 04       		.byte	0x4
 8772 2d80 08       		.uleb128 0x8
 8773 2d81 51030000 		.4byte	.LASF605
 8774 2d85 36       		.byte	0x36
 8775 2d86 39       		.byte	0x39
 8776 2d87 00010000 		.4byte	0x100
 8777 2d8b 08       		.byte	0x8
 8778 2d8c 08       		.uleb128 0x8
 8779 2d8d 06190000 		.4byte	.LASF606
 8780 2d91 36       		.byte	0x36
 8781 2d92 3A       		.byte	0x3a
 8782 2d93 00010000 		.4byte	0x100
 8783 2d97 0C       		.byte	0xc
 8784 2d98 08       		.uleb128 0x8
 8785 2d99 98110000 		.4byte	.LASF607
 8786 2d9d 36       		.byte	0x36
 8787 2d9e 3C       		.byte	0x3c
 8788 2d9f 00010000 		.4byte	0x100
 8789 2da3 10       		.byte	0x10
 8790 2da4 08       		.uleb128 0x8
 8791 2da5 BD0C0000 		.4byte	.LASF608
 8792 2da9 36       		.byte	0x36
 8793 2daa 3E       		.byte	0x3e
 8794 2dab 00010000 		.4byte	0x100
ARM GAS  C:\Users\mathi\AppData\Local\Temp\ccRLxsF0.s 			page 157


 8795 2daf 14       		.byte	0x14
 8796 2db0 08       		.uleb128 0x8
 8797 2db1 C50C0000 		.4byte	.LASF609
 8798 2db5 36       		.byte	0x36
 8799 2db6 3F       		.byte	0x3f
 8800 2db7 00010000 		.4byte	0x100
 8801 2dbb 18       		.byte	0x18
 8802 2dbc 08       		.uleb128 0x8
 8803 2dbd 84040000 		.4byte	.LASF610
 8804 2dc1 36       		.byte	0x36
 8805 2dc2 40       		.byte	0x40
 8806 2dc3 00010000 		.4byte	0x100
 8807 2dc7 1C       		.byte	0x1c
 8808 2dc8 00       		.byte	0
 8809 2dc9 04       		.uleb128 0x4
 8810 2dca B7180000 		.4byte	.LASF611
 8811 2dce 36       		.byte	0x36
 8812 2dcf 41       		.byte	0x41
 8813 2dd0 602D0000 		.4byte	0x2d60
 8814 2dd4 17       		.uleb128 0x17
 8815 2dd5 20       		.byte	0x20
 8816 2dd6 36       		.byte	0x36
 8817 2dd7 46       		.byte	0x46
 8818 2dd8 3D2E0000 		.4byte	0x2e3d
 8819 2ddc 08       		.uleb128 0x8
 8820 2ddd 0D0D0000 		.4byte	.LASF612
 8821 2de1 36       		.byte	0x36
 8822 2de2 47       		.byte	0x47
 8823 2de3 00010000 		.4byte	0x100
 8824 2de7 00       		.byte	0
 8825 2de8 08       		.uleb128 0x8
 8826 2de9 E20F0000 		.4byte	.LASF613
 8827 2ded 36       		.byte	0x36
 8828 2dee 49       		.byte	0x49
 8829 2def 00010000 		.4byte	0x100
 8830 2df3 04       		.byte	0x4
 8831 2df4 08       		.uleb128 0x8
 8832 2df5 301C0000 		.4byte	.LASF614
 8833 2df9 36       		.byte	0x36
 8834 2dfa 4A       		.byte	0x4a
 8835 2dfb 00010000 		.4byte	0x100
 8836 2dff 08       		.byte	0x8
 8837 2e00 08       		.uleb128 0x8
 8838 2e01 06100000 		.4byte	.LASF615
 8839 2e05 36       		.byte	0x36
 8840 2e06 4C       		.byte	0x4c
 8841 2e07 00010000 		.4byte	0x100
 8842 2e0b 0C       		.byte	0xc
 8843 2e0c 08       		.uleb128 0x8
 8844 2e0d 5C140000 		.4byte	.LASF616
 8845 2e11 36       		.byte	0x36
 8846 2e12 4D       		.byte	0x4d
 8847 2e13 00010000 		.4byte	0x100
 8848 2e17 10       		.byte	0x10
 8849 2e18 08       		.uleb128 0x8
 8850 2e19 BD0C0000 		.4byte	.LASF608
 8851 2e1d 36       		.byte	0x36
ARM GAS  C:\Users\mathi\AppData\Local\Temp\ccRLxsF0.s 			page 158


 8852 2e1e 4F       		.byte	0x4f
 8853 2e1f 00010000 		.4byte	0x100
 8854 2e23 14       		.byte	0x14
 8855 2e24 08       		.uleb128 0x8
 8856 2e25 97070000 		.4byte	.LASF617
 8857 2e29 36       		.byte	0x36
 8858 2e2a 50       		.byte	0x50
 8859 2e2b 00010000 		.4byte	0x100
 8860 2e2f 18       		.byte	0x18
 8861 2e30 08       		.uleb128 0x8
 8862 2e31 191C0000 		.4byte	.LASF618
 8863 2e35 36       		.byte	0x36
 8864 2e36 52       		.byte	0x52
 8865 2e37 00010000 		.4byte	0x100
 8866 2e3b 1C       		.byte	0x1c
 8867 2e3c 00       		.byte	0
 8868 2e3d 04       		.uleb128 0x4
 8869 2e3e 9F080000 		.4byte	.LASF619
 8870 2e42 36       		.byte	0x36
 8871 2e43 53       		.byte	0x53
 8872 2e44 D42D0000 		.4byte	0x2dd4
 8873 2e48 17       		.uleb128 0x17
 8874 2e49 20       		.byte	0x20
 8875 2e4a 36       		.byte	0x36
 8876 2e4b 58       		.byte	0x58
 8877 2e4c B12E0000 		.4byte	0x2eb1
 8878 2e50 08       		.uleb128 0x8
 8879 2e51 FE180000 		.4byte	.LASF620
 8880 2e55 36       		.byte	0x36
 8881 2e56 59       		.byte	0x59
 8882 2e57 00010000 		.4byte	0x100
 8883 2e5b 00       		.byte	0
 8884 2e5c 08       		.uleb128 0x8
 8885 2e5d E20F0000 		.4byte	.LASF613
 8886 2e61 36       		.byte	0x36
 8887 2e62 5B       		.byte	0x5b
 8888 2e63 00010000 		.4byte	0x100
 8889 2e67 04       		.byte	0x4
 8890 2e68 08       		.uleb128 0x8
 8891 2e69 B8150000 		.4byte	.LASF621
 8892 2e6d 36       		.byte	0x36
 8893 2e6e 5C       		.byte	0x5c
 8894 2e6f 00010000 		.4byte	0x100
 8895 2e73 08       		.byte	0x8
 8896 2e74 08       		.uleb128 0x8
 8897 2e75 06100000 		.4byte	.LASF615
 8898 2e79 36       		.byte	0x36
 8899 2e7a 5E       		.byte	0x5e
 8900 2e7b 00010000 		.4byte	0x100
 8901 2e7f 0C       		.byte	0xc
 8902 2e80 08       		.uleb128 0x8
 8903 2e81 561D0000 		.4byte	.LASF622
 8904 2e85 36       		.byte	0x36
 8905 2e86 5F       		.byte	0x5f
 8906 2e87 00010000 		.4byte	0x100
 8907 2e8b 10       		.byte	0x10
 8908 2e8c 08       		.uleb128 0x8
ARM GAS  C:\Users\mathi\AppData\Local\Temp\ccRLxsF0.s 			page 159


 8909 2e8d BD0C0000 		.4byte	.LASF608
 8910 2e91 36       		.byte	0x36
 8911 2e92 61       		.byte	0x61
 8912 2e93 00010000 		.4byte	0x100
 8913 2e97 14       		.byte	0x14
 8914 2e98 08       		.uleb128 0x8
 8915 2e99 C50C0000 		.4byte	.LASF609
 8916 2e9d 36       		.byte	0x36
 8917 2e9e 62       		.byte	0x62
 8918 2e9f 00010000 		.4byte	0x100
 8919 2ea3 18       		.byte	0x18
 8920 2ea4 08       		.uleb128 0x8
 8921 2ea5 191C0000 		.4byte	.LASF618
 8922 2ea9 36       		.byte	0x36
 8923 2eaa 63       		.byte	0x63
 8924 2eab 00010000 		.4byte	0x100
 8925 2eaf 1C       		.byte	0x1c
 8926 2eb0 00       		.byte	0
 8927 2eb1 04       		.uleb128 0x4
 8928 2eb2 4B080000 		.4byte	.LASF623
 8929 2eb6 36       		.byte	0x36
 8930 2eb7 64       		.byte	0x64
 8931 2eb8 482E0000 		.4byte	0x2e48
 8932 2ebc 26       		.uleb128 0x26
 8933 2ebd 00100100 		.4byte	0x11000
 8934 2ec1 36       		.byte	0x36
 8935 2ec2 69       		.byte	0x69
 8936 2ec3 99310000 		.4byte	0x3199
 8937 2ec7 08       		.uleb128 0x8
 8938 2ec8 50050000 		.4byte	.LASF624
 8939 2ecc 36       		.byte	0x36
 8940 2ecd 6A       		.byte	0x6a
 8941 2ece 00010000 		.4byte	0x100
 8942 2ed2 00       		.byte	0
 8943 2ed3 08       		.uleb128 0x8
 8944 2ed4 8C0B0000 		.4byte	.LASF625
 8945 2ed8 36       		.byte	0x36
 8946 2ed9 6B       		.byte	0x6b
 8947 2eda 00010000 		.4byte	0x100
 8948 2ede 04       		.byte	0x4
 8949 2edf 08       		.uleb128 0x8
 8950 2ee0 D3070000 		.4byte	.LASF626
 8951 2ee4 36       		.byte	0x36
 8952 2ee5 6C       		.byte	0x6c
 8953 2ee6 00010000 		.4byte	0x100
 8954 2eea 08       		.byte	0x8
 8955 2eeb 08       		.uleb128 0x8
 8956 2eec 9E200000 		.4byte	.LASF627
 8957 2ef0 36       		.byte	0x36
 8958 2ef1 6D       		.byte	0x6d
 8959 2ef2 00010000 		.4byte	0x100
 8960 2ef6 0C       		.byte	0xc
 8961 2ef7 08       		.uleb128 0x8
 8962 2ef8 2A110000 		.4byte	.LASF628
 8963 2efc 36       		.byte	0x36
 8964 2efd 6E       		.byte	0x6e
 8965 2efe 00010000 		.4byte	0x100
ARM GAS  C:\Users\mathi\AppData\Local\Temp\ccRLxsF0.s 			page 160


 8966 2f02 10       		.byte	0x10
 8967 2f03 08       		.uleb128 0x8
 8968 2f04 2C0B0000 		.4byte	.LASF629
 8969 2f08 36       		.byte	0x36
 8970 2f09 6F       		.byte	0x6f
 8971 2f0a 00010000 		.4byte	0x100
 8972 2f0e 14       		.byte	0x14
 8973 2f0f 08       		.uleb128 0x8
 8974 2f10 BD170000 		.4byte	.LASF630
 8975 2f14 36       		.byte	0x36
 8976 2f15 70       		.byte	0x70
 8977 2f16 00010000 		.4byte	0x100
 8978 2f1a 18       		.byte	0x18
 8979 2f1b 08       		.uleb128 0x8
 8980 2f1c 66080000 		.4byte	.LASF631
 8981 2f20 36       		.byte	0x36
 8982 2f21 71       		.byte	0x71
 8983 2f22 00010000 		.4byte	0x100
 8984 2f26 1C       		.byte	0x1c
 8985 2f27 08       		.uleb128 0x8
 8986 2f28 5E080000 		.4byte	.LASF632
 8987 2f2c 36       		.byte	0x36
 8988 2f2d 73       		.byte	0x73
 8989 2f2e 00010000 		.4byte	0x100
 8990 2f32 20       		.byte	0x20
 8991 2f33 08       		.uleb128 0x8
 8992 2f34 35170000 		.4byte	.LASF633
 8993 2f38 36       		.byte	0x36
 8994 2f39 75       		.byte	0x75
 8995 2f3a 00010000 		.4byte	0x100
 8996 2f3e 24       		.byte	0x24
 8997 2f3f 08       		.uleb128 0x8
 8998 2f40 9F000000 		.4byte	.LASF634
 8999 2f44 36       		.byte	0x36
 9000 2f45 76       		.byte	0x76
 9001 2f46 00010000 		.4byte	0x100
 9002 2f4a 28       		.byte	0x28
 9003 2f4b 08       		.uleb128 0x8
 9004 2f4c C5170000 		.4byte	.LASF635
 9005 2f50 36       		.byte	0x36
 9006 2f51 78       		.byte	0x78
 9007 2f52 00010000 		.4byte	0x100
 9008 2f56 2C       		.byte	0x2c
 9009 2f57 08       		.uleb128 0x8
 9010 2f58 C90D0000 		.4byte	.LASF636
 9011 2f5c 36       		.byte	0x36
 9012 2f5d 7A       		.byte	0x7a
 9013 2f5e 00010000 		.4byte	0x100
 9014 2f62 30       		.byte	0x30
 9015 2f63 08       		.uleb128 0x8
 9016 2f64 D10D0000 		.4byte	.LASF637
 9017 2f68 36       		.byte	0x36
 9018 2f69 7B       		.byte	0x7b
 9019 2f6a 00010000 		.4byte	0x100
 9020 2f6e 34       		.byte	0x34
 9021 2f6f 08       		.uleb128 0x8
 9022 2f70 A4020000 		.4byte	.LASF638
ARM GAS  C:\Users\mathi\AppData\Local\Temp\ccRLxsF0.s 			page 161


 9023 2f74 36       		.byte	0x36
 9024 2f75 7C       		.byte	0x7c
 9025 2f76 00010000 		.4byte	0x100
 9026 2f7a 38       		.byte	0x38
 9027 2f7b 18       		.uleb128 0x18
 9028 2f7c 43494400 		.ascii	"CID\000"
 9029 2f80 36       		.byte	0x36
 9030 2f81 7D       		.byte	0x7d
 9031 2f82 00010000 		.4byte	0x100
 9032 2f86 3C       		.byte	0x3c
 9033 2f87 08       		.uleb128 0x8
 9034 2f88 120F0000 		.4byte	.LASF639
 9035 2f8c 36       		.byte	0x36
 9036 2f8d 7E       		.byte	0x7e
 9037 2f8e A9310000 		.4byte	0x31a9
 9038 2f92 40       		.byte	0x40
 9039 2f93 27       		.uleb128 0x27
 9040 2f94 F71D0000 		.4byte	.LASF640
 9041 2f98 36       		.byte	0x36
 9042 2f99 7F       		.byte	0x7f
 9043 2f9a 00010000 		.4byte	0x100
 9044 2f9e 0001     		.2byte	0x100
 9045 2fa0 27       		.uleb128 0x27
 9046 2fa1 FE020000 		.4byte	.LASF641
 9047 2fa5 36       		.byte	0x36
 9048 2fa6 81       		.byte	0x81
 9049 2fa7 D10C0000 		.4byte	0xcd1
 9050 2fab 0401     		.2byte	0x104
 9051 2fad 27       		.uleb128 0x27
 9052 2fae 43120000 		.4byte	.LASF642
 9053 2fb2 36       		.byte	0x36
 9054 2fb3 83       		.byte	0x83
 9055 2fb4 BE310000 		.4byte	0x31be
 9056 2fb8 4001     		.2byte	0x140
 9057 2fba 27       		.uleb128 0x27
 9058 2fbb 3D150000 		.4byte	.LASF643
 9059 2fbf 36       		.byte	0x36
 9060 2fc0 84       		.byte	0x84
 9061 2fc1 00010000 		.4byte	0x100
 9062 2fc5 0004     		.2byte	0x400
 9063 2fc7 27       		.uleb128 0x27
 9064 2fc8 41200000 		.4byte	.LASF644
 9065 2fcc 36       		.byte	0x36
 9066 2fcd 85       		.byte	0x85
 9067 2fce 00010000 		.4byte	0x100
 9068 2fd2 0404     		.2byte	0x404
 9069 2fd4 27       		.uleb128 0x27
 9070 2fd5 CE040000 		.4byte	.LASF645
 9071 2fd9 36       		.byte	0x36
 9072 2fda 86       		.byte	0x86
 9073 2fdb 00010000 		.4byte	0x100
 9074 2fdf 0804     		.2byte	0x408
 9075 2fe1 27       		.uleb128 0x27
 9076 2fe2 841D0000 		.4byte	.LASF646
 9077 2fe6 36       		.byte	0x36
 9078 2fe7 88       		.byte	0x88
 9079 2fe8 00010000 		.4byte	0x100
ARM GAS  C:\Users\mathi\AppData\Local\Temp\ccRLxsF0.s 			page 162


 9080 2fec 0C04     		.2byte	0x40c
 9081 2fee 27       		.uleb128 0x27
 9082 2fef A9030000 		.4byte	.LASF647
 9083 2ff3 36       		.byte	0x36
 9084 2ff4 89       		.byte	0x89
 9085 2ff5 00010000 		.4byte	0x100
 9086 2ff9 1004     		.2byte	0x410
 9087 2ffb 27       		.uleb128 0x27
 9088 2ffc A3040000 		.4byte	.LASF648
 9089 3000 36       		.byte	0x36
 9090 3001 8B       		.byte	0x8b
 9091 3002 00010000 		.4byte	0x100
 9092 3006 1404     		.2byte	0x414
 9093 3008 27       		.uleb128 0x27
 9094 3009 9B0B0000 		.4byte	.LASF649
 9095 300d 36       		.byte	0x36
 9096 300e 8D       		.byte	0x8d
 9097 300f 00010000 		.4byte	0x100
 9098 3013 1804     		.2byte	0x418
 9099 3015 27       		.uleb128 0x27
 9100 3016 DD190000 		.4byte	.LASF650
 9101 301a 36       		.byte	0x36
 9102 301b 8F       		.byte	0x8f
 9103 301c D3310000 		.4byte	0x31d3
 9104 3020 1C04     		.2byte	0x41c
 9105 3022 27       		.uleb128 0x27
 9106 3023 4C030000 		.4byte	.LASF651
 9107 3027 36       		.byte	0x36
 9108 3028 90       		.byte	0x90
 9109 3029 00010000 		.4byte	0x100
 9110 302d 4004     		.2byte	0x440
 9111 302f 27       		.uleb128 0x27
 9112 3030 521B0000 		.4byte	.LASF652
 9113 3034 36       		.byte	0x36
 9114 3035 92       		.byte	0x92
 9115 3036 E8310000 		.4byte	0x31e8
 9116 303a 4404     		.2byte	0x444
 9117 303c 28       		.uleb128 0x28
 9118 303d 686300   		.ascii	"hc\000"
 9119 3040 36       		.byte	0x36
 9120 3041 93       		.byte	0x93
 9121 3042 ED310000 		.4byte	0x31ed
 9122 3046 0005     		.2byte	0x500
 9123 3048 27       		.uleb128 0x27
 9124 3049 C31D0000 		.4byte	.LASF653
 9125 304d 36       		.byte	0x36
 9126 304e 94       		.byte	0x94
 9127 304f 0D320000 		.4byte	0x320d
 9128 3053 0007     		.2byte	0x700
 9129 3055 27       		.uleb128 0x27
 9130 3056 81170000 		.4byte	.LASF654
 9131 305a 36       		.byte	0x36
 9132 305b 95       		.byte	0x95
 9133 305c 00010000 		.4byte	0x100
 9134 3060 0008     		.2byte	0x800
 9135 3062 27       		.uleb128 0x27
 9136 3063 9A1E0000 		.4byte	.LASF655
ARM GAS  C:\Users\mathi\AppData\Local\Temp\ccRLxsF0.s 			page 163


 9137 3067 36       		.byte	0x36
 9138 3068 96       		.byte	0x96
 9139 3069 00010000 		.4byte	0x100
 9140 306d 0408     		.2byte	0x804
 9141 306f 27       		.uleb128 0x27
 9142 3070 1B060000 		.4byte	.LASF656
 9143 3074 36       		.byte	0x36
 9144 3075 97       		.byte	0x97
 9145 3076 00010000 		.4byte	0x100
 9146 307a 0808     		.2byte	0x808
 9147 307c 27       		.uleb128 0x27
 9148 307d 3E050000 		.4byte	.LASF657
 9149 3081 36       		.byte	0x36
 9150 3082 98       		.byte	0x98
 9151 3083 00010000 		.4byte	0x100
 9152 3087 0C08     		.2byte	0x80c
 9153 3089 27       		.uleb128 0x27
 9154 308a 840B0000 		.4byte	.LASF658
 9155 308e 36       		.byte	0x36
 9156 308f 99       		.byte	0x99
 9157 3090 00010000 		.4byte	0x100
 9158 3094 1008     		.2byte	0x810
 9159 3096 27       		.uleb128 0x27
 9160 3097 511C0000 		.4byte	.LASF659
 9161 309b 36       		.byte	0x36
 9162 309c 9B       		.byte	0x9b
 9163 309d 00010000 		.4byte	0x100
 9164 30a1 1408     		.2byte	0x814
 9165 30a3 27       		.uleb128 0x27
 9166 30a4 DF1C0000 		.4byte	.LASF660
 9167 30a8 36       		.byte	0x36
 9168 30a9 9D       		.byte	0x9d
 9169 30aa 00010000 		.4byte	0x100
 9170 30ae 1808     		.2byte	0x818
 9171 30b0 27       		.uleb128 0x27
 9172 30b1 491A0000 		.4byte	.LASF661
 9173 30b5 36       		.byte	0x36
 9174 30b6 9F       		.byte	0x9f
 9175 30b7 00010000 		.4byte	0x100
 9176 30bb 1C08     		.2byte	0x81c
 9177 30bd 27       		.uleb128 0x27
 9178 30be 86060000 		.4byte	.LASF662
 9179 30c2 36       		.byte	0x36
 9180 30c3 A1       		.byte	0xa1
 9181 30c4 00010000 		.4byte	0x100
 9182 30c8 2008     		.2byte	0x820
 9183 30ca 27       		.uleb128 0x27
 9184 30cb 98050000 		.4byte	.LASF663
 9185 30cf 36       		.byte	0x36
 9186 30d0 A2       		.byte	0xa2
 9187 30d1 00010000 		.4byte	0x100
 9188 30d5 2408     		.2byte	0x824
 9189 30d7 27       		.uleb128 0x27
 9190 30d8 AC170000 		.4byte	.LASF664
 9191 30dc 36       		.byte	0x36
 9192 30dd A3       		.byte	0xa3
 9193 30de 00010000 		.4byte	0x100
ARM GAS  C:\Users\mathi\AppData\Local\Temp\ccRLxsF0.s 			page 164


 9194 30e2 2808     		.2byte	0x828
 9195 30e4 27       		.uleb128 0x27
 9196 30e5 D90D0000 		.4byte	.LASF665
 9197 30e9 36       		.byte	0x36
 9198 30ea A5       		.byte	0xa5
 9199 30eb 00010000 		.4byte	0x100
 9200 30ef 2C08     		.2byte	0x82c
 9201 30f1 27       		.uleb128 0x27
 9202 30f2 42070000 		.4byte	.LASF666
 9203 30f6 36       		.byte	0x36
 9204 30f7 A7       		.byte	0xa7
 9205 30f8 00010000 		.4byte	0x100
 9206 30fc 3008     		.2byte	0x830
 9207 30fe 27       		.uleb128 0x27
 9208 30ff 020D0000 		.4byte	.LASF667
 9209 3103 36       		.byte	0x36
 9210 3104 A8       		.byte	0xa8
 9211 3105 00010000 		.4byte	0x100
 9212 3109 3408     		.2byte	0x834
 9213 310b 27       		.uleb128 0x27
 9214 310c 55070000 		.4byte	.LASF668
 9215 3110 36       		.byte	0x36
 9216 3111 AA       		.byte	0xaa
 9217 3112 00010000 		.4byte	0x100
 9218 3116 3808     		.2byte	0x838
 9219 3118 27       		.uleb128 0x27
 9220 3119 6D070000 		.4byte	.LASF669
 9221 311d 36       		.byte	0x36
 9222 311e AB       		.byte	0xab
 9223 311f 00010000 		.4byte	0x100
 9224 3123 3C08     		.2byte	0x83c
 9225 3125 27       		.uleb128 0x27
 9226 3126 E9070000 		.4byte	.LASF670
 9227 312a 36       		.byte	0x36
 9228 312b AC       		.byte	0xac
 9229 312c 22320000 		.4byte	0x3222
 9230 3130 4008     		.2byte	0x840
 9231 3132 27       		.uleb128 0x27
 9232 3133 AC0C0000 		.4byte	.LASF671
 9233 3137 36       		.byte	0x36
 9234 3138 AD       		.byte	0xad
 9235 3139 22320000 		.4byte	0x3222
 9236 313d 8008     		.2byte	0x880
 9237 313f 27       		.uleb128 0x27
 9238 3140 F30F0000 		.4byte	.LASF672
 9239 3144 36       		.byte	0x36
 9240 3145 AE       		.byte	0xae
 9241 3146 22320000 		.4byte	0x3222
 9242 314a C008     		.2byte	0x8c0
 9243 314c 28       		.uleb128 0x28
 9244 314d 696500   		.ascii	"ie\000"
 9245 3150 36       		.byte	0x36
 9246 3151 AF       		.byte	0xaf
 9247 3152 27320000 		.4byte	0x3227
 9248 3156 0009     		.2byte	0x900
 9249 3158 28       		.uleb128 0x28
 9250 3159 6F6500   		.ascii	"oe\000"
ARM GAS  C:\Users\mathi\AppData\Local\Temp\ccRLxsF0.s 			page 165


 9251 315c 36       		.byte	0x36
 9252 315d B0       		.byte	0xb0
 9253 315e 37320000 		.4byte	0x3237
 9254 3162 000B     		.2byte	0xb00
 9255 3164 27       		.uleb128 0x27
 9256 3165 160B0000 		.4byte	.LASF673
 9257 3169 36       		.byte	0x36
 9258 316a B1       		.byte	0xb1
 9259 316b 0D320000 		.4byte	0x320d
 9260 316f 000D     		.2byte	0xd00
 9261 3171 27       		.uleb128 0x27
 9262 3172 BA1E0000 		.4byte	.LASF674
 9263 3176 36       		.byte	0x36
 9264 3177 B2       		.byte	0xb2
 9265 3178 00010000 		.4byte	0x100
 9266 317c 000E     		.2byte	0xe00
 9267 317e 27       		.uleb128 0x27
 9268 317f E8140000 		.4byte	.LASF675
 9269 3183 36       		.byte	0x36
 9270 3184 B4       		.byte	0xb4
 9271 3185 57320000 		.4byte	0x3257
 9272 3189 040E     		.2byte	0xe04
 9273 318b 27       		.uleb128 0x27
 9274 318c 86090000 		.4byte	.LASF173
 9275 3190 36       		.byte	0x36
 9276 3191 B5       		.byte	0xb5
 9277 3192 73320000 		.4byte	0x3273
 9278 3196 0010     		.2byte	0x1000
 9279 3198 00       		.byte	0
 9280 3199 13       		.uleb128 0x13
 9281 319a 00010000 		.4byte	0x100
 9282 319e A9310000 		.4byte	0x31a9
 9283 31a2 14       		.uleb128 0x14
 9284 31a3 25000000 		.4byte	0x25
 9285 31a7 2F       		.byte	0x2f
 9286 31a8 00       		.byte	0
 9287 31a9 06       		.uleb128 0x6
 9288 31aa 99310000 		.4byte	0x3199
 9289 31ae 13       		.uleb128 0x13
 9290 31af 00010000 		.4byte	0x100
 9291 31b3 BE310000 		.4byte	0x31be
 9292 31b7 14       		.uleb128 0x14
 9293 31b8 25000000 		.4byte	0x25
 9294 31bc AF       		.byte	0xaf
 9295 31bd 00       		.byte	0
 9296 31be 06       		.uleb128 0x6
 9297 31bf AE310000 		.4byte	0x31ae
 9298 31c3 13       		.uleb128 0x13
 9299 31c4 00010000 		.4byte	0x100
 9300 31c8 D3310000 		.4byte	0x31d3
 9301 31cc 14       		.uleb128 0x14
 9302 31cd 25000000 		.4byte	0x25
 9303 31d1 08       		.byte	0x8
 9304 31d2 00       		.byte	0
 9305 31d3 06       		.uleb128 0x6
 9306 31d4 C3310000 		.4byte	0x31c3
 9307 31d8 13       		.uleb128 0x13
ARM GAS  C:\Users\mathi\AppData\Local\Temp\ccRLxsF0.s 			page 166


 9308 31d9 00010000 		.4byte	0x100
 9309 31dd E8310000 		.4byte	0x31e8
 9310 31e1 14       		.uleb128 0x14
 9311 31e2 25000000 		.4byte	0x25
 9312 31e6 2E       		.byte	0x2e
 9313 31e7 00       		.byte	0
 9314 31e8 06       		.uleb128 0x6
 9315 31e9 D8310000 		.4byte	0x31d8
 9316 31ed 13       		.uleb128 0x13
 9317 31ee C92D0000 		.4byte	0x2dc9
 9318 31f2 FD310000 		.4byte	0x31fd
 9319 31f6 14       		.uleb128 0x14
 9320 31f7 25000000 		.4byte	0x25
 9321 31fb 0F       		.byte	0xf
 9322 31fc 00       		.byte	0
 9323 31fd 13       		.uleb128 0x13
 9324 31fe 00010000 		.4byte	0x100
 9325 3202 0D320000 		.4byte	0x320d
 9326 3206 14       		.uleb128 0x14
 9327 3207 25000000 		.4byte	0x25
 9328 320b 3F       		.byte	0x3f
 9329 320c 00       		.byte	0
 9330 320d 06       		.uleb128 0x6
 9331 320e FD310000 		.4byte	0x31fd
 9332 3212 13       		.uleb128 0x13
 9333 3213 00010000 		.4byte	0x100
 9334 3217 22320000 		.4byte	0x3222
 9335 321b 14       		.uleb128 0x14
 9336 321c 25000000 		.4byte	0x25
 9337 3220 0F       		.byte	0xf
 9338 3221 00       		.byte	0
 9339 3222 06       		.uleb128 0x6
 9340 3223 12320000 		.4byte	0x3212
 9341 3227 13       		.uleb128 0x13
 9342 3228 3D2E0000 		.4byte	0x2e3d
 9343 322c 37320000 		.4byte	0x3237
 9344 3230 14       		.uleb128 0x14
 9345 3231 25000000 		.4byte	0x25
 9346 3235 0F       		.byte	0xf
 9347 3236 00       		.byte	0
 9348 3237 13       		.uleb128 0x13
 9349 3238 B12E0000 		.4byte	0x2eb1
 9350 323c 47320000 		.4byte	0x3247
 9351 3240 14       		.uleb128 0x14
 9352 3241 25000000 		.4byte	0x25
 9353 3245 0F       		.byte	0xf
 9354 3246 00       		.byte	0
 9355 3247 13       		.uleb128 0x13
 9356 3248 00010000 		.4byte	0x100
 9357 324c 57320000 		.4byte	0x3257
 9358 3250 14       		.uleb128 0x14
 9359 3251 25000000 		.4byte	0x25
 9360 3255 7E       		.byte	0x7e
 9361 3256 00       		.byte	0
 9362 3257 06       		.uleb128 0x6
 9363 3258 47320000 		.4byte	0x3247
 9364 325c 13       		.uleb128 0x13
ARM GAS  C:\Users\mathi\AppData\Local\Temp\ccRLxsF0.s 			page 167


 9365 325d 00010000 		.4byte	0x100
 9366 3261 73320000 		.4byte	0x3273
 9367 3265 14       		.uleb128 0x14
 9368 3266 25000000 		.4byte	0x25
 9369 326a 0F       		.byte	0xf
 9370 326b 29       		.uleb128 0x29
 9371 326c 25000000 		.4byte	0x25
 9372 3270 FF03     		.2byte	0x3ff
 9373 3272 00       		.byte	0
 9374 3273 06       		.uleb128 0x6
 9375 3274 5C320000 		.4byte	0x325c
 9376 3278 04       		.uleb128 0x4
 9377 3279 C3200000 		.4byte	.LASF676
 9378 327d 36       		.byte	0x36
 9379 327e B6       		.byte	0xb6
 9380 327f BC2E0000 		.4byte	0x2ebc
 9381 3283 17       		.uleb128 0x17
 9382 3284 0C       		.byte	0xc
 9383 3285 35       		.byte	0x35
 9384 3286 C6       		.byte	0xc6
 9385 3287 B0320000 		.4byte	0x32b0
 9386 328b 08       		.uleb128 0x8
 9387 328c 29090000 		.4byte	.LASF677
 9388 3290 35       		.byte	0x35
 9389 3291 C7       		.byte	0xc7
 9390 3292 F5000000 		.4byte	0xf5
 9391 3296 00       		.byte	0
 9392 3297 08       		.uleb128 0x8
 9393 3298 F60A0000 		.4byte	.LASF678
 9394 329c 35       		.byte	0x35
 9395 329d C8       		.byte	0xc8
 9396 329e F5000000 		.4byte	0xf5
 9397 32a2 04       		.byte	0x4
 9398 32a3 08       		.uleb128 0x8
 9399 32a4 220E0000 		.4byte	.LASF679
 9400 32a8 35       		.byte	0x35
 9401 32a9 C9       		.byte	0xc9
 9402 32aa F5000000 		.4byte	0xf5
 9403 32ae 08       		.byte	0x8
 9404 32af 00       		.byte	0
 9405 32b0 04       		.uleb128 0x4
 9406 32b1 030B0000 		.4byte	.LASF680
 9407 32b5 35       		.byte	0x35
 9408 32b6 CA       		.byte	0xca
 9409 32b7 83320000 		.4byte	0x3283
 9410 32bb 05       		.uleb128 0x5
 9411 32bc B0320000 		.4byte	0x32b0
 9412 32c0 17       		.uleb128 0x17
 9413 32c1 04       		.byte	0x4
 9414 32c2 35       		.byte	0x35
 9415 32c3 DD       		.byte	0xdd
 9416 32c4 D5320000 		.4byte	0x32d5
 9417 32c8 08       		.uleb128 0x8
 9418 32c9 B41E0000 		.4byte	.LASF681
 9419 32cd 35       		.byte	0x35
 9420 32ce E1       		.byte	0xe1
 9421 32cf 4C130000 		.4byte	0x134c
ARM GAS  C:\Users\mathi\AppData\Local\Temp\ccRLxsF0.s 			page 168


 9422 32d3 00       		.byte	0
 9423 32d4 00       		.byte	0
 9424 32d5 17       		.uleb128 0x17
 9425 32d6 04       		.byte	0x4
 9426 32d7 35       		.byte	0x35
 9427 32d8 E3       		.byte	0xe3
 9428 32d9 EA320000 		.4byte	0x32ea
 9429 32dd 08       		.uleb128 0x8
 9430 32de 95090000 		.4byte	.LASF368
 9431 32e2 35       		.byte	0x35
 9432 32e3 E7       		.byte	0xe7
 9433 32e4 EA320000 		.4byte	0x32ea
 9434 32e8 00       		.byte	0
 9435 32e9 00       		.byte	0
 9436 32ea 0B       		.uleb128 0xb
 9437 32eb 04       		.byte	0x4
 9438 32ec E6120000 		.4byte	0x12e6
 9439 32f0 1D       		.uleb128 0x1d
 9440 32f1 04       		.byte	0x4
 9441 32f2 35       		.byte	0x35
 9442 32f3 DC       		.byte	0xdc
 9443 32f4 0F330000 		.4byte	0x330f
 9444 32f8 2A       		.uleb128 0x2a
 9445 32f9 871B0000 		.4byte	.LASF682
 9446 32fd 35       		.byte	0x35
 9447 32fe E2       		.byte	0xe2
 9448 32ff C0320000 		.4byte	0x32c0
 9449 3303 2A       		.uleb128 0x2a
 9450 3304 8D1A0000 		.4byte	.LASF683
 9451 3308 35       		.byte	0x35
 9452 3309 E8       		.byte	0xe8
 9453 330a D5320000 		.4byte	0x32d5
 9454 330e 00       		.byte	0
 9455 330f 17       		.uleb128 0x17
 9456 3310 14       		.byte	0x14
 9457 3311 35       		.byte	0x35
 9458 3312 CF       		.byte	0xcf
 9459 3313 54330000 		.4byte	0x3354
 9460 3317 08       		.uleb128 0x8
 9461 3318 3C080000 		.4byte	.LASF684
 9462 331c 35       		.byte	0x35
 9463 331d D3       		.byte	0xd3
 9464 331e 59150000 		.4byte	0x1559
 9465 3322 00       		.byte	0
 9466 3323 08       		.uleb128 0x8
 9467 3324 E5100000 		.4byte	.LASF685
 9468 3328 35       		.byte	0x35
 9469 3329 D7       		.byte	0xd7
 9470 332a 33000000 		.4byte	0x33
 9471 332e 04       		.byte	0x4
 9472 332f 08       		.uleb128 0x8
 9473 3330 C70A0000 		.4byte	.LASF686
 9474 3334 35       		.byte	0x35
 9475 3335 DB       		.byte	0xdb
 9476 3336 33000000 		.4byte	0x33
 9477 333a 08       		.byte	0x8
 9478 333b 08       		.uleb128 0x8
ARM GAS  C:\Users\mathi\AppData\Local\Temp\ccRLxsF0.s 			page 169


 9479 333c D4080000 		.4byte	.LASF414
 9480 3340 35       		.byte	0x35
 9481 3341 E9       		.byte	0xe9
 9482 3342 F0320000 		.4byte	0x32f0
 9483 3346 0C       		.byte	0xc
 9484 3347 08       		.uleb128 0x8
 9485 3348 3A0E0000 		.4byte	.LASF687
 9486 334c 35       		.byte	0x35
 9487 334d ED       		.byte	0xed
 9488 334e 33000000 		.4byte	0x33
 9489 3352 10       		.byte	0x10
 9490 3353 00       		.byte	0
 9491 3354 04       		.uleb128 0x4
 9492 3355 1A0F0000 		.4byte	.LASF688
 9493 3359 35       		.byte	0x35
 9494 335a EE       		.byte	0xee
 9495 335b 0F330000 		.4byte	0x330f
 9496 335f 19       		.uleb128 0x19
 9497 3360 04       		.byte	0x4
 9498 3361 35       		.byte	0x35
 9499 3362 0101     		.2byte	0x101
 9500 3364 76330000 		.4byte	0x3376
 9501 3368 0A       		.uleb128 0xa
 9502 3369 260B0000 		.4byte	.LASF689
 9503 336d 35       		.byte	0x35
 9504 336e 0501     		.2byte	0x105
 9505 3370 D5120000 		.4byte	0x12d5
 9506 3374 00       		.byte	0
 9507 3375 00       		.byte	0
 9508 3376 19       		.uleb128 0x19
 9509 3377 04       		.byte	0x4
 9510 3378 35       		.byte	0x35
 9511 3379 0701     		.2byte	0x107
 9512 337b 8D330000 		.4byte	0x338d
 9513 337f 0A       		.uleb128 0xa
 9514 3380 421B0000 		.4byte	.LASF369
 9515 3384 35       		.byte	0x35
 9516 3385 0B01     		.2byte	0x10b
 9517 3387 8D330000 		.4byte	0x338d
 9518 338b 00       		.byte	0
 9519 338c 00       		.byte	0
 9520 338d 0B       		.uleb128 0xb
 9521 338e 04       		.byte	0x4
 9522 338f DB120000 		.4byte	0x12db
 9523 3393 2B       		.uleb128 0x2b
 9524 3394 04       		.byte	0x4
 9525 3395 35       		.byte	0x35
 9526 3396 0001     		.2byte	0x100
 9527 3398 B5330000 		.4byte	0x33b5
 9528 339c 1E       		.uleb128 0x1e
 9529 339d 871B0000 		.4byte	.LASF682
 9530 33a1 35       		.byte	0x35
 9531 33a2 0601     		.2byte	0x106
 9532 33a4 5F330000 		.4byte	0x335f
 9533 33a8 1E       		.uleb128 0x1e
 9534 33a9 8D1A0000 		.4byte	.LASF683
 9535 33ad 35       		.byte	0x35
ARM GAS  C:\Users\mathi\AppData\Local\Temp\ccRLxsF0.s 			page 170


 9536 33ae 0C01     		.2byte	0x10c
 9537 33b0 76330000 		.4byte	0x3376
 9538 33b4 00       		.byte	0
 9539 33b5 17       		.uleb128 0x17
 9540 33b6 14       		.byte	0x14
 9541 33b7 35       		.byte	0x35
 9542 33b8 F3       		.byte	0xf3
 9543 33b9 FC330000 		.4byte	0x33fc
 9544 33bd 08       		.uleb128 0x8
 9545 33be 55060000 		.4byte	.LASF690
 9546 33c2 35       		.byte	0x35
 9547 33c3 F7       		.byte	0xf7
 9548 33c4 59150000 		.4byte	0x1559
 9549 33c8 00       		.byte	0
 9550 33c9 08       		.uleb128 0x8
 9551 33ca 91110000 		.4byte	.LASF691
 9552 33ce 35       		.byte	0x35
 9553 33cf FB       		.byte	0xfb
 9554 33d0 33000000 		.4byte	0x33
 9555 33d4 04       		.byte	0x4
 9556 33d5 08       		.uleb128 0x8
 9557 33d6 B9080000 		.4byte	.LASF692
 9558 33da 35       		.byte	0x35
 9559 33db FF       		.byte	0xff
 9560 33dc 33000000 		.4byte	0x33
 9561 33e0 08       		.byte	0x8
 9562 33e1 0A       		.uleb128 0xa
 9563 33e2 D4080000 		.4byte	.LASF414
 9564 33e6 35       		.byte	0x35
 9565 33e7 0D01     		.2byte	0x10d
 9566 33e9 93330000 		.4byte	0x3393
 9567 33ed 0C       		.byte	0xc
 9568 33ee 0A       		.uleb128 0xa
 9569 33ef 3A0E0000 		.4byte	.LASF687
 9570 33f3 35       		.byte	0x35
 9571 33f4 1101     		.2byte	0x111
 9572 33f6 33000000 		.4byte	0x33
 9573 33fa 10       		.byte	0x10
 9574 33fb 00       		.byte	0
 9575 33fc 1A       		.uleb128 0x1a
 9576 33fd C9190000 		.4byte	.LASF693
 9577 3401 35       		.byte	0x35
 9578 3402 1201     		.2byte	0x112
 9579 3404 B5330000 		.4byte	0x33b5
 9580 3408 19       		.uleb128 0x19
 9581 3409 24       		.byte	0x24
 9582 340a 35       		.byte	0x35
 9583 340b 1801     		.2byte	0x118
 9584 340d 94340000 		.4byte	0x3494
 9585 3411 0A       		.uleb128 0xa
 9586 3412 B5140000 		.4byte	.LASF694
 9587 3416 35       		.byte	0x35
 9588 3417 1C01     		.2byte	0x11c
 9589 3419 F5000000 		.4byte	0xf5
 9590 341d 00       		.byte	0
 9591 341e 0A       		.uleb128 0xa
 9592 341f 6F090000 		.4byte	.LASF695
ARM GAS  C:\Users\mathi\AppData\Local\Temp\ccRLxsF0.s 			page 171


 9593 3423 35       		.byte	0x35
 9594 3424 2701     		.2byte	0x127
 9595 3426 C52C0000 		.4byte	0x2cc5
 9596 342a 04       		.byte	0x4
 9597 342b 0A       		.uleb128 0xa
 9598 342c B2150000 		.4byte	.LASF696
 9599 3430 35       		.byte	0x35
 9600 3431 2D01     		.2byte	0x12d
 9601 3433 C52C0000 		.4byte	0x2cc5
 9602 3437 08       		.byte	0x8
 9603 3438 0A       		.uleb128 0xa
 9604 3439 940B0000 		.4byte	.LASF697
 9605 343d 35       		.byte	0x35
 9606 343e 3301     		.2byte	0x133
 9607 3440 C52C0000 		.4byte	0x2cc5
 9608 3444 0C       		.byte	0xc
 9609 3445 0A       		.uleb128 0xa
 9610 3446 F6200000 		.4byte	.LASF698
 9611 344a 35       		.byte	0x35
 9612 344b 3901     		.2byte	0x139
 9613 344d DA000000 		.4byte	0xda
 9614 3451 10       		.byte	0x10
 9615 3452 0A       		.uleb128 0xa
 9616 3453 E00B0000 		.4byte	.LASF699
 9617 3457 35       		.byte	0x35
 9618 3458 3F01     		.2byte	0x13f
 9619 345a DA000000 		.4byte	0xda
 9620 345e 12       		.byte	0x12
 9621 345f 0A       		.uleb128 0xa
 9622 3460 C41F0000 		.4byte	.LASF700
 9623 3464 35       		.byte	0x35
 9624 3465 4401     		.2byte	0x144
 9625 3467 94340000 		.4byte	0x3494
 9626 346b 14       		.byte	0x14
 9627 346c 0A       		.uleb128 0xa
 9628 346d 430D0000 		.4byte	.LASF701
 9629 3471 35       		.byte	0x35
 9630 3472 4901     		.2byte	0x149
 9631 3474 9A340000 		.4byte	0x349a
 9632 3478 18       		.byte	0x18
 9633 3479 0A       		.uleb128 0xa
 9634 347a 5B100000 		.4byte	.LASF702
 9635 347e 35       		.byte	0x35
 9636 347f 5001     		.2byte	0x150
 9637 3481 DA000000 		.4byte	0xda
 9638 3485 1C       		.byte	0x1c
 9639 3486 0A       		.uleb128 0xa
 9640 3487 FC1E0000 		.4byte	.LASF703
 9641 348b 35       		.byte	0x35
 9642 348c 5601     		.2byte	0x156
 9643 348e D5120000 		.4byte	0x12d5
 9644 3492 20       		.byte	0x20
 9645 3493 00       		.byte	0
 9646 3494 0B       		.uleb128 0xb
 9647 3495 04       		.byte	0x4
 9648 3496 54330000 		.4byte	0x3354
 9649 349a 0B       		.uleb128 0xb
ARM GAS  C:\Users\mathi\AppData\Local\Temp\ccRLxsF0.s 			page 172


 9650 349b 04       		.byte	0x4
 9651 349c FC330000 		.4byte	0x33fc
 9652 34a0 1A       		.uleb128 0x1a
 9653 34a1 121B0000 		.4byte	.LASF704
 9654 34a5 35       		.byte	0x35
 9655 34a6 5701     		.2byte	0x157
 9656 34a8 08340000 		.4byte	0x3408
 9657 34ac 05       		.uleb128 0x5
 9658 34ad A0340000 		.4byte	0x34a0
 9659 34b1 19       		.uleb128 0x19
 9660 34b2 10       		.byte	0x10
 9661 34b3 35       		.byte	0x35
 9662 34b4 5C01     		.2byte	0x15c
 9663 34b6 EF340000 		.4byte	0x34ef
 9664 34ba 0A       		.uleb128 0xa
 9665 34bb 47050000 		.4byte	.LASF705
 9666 34bf 35       		.byte	0x35
 9667 34c0 6101     		.2byte	0x161
 9668 34c2 E72C0000 		.4byte	0x2ce7
 9669 34c6 00       		.byte	0
 9670 34c7 0A       		.uleb128 0xa
 9671 34c8 451E0000 		.4byte	.LASF706
 9672 34cc 35       		.byte	0x35
 9673 34cd 6601     		.2byte	0x166
 9674 34cf 2A2D0000 		.4byte	0x2d2a
 9675 34d3 04       		.byte	0x4
 9676 34d4 0A       		.uleb128 0xa
 9677 34d5 C6100000 		.4byte	.LASF707
 9678 34d9 35       		.byte	0x35
 9679 34da 6C01     		.2byte	0x16c
 9680 34dc 092D0000 		.4byte	0x2d09
 9681 34e0 08       		.byte	0x8
 9682 34e1 0A       		.uleb128 0xa
 9683 34e2 D0020000 		.4byte	.LASF708
 9684 34e6 35       		.byte	0x35
 9685 34e7 7001     		.2byte	0x170
 9686 34e9 A22C0000 		.4byte	0x2ca2
 9687 34ed 0C       		.byte	0xc
 9688 34ee 00       		.byte	0
 9689 34ef 1A       		.uleb128 0x1a
 9690 34f0 FC0F0000 		.4byte	.LASF709
 9691 34f4 35       		.byte	0x35
 9692 34f5 7201     		.2byte	0x172
 9693 34f7 B1340000 		.4byte	0x34b1
 9694 34fb 05       		.uleb128 0x5
 9695 34fc EF340000 		.4byte	0x34ef
 9696 3500 0B       		.uleb128 0xb
 9697 3501 04       		.byte	0x4
 9698 3502 FB340000 		.4byte	0x34fb
 9699 3506 13       		.uleb128 0x13
 9700 3507 16350000 		.4byte	0x3516
 9701 350b 16350000 		.4byte	0x3516
 9702 350f 14       		.uleb128 0x14
 9703 3510 25000000 		.4byte	0x25
 9704 3514 03       		.byte	0x3
 9705 3515 00       		.byte	0
 9706 3516 0B       		.uleb128 0xb
ARM GAS  C:\Users\mathi\AppData\Local\Temp\ccRLxsF0.s 			page 173


 9707 3517 04       		.byte	0x4
 9708 3518 AC340000 		.4byte	0x34ac
 9709 351c 13       		.uleb128 0x13
 9710 351d BA030000 		.4byte	0x3ba
 9711 3521 2C350000 		.4byte	0x352c
 9712 3525 14       		.uleb128 0x14
 9713 3526 25000000 		.4byte	0x25
 9714 352a 02       		.byte	0x2
 9715 352b 00       		.byte	0
 9716 352c 0B       		.uleb128 0xb
 9717 352d 04       		.byte	0x4
 9718 352e 78320000 		.4byte	0x3278
 9719 3532 0B       		.uleb128 0xb
 9720 3533 04       		.byte	0x4
 9721 3534 BB320000 		.4byte	0x32bb
 9722 3538 13       		.uleb128 0x13
 9723 3539 E10C0000 		.4byte	0xce1
 9724 353d 48350000 		.4byte	0x3548
 9725 3541 14       		.uleb128 0x14
 9726 3542 25000000 		.4byte	0x25
 9727 3546 3E       		.byte	0x3e
 9728 3547 00       		.byte	0
 9729 3548 15       		.uleb128 0x15
 9730 3549 A8000000 		.4byte	.LASF710
 9731 354d 35       		.byte	0x35
 9732 354e 0602     		.2byte	0x206
 9733 3550 6E2A0000 		.4byte	0x2a6e
 9734 3554 07       		.uleb128 0x7
 9735 3555 63050000 		.4byte	.LASF711
 9736 3559 10       		.byte	0x10
 9737 355a 37       		.byte	0x37
 9738 355b 3B       		.byte	0x3b
 9739 355c 91350000 		.4byte	0x3591
 9740 3560 08       		.uleb128 0x8
 9741 3561 691D0000 		.4byte	.LASF712
 9742 3565 37       		.byte	0x37
 9743 3566 3C       		.byte	0x3c
 9744 3567 62100000 		.4byte	0x1062
 9745 356b 00       		.byte	0
 9746 356c 08       		.uleb128 0x8
 9747 356d 86070000 		.4byte	.LASF564
 9748 3571 37       		.byte	0x37
 9749 3572 3D       		.byte	0x3d
 9750 3573 97350000 		.4byte	0x3597
 9751 3577 04       		.byte	0x4
 9752 3578 08       		.uleb128 0x8
 9753 3579 D7020000 		.4byte	.LASF713
 9754 357d 37       		.byte	0x37
 9755 357e 3E       		.byte	0x3e
 9756 357f 97350000 		.4byte	0x3597
 9757 3583 08       		.byte	0x8
 9758 3584 08       		.uleb128 0x8
 9759 3585 B5170000 		.4byte	.LASF714
 9760 3589 37       		.byte	0x37
 9761 358a 3F       		.byte	0x3f
 9762 358b 97350000 		.4byte	0x3597
 9763 358f 0C       		.byte	0xc
ARM GAS  C:\Users\mathi\AppData\Local\Temp\ccRLxsF0.s 			page 174


 9764 3590 00       		.byte	0
 9765 3591 05       		.uleb128 0x5
 9766 3592 54350000 		.4byte	0x3554
 9767 3596 2C       		.uleb128 0x2c
 9768 3597 0B       		.uleb128 0xb
 9769 3598 04       		.byte	0x4
 9770 3599 96350000 		.4byte	0x3596
 9771 359d 1C       		.uleb128 0x1c
 9772 359e D809     		.2byte	0x9d8
 9773 35a0 37       		.byte	0x37
 9774 35a1 44       		.byte	0x44
 9775 35a2 E2350000 		.4byte	0x35e2
 9776 35a6 18       		.uleb128 0x18
 9777 35a7 543000   		.ascii	"T0\000"
 9778 35aa 37       		.byte	0x37
 9779 35ab 45       		.byte	0x45
 9780 35ac 38350000 		.4byte	0x3538
 9781 35b0 00       		.byte	0
 9782 35b1 28       		.uleb128 0x28
 9783 35b2 543100   		.ascii	"T1\000"
 9784 35b5 37       		.byte	0x37
 9785 35b6 46       		.byte	0x46
 9786 35b7 38350000 		.4byte	0x3538
 9787 35bb F801     		.2byte	0x1f8
 9788 35bd 28       		.uleb128 0x28
 9789 35be 543200   		.ascii	"T2\000"
 9790 35c1 37       		.byte	0x37
 9791 35c2 47       		.byte	0x47
 9792 35c3 38350000 		.4byte	0x3538
 9793 35c7 F003     		.2byte	0x3f0
 9794 35c9 28       		.uleb128 0x28
 9795 35ca 543300   		.ascii	"T3\000"
 9796 35cd 37       		.byte	0x37
 9797 35ce 48       		.byte	0x48
 9798 35cf 38350000 		.4byte	0x3538
 9799 35d3 E805     		.2byte	0x5e8
 9800 35d5 28       		.uleb128 0x28
 9801 35d6 543400   		.ascii	"T4\000"
 9802 35d9 37       		.byte	0x37
 9803 35da 49       		.byte	0x49
 9804 35db 38350000 		.4byte	0x3538
 9805 35df E007     		.2byte	0x7e0
 9806 35e1 00       		.byte	0
 9807 35e2 2D       		.uleb128 0x2d
 9808 35e3 F3190000 		.4byte	.LASF797
 9809 35e7 D809     		.2byte	0x9d8
 9810 35e9 37       		.byte	0x37
 9811 35ea 43       		.byte	0x43
 9812 35eb 05360000 		.4byte	0x3605
 9813 35ef 23       		.uleb128 0x23
 9814 35f0 776100   		.ascii	"wa\000"
 9815 35f3 37       		.byte	0x37
 9816 35f4 4A       		.byte	0x4a
 9817 35f5 9D350000 		.4byte	0x359d
 9818 35f9 2A       		.uleb128 0x2a
 9819 35fa D1180000 		.4byte	.LASF715
 9820 35fe 37       		.byte	0x37
ARM GAS  C:\Users\mathi\AppData\Local\Temp\ccRLxsF0.s 			page 175


 9821 35ff 4B       		.byte	0x4b
 9822 3600 05360000 		.4byte	0x3605
 9823 3604 00       		.byte	0
 9824 3605 13       		.uleb128 0x13
 9825 3606 BF000000 		.4byte	0xbf
 9826 360a 16360000 		.4byte	0x3616
 9827 360e 29       		.uleb128 0x29
 9828 360f 25000000 		.4byte	0x25
 9829 3613 D709     		.2byte	0x9d7
 9830 3615 00       		.byte	0
 9831 3616 16       		.uleb128 0x16
 9832 3617 8C130000 		.4byte	.LASF716
 9833 361b 37       		.byte	0x37
 9834 361c 4F       		.byte	0x4f
 9835 361d 59150000 		.4byte	0x1559
 9836 3621 13       		.uleb128 0x13
 9837 3622 DD020000 		.4byte	0x2dd
 9838 3626 31360000 		.4byte	0x3631
 9839 362a 14       		.uleb128 0x14
 9840 362b 25000000 		.4byte	0x25
 9841 362f 04       		.byte	0x4
 9842 3630 00       		.byte	0
 9843 3631 16       		.uleb128 0x16
 9844 3632 B1080000 		.4byte	.LASF717
 9845 3636 37       		.byte	0x37
 9846 3637 A7       		.byte	0xa7
 9847 3638 21360000 		.4byte	0x3621
 9848 363c 16       		.uleb128 0x16
 9849 363d DD180000 		.4byte	.LASF718
 9850 3641 37       		.byte	0x37
 9851 3642 A8       		.byte	0xa8
 9852 3643 E2350000 		.4byte	0x35e2
 9853 3647 13       		.uleb128 0x13
 9854 3648 BC030000 		.4byte	0x3bc
 9855 364c 52360000 		.4byte	0x3652
 9856 3650 2E       		.uleb128 0x2e
 9857 3651 00       		.byte	0
 9858 3652 05       		.uleb128 0x5
 9859 3653 47360000 		.4byte	0x3647
 9860 3657 2F       		.uleb128 0x2f
 9861 3658 776100   		.ascii	"wa\000"
 9862 365b 37       		.byte	0x37
 9863 365c A9       		.byte	0xa9
 9864 365d 52360000 		.4byte	0x3652
 9865 3661 16       		.uleb128 0x16
 9866 3662 B51B0000 		.4byte	.LASF719
 9867 3666 37       		.byte	0x37
 9868 3667 AA       		.byte	0xaa
 9869 3668 59150000 		.4byte	0x1559
 9870 366c 13       		.uleb128 0x13
 9871 366d 82360000 		.4byte	0x3682
 9872 3671 77360000 		.4byte	0x3677
 9873 3675 2E       		.uleb128 0x2e
 9874 3676 00       		.byte	0
 9875 3677 05       		.uleb128 0x5
 9876 3678 6C360000 		.4byte	0x366c
 9877 367c 0B       		.uleb128 0xb
ARM GAS  C:\Users\mathi\AppData\Local\Temp\ccRLxsF0.s 			page 176


 9878 367d 04       		.byte	0x4
 9879 367e 91350000 		.4byte	0x3591
 9880 3682 05       		.uleb128 0x5
 9881 3683 7C360000 		.4byte	0x367c
 9882 3687 16       		.uleb128 0x16
 9883 3688 B8030000 		.4byte	.LASF720
 9884 368c 38       		.byte	0x38
 9885 368d 14       		.byte	0x14
 9886 368e 77360000 		.4byte	0x3677
 9887 3692 16       		.uleb128 0x16
 9888 3693 660B0000 		.4byte	.LASF721
 9889 3697 39       		.byte	0x39
 9890 3698 14       		.byte	0x14
 9891 3699 77360000 		.4byte	0x3677
 9892 369d 16       		.uleb128 0x16
 9893 369e BE190000 		.4byte	.LASF722
 9894 36a2 3A       		.byte	0x3a
 9895 36a3 14       		.byte	0x14
 9896 36a4 77360000 		.4byte	0x3677
 9897 36a8 16       		.uleb128 0x16
 9898 36a9 780F0000 		.4byte	.LASF723
 9899 36ad 3B       		.byte	0x3b
 9900 36ae 14       		.byte	0x14
 9901 36af 77360000 		.4byte	0x3677
 9902 36b3 16       		.uleb128 0x16
 9903 36b4 D30E0000 		.4byte	.LASF724
 9904 36b8 3C       		.byte	0x3c
 9905 36b9 14       		.byte	0x14
 9906 36ba 77360000 		.4byte	0x3677
 9907 36be 16       		.uleb128 0x16
 9908 36bf 60150000 		.4byte	.LASF725
 9909 36c3 3D       		.byte	0x3d
 9910 36c4 14       		.byte	0x14
 9911 36c5 77360000 		.4byte	0x3677
 9912 36c9 16       		.uleb128 0x16
 9913 36ca 86170000 		.4byte	.LASF726
 9914 36ce 3E       		.byte	0x3e
 9915 36cf 14       		.byte	0x14
 9916 36d0 77360000 		.4byte	0x3677
 9917 36d4 16       		.uleb128 0x16
 9918 36d5 A7100000 		.4byte	.LASF727
 9919 36d9 3F       		.byte	0x3f
 9920 36da 14       		.byte	0x14
 9921 36db 77360000 		.4byte	0x3677
 9922 36df 16       		.uleb128 0x16
 9923 36e0 DD150000 		.4byte	.LASF728
 9924 36e4 40       		.byte	0x40
 9925 36e5 14       		.byte	0x14
 9926 36e6 77360000 		.4byte	0x3677
 9927 36ea 16       		.uleb128 0x16
 9928 36eb 06160000 		.4byte	.LASF729
 9929 36ef 41       		.byte	0x41
 9930 36f0 14       		.byte	0x14
 9931 36f1 77360000 		.4byte	0x3677
 9932 36f5 16       		.uleb128 0x16
 9933 36f6 00000000 		.4byte	.LASF730
 9934 36fa 42       		.byte	0x42
ARM GAS  C:\Users\mathi\AppData\Local\Temp\ccRLxsF0.s 			page 177


 9935 36fb 14       		.byte	0x14
 9936 36fc 77360000 		.4byte	0x3677
 9937 3700 16       		.uleb128 0x16
 9938 3701 F2090000 		.4byte	.LASF731
 9939 3705 43       		.byte	0x43
 9940 3706 14       		.byte	0x14
 9941 3707 77360000 		.4byte	0x3677
 9942 370b 13       		.uleb128 0x13
 9943 370c 1B370000 		.4byte	0x371b
 9944 3710 1B370000 		.4byte	0x371b
 9945 3714 14       		.uleb128 0x14
 9946 3715 25000000 		.4byte	0x25
 9947 3719 0C       		.byte	0xc
 9948 371a 00       		.byte	0
 9949 371b 0B       		.uleb128 0xb
 9950 371c 04       		.byte	0x4
 9951 371d 82360000 		.4byte	0x3682
 9952 3721 30       		.uleb128 0x30
 9953 3722 E9090000 		.4byte	.LASF732
 9954 3726 01       		.byte	0x1
 9955 3727 2D       		.byte	0x2d
 9956 3728 0B370000 		.4byte	0x370b
 9957 372c 05       		.uleb128 0x5
 9958 372d 03       		.byte	0x3
 9959 372e 00000000 		.4byte	patterns
 9960 3732 31       		.uleb128 0x31
 9961 3733 16360000 		.4byte	0x3616
 9962 3737 01       		.byte	0x1
 9963 3738 3D       		.byte	0x3d
 9964 3739 05       		.uleb128 0x5
 9965 373a 03       		.byte	0x3
 9966 373b 00000000 		.4byte	test_global_fail
 9967 373f 30       		.uleb128 0x30
 9968 3740 F3020000 		.4byte	.LASF733
 9969 3744 01       		.byte	0x1
 9970 3745 3E       		.byte	0x3e
 9971 3746 59150000 		.4byte	0x1559
 9972 374a 05       		.uleb128 0x5
 9973 374b 03       		.byte	0x3
 9974 374c 00000000 		.4byte	local_fail
 9975 3750 30       		.uleb128 0x30
 9976 3751 D4040000 		.4byte	.LASF734
 9977 3755 01       		.byte	0x1
 9978 3756 3F       		.byte	0x3f
 9979 3757 25000000 		.4byte	0x25
 9980 375b 05       		.uleb128 0x5
 9981 375c 03       		.byte	0x3
 9982 375d 00000000 		.4byte	failpoint
 9983 3761 13       		.uleb128 0x13
 9984 3762 6D100000 		.4byte	0x106d
 9985 3766 71370000 		.4byte	0x3771
 9986 376a 14       		.uleb128 0x14
 9987 376b 25000000 		.4byte	0x25
 9988 376f 0F       		.byte	0xf
 9989 3770 00       		.byte	0
 9990 3771 30       		.uleb128 0x30
 9991 3772 851E0000 		.4byte	.LASF735
ARM GAS  C:\Users\mathi\AppData\Local\Temp\ccRLxsF0.s 			page 178


 9992 3776 01       		.byte	0x1
 9993 3777 40       		.byte	0x40
 9994 3778 61370000 		.4byte	0x3761
 9995 377c 05       		.uleb128 0x5
 9996 377d 03       		.byte	0x3
 9997 377e 00000000 		.4byte	tokens_buffer
 9998 3782 30       		.uleb128 0x30
 9999 3783 8D050000 		.4byte	.LASF736
 10000 3787 01       		.byte	0x1
 10001 3788 41       		.byte	0x41
 10002 3789 93370000 		.4byte	0x3793
 10003 378d 05       		.uleb128 0x5
 10004 378e 03       		.byte	0x3
 10005 378f 00000000 		.4byte	tokp
 10006 3793 0B       		.uleb128 0xb
 10007 3794 04       		.byte	0x4
 10008 3795 6D100000 		.4byte	0x106d
 10009 3799 31       		.uleb128 0x31
 10010 379a 3C360000 		.4byte	0x363c
 10011 379e 01       		.byte	0x1
 10012 379f 47       		.byte	0x47
 10013 37a0 05       		.uleb128 0x5
 10014 37a1 03       		.byte	0x3
 10015 37a2 00000000 		.4byte	test
 10016 37a6 31       		.uleb128 0x31
 10017 37a7 31360000 		.4byte	0x3631
 10018 37ab 01       		.byte	0x1
 10019 37ac 4C       		.byte	0x4c
 10020 37ad 05       		.uleb128 0x5
 10021 37ae 03       		.byte	0x3
 10022 37af 00000000 		.4byte	threads
 10023 37b3 31       		.uleb128 0x31
 10024 37b4 57360000 		.4byte	0x3657
 10025 37b8 01       		.byte	0x1
 10026 37b9 51       		.byte	0x51
 10027 37ba 05       		.uleb128 0x5
 10028 37bb 03       		.byte	0x3
 10029 37bc 00000000 		.4byte	wa
 10030 37c0 32       		.uleb128 0x32
 10031 37c1 63687000 		.ascii	"chp\000"
 10032 37c5 01       		.byte	0x1
 10033 37c6 57       		.byte	0x57
 10034 37c7 D1370000 		.4byte	0x37d1
 10035 37cb 05       		.uleb128 0x5
 10036 37cc 03       		.byte	0x3
 10037 37cd 00000000 		.4byte	chp
 10038 37d1 0B       		.uleb128 0xb
 10039 37d2 04       		.byte	0x4
 10040 37d3 C1130000 		.4byte	0x13c1
 10041 37d7 33       		.uleb128 0x33
 10042 37d8 61360000 		.4byte	0x3661
 10043 37dc 01       		.byte	0x1
 10044 37dd 0501     		.2byte	0x105
 10045 37df 05       		.uleb128 0x5
 10046 37e0 03       		.byte	0x3
 10047 37e1 00000000 		.4byte	test_timer_done
 10048 37e5 34       		.uleb128 0x34
ARM GAS  C:\Users\mathi\AppData\Local\Temp\ccRLxsF0.s 			page 179


 10049 37e6 767400   		.ascii	"vt\000"
 10050 37e9 01       		.byte	0x1
 10051 37ea 0701     		.2byte	0x107
 10052 37ec C1030000 		.4byte	0x3c1
 10053 37f0 05       		.uleb128 0x5
 10054 37f1 03       		.byte	0x3
 10055 37f2 00000000 		.4byte	vt
 10056 37f6 35       		.uleb128 0x35
 10057 37f7 58050000 		.4byte	.LASF739
 10058 37fb 01       		.byte	0x1
 10059 37fc 3C01     		.2byte	0x13c
 10060 37fe 00000000 		.4byte	.LFB274
 10061 3802 C8050000 		.4byte	.LFE274-.LFB274
 10062 3806 01       		.uleb128 0x1
 10063 3807 9C       		.byte	0x9c
 10064 3808 54410000 		.4byte	0x4154
 10065 380c 36       		.uleb128 0x36
 10066 380d 7000     		.ascii	"p\000"
 10067 380f 01       		.byte	0x1
 10068 3810 3C01     		.2byte	0x13c
 10069 3812 BA030000 		.4byte	0x3ba
 10070 3816 00000000 		.4byte	.LLST44
 10071 381a 37       		.uleb128 0x37
 10072 381b 6900     		.ascii	"i\000"
 10073 381d 01       		.byte	0x1
 10074 381e 3D01     		.2byte	0x13d
 10075 3820 2C000000 		.4byte	0x2c
 10076 3824 21000000 		.4byte	.LLST45
 10077 3828 37       		.uleb128 0x37
 10078 3829 6A00     		.ascii	"j\000"
 10079 382b 01       		.byte	0x1
 10080 382c 3D01     		.2byte	0x13d
 10081 382e 2C000000 		.4byte	0x2c
 10082 3832 98000000 		.4byte	.LLST46
 10083 3836 38       		.uleb128 0x38
 10084 3837 4F490000 		.4byte	0x494f
 10085 383b 04000000 		.4byte	.LBB422
 10086 383f 68010000 		.4byte	.Ldebug_ranges0+0x168
 10087 3843 01       		.byte	0x1
 10088 3844 4001     		.2byte	0x140
 10089 3846 75380000 		.4byte	0x3875
 10090 384a 39       		.uleb128 0x39
 10091 384b 5B490000 		.4byte	0x495b
 10092 384f 06       		.uleb128 0x6
 10093 3850 F2       		.byte	0xf2
 10094 3851 094D0000 		.4byte	.Ldebug_info0+19721
 10095 3855 00       		.sleb128 0
 10096 3856 3A       		.uleb128 0x3a
 10097 3857 1C000000 		.4byte	.LVL122
 10098 385b 02       		.uleb128 0x2
 10099 385c 76       		.byte	0x76
 10100 385d 00       		.sleb128 0
 10101 385e 3B       		.uleb128 0x3b
 10102 385f 01       		.uleb128 0x1
 10103 3860 50       		.byte	0x50
 10104 3861 03       		.uleb128 0x3
 10105 3862 F3       		.byte	0xf3
ARM GAS  C:\Users\mathi\AppData\Local\Temp\ccRLxsF0.s 			page 180


 10106 3863 01       		.uleb128 0x1
 10107 3864 50       		.byte	0x50
 10108 3865 3B       		.uleb128 0x3b
 10109 3866 01       		.uleb128 0x1
 10110 3867 51       		.byte	0x51
 10111 3868 05       		.uleb128 0x5
 10112 3869 03       		.byte	0x3
 10113 386a 00000000 		.4byte	.LC0
 10114 386e 3B       		.uleb128 0x3b
 10115 386f 01       		.uleb128 0x1
 10116 3870 52       		.byte	0x52
 10117 3871 01       		.uleb128 0x1
 10118 3872 32       		.byte	0x32
 10119 3873 00       		.byte	0
 10120 3874 00       		.byte	0
 10121 3875 3C       		.uleb128 0x3c
 10122 3876 4F490000 		.4byte	0x494f
 10123 387a 1C000000 		.4byte	.LBB432
 10124 387e 20000000 		.4byte	.LBE432-.LBB432
 10125 3882 01       		.byte	0x1
 10126 3883 4101     		.2byte	0x141
 10127 3885 C0380000 		.4byte	0x38c0
 10128 3889 3D       		.uleb128 0x3d
 10129 388a 5B490000 		.4byte	0x495b
 10130 388e 3E       		.uleb128 0x3e
 10131 388f 67490000 		.4byte	0x4967
 10132 3893 1C000000 		.4byte	.LBB434
 10133 3897 12000000 		.4byte	.LBE434-.LBB434
 10134 389b 01       		.byte	0x1
 10135 389c 7E       		.byte	0x7e
 10136 389d AB380000 		.4byte	0x38ab
 10137 38a1 3F       		.uleb128 0x3f
 10138 38a2 73490000 		.4byte	0x4973
 10139 38a6 DB000000 		.4byte	.LLST47
 10140 38aa 00       		.byte	0
 10141 38ab 40       		.uleb128 0x40
 10142 38ac 3C000000 		.4byte	.LVL127
 10143 38b0 3B       		.uleb128 0x3b
 10144 38b1 01       		.uleb128 0x1
 10145 38b2 51       		.byte	0x51
 10146 38b3 05       		.uleb128 0x5
 10147 38b4 03       		.byte	0x3
 10148 38b5 00000000 		.4byte	.LC0
 10149 38b9 3B       		.uleb128 0x3b
 10150 38ba 01       		.uleb128 0x1
 10151 38bb 52       		.byte	0x52
 10152 38bc 01       		.uleb128 0x1
 10153 38bd 32       		.byte	0x32
 10154 38be 00       		.byte	0
 10155 38bf 00       		.byte	0
 10156 38c0 3C       		.uleb128 0x3c
 10157 38c1 4F490000 		.4byte	0x494f
 10158 38c5 3C000000 		.4byte	.LBB436
 10159 38c9 20000000 		.4byte	.LBE436-.LBB436
 10160 38cd 01       		.byte	0x1
 10161 38ce 4201     		.2byte	0x142
 10162 38d0 0B390000 		.4byte	0x390b
ARM GAS  C:\Users\mathi\AppData\Local\Temp\ccRLxsF0.s 			page 181


 10163 38d4 3D       		.uleb128 0x3d
 10164 38d5 5B490000 		.4byte	0x495b
 10165 38d9 3E       		.uleb128 0x3e
 10166 38da 67490000 		.4byte	0x4967
 10167 38de 3C000000 		.4byte	.LBB438
 10168 38e2 12000000 		.4byte	.LBE438-.LBB438
 10169 38e6 01       		.byte	0x1
 10170 38e7 7E       		.byte	0x7e
 10171 38e8 F6380000 		.4byte	0x38f6
 10172 38ec 3F       		.uleb128 0x3f
 10173 38ed 73490000 		.4byte	0x4973
 10174 38f1 0B010000 		.4byte	.LLST48
 10175 38f5 00       		.byte	0
 10176 38f6 40       		.uleb128 0x40
 10177 38f7 5C000000 		.4byte	.LVL132
 10178 38fb 3B       		.uleb128 0x3b
 10179 38fc 01       		.uleb128 0x1
 10180 38fd 51       		.byte	0x51
 10181 38fe 05       		.uleb128 0x5
 10182 38ff 03       		.byte	0x3
 10183 3900 00000000 		.4byte	.LC0
 10184 3904 3B       		.uleb128 0x3b
 10185 3905 01       		.uleb128 0x1
 10186 3906 52       		.byte	0x52
 10187 3907 01       		.uleb128 0x1
 10188 3908 32       		.byte	0x32
 10189 3909 00       		.byte	0
 10190 390a 00       		.byte	0
 10191 390b 3C       		.uleb128 0x3c
 10192 390c 67490000 		.4byte	0x4967
 10193 3910 5C000000 		.4byte	.LBB440
 10194 3914 14000000 		.4byte	.LBE440-.LBB440
 10195 3918 01       		.byte	0x1
 10196 3919 4301     		.2byte	0x143
 10197 391b 29390000 		.4byte	0x3929
 10198 391f 3F       		.uleb128 0x3f
 10199 3920 73490000 		.4byte	0x4973
 10200 3924 3B010000 		.4byte	.LLST49
 10201 3928 00       		.byte	0
 10202 3929 3C       		.uleb128 0x3c
 10203 392a 4F490000 		.4byte	0x494f
 10204 392e 70000000 		.4byte	.LBB442
 10205 3932 20000000 		.4byte	.LBE442-.LBB442
 10206 3936 01       		.byte	0x1
 10207 3937 4401     		.2byte	0x144
 10208 3939 74390000 		.4byte	0x3974
 10209 393d 3D       		.uleb128 0x3d
 10210 393e 5B490000 		.4byte	0x495b
 10211 3942 3E       		.uleb128 0x3e
 10212 3943 67490000 		.4byte	0x4967
 10213 3947 70000000 		.4byte	.LBB444
 10214 394b 12000000 		.4byte	.LBE444-.LBB444
 10215 394f 01       		.byte	0x1
 10216 3950 7E       		.byte	0x7e
 10217 3951 5F390000 		.4byte	0x395f
 10218 3955 3F       		.uleb128 0x3f
 10219 3956 73490000 		.4byte	0x4973
ARM GAS  C:\Users\mathi\AppData\Local\Temp\ccRLxsF0.s 			page 182


 10220 395a 6B010000 		.4byte	.LLST50
 10221 395e 00       		.byte	0
 10222 395f 40       		.uleb128 0x40
 10223 3960 90000000 		.4byte	.LVL141
 10224 3964 3B       		.uleb128 0x3b
 10225 3965 01       		.uleb128 0x1
 10226 3966 51       		.byte	0x51
 10227 3967 05       		.uleb128 0x5
 10228 3968 03       		.byte	0x3
 10229 3969 00000000 		.4byte	.LC0
 10230 396d 3B       		.uleb128 0x3b
 10231 396e 01       		.uleb128 0x1
 10232 396f 52       		.byte	0x52
 10233 3970 01       		.uleb128 0x1
 10234 3971 32       		.byte	0x32
 10235 3972 00       		.byte	0
 10236 3973 00       		.byte	0
 10237 3974 3C       		.uleb128 0x3c
 10238 3975 67490000 		.4byte	0x4967
 10239 3979 90000000 		.4byte	.LBB446
 10240 397d 14000000 		.4byte	.LBE446-.LBB446
 10241 3981 01       		.byte	0x1
 10242 3982 4501     		.2byte	0x145
 10243 3984 92390000 		.4byte	0x3992
 10244 3988 3F       		.uleb128 0x3f
 10245 3989 73490000 		.4byte	0x4973
 10246 398d 8B010000 		.4byte	.LLST51
 10247 3991 00       		.byte	0
 10248 3992 3C       		.uleb128 0x3c
 10249 3993 4F490000 		.4byte	0x494f
 10250 3997 A4000000 		.4byte	.LBB448
 10251 399b 20000000 		.4byte	.LBE448-.LBB448
 10252 399f 01       		.byte	0x1
 10253 39a0 4601     		.2byte	0x146
 10254 39a2 DD390000 		.4byte	0x39dd
 10255 39a6 3D       		.uleb128 0x3d
 10256 39a7 5B490000 		.4byte	0x495b
 10257 39ab 3E       		.uleb128 0x3e
 10258 39ac 67490000 		.4byte	0x4967
 10259 39b0 A4000000 		.4byte	.LBB450
 10260 39b4 12000000 		.4byte	.LBE450-.LBB450
 10261 39b8 01       		.byte	0x1
 10262 39b9 7E       		.byte	0x7e
 10263 39ba C8390000 		.4byte	0x39c8
 10264 39be 3F       		.uleb128 0x3f
 10265 39bf 73490000 		.4byte	0x4973
 10266 39c3 BB010000 		.4byte	.LLST52
 10267 39c7 00       		.byte	0
 10268 39c8 40       		.uleb128 0x40
 10269 39c9 C4000000 		.4byte	.LVL150
 10270 39cd 3B       		.uleb128 0x3b
 10271 39ce 01       		.uleb128 0x1
 10272 39cf 51       		.byte	0x51
 10273 39d0 05       		.uleb128 0x5
 10274 39d1 03       		.byte	0x3
 10275 39d2 00000000 		.4byte	.LC0
 10276 39d6 3B       		.uleb128 0x3b
ARM GAS  C:\Users\mathi\AppData\Local\Temp\ccRLxsF0.s 			page 183


 10277 39d7 01       		.uleb128 0x1
 10278 39d8 52       		.byte	0x52
 10279 39d9 01       		.uleb128 0x1
 10280 39da 32       		.byte	0x32
 10281 39db 00       		.byte	0
 10282 39dc 00       		.byte	0
 10283 39dd 3C       		.uleb128 0x3c
 10284 39de 67490000 		.4byte	0x4967
 10285 39e2 C4000000 		.4byte	.LBB452
 10286 39e6 14000000 		.4byte	.LBE452-.LBB452
 10287 39ea 01       		.byte	0x1
 10288 39eb 4801     		.2byte	0x148
 10289 39ed FB390000 		.4byte	0x39fb
 10290 39f1 3F       		.uleb128 0x3f
 10291 39f2 73490000 		.4byte	0x4973
 10292 39f6 DB010000 		.4byte	.LLST53
 10293 39fa 00       		.byte	0
 10294 39fb 3C       		.uleb128 0x3c
 10295 39fc 4F490000 		.4byte	0x494f
 10296 3a00 D8000000 		.4byte	.LBB454
 10297 3a04 20000000 		.4byte	.LBE454-.LBB454
 10298 3a08 01       		.byte	0x1
 10299 3a09 4901     		.2byte	0x149
 10300 3a0b 463A0000 		.4byte	0x3a46
 10301 3a0f 3D       		.uleb128 0x3d
 10302 3a10 5B490000 		.4byte	0x495b
 10303 3a14 3E       		.uleb128 0x3e
 10304 3a15 67490000 		.4byte	0x4967
 10305 3a19 D8000000 		.4byte	.LBB456
 10306 3a1d 12000000 		.4byte	.LBE456-.LBB456
 10307 3a21 01       		.byte	0x1
 10308 3a22 7E       		.byte	0x7e
 10309 3a23 313A0000 		.4byte	0x3a31
 10310 3a27 3F       		.uleb128 0x3f
 10311 3a28 73490000 		.4byte	0x4973
 10312 3a2c 0B020000 		.4byte	.LLST54
 10313 3a30 00       		.byte	0
 10314 3a31 40       		.uleb128 0x40
 10315 3a32 F8000000 		.4byte	.LVL159
 10316 3a36 3B       		.uleb128 0x3b
 10317 3a37 01       		.uleb128 0x1
 10318 3a38 51       		.byte	0x51
 10319 3a39 05       		.uleb128 0x5
 10320 3a3a 03       		.byte	0x3
 10321 3a3b 00000000 		.4byte	.LC0
 10322 3a3f 3B       		.uleb128 0x3b
 10323 3a40 01       		.uleb128 0x1
 10324 3a41 52       		.byte	0x52
 10325 3a42 01       		.uleb128 0x1
 10326 3a43 32       		.byte	0x32
 10327 3a44 00       		.byte	0
 10328 3a45 00       		.byte	0
 10329 3a46 3C       		.uleb128 0x3c
 10330 3a47 67490000 		.4byte	0x4967
 10331 3a4b F8000000 		.4byte	.LBB458
 10332 3a4f 14000000 		.4byte	.LBE458-.LBB458
 10333 3a53 01       		.byte	0x1
ARM GAS  C:\Users\mathi\AppData\Local\Temp\ccRLxsF0.s 			page 184


 10334 3a54 4B01     		.2byte	0x14b
 10335 3a56 643A0000 		.4byte	0x3a64
 10336 3a5a 3F       		.uleb128 0x3f
 10337 3a5b 73490000 		.4byte	0x4973
 10338 3a5f 2B020000 		.4byte	.LLST55
 10339 3a63 00       		.byte	0
 10340 3a64 3C       		.uleb128 0x3c
 10341 3a65 4F490000 		.4byte	0x494f
 10342 3a69 0C010000 		.4byte	.LBB460
 10343 3a6d 20000000 		.4byte	.LBE460-.LBB460
 10344 3a71 01       		.byte	0x1
 10345 3a72 4C01     		.2byte	0x14c
 10346 3a74 AF3A0000 		.4byte	0x3aaf
 10347 3a78 3D       		.uleb128 0x3d
 10348 3a79 5B490000 		.4byte	0x495b
 10349 3a7d 3E       		.uleb128 0x3e
 10350 3a7e 67490000 		.4byte	0x4967
 10351 3a82 0C010000 		.4byte	.LBB462
 10352 3a86 12000000 		.4byte	.LBE462-.LBB462
 10353 3a8a 01       		.byte	0x1
 10354 3a8b 7E       		.byte	0x7e
 10355 3a8c 9A3A0000 		.4byte	0x3a9a
 10356 3a90 3F       		.uleb128 0x3f
 10357 3a91 73490000 		.4byte	0x4973
 10358 3a95 5B020000 		.4byte	.LLST56
 10359 3a99 00       		.byte	0
 10360 3a9a 40       		.uleb128 0x40
 10361 3a9b 2C010000 		.4byte	.LVL168
 10362 3a9f 3B       		.uleb128 0x3b
 10363 3aa0 01       		.uleb128 0x1
 10364 3aa1 51       		.byte	0x51
 10365 3aa2 05       		.uleb128 0x5
 10366 3aa3 03       		.byte	0x3
 10367 3aa4 00000000 		.4byte	.LC0
 10368 3aa8 3B       		.uleb128 0x3b
 10369 3aa9 01       		.uleb128 0x1
 10370 3aaa 52       		.byte	0x52
 10371 3aab 01       		.uleb128 0x1
 10372 3aac 32       		.byte	0x32
 10373 3aad 00       		.byte	0
 10374 3aae 00       		.byte	0
 10375 3aaf 3C       		.uleb128 0x3c
 10376 3ab0 67490000 		.4byte	0x4967
 10377 3ab4 2C010000 		.4byte	.LBB464
 10378 3ab8 14000000 		.4byte	.LBE464-.LBB464
 10379 3abc 01       		.byte	0x1
 10380 3abd 4E01     		.2byte	0x14e
 10381 3abf CD3A0000 		.4byte	0x3acd
 10382 3ac3 3F       		.uleb128 0x3f
 10383 3ac4 73490000 		.4byte	0x4973
 10384 3ac8 7B020000 		.4byte	.LLST57
 10385 3acc 00       		.byte	0
 10386 3acd 3C       		.uleb128 0x3c
 10387 3ace 4F490000 		.4byte	0x494f
 10388 3ad2 40010000 		.4byte	.LBB466
 10389 3ad6 20000000 		.4byte	.LBE466-.LBB466
 10390 3ada 01       		.byte	0x1
ARM GAS  C:\Users\mathi\AppData\Local\Temp\ccRLxsF0.s 			page 185


 10391 3adb 4F01     		.2byte	0x14f
 10392 3add 183B0000 		.4byte	0x3b18
 10393 3ae1 3D       		.uleb128 0x3d
 10394 3ae2 5B490000 		.4byte	0x495b
 10395 3ae6 3E       		.uleb128 0x3e
 10396 3ae7 67490000 		.4byte	0x4967
 10397 3aeb 40010000 		.4byte	.LBB468
 10398 3aef 12000000 		.4byte	.LBE468-.LBB468
 10399 3af3 01       		.byte	0x1
 10400 3af4 7E       		.byte	0x7e
 10401 3af5 033B0000 		.4byte	0x3b03
 10402 3af9 3F       		.uleb128 0x3f
 10403 3afa 73490000 		.4byte	0x4973
 10404 3afe AB020000 		.4byte	.LLST58
 10405 3b02 00       		.byte	0
 10406 3b03 40       		.uleb128 0x40
 10407 3b04 60010000 		.4byte	.LVL177
 10408 3b08 3B       		.uleb128 0x3b
 10409 3b09 01       		.uleb128 0x1
 10410 3b0a 51       		.byte	0x51
 10411 3b0b 05       		.uleb128 0x5
 10412 3b0c 03       		.byte	0x3
 10413 3b0d 00000000 		.4byte	.LC0
 10414 3b11 3B       		.uleb128 0x3b
 10415 3b12 01       		.uleb128 0x1
 10416 3b13 52       		.byte	0x52
 10417 3b14 01       		.uleb128 0x1
 10418 3b15 32       		.byte	0x32
 10419 3b16 00       		.byte	0
 10420 3b17 00       		.byte	0
 10421 3b18 3C       		.uleb128 0x3c
 10422 3b19 67490000 		.4byte	0x4967
 10423 3b1d 60010000 		.4byte	.LBB470
 10424 3b21 14000000 		.4byte	.LBE470-.LBB470
 10425 3b25 01       		.byte	0x1
 10426 3b26 5201     		.2byte	0x152
 10427 3b28 363B0000 		.4byte	0x3b36
 10428 3b2c 3F       		.uleb128 0x3f
 10429 3b2d 73490000 		.4byte	0x4973
 10430 3b31 CB020000 		.4byte	.LLST59
 10431 3b35 00       		.byte	0
 10432 3b36 3C       		.uleb128 0x3c
 10433 3b37 4F490000 		.4byte	0x494f
 10434 3b3b 74010000 		.4byte	.LBB472
 10435 3b3f 20000000 		.4byte	.LBE472-.LBB472
 10436 3b43 01       		.byte	0x1
 10437 3b44 5301     		.2byte	0x153
 10438 3b46 813B0000 		.4byte	0x3b81
 10439 3b4a 3D       		.uleb128 0x3d
 10440 3b4b 5B490000 		.4byte	0x495b
 10441 3b4f 3E       		.uleb128 0x3e
 10442 3b50 67490000 		.4byte	0x4967
 10443 3b54 74010000 		.4byte	.LBB474
 10444 3b58 12000000 		.4byte	.LBE474-.LBB474
 10445 3b5c 01       		.byte	0x1
 10446 3b5d 7E       		.byte	0x7e
 10447 3b5e 6C3B0000 		.4byte	0x3b6c
ARM GAS  C:\Users\mathi\AppData\Local\Temp\ccRLxsF0.s 			page 186


 10448 3b62 3F       		.uleb128 0x3f
 10449 3b63 73490000 		.4byte	0x4973
 10450 3b67 FB020000 		.4byte	.LLST60
 10451 3b6b 00       		.byte	0
 10452 3b6c 40       		.uleb128 0x40
 10453 3b6d 94010000 		.4byte	.LVL186
 10454 3b71 3B       		.uleb128 0x3b
 10455 3b72 01       		.uleb128 0x1
 10456 3b73 51       		.byte	0x51
 10457 3b74 05       		.uleb128 0x5
 10458 3b75 03       		.byte	0x3
 10459 3b76 00000000 		.4byte	.LC0
 10460 3b7a 3B       		.uleb128 0x3b
 10461 3b7b 01       		.uleb128 0x1
 10462 3b7c 52       		.byte	0x52
 10463 3b7d 01       		.uleb128 0x1
 10464 3b7e 32       		.byte	0x32
 10465 3b7f 00       		.byte	0
 10466 3b80 00       		.byte	0
 10467 3b81 3C       		.uleb128 0x3c
 10468 3b82 67490000 		.4byte	0x4967
 10469 3b86 94010000 		.4byte	.LBB476
 10470 3b8a 14000000 		.4byte	.LBE476-.LBB476
 10471 3b8e 01       		.byte	0x1
 10472 3b8f 5601     		.2byte	0x156
 10473 3b91 9F3B0000 		.4byte	0x3b9f
 10474 3b95 3F       		.uleb128 0x3f
 10475 3b96 73490000 		.4byte	0x4973
 10476 3b9a 1B030000 		.4byte	.LLST61
 10477 3b9e 00       		.byte	0
 10478 3b9f 3C       		.uleb128 0x3c
 10479 3ba0 4F490000 		.4byte	0x494f
 10480 3ba4 A8010000 		.4byte	.LBB478
 10481 3ba8 20000000 		.4byte	.LBE478-.LBB478
 10482 3bac 01       		.byte	0x1
 10483 3bad 5701     		.2byte	0x157
 10484 3baf EA3B0000 		.4byte	0x3bea
 10485 3bb3 3D       		.uleb128 0x3d
 10486 3bb4 5B490000 		.4byte	0x495b
 10487 3bb8 3E       		.uleb128 0x3e
 10488 3bb9 67490000 		.4byte	0x4967
 10489 3bbd A8010000 		.4byte	.LBB480
 10490 3bc1 12000000 		.4byte	.LBE480-.LBB480
 10491 3bc5 01       		.byte	0x1
 10492 3bc6 7E       		.byte	0x7e
 10493 3bc7 D53B0000 		.4byte	0x3bd5
 10494 3bcb 3F       		.uleb128 0x3f
 10495 3bcc 73490000 		.4byte	0x4973
 10496 3bd0 4B030000 		.4byte	.LLST62
 10497 3bd4 00       		.byte	0
 10498 3bd5 40       		.uleb128 0x40
 10499 3bd6 C8010000 		.4byte	.LVL195
 10500 3bda 3B       		.uleb128 0x3b
 10501 3bdb 01       		.uleb128 0x1
 10502 3bdc 51       		.byte	0x51
 10503 3bdd 05       		.uleb128 0x5
 10504 3bde 03       		.byte	0x3
ARM GAS  C:\Users\mathi\AppData\Local\Temp\ccRLxsF0.s 			page 187


 10505 3bdf 00000000 		.4byte	.LC0
 10506 3be3 3B       		.uleb128 0x3b
 10507 3be4 01       		.uleb128 0x1
 10508 3be5 52       		.byte	0x52
 10509 3be6 01       		.uleb128 0x1
 10510 3be7 32       		.byte	0x32
 10511 3be8 00       		.byte	0
 10512 3be9 00       		.byte	0
 10513 3bea 38       		.uleb128 0x38
 10514 3beb 67490000 		.4byte	0x4967
 10515 3bef C8010000 		.4byte	.LBB482
 10516 3bf3 98010000 		.4byte	.Ldebug_ranges0+0x198
 10517 3bf7 01       		.byte	0x1
 10518 3bf8 5A01     		.2byte	0x15a
 10519 3bfa 083C0000 		.4byte	0x3c08
 10520 3bfe 3F       		.uleb128 0x3f
 10521 3bff 73490000 		.4byte	0x4973
 10522 3c03 6B030000 		.4byte	.LLST63
 10523 3c07 00       		.byte	0
 10524 3c08 38       		.uleb128 0x38
 10525 3c09 4F490000 		.4byte	0x494f
 10526 3c0d DA010000 		.4byte	.LBB485
 10527 3c11 B0010000 		.4byte	.Ldebug_ranges0+0x1b0
 10528 3c15 01       		.byte	0x1
 10529 3c16 5B01     		.2byte	0x15b
 10530 3c18 533C0000 		.4byte	0x3c53
 10531 3c1c 3D       		.uleb128 0x3d
 10532 3c1d 5B490000 		.4byte	0x495b
 10533 3c21 41       		.uleb128 0x41
 10534 3c22 67490000 		.4byte	0x4967
 10535 3c26 DA010000 		.4byte	.LBB487
 10536 3c2a D0010000 		.4byte	.Ldebug_ranges0+0x1d0
 10537 3c2e 01       		.byte	0x1
 10538 3c2f 7E       		.byte	0x7e
 10539 3c30 3E3C0000 		.4byte	0x3c3e
 10540 3c34 3F       		.uleb128 0x3f
 10541 3c35 73490000 		.4byte	0x4973
 10542 3c39 9B030000 		.4byte	.LLST64
 10543 3c3d 00       		.byte	0
 10544 3c3e 40       		.uleb128 0x40
 10545 3c3f 06020000 		.4byte	.LVL204
 10546 3c43 3B       		.uleb128 0x3b
 10547 3c44 01       		.uleb128 0x1
 10548 3c45 51       		.byte	0x51
 10549 3c46 05       		.uleb128 0x5
 10550 3c47 03       		.byte	0x3
 10551 3c48 00000000 		.4byte	.LC0
 10552 3c4c 3B       		.uleb128 0x3b
 10553 3c4d 01       		.uleb128 0x1
 10554 3c4e 52       		.byte	0x52
 10555 3c4f 01       		.uleb128 0x1
 10556 3c50 32       		.byte	0x32
 10557 3c51 00       		.byte	0
 10558 3c52 00       		.byte	0
 10559 3c53 3C       		.uleb128 0x3c
 10560 3c54 4F490000 		.4byte	0x494f
 10561 3c58 06020000 		.4byte	.LBB496
ARM GAS  C:\Users\mathi\AppData\Local\Temp\ccRLxsF0.s 			page 188


 10562 3c5c 0C000000 		.4byte	.LBE496-.LBB496
 10563 3c60 01       		.byte	0x1
 10564 3c61 5D01     		.2byte	0x15d
 10565 3c63 813C0000 		.4byte	0x3c81
 10566 3c67 3D       		.uleb128 0x3d
 10567 3c68 5B490000 		.4byte	0x495b
 10568 3c6c 40       		.uleb128 0x40
 10569 3c6d 12020000 		.4byte	.LVL205
 10570 3c71 3B       		.uleb128 0x3b
 10571 3c72 01       		.uleb128 0x1
 10572 3c73 51       		.byte	0x51
 10573 3c74 05       		.uleb128 0x5
 10574 3c75 03       		.byte	0x3
 10575 3c76 00000000 		.4byte	.LC0
 10576 3c7a 3B       		.uleb128 0x3b
 10577 3c7b 01       		.uleb128 0x1
 10578 3c7c 52       		.byte	0x52
 10579 3c7d 01       		.uleb128 0x1
 10580 3c7e 32       		.byte	0x32
 10581 3c7f 00       		.byte	0
 10582 3c80 00       		.byte	0
 10583 3c81 38       		.uleb128 0x38
 10584 3c82 7F490000 		.4byte	0x497f
 10585 3c86 1A020000 		.4byte	.LBB498
 10586 3c8a E8010000 		.4byte	.Ldebug_ranges0+0x1e8
 10587 3c8e 01       		.byte	0x1
 10588 3c8f 6601     		.2byte	0x166
 10589 3c91 D93C0000 		.4byte	0x3cd9
 10590 3c95 3F       		.uleb128 0x3f
 10591 3c96 8B490000 		.4byte	0x498b
 10592 3c9a BB030000 		.4byte	.LLST65
 10593 3c9e 42       		.uleb128 0x42
 10594 3c9f E8010000 		.4byte	.Ldebug_ranges0+0x1e8
 10595 3ca3 43       		.uleb128 0x43
 10596 3ca4 8D4B0000 		.4byte	0x4b8d
 10597 3ca8 43       		.uleb128 0x43
 10598 3ca9 924B0000 		.4byte	0x4b92
 10599 3cad 44       		.uleb128 0x44
 10600 3cae 7F490000 		.4byte	0x497f
 10601 3cb2 E8010000 		.4byte	.Ldebug_ranges0+0x1e8
 10602 3cb6 3F       		.uleb128 0x3f
 10603 3cb7 8B490000 		.4byte	0x498b
 10604 3cbb F5030000 		.4byte	.LLST66
 10605 3cbf 42       		.uleb128 0x42
 10606 3cc0 E8010000 		.4byte	.Ldebug_ranges0+0x1e8
 10607 3cc4 45       		.uleb128 0x45
 10608 3cc5 8D4B0000 		.4byte	0x4b8d
 10609 3cc9 02       		.uleb128 0x2
 10610 3cca 91       		.byte	0x91
 10611 3ccb 44       		.sleb128 -60
 10612 3ccc 46       		.uleb128 0x46
 10613 3ccd 924B0000 		.4byte	0x4b92
 10614 3cd1 65040000 		.4byte	.LLST67
 10615 3cd5 00       		.byte	0
 10616 3cd6 00       		.byte	0
 10617 3cd7 00       		.byte	0
 10618 3cd8 00       		.byte	0
ARM GAS  C:\Users\mathi\AppData\Local\Temp\ccRLxsF0.s 			page 189


 10619 3cd9 3C       		.uleb128 0x3c
 10620 3cda 54410000 		.4byte	0x4154
 10621 3cde 3A020000 		.4byte	.LBB508
 10622 3ce2 1C000000 		.4byte	.LBE508-.LBB508
 10623 3ce6 01       		.byte	0x1
 10624 3ce7 6401     		.2byte	0x164
 10625 3ce9 213D0000 		.4byte	0x3d21
 10626 3ced 47       		.uleb128 0x47
 10627 3cee 3A020000 		.4byte	.LBB509
 10628 3cf2 1C000000 		.4byte	.LBE509-.LBB509
 10629 3cf6 43       		.uleb128 0x43
 10630 3cf7 61410000 		.4byte	0x4161
 10631 3cfb 48       		.uleb128 0x48
 10632 3cfc 44020000 		.4byte	.LVL210
 10633 3d00 0B3D0000 		.4byte	0x3d0b
 10634 3d04 3B       		.uleb128 0x3b
 10635 3d05 01       		.uleb128 0x1
 10636 3d06 51       		.byte	0x51
 10637 3d07 02       		.uleb128 0x2
 10638 3d08 08       		.byte	0x8
 10639 3d09 2D       		.byte	0x2d
 10640 3d0a 00       		.byte	0
 10641 3d0b 40       		.uleb128 0x40
 10642 3d0c 56020000 		.4byte	.LVL211
 10643 3d10 3B       		.uleb128 0x3b
 10644 3d11 01       		.uleb128 0x1
 10645 3d12 51       		.byte	0x51
 10646 3d13 05       		.uleb128 0x5
 10647 3d14 03       		.byte	0x3
 10648 3d15 00000000 		.4byte	.LC0
 10649 3d19 3B       		.uleb128 0x3b
 10650 3d1a 01       		.uleb128 0x1
 10651 3d1b 52       		.byte	0x52
 10652 3d1c 01       		.uleb128 0x1
 10653 3d1d 32       		.byte	0x32
 10654 3d1e 00       		.byte	0
 10655 3d1f 00       		.byte	0
 10656 3d20 00       		.byte	0
 10657 3d21 3C       		.uleb128 0x3c
 10658 3d22 67490000 		.4byte	0x4967
 10659 3d26 56020000 		.4byte	.LBB510
 10660 3d2a 7E000000 		.4byte	.LBE510-.LBB510
 10661 3d2e 01       		.byte	0x1
 10662 3d2f 6501     		.2byte	0x165
 10663 3d31 3F3D0000 		.4byte	0x3d3f
 10664 3d35 3F       		.uleb128 0x3f
 10665 3d36 73490000 		.4byte	0x4973
 10666 3d3a C2040000 		.4byte	.LLST68
 10667 3d3e 00       		.byte	0
 10668 3d3f 38       		.uleb128 0x38
 10669 3d40 67490000 		.4byte	0x4967
 10670 3d44 06030000 		.4byte	.LBB513
 10671 3d48 08020000 		.4byte	.Ldebug_ranges0+0x208
 10672 3d4c 01       		.byte	0x1
 10673 3d4d 6701     		.2byte	0x167
 10674 3d4f 693D0000 		.4byte	0x3d69
 10675 3d53 3F       		.uleb128 0x3f
ARM GAS  C:\Users\mathi\AppData\Local\Temp\ccRLxsF0.s 			page 190


 10676 3d54 73490000 		.4byte	0x4973
 10677 3d58 F2040000 		.4byte	.LLST69
 10678 3d5c 40       		.uleb128 0x40
 10679 3d5d 12030000 		.4byte	.LVL225
 10680 3d61 3B       		.uleb128 0x3b
 10681 3d62 01       		.uleb128 0x1
 10682 3d63 51       		.byte	0x51
 10683 3d64 02       		.uleb128 0x2
 10684 3d65 08       		.byte	0x8
 10685 3d66 2E       		.byte	0x2e
 10686 3d67 00       		.byte	0
 10687 3d68 00       		.byte	0
 10688 3d69 38       		.uleb128 0x38
 10689 3d6a 7F490000 		.4byte	0x497f
 10690 3d6e 12030000 		.4byte	.LBB517
 10691 3d72 20020000 		.4byte	.Ldebug_ranges0+0x220
 10692 3d76 01       		.byte	0x1
 10693 3d77 6801     		.2byte	0x168
 10694 3d79 C13D0000 		.4byte	0x3dc1
 10695 3d7d 3F       		.uleb128 0x3f
 10696 3d7e 8B490000 		.4byte	0x498b
 10697 3d82 0A050000 		.4byte	.LLST70
 10698 3d86 42       		.uleb128 0x42
 10699 3d87 20020000 		.4byte	.Ldebug_ranges0+0x220
 10700 3d8b 43       		.uleb128 0x43
 10701 3d8c 8D4B0000 		.4byte	0x4b8d
 10702 3d90 43       		.uleb128 0x43
 10703 3d91 924B0000 		.4byte	0x4b92
 10704 3d95 44       		.uleb128 0x44
 10705 3d96 7F490000 		.4byte	0x497f
 10706 3d9a 20020000 		.4byte	.Ldebug_ranges0+0x220
 10707 3d9e 3F       		.uleb128 0x3f
 10708 3d9f 8B490000 		.4byte	0x498b
 10709 3da3 28050000 		.4byte	.LLST71
 10710 3da7 42       		.uleb128 0x42
 10711 3da8 20020000 		.4byte	.Ldebug_ranges0+0x220
 10712 3dac 45       		.uleb128 0x45
 10713 3dad 8D4B0000 		.4byte	0x4b8d
 10714 3db1 02       		.uleb128 0x2
 10715 3db2 91       		.byte	0x91
 10716 3db3 44       		.sleb128 -60
 10717 3db4 46       		.uleb128 0x46
 10718 3db5 924B0000 		.4byte	0x4b92
 10719 3db9 46050000 		.4byte	.LLST72
 10720 3dbd 00       		.byte	0
 10721 3dbe 00       		.byte	0
 10722 3dbf 00       		.byte	0
 10723 3dc0 00       		.byte	0
 10724 3dc1 3C       		.uleb128 0x3c
 10725 3dc2 67490000 		.4byte	0x4967
 10726 3dc6 4A030000 		.4byte	.LBB525
 10727 3dca 12000000 		.4byte	.LBE525-.LBB525
 10728 3dce 01       		.byte	0x1
 10729 3dcf 6901     		.2byte	0x169
 10730 3dd1 DF3D0000 		.4byte	0x3ddf
 10731 3dd5 3F       		.uleb128 0x3f
 10732 3dd6 73490000 		.4byte	0x4973
ARM GAS  C:\Users\mathi\AppData\Local\Temp\ccRLxsF0.s 			page 191


 10733 3dda 71050000 		.4byte	.LLST73
 10734 3dde 00       		.byte	0
 10735 3ddf 3C       		.uleb128 0x3c
 10736 3de0 67490000 		.4byte	0x4967
 10737 3de4 62030000 		.4byte	.LBB527
 10738 3de8 16000000 		.4byte	.LBE527-.LBB527
 10739 3dec 01       		.byte	0x1
 10740 3ded 6A01     		.2byte	0x16a
 10741 3def FD3D0000 		.4byte	0x3dfd
 10742 3df3 3F       		.uleb128 0x3f
 10743 3df4 73490000 		.4byte	0x4973
 10744 3df8 A1050000 		.4byte	.LLST74
 10745 3dfc 00       		.byte	0
 10746 3dfd 3C       		.uleb128 0x3c
 10747 3dfe 4F490000 		.4byte	0x494f
 10748 3e02 78030000 		.4byte	.LBB529
 10749 3e06 16000000 		.4byte	.LBE529-.LBB529
 10750 3e0a 01       		.byte	0x1
 10751 3e0b 6B01     		.2byte	0x16b
 10752 3e0d 543E0000 		.4byte	0x3e54
 10753 3e11 3D       		.uleb128 0x3d
 10754 3e12 5B490000 		.4byte	0x495b
 10755 3e16 3E       		.uleb128 0x3e
 10756 3e17 67490000 		.4byte	0x4967
 10757 3e1b 78030000 		.4byte	.LBB531
 10758 3e1f 0A000000 		.4byte	.LBE531-.LBB531
 10759 3e23 01       		.byte	0x1
 10760 3e24 7E       		.byte	0x7e
 10761 3e25 3F3E0000 		.4byte	0x3e3f
 10762 3e29 3F       		.uleb128 0x3f
 10763 3e2a 73490000 		.4byte	0x4973
 10764 3e2e C1050000 		.4byte	.LLST75
 10765 3e32 40       		.uleb128 0x40
 10766 3e33 82030000 		.4byte	.LVL244
 10767 3e37 3B       		.uleb128 0x3b
 10768 3e38 01       		.uleb128 0x1
 10769 3e39 51       		.byte	0x51
 10770 3e3a 02       		.uleb128 0x2
 10771 3e3b 08       		.byte	0x8
 10772 3e3c 29       		.byte	0x29
 10773 3e3d 00       		.byte	0
 10774 3e3e 00       		.byte	0
 10775 3e3f 40       		.uleb128 0x40
 10776 3e40 8E030000 		.4byte	.LVL245
 10777 3e44 3B       		.uleb128 0x3b
 10778 3e45 01       		.uleb128 0x1
 10779 3e46 51       		.byte	0x51
 10780 3e47 05       		.uleb128 0x5
 10781 3e48 03       		.byte	0x3
 10782 3e49 00000000 		.4byte	.LC0
 10783 3e4d 3B       		.uleb128 0x3b
 10784 3e4e 01       		.uleb128 0x1
 10785 3e4f 52       		.byte	0x52
 10786 3e50 01       		.uleb128 0x1
 10787 3e51 32       		.byte	0x32
 10788 3e52 00       		.byte	0
 10789 3e53 00       		.byte	0
ARM GAS  C:\Users\mathi\AppData\Local\Temp\ccRLxsF0.s 			page 192


 10790 3e54 3C       		.uleb128 0x3c
 10791 3e55 6C410000 		.4byte	0x416c
 10792 3e59 98030000 		.4byte	.LBB533
 10793 3e5d 4C000000 		.4byte	.LBE533-.LBB533
 10794 3e61 01       		.byte	0x1
 10795 3e62 6F01     		.2byte	0x16f
 10796 3e64 BE3E0000 		.4byte	0x3ebe
 10797 3e68 3F       		.uleb128 0x3f
 10798 3e69 79410000 		.4byte	0x4179
 10799 3e6d D9050000 		.4byte	.LLST76
 10800 3e71 47       		.uleb128 0x47
 10801 3e72 98030000 		.4byte	.LBB534
 10802 3e76 4C000000 		.4byte	.LBE534-.LBB534
 10803 3e7a 46       		.uleb128 0x46
 10804 3e7b 85410000 		.4byte	0x4185
 10805 3e7f EC050000 		.4byte	.LLST77
 10806 3e83 49       		.uleb128 0x49
 10807 3e84 47490000 		.4byte	0x4947
 10808 3e88 98030000 		.4byte	.LBB535
 10809 3e8c 38020000 		.4byte	.Ldebug_ranges0+0x238
 10810 3e90 01       		.byte	0x1
 10811 3e91 2101     		.2byte	0x121
 10812 3e93 4A       		.uleb128 0x4a
 10813 3e94 71450000 		.4byte	0x4571
 10814 3e98 CA030000 		.4byte	.LBB539
 10815 3e9c 1A000000 		.4byte	.LBE539-.LBB539
 10816 3ea0 01       		.byte	0x1
 10817 3ea1 2C01     		.2byte	0x12c
 10818 3ea3 47       		.uleb128 0x47
 10819 3ea4 CA030000 		.4byte	.LBB540
 10820 3ea8 1A000000 		.4byte	.LBE540-.LBB540
 10821 3eac 43       		.uleb128 0x43
 10822 3ead ED4C0000 		.4byte	0x4ced
 10823 3eb1 4B       		.uleb128 0x4b
 10824 3eb2 DC030000 		.4byte	.LVL253
 10825 3eb6 1A4D0000 		.4byte	0x4d1a
 10826 3eba 00       		.byte	0
 10827 3ebb 00       		.byte	0
 10828 3ebc 00       		.byte	0
 10829 3ebd 00       		.byte	0
 10830 3ebe 3C       		.uleb128 0x3c
 10831 3ebf 67490000 		.4byte	0x4967
 10832 3ec3 F2030000 		.4byte	.LBB541
 10833 3ec7 12000000 		.4byte	.LBE541-.LBB541
 10834 3ecb 01       		.byte	0x1
 10835 3ecc 7101     		.2byte	0x171
 10836 3ece DC3E0000 		.4byte	0x3edc
 10837 3ed2 3F       		.uleb128 0x3f
 10838 3ed3 73490000 		.4byte	0x4973
 10839 3ed7 00060000 		.4byte	.LLST78
 10840 3edb 00       		.byte	0
 10841 3edc 38       		.uleb128 0x38
 10842 3edd 7F490000 		.4byte	0x497f
 10843 3ee1 0A040000 		.4byte	.LBB543
 10844 3ee5 50020000 		.4byte	.Ldebug_ranges0+0x250
 10845 3ee9 01       		.byte	0x1
 10846 3eea 7201     		.2byte	0x172
ARM GAS  C:\Users\mathi\AppData\Local\Temp\ccRLxsF0.s 			page 193


 10847 3eec 4C3F0000 		.4byte	0x3f4c
 10848 3ef0 3F       		.uleb128 0x3f
 10849 3ef1 8B490000 		.4byte	0x498b
 10850 3ef5 20060000 		.4byte	.LLST79
 10851 3ef9 42       		.uleb128 0x42
 10852 3efa 50020000 		.4byte	.Ldebug_ranges0+0x250
 10853 3efe 43       		.uleb128 0x43
 10854 3eff 8D4B0000 		.4byte	0x4b8d
 10855 3f03 43       		.uleb128 0x43
 10856 3f04 924B0000 		.4byte	0x4b92
 10857 3f08 4C       		.uleb128 0x4c
 10858 3f09 7F490000 		.4byte	0x497f
 10859 3f0d 26050000 		.4byte	.LBB545
 10860 3f11 36000000 		.4byte	.LBE545-.LBB545
 10861 3f15 3E3F0000 		.4byte	0x3f3e
 10862 3f19 3F       		.uleb128 0x3f
 10863 3f1a 8B490000 		.4byte	0x498b
 10864 3f1e 5C060000 		.4byte	.LLST80
 10865 3f22 47       		.uleb128 0x47
 10866 3f23 26050000 		.4byte	.LBB546
 10867 3f27 36000000 		.4byte	.LBE546-.LBB546
 10868 3f2b 45       		.uleb128 0x45
 10869 3f2c 8D4B0000 		.4byte	0x4b8d
 10870 3f30 02       		.uleb128 0x2
 10871 3f31 91       		.byte	0x91
 10872 3f32 44       		.sleb128 -60
 10873 3f33 46       		.uleb128 0x46
 10874 3f34 924B0000 		.4byte	0x4b92
 10875 3f38 7A060000 		.4byte	.LLST81
 10876 3f3c 00       		.byte	0
 10877 3f3d 00       		.byte	0
 10878 3f3e 40       		.uleb128 0x40
 10879 3f3f 18040000 		.4byte	.LVL262
 10880 3f43 3B       		.uleb128 0x3b
 10881 3f44 01       		.uleb128 0x1
 10882 3f45 51       		.byte	0x51
 10883 3f46 02       		.uleb128 0x2
 10884 3f47 08       		.byte	0x8
 10885 3f48 30       		.byte	0x30
 10886 3f49 00       		.byte	0
 10887 3f4a 00       		.byte	0
 10888 3f4b 00       		.byte	0
 10889 3f4c 3C       		.uleb128 0x3c
 10890 3f4d 67490000 		.4byte	0x4967
 10891 3f51 1A040000 		.4byte	.LBB548
 10892 3f55 16000000 		.4byte	.LBE548-.LBB548
 10893 3f59 01       		.byte	0x1
 10894 3f5a 7301     		.2byte	0x173
 10895 3f5c 6A3F0000 		.4byte	0x3f6a
 10896 3f60 3F       		.uleb128 0x3f
 10897 3f61 73490000 		.4byte	0x4973
 10898 3f65 A5060000 		.4byte	.LLST82
 10899 3f69 00       		.byte	0
 10900 3f6a 3C       		.uleb128 0x3c
 10901 3f6b 30490000 		.4byte	0x4930
 10902 3f6f 30040000 		.4byte	.LBB550
 10903 3f73 1C000000 		.4byte	.LBE550-.LBB550
ARM GAS  C:\Users\mathi\AppData\Local\Temp\ccRLxsF0.s 			page 194


 10904 3f77 01       		.byte	0x1
 10905 3f78 7401     		.2byte	0x174
 10906 3f7a 923F0000 		.4byte	0x3f92
 10907 3f7e 47       		.uleb128 0x47
 10908 3f7f 30040000 		.4byte	.LBB551
 10909 3f83 1C000000 		.4byte	.LBE551-.LBB551
 10910 3f87 46       		.uleb128 0x46
 10911 3f88 3C490000 		.4byte	0x493c
 10912 3f8c E2060000 		.4byte	.LLST83
 10913 3f90 00       		.byte	0
 10914 3f91 00       		.byte	0
 10915 3f92 3C       		.uleb128 0x3c
 10916 3f93 4F490000 		.4byte	0x494f
 10917 3f97 4C040000 		.4byte	.LBB552
 10918 3f9b 26000000 		.4byte	.LBE552-.LBB552
 10919 3f9f 01       		.byte	0x1
 10920 3fa0 7501     		.2byte	0x175
 10921 3fa2 DD3F0000 		.4byte	0x3fdd
 10922 3fa6 3D       		.uleb128 0x3d
 10923 3fa7 5B490000 		.4byte	0x495b
 10924 3fab 3E       		.uleb128 0x3e
 10925 3fac 67490000 		.4byte	0x4967
 10926 3fb0 4C040000 		.4byte	.LBB554
 10927 3fb4 14000000 		.4byte	.LBE554-.LBB554
 10928 3fb8 01       		.byte	0x1
 10929 3fb9 7E       		.byte	0x7e
 10930 3fba C83F0000 		.4byte	0x3fc8
 10931 3fbe 3F       		.uleb128 0x3f
 10932 3fbf 73490000 		.4byte	0x4973
 10933 3fc3 1D070000 		.4byte	.LLST84
 10934 3fc7 00       		.byte	0
 10935 3fc8 40       		.uleb128 0x40
 10936 3fc9 6C040000 		.4byte	.LVL277
 10937 3fcd 3B       		.uleb128 0x3b
 10938 3fce 01       		.uleb128 0x1
 10939 3fcf 51       		.byte	0x51
 10940 3fd0 05       		.uleb128 0x5
 10941 3fd1 03       		.byte	0x3
 10942 3fd2 00000000 		.4byte	.LC0
 10943 3fd6 3B       		.uleb128 0x3b
 10944 3fd7 01       		.uleb128 0x1
 10945 3fd8 52       		.byte	0x52
 10946 3fd9 01       		.uleb128 0x1
 10947 3fda 32       		.byte	0x32
 10948 3fdb 00       		.byte	0
 10949 3fdc 00       		.byte	0
 10950 3fdd 38       		.uleb128 0x38
 10951 3fde 54410000 		.4byte	0x4154
 10952 3fe2 92040000 		.4byte	.LBB556
 10953 3fe6 68020000 		.4byte	.Ldebug_ranges0+0x268
 10954 3fea 01       		.byte	0x1
 10955 3feb 7D01     		.2byte	0x17d
 10956 3fed 21400000 		.4byte	0x4021
 10957 3ff1 42       		.uleb128 0x42
 10958 3ff2 68020000 		.4byte	.Ldebug_ranges0+0x268
 10959 3ff6 43       		.uleb128 0x43
 10960 3ff7 61410000 		.4byte	0x4161
ARM GAS  C:\Users\mathi\AppData\Local\Temp\ccRLxsF0.s 			page 195


 10961 3ffb 48       		.uleb128 0x48
 10962 3ffc 9C040000 		.4byte	.LVL281
 10963 4000 0B400000 		.4byte	0x400b
 10964 4004 3B       		.uleb128 0x3b
 10965 4005 01       		.uleb128 0x1
 10966 4006 51       		.byte	0x51
 10967 4007 02       		.uleb128 0x2
 10968 4008 08       		.byte	0x8
 10969 4009 2D       		.byte	0x2d
 10970 400a 00       		.byte	0
 10971 400b 40       		.uleb128 0x40
 10972 400c AE040000 		.4byte	.LVL282
 10973 4010 3B       		.uleb128 0x3b
 10974 4011 01       		.uleb128 0x1
 10975 4012 51       		.byte	0x51
 10976 4013 05       		.uleb128 0x5
 10977 4014 03       		.byte	0x3
 10978 4015 00000000 		.4byte	.LC0
 10979 4019 3B       		.uleb128 0x3b
 10980 401a 01       		.uleb128 0x1
 10981 401b 52       		.byte	0x52
 10982 401c 01       		.uleb128 0x1
 10983 401d 32       		.byte	0x32
 10984 401e 00       		.byte	0
 10985 401f 00       		.byte	0
 10986 4020 00       		.byte	0
 10987 4021 38       		.uleb128 0x38
 10988 4022 4F490000 		.4byte	0x494f
 10989 4026 A6040000 		.4byte	.LBB559
 10990 402a 80020000 		.4byte	.Ldebug_ranges0+0x280
 10991 402e 01       		.byte	0x1
 10992 402f 7E01     		.2byte	0x17e
 10993 4031 4F400000 		.4byte	0x404f
 10994 4035 3D       		.uleb128 0x3d
 10995 4036 5B490000 		.4byte	0x495b
 10996 403a 40       		.uleb128 0x40
 10997 403b BA040000 		.4byte	.LVL283
 10998 403f 3B       		.uleb128 0x3b
 10999 4040 01       		.uleb128 0x1
 11000 4041 51       		.byte	0x51
 11001 4042 05       		.uleb128 0x5
 11002 4043 03       		.byte	0x3
 11003 4044 00000000 		.4byte	.LC0
 11004 4048 3B       		.uleb128 0x3b
 11005 4049 01       		.uleb128 0x1
 11006 404a 52       		.byte	0x52
 11007 404b 01       		.uleb128 0x1
 11008 404c 32       		.byte	0x32
 11009 404d 00       		.byte	0
 11010 404e 00       		.byte	0
 11011 404f 3C       		.uleb128 0x3c
 11012 4050 67490000 		.4byte	0x4967
 11013 4054 BA040000 		.4byte	.LBB564
 11014 4058 12000000 		.4byte	.LBE564-.LBB564
 11015 405c 01       		.byte	0x1
 11016 405d 7F01     		.2byte	0x17f
 11017 405f 6D400000 		.4byte	0x406d
ARM GAS  C:\Users\mathi\AppData\Local\Temp\ccRLxsF0.s 			page 196


 11018 4063 3F       		.uleb128 0x3f
 11019 4064 73490000 		.4byte	0x4973
 11020 4068 4D070000 		.4byte	.LLST85
 11021 406c 00       		.byte	0
 11022 406d 38       		.uleb128 0x38
 11023 406e 4F490000 		.4byte	0x494f
 11024 4072 D6040000 		.4byte	.LBB566
 11025 4076 98020000 		.4byte	.Ldebug_ranges0+0x298
 11026 407a 01       		.byte	0x1
 11027 407b 8301     		.2byte	0x183
 11028 407d C5400000 		.4byte	0x40c5
 11029 4081 3D       		.uleb128 0x3d
 11030 4082 5B490000 		.4byte	0x495b
 11031 4086 3E       		.uleb128 0x3e
 11032 4087 67490000 		.4byte	0x4967
 11033 408b D6040000 		.4byte	.LBB568
 11034 408f 12000000 		.4byte	.LBE568-.LBB568
 11035 4093 01       		.byte	0x1
 11036 4094 7E       		.byte	0x7e
 11037 4095 A3400000 		.4byte	0x40a3
 11038 4099 3F       		.uleb128 0x3f
 11039 409a 73490000 		.4byte	0x4973
 11040 409e 7D070000 		.4byte	.LLST86
 11041 40a2 00       		.byte	0
 11042 40a3 4D       		.uleb128 0x4d
 11043 40a4 04050000 		.4byte	.LVL293
 11044 40a8 BB400000 		.4byte	0x40bb
 11045 40ac 3B       		.uleb128 0x3b
 11046 40ad 01       		.uleb128 0x1
 11047 40ae 51       		.byte	0x51
 11048 40af 05       		.uleb128 0x5
 11049 40b0 03       		.byte	0x3
 11050 40b1 00000000 		.4byte	.LC0
 11051 40b5 3B       		.uleb128 0x3b
 11052 40b6 01       		.uleb128 0x1
 11053 40b7 52       		.byte	0x52
 11054 40b8 01       		.uleb128 0x1
 11055 40b9 32       		.byte	0x32
 11056 40ba 00       		.byte	0
 11057 40bb 4B       		.uleb128 0x4b
 11058 40bc 84050000 		.4byte	.LVL314
 11059 40c0 254D0000 		.4byte	0x4d25
 11060 40c4 00       		.byte	0
 11061 40c5 3C       		.uleb128 0x3c
 11062 40c6 4F490000 		.4byte	0x494f
 11063 40ca 06050000 		.4byte	.LBB573
 11064 40ce 20000000 		.4byte	.LBE573-.LBB573
 11065 40d2 01       		.byte	0x1
 11066 40d3 7801     		.2byte	0x178
 11067 40d5 10410000 		.4byte	0x4110
 11068 40d9 3D       		.uleb128 0x3d
 11069 40da 5B490000 		.4byte	0x495b
 11070 40de 3E       		.uleb128 0x3e
 11071 40df 67490000 		.4byte	0x4967
 11072 40e3 06050000 		.4byte	.LBB575
 11073 40e7 12000000 		.4byte	.LBE575-.LBB575
 11074 40eb 01       		.byte	0x1
ARM GAS  C:\Users\mathi\AppData\Local\Temp\ccRLxsF0.s 			page 197


 11075 40ec 7E       		.byte	0x7e
 11076 40ed FB400000 		.4byte	0x40fb
 11077 40f1 3F       		.uleb128 0x3f
 11078 40f2 73490000 		.4byte	0x4973
 11079 40f6 9D070000 		.4byte	.LLST87
 11080 40fa 00       		.byte	0
 11081 40fb 40       		.uleb128 0x40
 11082 40fc 24050000 		.4byte	.LVL298
 11083 4100 3B       		.uleb128 0x3b
 11084 4101 01       		.uleb128 0x1
 11085 4102 51       		.byte	0x51
 11086 4103 05       		.uleb128 0x5
 11087 4104 03       		.byte	0x3
 11088 4105 00000000 		.4byte	.LC0
 11089 4109 3B       		.uleb128 0x3b
 11090 410a 01       		.uleb128 0x1
 11091 410b 52       		.byte	0x52
 11092 410c 01       		.uleb128 0x1
 11093 410d 32       		.byte	0x32
 11094 410e 00       		.byte	0
 11095 410f 00       		.byte	0
 11096 4110 3C       		.uleb128 0x3c
 11097 4111 4F490000 		.4byte	0x494f
 11098 4115 6C050000 		.4byte	.LBB579
 11099 4119 14000000 		.4byte	.LBE579-.LBB579
 11100 411d 01       		.byte	0x1
 11101 411e 8101     		.2byte	0x181
 11102 4120 43410000 		.4byte	0x4143
 11103 4124 3D       		.uleb128 0x3d
 11104 4125 5B490000 		.4byte	0x495b
 11105 4129 4E       		.uleb128 0x4e
 11106 412a 67490000 		.4byte	0x4967
 11107 412e 6C050000 		.4byte	.LBB581
 11108 4132 14000000 		.4byte	.LBE581-.LBB581
 11109 4136 01       		.byte	0x1
 11110 4137 7E       		.byte	0x7e
 11111 4138 3F       		.uleb128 0x3f
 11112 4139 73490000 		.4byte	0x4973
 11113 413d BD070000 		.4byte	.LLST88
 11114 4141 00       		.byte	0
 11115 4142 00       		.byte	0
 11116 4143 4F       		.uleb128 0x4f
 11117 4144 94030000 		.4byte	.LVL246
 11118 4148 2E4D0000 		.4byte	0x4d2e
 11119 414c 3B       		.uleb128 0x3b
 11120 414d 01       		.uleb128 0x1
 11121 414e 50       		.byte	0x50
 11122 414f 02       		.uleb128 0x2
 11123 4150 08       		.byte	0x8
 11124 4151 C8       		.byte	0xc8
 11125 4152 00       		.byte	0
 11126 4153 00       		.byte	0
 11127 4154 50       		.uleb128 0x50
 11128 4155 11160000 		.4byte	.LASF737
 11129 4159 01       		.byte	0x1
 11130 415a 2F01     		.2byte	0x12f
 11131 415c 01       		.byte	0x1
ARM GAS  C:\Users\mathi\AppData\Local\Temp\ccRLxsF0.s 			page 198


 11132 415d 6C410000 		.4byte	0x416c
 11133 4161 51       		.uleb128 0x51
 11134 4162 6900     		.ascii	"i\000"
 11135 4164 01       		.byte	0x1
 11136 4165 3001     		.2byte	0x130
 11137 4167 25000000 		.4byte	0x25
 11138 416b 00       		.byte	0
 11139 416c 50       		.uleb128 0x50
 11140 416d 7B100000 		.4byte	.LASF738
 11141 4171 01       		.byte	0x1
 11142 4172 1D01     		.2byte	0x11d
 11143 4174 01       		.byte	0x1
 11144 4175 90410000 		.4byte	0x4190
 11145 4179 52       		.uleb128 0x52
 11146 417a 74637000 		.ascii	"tcp\000"
 11147 417e 01       		.byte	0x1
 11148 417f 1D01     		.2byte	0x11d
 11149 4181 7C360000 		.4byte	0x367c
 11150 4185 51       		.uleb128 0x51
 11151 4186 6900     		.ascii	"i\000"
 11152 4188 01       		.byte	0x1
 11153 4189 1E01     		.2byte	0x11e
 11154 418b 2C000000 		.4byte	0x2c
 11155 418f 00       		.byte	0
 11156 4190 53       		.uleb128 0x53
 11157 4191 B01C0000 		.4byte	.LASF740
 11158 4195 01       		.byte	0x1
 11159 4196 1301     		.2byte	0x113
 11160 4198 00000000 		.4byte	.LFB271
 11161 419c A0000000 		.4byte	.LFE271-.LFB271
 11162 41a0 01       		.uleb128 0x1
 11163 41a1 9C       		.byte	0x9c
 11164 41a2 87430000 		.4byte	0x4387
 11165 41a6 36       		.uleb128 0x36
 11166 41a7 6D7300   		.ascii	"ms\000"
 11167 41aa 01       		.byte	0x1
 11168 41ab 1301     		.2byte	0x113
 11169 41ad 25000000 		.4byte	0x25
 11170 41b1 DD070000 		.4byte	.LLST32
 11171 41b5 54       		.uleb128 0x54
 11172 41b6 37140000 		.4byte	.LASF741
 11173 41ba 01       		.byte	0x1
 11174 41bb 1501     		.2byte	0x115
 11175 41bd 99010000 		.4byte	0x199
 11176 41c1 01       		.uleb128 0x1
 11177 41c2 54       		.byte	0x54
 11178 41c3 38       		.uleb128 0x38
 11179 41c4 D0490000 		.4byte	0x49d0
 11180 41c8 24000000 		.4byte	.LBB276
 11181 41cc 38010000 		.4byte	.Ldebug_ranges0+0x138
 11182 41d0 01       		.byte	0x1
 11183 41d1 1701     		.2byte	0x117
 11184 41d3 7D430000 		.4byte	0x437d
 11185 41d7 3F       		.uleb128 0x3f
 11186 41d8 DD490000 		.4byte	0x49dd
 11187 41dc FE070000 		.4byte	.LLST33
 11188 41e0 3F       		.uleb128 0x3f
ARM GAS  C:\Users\mathi\AppData\Local\Temp\ccRLxsF0.s 			page 199


 11189 41e1 F5490000 		.4byte	0x49f5
 11190 41e5 26080000 		.4byte	.LLST34
 11191 41e9 3F       		.uleb128 0x3f
 11192 41ea 014A0000 		.4byte	0x4a01
 11193 41ee 4E080000 		.4byte	.LLST35
 11194 41f2 3F       		.uleb128 0x3f
 11195 41f3 E9490000 		.4byte	0x49e9
 11196 41f7 6E080000 		.4byte	.LLST36
 11197 41fb 3C       		.uleb128 0x3c
 11198 41fc 3C4B0000 		.4byte	0x4b3c
 11199 4200 24000000 		.4byte	.LBB277
 11200 4204 0E000000 		.4byte	.LBE277-.LBB277
 11201 4208 04       		.byte	0x4
 11202 4209 C401     		.2byte	0x1c4
 11203 420b 51420000 		.4byte	0x4251
 11204 420f 3C       		.uleb128 0x3c
 11205 4210 4E4B0000 		.4byte	0x4b4e
 11206 4214 24000000 		.4byte	.LBB279
 11207 4218 06000000 		.4byte	.LBE279-.LBB279
 11208 421c 03       		.byte	0x3
 11209 421d 5C01     		.2byte	0x15c
 11210 421f 3E420000 		.4byte	0x423e
 11211 4223 4A       		.uleb128 0x4a
 11212 4224 574B0000 		.4byte	0x4b57
 11213 4228 24000000 		.4byte	.LBB280
 11214 422c 06000000 		.4byte	.LBE280-.LBB280
 11215 4230 10       		.byte	0x10
 11216 4231 BF01     		.2byte	0x1bf
 11217 4233 3F       		.uleb128 0x3f
 11218 4234 644B0000 		.4byte	0x4b64
 11219 4238 8C080000 		.4byte	.LLST37
 11220 423c 00       		.byte	0
 11221 423d 00       		.byte	0
 11222 423e 4B       		.uleb128 0x4b
 11223 423f 2E000000 		.4byte	.LVL107
 11224 4243 394D0000 		.4byte	0x4d39
 11225 4247 4B       		.uleb128 0x4b
 11226 4248 32000000 		.4byte	.LVL108
 11227 424c 444D0000 		.4byte	0x4d44
 11228 4250 00       		.byte	0
 11229 4251 3C       		.uleb128 0x3c
 11230 4252 0E4A0000 		.4byte	0x4a0e
 11231 4256 32000000 		.4byte	.LBB282
 11232 425a 1A000000 		.4byte	.LBE282-.LBB282
 11233 425e 04       		.byte	0x4
 11234 425f C501     		.2byte	0x1c5
 11235 4261 0C430000 		.4byte	0x430c
 11236 4265 3F       		.uleb128 0x3f
 11237 4266 1B4A0000 		.4byte	0x4a1b
 11238 426a A1080000 		.4byte	.LLST38
 11239 426e 3F       		.uleb128 0x3f
 11240 426f 334A0000 		.4byte	0x4a33
 11241 4273 B9080000 		.4byte	.LLST39
 11242 4277 3F       		.uleb128 0x3f
 11243 4278 3F4A0000 		.4byte	0x4a3f
 11244 427c D1080000 		.4byte	.LLST40
 11245 4280 3F       		.uleb128 0x3f
ARM GAS  C:\Users\mathi\AppData\Local\Temp\ccRLxsF0.s 			page 200


 11246 4281 274A0000 		.4byte	0x4a27
 11247 4285 E5080000 		.4byte	.LLST41
 11248 4289 3C       		.uleb128 0x3c
 11249 428a 4C4A0000 		.4byte	0x4a4c
 11250 428e 32000000 		.4byte	.LBB284
 11251 4292 0E000000 		.4byte	.LBE284-.LBB284
 11252 4296 04       		.byte	0x4
 11253 4297 A701     		.2byte	0x1a7
 11254 4299 E4420000 		.4byte	0x42e4
 11255 429d 3F       		.uleb128 0x3f
 11256 429e 594A0000 		.4byte	0x4a59
 11257 42a2 F8080000 		.4byte	.LLST42
 11258 42a6 3C       		.uleb128 0x3c
 11259 42a7 664A0000 		.4byte	0x4a66
 11260 42ab 32000000 		.4byte	.LBB286
 11261 42af 06000000 		.4byte	.LBE286-.LBB286
 11262 42b3 04       		.byte	0x4
 11263 42b4 7801     		.2byte	0x178
 11264 42b6 D0420000 		.4byte	0x42d0
 11265 42ba 39       		.uleb128 0x39
 11266 42bb 774A0000 		.4byte	0x4a77
 11267 42bf 06       		.uleb128 0x6
 11268 42c0 03       		.byte	0x3
 11269 42c1 00000000 		.4byte	vt
 11270 42c5 9F       		.byte	0x9f
 11271 42c6 4B       		.uleb128 0x4b
 11272 42c7 36000000 		.4byte	.LVL109
 11273 42cb 4F4D0000 		.4byte	0x4d4f
 11274 42cf 00       		.byte	0
 11275 42d0 4F       		.uleb128 0x4f
 11276 42d1 40000000 		.4byte	.LVL110
 11277 42d5 5A4D0000 		.4byte	0x4d5a
 11278 42d9 3B       		.uleb128 0x3b
 11279 42da 01       		.uleb128 0x1
 11280 42db 50       		.byte	0x50
 11281 42dc 05       		.uleb128 0x5
 11282 42dd 03       		.byte	0x3
 11283 42de 00000000 		.4byte	.LANCHOR9
 11284 42e2 00       		.byte	0
 11285 42e3 00       		.byte	0
 11286 42e4 4F       		.uleb128 0x4f
 11287 42e5 4C000000 		.4byte	.LVL111
 11288 42e9 654D0000 		.4byte	0x4d65
 11289 42ed 3B       		.uleb128 0x3b
 11290 42ee 01       		.uleb128 0x1
 11291 42ef 50       		.byte	0x50
 11292 42f0 05       		.uleb128 0x5
 11293 42f1 03       		.byte	0x3
 11294 42f2 00000000 		.4byte	.LANCHOR9
 11295 42f6 3B       		.uleb128 0x3b
 11296 42f7 01       		.uleb128 0x1
 11297 42f8 51       		.byte	0x51
 11298 42f9 02       		.uleb128 0x2
 11299 42fa 74       		.byte	0x74
 11300 42fb 00       		.sleb128 0
 11301 42fc 3B       		.uleb128 0x3b
 11302 42fd 01       		.uleb128 0x1
ARM GAS  C:\Users\mathi\AppData\Local\Temp\ccRLxsF0.s 			page 201


 11303 42fe 52       		.byte	0x52
 11304 42ff 05       		.uleb128 0x5
 11305 4300 03       		.byte	0x3
 11306 4301 00000000 		.4byte	tmr
 11307 4305 3B       		.uleb128 0x3b
 11308 4306 01       		.uleb128 0x1
 11309 4307 53       		.byte	0x53
 11310 4308 01       		.uleb128 0x1
 11311 4309 30       		.byte	0x30
 11312 430a 00       		.byte	0
 11313 430b 00       		.byte	0
 11314 430c 55       		.uleb128 0x55
 11315 430d 0C4B0000 		.4byte	0x4b0c
 11316 4311 4C000000 		.4byte	.LBB288
 11317 4315 50010000 		.4byte	.Ldebug_ranges0+0x150
 11318 4319 04       		.byte	0x4
 11319 431a C601     		.2byte	0x1c6
 11320 431c 42       		.uleb128 0x42
 11321 431d 50010000 		.4byte	.Ldebug_ranges0+0x150
 11322 4321 43       		.uleb128 0x43
 11323 4322 194B0000 		.4byte	0x4b19
 11324 4326 3C       		.uleb128 0x3c
 11325 4327 454B0000 		.4byte	0x4b45
 11326 432b 66000000 		.4byte	.LBB290
 11327 432f 06000000 		.4byte	.LBE290-.LBB290
 11328 4333 03       		.byte	0x3
 11329 4334 7301     		.2byte	0x173
 11330 4336 55430000 		.4byte	0x4355
 11331 433a 4A       		.uleb128 0x4a
 11332 433b 574B0000 		.4byte	0x4b57
 11333 433f 66000000 		.4byte	.LBB291
 11334 4343 06000000 		.4byte	.LBE291-.LBB291
 11335 4347 10       		.byte	0x10
 11336 4348 CD01     		.2byte	0x1cd
 11337 434a 3F       		.uleb128 0x3f
 11338 434b 644B0000 		.4byte	0x4b64
 11339 434f 10090000 		.4byte	.LLST43
 11340 4353 00       		.byte	0
 11341 4354 00       		.byte	0
 11342 4355 4B       		.uleb128 0x4b
 11343 4356 50000000 		.4byte	.LVL112
 11344 435a 704D0000 		.4byte	0x4d70
 11345 435e 4B       		.uleb128 0x4b
 11346 435f 54000000 		.4byte	.LVL113
 11347 4363 7B4D0000 		.4byte	0x4d7b
 11348 4367 4F       		.uleb128 0x4f
 11349 4368 7E000000 		.4byte	.LVL117
 11350 436c 864D0000 		.4byte	0x4d86
 11351 4370 3B       		.uleb128 0x3b
 11352 4371 01       		.uleb128 0x1
 11353 4372 50       		.byte	0x50
 11354 4373 05       		.uleb128 0x5
 11355 4374 03       		.byte	0x3
 11356 4375 00000000 		.4byte	.LANCHOR3
 11357 4379 00       		.byte	0
 11358 437a 00       		.byte	0
 11359 437b 00       		.byte	0
ARM GAS  C:\Users\mathi\AppData\Local\Temp\ccRLxsF0.s 			page 202


 11360 437c 00       		.byte	0
 11361 437d 4B       		.uleb128 0x4b
 11362 437e 84000000 		.4byte	.LVL119
 11363 4382 254D0000 		.4byte	0x4d25
 11364 4386 00       		.byte	0
 11365 4387 56       		.uleb128 0x56
 11366 4388 746D7200 		.ascii	"tmr\000"
 11367 438c 01       		.byte	0x1
 11368 438d 0801     		.2byte	0x108
 11369 438f 00000000 		.4byte	.LFB270
 11370 4393 2C000000 		.4byte	.LFE270-.LFB270
 11371 4397 01       		.uleb128 0x1
 11372 4398 9C       		.byte	0x9c
 11373 4399 B5430000 		.4byte	0x43b5
 11374 439d 36       		.uleb128 0x36
 11375 439e 7000     		.ascii	"p\000"
 11376 43a0 01       		.byte	0x1
 11377 43a1 0801     		.2byte	0x108
 11378 43a3 BA030000 		.4byte	0x3ba
 11379 43a7 24090000 		.4byte	.LLST0
 11380 43ab 4B       		.uleb128 0x4b
 11381 43ac 22000000 		.4byte	.LVL2
 11382 43b0 254D0000 		.4byte	0x4d25
 11383 43b4 00       		.byte	0
 11384 43b5 57       		.uleb128 0x57
 11385 43b6 4D140000 		.4byte	.LASF745
 11386 43ba 01       		.byte	0x1
 11387 43bb F8       		.byte	0xf8
 11388 43bc 99010000 		.4byte	0x199
 11389 43c0 00000000 		.4byte	.LFB269
 11390 43c4 68000000 		.4byte	.LFE269-.LFB269
 11391 43c8 01       		.uleb128 0x1
 11392 43c9 9C       		.byte	0x9c
 11393 43ca DD440000 		.4byte	0x44dd
 11394 43ce 41       		.uleb128 0x41
 11395 43cf E44A0000 		.4byte	0x4ae4
 11396 43d3 10000000 		.4byte	.LBB236
 11397 43d7 D8000000 		.4byte	.Ldebug_ranges0+0xd8
 11398 43db 01       		.byte	0x1
 11399 43dc FB       		.byte	0xfb
 11400 43dd C0440000 		.4byte	0x44c0
 11401 43e1 42       		.uleb128 0x42
 11402 43e2 D8000000 		.4byte	.Ldebug_ranges0+0xd8
 11403 43e6 43       		.uleb128 0x43
 11404 43e7 F44A0000 		.4byte	0x4af4
 11405 43eb 41       		.uleb128 0x41
 11406 43ec 3C4B0000 		.4byte	0x4b3c
 11407 43f0 10000000 		.4byte	.LBB238
 11408 43f4 F0000000 		.4byte	.Ldebug_ranges0+0xf0
 11409 43f8 04       		.byte	0x4
 11410 43f9 FA       		.byte	0xfa
 11411 43fa 40440000 		.4byte	0x4440
 11412 43fe 3C       		.uleb128 0x3c
 11413 43ff 4E4B0000 		.4byte	0x4b4e
 11414 4403 10000000 		.4byte	.LBB240
 11415 4407 06000000 		.4byte	.LBE240-.LBB240
 11416 440b 03       		.byte	0x3
ARM GAS  C:\Users\mathi\AppData\Local\Temp\ccRLxsF0.s 			page 203


 11417 440c 5C01     		.2byte	0x15c
 11418 440e 2D440000 		.4byte	0x442d
 11419 4412 4A       		.uleb128 0x4a
 11420 4413 574B0000 		.4byte	0x4b57
 11421 4417 10000000 		.4byte	.LBB241
 11422 441b 06000000 		.4byte	.LBE241-.LBB241
 11423 441f 10       		.byte	0x10
 11424 4420 BF01     		.2byte	0x1bf
 11425 4422 3F       		.uleb128 0x3f
 11426 4423 644B0000 		.4byte	0x4b64
 11427 4427 45090000 		.4byte	.LLST30
 11428 442b 00       		.byte	0
 11429 442c 00       		.byte	0
 11430 442d 4B       		.uleb128 0x4b
 11431 442e 1C000000 		.4byte	.LVL95
 11432 4432 394D0000 		.4byte	0x4d39
 11433 4436 4B       		.uleb128 0x4b
 11434 4437 20000000 		.4byte	.LVL96
 11435 443b 444D0000 		.4byte	0x4d44
 11436 443f 00       		.byte	0
 11437 4440 58       		.uleb128 0x58
 11438 4441 004B0000 		.4byte	0x4b00
 11439 4445 16000000 		.4byte	.LBB244
 11440 4449 08010000 		.4byte	.Ldebug_ranges0+0x108
 11441 444d 04       		.byte	0x4
 11442 444e FB       		.byte	0xfb
 11443 444f 59       		.uleb128 0x59
 11444 4450 0C4B0000 		.4byte	0x4b0c
 11445 4454 22000000 		.4byte	.LBB249
 11446 4458 20010000 		.4byte	.Ldebug_ranges0+0x120
 11447 445c 04       		.byte	0x4
 11448 445d FC       		.byte	0xfc
 11449 445e 42       		.uleb128 0x42
 11450 445f 20010000 		.4byte	.Ldebug_ranges0+0x120
 11451 4463 43       		.uleb128 0x43
 11452 4464 194B0000 		.4byte	0x4b19
 11453 4468 3C       		.uleb128 0x3c
 11454 4469 454B0000 		.4byte	0x4b45
 11455 446d 3A000000 		.4byte	.LBB251
 11456 4471 06000000 		.4byte	.LBE251-.LBB251
 11457 4475 03       		.byte	0x3
 11458 4476 7301     		.2byte	0x173
 11459 4478 97440000 		.4byte	0x4497
 11460 447c 4A       		.uleb128 0x4a
 11461 447d 574B0000 		.4byte	0x4b57
 11462 4481 3A000000 		.4byte	.LBB252
 11463 4485 06000000 		.4byte	.LBE252-.LBB252
 11464 4489 10       		.byte	0x10
 11465 448a CD01     		.2byte	0x1cd
 11466 448c 3F       		.uleb128 0x3f
 11467 448d 644B0000 		.4byte	0x4b64
 11468 4491 5A090000 		.4byte	.LLST31
 11469 4495 00       		.byte	0
 11470 4496 00       		.byte	0
 11471 4497 4B       		.uleb128 0x4b
 11472 4498 26000000 		.4byte	.LVL97
 11473 449c 704D0000 		.4byte	0x4d70
ARM GAS  C:\Users\mathi\AppData\Local\Temp\ccRLxsF0.s 			page 204


 11474 44a0 4B       		.uleb128 0x4b
 11475 44a1 2A000000 		.4byte	.LVL98
 11476 44a5 7B4D0000 		.4byte	0x4d7b
 11477 44a9 4F       		.uleb128 0x4f
 11478 44aa 54000000 		.4byte	.LVL101
 11479 44ae 864D0000 		.4byte	0x4d86
 11480 44b2 3B       		.uleb128 0x3b
 11481 44b3 01       		.uleb128 0x1
 11482 44b4 50       		.byte	0x50
 11483 44b5 05       		.uleb128 0x5
 11484 44b6 03       		.byte	0x3
 11485 44b7 00000000 		.4byte	.LANCHOR3
 11486 44bb 00       		.byte	0
 11487 44bc 00       		.byte	0
 11488 44bd 00       		.byte	0
 11489 44be 00       		.byte	0
 11490 44bf 00       		.byte	0
 11491 44c0 5A       		.uleb128 0x5a
 11492 44c1 10000000 		.4byte	.LVL93
 11493 44c5 2E4D0000 		.4byte	0x4d2e
 11494 44c9 D3440000 		.4byte	0x44d3
 11495 44cd 3B       		.uleb128 0x3b
 11496 44ce 01       		.uleb128 0x1
 11497 44cf 50       		.byte	0x50
 11498 44d0 01       		.uleb128 0x1
 11499 44d1 31       		.byte	0x31
 11500 44d2 00       		.byte	0
 11501 44d3 4B       		.uleb128 0x4b
 11502 44d4 5A000000 		.4byte	.LVL102
 11503 44d8 254D0000 		.4byte	0x4d25
 11504 44dc 00       		.byte	0
 11505 44dd 5B       		.uleb128 0x5b
 11506 44de 6B0C0000 		.4byte	.LASF742
 11507 44e2 01       		.byte	0x1
 11508 44e3 E3       		.byte	0xe3
 11509 44e4 00000000 		.4byte	.LFB268
 11510 44e8 5C000000 		.4byte	.LFE268-.LFB268
 11511 44ec 01       		.uleb128 0x1
 11512 44ed 9C       		.byte	0x9c
 11513 44ee 71450000 		.4byte	0x4571
 11514 44f2 5C       		.uleb128 0x5c
 11515 44f3 37140000 		.4byte	.LASF741
 11516 44f7 01       		.byte	0x1
 11517 44f8 E3       		.byte	0xe3
 11518 44f9 25000000 		.4byte	0x25
 11519 44fd 6E090000 		.4byte	.LLST28
 11520 4501 5D       		.uleb128 0x5d
 11521 4502 25100000 		.4byte	.LASF743
 11522 4506 01       		.byte	0x1
 11523 4507 E4       		.byte	0xe4
 11524 4508 99010000 		.4byte	0x199
 11525 450c 5E       		.uleb128 0x5e
 11526 450d 656E6400 		.ascii	"end\000"
 11527 4511 01       		.byte	0x1
 11528 4512 E4       		.byte	0xe4
 11529 4513 99010000 		.4byte	0x199
 11530 4517 8F090000 		.4byte	.LLST29
ARM GAS  C:\Users\mathi\AppData\Local\Temp\ccRLxsF0.s 			page 205


 11531 451b 5F       		.uleb128 0x5f
 11532 451c 6E6F7700 		.ascii	"now\000"
 11533 4520 01       		.byte	0x1
 11534 4521 E4       		.byte	0xe4
 11535 4522 99010000 		.4byte	0x199
 11536 4526 58       		.uleb128 0x58
 11537 4527 C4490000 		.4byte	0x49c4
 11538 452b 04000000 		.4byte	.LBB212
 11539 452f A8000000 		.4byte	.Ldebug_ranges0+0xa8
 11540 4533 01       		.byte	0x1
 11541 4534 E6       		.byte	0xe6
 11542 4535 3E       		.uleb128 0x3e
 11543 4536 A9490000 		.4byte	0x49a9
 11544 453a 18000000 		.4byte	.LBB216
 11545 453e 02000000 		.4byte	.LBE216-.LBB216
 11546 4542 01       		.byte	0x1
 11547 4543 E6       		.byte	0xe6
 11548 4544 4E450000 		.4byte	0x454e
 11549 4548 3D       		.uleb128 0x3d
 11550 4549 B9490000 		.4byte	0x49b9
 11551 454d 00       		.byte	0
 11552 454e 41       		.uleb128 0x41
 11553 454f A9490000 		.4byte	0x49a9
 11554 4553 2A000000 		.4byte	.LBB218
 11555 4557 C0000000 		.4byte	.Ldebug_ranges0+0xc0
 11556 455b 01       		.byte	0x1
 11557 455c E9       		.byte	0xe9
 11558 455d 67450000 		.4byte	0x4567
 11559 4561 3D       		.uleb128 0x3d
 11560 4562 B9490000 		.4byte	0x49b9
 11561 4566 00       		.byte	0
 11562 4567 4B       		.uleb128 0x4b
 11563 4568 50000000 		.4byte	.LVL92
 11564 456c 254D0000 		.4byte	0x4d25
 11565 4570 00       		.byte	0
 11566 4571 60       		.uleb128 0x60
 11567 4572 791F0000 		.4byte	.LASF756
 11568 4576 01       		.byte	0x1
 11569 4577 D2       		.byte	0xd2
 11570 4578 01       		.byte	0x1
 11571 4579 87450000 		.4byte	0x4587
 11572 457d 5F       		.uleb128 0x5f
 11573 457e 6900     		.ascii	"i\000"
 11574 4580 01       		.byte	0x1
 11575 4581 D3       		.byte	0xd3
 11576 4582 2C000000 		.4byte	0x2c
 11577 4586 00       		.byte	0
 11578 4587 5B       		.uleb128 0x5b
 11579 4588 94150000 		.4byte	.LASF744
 11580 458c 01       		.byte	0x1
 11581 458d C7       		.byte	0xc7
 11582 458e 00000000 		.4byte	.LFB266
 11583 4592 38000000 		.4byte	.LFE266-.LFB266
 11584 4596 01       		.uleb128 0x1
 11585 4597 9C       		.byte	0x9c
 11586 4598 B8450000 		.4byte	0x45b8
 11587 459c 5F       		.uleb128 0x5f
ARM GAS  C:\Users\mathi\AppData\Local\Temp\ccRLxsF0.s 			page 206


 11588 459d 6900     		.ascii	"i\000"
 11589 459f 01       		.byte	0x1
 11590 45a0 C8       		.byte	0xc8
 11591 45a1 2C000000 		.4byte	0x2c
 11592 45a5 4B       		.uleb128 0x4b
 11593 45a6 1A000000 		.4byte	.LVL80
 11594 45aa 924D0000 		.4byte	0x4d92
 11595 45ae 4B       		.uleb128 0x4b
 11596 45af 2E000000 		.4byte	.LVL81
 11597 45b3 254D0000 		.4byte	0x4d25
 11598 45b7 00       		.byte	0
 11599 45b8 57       		.uleb128 0x57
 11600 45b9 86000000 		.4byte	.LASF746
 11601 45bd 01       		.byte	0x1
 11602 45be BB       		.byte	0xbb
 11603 45bf 59150000 		.4byte	0x1559
 11604 45c3 00000000 		.4byte	.LFB265
 11605 45c7 94000000 		.4byte	.LFE265-.LFB265
 11606 45cb 01       		.uleb128 0x1
 11607 45cc 9C       		.byte	0x9c
 11608 45cd 7C470000 		.4byte	0x477c
 11609 45d1 5C       		.uleb128 0x5c
 11610 45d2 42100000 		.4byte	.LASF747
 11611 45d6 01       		.byte	0x1
 11612 45d7 BB       		.byte	0xbb
 11613 45d8 25000000 		.4byte	0x25
 11614 45dc AD090000 		.4byte	.LLST18
 11615 45e0 5C       		.uleb128 0x5c
 11616 45e1 25100000 		.4byte	.LASF743
 11617 45e5 01       		.byte	0x1
 11618 45e6 BB       		.byte	0xbb
 11619 45e7 99010000 		.4byte	0x199
 11620 45eb CB090000 		.4byte	.LLST19
 11621 45ef 61       		.uleb128 0x61
 11622 45f0 656E6400 		.ascii	"end\000"
 11623 45f4 01       		.byte	0x1
 11624 45f5 BB       		.byte	0xbb
 11625 45f6 99010000 		.4byte	0x199
 11626 45fa E9090000 		.4byte	.LLST20
 11627 45fe 41       		.uleb128 0x41
 11628 45ff 844A0000 		.4byte	0x4a84
 11629 4603 16000000 		.4byte	.LBB182
 11630 4607 30000000 		.4byte	.Ldebug_ranges0+0x30
 11631 460b 01       		.byte	0x1
 11632 460c BD       		.byte	0xbd
 11633 460d 37470000 		.4byte	0x4737
 11634 4611 3F       		.uleb128 0x3f
 11635 4612 A14A0000 		.4byte	0x4aa1
 11636 4616 2E0A0000 		.4byte	.LLST21
 11637 461a 3F       		.uleb128 0x3f
 11638 461b 954A0000 		.4byte	0x4a95
 11639 461f 570A0000 		.4byte	.LLST22
 11640 4623 38       		.uleb128 0x38
 11641 4624 E44A0000 		.4byte	0x4ae4
 11642 4628 16000000 		.4byte	.LBB183
 11643 462c 48000000 		.4byte	.Ldebug_ranges0+0x48
 11644 4630 04       		.byte	0x4
ARM GAS  C:\Users\mathi\AppData\Local\Temp\ccRLxsF0.s 			page 207


 11645 4631 4401     		.2byte	0x144
 11646 4633 16470000 		.4byte	0x4716
 11647 4637 42       		.uleb128 0x42
 11648 4638 48000000 		.4byte	.Ldebug_ranges0+0x48
 11649 463c 43       		.uleb128 0x43
 11650 463d F44A0000 		.4byte	0x4af4
 11651 4641 41       		.uleb128 0x41
 11652 4642 3C4B0000 		.4byte	0x4b3c
 11653 4646 16000000 		.4byte	.LBB185
 11654 464a 60000000 		.4byte	.Ldebug_ranges0+0x60
 11655 464e 04       		.byte	0x4
 11656 464f FA       		.byte	0xfa
 11657 4650 96460000 		.4byte	0x4696
 11658 4654 3C       		.uleb128 0x3c
 11659 4655 4E4B0000 		.4byte	0x4b4e
 11660 4659 16000000 		.4byte	.LBB187
 11661 465d 06000000 		.4byte	.LBE187-.LBB187
 11662 4661 03       		.byte	0x3
 11663 4662 5C01     		.2byte	0x15c
 11664 4664 83460000 		.4byte	0x4683
 11665 4668 4A       		.uleb128 0x4a
 11666 4669 574B0000 		.4byte	0x4b57
 11667 466d 16000000 		.4byte	.LBB188
 11668 4671 06000000 		.4byte	.LBE188-.LBB188
 11669 4675 10       		.byte	0x10
 11670 4676 BF01     		.2byte	0x1bf
 11671 4678 3F       		.uleb128 0x3f
 11672 4679 644B0000 		.4byte	0x4b64
 11673 467d 800A0000 		.4byte	.LLST23
 11674 4681 00       		.byte	0
 11675 4682 00       		.byte	0
 11676 4683 4B       		.uleb128 0x4b
 11677 4684 22000000 		.4byte	.LVL66
 11678 4688 394D0000 		.4byte	0x4d39
 11679 468c 4B       		.uleb128 0x4b
 11680 468d 26000000 		.4byte	.LVL67
 11681 4691 444D0000 		.4byte	0x4d44
 11682 4695 00       		.byte	0
 11683 4696 58       		.uleb128 0x58
 11684 4697 004B0000 		.4byte	0x4b00
 11685 469b 1C000000 		.4byte	.LBB191
 11686 469f 78000000 		.4byte	.Ldebug_ranges0+0x78
 11687 46a3 04       		.byte	0x4
 11688 46a4 FB       		.byte	0xfb
 11689 46a5 59       		.uleb128 0x59
 11690 46a6 0C4B0000 		.4byte	0x4b0c
 11691 46aa 28000000 		.4byte	.LBB196
 11692 46ae 90000000 		.4byte	.Ldebug_ranges0+0x90
 11693 46b2 04       		.byte	0x4
 11694 46b3 FC       		.byte	0xfc
 11695 46b4 42       		.uleb128 0x42
 11696 46b5 90000000 		.4byte	.Ldebug_ranges0+0x90
 11697 46b9 43       		.uleb128 0x43
 11698 46ba 194B0000 		.4byte	0x4b19
 11699 46be 3C       		.uleb128 0x3c
 11700 46bf 454B0000 		.4byte	0x4b45
 11701 46c3 40000000 		.4byte	.LBB198
ARM GAS  C:\Users\mathi\AppData\Local\Temp\ccRLxsF0.s 			page 208


 11702 46c7 06000000 		.4byte	.LBE198-.LBB198
 11703 46cb 03       		.byte	0x3
 11704 46cc 7301     		.2byte	0x173
 11705 46ce ED460000 		.4byte	0x46ed
 11706 46d2 4A       		.uleb128 0x4a
 11707 46d3 574B0000 		.4byte	0x4b57
 11708 46d7 40000000 		.4byte	.LBB199
 11709 46db 06000000 		.4byte	.LBE199-.LBB199
 11710 46df 10       		.byte	0x10
 11711 46e0 CD01     		.2byte	0x1cd
 11712 46e2 3F       		.uleb128 0x3f
 11713 46e3 644B0000 		.4byte	0x4b64
 11714 46e7 950A0000 		.4byte	.LLST24
 11715 46eb 00       		.byte	0
 11716 46ec 00       		.byte	0
 11717 46ed 4B       		.uleb128 0x4b
 11718 46ee 2C000000 		.4byte	.LVL68
 11719 46f2 704D0000 		.4byte	0x4d70
 11720 46f6 4B       		.uleb128 0x4b
 11721 46f7 30000000 		.4byte	.LVL69
 11722 46fb 7B4D0000 		.4byte	0x4d7b
 11723 46ff 4F       		.uleb128 0x4f
 11724 4700 76000000 		.4byte	.LVL76
 11725 4704 864D0000 		.4byte	0x4d86
 11726 4708 3B       		.uleb128 0x3b
 11727 4709 01       		.uleb128 0x1
 11728 470a 50       		.byte	0x50
 11729 470b 05       		.uleb128 0x5
 11730 470c 03       		.byte	0x3
 11731 470d 00000000 		.4byte	.LANCHOR3
 11732 4711 00       		.byte	0
 11733 4712 00       		.byte	0
 11734 4713 00       		.byte	0
 11735 4714 00       		.byte	0
 11736 4715 00       		.byte	0
 11737 4716 4A       		.uleb128 0x4a
 11738 4717 AE4A0000 		.4byte	0x4aae
 11739 471b 46000000 		.4byte	.LBB204
 11740 471f 08000000 		.4byte	.LBE204-.LBB204
 11741 4723 04       		.byte	0x4
 11742 4724 4401     		.2byte	0x144
 11743 4726 3D       		.uleb128 0x3d
 11744 4727 D74A0000 		.4byte	0x4ad7
 11745 472b 3D       		.uleb128 0x3d
 11746 472c CB4A0000 		.4byte	0x4acb
 11747 4730 3D       		.uleb128 0x3d
 11748 4731 BF4A0000 		.4byte	0x4abf
 11749 4735 00       		.byte	0
 11750 4736 00       		.byte	0
 11751 4737 3E       		.uleb128 0x3e
 11752 4738 F7470000 		.4byte	0x47f7
 11753 473c 4E000000 		.4byte	.LBB207
 11754 4740 12000000 		.4byte	.LBE207-.LBB207
 11755 4744 01       		.byte	0x1
 11756 4745 BD       		.byte	0xbd
 11757 4746 72470000 		.4byte	0x4772
 11758 474a 3D       		.uleb128 0x3d
ARM GAS  C:\Users\mathi\AppData\Local\Temp\ccRLxsF0.s 			page 209


 11759 474b 12480000 		.4byte	0x4812
 11760 474f 3F       		.uleb128 0x3f
 11761 4750 07480000 		.4byte	0x4807
 11762 4754 A90A0000 		.4byte	.LLST25
 11763 4758 4E       		.uleb128 0x4e
 11764 4759 1E480000 		.4byte	0x481e
 11765 475d 52000000 		.4byte	.LBB209
 11766 4761 0E000000 		.4byte	.LBE209-.LBB209
 11767 4765 01       		.byte	0x1
 11768 4766 AB       		.byte	0xab
 11769 4767 3F       		.uleb128 0x3f
 11770 4768 2E480000 		.4byte	0x482e
 11771 476c BC0A0000 		.4byte	.LLST26
 11772 4770 00       		.byte	0
 11773 4771 00       		.byte	0
 11774 4772 4B       		.uleb128 0x4b
 11775 4773 7C000000 		.4byte	.LVL78
 11776 4777 254D0000 		.4byte	0x4d25
 11777 477b 00       		.byte	0
 11778 477c 57       		.uleb128 0x57
 11779 477d 17080000 		.4byte	.LASF748
 11780 4781 01       		.byte	0x1
 11781 4782 AF       		.byte	0xaf
 11782 4783 59150000 		.4byte	0x1559
 11783 4787 00000000 		.4byte	.LFB264
 11784 478b 68000000 		.4byte	.LFE264-.LFB264
 11785 478f 01       		.uleb128 0x1
 11786 4790 9C       		.byte	0x9c
 11787 4791 F7470000 		.4byte	0x47f7
 11788 4795 5C       		.uleb128 0x5c
 11789 4796 42100000 		.4byte	.LASF747
 11790 479a 01       		.byte	0x1
 11791 479b AF       		.byte	0xaf
 11792 479c 25000000 		.4byte	0x25
 11793 47a0 CF0A0000 		.4byte	.LLST14
 11794 47a4 5C       		.uleb128 0x5c
 11795 47a5 591F0000 		.4byte	.LASF749
 11796 47a9 01       		.byte	0x1
 11797 47aa AF       		.byte	0xaf
 11798 47ab 93370000 		.4byte	0x3793
 11799 47af F00A0000 		.4byte	.LLST15
 11800 47b3 5E       		.uleb128 0x5e
 11801 47b4 637000   		.ascii	"cp\000"
 11802 47b7 01       		.byte	0x1
 11803 47b8 B0       		.byte	0xb0
 11804 47b9 93370000 		.4byte	0x3793
 11805 47bd 1B0B0000 		.4byte	.LLST16
 11806 47c1 62       		.uleb128 0x62
 11807 47c2 47490000 		.4byte	0x4947
 11808 47c6 2A000000 		.4byte	.LBB156
 11809 47ca 04000000 		.4byte	.LBE156-.LBB156
 11810 47ce 01       		.byte	0x1
 11811 47cf B7       		.byte	0xb7
 11812 47d0 3E       		.uleb128 0x3e
 11813 47d1 1E480000 		.4byte	0x481e
 11814 47d5 30000000 		.4byte	.LBB158
 11815 47d9 0E000000 		.4byte	.LBE158-.LBB158
ARM GAS  C:\Users\mathi\AppData\Local\Temp\ccRLxsF0.s 			page 210


 11816 47dd 01       		.byte	0x1
 11817 47de B3       		.byte	0xb3
 11818 47df ED470000 		.4byte	0x47ed
 11819 47e3 3F       		.uleb128 0x3f
 11820 47e4 2E480000 		.4byte	0x482e
 11821 47e8 560B0000 		.4byte	.LLST17
 11822 47ec 00       		.byte	0
 11823 47ed 4B       		.uleb128 0x4b
 11824 47ee 50000000 		.4byte	.LVL61
 11825 47f2 254D0000 		.4byte	0x4d25
 11826 47f6 00       		.byte	0
 11827 47f7 63       		.uleb128 0x63
 11828 47f8 91170000 		.4byte	.LASF751
 11829 47fc 01       		.byte	0x1
 11830 47fd A8       		.byte	0xa8
 11831 47fe 59150000 		.4byte	0x1559
 11832 4802 01       		.byte	0x1
 11833 4803 1E480000 		.4byte	0x481e
 11834 4807 64       		.uleb128 0x64
 11835 4808 42100000 		.4byte	.LASF747
 11836 480c 01       		.byte	0x1
 11837 480d A8       		.byte	0xa8
 11838 480e 25000000 		.4byte	0x25
 11839 4812 64       		.uleb128 0x64
 11840 4813 A60E0000 		.4byte	.LASF750
 11841 4817 01       		.byte	0x1
 11842 4818 A8       		.byte	0xa8
 11843 4819 59150000 		.4byte	0x1559
 11844 481d 00       		.byte	0
 11845 481e 63       		.uleb128 0x63
 11846 481f 76170000 		.4byte	.LASF752
 11847 4823 01       		.byte	0x1
 11848 4824 A0       		.byte	0xa0
 11849 4825 59150000 		.4byte	0x1559
 11850 4829 01       		.byte	0x1
 11851 482a 3A480000 		.4byte	0x483a
 11852 482e 64       		.uleb128 0x64
 11853 482f 42100000 		.4byte	.LASF747
 11854 4833 01       		.byte	0x1
 11855 4834 A0       		.byte	0xa0
 11856 4835 25000000 		.4byte	0x25
 11857 4839 00       		.byte	0
 11858 483a 5B       		.uleb128 0x5b
 11859 483b BE040000 		.4byte	.LASF753
 11860 483f 01       		.byte	0x1
 11861 4840 96       		.byte	0x96
 11862 4841 00000000 		.4byte	.LFB261
 11863 4845 6C000000 		.4byte	.LFE261-.LFB261
 11864 4849 01       		.uleb128 0x1
 11865 484a 9C       		.byte	0x9c
 11866 484b 30490000 		.4byte	0x4930
 11867 484f 5C       		.uleb128 0x5c
 11868 4850 A8070000 		.4byte	.LASF754
 11869 4854 01       		.byte	0x1
 11870 4855 96       		.byte	0x96
 11871 4856 6D100000 		.4byte	0x106d
 11872 485a 690B0000 		.4byte	.LLST7
ARM GAS  C:\Users\mathi\AppData\Local\Temp\ccRLxsF0.s 			page 211


 11873 485e 3E       		.uleb128 0x3e
 11874 485f 3C4B0000 		.4byte	0x4b3c
 11875 4863 0C000000 		.4byte	.LBB142
 11876 4867 0E000000 		.4byte	.LBE142-.LBB142
 11877 486b 01       		.byte	0x1
 11878 486c 98       		.byte	0x98
 11879 486d B3480000 		.4byte	0x48b3
 11880 4871 3C       		.uleb128 0x3c
 11881 4872 4E4B0000 		.4byte	0x4b4e
 11882 4876 0C000000 		.4byte	.LBB144
 11883 487a 06000000 		.4byte	.LBE144-.LBB144
 11884 487e 03       		.byte	0x3
 11885 487f 5C01     		.2byte	0x15c
 11886 4881 A0480000 		.4byte	0x48a0
 11887 4885 4A       		.uleb128 0x4a
 11888 4886 574B0000 		.4byte	0x4b57
 11889 488a 0C000000 		.4byte	.LBB145
 11890 488e 06000000 		.4byte	.LBE145-.LBB145
 11891 4892 10       		.byte	0x10
 11892 4893 BF01     		.2byte	0x1bf
 11893 4895 3F       		.uleb128 0x3f
 11894 4896 644B0000 		.4byte	0x4b64
 11895 489a 8A0B0000 		.4byte	.LLST8
 11896 489e 00       		.byte	0
 11897 489f 00       		.byte	0
 11898 48a0 4B       		.uleb128 0x4b
 11899 48a1 16000000 		.4byte	.LVL32
 11900 48a5 394D0000 		.4byte	0x4d39
 11901 48a9 4B       		.uleb128 0x4b
 11902 48aa 1A000000 		.4byte	.LVL33
 11903 48ae 444D0000 		.4byte	0x4d44
 11904 48b2 00       		.byte	0
 11905 48b3 41       		.uleb128 0x41
 11906 48b4 0C4B0000 		.4byte	0x4b0c
 11907 48b8 24000000 		.4byte	.LBB147
 11908 48bc 18000000 		.4byte	.Ldebug_ranges0+0x18
 11909 48c0 01       		.byte	0x1
 11910 48c1 9A       		.byte	0x9a
 11911 48c2 26490000 		.4byte	0x4926
 11912 48c6 42       		.uleb128 0x42
 11913 48c7 18000000 		.4byte	.Ldebug_ranges0+0x18
 11914 48cb 43       		.uleb128 0x43
 11915 48cc 194B0000 		.4byte	0x4b19
 11916 48d0 3C       		.uleb128 0x3c
 11917 48d1 454B0000 		.4byte	0x4b45
 11918 48d5 3E000000 		.4byte	.LBB149
 11919 48d9 06000000 		.4byte	.LBE149-.LBB149
 11920 48dd 03       		.byte	0x3
 11921 48de 7301     		.2byte	0x173
 11922 48e0 FF480000 		.4byte	0x48ff
 11923 48e4 4A       		.uleb128 0x4a
 11924 48e5 574B0000 		.4byte	0x4b57
 11925 48e9 3E000000 		.4byte	.LBB150
 11926 48ed 06000000 		.4byte	.LBE150-.LBB150
 11927 48f1 10       		.byte	0x10
 11928 48f2 CD01     		.2byte	0x1cd
 11929 48f4 3F       		.uleb128 0x3f
ARM GAS  C:\Users\mathi\AppData\Local\Temp\ccRLxsF0.s 			page 212


 11930 48f5 644B0000 		.4byte	0x4b64
 11931 48f9 9F0B0000 		.4byte	.LLST9
 11932 48fd 00       		.byte	0
 11933 48fe 00       		.byte	0
 11934 48ff 4B       		.uleb128 0x4b
 11935 4900 28000000 		.4byte	.LVL34
 11936 4904 704D0000 		.4byte	0x4d70
 11937 4908 4B       		.uleb128 0x4b
 11938 4909 2C000000 		.4byte	.LVL35
 11939 490d 7B4D0000 		.4byte	0x4d7b
 11940 4911 4F       		.uleb128 0x4f
 11941 4912 56000000 		.4byte	.LVL38
 11942 4916 864D0000 		.4byte	0x4d86
 11943 491a 3B       		.uleb128 0x3b
 11944 491b 01       		.uleb128 0x1
 11945 491c 50       		.byte	0x50
 11946 491d 05       		.uleb128 0x5
 11947 491e 03       		.byte	0x3
 11948 491f 00000000 		.4byte	.LANCHOR3
 11949 4923 00       		.byte	0
 11950 4924 00       		.byte	0
 11951 4925 00       		.byte	0
 11952 4926 4B       		.uleb128 0x4b
 11953 4927 5C000000 		.4byte	.LVL39
 11954 492b 254D0000 		.4byte	0x4d25
 11955 492f 00       		.byte	0
 11956 4930 65       		.uleb128 0x65
 11957 4931 5E060000 		.4byte	.LASF755
 11958 4935 01       		.byte	0x1
 11959 4936 8A       		.byte	0x8a
 11960 4937 01       		.byte	0x1
 11961 4938 47490000 		.4byte	0x4947
 11962 493c 5F       		.uleb128 0x5f
 11963 493d 637000   		.ascii	"cp\000"
 11964 4940 01       		.byte	0x1
 11965 4941 8B       		.byte	0x8b
 11966 4942 93370000 		.4byte	0x3793
 11967 4946 00       		.byte	0
 11968 4947 66       		.uleb128 0x66
 11969 4948 51200000 		.4byte	.LASF777
 11970 494c 01       		.byte	0x1
 11971 494d 85       		.byte	0x85
 11972 494e 01       		.byte	0x1
 11973 494f 60       		.uleb128 0x60
 11974 4950 D21F0000 		.4byte	.LASF757
 11975 4954 01       		.byte	0x1
 11976 4955 7C       		.byte	0x7c
 11977 4956 01       		.byte	0x1
 11978 4957 67490000 		.4byte	0x4967
 11979 495b 64       		.uleb128 0x64
 11980 495c 3D070000 		.4byte	.LASF758
 11981 4960 01       		.byte	0x1
 11982 4961 7C       		.byte	0x7c
 11983 4962 62100000 		.4byte	0x1062
 11984 4966 00       		.byte	0
 11985 4967 60       		.uleb128 0x60
 11986 4968 B8060000 		.4byte	.LASF759
ARM GAS  C:\Users\mathi\AppData\Local\Temp\ccRLxsF0.s 			page 213


 11987 496c 01       		.byte	0x1
 11988 496d 71       		.byte	0x71
 11989 496e 01       		.byte	0x1
 11990 496f 7F490000 		.4byte	0x497f
 11991 4973 64       		.uleb128 0x64
 11992 4974 3D070000 		.4byte	.LASF758
 11993 4978 01       		.byte	0x1
 11994 4979 71       		.byte	0x71
 11995 497a 62100000 		.4byte	0x1062
 11996 497e 00       		.byte	0
 11997 497f 60       		.uleb128 0x60
 11998 4980 6C150000 		.4byte	.LASF760
 11999 4984 01       		.byte	0x1
 12000 4985 5E       		.byte	0x5e
 12001 4986 01       		.byte	0x1
 12002 4987 A9490000 		.4byte	0x49a9
 12003 498b 67       		.uleb128 0x67
 12004 498c 6E00     		.ascii	"n\000"
 12005 498e 01       		.byte	0x1
 12006 498f 5E       		.byte	0x5e
 12007 4990 F5000000 		.4byte	0xf5
 12008 4994 5F       		.uleb128 0x5f
 12009 4995 62756600 		.ascii	"buf\000"
 12010 4999 01       		.byte	0x1
 12011 499a 5F       		.byte	0x5f
 12012 499b 61370000 		.4byte	0x3761
 12013 499f 5F       		.uleb128 0x5f
 12014 49a0 7000     		.ascii	"p\000"
 12015 49a2 01       		.byte	0x1
 12016 49a3 5F       		.byte	0x5f
 12017 49a4 93370000 		.4byte	0x3793
 12018 49a8 00       		.byte	0
 12019 49a9 68       		.uleb128 0x68
 12020 49aa 5E0E0000 		.4byte	.LASF766
 12021 49ae 05       		.byte	0x5
 12022 49af CB       		.byte	0xcb
 12023 49b0 99010000 		.4byte	0x199
 12024 49b4 03       		.byte	0x3
 12025 49b5 C4490000 		.4byte	0x49c4
 12026 49b9 67       		.uleb128 0x67
 12027 49ba 747000   		.ascii	"tp\000"
 12028 49bd 05       		.byte	0x5
 12029 49be CB       		.byte	0xcb
 12030 49bf DD020000 		.4byte	0x2dd
 12031 49c3 00       		.byte	0
 12032 49c4 69       		.uleb128 0x69
 12033 49c5 9E170000 		.4byte	.LASF773
 12034 49c9 05       		.byte	0x5
 12035 49ca AE       		.byte	0xae
 12036 49cb DD020000 		.4byte	0x2dd
 12037 49cf 03       		.byte	0x3
 12038 49d0 50       		.uleb128 0x50
 12039 49d1 721C0000 		.4byte	.LASF761
 12040 49d5 04       		.byte	0x4
 12041 49d6 C101     		.2byte	0x1c1
 12042 49d8 03       		.byte	0x3
 12043 49d9 0E4A0000 		.4byte	0x4a0e
ARM GAS  C:\Users\mathi\AppData\Local\Temp\ccRLxsF0.s 			page 214


 12044 49dd 52       		.uleb128 0x52
 12045 49de 76747000 		.ascii	"vtp\000"
 12046 49e2 04       		.byte	0x4
 12047 49e3 C101     		.2byte	0x1c1
 12048 49e5 7F100000 		.4byte	0x107f
 12049 49e9 6A       		.uleb128 0x6a
 12050 49ea F91F0000 		.4byte	.LASF762
 12051 49ee 04       		.byte	0x4
 12052 49ef C101     		.2byte	0x1c1
 12053 49f1 99010000 		.4byte	0x199
 12054 49f5 6A       		.uleb128 0x6a
 12055 49f6 160C0000 		.4byte	.LASF763
 12056 49fa 04       		.byte	0x4
 12057 49fb C201     		.2byte	0x1c2
 12058 49fd 9E030000 		.4byte	0x39e
 12059 4a01 52       		.uleb128 0x52
 12060 4a02 70617200 		.ascii	"par\000"
 12061 4a06 04       		.byte	0x4
 12062 4a07 C201     		.2byte	0x1c2
 12063 4a09 BA030000 		.4byte	0x3ba
 12064 4a0d 00       		.byte	0
 12065 4a0e 50       		.uleb128 0x50
 12066 4a0f E8160000 		.4byte	.LASF764
 12067 4a13 04       		.byte	0x4
 12068 4a14 A401     		.2byte	0x1a4
 12069 4a16 03       		.byte	0x3
 12070 4a17 4C4A0000 		.4byte	0x4a4c
 12071 4a1b 52       		.uleb128 0x52
 12072 4a1c 76747000 		.ascii	"vtp\000"
 12073 4a20 04       		.byte	0x4
 12074 4a21 A401     		.2byte	0x1a4
 12075 4a23 7F100000 		.4byte	0x107f
 12076 4a27 6A       		.uleb128 0x6a
 12077 4a28 F91F0000 		.4byte	.LASF762
 12078 4a2c 04       		.byte	0x4
 12079 4a2d A401     		.2byte	0x1a4
 12080 4a2f 99010000 		.4byte	0x199
 12081 4a33 6A       		.uleb128 0x6a
 12082 4a34 160C0000 		.4byte	.LASF763
 12083 4a38 04       		.byte	0x4
 12084 4a39 A501     		.2byte	0x1a5
 12085 4a3b 9E030000 		.4byte	0x39e
 12086 4a3f 52       		.uleb128 0x52
 12087 4a40 70617200 		.ascii	"par\000"
 12088 4a44 04       		.byte	0x4
 12089 4a45 A501     		.2byte	0x1a5
 12090 4a47 BA030000 		.4byte	0x3ba
 12091 4a4b 00       		.byte	0
 12092 4a4c 50       		.uleb128 0x50
 12093 4a4d 41030000 		.4byte	.LASF765
 12094 4a51 04       		.byte	0x4
 12095 4a52 7601     		.2byte	0x176
 12096 4a54 03       		.byte	0x3
 12097 4a55 664A0000 		.4byte	0x4a66
 12098 4a59 52       		.uleb128 0x52
 12099 4a5a 76747000 		.ascii	"vtp\000"
 12100 4a5e 04       		.byte	0x4
ARM GAS  C:\Users\mathi\AppData\Local\Temp\ccRLxsF0.s 			page 215


 12101 4a5f 7601     		.2byte	0x176
 12102 4a61 7F100000 		.4byte	0x107f
 12103 4a65 00       		.byte	0
 12104 4a66 6B       		.uleb128 0x6b
 12105 4a67 0B140000 		.4byte	.LASF767
 12106 4a6b 04       		.byte	0x4
 12107 4a6c 5101     		.2byte	0x151
 12108 4a6e 59150000 		.4byte	0x1559
 12109 4a72 03       		.byte	0x3
 12110 4a73 844A0000 		.4byte	0x4a84
 12111 4a77 52       		.uleb128 0x52
 12112 4a78 76747000 		.ascii	"vtp\000"
 12113 4a7c 04       		.byte	0x4
 12114 4a7d 5101     		.2byte	0x151
 12115 4a7f 7F100000 		.4byte	0x107f
 12116 4a83 00       		.byte	0
 12117 4a84 6B       		.uleb128 0x6b
 12118 4a85 C3060000 		.4byte	.LASF768
 12119 4a89 04       		.byte	0x4
 12120 4a8a 4201     		.2byte	0x142
 12121 4a8c 59150000 		.4byte	0x1559
 12122 4a90 03       		.byte	0x3
 12123 4a91 AE4A0000 		.4byte	0x4aae
 12124 4a95 6A       		.uleb128 0x6a
 12125 4a96 25100000 		.4byte	.LASF743
 12126 4a9a 04       		.byte	0x4
 12127 4a9b 4201     		.2byte	0x142
 12128 4a9d 99010000 		.4byte	0x199
 12129 4aa1 52       		.uleb128 0x52
 12130 4aa2 656E6400 		.ascii	"end\000"
 12131 4aa6 04       		.byte	0x4
 12132 4aa7 4201     		.2byte	0x142
 12133 4aa9 99010000 		.4byte	0x199
 12134 4aad 00       		.byte	0
 12135 4aae 6B       		.uleb128 0x6b
 12136 4aaf 630D0000 		.4byte	.LASF769
 12137 4ab3 04       		.byte	0x4
 12138 4ab4 1C01     		.2byte	0x11c
 12139 4ab6 59150000 		.4byte	0x1559
 12140 4aba 03       		.byte	0x3
 12141 4abb E44A0000 		.4byte	0x4ae4
 12142 4abf 6A       		.uleb128 0x6a
 12143 4ac0 98140000 		.4byte	.LASF770
 12144 4ac4 04       		.byte	0x4
 12145 4ac5 1C01     		.2byte	0x11c
 12146 4ac7 99010000 		.4byte	0x199
 12147 4acb 6A       		.uleb128 0x6a
 12148 4acc 25100000 		.4byte	.LASF743
 12149 4ad0 04       		.byte	0x4
 12150 4ad1 1D01     		.2byte	0x11d
 12151 4ad3 99010000 		.4byte	0x199
 12152 4ad7 52       		.uleb128 0x52
 12153 4ad8 656E6400 		.ascii	"end\000"
 12154 4adc 04       		.byte	0x4
 12155 4add 1E01     		.2byte	0x11e
 12156 4adf 99010000 		.4byte	0x199
 12157 4ae3 00       		.byte	0
ARM GAS  C:\Users\mathi\AppData\Local\Temp\ccRLxsF0.s 			page 216


 12158 4ae4 68       		.uleb128 0x68
 12159 4ae5 1F1E0000 		.4byte	.LASF771
 12160 4ae9 04       		.byte	0x4
 12161 4aea F7       		.byte	0xf7
 12162 4aeb 99010000 		.4byte	0x199
 12163 4aef 03       		.byte	0x3
 12164 4af0 004B0000 		.4byte	0x4b00
 12165 4af4 5D       		.uleb128 0x5d
 12166 4af5 AC1E0000 		.4byte	.LASF772
 12167 4af9 04       		.byte	0x4
 12168 4afa F8       		.byte	0xf8
 12169 4afb 99010000 		.4byte	0x199
 12170 4aff 00       		.byte	0
 12171 4b00 69       		.uleb128 0x69
 12172 4b01 DA060000 		.4byte	.LASF774
 12173 4b05 04       		.byte	0x4
 12174 4b06 E4       		.byte	0xe4
 12175 4b07 99010000 		.4byte	0x199
 12176 4b0b 03       		.byte	0x3
 12177 4b0c 50       		.uleb128 0x50
 12178 4b0d 001C0000 		.4byte	.LASF775
 12179 4b11 03       		.byte	0x3
 12180 4b12 6601     		.2byte	0x166
 12181 4b14 03       		.byte	0x3
 12182 4b15 274B0000 		.4byte	0x4b27
 12183 4b19 6C       		.uleb128 0x6c
 12184 4b1a 53000000 		.4byte	.LASF776
 12185 4b1e 374B0000 		.4byte	0x4b37
 12186 4b22 001C0000 		.4byte	.LASF775
 12187 4b26 00       		.byte	0
 12188 4b27 13       		.uleb128 0x13
 12189 4b28 74100000 		.4byte	0x1074
 12190 4b2c 374B0000 		.4byte	0x4b37
 12191 4b30 14       		.uleb128 0x14
 12192 4b31 25000000 		.4byte	0x25
 12193 4b35 0B       		.byte	0xb
 12194 4b36 00       		.byte	0
 12195 4b37 05       		.uleb128 0x5
 12196 4b38 274B0000 		.4byte	0x4b27
 12197 4b3c 6D       		.uleb128 0x6d
 12198 4b3d 9D140000 		.4byte	.LASF778
 12199 4b41 03       		.byte	0x3
 12200 4b42 5A01     		.2byte	0x15a
 12201 4b44 03       		.byte	0x3
 12202 4b45 6D       		.uleb128 0x6d
 12203 4b46 65140000 		.4byte	.LASF779
 12204 4b4a 10       		.byte	0x10
 12205 4b4b CA01     		.2byte	0x1ca
 12206 4b4d 03       		.byte	0x3
 12207 4b4e 6D       		.uleb128 0x6d
 12208 4b4f 1C160000 		.4byte	.LASF780
 12209 4b53 10       		.byte	0x10
 12210 4b54 BC01     		.2byte	0x1bc
 12211 4b56 03       		.byte	0x3
 12212 4b57 50       		.uleb128 0x50
 12213 4b58 D31E0000 		.4byte	.LASF781
 12214 4b5c 02       		.byte	0x2
ARM GAS  C:\Users\mathi\AppData\Local\Temp\ccRLxsF0.s 			page 217


 12215 4b5d 2002     		.2byte	0x220
 12216 4b5f 03       		.byte	0x3
 12217 4b60 714B0000 		.4byte	0x4b71
 12218 4b64 6A       		.uleb128 0x6a
 12219 4b65 710B0000 		.4byte	.LASF782
 12220 4b69 02       		.byte	0x2
 12221 4b6a 2002     		.2byte	0x220
 12222 4b6c F5000000 		.4byte	0xf5
 12223 4b70 00       		.byte	0
 12224 4b71 6E       		.uleb128 0x6e
 12225 4b72 7F490000 		.4byte	0x497f
 12226 4b76 00000000 		.4byte	.LFB256
 12227 4b7a 78000000 		.4byte	.LFE256-.LFB256
 12228 4b7e 01       		.uleb128 0x1
 12229 4b7f 9C       		.byte	0x9c
 12230 4b80 E74B0000 		.4byte	0x4be7
 12231 4b84 3F       		.uleb128 0x3f
 12232 4b85 8B490000 		.4byte	0x498b
 12233 4b89 B30B0000 		.4byte	.LLST1
 12234 4b8d 43       		.uleb128 0x43
 12235 4b8e 94490000 		.4byte	0x4994
 12236 4b92 43       		.uleb128 0x43
 12237 4b93 9F490000 		.4byte	0x499f
 12238 4b97 4C       		.uleb128 0x4c
 12239 4b98 7F490000 		.4byte	0x497f
 12240 4b9c 26000000 		.4byte	.LBB124
 12241 4ba0 36000000 		.4byte	.LBE124-.LBB124
 12242 4ba4 CD4B0000 		.4byte	0x4bcd
 12243 4ba8 3F       		.uleb128 0x3f
 12244 4ba9 8B490000 		.4byte	0x498b
 12245 4bad ED0B0000 		.4byte	.LLST2
 12246 4bb1 47       		.uleb128 0x47
 12247 4bb2 26000000 		.4byte	.LBB125
 12248 4bb6 36000000 		.4byte	.LBE125-.LBB125
 12249 4bba 45       		.uleb128 0x45
 12250 4bbb 8D4B0000 		.4byte	0x4b8d
 12251 4bbf 02       		.uleb128 0x2
 12252 4bc0 91       		.byte	0x91
 12253 4bc1 54       		.sleb128 -44
 12254 4bc2 46       		.uleb128 0x46
 12255 4bc3 924B0000 		.4byte	0x4b92
 12256 4bc7 0B0C0000 		.4byte	.LLST3
 12257 4bcb 00       		.byte	0
 12258 4bcc 00       		.byte	0
 12259 4bcd 4D       		.uleb128 0x4d
 12260 4bce 26000000 		.4byte	.LVL5
 12261 4bd2 DD4B0000 		.4byte	0x4bdd
 12262 4bd6 3B       		.uleb128 0x3b
 12263 4bd7 01       		.uleb128 0x1
 12264 4bd8 51       		.byte	0x51
 12265 4bd9 02       		.uleb128 0x2
 12266 4bda 08       		.byte	0x8
 12267 4bdb 30       		.byte	0x30
 12268 4bdc 00       		.byte	0
 12269 4bdd 4B       		.uleb128 0x4b
 12270 4bde 6C000000 		.4byte	.LVL13
 12271 4be2 254D0000 		.4byte	0x4d25
ARM GAS  C:\Users\mathi\AppData\Local\Temp\ccRLxsF0.s 			page 218


 12272 4be6 00       		.byte	0
 12273 4be7 6E       		.uleb128 0x6e
 12274 4be8 67490000 		.4byte	0x4967
 12275 4bec 00000000 		.4byte	.LFB257
 12276 4bf0 3C000000 		.4byte	.LFE257-.LFB257
 12277 4bf4 01       		.uleb128 0x1
 12278 4bf5 9C       		.byte	0x9c
 12279 4bf6 0D4C0000 		.4byte	0x4c0d
 12280 4bfa 3F       		.uleb128 0x3f
 12281 4bfb 73490000 		.4byte	0x4973
 12282 4bff 360C0000 		.4byte	.LLST4
 12283 4c03 4B       		.uleb128 0x4b
 12284 4c04 32000000 		.4byte	.LVL19
 12285 4c08 254D0000 		.4byte	0x4d25
 12286 4c0c 00       		.byte	0
 12287 4c0d 6E       		.uleb128 0x6e
 12288 4c0e 4F490000 		.4byte	0x494f
 12289 4c12 00000000 		.4byte	.LFB258
 12290 4c16 50000000 		.4byte	.LFE258-.LFB258
 12291 4c1a 01       		.uleb128 0x1
 12292 4c1b 9C       		.byte	0x9c
 12293 4c1c 684C0000 		.4byte	0x4c68
 12294 4c20 3F       		.uleb128 0x3f
 12295 4c21 5B490000 		.4byte	0x495b
 12296 4c25 610C0000 		.4byte	.LLST5
 12297 4c29 41       		.uleb128 0x41
 12298 4c2a 67490000 		.4byte	0x4967
 12299 4c2e 04000000 		.4byte	.LBB128
 12300 4c32 00000000 		.4byte	.Ldebug_ranges0+0
 12301 4c36 01       		.byte	0x1
 12302 4c37 7E       		.byte	0x7e
 12303 4c38 464C0000 		.4byte	0x4c46
 12304 4c3c 3F       		.uleb128 0x3f
 12305 4c3d 73490000 		.4byte	0x4973
 12306 4c41 9B0C0000 		.4byte	.LLST6
 12307 4c45 00       		.byte	0
 12308 4c46 4D       		.uleb128 0x4d
 12309 4c47 3C000000 		.4byte	.LVL26
 12310 4c4b 5E4C0000 		.4byte	0x4c5e
 12311 4c4f 3B       		.uleb128 0x3b
 12312 4c50 01       		.uleb128 0x1
 12313 4c51 51       		.byte	0x51
 12314 4c52 05       		.uleb128 0x5
 12315 4c53 03       		.byte	0x3
 12316 4c54 00000000 		.4byte	.LC0
 12317 4c58 3B       		.uleb128 0x3b
 12318 4c59 01       		.uleb128 0x1
 12319 4c5a 52       		.byte	0x52
 12320 4c5b 01       		.uleb128 0x1
 12321 4c5c 32       		.byte	0x32
 12322 4c5d 00       		.byte	0
 12323 4c5e 4B       		.uleb128 0x4b
 12324 4c5f 44000000 		.4byte	.LVL28
 12325 4c63 254D0000 		.4byte	0x4d25
 12326 4c67 00       		.byte	0
 12327 4c68 6F       		.uleb128 0x6f
 12328 4c69 1E480000 		.4byte	0x481e
ARM GAS  C:\Users\mathi\AppData\Local\Temp\ccRLxsF0.s 			page 219


 12329 4c6d 00000000 		.4byte	.LFB262
 12330 4c71 38000000 		.4byte	.LFE262-.LFB262
 12331 4c75 01       		.uleb128 0x1
 12332 4c76 9C       		.byte	0x9c
 12333 4c77 8E4C0000 		.4byte	0x4c8e
 12334 4c7b 3F       		.uleb128 0x3f
 12335 4c7c 2E480000 		.4byte	0x482e
 12336 4c80 D10C0000 		.4byte	.LLST10
 12337 4c84 4B       		.uleb128 0x4b
 12338 4c85 28000000 		.4byte	.LVL42
 12339 4c89 254D0000 		.4byte	0x4d25
 12340 4c8d 00       		.byte	0
 12341 4c8e 6F       		.uleb128 0x6f
 12342 4c8f F7470000 		.4byte	0x47f7
 12343 4c93 00000000 		.4byte	.LFB263
 12344 4c97 40000000 		.4byte	.LFE263-.LFB263
 12345 4c9b 01       		.uleb128 0x1
 12346 4c9c 9C       		.byte	0x9c
 12347 4c9d DA4C0000 		.4byte	0x4cda
 12348 4ca1 3F       		.uleb128 0x3f
 12349 4ca2 07480000 		.4byte	0x4807
 12350 4ca6 010D0000 		.4byte	.LLST11
 12351 4caa 3F       		.uleb128 0x3f
 12352 4cab 12480000 		.4byte	0x4812
 12353 4caf 3B0D0000 		.4byte	.LLST12
 12354 4cb3 3E       		.uleb128 0x3e
 12355 4cb4 1E480000 		.4byte	0x481e
 12356 4cb8 0C000000 		.4byte	.LBB154
 12357 4cbc 0E000000 		.4byte	.LBE154-.LBB154
 12358 4cc0 01       		.byte	0x1
 12359 4cc1 AB       		.byte	0xab
 12360 4cc2 D04C0000 		.4byte	0x4cd0
 12361 4cc6 3F       		.uleb128 0x3f
 12362 4cc7 2E480000 		.4byte	0x482e
 12363 4ccb 750D0000 		.4byte	.LLST13
 12364 4ccf 00       		.byte	0
 12365 4cd0 4B       		.uleb128 0x4b
 12366 4cd1 30000000 		.4byte	.LVL50
 12367 4cd5 254D0000 		.4byte	0x4d25
 12368 4cd9 00       		.byte	0
 12369 4cda 6F       		.uleb128 0x6f
 12370 4cdb 71450000 		.4byte	0x4571
 12371 4cdf 00000000 		.4byte	.LFB267
 12372 4ce3 3C000000 		.4byte	.LFE267-.LFB267
 12373 4ce7 01       		.uleb128 0x1
 12374 4ce8 9C       		.byte	0x9c
 12375 4ce9 094D0000 		.4byte	0x4d09
 12376 4ced 46       		.uleb128 0x46
 12377 4cee 7D450000 		.4byte	0x457d
 12378 4cf2 880D0000 		.4byte	.LLST27
 12379 4cf6 4B       		.uleb128 0x4b
 12380 4cf7 1C000000 		.4byte	.LVL84
 12381 4cfb 1A4D0000 		.4byte	0x4d1a
 12382 4cff 4B       		.uleb128 0x4b
 12383 4d00 34000000 		.4byte	.LVL85
 12384 4d04 254D0000 		.4byte	0x4d25
 12385 4d08 00       		.byte	0
ARM GAS  C:\Users\mathi\AppData\Local\Temp\ccRLxsF0.s 			page 220


 12386 4d09 70       		.uleb128 0x70
 12387 4d0a 03       		.uleb128 0x3
 12388 4d0b 9E       		.byte	0x9e
 12389 4d0c 01       		.uleb128 0x1
 12390 4d0d 00       		.byte	0
 12391 4d0e 70       		.uleb128 0x70
 12392 4d0f 04       		.uleb128 0x4
 12393 4d10 9E       		.byte	0x9e
 12394 4d11 02       		.uleb128 0x2
 12395 4d12 2E       		.byte	0x2e
 12396 4d13 00       		.byte	0
 12397 4d14 70       		.uleb128 0x70
 12398 4d15 04       		.uleb128 0x4
 12399 4d16 9E       		.byte	0x9e
 12400 4d17 02       		.uleb128 0x2
 12401 4d18 29       		.byte	0x29
 12402 4d19 00       		.byte	0
 12403 4d1a 71       		.uleb128 0x71
 12404 4d1b 931A0000 		.4byte	.LASF783
 12405 4d1f 931A0000 		.4byte	.LASF783
 12406 4d23 05       		.byte	0x5
 12407 4d24 9D       		.byte	0x9d
 12408 4d25 72       		.uleb128 0x72
 12409 4d26 8F060000 		.4byte	.LASF798
 12410 4d2a 8F060000 		.4byte	.LASF798
 12411 4d2e 71       		.uleb128 0x71
 12412 4d2f 8B0E0000 		.4byte	.LASF784
 12413 4d33 8B0E0000 		.4byte	.LASF784
 12414 4d37 05       		.byte	0x5
 12415 4d38 96       		.byte	0x96
 12416 4d39 71       		.uleb128 0x71
 12417 4d3a 951F0000 		.4byte	.LASF785
 12418 4d3e 951F0000 		.4byte	.LASF785
 12419 4d42 13       		.byte	0x13
 12420 4d43 4F       		.byte	0x4f
 12421 4d44 71       		.uleb128 0x71
 12422 4d45 A9040000 		.4byte	.LASF786
 12423 4d49 A9040000 		.4byte	.LASF786
 12424 4d4d 11       		.byte	0x11
 12425 4d4e D8       		.byte	0xd8
 12426 4d4f 71       		.uleb128 0x71
 12427 4d50 EF170000 		.4byte	.LASF787
 12428 4d54 EF170000 		.4byte	.LASF787
 12429 4d58 11       		.byte	0x11
 12430 4d59 DE       		.byte	0xde
 12431 4d5a 71       		.uleb128 0x71
 12432 4d5b 26160000 		.4byte	.LASF788
 12433 4d5f 26160000 		.4byte	.LASF788
 12434 4d63 04       		.byte	0x4
 12435 4d64 BE       		.byte	0xbe
 12436 4d65 71       		.uleb128 0x71
 12437 4d66 1E090000 		.4byte	.LASF789
 12438 4d6a 1E090000 		.4byte	.LASF789
 12439 4d6e 04       		.byte	0x4
 12440 4d6f BC       		.byte	0xbc
 12441 4d70 71       		.uleb128 0x71
 12442 4d71 7F110000 		.4byte	.LASF790
ARM GAS  C:\Users\mathi\AppData\Local\Temp\ccRLxsF0.s 			page 221


 12443 4d75 7F110000 		.4byte	.LASF790
 12444 4d79 11       		.byte	0x11
 12445 4d7a D9       		.byte	0xd9
 12446 4d7b 71       		.uleb128 0x71
 12447 4d7c 48170000 		.4byte	.LASF791
 12448 4d80 48170000 		.4byte	.LASF791
 12449 4d84 13       		.byte	0x13
 12450 4d85 50       		.byte	0x50
 12451 4d86 73       		.uleb128 0x73
 12452 4d87 0C0C0000 		.4byte	.LASF792
 12453 4d8b 0C0C0000 		.4byte	.LASF792
 12454 4d8f 03       		.byte	0x3
 12455 4d90 1601     		.2byte	0x116
 12456 4d92 71       		.uleb128 0x71
 12457 4d93 811C0000 		.4byte	.LASF793
 12458 4d97 811C0000 		.4byte	.LASF793
 12459 4d9b 05       		.byte	0x5
 12460 4d9c 95       		.byte	0x95
 12461 4d9d 00       		.byte	0
 12462              		.section	.debug_abbrev,"",%progbits
 12463              	.Ldebug_abbrev0:
 12464 0000 01       		.uleb128 0x1
 12465 0001 11       		.uleb128 0x11
 12466 0002 01       		.byte	0x1
 12467 0003 25       		.uleb128 0x25
 12468 0004 0E       		.uleb128 0xe
 12469 0005 13       		.uleb128 0x13
 12470 0006 0B       		.uleb128 0xb
 12471 0007 03       		.uleb128 0x3
 12472 0008 0E       		.uleb128 0xe
 12473 0009 1B       		.uleb128 0x1b
 12474 000a 0E       		.uleb128 0xe
 12475 000b 55       		.uleb128 0x55
 12476 000c 17       		.uleb128 0x17
 12477 000d 11       		.uleb128 0x11
 12478 000e 01       		.uleb128 0x1
 12479 000f 10       		.uleb128 0x10
 12480 0010 17       		.uleb128 0x17
 12481 0011 00       		.byte	0
 12482 0012 00       		.byte	0
 12483 0013 02       		.uleb128 0x2
 12484 0014 24       		.uleb128 0x24
 12485 0015 00       		.byte	0
 12486 0016 0B       		.uleb128 0xb
 12487 0017 0B       		.uleb128 0xb
 12488 0018 3E       		.uleb128 0x3e
 12489 0019 0B       		.uleb128 0xb
 12490 001a 03       		.uleb128 0x3
 12491 001b 0E       		.uleb128 0xe
 12492 001c 00       		.byte	0
 12493 001d 00       		.byte	0
 12494 001e 03       		.uleb128 0x3
 12495 001f 24       		.uleb128 0x24
 12496 0020 00       		.byte	0
 12497 0021 0B       		.uleb128 0xb
 12498 0022 0B       		.uleb128 0xb
 12499 0023 3E       		.uleb128 0x3e
ARM GAS  C:\Users\mathi\AppData\Local\Temp\ccRLxsF0.s 			page 222


 12500 0024 0B       		.uleb128 0xb
 12501 0025 03       		.uleb128 0x3
 12502 0026 08       		.uleb128 0x8
 12503 0027 00       		.byte	0
 12504 0028 00       		.byte	0
 12505 0029 04       		.uleb128 0x4
 12506 002a 16       		.uleb128 0x16
 12507 002b 00       		.byte	0
 12508 002c 03       		.uleb128 0x3
 12509 002d 0E       		.uleb128 0xe
 12510 002e 3A       		.uleb128 0x3a
 12511 002f 0B       		.uleb128 0xb
 12512 0030 3B       		.uleb128 0x3b
 12513 0031 0B       		.uleb128 0xb
 12514 0032 49       		.uleb128 0x49
 12515 0033 13       		.uleb128 0x13
 12516 0034 00       		.byte	0
 12517 0035 00       		.byte	0
 12518 0036 05       		.uleb128 0x5
 12519 0037 26       		.uleb128 0x26
 12520 0038 00       		.byte	0
 12521 0039 49       		.uleb128 0x49
 12522 003a 13       		.uleb128 0x13
 12523 003b 00       		.byte	0
 12524 003c 00       		.byte	0
 12525 003d 06       		.uleb128 0x6
 12526 003e 35       		.uleb128 0x35
 12527 003f 00       		.byte	0
 12528 0040 49       		.uleb128 0x49
 12529 0041 13       		.uleb128 0x13
 12530 0042 00       		.byte	0
 12531 0043 00       		.byte	0
 12532 0044 07       		.uleb128 0x7
 12533 0045 13       		.uleb128 0x13
 12534 0046 01       		.byte	0x1
 12535 0047 03       		.uleb128 0x3
 12536 0048 0E       		.uleb128 0xe
 12537 0049 0B       		.uleb128 0xb
 12538 004a 0B       		.uleb128 0xb
 12539 004b 3A       		.uleb128 0x3a
 12540 004c 0B       		.uleb128 0xb
 12541 004d 3B       		.uleb128 0x3b
 12542 004e 0B       		.uleb128 0xb
 12543 004f 01       		.uleb128 0x1
 12544 0050 13       		.uleb128 0x13
 12545 0051 00       		.byte	0
 12546 0052 00       		.byte	0
 12547 0053 08       		.uleb128 0x8
 12548 0054 0D       		.uleb128 0xd
 12549 0055 00       		.byte	0
 12550 0056 03       		.uleb128 0x3
 12551 0057 0E       		.uleb128 0xe
 12552 0058 3A       		.uleb128 0x3a
 12553 0059 0B       		.uleb128 0xb
 12554 005a 3B       		.uleb128 0x3b
 12555 005b 0B       		.uleb128 0xb
 12556 005c 49       		.uleb128 0x49
ARM GAS  C:\Users\mathi\AppData\Local\Temp\ccRLxsF0.s 			page 223


 12557 005d 13       		.uleb128 0x13
 12558 005e 38       		.uleb128 0x38
 12559 005f 0B       		.uleb128 0xb
 12560 0060 00       		.byte	0
 12561 0061 00       		.byte	0
 12562 0062 09       		.uleb128 0x9
 12563 0063 0D       		.uleb128 0xd
 12564 0064 00       		.byte	0
 12565 0065 03       		.uleb128 0x3
 12566 0066 08       		.uleb128 0x8
 12567 0067 3A       		.uleb128 0x3a
 12568 0068 0B       		.uleb128 0xb
 12569 0069 3B       		.uleb128 0x3b
 12570 006a 05       		.uleb128 0x5
 12571 006b 49       		.uleb128 0x49
 12572 006c 13       		.uleb128 0x13
 12573 006d 38       		.uleb128 0x38
 12574 006e 0B       		.uleb128 0xb
 12575 006f 00       		.byte	0
 12576 0070 00       		.byte	0
 12577 0071 0A       		.uleb128 0xa
 12578 0072 0D       		.uleb128 0xd
 12579 0073 00       		.byte	0
 12580 0074 03       		.uleb128 0x3
 12581 0075 0E       		.uleb128 0xe
 12582 0076 3A       		.uleb128 0x3a
 12583 0077 0B       		.uleb128 0xb
 12584 0078 3B       		.uleb128 0x3b
 12585 0079 05       		.uleb128 0x5
 12586 007a 49       		.uleb128 0x49
 12587 007b 13       		.uleb128 0x13
 12588 007c 38       		.uleb128 0x38
 12589 007d 0B       		.uleb128 0xb
 12590 007e 00       		.byte	0
 12591 007f 00       		.byte	0
 12592 0080 0B       		.uleb128 0xb
 12593 0081 0F       		.uleb128 0xf
 12594 0082 00       		.byte	0
 12595 0083 0B       		.uleb128 0xb
 12596 0084 0B       		.uleb128 0xb
 12597 0085 49       		.uleb128 0x49
 12598 0086 13       		.uleb128 0x13
 12599 0087 00       		.byte	0
 12600 0088 00       		.byte	0
 12601 0089 0C       		.uleb128 0xc
 12602 008a 13       		.uleb128 0x13
 12603 008b 01       		.byte	0x1
 12604 008c 03       		.uleb128 0x3
 12605 008d 0E       		.uleb128 0xe
 12606 008e 0B       		.uleb128 0xb
 12607 008f 0B       		.uleb128 0xb
 12608 0090 3A       		.uleb128 0x3a
 12609 0091 0B       		.uleb128 0xb
 12610 0092 3B       		.uleb128 0x3b
 12611 0093 05       		.uleb128 0x5
 12612 0094 01       		.uleb128 0x1
 12613 0095 13       		.uleb128 0x13
ARM GAS  C:\Users\mathi\AppData\Local\Temp\ccRLxsF0.s 			page 224


 12614 0096 00       		.byte	0
 12615 0097 00       		.byte	0
 12616 0098 0D       		.uleb128 0xd
 12617 0099 15       		.uleb128 0x15
 12618 009a 01       		.byte	0x1
 12619 009b 27       		.uleb128 0x27
 12620 009c 19       		.uleb128 0x19
 12621 009d 01       		.uleb128 0x1
 12622 009e 13       		.uleb128 0x13
 12623 009f 00       		.byte	0
 12624 00a0 00       		.byte	0
 12625 00a1 0E       		.uleb128 0xe
 12626 00a2 05       		.uleb128 0x5
 12627 00a3 00       		.byte	0
 12628 00a4 49       		.uleb128 0x49
 12629 00a5 13       		.uleb128 0x13
 12630 00a6 00       		.byte	0
 12631 00a7 00       		.byte	0
 12632 00a8 0F       		.uleb128 0xf
 12633 00a9 0F       		.uleb128 0xf
 12634 00aa 00       		.byte	0
 12635 00ab 0B       		.uleb128 0xb
 12636 00ac 0B       		.uleb128 0xb
 12637 00ad 00       		.byte	0
 12638 00ae 00       		.byte	0
 12639 00af 10       		.uleb128 0x10
 12640 00b0 13       		.uleb128 0x13
 12641 00b1 01       		.byte	0x1
 12642 00b2 03       		.uleb128 0x3
 12643 00b3 0E       		.uleb128 0xe
 12644 00b4 0B       		.uleb128 0xb
 12645 00b5 05       		.uleb128 0x5
 12646 00b6 3A       		.uleb128 0x3a
 12647 00b7 0B       		.uleb128 0xb
 12648 00b8 3B       		.uleb128 0x3b
 12649 00b9 05       		.uleb128 0x5
 12650 00ba 01       		.uleb128 0x1
 12651 00bb 13       		.uleb128 0x13
 12652 00bc 00       		.byte	0
 12653 00bd 00       		.byte	0
 12654 00be 11       		.uleb128 0x11
 12655 00bf 0D       		.uleb128 0xd
 12656 00c0 00       		.byte	0
 12657 00c1 03       		.uleb128 0x3
 12658 00c2 0E       		.uleb128 0xe
 12659 00c3 3A       		.uleb128 0x3a
 12660 00c4 0B       		.uleb128 0xb
 12661 00c5 3B       		.uleb128 0x3b
 12662 00c6 05       		.uleb128 0x5
 12663 00c7 49       		.uleb128 0x49
 12664 00c8 13       		.uleb128 0x13
 12665 00c9 38       		.uleb128 0x38
 12666 00ca 05       		.uleb128 0x5
 12667 00cb 00       		.byte	0
 12668 00cc 00       		.byte	0
 12669 00cd 12       		.uleb128 0x12
 12670 00ce 0D       		.uleb128 0xd
ARM GAS  C:\Users\mathi\AppData\Local\Temp\ccRLxsF0.s 			page 225


 12671 00cf 00       		.byte	0
 12672 00d0 03       		.uleb128 0x3
 12673 00d1 08       		.uleb128 0x8
 12674 00d2 3A       		.uleb128 0x3a
 12675 00d3 0B       		.uleb128 0xb
 12676 00d4 3B       		.uleb128 0x3b
 12677 00d5 05       		.uleb128 0x5
 12678 00d6 49       		.uleb128 0x49
 12679 00d7 13       		.uleb128 0x13
 12680 00d8 38       		.uleb128 0x38
 12681 00d9 05       		.uleb128 0x5
 12682 00da 00       		.byte	0
 12683 00db 00       		.byte	0
 12684 00dc 13       		.uleb128 0x13
 12685 00dd 01       		.uleb128 0x1
 12686 00de 01       		.byte	0x1
 12687 00df 49       		.uleb128 0x49
 12688 00e0 13       		.uleb128 0x13
 12689 00e1 01       		.uleb128 0x1
 12690 00e2 13       		.uleb128 0x13
 12691 00e3 00       		.byte	0
 12692 00e4 00       		.byte	0
 12693 00e5 14       		.uleb128 0x14
 12694 00e6 21       		.uleb128 0x21
 12695 00e7 00       		.byte	0
 12696 00e8 49       		.uleb128 0x49
 12697 00e9 13       		.uleb128 0x13
 12698 00ea 2F       		.uleb128 0x2f
 12699 00eb 0B       		.uleb128 0xb
 12700 00ec 00       		.byte	0
 12701 00ed 00       		.byte	0
 12702 00ee 15       		.uleb128 0x15
 12703 00ef 34       		.uleb128 0x34
 12704 00f0 00       		.byte	0
 12705 00f1 03       		.uleb128 0x3
 12706 00f2 0E       		.uleb128 0xe
 12707 00f3 3A       		.uleb128 0x3a
 12708 00f4 0B       		.uleb128 0xb
 12709 00f5 3B       		.uleb128 0x3b
 12710 00f6 05       		.uleb128 0x5
 12711 00f7 49       		.uleb128 0x49
 12712 00f8 13       		.uleb128 0x13
 12713 00f9 3F       		.uleb128 0x3f
 12714 00fa 19       		.uleb128 0x19
 12715 00fb 3C       		.uleb128 0x3c
 12716 00fc 19       		.uleb128 0x19
 12717 00fd 00       		.byte	0
 12718 00fe 00       		.byte	0
 12719 00ff 16       		.uleb128 0x16
 12720 0100 34       		.uleb128 0x34
 12721 0101 00       		.byte	0
 12722 0102 03       		.uleb128 0x3
 12723 0103 0E       		.uleb128 0xe
 12724 0104 3A       		.uleb128 0x3a
 12725 0105 0B       		.uleb128 0xb
 12726 0106 3B       		.uleb128 0x3b
 12727 0107 0B       		.uleb128 0xb
ARM GAS  C:\Users\mathi\AppData\Local\Temp\ccRLxsF0.s 			page 226


 12728 0108 49       		.uleb128 0x49
 12729 0109 13       		.uleb128 0x13
 12730 010a 3F       		.uleb128 0x3f
 12731 010b 19       		.uleb128 0x19
 12732 010c 3C       		.uleb128 0x3c
 12733 010d 19       		.uleb128 0x19
 12734 010e 00       		.byte	0
 12735 010f 00       		.byte	0
 12736 0110 17       		.uleb128 0x17
 12737 0111 13       		.uleb128 0x13
 12738 0112 01       		.byte	0x1
 12739 0113 0B       		.uleb128 0xb
 12740 0114 0B       		.uleb128 0xb
 12741 0115 3A       		.uleb128 0x3a
 12742 0116 0B       		.uleb128 0xb
 12743 0117 3B       		.uleb128 0x3b
 12744 0118 0B       		.uleb128 0xb
 12745 0119 01       		.uleb128 0x1
 12746 011a 13       		.uleb128 0x13
 12747 011b 00       		.byte	0
 12748 011c 00       		.byte	0
 12749 011d 18       		.uleb128 0x18
 12750 011e 0D       		.uleb128 0xd
 12751 011f 00       		.byte	0
 12752 0120 03       		.uleb128 0x3
 12753 0121 08       		.uleb128 0x8
 12754 0122 3A       		.uleb128 0x3a
 12755 0123 0B       		.uleb128 0xb
 12756 0124 3B       		.uleb128 0x3b
 12757 0125 0B       		.uleb128 0xb
 12758 0126 49       		.uleb128 0x49
 12759 0127 13       		.uleb128 0x13
 12760 0128 38       		.uleb128 0x38
 12761 0129 0B       		.uleb128 0xb
 12762 012a 00       		.byte	0
 12763 012b 00       		.byte	0
 12764 012c 19       		.uleb128 0x19
 12765 012d 13       		.uleb128 0x13
 12766 012e 01       		.byte	0x1
 12767 012f 0B       		.uleb128 0xb
 12768 0130 0B       		.uleb128 0xb
 12769 0131 3A       		.uleb128 0x3a
 12770 0132 0B       		.uleb128 0xb
 12771 0133 3B       		.uleb128 0x3b
 12772 0134 05       		.uleb128 0x5
 12773 0135 01       		.uleb128 0x1
 12774 0136 13       		.uleb128 0x13
 12775 0137 00       		.byte	0
 12776 0138 00       		.byte	0
 12777 0139 1A       		.uleb128 0x1a
 12778 013a 16       		.uleb128 0x16
 12779 013b 00       		.byte	0
 12780 013c 03       		.uleb128 0x3
 12781 013d 0E       		.uleb128 0xe
 12782 013e 3A       		.uleb128 0x3a
 12783 013f 0B       		.uleb128 0xb
 12784 0140 3B       		.uleb128 0x3b
ARM GAS  C:\Users\mathi\AppData\Local\Temp\ccRLxsF0.s 			page 227


 12785 0141 05       		.uleb128 0x5
 12786 0142 49       		.uleb128 0x49
 12787 0143 13       		.uleb128 0x13
 12788 0144 00       		.byte	0
 12789 0145 00       		.byte	0
 12790 0146 1B       		.uleb128 0x1b
 12791 0147 13       		.uleb128 0x13
 12792 0148 01       		.byte	0x1
 12793 0149 0B       		.uleb128 0xb
 12794 014a 05       		.uleb128 0x5
 12795 014b 3A       		.uleb128 0x3a
 12796 014c 0B       		.uleb128 0xb
 12797 014d 3B       		.uleb128 0x3b
 12798 014e 05       		.uleb128 0x5
 12799 014f 01       		.uleb128 0x1
 12800 0150 13       		.uleb128 0x13
 12801 0151 00       		.byte	0
 12802 0152 00       		.byte	0
 12803 0153 1C       		.uleb128 0x1c
 12804 0154 13       		.uleb128 0x13
 12805 0155 01       		.byte	0x1
 12806 0156 0B       		.uleb128 0xb
 12807 0157 05       		.uleb128 0x5
 12808 0158 3A       		.uleb128 0x3a
 12809 0159 0B       		.uleb128 0xb
 12810 015a 3B       		.uleb128 0x3b
 12811 015b 0B       		.uleb128 0xb
 12812 015c 01       		.uleb128 0x1
 12813 015d 13       		.uleb128 0x13
 12814 015e 00       		.byte	0
 12815 015f 00       		.byte	0
 12816 0160 1D       		.uleb128 0x1d
 12817 0161 17       		.uleb128 0x17
 12818 0162 01       		.byte	0x1
 12819 0163 0B       		.uleb128 0xb
 12820 0164 0B       		.uleb128 0xb
 12821 0165 3A       		.uleb128 0x3a
 12822 0166 0B       		.uleb128 0xb
 12823 0167 3B       		.uleb128 0x3b
 12824 0168 0B       		.uleb128 0xb
 12825 0169 01       		.uleb128 0x1
 12826 016a 13       		.uleb128 0x13
 12827 016b 00       		.byte	0
 12828 016c 00       		.byte	0
 12829 016d 1E       		.uleb128 0x1e
 12830 016e 0D       		.uleb128 0xd
 12831 016f 00       		.byte	0
 12832 0170 03       		.uleb128 0x3
 12833 0171 0E       		.uleb128 0xe
 12834 0172 3A       		.uleb128 0x3a
 12835 0173 0B       		.uleb128 0xb
 12836 0174 3B       		.uleb128 0x3b
 12837 0175 05       		.uleb128 0x5
 12838 0176 49       		.uleb128 0x49
 12839 0177 13       		.uleb128 0x13
 12840 0178 00       		.byte	0
 12841 0179 00       		.byte	0
ARM GAS  C:\Users\mathi\AppData\Local\Temp\ccRLxsF0.s 			page 228


 12842 017a 1F       		.uleb128 0x1f
 12843 017b 34       		.uleb128 0x34
 12844 017c 00       		.byte	0
 12845 017d 03       		.uleb128 0x3
 12846 017e 08       		.uleb128 0x8
 12847 017f 3A       		.uleb128 0x3a
 12848 0180 0B       		.uleb128 0xb
 12849 0181 3B       		.uleb128 0x3b
 12850 0182 05       		.uleb128 0x5
 12851 0183 49       		.uleb128 0x49
 12852 0184 13       		.uleb128 0x13
 12853 0185 3F       		.uleb128 0x3f
 12854 0186 19       		.uleb128 0x19
 12855 0187 3C       		.uleb128 0x3c
 12856 0188 19       		.uleb128 0x19
 12857 0189 00       		.byte	0
 12858 018a 00       		.byte	0
 12859 018b 20       		.uleb128 0x20
 12860 018c 15       		.uleb128 0x15
 12861 018d 01       		.byte	0x1
 12862 018e 27       		.uleb128 0x27
 12863 018f 19       		.uleb128 0x19
 12864 0190 49       		.uleb128 0x49
 12865 0191 13       		.uleb128 0x13
 12866 0192 01       		.uleb128 0x1
 12867 0193 13       		.uleb128 0x13
 12868 0194 00       		.byte	0
 12869 0195 00       		.byte	0
 12870 0196 21       		.uleb128 0x21
 12871 0197 04       		.uleb128 0x4
 12872 0198 01       		.byte	0x1
 12873 0199 3E       		.uleb128 0x3e
 12874 019a 0B       		.uleb128 0xb
 12875 019b 0B       		.uleb128 0xb
 12876 019c 0B       		.uleb128 0xb
 12877 019d 49       		.uleb128 0x49
 12878 019e 13       		.uleb128 0x13
 12879 019f 3A       		.uleb128 0x3a
 12880 01a0 0B       		.uleb128 0xb
 12881 01a1 3B       		.uleb128 0x3b
 12882 01a2 0B       		.uleb128 0xb
 12883 01a3 01       		.uleb128 0x1
 12884 01a4 13       		.uleb128 0x13
 12885 01a5 00       		.byte	0
 12886 01a6 00       		.byte	0
 12887 01a7 22       		.uleb128 0x22
 12888 01a8 28       		.uleb128 0x28
 12889 01a9 00       		.byte	0
 12890 01aa 03       		.uleb128 0x3
 12891 01ab 0E       		.uleb128 0xe
 12892 01ac 1C       		.uleb128 0x1c
 12893 01ad 0B       		.uleb128 0xb
 12894 01ae 00       		.byte	0
 12895 01af 00       		.byte	0
 12896 01b0 23       		.uleb128 0x23
 12897 01b1 0D       		.uleb128 0xd
 12898 01b2 00       		.byte	0
ARM GAS  C:\Users\mathi\AppData\Local\Temp\ccRLxsF0.s 			page 229


 12899 01b3 03       		.uleb128 0x3
 12900 01b4 08       		.uleb128 0x8
 12901 01b5 3A       		.uleb128 0x3a
 12902 01b6 0B       		.uleb128 0xb
 12903 01b7 3B       		.uleb128 0x3b
 12904 01b8 0B       		.uleb128 0xb
 12905 01b9 49       		.uleb128 0x49
 12906 01ba 13       		.uleb128 0x13
 12907 01bb 00       		.byte	0
 12908 01bc 00       		.byte	0
 12909 01bd 24       		.uleb128 0x24
 12910 01be 04       		.uleb128 0x4
 12911 01bf 01       		.byte	0x1
 12912 01c0 3E       		.uleb128 0x3e
 12913 01c1 0B       		.uleb128 0xb
 12914 01c2 0B       		.uleb128 0xb
 12915 01c3 0B       		.uleb128 0xb
 12916 01c4 49       		.uleb128 0x49
 12917 01c5 13       		.uleb128 0x13
 12918 01c6 3A       		.uleb128 0x3a
 12919 01c7 0B       		.uleb128 0xb
 12920 01c8 3B       		.uleb128 0x3b
 12921 01c9 05       		.uleb128 0x5
 12922 01ca 01       		.uleb128 0x1
 12923 01cb 13       		.uleb128 0x13
 12924 01cc 00       		.byte	0
 12925 01cd 00       		.byte	0
 12926 01ce 25       		.uleb128 0x25
 12927 01cf 26       		.uleb128 0x26
 12928 01d0 00       		.byte	0
 12929 01d1 00       		.byte	0
 12930 01d2 00       		.byte	0
 12931 01d3 26       		.uleb128 0x26
 12932 01d4 13       		.uleb128 0x13
 12933 01d5 01       		.byte	0x1
 12934 01d6 0B       		.uleb128 0xb
 12935 01d7 06       		.uleb128 0x6
 12936 01d8 3A       		.uleb128 0x3a
 12937 01d9 0B       		.uleb128 0xb
 12938 01da 3B       		.uleb128 0x3b
 12939 01db 0B       		.uleb128 0xb
 12940 01dc 01       		.uleb128 0x1
 12941 01dd 13       		.uleb128 0x13
 12942 01de 00       		.byte	0
 12943 01df 00       		.byte	0
 12944 01e0 27       		.uleb128 0x27
 12945 01e1 0D       		.uleb128 0xd
 12946 01e2 00       		.byte	0
 12947 01e3 03       		.uleb128 0x3
 12948 01e4 0E       		.uleb128 0xe
 12949 01e5 3A       		.uleb128 0x3a
 12950 01e6 0B       		.uleb128 0xb
 12951 01e7 3B       		.uleb128 0x3b
 12952 01e8 0B       		.uleb128 0xb
 12953 01e9 49       		.uleb128 0x49
 12954 01ea 13       		.uleb128 0x13
 12955 01eb 38       		.uleb128 0x38
ARM GAS  C:\Users\mathi\AppData\Local\Temp\ccRLxsF0.s 			page 230


 12956 01ec 05       		.uleb128 0x5
 12957 01ed 00       		.byte	0
 12958 01ee 00       		.byte	0
 12959 01ef 28       		.uleb128 0x28
 12960 01f0 0D       		.uleb128 0xd
 12961 01f1 00       		.byte	0
 12962 01f2 03       		.uleb128 0x3
 12963 01f3 08       		.uleb128 0x8
 12964 01f4 3A       		.uleb128 0x3a
 12965 01f5 0B       		.uleb128 0xb
 12966 01f6 3B       		.uleb128 0x3b
 12967 01f7 0B       		.uleb128 0xb
 12968 01f8 49       		.uleb128 0x49
 12969 01f9 13       		.uleb128 0x13
 12970 01fa 38       		.uleb128 0x38
 12971 01fb 05       		.uleb128 0x5
 12972 01fc 00       		.byte	0
 12973 01fd 00       		.byte	0
 12974 01fe 29       		.uleb128 0x29
 12975 01ff 21       		.uleb128 0x21
 12976 0200 00       		.byte	0
 12977 0201 49       		.uleb128 0x49
 12978 0202 13       		.uleb128 0x13
 12979 0203 2F       		.uleb128 0x2f
 12980 0204 05       		.uleb128 0x5
 12981 0205 00       		.byte	0
 12982 0206 00       		.byte	0
 12983 0207 2A       		.uleb128 0x2a
 12984 0208 0D       		.uleb128 0xd
 12985 0209 00       		.byte	0
 12986 020a 03       		.uleb128 0x3
 12987 020b 0E       		.uleb128 0xe
 12988 020c 3A       		.uleb128 0x3a
 12989 020d 0B       		.uleb128 0xb
 12990 020e 3B       		.uleb128 0x3b
 12991 020f 0B       		.uleb128 0xb
 12992 0210 49       		.uleb128 0x49
 12993 0211 13       		.uleb128 0x13
 12994 0212 00       		.byte	0
 12995 0213 00       		.byte	0
 12996 0214 2B       		.uleb128 0x2b
 12997 0215 17       		.uleb128 0x17
 12998 0216 01       		.byte	0x1
 12999 0217 0B       		.uleb128 0xb
 13000 0218 0B       		.uleb128 0xb
 13001 0219 3A       		.uleb128 0x3a
 13002 021a 0B       		.uleb128 0xb
 13003 021b 3B       		.uleb128 0x3b
 13004 021c 05       		.uleb128 0x5
 13005 021d 01       		.uleb128 0x1
 13006 021e 13       		.uleb128 0x13
 13007 021f 00       		.byte	0
 13008 0220 00       		.byte	0
 13009 0221 2C       		.uleb128 0x2c
 13010 0222 15       		.uleb128 0x15
 13011 0223 00       		.byte	0
 13012 0224 27       		.uleb128 0x27
ARM GAS  C:\Users\mathi\AppData\Local\Temp\ccRLxsF0.s 			page 231


 13013 0225 19       		.uleb128 0x19
 13014 0226 00       		.byte	0
 13015 0227 00       		.byte	0
 13016 0228 2D       		.uleb128 0x2d
 13017 0229 17       		.uleb128 0x17
 13018 022a 01       		.byte	0x1
 13019 022b 03       		.uleb128 0x3
 13020 022c 0E       		.uleb128 0xe
 13021 022d 0B       		.uleb128 0xb
 13022 022e 05       		.uleb128 0x5
 13023 022f 3A       		.uleb128 0x3a
 13024 0230 0B       		.uleb128 0xb
 13025 0231 3B       		.uleb128 0x3b
 13026 0232 0B       		.uleb128 0xb
 13027 0233 01       		.uleb128 0x1
 13028 0234 13       		.uleb128 0x13
 13029 0235 00       		.byte	0
 13030 0236 00       		.byte	0
 13031 0237 2E       		.uleb128 0x2e
 13032 0238 21       		.uleb128 0x21
 13033 0239 00       		.byte	0
 13034 023a 00       		.byte	0
 13035 023b 00       		.byte	0
 13036 023c 2F       		.uleb128 0x2f
 13037 023d 34       		.uleb128 0x34
 13038 023e 00       		.byte	0
 13039 023f 03       		.uleb128 0x3
 13040 0240 08       		.uleb128 0x8
 13041 0241 3A       		.uleb128 0x3a
 13042 0242 0B       		.uleb128 0xb
 13043 0243 3B       		.uleb128 0x3b
 13044 0244 0B       		.uleb128 0xb
 13045 0245 49       		.uleb128 0x49
 13046 0246 13       		.uleb128 0x13
 13047 0247 3F       		.uleb128 0x3f
 13048 0248 19       		.uleb128 0x19
 13049 0249 3C       		.uleb128 0x3c
 13050 024a 19       		.uleb128 0x19
 13051 024b 00       		.byte	0
 13052 024c 00       		.byte	0
 13053 024d 30       		.uleb128 0x30
 13054 024e 34       		.uleb128 0x34
 13055 024f 00       		.byte	0
 13056 0250 03       		.uleb128 0x3
 13057 0251 0E       		.uleb128 0xe
 13058 0252 3A       		.uleb128 0x3a
 13059 0253 0B       		.uleb128 0xb
 13060 0254 3B       		.uleb128 0x3b
 13061 0255 0B       		.uleb128 0xb
 13062 0256 49       		.uleb128 0x49
 13063 0257 13       		.uleb128 0x13
 13064 0258 02       		.uleb128 0x2
 13065 0259 18       		.uleb128 0x18
 13066 025a 00       		.byte	0
 13067 025b 00       		.byte	0
 13068 025c 31       		.uleb128 0x31
 13069 025d 34       		.uleb128 0x34
ARM GAS  C:\Users\mathi\AppData\Local\Temp\ccRLxsF0.s 			page 232


 13070 025e 00       		.byte	0
 13071 025f 47       		.uleb128 0x47
 13072 0260 13       		.uleb128 0x13
 13073 0261 3A       		.uleb128 0x3a
 13074 0262 0B       		.uleb128 0xb
 13075 0263 3B       		.uleb128 0x3b
 13076 0264 0B       		.uleb128 0xb
 13077 0265 02       		.uleb128 0x2
 13078 0266 18       		.uleb128 0x18
 13079 0267 00       		.byte	0
 13080 0268 00       		.byte	0
 13081 0269 32       		.uleb128 0x32
 13082 026a 34       		.uleb128 0x34
 13083 026b 00       		.byte	0
 13084 026c 03       		.uleb128 0x3
 13085 026d 08       		.uleb128 0x8
 13086 026e 3A       		.uleb128 0x3a
 13087 026f 0B       		.uleb128 0xb
 13088 0270 3B       		.uleb128 0x3b
 13089 0271 0B       		.uleb128 0xb
 13090 0272 49       		.uleb128 0x49
 13091 0273 13       		.uleb128 0x13
 13092 0274 02       		.uleb128 0x2
 13093 0275 18       		.uleb128 0x18
 13094 0276 00       		.byte	0
 13095 0277 00       		.byte	0
 13096 0278 33       		.uleb128 0x33
 13097 0279 34       		.uleb128 0x34
 13098 027a 00       		.byte	0
 13099 027b 47       		.uleb128 0x47
 13100 027c 13       		.uleb128 0x13
 13101 027d 3A       		.uleb128 0x3a
 13102 027e 0B       		.uleb128 0xb
 13103 027f 3B       		.uleb128 0x3b
 13104 0280 05       		.uleb128 0x5
 13105 0281 02       		.uleb128 0x2
 13106 0282 18       		.uleb128 0x18
 13107 0283 00       		.byte	0
 13108 0284 00       		.byte	0
 13109 0285 34       		.uleb128 0x34
 13110 0286 34       		.uleb128 0x34
 13111 0287 00       		.byte	0
 13112 0288 03       		.uleb128 0x3
 13113 0289 08       		.uleb128 0x8
 13114 028a 3A       		.uleb128 0x3a
 13115 028b 0B       		.uleb128 0xb
 13116 028c 3B       		.uleb128 0x3b
 13117 028d 05       		.uleb128 0x5
 13118 028e 49       		.uleb128 0x49
 13119 028f 13       		.uleb128 0x13
 13120 0290 02       		.uleb128 0x2
 13121 0291 18       		.uleb128 0x18
 13122 0292 00       		.byte	0
 13123 0293 00       		.byte	0
 13124 0294 35       		.uleb128 0x35
 13125 0295 2E       		.uleb128 0x2e
 13126 0296 01       		.byte	0x1
ARM GAS  C:\Users\mathi\AppData\Local\Temp\ccRLxsF0.s 			page 233


 13127 0297 3F       		.uleb128 0x3f
 13128 0298 19       		.uleb128 0x19
 13129 0299 03       		.uleb128 0x3
 13130 029a 0E       		.uleb128 0xe
 13131 029b 3A       		.uleb128 0x3a
 13132 029c 0B       		.uleb128 0xb
 13133 029d 3B       		.uleb128 0x3b
 13134 029e 05       		.uleb128 0x5
 13135 029f 27       		.uleb128 0x27
 13136 02a0 19       		.uleb128 0x19
 13137 02a1 11       		.uleb128 0x11
 13138 02a2 01       		.uleb128 0x1
 13139 02a3 12       		.uleb128 0x12
 13140 02a4 06       		.uleb128 0x6
 13141 02a5 40       		.uleb128 0x40
 13142 02a6 18       		.uleb128 0x18
 13143 02a7 9642     		.uleb128 0x2116
 13144 02a9 19       		.uleb128 0x19
 13145 02aa 01       		.uleb128 0x1
 13146 02ab 13       		.uleb128 0x13
 13147 02ac 00       		.byte	0
 13148 02ad 00       		.byte	0
 13149 02ae 36       		.uleb128 0x36
 13150 02af 05       		.uleb128 0x5
 13151 02b0 00       		.byte	0
 13152 02b1 03       		.uleb128 0x3
 13153 02b2 08       		.uleb128 0x8
 13154 02b3 3A       		.uleb128 0x3a
 13155 02b4 0B       		.uleb128 0xb
 13156 02b5 3B       		.uleb128 0x3b
 13157 02b6 05       		.uleb128 0x5
 13158 02b7 49       		.uleb128 0x49
 13159 02b8 13       		.uleb128 0x13
 13160 02b9 02       		.uleb128 0x2
 13161 02ba 17       		.uleb128 0x17
 13162 02bb 00       		.byte	0
 13163 02bc 00       		.byte	0
 13164 02bd 37       		.uleb128 0x37
 13165 02be 34       		.uleb128 0x34
 13166 02bf 00       		.byte	0
 13167 02c0 03       		.uleb128 0x3
 13168 02c1 08       		.uleb128 0x8
 13169 02c2 3A       		.uleb128 0x3a
 13170 02c3 0B       		.uleb128 0xb
 13171 02c4 3B       		.uleb128 0x3b
 13172 02c5 05       		.uleb128 0x5
 13173 02c6 49       		.uleb128 0x49
 13174 02c7 13       		.uleb128 0x13
 13175 02c8 02       		.uleb128 0x2
 13176 02c9 17       		.uleb128 0x17
 13177 02ca 00       		.byte	0
 13178 02cb 00       		.byte	0
 13179 02cc 38       		.uleb128 0x38
 13180 02cd 1D       		.uleb128 0x1d
 13181 02ce 01       		.byte	0x1
 13182 02cf 31       		.uleb128 0x31
 13183 02d0 13       		.uleb128 0x13
ARM GAS  C:\Users\mathi\AppData\Local\Temp\ccRLxsF0.s 			page 234


 13184 02d1 52       		.uleb128 0x52
 13185 02d2 01       		.uleb128 0x1
 13186 02d3 55       		.uleb128 0x55
 13187 02d4 17       		.uleb128 0x17
 13188 02d5 58       		.uleb128 0x58
 13189 02d6 0B       		.uleb128 0xb
 13190 02d7 59       		.uleb128 0x59
 13191 02d8 05       		.uleb128 0x5
 13192 02d9 01       		.uleb128 0x1
 13193 02da 13       		.uleb128 0x13
 13194 02db 00       		.byte	0
 13195 02dc 00       		.byte	0
 13196 02dd 39       		.uleb128 0x39
 13197 02de 05       		.uleb128 0x5
 13198 02df 00       		.byte	0
 13199 02e0 31       		.uleb128 0x31
 13200 02e1 13       		.uleb128 0x13
 13201 02e2 02       		.uleb128 0x2
 13202 02e3 18       		.uleb128 0x18
 13203 02e4 00       		.byte	0
 13204 02e5 00       		.byte	0
 13205 02e6 3A       		.uleb128 0x3a
 13206 02e7 898201   		.uleb128 0x4109
 13207 02ea 01       		.byte	0x1
 13208 02eb 11       		.uleb128 0x11
 13209 02ec 01       		.uleb128 0x1
 13210 02ed 9342     		.uleb128 0x2113
 13211 02ef 18       		.uleb128 0x18
 13212 02f0 00       		.byte	0
 13213 02f1 00       		.byte	0
 13214 02f2 3B       		.uleb128 0x3b
 13215 02f3 8A8201   		.uleb128 0x410a
 13216 02f6 00       		.byte	0
 13217 02f7 02       		.uleb128 0x2
 13218 02f8 18       		.uleb128 0x18
 13219 02f9 9142     		.uleb128 0x2111
 13220 02fb 18       		.uleb128 0x18
 13221 02fc 00       		.byte	0
 13222 02fd 00       		.byte	0
 13223 02fe 3C       		.uleb128 0x3c
 13224 02ff 1D       		.uleb128 0x1d
 13225 0300 01       		.byte	0x1
 13226 0301 31       		.uleb128 0x31
 13227 0302 13       		.uleb128 0x13
 13228 0303 11       		.uleb128 0x11
 13229 0304 01       		.uleb128 0x1
 13230 0305 12       		.uleb128 0x12
 13231 0306 06       		.uleb128 0x6
 13232 0307 58       		.uleb128 0x58
 13233 0308 0B       		.uleb128 0xb
 13234 0309 59       		.uleb128 0x59
 13235 030a 05       		.uleb128 0x5
 13236 030b 01       		.uleb128 0x1
 13237 030c 13       		.uleb128 0x13
 13238 030d 00       		.byte	0
 13239 030e 00       		.byte	0
 13240 030f 3D       		.uleb128 0x3d
ARM GAS  C:\Users\mathi\AppData\Local\Temp\ccRLxsF0.s 			page 235


 13241 0310 05       		.uleb128 0x5
 13242 0311 00       		.byte	0
 13243 0312 31       		.uleb128 0x31
 13244 0313 13       		.uleb128 0x13
 13245 0314 00       		.byte	0
 13246 0315 00       		.byte	0
 13247 0316 3E       		.uleb128 0x3e
 13248 0317 1D       		.uleb128 0x1d
 13249 0318 01       		.byte	0x1
 13250 0319 31       		.uleb128 0x31
 13251 031a 13       		.uleb128 0x13
 13252 031b 11       		.uleb128 0x11
 13253 031c 01       		.uleb128 0x1
 13254 031d 12       		.uleb128 0x12
 13255 031e 06       		.uleb128 0x6
 13256 031f 58       		.uleb128 0x58
 13257 0320 0B       		.uleb128 0xb
 13258 0321 59       		.uleb128 0x59
 13259 0322 0B       		.uleb128 0xb
 13260 0323 01       		.uleb128 0x1
 13261 0324 13       		.uleb128 0x13
 13262 0325 00       		.byte	0
 13263 0326 00       		.byte	0
 13264 0327 3F       		.uleb128 0x3f
 13265 0328 05       		.uleb128 0x5
 13266 0329 00       		.byte	0
 13267 032a 31       		.uleb128 0x31
 13268 032b 13       		.uleb128 0x13
 13269 032c 02       		.uleb128 0x2
 13270 032d 17       		.uleb128 0x17
 13271 032e 00       		.byte	0
 13272 032f 00       		.byte	0
 13273 0330 40       		.uleb128 0x40
 13274 0331 898201   		.uleb128 0x4109
 13275 0334 01       		.byte	0x1
 13276 0335 11       		.uleb128 0x11
 13277 0336 01       		.uleb128 0x1
 13278 0337 00       		.byte	0
 13279 0338 00       		.byte	0
 13280 0339 41       		.uleb128 0x41
 13281 033a 1D       		.uleb128 0x1d
 13282 033b 01       		.byte	0x1
 13283 033c 31       		.uleb128 0x31
 13284 033d 13       		.uleb128 0x13
 13285 033e 52       		.uleb128 0x52
 13286 033f 01       		.uleb128 0x1
 13287 0340 55       		.uleb128 0x55
 13288 0341 17       		.uleb128 0x17
 13289 0342 58       		.uleb128 0x58
 13290 0343 0B       		.uleb128 0xb
 13291 0344 59       		.uleb128 0x59
 13292 0345 0B       		.uleb128 0xb
 13293 0346 01       		.uleb128 0x1
 13294 0347 13       		.uleb128 0x13
 13295 0348 00       		.byte	0
 13296 0349 00       		.byte	0
 13297 034a 42       		.uleb128 0x42
ARM GAS  C:\Users\mathi\AppData\Local\Temp\ccRLxsF0.s 			page 236


 13298 034b 0B       		.uleb128 0xb
 13299 034c 01       		.byte	0x1
 13300 034d 55       		.uleb128 0x55
 13301 034e 17       		.uleb128 0x17
 13302 034f 00       		.byte	0
 13303 0350 00       		.byte	0
 13304 0351 43       		.uleb128 0x43
 13305 0352 34       		.uleb128 0x34
 13306 0353 00       		.byte	0
 13307 0354 31       		.uleb128 0x31
 13308 0355 13       		.uleb128 0x13
 13309 0356 00       		.byte	0
 13310 0357 00       		.byte	0
 13311 0358 44       		.uleb128 0x44
 13312 0359 0B       		.uleb128 0xb
 13313 035a 01       		.byte	0x1
 13314 035b 31       		.uleb128 0x31
 13315 035c 13       		.uleb128 0x13
 13316 035d 55       		.uleb128 0x55
 13317 035e 17       		.uleb128 0x17
 13318 035f 00       		.byte	0
 13319 0360 00       		.byte	0
 13320 0361 45       		.uleb128 0x45
 13321 0362 34       		.uleb128 0x34
 13322 0363 00       		.byte	0
 13323 0364 31       		.uleb128 0x31
 13324 0365 13       		.uleb128 0x13
 13325 0366 02       		.uleb128 0x2
 13326 0367 18       		.uleb128 0x18
 13327 0368 00       		.byte	0
 13328 0369 00       		.byte	0
 13329 036a 46       		.uleb128 0x46
 13330 036b 34       		.uleb128 0x34
 13331 036c 00       		.byte	0
 13332 036d 31       		.uleb128 0x31
 13333 036e 13       		.uleb128 0x13
 13334 036f 02       		.uleb128 0x2
 13335 0370 17       		.uleb128 0x17
 13336 0371 00       		.byte	0
 13337 0372 00       		.byte	0
 13338 0373 47       		.uleb128 0x47
 13339 0374 0B       		.uleb128 0xb
 13340 0375 01       		.byte	0x1
 13341 0376 11       		.uleb128 0x11
 13342 0377 01       		.uleb128 0x1
 13343 0378 12       		.uleb128 0x12
 13344 0379 06       		.uleb128 0x6
 13345 037a 00       		.byte	0
 13346 037b 00       		.byte	0
 13347 037c 48       		.uleb128 0x48
 13348 037d 898201   		.uleb128 0x4109
 13349 0380 01       		.byte	0x1
 13350 0381 11       		.uleb128 0x11
 13351 0382 01       		.uleb128 0x1
 13352 0383 01       		.uleb128 0x1
 13353 0384 13       		.uleb128 0x13
 13354 0385 00       		.byte	0
ARM GAS  C:\Users\mathi\AppData\Local\Temp\ccRLxsF0.s 			page 237


 13355 0386 00       		.byte	0
 13356 0387 49       		.uleb128 0x49
 13357 0388 1D       		.uleb128 0x1d
 13358 0389 00       		.byte	0
 13359 038a 31       		.uleb128 0x31
 13360 038b 13       		.uleb128 0x13
 13361 038c 52       		.uleb128 0x52
 13362 038d 01       		.uleb128 0x1
 13363 038e 55       		.uleb128 0x55
 13364 038f 17       		.uleb128 0x17
 13365 0390 58       		.uleb128 0x58
 13366 0391 0B       		.uleb128 0xb
 13367 0392 59       		.uleb128 0x59
 13368 0393 05       		.uleb128 0x5
 13369 0394 00       		.byte	0
 13370 0395 00       		.byte	0
 13371 0396 4A       		.uleb128 0x4a
 13372 0397 1D       		.uleb128 0x1d
 13373 0398 01       		.byte	0x1
 13374 0399 31       		.uleb128 0x31
 13375 039a 13       		.uleb128 0x13
 13376 039b 11       		.uleb128 0x11
 13377 039c 01       		.uleb128 0x1
 13378 039d 12       		.uleb128 0x12
 13379 039e 06       		.uleb128 0x6
 13380 039f 58       		.uleb128 0x58
 13381 03a0 0B       		.uleb128 0xb
 13382 03a1 59       		.uleb128 0x59
 13383 03a2 05       		.uleb128 0x5
 13384 03a3 00       		.byte	0
 13385 03a4 00       		.byte	0
 13386 03a5 4B       		.uleb128 0x4b
 13387 03a6 898201   		.uleb128 0x4109
 13388 03a9 00       		.byte	0
 13389 03aa 11       		.uleb128 0x11
 13390 03ab 01       		.uleb128 0x1
 13391 03ac 31       		.uleb128 0x31
 13392 03ad 13       		.uleb128 0x13
 13393 03ae 00       		.byte	0
 13394 03af 00       		.byte	0
 13395 03b0 4C       		.uleb128 0x4c
 13396 03b1 0B       		.uleb128 0xb
 13397 03b2 01       		.byte	0x1
 13398 03b3 31       		.uleb128 0x31
 13399 03b4 13       		.uleb128 0x13
 13400 03b5 11       		.uleb128 0x11
 13401 03b6 01       		.uleb128 0x1
 13402 03b7 12       		.uleb128 0x12
 13403 03b8 06       		.uleb128 0x6
 13404 03b9 01       		.uleb128 0x1
 13405 03ba 13       		.uleb128 0x13
 13406 03bb 00       		.byte	0
 13407 03bc 00       		.byte	0
 13408 03bd 4D       		.uleb128 0x4d
 13409 03be 898201   		.uleb128 0x4109
 13410 03c1 01       		.byte	0x1
 13411 03c2 11       		.uleb128 0x11
ARM GAS  C:\Users\mathi\AppData\Local\Temp\ccRLxsF0.s 			page 238


 13412 03c3 01       		.uleb128 0x1
 13413 03c4 9542     		.uleb128 0x2115
 13414 03c6 19       		.uleb128 0x19
 13415 03c7 01       		.uleb128 0x1
 13416 03c8 13       		.uleb128 0x13
 13417 03c9 00       		.byte	0
 13418 03ca 00       		.byte	0
 13419 03cb 4E       		.uleb128 0x4e
 13420 03cc 1D       		.uleb128 0x1d
 13421 03cd 01       		.byte	0x1
 13422 03ce 31       		.uleb128 0x31
 13423 03cf 13       		.uleb128 0x13
 13424 03d0 11       		.uleb128 0x11
 13425 03d1 01       		.uleb128 0x1
 13426 03d2 12       		.uleb128 0x12
 13427 03d3 06       		.uleb128 0x6
 13428 03d4 58       		.uleb128 0x58
 13429 03d5 0B       		.uleb128 0xb
 13430 03d6 59       		.uleb128 0x59
 13431 03d7 0B       		.uleb128 0xb
 13432 03d8 00       		.byte	0
 13433 03d9 00       		.byte	0
 13434 03da 4F       		.uleb128 0x4f
 13435 03db 898201   		.uleb128 0x4109
 13436 03de 01       		.byte	0x1
 13437 03df 11       		.uleb128 0x11
 13438 03e0 01       		.uleb128 0x1
 13439 03e1 31       		.uleb128 0x31
 13440 03e2 13       		.uleb128 0x13
 13441 03e3 00       		.byte	0
 13442 03e4 00       		.byte	0
 13443 03e5 50       		.uleb128 0x50
 13444 03e6 2E       		.uleb128 0x2e
 13445 03e7 01       		.byte	0x1
 13446 03e8 03       		.uleb128 0x3
 13447 03e9 0E       		.uleb128 0xe
 13448 03ea 3A       		.uleb128 0x3a
 13449 03eb 0B       		.uleb128 0xb
 13450 03ec 3B       		.uleb128 0x3b
 13451 03ed 05       		.uleb128 0x5
 13452 03ee 27       		.uleb128 0x27
 13453 03ef 19       		.uleb128 0x19
 13454 03f0 20       		.uleb128 0x20
 13455 03f1 0B       		.uleb128 0xb
 13456 03f2 01       		.uleb128 0x1
 13457 03f3 13       		.uleb128 0x13
 13458 03f4 00       		.byte	0
 13459 03f5 00       		.byte	0
 13460 03f6 51       		.uleb128 0x51
 13461 03f7 34       		.uleb128 0x34
 13462 03f8 00       		.byte	0
 13463 03f9 03       		.uleb128 0x3
 13464 03fa 08       		.uleb128 0x8
 13465 03fb 3A       		.uleb128 0x3a
 13466 03fc 0B       		.uleb128 0xb
 13467 03fd 3B       		.uleb128 0x3b
 13468 03fe 05       		.uleb128 0x5
ARM GAS  C:\Users\mathi\AppData\Local\Temp\ccRLxsF0.s 			page 239


 13469 03ff 49       		.uleb128 0x49
 13470 0400 13       		.uleb128 0x13
 13471 0401 00       		.byte	0
 13472 0402 00       		.byte	0
 13473 0403 52       		.uleb128 0x52
 13474 0404 05       		.uleb128 0x5
 13475 0405 00       		.byte	0
 13476 0406 03       		.uleb128 0x3
 13477 0407 08       		.uleb128 0x8
 13478 0408 3A       		.uleb128 0x3a
 13479 0409 0B       		.uleb128 0xb
 13480 040a 3B       		.uleb128 0x3b
 13481 040b 05       		.uleb128 0x5
 13482 040c 49       		.uleb128 0x49
 13483 040d 13       		.uleb128 0x13
 13484 040e 00       		.byte	0
 13485 040f 00       		.byte	0
 13486 0410 53       		.uleb128 0x53
 13487 0411 2E       		.uleb128 0x2e
 13488 0412 01       		.byte	0x1
 13489 0413 3F       		.uleb128 0x3f
 13490 0414 19       		.uleb128 0x19
 13491 0415 03       		.uleb128 0x3
 13492 0416 0E       		.uleb128 0xe
 13493 0417 3A       		.uleb128 0x3a
 13494 0418 0B       		.uleb128 0xb
 13495 0419 3B       		.uleb128 0x3b
 13496 041a 05       		.uleb128 0x5
 13497 041b 27       		.uleb128 0x27
 13498 041c 19       		.uleb128 0x19
 13499 041d 11       		.uleb128 0x11
 13500 041e 01       		.uleb128 0x1
 13501 041f 12       		.uleb128 0x12
 13502 0420 06       		.uleb128 0x6
 13503 0421 40       		.uleb128 0x40
 13504 0422 18       		.uleb128 0x18
 13505 0423 9742     		.uleb128 0x2117
 13506 0425 19       		.uleb128 0x19
 13507 0426 01       		.uleb128 0x1
 13508 0427 13       		.uleb128 0x13
 13509 0428 00       		.byte	0
 13510 0429 00       		.byte	0
 13511 042a 54       		.uleb128 0x54
 13512 042b 34       		.uleb128 0x34
 13513 042c 00       		.byte	0
 13514 042d 03       		.uleb128 0x3
 13515 042e 0E       		.uleb128 0xe
 13516 042f 3A       		.uleb128 0x3a
 13517 0430 0B       		.uleb128 0xb
 13518 0431 3B       		.uleb128 0x3b
 13519 0432 05       		.uleb128 0x5
 13520 0433 49       		.uleb128 0x49
 13521 0434 13       		.uleb128 0x13
 13522 0435 02       		.uleb128 0x2
 13523 0436 18       		.uleb128 0x18
 13524 0437 00       		.byte	0
 13525 0438 00       		.byte	0
ARM GAS  C:\Users\mathi\AppData\Local\Temp\ccRLxsF0.s 			page 240


 13526 0439 55       		.uleb128 0x55
 13527 043a 1D       		.uleb128 0x1d
 13528 043b 01       		.byte	0x1
 13529 043c 31       		.uleb128 0x31
 13530 043d 13       		.uleb128 0x13
 13531 043e 52       		.uleb128 0x52
 13532 043f 01       		.uleb128 0x1
 13533 0440 55       		.uleb128 0x55
 13534 0441 17       		.uleb128 0x17
 13535 0442 58       		.uleb128 0x58
 13536 0443 0B       		.uleb128 0xb
 13537 0444 59       		.uleb128 0x59
 13538 0445 05       		.uleb128 0x5
 13539 0446 00       		.byte	0
 13540 0447 00       		.byte	0
 13541 0448 56       		.uleb128 0x56
 13542 0449 2E       		.uleb128 0x2e
 13543 044a 01       		.byte	0x1
 13544 044b 03       		.uleb128 0x3
 13545 044c 08       		.uleb128 0x8
 13546 044d 3A       		.uleb128 0x3a
 13547 044e 0B       		.uleb128 0xb
 13548 044f 3B       		.uleb128 0x3b
 13549 0450 05       		.uleb128 0x5
 13550 0451 27       		.uleb128 0x27
 13551 0452 19       		.uleb128 0x19
 13552 0453 11       		.uleb128 0x11
 13553 0454 01       		.uleb128 0x1
 13554 0455 12       		.uleb128 0x12
 13555 0456 06       		.uleb128 0x6
 13556 0457 40       		.uleb128 0x40
 13557 0458 18       		.uleb128 0x18
 13558 0459 9742     		.uleb128 0x2117
 13559 045b 19       		.uleb128 0x19
 13560 045c 01       		.uleb128 0x1
 13561 045d 13       		.uleb128 0x13
 13562 045e 00       		.byte	0
 13563 045f 00       		.byte	0
 13564 0460 57       		.uleb128 0x57
 13565 0461 2E       		.uleb128 0x2e
 13566 0462 01       		.byte	0x1
 13567 0463 3F       		.uleb128 0x3f
 13568 0464 19       		.uleb128 0x19
 13569 0465 03       		.uleb128 0x3
 13570 0466 0E       		.uleb128 0xe
 13571 0467 3A       		.uleb128 0x3a
 13572 0468 0B       		.uleb128 0xb
 13573 0469 3B       		.uleb128 0x3b
 13574 046a 0B       		.uleb128 0xb
 13575 046b 27       		.uleb128 0x27
 13576 046c 19       		.uleb128 0x19
 13577 046d 49       		.uleb128 0x49
 13578 046e 13       		.uleb128 0x13
 13579 046f 11       		.uleb128 0x11
 13580 0470 01       		.uleb128 0x1
 13581 0471 12       		.uleb128 0x12
 13582 0472 06       		.uleb128 0x6
ARM GAS  C:\Users\mathi\AppData\Local\Temp\ccRLxsF0.s 			page 241


 13583 0473 40       		.uleb128 0x40
 13584 0474 18       		.uleb128 0x18
 13585 0475 9742     		.uleb128 0x2117
 13586 0477 19       		.uleb128 0x19
 13587 0478 01       		.uleb128 0x1
 13588 0479 13       		.uleb128 0x13
 13589 047a 00       		.byte	0
 13590 047b 00       		.byte	0
 13591 047c 58       		.uleb128 0x58
 13592 047d 1D       		.uleb128 0x1d
 13593 047e 00       		.byte	0
 13594 047f 31       		.uleb128 0x31
 13595 0480 13       		.uleb128 0x13
 13596 0481 52       		.uleb128 0x52
 13597 0482 01       		.uleb128 0x1
 13598 0483 55       		.uleb128 0x55
 13599 0484 17       		.uleb128 0x17
 13600 0485 58       		.uleb128 0x58
 13601 0486 0B       		.uleb128 0xb
 13602 0487 59       		.uleb128 0x59
 13603 0488 0B       		.uleb128 0xb
 13604 0489 00       		.byte	0
 13605 048a 00       		.byte	0
 13606 048b 59       		.uleb128 0x59
 13607 048c 1D       		.uleb128 0x1d
 13608 048d 01       		.byte	0x1
 13609 048e 31       		.uleb128 0x31
 13610 048f 13       		.uleb128 0x13
 13611 0490 52       		.uleb128 0x52
 13612 0491 01       		.uleb128 0x1
 13613 0492 55       		.uleb128 0x55
 13614 0493 17       		.uleb128 0x17
 13615 0494 58       		.uleb128 0x58
 13616 0495 0B       		.uleb128 0xb
 13617 0496 59       		.uleb128 0x59
 13618 0497 0B       		.uleb128 0xb
 13619 0498 00       		.byte	0
 13620 0499 00       		.byte	0
 13621 049a 5A       		.uleb128 0x5a
 13622 049b 898201   		.uleb128 0x4109
 13623 049e 01       		.byte	0x1
 13624 049f 11       		.uleb128 0x11
 13625 04a0 01       		.uleb128 0x1
 13626 04a1 31       		.uleb128 0x31
 13627 04a2 13       		.uleb128 0x13
 13628 04a3 01       		.uleb128 0x1
 13629 04a4 13       		.uleb128 0x13
 13630 04a5 00       		.byte	0
 13631 04a6 00       		.byte	0
 13632 04a7 5B       		.uleb128 0x5b
 13633 04a8 2E       		.uleb128 0x2e
 13634 04a9 01       		.byte	0x1
 13635 04aa 3F       		.uleb128 0x3f
 13636 04ab 19       		.uleb128 0x19
 13637 04ac 03       		.uleb128 0x3
 13638 04ad 0E       		.uleb128 0xe
 13639 04ae 3A       		.uleb128 0x3a
ARM GAS  C:\Users\mathi\AppData\Local\Temp\ccRLxsF0.s 			page 242


 13640 04af 0B       		.uleb128 0xb
 13641 04b0 3B       		.uleb128 0x3b
 13642 04b1 0B       		.uleb128 0xb
 13643 04b2 27       		.uleb128 0x27
 13644 04b3 19       		.uleb128 0x19
 13645 04b4 11       		.uleb128 0x11
 13646 04b5 01       		.uleb128 0x1
 13647 04b6 12       		.uleb128 0x12
 13648 04b7 06       		.uleb128 0x6
 13649 04b8 40       		.uleb128 0x40
 13650 04b9 18       		.uleb128 0x18
 13651 04ba 9742     		.uleb128 0x2117
 13652 04bc 19       		.uleb128 0x19
 13653 04bd 01       		.uleb128 0x1
 13654 04be 13       		.uleb128 0x13
 13655 04bf 00       		.byte	0
 13656 04c0 00       		.byte	0
 13657 04c1 5C       		.uleb128 0x5c
 13658 04c2 05       		.uleb128 0x5
 13659 04c3 00       		.byte	0
 13660 04c4 03       		.uleb128 0x3
 13661 04c5 0E       		.uleb128 0xe
 13662 04c6 3A       		.uleb128 0x3a
 13663 04c7 0B       		.uleb128 0xb
 13664 04c8 3B       		.uleb128 0x3b
 13665 04c9 0B       		.uleb128 0xb
 13666 04ca 49       		.uleb128 0x49
 13667 04cb 13       		.uleb128 0x13
 13668 04cc 02       		.uleb128 0x2
 13669 04cd 17       		.uleb128 0x17
 13670 04ce 00       		.byte	0
 13671 04cf 00       		.byte	0
 13672 04d0 5D       		.uleb128 0x5d
 13673 04d1 34       		.uleb128 0x34
 13674 04d2 00       		.byte	0
 13675 04d3 03       		.uleb128 0x3
 13676 04d4 0E       		.uleb128 0xe
 13677 04d5 3A       		.uleb128 0x3a
 13678 04d6 0B       		.uleb128 0xb
 13679 04d7 3B       		.uleb128 0x3b
 13680 04d8 0B       		.uleb128 0xb
 13681 04d9 49       		.uleb128 0x49
 13682 04da 13       		.uleb128 0x13
 13683 04db 00       		.byte	0
 13684 04dc 00       		.byte	0
 13685 04dd 5E       		.uleb128 0x5e
 13686 04de 34       		.uleb128 0x34
 13687 04df 00       		.byte	0
 13688 04e0 03       		.uleb128 0x3
 13689 04e1 08       		.uleb128 0x8
 13690 04e2 3A       		.uleb128 0x3a
 13691 04e3 0B       		.uleb128 0xb
 13692 04e4 3B       		.uleb128 0x3b
 13693 04e5 0B       		.uleb128 0xb
 13694 04e6 49       		.uleb128 0x49
 13695 04e7 13       		.uleb128 0x13
 13696 04e8 02       		.uleb128 0x2
ARM GAS  C:\Users\mathi\AppData\Local\Temp\ccRLxsF0.s 			page 243


 13697 04e9 17       		.uleb128 0x17
 13698 04ea 00       		.byte	0
 13699 04eb 00       		.byte	0
 13700 04ec 5F       		.uleb128 0x5f
 13701 04ed 34       		.uleb128 0x34
 13702 04ee 00       		.byte	0
 13703 04ef 03       		.uleb128 0x3
 13704 04f0 08       		.uleb128 0x8
 13705 04f1 3A       		.uleb128 0x3a
 13706 04f2 0B       		.uleb128 0xb
 13707 04f3 3B       		.uleb128 0x3b
 13708 04f4 0B       		.uleb128 0xb
 13709 04f5 49       		.uleb128 0x49
 13710 04f6 13       		.uleb128 0x13
 13711 04f7 00       		.byte	0
 13712 04f8 00       		.byte	0
 13713 04f9 60       		.uleb128 0x60
 13714 04fa 2E       		.uleb128 0x2e
 13715 04fb 01       		.byte	0x1
 13716 04fc 3F       		.uleb128 0x3f
 13717 04fd 19       		.uleb128 0x19
 13718 04fe 03       		.uleb128 0x3
 13719 04ff 0E       		.uleb128 0xe
 13720 0500 3A       		.uleb128 0x3a
 13721 0501 0B       		.uleb128 0xb
 13722 0502 3B       		.uleb128 0x3b
 13723 0503 0B       		.uleb128 0xb
 13724 0504 27       		.uleb128 0x27
 13725 0505 19       		.uleb128 0x19
 13726 0506 20       		.uleb128 0x20
 13727 0507 0B       		.uleb128 0xb
 13728 0508 01       		.uleb128 0x1
 13729 0509 13       		.uleb128 0x13
 13730 050a 00       		.byte	0
 13731 050b 00       		.byte	0
 13732 050c 61       		.uleb128 0x61
 13733 050d 05       		.uleb128 0x5
 13734 050e 00       		.byte	0
 13735 050f 03       		.uleb128 0x3
 13736 0510 08       		.uleb128 0x8
 13737 0511 3A       		.uleb128 0x3a
 13738 0512 0B       		.uleb128 0xb
 13739 0513 3B       		.uleb128 0x3b
 13740 0514 0B       		.uleb128 0xb
 13741 0515 49       		.uleb128 0x49
 13742 0516 13       		.uleb128 0x13
 13743 0517 02       		.uleb128 0x2
 13744 0518 17       		.uleb128 0x17
 13745 0519 00       		.byte	0
 13746 051a 00       		.byte	0
 13747 051b 62       		.uleb128 0x62
 13748 051c 1D       		.uleb128 0x1d
 13749 051d 00       		.byte	0
 13750 051e 31       		.uleb128 0x31
 13751 051f 13       		.uleb128 0x13
 13752 0520 11       		.uleb128 0x11
 13753 0521 01       		.uleb128 0x1
ARM GAS  C:\Users\mathi\AppData\Local\Temp\ccRLxsF0.s 			page 244


 13754 0522 12       		.uleb128 0x12
 13755 0523 06       		.uleb128 0x6
 13756 0524 58       		.uleb128 0x58
 13757 0525 0B       		.uleb128 0xb
 13758 0526 59       		.uleb128 0x59
 13759 0527 0B       		.uleb128 0xb
 13760 0528 00       		.byte	0
 13761 0529 00       		.byte	0
 13762 052a 63       		.uleb128 0x63
 13763 052b 2E       		.uleb128 0x2e
 13764 052c 01       		.byte	0x1
 13765 052d 3F       		.uleb128 0x3f
 13766 052e 19       		.uleb128 0x19
 13767 052f 03       		.uleb128 0x3
 13768 0530 0E       		.uleb128 0xe
 13769 0531 3A       		.uleb128 0x3a
 13770 0532 0B       		.uleb128 0xb
 13771 0533 3B       		.uleb128 0x3b
 13772 0534 0B       		.uleb128 0xb
 13773 0535 27       		.uleb128 0x27
 13774 0536 19       		.uleb128 0x19
 13775 0537 49       		.uleb128 0x49
 13776 0538 13       		.uleb128 0x13
 13777 0539 20       		.uleb128 0x20
 13778 053a 0B       		.uleb128 0xb
 13779 053b 01       		.uleb128 0x1
 13780 053c 13       		.uleb128 0x13
 13781 053d 00       		.byte	0
 13782 053e 00       		.byte	0
 13783 053f 64       		.uleb128 0x64
 13784 0540 05       		.uleb128 0x5
 13785 0541 00       		.byte	0
 13786 0542 03       		.uleb128 0x3
 13787 0543 0E       		.uleb128 0xe
 13788 0544 3A       		.uleb128 0x3a
 13789 0545 0B       		.uleb128 0xb
 13790 0546 3B       		.uleb128 0x3b
 13791 0547 0B       		.uleb128 0xb
 13792 0548 49       		.uleb128 0x49
 13793 0549 13       		.uleb128 0x13
 13794 054a 00       		.byte	0
 13795 054b 00       		.byte	0
 13796 054c 65       		.uleb128 0x65
 13797 054d 2E       		.uleb128 0x2e
 13798 054e 01       		.byte	0x1
 13799 054f 03       		.uleb128 0x3
 13800 0550 0E       		.uleb128 0xe
 13801 0551 3A       		.uleb128 0x3a
 13802 0552 0B       		.uleb128 0xb
 13803 0553 3B       		.uleb128 0x3b
 13804 0554 0B       		.uleb128 0xb
 13805 0555 27       		.uleb128 0x27
 13806 0556 19       		.uleb128 0x19
 13807 0557 20       		.uleb128 0x20
 13808 0558 0B       		.uleb128 0xb
 13809 0559 01       		.uleb128 0x1
 13810 055a 13       		.uleb128 0x13
ARM GAS  C:\Users\mathi\AppData\Local\Temp\ccRLxsF0.s 			page 245


 13811 055b 00       		.byte	0
 13812 055c 00       		.byte	0
 13813 055d 66       		.uleb128 0x66
 13814 055e 2E       		.uleb128 0x2e
 13815 055f 00       		.byte	0
 13816 0560 03       		.uleb128 0x3
 13817 0561 0E       		.uleb128 0xe
 13818 0562 3A       		.uleb128 0x3a
 13819 0563 0B       		.uleb128 0xb
 13820 0564 3B       		.uleb128 0x3b
 13821 0565 0B       		.uleb128 0xb
 13822 0566 27       		.uleb128 0x27
 13823 0567 19       		.uleb128 0x19
 13824 0568 20       		.uleb128 0x20
 13825 0569 0B       		.uleb128 0xb
 13826 056a 00       		.byte	0
 13827 056b 00       		.byte	0
 13828 056c 67       		.uleb128 0x67
 13829 056d 05       		.uleb128 0x5
 13830 056e 00       		.byte	0
 13831 056f 03       		.uleb128 0x3
 13832 0570 08       		.uleb128 0x8
 13833 0571 3A       		.uleb128 0x3a
 13834 0572 0B       		.uleb128 0xb
 13835 0573 3B       		.uleb128 0x3b
 13836 0574 0B       		.uleb128 0xb
 13837 0575 49       		.uleb128 0x49
 13838 0576 13       		.uleb128 0x13
 13839 0577 00       		.byte	0
 13840 0578 00       		.byte	0
 13841 0579 68       		.uleb128 0x68
 13842 057a 2E       		.uleb128 0x2e
 13843 057b 01       		.byte	0x1
 13844 057c 03       		.uleb128 0x3
 13845 057d 0E       		.uleb128 0xe
 13846 057e 3A       		.uleb128 0x3a
 13847 057f 0B       		.uleb128 0xb
 13848 0580 3B       		.uleb128 0x3b
 13849 0581 0B       		.uleb128 0xb
 13850 0582 27       		.uleb128 0x27
 13851 0583 19       		.uleb128 0x19
 13852 0584 49       		.uleb128 0x49
 13853 0585 13       		.uleb128 0x13
 13854 0586 20       		.uleb128 0x20
 13855 0587 0B       		.uleb128 0xb
 13856 0588 01       		.uleb128 0x1
 13857 0589 13       		.uleb128 0x13
 13858 058a 00       		.byte	0
 13859 058b 00       		.byte	0
 13860 058c 69       		.uleb128 0x69
 13861 058d 2E       		.uleb128 0x2e
 13862 058e 00       		.byte	0
 13863 058f 03       		.uleb128 0x3
 13864 0590 0E       		.uleb128 0xe
 13865 0591 3A       		.uleb128 0x3a
 13866 0592 0B       		.uleb128 0xb
 13867 0593 3B       		.uleb128 0x3b
ARM GAS  C:\Users\mathi\AppData\Local\Temp\ccRLxsF0.s 			page 246


 13868 0594 0B       		.uleb128 0xb
 13869 0595 27       		.uleb128 0x27
 13870 0596 19       		.uleb128 0x19
 13871 0597 49       		.uleb128 0x49
 13872 0598 13       		.uleb128 0x13
 13873 0599 20       		.uleb128 0x20
 13874 059a 0B       		.uleb128 0xb
 13875 059b 00       		.byte	0
 13876 059c 00       		.byte	0
 13877 059d 6A       		.uleb128 0x6a
 13878 059e 05       		.uleb128 0x5
 13879 059f 00       		.byte	0
 13880 05a0 03       		.uleb128 0x3
 13881 05a1 0E       		.uleb128 0xe
 13882 05a2 3A       		.uleb128 0x3a
 13883 05a3 0B       		.uleb128 0xb
 13884 05a4 3B       		.uleb128 0x3b
 13885 05a5 05       		.uleb128 0x5
 13886 05a6 49       		.uleb128 0x49
 13887 05a7 13       		.uleb128 0x13
 13888 05a8 00       		.byte	0
 13889 05a9 00       		.byte	0
 13890 05aa 6B       		.uleb128 0x6b
 13891 05ab 2E       		.uleb128 0x2e
 13892 05ac 01       		.byte	0x1
 13893 05ad 03       		.uleb128 0x3
 13894 05ae 0E       		.uleb128 0xe
 13895 05af 3A       		.uleb128 0x3a
 13896 05b0 0B       		.uleb128 0xb
 13897 05b1 3B       		.uleb128 0x3b
 13898 05b2 05       		.uleb128 0x5
 13899 05b3 27       		.uleb128 0x27
 13900 05b4 19       		.uleb128 0x19
 13901 05b5 49       		.uleb128 0x49
 13902 05b6 13       		.uleb128 0x13
 13903 05b7 20       		.uleb128 0x20
 13904 05b8 0B       		.uleb128 0xb
 13905 05b9 01       		.uleb128 0x1
 13906 05ba 13       		.uleb128 0x13
 13907 05bb 00       		.byte	0
 13908 05bc 00       		.byte	0
 13909 05bd 6C       		.uleb128 0x6c
 13910 05be 34       		.uleb128 0x34
 13911 05bf 00       		.byte	0
 13912 05c0 03       		.uleb128 0x3
 13913 05c1 0E       		.uleb128 0xe
 13914 05c2 49       		.uleb128 0x49
 13915 05c3 13       		.uleb128 0x13
 13916 05c4 34       		.uleb128 0x34
 13917 05c5 19       		.uleb128 0x19
 13918 05c6 1C       		.uleb128 0x1c
 13919 05c7 0E       		.uleb128 0xe
 13920 05c8 00       		.byte	0
 13921 05c9 00       		.byte	0
 13922 05ca 6D       		.uleb128 0x6d
 13923 05cb 2E       		.uleb128 0x2e
 13924 05cc 00       		.byte	0
ARM GAS  C:\Users\mathi\AppData\Local\Temp\ccRLxsF0.s 			page 247


 13925 05cd 03       		.uleb128 0x3
 13926 05ce 0E       		.uleb128 0xe
 13927 05cf 3A       		.uleb128 0x3a
 13928 05d0 0B       		.uleb128 0xb
 13929 05d1 3B       		.uleb128 0x3b
 13930 05d2 05       		.uleb128 0x5
 13931 05d3 27       		.uleb128 0x27
 13932 05d4 19       		.uleb128 0x19
 13933 05d5 20       		.uleb128 0x20
 13934 05d6 0B       		.uleb128 0xb
 13935 05d7 00       		.byte	0
 13936 05d8 00       		.byte	0
 13937 05d9 6E       		.uleb128 0x6e
 13938 05da 2E       		.uleb128 0x2e
 13939 05db 01       		.byte	0x1
 13940 05dc 31       		.uleb128 0x31
 13941 05dd 13       		.uleb128 0x13
 13942 05de 11       		.uleb128 0x11
 13943 05df 01       		.uleb128 0x1
 13944 05e0 12       		.uleb128 0x12
 13945 05e1 06       		.uleb128 0x6
 13946 05e2 40       		.uleb128 0x40
 13947 05e3 18       		.uleb128 0x18
 13948 05e4 9642     		.uleb128 0x2116
 13949 05e6 19       		.uleb128 0x19
 13950 05e7 01       		.uleb128 0x1
 13951 05e8 13       		.uleb128 0x13
 13952 05e9 00       		.byte	0
 13953 05ea 00       		.byte	0
 13954 05eb 6F       		.uleb128 0x6f
 13955 05ec 2E       		.uleb128 0x2e
 13956 05ed 01       		.byte	0x1
 13957 05ee 31       		.uleb128 0x31
 13958 05ef 13       		.uleb128 0x13
 13959 05f0 11       		.uleb128 0x11
 13960 05f1 01       		.uleb128 0x1
 13961 05f2 12       		.uleb128 0x12
 13962 05f3 06       		.uleb128 0x6
 13963 05f4 40       		.uleb128 0x40
 13964 05f5 18       		.uleb128 0x18
 13965 05f6 9742     		.uleb128 0x2117
 13966 05f8 19       		.uleb128 0x19
 13967 05f9 01       		.uleb128 0x1
 13968 05fa 13       		.uleb128 0x13
 13969 05fb 00       		.byte	0
 13970 05fc 00       		.byte	0
 13971 05fd 70       		.uleb128 0x70
 13972 05fe 36       		.uleb128 0x36
 13973 05ff 00       		.byte	0
 13974 0600 02       		.uleb128 0x2
 13975 0601 18       		.uleb128 0x18
 13976 0602 00       		.byte	0
 13977 0603 00       		.byte	0
 13978 0604 71       		.uleb128 0x71
 13979 0605 2E       		.uleb128 0x2e
 13980 0606 00       		.byte	0
 13981 0607 3F       		.uleb128 0x3f
ARM GAS  C:\Users\mathi\AppData\Local\Temp\ccRLxsF0.s 			page 248


 13982 0608 19       		.uleb128 0x19
 13983 0609 3C       		.uleb128 0x3c
 13984 060a 19       		.uleb128 0x19
 13985 060b 6E       		.uleb128 0x6e
 13986 060c 0E       		.uleb128 0xe
 13987 060d 03       		.uleb128 0x3
 13988 060e 0E       		.uleb128 0xe
 13989 060f 3A       		.uleb128 0x3a
 13990 0610 0B       		.uleb128 0xb
 13991 0611 3B       		.uleb128 0x3b
 13992 0612 0B       		.uleb128 0xb
 13993 0613 00       		.byte	0
 13994 0614 00       		.byte	0
 13995 0615 72       		.uleb128 0x72
 13996 0616 2E       		.uleb128 0x2e
 13997 0617 00       		.byte	0
 13998 0618 3F       		.uleb128 0x3f
 13999 0619 19       		.uleb128 0x19
 14000 061a 3C       		.uleb128 0x3c
 14001 061b 19       		.uleb128 0x19
 14002 061c 6E       		.uleb128 0x6e
 14003 061d 0E       		.uleb128 0xe
 14004 061e 03       		.uleb128 0x3
 14005 061f 0E       		.uleb128 0xe
 14006 0620 00       		.byte	0
 14007 0621 00       		.byte	0
 14008 0622 73       		.uleb128 0x73
 14009 0623 2E       		.uleb128 0x2e
 14010 0624 00       		.byte	0
 14011 0625 3F       		.uleb128 0x3f
 14012 0626 19       		.uleb128 0x19
 14013 0627 3C       		.uleb128 0x3c
 14014 0628 19       		.uleb128 0x19
 14015 0629 6E       		.uleb128 0x6e
 14016 062a 0E       		.uleb128 0xe
 14017 062b 03       		.uleb128 0x3
 14018 062c 0E       		.uleb128 0xe
 14019 062d 3A       		.uleb128 0x3a
 14020 062e 0B       		.uleb128 0xb
 14021 062f 3B       		.uleb128 0x3b
 14022 0630 05       		.uleb128 0x5
 14023 0631 00       		.byte	0
 14024 0632 00       		.byte	0
 14025 0633 00       		.byte	0
 14026              		.section	.debug_loc,"",%progbits
 14027              	.Ldebug_loc0:
 14028              	.LLST44:
 14029 0000 00000000 		.4byte	.LVL120
 14030 0004 1B000000 		.4byte	.LVL122-1
 14031 0008 0100     		.2byte	0x1
 14032 000a 50       		.byte	0x50
 14033 000b 1B000000 		.4byte	.LVL122-1
 14034 000f C8050000 		.4byte	.LFE274
 14035 0013 0400     		.2byte	0x4
 14036 0015 F3       		.byte	0xf3
 14037 0016 01       		.uleb128 0x1
 14038 0017 50       		.byte	0x50
ARM GAS  C:\Users\mathi\AppData\Local\Temp\ccRLxsF0.s 			page 249


 14039 0018 9F       		.byte	0x9f
 14040 0019 00000000 		.4byte	0
 14041 001d 00000000 		.4byte	0
 14042              	.LLST45:
 14043 0021 18020000 		.4byte	.LVL206
 14044 0025 20020000 		.4byte	.LVL207
 14045 0029 0300     		.2byte	0x3
 14046 002b 91       		.byte	0x91
 14047 002c B47F     		.sleb128 -76
 14048 002e 20020000 		.4byte	.LVL207
 14049 0032 24020000 		.4byte	.LVL208
 14050 0036 0300     		.2byte	0x3
 14051 0038 73       		.byte	0x73
 14052 0039 7F       		.sleb128 -1
 14053 003a 9F       		.byte	0x9f
 14054 003b 24020000 		.4byte	.LVL208
 14055 003f 80040000 		.4byte	.LVL279
 14056 0043 0700     		.2byte	0x7
 14057 0045 91       		.byte	0x91
 14058 0046 B47F     		.sleb128 -76
 14059 0048 06       		.byte	0x6
 14060 0049 31       		.byte	0x31
 14061 004a 1C       		.byte	0x1c
 14062 004b 9F       		.byte	0x9f
 14063 004c 80040000 		.4byte	.LVL279
 14064 0050 02050000 		.4byte	.LVL292
 14065 0054 0700     		.2byte	0x7
 14066 0056 91       		.byte	0x91
 14067 0057 B47F     		.sleb128 -76
 14068 0059 06       		.byte	0x6
 14069 005a 23       		.byte	0x23
 14070 005b 01       		.uleb128 0x1
 14071 005c 9F       		.byte	0x9f
 14072 005d 02050000 		.4byte	.LVL292
 14073 0061 04050000 		.4byte	.LVL293
 14074 0065 0700     		.2byte	0x7
 14075 0067 7D       		.byte	0x7d
 14076 0068 B47F     		.sleb128 -76
 14077 006a 06       		.byte	0x6
 14078 006b 23       		.byte	0x23
 14079 006c 01       		.uleb128 0x1
 14080 006d 9F       		.byte	0x9f
 14081 006e 04050000 		.4byte	.LVL293
 14082 0072 6A050000 		.4byte	.LVL309
 14083 0076 0700     		.2byte	0x7
 14084 0078 91       		.byte	0x91
 14085 0079 B47F     		.sleb128 -76
 14086 007b 06       		.byte	0x6
 14087 007c 31       		.byte	0x31
 14088 007d 1C       		.byte	0x1c
 14089 007e 9F       		.byte	0x9f
 14090 007f 6A050000 		.4byte	.LVL309
 14091 0083 C8050000 		.4byte	.LFE274
 14092 0087 0700     		.2byte	0x7
 14093 0089 91       		.byte	0x91
 14094 008a B47F     		.sleb128 -76
 14095 008c 06       		.byte	0x6
ARM GAS  C:\Users\mathi\AppData\Local\Temp\ccRLxsF0.s 			page 250


 14096 008d 23       		.byte	0x23
 14097 008e 01       		.uleb128 0x1
 14098 008f 9F       		.byte	0x9f
 14099 0090 00000000 		.4byte	0
 14100 0094 00000000 		.4byte	0
 14101              	.LLST46:
 14102 0098 2A020000 		.4byte	.LVL209
 14103 009c 0C030000 		.4byte	.LVL224
 14104 00a0 0100     		.2byte	0x1
 14105 00a2 55       		.byte	0x55
 14106 00a3 0C030000 		.4byte	.LVL224
 14107 00a7 72040000 		.4byte	.LVL278
 14108 00ab 0300     		.2byte	0x3
 14109 00ad 75       		.byte	0x75
 14110 00ae 7F       		.sleb128 -1
 14111 00af 9F       		.byte	0x9f
 14112 00b0 72040000 		.4byte	.LVL278
 14113 00b4 92040000 		.4byte	.LVL280
 14114 00b8 0100     		.2byte	0x1
 14115 00ba 55       		.byte	0x55
 14116 00bb 04050000 		.4byte	.LVL293
 14117 00bf 5C050000 		.4byte	.LVL306
 14118 00c3 0300     		.2byte	0x3
 14119 00c5 75       		.byte	0x75
 14120 00c6 7F       		.sleb128 -1
 14121 00c7 9F       		.byte	0x9f
 14122 00c8 5C050000 		.4byte	.LVL306
 14123 00cc 6A050000 		.4byte	.LVL309
 14124 00d0 0100     		.2byte	0x1
 14125 00d2 55       		.byte	0x55
 14126 00d3 00000000 		.4byte	0
 14127 00d7 00000000 		.4byte	0
 14128              	.LLST47:
 14129 00db 1C000000 		.4byte	.LVL122
 14130 00df 1E000000 		.4byte	.LVL123
 14131 00e3 0600     		.2byte	0x6
 14132 00e5 03       		.byte	0x3
 14133 00e6 00000000 		.4byte	.LC1
 14134 00ea 9F       		.byte	0x9f
 14135 00eb 1E000000 		.4byte	.LVL123
 14136 00ef 2A000000 		.4byte	.LVL125
 14137 00f3 0100     		.2byte	0x1
 14138 00f5 55       		.byte	0x55
 14139 00f6 2A000000 		.4byte	.LVL125
 14140 00fa 2E000000 		.4byte	.LVL126
 14141 00fe 0300     		.2byte	0x3
 14142 0100 75       		.byte	0x75
 14143 0101 7F       		.sleb128 -1
 14144 0102 9F       		.byte	0x9f
 14145 0103 00000000 		.4byte	0
 14146 0107 00000000 		.4byte	0
 14147              	.LLST48:
 14148 010b 3C000000 		.4byte	.LVL127
 14149 010f 3E000000 		.4byte	.LVL128
 14150 0113 0600     		.2byte	0x6
 14151 0115 03       		.byte	0x3
 14152 0116 1C000000 		.4byte	.LC2
ARM GAS  C:\Users\mathi\AppData\Local\Temp\ccRLxsF0.s 			page 251


 14153 011a 9F       		.byte	0x9f
 14154 011b 3E000000 		.4byte	.LVL128
 14155 011f 4A000000 		.4byte	.LVL130
 14156 0123 0100     		.2byte	0x1
 14157 0125 55       		.byte	0x55
 14158 0126 4A000000 		.4byte	.LVL130
 14159 012a 4E000000 		.4byte	.LVL131
 14160 012e 0300     		.2byte	0x3
 14161 0130 75       		.byte	0x75
 14162 0131 7F       		.sleb128 -1
 14163 0132 9F       		.byte	0x9f
 14164 0133 00000000 		.4byte	0
 14165 0137 00000000 		.4byte	0
 14166              	.LLST49:
 14167 013b 5C000000 		.4byte	.LVL132
 14168 013f 5E000000 		.4byte	.LVL133
 14169 0143 0600     		.2byte	0x6
 14170 0145 03       		.byte	0x3
 14171 0146 20000000 		.4byte	.LC3
 14172 014a 9F       		.byte	0x9f
 14173 014b 5E000000 		.4byte	.LVL133
 14174 014f 6A000000 		.4byte	.LVL135
 14175 0153 0100     		.2byte	0x1
 14176 0155 55       		.byte	0x55
 14177 0156 6A000000 		.4byte	.LVL135
 14178 015a 70000000 		.4byte	.LVL136
 14179 015e 0300     		.2byte	0x3
 14180 0160 75       		.byte	0x75
 14181 0161 7F       		.sleb128 -1
 14182 0162 9F       		.byte	0x9f
 14183 0163 00000000 		.4byte	0
 14184 0167 00000000 		.4byte	0
 14185              	.LLST50:
 14186 016b 72000000 		.4byte	.LVL137
 14187 016f 7E000000 		.4byte	.LVL139
 14188 0173 0100     		.2byte	0x1
 14189 0175 55       		.byte	0x55
 14190 0176 7E000000 		.4byte	.LVL139
 14191 017a 82000000 		.4byte	.LVL140
 14192 017e 0300     		.2byte	0x3
 14193 0180 75       		.byte	0x75
 14194 0181 7F       		.sleb128 -1
 14195 0182 9F       		.byte	0x9f
 14196 0183 00000000 		.4byte	0
 14197 0187 00000000 		.4byte	0
 14198              	.LLST51:
 14199 018b 90000000 		.4byte	.LVL141
 14200 018f 92000000 		.4byte	.LVL142
 14201 0193 0600     		.2byte	0x6
 14202 0195 03       		.byte	0x3
 14203 0196 3C000000 		.4byte	.LC5
 14204 019a 9F       		.byte	0x9f
 14205 019b 92000000 		.4byte	.LVL142
 14206 019f 9E000000 		.4byte	.LVL144
 14207 01a3 0100     		.2byte	0x1
 14208 01a5 55       		.byte	0x55
 14209 01a6 9E000000 		.4byte	.LVL144
ARM GAS  C:\Users\mathi\AppData\Local\Temp\ccRLxsF0.s 			page 252


 14210 01aa A4000000 		.4byte	.LVL145
 14211 01ae 0300     		.2byte	0x3
 14212 01b0 75       		.byte	0x75
 14213 01b1 7F       		.sleb128 -1
 14214 01b2 9F       		.byte	0x9f
 14215 01b3 00000000 		.4byte	0
 14216 01b7 00000000 		.4byte	0
 14217              	.LLST52:
 14218 01bb A6000000 		.4byte	.LVL146
 14219 01bf B2000000 		.4byte	.LVL148
 14220 01c3 0100     		.2byte	0x1
 14221 01c5 55       		.byte	0x55
 14222 01c6 B2000000 		.4byte	.LVL148
 14223 01ca B6000000 		.4byte	.LVL149
 14224 01ce 0300     		.2byte	0x3
 14225 01d0 75       		.byte	0x75
 14226 01d1 7F       		.sleb128 -1
 14227 01d2 9F       		.byte	0x9f
 14228 01d3 00000000 		.4byte	0
 14229 01d7 00000000 		.4byte	0
 14230              	.LLST53:
 14231 01db C4000000 		.4byte	.LVL150
 14232 01df C6000000 		.4byte	.LVL151
 14233 01e3 0600     		.2byte	0x6
 14234 01e5 03       		.byte	0x3
 14235 01e6 68000000 		.4byte	.LC7
 14236 01ea 9F       		.byte	0x9f
 14237 01eb C6000000 		.4byte	.LVL151
 14238 01ef D2000000 		.4byte	.LVL153
 14239 01f3 0100     		.2byte	0x1
 14240 01f5 55       		.byte	0x55
 14241 01f6 D2000000 		.4byte	.LVL153
 14242 01fa D8000000 		.4byte	.LVL154
 14243 01fe 0300     		.2byte	0x3
 14244 0200 75       		.byte	0x75
 14245 0201 7F       		.sleb128 -1
 14246 0202 9F       		.byte	0x9f
 14247 0203 00000000 		.4byte	0
 14248 0207 00000000 		.4byte	0
 14249              	.LLST54:
 14250 020b DA000000 		.4byte	.LVL155
 14251 020f E6000000 		.4byte	.LVL157
 14252 0213 0100     		.2byte	0x1
 14253 0215 55       		.byte	0x55
 14254 0216 E6000000 		.4byte	.LVL157
 14255 021a EA000000 		.4byte	.LVL158
 14256 021e 0300     		.2byte	0x3
 14257 0220 75       		.byte	0x75
 14258 0221 7F       		.sleb128 -1
 14259 0222 9F       		.byte	0x9f
 14260 0223 00000000 		.4byte	0
 14261 0227 00000000 		.4byte	0
 14262              	.LLST55:
 14263 022b F8000000 		.4byte	.LVL159
 14264 022f FA000000 		.4byte	.LVL160
 14265 0233 0600     		.2byte	0x6
 14266 0235 03       		.byte	0x3
ARM GAS  C:\Users\mathi\AppData\Local\Temp\ccRLxsF0.s 			page 253


 14267 0236 C4000000 		.4byte	.LC9
 14268 023a 9F       		.byte	0x9f
 14269 023b FA000000 		.4byte	.LVL160
 14270 023f 06010000 		.4byte	.LVL162
 14271 0243 0100     		.2byte	0x1
 14272 0245 55       		.byte	0x55
 14273 0246 06010000 		.4byte	.LVL162
 14274 024a 0C010000 		.4byte	.LVL163
 14275 024e 0300     		.2byte	0x3
 14276 0250 75       		.byte	0x75
 14277 0251 7F       		.sleb128 -1
 14278 0252 9F       		.byte	0x9f
 14279 0253 00000000 		.4byte	0
 14280 0257 00000000 		.4byte	0
 14281              	.LLST56:
 14282 025b 0E010000 		.4byte	.LVL164
 14283 025f 1A010000 		.4byte	.LVL166
 14284 0263 0100     		.2byte	0x1
 14285 0265 55       		.byte	0x55
 14286 0266 1A010000 		.4byte	.LVL166
 14287 026a 1E010000 		.4byte	.LVL167
 14288 026e 0300     		.2byte	0x3
 14289 0270 75       		.byte	0x75
 14290 0271 7F       		.sleb128 -1
 14291 0272 9F       		.byte	0x9f
 14292 0273 00000000 		.4byte	0
 14293 0277 00000000 		.4byte	0
 14294              	.LLST57:
 14295 027b 2C010000 		.4byte	.LVL168
 14296 027f 2E010000 		.4byte	.LVL169
 14297 0283 0600     		.2byte	0x6
 14298 0285 03       		.byte	0x3
 14299 0286 E4000000 		.4byte	.LC11
 14300 028a 9F       		.byte	0x9f
 14301 028b 2E010000 		.4byte	.LVL169
 14302 028f 3A010000 		.4byte	.LVL171
 14303 0293 0100     		.2byte	0x1
 14304 0295 55       		.byte	0x55
 14305 0296 3A010000 		.4byte	.LVL171
 14306 029a 40010000 		.4byte	.LVL172
 14307 029e 0300     		.2byte	0x3
 14308 02a0 75       		.byte	0x75
 14309 02a1 7F       		.sleb128 -1
 14310 02a2 9F       		.byte	0x9f
 14311 02a3 00000000 		.4byte	0
 14312 02a7 00000000 		.4byte	0
 14313              	.LLST58:
 14314 02ab 42010000 		.4byte	.LVL173
 14315 02af 4E010000 		.4byte	.LVL175
 14316 02b3 0100     		.2byte	0x1
 14317 02b5 55       		.byte	0x55
 14318 02b6 4E010000 		.4byte	.LVL175
 14319 02ba 52010000 		.4byte	.LVL176
 14320 02be 0300     		.2byte	0x3
 14321 02c0 75       		.byte	0x75
 14322 02c1 7F       		.sleb128 -1
 14323 02c2 9F       		.byte	0x9f
ARM GAS  C:\Users\mathi\AppData\Local\Temp\ccRLxsF0.s 			page 254


 14324 02c3 00000000 		.4byte	0
 14325 02c7 00000000 		.4byte	0
 14326              	.LLST59:
 14327 02cb 60010000 		.4byte	.LVL177
 14328 02cf 62010000 		.4byte	.LVL178
 14329 02d3 0600     		.2byte	0x6
 14330 02d5 03       		.byte	0x3
 14331 02d6 04010000 		.4byte	.LC13
 14332 02da 9F       		.byte	0x9f
 14333 02db 62010000 		.4byte	.LVL178
 14334 02df 6E010000 		.4byte	.LVL180
 14335 02e3 0100     		.2byte	0x1
 14336 02e5 55       		.byte	0x55
 14337 02e6 6E010000 		.4byte	.LVL180
 14338 02ea 74010000 		.4byte	.LVL181
 14339 02ee 0300     		.2byte	0x3
 14340 02f0 75       		.byte	0x75
 14341 02f1 7F       		.sleb128 -1
 14342 02f2 9F       		.byte	0x9f
 14343 02f3 00000000 		.4byte	0
 14344 02f7 00000000 		.4byte	0
 14345              	.LLST60:
 14346 02fb 76010000 		.4byte	.LVL182
 14347 02ff 82010000 		.4byte	.LVL184
 14348 0303 0100     		.2byte	0x1
 14349 0305 55       		.byte	0x55
 14350 0306 82010000 		.4byte	.LVL184
 14351 030a 86010000 		.4byte	.LVL185
 14352 030e 0300     		.2byte	0x3
 14353 0310 75       		.byte	0x75
 14354 0311 7F       		.sleb128 -1
 14355 0312 9F       		.byte	0x9f
 14356 0313 00000000 		.4byte	0
 14357 0317 00000000 		.4byte	0
 14358              	.LLST61:
 14359 031b 94010000 		.4byte	.LVL186
 14360 031f 96010000 		.4byte	.LVL187
 14361 0323 0600     		.2byte	0x6
 14362 0325 03       		.byte	0x3
 14363 0326 30010000 		.4byte	.LC15
 14364 032a 9F       		.byte	0x9f
 14365 032b 96010000 		.4byte	.LVL187
 14366 032f A2010000 		.4byte	.LVL189
 14367 0333 0100     		.2byte	0x1
 14368 0335 55       		.byte	0x55
 14369 0336 A2010000 		.4byte	.LVL189
 14370 033a A8010000 		.4byte	.LVL190
 14371 033e 0300     		.2byte	0x3
 14372 0340 75       		.byte	0x75
 14373 0341 7F       		.sleb128 -1
 14374 0342 9F       		.byte	0x9f
 14375 0343 00000000 		.4byte	0
 14376 0347 00000000 		.4byte	0
 14377              	.LLST62:
 14378 034b AA010000 		.4byte	.LVL191
 14379 034f B6010000 		.4byte	.LVL193
 14380 0353 0100     		.2byte	0x1
ARM GAS  C:\Users\mathi\AppData\Local\Temp\ccRLxsF0.s 			page 255


 14381 0355 55       		.byte	0x55
 14382 0356 B6010000 		.4byte	.LVL193
 14383 035a BA010000 		.4byte	.LVL194
 14384 035e 0300     		.2byte	0x3
 14385 0360 75       		.byte	0x75
 14386 0361 7F       		.sleb128 -1
 14387 0362 9F       		.byte	0x9f
 14388 0363 00000000 		.4byte	0
 14389 0367 00000000 		.4byte	0
 14390              	.LLST63:
 14391 036b C8010000 		.4byte	.LVL195
 14392 036f CA010000 		.4byte	.LVL196
 14393 0373 0600     		.2byte	0x6
 14394 0375 03       		.byte	0x3
 14395 0376 70010000 		.4byte	.LC17
 14396 037a 9F       		.byte	0x9f
 14397 037b CA010000 		.4byte	.LVL196
 14398 037f D6010000 		.4byte	.LVL198
 14399 0383 0100     		.2byte	0x1
 14400 0385 55       		.byte	0x55
 14401 0386 D6010000 		.4byte	.LVL198
 14402 038a DC010000 		.4byte	.LVL199
 14403 038e 0300     		.2byte	0x3
 14404 0390 75       		.byte	0x75
 14405 0391 7F       		.sleb128 -1
 14406 0392 9F       		.byte	0x9f
 14407 0393 00000000 		.4byte	0
 14408 0397 00000000 		.4byte	0
 14409              	.LLST64:
 14410 039b E0010000 		.4byte	.LVL200
 14411 039f EC010000 		.4byte	.LVL202
 14412 03a3 0100     		.2byte	0x1
 14413 03a5 56       		.byte	0x56
 14414 03a6 EC010000 		.4byte	.LVL202
 14415 03aa FA010000 		.4byte	.LVL203
 14416 03ae 0300     		.2byte	0x3
 14417 03b0 76       		.byte	0x76
 14418 03b1 7F       		.sleb128 -1
 14419 03b2 9F       		.byte	0x9f
 14420 03b3 00000000 		.4byte	0
 14421 03b7 00000000 		.4byte	0
 14422              	.LLST65:
 14423 03bb D4020000 		.4byte	.LVL215
 14424 03bf 80040000 		.4byte	.LVL279
 14425 03c3 0300     		.2byte	0x3
 14426 03c5 91       		.byte	0x91
 14427 03c6 B47F     		.sleb128 -76
 14428 03c8 04050000 		.4byte	.LVL293
 14429 03cc 5C050000 		.4byte	.LVL306
 14430 03d0 0300     		.2byte	0x3
 14431 03d2 91       		.byte	0x91
 14432 03d3 B47F     		.sleb128 -76
 14433 03d5 5C050000 		.4byte	.LVL306
 14434 03d9 67050000 		.4byte	.LVL308-1
 14435 03dd 0100     		.2byte	0x1
 14436 03df 52       		.byte	0x52
 14437 03e0 67050000 		.4byte	.LVL308-1
ARM GAS  C:\Users\mathi\AppData\Local\Temp\ccRLxsF0.s 			page 256


 14438 03e4 6A050000 		.4byte	.LVL309
 14439 03e8 0300     		.2byte	0x3
 14440 03ea 91       		.byte	0x91
 14441 03eb B47F     		.sleb128 -76
 14442 03ed 00000000 		.4byte	0
 14443 03f1 00000000 		.4byte	0
 14444              	.LLST66:
 14445 03f5 D4020000 		.4byte	.LVL215
 14446 03f9 E8020000 		.4byte	.LVL216
 14447 03fd 0300     		.2byte	0x3
 14448 03ff 91       		.byte	0x91
 14449 0400 B47F     		.sleb128 -76
 14450 0402 E8020000 		.4byte	.LVL216
 14451 0406 EE020000 		.4byte	.LVL217
 14452 040a 0D00     		.2byte	0xd
 14453 040c 91       		.byte	0x91
 14454 040d B47F     		.sleb128 -76
 14455 040f 06       		.byte	0x6
 14456 0410 F7       		.byte	0xf7
 14457 0411 25       		.uleb128 0x25
 14458 0412 3A       		.byte	0x3a
 14459 0413 F7       		.byte	0xf7
 14460 0414 25       		.uleb128 0x25
 14461 0415 1B       		.byte	0x1b
 14462 0416 F7       		.byte	0xf7
 14463 0417 00       		.uleb128 0
 14464 0418 9F       		.byte	0x9f
 14465 0419 EE020000 		.4byte	.LVL217
 14466 041d F2020000 		.4byte	.LVL218
 14467 0421 0200     		.2byte	0x2
 14468 0423 31       		.byte	0x31
 14469 0424 9F       		.byte	0x9f
 14470 0425 F2020000 		.4byte	.LVL218
 14471 0429 06030000 		.4byte	.LVL222
 14472 042d 0200     		.2byte	0x2
 14473 042f 30       		.byte	0x30
 14474 0430 9F       		.byte	0x9f
 14475 0431 5C050000 		.4byte	.LVL306
 14476 0435 67050000 		.4byte	.LVL308-1
 14477 0439 0B00     		.2byte	0xb
 14478 043b 72       		.byte	0x72
 14479 043c 00       		.sleb128 0
 14480 043d F7       		.byte	0xf7
 14481 043e 25       		.uleb128 0x25
 14482 043f 3A       		.byte	0x3a
 14483 0440 F7       		.byte	0xf7
 14484 0441 25       		.uleb128 0x25
 14485 0442 1B       		.byte	0x1b
 14486 0443 F7       		.byte	0xf7
 14487 0444 00       		.uleb128 0
 14488 0445 9F       		.byte	0x9f
 14489 0446 67050000 		.4byte	.LVL308-1
 14490 044a 6A050000 		.4byte	.LVL309
 14491 044e 0D00     		.2byte	0xd
 14492 0450 91       		.byte	0x91
 14493 0451 B47F     		.sleb128 -76
 14494 0453 06       		.byte	0x6
ARM GAS  C:\Users\mathi\AppData\Local\Temp\ccRLxsF0.s 			page 257


 14495 0454 F7       		.byte	0xf7
 14496 0455 25       		.uleb128 0x25
 14497 0456 3A       		.byte	0x3a
 14498 0457 F7       		.byte	0xf7
 14499 0458 25       		.uleb128 0x25
 14500 0459 1B       		.byte	0x1b
 14501 045a F7       		.byte	0xf7
 14502 045b 00       		.uleb128 0
 14503 045c 9F       		.byte	0x9f
 14504 045d 00000000 		.4byte	0
 14505 0461 00000000 		.4byte	0
 14506              	.LLST67:
 14507 0465 D4020000 		.4byte	.LVL215
 14508 0469 EE020000 		.4byte	.LVL217
 14509 046d 0300     		.2byte	0x3
 14510 046f 91       		.byte	0x91
 14511 0470 45       		.sleb128 -59
 14512 0471 9F       		.byte	0x9f
 14513 0472 EE020000 		.4byte	.LVL217
 14514 0476 F6020000 		.4byte	.LVL219
 14515 047a 0300     		.2byte	0x3
 14516 047c 91       		.byte	0x91
 14517 047d 46       		.sleb128 -58
 14518 047e 9F       		.byte	0x9f
 14519 047f F6020000 		.4byte	.LVL219
 14520 0483 FC020000 		.4byte	.LVL220
 14521 0487 0100     		.2byte	0x1
 14522 0489 58       		.byte	0x58
 14523 048a FC020000 		.4byte	.LVL220
 14524 048e 02030000 		.4byte	.LVL221
 14525 0492 0300     		.2byte	0x3
 14526 0494 78       		.byte	0x78
 14527 0495 01       		.sleb128 1
 14528 0496 9F       		.byte	0x9f
 14529 0497 02030000 		.4byte	.LVL221
 14530 049b 06030000 		.4byte	.LVL222
 14531 049f 0100     		.2byte	0x1
 14532 04a1 58       		.byte	0x58
 14533 04a2 5C050000 		.4byte	.LVL306
 14534 04a6 5E050000 		.4byte	.LVL307
 14535 04aa 0300     		.2byte	0x3
 14536 04ac 91       		.byte	0x91
 14537 04ad 45       		.sleb128 -59
 14538 04ae 9F       		.byte	0x9f
 14539 04af 5E050000 		.4byte	.LVL307
 14540 04b3 6A050000 		.4byte	.LVL309
 14541 04b7 0100     		.2byte	0x1
 14542 04b9 57       		.byte	0x57
 14543 04ba 00000000 		.4byte	0
 14544 04be 00000000 		.4byte	0
 14545              	.LLST68:
 14546 04c2 56020000 		.4byte	.LVL211
 14547 04c6 C4020000 		.4byte	.LVL212
 14548 04ca 0600     		.2byte	0x6
 14549 04cc 03       		.byte	0x3
 14550 04cd A8010000 		.4byte	.LC19
 14551 04d1 9F       		.byte	0x9f
ARM GAS  C:\Users\mathi\AppData\Local\Temp\ccRLxsF0.s 			page 258


 14552 04d2 C4020000 		.4byte	.LVL212
 14553 04d6 D0020000 		.4byte	.LVL214
 14554 04da 0100     		.2byte	0x1
 14555 04dc 57       		.byte	0x57
 14556 04dd D0020000 		.4byte	.LVL214
 14557 04e1 D4020000 		.4byte	.LVL215
 14558 04e5 0300     		.2byte	0x3
 14559 04e7 77       		.byte	0x77
 14560 04e8 7F       		.sleb128 -1
 14561 04e9 9F       		.byte	0x9f
 14562 04ea 00000000 		.4byte	0
 14563 04ee 00000000 		.4byte	0
 14564              	.LLST69:
 14565 04f2 06030000 		.4byte	.LVL222
 14566 04f6 08030000 		.4byte	.LVL223
 14567 04fa 0600     		.2byte	0x6
 14568 04fc F2       		.byte	0xf2
 14569 04fd 0E4D0000 		.4byte	.Ldebug_info0+19726
 14570 0501 00       		.sleb128 0
 14571 0502 00000000 		.4byte	0
 14572 0506 00000000 		.4byte	0
 14573              	.LLST70:
 14574 050a 12030000 		.4byte	.LVL225
 14575 050e 80040000 		.4byte	.LVL279
 14576 0512 0100     		.2byte	0x1
 14577 0514 55       		.byte	0x55
 14578 0515 04050000 		.4byte	.LVL293
 14579 0519 5C050000 		.4byte	.LVL306
 14580 051d 0100     		.2byte	0x1
 14581 051f 55       		.byte	0x55
 14582 0520 00000000 		.4byte	0
 14583 0524 00000000 		.4byte	0
 14584              	.LLST71:
 14585 0528 16030000 		.4byte	.LVL226
 14586 052c 26030000 		.4byte	.LVL227
 14587 0530 0100     		.2byte	0x1
 14588 0532 53       		.byte	0x53
 14589 0533 2C030000 		.4byte	.LVL228
 14590 0537 36030000 		.4byte	.LVL229
 14591 053b 0100     		.2byte	0x1
 14592 053d 52       		.byte	0x52
 14593 053e 00000000 		.4byte	0
 14594 0542 00000000 		.4byte	0
 14595              	.LLST72:
 14596 0546 16030000 		.4byte	.LVL226
 14597 054a 3C030000 		.4byte	.LVL230
 14598 054e 0100     		.2byte	0x1
 14599 0550 58       		.byte	0x58
 14600 0551 3C030000 		.4byte	.LVL230
 14601 0555 42030000 		.4byte	.LVL231
 14602 0559 0300     		.2byte	0x3
 14603 055b 78       		.byte	0x78
 14604 055c 01       		.sleb128 1
 14605 055d 9F       		.byte	0x9f
 14606 055e 42030000 		.4byte	.LVL231
 14607 0562 4A030000 		.4byte	.LVL233
 14608 0566 0100     		.2byte	0x1
ARM GAS  C:\Users\mathi\AppData\Local\Temp\ccRLxsF0.s 			page 259


 14609 0568 58       		.byte	0x58
 14610 0569 00000000 		.4byte	0
 14611 056d 00000000 		.4byte	0
 14612              	.LLST73:
 14613 0571 46030000 		.4byte	.LVL232
 14614 0575 4C030000 		.4byte	.LVL234
 14615 0579 0600     		.2byte	0x6
 14616 057b 03       		.byte	0x3
 14617 057c B8010000 		.4byte	.LC20
 14618 0580 9F       		.byte	0x9f
 14619 0581 4C030000 		.4byte	.LVL234
 14620 0585 58030000 		.4byte	.LVL236
 14621 0589 0100     		.2byte	0x1
 14622 058b 58       		.byte	0x58
 14623 058c 58030000 		.4byte	.LVL236
 14624 0590 5C030000 		.4byte	.LVL237
 14625 0594 0300     		.2byte	0x3
 14626 0596 78       		.byte	0x78
 14627 0597 7F       		.sleb128 -1
 14628 0598 9F       		.byte	0x9f
 14629 0599 00000000 		.4byte	0
 14630 059d 00000000 		.4byte	0
 14631              	.LLST74:
 14632 05a1 62030000 		.4byte	.LVL238
 14633 05a5 74030000 		.4byte	.LVL241
 14634 05a9 0100     		.2byte	0x1
 14635 05ab 58       		.byte	0x58
 14636 05ac 74030000 		.4byte	.LVL241
 14637 05b0 78030000 		.4byte	.LVL242
 14638 05b4 0300     		.2byte	0x3
 14639 05b6 78       		.byte	0x78
 14640 05b7 7F       		.sleb128 -1
 14641 05b8 9F       		.byte	0x9f
 14642 05b9 00000000 		.4byte	0
 14643 05bd 00000000 		.4byte	0
 14644              	.LLST75:
 14645 05c1 78030000 		.4byte	.LVL242
 14646 05c5 7A030000 		.4byte	.LVL243
 14647 05c9 0600     		.2byte	0x6
 14648 05cb F2       		.byte	0xf2
 14649 05cc 144D0000 		.4byte	.Ldebug_info0+19732
 14650 05d0 00       		.sleb128 0
 14651 05d1 00000000 		.4byte	0
 14652 05d5 00000000 		.4byte	0
 14653              	.LLST76:
 14654 05d9 98030000 		.4byte	.LVL247
 14655 05dd CE030000 		.4byte	.LVL252
 14656 05e1 0100     		.2byte	0x1
 14657 05e3 58       		.byte	0x58
 14658 05e4 00000000 		.4byte	0
 14659 05e8 00000000 		.4byte	0
 14660              	.LLST77:
 14661 05ec B4030000 		.4byte	.LVL248
 14662 05f0 E4030000 		.4byte	.LVL255
 14663 05f4 0200     		.2byte	0x2
 14664 05f6 35       		.byte	0x35
 14665 05f7 9F       		.byte	0x9f
ARM GAS  C:\Users\mathi\AppData\Local\Temp\ccRLxsF0.s 			page 260


 14666 05f8 00000000 		.4byte	0
 14667 05fc 00000000 		.4byte	0
 14668              	.LLST78:
 14669 0600 F4030000 		.4byte	.LVL256
 14670 0604 00040000 		.4byte	.LVL258
 14671 0608 0100     		.2byte	0x1
 14672 060a 58       		.byte	0x58
 14673 060b 00040000 		.4byte	.LVL258
 14674 060f 04040000 		.4byte	.LVL259
 14675 0613 0300     		.2byte	0x3
 14676 0615 78       		.byte	0x78
 14677 0616 7F       		.sleb128 -1
 14678 0617 9F       		.byte	0x9f
 14679 0618 00000000 		.4byte	0
 14680 061c 00000000 		.4byte	0
 14681              	.LLST79:
 14682 0620 0A040000 		.4byte	.LVL260
 14683 0624 12040000 		.4byte	.LVL261
 14684 0628 0100     		.2byte	0x1
 14685 062a 53       		.byte	0x53
 14686 062b 12040000 		.4byte	.LVL261
 14687 062f 17040000 		.4byte	.LVL262-1
 14688 0633 0500     		.2byte	0x5
 14689 0635 03       		.byte	0x3
 14690 0636 00000000 		.4byte	failpoint
 14691 063a 26050000 		.4byte	.LVL299
 14692 063e 28050000 		.4byte	.LVL300
 14693 0642 0100     		.2byte	0x1
 14694 0644 53       		.byte	0x53
 14695 0645 28050000 		.4byte	.LVL300
 14696 0649 4A050000 		.4byte	.LVL303
 14697 064d 0500     		.2byte	0x5
 14698 064f 03       		.byte	0x3
 14699 0650 00000000 		.4byte	failpoint
 14700 0654 00000000 		.4byte	0
 14701 0658 00000000 		.4byte	0
 14702              	.LLST80:
 14703 065c 28050000 		.4byte	.LVL300
 14704 0660 38050000 		.4byte	.LVL301
 14705 0664 0100     		.2byte	0x1
 14706 0666 53       		.byte	0x53
 14707 0667 3E050000 		.4byte	.LVL302
 14708 066b 4A050000 		.4byte	.LVL303
 14709 066f 0100     		.2byte	0x1
 14710 0671 52       		.byte	0x52
 14711 0672 00000000 		.4byte	0
 14712 0676 00000000 		.4byte	0
 14713              	.LLST81:
 14714 067a 28050000 		.4byte	.LVL300
 14715 067e 50050000 		.4byte	.LVL304
 14716 0682 0100     		.2byte	0x1
 14717 0684 58       		.byte	0x58
 14718 0685 50050000 		.4byte	.LVL304
 14719 0689 54050000 		.4byte	.LVL305
 14720 068d 0300     		.2byte	0x3
 14721 068f 78       		.byte	0x78
 14722 0690 01       		.sleb128 1
ARM GAS  C:\Users\mathi\AppData\Local\Temp\ccRLxsF0.s 			page 261


 14723 0691 9F       		.byte	0x9f
 14724 0692 54050000 		.4byte	.LVL305
 14725 0696 5C050000 		.4byte	.LVL306
 14726 069a 0100     		.2byte	0x1
 14727 069c 58       		.byte	0x58
 14728 069d 00000000 		.4byte	0
 14729 06a1 00000000 		.4byte	0
 14730              	.LLST82:
 14731 06a5 1A040000 		.4byte	.LVL263
 14732 06a9 20040000 		.4byte	.LVL264
 14733 06ad 0600     		.2byte	0x6
 14734 06af 03       		.byte	0x3
 14735 06b0 D4010000 		.4byte	.LC22
 14736 06b4 9F       		.byte	0x9f
 14737 06b5 20040000 		.4byte	.LVL264
 14738 06b9 22040000 		.4byte	.LVL265
 14739 06bd 0300     		.2byte	0x3
 14740 06bf 77       		.byte	0x77
 14741 06c0 7F       		.sleb128 -1
 14742 06c1 9F       		.byte	0x9f
 14743 06c2 22040000 		.4byte	.LVL265
 14744 06c6 2C040000 		.4byte	.LVL267
 14745 06ca 0100     		.2byte	0x1
 14746 06cc 57       		.byte	0x57
 14747 06cd 2C040000 		.4byte	.LVL267
 14748 06d1 3A040000 		.4byte	.LVL269
 14749 06d5 0300     		.2byte	0x3
 14750 06d7 77       		.byte	0x77
 14751 06d8 7F       		.sleb128 -1
 14752 06d9 9F       		.byte	0x9f
 14753 06da 00000000 		.4byte	0
 14754 06de 00000000 		.4byte	0
 14755              	.LLST83:
 14756 06e2 30040000 		.4byte	.LVL268
 14757 06e6 3A040000 		.4byte	.LVL269
 14758 06ea 0600     		.2byte	0x6
 14759 06ec 03       		.byte	0x3
 14760 06ed 00000000 		.4byte	tokens_buffer
 14761 06f1 9F       		.byte	0x9f
 14762 06f2 3A040000 		.4byte	.LVL269
 14763 06f6 40040000 		.4byte	.LVL270
 14764 06fa 0100     		.2byte	0x1
 14765 06fc 57       		.byte	0x57
 14766 06fd 40040000 		.4byte	.LVL270
 14767 0701 46040000 		.4byte	.LVL271
 14768 0705 0300     		.2byte	0x3
 14769 0707 77       		.byte	0x77
 14770 0708 7F       		.sleb128 -1
 14771 0709 9F       		.byte	0x9f
 14772 070a 46040000 		.4byte	.LVL271
 14773 070e 4C040000 		.4byte	.LVL272
 14774 0712 0100     		.2byte	0x1
 14775 0714 57       		.byte	0x57
 14776 0715 00000000 		.4byte	0
 14777 0719 00000000 		.4byte	0
 14778              	.LLST84:
 14779 071d 4C040000 		.4byte	.LVL272
ARM GAS  C:\Users\mathi\AppData\Local\Temp\ccRLxsF0.s 			page 262


 14780 0721 50040000 		.4byte	.LVL273
 14781 0725 0600     		.2byte	0x6
 14782 0727 03       		.byte	0x3
 14783 0728 D8010000 		.4byte	.LC23
 14784 072c 9F       		.byte	0x9f
 14785 072d 50040000 		.4byte	.LVL273
 14786 0731 5C040000 		.4byte	.LVL275
 14787 0735 0100     		.2byte	0x1
 14788 0737 56       		.byte	0x56
 14789 0738 5C040000 		.4byte	.LVL275
 14790 073c 60040000 		.4byte	.LVL276
 14791 0740 0300     		.2byte	0x3
 14792 0742 76       		.byte	0x76
 14793 0743 7F       		.sleb128 -1
 14794 0744 9F       		.byte	0x9f
 14795 0745 00000000 		.4byte	0
 14796 0749 00000000 		.4byte	0
 14797              	.LLST85:
 14798 074d BA040000 		.4byte	.LVL283
 14799 0751 BC040000 		.4byte	.LVL284
 14800 0755 0600     		.2byte	0x6
 14801 0757 03       		.byte	0x3
 14802 0758 F0010000 		.4byte	.LC25
 14803 075c 9F       		.byte	0x9f
 14804 075d BC040000 		.4byte	.LVL284
 14805 0761 C8040000 		.4byte	.LVL286
 14806 0765 0100     		.2byte	0x1
 14807 0767 55       		.byte	0x55
 14808 0768 C8040000 		.4byte	.LVL286
 14809 076c CC040000 		.4byte	.LVL287
 14810 0770 0300     		.2byte	0x3
 14811 0772 75       		.byte	0x75
 14812 0773 7F       		.sleb128 -1
 14813 0774 9F       		.byte	0x9f
 14814 0775 00000000 		.4byte	0
 14815 0779 00000000 		.4byte	0
 14816              	.LLST86:
 14817 077d D8040000 		.4byte	.LVL288
 14818 0781 E4040000 		.4byte	.LVL290
 14819 0785 0100     		.2byte	0x1
 14820 0787 55       		.byte	0x55
 14821 0788 E4040000 		.4byte	.LVL290
 14822 078c E8040000 		.4byte	.LVL291
 14823 0790 0300     		.2byte	0x3
 14824 0792 75       		.byte	0x75
 14825 0793 7F       		.sleb128 -1
 14826 0794 9F       		.byte	0x9f
 14827 0795 00000000 		.4byte	0
 14828 0799 00000000 		.4byte	0
 14829              	.LLST87:
 14830 079d 08050000 		.4byte	.LVL294
 14831 07a1 14050000 		.4byte	.LVL296
 14832 07a5 0100     		.2byte	0x1
 14833 07a7 56       		.byte	0x56
 14834 07a8 14050000 		.4byte	.LVL296
 14835 07ac 18050000 		.4byte	.LVL297
 14836 07b0 0300     		.2byte	0x3
ARM GAS  C:\Users\mathi\AppData\Local\Temp\ccRLxsF0.s 			page 263


 14837 07b2 76       		.byte	0x76
 14838 07b3 7F       		.sleb128 -1
 14839 07b4 9F       		.byte	0x9f
 14840 07b5 00000000 		.4byte	0
 14841 07b9 00000000 		.4byte	0
 14842              	.LLST88:
 14843 07bd 6E050000 		.4byte	.LVL310
 14844 07c1 7A050000 		.4byte	.LVL312
 14845 07c5 0100     		.2byte	0x1
 14846 07c7 55       		.byte	0x55
 14847 07c8 7A050000 		.4byte	.LVL312
 14848 07cc 80050000 		.4byte	.LVL313
 14849 07d0 0300     		.2byte	0x3
 14850 07d2 75       		.byte	0x75
 14851 07d3 7F       		.sleb128 -1
 14852 07d4 9F       		.byte	0x9f
 14853 07d5 00000000 		.4byte	0
 14854 07d9 00000000 		.4byte	0
 14855              	.LLST32:
 14856 07dd 00000000 		.4byte	.LVL103
 14857 07e1 14000000 		.4byte	.LVL104
 14858 07e5 0100     		.2byte	0x1
 14859 07e7 50       		.byte	0x50
 14860 07e8 14000000 		.4byte	.LVL104
 14861 07ec A0000000 		.4byte	.LFE271
 14862 07f0 0400     		.2byte	0x4
 14863 07f2 F3       		.byte	0xf3
 14864 07f3 01       		.uleb128 0x1
 14865 07f4 50       		.byte	0x50
 14866 07f5 9F       		.byte	0x9f
 14867 07f6 00000000 		.4byte	0
 14868 07fa 00000000 		.4byte	0
 14869              	.LLST33:
 14870 07fe 24000000 		.4byte	.LVL105
 14871 0802 6C000000 		.4byte	.LVL115
 14872 0806 0600     		.2byte	0x6
 14873 0808 03       		.byte	0x3
 14874 0809 00000000 		.4byte	vt
 14875 080d 9F       		.byte	0x9f
 14876 080e 78000000 		.4byte	.LVL116
 14877 0812 80000000 		.4byte	.LVL118
 14878 0816 0600     		.2byte	0x6
 14879 0818 03       		.byte	0x3
 14880 0819 00000000 		.4byte	vt
 14881 081d 9F       		.byte	0x9f
 14882 081e 00000000 		.4byte	0
 14883 0822 00000000 		.4byte	0
 14884              	.LLST34:
 14885 0826 24000000 		.4byte	.LVL105
 14886 082a 6C000000 		.4byte	.LVL115
 14887 082e 0600     		.2byte	0x6
 14888 0830 03       		.byte	0x3
 14889 0831 00000000 		.4byte	tmr
 14890 0835 9F       		.byte	0x9f
 14891 0836 78000000 		.4byte	.LVL116
 14892 083a 80000000 		.4byte	.LVL118
 14893 083e 0600     		.2byte	0x6
ARM GAS  C:\Users\mathi\AppData\Local\Temp\ccRLxsF0.s 			page 264


 14894 0840 03       		.byte	0x3
 14895 0841 00000000 		.4byte	tmr
 14896 0845 9F       		.byte	0x9f
 14897 0846 00000000 		.4byte	0
 14898 084a 00000000 		.4byte	0
 14899              	.LLST35:
 14900 084e 24000000 		.4byte	.LVL105
 14901 0852 6C000000 		.4byte	.LVL115
 14902 0856 0200     		.2byte	0x2
 14903 0858 30       		.byte	0x30
 14904 0859 9F       		.byte	0x9f
 14905 085a 78000000 		.4byte	.LVL116
 14906 085e 80000000 		.4byte	.LVL118
 14907 0862 0200     		.2byte	0x2
 14908 0864 30       		.byte	0x30
 14909 0865 9F       		.byte	0x9f
 14910 0866 00000000 		.4byte	0
 14911 086a 00000000 		.4byte	0
 14912              	.LLST36:
 14913 086e 24000000 		.4byte	.LVL105
 14914 0872 6C000000 		.4byte	.LVL115
 14915 0876 0100     		.2byte	0x1
 14916 0878 54       		.byte	0x54
 14917 0879 78000000 		.4byte	.LVL116
 14918 087d 80000000 		.4byte	.LVL118
 14919 0881 0100     		.2byte	0x1
 14920 0883 54       		.byte	0x54
 14921 0884 00000000 		.4byte	0
 14922 0888 00000000 		.4byte	0
 14923              	.LLST37:
 14924 088c 24000000 		.4byte	.LVL105
 14925 0890 2A000000 		.4byte	.LVL106
 14926 0894 0300     		.2byte	0x3
 14927 0896 08       		.byte	0x8
 14928 0897 20       		.byte	0x20
 14929 0898 9F       		.byte	0x9f
 14930 0899 00000000 		.4byte	0
 14931 089d 00000000 		.4byte	0
 14932              	.LLST38:
 14933 08a1 32000000 		.4byte	.LVL108
 14934 08a5 4C000000 		.4byte	.LVL111
 14935 08a9 0600     		.2byte	0x6
 14936 08ab 03       		.byte	0x3
 14937 08ac 00000000 		.4byte	vt
 14938 08b0 9F       		.byte	0x9f
 14939 08b1 00000000 		.4byte	0
 14940 08b5 00000000 		.4byte	0
 14941              	.LLST39:
 14942 08b9 32000000 		.4byte	.LVL108
 14943 08bd 4C000000 		.4byte	.LVL111
 14944 08c1 0600     		.2byte	0x6
 14945 08c3 03       		.byte	0x3
 14946 08c4 00000000 		.4byte	tmr
 14947 08c8 9F       		.byte	0x9f
 14948 08c9 00000000 		.4byte	0
 14949 08cd 00000000 		.4byte	0
 14950              	.LLST40:
ARM GAS  C:\Users\mathi\AppData\Local\Temp\ccRLxsF0.s 			page 265


 14951 08d1 32000000 		.4byte	.LVL108
 14952 08d5 4C000000 		.4byte	.LVL111
 14953 08d9 0200     		.2byte	0x2
 14954 08db 30       		.byte	0x30
 14955 08dc 9F       		.byte	0x9f
 14956 08dd 00000000 		.4byte	0
 14957 08e1 00000000 		.4byte	0
 14958              	.LLST41:
 14959 08e5 32000000 		.4byte	.LVL108
 14960 08e9 4C000000 		.4byte	.LVL111
 14961 08ed 0100     		.2byte	0x1
 14962 08ef 54       		.byte	0x54
 14963 08f0 00000000 		.4byte	0
 14964 08f4 00000000 		.4byte	0
 14965              	.LLST42:
 14966 08f8 32000000 		.4byte	.LVL108
 14967 08fc 40000000 		.4byte	.LVL110
 14968 0900 0600     		.2byte	0x6
 14969 0902 03       		.byte	0x3
 14970 0903 00000000 		.4byte	vt
 14971 0907 9F       		.byte	0x9f
 14972 0908 00000000 		.4byte	0
 14973 090c 00000000 		.4byte	0
 14974              	.LLST43:
 14975 0910 66000000 		.4byte	.LVL114
 14976 0914 6C000000 		.4byte	.LVL115
 14977 0918 0200     		.2byte	0x2
 14978 091a 30       		.byte	0x30
 14979 091b 9F       		.byte	0x9f
 14980 091c 00000000 		.4byte	0
 14981 0920 00000000 		.4byte	0
 14982              	.LLST0:
 14983 0924 00000000 		.4byte	.LVL0
 14984 0928 0C000000 		.4byte	.LVL1
 14985 092c 0100     		.2byte	0x1
 14986 092e 50       		.byte	0x50
 14987 092f 0C000000 		.4byte	.LVL1
 14988 0933 2C000000 		.4byte	.LFE270
 14989 0937 0400     		.2byte	0x4
 14990 0939 F3       		.byte	0xf3
 14991 093a 01       		.uleb128 0x1
 14992 093b 50       		.byte	0x50
 14993 093c 9F       		.byte	0x9f
 14994 093d 00000000 		.4byte	0
 14995 0941 00000000 		.4byte	0
 14996              	.LLST30:
 14997 0945 10000000 		.4byte	.LVL93
 14998 0949 16000000 		.4byte	.LVL94
 14999 094d 0300     		.2byte	0x3
 15000 094f 08       		.byte	0x8
 15001 0950 20       		.byte	0x20
 15002 0951 9F       		.byte	0x9f
 15003 0952 00000000 		.4byte	0
 15004 0956 00000000 		.4byte	0
 15005              	.LLST31:
 15006 095a 3A000000 		.4byte	.LVL99
 15007 095e 40000000 		.4byte	.LVL100
ARM GAS  C:\Users\mathi\AppData\Local\Temp\ccRLxsF0.s 			page 266


 15008 0962 0200     		.2byte	0x2
 15009 0964 30       		.byte	0x30
 15010 0965 9F       		.byte	0x9f
 15011 0966 00000000 		.4byte	0
 15012 096a 00000000 		.4byte	0
 15013              	.LLST28:
 15014 096e 00000000 		.4byte	.LVL86
 15015 0972 18000000 		.4byte	.LVL87
 15016 0976 0100     		.2byte	0x1
 15017 0978 50       		.byte	0x50
 15018 0979 18000000 		.4byte	.LVL87
 15019 097d 5C000000 		.4byte	.LFE268
 15020 0981 0400     		.2byte	0x4
 15021 0983 F3       		.byte	0xf3
 15022 0984 01       		.uleb128 0x1
 15023 0985 50       		.byte	0x50
 15024 0986 9F       		.byte	0x9f
 15025 0987 00000000 		.4byte	0
 15026 098b 00000000 		.4byte	0
 15027              	.LLST29:
 15028 098f 26000000 		.4byte	.LVL88
 15029 0993 38000000 		.4byte	.LVL89
 15030 0997 0100     		.2byte	0x1
 15031 0999 53       		.byte	0x53
 15032 099a 40000000 		.4byte	.LVL90
 15033 099e 4C000000 		.4byte	.LVL91
 15034 09a2 0100     		.2byte	0x1
 15035 09a4 53       		.byte	0x53
 15036 09a5 00000000 		.4byte	0
 15037 09a9 00000000 		.4byte	0
 15038              	.LLST18:
 15039 09ad 00000000 		.4byte	.LVL62
 15040 09b1 21000000 		.4byte	.LVL66-1
 15041 09b5 0100     		.2byte	0x1
 15042 09b7 50       		.byte	0x50
 15043 09b8 21000000 		.4byte	.LVL66-1
 15044 09bc 94000000 		.4byte	.LFE265
 15045 09c0 0100     		.2byte	0x1
 15046 09c2 57       		.byte	0x57
 15047 09c3 00000000 		.4byte	0
 15048 09c7 00000000 		.4byte	0
 15049              	.LLST19:
 15050 09cb 00000000 		.4byte	.LVL62
 15051 09cf 21000000 		.4byte	.LVL66-1
 15052 09d3 0100     		.2byte	0x1
 15053 09d5 51       		.byte	0x51
 15054 09d6 21000000 		.4byte	.LVL66-1
 15055 09da 94000000 		.4byte	.LFE265
 15056 09de 0100     		.2byte	0x1
 15057 09e0 59       		.byte	0x59
 15058 09e1 00000000 		.4byte	0
 15059 09e5 00000000 		.4byte	0
 15060              	.LLST20:
 15061 09e9 00000000 		.4byte	.LVL62
 15062 09ed 21000000 		.4byte	.LVL66-1
 15063 09f1 0100     		.2byte	0x1
 15064 09f3 52       		.byte	0x52
ARM GAS  C:\Users\mathi\AppData\Local\Temp\ccRLxsF0.s 			page 267


 15065 09f4 21000000 		.4byte	.LVL66-1
 15066 09f8 4E000000 		.4byte	.LVL72
 15067 09fc 0100     		.2byte	0x1
 15068 09fe 55       		.byte	0x55
 15069 09ff 4E000000 		.4byte	.LVL72
 15070 0a03 70000000 		.4byte	.LVL75
 15071 0a07 0400     		.2byte	0x4
 15072 0a09 F3       		.byte	0xf3
 15073 0a0a 01       		.uleb128 0x1
 15074 0a0b 52       		.byte	0x52
 15075 0a0c 9F       		.byte	0x9f
 15076 0a0d 70000000 		.4byte	.LVL75
 15077 0a11 78000000 		.4byte	.LVL77
 15078 0a15 0100     		.2byte	0x1
 15079 0a17 55       		.byte	0x55
 15080 0a18 78000000 		.4byte	.LVL77
 15081 0a1c 94000000 		.4byte	.LFE265
 15082 0a20 0400     		.2byte	0x4
 15083 0a22 F3       		.byte	0xf3
 15084 0a23 01       		.uleb128 0x1
 15085 0a24 52       		.byte	0x52
 15086 0a25 9F       		.byte	0x9f
 15087 0a26 00000000 		.4byte	0
 15088 0a2a 00000000 		.4byte	0
 15089              	.LLST21:
 15090 0a2e 16000000 		.4byte	.LVL64
 15091 0a32 21000000 		.4byte	.LVL66-1
 15092 0a36 0100     		.2byte	0x1
 15093 0a38 52       		.byte	0x52
 15094 0a39 21000000 		.4byte	.LVL66-1
 15095 0a3d 46000000 		.4byte	.LVL71
 15096 0a41 0100     		.2byte	0x1
 15097 0a43 55       		.byte	0x55
 15098 0a44 70000000 		.4byte	.LVL75
 15099 0a48 78000000 		.4byte	.LVL77
 15100 0a4c 0100     		.2byte	0x1
 15101 0a4e 55       		.byte	0x55
 15102 0a4f 00000000 		.4byte	0
 15103 0a53 00000000 		.4byte	0
 15104              	.LLST22:
 15105 0a57 14000000 		.4byte	.LVL63
 15106 0a5b 21000000 		.4byte	.LVL66-1
 15107 0a5f 0100     		.2byte	0x1
 15108 0a61 51       		.byte	0x51
 15109 0a62 21000000 		.4byte	.LVL66-1
 15110 0a66 46000000 		.4byte	.LVL71
 15111 0a6a 0100     		.2byte	0x1
 15112 0a6c 59       		.byte	0x59
 15113 0a6d 70000000 		.4byte	.LVL75
 15114 0a71 78000000 		.4byte	.LVL77
 15115 0a75 0100     		.2byte	0x1
 15116 0a77 59       		.byte	0x59
 15117 0a78 00000000 		.4byte	0
 15118 0a7c 00000000 		.4byte	0
 15119              	.LLST23:
 15120 0a80 16000000 		.4byte	.LVL64
 15121 0a84 1C000000 		.4byte	.LVL65
ARM GAS  C:\Users\mathi\AppData\Local\Temp\ccRLxsF0.s 			page 268


 15122 0a88 0300     		.2byte	0x3
 15123 0a8a 08       		.byte	0x8
 15124 0a8b 20       		.byte	0x20
 15125 0a8c 9F       		.byte	0x9f
 15126 0a8d 00000000 		.4byte	0
 15127 0a91 00000000 		.4byte	0
 15128              	.LLST24:
 15129 0a95 40000000 		.4byte	.LVL70
 15130 0a99 46000000 		.4byte	.LVL71
 15131 0a9d 0200     		.2byte	0x2
 15132 0a9f 30       		.byte	0x30
 15133 0aa0 9F       		.byte	0x9f
 15134 0aa1 00000000 		.4byte	0
 15135 0aa5 00000000 		.4byte	0
 15136              	.LLST25:
 15137 0aa9 46000000 		.4byte	.LVL71
 15138 0aad 60000000 		.4byte	.LVL74
 15139 0ab1 0100     		.2byte	0x1
 15140 0ab3 57       		.byte	0x57
 15141 0ab4 00000000 		.4byte	0
 15142 0ab8 00000000 		.4byte	0
 15143              	.LLST26:
 15144 0abc 52000000 		.4byte	.LVL73
 15145 0ac0 60000000 		.4byte	.LVL74
 15146 0ac4 0100     		.2byte	0x1
 15147 0ac6 57       		.byte	0x57
 15148 0ac7 00000000 		.4byte	0
 15149 0acb 00000000 		.4byte	0
 15150              	.LLST14:
 15151 0acf 00000000 		.4byte	.LVL51
 15152 0ad3 46000000 		.4byte	.LVL60
 15153 0ad7 0100     		.2byte	0x1
 15154 0ad9 50       		.byte	0x50
 15155 0ada 46000000 		.4byte	.LVL60
 15156 0ade 68000000 		.4byte	.LFE264
 15157 0ae2 0400     		.2byte	0x4
 15158 0ae4 F3       		.byte	0xf3
 15159 0ae5 01       		.uleb128 0x1
 15160 0ae6 50       		.byte	0x50
 15161 0ae7 9F       		.byte	0x9f
 15162 0ae8 00000000 		.4byte	0
 15163 0aec 00000000 		.4byte	0
 15164              	.LLST15:
 15165 0af0 00000000 		.4byte	.LVL51
 15166 0af4 12000000 		.4byte	.LVL52
 15167 0af8 0100     		.2byte	0x1
 15168 0afa 51       		.byte	0x51
 15169 0afb 12000000 		.4byte	.LVL52
 15170 0aff 26000000 		.4byte	.LVL57
 15171 0b03 0300     		.2byte	0x3
 15172 0b05 71       		.byte	0x71
 15173 0b06 01       		.sleb128 1
 15174 0b07 9F       		.byte	0x9f
 15175 0b08 26000000 		.4byte	.LVL57
 15176 0b0c 30000000 		.4byte	.LVL58
 15177 0b10 0100     		.2byte	0x1
 15178 0b12 51       		.byte	0x51
ARM GAS  C:\Users\mathi\AppData\Local\Temp\ccRLxsF0.s 			page 269


 15179 0b13 00000000 		.4byte	0
 15180 0b17 00000000 		.4byte	0
 15181              	.LLST16:
 15182 0b1b 14000000 		.4byte	.LVL53
 15183 0b1f 18000000 		.4byte	.LVL54
 15184 0b23 0600     		.2byte	0x6
 15185 0b25 03       		.byte	0x3
 15186 0b26 00000000 		.4byte	tokens_buffer
 15187 0b2a 9F       		.byte	0x9f
 15188 0b2b 18000000 		.4byte	.LVL54
 15189 0b2f 1C000000 		.4byte	.LVL55
 15190 0b33 0100     		.2byte	0x1
 15191 0b35 53       		.byte	0x53
 15192 0b36 1C000000 		.4byte	.LVL55
 15193 0b3a 20000000 		.4byte	.LVL56
 15194 0b3e 0300     		.2byte	0x3
 15195 0b40 73       		.byte	0x73
 15196 0b41 7F       		.sleb128 -1
 15197 0b42 9F       		.byte	0x9f
 15198 0b43 20000000 		.4byte	.LVL56
 15199 0b47 30000000 		.4byte	.LVL58
 15200 0b4b 0100     		.2byte	0x1
 15201 0b4d 53       		.byte	0x53
 15202 0b4e 00000000 		.4byte	0
 15203 0b52 00000000 		.4byte	0
 15204              	.LLST17:
 15205 0b56 30000000 		.4byte	.LVL58
 15206 0b5a 3E000000 		.4byte	.LVL59
 15207 0b5e 0100     		.2byte	0x1
 15208 0b60 50       		.byte	0x50
 15209 0b61 00000000 		.4byte	0
 15210 0b65 00000000 		.4byte	0
 15211              	.LLST7:
 15212 0b69 00000000 		.4byte	.LVL29
 15213 0b6d 15000000 		.4byte	.LVL32-1
 15214 0b71 0100     		.2byte	0x1
 15215 0b73 50       		.byte	0x50
 15216 0b74 15000000 		.4byte	.LVL32-1
 15217 0b78 6C000000 		.4byte	.LFE261
 15218 0b7c 0400     		.2byte	0x4
 15219 0b7e F3       		.byte	0xf3
 15220 0b7f 01       		.uleb128 0x1
 15221 0b80 50       		.byte	0x50
 15222 0b81 9F       		.byte	0x9f
 15223 0b82 00000000 		.4byte	0
 15224 0b86 00000000 		.4byte	0
 15225              	.LLST8:
 15226 0b8a 0A000000 		.4byte	.LVL30
 15227 0b8e 12000000 		.4byte	.LVL31
 15228 0b92 0300     		.2byte	0x3
 15229 0b94 08       		.byte	0x8
 15230 0b95 20       		.byte	0x20
 15231 0b96 9F       		.byte	0x9f
 15232 0b97 00000000 		.4byte	0
 15233 0b9b 00000000 		.4byte	0
 15234              	.LLST9:
 15235 0b9f 3E000000 		.4byte	.LVL36
ARM GAS  C:\Users\mathi\AppData\Local\Temp\ccRLxsF0.s 			page 270


 15236 0ba3 44000000 		.4byte	.LVL37
 15237 0ba7 0200     		.2byte	0x2
 15238 0ba9 30       		.byte	0x30
 15239 0baa 9F       		.byte	0x9f
 15240 0bab 00000000 		.4byte	0
 15241 0baf 00000000 		.4byte	0
 15242              	.LLST1:
 15243 0bb3 00000000 		.4byte	.LVL3
 15244 0bb7 16000000 		.4byte	.LVL4
 15245 0bbb 0100     		.2byte	0x1
 15246 0bbd 50       		.byte	0x50
 15247 0bbe 16000000 		.4byte	.LVL4
 15248 0bc2 26000000 		.4byte	.LVL5
 15249 0bc6 0400     		.2byte	0x4
 15250 0bc8 F3       		.byte	0xf3
 15251 0bc9 01       		.uleb128 0x1
 15252 0bca 50       		.byte	0x50
 15253 0bcb 9F       		.byte	0x9f
 15254 0bcc 26000000 		.4byte	.LVL5
 15255 0bd0 2C000000 		.4byte	.LVL6
 15256 0bd4 0100     		.2byte	0x1
 15257 0bd6 50       		.byte	0x50
 15258 0bd7 2C000000 		.4byte	.LVL6
 15259 0bdb 78000000 		.4byte	.LFE256
 15260 0bdf 0400     		.2byte	0x4
 15261 0be1 F3       		.byte	0xf3
 15262 0be2 01       		.uleb128 0x1
 15263 0be3 50       		.byte	0x50
 15264 0be4 9F       		.byte	0x9f
 15265 0be5 00000000 		.4byte	0
 15266 0be9 00000000 		.4byte	0
 15267              	.LLST2:
 15268 0bed 2C000000 		.4byte	.LVL6
 15269 0bf1 3A000000 		.4byte	.LVL7
 15270 0bf5 0100     		.2byte	0x1
 15271 0bf7 50       		.byte	0x50
 15272 0bf8 40000000 		.4byte	.LVL8
 15273 0bfc 4C000000 		.4byte	.LVL9
 15274 0c00 0100     		.2byte	0x1
 15275 0c02 53       		.byte	0x53
 15276 0c03 00000000 		.4byte	0
 15277 0c07 00000000 		.4byte	0
 15278              	.LLST3:
 15279 0c0b 2C000000 		.4byte	.LVL6
 15280 0c0f 52000000 		.4byte	.LVL10
 15281 0c13 0100     		.2byte	0x1
 15282 0c15 54       		.byte	0x54
 15283 0c16 52000000 		.4byte	.LVL10
 15284 0c1a 58000000 		.4byte	.LVL11
 15285 0c1e 0300     		.2byte	0x3
 15286 0c20 74       		.byte	0x74
 15287 0c21 01       		.sleb128 1
 15288 0c22 9F       		.byte	0x9f
 15289 0c23 58000000 		.4byte	.LVL11
 15290 0c27 68000000 		.4byte	.LVL12
 15291 0c2b 0100     		.2byte	0x1
 15292 0c2d 54       		.byte	0x54
ARM GAS  C:\Users\mathi\AppData\Local\Temp\ccRLxsF0.s 			page 271


 15293 0c2e 00000000 		.4byte	0
 15294 0c32 00000000 		.4byte	0
 15295              	.LLST4:
 15296 0c36 00000000 		.4byte	.LVL14
 15297 0c3a 12000000 		.4byte	.LVL15
 15298 0c3e 0100     		.2byte	0x1
 15299 0c40 50       		.byte	0x50
 15300 0c41 12000000 		.4byte	.LVL15
 15301 0c45 1E000000 		.4byte	.LVL17
 15302 0c49 0100     		.2byte	0x1
 15303 0c4b 54       		.byte	0x54
 15304 0c4c 1E000000 		.4byte	.LVL17
 15305 0c50 22000000 		.4byte	.LVL18
 15306 0c54 0300     		.2byte	0x3
 15307 0c56 74       		.byte	0x74
 15308 0c57 7F       		.sleb128 -1
 15309 0c58 9F       		.byte	0x9f
 15310 0c59 00000000 		.4byte	0
 15311 0c5d 00000000 		.4byte	0
 15312              	.LLST5:
 15313 0c61 00000000 		.4byte	.LVL20
 15314 0c65 12000000 		.4byte	.LVL22
 15315 0c69 0100     		.2byte	0x1
 15316 0c6b 50       		.byte	0x50
 15317 0c6c 12000000 		.4byte	.LVL22
 15318 0c70 3C000000 		.4byte	.LVL26
 15319 0c74 0400     		.2byte	0x4
 15320 0c76 F3       		.byte	0xf3
 15321 0c77 01       		.uleb128 0x1
 15322 0c78 50       		.byte	0x50
 15323 0c79 9F       		.byte	0x9f
 15324 0c7a 3C000000 		.4byte	.LVL26
 15325 0c7e 40000000 		.4byte	.LVL27
 15326 0c82 0100     		.2byte	0x1
 15327 0c84 50       		.byte	0x50
 15328 0c85 40000000 		.4byte	.LVL27
 15329 0c89 50000000 		.4byte	.LFE258
 15330 0c8d 0400     		.2byte	0x4
 15331 0c8f F3       		.byte	0xf3
 15332 0c90 01       		.uleb128 0x1
 15333 0c91 50       		.byte	0x50
 15334 0c92 9F       		.byte	0x9f
 15335 0c93 00000000 		.4byte	0
 15336 0c97 00000000 		.4byte	0
 15337              	.LLST6:
 15338 0c9b 0C000000 		.4byte	.LVL21
 15339 0c9f 12000000 		.4byte	.LVL22
 15340 0ca3 0100     		.2byte	0x1
 15341 0ca5 50       		.byte	0x50
 15342 0ca6 12000000 		.4byte	.LVL22
 15343 0caa 1E000000 		.4byte	.LVL24
 15344 0cae 0100     		.2byte	0x1
 15345 0cb0 54       		.byte	0x54
 15346 0cb1 1E000000 		.4byte	.LVL24
 15347 0cb5 22000000 		.4byte	.LVL25
 15348 0cb9 0300     		.2byte	0x3
 15349 0cbb 74       		.byte	0x74
ARM GAS  C:\Users\mathi\AppData\Local\Temp\ccRLxsF0.s 			page 272


 15350 0cbc 7F       		.sleb128 -1
 15351 0cbd 9F       		.byte	0x9f
 15352 0cbe 3C000000 		.4byte	.LVL26
 15353 0cc2 40000000 		.4byte	.LVL27
 15354 0cc6 0100     		.2byte	0x1
 15355 0cc8 50       		.byte	0x50
 15356 0cc9 00000000 		.4byte	0
 15357 0ccd 00000000 		.4byte	0
 15358              	.LLST10:
 15359 0cd1 00000000 		.4byte	.LVL40
 15360 0cd5 12000000 		.4byte	.LVL41
 15361 0cd9 0100     		.2byte	0x1
 15362 0cdb 50       		.byte	0x50
 15363 0cdc 12000000 		.4byte	.LVL41
 15364 0ce0 27000000 		.4byte	.LVL42-1
 15365 0ce4 0500     		.2byte	0x5
 15366 0ce6 03       		.byte	0x3
 15367 0ce7 00000000 		.4byte	failpoint
 15368 0ceb 27000000 		.4byte	.LVL42-1
 15369 0cef 38000000 		.4byte	.LFE262
 15370 0cf3 0400     		.2byte	0x4
 15371 0cf5 F3       		.byte	0xf3
 15372 0cf6 01       		.uleb128 0x1
 15373 0cf7 50       		.byte	0x50
 15374 0cf8 9F       		.byte	0x9f
 15375 0cf9 00000000 		.4byte	0
 15376 0cfd 00000000 		.4byte	0
 15377              	.LLST11:
 15378 0d01 00000000 		.4byte	.LVL43
 15379 0d05 22000000 		.4byte	.LVL47
 15380 0d09 0100     		.2byte	0x1
 15381 0d0b 50       		.byte	0x50
 15382 0d0c 22000000 		.4byte	.LVL47
 15383 0d10 28000000 		.4byte	.LVL48
 15384 0d14 0400     		.2byte	0x4
 15385 0d16 F3       		.byte	0xf3
 15386 0d17 01       		.uleb128 0x1
 15387 0d18 50       		.byte	0x50
 15388 0d19 9F       		.byte	0x9f
 15389 0d1a 28000000 		.4byte	.LVL48
 15390 0d1e 2C000000 		.4byte	.LVL49
 15391 0d22 0100     		.2byte	0x1
 15392 0d24 50       		.byte	0x50
 15393 0d25 2C000000 		.4byte	.LVL49
 15394 0d29 40000000 		.4byte	.LFE263
 15395 0d2d 0400     		.2byte	0x4
 15396 0d2f F3       		.byte	0xf3
 15397 0d30 01       		.uleb128 0x1
 15398 0d31 50       		.byte	0x50
 15399 0d32 9F       		.byte	0x9f
 15400 0d33 00000000 		.4byte	0
 15401 0d37 00000000 		.4byte	0
 15402              	.LLST12:
 15403 0d3b 00000000 		.4byte	.LVL43
 15404 0d3f 12000000 		.4byte	.LVL45
 15405 0d43 0100     		.2byte	0x1
 15406 0d45 51       		.byte	0x51
ARM GAS  C:\Users\mathi\AppData\Local\Temp\ccRLxsF0.s 			page 273


 15407 0d46 12000000 		.4byte	.LVL45
 15408 0d4a 28000000 		.4byte	.LVL48
 15409 0d4e 0400     		.2byte	0x4
 15410 0d50 F3       		.byte	0xf3
 15411 0d51 01       		.uleb128 0x1
 15412 0d52 51       		.byte	0x51
 15413 0d53 9F       		.byte	0x9f
 15414 0d54 28000000 		.4byte	.LVL48
 15415 0d58 2C000000 		.4byte	.LVL49
 15416 0d5c 0100     		.2byte	0x1
 15417 0d5e 51       		.byte	0x51
 15418 0d5f 2C000000 		.4byte	.LVL49
 15419 0d63 40000000 		.4byte	.LFE263
 15420 0d67 0400     		.2byte	0x4
 15421 0d69 F3       		.byte	0xf3
 15422 0d6a 01       		.uleb128 0x1
 15423 0d6b 51       		.byte	0x51
 15424 0d6c 9F       		.byte	0x9f
 15425 0d6d 00000000 		.4byte	0
 15426 0d71 00000000 		.4byte	0
 15427              	.LLST13:
 15428 0d75 0C000000 		.4byte	.LVL44
 15429 0d79 1A000000 		.4byte	.LVL46
 15430 0d7d 0100     		.2byte	0x1
 15431 0d7f 50       		.byte	0x50
 15432 0d80 00000000 		.4byte	0
 15433 0d84 00000000 		.4byte	0
 15434              	.LLST27:
 15435 0d88 10000000 		.4byte	.LVL82
 15436 0d8c 12000000 		.4byte	.LVL83
 15437 0d90 0200     		.2byte	0x2
 15438 0d92 30       		.byte	0x30
 15439 0d93 9F       		.byte	0x9f
 15440 0d94 00000000 		.4byte	0
 15441 0d98 00000000 		.4byte	0
 15442              		.section	.debug_aranges,"",%progbits
 15443 0000 8C000000 		.4byte	0x8c
 15444 0004 0200     		.2byte	0x2
 15445 0006 00000000 		.4byte	.Ldebug_info0
 15446 000a 04       		.byte	0x4
 15447 000b 00       		.byte	0
 15448 000c 0000     		.2byte	0
 15449 000e 0000     		.2byte	0
 15450 0010 00000000 		.4byte	.LFB270
 15451 0014 2C000000 		.4byte	.LFE270-.LFB270
 15452 0018 00000000 		.4byte	.LFB256
 15453 001c 78000000 		.4byte	.LFE256-.LFB256
 15454 0020 00000000 		.4byte	.LFB257
 15455 0024 3C000000 		.4byte	.LFE257-.LFB257
 15456 0028 00000000 		.4byte	.LFB258
 15457 002c 50000000 		.4byte	.LFE258-.LFB258
 15458 0030 00000000 		.4byte	.LFB261
 15459 0034 6C000000 		.4byte	.LFE261-.LFB261
 15460 0038 00000000 		.4byte	.LFB262
 15461 003c 38000000 		.4byte	.LFE262-.LFB262
 15462 0040 00000000 		.4byte	.LFB263
 15463 0044 40000000 		.4byte	.LFE263-.LFB263
ARM GAS  C:\Users\mathi\AppData\Local\Temp\ccRLxsF0.s 			page 274


 15464 0048 00000000 		.4byte	.LFB264
 15465 004c 68000000 		.4byte	.LFE264-.LFB264
 15466 0050 00000000 		.4byte	.LFB265
 15467 0054 94000000 		.4byte	.LFE265-.LFB265
 15468 0058 00000000 		.4byte	.LFB266
 15469 005c 38000000 		.4byte	.LFE266-.LFB266
 15470 0060 00000000 		.4byte	.LFB267
 15471 0064 3C000000 		.4byte	.LFE267-.LFB267
 15472 0068 00000000 		.4byte	.LFB268
 15473 006c 5C000000 		.4byte	.LFE268-.LFB268
 15474 0070 00000000 		.4byte	.LFB269
 15475 0074 68000000 		.4byte	.LFE269-.LFB269
 15476 0078 00000000 		.4byte	.LFB271
 15477 007c A0000000 		.4byte	.LFE271-.LFB271
 15478 0080 00000000 		.4byte	.LFB274
 15479 0084 C8050000 		.4byte	.LFE274-.LFB274
 15480 0088 00000000 		.4byte	0
 15481 008c 00000000 		.4byte	0
 15482              		.section	.debug_ranges,"",%progbits
 15483              	.Ldebug_ranges0:
 15484 0000 04000000 		.4byte	.LBB128
 15485 0004 06000000 		.4byte	.LBE128
 15486 0008 0C000000 		.4byte	.LBB131
 15487 000c 22000000 		.4byte	.LBE131
 15488 0010 00000000 		.4byte	0
 15489 0014 00000000 		.4byte	0
 15490 0018 24000000 		.4byte	.LBB147
 15491 001c 44000000 		.4byte	.LBE147
 15492 0020 50000000 		.4byte	.LBB153
 15493 0024 58000000 		.4byte	.LBE153
 15494 0028 00000000 		.4byte	0
 15495 002c 00000000 		.4byte	0
 15496 0030 16000000 		.4byte	.LBB182
 15497 0034 4E000000 		.4byte	.LBE182
 15498 0038 70000000 		.4byte	.LBB211
 15499 003c 78000000 		.4byte	.LBE211
 15500 0040 00000000 		.4byte	0
 15501 0044 00000000 		.4byte	0
 15502 0048 16000000 		.4byte	.LBB183
 15503 004c 46000000 		.4byte	.LBE183
 15504 0050 70000000 		.4byte	.LBB206
 15505 0054 78000000 		.4byte	.LBE206
 15506 0058 00000000 		.4byte	0
 15507 005c 00000000 		.4byte	0
 15508 0060 16000000 		.4byte	.LBB185
 15509 0064 1C000000 		.4byte	.LBE185
 15510 0068 1E000000 		.4byte	.LBB194
 15511 006c 26000000 		.4byte	.LBE194
 15512 0070 00000000 		.4byte	0
 15513 0074 00000000 		.4byte	0
 15514 0078 1C000000 		.4byte	.LBB191
 15515 007c 1E000000 		.4byte	.LBE191
 15516 0080 26000000 		.4byte	.LBB195
 15517 0084 28000000 		.4byte	.LBE195
 15518 0088 00000000 		.4byte	0
 15519 008c 00000000 		.4byte	0
 15520 0090 28000000 		.4byte	.LBB196
ARM GAS  C:\Users\mathi\AppData\Local\Temp\ccRLxsF0.s 			page 275


 15521 0094 46000000 		.4byte	.LBE196
 15522 0098 70000000 		.4byte	.LBB202
 15523 009c 78000000 		.4byte	.LBE202
 15524 00a0 00000000 		.4byte	0
 15525 00a4 00000000 		.4byte	0
 15526 00a8 04000000 		.4byte	.LBB212
 15527 00ac 06000000 		.4byte	.LBE212
 15528 00b0 08000000 		.4byte	.LBB215
 15529 00b4 0A000000 		.4byte	.LBE215
 15530 00b8 00000000 		.4byte	0
 15531 00bc 00000000 		.4byte	0
 15532 00c0 2A000000 		.4byte	.LBB218
 15533 00c4 2C000000 		.4byte	.LBE218
 15534 00c8 40000000 		.4byte	.LBB221
 15535 00cc 42000000 		.4byte	.LBE221
 15536 00d0 00000000 		.4byte	0
 15537 00d4 00000000 		.4byte	0
 15538 00d8 10000000 		.4byte	.LBB236
 15539 00dc 40000000 		.4byte	.LBE236
 15540 00e0 4E000000 		.4byte	.LBB257
 15541 00e4 56000000 		.4byte	.LBE257
 15542 00e8 00000000 		.4byte	0
 15543 00ec 00000000 		.4byte	0
 15544 00f0 10000000 		.4byte	.LBB238
 15545 00f4 16000000 		.4byte	.LBE238
 15546 00f8 18000000 		.4byte	.LBB247
 15547 00fc 20000000 		.4byte	.LBE247
 15548 0100 00000000 		.4byte	0
 15549 0104 00000000 		.4byte	0
 15550 0108 16000000 		.4byte	.LBB244
 15551 010c 18000000 		.4byte	.LBE244
 15552 0110 20000000 		.4byte	.LBB248
 15553 0114 22000000 		.4byte	.LBE248
 15554 0118 00000000 		.4byte	0
 15555 011c 00000000 		.4byte	0
 15556 0120 22000000 		.4byte	.LBB249
 15557 0124 40000000 		.4byte	.LBE249
 15558 0128 4E000000 		.4byte	.LBB255
 15559 012c 56000000 		.4byte	.LBE255
 15560 0130 00000000 		.4byte	0
 15561 0134 00000000 		.4byte	0
 15562 0138 24000000 		.4byte	.LBB276
 15563 013c 6C000000 		.4byte	.LBE276
 15564 0140 78000000 		.4byte	.LBB295
 15565 0144 80000000 		.4byte	.LBE295
 15566 0148 00000000 		.4byte	0
 15567 014c 00000000 		.4byte	0
 15568 0150 4C000000 		.4byte	.LBB288
 15569 0154 6C000000 		.4byte	.LBE288
 15570 0158 78000000 		.4byte	.LBB294
 15571 015c 80000000 		.4byte	.LBE294
 15572 0160 00000000 		.4byte	0
 15573 0164 00000000 		.4byte	0
 15574 0168 04000000 		.4byte	.LBB422
 15575 016c 06000000 		.4byte	.LBE422
 15576 0170 08000000 		.4byte	.LBB428
 15577 0174 0A000000 		.4byte	.LBE428
ARM GAS  C:\Users\mathi\AppData\Local\Temp\ccRLxsF0.s 			page 276


 15578 0178 0C000000 		.4byte	.LBB429
 15579 017c 0E000000 		.4byte	.LBE429
 15580 0180 14000000 		.4byte	.LBB430
 15581 0184 16000000 		.4byte	.LBE430
 15582 0188 18000000 		.4byte	.LBB431
 15583 018c 1C000000 		.4byte	.LBE431
 15584 0190 00000000 		.4byte	0
 15585 0194 00000000 		.4byte	0
 15586 0198 C8010000 		.4byte	.LBB482
 15587 019c DA010000 		.4byte	.LBE482
 15588 01a0 DC010000 		.4byte	.LBB493
 15589 01a4 DE010000 		.4byte	.LBE493
 15590 01a8 00000000 		.4byte	0
 15591 01ac 00000000 		.4byte	0
 15592 01b0 DA010000 		.4byte	.LBB485
 15593 01b4 DC010000 		.4byte	.LBE485
 15594 01b8 DE010000 		.4byte	.LBB494
 15595 01bc FE010000 		.4byte	.LBE494
 15596 01c0 02020000 		.4byte	.LBB495
 15597 01c4 06020000 		.4byte	.LBE495
 15598 01c8 00000000 		.4byte	0
 15599 01cc 00000000 		.4byte	0
 15600 01d0 DA010000 		.4byte	.LBB487
 15601 01d4 DC010000 		.4byte	.LBE487
 15602 01d8 DE010000 		.4byte	.LBB490
 15603 01dc F0010000 		.4byte	.LBE490
 15604 01e0 00000000 		.4byte	0
 15605 01e4 00000000 		.4byte	0
 15606 01e8 1A020000 		.4byte	.LBB498
 15607 01ec 28020000 		.4byte	.LBE498
 15608 01f0 D4020000 		.4byte	.LBB512
 15609 01f4 06030000 		.4byte	.LBE512
 15610 01f8 5C050000 		.4byte	.LBB578
 15611 01fc 6A050000 		.4byte	.LBE578
 15612 0200 00000000 		.4byte	0
 15613 0204 00000000 		.4byte	0
 15614 0208 06030000 		.4byte	.LBB513
 15615 020c 0A030000 		.4byte	.LBE513
 15616 0210 0C030000 		.4byte	.LBB516
 15617 0214 12030000 		.4byte	.LBE516
 15618 0218 00000000 		.4byte	0
 15619 021c 00000000 		.4byte	0
 15620 0220 12030000 		.4byte	.LBB517
 15621 0224 14030000 		.4byte	.LBE517
 15622 0228 16030000 		.4byte	.LBB524
 15623 022c 4A030000 		.4byte	.LBE524
 15624 0230 00000000 		.4byte	0
 15625 0234 00000000 		.4byte	0
 15626 0238 98030000 		.4byte	.LBB535
 15627 023c 9A030000 		.4byte	.LBE535
 15628 0240 9C030000 		.4byte	.LBB538
 15629 0244 A0030000 		.4byte	.LBE538
 15630 0248 00000000 		.4byte	0
 15631 024c 00000000 		.4byte	0
 15632 0250 0A040000 		.4byte	.LBB543
 15633 0254 1A040000 		.4byte	.LBE543
 15634 0258 26050000 		.4byte	.LBB577
ARM GAS  C:\Users\mathi\AppData\Local\Temp\ccRLxsF0.s 			page 277


 15635 025c 5C050000 		.4byte	.LBE577
 15636 0260 00000000 		.4byte	0
 15637 0264 00000000 		.4byte	0
 15638 0268 92040000 		.4byte	.LBB556
 15639 026c A6040000 		.4byte	.LBE556
 15640 0270 A8040000 		.4byte	.LBB562
 15641 0274 AE040000 		.4byte	.LBE562
 15642 0278 00000000 		.4byte	0
 15643 027c 00000000 		.4byte	0
 15644 0280 A6040000 		.4byte	.LBB559
 15645 0284 A8040000 		.4byte	.LBE559
 15646 0288 AE040000 		.4byte	.LBB563
 15647 028c BA040000 		.4byte	.LBE563
 15648 0290 00000000 		.4byte	0
 15649 0294 00000000 		.4byte	0
 15650 0298 D6040000 		.4byte	.LBB566
 15651 029c FC040000 		.4byte	.LBE566
 15652 02a0 02050000 		.4byte	.LBB572
 15653 02a4 04050000 		.4byte	.LBE572
 15654 02a8 80050000 		.4byte	.LBB583
 15655 02ac C8050000 		.4byte	.LBE583
 15656 02b0 00000000 		.4byte	0
 15657 02b4 00000000 		.4byte	0
 15658 02b8 00000000 		.4byte	.LFB270
 15659 02bc 2C000000 		.4byte	.LFE270
 15660 02c0 00000000 		.4byte	.LFB256
 15661 02c4 78000000 		.4byte	.LFE256
 15662 02c8 00000000 		.4byte	.LFB257
 15663 02cc 3C000000 		.4byte	.LFE257
 15664 02d0 00000000 		.4byte	.LFB258
 15665 02d4 50000000 		.4byte	.LFE258
 15666 02d8 00000000 		.4byte	.LFB261
 15667 02dc 6C000000 		.4byte	.LFE261
 15668 02e0 00000000 		.4byte	.LFB262
 15669 02e4 38000000 		.4byte	.LFE262
 15670 02e8 00000000 		.4byte	.LFB263
 15671 02ec 40000000 		.4byte	.LFE263
 15672 02f0 00000000 		.4byte	.LFB264
 15673 02f4 68000000 		.4byte	.LFE264
 15674 02f8 00000000 		.4byte	.LFB265
 15675 02fc 94000000 		.4byte	.LFE265
 15676 0300 00000000 		.4byte	.LFB266
 15677 0304 38000000 		.4byte	.LFE266
 15678 0308 00000000 		.4byte	.LFB267
 15679 030c 3C000000 		.4byte	.LFE267
 15680 0310 00000000 		.4byte	.LFB268
 15681 0314 5C000000 		.4byte	.LFE268
 15682 0318 00000000 		.4byte	.LFB269
 15683 031c 68000000 		.4byte	.LFE269
 15684 0320 00000000 		.4byte	.LFB271
 15685 0324 A0000000 		.4byte	.LFE271
 15686 0328 00000000 		.4byte	.LFB274
 15687 032c C8050000 		.4byte	.LFE274
 15688 0330 00000000 		.4byte	0
 15689 0334 00000000 		.4byte	0
 15690              		.section	.debug_line,"",%progbits
 15691              	.Ldebug_line0:
ARM GAS  C:\Users\mathi\AppData\Local\Temp\ccRLxsF0.s 			page 278


 15692 0000 CB0C0000 		.section	.debug_str,"MS",%progbits,1
 15692      0200B308 
 15692      00000201 
 15692      FB0E0D00 
 15692      01010101 
 15693              	.LASF730:
 15694 0000 70617474 		.ascii	"patternqueues\000"
 15694      65726E71 
 15694      75657565 
 15694      7300
 15695              	.LASF575:
 15696 000e 5553425F 		.ascii	"USB_STOP\000"
 15696      53544F50 
 15696      00
 15697              	.LASF186:
 15698 0017 706F7274 		.ascii	"port_intctx\000"
 15698      5F696E74 
 15698      63747800 
 15699              	.LASF195:
 15700 0023 63685F74 		.ascii	"ch_trace_buffer_t\000"
 15700      72616365 
 15700      5F627566 
 15700      6665725F 
 15700      7400
 15701              	.LASF228:
 15702 0035 63685F70 		.ascii	"ch_ptrsize\000"
 15702      74727369 
 15702      7A6500
 15703              	.LASF513:
 15704 0040 6576656E 		.ascii	"event\000"
 15704      7400
 15705              	.LASF363:
 15706 0046 43414E5F 		.ascii	"CAN_STARTING\000"
 15706      53544152 
 15706      54494E47 
 15706      00
 15707              	.LASF776:
 15708 0053 5F5F6675 		.ascii	"__func__\000"
 15708      6E635F5F 
 15708      00
 15709              	.LASF30:
 15710 005c 6D73675F 		.ascii	"msg_t\000"
 15710      7400
 15711              	.LASF308:
 15712 0062 61667268 		.ascii	"afrh\000"
 15712      00
 15713              	.LASF456:
 15714 0067 4F504D4F 		.ascii	"OPMODE_SMBUS_DEVICE\000"
 15714      44455F53 
 15714      4D425553 
 15714      5F444556 
 15714      49434500 
 15715              	.LASF206:
 15716 007b 6D5F6372 		.ascii	"m_crit_isr\000"
 15716      69745F69 
 15716      737200
 15717              	.LASF746:
ARM GAS  C:\Users\mathi\AppData\Local\Temp\ccRLxsF0.s 			page 279


 15718 0086 5F746573 		.ascii	"_test_assert_time_window\000"
 15718      745F6173 
 15718      73657274 
 15718      5F74696D 
 15718      655F7769 
 15719              	.LASF634:
 15720 009f 44494550 		.ascii	"DIEPTXF0\000"
 15720      54584630 
 15720      00
 15721              	.LASF710:
 15722 00a8 55534244 		.ascii	"USBD1\000"
 15722      3100
 15723              	.LASF362:
 15724 00ae 43414E5F 		.ascii	"CAN_STOP\000"
 15724      53544F50 
 15724      00
 15725              	.LASF241:
 15726 00b7 63665F6F 		.ascii	"cf_off_time\000"
 15726      66665F74 
 15726      696D6500 
 15727              	.LASF89:
 15728 00c3 63685F73 		.ascii	"ch_system_t\000"
 15728      79737465 
 15728      6D5F7400 
 15729              	.LASF5:
 15730 00cf 5F5F7569 		.ascii	"__uint8_t\000"
 15730      6E74385F 
 15730      7400
 15731              	.LASF212:
 15732 00d9 77747365 		.ascii	"wtsemp\000"
 15732      6D7000
 15733              	.LASF292:
 15734 00e0 5F426F6F 		.ascii	"_Bool\000"
 15734      6C00
 15735              	.LASF404:
 15736 00e6 64617461 		.ascii	"datamode\000"
 15736      6D6F6465 
 15736      00
 15737              	.LASF472:
 15738 00ef 646D6172 		.ascii	"dmarx\000"
 15738      7800
 15739              	.LASF477:
 15740 00f5 4932535F 		.ascii	"I2S_READY\000"
 15740      52454144 
 15740      5900
 15741              	.LASF352:
 15742 00ff 73717231 		.ascii	"sqr1\000"
 15742      00
 15743              	.LASF279:
 15744 0104 424C4B5F 		.ascii	"BLK_UNINIT\000"
 15744      554E494E 
 15744      495400
 15745              	.LASF484:
 15746 010f 72785F62 		.ascii	"rx_buffer\000"
 15746      75666665 
 15746      7200
 15747              	.LASF468:
ARM GAS  C:\Users\mathi\AppData\Local\Temp\ccRLxsF0.s 			page 280


 15748 0119 6572726F 		.ascii	"errors\000"
 15748      727300
 15749              	.LASF199:
 15750 0120 776F7273 		.ascii	"worst\000"
 15750      7400
 15751              	.LASF82:
 15752 0126 76745F73 		.ascii	"vt_systime\000"
 15752      79737469 
 15752      6D6500
 15753              	.LASF148:
 15754 0131 444F5231 		.ascii	"DOR1\000"
 15754      00
 15755              	.LASF149:
 15756 0136 444F5232 		.ascii	"DOR2\000"
 15756      00
 15757              	.LASF483:
 15758 013b 74785F62 		.ascii	"tx_buffer\000"
 15758      75666665 
 15758      7200
 15759              	.LASF221:
 15760 0145 6D5F6E65 		.ascii	"m_next\000"
 15760      787400
 15761              	.LASF312:
 15762 014c 50434461 		.ascii	"PCData\000"
 15762      746100
 15763              	.LASF794:
 15764 0153 474E5520 		.ascii	"GNU C11 7.2.1 20170904 (release) [ARM/embedded-7-br"
 15764      43313120 
 15764      372E322E 
 15764      31203230 
 15764      31373039 
 15765 0186 616E6368 		.ascii	"anch revision 255204] -mcpu=cortex-m4 -mfloat-abi=h"
 15765      20726576 
 15765      6973696F 
 15765      6E203235 
 15765      35323034 
 15766 01b9 61726420 		.ascii	"ard -mfpu=fpv4-sp-d16 -mno-thumb-interwork -mthumb "
 15766      2D6D6670 
 15766      753D6670 
 15766      76342D73 
 15766      702D6431 
 15767 01ec 2D676764 		.ascii	"-ggdb -O3 -fomit-frame-pointer -falign-functions=16"
 15767      62202D4F 
 15767      33202D66 
 15767      6F6D6974 
 15767      2D667261 
 15768 021f 202D666E 		.ascii	" -fno-strict-aliasing -fstack-protector-all -ffunct"
 15768      6F2D7374 
 15768      72696374 
 15768      2D616C69 
 15768      6173696E 
 15769 0252 696F6E2D 		.ascii	"ion-sections -fdata-sections -fno-common -fsingle-p"
 15769      73656374 
 15769      696F6E73 
 15769      202D6664 
 15769      6174612D 
 15770 0285 72656369 		.ascii	"recision-constant\000"
ARM GAS  C:\Users\mathi\AppData\Local\Temp\ccRLxsF0.s 			page 281


 15770      73696F6E 
 15770      2D636F6E 
 15770      7374616E 
 15770      7400
 15771              	.LASF171:
 15772 0297 4D41534B 		.ascii	"MASK\000"
 15772      00
 15773              	.LASF337:
 15774 029c 73616D70 		.ascii	"samples\000"
 15774      6C657300 
 15775              	.LASF638:
 15776 02a4 47434346 		.ascii	"GCCFG\000"
 15776      4700
 15777              	.LASF433:
 15778 02aa 42445452 		.ascii	"BDTR\000"
 15778      00
 15779              	.LASF386:
 15780 02af 7265676D 		.ascii	"regmask\000"
 15780      61736B00 
 15781              	.LASF466:
 15782 02b7 49324343 		.ascii	"I2CConfig\000"
 15782      6F6E6669 
 15782      6700
 15783              	.LASF19:
 15784 02c1 75696E74 		.ascii	"uint16_t\000"
 15784      31365F74 
 15784      00
 15785              	.LASF473:
 15786 02ca 646D6174 		.ascii	"dmatx\000"
 15786      7800
 15787              	.LASF708:
 15788 02d0 736F665F 		.ascii	"sof_cb\000"
 15788      636200
 15789              	.LASF713:
 15790 02d7 74656172 		.ascii	"teardown\000"
 15790      646F776E 
 15790      00
 15791              	.LASF409:
 15792 02e0 4558545F 		.ascii	"EXT_ACTIVE\000"
 15792      41435449 
 15792      564500
 15793              	.LASF305:
 15794 02eb 6F737065 		.ascii	"ospeedr\000"
 15794      65647200 
 15795              	.LASF733:
 15796 02f3 6C6F6361 		.ascii	"local_fail\000"
 15796      6C5F6661 
 15796      696C00
 15797              	.LASF641:
 15798 02fe 44494550 		.ascii	"DIEPTXF\000"
 15798      54584600 
 15799              	.LASF247:
 15800 0306 656C5F6E 		.ascii	"el_next\000"
 15800      65787400 
 15801              	.LASF332:
 15802 030e 4144435F 		.ascii	"ADC_ERR_OVERFLOW\000"
 15802      4552525F 
ARM GAS  C:\Users\mathi\AppData\Local\Temp\ccRLxsF0.s 			page 282


 15802      4F564552 
 15802      464C4F57 
 15802      00
 15803              	.LASF87:
 15804 031f 6C6F636B 		.ascii	"lock_cnt\000"
 15804      5F636E74 
 15804      00
 15805              	.LASF63:
 15806 0328 63685F74 		.ascii	"ch_threads_queue\000"
 15806      68726561 
 15806      64735F71 
 15806      75657565 
 15806      00
 15807              	.LASF41:
 15808 0339 705F6E65 		.ascii	"p_newer\000"
 15808      77657200 
 15809              	.LASF765:
 15810 0341 63685654 		.ascii	"chVTResetI\000"
 15810      52657365 
 15810      744900
 15811              	.LASF651:
 15812 034c 48505254 		.ascii	"HPRT\000"
 15812      00
 15813              	.LASF605:
 15814 0351 4843494E 		.ascii	"HCINT\000"
 15814      5400
 15815              	.LASF98:
 15816 0357 534D5052 		.ascii	"SMPR1\000"
 15816      3100
 15817              	.LASF99:
 15818 035d 534D5052 		.ascii	"SMPR2\000"
 15818      3200
 15819              	.LASF238:
 15820 0363 63665F6F 		.ascii	"cf_off_flags\000"
 15820      66665F66 
 15820      6C616773 
 15820      00
 15821              	.LASF544:
 15822 0370 5350495F 		.ascii	"SPI_STOP\000"
 15822      53544F50 
 15822      00
 15823              	.LASF271:
 15824 0379 42617365 		.ascii	"BaseSequentialStream\000"
 15824      53657175 
 15824      656E7469 
 15824      616C5374 
 15824      7265616D 
 15825              	.LASF500:
 15826 038e 70776D63 		.ascii	"pwmchnmsk_t\000"
 15826      686E6D73 
 15826      6B5F7400 
 15827              	.LASF311:
 15828 039a 50424461 		.ascii	"PBData\000"
 15828      746100
 15829              	.LASF226:
 15830 03a1 63685F73 		.ascii	"ch_size\000"
 15830      697A6500 
ARM GAS  C:\Users\mathi\AppData\Local\Temp\ccRLxsF0.s 			page 283


 15831              	.LASF647:
 15832 03a9 48505458 		.ascii	"HPTXSTS\000"
 15832      53545300 
 15833              	.LASF304:
 15834 03b1 6F747970 		.ascii	"otyper\000"
 15834      657200
 15835              	.LASF720:
 15836 03b8 70617474 		.ascii	"patternsys\000"
 15836      65726E73 
 15836      797300
 15837              	.LASF295:
 15838 03c3 4F545950 		.ascii	"OTYPER\000"
 15838      455200
 15839              	.LASF388:
 15840 03ca 64616370 		.ascii	"dacparams_t\000"
 15840      6172616D 
 15840      735F7400 
 15841              	.LASF522:
 15842 03d6 5344435F 		.ascii	"SDC_MODE_1BIT\000"
 15842      4D4F4445 
 15842      5F314249 
 15842      5400
 15843              	.LASF603:
 15844 03e4 48434348 		.ascii	"HCCHAR\000"
 15844      415200
 15845              	.LASF450:
 15846 03eb 4932435F 		.ascii	"I2C_ACTIVE_RX\000"
 15846      41435449 
 15846      56455F52 
 15846      5800
 15847              	.LASF36:
 15848 03f9 74687265 		.ascii	"thread_t\000"
 15848      61645F74 
 15848      00
 15849              	.LASF249:
 15850 0402 656C5F65 		.ascii	"el_events\000"
 15850      76656E74 
 15850      7300
 15851              	.LASF493:
 15852 040c 70776D73 		.ascii	"pwmstate_t\000"
 15852      74617465 
 15852      5F7400
 15853              	.LASF373:
 15854 0417 736C6565 		.ascii	"sleep_event\000"
 15854      705F6576 
 15854      656E7400 
 15855              	.LASF81:
 15856 0423 63685F76 		.ascii	"ch_virtual_timers_list\000"
 15856      69727475 
 15856      616C5F74 
 15856      696D6572 
 15856      735F6C69 
 15857              	.LASF276:
 15858 043a 76656374 		.ascii	"vector\000"
 15858      6F7200
 15859              	.LASF20:
 15860 0441 696E7433 		.ascii	"int32_t\000"
ARM GAS  C:\Users\mathi\AppData\Local\Temp\ccRLxsF0.s 			page 284


 15860      325F7400 
 15861              	.LASF464:
 15862 0449 636C6F63 		.ascii	"clock_speed\000"
 15862      6B5F7370 
 15862      65656400 
 15863              	.LASF35:
 15864 0455 73797374 		.ascii	"systime_t\000"
 15864      696D655F 
 15864      7400
 15865              	.LASF406:
 15866 045f 44414344 		.ascii	"DACD2\000"
 15866      3200
 15867              	.LASF375:
 15868 0465 43414E44 		.ascii	"CANDriver\000"
 15868      72697665 
 15868      7200
 15869              	.LASF236:
 15870 046f 63665F6F 		.ascii	"cf_off_stklimit\000"
 15870      66665F73 
 15870      746B6C69 
 15870      6D697400 
 15871              	.LASF152:
 15872 047f 4D304152 		.ascii	"M0AR\000"
 15872      00
 15873              	.LASF610:
 15874 0484 72657376 		.ascii	"resvd1c\000"
 15874      64316300 
 15875              	.LASF229:
 15876 048c 63685F74 		.ascii	"ch_timesize\000"
 15876      696D6573 
 15876      697A6500 
 15877              	.LASF454:
 15878 0498 69326366 		.ascii	"i2cflags_t\000"
 15878      6C616773 
 15878      5F7400
 15879              	.LASF648:
 15880 04a3 4841494E 		.ascii	"HAINT\000"
 15880      5400
 15881              	.LASF786:
 15882 04a9 5F646267 		.ascii	"_dbg_check_lock\000"
 15882      5F636865 
 15882      636B5F6C 
 15882      6F636B00 
 15883              	.LASF134:
 15884 04b9 46413152 		.ascii	"FA1R\000"
 15884      00
 15885              	.LASF753:
 15886 04be 74657374 		.ascii	"test_emit_token\000"
 15886      5F656D69 
 15886      745F746F 
 15886      6B656E00 
 15887              	.LASF645:
 15888 04ce 48464E55 		.ascii	"HFNUM\000"
 15888      4D00
 15889              	.LASF734:
 15890 04d4 6661696C 		.ascii	"failpoint\000"
 15890      706F696E 
ARM GAS  C:\Users\mathi\AppData\Local\Temp\ccRLxsF0.s 			page 285


 15890      7400
 15891              	.LASF265:
 15892 04de 716E6F74 		.ascii	"qnotify_t\000"
 15892      6966795F 
 15892      7400
 15893              	.LASF328:
 15894 04e8 61646373 		.ascii	"adcstate_t\000"
 15894      74617465 
 15894      5F7400
 15895              	.LASF274:
 15896 04f3 69736869 		.ascii	"ishift\000"
 15896      667400
 15897              	.LASF423:
 15898 04fa 4750545F 		.ascii	"GPT_ONESHOT\000"
 15898      4F4E4553 
 15898      484F5400 
 15899              	.LASF260:
 15900 0506 715F746F 		.ascii	"q_top\000"
 15900      7000
 15901              	.LASF596:
 15902 050c 75645F73 		.ascii	"ud_string\000"
 15902      7472696E 
 15902      6700
 15903              	.LASF467:
 15904 0516 49324344 		.ascii	"I2CDriver\000"
 15904      72697665 
 15904      7200
 15905              	.LASF449:
 15906 0520 4932435F 		.ascii	"I2C_ACTIVE_TX\000"
 15906      41435449 
 15906      56455F54 
 15906      5800
 15907              	.LASF270:
 15908 052e 72656164 		.ascii	"read\000"
 15908      00
 15909              	.LASF455:
 15910 0533 4F504D4F 		.ascii	"OPMODE_I2C\000"
 15910      44455F49 
 15910      324300
 15911              	.LASF657:
 15912 053e 72657376 		.ascii	"resvd80C\000"
 15912      64383043 
 15912      00
 15913              	.LASF705:
 15914 0547 6576656E 		.ascii	"event_cb\000"
 15914      745F6362 
 15914      00
 15915              	.LASF624:
 15916 0550 474F5447 		.ascii	"GOTGCTL\000"
 15916      43544C00 
 15917              	.LASF739:
 15918 0558 54657374 		.ascii	"TestThread\000"
 15918      54687265 
 15918      616400
 15919              	.LASF711:
 15920 0563 74657374 		.ascii	"testcase\000"
 15920      63617365 
ARM GAS  C:\Users\mathi\AppData\Local\Temp\ccRLxsF0.s 			page 286


 15920      00
 15921              	.LASF599:
 15922 056c 75736265 		.ascii	"usbepcallback_t\000"
 15922      7063616C 
 15922      6C626163 
 15922      6B5F7400 
 15923              	.LASF453:
 15924 057c 69326361 		.ascii	"i2caddr_t\000"
 15924      6464725F 
 15924      7400
 15925              	.LASF92:
 15926 0586 76746C69 		.ascii	"vtlist\000"
 15926      737400
 15927              	.LASF736:
 15928 058d 746F6B70 		.ascii	"tokp\000"
 15928      00
 15929              	.LASF157:
 15930 0592 54524953 		.ascii	"TRISE\000"
 15930      4500
 15931              	.LASF663:
 15932 0598 72657376 		.ascii	"resvd824\000"
 15932      64383234 
 15932      00
 15933              	.LASF50:
 15934 05a1 705F7761 		.ascii	"p_waiting\000"
 15934      6974696E 
 15934      6700
 15935              	.LASF207:
 15936 05ab 6B65726E 		.ascii	"kernel_stats_t\000"
 15936      656C5F73 
 15936      74617473 
 15936      5F7400
 15937              	.LASF257:
 15938 05ba 715F7761 		.ascii	"q_waiting\000"
 15938      6974696E 
 15938      6700
 15939              	.LASF116:
 15940 05c4 43414E5F 		.ascii	"CAN_TxMailBox_TypeDef\000"
 15940      54784D61 
 15940      696C426F 
 15940      785F5479 
 15940      70654465 
 15941              	.LASF91:
 15942 05da 726C6973 		.ascii	"rlist\000"
 15942      7400
 15943              	.LASF59:
 15944 05e0 74687265 		.ascii	"threads_list_t\000"
 15944      6164735F 
 15944      6C697374 
 15944      5F7400
 15945              	.LASF232:
 15946 05ef 63665F6F 		.ascii	"cf_off_ctx\000"
 15946      66665F63 
 15946      747800
 15947              	.LASF266:
 15948 05fa 696E7075 		.ascii	"input_queue_t\000"
 15948      745F7175 
ARM GAS  C:\Users\mathi\AppData\Local\Temp\ccRLxsF0.s 			page 287


 15948      6575655F 
 15948      7400
 15949              	.LASF355:
 15950 0608 41444343 		.ascii	"ADCConversionGroup\000"
 15950      6F6E7665 
 15950      7273696F 
 15950      6E47726F 
 15950      757000
 15951              	.LASF656:
 15952 061b 44535453 		.ascii	"DSTS\000"
 15952      00
 15953              	.LASF459:
 15954 0620 5354445F 		.ascii	"STD_DUTY_CYCLE\000"
 15954      44555459 
 15954      5F435943 
 15954      4C4500
 15955              	.LASF364:
 15956 062f 43414E5F 		.ascii	"CAN_READY\000"
 15956      52454144 
 15956      5900
 15957              	.LASF234:
 15958 0639 63665F6F 		.ascii	"cf_off_older\000"
 15958      66665F6F 
 15958      6C646572 
 15958      00
 15959              	.LASF24:
 15960 0646 72747469 		.ascii	"rttime_t\000"
 15960      6D655F74 
 15960      00
 15961              	.LASF418:
 15962 064f 45585444 		.ascii	"EXTD1\000"
 15962      3100
 15963              	.LASF690:
 15964 0655 72787175 		.ascii	"rxqueued\000"
 15964      65756564 
 15964      00
 15965              	.LASF755:
 15966 065e 7072696E 		.ascii	"print_tokens\000"
 15966      745F746F 
 15966      6B656E73 
 15966      00
 15967              	.LASF366:
 15968 066b 63616E73 		.ascii	"canstate_t\000"
 15968      74617465 
 15968      5F7400
 15969              	.LASF136:
 15970 0676 7346696C 		.ascii	"sFilterRegister\000"
 15970      74657252 
 15970      65676973 
 15970      74657200 
 15971              	.LASF662:
 15972 0686 72657376 		.ascii	"resvd820\000"
 15972      64383230 
 15972      00
 15973              	.LASF798:
 15974 068f 5F5F7374 		.ascii	"__stack_chk_fail\000"
 15974      61636B5F 
ARM GAS  C:\Users\mathi\AppData\Local\Temp\ccRLxsF0.s 			page 288


 15974      63686B5F 
 15974      6661696C 
 15974      00
 15975              	.LASF163:
 15976 06a0 52455350 		.ascii	"RESP1\000"
 15976      3100
 15977              	.LASF164:
 15978 06a6 52455350 		.ascii	"RESP2\000"
 15978      3200
 15979              	.LASF165:
 15980 06ac 52455350 		.ascii	"RESP3\000"
 15980      3300
 15981              	.LASF166:
 15982 06b2 52455350 		.ascii	"RESP4\000"
 15982      3400
 15983              	.LASF759:
 15984 06b8 74657374 		.ascii	"test_print\000"
 15984      5F707269 
 15984      6E7400
 15985              	.LASF768:
 15986 06c3 63685654 		.ascii	"chVTIsSystemTimeWithin\000"
 15986      49735379 
 15986      7374656D 
 15986      54696D65 
 15986      57697468 
 15987              	.LASF774:
 15988 06da 63685654 		.ascii	"chVTGetSystemTimeX\000"
 15988      47657453 
 15988      79737465 
 15988      6D54696D 
 15988      655800
 15989              	.LASF446:
 15990 06ed 4932435F 		.ascii	"I2C_UNINIT\000"
 15990      554E494E 
 15990      495400
 15991              	.LASF601:
 15992 06f8 75736272 		.ascii	"usbreqhandler_t\000"
 15992      65716861 
 15992      6E646C65 
 15992      725F7400 
 15993              	.LASF326:
 15994 0708 4144435F 		.ascii	"ADC_COMPLETE\000"
 15994      434F4D50 
 15994      4C455445 
 15994      00
 15995              	.LASF442:
 15996 0715 47505443 		.ascii	"GPTConfig\000"
 15996      6F6E6669 
 15996      6700
 15997              	.LASF508:
 15998 071f 53445F55 		.ascii	"SD_UNINIT\000"
 15998      4E494E49 
 15998      5400
 15999              	.LASF29:
 16000 0729 74707269 		.ascii	"tprio_t\000"
 16000      6F5F7400 
 16001              	.LASF203:
ARM GAS  C:\Users\mathi\AppData\Local\Temp\ccRLxsF0.s 			page 289


 16002 0731 6E5F6972 		.ascii	"n_irq\000"
 16002      7100
 16003              	.LASF487:
 16004 0737 69327370 		.ascii	"i2spr\000"
 16004      7200
 16005              	.LASF758:
 16006 073d 6D736770 		.ascii	"msgp\000"
 16006      00
 16007              	.LASF666:
 16008 0742 72657376 		.ascii	"resvd830\000"
 16008      64383330 
 16008      00
 16009              	.LASF448:
 16010 074b 4932435F 		.ascii	"I2C_READY\000"
 16010      52454144 
 16010      5900
 16011              	.LASF668:
 16012 0755 72657376 		.ascii	"resvd838\000"
 16012      64383338 
 16012      00
 16013              	.LASF462:
 16014 075e 69326364 		.ascii	"i2cdutycycle_t\000"
 16014      75747963 
 16014      79636C65 
 16014      5F7400
 16015              	.LASF669:
 16016 076d 72657376 		.ascii	"resvd83C\000"
 16016      64383343 
 16016      00
 16017              	.LASF340:
 16018 0776 74687265 		.ascii	"thread\000"
 16018      616400
 16019              	.LASF385:
 16020 077d 72656773 		.ascii	"regshift\000"
 16020      68696674 
 16020      00
 16021              	.LASF564:
 16022 0786 73657475 		.ascii	"setup\000"
 16022      7000
 16023              	.LASF543:
 16024 078c 5350495F 		.ascii	"SPI_UNINIT\000"
 16024      554E494E 
 16024      495400
 16025              	.LASF617:
 16026 0797 44545846 		.ascii	"DTXFSTS\000"
 16026      53545300 
 16027              	.LASF289:
 16028 079f 626C6B5F 		.ascii	"blk_size\000"
 16028      73697A65 
 16028      00
 16029              	.LASF754:
 16030 07a8 746F6B65 		.ascii	"token\000"
 16030      6E00
 16031              	.LASF558:
 16032 07ae 696E5F70 		.ascii	"in_params\000"
 16032      6172616D 
 16032      7300
ARM GAS  C:\Users\mathi\AppData\Local\Temp\ccRLxsF0.s 			page 290


 16033              	.LASF432:
 16034 07b8 43434552 		.ascii	"CCER\000"
 16034      00
 16035              	.LASF179:
 16036 07bd 49325350 		.ascii	"I2SPR\000"
 16036      5200
 16037              	.LASF490:
 16038 07c3 50574D5F 		.ascii	"PWM_UNINIT\000"
 16038      554E494E 
 16038      495400
 16039              	.LASF198:
 16040 07ce 62657374 		.ascii	"best\000"
 16040      00
 16041              	.LASF626:
 16042 07d3 47414842 		.ascii	"GAHBCFG\000"
 16042      43464700 
 16043              	.LASF395:
 16044 07db 64616363 		.ascii	"daccallback_t\000"
 16044      616C6C62 
 16044      61636B5F 
 16044      7400
 16045              	.LASF670:
 16046 07e9 72657376 		.ascii	"resvd840\000"
 16046      64383430 
 16046      00
 16047              	.LASF175:
 16048 07f2 43524350 		.ascii	"CRCPR\000"
 16048      5200
 16049              	.LASF284:
 16050 07f8 424C4B5F 		.ascii	"BLK_READY\000"
 16050      52454144 
 16050      5900
 16051              	.LASF7:
 16052 0802 5F5F696E 		.ascii	"__int16_t\000"
 16052      7431365F 
 16052      7400
 16053              	.LASF9:
 16054 080c 5F5F7569 		.ascii	"__uint16_t\000"
 16054      6E743136 
 16054      5F7400
 16055              	.LASF748:
 16056 0817 5F746573 		.ascii	"_test_assert_sequence\000"
 16056      745F6173 
 16056      73657274 
 16056      5F736571 
 16056      75656E63 
 16057              	.LASF422:
 16058 082d 4750545F 		.ascii	"GPT_CONTINUOUS\000"
 16058      434F4E54 
 16058      494E554F 
 16058      555300
 16059              	.LASF684:
 16060 083c 74787175 		.ascii	"txqueued\000"
 16060      65756564 
 16060      00
 16061              	.LASF52:
 16062 0845 705F6D73 		.ascii	"p_msg\000"
ARM GAS  C:\Users\mathi\AppData\Local\Temp\ccRLxsF0.s 			page 291


 16062      6700
 16063              	.LASF623:
 16064 084b 73746D33 		.ascii	"stm32_otg_out_ep_t\000"
 16064      325F6F74 
 16064      675F6F75 
 16064      745F6570 
 16064      5F7400
 16065              	.LASF632:
 16066 085e 47525853 		.ascii	"GRXSTSP\000"
 16066      54535000 
 16067              	.LASF631:
 16068 0866 47525853 		.ascii	"GRXSTSR\000"
 16068      54535200 
 16069              	.LASF209:
 16070 086e 65786974 		.ascii	"exitcode\000"
 16070      636F6465 
 16070      00
 16071              	.LASF153:
 16072 0877 4D314152 		.ascii	"M1AR\000"
 16072      00
 16073              	.LASF571:
 16074 087c 77616974 		.ascii	"wait\000"
 16074      00
 16075              	.LASF154:
 16076 0881 444D415F 		.ascii	"DMA_Stream_TypeDef\000"
 16076      53747265 
 16076      616D5F54 
 16076      79706544 
 16076      656600
 16077              	.LASF578:
 16078 0894 5553425F 		.ascii	"USB_ACTIVE\000"
 16078      41435449 
 16078      564500
 16079              	.LASF619:
 16080 089f 73746D33 		.ascii	"stm32_otg_in_ep_t\000"
 16080      325F6F74 
 16080      675F696E 
 16080      5F65705F 
 16080      7400
 16081              	.LASF717:
 16082 08b1 74687265 		.ascii	"threads\000"
 16082      61647300 
 16083              	.LASF692:
 16084 08b9 7278636E 		.ascii	"rxcnt\000"
 16084      7400
 16085              	.LASF322:
 16086 08bf 4144435F 		.ascii	"ADC_UNINIT\000"
 16086      554E494E 
 16086      495400
 16087              	.LASF470:
 16088 08ca 7278646D 		.ascii	"rxdmamode\000"
 16088      616D6F64 
 16088      6500
 16089              	.LASF414:
 16090 08d4 6D6F6465 		.ascii	"mode\000"
 16090      00
 16091              	.LASF222:
ARM GAS  C:\Users\mathi\AppData\Local\Temp\ccRLxsF0.s 			page 292


 16092 08d9 6D5F636E 		.ascii	"m_cnt\000"
 16092      7400
 16093              	.LASF411:
 16094 08df 45585444 		.ascii	"EXTDriver\000"
 16094      72697665 
 16094      7200
 16095              	.LASF237:
 16096 08e9 63665F6F 		.ascii	"cf_off_state\000"
 16096      66665F73 
 16096      74617465 
 16096      00
 16097              	.LASF482:
 16098 08f6 69327363 		.ascii	"i2scallback_t\000"
 16098      616C6C62 
 16098      61636B5F 
 16098      7400
 16099              	.LASF552:
 16100 0904 73737061 		.ascii	"sspad\000"
 16100      6400
 16101              	.LASF471:
 16102 090a 7478646D 		.ascii	"txdmamode\000"
 16102      616D6F64 
 16102      6500
 16103              	.LASF438:
 16104 0914 67707466 		.ascii	"gptfreq_t\000"
 16104      7265715F 
 16104      7400
 16105              	.LASF789:
 16106 091e 63685654 		.ascii	"chVTDoSetI\000"
 16106      446F5365 
 16106      744900
 16107              	.LASF677:
 16108 0929 72785F66 		.ascii	"rx_fifo_size\000"
 16108      69666F5F 
 16108      73697A65 
 16108      00
 16109              	.LASF184:
 16110 0936 73746B61 		.ascii	"stkalign_t\000"
 16110      6C69676E 
 16110      5F7400
 16111              	.LASF393:
 16112 0941 4441435F 		.ascii	"DAC_ERR_UNDERFLOW\000"
 16112      4552525F 
 16112      554E4445 
 16112      52464C4F 
 16112      5700
 16113              	.LASF374:
 16114 0953 77616B65 		.ascii	"wakeup_event\000"
 16114      75705F65 
 16114      76656E74 
 16114      00
 16115              	.LASF76:
 16116 0960 76745F70 		.ascii	"vt_prev\000"
 16116      72657600 
 16117              	.LASF348:
 16118 0968 656E645F 		.ascii	"end_cb\000"
 16118      636200
ARM GAS  C:\Users\mathi\AppData\Local\Temp\ccRLxsF0.s 			page 293


 16119              	.LASF695:
 16120 096f 73657475 		.ascii	"setup_cb\000"
 16120      705F6362 
 16120      00
 16121              	.LASF6:
 16122 0978 756E7369 		.ascii	"unsigned char\000"
 16122      676E6564 
 16122      20636861 
 16122      7200
 16123              	.LASF173:
 16124 0986 4649464F 		.ascii	"FIFO\000"
 16124      00
 16125              	.LASF194:
 16126 098b 74625F62 		.ascii	"tb_buffer\000"
 16126      75666665 
 16126      7200
 16127              	.LASF368:
 16128 0995 74787175 		.ascii	"txqueue\000"
 16128      65756500 
 16129              	.LASF217:
 16130 099d 735F636E 		.ascii	"s_cnt\000"
 16130      7400
 16131              	.LASF64:
 16132 09a3 72656164 		.ascii	"ready_list_t\000"
 16132      795F6C69 
 16132      73745F74 
 16132      00
 16133              	.LASF60:
 16134 09b0 63685F74 		.ascii	"ch_thread\000"
 16134      68726561 
 16134      6400
 16135              	.LASF457:
 16136 09ba 4F504D4F 		.ascii	"OPMODE_SMBUS_HOST\000"
 16136      44455F53 
 16136      4D425553 
 16136      5F484F53 
 16136      5400
 16137              	.LASF573:
 16138 09cc 75736265 		.ascii	"usbep_t\000"
 16138      705F7400 
 16139              	.LASF407:
 16140 09d4 4558545F 		.ascii	"EXT_UNINIT\000"
 16140      554E494E 
 16140      495400
 16141              	.LASF365:
 16142 09df 43414E5F 		.ascii	"CAN_SLEEP\000"
 16142      534C4545 
 16142      5000
 16143              	.LASF732:
 16144 09e9 70617474 		.ascii	"patterns\000"
 16144      65726E73 
 16144      00
 16145              	.LASF731:
 16146 09f2 70617474 		.ascii	"patternbmk\000"
 16146      65726E62 
 16146      6D6B00
 16147              	.LASF190:
ARM GAS  C:\Users\mathi\AppData\Local\Temp\ccRLxsF0.s 			page 294


 16148 09fd 73655F73 		.ascii	"se_state\000"
 16148      74617465 
 16148      00
 16149              	.LASF361:
 16150 0a06 43414E5F 		.ascii	"CAN_UNINIT\000"
 16150      554E494E 
 16150      495400
 16151              	.LASF542:
 16152 0a11 53444344 		.ascii	"SDCD1\000"
 16152      3100
 16153              	.LASF83:
 16154 0a17 73797374 		.ascii	"system_debug_t\000"
 16154      656D5F64 
 16154      65627567 
 16154      5F7400
 16155              	.LASF141:
 16156 0a26 44485238 		.ascii	"DHR8R1\000"
 16156      523100
 16157              	.LASF144:
 16158 0a2d 44485238 		.ascii	"DHR8R2\000"
 16158      523200
 16159              	.LASF429:
 16160 0a34 44494552 		.ascii	"DIER\000"
 16160      00
 16161              	.LASF40:
 16162 0a39 705F6374 		.ascii	"p_ctx\000"
 16162      7800
 16163              	.LASF79:
 16164 0a3f 76745F70 		.ascii	"vt_par\000"
 16164      617200
 16165              	.LASF100:
 16166 0a46 4A4F4652 		.ascii	"JOFR1\000"
 16166      3100
 16167              	.LASF101:
 16168 0a4c 4A4F4652 		.ascii	"JOFR2\000"
 16168      3200
 16169              	.LASF102:
 16170 0a52 4A4F4652 		.ascii	"JOFR3\000"
 16170      3300
 16171              	.LASF103:
 16172 0a58 4A4F4652 		.ascii	"JOFR4\000"
 16172      3400
 16173              	.LASF71:
 16174 0a5e 725F6375 		.ascii	"r_current\000"
 16174      7272656E 
 16174      7400
 16175              	.LASF177:
 16176 0a68 54584352 		.ascii	"TXCRCR\000"
 16176      435200
 16177              	.LASF400:
 16178 0a6f 64616364 		.ascii	"dacdhrmode_t\000"
 16178      68726D6F 
 16178      64655F74 
 16178      00
 16179              	.LASF342:
 16180 0a7c 646D6173 		.ascii	"dmastp\000"
 16180      747000
ARM GAS  C:\Users\mathi\AppData\Local\Temp\ccRLxsF0.s 			page 295


 16181              	.LASF461:
 16182 0a83 46415354 		.ascii	"FAST_DUTY_CYCLE_16_9\000"
 16182      5F445554 
 16182      595F4359 
 16182      434C455F 
 16182      31365F39 
 16183              	.LASF22:
 16184 0a98 75696E74 		.ascii	"uint64_t\000"
 16184      36345F74 
 16184      00
 16185              	.LASF204:
 16186 0aa1 6E5F6374 		.ascii	"n_ctxswc\000"
 16186      78737763 
 16186      00
 16187              	.LASF243:
 16188 0aaa 63685F64 		.ascii	"ch_debug\000"
 16188      65627567 
 16188      00
 16189              	.LASF403:
 16190 0ab3 696E6974 		.ascii	"init\000"
 16190      00
 16191              	.LASF128:
 16192 0ab8 464D3152 		.ascii	"FM1R\000"
 16192      00
 16193              	.LASF319:
 16194 0abd 50414C43 		.ascii	"PALConfig\000"
 16194      6F6E6669 
 16194      6700
 16195              	.LASF686:
 16196 0ac7 7478636E 		.ascii	"txcnt\000"
 16196      7400
 16197              	.LASF600:
 16198 0acd 75736265 		.ascii	"usbeventcb_t\000"
 16198      76656E74 
 16198      63625F74 
 16198      00
 16199              	.LASF281:
 16200 0ada 424C4B5F 		.ascii	"BLK_ACTIVE\000"
 16200      41435449 
 16200      564500
 16201              	.LASF245:
 16202 0ae5 6576656E 		.ascii	"event_listener_t\000"
 16202      745F6C69 
 16202      7374656E 
 16202      65725F74 
 16202      00
 16203              	.LASF678:
 16204 0af6 6F74675F 		.ascii	"otg_ram_size\000"
 16204      72616D5F 
 16204      73697A65 
 16204      00
 16205              	.LASF680:
 16206 0b03 73746D33 		.ascii	"stm32_otg_params_t\000"
 16206      325F6F74 
 16206      675F7061 
 16206      72616D73 
 16206      5F7400
ARM GAS  C:\Users\mathi\AppData\Local\Temp\ccRLxsF0.s 			page 296


 16207              	.LASF673:
 16208 0b16 72657376 		.ascii	"resvdD00\000"
 16208      64443030 
 16208      00
 16209              	.LASF176:
 16210 0b1f 52584352 		.ascii	"RXCRCR\000"
 16210      435200
 16211              	.LASF689:
 16212 0b26 72786275 		.ascii	"rxbuf\000"
 16212      6600
 16213              	.LASF629:
 16214 0b2c 47494E54 		.ascii	"GINTSTS\000"
 16214      53545300 
 16215              	.LASF218:
 16216 0b34 63685F6D 		.ascii	"ch_mutex\000"
 16216      75746578 
 16216      00
 16217              	.LASF371:
 16218 0b3d 7478656D 		.ascii	"txempty_event\000"
 16218      7074795F 
 16218      6576656E 
 16218      7400
 16219              	.LASF494:
 16220 0b4b 50574D44 		.ascii	"PWMDriver\000"
 16220      72697665 
 16220      7200
 16221              	.LASF316:
 16222 0b55 50474461 		.ascii	"PGData\000"
 16222      746100
 16223              	.LASF503:
 16224 0b5c 50574D43 		.ascii	"PWMConfig\000"
 16224      6F6E6669 
 16224      6700
 16225              	.LASF721:
 16226 0b66 70617474 		.ascii	"patternthd\000"
 16226      65726E74 
 16226      686400
 16227              	.LASF782:
 16228 0b71 76616C75 		.ascii	"value\000"
 16228      6500
 16229              	.LASF233:
 16230 0b77 63665F6F 		.ascii	"cf_off_newer\000"
 16230      66665F6E 
 16230      65776572 
 16230      00
 16231              	.LASF658:
 16232 0b84 44494550 		.ascii	"DIEPMSK\000"
 16232      4D534B00 
 16233              	.LASF625:
 16234 0b8c 474F5447 		.ascii	"GOTGINT\000"
 16234      494E5400 
 16235              	.LASF697:
 16236 0b94 6F75745F 		.ascii	"out_cb\000"
 16236      636200
 16237              	.LASF649:
 16238 0b9b 4841494E 		.ascii	"HAINTMSK\000"
 16238      544D534B 
ARM GAS  C:\Users\mathi\AppData\Local\Temp\ccRLxsF0.s 			page 297


 16238      00
 16239              	.LASF559:
 16240 0ba4 6F75745F 		.ascii	"out_params\000"
 16240      70617261 
 16240      6D7300
 16241              	.LASF189:
 16242 0baf 73655F77 		.ascii	"se_wtobjp\000"
 16242      746F626A 
 16242      7000
 16243              	.LASF107:
 16244 0bb9 4A535152 		.ascii	"JSQR\000"
 16244      00
 16245              	.LASF441:
 16246 0bbe 64696572 		.ascii	"dier\000"
 16246      00
 16247              	.LASF537:
 16248 0bc3 69735F70 		.ascii	"is_protected\000"
 16248      726F7465 
 16248      63746564 
 16248      00
 16249              	.LASF73:
 16250 0bd0 76697274 		.ascii	"virtual_timer_t\000"
 16250      75616C5F 
 16250      74696D65 
 16250      725F7400 
 16251              	.LASF699:
 16252 0be0 6F75745F 		.ascii	"out_maxsize\000"
 16252      6D617873 
 16252      697A6500 
 16253              	.LASF68:
 16254 0bec 725F6374 		.ascii	"r_ctx\000"
 16254      7800
 16255              	.LASF75:
 16256 0bf2 76745F6E 		.ascii	"vt_next\000"
 16256      65787400 
 16257              	.LASF476:
 16258 0bfa 4932535F 		.ascii	"I2S_STOP\000"
 16258      53544F50 
 16258      00
 16259              	.LASF491:
 16260 0c03 50574D5F 		.ascii	"PWM_STOP\000"
 16260      53544F50 
 16260      00
 16261              	.LASF792:
 16262 0c0c 63685379 		.ascii	"chSysHalt\000"
 16262      7348616C 
 16262      7400
 16263              	.LASF763:
 16264 0c16 76746675 		.ascii	"vtfunc\000"
 16264      6E6300
 16265              	.LASF23:
 16266 0c1d 7274636E 		.ascii	"rtcnt_t\000"
 16266      745F7400 
 16267              	.LASF341:
 16268 0c25 6D757465 		.ascii	"mutex\000"
 16268      7800
 16269              	.LASF485:
ARM GAS  C:\Users\mathi\AppData\Local\Temp\ccRLxsF0.s 			page 298


 16270 0c2b 73697A65 		.ascii	"size\000"
 16270      00
 16271              	.LASF389:
 16272 0c30 44414344 		.ascii	"DACDriver\000"
 16272      72697665 
 16272      7200
 16273              	.LASF405:
 16274 0c3a 44414343 		.ascii	"DACConfig\000"
 16274      6F6E6669 
 16274      6700
 16275              	.LASF570:
 16276 0c44 74787065 		.ascii	"txpending\000"
 16276      6E64696E 
 16276      6700
 16277              	.LASF426:
 16278 0c4e 636C6F63 		.ascii	"clock\000"
 16278      6B00
 16279              	.LASF293:
 16280 0c54 636C6561 		.ascii	"clear\000"
 16280      7200
 16281              	.LASF436:
 16282 0c5a 43435852 		.ascii	"CCXR\000"
 16282      00
 16283              	.LASF137:
 16284 0c5f 43414E5F 		.ascii	"CAN_TypeDef\000"
 16284      54797065 
 16284      44656600 
 16285              	.LASF742:
 16286 0c6b 74657374 		.ascii	"test_cpu_pulse\000"
 16286      5F637075 
 16286      5F70756C 
 16286      736500
 16287              	.LASF191:
 16288 0c7a 63685F73 		.ascii	"ch_swc_event_t\000"
 16288      77635F65 
 16288      76656E74 
 16288      5F7400
 16289              	.LASF509:
 16290 0c89 53445F53 		.ascii	"SD_STOP\000"
 16290      544F5000 
 16291              	.LASF604:
 16292 0c91 72657376 		.ascii	"resvd8\000"
 16292      643800
 16293              	.LASF4:
 16294 0c98 73697A65 		.ascii	"size_t\000"
 16294      5F7400
 16295              	.LASF94:
 16296 0c9f 6B65726E 		.ascii	"kernel_stats\000"
 16296      656C5F73 
 16296      74617473 
 16296      00
 16297              	.LASF671:
 16298 0cac 72657376 		.ascii	"resvd880\000"
 16298      64383830 
 16298      00
 16299              	.LASF17:
 16300 0cb5 75696E74 		.ascii	"uint8_t\000"
ARM GAS  C:\Users\mathi\AppData\Local\Temp\ccRLxsF0.s 			page 299


 16300      385F7400 
 16301              	.LASF608:
 16302 0cbd 72657376 		.ascii	"resvd14\000"
 16302      64313400 
 16303              	.LASF609:
 16304 0cc5 72657376 		.ascii	"resvd18\000"
 16304      64313800 
 16305              	.LASF70:
 16306 0ccd 725F6F6C 		.ascii	"r_older\000"
 16306      64657200 
 16307              	.LASF38:
 16308 0cd5 705F7072 		.ascii	"p_prev\000"
 16308      657600
 16309              	.LASF235:
 16310 0cdc 63665F6F 		.ascii	"cf_off_name\000"
 16310      66665F6E 
 16310      616D6500 
 16311              	.LASF502:
 16312 0ce8 50574D43 		.ascii	"PWMChannelConfig\000"
 16312      68616E6E 
 16312      656C436F 
 16312      6E666967 
 16312      00
 16313              	.LASF501:
 16314 0cf9 70776D63 		.ascii	"pwmcnt_t\000"
 16314      6E745F74 
 16314      00
 16315              	.LASF667:
 16316 0d02 44494550 		.ascii	"DIEPEMPMSK\000"
 16316      454D504D 
 16316      534B00
 16317              	.LASF612:
 16318 0d0d 44494550 		.ascii	"DIEPCTL\000"
 16318      43544C00 
 16319              	.LASF251:
 16320 0d15 656C5F77 		.ascii	"el_wflags\000"
 16320      666C6167 
 16320      7300
 16321              	.LASF568:
 16322 0d1f 6F746770 		.ascii	"otgparams\000"
 16322      6172616D 
 16322      7300
 16323              	.LASF192:
 16324 0d29 74625F73 		.ascii	"tb_size\000"
 16324      697A6500 
 16325              	.LASF313:
 16326 0d31 50444461 		.ascii	"PDData\000"
 16326      746100
 16327              	.LASF532:
 16328 0d38 73637261 		.ascii	"scratchpad\000"
 16328      74636870 
 16328      616400
 16329              	.LASF701:
 16330 0d43 6F75745F 		.ascii	"out_state\000"
 16330      73746174 
 16330      6500
 16331              	.LASF255:
ARM GAS  C:\Users\mathi\AppData\Local\Temp\ccRLxsF0.s 			page 300


 16332 0d4d 696F5F71 		.ascii	"io_queue_t\000"
 16332      75657565 
 16332      5F7400
 16333              	.LASF548:
 16334 0d58 73706973 		.ascii	"spistate_t\000"
 16334      74617465 
 16334      5F7400
 16335              	.LASF769:
 16336 0d63 63685654 		.ascii	"chVTIsTimeWithinX\000"
 16336      49735469 
 16336      6D655769 
 16336      7468696E 
 16336      5800
 16337              	.LASF447:
 16338 0d75 4932435F 		.ascii	"I2C_STOP\000"
 16338      53544F50 
 16338      00
 16339              	.LASF469:
 16340 0d7e 61646472 		.ascii	"addr\000"
 16340      00
 16341              	.LASF122:
 16342 0d83 52463052 		.ascii	"RF0R\000"
 16342      00
 16343              	.LASF331:
 16344 0d88 4144435F 		.ascii	"ADC_ERR_DMAFAILURE\000"
 16344      4552525F 
 16344      444D4146 
 16344      41494C55 
 16344      524500
 16345              	.LASF546:
 16346 0d9b 5350495F 		.ascii	"SPI_ACTIVE\000"
 16346      41435449 
 16346      564500
 16347              	.LASF415:
 16348 0da6 45585443 		.ascii	"EXTChannelConfig\000"
 16348      68616E6E 
 16348      656C436F 
 16348      6E666967 
 16348      00
 16349              	.LASF296:
 16350 0db7 4F535045 		.ascii	"OSPEEDR\000"
 16350      45445200 
 16351              	.LASF379:
 16352 0dbf 4441435F 		.ascii	"DAC_READY\000"
 16352      52454144 
 16352      5900
 16353              	.LASF636:
 16354 0dc9 72657376 		.ascii	"resvd30\000"
 16354      64333000 
 16355              	.LASF637:
 16356 0dd1 72657376 		.ascii	"resvd34\000"
 16356      64333400 
 16357              	.LASF665:
 16358 0dd9 44564255 		.ascii	"DVBUSPULSE\000"
 16358      5350554C 
 16358      534500
 16359              	.LASF280:
ARM GAS  C:\Users\mathi\AppData\Local\Temp\ccRLxsF0.s 			page 301


 16360 0de4 424C4B5F 		.ascii	"BLK_STOP\000"
 16360      53544F50 
 16360      00
 16361              	.LASF517:
 16362 0ded 53657269 		.ascii	"SerialDriverVMT\000"
 16362      616C4472 
 16362      69766572 
 16362      564D5400 
 16363              	.LASF586:
 16364 0dfd 5553425F 		.ascii	"USB_EP0_ERROR\000"
 16364      4550305F 
 16364      4552524F 
 16364      5200
 16365              	.LASF538:
 16366 0e0b 636F6E6E 		.ascii	"connect\000"
 16366      65637400 
 16367              	.LASF123:
 16368 0e13 52463152 		.ascii	"RF1R\000"
 16368      00
 16369              	.LASF334:
 16370 0e18 41444344 		.ascii	"ADCDriver\000"
 16370      72697665 
 16370      7200
 16371              	.LASF679:
 16372 0e22 6E756D5F 		.ascii	"num_endpoints\000"
 16372      656E6470 
 16372      6F696E74 
 16372      7300
 16373              	.LASF357:
 16374 0e30 41444343 		.ascii	"ADCConfig\000"
 16374      6F6E6669 
 16374      6700
 16375              	.LASF687:
 16376 0e3a 746F7473 		.ascii	"totsize\000"
 16376      697A6500 
 16377              	.LASF510:
 16378 0e42 53445F52 		.ascii	"SD_READY\000"
 16378      45414459 
 16378      00
 16379              	.LASF602:
 16380 0e4b 75736267 		.ascii	"usbgetdescriptor_t\000"
 16380      65746465 
 16380      73637269 
 16380      70746F72 
 16380      5F7400
 16381              	.LASF766:
 16382 0e5e 63685468 		.ascii	"chThdGetTicksX\000"
 16382      64476574 
 16382      5469636B 
 16382      735800
 16383              	.LASF382:
 16384 0e6d 4441435F 		.ascii	"DAC_ERROR\000"
 16384      4552524F 
 16384      5200
 16385              	.LASF581:
 16386 0e77 5553425F 		.ascii	"USB_EP0_TX\000"
 16386      4550305F 
ARM GAS  C:\Users\mathi\AppData\Local\Temp\ccRLxsF0.s 			page 302


 16386      545800
 16387              	.LASF560:
 16388 0e82 65703073 		.ascii	"ep0state\000"
 16388      74617465 
 16388      00
 16389              	.LASF784:
 16390 0e8b 63685468 		.ascii	"chThdSleep\000"
 16390      64536C65 
 16390      657000
 16391              	.LASF273:
 16392 0e96 69666372 		.ascii	"ifcr\000"
 16392      00
 16393              	.LASF475:
 16394 0e9b 4932535F 		.ascii	"I2S_UNINIT\000"
 16394      554E494E 
 16394      495400
 16395              	.LASF750:
 16396 0ea6 636F6E64 		.ascii	"condition\000"
 16396      6974696F 
 16396      6E00
 16397              	.LASF302:
 16398 0eb0 73746D33 		.ascii	"stm32_gpio_t\000"
 16398      325F6770 
 16398      696F5F74 
 16398      00
 16399              	.LASF208:
 16400 0ebd 7264796D 		.ascii	"rdymsg\000"
 16400      736700
 16401              	.LASF492:
 16402 0ec4 50574D5F 		.ascii	"PWM_READY\000"
 16402      52454144 
 16402      5900
 16403              	.LASF113:
 16404 0ece 54445452 		.ascii	"TDTR\000"
 16404      00
 16405              	.LASF724:
 16406 0ed3 70617474 		.ascii	"patternmsg\000"
 16406      65726E6D 
 16406      736700
 16407              	.LASF121:
 16408 0ede 43414E5F 		.ascii	"CAN_FilterRegister_TypeDef\000"
 16408      46696C74 
 16408      65725265 
 16408      67697374 
 16408      65725F54 
 16409              	.LASF372:
 16410 0ef9 6572726F 		.ascii	"error_event\000"
 16410      725F6576 
 16410      656E7400 
 16411              	.LASF347:
 16412 0f05 6E756D5F 		.ascii	"num_channels\000"
 16412      6368616E 
 16412      6E656C73 
 16412      00
 16413              	.LASF639:
 16414 0f12 72657376 		.ascii	"resvd58\000"
 16414      64353800 
ARM GAS  C:\Users\mathi\AppData\Local\Temp\ccRLxsF0.s 			page 303


 16415              	.LASF688:
 16416 0f1a 55534249 		.ascii	"USBInEndpointState\000"
 16416      6E456E64 
 16416      706F696E 
 16416      74537461 
 16416      746500
 16417              	.LASF39:
 16418 0f2d 705F7072 		.ascii	"p_prio\000"
 16418      696F00
 16419              	.LASF256:
 16420 0f34 696F5F71 		.ascii	"io_queue\000"
 16420      75657565 
 16420      00
 16421              	.LASF310:
 16422 0f3d 50414461 		.ascii	"PAData\000"
 16422      746100
 16423              	.LASF15:
 16424 0f44 5F5F7569 		.ascii	"__uint64_t\000"
 16424      6E743634 
 16424      5F7400
 16425              	.LASF497:
 16426 0f4f 70776D63 		.ascii	"pwmcallback_t\000"
 16426      616C6C62 
 16426      61636B5F 
 16426      7400
 16427              	.LASF390:
 16428 0f5d 70617261 		.ascii	"params\000"
 16428      6D7300
 16429              	.LASF585:
 16430 0f64 5553425F 		.ascii	"USB_EP0_SENDING_STS\000"
 16430      4550305F 
 16430      53454E44 
 16430      494E475F 
 16430      53545300 
 16431              	.LASF723:
 16432 0f78 70617474 		.ascii	"patternmtx\000"
 16432      65726E6D 
 16432      747800
 16433              	.LASF452:
 16434 0f83 69326373 		.ascii	"i2cstate_t\000"
 16434      74617465 
 16434      5F7400
 16435              	.LASF587:
 16436 0f8e 75736265 		.ascii	"usbep0state_t\000"
 16436      70307374 
 16436      6174655F 
 16436      7400
 16437              	.LASF394:
 16438 0f9c 64616365 		.ascii	"dacerror_t\000"
 16438      72726F72 
 16438      5F7400
 16439              	.LASF125:
 16440 0fa7 7354784D 		.ascii	"sTxMailBox\000"
 16440      61696C42 
 16440      6F7800
 16441              	.LASF329:
 16442 0fb2 61646373 		.ascii	"adcsample_t\000"
ARM GAS  C:\Users\mathi\AppData\Local\Temp\ccRLxsF0.s 			page 304


 16442      616D706C 
 16442      655F7400 
 16443              	.LASF427:
 16444 0fbe 67707463 		.ascii	"gptcallback_t\000"
 16444      616C6C62 
 16444      61636B5F 
 16444      7400
 16445              	.LASF259:
 16446 0fcc 715F6275 		.ascii	"q_buffer\000"
 16446      66666572 
 16446      00
 16447              	.LASF37:
 16448 0fd5 705F6E65 		.ascii	"p_next\000"
 16448      787400
 16449              	.LASF474:
 16450 0fdc 49324344 		.ascii	"I2CD1\000"
 16450      3100
 16451              	.LASF613:
 16452 0fe2 72657376 		.ascii	"resvd4\000"
 16452      643400
 16453              	.LASF555:
 16454 0fe9 55534244 		.ascii	"USBDriver\000"
 16454      72697665 
 16454      7200
 16455              	.LASF672:
 16456 0ff3 72657376 		.ascii	"resvd8C0\000"
 16456      64384330 
 16456      00
 16457              	.LASF709:
 16458 0ffc 55534243 		.ascii	"USBConfig\000"
 16458      6F6E6669 
 16458      6700
 16459              	.LASF615:
 16460 1006 72657376 		.ascii	"resvdC\000"
 16460      644300
 16461              	.LASF504:
 16462 100d 50574D44 		.ascii	"PWMD2\000"
 16462      3200
 16463              	.LASF505:
 16464 1013 50574D44 		.ascii	"PWMD3\000"
 16464      3300
 16465              	.LASF506:
 16466 1019 50574D44 		.ascii	"PWMD4\000"
 16466      3400
 16467              	.LASF507:
 16468 101f 50574D44 		.ascii	"PWMD5\000"
 16468      3500
 16469              	.LASF743:
 16470 1025 73746172 		.ascii	"start\000"
 16470      7400
 16471              	.LASF515:
 16472 102b 6F717565 		.ascii	"oqueue\000"
 16472      756500
 16473              	.LASF27:
 16474 1032 74726566 		.ascii	"trefs_t\000"
 16474      735F7400 
 16475              	.LASF56:
ARM GAS  C:\Users\mathi\AppData\Local\Temp\ccRLxsF0.s 			page 305


 16476 103a 705F6D70 		.ascii	"p_mpool\000"
 16476      6F6F6C00 
 16477              	.LASF747:
 16478 1042 706F696E 		.ascii	"point\000"
 16478      7400
 16479              	.LASF402:
 16480 1048 44414343 		.ascii	"DACConversionGroup\000"
 16480      6F6E7665 
 16480      7273696F 
 16480      6E47726F 
 16480      757000
 16481              	.LASF702:
 16482 105b 696E5F6D 		.ascii	"in_multiplier\000"
 16482      756C7469 
 16482      706C6965 
 16482      7200
 16483              	.LASF327:
 16484 1069 4144435F 		.ascii	"ADC_ERROR\000"
 16484      4552524F 
 16484      5200
 16485              	.LASF25:
 16486 1073 746D6F64 		.ascii	"tmode_t\000"
 16486      655F7400 
 16487              	.LASF738:
 16488 107b 65786563 		.ascii	"execute_test\000"
 16488      7574655F 
 16488      74657374 
 16488      00
 16489              	.LASF325:
 16490 1088 4144435F 		.ascii	"ADC_ACTIVE\000"
 16490      41435449 
 16490      564500
 16491              	.LASF104:
 16492 1093 53515231 		.ascii	"SQR1\000"
 16492      00
 16493              	.LASF105:
 16494 1098 53515232 		.ascii	"SQR2\000"
 16494      00
 16495              	.LASF106:
 16496 109d 53515233 		.ascii	"SQR3\000"
 16496      00
 16497              	.LASF298:
 16498 10a2 42535252 		.ascii	"BSRR\000"
 16498      00
 16499              	.LASF727:
 16500 10a7 70617474 		.ascii	"patternheap\000"
 16500      65726E68 
 16500      65617000 
 16501              	.LASF277:
 16502 10b3 73746D33 		.ascii	"stm32_dma_stream_t\000"
 16502      325F646D 
 16502      615F7374 
 16502      7265616D 
 16502      5F7400
 16503              	.LASF707:
 16504 10c6 72657175 		.ascii	"requests_hook_cb\000"
 16504      65737473 
ARM GAS  C:\Users\mathi\AppData\Local\Temp\ccRLxsF0.s 			page 306


 16504      5F686F6F 
 16504      6B5F6362 
 16504      00
 16505              	.LASF524:
 16506 10d7 5344435F 		.ascii	"SDC_MODE_8BIT\000"
 16506      4D4F4445 
 16506      5F384249 
 16506      5400
 16507              	.LASF685:
 16508 10e5 74787369 		.ascii	"txsize\000"
 16508      7A6500
 16509              	.LASF398:
 16510 10ec 4441435F 		.ascii	"DAC_DHRM_12BIT_LEFT\000"
 16510      4448524D 
 16510      5F313242 
 16510      49545F4C 
 16510      45465400 
 16511              	.LASF495:
 16512 1100 70657269 		.ascii	"period\000"
 16512      6F6400
 16513              	.LASF451:
 16514 1107 4932435F 		.ascii	"I2C_LOCKED\000"
 16514      4C4F434B 
 16514      454400
 16515              	.LASF86:
 16516 1112 6973725F 		.ascii	"isr_cnt\000"
 16516      636E7400 
 16517              	.LASF576:
 16518 111a 5553425F 		.ascii	"USB_READY\000"
 16518      52454144 
 16518      5900
 16519              	.LASF521:
 16520 1124 72656164 		.ascii	"readt\000"
 16520      7400
 16521              	.LASF628:
 16522 112a 47525354 		.ascii	"GRSTCTL\000"
 16522      43544C00 
 16523              	.LASF424:
 16524 1132 67707473 		.ascii	"gptstate_t\000"
 16524      74617465 
 16524      5F7400
 16525              	.LASF85:
 16526 113d 70616E69 		.ascii	"panic_msg\000"
 16526      635F6D73 
 16526      6700
 16527              	.LASF547:
 16528 1147 5350495F 		.ascii	"SPI_COMPLETE\000"
 16528      434F4D50 
 16528      4C455445 
 16528      00
 16529              	.LASF167:
 16530 1154 4454494D 		.ascii	"DTIMER\000"
 16530      455200
 16531              	.LASF69:
 16532 115b 725F6E65 		.ascii	"r_newer\000"
 16532      77657200 
 16533              	.LASF593:
ARM GAS  C:\Users\mathi\AppData\Local\Temp\ccRLxsF0.s 			page 307


 16534 1163 5553425F 		.ascii	"USB_EVENT_STALLED\000"
 16534      4556454E 
 16534      545F5354 
 16534      414C4C45 
 16534      4400
 16535              	.LASF242:
 16536 1175 63686465 		.ascii	"chdebug_t\000"
 16536      6275675F 
 16536      7400
 16537              	.LASF790:
 16538 117f 5F646267 		.ascii	"_dbg_check_unlock\000"
 16538      5F636865 
 16538      636B5F75 
 16538      6E6C6F63 
 16538      6B00
 16539              	.LASF691:
 16540 1191 72787369 		.ascii	"rxsize\000"
 16540      7A6500
 16541              	.LASF607:
 16542 1198 48435453 		.ascii	"HCTSIZ\000"
 16542      495A00
 16543              	.LASF590:
 16544 119f 5553425F 		.ascii	"USB_EVENT_CONFIGURED\000"
 16544      4556454E 
 16544      545F434F 
 16544      4E464947 
 16544      55524544 
 16545              	.LASF539:
 16546 11b4 64697363 		.ascii	"disconnect\000"
 16546      6F6E6E65 
 16546      637400
 16547              	.LASF518:
 16548 11bf 70757474 		.ascii	"putt\000"
 16548      00
 16549              	.LASF28:
 16550 11c4 74736C69 		.ascii	"tslices_t\000"
 16550      6365735F 
 16550      7400
 16551              	.LASF796:
 16552 11ce 433A5C55 		.ascii	"C:\\Users\\mathi\\Documents\\robotique\\robotics_pr"
 16552      73657273 
 16552      5C6D6174 
 16552      68695C44 
 16552      6F63756D 
 16553 11fc 6F6A6563 		.ascii	"oject\\robotics_project\\robotics_project\000"
 16553      745C726F 
 16553      626F7469 
 16553      63735F70 
 16553      726F6A65 
 16554              	.LASF572:
 16555 1224 77615F70 		.ascii	"wa_pump\000"
 16555      756D7000 
 16556              	.LASF172:
 16557 122c 4649464F 		.ascii	"FIFOCNT\000"
 16557      434E5400 
 16558              	.LASF254:
 16559 1234 6576656E 		.ascii	"event_source_t\000"
ARM GAS  C:\Users\mathi\AppData\Local\Temp\ccRLxsF0.s 			page 308


 16559      745F736F 
 16559      75726365 
 16559      5F7400
 16560              	.LASF642:
 16561 1243 72657376 		.ascii	"resvd140\000"
 16561      64313430 
 16561      00
 16562              	.LASF77:
 16563 124c 76745F64 		.ascii	"vt_delta\000"
 16563      656C7461 
 16563      00
 16564              	.LASF193:
 16565 1255 74625F70 		.ascii	"tb_ptr\000"
 16565      747200
 16566              	.LASF401:
 16567 125c 74726967 		.ascii	"trigger\000"
 16567      67657200 
 16568              	.LASF591:
 16569 1264 5553425F 		.ascii	"USB_EVENT_SUSPEND\000"
 16569      4556454E 
 16569      545F5355 
 16569      5350454E 
 16569      4400
 16570              	.LASF18:
 16571 1276 696E7431 		.ascii	"int16_t\000"
 16571      365F7400 
 16572              	.LASF420:
 16573 127e 4750545F 		.ascii	"GPT_STOP\000"
 16573      53544F50 
 16573      00
 16574              	.LASF112:
 16575 1287 4144435F 		.ascii	"ADC_TypeDef\000"
 16575      54797065 
 16575      44656600 
 16576              	.LASF10:
 16577 1293 73686F72 		.ascii	"short unsigned int\000"
 16577      7420756E 
 16577      7369676E 
 16577      65642069 
 16577      6E7400
 16578              	.LASF463:
 16579 12a6 6F705F6D 		.ascii	"op_mode\000"
 16579      6F646500 
 16580              	.LASF3:
 16581 12ae 7369676E 		.ascii	"signed char\000"
 16581      65642063 
 16581      68617200 
 16582              	.LASF530:
 16583 12ba 63617264 		.ascii	"cardmode\000"
 16583      6D6F6465 
 16583      00
 16584              	.LASF48:
 16585 12c3 705F7072 		.ascii	"p_preempt\000"
 16585      65656D70 
 16585      7400
 16586              	.LASF34:
 16587 12cd 75636E74 		.ascii	"ucnt_t\000"
ARM GAS  C:\Users\mathi\AppData\Local\Temp\ccRLxsF0.s 			page 309


 16587      5F7400
 16588              	.LASF115:
 16589 12d4 54444852 		.ascii	"TDHR\000"
 16589      00
 16590              	.LASF323:
 16591 12d9 4144435F 		.ascii	"ADC_STOP\000"
 16591      53544F50 
 16591      00
 16592              	.LASF584:
 16593 12e2 5553425F 		.ascii	"USB_EP0_RX\000"
 16593      4550305F 
 16593      525800
 16594              	.LASF498:
 16595 12ed 70776D6D 		.ascii	"pwmmode_t\000"
 16595      6F64655F 
 16595      7400
 16596              	.LASF565:
 16597 12f7 73746174 		.ascii	"status\000"
 16597      757300
 16598              	.LASF168:
 16599 12fe 444C454E 		.ascii	"DLEN\000"
 16599      00
 16600              	.LASF523:
 16601 1303 5344435F 		.ascii	"SDC_MODE_4BIT\000"
 16601      4D4F4445 
 16601      5F344249 
 16601      5400
 16602              	.LASF597:
 16603 1311 55534244 		.ascii	"USBDescriptor\000"
 16603      65736372 
 16603      6970746F 
 16603      7200
 16604              	.LASF550:
 16605 131f 73706963 		.ascii	"spicallback_t\000"
 16605      616C6C62 
 16605      61636B5F 
 16605      7400
 16606              	.LASF566:
 16607 132d 61646472 		.ascii	"address\000"
 16607      65737300 
 16608              	.LASF51:
 16609 1335 705F6D73 		.ascii	"p_msgqueue\000"
 16609      67717565 
 16609      756500
 16610              	.LASF239:
 16611 1340 63665F6F 		.ascii	"cf_off_refs\000"
 16611      66665F72 
 16611      65667300 
 16612              	.LASF534:
 16613 134c 53444343 		.ascii	"SDCConfig\000"
 16613      6F6E6669 
 16613      6700
 16614              	.LASF220:
 16615 1356 6D5F6F77 		.ascii	"m_owner\000"
 16615      6E657200 
 16616              	.LASF97:
 16617 135e 53797374 		.ascii	"SystemCoreClock\000"
ARM GAS  C:\Users\mathi\AppData\Local\Temp\ccRLxsF0.s 			page 310


 16617      656D436F 
 16617      7265436C 
 16617      6F636B00 
 16618              	.LASF345:
 16619 136e 61646365 		.ascii	"adcerrorcallback_t\000"
 16619      72726F72 
 16619      63616C6C 
 16619      6261636B 
 16619      5F7400
 16620              	.LASF380:
 16621 1381 4441435F 		.ascii	"DAC_ACTIVE\000"
 16621      41435449 
 16621      564500
 16622              	.LASF716:
 16623 138c 74657374 		.ascii	"test_global_fail\000"
 16623      5F676C6F 
 16623      62616C5F 
 16623      6661696C 
 16623      00
 16624              	.LASF335:
 16625 139d 73746174 		.ascii	"state\000"
 16625      6500
 16626              	.LASF227:
 16627 13a3 63685F76 		.ascii	"ch_version\000"
 16627      65727369 
 16627      6F6E00
 16628              	.LASF531:
 16629 13ae 7364696F 		.ascii	"sdio\000"
 16629      00
 16630              	.LASF138:
 16631 13b3 53575452 		.ascii	"SWTRIGR\000"
 16631      49475200 
 16632              	.LASF583:
 16633 13bb 5553425F 		.ascii	"USB_EP0_WAITING_STS\000"
 16633      4550305F 
 16633      57414954 
 16633      494E475F 
 16633      53545300 
 16634              	.LASF159:
 16635 13cf 4932435F 		.ascii	"I2C_TypeDef\000"
 16635      54797065 
 16635      44656600 
 16636              	.LASF119:
 16637 13db 52444852 		.ascii	"RDHR\000"
 16637      00
 16638              	.LASF434:
 16639 13e0 444D4152 		.ascii	"DMAR\000"
 16639      00
 16640              	.LASF440:
 16641 13e5 63616C6C 		.ascii	"callback\000"
 16641      6261636B 
 16641      00
 16642              	.LASF90:
 16643 13ee 63685F73 		.ascii	"ch_system\000"
 16643      79737465 
 16643      6D00
 16644              	.LASF160:
ARM GAS  C:\Users\mathi\AppData\Local\Temp\ccRLxsF0.s 			page 311


 16645 13f8 504F5745 		.ascii	"POWER\000"
 16645      5200
 16646              	.LASF88:
 16647 13fe 74726163 		.ascii	"trace_buffer\000"
 16647      655F6275 
 16647      66666572 
 16647      00
 16648              	.LASF767:
 16649 140b 63685654 		.ascii	"chVTIsArmedI\000"
 16649      49734172 
 16649      6D656449 
 16649      00
 16650              	.LASF399:
 16651 1418 4441435F 		.ascii	"DAC_DHRM_8BIT_RIGHT\000"
 16651      4448524D 
 16651      5F384249 
 16651      545F5249 
 16651      47485400 
 16652              	.LASF419:
 16653 142c 4750545F 		.ascii	"GPT_UNINIT\000"
 16653      554E494E 
 16653      495400
 16654              	.LASF741:
 16655 1437 64757261 		.ascii	"duration\000"
 16655      74696F6E 
 16655      00
 16656              	.LASF215:
 16657 1440 63685F73 		.ascii	"ch_semaphore\000"
 16657      656D6170 
 16657      686F7265 
 16657      00
 16658              	.LASF745:
 16659 144d 74657374 		.ascii	"test_wait_tick\000"
 16659      5F776169 
 16659      745F7469 
 16659      636B00
 16660              	.LASF616:
 16661 145c 44494550 		.ascii	"DIEPTSIZ\000"
 16661      5453495A 
 16661      00
 16662              	.LASF779:
 16663 1465 706F7274 		.ascii	"port_unlock\000"
 16663      5F756E6C 
 16663      6F636B00 
 16664              	.LASF350:
 16665 1471 736D7072 		.ascii	"smpr1\000"
 16665      3100
 16666              	.LASF351:
 16667 1477 736D7072 		.ascii	"smpr2\000"
 16667      3200
 16668              	.LASF62:
 16669 147d 74687265 		.ascii	"threads_queue_t\000"
 16669      6164735F 
 16669      71756575 
 16669      655F7400 
 16670              	.LASF288:
 16671 148d 626C6B73 		.ascii	"blkstate_t\000"
ARM GAS  C:\Users\mathi\AppData\Local\Temp\ccRLxsF0.s 			page 312


 16671      74617465 
 16671      5F7400
 16672              	.LASF770:
 16673 1498 74696D65 		.ascii	"time\000"
 16673      00
 16674              	.LASF778:
 16675 149d 63685379 		.ascii	"chSysLock\000"
 16675      734C6F63 
 16675      6B00
 16676              	.LASF49:
 16677 14a7 705F7469 		.ascii	"p_time\000"
 16677      6D6500
 16678              	.LASF47:
 16679 14ae 705F7265 		.ascii	"p_refs\000"
 16679      667300
 16680              	.LASF694:
 16681 14b5 65705F6D 		.ascii	"ep_mode\000"
 16681      6F646500 
 16682              	.LASF499:
 16683 14bd 70776D63 		.ascii	"pwmchannel_t\000"
 16683      68616E6E 
 16683      656C5F74 
 16683      00
 16684              	.LASF114:
 16685 14ca 54444C52 		.ascii	"TDLR\000"
 16685      00
 16686              	.LASF12:
 16687 14cf 6C6F6E67 		.ascii	"long int\000"
 16687      20696E74 
 16687      00
 16688              	.LASF93:
 16689 14d8 6D61696E 		.ascii	"mainthread\000"
 16689      74687265 
 16689      616400
 16690              	.LASF562:
 16691 14e3 6570306E 		.ascii	"ep0n\000"
 16691      00
 16692              	.LASF675:
 16693 14e8 72657376 		.ascii	"resvdE04\000"
 16693      64453034 
 16693      00
 16694              	.LASF219:
 16695 14f1 6D5F7175 		.ascii	"m_queue\000"
 16695      65756500 
 16696              	.LASF387:
 16697 14f9 646D6169 		.ascii	"dmairqprio\000"
 16697      72717072 
 16697      696F00
 16698              	.LASF425:
 16699 1504 47505444 		.ascii	"GPTDriver\000"
 16699      72697665 
 16699      7200
 16700              	.LASF527:
 16701 150e 73646366 		.ascii	"sdcflags_t\000"
 16701      6C616773 
 16701      5F7400
 16702              	.LASF317:
ARM GAS  C:\Users\mathi\AppData\Local\Temp\ccRLxsF0.s 			page 313


 16703 1519 50484461 		.ascii	"PHData\000"
 16703      746100
 16704              	.LASF320:
 16705 1520 696F706F 		.ascii	"ioportid_t\000"
 16705      72746964 
 16705      5F7400
 16706              	.LASF358:
 16707 152b 41444344 		.ascii	"ADCD1\000"
 16707      3100
 16708              	.LASF359:
 16709 1531 41444344 		.ascii	"ADCD2\000"
 16709      3200
 16710              	.LASF360:
 16711 1537 41444344 		.ascii	"ADCD3\000"
 16711      3300
 16712              	.LASF643:
 16713 153d 48434647 		.ascii	"HCFG\000"
 16713      00
 16714              	.LASF343:
 16715 1542 646D616D 		.ascii	"dmamode\000"
 16715      6F646500 
 16716              	.LASF201:
 16717 154a 63756D75 		.ascii	"cumulative\000"
 16717      6C617469 
 16717      766500
 16718              	.LASF554:
 16719 1555 53504944 		.ascii	"SPID1\000"
 16719      3100
 16720              	.LASF519:
 16721 155b 67657474 		.ascii	"gett\000"
 16721      00
 16722              	.LASF725:
 16723 1560 70617474 		.ascii	"patternmbox\000"
 16723      65726E6D 
 16723      626F7800 
 16724              	.LASF760:
 16725 156c 74657374 		.ascii	"test_printn\000"
 16725      5F707269 
 16725      6E746E00 
 16726              	.LASF211:
 16727 1578 77747472 		.ascii	"wttrp\000"
 16727      7000
 16728              	.LASF262:
 16729 157e 715F7264 		.ascii	"q_rdptr\000"
 16729      70747200 
 16730              	.LASF185:
 16731 1586 636F6E74 		.ascii	"context\000"
 16731      65787400 
 16732              	.LASF269:
 16733 158e 77726974 		.ascii	"write\000"
 16733      6500
 16734              	.LASF744:
 16735 1594 74657374 		.ascii	"test_terminate_threads\000"
 16735      5F746572 
 16735      6D696E61 
 16735      74655F74 
 16735      68726561 
ARM GAS  C:\Users\mathi\AppData\Local\Temp\ccRLxsF0.s 			page 314


 16736              	.LASF514:
 16737 15ab 69717565 		.ascii	"iqueue\000"
 16737      756500
 16738              	.LASF696:
 16739 15b2 696E5F63 		.ascii	"in_cb\000"
 16739      6200
 16740              	.LASF621:
 16741 15b8 444F4550 		.ascii	"DOEPINT\000"
 16741      494E5400 
 16742              	.LASF200:
 16743 15c0 6C617374 		.ascii	"last\000"
 16743      00
 16744              	.LASF299:
 16745 15c5 4C434B52 		.ascii	"LCKR\000"
 16745      00
 16746              	.LASF511:
 16747 15ca 73647374 		.ascii	"sdstate_t\000"
 16747      6174655F 
 16747      7400
 16748              	.LASF21:
 16749 15d4 75696E74 		.ascii	"uint32_t\000"
 16749      33325F74 
 16749      00
 16750              	.LASF728:
 16751 15dd 70617474 		.ascii	"patternpools\000"
 16751      65726E70 
 16751      6F6F6C73 
 16751      00
 16752              	.LASF384:
 16753 15ea 64617461 		.ascii	"dataoffset\000"
 16753      6F666673 
 16753      657400
 16754              	.LASF286:
 16755 15f5 424C4B5F 		.ascii	"BLK_WRITING\000"
 16755      57524954 
 16755      494E4700 
 16756              	.LASF118:
 16757 1601 52444C52 		.ascii	"RDLR\000"
 16757      00
 16758              	.LASF729:
 16759 1606 70617474 		.ascii	"patterndyn\000"
 16759      65726E64 
 16759      796E00
 16760              	.LASF737:
 16761 1611 7072696E 		.ascii	"print_line\000"
 16761      745F6C69 
 16761      6E6500
 16762              	.LASF780:
 16763 161c 706F7274 		.ascii	"port_lock\000"
 16763      5F6C6F63 
 16763      6B00
 16764              	.LASF788:
 16765 1626 63685654 		.ascii	"chVTDoResetI\000"
 16765      446F5265 
 16765      73657449 
 16765      00
 16766              	.LASF2:
ARM GAS  C:\Users\mathi\AppData\Local\Temp\ccRLxsF0.s 			page 315


 16767 1633 6C6F6E67 		.ascii	"long double\000"
 16767      20646F75 
 16767      626C6500 
 16768              	.LASF183:
 16769 163f 72656761 		.ascii	"regarm_t\000"
 16769      726D5F74 
 16769      00
 16770              	.LASF31:
 16771 1648 6576656E 		.ascii	"eventmask_t\000"
 16771      746D6173 
 16771      6B5F7400 
 16772              	.LASF338:
 16773 1654 64657074 		.ascii	"depth\000"
 16773      6800
 16774              	.LASF132:
 16775 165a 46464131 		.ascii	"FFA1R\000"
 16775      5200
 16776              	.LASF577:
 16777 1660 5553425F 		.ascii	"USB_SELECTED\000"
 16777      53454C45 
 16777      43544544 
 16777      00
 16778              	.LASF14:
 16779 166d 6C6F6E67 		.ascii	"long unsigned int\000"
 16779      20756E73 
 16779      69676E65 
 16779      6420696E 
 16779      7400
 16780              	.LASF478:
 16781 167f 4932535F 		.ascii	"I2S_ACTIVE\000"
 16781      41435449 
 16781      564500
 16782              	.LASF421:
 16783 168a 4750545F 		.ascii	"GPT_READY\000"
 16783      52454144 
 16783      5900
 16784              	.LASF383:
 16785 1694 64616373 		.ascii	"dacstate_t\000"
 16785      74617465 
 16785      5F7400
 16786              	.LASF188:
 16787 169f 73655F74 		.ascii	"se_tp\000"
 16787      7000
 16788              	.LASF261:
 16789 16a5 715F7772 		.ascii	"q_wrptr\000"
 16789      70747200 
 16790              	.LASF391:
 16791 16ad 64616373 		.ascii	"dacsample_t\000"
 16791      616D706C 
 16791      655F7400 
 16792              	.LASF589:
 16793 16b9 5553425F 		.ascii	"USB_EVENT_ADDRESS\000"
 16793      4556454E 
 16793      545F4144 
 16793      44524553 
 16793      5300
 16794              	.LASF486:
ARM GAS  C:\Users\mathi\AppData\Local\Temp\ccRLxsF0.s 			page 316


 16795 16cb 69327363 		.ascii	"i2scfgr\000"
 16795      66677200 
 16796              	.LASF162:
 16797 16d3 52455350 		.ascii	"RESPCMD\000"
 16797      434D4400 
 16798              	.LASF370:
 16799 16db 72786675 		.ascii	"rxfull_event\000"
 16799      6C6C5F65 
 16799      76656E74 
 16799      00
 16800              	.LASF764:
 16801 16e8 63685654 		.ascii	"chVTSetI\000"
 16801      53657449 
 16801      00
 16802              	.LASF594:
 16803 16f1 75736265 		.ascii	"usbevent_t\000"
 16803      76656E74 
 16803      5F7400
 16804              	.LASF223:
 16805 16fc 63686172 		.ascii	"char\000"
 16805      00
 16806              	.LASF367:
 16807 1701 43414E43 		.ascii	"CANConfig\000"
 16807      6F6E6669 
 16807      6700
 16808              	.LASF314:
 16809 170b 50454461 		.ascii	"PEData\000"
 16809      746100
 16810              	.LASF66:
 16811 1712 725F7175 		.ascii	"r_queue\000"
 16811      65756500 
 16812              	.LASF496:
 16813 171a 656E6162 		.ascii	"enabled\000"
 16813      6C656400 
 16814              	.LASF392:
 16815 1722 4441435F 		.ascii	"DAC_ERR_DMAFAILURE\000"
 16815      4552525F 
 16815      444D4146 
 16815      41494C55 
 16815      524500
 16816              	.LASF633:
 16817 1735 47525846 		.ascii	"GRXFSIZ\000"
 16817      53495A00 
 16818              	.LASF540:
 16819 173d 73796E63 		.ascii	"sync\000"
 16819      00
 16820              	.LASF516:
 16821 1742 75736172 		.ascii	"usart\000"
 16821      7400
 16822              	.LASF791:
 16823 1748 5F737461 		.ascii	"_stats_stop_measure_crit_thd\000"
 16823      74735F73 
 16823      746F705F 
 16823      6D656173 
 16823      7572655F 
 16824              	.LASF526:
 16825 1765 7364636D 		.ascii	"sdcmode_t\000"
ARM GAS  C:\Users\mathi\AppData\Local\Temp\ccRLxsF0.s 			page 317


 16825      6F64655F 
 16825      7400
 16826              	.LASF264:
 16827 176f 715F6C69 		.ascii	"q_link\000"
 16827      6E6B00
 16828              	.LASF752:
 16829 1776 5F746573 		.ascii	"_test_fail\000"
 16829      745F6661 
 16829      696C00
 16830              	.LASF654:
 16831 1781 44434647 		.ascii	"DCFG\000"
 16831      00
 16832              	.LASF726:
 16833 1786 70617474 		.ascii	"patternevt\000"
 16833      65726E65 
 16833      767400
 16834              	.LASF751:
 16835 1791 5F746573 		.ascii	"_test_assert\000"
 16835      745F6173 
 16835      73657274 
 16835      00
 16836              	.LASF773:
 16837 179e 63685468 		.ascii	"chThdGetSelfX\000"
 16837      64476574 
 16837      53656C66 
 16837      5800
 16838              	.LASF664:
 16839 17ac 44564255 		.ascii	"DVBUSDIS\000"
 16839      53444953 
 16839      00
 16840              	.LASF714:
 16841 17b5 65786563 		.ascii	"execute\000"
 16841      75746500 
 16842              	.LASF630:
 16843 17bd 47494E54 		.ascii	"GINTMSK\000"
 16843      4D534B00 
 16844              	.LASF635:
 16845 17c5 484E5054 		.ascii	"HNPTXSTS\000"
 16845      58535453 
 16845      00
 16846              	.LASF567:
 16847 17ce 636F6E66 		.ascii	"configuration\000"
 16847      69677572 
 16847      6174696F 
 16847      6E00
 16848              	.LASF309:
 16849 17dc 73746D33 		.ascii	"stm32_gpio_setup_t\000"
 16849      325F6770 
 16849      696F5F73 
 16849      65747570 
 16849      5F7400
 16850              	.LASF787:
 16851 17ef 63684462 		.ascii	"chDbgCheckClassI\000"
 16851      67436865 
 16851      636B436C 
 16851      61737349 
 16851      00
ARM GAS  C:\Users\mathi\AppData\Local\Temp\ccRLxsF0.s 			page 318


 16852              	.LASF278:
 16853 1800 5F73746D 		.ascii	"_stm32_dma_streams\000"
 16853      33325F64 
 16853      6D615F73 
 16853      74726561 
 16853      6D7300
 16854              	.LASF140:
 16855 1813 44485231 		.ascii	"DHR12L1\000"
 16855      324C3100 
 16856              	.LASF143:
 16857 181b 44485231 		.ascii	"DHR12L2\000"
 16857      324C3200 
 16858              	.LASF525:
 16859 1823 73646362 		.ascii	"sdcbusmode_t\000"
 16859      75736D6F 
 16859      64655F74 
 16859      00
 16860              	.LASF146:
 16861 1830 44485231 		.ascii	"DHR12LD\000"
 16861      324C4400 
 16862              	.LASF795:
 16863 1838 2E2E2F2E 		.ascii	"../../lib/e-puck2_main-processor/ChibiOS//test/rt/t"
 16863      2E2F6C69 
 16863      622F652D 
 16863      7075636B 
 16863      325F6D61 
 16864 186b 6573742E 		.ascii	"est.c\000"
 16864      6300
 16865              	.LASF344:
 16866 1871 61646363 		.ascii	"adccallback_t\000"
 16866      616C6C62 
 16866      61636B5F 
 16866      7400
 16867              	.LASF44:
 16868 187f 705F7374 		.ascii	"p_stklimit\000"
 16868      6B6C696D 
 16868      697400
 16869              	.LASF33:
 16870 188a 636E745F 		.ascii	"cnt_t\000"
 16870      7400
 16871              	.LASF410:
 16872 1890 65787473 		.ascii	"extstate_t\000"
 16872      74617465 
 16872      5F7400
 16873              	.LASF582:
 16874 189b 5553425F 		.ascii	"USB_EP0_WAITING_TX0\000"
 16874      4550305F 
 16874      57414954 
 16874      494E475F 
 16874      54583000 
 16875              	.LASF561:
 16876 18af 6570306E 		.ascii	"ep0next\000"
 16876      65787400 
 16877              	.LASF611:
 16878 18b7 73746D33 		.ascii	"stm32_otg_host_chn_t\000"
 16878      325F6F74 
 16878      675F686F 
ARM GAS  C:\Users\mathi\AppData\Local\Temp\ccRLxsF0.s 			page 319


 16878      73745F63 
 16878      686E5F74 
 16879              	.LASF301:
 16880 18cc 41465248 		.ascii	"AFRH\000"
 16880      00
 16881              	.LASF715:
 16882 18d1 62756666 		.ascii	"buffer\000"
 16882      657200
 16883              	.LASF300:
 16884 18d8 4146524C 		.ascii	"AFRL\000"
 16884      00
 16885              	.LASF718:
 16886 18dd 74657374 		.ascii	"test\000"
 16886      00
 16887              	.LASF240:
 16888 18e2 63665F6F 		.ascii	"cf_off_preempt\000"
 16888      66665F70 
 16888      7265656D 
 16888      707400
 16889              	.LASF381:
 16890 18f1 4441435F 		.ascii	"DAC_COMPLETE\000"
 16890      434F4D50 
 16890      4C455445 
 16890      00
 16891              	.LASF620:
 16892 18fe 444F4550 		.ascii	"DOEPCTL\000"
 16892      43544C00 
 16893              	.LASF606:
 16894 1906 4843494E 		.ascii	"HCINTMSK\000"
 16894      544D534B 
 16894      00
 16895              	.LASF336:
 16896 190f 636F6E66 		.ascii	"config\000"
 16896      696700
 16897              	.LASF444:
 16898 1916 47505444 		.ascii	"GPTD11\000"
 16898      313100
 16899              	.LASF445:
 16900 191d 47505444 		.ascii	"GPTD12\000"
 16900      313200
 16901              	.LASF282:
 16902 1924 424C4B5F 		.ascii	"BLK_CONNECTING\000"
 16902      434F4E4E 
 16902      45435449 
 16902      4E4700
 16903              	.LASF377:
 16904 1933 4441435F 		.ascii	"DAC_UNINIT\000"
 16904      554E494E 
 16904      495400
 16905              	.LASF330:
 16906 193e 6164635F 		.ascii	"adc_channels_num_t\000"
 16906      6368616E 
 16906      6E656C73 
 16906      5F6E756D 
 16906      5F7400
 16907              	.LASF72:
 16908 1951 76746675 		.ascii	"vtfunc_t\000"
ARM GAS  C:\Users\mathi\AppData\Local\Temp\ccRLxsF0.s 			page 320


 16908      6E635F74 
 16908      00
 16909              	.LASF120:
 16910 195a 43414E5F 		.ascii	"CAN_FIFOMailBox_TypeDef\000"
 16910      4649464F 
 16910      4D61696C 
 16910      426F785F 
 16910      54797065 
 16911              	.LASF150:
 16912 1972 4441435F 		.ascii	"DAC_TypeDef\000"
 16912      54797065 
 16912      44656600 
 16913              	.LASF210:
 16914 197e 77746F62 		.ascii	"wtobjp\000"
 16914      6A7000
 16915              	.LASF397:
 16916 1985 4441435F 		.ascii	"DAC_DHRM_12BIT_RIGHT\000"
 16916      4448524D 
 16916      5F313242 
 16916      49545F52 
 16916      49474854 
 16917              	.LASF55:
 16918 199a 705F7265 		.ascii	"p_realprio\000"
 16918      616C7072 
 16918      696F00
 16919              	.LASF529:
 16920 19a5 63617061 		.ascii	"capacity\000"
 16920      63697479 
 16920      00
 16921              	.LASF263:
 16922 19ae 715F6E6F 		.ascii	"q_notify\000"
 16922      74696679 
 16922      00
 16923              	.LASF213:
 16924 19b7 77746D74 		.ascii	"wtmtxp\000"
 16924      787000
 16925              	.LASF722:
 16926 19be 70617474 		.ascii	"patternsem\000"
 16926      65726E73 
 16926      656D00
 16927              	.LASF693:
 16928 19c9 5553424F 		.ascii	"USBOutEndpointState\000"
 16928      7574456E 
 16928      64706F69 
 16928      6E745374 
 16928      61746500 
 16929              	.LASF650:
 16930 19dd 72657376 		.ascii	"resvd41C\000"
 16930      64343143 
 16930      00
 16931              	.LASF117:
 16932 19e6 52445452 		.ascii	"RDTR\000"
 16932      00
 16933              	.LASF290:
 16934 19eb 626C6B5F 		.ascii	"blk_num\000"
 16934      6E756D00 
 16935              	.LASF797:
ARM GAS  C:\Users\mathi\AppData\Local\Temp\ccRLxsF0.s 			page 321


 16936 19f3 74657374 		.ascii	"test_buffers\000"
 16936      5F627566 
 16936      66657273 
 16936      00
 16937              	.LASF588:
 16938 1a00 5553425F 		.ascii	"USB_EVENT_RESET\000"
 16938      4556454E 
 16938      545F5245 
 16938      53455400 
 16939              	.LASF65:
 16940 1a10 63685F72 		.ascii	"ch_ready_list\000"
 16940      65616479 
 16940      5F6C6973 
 16940      7400
 16941              	.LASF297:
 16942 1a1e 50555044 		.ascii	"PUPDR\000"
 16942      5200
 16943              	.LASF11:
 16944 1a24 5F5F696E 		.ascii	"__int32_t\000"
 16944      7433325F 
 16944      7400
 16945              	.LASF13:
 16946 1a2e 5F5F7569 		.ascii	"__uint32_t\000"
 16946      6E743332 
 16946      5F7400
 16947              	.LASF84:
 16948 1a39 63685F73 		.ascii	"ch_system_debug\000"
 16948      79737465 
 16948      6D5F6465 
 16948      62756700 
 16949              	.LASF661:
 16950 1a49 4441494E 		.ascii	"DAINTMSK\000"
 16950      544D534B 
 16950      00
 16951              	.LASF417:
 16952 1a52 45585443 		.ascii	"EXTConfig\000"
 16952      6F6E6669 
 16952      6700
 16953              	.LASF258:
 16954 1a5c 715F636F 		.ascii	"q_counter\000"
 16954      756E7465 
 16954      7200
 16955              	.LASF580:
 16956 1a66 5553425F 		.ascii	"USB_EP0_WAITING_SETUP\000"
 16956      4550305F 
 16956      57414954 
 16956      494E475F 
 16956      53455455 
 16957              	.LASF285:
 16958 1a7c 424C4B5F 		.ascii	"BLK_READING\000"
 16958      52454144 
 16958      494E4700 
 16959              	.LASF307:
 16960 1a88 6166726C 		.ascii	"afrl\000"
 16960      00
 16961              	.LASF683:
 16962 1a8d 71756575 		.ascii	"queue\000"
ARM GAS  C:\Users\mathi\AppData\Local\Temp\ccRLxsF0.s 			page 322


 16962      6500
 16963              	.LASF783:
 16964 1a93 63685468 		.ascii	"chThdWait\000"
 16964      64576169 
 16964      7400
 16965              	.LASF563:
 16966 1a9d 65703065 		.ascii	"ep0endcb\000"
 16966      6E646362 
 16966      00
 16967              	.LASF275:
 16968 1aa6 73656C66 		.ascii	"selfindex\000"
 16968      696E6465 
 16968      7800
 16969              	.LASF244:
 16970 1ab0 6D757465 		.ascii	"mutex_t\000"
 16970      785F7400 
 16971              	.LASF53:
 16972 1ab8 705F6570 		.ascii	"p_epending\000"
 16972      656E6469 
 16972      6E6700
 16973              	.LASF294:
 16974 1ac3 4D4F4445 		.ascii	"MODER\000"
 16974      5200
 16975              	.LASF479:
 16976 1ac9 4932535F 		.ascii	"I2S_COMPLETE\000"
 16976      434F4D50 
 16976      4C455445 
 16976      00
 16977              	.LASF124:
 16978 1ad6 52455345 		.ascii	"RESERVED0\000"
 16978      52564544 
 16978      3000
 16979              	.LASF127:
 16980 1ae0 52455345 		.ascii	"RESERVED1\000"
 16980      52564544 
 16980      3100
 16981              	.LASF129:
 16982 1aea 52455345 		.ascii	"RESERVED2\000"
 16982      52564544 
 16982      3200
 16983              	.LASF131:
 16984 1af4 52455345 		.ascii	"RESERVED3\000"
 16984      52564544 
 16984      3300
 16985              	.LASF133:
 16986 1afe 52455345 		.ascii	"RESERVED4\000"
 16986      52564544 
 16986      3400
 16987              	.LASF135:
 16988 1b08 52455345 		.ascii	"RESERVED5\000"
 16988      52564544 
 16988      3500
 16989              	.LASF704:
 16990 1b12 55534245 		.ascii	"USBEndpointConfig\000"
 16990      6E64706F 
 16990      696E7443 
 16990      6F6E6669 
ARM GAS  C:\Users\mathi\AppData\Local\Temp\ccRLxsF0.s 			page 323


 16990      6700
 16991              	.LASF139:
 16992 1b24 44485231 		.ascii	"DHR12R1\000"
 16992      32523100 
 16993              	.LASF142:
 16994 1b2c 44485231 		.ascii	"DHR12R2\000"
 16994      32523200 
 16995              	.LASF413:
 16996 1b34 65787463 		.ascii	"extcallback_t\000"
 16996      616C6C62 
 16996      61636B5F 
 16996      7400
 16997              	.LASF369:
 16998 1b42 72787175 		.ascii	"rxqueue\000"
 16998      65756500 
 16999              	.LASF187:
 17000 1b4a 73655F74 		.ascii	"se_time\000"
 17000      696D6500 
 17001              	.LASF652:
 17002 1b52 72657376 		.ascii	"resvd444\000"
 17002      64343434 
 17002      00
 17003              	.LASF321:
 17004 1b5b 70616C5F 		.ascii	"pal_default_config\000"
 17004      64656661 
 17004      756C745F 
 17004      636F6E66 
 17004      696700
 17005              	.LASF339:
 17006 1b6e 67727070 		.ascii	"grpp\000"
 17006      00
 17007              	.LASF145:
 17008 1b73 44485231 		.ascii	"DHR12RD\000"
 17008      32524400 
 17009              	.LASF248:
 17010 1b7b 656C5F6C 		.ascii	"el_listener\000"
 17010      69737465 
 17010      6E657200 
 17011              	.LASF682:
 17012 1b87 6C696E65 		.ascii	"linear\000"
 17012      617200
 17013              	.LASF437:
 17014 1b8e 73746D33 		.ascii	"stm32_tim_t\000"
 17014      325F7469 
 17014      6D5F7400 
 17015              	.LASF67:
 17016 1b9a 725F7072 		.ascii	"r_prio\000"
 17016      696F00
 17017              	.LASF569:
 17018 1ba1 706D6E65 		.ascii	"pmnext\000"
 17018      787400
 17019              	.LASF96:
 17020 1ba8 49544D5F 		.ascii	"ITM_RxBuffer\000"
 17020      52784275 
 17020      66666572 
 17020      00
 17021              	.LASF719:
ARM GAS  C:\Users\mathi\AppData\Local\Temp\ccRLxsF0.s 			page 324


 17022 1bb5 74657374 		.ascii	"test_timer_done\000"
 17022      5F74696D 
 17022      65725F64 
 17022      6F6E6500 
 17023              	.LASF291:
 17024 1bc5 426C6F63 		.ascii	"BlockDeviceInfo\000"
 17024      6B446576 
 17024      69636549 
 17024      6E666F00 
 17025              	.LASF16:
 17026 1bd5 6C6F6E67 		.ascii	"long long unsigned int\000"
 17026      206C6F6E 
 17026      6720756E 
 17026      7369676E 
 17026      65642069 
 17027              	.LASF174:
 17028 1bec 5344494F 		.ascii	"SDIO_TypeDef\000"
 17028      5F547970 
 17028      65446566 
 17028      00
 17029              	.LASF196:
 17030 1bf9 6F666673 		.ascii	"offset\000"
 17030      657400
 17031              	.LASF775:
 17032 1c00 63685379 		.ascii	"chSysUnlock\000"
 17032      73556E6C 
 17032      6F636B00 
 17033              	.LASF151:
 17034 1c0c 4E445452 		.ascii	"NDTR\000"
 17034      00
 17035              	.LASF253:
 17036 1c11 65735F6E 		.ascii	"es_next\000"
 17036      65787400 
 17037              	.LASF618:
 17038 1c19 72657376 		.ascii	"resvd1C\000"
 17038      64314300 
 17039              	.LASF95:
 17040 1c21 69646C65 		.ascii	"idle_thread_wa\000"
 17040      5F746872 
 17040      6561645F 
 17040      776100
 17041              	.LASF614:
 17042 1c30 44494550 		.ascii	"DIEPINT\000"
 17042      494E5400 
 17043              	.LASF180:
 17044 1c38 5350495F 		.ascii	"SPI_TypeDef\000"
 17044      54797065 
 17044      44656600 
 17045              	.LASF78:
 17046 1c44 76745F66 		.ascii	"vt_func\000"
 17046      756E6300 
 17047              	.LASF428:
 17048 1c4c 534D4352 		.ascii	"SMCR\000"
 17048      00
 17049              	.LASF659:
 17050 1c51 444F4550 		.ascii	"DOEPMSK\000"
 17050      4D534B00 
ARM GAS  C:\Users\mathi\AppData\Local\Temp\ccRLxsF0.s 			page 325


 17051              	.LASF74:
 17052 1c59 63685F76 		.ascii	"ch_virtual_timer\000"
 17052      69727475 
 17052      616C5F74 
 17052      696D6572 
 17052      00
 17053              	.LASF46:
 17054 1c6a 705F666C 		.ascii	"p_flags\000"
 17054      61677300 
 17055              	.LASF761:
 17056 1c72 63685654 		.ascii	"chVTSet\000"
 17056      53657400 
 17057              	.LASF214:
 17058 1c7a 65776D61 		.ascii	"ewmask\000"
 17058      736B00
 17059              	.LASF793:
 17060 1c81 63685468 		.ascii	"chThdTerminate\000"
 17060      64546572 
 17060      6D696E61 
 17060      746500
 17061              	.LASF250:
 17062 1c90 656C5F66 		.ascii	"el_flags\000"
 17062      6C616773 
 17062      00
 17063              	.LASF252:
 17064 1c99 6576656E 		.ascii	"event_source\000"
 17064      745F736F 
 17064      75726365 
 17064      00
 17065              	.LASF54:
 17066 1ca6 705F6D74 		.ascii	"p_mtxlist\000"
 17066      786C6973 
 17066      7400
 17067              	.LASF740:
 17068 1cb0 74657374 		.ascii	"test_start_timer\000"
 17068      5F737461 
 17068      72745F74 
 17068      696D6572 
 17068      00
 17069              	.LASF376:
 17070 1cc1 43414E44 		.ascii	"CAND1\000"
 17070      3100
 17071              	.LASF130:
 17072 1cc7 46533152 		.ascii	"FS1R\000"
 17072      00
 17073              	.LASF26:
 17074 1ccc 74737461 		.ascii	"tstate_t\000"
 17074      74655F74 
 17074      00
 17075              	.LASF549:
 17076 1cd5 53504944 		.ascii	"SPIDriver\000"
 17076      72697665 
 17076      7200
 17077              	.LASF660:
 17078 1cdf 4441494E 		.ascii	"DAINT\000"
 17078      5400
 17079              	.LASF553:
ARM GAS  C:\Users\mathi\AppData\Local\Temp\ccRLxsF0.s 			page 326


 17080 1ce5 53504943 		.ascii	"SPIConfig\000"
 17080      6F6E6669 
 17080      6700
 17081              	.LASF306:
 17082 1cef 70757064 		.ascii	"pupdr\000"
 17082      7200
 17083              	.LASF396:
 17084 1cf5 64616365 		.ascii	"dacerrorcallback_t\000"
 17084      72726F72 
 17084      63616C6C 
 17084      6261636B 
 17084      5F7400
 17085              	.LASF556:
 17086 1d08 7472616E 		.ascii	"transmitting\000"
 17086      736D6974 
 17086      74696E67 
 17086      00
 17087              	.LASF416:
 17088 1d15 6368616E 		.ascii	"channels\000"
 17088      6E656C73 
 17088      00
 17089              	.LASF161:
 17090 1d1e 434C4B43 		.ascii	"CLKCR\000"
 17090      5200
 17091              	.LASF528:
 17092 1d24 53444344 		.ascii	"SDCDriver\000"
 17092      72697665 
 17092      7200
 17093              	.LASF43:
 17094 1d2e 705F6E61 		.ascii	"p_name\000"
 17094      6D6500
 17095              	.LASF512:
 17096 1d35 53657269 		.ascii	"SerialDriver\000"
 17096      616C4472 
 17096      69766572 
 17096      00
 17097              	.LASF108:
 17098 1d42 4A445231 		.ascii	"JDR1\000"
 17098      00
 17099              	.LASF109:
 17100 1d47 4A445232 		.ascii	"JDR2\000"
 17100      00
 17101              	.LASF110:
 17102 1d4c 4A445233 		.ascii	"JDR3\000"
 17102      00
 17103              	.LASF111:
 17104 1d51 4A445234 		.ascii	"JDR4\000"
 17104      00
 17105              	.LASF622:
 17106 1d56 444F4550 		.ascii	"DOEPTSIZ\000"
 17106      5453495A 
 17106      00
 17107              	.LASF324:
 17108 1d5f 4144435F 		.ascii	"ADC_READY\000"
 17108      52454144 
 17108      5900
 17109              	.LASF712:
ARM GAS  C:\Users\mathi\AppData\Local\Temp\ccRLxsF0.s 			page 327


 17110 1d69 6E616D65 		.ascii	"name\000"
 17110      00
 17111              	.LASF80:
 17112 1d6e 76697274 		.ascii	"virtual_timers_list_t\000"
 17112      75616C5F 
 17112      74696D65 
 17112      72735F6C 
 17112      6973745F 
 17113              	.LASF646:
 17114 1d84 72657376 		.ascii	"resvd40C\000"
 17114      64343043 
 17114      00
 17115              	.LASF346:
 17116 1d8d 63697263 		.ascii	"circular\000"
 17116      756C6172 
 17116      00
 17117              	.LASF480:
 17118 1d96 69327373 		.ascii	"i2sstate_t\000"
 17118      74617465 
 17118      5F7400
 17119              	.LASF303:
 17120 1da1 6D6F6465 		.ascii	"moder\000"
 17120      7200
 17121              	.LASF216:
 17122 1da7 735F7175 		.ascii	"s_queue\000"
 17122      65756500 
 17123              	.LASF205:
 17124 1daf 6D5F6372 		.ascii	"m_crit_thd\000"
 17124      69745F74 
 17124      686400
 17125              	.LASF378:
 17126 1dba 4441435F 		.ascii	"DAC_STOP\000"
 17126      53544F50 
 17126      00
 17127              	.LASF653:
 17128 1dc3 72657376 		.ascii	"resvd700\000"
 17128      64373030 
 17128      00
 17129              	.LASF178:
 17130 1dcc 49325343 		.ascii	"I2SCFGR\000"
 17130      46475200 
 17131              	.LASF224:
 17132 1dd4 63685F69 		.ascii	"ch_identifier\000"
 17132      64656E74 
 17132      69666965 
 17132      7200
 17133              	.LASF520:
 17134 1de2 77726974 		.ascii	"writet\000"
 17134      657400
 17135              	.LASF1:
 17136 1de9 6C6F6E67 		.ascii	"long long int\000"
 17136      206C6F6E 
 17136      6720696E 
 17136      7400
 17137              	.LASF640:
 17138 1df7 48505458 		.ascii	"HPTXFSIZ\000"
 17138      4653495A 
ARM GAS  C:\Users\mathi\AppData\Local\Temp\ccRLxsF0.s 			page 328


 17138      00
 17139              	.LASF231:
 17140 1e00 63665F6F 		.ascii	"cf_off_prio\000"
 17140      66665F70 
 17140      72696F00 
 17141              	.LASF202:
 17142 1e0c 74696D65 		.ascii	"time_measurement_t\000"
 17142      5F6D6561 
 17142      73757265 
 17142      6D656E74 
 17142      5F7400
 17143              	.LASF771:
 17144 1e1f 63685654 		.ascii	"chVTGetSystemTime\000"
 17144      47657453 
 17144      79737465 
 17144      6D54696D 
 17144      6500
 17145              	.LASF541:
 17146 1e31 6765745F 		.ascii	"get_info\000"
 17146      696E666F 
 17146      00
 17147              	.LASF333:
 17148 1e3a 61646365 		.ascii	"adcerror_t\000"
 17148      72726F72 
 17148      5F7400
 17149              	.LASF706:
 17150 1e45 6765745F 		.ascii	"get_descriptor_cb\000"
 17150      64657363 
 17150      72697074 
 17150      6F725F63 
 17150      6200
 17151              	.LASF32:
 17152 1e57 6576656E 		.ascii	"eventflags_t\000"
 17152      74666C61 
 17152      67735F74 
 17152      00
 17153              	.LASF545:
 17154 1e64 5350495F 		.ascii	"SPI_READY\000"
 17154      52454144 
 17154      5900
 17155              	.LASF126:
 17156 1e6e 73464946 		.ascii	"sFIFOMailBox\000"
 17156      4F4D6169 
 17156      6C426F78 
 17156      00
 17157              	.LASF533:
 17158 1e7b 6275735F 		.ascii	"bus_width\000"
 17158      77696474 
 17158      6800
 17159              	.LASF735:
 17160 1e85 746F6B65 		.ascii	"tokens_buffer\000"
 17160      6E735F62 
 17160      75666665 
 17160      7200
 17161              	.LASF147:
 17162 1e93 44485238 		.ascii	"DHR8RD\000"
 17162      524400
ARM GAS  C:\Users\mathi\AppData\Local\Temp\ccRLxsF0.s 			page 329


 17163              	.LASF655:
 17164 1e9a 4443544C 		.ascii	"DCTL\000"
 17164      00
 17165              	.LASF535:
 17166 1e9f 53444344 		.ascii	"SDCDriverVMT\000"
 17166      72697665 
 17166      72564D54 
 17166      00
 17167              	.LASF772:
 17168 1eac 73797374 		.ascii	"systime\000"
 17168      696D6500 
 17169              	.LASF681:
 17170 1eb4 74786275 		.ascii	"txbuf\000"
 17170      6600
 17171              	.LASF674:
 17172 1eba 50434743 		.ascii	"PCGCCTL\000"
 17172      43544C00 
 17173              	.LASF592:
 17174 1ec2 5553425F 		.ascii	"USB_EVENT_WAKEUP\000"
 17174      4556454E 
 17174      545F5741 
 17174      4B455550 
 17174      00
 17175              	.LASF781:
 17176 1ed3 5F5F7365 		.ascii	"__set_BASEPRI\000"
 17176      745F4241 
 17176      53455052 
 17176      4900
 17177              	.LASF42:
 17178 1ee1 705F6F6C 		.ascii	"p_older\000"
 17178      64657200 
 17179              	.LASF287:
 17180 1ee9 424C4B5F 		.ascii	"BLK_SYNCING\000"
 17180      53594E43 
 17180      494E4700 
 17181              	.LASF318:
 17182 1ef5 50494461 		.ascii	"PIData\000"
 17182      746100
 17183              	.LASF703:
 17184 1efc 73657475 		.ascii	"setup_buf\000"
 17184      705F6275 
 17184      6600
 17185              	.LASF443:
 17186 1f06 47505444 		.ascii	"GPTD6\000"
 17186      3600
 17187              	.LASF349:
 17188 1f0c 6572726F 		.ascii	"error_cb\000"
 17188      725F6362 
 17188      00
 17189              	.LASF283:
 17190 1f15 424C4B5F 		.ascii	"BLK_DISCONNECTING\000"
 17190      44495343 
 17190      4F4E4E45 
 17190      4354494E 
 17190      4700
 17191              	.LASF551:
 17192 1f27 7373706F 		.ascii	"ssport\000"
ARM GAS  C:\Users\mathi\AppData\Local\Temp\ccRLxsF0.s 			page 330


 17192      727400
 17193              	.LASF268:
 17194 1f2e 42617365 		.ascii	"BaseSequentialStreamVMT\000"
 17194      53657175 
 17194      656E7469 
 17194      616C5374 
 17194      7265616D 
 17195              	.LASF58:
 17196 1f46 74687265 		.ascii	"thread_reference_t\000"
 17196      61645F72 
 17196      65666572 
 17196      656E6365 
 17196      5F7400
 17197              	.LASF749:
 17198 1f59 65787065 		.ascii	"expected\000"
 17198      63746564 
 17198      00
 17199              	.LASF412:
 17200 1f62 65787063 		.ascii	"expchannel_t\000"
 17200      68616E6E 
 17200      656C5F74 
 17200      00
 17201              	.LASF557:
 17202 1f6f 72656365 		.ascii	"receiving\000"
 17202      6976696E 
 17202      6700
 17203              	.LASF756:
 17204 1f79 74657374 		.ascii	"test_wait_threads\000"
 17204      5F776169 
 17204      745F7468 
 17204      72656164 
 17204      7300
 17205              	.LASF439:
 17206 1f8b 66726571 		.ascii	"frequency\000"
 17206      75656E63 
 17206      7900
 17207              	.LASF785:
 17208 1f95 5F737461 		.ascii	"_stats_start_measure_crit_thd\000"
 17208      74735F73 
 17208      74617274 
 17208      5F6D6561 
 17208      73757265 
 17209              	.LASF197:
 17210 1fb3 746D5F63 		.ascii	"tm_calibration_t\000"
 17210      616C6962 
 17210      72617469 
 17210      6F6E5F74 
 17210      00
 17211              	.LASF700:
 17212 1fc4 696E5F73 		.ascii	"in_state\000"
 17212      74617465 
 17212      00
 17213              	.LASF181:
 17214 1fcd 47545052 		.ascii	"GTPR\000"
 17214      00
 17215              	.LASF757:
 17216 1fd2 74657374 		.ascii	"test_println\000"
ARM GAS  C:\Users\mathi\AppData\Local\Temp\ccRLxsF0.s 			page 331


 17216      5F707269 
 17216      6E746C6E 
 17216      00
 17217              	.LASF225:
 17218 1fdf 63685F7A 		.ascii	"ch_zero\000"
 17218      65726F00 
 17219              	.LASF460:
 17220 1fe7 46415354 		.ascii	"FAST_DUTY_CYCLE_2\000"
 17220      5F445554 
 17220      595F4359 
 17220      434C455F 
 17220      3200
 17221              	.LASF762:
 17222 1ff9 64656C61 		.ascii	"delay\000"
 17222      7900
 17223              	.LASF169:
 17224 1fff 44435452 		.ascii	"DCTRL\000"
 17224      4C00
 17225              	.LASF230:
 17226 2005 63685F74 		.ascii	"ch_threadsize\000"
 17226      68726561 
 17226      6473697A 
 17226      6500
 17227              	.LASF158:
 17228 2013 464C5452 		.ascii	"FLTR\000"
 17228      00
 17229              	.LASF430:
 17230 2018 43434D52 		.ascii	"CCMR1\000"
 17230      3100
 17231              	.LASF431:
 17232 201e 43434D52 		.ascii	"CCMR2\000"
 17232      3200
 17233              	.LASF435:
 17234 2024 43434D52 		.ascii	"CCMR3\000"
 17234      3300
 17235              	.LASF0:
 17236 202a 756E7369 		.ascii	"unsigned int\000"
 17236      676E6564 
 17236      20696E74 
 17236      00
 17237              	.LASF353:
 17238 2037 73717232 		.ascii	"sqr2\000"
 17238      00
 17239              	.LASF354:
 17240 203c 73717233 		.ascii	"sqr3\000"
 17240      00
 17241              	.LASF644:
 17242 2041 48464952 		.ascii	"HFIR\000"
 17242      00
 17243              	.LASF574:
 17244 2046 5553425F 		.ascii	"USB_UNINIT\000"
 17244      554E494E 
 17244      495400
 17245              	.LASF777:
 17246 2051 636C6561 		.ascii	"clear_tokens\000"
 17246      725F746F 
 17246      6B656E73 
ARM GAS  C:\Users\mathi\AppData\Local\Temp\ccRLxsF0.s 			page 332


 17246      00
 17247              	.LASF272:
 17248 205e 73747265 		.ascii	"stream\000"
 17248      616D00
 17249              	.LASF356:
 17250 2065 64756D6D 		.ascii	"dummy\000"
 17250      7900
 17251              	.LASF458:
 17252 206b 6932636F 		.ascii	"i2copmode_t\000"
 17252      706D6F64 
 17252      655F7400 
 17253              	.LASF246:
 17254 2077 6576656E 		.ascii	"event_listener\000"
 17254      745F6C69 
 17254      7374656E 
 17254      657200
 17255              	.LASF8:
 17256 2086 73686F72 		.ascii	"short int\000"
 17256      7420696E 
 17256      7400
 17257              	.LASF598:
 17258 2090 75736263 		.ascii	"usbcallback_t\000"
 17258      616C6C62 
 17258      61636B5F 
 17258      7400
 17259              	.LASF627:
 17260 209e 47555342 		.ascii	"GUSBCFG\000"
 17260      43464700 
 17261              	.LASF182:
 17262 20a6 55534152 		.ascii	"USART_TypeDef\000"
 17262      545F5479 
 17262      70654465 
 17262      6600
 17263              	.LASF267:
 17264 20b4 6F757470 		.ascii	"output_queue_t\000"
 17264      75745F71 
 17264      75657565 
 17264      5F7400
 17265              	.LASF676:
 17266 20c3 73746D33 		.ascii	"stm32_otg_t\000"
 17266      325F6F74 
 17266      675F7400 
 17267              	.LASF481:
 17268 20cf 49325344 		.ascii	"I2SDriver\000"
 17268      72697665 
 17268      7200
 17269              	.LASF465:
 17270 20d9 64757479 		.ascii	"duty_cycle\000"
 17270      5F637963 
 17270      6C6500
 17271              	.LASF488:
 17272 20e4 49325343 		.ascii	"I2SConfig\000"
 17272      6F6E6669 
 17272      6700
 17273              	.LASF595:
 17274 20ee 75645F73 		.ascii	"ud_size\000"
 17274      697A6500 
ARM GAS  C:\Users\mathi\AppData\Local\Temp\ccRLxsF0.s 			page 333


 17275              	.LASF698:
 17276 20f6 696E5F6D 		.ascii	"in_maxsize\000"
 17276      61787369 
 17276      7A6500
 17277              	.LASF315:
 17278 2101 50464461 		.ascii	"PFData\000"
 17278      746100
 17279              	.LASF408:
 17280 2108 4558545F 		.ascii	"EXT_STOP\000"
 17280      53544F50 
 17280      00
 17281              	.LASF45:
 17282 2111 705F7374 		.ascii	"p_state\000"
 17282      61746500 
 17283              	.LASF489:
 17284 2119 49325344 		.ascii	"I2SD2\000"
 17284      3200
 17285              	.LASF536:
 17286 211f 69735F69 		.ascii	"is_inserted\000"
 17286      6E736572 
 17286      74656400 
 17287              	.LASF61:
 17288 212b 63685F74 		.ascii	"ch_threads_list\000"
 17288      68726561 
 17288      64735F6C 
 17288      69737400 
 17289              	.LASF170:
 17290 213b 44434F55 		.ascii	"DCOUNT\000"
 17290      4E5400
 17291              	.LASF155:
 17292 2142 4F415231 		.ascii	"OAR1\000"
 17292      00
 17293              	.LASF156:
 17294 2147 4F415232 		.ascii	"OAR2\000"
 17294      00
 17295              	.LASF57:
 17296 214c 705F7374 		.ascii	"p_stats\000"
 17296      61747300 
 17297              	.LASF579:
 17298 2154 75736273 		.ascii	"usbstate_t\000"
 17298      74617465 
 17298      5F7400
 17299              		.ident	"GCC: (GNU Tools for Arm Embedded Processors 7-2017-q4-major) 7.2.1 20170904 (release) [ARM
ARM GAS  C:\Users\mathi\AppData\Local\Temp\ccRLxsF0.s 			page 334


DEFINED SYMBOLS
                            *ABS*:00000000 test.c
C:\Users\mathi\AppData\Local\Temp\ccRLxsF0.s:18     .text.tmr:00000000 $t
C:\Users\mathi\AppData\Local\Temp\ccRLxsF0.s:25     .text.tmr:00000000 tmr
C:\Users\mathi\AppData\Local\Temp\ccRLxsF0.s:68     .text.tmr:00000024 $d
C:\Users\mathi\AppData\Local\Temp\ccRLxsF0.s:74     .text.test_printn:00000000 $t
C:\Users\mathi\AppData\Local\Temp\ccRLxsF0.s:82     .text.test_printn:00000000 test_printn
C:\Users\mathi\AppData\Local\Temp\ccRLxsF0.s:193    .text.test_printn:0000006c $d
C:\Users\mathi\AppData\Local\Temp\ccRLxsF0.s:200    .text.test_print:00000000 $t
C:\Users\mathi\AppData\Local\Temp\ccRLxsF0.s:208    .text.test_print:00000000 test_print
C:\Users\mathi\AppData\Local\Temp\ccRLxsF0.s:266    .text.test_print:00000034 $d
C:\Users\mathi\AppData\Local\Temp\ccRLxsF0.s:272    .text.test_println:00000000 $t
C:\Users\mathi\AppData\Local\Temp\ccRLxsF0.s:280    .text.test_println:00000000 test_println
C:\Users\mathi\AppData\Local\Temp\ccRLxsF0.s:365    .text.test_println:00000044 $d
C:\Users\mathi\AppData\Local\Temp\ccRLxsF0.s:372    .text.test_emit_token:00000000 $t
C:\Users\mathi\AppData\Local\Temp\ccRLxsF0.s:380    .text.test_emit_token:00000000 test_emit_token
C:\Users\mathi\AppData\Local\Temp\ccRLxsF0.s:498    .text.test_emit_token:0000005c $d
C:\Users\mathi\AppData\Local\Temp\ccRLxsF0.s:506    .text._test_fail:00000000 $t
C:\Users\mathi\AppData\Local\Temp\ccRLxsF0.s:514    .text._test_fail:00000000 _test_fail
C:\Users\mathi\AppData\Local\Temp\ccRLxsF0.s:568    .text._test_fail:00000028 $d
C:\Users\mathi\AppData\Local\Temp\ccRLxsF0.s:576    .text._test_assert:00000000 $t
C:\Users\mathi\AppData\Local\Temp\ccRLxsF0.s:584    .text._test_assert:00000000 _test_assert
C:\Users\mathi\AppData\Local\Temp\ccRLxsF0.s:651    .text._test_assert:00000030 $d
C:\Users\mathi\AppData\Local\Temp\ccRLxsF0.s:659    .text._test_assert_sequence:00000000 $t
C:\Users\mathi\AppData\Local\Temp\ccRLxsF0.s:667    .text._test_assert_sequence:00000000 _test_assert_sequence
C:\Users\mathi\AppData\Local\Temp\ccRLxsF0.s:766    .text._test_assert_sequence:00000050 $d
C:\Users\mathi\AppData\Local\Temp\ccRLxsF0.s:776    .text._test_assert_time_window:00000000 $t
C:\Users\mathi\AppData\Local\Temp\ccRLxsF0.s:784    .text._test_assert_time_window:00000000 _test_assert_time_window
C:\Users\mathi\AppData\Local\Temp\ccRLxsF0.s:966    .text._test_assert_time_window:0000007c $d
C:\Users\mathi\AppData\Local\Temp\ccRLxsF0.s:976    .text.test_terminate_threads:00000000 $t
C:\Users\mathi\AppData\Local\Temp\ccRLxsF0.s:984    .text.test_terminate_threads:00000000 test_terminate_threads
C:\Users\mathi\AppData\Local\Temp\ccRLxsF0.s:1033   .text.test_terminate_threads:00000030 $d
C:\Users\mathi\AppData\Local\Temp\ccRLxsF0.s:1039   .text.test_wait_threads:00000000 $t
C:\Users\mathi\AppData\Local\Temp\ccRLxsF0.s:1047   .text.test_wait_threads:00000000 test_wait_threads
C:\Users\mathi\AppData\Local\Temp\ccRLxsF0.s:1102   .text.test_wait_threads:00000034 $d
C:\Users\mathi\AppData\Local\Temp\ccRLxsF0.s:1108   .text.test_cpu_pulse:00000000 $t
C:\Users\mathi\AppData\Local\Temp\ccRLxsF0.s:1116   .text.test_cpu_pulse:00000000 test_cpu_pulse
C:\Users\mathi\AppData\Local\Temp\ccRLxsF0.s:1213   .text.test_cpu_pulse:00000050 $d
C:\Users\mathi\AppData\Local\Temp\ccRLxsF0.s:1220   .text.test_wait_tick:00000000 $t
C:\Users\mathi\AppData\Local\Temp\ccRLxsF0.s:1228   .text.test_wait_tick:00000000 test_wait_tick
C:\Users\mathi\AppData\Local\Temp\ccRLxsF0.s:1364   .text.test_wait_tick:0000005c $d
C:\Users\mathi\AppData\Local\Temp\ccRLxsF0.s:1371   .text.test_start_timer:00000000 $t
C:\Users\mathi\AppData\Local\Temp\ccRLxsF0.s:1379   .text.test_start_timer:00000000 test_start_timer
C:\Users\mathi\AppData\Local\Temp\ccRLxsF0.s:1543   .text.test_start_timer:00000084 $d
C:\Users\mathi\AppData\Local\Temp\ccRLxsF0.s:1554   .text.TestThread:00000000 $t
C:\Users\mathi\AppData\Local\Temp\ccRLxsF0.s:1562   .text.TestThread:00000000 TestThread
C:\Users\mathi\AppData\Local\Temp\ccRLxsF0.s:2218   .text.TestThread:0000025c $d
C:\Users\mathi\AppData\Local\Temp\ccRLxsF0.s:2248   .text.TestThread:000002c4 $t
C:\Users\mathi\AppData\Local\Temp\ccRLxsF0.s:2949   .text.TestThread:00000584 $d
C:\Users\mathi\AppData\Local\Temp\ccRLxsF0.s:3012   .bss.test_timer_done:00000000 test_timer_done
C:\Users\mathi\AppData\Local\Temp\ccRLxsF0.s:3155   .rodata.wa:00000000 wa
C:\Users\mathi\AppData\Local\Temp\ccRLxsF0.s:3019   .bss.threads:00000000 threads
C:\Users\mathi\AppData\Local\Temp\ccRLxsF0.s:3000   .bss.test:00000000 test
C:\Users\mathi\AppData\Local\Temp\ccRLxsF0.s:3006   .bss.test_global_fail:00000000 test_global_fail
C:\Users\mathi\AppData\Local\Temp\ccRLxsF0.s:2977   .bss.chp:00000000 $d
C:\Users\mathi\AppData\Local\Temp\ccRLxsF0.s:2981   .bss.chp:00000000 chp
C:\Users\mathi\AppData\Local\Temp\ccRLxsF0.s:2984   .bss.failpoint:00000000 $d
ARM GAS  C:\Users\mathi\AppData\Local\Temp\ccRLxsF0.s 			page 335


C:\Users\mathi\AppData\Local\Temp\ccRLxsF0.s:2988   .bss.failpoint:00000000 failpoint
C:\Users\mathi\AppData\Local\Temp\ccRLxsF0.s:2994   .bss.local_fail:00000000 local_fail
C:\Users\mathi\AppData\Local\Temp\ccRLxsF0.s:2995   .bss.local_fail:00000000 $d
C:\Users\mathi\AppData\Local\Temp\ccRLxsF0.s:2997   .bss.test:00000000 $d
C:\Users\mathi\AppData\Local\Temp\ccRLxsF0.s:3007   .bss.test_global_fail:00000000 $d
C:\Users\mathi\AppData\Local\Temp\ccRLxsF0.s:3013   .bss.test_timer_done:00000000 $d
C:\Users\mathi\AppData\Local\Temp\ccRLxsF0.s:3015   .bss.threads:00000000 $d
C:\Users\mathi\AppData\Local\Temp\ccRLxsF0.s:3022   .bss.tokens_buffer:00000000 $d
C:\Users\mathi\AppData\Local\Temp\ccRLxsF0.s:3026   .bss.tokens_buffer:00000000 tokens_buffer
C:\Users\mathi\AppData\Local\Temp\ccRLxsF0.s:3029   .bss.tokp:00000000 $d
C:\Users\mathi\AppData\Local\Temp\ccRLxsF0.s:3033   .bss.tokp:00000000 tokp
C:\Users\mathi\AppData\Local\Temp\ccRLxsF0.s:3036   .bss.vt:00000000 $d
C:\Users\mathi\AppData\Local\Temp\ccRLxsF0.s:3040   .bss.vt:00000000 vt
C:\Users\mathi\AppData\Local\Temp\ccRLxsF0.s:3043   .rodata.TestThread.str1.4:00000000 $d
C:\Users\mathi\AppData\Local\Temp\ccRLxsF0.s:3122   .rodata.__func__.7153:00000000 $d
C:\Users\mathi\AppData\Local\Temp\ccRLxsF0.s:3126   .rodata.__func__.7153:00000000 __func__.7153
C:\Users\mathi\AppData\Local\Temp\ccRLxsF0.s:3129   .rodata.patterns:00000000 $d
C:\Users\mathi\AppData\Local\Temp\ccRLxsF0.s:3133   .rodata.patterns:00000000 patterns
C:\Users\mathi\AppData\Local\Temp\ccRLxsF0.s:3148   .rodata.test_println.str1.4:00000000 $d
C:\Users\mathi\AppData\Local\Temp\ccRLxsF0.s:3152   .rodata.wa:00000000 $d

UNDEFINED SYMBOLS
__stack_chk_fail
__stack_chk_guard
_stats_start_measure_crit_thd
_dbg_check_lock
_dbg_check_unlock
_stats_stop_measure_crit_thd
chSysHalt
ch
chThdTerminate
chThdWait
chThdSleep
chDbgCheckClassI
chVTDoResetI
chVTDoSetI
patternsys
patternthd
patternsem
patternmtx
patternmsg
patternmbox
patternevt
patternheap
patternpools
patterndyn
patternqueues
patternbmk
