ARM GAS  C:\Users\mathi\AppData\Local\Temp\ccP2ZlFV.s 			page 1


   1              		.cpu cortex-m4
   2              		.eabi_attribute 27, 1
   3              		.eabi_attribute 28, 1
   4              		.eabi_attribute 20, 1
   5              		.eabi_attribute 21, 1
   6              		.eabi_attribute 23, 3
   7              		.eabi_attribute 24, 1
   8              		.eabi_attribute 25, 1
   9              		.eabi_attribute 26, 1
  10              		.eabi_attribute 30, 2
  11              		.eabi_attribute 34, 1
  12              		.eabi_attribute 18, 4
  13              		.file	"testdyn.c"
  14              		.text
  15              	.Ltext0:
  16              		.cfi_sections	.debug_frame
  17              		.section	.text.dyn1_execute,"ax",%progbits
  18              		.align	1
  19              		.p2align 4,,15
  20              		.syntax unified
  21              		.thumb
  22              		.thumb_func
  23              		.fpu fpv4-sp-d16
  24              		.type	dyn1_execute, %function
  25              	dyn1_execute:
  26              	.LFB221:
  27              		.file 1 "../../lib/e-puck2_main-processor/ChibiOS//test/rt/testdyn.c"
  28              		.loc 1 82 0
  29              		.cfi_startproc
  30              		@ args = 0, pretend = 0, frame = 16
  31              		@ frame_needed = 0, uses_anonymous_args = 0
  32 0000 F0B5     		push	{r4, r5, r6, r7, lr}
  33              		.cfi_def_cfa_offset 20
  34              		.cfi_offset 4, -20
  35              		.cfi_offset 5, -16
  36              		.cfi_offset 6, -12
  37              		.cfi_offset 7, -8
  38              		.cfi_offset 14, -4
  39              	.LBB16:
  40              	.LBB17:
  41              	.LBB18:
  42              	.LBB19:
  43              		.file 2 "../../lib/e-puck2_main-processor/ChibiOS//os/rt/include/chthreads.h"
  44              		.loc 2 176 0
  45 0002 384B     		ldr	r3, .L16
  46              	.LBE19:
  47              	.LBE18:
  48              	.LBE17:
  49              	.LBE16:
  50              		.loc 1 82 0
  51 0004 384E     		ldr	r6, .L16+4
  52              	.LBB22:
  53              	.LBB20:
  54              		.loc 2 189 0
  55 0006 9A69     		ldr	r2, [r3, #24]
  56              	.LBE20:
  57              	.LBE22:
ARM GAS  C:\Users\mathi\AppData\Local\Temp\ccP2ZlFV.s 			page 2


  58              		.loc 1 87 0
  59 0008 3848     		ldr	r0, .L16+8
  60              	.LBB23:
  61              	.LBB21:
  62              		.loc 2 189 0
  63 000a 9568     		ldr	r5, [r2, #8]
  64              	.LBE21:
  65              	.LBE23:
  66              		.loc 1 82 0
  67 000c 3368     		ldr	r3, [r6]
  68              		.loc 1 89 0
  69 000e 384C     		ldr	r4, .L16+12
  70              		.loc 1 82 0
  71 0010 87B0     		sub	sp, sp, #28
  72              		.cfi_def_cfa_offset 48
  73              		.loc 1 87 0
  74 0012 04A9     		add	r1, sp, #16
  75              		.loc 1 82 0
  76 0014 0593     		str	r3, [sp, #20]
  77              		.loc 1 87 0
  78 0016 FFF7FEFF 		bl	chHeapStatus
  79              	.LVL0:
  80              		.loc 1 89 0
  81 001a 364B     		ldr	r3, .L16+16
  82 001c 0093     		str	r3, [sp]
  83 001e 6A1E     		subs	r2, r5, #1
  84 0020 354B     		ldr	r3, .L16+20
  85 0022 3248     		ldr	r0, .L16+8
  86 0024 4FF4FC71 		mov	r1, #504
  87 0028 FFF7FEFF 		bl	chThdCreateFromHeap
  88              	.LVL1:
  89              		.loc 1 92 0
  90 002c 334B     		ldr	r3, .L16+24
  91              		.loc 1 89 0
  92 002e 2060     		str	r0, [r4]
  93              		.loc 1 92 0
  94 0030 AA1E     		subs	r2, r5, #2
  95 0032 0093     		str	r3, [sp]
  96 0034 4FF4FC71 		mov	r1, #504
  97 0038 2F4B     		ldr	r3, .L16+20
  98 003a 2C48     		ldr	r0, .L16+8
  99 003c FFF7FEFF 		bl	chThdCreateFromHeap
 100              	.LVL2:
 101              		.loc 1 96 0
 102 0040 03A9     		add	r1, sp, #12
 103              		.loc 1 92 0
 104 0042 6060     		str	r0, [r4, #4]
 105              		.loc 1 96 0
 106 0044 2948     		ldr	r0, .L16+8
 107 0046 FFF7FEFF 		bl	chHeapStatus
 108              	.LVL3:
 109              		.loc 1 97 0
 110 004a 0399     		ldr	r1, [sp, #12]
 111 004c 2748     		ldr	r0, .L16+8
 112 004e FFF7FEFF 		bl	chHeapAlloc
 113              	.LVL4:
 114              		.loc 1 98 0
ARM GAS  C:\Users\mathi\AppData\Local\Temp\ccP2ZlFV.s 			page 3


 115 0052 2B4B     		ldr	r3, .L16+28
 116 0054 0093     		str	r3, [sp]
 117 0056 4FF4FC71 		mov	r1, #504
 118              		.loc 1 97 0
 119 005a 0746     		mov	r7, r0
 120              	.LVL5:
 121              		.loc 1 98 0
 122 005c EA1E     		subs	r2, r5, #3
 123 005e 264B     		ldr	r3, .L16+20
 124 0060 2248     		ldr	r0, .L16+8
 125              	.LVL6:
 126 0062 FFF7FEFF 		bl	chThdCreateFromHeap
 127              	.LVL7:
 128 0066 A060     		str	r0, [r4, #8]
 129              		.loc 1 101 0
 130 0068 3846     		mov	r0, r7
 131 006a FFF7FEFF 		bl	chHeapFree
 132              	.LVL8:
 133              		.loc 1 103 0
 134 006e 2168     		ldr	r1, [r4]
 135 0070 21B1     		cbz	r1, .L2
 136              		.loc 1 103 0 is_stmt 0 discriminator 1
 137 0072 6168     		ldr	r1, [r4, #4]
 138 0074 11B1     		cbz	r1, .L2
 139              		.loc 1 103 0 discriminator 3
 140 0076 A168     		ldr	r1, [r4, #8]
 141 0078 51B3     		cbz	r1, .L13
 142 007a 0021     		movs	r1, #0
 143              	.L2:
 144              		.loc 1 103 0 discriminator 12
 145 007c 0120     		movs	r0, #1
 146 007e FFF7FEFF 		bl	_test_assert
 147              	.LVL9:
 148 0082 28B1     		cbz	r0, .L14
 149              	.L1:
 150              		.loc 1 117 0 is_stmt 1
 151 0084 059A     		ldr	r2, [sp, #20]
 152 0086 3368     		ldr	r3, [r6]
 153 0088 9A42     		cmp	r2, r3
 154 008a 29D1     		bne	.L15
 155 008c 07B0     		add	sp, sp, #28
 156              		.cfi_remember_state
 157              		.cfi_def_cfa_offset 20
 158              		@ sp needed
 159 008e F0BD     		pop	{r4, r5, r6, r7, pc}
 160              	.LVL10:
 161              	.L14:
 162              		.cfi_restore_state
 163              		.loc 1 111 0
 164 0090 FFF7FEFF 		bl	test_wait_threads
 165              	.LVL11:
 166              		.loc 1 112 0
 167 0094 1B49     		ldr	r1, .L16+32
 168 0096 0220     		movs	r0, #2
 169 0098 FFF7FEFF 		bl	_test_assert_sequence
 170              	.LVL12:
 171 009c 0028     		cmp	r0, #0
ARM GAS  C:\Users\mathi\AppData\Local\Temp\ccP2ZlFV.s 			page 4


 172 009e F1D1     		bne	.L1
 173              		.loc 1 115 0
 174 00a0 03A9     		add	r1, sp, #12
 175 00a2 1248     		ldr	r0, .L16+8
 176 00a4 FFF7FEFF 		bl	chHeapStatus
 177              	.LVL13:
 178 00a8 A0F10101 		sub	r1, r0, #1
 179 00ac B1FA81F1 		clz	r1, r1
 180 00b0 4909     		lsrs	r1, r1, #5
 181 00b2 0320     		movs	r0, #3
 182 00b4 FFF7FEFF 		bl	_test_assert
 183              	.LVL14:
 184 00b8 0028     		cmp	r0, #0
 185 00ba E3D1     		bne	.L1
 186              		.loc 1 116 0
 187 00bc DDE90313 		ldrd	r1, r3, [sp, #12]
 188 00c0 C91A     		subs	r1, r1, r3
 189 00c2 B1FA81F1 		clz	r1, r1
 190 00c6 4909     		lsrs	r1, r1, #5
 191 00c8 0420     		movs	r0, #4
 192 00ca FFF7FEFF 		bl	_test_assert
 193              	.LVL15:
 194 00ce D9E7     		b	.L1
 195              	.L13:
 196              		.loc 1 103 0 discriminator 5
 197 00d0 E368     		ldr	r3, [r4, #12]
 198 00d2 002B     		cmp	r3, #0
 199 00d4 D2D1     		bne	.L2
 200              		.loc 1 103 0 is_stmt 0 discriminator 7
 201 00d6 2169     		ldr	r1, [r4, #16]
 202 00d8 B1FA81F1 		clz	r1, r1
 203 00dc 4909     		lsrs	r1, r1, #5
 204 00de CDE7     		b	.L2
 205              	.L15:
 206              		.loc 1 117 0 is_stmt 1
 207 00e0 FFF7FEFF 		bl	__stack_chk_fail
 208              	.LVL16:
 209              	.L17:
 210              		.align	2
 211              	.L16:
 212 00e4 00000000 		.word	ch
 213 00e8 00000000 		.word	__stack_chk_guard
 214 00ec 00000000 		.word	.LANCHOR0
 215 00f0 00000000 		.word	threads
 216 00f4 00000000 		.word	.LC0
 217 00f8 00000000 		.word	thread
 218 00fc 04000000 		.word	.LC1
 219 0100 08000000 		.word	.LC2
 220 0104 0C000000 		.word	.LC3
 221              		.cfi_endproc
 222              	.LFE221:
 223              		.size	dyn1_execute, .-dyn1_execute
 224              		.section	.text.thread,"ax",%progbits
 225              		.align	1
 226              		.p2align 4,,15
 227              		.syntax unified
 228              		.thumb
ARM GAS  C:\Users\mathi\AppData\Local\Temp\ccP2ZlFV.s 			page 5


 229              		.thumb_func
 230              		.fpu fpv4-sp-d16
 231              		.type	thread, %function
 232              	thread:
 233              	.LFB219:
 234              		.loc 1 71 0
 235              		.cfi_startproc
 236              		@ args = 0, pretend = 0, frame = 8
 237              		@ frame_needed = 0, uses_anonymous_args = 0
 238              	.LVL17:
 239 0000 00B5     		push	{lr}
 240              		.cfi_def_cfa_offset 4
 241              		.cfi_offset 14, -4
 242 0002 084B     		ldr	r3, .L23
 243 0004 83B0     		sub	sp, sp, #12
 244              		.cfi_def_cfa_offset 16
 245              		.loc 1 71 0
 246 0006 1A68     		ldr	r2, [r3]
 247 0008 0192     		str	r2, [sp, #4]
 248              		.loc 1 73 0
 249 000a 019A     		ldr	r2, [sp, #4]
 250 000c 1B68     		ldr	r3, [r3]
 251 000e 9A42     		cmp	r2, r3
 252 0010 05D1     		bne	.L22
 253 0012 0078     		ldrb	r0, [r0]	@ zero_extendqisi2
 254              	.LVL18:
 255              		.loc 1 74 0
 256 0014 03B0     		add	sp, sp, #12
 257              		.cfi_remember_state
 258              		.cfi_def_cfa_offset 4
 259              		@ sp needed
 260 0016 5DF804EB 		ldr	lr, [sp], #4
 261              		.cfi_restore 14
 262              		.cfi_def_cfa_offset 0
 263              		.loc 1 73 0
 264 001a FFF7FEBF 		b	test_emit_token
 265              	.LVL19:
 266              	.L22:
 267              		.cfi_restore_state
 268 001e FFF7FEFF 		bl	__stack_chk_fail
 269              	.LVL20:
 270              	.L24:
 271 0022 00BF     		.align	2
 272              	.L23:
 273 0024 00000000 		.word	__stack_chk_guard
 274              		.cfi_endproc
 275              	.LFE219:
 276              		.size	thread, .-thread
 277              		.section	.text.dyn1_setup,"ax",%progbits
 278              		.align	1
 279              		.p2align 4,,15
 280              		.syntax unified
 281              		.thumb
 282              		.thumb_func
 283              		.fpu fpv4-sp-d16
 284              		.type	dyn1_setup, %function
 285              	dyn1_setup:
ARM GAS  C:\Users\mathi\AppData\Local\Temp\ccP2ZlFV.s 			page 6


 286              	.LFB220:
 287              		.loc 1 77 0
 288              		.cfi_startproc
 289              		@ args = 0, pretend = 0, frame = 8
 290              		@ frame_needed = 0, uses_anonymous_args = 0
 291 0000 00B5     		push	{lr}
 292              		.cfi_def_cfa_offset 4
 293              		.cfi_offset 14, -4
 294 0002 094B     		ldr	r3, .L30
 295 0004 83B0     		sub	sp, sp, #12
 296              		.cfi_def_cfa_offset 16
 297              		.loc 1 77 0
 298 0006 1A68     		ldr	r2, [r3]
 299 0008 0192     		str	r2, [sp, #4]
 300              		.loc 1 79 0
 301 000a 019A     		ldr	r2, [sp, #4]
 302 000c 1B68     		ldr	r3, [r3]
 303 000e 9A42     		cmp	r2, r3
 304 0010 08D1     		bne	.L29
 305 0012 0649     		ldr	r1, .L30+4
 306 0014 0648     		ldr	r0, .L30+8
 307 0016 40F6D812 		movw	r2, #2520
 308              		.loc 1 80 0
 309 001a 03B0     		add	sp, sp, #12
 310              		.cfi_remember_state
 311              		.cfi_def_cfa_offset 4
 312              		@ sp needed
 313 001c 5DF804EB 		ldr	lr, [sp], #4
 314              		.cfi_restore 14
 315              		.cfi_def_cfa_offset 0
 316              		.loc 1 79 0
 317 0020 FFF7FEBF 		b	chHeapObjectInit
 318              	.LVL21:
 319              	.L29:
 320              		.cfi_restore_state
 321 0024 FFF7FEFF 		bl	__stack_chk_fail
 322              	.LVL22:
 323              	.L31:
 324              		.align	2
 325              	.L30:
 326 0028 00000000 		.word	__stack_chk_guard
 327 002c 00000000 		.word	test
 328 0030 00000000 		.word	.LANCHOR0
 329              		.cfi_endproc
 330              	.LFE220:
 331              		.size	dyn1_setup, .-dyn1_setup
 332              		.section	.text.dyn2_execute,"ax",%progbits
 333              		.align	1
 334              		.p2align 4,,15
 335              		.syntax unified
 336              		.thumb
 337              		.thumb_func
 338              		.fpu fpv4-sp-d16
 339              		.type	dyn2_execute, %function
 340              	dyn2_execute:
 341              	.LFB223:
 342              		.loc 1 143 0
ARM GAS  C:\Users\mathi\AppData\Local\Temp\ccP2ZlFV.s 			page 7


 343              		.cfi_startproc
 344              		@ args = 0, pretend = 0, frame = 8
 345              		@ frame_needed = 0, uses_anonymous_args = 0
 346 0000 2DE9F041 		push	{r4, r5, r6, r7, r8, lr}
 347              		.cfi_def_cfa_offset 24
 348              		.cfi_offset 4, -24
 349              		.cfi_offset 5, -20
 350              		.cfi_offset 6, -16
 351              		.cfi_offset 7, -12
 352              		.cfi_offset 8, -8
 353              		.cfi_offset 14, -4
 354              	.LBB24:
 355              	.LBB25:
 356              	.LBB26:
 357              	.LBB27:
 358              		.loc 2 176 0
 359 0004 3A4B     		ldr	r3, .L50
 360              	.LBE27:
 361              	.LBE26:
 362              	.LBE25:
 363              	.LBE24:
 364              		.loc 1 143 0
 365 0006 3B4D     		ldr	r5, .L50+4
 366              	.LBB29:
 367              	.LBB28:
 368              		.loc 2 189 0
 369 0008 9B69     		ldr	r3, [r3, #24]
 370 000a 3B4C     		ldr	r4, .L50+8
 371 000c 9E68     		ldr	r6, [r3, #8]
 372              	.LVL23:
 373              	.LBE28:
 374              	.LBE29:
 375              		.loc 1 149 0
 376 000e DFF8F480 		ldr	r8, .L50+20
 377              		.loc 1 143 0
 378 0012 2B68     		ldr	r3, [r5]
 379 0014 82B0     		sub	sp, sp, #8
 380              		.cfi_def_cfa_offset 32
 381 0016 04F11007 		add	r7, r4, #16
 382              		.loc 1 143 0
 383 001a 0193     		str	r3, [sp, #4]
 384              	.LVL24:
 385              	.L33:
 386              		.loc 1 149 0 discriminator 3
 387 001c 54F8041B 		ldr	r1, [r4], #4
 388 0020 4046     		mov	r0, r8
 389 0022 FFF7FEFF 		bl	chPoolFree
 390              	.LVL25:
 391              		.loc 1 148 0 discriminator 3
 392 0026 A742     		cmp	r7, r4
 393 0028 F8D1     		bne	.L33
 394              		.loc 1 152 0
 395 002a 344B     		ldr	r3, .L50+12
 396 002c 344A     		ldr	r2, .L50+16
 397 002e 3548     		ldr	r0, .L50+20
 398 0030 354C     		ldr	r4, .L50+24
 399 0032 711E     		subs	r1, r6, #1
ARM GAS  C:\Users\mathi\AppData\Local\Temp\ccP2ZlFV.s 			page 8


 400 0034 FFF7FEFF 		bl	chThdCreateFromMemoryPool
 401              	.LVL26:
 402              		.loc 1 153 0
 403 0038 344B     		ldr	r3, .L50+28
 404              		.loc 1 152 0
 405 003a 2060     		str	r0, [r4]
 406              		.loc 1 153 0
 407 003c 304A     		ldr	r2, .L50+16
 408 003e 3148     		ldr	r0, .L50+20
 409 0040 B11E     		subs	r1, r6, #2
 410 0042 FFF7FEFF 		bl	chThdCreateFromMemoryPool
 411              	.LVL27:
 412              		.loc 1 154 0
 413 0046 324B     		ldr	r3, .L50+32
 414              		.loc 1 153 0
 415 0048 6060     		str	r0, [r4, #4]
 416              		.loc 1 154 0
 417 004a 2D4A     		ldr	r2, .L50+16
 418 004c 2D48     		ldr	r0, .L50+20
 419 004e F11E     		subs	r1, r6, #3
 420 0050 FFF7FEFF 		bl	chThdCreateFromMemoryPool
 421              	.LVL28:
 422              		.loc 1 155 0
 423 0054 2F4B     		ldr	r3, .L50+36
 424              		.loc 1 154 0
 425 0056 A060     		str	r0, [r4, #8]
 426              		.loc 1 155 0
 427 0058 294A     		ldr	r2, .L50+16
 428 005a 2A48     		ldr	r0, .L50+20
 429 005c 311F     		subs	r1, r6, #4
 430 005e FFF7FEFF 		bl	chThdCreateFromMemoryPool
 431              	.LVL29:
 432              		.loc 1 156 0
 433 0062 711F     		subs	r1, r6, #5
 434              		.loc 1 155 0
 435 0064 E060     		str	r0, [r4, #12]
 436              		.loc 1 156 0
 437 0066 2C4B     		ldr	r3, .L50+40
 438 0068 254A     		ldr	r2, .L50+16
 439 006a 2648     		ldr	r0, .L50+20
 440 006c FFF7FEFF 		bl	chThdCreateFromMemoryPool
 441              	.LVL30:
 442              		.loc 1 158 0
 443 0070 2168     		ldr	r1, [r4]
 444              		.loc 1 156 0
 445 0072 2061     		str	r0, [r4, #16]
 446              		.loc 1 158 0
 447 0074 41B1     		cbz	r1, .L34
 448              		.loc 1 158 0 is_stmt 0 discriminator 1
 449 0076 6168     		ldr	r1, [r4, #4]
 450 0078 31B1     		cbz	r1, .L34
 451              		.loc 1 158 0 discriminator 3
 452 007a A168     		ldr	r1, [r4, #8]
 453 007c 21B1     		cbz	r1, .L34
 454              		.loc 1 158 0 discriminator 5
 455 007e E168     		ldr	r1, [r4, #12]
 456 0080 11B1     		cbz	r1, .L34
ARM GAS  C:\Users\mathi\AppData\Local\Temp\ccP2ZlFV.s 			page 9


 457              		.loc 1 158 0 discriminator 7
 458 0082 B0FA80F1 		clz	r1, r0
 459 0086 4909     		lsrs	r1, r1, #5
 460              	.L34:
 461              		.loc 1 158 0 discriminator 12
 462 0088 0120     		movs	r0, #1
 463 008a FFF7FEFF 		bl	_test_assert
 464              	.LVL31:
 465 008e 30B1     		cbz	r0, .L49
 466              	.L32:
 467              		.loc 1 173 0 is_stmt 1
 468 0090 019A     		ldr	r2, [sp, #4]
 469 0092 2B68     		ldr	r3, [r5]
 470 0094 9A42     		cmp	r2, r3
 471 0096 29D1     		bne	.L48
 472 0098 02B0     		add	sp, sp, #8
 473              		.cfi_remember_state
 474              		.cfi_def_cfa_offset 24
 475              		@ sp needed
 476 009a BDE8F081 		pop	{r4, r5, r6, r7, r8, pc}
 477              	.L49:
 478              		.cfi_restore_state
 479              		.loc 1 166 0
 480 009e FFF7FEFF 		bl	test_wait_threads
 481              	.LVL32:
 482              		.loc 1 167 0
 483 00a2 1E49     		ldr	r1, .L50+44
 484 00a4 0220     		movs	r0, #2
 485 00a6 FFF7FEFF 		bl	_test_assert_sequence
 486              	.LVL33:
 487 00aa 0028     		cmp	r0, #0
 488 00ac F0D1     		bne	.L32
 489              		.loc 1 171 0
 490 00ae 154E     		ldr	r6, .L50+20
 491 00b0 0424     		movs	r4, #4
 492              	.L38:
 493 00b2 3046     		mov	r0, r6
 494 00b4 FFF7FEFF 		bl	chPoolAlloc
 495              	.LVL34:
 496 00b8 011C     		adds	r1, r0, #0
 497 00ba 18BF     		it	ne
 498 00bc 0121     		movne	r1, #1
 499 00be 0320     		movs	r0, #3
 500 00c0 FFF7FEFF 		bl	_test_assert
 501              	.LVL35:
 502 00c4 0028     		cmp	r0, #0
 503 00c6 E3D1     		bne	.L32
 504              		.loc 1 170 0 discriminator 2
 505 00c8 013C     		subs	r4, r4, #1
 506 00ca F2D1     		bne	.L38
 507              		.loc 1 172 0
 508 00cc 0D48     		ldr	r0, .L50+20
 509 00ce FFF7FEFF 		bl	chPoolAlloc
 510              	.LVL36:
 511 00d2 019A     		ldr	r2, [sp, #4]
 512 00d4 2B68     		ldr	r3, [r5]
 513 00d6 9A42     		cmp	r2, r3
ARM GAS  C:\Users\mathi\AppData\Local\Temp\ccP2ZlFV.s 			page 10


 514 00d8 08D1     		bne	.L48
 515 00da B0FA80F1 		clz	r1, r0
 516 00de 4909     		lsrs	r1, r1, #5
 517 00e0 0420     		movs	r0, #4
 518              		.loc 1 173 0
 519 00e2 02B0     		add	sp, sp, #8
 520              		.cfi_remember_state
 521              		.cfi_def_cfa_offset 24
 522              		@ sp needed
 523 00e4 BDE8F041 		pop	{r4, r5, r6, r7, r8, lr}
 524              		.cfi_restore 14
 525              		.cfi_restore 8
 526              		.cfi_restore 7
 527              		.cfi_restore 6
 528              		.cfi_restore 5
 529              		.cfi_restore 4
 530              		.cfi_def_cfa_offset 0
 531              		.loc 1 172 0
 532 00e8 FFF7FEBF 		b	_test_assert
 533              	.LVL37:
 534              	.L48:
 535              		.cfi_restore_state
 536              		.loc 1 173 0
 537 00ec FFF7FEFF 		bl	__stack_chk_fail
 538              	.LVL38:
 539              	.L51:
 540              		.align	2
 541              	.L50:
 542 00f0 00000000 		.word	ch
 543 00f4 00000000 		.word	__stack_chk_guard
 544 00f8 00000000 		.word	wa
 545 00fc 00000000 		.word	.LC0
 546 0100 00000000 		.word	thread
 547 0104 00000000 		.word	.LANCHOR1
 548 0108 00000000 		.word	threads
 549 010c 04000000 		.word	.LC1
 550 0110 08000000 		.word	.LC2
 551 0114 00000000 		.word	.LC4
 552 0118 04000000 		.word	.LC5
 553 011c 08000000 		.word	.LC6
 554              		.cfi_endproc
 555              	.LFE223:
 556              		.size	dyn2_execute, .-dyn2_execute
 557              		.section	.text.dyn2_setup,"ax",%progbits
 558              		.align	1
 559              		.p2align 4,,15
 560              		.syntax unified
 561              		.thumb
 562              		.thumb_func
 563              		.fpu fpv4-sp-d16
 564              		.type	dyn2_setup, %function
 565              	dyn2_setup:
 566              	.LFB222:
 567              		.loc 1 138 0
 568              		.cfi_startproc
 569              		@ args = 0, pretend = 0, frame = 8
 570              		@ frame_needed = 0, uses_anonymous_args = 0
ARM GAS  C:\Users\mathi\AppData\Local\Temp\ccP2ZlFV.s 			page 11


 571 0000 00B5     		push	{lr}
 572              		.cfi_def_cfa_offset 4
 573              		.cfi_offset 14, -4
 574 0002 094B     		ldr	r3, .L57
 575 0004 83B0     		sub	sp, sp, #12
 576              		.cfi_def_cfa_offset 16
 577              		.loc 1 138 0
 578 0006 1A68     		ldr	r2, [r3]
 579 0008 0192     		str	r2, [sp, #4]
 580              		.loc 1 140 0
 581 000a 019A     		ldr	r2, [sp, #4]
 582 000c 1B68     		ldr	r3, [r3]
 583 000e 9A42     		cmp	r2, r3
 584 0010 08D1     		bne	.L56
 585 0012 0648     		ldr	r0, .L57+4
 586 0014 0022     		movs	r2, #0
 587 0016 4FF4FC71 		mov	r1, #504
 588              		.loc 1 141 0
 589 001a 03B0     		add	sp, sp, #12
 590              		.cfi_remember_state
 591              		.cfi_def_cfa_offset 4
 592              		@ sp needed
 593 001c 5DF804EB 		ldr	lr, [sp], #4
 594              		.cfi_restore 14
 595              		.cfi_def_cfa_offset 0
 596              		.loc 1 140 0
 597 0020 FFF7FEBF 		b	chPoolObjectInit
 598              	.LVL39:
 599              	.L56:
 600              		.cfi_restore_state
 601 0024 FFF7FEFF 		bl	__stack_chk_fail
 602              	.LVL40:
 603              	.L58:
 604              		.align	2
 605              	.L57:
 606 0028 00000000 		.word	__stack_chk_guard
 607 002c 00000000 		.word	.LANCHOR1
 608              		.cfi_endproc
 609              	.LFE222:
 610              		.size	dyn2_setup, .-dyn2_setup
 611              		.section	.text.regfind,"ax",%progbits
 612              		.align	1
 613              		.p2align 4,,15
 614              		.syntax unified
 615              		.thumb
 616              		.thumb_func
 617              		.fpu fpv4-sp-d16
 618              		.type	regfind, %function
 619              	regfind:
 620              	.LFB224:
 621              		.loc 1 192 0
 622              		.cfi_startproc
 623              		@ args = 0, pretend = 0, frame = 8
 624              		@ frame_needed = 0, uses_anonymous_args = 0
 625              	.LVL41:
 626 0000 70B5     		push	{r4, r5, r6, lr}
 627              		.cfi_def_cfa_offset 16
ARM GAS  C:\Users\mathi\AppData\Local\Temp\ccP2ZlFV.s 			page 12


 628              		.cfi_offset 4, -16
 629              		.cfi_offset 5, -12
 630              		.cfi_offset 6, -8
 631              		.cfi_offset 14, -4
 632 0002 0E4E     		ldr	r6, .L65
 633 0004 82B0     		sub	sp, sp, #8
 634              		.cfi_def_cfa_offset 24
 635              		.loc 1 192 0
 636 0006 3368     		ldr	r3, [r6]
 637 0008 0193     		str	r3, [sp, #4]
 638              	.LVL42:
 639 000a 0546     		mov	r5, r0
 640              		.loc 1 196 0
 641 000c FFF7FEFF 		bl	chRegFirstThread
 642              	.LVL43:
 643              		.loc 1 194 0
 644 0010 0024     		movs	r4, #0
 645              		.loc 1 196 0
 646 0012 0346     		mov	r3, r0
 647              	.LVL44:
 648              	.L60:
 649              		.loc 1 199 0 discriminator 1
 650 0014 1846     		mov	r0, r3
 651 0016 AB42     		cmp	r3, r5
 652 0018 08BF     		it	eq
 653 001a 44F00104 		orreq	r4, r4, #1
 654              	.LVL45:
 655 001e FFF7FEFF 		bl	chRegNextThread
 656              	.LVL46:
 657              		.loc 1 200 0 discriminator 1
 658 0022 0346     		mov	r3, r0
 659 0024 0028     		cmp	r0, #0
 660 0026 F5D1     		bne	.L60
 661              		.loc 1 202 0
 662 0028 019A     		ldr	r2, [sp, #4]
 663 002a 3368     		ldr	r3, [r6]
 664 002c 9A42     		cmp	r2, r3
 665 002e 2046     		mov	r0, r4
 666              	.LVL47:
 667 0030 01D1     		bne	.L64
 668 0032 02B0     		add	sp, sp, #8
 669              		.cfi_remember_state
 670              		.cfi_def_cfa_offset 16
 671              		@ sp needed
 672 0034 70BD     		pop	{r4, r5, r6, pc}
 673              	.LVL48:
 674              	.L64:
 675              		.cfi_restore_state
 676 0036 FFF7FEFF 		bl	__stack_chk_fail
 677              	.LVL49:
 678              	.L66:
 679 003a 00BF     		.align	2
 680              	.L65:
 681 003c 00000000 		.word	__stack_chk_guard
 682              		.cfi_endproc
 683              	.LFE224:
 684              		.size	regfind, .-regfind
ARM GAS  C:\Users\mathi\AppData\Local\Temp\ccP2ZlFV.s 			page 13


 685              		.section	.text.dyn3_setup,"ax",%progbits
 686              		.align	1
 687              		.p2align 4,,15
 688              		.syntax unified
 689              		.thumb
 690              		.thumb_func
 691              		.fpu fpv4-sp-d16
 692              		.type	dyn3_setup, %function
 693              	dyn3_setup:
 694              	.LFB228:
 695              		.cfi_startproc
 696              		@ args = 0, pretend = 0, frame = 8
 697              		@ frame_needed = 0, uses_anonymous_args = 0
 698 0000 00B5     		push	{lr}
 699              		.cfi_def_cfa_offset 4
 700              		.cfi_offset 14, -4
 701 0002 094B     		ldr	r3, .L72
 702 0004 83B0     		sub	sp, sp, #12
 703              		.cfi_def_cfa_offset 16
 704 0006 1A68     		ldr	r2, [r3]
 705 0008 0192     		str	r2, [sp, #4]
 706 000a 019A     		ldr	r2, [sp, #4]
 707 000c 1B68     		ldr	r3, [r3]
 708 000e 9A42     		cmp	r2, r3
 709 0010 08D1     		bne	.L71
 710 0012 0649     		ldr	r1, .L72+4
 711 0014 0648     		ldr	r0, .L72+8
 712 0016 40F6D812 		movw	r2, #2520
 713 001a 03B0     		add	sp, sp, #12
 714              		.cfi_remember_state
 715              		.cfi_def_cfa_offset 4
 716              		@ sp needed
 717 001c 5DF804EB 		ldr	lr, [sp], #4
 718              		.cfi_restore 14
 719              		.cfi_def_cfa_offset 0
 720 0020 FFF7FEBF 		b	chHeapObjectInit
 721              	.L71:
 722              		.cfi_restore_state
 723 0024 FFF7FEFF 		bl	__stack_chk_fail
 724              	.L73:
 725              		.align	2
 726              	.L72:
 727 0028 00000000 		.word	__stack_chk_guard
 728 002c 00000000 		.word	test
 729 0030 00000000 		.word	.LANCHOR0
 730              		.cfi_endproc
 731              	.LFE228:
 732              		.size	dyn3_setup, .-dyn3_setup
 733              		.section	.text.dyn3_execute,"ax",%progbits
 734              		.align	1
 735              		.p2align 4,,15
 736              		.syntax unified
 737              		.thumb
 738              		.thumb_func
 739              		.fpu fpv4-sp-d16
 740              		.type	dyn3_execute, %function
 741              	dyn3_execute:
ARM GAS  C:\Users\mathi\AppData\Local\Temp\ccP2ZlFV.s 			page 14


 742              	.LFB226:
 743              		.loc 1 209 0
 744              		.cfi_startproc
 745              		@ args = 0, pretend = 0, frame = 8
 746              		@ frame_needed = 0, uses_anonymous_args = 0
 747              		.loc 1 209 0
 748 0000 70B5     		push	{r4, r5, r6, lr}
 749              		.cfi_def_cfa_offset 16
 750              		.cfi_offset 4, -16
 751              		.cfi_offset 5, -12
 752              		.cfi_offset 6, -8
 753              		.cfi_offset 14, -4
 754              	.LBB38:
 755              	.LBB39:
 756              	.LBB40:
 757              	.LBB41:
 758              		.loc 2 176 0
 759 0002 5B4B     		ldr	r3, .L87
 760              	.LBE41:
 761              	.LBE40:
 762              	.LBE39:
 763              	.LBE38:
 764              		.loc 1 209 0
 765 0004 5B4D     		ldr	r5, .L87+4
 766              	.LBB43:
 767              	.LBB42:
 768              		.loc 2 189 0
 769 0006 9A69     		ldr	r2, [r3, #24]
 770              	.LBE42:
 771              	.LBE43:
 772              		.loc 1 209 0
 773 0008 2968     		ldr	r1, [r5]
 774              		.loc 1 214 0
 775 000a 9268     		ldr	r2, [r2, #8]
 776 000c 5A4B     		ldr	r3, .L87+8
 777 000e 5B48     		ldr	r0, .L87+12
 778              		.loc 1 209 0
 779 0010 84B0     		sub	sp, sp, #16
 780              		.cfi_def_cfa_offset 32
 781              		.loc 1 214 0
 782 0012 013A     		subs	r2, r2, #1
 783 0014 0093     		str	r3, [sp]
 784              		.loc 1 209 0
 785 0016 0391     		str	r1, [sp, #12]
 786              		.loc 1 214 0
 787 0018 594B     		ldr	r3, .L87+16
 788 001a 4FF4FC71 		mov	r1, #504
 789 001e FFF7FEFF 		bl	chThdCreateFromHeap
 790              	.LVL50:
 791 0022 0446     		mov	r4, r0
 792              	.LVL51:
 793              		.loc 1 215 0
 794 0024 0120     		movs	r0, #1
 795              	.LVL52:
 796 0026 94F82210 		ldrb	r1, [r4, #34]	@ zero_extendqisi2
 797 002a 091A     		subs	r1, r1, r0
 798 002c B1FA81F1 		clz	r1, r1
ARM GAS  C:\Users\mathi\AppData\Local\Temp\ccP2ZlFV.s 			page 15


 799 0030 4909     		lsrs	r1, r1, #5
 800 0032 FFF7FEFF 		bl	_test_assert
 801              	.LVL53:
 802 0036 30B1     		cbz	r0, .L86
 803              	.L74:
 804              		.loc 1 237 0
 805 0038 039A     		ldr	r2, [sp, #12]
 806 003a 2B68     		ldr	r3, [r5]
 807 003c 9A42     		cmp	r2, r3
 808 003e 40F09480 		bne	.L85
 809 0042 04B0     		add	sp, sp, #16
 810              		.cfi_remember_state
 811              		.cfi_def_cfa_offset 16
 812              		@ sp needed
 813 0044 70BD     		pop	{r4, r5, r6, pc}
 814              	.LVL54:
 815              	.L86:
 816              		.cfi_restore_state
 817              		.loc 1 216 0
 818 0046 2046     		mov	r0, r4
 819 0048 FFF7FEFF 		bl	chThdAddRef
 820              	.LVL55:
 821              		.loc 1 217 0
 822 004c 94F82210 		ldrb	r1, [r4, #34]	@ zero_extendqisi2
 823 0050 0220     		movs	r0, #2
 824 0052 091A     		subs	r1, r1, r0
 825 0054 B1FA81F1 		clz	r1, r1
 826 0058 4909     		lsrs	r1, r1, #5
 827 005a FFF7FEFF 		bl	_test_assert
 828              	.LVL56:
 829 005e 0028     		cmp	r0, #0
 830 0060 EAD1     		bne	.L74
 831              		.loc 1 218 0
 832 0062 2046     		mov	r0, r4
 833 0064 FFF7FEFF 		bl	chThdRelease
 834              	.LVL57:
 835              		.loc 1 219 0
 836 0068 94F82210 		ldrb	r1, [r4, #34]	@ zero_extendqisi2
 837 006c A1F10101 		sub	r1, #1
 838 0070 B1FA81F1 		clz	r1, r1
 839 0074 0320     		movs	r0, #3
 840 0076 4909     		lsrs	r1, r1, #5
 841 0078 FFF7FEFF 		bl	_test_assert
 842              	.LVL58:
 843 007c 0646     		mov	r6, r0
 844 007e 0028     		cmp	r0, #0
 845 0080 DAD1     		bne	.L74
 846              	.LVL59:
 847              	.LBB44:
 848              	.LBB45:
 849              		.loc 1 196 0
 850 0082 FFF7FEFF 		bl	chRegFirstThread
 851              	.LVL60:
 852              	.L78:
 853 0086 8442     		cmp	r4, r0
 854 0088 08BF     		it	eq
 855 008a 46F00106 		orreq	r6, r6, #1
ARM GAS  C:\Users\mathi\AppData\Local\Temp\ccP2ZlFV.s 			page 16


 856              	.LVL61:
 857 008e F6B2     		uxtb	r6, r6
 858              	.LVL62:
 859              		.loc 1 199 0
 860 0090 FFF7FEFF 		bl	chRegNextThread
 861              	.LVL63:
 862              		.loc 1 200 0
 863 0094 0028     		cmp	r0, #0
 864 0096 F6D1     		bne	.L78
 865              	.LVL64:
 866              	.LBE45:
 867              	.LBE44:
 868              		.loc 1 222 0
 869 0098 3146     		mov	r1, r6
 870 009a 0420     		movs	r0, #4
 871 009c FFF7FEFF 		bl	_test_assert
 872              	.LVL65:
 873 00a0 0646     		mov	r6, r0
 874 00a2 0028     		cmp	r0, #0
 875 00a4 C8D1     		bne	.L74
 876              	.LVL66:
 877              	.LBB46:
 878              	.LBB47:
 879              		.loc 1 196 0
 880 00a6 FFF7FEFF 		bl	chRegFirstThread
 881              	.LVL67:
 882              	.L79:
 883 00aa 8442     		cmp	r4, r0
 884 00ac 08BF     		it	eq
 885 00ae 46F00106 		orreq	r6, r6, #1
 886              	.LVL68:
 887 00b2 F6B2     		uxtb	r6, r6
 888              	.LVL69:
 889              		.loc 1 199 0
 890 00b4 FFF7FEFF 		bl	chRegNextThread
 891              	.LVL70:
 892              		.loc 1 200 0
 893 00b8 0028     		cmp	r0, #0
 894 00ba F6D1     		bne	.L79
 895              	.LVL71:
 896              	.LBE47:
 897              	.LBE46:
 898              		.loc 1 223 0
 899 00bc 3146     		mov	r1, r6
 900 00be 0520     		movs	r0, #5
 901 00c0 FFF7FEFF 		bl	_test_assert
 902              	.LVL72:
 903 00c4 0028     		cmp	r0, #0
 904 00c6 B7D1     		bne	.L74
 905              		.loc 1 226 0
 906 00c8 2046     		mov	r0, r4
 907 00ca FFF7FEFF 		bl	chThdRelease
 908              	.LVL73:
 909              		.loc 1 227 0
 910 00ce 94F82210 		ldrb	r1, [r4, #34]	@ zero_extendqisi2
 911 00d2 B1FA81F1 		clz	r1, r1
 912 00d6 4909     		lsrs	r1, r1, #5
ARM GAS  C:\Users\mathi\AppData\Local\Temp\ccP2ZlFV.s 			page 17


 913 00d8 0620     		movs	r0, #6
 914 00da FFF7FEFF 		bl	_test_assert
 915              	.LVL74:
 916 00de 0028     		cmp	r0, #0
 917 00e0 AAD1     		bne	.L74
 918              		.loc 1 228 0
 919 00e2 94F82010 		ldrb	r1, [r4, #32]	@ zero_extendqisi2
 920 00e6 B1FA81F1 		clz	r1, r1
 921 00ea 4909     		lsrs	r1, r1, #5
 922 00ec 0720     		movs	r0, #7
 923 00ee FFF7FEFF 		bl	_test_assert
 924              	.LVL75:
 925 00f2 0028     		cmp	r0, #0
 926 00f4 A0D1     		bne	.L74
 927              		.loc 1 229 0
 928 00f6 2046     		mov	r0, r4
 929 00f8 FFF7FEFF 		bl	regfind
 930              	.LVL76:
 931 00fc 0146     		mov	r1, r0
 932 00fe 0820     		movs	r0, #8
 933 0100 FFF7FEFF 		bl	_test_assert
 934              	.LVL77:
 935 0104 0028     		cmp	r0, #0
 936 0106 97D1     		bne	.L74
 937              		.loc 1 230 0
 938 0108 2046     		mov	r0, r4
 939 010a FFF7FEFF 		bl	regfind
 940              	.LVL78:
 941 010e 0146     		mov	r1, r0
 942 0110 0920     		movs	r0, #9
 943 0112 FFF7FEFF 		bl	_test_assert
 944              	.LVL79:
 945 0116 0028     		cmp	r0, #0
 946 0118 8ED1     		bne	.L74
 947              		.loc 1 231 0
 948 011a 3220     		movs	r0, #50
 949 011c FFF7FEFF 		bl	chThdSleep
 950              	.LVL80:
 951              		.loc 1 232 0
 952 0120 94F82010 		ldrb	r1, [r4, #32]	@ zero_extendqisi2
 953 0124 A1F10F03 		sub	r3, r1, #15
 954 0128 5942     		rsbs	r1, r3, #0
 955 012a 5941     		adcs	r1, r1, r3
 956 012c 0A20     		movs	r0, #10
 957 012e FFF7FEFF 		bl	_test_assert
 958              	.LVL81:
 959 0132 0028     		cmp	r0, #0
 960 0134 80D1     		bne	.L74
 961              		.loc 1 235 0
 962 0136 2046     		mov	r0, r4
 963 0138 FFF7FEFF 		bl	regfind
 964              	.LVL82:
 965 013c 0146     		mov	r1, r0
 966 013e 0B20     		movs	r0, #11
 967 0140 FFF7FEFF 		bl	_test_assert
 968              	.LVL83:
 969 0144 0028     		cmp	r0, #0
ARM GAS  C:\Users\mathi\AppData\Local\Temp\ccP2ZlFV.s 			page 18


 970 0146 7FF477AF 		bne	.L74
 971              		.loc 1 236 0
 972 014a 2046     		mov	r0, r4
 973 014c FFF7FEFF 		bl	regfind
 974              	.LVL84:
 975 0150 039A     		ldr	r2, [sp, #12]
 976 0152 2B68     		ldr	r3, [r5]
 977 0154 9A42     		cmp	r2, r3
 978 0156 08D1     		bne	.L85
 979 0158 80F00101 		eor	r1, r0, #1
 980 015c C9B2     		uxtb	r1, r1
 981 015e 0C20     		movs	r0, #12
 982              		.loc 1 237 0
 983 0160 04B0     		add	sp, sp, #16
 984              		.cfi_remember_state
 985              		.cfi_def_cfa_offset 16
 986              		@ sp needed
 987 0162 BDE87040 		pop	{r4, r5, r6, lr}
 988              		.cfi_restore 14
 989              		.cfi_restore 6
 990              		.cfi_restore 5
 991              		.cfi_restore 4
 992              		.cfi_def_cfa_offset 0
 993              	.LVL85:
 994              		.loc 1 236 0
 995 0166 FFF7FEBF 		b	_test_assert
 996              	.LVL86:
 997              	.L85:
 998              		.cfi_restore_state
 999              		.loc 1 237 0
 1000 016a FFF7FEFF 		bl	__stack_chk_fail
 1001              	.LVL87:
 1002              	.L88:
 1003 016e 00BF     		.align	2
 1004              	.L87:
 1005 0170 00000000 		.word	ch
 1006 0174 00000000 		.word	__stack_chk_guard
 1007 0178 00000000 		.word	.LC0
 1008 017c 00000000 		.word	.LANCHOR0
 1009 0180 00000000 		.word	thread
 1010              		.cfi_endproc
 1011              	.LFE226:
 1012              		.size	dyn3_execute, .-dyn3_execute
 1013              		.global	patterndyn
 1014              		.global	testdyn3
 1015              		.global	testdyn2
 1016              		.global	testdyn1
 1017              		.section	.bss.heap1,"aw",%nobits
 1018              		.align	3
 1019              		.set	.LANCHOR0,. + 0
 1020              		.type	heap1, %object
 1021              		.size	heap1, 40
 1022              	heap1:
 1023 0000 00000000 		.space	40
 1023      00000000 
 1023      00000000 
 1023      00000000 
ARM GAS  C:\Users\mathi\AppData\Local\Temp\ccP2ZlFV.s 			page 19


 1023      00000000 
 1024              		.section	.bss.mp1,"aw",%nobits
 1025              		.align	2
 1026              		.set	.LANCHOR1,. + 0
 1027              		.type	mp1, %object
 1028              		.size	mp1, 12
 1029              	mp1:
 1030 0000 00000000 		.space	12
 1030      00000000 
 1030      00000000 
 1031              		.section	.rodata.dyn1_execute.str1.4,"aMS",%progbits,1
 1032              		.align	2
 1033              	.LC0:
 1034 0000 4100     		.ascii	"A\000"
 1035 0002 0000     		.space	2
 1036              	.LC1:
 1037 0004 4200     		.ascii	"B\000"
 1038 0006 0000     		.space	2
 1039              	.LC2:
 1040 0008 4300     		.ascii	"C\000"
 1041 000a 0000     		.space	2
 1042              	.LC3:
 1043 000c 414200   		.ascii	"AB\000"
 1044              		.section	.rodata.dyn2_execute.str1.4,"aMS",%progbits,1
 1045              		.align	2
 1046              	.LC4:
 1047 0000 4400     		.ascii	"D\000"
 1048 0002 0000     		.space	2
 1049              	.LC5:
 1050 0004 4500     		.ascii	"E\000"
 1051 0006 0000     		.space	2
 1052              	.LC6:
 1053 0008 41424344 		.ascii	"ABCD\000"
 1053      00
 1054              		.section	.rodata.patterndyn,"a",%progbits
 1055              		.align	2
 1056              		.type	patterndyn, %object
 1057              		.size	patterndyn, 16
 1058              	patterndyn:
 1059 0000 00000000 		.word	testdyn1
 1060 0004 00000000 		.word	testdyn2
 1061 0008 00000000 		.word	testdyn3
 1062 000c 00000000 		.word	0
 1063              		.section	.rodata.str1.4,"aMS",%progbits,1
 1064              		.align	2
 1065              	.LC7:
 1066 0000 44796E61 		.ascii	"Dynamic APIs, registry and references\000"
 1066      6D696320 
 1066      41504973 
 1066      2C207265 
 1066      67697374 
 1067 0026 0000     		.space	2
 1068              	.LC8:
 1069 0028 44796E61 		.ascii	"Dynamic APIs, threads creation from memory pool\000"
 1069      6D696320 
 1069      41504973 
 1069      2C207468 
ARM GAS  C:\Users\mathi\AppData\Local\Temp\ccP2ZlFV.s 			page 20


 1069      72656164 
 1070              	.LC9:
 1071 0058 44796E61 		.ascii	"Dynamic APIs, threads creation from heap\000"
 1071      6D696320 
 1071      41504973 
 1071      2C207468 
 1071      72656164 
 1072              		.section	.rodata.testdyn1,"a",%progbits
 1073              		.align	2
 1074              		.type	testdyn1, %object
 1075              		.size	testdyn1, 16
 1076              	testdyn1:
 1077 0000 58000000 		.word	.LC9
 1078 0004 00000000 		.word	dyn1_setup
 1079 0008 00000000 		.word	0
 1080 000c 00000000 		.word	dyn1_execute
 1081              		.section	.rodata.testdyn2,"a",%progbits
 1082              		.align	2
 1083              		.type	testdyn2, %object
 1084              		.size	testdyn2, 16
 1085              	testdyn2:
 1086 0000 28000000 		.word	.LC8
 1087 0004 00000000 		.word	dyn2_setup
 1088 0008 00000000 		.word	0
 1089 000c 00000000 		.word	dyn2_execute
 1090              		.section	.rodata.testdyn3,"a",%progbits
 1091              		.align	2
 1092              		.type	testdyn3, %object
 1093              		.size	testdyn3, 16
 1094              	testdyn3:
 1095 0000 00000000 		.word	.LC7
 1096 0004 00000000 		.word	dyn3_setup
 1097 0008 00000000 		.word	0
 1098 000c 00000000 		.word	dyn3_execute
 1099              		.text
 1100              	.Letext0:
 1101              		.file 3 "c:\\eclipse_e-puck2\\tools\\gcc-arm-none-eabi-7-2017-q4-major-win32\\lib\\gcc\\arm-none-e
 1102              		.file 4 "c:\\eclipse_e-puck2\\tools\\gcc-arm-none-eabi-7-2017-q4-major-win32\\arm-none-eabi\\inclu
 1103              		.file 5 "c:\\eclipse_e-puck2\\tools\\gcc-arm-none-eabi-7-2017-q4-major-win32\\arm-none-eabi\\inclu
 1104              		.file 6 "../../lib/e-puck2_main-processor/ChibiOS//os/rt/ports/ARMCMx/compilers/GCC/chtypes.h"
 1105              		.file 7 "../../lib/e-puck2_main-processor/ChibiOS//os/rt/include/chsystypes.h"
 1106              		.file 8 "../../lib/e-puck2_main-processor/ChibiOS//os/rt/include/chschd.h"
 1107              		.file 9 "../../lib/e-puck2_main-processor/ChibiOS//os/ext/CMSIS/include/core_cm4.h"
 1108              		.file 10 "../../lib/e-puck2_main-processor/ChibiOS//os/ext/CMSIS/ST/system_stm32f4xx.h"
 1109              		.file 11 "../../lib/e-puck2_main-processor/ChibiOS//os/rt/ports/ARMCMx/chcore.h"
 1110              		.file 12 "../../lib/e-puck2_main-processor/ChibiOS//os/rt/ports/ARMCMx/chcore_v7m.h"
 1111              		.file 13 "../../lib/e-puck2_main-processor/ChibiOS//os/rt/include/chdebug.h"
 1112              		.file 14 "../../lib/e-puck2_main-processor/ChibiOS//os/rt/include/chtm.h"
 1113              		.file 15 "../../lib/e-puck2_main-processor/ChibiOS//os/rt/include/chstats.h"
 1114              		.file 16 "../../lib/e-puck2_main-processor/ChibiOS//os/rt/include/chsem.h"
 1115              		.file 17 "../../lib/e-puck2_main-processor/ChibiOS//os/rt/include/chmtx.h"
 1116              		.file 18 "../../lib/e-puck2_main-processor/ChibiOS//os/rt/include/chregistry.h"
 1117              		.file 19 "../../lib/e-puck2_main-processor/ChibiOS//os/rt/include/chmemcore.h"
 1118              		.file 20 "../../lib/e-puck2_main-processor/ChibiOS//os/rt/include/chheap.h"
 1119              		.file 21 "../../lib/e-puck2_main-processor/ChibiOS//os/rt/include/chmempools.h"
 1120              		.file 22 "../../lib/e-puck2_main-processor/ChibiOS//test/rt/test.h"
 1121              		.file 23 "../../lib/e-puck2_main-processor/ChibiOS//os/rt/include/chdynamic.h"
ARM GAS  C:\Users\mathi\AppData\Local\Temp\ccP2ZlFV.s 			page 21

