ARM GAS  C:\Users\mathi\AppData\Local\Temp\cc07f24f.s 			page 1


   1              		.cpu cortex-m4
   2              		.eabi_attribute 27, 1
   3              		.eabi_attribute 28, 1
   4              		.eabi_attribute 20, 1
   5              		.eabi_attribute 21, 1
   6              		.eabi_attribute 23, 3
   7              		.eabi_attribute 24, 1
   8              		.eabi_attribute 25, 1
   9              		.eabi_attribute 26, 1
  10              		.eabi_attribute 30, 2
  11              		.eabi_attribute 34, 1
  12              		.eabi_attribute 18, 4
  13              		.file	"testqueues.c"
  14              		.text
  15              	.Ltext0:
  16              		.cfi_sections	.debug_frame
  17              		.section	.text.notify,"ax",%progbits
  18              		.align	1
  19              		.p2align 4,,15
  20              		.syntax unified
  21              		.thumb
  22              		.thumb_func
  23              		.fpu fpv4-sp-d16
  24              		.type	notify, %function
  25              	notify:
  26              	.LFB219:
  27              		.file 1 "../../lib/e-puck2_main-processor/ChibiOS//test/rt/testqueues.c"
  28              		.loc 1 57 0
  29              		.cfi_startproc
  30              		@ args = 0, pretend = 0, frame = 8
  31              		@ frame_needed = 0, uses_anonymous_args = 0
  32              	.LVL0:
  33 0000 00B5     		push	{lr}
  34              		.cfi_def_cfa_offset 4
  35              		.cfi_offset 14, -4
  36 0002 064B     		ldr	r3, .L6
  37 0004 83B0     		sub	sp, sp, #12
  38              		.cfi_def_cfa_offset 16
  39              		.loc 1 57 0
  40 0006 1A68     		ldr	r2, [r3]
  41 0008 0192     		str	r2, [sp, #4]
  42              		.loc 1 59 0
  43 000a 019A     		ldr	r2, [sp, #4]
  44 000c 1B68     		ldr	r3, [r3]
  45 000e 9A42     		cmp	r2, r3
  46 0010 02D1     		bne	.L5
  47 0012 03B0     		add	sp, sp, #12
  48              		.cfi_remember_state
  49              		.cfi_def_cfa_offset 4
  50              		@ sp needed
  51 0014 5DF804FB 		ldr	pc, [sp], #4
  52              	.L5:
  53              		.cfi_restore_state
  54 0018 FFF7FEFF 		bl	__stack_chk_fail
  55              	.LVL1:
  56              	.L7:
  57              		.align	2
ARM GAS  C:\Users\mathi\AppData\Local\Temp\cc07f24f.s 			page 2


  58              	.L6:
  59 001c 00000000 		.word	__stack_chk_guard
  60              		.cfi_endproc
  61              	.LFE219:
  62              		.size	notify, .-notify
  63              		.section	.text.thread1,"ax",%progbits
  64              		.align	1
  65              		.p2align 4,,15
  66              		.syntax unified
  67              		.thumb
  68              		.thumb_func
  69              		.fpu fpv4-sp-d16
  70              		.type	thread1, %function
  71              	thread1:
  72              	.LFB221:
  73              		.loc 1 83 0
  74              		.cfi_startproc
  75              		@ args = 0, pretend = 0, frame = 8
  76              		@ frame_needed = 0, uses_anonymous_args = 0
  77              	.LVL2:
  78 0000 00B5     		push	{lr}
  79              		.cfi_def_cfa_offset 4
  80              		.cfi_offset 14, -4
  81 0002 084B     		ldr	r3, .L13
  82 0004 83B0     		sub	sp, sp, #12
  83              		.cfi_def_cfa_offset 16
  84              		.loc 1 83 0
  85 0006 1A68     		ldr	r2, [r3]
  86 0008 0192     		str	r2, [sp, #4]
  87              		.loc 1 86 0
  88 000a 019A     		ldr	r2, [sp, #4]
  89 000c 1B68     		ldr	r3, [r3]
  90 000e 9A42     		cmp	r2, r3
  91 0010 06D1     		bne	.L12
  92 0012 0548     		ldr	r0, .L13+4
  93              	.LVL3:
  94 0014 C821     		movs	r1, #200
  95              		.loc 1 87 0
  96 0016 03B0     		add	sp, sp, #12
  97              		.cfi_remember_state
  98              		.cfi_def_cfa_offset 4
  99              		@ sp needed
 100 0018 5DF804EB 		ldr	lr, [sp], #4
 101              		.cfi_restore 14
 102              		.cfi_def_cfa_offset 0
 103              		.loc 1 86 0
 104 001c FFF7FEBF 		b	chIQGetTimeout
 105              	.LVL4:
 106              	.L12:
 107              		.cfi_restore_state
 108 0020 FFF7FEFF 		bl	__stack_chk_fail
 109              	.LVL5:
 110              	.L14:
 111              		.align	2
 112              	.L13:
 113 0024 00000000 		.word	__stack_chk_guard
 114 0028 00000000 		.word	.LANCHOR0
ARM GAS  C:\Users\mathi\AppData\Local\Temp\cc07f24f.s 			page 3


 115              		.cfi_endproc
 116              	.LFE221:
 117              		.size	thread1, .-thread1
 118              		.section	.text.chSysUnlock,"ax",%progbits
 119              		.align	1
 120              		.p2align 4,,15
 121              		.syntax unified
 122              		.thumb
 123              		.thumb_func
 124              		.fpu fpv4-sp-d16
 125              		.type	chSysUnlock, %function
 126              	chSysUnlock:
 127              	.LFB146:
 128              		.file 2 "../../lib/e-puck2_main-processor/ChibiOS//os/rt/include/chsys.h"
 129              		.loc 2 358 0
 130              		.cfi_startproc
 131              		@ args = 0, pretend = 0, frame = 8
 132              		@ frame_needed = 0, uses_anonymous_args = 0
 133 0000 10B5     		push	{r4, lr}
 134              		.cfi_def_cfa_offset 8
 135              		.cfi_offset 4, -8
 136              		.cfi_offset 14, -4
 137 0002 104C     		ldr	r4, .L21
 138 0004 82B0     		sub	sp, sp, #8
 139              		.cfi_def_cfa_offset 16
 140              		.loc 2 358 0
 141 0006 2368     		ldr	r3, [r4]
 142 0008 0193     		str	r3, [sp, #4]
 143              		.loc 2 360 0
 144 000a FFF7FEFF 		bl	_dbg_check_unlock
 145              	.LVL6:
 146              		.loc 2 361 0
 147 000e FFF7FEFF 		bl	_stats_stop_measure_crit_thd
 148              	.LVL7:
 149              		.loc 2 367 0
 150 0012 0D4B     		ldr	r3, .L21+4
 151 0014 1A68     		ldr	r2, [r3]
 152 0016 9A42     		cmp	r2, r3
 153 0018 04D0     		beq	.L16
 154              		.loc 2 367 0 is_stmt 0 discriminator 2
 155 001a 9969     		ldr	r1, [r3, #24]
 156 001c 9368     		ldr	r3, [r2, #8]
 157 001e 8A68     		ldr	r2, [r1, #8]
 158 0020 9A42     		cmp	r2, r3
 159 0022 08D3     		bcc	.L19
 160              	.L16:
 161              	.LVL8:
 162              	.LBB321:
 163              	.LBB322:
 164              	.LBB323:
 165              		.file 3 "../../lib/e-puck2_main-processor/ChibiOS//os/ext/CMSIS/include/core_cmFunc.h"
 166              		.loc 3 546 0 is_stmt 1
 167 0024 0023     		movs	r3, #0
 168              		.syntax unified
 169              	@ 546 "../../lib/e-puck2_main-processor/ChibiOS//os/ext/CMSIS/include/core_cmFunc.h" 1
 170 0026 83F31188 		MSR basepri, r3
 171              	@ 0 "" 2
ARM GAS  C:\Users\mathi\AppData\Local\Temp\cc07f24f.s 			page 4


 172              	.LVL9:
 173              		.thumb
 174              		.syntax unified
 175              	.LBE323:
 176              	.LBE322:
 177              	.LBE321:
 178              		.loc 2 372 0
 179 002a 019A     		ldr	r2, [sp, #4]
 180 002c 2368     		ldr	r3, [r4]
 181 002e 9A42     		cmp	r2, r3
 182 0030 05D1     		bne	.L20
 183 0032 02B0     		add	sp, sp, #8
 184              		.cfi_remember_state
 185              		.cfi_def_cfa_offset 8
 186              		@ sp needed
 187 0034 10BD     		pop	{r4, pc}
 188              	.L19:
 189              		.cfi_restore_state
 190              		.loc 2 367 0 discriminator 3
 191 0036 0548     		ldr	r0, .L21+8
 192 0038 FFF7FEFF 		bl	chSysHalt
 193              	.LVL10:
 194 003c F2E7     		b	.L16
 195              	.L20:
 196              		.loc 2 372 0
 197 003e FFF7FEFF 		bl	__stack_chk_fail
 198              	.LVL11:
 199              	.L22:
 200 0042 00BF     		.align	2
 201              	.L21:
 202 0044 00000000 		.word	__stack_chk_guard
 203 0048 00000000 		.word	ch
 204 004c 00000000 		.word	.LANCHOR1
 205              		.cfi_endproc
 206              	.LFE146:
 207              		.size	chSysUnlock, .-chSysUnlock
 208              		.section	.text.queues1_setup,"ax",%progbits
 209              		.align	1
 210              		.p2align 4,,15
 211              		.syntax unified
 212              		.thumb
 213              		.thumb_func
 214              		.fpu fpv4-sp-d16
 215              		.type	queues1_setup, %function
 216              	queues1_setup:
 217              	.LFB220:
 218              		.loc 1 78 0
 219              		.cfi_startproc
 220              		@ args = 0, pretend = 0, frame = 8
 221              		@ frame_needed = 0, uses_anonymous_args = 0
 222 0000 10B5     		push	{r4, lr}
 223              		.cfi_def_cfa_offset 8
 224              		.cfi_offset 4, -8
 225              		.cfi_offset 14, -4
 226 0002 0A4C     		ldr	r4, .L27
 227              		.loc 1 80 0
 228 0004 0A4B     		ldr	r3, .L27+4
ARM GAS  C:\Users\mathi\AppData\Local\Temp\cc07f24f.s 			page 5


 229              		.loc 1 78 0
 230 0006 2268     		ldr	r2, [r4]
 231              		.loc 1 80 0
 232 0008 1968     		ldr	r1, [r3]
 233 000a 0A48     		ldr	r0, .L27+8
 234 000c 0A4B     		ldr	r3, .L27+12
 235              		.loc 1 78 0
 236 000e 84B0     		sub	sp, sp, #16
 237              		.cfi_def_cfa_offset 24
 238              		.loc 1 78 0
 239 0010 0392     		str	r2, [sp, #12]
 240              		.loc 1 80 0
 241 0012 0022     		movs	r2, #0
 242 0014 0092     		str	r2, [sp]
 243 0016 0422     		movs	r2, #4
 244 0018 FFF7FEFF 		bl	chIQObjectInit
 245              	.LVL12:
 246              		.loc 1 81 0
 247 001c 039A     		ldr	r2, [sp, #12]
 248 001e 2368     		ldr	r3, [r4]
 249 0020 9A42     		cmp	r2, r3
 250 0022 01D1     		bne	.L26
 251 0024 04B0     		add	sp, sp, #16
 252              		.cfi_remember_state
 253              		.cfi_def_cfa_offset 8
 254              		@ sp needed
 255 0026 10BD     		pop	{r4, pc}
 256              	.L26:
 257              		.cfi_restore_state
 258 0028 FFF7FEFF 		bl	__stack_chk_fail
 259              	.LVL13:
 260              	.L28:
 261              		.align	2
 262              	.L27:
 263 002c 00000000 		.word	__stack_chk_guard
 264 0030 00000000 		.word	wa
 265 0034 00000000 		.word	.LANCHOR0
 266 0038 00000000 		.word	notify
 267              		.cfi_endproc
 268              	.LFE220:
 269              		.size	queues1_setup, .-queues1_setup
 270              		.section	.text.thread2,"ax",%progbits
 271              		.align	1
 272              		.p2align 4,,15
 273              		.syntax unified
 274              		.thumb
 275              		.thumb_func
 276              		.fpu fpv4-sp-d16
 277              		.type	thread2, %function
 278              	thread2:
 279              	.LFB224:
 280              		.loc 1 169 0
 281              		.cfi_startproc
 282              		@ args = 0, pretend = 0, frame = 8
 283              		@ frame_needed = 0, uses_anonymous_args = 0
 284              	.LVL14:
 285 0000 00B5     		push	{lr}
ARM GAS  C:\Users\mathi\AppData\Local\Temp\cc07f24f.s 			page 6


 286              		.cfi_def_cfa_offset 4
 287              		.cfi_offset 14, -4
 288 0002 094B     		ldr	r3, .L34
 289 0004 83B0     		sub	sp, sp, #12
 290              		.cfi_def_cfa_offset 16
 291              		.loc 1 169 0
 292 0006 1A68     		ldr	r2, [r3]
 293 0008 0192     		str	r2, [sp, #4]
 294              		.loc 1 172 0
 295 000a 019A     		ldr	r2, [sp, #4]
 296 000c 1B68     		ldr	r3, [r3]
 297 000e 9A42     		cmp	r2, r3
 298 0010 07D1     		bne	.L33
 299 0012 0648     		ldr	r0, .L34+4
 300              	.LVL15:
 301 0014 C822     		movs	r2, #200
 302 0016 0021     		movs	r1, #0
 303              		.loc 1 173 0
 304 0018 03B0     		add	sp, sp, #12
 305              		.cfi_remember_state
 306              		.cfi_def_cfa_offset 4
 307              		@ sp needed
 308 001a 5DF804EB 		ldr	lr, [sp], #4
 309              		.cfi_restore 14
 310              		.cfi_def_cfa_offset 0
 311              		.loc 1 172 0
 312 001e FFF7FEBF 		b	chOQPutTimeout
 313              	.LVL16:
 314              	.L33:
 315              		.cfi_restore_state
 316 0022 FFF7FEFF 		bl	__stack_chk_fail
 317              	.LVL17:
 318              	.L35:
 319 0026 00BF     		.align	2
 320              	.L34:
 321 0028 00000000 		.word	__stack_chk_guard
 322 002c 00000000 		.word	.LANCHOR2
 323              		.cfi_endproc
 324              	.LFE224:
 325              		.size	thread2, .-thread2
 326              		.section	.text.queues2_setup,"ax",%progbits
 327              		.align	1
 328              		.p2align 4,,15
 329              		.syntax unified
 330              		.thumb
 331              		.thumb_func
 332              		.fpu fpv4-sp-d16
 333              		.type	queues2_setup, %function
 334              	queues2_setup:
 335              	.LFB223:
 336              		.loc 1 164 0
 337              		.cfi_startproc
 338              		@ args = 0, pretend = 0, frame = 8
 339              		@ frame_needed = 0, uses_anonymous_args = 0
 340 0000 10B5     		push	{r4, lr}
 341              		.cfi_def_cfa_offset 8
 342              		.cfi_offset 4, -8
ARM GAS  C:\Users\mathi\AppData\Local\Temp\cc07f24f.s 			page 7


 343              		.cfi_offset 14, -4
 344 0002 0A4C     		ldr	r4, .L40
 345              		.loc 1 166 0
 346 0004 0A4B     		ldr	r3, .L40+4
 347              		.loc 1 164 0
 348 0006 2268     		ldr	r2, [r4]
 349              		.loc 1 166 0
 350 0008 1968     		ldr	r1, [r3]
 351 000a 0A48     		ldr	r0, .L40+8
 352 000c 0A4B     		ldr	r3, .L40+12
 353              		.loc 1 164 0
 354 000e 84B0     		sub	sp, sp, #16
 355              		.cfi_def_cfa_offset 24
 356              		.loc 1 164 0
 357 0010 0392     		str	r2, [sp, #12]
 358              		.loc 1 166 0
 359 0012 0022     		movs	r2, #0
 360 0014 0092     		str	r2, [sp]
 361 0016 0422     		movs	r2, #4
 362 0018 FFF7FEFF 		bl	chOQObjectInit
 363              	.LVL18:
 364              		.loc 1 167 0
 365 001c 039A     		ldr	r2, [sp, #12]
 366 001e 2368     		ldr	r3, [r4]
 367 0020 9A42     		cmp	r2, r3
 368 0022 01D1     		bne	.L39
 369 0024 04B0     		add	sp, sp, #16
 370              		.cfi_remember_state
 371              		.cfi_def_cfa_offset 8
 372              		@ sp needed
 373 0026 10BD     		pop	{r4, pc}
 374              	.L39:
 375              		.cfi_restore_state
 376 0028 FFF7FEFF 		bl	__stack_chk_fail
 377              	.LVL19:
 378              	.L41:
 379              		.align	2
 380              	.L40:
 381 002c 00000000 		.word	__stack_chk_guard
 382 0030 00000000 		.word	wa
 383 0034 00000000 		.word	.LANCHOR2
 384 0038 00000000 		.word	notify
 385              		.cfi_endproc
 386              	.LFE223:
 387              		.size	queues2_setup, .-queues2_setup
 388              		.section	.text.queues1_execute,"ax",%progbits
 389              		.align	1
 390              		.p2align 4,,15
 391              		.syntax unified
 392              		.thumb
 393              		.thumb_func
 394              		.fpu fpv4-sp-d16
 395              		.type	queues1_execute, %function
 396              	queues1_execute:
 397              	.LFB222:
 398              		.loc 1 89 0
 399              		.cfi_startproc
ARM GAS  C:\Users\mathi\AppData\Local\Temp\cc07f24f.s 			page 8


 400              		@ args = 0, pretend = 0, frame = 8
 401              		@ frame_needed = 0, uses_anonymous_args = 0
 402 0000 2DE9F043 		push	{r4, r5, r6, r7, r8, r9, lr}
 403              		.cfi_def_cfa_offset 28
 404              		.cfi_offset 4, -28
 405              		.cfi_offset 5, -24
 406              		.cfi_offset 6, -20
 407              		.cfi_offset 7, -16
 408              		.cfi_offset 8, -12
 409              		.cfi_offset 9, -8
 410              		.cfi_offset 14, -4
 411 0004 CA4F     		ldr	r7, .L90
 412 0006 85B0     		sub	sp, sp, #20
 413              		.cfi_def_cfa_offset 48
 414              		.loc 1 89 0
 415 0008 3B68     		ldr	r3, [r7]
 416 000a 0393     		str	r3, [sp, #12]
 417              	.LVL20:
 418              	.LBB478:
 419              	.LBB479:
 420              	.LBB480:
 421              	.LBB481:
 422              	.LBB482:
 423              		.loc 3 546 0
 424 000c 2023     		movs	r3, #32
 425              		.syntax unified
 426              	@ 546 "../../lib/e-puck2_main-processor/ChibiOS//os/ext/CMSIS/include/core_cmFunc.h" 1
 427 000e 83F31188 		MSR basepri, r3
 428              	@ 0 "" 2
 429              	.LVL21:
 430              		.thumb
 431              		.syntax unified
 432              	.LBE482:
 433              	.LBE481:
 434              	.LBE480:
 435              	.LBE479:
 436              	.LBE478:
 437              	.LBB484:
 438              	.LBB485:
 439              		.file 4 "../../lib/e-puck2_main-processor/ChibiOS//os/rt/include/chqueues.h"
 440              		.loc 4 307 0
 441 0012 C84D     		ldr	r5, .L90+4
 442              	.LBE485:
 443              	.LBE484:
 444              	.LBB487:
 445              	.LBB483:
 446              		.loc 2 349 0
 447 0014 FFF7FEFF 		bl	_stats_start_measure_crit_thd
 448              	.LVL22:
 449              		.loc 2 350 0
 450 0018 FFF7FEFF 		bl	_dbg_check_lock
 451              	.LVL23:
 452              	.LBE483:
 453              	.LBE487:
 454              	.LBB488:
 455              	.LBB486:
 456              		.loc 4 305 0
ARM GAS  C:\Users\mathi\AppData\Local\Temp\cc07f24f.s 			page 9


 457 001c FFF7FEFF 		bl	chDbgCheckClassI
 458              	.LVL24:
 459              		.loc 4 307 0
 460 0020 A968     		ldr	r1, [r5, #8]
 461              	.LBE486:
 462              	.LBE488:
 463              		.loc 1 94 0
 464 0022 B1FA81F1 		clz	r1, r1
 465 0026 4909     		lsrs	r1, r1, #5
 466 0028 0120     		movs	r0, #1
 467 002a FFF7FEFF 		bl	_test_assert
 468              	.LVL25:
 469 002e 0028     		cmp	r0, #0
 470 0030 40F0F881 		bne	.L84
 471              	.LBB489:
 472              	.LBB490:
 473              	.LBB491:
 474              	.LBB492:
 475              		.loc 2 367 0
 476 0034 C04C     		ldr	r4, .L90+8
 477 0036 0646     		mov	r6, r0
 478              		.loc 2 360 0
 479 0038 FFF7FEFF 		bl	_dbg_check_unlock
 480              	.LVL26:
 481              		.loc 2 361 0
 482 003c FFF7FEFF 		bl	_stats_stop_measure_crit_thd
 483              	.LVL27:
 484              		.loc 2 367 0
 485 0040 2368     		ldr	r3, [r4]
 486 0042 A342     		cmp	r3, r4
 487 0044 05D0     		beq	.L46
 488 0046 A269     		ldr	r2, [r4, #24]
 489 0048 9B68     		ldr	r3, [r3, #8]
 490 004a 9268     		ldr	r2, [r2, #8]
 491 004c 9A42     		cmp	r2, r3
 492 004e C0F00A82 		bcc	.L85
 493              	.L46:
 494              	.LVL28:
 495              	.LBB493:
 496              	.LBB494:
 497              	.LBB495:
 498              		.loc 3 546 0
 499 0052 0023     		movs	r3, #0
 500              		.syntax unified
 501              	@ 546 "../../lib/e-puck2_main-processor/ChibiOS//os/ext/CMSIS/include/core_cmFunc.h" 1
 502 0054 83F31188 		MSR basepri, r3
 503              	@ 0 "" 2
 504              	.LVL29:
 505              		.thumb
 506              		.syntax unified
 507              	.LBE495:
 508              	.LBE494:
 509              	.LBE493:
 510              	.LBE492:
 511              	.LBE491:
 512              	.LBB497:
 513              	.LBB498:
ARM GAS  C:\Users\mathi\AppData\Local\Temp\cc07f24f.s 			page 10


 514              	.LBB499:
 515              	.LBB500:
 516              	.LBB501:
 517 0058 2023     		movs	r3, #32
 518              		.syntax unified
 519              	@ 546 "../../lib/e-puck2_main-processor/ChibiOS//os/ext/CMSIS/include/core_cmFunc.h" 1
 520 005a 83F31188 		MSR basepri, r3
 521              	@ 0 "" 2
 522              	.LVL30:
 523              		.thumb
 524              		.syntax unified
 525              	.LBE501:
 526              	.LBE500:
 527              	.LBE499:
 528              		.loc 2 349 0
 529 005e FFF7FEFF 		bl	_stats_start_measure_crit_thd
 530              	.LVL31:
 531              		.loc 2 350 0
 532 0062 FFF7FEFF 		bl	_dbg_check_lock
 533              	.LVL32:
 534              	.LBE498:
 535              	.LBE497:
 536              		.loc 1 99 0
 537 0066 4121     		movs	r1, #65
 538 0068 B248     		ldr	r0, .L90+4
 539 006a FFF7FEFF 		bl	chIQPutI
 540              	.LVL33:
 541 006e 4221     		movs	r1, #66
 542 0070 B048     		ldr	r0, .L90+4
 543 0072 FFF7FEFF 		bl	chIQPutI
 544              	.LVL34:
 545 0076 4321     		movs	r1, #67
 546 0078 AE48     		ldr	r0, .L90+4
 547 007a FFF7FEFF 		bl	chIQPutI
 548              	.LVL35:
 549 007e 4421     		movs	r1, #68
 550 0080 AC48     		ldr	r0, .L90+4
 551 0082 FFF7FEFF 		bl	chIQPutI
 552              	.LVL36:
 553              	.LBB502:
 554              	.LBB503:
 555              		.loc 2 360 0
 556 0086 FFF7FEFF 		bl	_dbg_check_unlock
 557              	.LVL37:
 558              		.loc 2 361 0
 559 008a FFF7FEFF 		bl	_stats_stop_measure_crit_thd
 560              	.LVL38:
 561              		.loc 2 367 0
 562 008e 2368     		ldr	r3, [r4]
 563 0090 A342     		cmp	r3, r4
 564 0092 05D0     		beq	.L47
 565 0094 A269     		ldr	r2, [r4, #24]
 566 0096 9B68     		ldr	r3, [r3, #8]
 567 0098 9268     		ldr	r2, [r2, #8]
 568 009a 9A42     		cmp	r2, r3
 569 009c C0F0DF81 		bcc	.L86
 570              	.L47:
ARM GAS  C:\Users\mathi\AppData\Local\Temp\cc07f24f.s 			page 11


 571              	.LVL39:
 572              	.LBB504:
 573              	.LBB505:
 574              	.LBB506:
 575              		.loc 3 546 0
 576 00a0 0023     		movs	r3, #0
 577              		.syntax unified
 578              	@ 546 "../../lib/e-puck2_main-processor/ChibiOS//os/ext/CMSIS/include/core_cmFunc.h" 1
 579 00a2 83F31188 		MSR basepri, r3
 580              	@ 0 "" 2
 581              	.LVL40:
 582              		.thumb
 583              		.syntax unified
 584              	.LBE506:
 585              	.LBE505:
 586              	.LBE504:
 587              	.LBE503:
 588              	.LBE502:
 589              	.LBB508:
 590              	.LBB509:
 591              	.LBB510:
 592              	.LBB511:
 593              	.LBB512:
 594 00a6 2023     		movs	r3, #32
 595              		.syntax unified
 596              	@ 546 "../../lib/e-puck2_main-processor/ChibiOS//os/ext/CMSIS/include/core_cmFunc.h" 1
 597 00a8 83F31188 		MSR basepri, r3
 598              	@ 0 "" 2
 599              	.LVL41:
 600              		.thumb
 601              		.syntax unified
 602              	.LBE512:
 603              	.LBE511:
 604              	.LBE510:
 605              		.loc 2 349 0
 606 00ac FFF7FEFF 		bl	_stats_start_measure_crit_thd
 607              	.LVL42:
 608              		.loc 2 350 0
 609 00b0 FFF7FEFF 		bl	_dbg_check_lock
 610              	.LVL43:
 611              	.LBE509:
 612              	.LBE508:
 613              	.LBB513:
 614              	.LBB514:
 615              		.loc 4 322 0
 616 00b4 FFF7FEFF 		bl	chDbgCheckClassI
 617              	.LVL44:
 618              		.loc 4 324 0
 619 00b8 D5E90523 		ldrd	r2, r3, [r5, #20]
 620 00bc 9A42     		cmp	r2, r3
 621 00be 00F0C281 		beq	.L87
 622              	.LVL45:
 623              	.LBE514:
 624              	.LBE513:
 625              		.loc 1 101 0
 626 00c2 3146     		mov	r1, r6
 627 00c4 0220     		movs	r0, #2
ARM GAS  C:\Users\mathi\AppData\Local\Temp\cc07f24f.s 			page 12


 628 00c6 FFF7FEFF 		bl	_test_assert
 629              	.LVL46:
 630 00ca 0028     		cmp	r0, #0
 631 00cc 40F09481 		bne	.L81
 632              	.L49:
 633              	.LBB516:
 634              	.LBB517:
 635              		.loc 2 360 0
 636 00d0 FFF7FEFF 		bl	_dbg_check_unlock
 637              	.LVL47:
 638              		.loc 2 361 0
 639 00d4 FFF7FEFF 		bl	_stats_stop_measure_crit_thd
 640              	.LVL48:
 641              		.loc 2 367 0
 642 00d8 2368     		ldr	r3, [r4]
 643 00da A342     		cmp	r3, r4
 644 00dc 05D0     		beq	.L51
 645 00de A269     		ldr	r2, [r4, #24]
 646 00e0 9B68     		ldr	r3, [r3, #8]
 647 00e2 9268     		ldr	r2, [r2, #8]
 648 00e4 9A42     		cmp	r2, r3
 649 00e6 C0F0C281 		bcc	.L88
 650              	.L51:
 651              	.LVL49:
 652              	.LBB518:
 653              	.LBB519:
 654              	.LBB520:
 655              		.loc 3 546 0
 656 00ea 0026     		movs	r6, #0
 657              		.syntax unified
 658              	@ 546 "../../lib/e-puck2_main-processor/ChibiOS//os/ext/CMSIS/include/core_cmFunc.h" 1
 659 00ec 86F31188 		MSR basepri, r6
 660              	@ 0 "" 2
 661              	.LVL50:
 662              		.thumb
 663              		.syntax unified
 664              	.LBE520:
 665              	.LBE519:
 666              	.LBE518:
 667              	.LBE517:
 668              	.LBE516:
 669              	.LBB522:
 670              	.LBB523:
 671              	.LBB524:
 672              	.LBB525:
 673              	.LBB526:
 674 00f0 2023     		movs	r3, #32
 675              		.syntax unified
 676              	@ 546 "../../lib/e-puck2_main-processor/ChibiOS//os/ext/CMSIS/include/core_cmFunc.h" 1
 677 00f2 83F31188 		MSR basepri, r3
 678              	@ 0 "" 2
 679              	.LVL51:
 680              		.thumb
 681              		.syntax unified
 682              	.LBE526:
 683              	.LBE525:
 684              	.LBE524:
ARM GAS  C:\Users\mathi\AppData\Local\Temp\cc07f24f.s 			page 13


 685              		.loc 2 349 0
 686 00f6 FFF7FEFF 		bl	_stats_start_measure_crit_thd
 687              	.LVL52:
 688              		.loc 2 350 0
 689 00fa FFF7FEFF 		bl	_dbg_check_lock
 690              	.LVL53:
 691              	.LBE523:
 692              	.LBE522:
 693              		.loc 1 102 0
 694 00fe 3146     		mov	r1, r6
 695 0100 8C48     		ldr	r0, .L90+4
 696 0102 FFF7FEFF 		bl	chIQPutI
 697              	.LVL54:
 698 0106 0430     		adds	r0, r0, #4
 699 0108 14BF     		ite	ne
 700 010a 0021     		movne	r1, #0
 701 010c 0121     		moveq	r1, #1
 702 010e 0320     		movs	r0, #3
 703 0110 FFF7FEFF 		bl	_test_assert
 704              	.LVL55:
 705 0114 0028     		cmp	r0, #0
 706 0116 40F06F81 		bne	.L81
 707              	.LBB527:
 708              	.LBB528:
 709              		.loc 2 360 0
 710 011a FFF7FEFF 		bl	_dbg_check_unlock
 711              	.LVL56:
 712              		.loc 2 361 0
 713 011e FFF7FEFF 		bl	_stats_stop_measure_crit_thd
 714              	.LVL57:
 715              		.loc 2 367 0
 716 0122 2368     		ldr	r3, [r4]
 717 0124 A342     		cmp	r3, r4
 718 0126 07D0     		beq	.L54
 719 0128 A269     		ldr	r2, [r4, #24]
 720 012a 9B68     		ldr	r3, [r3, #8]
 721 012c 9268     		ldr	r2, [r2, #8]
 722 012e 9A42     		cmp	r2, r3
 723 0130 02D2     		bcs	.L54
 724 0132 8248     		ldr	r0, .L90+12
 725 0134 FFF7FEFF 		bl	chSysHalt
 726              	.LVL58:
 727              	.L54:
 728              	.LBB529:
 729              	.LBB530:
 730              	.LBB531:
 731              		.loc 3 546 0
 732 0138 0023     		movs	r3, #0
 733              		.syntax unified
 734              	@ 546 "../../lib/e-puck2_main-processor/ChibiOS//os/ext/CMSIS/include/core_cmFunc.h" 1
 735 013a 83F31188 		MSR basepri, r3
 736              	@ 0 "" 2
 737              	.LVL59:
 738              		.thumb
 739              		.syntax unified
 740              	.LBE531:
 741              	.LBE530:
ARM GAS  C:\Users\mathi\AppData\Local\Temp\cc07f24f.s 			page 14


 742              	.LBE529:
 743              	.LBE528:
 744              	.LBE527:
 745              	.LBB536:
 746              	.LBB537:
 747              		.loc 4 341 0
 748 013e DFF8F481 		ldr	r8, .L90+4
 749              	.LBE537:
 750              	.LBE536:
 751              	.LBB539:
 752              	.LBB535:
 753              	.LBB534:
 754              	.LBB533:
 755              	.LBB532:
 756              		.loc 3 546 0
 757 0142 0426     		movs	r6, #4
 758              	.LVL60:
 759              	.L55:
 760              	.LBE532:
 761              	.LBE533:
 762              	.LBE534:
 763              	.LBE535:
 764              	.LBE539:
 765              	.LBB540:
 766              	.LBB538:
 767              		.loc 4 341 0
 768 0144 4FF0FF31 		mov	r1, #-1
 769 0148 4046     		mov	r0, r8
 770 014a FFF7FEFF 		bl	chIQGetTimeout
 771              	.LVL61:
 772              	.LBE538:
 773              	.LBE540:
 774              		.loc 1 106 0
 775 014e C0B2     		uxtb	r0, r0
 776 0150 FFF7FEFF 		bl	test_emit_token
 777              	.LVL62:
 778              		.loc 1 105 0
 779 0154 013E     		subs	r6, r6, #1
 780 0156 F5D1     		bne	.L55
 781              	.LVL63:
 782              	.LBB541:
 783              	.LBB542:
 784              	.LBB543:
 785              	.LBB544:
 786              	.LBB545:
 787              		.loc 3 546 0
 788 0158 2023     		movs	r3, #32
 789              		.syntax unified
 790              	@ 546 "../../lib/e-puck2_main-processor/ChibiOS//os/ext/CMSIS/include/core_cmFunc.h" 1
 791 015a 83F31188 		MSR basepri, r3
 792              	@ 0 "" 2
 793              	.LVL64:
 794              		.thumb
 795              		.syntax unified
 796              	.LBE545:
 797              	.LBE544:
 798              	.LBE543:
ARM GAS  C:\Users\mathi\AppData\Local\Temp\cc07f24f.s 			page 15


 799              		.loc 2 349 0
 800 015e FFF7FEFF 		bl	_stats_start_measure_crit_thd
 801              	.LVL65:
 802              		.loc 2 350 0
 803 0162 FFF7FEFF 		bl	_dbg_check_lock
 804              	.LVL66:
 805              	.LBE542:
 806              	.LBE541:
 807              	.LBB546:
 808              	.LBB547:
 809              		.loc 4 305 0
 810 0166 FFF7FEFF 		bl	chDbgCheckClassI
 811              	.LVL67:
 812              		.loc 4 307 0
 813 016a A968     		ldr	r1, [r5, #8]
 814              	.LBE547:
 815              	.LBE546:
 816              		.loc 1 107 0
 817 016c B1FA81F1 		clz	r1, r1
 818 0170 4909     		lsrs	r1, r1, #5
 819 0172 0420     		movs	r0, #4
 820 0174 FFF7FEFF 		bl	_test_assert
 821              	.LVL68:
 822 0178 0028     		cmp	r0, #0
 823 017a 40F03D81 		bne	.L81
 824              	.LBB548:
 825              	.LBB549:
 826              		.loc 2 360 0
 827 017e FFF7FEFF 		bl	_dbg_check_unlock
 828              	.LVL69:
 829              		.loc 2 361 0
 830 0182 FFF7FEFF 		bl	_stats_stop_measure_crit_thd
 831              	.LVL70:
 832              		.loc 2 367 0
 833 0186 2368     		ldr	r3, [r4]
 834 0188 A342     		cmp	r3, r4
 835 018a 05D0     		beq	.L58
 836 018c A269     		ldr	r2, [r4, #24]
 837 018e 9B68     		ldr	r3, [r3, #8]
 838 0190 9268     		ldr	r2, [r2, #8]
 839 0192 9A42     		cmp	r2, r3
 840 0194 C0F06F81 		bcc	.L89
 841              	.L58:
 842              	.LVL71:
 843              	.LBB550:
 844              	.LBB551:
 845              	.LBB552:
 846              		.loc 3 546 0
 847 0198 0023     		movs	r3, #0
 848              		.syntax unified
 849              	@ 546 "../../lib/e-puck2_main-processor/ChibiOS//os/ext/CMSIS/include/core_cmFunc.h" 1
 850 019a 83F31188 		MSR basepri, r3
 851              	@ 0 "" 2
 852              	.LVL72:
 853              		.thumb
 854              		.syntax unified
 855              	.LBE552:
ARM GAS  C:\Users\mathi\AppData\Local\Temp\cc07f24f.s 			page 16


 856              	.LBE551:
 857              	.LBE550:
 858              	.LBE549:
 859              	.LBE548:
 860              		.loc 1 108 0
 861 019e 6849     		ldr	r1, .L90+16
 862 01a0 0520     		movs	r0, #5
 863 01a2 FFF7FEFF 		bl	_test_assert_sequence
 864              	.LVL73:
 865 01a6 0028     		cmp	r0, #0
 866 01a8 40F03581 		bne	.L42
 867              	.LVL74:
 868              	.LBB554:
 869              	.LBB555:
 870              	.LBB556:
 871              	.LBB557:
 872              	.LBB558:
 873              		.loc 3 546 0
 874 01ac 2023     		movs	r3, #32
 875              		.syntax unified
 876              	@ 546 "../../lib/e-puck2_main-processor/ChibiOS//os/ext/CMSIS/include/core_cmFunc.h" 1
 877 01ae 83F31188 		MSR basepri, r3
 878              	@ 0 "" 2
 879              	.LVL75:
 880              		.thumb
 881              		.syntax unified
 882              	.LBE558:
 883              	.LBE557:
 884              	.LBE556:
 885              		.loc 2 349 0
 886 01b2 FFF7FEFF 		bl	_stats_start_measure_crit_thd
 887              	.LVL76:
 888              		.loc 2 350 0
 889 01b6 FFF7FEFF 		bl	_dbg_check_lock
 890              	.LVL77:
 891              	.LBE555:
 892              	.LBE554:
 893              		.loc 1 113 0
 894 01ba 4121     		movs	r1, #65
 895 01bc 5D48     		ldr	r0, .L90+4
 896 01be FFF7FEFF 		bl	chIQPutI
 897              	.LVL78:
 898 01c2 4221     		movs	r1, #66
 899 01c4 5B48     		ldr	r0, .L90+4
 900 01c6 FFF7FEFF 		bl	chIQPutI
 901              	.LVL79:
 902 01ca 4321     		movs	r1, #67
 903 01cc 5948     		ldr	r0, .L90+4
 904 01ce FFF7FEFF 		bl	chIQPutI
 905              	.LVL80:
 906 01d2 4421     		movs	r1, #68
 907 01d4 5748     		ldr	r0, .L90+4
 908 01d6 FFF7FEFF 		bl	chIQPutI
 909              	.LVL81:
 910              	.LBB559:
 911              	.LBB560:
 912              		.loc 2 360 0
ARM GAS  C:\Users\mathi\AppData\Local\Temp\cc07f24f.s 			page 17


 913 01da FFF7FEFF 		bl	_dbg_check_unlock
 914              	.LVL82:
 915              		.loc 2 361 0
 916 01de FFF7FEFF 		bl	_stats_stop_measure_crit_thd
 917              	.LVL83:
 918              		.loc 2 367 0
 919 01e2 2368     		ldr	r3, [r4]
 920 01e4 A342     		cmp	r3, r4
 921 01e6 07D0     		beq	.L60
 922 01e8 A269     		ldr	r2, [r4, #24]
 923 01ea 9B68     		ldr	r3, [r3, #8]
 924 01ec 9268     		ldr	r2, [r2, #8]
 925 01ee 9A42     		cmp	r2, r3
 926 01f0 02D2     		bcs	.L60
 927 01f2 5248     		ldr	r0, .L90+12
 928 01f4 FFF7FEFF 		bl	chSysHalt
 929              	.LVL84:
 930              	.L60:
 931              	.LBB561:
 932              	.LBB562:
 933              	.LBB563:
 934              		.loc 3 546 0
 935 01f8 0023     		movs	r3, #0
 936              		.syntax unified
 937              	@ 546 "../../lib/e-puck2_main-processor/ChibiOS//os/ext/CMSIS/include/core_cmFunc.h" 1
 938 01fa 83F31188 		MSR basepri, r3
 939              	@ 0 "" 2
 940              	.LVL85:
 941              		.thumb
 942              		.syntax unified
 943              	.LBE563:
 944              	.LBE562:
 945              	.LBE561:
 946              	.LBE560:
 947              	.LBE559:
 948              		.loc 1 117 0
 949 01fe 514E     		ldr	r6, .L90+20
 950 0200 4C48     		ldr	r0, .L90+4
 951 0202 7168     		ldr	r1, [r6, #4]
 952 0204 0822     		movs	r2, #8
 953 0206 FFF7FEFF 		bl	chIQReadTimeout
 954              	.LVL86:
 955              		.loc 1 118 0
 956 020a A0F10401 		sub	r1, r0, #4
 957 020e B1FA81F1 		clz	r1, r1
 958 0212 4909     		lsrs	r1, r1, #5
 959 0214 0620     		movs	r0, #6
 960              	.LVL87:
 961 0216 FFF7FEFF 		bl	_test_assert
 962              	.LVL88:
 963 021a 0028     		cmp	r0, #0
 964 021c 40F0FB80 		bne	.L42
 965              	.LVL89:
 966              	.LBB564:
 967              	.LBB565:
 968              	.LBB566:
 969              	.LBB567:
ARM GAS  C:\Users\mathi\AppData\Local\Temp\cc07f24f.s 			page 18


 970              	.LBB568:
 971              		.loc 3 546 0
 972 0220 2023     		movs	r3, #32
 973              		.syntax unified
 974              	@ 546 "../../lib/e-puck2_main-processor/ChibiOS//os/ext/CMSIS/include/core_cmFunc.h" 1
 975 0222 83F31188 		MSR basepri, r3
 976              	@ 0 "" 2
 977              	.LVL90:
 978              		.thumb
 979              		.syntax unified
 980              	.LBE568:
 981              	.LBE567:
 982              	.LBE566:
 983              		.loc 2 349 0
 984 0226 FFF7FEFF 		bl	_stats_start_measure_crit_thd
 985              	.LVL91:
 986              		.loc 2 350 0
 987 022a FFF7FEFF 		bl	_dbg_check_lock
 988              	.LVL92:
 989              	.LBE565:
 990              	.LBE564:
 991              	.LBB569:
 992              	.LBB570:
 993              		.loc 4 305 0
 994 022e FFF7FEFF 		bl	chDbgCheckClassI
 995              	.LVL93:
 996              		.loc 4 307 0
 997 0232 A968     		ldr	r1, [r5, #8]
 998              	.LBE570:
 999              	.LBE569:
 1000              		.loc 1 119 0
 1001 0234 B1FA81F1 		clz	r1, r1
 1002 0238 4909     		lsrs	r1, r1, #5
 1003 023a 0720     		movs	r0, #7
 1004 023c FFF7FEFF 		bl	_test_assert
 1005              	.LVL94:
 1006 0240 0028     		cmp	r0, #0
 1007 0242 40F0D980 		bne	.L81
 1008              	.LBB571:
 1009              	.LBB572:
 1010              		.loc 2 360 0
 1011 0246 FFF7FEFF 		bl	_dbg_check_unlock
 1012              	.LVL95:
 1013              		.loc 2 361 0
 1014 024a FFF7FEFF 		bl	_stats_stop_measure_crit_thd
 1015              	.LVL96:
 1016              		.loc 2 367 0
 1017 024e 2368     		ldr	r3, [r4]
 1018 0250 A342     		cmp	r3, r4
 1019 0252 07D0     		beq	.L64
 1020 0254 A269     		ldr	r2, [r4, #24]
 1021 0256 9B68     		ldr	r3, [r3, #8]
 1022 0258 9268     		ldr	r2, [r2, #8]
 1023 025a 9A42     		cmp	r2, r3
 1024 025c 02D2     		bcs	.L64
 1025 025e 3748     		ldr	r0, .L90+12
 1026 0260 FFF7FEFF 		bl	chSysHalt
ARM GAS  C:\Users\mathi\AppData\Local\Temp\cc07f24f.s 			page 19


 1027              	.LVL97:
 1028              	.L64:
 1029              	.LBB573:
 1030              	.LBB574:
 1031              	.LBB575:
 1032              		.loc 3 546 0
 1033 0264 0023     		movs	r3, #0
 1034              		.syntax unified
 1035              	@ 546 "../../lib/e-puck2_main-processor/ChibiOS//os/ext/CMSIS/include/core_cmFunc.h" 1
 1036 0266 83F31188 		MSR basepri, r3
 1037              	@ 0 "" 2
 1038              	.LVL98:
 1039              		.thumb
 1040              		.syntax unified
 1041              	.LBE575:
 1042              	.LBE574:
 1043              	.LBE573:
 1044              	.LBE572:
 1045              	.LBE571:
 1046              	.LBB576:
 1047              	.LBB577:
 1048              	.LBB578:
 1049              	.LBB579:
 1050              	.LBB580:
 1051 026a 2023     		movs	r3, #32
 1052              		.syntax unified
 1053              	@ 546 "../../lib/e-puck2_main-processor/ChibiOS//os/ext/CMSIS/include/core_cmFunc.h" 1
 1054 026c 83F31188 		MSR basepri, r3
 1055              	@ 0 "" 2
 1056              	.LVL99:
 1057              		.thumb
 1058              		.syntax unified
 1059              	.LBE580:
 1060              	.LBE579:
 1061              	.LBE578:
 1062              		.loc 2 349 0
 1063 0270 FFF7FEFF 		bl	_stats_start_measure_crit_thd
 1064              	.LVL100:
 1065              		.loc 2 350 0
 1066 0274 FFF7FEFF 		bl	_dbg_check_lock
 1067              	.LVL101:
 1068              	.LBE577:
 1069              	.LBE576:
 1070              		.loc 1 124 0
 1071 0278 4121     		movs	r1, #65
 1072 027a 2E48     		ldr	r0, .L90+4
 1073 027c FFF7FEFF 		bl	chIQPutI
 1074              	.LVL102:
 1075 0280 4221     		movs	r1, #66
 1076 0282 2C48     		ldr	r0, .L90+4
 1077 0284 FFF7FEFF 		bl	chIQPutI
 1078              	.LVL103:
 1079 0288 4321     		movs	r1, #67
 1080 028a 2A48     		ldr	r0, .L90+4
 1081 028c FFF7FEFF 		bl	chIQPutI
 1082              	.LVL104:
 1083 0290 4421     		movs	r1, #68
ARM GAS  C:\Users\mathi\AppData\Local\Temp\cc07f24f.s 			page 20


 1084 0292 2848     		ldr	r0, .L90+4
 1085 0294 FFF7FEFF 		bl	chIQPutI
 1086              	.LVL105:
 1087              	.LBB581:
 1088              	.LBB582:
 1089              		.loc 2 360 0
 1090 0298 FFF7FEFF 		bl	_dbg_check_unlock
 1091              	.LVL106:
 1092              		.loc 2 361 0
 1093 029c FFF7FEFF 		bl	_stats_stop_measure_crit_thd
 1094              	.LVL107:
 1095              		.loc 2 367 0
 1096 02a0 2368     		ldr	r3, [r4]
 1097 02a2 A342     		cmp	r3, r4
 1098 02a4 07D0     		beq	.L65
 1099 02a6 A269     		ldr	r2, [r4, #24]
 1100 02a8 9B68     		ldr	r3, [r3, #8]
 1101 02aa 9268     		ldr	r2, [r2, #8]
 1102 02ac 9A42     		cmp	r2, r3
 1103 02ae 02D2     		bcs	.L65
 1104 02b0 2248     		ldr	r0, .L90+12
 1105 02b2 FFF7FEFF 		bl	chSysHalt
 1106              	.LVL108:
 1107              	.L65:
 1108              	.LBB583:
 1109              	.LBB584:
 1110              	.LBB585:
 1111              		.loc 3 546 0
 1112 02b6 0023     		movs	r3, #0
 1113              		.syntax unified
 1114              	@ 546 "../../lib/e-puck2_main-processor/ChibiOS//os/ext/CMSIS/include/core_cmFunc.h" 1
 1115 02b8 83F31188 		MSR basepri, r3
 1116              	@ 0 "" 2
 1117              	.LVL109:
 1118              		.thumb
 1119              		.syntax unified
 1120              	.LBE585:
 1121              	.LBE584:
 1122              	.LBE583:
 1123              	.LBE582:
 1124              	.LBE581:
 1125              		.loc 1 128 0
 1126 02bc D6F80480 		ldr	r8, [r6, #4]
 1127 02c0 1C48     		ldr	r0, .L90+4
 1128 02c2 4146     		mov	r1, r8
 1129 02c4 0222     		movs	r2, #2
 1130 02c6 FFF7FEFF 		bl	chIQReadTimeout
 1131              	.LVL110:
 1132              		.loc 1 129 0
 1133 02ca A0F10201 		sub	r1, r0, #2
 1134 02ce B1FA81F1 		clz	r1, r1
 1135 02d2 4909     		lsrs	r1, r1, #5
 1136 02d4 0820     		movs	r0, #8
 1137              	.LVL111:
 1138 02d6 FFF7FEFF 		bl	_test_assert
 1139              	.LVL112:
 1140 02da 0028     		cmp	r0, #0
ARM GAS  C:\Users\mathi\AppData\Local\Temp\cc07f24f.s 			page 21


 1141 02dc 40F09B80 		bne	.L42
 1142              		.loc 1 130 0
 1143 02e0 0346     		mov	r3, r0
 1144 02e2 4146     		mov	r1, r8
 1145 02e4 0222     		movs	r2, #2
 1146 02e6 1348     		ldr	r0, .L90+4
 1147 02e8 FFF7FEFF 		bl	chIQReadTimeout
 1148              	.LVL113:
 1149              		.loc 1 131 0
 1150 02ec A0F10201 		sub	r1, r0, #2
 1151 02f0 B1FA81F1 		clz	r1, r1
 1152 02f4 4909     		lsrs	r1, r1, #5
 1153 02f6 0920     		movs	r0, #9
 1154              	.LVL114:
 1155 02f8 FFF7FEFF 		bl	_test_assert
 1156              	.LVL115:
 1157 02fc 0028     		cmp	r0, #0
 1158 02fe 40F08A80 		bne	.L42
 1159              	.LVL116:
 1160              	.LBB586:
 1161              	.LBB587:
 1162              	.LBB588:
 1163              	.LBB589:
 1164              	.LBB590:
 1165              		.loc 3 546 0
 1166 0302 4FF02008 		mov	r8, #32
 1167              		.syntax unified
 1168              	@ 546 "../../lib/e-puck2_main-processor/ChibiOS//os/ext/CMSIS/include/core_cmFunc.h" 1
 1169 0306 88F31188 		MSR basepri, r8
 1170              	@ 0 "" 2
 1171              	.LVL117:
 1172              		.thumb
 1173              		.syntax unified
 1174              	.LBE590:
 1175              	.LBE589:
 1176              	.LBE588:
 1177              		.loc 2 349 0
 1178 030a FFF7FEFF 		bl	_stats_start_measure_crit_thd
 1179              	.LVL118:
 1180              		.loc 2 350 0
 1181 030e FFF7FEFF 		bl	_dbg_check_lock
 1182              	.LVL119:
 1183              	.LBE587:
 1184              	.LBE586:
 1185              	.LBB591:
 1186              	.LBB592:
 1187              		.loc 4 305 0
 1188 0312 FFF7FEFF 		bl	chDbgCheckClassI
 1189              	.LVL120:
 1190              		.loc 4 307 0
 1191 0316 A968     		ldr	r1, [r5, #8]
 1192              	.LBE592:
 1193              	.LBE591:
 1194              		.loc 1 132 0
 1195 0318 B1FA81F1 		clz	r1, r1
 1196 031c 4909     		lsrs	r1, r1, #5
 1197 031e 0A20     		movs	r0, #10
ARM GAS  C:\Users\mathi\AppData\Local\Temp\cc07f24f.s 			page 22


 1198 0320 FFF7FEFF 		bl	_test_assert
 1199              	.LVL121:
 1200 0324 8146     		mov	r9, r0
 1201 0326 0028     		cmp	r0, #0
 1202 0328 40F0A980 		bne	.L68
 1203 032c 0CE0     		b	.L91
 1204              	.L92:
 1205 032e 00BF     		.align	2
 1206              	.L90:
 1207 0330 00000000 		.word	__stack_chk_guard
 1208 0334 00000000 		.word	.LANCHOR0
 1209 0338 00000000 		.word	ch
 1210 033c 00000000 		.word	.LANCHOR1
 1211 0340 00000000 		.word	.LC0
 1212 0344 00000000 		.word	wa
 1213              	.L91:
 1214 0348 FFF7FEFF 		bl	chSysUnlock
 1215              	.LVL122:
 1216              	.LBB593:
 1217              	.LBB594:
 1218              	.LBB595:
 1219              	.LBB596:
 1220              	.LBB597:
 1221              		.loc 3 546 0
 1222              		.syntax unified
 1223              	@ 546 "../../lib/e-puck2_main-processor/ChibiOS//os/ext/CMSIS/include/core_cmFunc.h" 1
 1224 034c 88F31188 		MSR basepri, r8
 1225              	@ 0 "" 2
 1226              	.LVL123:
 1227              		.thumb
 1228              		.syntax unified
 1229              	.LBE597:
 1230              	.LBE596:
 1231              	.LBE595:
 1232              		.loc 2 349 0
 1233 0350 FFF7FEFF 		bl	_stats_start_measure_crit_thd
 1234              	.LVL124:
 1235              		.loc 2 350 0
 1236 0354 FFF7FEFF 		bl	_dbg_check_lock
 1237              	.LVL125:
 1238              	.LBE594:
 1239              	.LBE593:
 1240              		.loc 1 136 0
 1241 0358 4946     		mov	r1, r9
 1242 035a 4E48     		ldr	r0, .L93
 1243 035c FFF7FEFF 		bl	chIQPutI
 1244              	.LVL126:
 1245              		.loc 1 137 0
 1246 0360 4C48     		ldr	r0, .L93
 1247 0362 FFF7FEFF 		bl	chIQResetI
 1248              	.LVL127:
 1249              		.loc 1 138 0
 1250 0366 FFF7FEFF 		bl	chSysUnlock
 1251              	.LVL128:
 1252              	.LBB598:
 1253              	.LBB599:
 1254              	.LBB600:
ARM GAS  C:\Users\mathi\AppData\Local\Temp\cc07f24f.s 			page 23


 1255              	.LBB601:
 1256              	.LBB602:
 1257              		.loc 3 546 0
 1258              		.syntax unified
 1259              	@ 546 "../../lib/e-puck2_main-processor/ChibiOS//os/ext/CMSIS/include/core_cmFunc.h" 1
 1260 036a 88F31188 		MSR basepri, r8
 1261              	@ 0 "" 2
 1262              	.LVL129:
 1263              		.thumb
 1264              		.syntax unified
 1265              	.LBE602:
 1266              	.LBE601:
 1267              	.LBE600:
 1268              		.loc 2 349 0
 1269 036e FFF7FEFF 		bl	_stats_start_measure_crit_thd
 1270              	.LVL130:
 1271              		.loc 2 350 0
 1272 0372 FFF7FEFF 		bl	_dbg_check_lock
 1273              	.LVL131:
 1274              	.LBE599:
 1275              	.LBE598:
 1276              	.LBB603:
 1277              	.LBB604:
 1278              		.loc 4 272 0
 1279 0376 FFF7FEFF 		bl	chDbgCheckClassI
 1280              	.LVL132:
 1281              	.LBE604:
 1282              	.LBE603:
 1283              		.loc 1 139 0
 1284 037a A968     		ldr	r1, [r5, #8]
 1285 037c B1FA81F1 		clz	r1, r1
 1286 0380 4909     		lsrs	r1, r1, #5
 1287 0382 0B20     		movs	r0, #11
 1288 0384 FFF7FEFF 		bl	_test_assert
 1289              	.LVL133:
 1290 0388 8146     		mov	r9, r0
 1291 038a 0028     		cmp	r0, #0
 1292 038c 77D1     		bne	.L68
 1293 038e FFF7FEFF 		bl	chSysUnlock
 1294              	.LVL134:
 1295              	.LBB605:
 1296              	.LBB606:
 1297              		.file 5 "../../lib/e-puck2_main-processor/ChibiOS//os/rt/include/chthreads.h"
 1298              		.loc 5 189 0
 1299 0392 A369     		ldr	r3, [r4, #24]
 1300              	.LBE606:
 1301              	.LBE605:
 1302              		.loc 1 140 0
 1303 0394 3068     		ldr	r0, [r6]
 1304 0396 9A68     		ldr	r2, [r3, #8]
 1305 0398 3F4B     		ldr	r3, .L93+4
 1306 039a CDF80090 		str	r9, [sp]
 1307 039e 0132     		adds	r2, r2, #1
 1308 03a0 4FF4FC71 		mov	r1, #504
 1309 03a4 FFF7FEFF 		bl	chThdCreateStatic
 1310              	.LVL135:
 1311 03a8 3C4B     		ldr	r3, .L93+8
ARM GAS  C:\Users\mathi\AppData\Local\Temp\cc07f24f.s 			page 24


 1312 03aa 1860     		str	r0, [r3]
 1313              	.LVL136:
 1314              	.LBB607:
 1315              	.LBB608:
 1316              	.LBB609:
 1317              	.LBB610:
 1318              	.LBB611:
 1319              		.loc 3 546 0
 1320              		.syntax unified
 1321              	@ 546 "../../lib/e-puck2_main-processor/ChibiOS//os/ext/CMSIS/include/core_cmFunc.h" 1
 1322 03ac 88F31188 		MSR basepri, r8
 1323              	@ 0 "" 2
 1324              	.LVL137:
 1325              		.thumb
 1326              		.syntax unified
 1327              	.LBE611:
 1328              	.LBE610:
 1329              	.LBE609:
 1330              		.loc 2 349 0
 1331 03b0 FFF7FEFF 		bl	_stats_start_measure_crit_thd
 1332              	.LVL138:
 1333              		.loc 2 350 0
 1334 03b4 FFF7FEFF 		bl	_dbg_check_lock
 1335              	.LVL139:
 1336              	.LBE608:
 1337              	.LBE607:
 1338              	.LBB612:
 1339              	.LBB613:
 1340              		.loc 4 272 0
 1341 03b8 FFF7FEFF 		bl	chDbgCheckClassI
 1342              	.LVL140:
 1343              	.LBE613:
 1344              	.LBE612:
 1345              		.loc 1 141 0
 1346 03bc A968     		ldr	r1, [r5, #8]
 1347 03be B1FA81F1 		clz	r1, r1
 1348 03c2 4909     		lsrs	r1, r1, #5
 1349 03c4 0C20     		movs	r0, #12
 1350 03c6 FFF7FEFF 		bl	_test_assert
 1351              	.LVL141:
 1352 03ca 0028     		cmp	r0, #0
 1353 03cc 57D1     		bne	.L68
 1354 03ce FFF7FEFF 		bl	chSysUnlock
 1355              	.LVL142:
 1356              		.loc 1 142 0
 1357 03d2 FFF7FEFF 		bl	test_wait_threads
 1358              	.LVL143:
 1359              		.loc 1 145 0
 1360 03d6 0A21     		movs	r1, #10
 1361 03d8 2E48     		ldr	r0, .L93
 1362 03da FFF7FEFF 		bl	chIQGetTimeout
 1363              	.LVL144:
 1364 03de 039A     		ldr	r2, [sp, #12]
 1365 03e0 3B68     		ldr	r3, [r7]
 1366 03e2 9A42     		cmp	r2, r3
 1367 03e4 54D1     		bne	.L74
 1368 03e6 431C     		adds	r3, r0, #1
ARM GAS  C:\Users\mathi\AppData\Local\Temp\cc07f24f.s 			page 25


 1369 03e8 5942     		rsbs	r1, r3, #0
 1370 03ea 5941     		adcs	r1, r1, r3
 1371 03ec 0D20     		movs	r0, #13
 1372              	.LBE490:
 1373              	.LBE489:
 1374              		.loc 1 146 0
 1375 03ee 05B0     		add	sp, sp, #20
 1376              		.cfi_remember_state
 1377              		.cfi_def_cfa_offset 28
 1378              		@ sp needed
 1379 03f0 BDE8F043 		pop	{r4, r5, r6, r7, r8, r9, lr}
 1380              		.cfi_restore 14
 1381              		.cfi_restore 9
 1382              		.cfi_restore 8
 1383              		.cfi_restore 7
 1384              		.cfi_restore 6
 1385              		.cfi_restore 5
 1386              		.cfi_restore 4
 1387              		.cfi_def_cfa_offset 0
 1388              	.LBB629:
 1389              	.LBB626:
 1390              		.loc 1 145 0
 1391 03f4 FFF7FEBF 		b	_test_assert
 1392              	.LVL145:
 1393              	.L81:
 1394              		.cfi_restore_state
 1395              	.LBB614:
 1396              	.LBB615:
 1397              		.loc 2 360 0
 1398 03f8 FFF7FEFF 		bl	_dbg_check_unlock
 1399              	.LVL146:
 1400              		.loc 2 361 0
 1401 03fc FFF7FEFF 		bl	_stats_stop_measure_crit_thd
 1402              	.LVL147:
 1403              		.loc 2 367 0
 1404 0400 2368     		ldr	r3, [r4]
 1405 0402 A342     		cmp	r3, r4
 1406 0404 04D0     		beq	.L63
 1407 0406 A269     		ldr	r2, [r4, #24]
 1408 0408 9B68     		ldr	r3, [r3, #8]
 1409 040a 9268     		ldr	r2, [r2, #8]
 1410 040c 9A42     		cmp	r2, r3
 1411 040e 16D3     		bcc	.L75
 1412              	.L63:
 1413              	.LVL148:
 1414              	.LBB616:
 1415              	.LBB617:
 1416              	.LBB618:
 1417              		.loc 3 546 0
 1418 0410 0023     		movs	r3, #0
 1419              		.syntax unified
 1420              	@ 546 "../../lib/e-puck2_main-processor/ChibiOS//os/ext/CMSIS/include/core_cmFunc.h" 1
 1421 0412 83F31188 		MSR basepri, r3
 1422              	@ 0 "" 2
 1423              	.LVL149:
 1424              		.thumb
 1425              		.syntax unified
ARM GAS  C:\Users\mathi\AppData\Local\Temp\cc07f24f.s 			page 26


 1426              	.L42:
 1427              	.LBE618:
 1428              	.LBE617:
 1429              	.LBE616:
 1430              	.LBE615:
 1431              	.LBE614:
 1432              	.LBE626:
 1433              	.LBE629:
 1434              		.loc 1 146 0
 1435 0416 039A     		ldr	r2, [sp, #12]
 1436 0418 3B68     		ldr	r3, [r7]
 1437 041a 9A42     		cmp	r2, r3
 1438 041c 38D1     		bne	.L74
 1439 041e 05B0     		add	sp, sp, #20
 1440              		.cfi_remember_state
 1441              		.cfi_def_cfa_offset 28
 1442              		@ sp needed
 1443 0420 BDE8F083 		pop	{r4, r5, r6, r7, r8, r9, pc}
 1444              	.L84:
 1445              		.cfi_restore_state
 1446              	.LBB630:
 1447              	.LBB631:
 1448              		.loc 2 360 0
 1449 0424 FFF7FEFF 		bl	_dbg_check_unlock
 1450              	.LVL150:
 1451              		.loc 2 361 0
 1452 0428 FFF7FEFF 		bl	_stats_stop_measure_crit_thd
 1453              	.LVL151:
 1454              		.loc 2 367 0
 1455 042c 1C4B     		ldr	r3, .L93+12
 1456 042e 1A68     		ldr	r2, [r3]
 1457 0430 9A42     		cmp	r2, r3
 1458 0432 EDD0     		beq	.L63
 1459 0434 9969     		ldr	r1, [r3, #24]
 1460 0436 9368     		ldr	r3, [r2, #8]
 1461 0438 8A68     		ldr	r2, [r1, #8]
 1462 043a 9A42     		cmp	r2, r3
 1463 043c E8D2     		bcs	.L63
 1464              	.L75:
 1465              	.LBE631:
 1466              	.LBE630:
 1467              	.LBB632:
 1468              	.LBB627:
 1469              	.LBB620:
 1470              	.LBB619:
 1471 043e 1948     		ldr	r0, .L93+16
 1472 0440 FFF7FEFF 		bl	chSysHalt
 1473              	.LVL152:
 1474 0444 E4E7     		b	.L63
 1475              	.LVL153:
 1476              	.L87:
 1477              	.LBE619:
 1478              	.LBE620:
 1479              	.LBB621:
 1480              	.LBB515:
 1481              		.loc 4 324 0
 1482 0446 AE68     		ldr	r6, [r5, #8]
ARM GAS  C:\Users\mathi\AppData\Local\Temp\cc07f24f.s 			page 27


 1483 0448 0036     		adds	r6, r6, #0
 1484 044a 18BF     		it	ne
 1485 044c 0126     		movne	r6, #1
 1486              	.LVL154:
 1487              	.LBE515:
 1488              	.LBE621:
 1489              		.loc 1 101 0
 1490 044e 3146     		mov	r1, r6
 1491 0450 0220     		movs	r0, #2
 1492 0452 FFF7FEFF 		bl	_test_assert
 1493              	.LVL155:
 1494 0456 0028     		cmp	r0, #0
 1495 0458 3FF43AAE 		beq	.L49
 1496 045c CCE7     		b	.L81
 1497              	.L86:
 1498              	.LBB622:
 1499              	.LBB507:
 1500              		.loc 2 367 0
 1501 045e 1148     		ldr	r0, .L93+16
 1502 0460 FFF7FEFF 		bl	chSysHalt
 1503              	.LVL156:
 1504 0464 1CE6     		b	.L47
 1505              	.LVL157:
 1506              	.L85:
 1507              	.LBE507:
 1508              	.LBE622:
 1509              	.LBB623:
 1510              	.LBB496:
 1511 0466 0F48     		ldr	r0, .L93+16
 1512 0468 FFF7FEFF 		bl	chSysHalt
 1513              	.LVL158:
 1514 046c F1E5     		b	.L46
 1515              	.LVL159:
 1516              	.L88:
 1517              	.LBE496:
 1518              	.LBE623:
 1519              	.LBB624:
 1520              	.LBB521:
 1521 046e 0D48     		ldr	r0, .L93+16
 1522 0470 FFF7FEFF 		bl	chSysHalt
 1523              	.LVL160:
 1524 0474 39E6     		b	.L51
 1525              	.LVL161:
 1526              	.L89:
 1527              	.LBE521:
 1528              	.LBE624:
 1529              	.LBB625:
 1530              	.LBB553:
 1531 0476 0B48     		ldr	r0, .L93+16
 1532 0478 FFF7FEFF 		bl	chSysHalt
 1533              	.LVL162:
 1534 047c 8CE6     		b	.L58
 1535              	.LVL163:
 1536              	.L68:
 1537              	.LBE553:
 1538              	.LBE625:
 1539              		.loc 1 132 0
ARM GAS  C:\Users\mathi\AppData\Local\Temp\cc07f24f.s 			page 28


 1540 047e 039A     		ldr	r2, [sp, #12]
 1541 0480 3B68     		ldr	r3, [r7]
 1542 0482 9A42     		cmp	r2, r3
 1543 0484 04D1     		bne	.L74
 1544              	.LBE627:
 1545              	.LBE632:
 1546              		.loc 1 146 0
 1547 0486 05B0     		add	sp, sp, #20
 1548              		.cfi_remember_state
 1549              		.cfi_def_cfa_offset 28
 1550              		@ sp needed
 1551 0488 BDE8F043 		pop	{r4, r5, r6, r7, r8, r9, lr}
 1552              		.cfi_restore 14
 1553              		.cfi_restore 9
 1554              		.cfi_restore 8
 1555              		.cfi_restore 7
 1556              		.cfi_restore 6
 1557              		.cfi_restore 5
 1558              		.cfi_restore 4
 1559              		.cfi_def_cfa_offset 0
 1560              	.LBB633:
 1561              	.LBB628:
 1562              		.loc 1 132 0
 1563 048c FFF7FEBF 		b	chSysUnlock
 1564              	.LVL164:
 1565              	.L74:
 1566              		.cfi_restore_state
 1567              	.LBE628:
 1568              	.LBE633:
 1569              		.loc 1 146 0
 1570 0490 FFF7FEFF 		bl	__stack_chk_fail
 1571              	.LVL165:
 1572              	.L94:
 1573              		.align	2
 1574              	.L93:
 1575 0494 00000000 		.word	.LANCHOR0
 1576 0498 00000000 		.word	thread1
 1577 049c 00000000 		.word	threads
 1578 04a0 00000000 		.word	ch
 1579 04a4 00000000 		.word	.LANCHOR1
 1580              		.cfi_endproc
 1581              	.LFE222:
 1582              		.size	queues1_execute, .-queues1_execute
 1583              		.section	.text.queues2_execute,"ax",%progbits
 1584              		.align	1
 1585              		.p2align 4,,15
 1586              		.syntax unified
 1587              		.thumb
 1588              		.thumb_func
 1589              		.fpu fpv4-sp-d16
 1590              		.type	queues2_execute, %function
 1591              	queues2_execute:
 1592              	.LFB225:
 1593              		.loc 1 175 0
 1594              		.cfi_startproc
 1595              		@ args = 0, pretend = 0, frame = 8
 1596              		@ frame_needed = 0, uses_anonymous_args = 0
ARM GAS  C:\Users\mathi\AppData\Local\Temp\cc07f24f.s 			page 29


 1597 0000 2DE9F04F 		push	{r4, r5, r6, r7, r8, r9, r10, fp, lr}
 1598              		.cfi_def_cfa_offset 36
 1599              		.cfi_offset 4, -36
 1600              		.cfi_offset 5, -32
 1601              		.cfi_offset 6, -28
 1602              		.cfi_offset 7, -24
 1603              		.cfi_offset 8, -20
 1604              		.cfi_offset 9, -16
 1605              		.cfi_offset 10, -12
 1606              		.cfi_offset 11, -8
 1607              		.cfi_offset 14, -4
 1608 0004 CC4F     		ldr	r7, .L150
 1609 0006 85B0     		sub	sp, sp, #20
 1610              		.cfi_def_cfa_offset 56
 1611              		.loc 1 175 0
 1612 0008 3B68     		ldr	r3, [r7]
 1613 000a 0393     		str	r3, [sp, #12]
 1614              	.LVL166:
 1615              	.LBB784:
 1616              	.LBB785:
 1617              	.LBB786:
 1618              	.LBB787:
 1619              	.LBB788:
 1620              		.loc 3 546 0
 1621 000c 2023     		movs	r3, #32
 1622              		.syntax unified
 1623              	@ 546 "../../lib/e-puck2_main-processor/ChibiOS//os/ext/CMSIS/include/core_cmFunc.h" 1
 1624 000e 83F31188 		MSR basepri, r3
 1625              	@ 0 "" 2
 1626              	.LVL167:
 1627              		.thumb
 1628              		.syntax unified
 1629              	.LBE788:
 1630              	.LBE787:
 1631              	.LBE786:
 1632              	.LBE785:
 1633              	.LBE784:
 1634              	.LBB790:
 1635              	.LBB791:
 1636              		.loc 4 390 0
 1637 0012 CA4D     		ldr	r5, .L150+4
 1638              	.LBE791:
 1639              	.LBE790:
 1640              	.LBB794:
 1641              	.LBB789:
 1642              		.loc 2 349 0
 1643 0014 FFF7FEFF 		bl	_stats_start_measure_crit_thd
 1644              	.LVL168:
 1645              		.loc 2 350 0
 1646 0018 FFF7FEFF 		bl	_dbg_check_lock
 1647              	.LVL169:
 1648              	.LBE789:
 1649              	.LBE794:
 1650              	.LBB795:
 1651              	.LBB792:
 1652              		.loc 4 388 0
 1653 001c FFF7FEFF 		bl	chDbgCheckClassI
ARM GAS  C:\Users\mathi\AppData\Local\Temp\cc07f24f.s 			page 30


 1654              	.LVL170:
 1655              		.loc 4 390 0
 1656 0020 D5E90523 		ldrd	r2, r3, [r5, #20]
 1657 0024 9A42     		cmp	r2, r3
 1658 0026 00F0E681 		beq	.L145
 1659 002a 0021     		movs	r1, #0
 1660              	.L96:
 1661              	.LVL171:
 1662              	.LBE792:
 1663              	.LBE795:
 1664              		.loc 1 180 0
 1665 002c 0120     		movs	r0, #1
 1666 002e FFF7FEFF 		bl	_test_assert
 1667              	.LVL172:
 1668 0032 0028     		cmp	r0, #0
 1669 0034 40F0CE81 		bne	.L146
 1670              	.LBB796:
 1671              	.LBB797:
 1672              	.LBB798:
 1673              	.LBB799:
 1674              		.loc 2 367 0
 1675 0038 C14C     		ldr	r4, .L150+8
 1676              		.loc 2 360 0
 1677 003a FFF7FEFF 		bl	_dbg_check_unlock
 1678              	.LVL173:
 1679              		.loc 2 361 0
 1680 003e FFF7FEFF 		bl	_stats_stop_measure_crit_thd
 1681              	.LVL174:
 1682              		.loc 2 367 0
 1683 0042 2368     		ldr	r3, [r4]
 1684 0044 A342     		cmp	r3, r4
 1685 0046 05D0     		beq	.L100
 1686 0048 A269     		ldr	r2, [r4, #24]
 1687 004a 9B68     		ldr	r3, [r3, #8]
 1688 004c 9268     		ldr	r2, [r2, #8]
 1689 004e 9A42     		cmp	r2, r3
 1690 0050 C0F0D681 		bcc	.L147
 1691              	.L100:
 1692              	.LVL175:
 1693              	.LBB800:
 1694              	.LBB801:
 1695              	.LBB802:
 1696              		.loc 3 546 0
 1697 0054 0023     		movs	r3, #0
 1698              		.syntax unified
 1699              	@ 546 "../../lib/e-puck2_main-processor/ChibiOS//os/ext/CMSIS/include/core_cmFunc.h" 1
 1700 0056 83F31188 		MSR basepri, r3
 1701              	@ 0 "" 2
 1702              	.LVL176:
 1703              		.thumb
 1704              		.syntax unified
 1705              	.LBE802:
 1706              	.LBE801:
 1707              	.LBE800:
 1708              	.LBE799:
 1709              	.LBE798:
 1710              	.LBB808:
ARM GAS  C:\Users\mathi\AppData\Local\Temp\cc07f24f.s 			page 31


 1711              	.LBB809:
 1712              		.loc 4 426 0
 1713 005a DFF8E082 		ldr	r8, .L150+4
 1714              	.LBE809:
 1715              	.LBE808:
 1716              	.LBB811:
 1717              	.LBB806:
 1718              	.LBB805:
 1719              	.LBB804:
 1720              	.LBB803:
 1721              		.loc 3 546 0
 1722 005e 4126     		movs	r6, #65
 1723              	.LVL177:
 1724              	.L101:
 1725              	.LBE803:
 1726              	.LBE804:
 1727              	.LBE805:
 1728              	.LBE806:
 1729              	.LBE811:
 1730              	.LBB812:
 1731              	.LBB810:
 1732              		.loc 4 426 0
 1733 0060 3146     		mov	r1, r6
 1734 0062 0136     		adds	r6, r6, #1
 1735              	.LVL178:
 1736 0064 4FF0FF32 		mov	r2, #-1
 1737 0068 4046     		mov	r0, r8
 1738 006a F6B2     		uxtb	r6, r6
 1739 006c FFF7FEFF 		bl	chOQPutTimeout
 1740              	.LVL179:
 1741              	.LBE810:
 1742              	.LBE812:
 1743              		.loc 1 183 0
 1744 0070 452E     		cmp	r6, #69
 1745 0072 F5D1     		bne	.L101
 1746              	.LVL180:
 1747              	.LBB813:
 1748              	.LBB814:
 1749              	.LBB815:
 1750              	.LBB816:
 1751              	.LBB817:
 1752              		.loc 3 546 0
 1753 0074 2023     		movs	r3, #32
 1754              		.syntax unified
 1755              	@ 546 "../../lib/e-puck2_main-processor/ChibiOS//os/ext/CMSIS/include/core_cmFunc.h" 1
 1756 0076 83F31188 		MSR basepri, r3
 1757              	@ 0 "" 2
 1758              	.LVL181:
 1759              		.thumb
 1760              		.syntax unified
 1761              	.LBE817:
 1762              	.LBE816:
 1763              	.LBE815:
 1764              		.loc 2 349 0
 1765 007a FFF7FEFF 		bl	_stats_start_measure_crit_thd
 1766              	.LVL182:
 1767              		.loc 2 350 0
ARM GAS  C:\Users\mathi\AppData\Local\Temp\cc07f24f.s 			page 32


 1768 007e FFF7FEFF 		bl	_dbg_check_lock
 1769              	.LVL183:
 1770              	.LBE814:
 1771              	.LBE813:
 1772              	.LBB818:
 1773              	.LBB819:
 1774              		.loc 4 405 0
 1775 0082 FFF7FEFF 		bl	chDbgCheckClassI
 1776              	.LVL184:
 1777              		.loc 4 407 0
 1778 0086 A968     		ldr	r1, [r5, #8]
 1779              	.LBE819:
 1780              	.LBE818:
 1781              		.loc 1 185 0
 1782 0088 B1FA81F1 		clz	r1, r1
 1783 008c 4909     		lsrs	r1, r1, #5
 1784 008e 0220     		movs	r0, #2
 1785 0090 FFF7FEFF 		bl	_test_assert
 1786              	.LVL185:
 1787 0094 8146     		mov	r9, r0
 1788 0096 0028     		cmp	r0, #0
 1789 0098 40F08681 		bne	.L141
 1790              	.LBB820:
 1791              	.LBB821:
 1792              		.loc 2 360 0
 1793 009c FFF7FEFF 		bl	_dbg_check_unlock
 1794              	.LVL186:
 1795              		.loc 2 361 0
 1796 00a0 FFF7FEFF 		bl	_stats_stop_measure_crit_thd
 1797              	.LVL187:
 1798              		.loc 2 367 0
 1799 00a4 2368     		ldr	r3, [r4]
 1800 00a6 A342     		cmp	r3, r4
 1801 00a8 05D0     		beq	.L104
 1802 00aa A269     		ldr	r2, [r4, #24]
 1803 00ac 9B68     		ldr	r3, [r3, #8]
 1804 00ae 9268     		ldr	r2, [r2, #8]
 1805 00b0 9A42     		cmp	r2, r3
 1806 00b2 C0F0A981 		bcc	.L148
 1807              	.L104:
 1808              	.LVL188:
 1809              	.LBB822:
 1810              	.LBB823:
 1811              	.LBB824:
 1812              		.loc 3 546 0
 1813 00b6 0023     		movs	r3, #0
 1814              		.syntax unified
 1815              	@ 546 "../../lib/e-puck2_main-processor/ChibiOS//os/ext/CMSIS/include/core_cmFunc.h" 1
 1816 00b8 83F31188 		MSR basepri, r3
 1817              	@ 0 "" 2
 1818              	.LVL189:
 1819              		.thumb
 1820              		.syntax unified
 1821              	.LBE824:
 1822              	.LBE823:
 1823              	.LBE822:
 1824              	.LBE821:
ARM GAS  C:\Users\mathi\AppData\Local\Temp\cc07f24f.s 			page 33


 1825              	.LBE820:
 1826              	.LBB830:
 1827              		.loc 1 192 0
 1828 00bc DFF87CB2 		ldr	fp, .L150+4
 1829              	.LBE830:
 1830              	.LBB841:
 1831              	.LBB828:
 1832              	.LBB827:
 1833              	.LBB826:
 1834              	.LBB825:
 1835              		.loc 3 546 0
 1836 00c0 0426     		movs	r6, #4
 1837              	.LBE825:
 1838              	.LBE826:
 1839              	.LBE827:
 1840              	.LBE828:
 1841              	.LBE841:
 1842              	.LBB842:
 1843              	.LBB831:
 1844              	.LBB832:
 1845              	.LBB833:
 1846              	.LBB834:
 1847              	.LBB835:
 1848 00c2 4FF0200A 		mov	r10, #32
 1849              	.LVL190:
 1850              	.L106:
 1851              		.syntax unified
 1852              	@ 546 "../../lib/e-puck2_main-processor/ChibiOS//os/ext/CMSIS/include/core_cmFunc.h" 1
 1853 00c6 8AF31188 		MSR basepri, r10
 1854              	@ 0 "" 2
 1855              	.LVL191:
 1856              		.thumb
 1857              		.syntax unified
 1858              	.LBE835:
 1859              	.LBE834:
 1860              	.LBE833:
 1861              		.loc 2 349 0
 1862 00ca FFF7FEFF 		bl	_stats_start_measure_crit_thd
 1863              	.LVL192:
 1864              		.loc 2 350 0
 1865 00ce FFF7FEFF 		bl	_dbg_check_lock
 1866              	.LVL193:
 1867              	.LBE832:
 1868              	.LBE831:
 1869              		.loc 1 192 0
 1870 00d2 5846     		mov	r0, fp
 1871 00d4 FFF7FEFF 		bl	chOQGetI
 1872              	.LVL194:
 1873 00d8 5FFA80F8 		uxtb	r8, r0
 1874              	.LVL195:
 1875              	.LBB836:
 1876              	.LBB837:
 1877              		.loc 2 360 0
 1878 00dc FFF7FEFF 		bl	_dbg_check_unlock
 1879              	.LVL196:
 1880              		.loc 2 361 0
 1881 00e0 FFF7FEFF 		bl	_stats_stop_measure_crit_thd
ARM GAS  C:\Users\mathi\AppData\Local\Temp\cc07f24f.s 			page 34


 1882              	.LVL197:
 1883              		.loc 2 367 0
 1884 00e4 2368     		ldr	r3, [r4]
 1885 00e6 A342     		cmp	r3, r4
 1886 00e8 07D0     		beq	.L105
 1887 00ea A269     		ldr	r2, [r4, #24]
 1888 00ec 9B68     		ldr	r3, [r3, #8]
 1889 00ee 9268     		ldr	r2, [r2, #8]
 1890 00f0 9A42     		cmp	r2, r3
 1891 00f2 02D2     		bcs	.L105
 1892 00f4 9348     		ldr	r0, .L150+12
 1893 00f6 FFF7FEFF 		bl	chSysHalt
 1894              	.LVL198:
 1895              	.L105:
 1896              	.LBB838:
 1897              	.LBB839:
 1898              	.LBB840:
 1899              		.loc 3 546 0
 1900 00fa 0023     		movs	r3, #0
 1901              		.syntax unified
 1902              	@ 546 "../../lib/e-puck2_main-processor/ChibiOS//os/ext/CMSIS/include/core_cmFunc.h" 1
 1903 00fc 83F31188 		MSR basepri, r3
 1904              	@ 0 "" 2
 1905              	.LVL199:
 1906              		.thumb
 1907              		.syntax unified
 1908              	.LBE840:
 1909              	.LBE839:
 1910              	.LBE838:
 1911              	.LBE837:
 1912              	.LBE836:
 1913              		.loc 1 194 0
 1914 0100 4046     		mov	r0, r8
 1915 0102 FFF7FEFF 		bl	test_emit_token
 1916              	.LVL200:
 1917              	.LBE842:
 1918              		.loc 1 188 0
 1919 0106 013E     		subs	r6, r6, #1
 1920 0108 DDD1     		bne	.L106
 1921              	.LVL201:
 1922              	.LBB843:
 1923              	.LBB844:
 1924              	.LBB845:
 1925              	.LBB846:
 1926              	.LBB847:
 1927              		.loc 3 546 0
 1928 010a 2023     		movs	r3, #32
 1929              		.syntax unified
 1930              	@ 546 "../../lib/e-puck2_main-processor/ChibiOS//os/ext/CMSIS/include/core_cmFunc.h" 1
 1931 010c 83F31188 		MSR basepri, r3
 1932              	@ 0 "" 2
 1933              	.LVL202:
 1934              		.thumb
 1935              		.syntax unified
 1936              	.LBE847:
 1937              	.LBE846:
 1938              	.LBE845:
ARM GAS  C:\Users\mathi\AppData\Local\Temp\cc07f24f.s 			page 35


 1939              		.loc 2 349 0
 1940 0110 FFF7FEFF 		bl	_stats_start_measure_crit_thd
 1941              	.LVL203:
 1942              		.loc 2 350 0
 1943 0114 FFF7FEFF 		bl	_dbg_check_lock
 1944              	.LVL204:
 1945              	.LBE844:
 1946              	.LBE843:
 1947              	.LBB848:
 1948              	.LBB849:
 1949              		.loc 4 388 0
 1950 0118 FFF7FEFF 		bl	chDbgCheckClassI
 1951              	.LVL205:
 1952              		.loc 4 390 0
 1953 011c D5E90523 		ldrd	r2, r3, [r5, #20]
 1954 0120 9A42     		cmp	r2, r3
 1955 0122 00F07581 		beq	.L149
 1956              	.L107:
 1957              	.LVL206:
 1958              	.LBE849:
 1959              	.LBE848:
 1960              		.loc 1 196 0
 1961 0126 4946     		mov	r1, r9
 1962 0128 0320     		movs	r0, #3
 1963 012a FFF7FEFF 		bl	_test_assert
 1964              	.LVL207:
 1965 012e 0028     		cmp	r0, #0
 1966 0130 40F03A81 		bne	.L141
 1967              	.LBB851:
 1968              	.LBB852:
 1969              		.loc 2 360 0
 1970 0134 FFF7FEFF 		bl	_dbg_check_unlock
 1971              	.LVL208:
 1972              		.loc 2 361 0
 1973 0138 FFF7FEFF 		bl	_stats_stop_measure_crit_thd
 1974              	.LVL209:
 1975              		.loc 2 367 0
 1976 013c 2368     		ldr	r3, [r4]
 1977 013e A342     		cmp	r3, r4
 1978 0140 07D0     		beq	.L110
 1979 0142 A269     		ldr	r2, [r4, #24]
 1980 0144 9B68     		ldr	r3, [r3, #8]
 1981 0146 9268     		ldr	r2, [r2, #8]
 1982 0148 9A42     		cmp	r2, r3
 1983 014a 02D2     		bcs	.L110
 1984 014c 7D48     		ldr	r0, .L150+12
 1985 014e FFF7FEFF 		bl	chSysHalt
 1986              	.LVL210:
 1987              	.L110:
 1988              	.LBB853:
 1989              	.LBB854:
 1990              	.LBB855:
 1991              		.loc 3 546 0
 1992 0152 0023     		movs	r3, #0
 1993              		.syntax unified
 1994              	@ 546 "../../lib/e-puck2_main-processor/ChibiOS//os/ext/CMSIS/include/core_cmFunc.h" 1
 1995 0154 83F31188 		MSR basepri, r3
ARM GAS  C:\Users\mathi\AppData\Local\Temp\cc07f24f.s 			page 36


 1996              	@ 0 "" 2
 1997              	.LVL211:
 1998              		.thumb
 1999              		.syntax unified
 2000              	.LBE855:
 2001              	.LBE854:
 2002              	.LBE853:
 2003              	.LBE852:
 2004              	.LBE851:
 2005              		.loc 1 197 0
 2006 0158 7B49     		ldr	r1, .L150+16
 2007 015a 0420     		movs	r0, #4
 2008 015c FFF7FEFF 		bl	_test_assert_sequence
 2009              	.LVL212:
 2010 0160 0028     		cmp	r0, #0
 2011 0162 40F03081 		bne	.L95
 2012              	.LVL213:
 2013              	.LBB856:
 2014              	.LBB857:
 2015              	.LBB858:
 2016              	.LBB859:
 2017              	.LBB860:
 2018              		.loc 3 546 0
 2019 0166 2023     		movs	r3, #32
 2020              		.syntax unified
 2021              	@ 546 "../../lib/e-puck2_main-processor/ChibiOS//os/ext/CMSIS/include/core_cmFunc.h" 1
 2022 0168 83F31188 		MSR basepri, r3
 2023              	@ 0 "" 2
 2024              	.LVL214:
 2025              		.thumb
 2026              		.syntax unified
 2027              	.LBE860:
 2028              	.LBE859:
 2029              	.LBE858:
 2030              		.loc 2 349 0
 2031 016c FFF7FEFF 		bl	_stats_start_measure_crit_thd
 2032              	.LVL215:
 2033              		.loc 2 350 0
 2034 0170 FFF7FEFF 		bl	_dbg_check_lock
 2035              	.LVL216:
 2036              	.LBE857:
 2037              	.LBE856:
 2038              		.loc 1 198 0
 2039 0174 7148     		ldr	r0, .L150+4
 2040 0176 FFF7FEFF 		bl	chOQGetI
 2041              	.LVL217:
 2042 017a 0330     		adds	r0, r0, #3
 2043 017c 14BF     		ite	ne
 2044 017e 0021     		movne	r1, #0
 2045 0180 0121     		moveq	r1, #1
 2046 0182 0520     		movs	r0, #5
 2047 0184 FFF7FEFF 		bl	_test_assert
 2048              	.LVL218:
 2049 0188 0028     		cmp	r0, #0
 2050 018a 40F00D81 		bne	.L141
 2051              	.LBB861:
 2052              	.LBB862:
ARM GAS  C:\Users\mathi\AppData\Local\Temp\cc07f24f.s 			page 37


 2053              		.loc 2 360 0
 2054 018e FFF7FEFF 		bl	_dbg_check_unlock
 2055              	.LVL219:
 2056              		.loc 2 361 0
 2057 0192 FFF7FEFF 		bl	_stats_stop_measure_crit_thd
 2058              	.LVL220:
 2059              		.loc 2 367 0
 2060 0196 2368     		ldr	r3, [r4]
 2061 0198 A342     		cmp	r3, r4
 2062 019a 07D0     		beq	.L114
 2063 019c A269     		ldr	r2, [r4, #24]
 2064 019e 9B68     		ldr	r3, [r3, #8]
 2065 01a0 9268     		ldr	r2, [r2, #8]
 2066 01a2 9A42     		cmp	r2, r3
 2067 01a4 02D2     		bcs	.L114
 2068 01a6 6748     		ldr	r0, .L150+12
 2069 01a8 FFF7FEFF 		bl	chSysHalt
 2070              	.LVL221:
 2071              	.L114:
 2072              	.LBB863:
 2073              	.LBB864:
 2074              	.LBB865:
 2075              		.loc 3 546 0
 2076 01ac 0023     		movs	r3, #0
 2077              		.syntax unified
 2078              	@ 546 "../../lib/e-puck2_main-processor/ChibiOS//os/ext/CMSIS/include/core_cmFunc.h" 1
 2079 01ae 83F31188 		MSR basepri, r3
 2080              	@ 0 "" 2
 2081              	.LVL222:
 2082              		.thumb
 2083              		.syntax unified
 2084              	.LBE865:
 2085              	.LBE864:
 2086              	.LBE863:
 2087              	.LBE862:
 2088              	.LBE861:
 2089              		.loc 1 201 0
 2090 01b2 664E     		ldr	r6, .L150+20
 2091 01b4 6148     		ldr	r0, .L150+4
 2092 01b6 7168     		ldr	r1, [r6, #4]
 2093 01b8 0822     		movs	r2, #8
 2094 01ba FFF7FEFF 		bl	chOQWriteTimeout
 2095              	.LVL223:
 2096              		.loc 1 202 0
 2097 01be A0F10401 		sub	r1, r0, #4
 2098 01c2 B1FA81F1 		clz	r1, r1
 2099 01c6 4909     		lsrs	r1, r1, #5
 2100 01c8 0620     		movs	r0, #6
 2101              	.LVL224:
 2102 01ca FFF7FEFF 		bl	_test_assert
 2103              	.LVL225:
 2104 01ce 0028     		cmp	r0, #0
 2105 01d0 40F0F980 		bne	.L95
 2106              	.LVL226:
 2107              	.LBB866:
 2108              	.LBB867:
 2109              	.LBB868:
ARM GAS  C:\Users\mathi\AppData\Local\Temp\cc07f24f.s 			page 38


 2110              	.LBB869:
 2111              	.LBB870:
 2112              		.loc 3 546 0
 2113 01d4 2023     		movs	r3, #32
 2114              		.syntax unified
 2115              	@ 546 "../../lib/e-puck2_main-processor/ChibiOS//os/ext/CMSIS/include/core_cmFunc.h" 1
 2116 01d6 83F31188 		MSR basepri, r3
 2117              	@ 0 "" 2
 2118              	.LVL227:
 2119              		.thumb
 2120              		.syntax unified
 2121              	.LBE870:
 2122              	.LBE869:
 2123              	.LBE868:
 2124              		.loc 2 349 0
 2125 01da FFF7FEFF 		bl	_stats_start_measure_crit_thd
 2126              	.LVL228:
 2127              		.loc 2 350 0
 2128 01de FFF7FEFF 		bl	_dbg_check_lock
 2129              	.LVL229:
 2130              	.LBE867:
 2131              	.LBE866:
 2132              	.LBB871:
 2133              	.LBB872:
 2134              		.loc 4 405 0
 2135 01e2 FFF7FEFF 		bl	chDbgCheckClassI
 2136              	.LVL230:
 2137              		.loc 4 407 0
 2138 01e6 A968     		ldr	r1, [r5, #8]
 2139              	.LBE872:
 2140              	.LBE871:
 2141              		.loc 1 203 0
 2142 01e8 B1FA81F1 		clz	r1, r1
 2143 01ec 4909     		lsrs	r1, r1, #5
 2144 01ee 0720     		movs	r0, #7
 2145 01f0 FFF7FEFF 		bl	_test_assert
 2146              	.LVL231:
 2147 01f4 0028     		cmp	r0, #0
 2148 01f6 40F0D780 		bne	.L141
 2149              	.LBB873:
 2150              	.LBB874:
 2151              		.loc 2 360 0
 2152 01fa FFF7FEFF 		bl	_dbg_check_unlock
 2153              	.LVL232:
 2154              		.loc 2 361 0
 2155 01fe FFF7FEFF 		bl	_stats_stop_measure_crit_thd
 2156              	.LVL233:
 2157              		.loc 2 367 0
 2158 0202 2368     		ldr	r3, [r4]
 2159 0204 A342     		cmp	r3, r4
 2160 0206 07D0     		beq	.L118
 2161 0208 A269     		ldr	r2, [r4, #24]
 2162 020a 9B68     		ldr	r3, [r3, #8]
 2163 020c 9268     		ldr	r2, [r2, #8]
 2164 020e 9A42     		cmp	r2, r3
 2165 0210 02D2     		bcs	.L118
 2166 0212 4C48     		ldr	r0, .L150+12
ARM GAS  C:\Users\mathi\AppData\Local\Temp\cc07f24f.s 			page 39


 2167 0214 FFF7FEFF 		bl	chSysHalt
 2168              	.LVL234:
 2169              	.L118:
 2170              	.LBB875:
 2171              	.LBB876:
 2172              	.LBB877:
 2173              		.loc 3 546 0
 2174 0218 0021     		movs	r1, #0
 2175              		.syntax unified
 2176              	@ 546 "../../lib/e-puck2_main-processor/ChibiOS//os/ext/CMSIS/include/core_cmFunc.h" 1
 2177 021a 81F31188 		MSR basepri, r1
 2178              	@ 0 "" 2
 2179              	.LVL235:
 2180              		.thumb
 2181              		.syntax unified
 2182              	.LBE877:
 2183              	.LBE876:
 2184              	.LBE875:
 2185              	.LBE874:
 2186              	.LBE873:
 2187              	.LBB878:
 2188              	.LBB879:
 2189              		.loc 5 189 0
 2190 021e A369     		ldr	r3, [r4, #24]
 2191              	.LBE879:
 2192              	.LBE878:
 2193              		.loc 1 204 0
 2194 0220 3068     		ldr	r0, [r6]
 2195 0222 9A68     		ldr	r2, [r3, #8]
 2196 0224 0091     		str	r1, [sp]
 2197 0226 4A4B     		ldr	r3, .L150+24
 2198 0228 0132     		adds	r2, r2, #1
 2199 022a 4FF4FC71 		mov	r1, #504
 2200 022e FFF7FEFF 		bl	chThdCreateStatic
 2201              	.LVL236:
 2202 0232 484A     		ldr	r2, .L150+28
 2203              	.LBB880:
 2204              	.LBB881:
 2205              	.LBB882:
 2206              	.LBB883:
 2207              	.LBB884:
 2208              		.loc 3 546 0
 2209 0234 2023     		movs	r3, #32
 2210              	.LBE884:
 2211              	.LBE883:
 2212              	.LBE882:
 2213              	.LBE881:
 2214              	.LBE880:
 2215              		.loc 1 204 0
 2216 0236 1060     		str	r0, [r2]
 2217              	.LVL237:
 2218              	.LBB889:
 2219              	.LBB888:
 2220              	.LBB887:
 2221              	.LBB886:
 2222              	.LBB885:
 2223              		.loc 3 546 0
ARM GAS  C:\Users\mathi\AppData\Local\Temp\cc07f24f.s 			page 40


 2224              		.syntax unified
 2225              	@ 546 "../../lib/e-puck2_main-processor/ChibiOS//os/ext/CMSIS/include/core_cmFunc.h" 1
 2226 0238 83F31188 		MSR basepri, r3
 2227              	@ 0 "" 2
 2228              	.LVL238:
 2229              		.thumb
 2230              		.syntax unified
 2231              	.LBE885:
 2232              	.LBE886:
 2233              	.LBE887:
 2234              		.loc 2 349 0
 2235 023c FFF7FEFF 		bl	_stats_start_measure_crit_thd
 2236              	.LVL239:
 2237              		.loc 2 350 0
 2238 0240 FFF7FEFF 		bl	_dbg_check_lock
 2239              	.LVL240:
 2240              	.LBE888:
 2241              	.LBE889:
 2242              	.LBB890:
 2243              	.LBB891:
 2244              		.loc 4 355 0
 2245 0244 FFF7FEFF 		bl	chDbgCheckClassI
 2246              	.LVL241:
 2247              		.loc 4 357 0
 2248 0248 D5E90323 		ldrd	r2, r3, [r5, #12]
 2249 024c A968     		ldr	r1, [r5, #8]
 2250 024e 9B1A     		subs	r3, r3, r2
 2251 0250 591A     		subs	r1, r3, r1
 2252              	.LBE891:
 2253              	.LBE890:
 2254              		.loc 1 205 0
 2255 0252 A1F10401 		sub	r1, #4
 2256 0256 B1FA81F1 		clz	r1, r1
 2257 025a 4909     		lsrs	r1, r1, #5
 2258 025c 0820     		movs	r0, #8
 2259 025e FFF7FEFF 		bl	_test_assert
 2260              	.LVL242:
 2261 0262 0028     		cmp	r0, #0
 2262 0264 40F0A080 		bne	.L141
 2263              	.LBB892:
 2264              	.LBB893:
 2265              		.loc 2 360 0
 2266 0268 FFF7FEFF 		bl	_dbg_check_unlock
 2267              	.LVL243:
 2268              		.loc 2 361 0
 2269 026c FFF7FEFF 		bl	_stats_stop_measure_crit_thd
 2270              	.LVL244:
 2271              		.loc 2 367 0
 2272 0270 2368     		ldr	r3, [r4]
 2273 0272 A342     		cmp	r3, r4
 2274 0274 07D0     		beq	.L121
 2275 0276 A269     		ldr	r2, [r4, #24]
 2276 0278 9B68     		ldr	r3, [r3, #8]
 2277 027a 9268     		ldr	r2, [r2, #8]
 2278 027c 9A42     		cmp	r2, r3
 2279 027e 02D2     		bcs	.L121
 2280 0280 3048     		ldr	r0, .L150+12
ARM GAS  C:\Users\mathi\AppData\Local\Temp\cc07f24f.s 			page 41


 2281 0282 FFF7FEFF 		bl	chSysHalt
 2282              	.LVL245:
 2283              	.L121:
 2284              	.LBB894:
 2285              	.LBB895:
 2286              	.LBB896:
 2287              		.loc 3 546 0
 2288 0286 0023     		movs	r3, #0
 2289              		.syntax unified
 2290              	@ 546 "../../lib/e-puck2_main-processor/ChibiOS//os/ext/CMSIS/include/core_cmFunc.h" 1
 2291 0288 83F31188 		MSR basepri, r3
 2292              	@ 0 "" 2
 2293              	.LVL246:
 2294              		.thumb
 2295              		.syntax unified
 2296              	.LBE896:
 2297              	.LBE895:
 2298              	.LBE894:
 2299              	.LBE893:
 2300              	.LBE892:
 2301              		.loc 1 206 0
 2302 028c FFF7FEFF 		bl	test_wait_threads
 2303              	.LVL247:
 2304              	.LBB897:
 2305              	.LBB898:
 2306              	.LBB899:
 2307              	.LBB900:
 2308              	.LBB901:
 2309              		.loc 3 546 0
 2310 0290 2023     		movs	r3, #32
 2311              		.syntax unified
 2312              	@ 546 "../../lib/e-puck2_main-processor/ChibiOS//os/ext/CMSIS/include/core_cmFunc.h" 1
 2313 0292 83F31188 		MSR basepri, r3
 2314              	@ 0 "" 2
 2315              	.LVL248:
 2316              		.thumb
 2317              		.syntax unified
 2318              	.LBE901:
 2319              	.LBE900:
 2320              	.LBE899:
 2321              		.loc 2 349 0
 2322 0296 FFF7FEFF 		bl	_stats_start_measure_crit_thd
 2323              	.LVL249:
 2324              		.loc 2 350 0
 2325 029a FFF7FEFF 		bl	_dbg_check_lock
 2326              	.LVL250:
 2327              	.LBE898:
 2328              	.LBE897:
 2329              		.loc 1 210 0
 2330 029e 2748     		ldr	r0, .L150+4
 2331 02a0 FFF7FEFF 		bl	chOQResetI
 2332              	.LVL251:
 2333              	.LBB902:
 2334              	.LBB903:
 2335              		.loc 2 360 0
 2336 02a4 FFF7FEFF 		bl	_dbg_check_unlock
 2337              	.LVL252:
ARM GAS  C:\Users\mathi\AppData\Local\Temp\cc07f24f.s 			page 42


 2338              		.loc 2 361 0
 2339 02a8 FFF7FEFF 		bl	_stats_stop_measure_crit_thd
 2340              	.LVL253:
 2341              		.loc 2 367 0
 2342 02ac 2368     		ldr	r3, [r4]
 2343 02ae A342     		cmp	r3, r4
 2344 02b0 07D0     		beq	.L122
 2345 02b2 A269     		ldr	r2, [r4, #24]
 2346 02b4 9B68     		ldr	r3, [r3, #8]
 2347 02b6 9268     		ldr	r2, [r2, #8]
 2348 02b8 9A42     		cmp	r2, r3
 2349 02ba 02D2     		bcs	.L122
 2350 02bc 2148     		ldr	r0, .L150+12
 2351 02be FFF7FEFF 		bl	chSysHalt
 2352              	.LVL254:
 2353              	.L122:
 2354              	.LBB904:
 2355              	.LBB905:
 2356              	.LBB906:
 2357              		.loc 3 546 0
 2358 02c2 0023     		movs	r3, #0
 2359              		.syntax unified
 2360              	@ 546 "../../lib/e-puck2_main-processor/ChibiOS//os/ext/CMSIS/include/core_cmFunc.h" 1
 2361 02c4 83F31188 		MSR basepri, r3
 2362              	@ 0 "" 2
 2363              	.LVL255:
 2364              		.thumb
 2365              		.syntax unified
 2366              	.LBE906:
 2367              	.LBE905:
 2368              	.LBE904:
 2369              	.LBE903:
 2370              	.LBE902:
 2371              	.LBB907:
 2372              	.LBB908:
 2373              	.LBB909:
 2374              	.LBB910:
 2375              	.LBB911:
 2376 02c8 2024     		movs	r4, #32
 2377              		.syntax unified
 2378              	@ 546 "../../lib/e-puck2_main-processor/ChibiOS//os/ext/CMSIS/include/core_cmFunc.h" 1
 2379 02ca 84F31188 		MSR basepri, r4
 2380              	@ 0 "" 2
 2381              	.LVL256:
 2382              		.thumb
 2383              		.syntax unified
 2384              	.LBE911:
 2385              	.LBE910:
 2386              	.LBE909:
 2387              		.loc 2 349 0
 2388 02ce FFF7FEFF 		bl	_stats_start_measure_crit_thd
 2389              	.LVL257:
 2390              		.loc 2 350 0
 2391 02d2 FFF7FEFF 		bl	_dbg_check_lock
 2392              	.LVL258:
 2393              	.LBE908:
 2394              	.LBE907:
ARM GAS  C:\Users\mathi\AppData\Local\Temp\cc07f24f.s 			page 43


 2395              	.LBB912:
 2396              	.LBB913:
 2397              		.loc 4 355 0
 2398 02d6 FFF7FEFF 		bl	chDbgCheckClassI
 2399              	.LVL259:
 2400              		.loc 4 357 0
 2401 02da D5E90323 		ldrd	r2, r3, [r5, #12]
 2402              	.LBE913:
 2403              	.LBE912:
 2404              		.loc 1 212 0
 2405 02de A968     		ldr	r1, [r5, #8]
 2406              	.LBB915:
 2407              	.LBB914:
 2408              		.loc 4 357 0
 2409 02e0 9B1A     		subs	r3, r3, r2
 2410              	.LBE914:
 2411              	.LBE915:
 2412              		.loc 1 212 0
 2413 02e2 591A     		subs	r1, r3, r1
 2414 02e4 B1FA81F1 		clz	r1, r1
 2415 02e8 4909     		lsrs	r1, r1, #5
 2416 02ea 0920     		movs	r0, #9
 2417 02ec FFF7FEFF 		bl	_test_assert
 2418              	.LVL260:
 2419 02f0 8046     		mov	r8, r0
 2420              	.LVL261:
 2421 02f2 0028     		cmp	r0, #0
 2422 02f4 40F09380 		bne	.L125
 2423 02f8 FFF7FEFF 		bl	chSysUnlock
 2424              	.LVL262:
 2425              		.loc 1 215 0
 2426 02fc 7668     		ldr	r6, [r6, #4]
 2427 02fe 0F48     		ldr	r0, .L150+4
 2428 0300 4346     		mov	r3, r8
 2429 0302 3146     		mov	r1, r6
 2430 0304 0222     		movs	r2, #2
 2431 0306 FFF7FEFF 		bl	chOQWriteTimeout
 2432              	.LVL263:
 2433              		.loc 1 216 0
 2434 030a A0F10201 		sub	r1, r0, #2
 2435 030e B1FA81F1 		clz	r1, r1
 2436 0312 4909     		lsrs	r1, r1, #5
 2437 0314 0A20     		movs	r0, #10
 2438              	.LVL264:
 2439 0316 FFF7FEFF 		bl	_test_assert
 2440              	.LVL265:
 2441 031a 0346     		mov	r3, r0
 2442 031c 0028     		cmp	r0, #0
 2443 031e 52D1     		bne	.L95
 2444              		.loc 1 217 0
 2445 0320 3146     		mov	r1, r6
 2446 0322 0222     		movs	r2, #2
 2447 0324 0548     		ldr	r0, .L150+4
 2448 0326 FFF7FEFF 		bl	chOQWriteTimeout
 2449              	.LVL266:
 2450              		.loc 1 218 0
 2451 032a 821E     		subs	r2, r0, #2
ARM GAS  C:\Users\mathi\AppData\Local\Temp\cc07f24f.s 			page 44


 2452 032c 5142     		rsbs	r1, r2, #0
 2453 032e 5141     		adcs	r1, r1, r2
 2454 0330 0B20     		movs	r0, #11
 2455              	.LVL267:
 2456 0332 FFF7FEFF 		bl	_test_assert
 2457              	.LVL268:
 2458 0336 0FE0     		b	.L151
 2459              	.L152:
 2460              		.align	2
 2461              	.L150:
 2462 0338 00000000 		.word	__stack_chk_guard
 2463 033c 00000000 		.word	.LANCHOR2
 2464 0340 00000000 		.word	ch
 2465 0344 00000000 		.word	.LANCHOR1
 2466 0348 00000000 		.word	.LC0
 2467 034c 00000000 		.word	wa
 2468 0350 00000000 		.word	thread2
 2469 0354 00000000 		.word	threads
 2470              	.L151:
 2471              	.LVL269:
 2472 0358 0028     		cmp	r0, #0
 2473 035a 34D1     		bne	.L95
 2474              	.LVL270:
 2475              	.LBB916:
 2476              	.LBB917:
 2477              	.LBB918:
 2478              	.LBB919:
 2479              	.LBB920:
 2480              		.loc 3 546 0
 2481              		.syntax unified
 2482              	@ 546 "../../lib/e-puck2_main-processor/ChibiOS//os/ext/CMSIS/include/core_cmFunc.h" 1
 2483 035c 84F31188 		MSR basepri, r4
 2484              	@ 0 "" 2
 2485              	.LVL271:
 2486              		.thumb
 2487              		.syntax unified
 2488              	.LBE920:
 2489              	.LBE919:
 2490              	.LBE918:
 2491              		.loc 2 349 0
 2492 0360 FFF7FEFF 		bl	_stats_start_measure_crit_thd
 2493              	.LVL272:
 2494              		.loc 2 350 0
 2495 0364 FFF7FEFF 		bl	_dbg_check_lock
 2496              	.LVL273:
 2497              	.LBE917:
 2498              	.LBE916:
 2499              	.LBB921:
 2500              	.LBB922:
 2501              		.loc 4 405 0
 2502 0368 FFF7FEFF 		bl	chDbgCheckClassI
 2503              	.LVL274:
 2504              		.loc 4 407 0
 2505 036c A968     		ldr	r1, [r5, #8]
 2506              	.LBE922:
 2507              	.LBE921:
 2508              		.loc 1 219 0
ARM GAS  C:\Users\mathi\AppData\Local\Temp\cc07f24f.s 			page 45


 2509 036e B1FA81F1 		clz	r1, r1
 2510 0372 4909     		lsrs	r1, r1, #5
 2511 0374 0C20     		movs	r0, #12
 2512 0376 FFF7FEFF 		bl	_test_assert
 2513              	.LVL275:
 2514 037a 0446     		mov	r4, r0
 2515 037c 0028     		cmp	r0, #0
 2516 037e 4ED1     		bne	.L125
 2517 0380 FFF7FEFF 		bl	chSysUnlock
 2518              	.LVL276:
 2519              		.loc 1 222 0
 2520 0384 0A22     		movs	r2, #10
 2521 0386 2146     		mov	r1, r4
 2522 0388 2A48     		ldr	r0, .L153
 2523 038a FFF7FEFF 		bl	chOQPutTimeout
 2524              	.LVL277:
 2525 038e 039A     		ldr	r2, [sp, #12]
 2526 0390 3B68     		ldr	r3, [r7]
 2527 0392 9A42     		cmp	r2, r3
 2528 0394 4CD1     		bne	.L133
 2529 0396 431C     		adds	r3, r0, #1
 2530 0398 5942     		rsbs	r1, r3, #0
 2531 039a 5941     		adcs	r1, r1, r3
 2532 039c 0D20     		movs	r0, #13
 2533              	.LBE797:
 2534              	.LBE796:
 2535              		.loc 1 223 0
 2536 039e 05B0     		add	sp, sp, #20
 2537              		.cfi_remember_state
 2538              		.cfi_def_cfa_offset 36
 2539              		@ sp needed
 2540 03a0 BDE8F04F 		pop	{r4, r5, r6, r7, r8, r9, r10, fp, lr}
 2541              		.cfi_restore 14
 2542              		.cfi_restore 11
 2543              		.cfi_restore 10
 2544              		.cfi_restore 9
 2545              		.cfi_restore 8
 2546              		.cfi_restore 7
 2547              		.cfi_restore 6
 2548              		.cfi_restore 5
 2549              		.cfi_restore 4
 2550              		.cfi_def_cfa_offset 0
 2551              	.LBB937:
 2552              	.LBB933:
 2553              		.loc 1 222 0
 2554 03a4 FFF7FEBF 		b	_test_assert
 2555              	.LVL278:
 2556              	.L141:
 2557              		.cfi_restore_state
 2558              	.LBB923:
 2559              	.LBB924:
 2560              		.loc 2 360 0
 2561 03a8 FFF7FEFF 		bl	_dbg_check_unlock
 2562              	.LVL279:
 2563              		.loc 2 361 0
 2564 03ac FFF7FEFF 		bl	_stats_stop_measure_crit_thd
 2565              	.LVL280:
ARM GAS  C:\Users\mathi\AppData\Local\Temp\cc07f24f.s 			page 46


 2566              		.loc 2 367 0
 2567 03b0 2368     		ldr	r3, [r4]
 2568 03b2 A342     		cmp	r3, r4
 2569 03b4 04D0     		beq	.L120
 2570 03b6 A269     		ldr	r2, [r4, #24]
 2571 03b8 9B68     		ldr	r3, [r3, #8]
 2572 03ba 9268     		ldr	r2, [r2, #8]
 2573 03bc 9A42     		cmp	r2, r3
 2574 03be 16D3     		bcc	.L134
 2575              	.LVL281:
 2576              	.L120:
 2577              	.LBB925:
 2578              	.LBB926:
 2579              	.LBB927:
 2580              		.loc 3 546 0
 2581 03c0 0023     		movs	r3, #0
 2582              		.syntax unified
 2583              	@ 546 "../../lib/e-puck2_main-processor/ChibiOS//os/ext/CMSIS/include/core_cmFunc.h" 1
 2584 03c2 83F31188 		MSR basepri, r3
 2585              	@ 0 "" 2
 2586              	.LVL282:
 2587              		.thumb
 2588              		.syntax unified
 2589              	.L95:
 2590              	.LBE927:
 2591              	.LBE926:
 2592              	.LBE925:
 2593              	.LBE924:
 2594              	.LBE923:
 2595              	.LBE933:
 2596              	.LBE937:
 2597              		.loc 1 223 0
 2598 03c6 039A     		ldr	r2, [sp, #12]
 2599 03c8 3B68     		ldr	r3, [r7]
 2600 03ca 9A42     		cmp	r2, r3
 2601 03cc 30D1     		bne	.L133
 2602 03ce 05B0     		add	sp, sp, #20
 2603              		.cfi_remember_state
 2604              		.cfi_def_cfa_offset 36
 2605              		@ sp needed
 2606 03d0 BDE8F08F 		pop	{r4, r5, r6, r7, r8, r9, r10, fp, pc}
 2607              	.L146:
 2608              		.cfi_restore_state
 2609              	.LBB938:
 2610              	.LBB939:
 2611              		.loc 2 360 0
 2612 03d4 FFF7FEFF 		bl	_dbg_check_unlock
 2613              	.LVL283:
 2614              		.loc 2 361 0
 2615 03d8 FFF7FEFF 		bl	_stats_stop_measure_crit_thd
 2616              	.LVL284:
 2617              		.loc 2 367 0
 2618 03dc 164B     		ldr	r3, .L153+4
 2619 03de 1A68     		ldr	r2, [r3]
 2620 03e0 9A42     		cmp	r2, r3
 2621 03e2 EDD0     		beq	.L120
 2622 03e4 9969     		ldr	r1, [r3, #24]
ARM GAS  C:\Users\mathi\AppData\Local\Temp\cc07f24f.s 			page 47


 2623 03e6 9368     		ldr	r3, [r2, #8]
 2624 03e8 8A68     		ldr	r2, [r1, #8]
 2625 03ea 9A42     		cmp	r2, r3
 2626 03ec E8D2     		bcs	.L120
 2627              	.L134:
 2628              	.LBE939:
 2629              	.LBE938:
 2630              	.LBB940:
 2631              	.LBB934:
 2632              	.LBB929:
 2633              	.LBB928:
 2634 03ee 1348     		ldr	r0, .L153+8
 2635 03f0 FFF7FEFF 		bl	chSysHalt
 2636              	.LVL285:
 2637 03f4 E4E7     		b	.L120
 2638              	.LVL286:
 2639              	.L145:
 2640              	.LBE928:
 2641              	.LBE929:
 2642              	.LBE934:
 2643              	.LBE940:
 2644              	.LBB941:
 2645              	.LBB793:
 2646              		.loc 4 390 0
 2647 03f6 A968     		ldr	r1, [r5, #8]
 2648 03f8 0031     		adds	r1, r1, #0
 2649 03fa 18BF     		it	ne
 2650 03fc 0121     		movne	r1, #1
 2651 03fe 15E6     		b	.L96
 2652              	.LVL287:
 2653              	.L147:
 2654              	.LBE793:
 2655              	.LBE941:
 2656              	.LBB942:
 2657              	.LBB935:
 2658              	.LBB930:
 2659              	.LBB807:
 2660              		.loc 2 367 0
 2661 0400 0E48     		ldr	r0, .L153+8
 2662 0402 FFF7FEFF 		bl	chSysHalt
 2663              	.LVL288:
 2664 0406 25E6     		b	.L100
 2665              	.LVL289:
 2666              	.L148:
 2667              	.LBE807:
 2668              	.LBE930:
 2669              	.LBB931:
 2670              	.LBB829:
 2671 0408 0C48     		ldr	r0, .L153+8
 2672 040a FFF7FEFF 		bl	chSysHalt
 2673              	.LVL290:
 2674 040e 52E6     		b	.L104
 2675              	.LVL291:
 2676              	.L149:
 2677              	.LBE829:
 2678              	.LBE931:
 2679              	.LBB932:
ARM GAS  C:\Users\mathi\AppData\Local\Temp\cc07f24f.s 			page 48


 2680              	.LBB850:
 2681              		.loc 4 390 0
 2682 0410 AB68     		ldr	r3, [r5, #8]
 2683 0412 13F10009 		adds	r9, r3, #0
 2684 0416 18BF     		it	ne
 2685 0418 4FF00109 		movne	r9, #1
 2686 041c 83E6     		b	.L107
 2687              	.LVL292:
 2688              	.L125:
 2689              	.LBE850:
 2690              	.LBE932:
 2691              		.loc 1 212 0
 2692 041e 039A     		ldr	r2, [sp, #12]
 2693 0420 3B68     		ldr	r3, [r7]
 2694 0422 9A42     		cmp	r2, r3
 2695 0424 04D1     		bne	.L133
 2696              	.LBE935:
 2697              	.LBE942:
 2698              		.loc 1 223 0
 2699 0426 05B0     		add	sp, sp, #20
 2700              		.cfi_remember_state
 2701              		.cfi_def_cfa_offset 36
 2702              		@ sp needed
 2703 0428 BDE8F04F 		pop	{r4, r5, r6, r7, r8, r9, r10, fp, lr}
 2704              		.cfi_restore 14
 2705              		.cfi_restore 11
 2706              		.cfi_restore 10
 2707              		.cfi_restore 9
 2708              		.cfi_restore 8
 2709              		.cfi_restore 7
 2710              		.cfi_restore 6
 2711              		.cfi_restore 5
 2712              		.cfi_restore 4
 2713              		.cfi_def_cfa_offset 0
 2714              	.LBB943:
 2715              	.LBB936:
 2716              		.loc 1 212 0
 2717 042c FFF7FEBF 		b	chSysUnlock
 2718              	.LVL293:
 2719              	.L133:
 2720              		.cfi_restore_state
 2721              	.LBE936:
 2722              	.LBE943:
 2723              		.loc 1 223 0
 2724 0430 FFF7FEFF 		bl	__stack_chk_fail
 2725              	.LVL294:
 2726              	.L154:
 2727              		.align	2
 2728              	.L153:
 2729 0434 00000000 		.word	.LANCHOR2
 2730 0438 00000000 		.word	ch
 2731 043c 00000000 		.word	.LANCHOR1
 2732              		.cfi_endproc
 2733              	.LFE225:
 2734              		.size	queues2_execute, .-queues2_execute
 2735              		.global	patternqueues
 2736              		.global	testqueues2
ARM GAS  C:\Users\mathi\AppData\Local\Temp\cc07f24f.s 			page 49


 2737              		.global	testqueues1
 2738              		.section	.data.iq,"aw",%progbits
 2739              		.align	2
 2740              		.set	.LANCHOR0,. + 0
 2741              		.type	iq, %object
 2742              		.size	iq, 36
 2743              	iq:
 2744 0000 00000000 		.word	iq
 2745 0004 00000000 		.word	iq
 2746 0008 00000000 		.word	0
 2747 000c 00000000 		.word	test
 2748 0010 04000000 		.word	test+4
 2749 0014 00000000 		.word	test
 2750 0018 00000000 		.word	test
 2751 001c 00000000 		.word	notify
 2752 0020 00000000 		.word	0
 2753              		.section	.data.oq,"aw",%progbits
 2754              		.align	2
 2755              		.set	.LANCHOR2,. + 0
 2756              		.type	oq, %object
 2757              		.size	oq, 36
 2758              	oq:
 2759 0000 00000000 		.word	oq
 2760 0004 00000000 		.word	oq
 2761 0008 04000000 		.word	4
 2762 000c F8010000 		.word	test+504
 2763 0010 FC010000 		.word	test+508
 2764 0014 F8010000 		.word	test+504
 2765 0018 F8010000 		.word	test+504
 2766 001c 00000000 		.word	notify
 2767 0020 00000000 		.word	0
 2768              		.section	.rodata.__func__.7153,"a",%progbits
 2769              		.align	2
 2770              		.set	.LANCHOR1,. + 0
 2771              		.type	__func__.7153, %object
 2772              		.size	__func__.7153, 12
 2773              	__func__.7153:
 2774 0000 63685379 		.ascii	"chSysUnlock\000"
 2774      73556E6C 
 2774      6F636B00 
 2775              		.section	.rodata.patternqueues,"a",%progbits
 2776              		.align	2
 2777              		.type	patternqueues, %object
 2778              		.size	patternqueues, 12
 2779              	patternqueues:
 2780 0000 00000000 		.word	testqueues1
 2781 0004 00000000 		.word	testqueues2
 2782 0008 00000000 		.word	0
 2783              		.section	.rodata.queues1_execute.str1.4,"aMS",%progbits,1
 2784              		.align	2
 2785              	.LC0:
 2786 0000 41424344 		.ascii	"ABCD\000"
 2786      00
 2787              		.section	.rodata.str1.4,"aMS",%progbits,1
 2788              		.align	2
 2789              	.LC1:
 2790 0000 51756575 		.ascii	"Queues, output queues\000"
ARM GAS  C:\Users\mathi\AppData\Local\Temp\cc07f24f.s 			page 50


 2790      65732C20 
 2790      6F757470 
 2790      75742071 
 2790      75657565 
 2791 0016 0000     		.space	2
 2792              	.LC2:
 2793 0018 51756575 		.ascii	"Queues, input queues\000"
 2793      65732C20 
 2793      696E7075 
 2793      74207175 
 2793      65756573 
 2794              		.section	.rodata.testqueues1,"a",%progbits
 2795              		.align	2
 2796              		.type	testqueues1, %object
 2797              		.size	testqueues1, 16
 2798              	testqueues1:
 2799 0000 18000000 		.word	.LC2
 2800 0004 00000000 		.word	queues1_setup
 2801 0008 00000000 		.word	0
 2802 000c 00000000 		.word	queues1_execute
 2803              		.section	.rodata.testqueues2,"a",%progbits
 2804              		.align	2
 2805              		.type	testqueues2, %object
 2806              		.size	testqueues2, 16
 2807              	testqueues2:
 2808 0000 00000000 		.word	.LC1
 2809 0004 00000000 		.word	queues2_setup
 2810 0008 00000000 		.word	0
 2811 000c 00000000 		.word	queues2_execute
 2812              		.text
 2813              	.Letext0:
 2814              		.file 6 "c:\\eclipse_e-puck2\\tools\\gcc-arm-none-eabi-7-2017-q4-major-win32\\lib\\gcc\\arm-none-e
 2815              		.file 7 "c:\\eclipse_e-puck2\\tools\\gcc-arm-none-eabi-7-2017-q4-major-win32\\arm-none-eabi\\inclu
 2816              		.file 8 "c:\\eclipse_e-puck2\\tools\\gcc-arm-none-eabi-7-2017-q4-major-win32\\arm-none-eabi\\inclu
 2817              		.file 9 "../../lib/e-puck2_main-processor/ChibiOS//os/rt/ports/ARMCMx/compilers/GCC/chtypes.h"
 2818              		.file 10 "../../lib/e-puck2_main-processor/ChibiOS//os/rt/include/chsystypes.h"
 2819              		.file 11 "../../lib/e-puck2_main-processor/ChibiOS//os/rt/include/chschd.h"
 2820              		.file 12 "../../lib/e-puck2_main-processor/ChibiOS//os/ext/CMSIS/include/core_cm4.h"
 2821              		.file 13 "../../lib/e-puck2_main-processor/ChibiOS//os/ext/CMSIS/ST/system_stm32f4xx.h"
 2822              		.file 14 "../../lib/e-puck2_main-processor/ChibiOS//os/rt/ports/ARMCMx/chcore.h"
 2823              		.file 15 "../../lib/e-puck2_main-processor/ChibiOS//os/rt/ports/ARMCMx/chcore_v7m.h"
 2824              		.file 16 "../../lib/e-puck2_main-processor/ChibiOS//os/rt/include/chdebug.h"
 2825              		.file 17 "../../lib/e-puck2_main-processor/ChibiOS//os/rt/include/chtm.h"
 2826              		.file 18 "../../lib/e-puck2_main-processor/ChibiOS//os/rt/include/chstats.h"
 2827              		.file 19 "../../lib/e-puck2_main-processor/ChibiOS//os/rt/include/chsem.h"
 2828              		.file 20 "../../lib/e-puck2_main-processor/ChibiOS//os/rt/include/chmtx.h"
 2829              		.file 21 "../../lib/e-puck2_main-processor/ChibiOS//os/rt/include/chregistry.h"
 2830              		.file 22 "../../lib/e-puck2_main-processor/ChibiOS//test/rt/test.h"