ARM GAS  C:\Users\mathi\AppData\Local\Temp\ccFSJwpz.s 			page 1


   1              		.cpu cortex-m4
   2              		.eabi_attribute 27, 1
   3              		.eabi_attribute 28, 1
   4              		.eabi_attribute 20, 1
   5              		.eabi_attribute 21, 1
   6              		.eabi_attribute 23, 3
   7              		.eabi_attribute 24, 1
   8              		.eabi_attribute 25, 1
   9              		.eabi_attribute 26, 1
  10              		.eabi_attribute 30, 2
  11              		.eabi_attribute 34, 1
  12              		.eabi_attribute 18, 4
  13              		.file	"testmtx.c"
  14              		.text
  15              	.Ltext0:
  16              		.cfi_sections	.debug_frame
  17              		.section	.text.mtx1_execute,"ax",%progbits
  18              		.align	1
  19              		.p2align 4,,15
  20              		.syntax unified
  21              		.thumb
  22              		.thumb_func
  23              		.fpu fpv4-sp-d16
  24              		.type	mtx1_execute, %function
  25              	mtx1_execute:
  26              	.LFB221:
  27              		.file 1 "../../lib/e-puck2_main-processor/ChibiOS//test/rt/testmtx.c"
  28              		.loc 1 96 0
  29              		.cfi_startproc
  30              		@ args = 0, pretend = 0, frame = 8
  31              		@ frame_needed = 0, uses_anonymous_args = 0
  32 0000 2DE9F041 		push	{r4, r5, r6, r7, r8, lr}
  33              		.cfi_def_cfa_offset 24
  34              		.cfi_offset 4, -24
  35              		.cfi_offset 5, -20
  36              		.cfi_offset 6, -16
  37              		.cfi_offset 7, -12
  38              		.cfi_offset 8, -8
  39              		.cfi_offset 14, -4
  40              	.LBB167:
  41              	.LBB168:
  42              	.LBB169:
  43              	.LBB170:
  44              		.file 2 "../../lib/e-puck2_main-processor/ChibiOS//os/rt/include/chthreads.h"
  45              		.loc 2 176 0
  46 0004 324F     		ldr	r7, .L9
  47              	.LBE170:
  48              	.LBE169:
  49              	.LBE168:
  50              	.LBE167:
  51              		.loc 1 96 0
  52 0006 DFF8F480 		ldr	r8, .L9+44
  53              	.LBB173:
  54              	.LBB171:
  55              		.loc 2 189 0
  56 000a BA69     		ldr	r2, [r7, #24]
  57              	.LBE171:
ARM GAS  C:\Users\mathi\AppData\Local\Temp\ccFSJwpz.s 			page 2


  58              	.LBE173:
  59              		.loc 1 100 0
  60 000c 314E     		ldr	r6, .L9+4
  61              	.LBB174:
  62              	.LBB172:
  63              		.loc 2 189 0
  64 000e 9468     		ldr	r4, [r2, #8]
  65              	.LBE172:
  66              	.LBE174:
  67              		.loc 1 96 0
  68 0010 D8F80030 		ldr	r3, [r8]
  69              		.loc 1 99 0
  70 0014 3048     		ldr	r0, .L9+8
  71              		.loc 1 100 0
  72 0016 314D     		ldr	r5, .L9+12
  73              		.loc 1 96 0
  74 0018 84B0     		sub	sp, sp, #16
  75              		.cfi_def_cfa_offset 40
  76              		.loc 1 96 0
  77 001a 0393     		str	r3, [sp, #12]
  78              		.loc 1 99 0
  79 001c FFF7FEFF 		bl	chMtxLock
  80              	.LVL0:
  81              		.loc 1 100 0
  82 0020 2F4B     		ldr	r3, .L9+16
  83 0022 0093     		str	r3, [sp]
  84 0024 621C     		adds	r2, r4, #1
  85 0026 2F4B     		ldr	r3, .L9+20
  86 0028 3068     		ldr	r0, [r6]
  87 002a 4FF4FC71 		mov	r1, #504
  88 002e FFF7FEFF 		bl	chThdCreateStatic
  89              	.LVL1:
  90              		.loc 1 101 0
  91 0032 7168     		ldr	r1, [r6, #4]
  92 0034 2C4B     		ldr	r3, .L9+24
  93              		.loc 1 100 0
  94 0036 2860     		str	r0, [r5]
  95              		.loc 1 101 0
  96 0038 A21C     		adds	r2, r4, #2
  97 003a 0846     		mov	r0, r1
  98 003c 0093     		str	r3, [sp]
  99 003e 4FF4FC71 		mov	r1, #504
 100 0042 284B     		ldr	r3, .L9+20
 101 0044 FFF7FEFF 		bl	chThdCreateStatic
 102              	.LVL2:
 103              		.loc 1 102 0
 104 0048 B168     		ldr	r1, [r6, #8]
 105 004a 284B     		ldr	r3, .L9+28
 106              		.loc 1 101 0
 107 004c 6860     		str	r0, [r5, #4]
 108              		.loc 1 102 0
 109 004e E21C     		adds	r2, r4, #3
 110 0050 0846     		mov	r0, r1
 111 0052 0093     		str	r3, [sp]
 112 0054 4FF4FC71 		mov	r1, #504
 113 0058 224B     		ldr	r3, .L9+20
 114 005a FFF7FEFF 		bl	chThdCreateStatic
ARM GAS  C:\Users\mathi\AppData\Local\Temp\ccFSJwpz.s 			page 3


 115              	.LVL3:
 116              		.loc 1 103 0
 117 005e F168     		ldr	r1, [r6, #12]
 118 0060 234B     		ldr	r3, .L9+32
 119              		.loc 1 102 0
 120 0062 A860     		str	r0, [r5, #8]
 121              		.loc 1 103 0
 122 0064 221D     		adds	r2, r4, #4
 123 0066 0846     		mov	r0, r1
 124 0068 0093     		str	r3, [sp]
 125 006a 4FF4FC71 		mov	r1, #504
 126 006e 1D4B     		ldr	r3, .L9+20
 127 0070 FFF7FEFF 		bl	chThdCreateStatic
 128              	.LVL4:
 129              		.loc 1 104 0
 130 0074 3169     		ldr	r1, [r6, #16]
 131 0076 1F4B     		ldr	r3, .L9+36
 132              		.loc 1 103 0
 133 0078 E860     		str	r0, [r5, #12]
 134              		.loc 1 104 0
 135 007a 621D     		adds	r2, r4, #5
 136 007c 0846     		mov	r0, r1
 137 007e 0093     		str	r3, [sp]
 138 0080 4FF4FC71 		mov	r1, #504
 139 0084 174B     		ldr	r3, .L9+20
 140 0086 FFF7FEFF 		bl	chThdCreateStatic
 141              	.LVL5:
 142 008a 2861     		str	r0, [r5, #16]
 143              		.loc 1 105 0
 144 008c 1248     		ldr	r0, .L9+8
 145 008e FFF7FEFF 		bl	chMtxUnlock
 146              	.LVL6:
 147              		.loc 1 106 0
 148 0092 FFF7FEFF 		bl	test_wait_threads
 149              	.LVL7:
 150              	.LBB175:
 151              	.LBB176:
 152              		.loc 2 189 0
 153 0096 BB69     		ldr	r3, [r7, #24]
 154              	.LBE176:
 155              	.LBE175:
 156              		.loc 1 107 0
 157 0098 9968     		ldr	r1, [r3, #8]
 158 009a 091B     		subs	r1, r1, r4
 159 009c B1FA81F1 		clz	r1, r1
 160 00a0 0120     		movs	r0, #1
 161 00a2 4909     		lsrs	r1, r1, #5
 162 00a4 FFF7FEFF 		bl	_test_assert
 163              	.LVL8:
 164              		.loc 1 109 0
 165 00a8 039A     		ldr	r2, [sp, #12]
 166 00aa D8F80030 		ldr	r3, [r8]
 167              		.loc 1 107 0
 168 00ae 20B1     		cbz	r0, .L8
 169              		.loc 1 109 0
 170 00b0 9A42     		cmp	r2, r3
 171 00b2 0BD1     		bne	.L6
ARM GAS  C:\Users\mathi\AppData\Local\Temp\ccFSJwpz.s 			page 4


 172 00b4 04B0     		add	sp, sp, #16
 173              		.cfi_remember_state
 174              		.cfi_def_cfa_offset 24
 175              		@ sp needed
 176 00b6 BDE8F081 		pop	{r4, r5, r6, r7, r8, pc}
 177              	.L8:
 178              		.cfi_restore_state
 179              		.loc 1 108 0
 180 00ba 9A42     		cmp	r2, r3
 181 00bc 06D1     		bne	.L6
 182 00be 0E49     		ldr	r1, .L9+40
 183 00c0 0220     		movs	r0, #2
 184              		.loc 1 109 0
 185 00c2 04B0     		add	sp, sp, #16
 186              		.cfi_remember_state
 187              		.cfi_def_cfa_offset 24
 188              		@ sp needed
 189 00c4 BDE8F041 		pop	{r4, r5, r6, r7, r8, lr}
 190              		.cfi_restore 14
 191              		.cfi_restore 8
 192              		.cfi_restore 7
 193              		.cfi_restore 6
 194              		.cfi_restore 5
 195              		.cfi_restore 4
 196              		.cfi_def_cfa_offset 0
 197              		.loc 1 108 0
 198 00c8 FFF7FEBF 		b	_test_assert_sequence
 199              	.LVL9:
 200              	.L6:
 201              		.cfi_restore_state
 202              		.loc 1 109 0
 203 00cc FFF7FEFF 		bl	__stack_chk_fail
 204              	.LVL10:
 205              	.L10:
 206              		.align	2
 207              	.L9:
 208 00d0 00000000 		.word	ch
 209 00d4 00000000 		.word	wa
 210 00d8 00000000 		.word	.LANCHOR0
 211 00dc 00000000 		.word	threads
 212 00e0 00000000 		.word	.LC0
 213 00e4 00000000 		.word	thread1
 214 00e8 04000000 		.word	.LC1
 215 00ec 08000000 		.word	.LC2
 216 00f0 0C000000 		.word	.LC3
 217 00f4 10000000 		.word	.LC4
 218 00f8 14000000 		.word	.LC5
 219 00fc 00000000 		.word	__stack_chk_guard
 220              		.cfi_endproc
 221              	.LFE221:
 222              		.size	mtx1_execute, .-mtx1_execute
 223              		.section	.text.thread1,"ax",%progbits
 224              		.align	1
 225              		.p2align 4,,15
 226              		.syntax unified
 227              		.thumb
 228              		.thumb_func
ARM GAS  C:\Users\mathi\AppData\Local\Temp\ccFSJwpz.s 			page 5


 229              		.fpu fpv4-sp-d16
 230              		.type	thread1, %function
 231              	thread1:
 232              	.LFB220:
 233              		.loc 1 89 0
 234              		.cfi_startproc
 235              		@ args = 0, pretend = 0, frame = 8
 236              		@ frame_needed = 0, uses_anonymous_args = 0
 237              	.LVL11:
 238 0000 30B5     		push	{r4, r5, lr}
 239              		.cfi_def_cfa_offset 12
 240              		.cfi_offset 4, -12
 241              		.cfi_offset 5, -8
 242              		.cfi_offset 14, -4
 243 0002 0B4C     		ldr	r4, .L16
 244 0004 83B0     		sub	sp, sp, #12
 245              		.cfi_def_cfa_offset 24
 246              		.loc 1 89 0
 247 0006 0546     		mov	r5, r0
 248 0008 2368     		ldr	r3, [r4]
 249              		.loc 1 91 0
 250 000a 0A48     		ldr	r0, .L16+4
 251              	.LVL12:
 252              		.loc 1 89 0
 253 000c 0193     		str	r3, [sp, #4]
 254              		.loc 1 91 0
 255 000e FFF7FEFF 		bl	chMtxLock
 256              	.LVL13:
 257              		.loc 1 92 0
 258 0012 2878     		ldrb	r0, [r5]	@ zero_extendqisi2
 259 0014 FFF7FEFF 		bl	test_emit_token
 260              	.LVL14:
 261              		.loc 1 93 0
 262 0018 019A     		ldr	r2, [sp, #4]
 263 001a 2368     		ldr	r3, [r4]
 264 001c 9A42     		cmp	r2, r3
 265 001e 05D1     		bne	.L15
 266 0020 0448     		ldr	r0, .L16+4
 267              		.loc 1 94 0
 268 0022 03B0     		add	sp, sp, #12
 269              		.cfi_remember_state
 270              		.cfi_def_cfa_offset 12
 271              		@ sp needed
 272 0024 BDE83040 		pop	{r4, r5, lr}
 273              		.cfi_restore 14
 274              		.cfi_restore 5
 275              		.cfi_restore 4
 276              		.cfi_def_cfa_offset 0
 277              	.LVL15:
 278              		.loc 1 93 0
 279 0028 FFF7FEBF 		b	chMtxUnlock
 280              	.LVL16:
 281              	.L15:
 282              		.cfi_restore_state
 283 002c FFF7FEFF 		bl	__stack_chk_fail
 284              	.LVL17:
 285              	.L17:
ARM GAS  C:\Users\mathi\AppData\Local\Temp\ccFSJwpz.s 			page 6


 286              		.align	2
 287              	.L16:
 288 0030 00000000 		.word	__stack_chk_guard
 289 0034 00000000 		.word	.LANCHOR0
 290              		.cfi_endproc
 291              	.LFE220:
 292              		.size	thread1, .-thread1
 293              		.section	.text.thread12,"ax",%progbits
 294              		.align	1
 295              		.p2align 4,,15
 296              		.syntax unified
 297              		.thumb
 298              		.thumb_func
 299              		.fpu fpv4-sp-d16
 300              		.type	thread12, %function
 301              	thread12:
 302              	.LFB247:
 303              		.loc 1 576 0
 304              		.cfi_startproc
 305              		@ args = 0, pretend = 0, frame = 8
 306              		@ frame_needed = 0, uses_anonymous_args = 0
 307              	.LVL18:
 308 0000 30B5     		push	{r4, r5, lr}
 309              		.cfi_def_cfa_offset 12
 310              		.cfi_offset 4, -12
 311              		.cfi_offset 5, -8
 312              		.cfi_offset 14, -4
 313 0002 0B4C     		ldr	r4, .L23
 314 0004 83B0     		sub	sp, sp, #12
 315              		.cfi_def_cfa_offset 24
 316              		.loc 1 576 0
 317 0006 0546     		mov	r5, r0
 318 0008 2368     		ldr	r3, [r4]
 319              		.loc 1 578 0
 320 000a 0A48     		ldr	r0, .L23+4
 321              	.LVL19:
 322              		.loc 1 576 0
 323 000c 0193     		str	r3, [sp, #4]
 324              		.loc 1 578 0
 325 000e FFF7FEFF 		bl	chMtxLock
 326              	.LVL20:
 327              		.loc 1 579 0
 328 0012 2878     		ldrb	r0, [r5]	@ zero_extendqisi2
 329 0014 FFF7FEFF 		bl	test_emit_token
 330              	.LVL21:
 331              		.loc 1 580 0
 332 0018 019A     		ldr	r2, [sp, #4]
 333 001a 2368     		ldr	r3, [r4]
 334 001c 9A42     		cmp	r2, r3
 335 001e 05D1     		bne	.L22
 336 0020 0448     		ldr	r0, .L23+4
 337              		.loc 1 581 0
 338 0022 03B0     		add	sp, sp, #12
 339              		.cfi_remember_state
 340              		.cfi_def_cfa_offset 12
 341              		@ sp needed
 342 0024 BDE83040 		pop	{r4, r5, lr}
ARM GAS  C:\Users\mathi\AppData\Local\Temp\ccFSJwpz.s 			page 7


 343              		.cfi_restore 14
 344              		.cfi_restore 5
 345              		.cfi_restore 4
 346              		.cfi_def_cfa_offset 0
 347              	.LVL22:
 348              		.loc 1 580 0
 349 0028 FFF7FEBF 		b	chMtxUnlock
 350              	.LVL23:
 351              	.L22:
 352              		.cfi_restore_state
 353 002c FFF7FEFF 		bl	__stack_chk_fail
 354              	.LVL24:
 355              	.L24:
 356              		.align	2
 357              	.L23:
 358 0030 00000000 		.word	__stack_chk_guard
 359 0034 00000000 		.word	.LANCHOR1
 360              		.cfi_endproc
 361              	.LFE247:
 362              		.size	thread12, .-thread12
 363              		.section	.text.mtx1_setup,"ax",%progbits
 364              		.align	1
 365              		.p2align 4,,15
 366              		.syntax unified
 367              		.thumb
 368              		.thumb_func
 369              		.fpu fpv4-sp-d16
 370              		.type	mtx1_setup, %function
 371              	mtx1_setup:
 372              	.LFB219:
 373              		.loc 1 84 0
 374              		.cfi_startproc
 375              		@ args = 0, pretend = 0, frame = 8
 376              		@ frame_needed = 0, uses_anonymous_args = 0
 377 0000 00B5     		push	{lr}
 378              		.cfi_def_cfa_offset 4
 379              		.cfi_offset 14, -4
 380 0002 084B     		ldr	r3, .L30
 381 0004 83B0     		sub	sp, sp, #12
 382              		.cfi_def_cfa_offset 16
 383              		.loc 1 84 0
 384 0006 1A68     		ldr	r2, [r3]
 385 0008 0192     		str	r2, [sp, #4]
 386              		.loc 1 86 0
 387 000a 019A     		ldr	r2, [sp, #4]
 388 000c 1B68     		ldr	r3, [r3]
 389 000e 9A42     		cmp	r2, r3
 390 0010 05D1     		bne	.L29
 391 0012 0548     		ldr	r0, .L30+4
 392              		.loc 1 87 0
 393 0014 03B0     		add	sp, sp, #12
 394              		.cfi_remember_state
 395              		.cfi_def_cfa_offset 4
 396              		@ sp needed
 397 0016 5DF804EB 		ldr	lr, [sp], #4
 398              		.cfi_restore 14
 399              		.cfi_def_cfa_offset 0
ARM GAS  C:\Users\mathi\AppData\Local\Temp\ccFSJwpz.s 			page 8


 400              		.loc 1 86 0
 401 001a FFF7FEBF 		b	chMtxObjectInit
 402              	.LVL25:
 403              	.L29:
 404              		.cfi_restore_state
 405 001e FFF7FEFF 		bl	__stack_chk_fail
 406              	.LVL26:
 407              	.L31:
 408 0022 00BF     		.align	2
 409              	.L30:
 410 0024 00000000 		.word	__stack_chk_guard
 411 0028 00000000 		.word	.LANCHOR0
 412              		.cfi_endproc
 413              	.LFE219:
 414              		.size	mtx1_setup, .-mtx1_setup
 415              		.section	.text.mtx3_setup,"ax",%progbits
 416              		.align	1
 417              		.p2align 4,,15
 418              		.syntax unified
 419              		.thumb
 420              		.thumb_func
 421              		.fpu fpv4-sp-d16
 422              		.type	mtx3_setup, %function
 423              	mtx3_setup:
 424              	.LFB227:
 425              		.loc 1 237 0
 426              		.cfi_startproc
 427              		@ args = 0, pretend = 0, frame = 8
 428              		@ frame_needed = 0, uses_anonymous_args = 0
 429 0000 10B5     		push	{r4, lr}
 430              		.cfi_def_cfa_offset 8
 431              		.cfi_offset 4, -8
 432              		.cfi_offset 14, -4
 433 0002 094C     		ldr	r4, .L37
 434              		.loc 1 239 0
 435 0004 0948     		ldr	r0, .L37+4
 436              		.loc 1 237 0
 437 0006 2368     		ldr	r3, [r4]
 438 0008 82B0     		sub	sp, sp, #8
 439              		.cfi_def_cfa_offset 16
 440              		.loc 1 237 0
 441 000a 0193     		str	r3, [sp, #4]
 442              		.loc 1 239 0
 443 000c FFF7FEFF 		bl	chMtxObjectInit
 444              	.LVL27:
 445              		.loc 1 240 0
 446 0010 019A     		ldr	r2, [sp, #4]
 447 0012 2368     		ldr	r3, [r4]
 448 0014 9A42     		cmp	r2, r3
 449 0016 05D1     		bne	.L36
 450 0018 0548     		ldr	r0, .L37+8
 451              		.loc 1 241 0
 452 001a 02B0     		add	sp, sp, #8
 453              		.cfi_remember_state
 454              		.cfi_def_cfa_offset 8
 455              		@ sp needed
 456 001c BDE81040 		pop	{r4, lr}
ARM GAS  C:\Users\mathi\AppData\Local\Temp\ccFSJwpz.s 			page 9


 457              		.cfi_restore 14
 458              		.cfi_restore 4
 459              		.cfi_def_cfa_offset 0
 460              		.loc 1 240 0
 461 0020 FFF7FEBF 		b	chMtxObjectInit
 462              	.LVL28:
 463              	.L36:
 464              		.cfi_restore_state
 465 0024 FFF7FEFF 		bl	__stack_chk_fail
 466              	.LVL29:
 467              	.L38:
 468              		.align	2
 469              	.L37:
 470 0028 00000000 		.word	__stack_chk_guard
 471 002c 00000000 		.word	.LANCHOR0
 472 0030 00000000 		.word	.LANCHOR1
 473              		.cfi_endproc
 474              	.LFE227:
 475              		.size	mtx3_setup, .-mtx3_setup
 476              		.section	.text.thread2L,"ax",%progbits
 477              		.align	1
 478              		.p2align 4,,15
 479              		.syntax unified
 480              		.thumb
 481              		.thumb_func
 482              		.fpu fpv4-sp-d16
 483              		.type	thread2L, %function
 484              	thread2L:
 485              	.LFB223:
 486              		.loc 1 156 0
 487              		.cfi_startproc
 488              		@ args = 0, pretend = 0, frame = 8
 489              		@ frame_needed = 0, uses_anonymous_args = 0
 490              	.LVL30:
 491 0000 10B5     		push	{r4, lr}
 492              		.cfi_def_cfa_offset 8
 493              		.cfi_offset 4, -8
 494              		.cfi_offset 14, -4
 495 0002 0E4C     		ldr	r4, .L44
 496              		.loc 1 159 0
 497 0004 0E48     		ldr	r0, .L44+4
 498              	.LVL31:
 499              		.loc 1 156 0
 500 0006 2368     		ldr	r3, [r4]
 501 0008 82B0     		sub	sp, sp, #8
 502              		.cfi_def_cfa_offset 16
 503              		.loc 1 156 0
 504 000a 0193     		str	r3, [sp, #4]
 505              		.loc 1 159 0
 506 000c FFF7FEFF 		bl	chMtxLock
 507              	.LVL32:
 508              		.loc 1 160 0
 509 0010 2820     		movs	r0, #40
 510 0012 FFF7FEFF 		bl	test_cpu_pulse
 511              	.LVL33:
 512              		.loc 1 161 0
 513 0016 0A48     		ldr	r0, .L44+4
ARM GAS  C:\Users\mathi\AppData\Local\Temp\ccFSJwpz.s 			page 10


 514 0018 FFF7FEFF 		bl	chMtxUnlock
 515              	.LVL34:
 516              		.loc 1 162 0
 517 001c 0A20     		movs	r0, #10
 518 001e FFF7FEFF 		bl	test_cpu_pulse
 519              	.LVL35:
 520              		.loc 1 163 0
 521 0022 019A     		ldr	r2, [sp, #4]
 522 0024 2368     		ldr	r3, [r4]
 523 0026 9A42     		cmp	r2, r3
 524 0028 05D1     		bne	.L43
 525 002a 4320     		movs	r0, #67
 526              		.loc 1 164 0
 527 002c 02B0     		add	sp, sp, #8
 528              		.cfi_remember_state
 529              		.cfi_def_cfa_offset 8
 530              		@ sp needed
 531 002e BDE81040 		pop	{r4, lr}
 532              		.cfi_restore 14
 533              		.cfi_restore 4
 534              		.cfi_def_cfa_offset 0
 535              		.loc 1 163 0
 536 0032 FFF7FEBF 		b	test_emit_token
 537              	.LVL36:
 538              	.L43:
 539              		.cfi_restore_state
 540 0036 FFF7FEFF 		bl	__stack_chk_fail
 541              	.LVL37:
 542              	.L45:
 543 003a 00BF     		.align	2
 544              	.L44:
 545 003c 00000000 		.word	__stack_chk_guard
 546 0040 00000000 		.word	.LANCHOR0
 547              		.cfi_endproc
 548              	.LFE223:
 549              		.size	thread2L, .-thread2L
 550              		.section	.text.thread3LL,"ax",%progbits
 551              		.align	1
 552              		.p2align 4,,15
 553              		.syntax unified
 554              		.thumb
 555              		.thumb_func
 556              		.fpu fpv4-sp-d16
 557              		.type	thread3LL, %function
 558              	thread3LL:
 559              	.LFB228:
 560              		.loc 1 244 0
 561              		.cfi_startproc
 562              		@ args = 0, pretend = 0, frame = 8
 563              		@ frame_needed = 0, uses_anonymous_args = 0
 564              	.LVL38:
 565 0000 10B5     		push	{r4, lr}
 566              		.cfi_def_cfa_offset 8
 567              		.cfi_offset 4, -8
 568              		.cfi_offset 14, -4
 569 0002 0C4C     		ldr	r4, .L51
 570              		.loc 1 247 0
ARM GAS  C:\Users\mathi\AppData\Local\Temp\ccFSJwpz.s 			page 11


 571 0004 0C48     		ldr	r0, .L51+4
 572              	.LVL39:
 573              		.loc 1 244 0
 574 0006 2368     		ldr	r3, [r4]
 575 0008 82B0     		sub	sp, sp, #8
 576              		.cfi_def_cfa_offset 16
 577              		.loc 1 244 0
 578 000a 0193     		str	r3, [sp, #4]
 579              		.loc 1 247 0
 580 000c FFF7FEFF 		bl	chMtxLock
 581              	.LVL40:
 582              		.loc 1 248 0
 583 0010 1E20     		movs	r0, #30
 584 0012 FFF7FEFF 		bl	test_cpu_pulse
 585              	.LVL41:
 586              		.loc 1 249 0
 587 0016 0848     		ldr	r0, .L51+4
 588 0018 FFF7FEFF 		bl	chMtxUnlock
 589              	.LVL42:
 590              		.loc 1 250 0
 591 001c 019A     		ldr	r2, [sp, #4]
 592 001e 2368     		ldr	r3, [r4]
 593 0020 9A42     		cmp	r2, r3
 594 0022 05D1     		bne	.L50
 595 0024 4520     		movs	r0, #69
 596              		.loc 1 251 0
 597 0026 02B0     		add	sp, sp, #8
 598              		.cfi_remember_state
 599              		.cfi_def_cfa_offset 8
 600              		@ sp needed
 601 0028 BDE81040 		pop	{r4, lr}
 602              		.cfi_restore 14
 603              		.cfi_restore 4
 604              		.cfi_def_cfa_offset 0
 605              		.loc 1 250 0
 606 002c FFF7FEBF 		b	test_emit_token
 607              	.LVL43:
 608              	.L50:
 609              		.cfi_restore_state
 610 0030 FFF7FEFF 		bl	__stack_chk_fail
 611              	.LVL44:
 612              	.L52:
 613              		.align	2
 614              	.L51:
 615 0034 00000000 		.word	__stack_chk_guard
 616 0038 00000000 		.word	.LANCHOR0
 617              		.cfi_endproc
 618              	.LFE228:
 619              		.size	thread3LL, .-thread3LL
 620              		.section	.text.thread2M,"ax",%progbits
 621              		.align	1
 622              		.p2align 4,,15
 623              		.syntax unified
 624              		.thumb
 625              		.thumb_func
 626              		.fpu fpv4-sp-d16
 627              		.type	thread2M, %function
ARM GAS  C:\Users\mathi\AppData\Local\Temp\ccFSJwpz.s 			page 12


 628              	thread2M:
 629              	.LFB224:
 630              		.loc 1 167 0
 631              		.cfi_startproc
 632              		@ args = 0, pretend = 0, frame = 8
 633              		@ frame_needed = 0, uses_anonymous_args = 0
 634              	.LVL45:
 635 0000 10B5     		push	{r4, lr}
 636              		.cfi_def_cfa_offset 8
 637              		.cfi_offset 4, -8
 638              		.cfi_offset 14, -4
 639 0002 0B4C     		ldr	r4, .L58
 640 0004 82B0     		sub	sp, sp, #8
 641              		.cfi_def_cfa_offset 16
 642              		.loc 1 167 0
 643 0006 2368     		ldr	r3, [r4]
 644 0008 0193     		str	r3, [sp, #4]
 645              		.loc 1 170 0
 646 000a 1420     		movs	r0, #20
 647              	.LVL46:
 648 000c FFF7FEFF 		bl	chThdSleep
 649              	.LVL47:
 650              		.loc 1 171 0
 651 0010 2820     		movs	r0, #40
 652 0012 FFF7FEFF 		bl	test_cpu_pulse
 653              	.LVL48:
 654              		.loc 1 172 0
 655 0016 019A     		ldr	r2, [sp, #4]
 656 0018 2368     		ldr	r3, [r4]
 657 001a 9A42     		cmp	r2, r3
 658 001c 05D1     		bne	.L57
 659 001e 4220     		movs	r0, #66
 660              		.loc 1 173 0
 661 0020 02B0     		add	sp, sp, #8
 662              		.cfi_remember_state
 663              		.cfi_def_cfa_offset 8
 664              		@ sp needed
 665 0022 BDE81040 		pop	{r4, lr}
 666              		.cfi_restore 14
 667              		.cfi_restore 4
 668              		.cfi_def_cfa_offset 0
 669              		.loc 1 172 0
 670 0026 FFF7FEBF 		b	test_emit_token
 671              	.LVL49:
 672              	.L57:
 673              		.cfi_restore_state
 674 002a FFF7FEFF 		bl	__stack_chk_fail
 675              	.LVL50:
 676              	.L59:
 677 002e 00BF     		.align	2
 678              	.L58:
 679 0030 00000000 		.word	__stack_chk_guard
 680              		.cfi_endproc
 681              	.LFE224:
 682              		.size	thread2M, .-thread2M
 683              		.section	.text.thread2H,"ax",%progbits
 684              		.align	1
ARM GAS  C:\Users\mathi\AppData\Local\Temp\ccFSJwpz.s 			page 13


 685              		.p2align 4,,15
 686              		.syntax unified
 687              		.thumb
 688              		.thumb_func
 689              		.fpu fpv4-sp-d16
 690              		.type	thread2H, %function
 691              	thread2H:
 692              	.LFB225:
 693              		.loc 1 176 0
 694              		.cfi_startproc
 695              		@ args = 0, pretend = 0, frame = 8
 696              		@ frame_needed = 0, uses_anonymous_args = 0
 697              	.LVL51:
 698 0000 10B5     		push	{r4, lr}
 699              		.cfi_def_cfa_offset 8
 700              		.cfi_offset 4, -8
 701              		.cfi_offset 14, -4
 702 0002 0E4C     		ldr	r4, .L65
 703 0004 82B0     		sub	sp, sp, #8
 704              		.cfi_def_cfa_offset 16
 705              		.loc 1 176 0
 706 0006 2368     		ldr	r3, [r4]
 707 0008 0193     		str	r3, [sp, #4]
 708              		.loc 1 179 0
 709 000a 2820     		movs	r0, #40
 710              	.LVL52:
 711 000c FFF7FEFF 		bl	chThdSleep
 712              	.LVL53:
 713              		.loc 1 180 0
 714 0010 0B48     		ldr	r0, .L65+4
 715 0012 FFF7FEFF 		bl	chMtxLock
 716              	.LVL54:
 717              		.loc 1 181 0
 718 0016 0A20     		movs	r0, #10
 719 0018 FFF7FEFF 		bl	test_cpu_pulse
 720              	.LVL55:
 721              		.loc 1 182 0
 722 001c 0848     		ldr	r0, .L65+4
 723 001e FFF7FEFF 		bl	chMtxUnlock
 724              	.LVL56:
 725              		.loc 1 183 0
 726 0022 019A     		ldr	r2, [sp, #4]
 727 0024 2368     		ldr	r3, [r4]
 728 0026 9A42     		cmp	r2, r3
 729 0028 05D1     		bne	.L64
 730 002a 4120     		movs	r0, #65
 731              		.loc 1 184 0
 732 002c 02B0     		add	sp, sp, #8
 733              		.cfi_remember_state
 734              		.cfi_def_cfa_offset 8
 735              		@ sp needed
 736 002e BDE81040 		pop	{r4, lr}
 737              		.cfi_restore 14
 738              		.cfi_restore 4
 739              		.cfi_def_cfa_offset 0
 740              		.loc 1 183 0
 741 0032 FFF7FEBF 		b	test_emit_token
ARM GAS  C:\Users\mathi\AppData\Local\Temp\ccFSJwpz.s 			page 14


 742              	.LVL57:
 743              	.L64:
 744              		.cfi_restore_state
 745 0036 FFF7FEFF 		bl	__stack_chk_fail
 746              	.LVL58:
 747              	.L66:
 748 003a 00BF     		.align	2
 749              	.L65:
 750 003c 00000000 		.word	__stack_chk_guard
 751 0040 00000000 		.word	.LANCHOR0
 752              		.cfi_endproc
 753              	.LFE225:
 754              		.size	thread2H, .-thread2H
 755              		.section	.text.thread3HH,"ax",%progbits
 756              		.align	1
 757              		.p2align 4,,15
 758              		.syntax unified
 759              		.thumb
 760              		.thumb_func
 761              		.fpu fpv4-sp-d16
 762              		.type	thread3HH, %function
 763              	thread3HH:
 764              	.LFB232:
 765              		.loc 1 289 0
 766              		.cfi_startproc
 767              		@ args = 0, pretend = 0, frame = 8
 768              		@ frame_needed = 0, uses_anonymous_args = 0
 769              	.LVL59:
 770 0000 10B5     		push	{r4, lr}
 771              		.cfi_def_cfa_offset 8
 772              		.cfi_offset 4, -8
 773              		.cfi_offset 14, -4
 774 0002 0E4C     		ldr	r4, .L72
 775 0004 82B0     		sub	sp, sp, #8
 776              		.cfi_def_cfa_offset 16
 777              		.loc 1 289 0
 778 0006 2368     		ldr	r3, [r4]
 779 0008 0193     		str	r3, [sp, #4]
 780              		.loc 1 292 0
 781 000a 3220     		movs	r0, #50
 782              	.LVL60:
 783 000c FFF7FEFF 		bl	chThdSleep
 784              	.LVL61:
 785              		.loc 1 293 0
 786 0010 0B48     		ldr	r0, .L72+4
 787 0012 FFF7FEFF 		bl	chMtxLock
 788              	.LVL62:
 789              		.loc 1 294 0
 790 0016 0A20     		movs	r0, #10
 791 0018 FFF7FEFF 		bl	test_cpu_pulse
 792              	.LVL63:
 793              		.loc 1 295 0
 794 001c 0848     		ldr	r0, .L72+4
 795 001e FFF7FEFF 		bl	chMtxUnlock
 796              	.LVL64:
 797              		.loc 1 296 0
 798 0022 019A     		ldr	r2, [sp, #4]
ARM GAS  C:\Users\mathi\AppData\Local\Temp\ccFSJwpz.s 			page 15


 799 0024 2368     		ldr	r3, [r4]
 800 0026 9A42     		cmp	r2, r3
 801 0028 05D1     		bne	.L71
 802 002a 4120     		movs	r0, #65
 803              		.loc 1 297 0
 804 002c 02B0     		add	sp, sp, #8
 805              		.cfi_remember_state
 806              		.cfi_def_cfa_offset 8
 807              		@ sp needed
 808 002e BDE81040 		pop	{r4, lr}
 809              		.cfi_restore 14
 810              		.cfi_restore 4
 811              		.cfi_def_cfa_offset 0
 812              		.loc 1 296 0
 813 0032 FFF7FEBF 		b	test_emit_token
 814              	.LVL65:
 815              	.L71:
 816              		.cfi_restore_state
 817 0036 FFF7FEFF 		bl	__stack_chk_fail
 818              	.LVL66:
 819              	.L73:
 820 003a 00BF     		.align	2
 821              	.L72:
 822 003c 00000000 		.word	__stack_chk_guard
 823 0040 00000000 		.word	.LANCHOR1
 824              		.cfi_endproc
 825              	.LFE232:
 826              		.size	thread3HH, .-thread3HH
 827              		.section	.text.thread3H,"ax",%progbits
 828              		.align	1
 829              		.p2align 4,,15
 830              		.syntax unified
 831              		.thumb
 832              		.thumb_func
 833              		.fpu fpv4-sp-d16
 834              		.type	thread3H, %function
 835              	thread3H:
 836              	.LFB231:
 837              		.loc 1 280 0
 838              		.cfi_startproc
 839              		@ args = 0, pretend = 0, frame = 8
 840              		@ frame_needed = 0, uses_anonymous_args = 0
 841              	.LVL67:
 842 0000 10B5     		push	{r4, lr}
 843              		.cfi_def_cfa_offset 8
 844              		.cfi_offset 4, -8
 845              		.cfi_offset 14, -4
 846 0002 0B4C     		ldr	r4, .L79
 847 0004 82B0     		sub	sp, sp, #8
 848              		.cfi_def_cfa_offset 16
 849              		.loc 1 280 0
 850 0006 2368     		ldr	r3, [r4]
 851 0008 0193     		str	r3, [sp, #4]
 852              		.loc 1 283 0
 853 000a 2820     		movs	r0, #40
 854              	.LVL68:
 855 000c FFF7FEFF 		bl	chThdSleep
ARM GAS  C:\Users\mathi\AppData\Local\Temp\ccFSJwpz.s 			page 16


 856              	.LVL69:
 857              		.loc 1 284 0
 858 0010 1420     		movs	r0, #20
 859 0012 FFF7FEFF 		bl	test_cpu_pulse
 860              	.LVL70:
 861              		.loc 1 285 0
 862 0016 019A     		ldr	r2, [sp, #4]
 863 0018 2368     		ldr	r3, [r4]
 864 001a 9A42     		cmp	r2, r3
 865 001c 05D1     		bne	.L78
 866 001e 4220     		movs	r0, #66
 867              		.loc 1 286 0
 868 0020 02B0     		add	sp, sp, #8
 869              		.cfi_remember_state
 870              		.cfi_def_cfa_offset 8
 871              		@ sp needed
 872 0022 BDE81040 		pop	{r4, lr}
 873              		.cfi_restore 14
 874              		.cfi_restore 4
 875              		.cfi_def_cfa_offset 0
 876              		.loc 1 285 0
 877 0026 FFF7FEBF 		b	test_emit_token
 878              	.LVL71:
 879              	.L78:
 880              		.cfi_restore_state
 881 002a FFF7FEFF 		bl	__stack_chk_fail
 882              	.LVL72:
 883              	.L80:
 884 002e 00BF     		.align	2
 885              	.L79:
 886 0030 00000000 		.word	__stack_chk_guard
 887              		.cfi_endproc
 888              	.LFE231:
 889              		.size	thread3H, .-thread3H
 890              		.section	.text.thread3M,"ax",%progbits
 891              		.align	1
 892              		.p2align 4,,15
 893              		.syntax unified
 894              		.thumb
 895              		.thumb_func
 896              		.fpu fpv4-sp-d16
 897              		.type	thread3M, %function
 898              	thread3M:
 899              	.LFB230:
 900              		.loc 1 269 0
 901              		.cfi_startproc
 902              		@ args = 0, pretend = 0, frame = 8
 903              		@ frame_needed = 0, uses_anonymous_args = 0
 904              	.LVL73:
 905 0000 10B5     		push	{r4, lr}
 906              		.cfi_def_cfa_offset 8
 907              		.cfi_offset 4, -8
 908              		.cfi_offset 14, -4
 909 0002 0E4C     		ldr	r4, .L86
 910 0004 82B0     		sub	sp, sp, #8
 911              		.cfi_def_cfa_offset 16
 912              		.loc 1 269 0
ARM GAS  C:\Users\mathi\AppData\Local\Temp\ccFSJwpz.s 			page 17


 913 0006 2368     		ldr	r3, [r4]
 914 0008 0193     		str	r3, [sp, #4]
 915              		.loc 1 272 0
 916 000a 1420     		movs	r0, #20
 917              	.LVL74:
 918 000c FFF7FEFF 		bl	chThdSleep
 919              	.LVL75:
 920              		.loc 1 273 0
 921 0010 0B48     		ldr	r0, .L86+4
 922 0012 FFF7FEFF 		bl	chMtxLock
 923              	.LVL76:
 924              		.loc 1 274 0
 925 0016 0A20     		movs	r0, #10
 926 0018 FFF7FEFF 		bl	test_cpu_pulse
 927              	.LVL77:
 928              		.loc 1 275 0
 929 001c 0848     		ldr	r0, .L86+4
 930 001e FFF7FEFF 		bl	chMtxUnlock
 931              	.LVL78:
 932              		.loc 1 276 0
 933 0022 019A     		ldr	r2, [sp, #4]
 934 0024 2368     		ldr	r3, [r4]
 935 0026 9A42     		cmp	r2, r3
 936 0028 05D1     		bne	.L85
 937 002a 4320     		movs	r0, #67
 938              		.loc 1 277 0
 939 002c 02B0     		add	sp, sp, #8
 940              		.cfi_remember_state
 941              		.cfi_def_cfa_offset 8
 942              		@ sp needed
 943 002e BDE81040 		pop	{r4, lr}
 944              		.cfi_restore 14
 945              		.cfi_restore 4
 946              		.cfi_def_cfa_offset 0
 947              		.loc 1 276 0
 948 0032 FFF7FEBF 		b	test_emit_token
 949              	.LVL79:
 950              	.L85:
 951              		.cfi_restore_state
 952 0036 FFF7FEFF 		bl	__stack_chk_fail
 953              	.LVL80:
 954              	.L87:
 955 003a 00BF     		.align	2
 956              	.L86:
 957 003c 00000000 		.word	__stack_chk_guard
 958 0040 00000000 		.word	.LANCHOR1
 959              		.cfi_endproc
 960              	.LFE230:
 961              		.size	thread3M, .-thread3M
 962              		.section	.text.thread3L,"ax",%progbits
 963              		.align	1
 964              		.p2align 4,,15
 965              		.syntax unified
 966              		.thumb
 967              		.thumb_func
 968              		.fpu fpv4-sp-d16
 969              		.type	thread3L, %function
ARM GAS  C:\Users\mathi\AppData\Local\Temp\ccFSJwpz.s 			page 18


 970              	thread3L:
 971              	.LFB229:
 972              		.loc 1 254 0
 973              		.cfi_startproc
 974              		@ args = 0, pretend = 0, frame = 8
 975              		@ frame_needed = 0, uses_anonymous_args = 0
 976              	.LVL81:
 977 0000 10B5     		push	{r4, lr}
 978              		.cfi_def_cfa_offset 8
 979              		.cfi_offset 4, -8
 980              		.cfi_offset 14, -4
 981 0002 144C     		ldr	r4, .L93
 982 0004 82B0     		sub	sp, sp, #8
 983              		.cfi_def_cfa_offset 16
 984              		.loc 1 254 0
 985 0006 2368     		ldr	r3, [r4]
 986 0008 0193     		str	r3, [sp, #4]
 987              		.loc 1 257 0
 988 000a 0A20     		movs	r0, #10
 989              	.LVL82:
 990 000c FFF7FEFF 		bl	chThdSleep
 991              	.LVL83:
 992              		.loc 1 258 0
 993 0010 1148     		ldr	r0, .L93+4
 994 0012 FFF7FEFF 		bl	chMtxLock
 995              	.LVL84:
 996              		.loc 1 259 0
 997 0016 1420     		movs	r0, #20
 998 0018 FFF7FEFF 		bl	test_cpu_pulse
 999              	.LVL85:
 1000              		.loc 1 260 0
 1001 001c 0F48     		ldr	r0, .L93+8
 1002 001e FFF7FEFF 		bl	chMtxLock
 1003              	.LVL86:
 1004              		.loc 1 261 0
 1005 0022 0A20     		movs	r0, #10
 1006 0024 FFF7FEFF 		bl	test_cpu_pulse
 1007              	.LVL87:
 1008              		.loc 1 262 0
 1009 0028 0C48     		ldr	r0, .L93+8
 1010 002a FFF7FEFF 		bl	chMtxUnlock
 1011              	.LVL88:
 1012              		.loc 1 263 0
 1013 002e 0A20     		movs	r0, #10
 1014 0030 FFF7FEFF 		bl	test_cpu_pulse
 1015              	.LVL89:
 1016              		.loc 1 264 0
 1017 0034 0848     		ldr	r0, .L93+4
 1018 0036 FFF7FEFF 		bl	chMtxUnlock
 1019              	.LVL90:
 1020              		.loc 1 265 0
 1021 003a 019A     		ldr	r2, [sp, #4]
 1022 003c 2368     		ldr	r3, [r4]
 1023 003e 9A42     		cmp	r2, r3
 1024 0040 05D1     		bne	.L92
 1025 0042 4420     		movs	r0, #68
 1026              		.loc 1 266 0
ARM GAS  C:\Users\mathi\AppData\Local\Temp\ccFSJwpz.s 			page 19


 1027 0044 02B0     		add	sp, sp, #8
 1028              		.cfi_remember_state
 1029              		.cfi_def_cfa_offset 8
 1030              		@ sp needed
 1031 0046 BDE81040 		pop	{r4, lr}
 1032              		.cfi_restore 14
 1033              		.cfi_restore 4
 1034              		.cfi_def_cfa_offset 0
 1035              		.loc 1 265 0
 1036 004a FFF7FEBF 		b	test_emit_token
 1037              	.LVL91:
 1038              	.L92:
 1039              		.cfi_restore_state
 1040 004e FFF7FEFF 		bl	__stack_chk_fail
 1041              	.LVL92:
 1042              	.L94:
 1043 0052 00BF     		.align	2
 1044              	.L93:
 1045 0054 00000000 		.word	__stack_chk_guard
 1046 0058 00000000 		.word	.LANCHOR1
 1047 005c 00000000 		.word	.LANCHOR0
 1048              		.cfi_endproc
 1049              	.LFE229:
 1050              		.size	thread3L, .-thread3L
 1051              		.section	.text.thread4b,"ax",%progbits
 1052              		.align	1
 1053              		.p2align 4,,15
 1054              		.syntax unified
 1055              		.thumb
 1056              		.thumb_func
 1057              		.fpu fpv4-sp-d16
 1058              		.type	thread4b, %function
 1059              	thread4b:
 1060              	.LFB236:
 1061              		.loc 1 346 0
 1062              		.cfi_startproc
 1063              		@ args = 0, pretend = 0, frame = 8
 1064              		@ frame_needed = 0, uses_anonymous_args = 0
 1065              	.LVL93:
 1066 0000 10B5     		push	{r4, lr}
 1067              		.cfi_def_cfa_offset 8
 1068              		.cfi_offset 4, -8
 1069              		.cfi_offset 14, -4
 1070 0002 0B4C     		ldr	r4, .L100
 1071 0004 82B0     		sub	sp, sp, #8
 1072              		.cfi_def_cfa_offset 16
 1073              		.loc 1 346 0
 1074 0006 2368     		ldr	r3, [r4]
 1075 0008 0193     		str	r3, [sp, #4]
 1076              		.loc 1 349 0
 1077 000a 9620     		movs	r0, #150
 1078              	.LVL94:
 1079 000c FFF7FEFF 		bl	chThdSleep
 1080              	.LVL95:
 1081              		.loc 1 350 0
 1082 0010 0848     		ldr	r0, .L100+4
 1083 0012 FFF7FEFF 		bl	chMtxLock
ARM GAS  C:\Users\mathi\AppData\Local\Temp\ccFSJwpz.s 			page 20


 1084              	.LVL96:
 1085              		.loc 1 351 0
 1086 0016 019A     		ldr	r2, [sp, #4]
 1087 0018 2368     		ldr	r3, [r4]
 1088 001a 9A42     		cmp	r2, r3
 1089 001c 05D1     		bne	.L99
 1090 001e 0548     		ldr	r0, .L100+4
 1091              		.loc 1 352 0
 1092 0020 02B0     		add	sp, sp, #8
 1093              		.cfi_remember_state
 1094              		.cfi_def_cfa_offset 8
 1095              		@ sp needed
 1096 0022 BDE81040 		pop	{r4, lr}
 1097              		.cfi_restore 14
 1098              		.cfi_restore 4
 1099              		.cfi_def_cfa_offset 0
 1100              		.loc 1 351 0
 1101 0026 FFF7FEBF 		b	chMtxUnlock
 1102              	.LVL97:
 1103              	.L99:
 1104              		.cfi_restore_state
 1105 002a FFF7FEFF 		bl	__stack_chk_fail
 1106              	.LVL98:
 1107              	.L101:
 1108 002e 00BF     		.align	2
 1109              	.L100:
 1110 0030 00000000 		.word	__stack_chk_guard
 1111 0034 00000000 		.word	.LANCHOR0
 1112              		.cfi_endproc
 1113              	.LFE236:
 1114              		.size	thread4b, .-thread4b
 1115              		.section	.text.thread4a,"ax",%progbits
 1116              		.align	1
 1117              		.p2align 4,,15
 1118              		.syntax unified
 1119              		.thumb
 1120              		.thumb_func
 1121              		.fpu fpv4-sp-d16
 1122              		.type	thread4a, %function
 1123              	thread4a:
 1124              	.LFB235:
 1125              		.loc 1 338 0
 1126              		.cfi_startproc
 1127              		@ args = 0, pretend = 0, frame = 8
 1128              		@ frame_needed = 0, uses_anonymous_args = 0
 1129              	.LVL99:
 1130 0000 10B5     		push	{r4, lr}
 1131              		.cfi_def_cfa_offset 8
 1132              		.cfi_offset 4, -8
 1133              		.cfi_offset 14, -4
 1134 0002 0B4C     		ldr	r4, .L107
 1135 0004 82B0     		sub	sp, sp, #8
 1136              		.cfi_def_cfa_offset 16
 1137              		.loc 1 338 0
 1138 0006 2368     		ldr	r3, [r4]
 1139 0008 0193     		str	r3, [sp, #4]
 1140              		.loc 1 341 0
ARM GAS  C:\Users\mathi\AppData\Local\Temp\ccFSJwpz.s 			page 21


 1141 000a 3220     		movs	r0, #50
 1142              	.LVL100:
 1143 000c FFF7FEFF 		bl	chThdSleep
 1144              	.LVL101:
 1145              		.loc 1 342 0
 1146 0010 0848     		ldr	r0, .L107+4
 1147 0012 FFF7FEFF 		bl	chMtxLock
 1148              	.LVL102:
 1149              		.loc 1 343 0
 1150 0016 019A     		ldr	r2, [sp, #4]
 1151 0018 2368     		ldr	r3, [r4]
 1152 001a 9A42     		cmp	r2, r3
 1153 001c 05D1     		bne	.L106
 1154 001e 0548     		ldr	r0, .L107+4
 1155              		.loc 1 344 0
 1156 0020 02B0     		add	sp, sp, #8
 1157              		.cfi_remember_state
 1158              		.cfi_def_cfa_offset 8
 1159              		@ sp needed
 1160 0022 BDE81040 		pop	{r4, lr}
 1161              		.cfi_restore 14
 1162              		.cfi_restore 4
 1163              		.cfi_def_cfa_offset 0
 1164              		.loc 1 343 0
 1165 0026 FFF7FEBF 		b	chMtxUnlock
 1166              	.LVL103:
 1167              	.L106:
 1168              		.cfi_restore_state
 1169 002a FFF7FEFF 		bl	__stack_chk_fail
 1170              	.LVL104:
 1171              	.L108:
 1172 002e 00BF     		.align	2
 1173              	.L107:
 1174 0030 00000000 		.word	__stack_chk_guard
 1175 0034 00000000 		.word	.LANCHOR1
 1176              		.cfi_endproc
 1177              	.LFE235:
 1178              		.size	thread4a, .-thread4a
 1179              		.section	.text.mtx4_execute,"ax",%progbits
 1180              		.align	1
 1181              		.p2align 4,,15
 1182              		.syntax unified
 1183              		.thumb
 1184              		.thumb_func
 1185              		.fpu fpv4-sp-d16
 1186              		.type	mtx4_execute, %function
 1187              	mtx4_execute:
 1188              	.LFB237:
 1189              		.loc 1 354 0
 1190              		.cfi_startproc
 1191              		@ args = 0, pretend = 0, frame = 16
 1192              		@ frame_needed = 0, uses_anonymous_args = 0
 1193 0000 2DE9F04D 		push	{r4, r5, r6, r7, r8, r10, fp, lr}
 1194              		.cfi_def_cfa_offset 32
 1195              		.cfi_offset 4, -32
 1196              		.cfi_offset 5, -28
 1197              		.cfi_offset 6, -24
ARM GAS  C:\Users\mathi\AppData\Local\Temp\ccFSJwpz.s 			page 22


 1198              		.cfi_offset 7, -20
 1199              		.cfi_offset 8, -16
 1200              		.cfi_offset 10, -12
 1201              		.cfi_offset 11, -8
 1202              		.cfi_offset 14, -4
 1203              	.LBB247:
 1204              	.LBB248:
 1205              	.LBB249:
 1206              	.LBB250:
 1207              		.loc 2 176 0
 1208 0004 9E4D     		ldr	r5, .L119
 1209              	.LBE250:
 1210              	.LBE249:
 1211              	.LBE248:
 1212              	.LBE247:
 1213              		.loc 1 354 0
 1214 0006 9F4F     		ldr	r7, .L119+4
 1215              	.LBB253:
 1216              	.LBB251:
 1217              		.loc 2 189 0
 1218 0008 AB69     		ldr	r3, [r5, #24]
 1219              	.LBE251:
 1220              	.LBE253:
 1221              		.loc 1 360 0
 1222 000a 9F4E     		ldr	r6, .L119+8
 1223              	.LBB254:
 1224              	.LBB252:
 1225              		.loc 2 189 0
 1226 000c 9C68     		ldr	r4, [r3, #8]
 1227              	.LBE252:
 1228              	.LBE254:
 1229              		.loc 1 354 0
 1230 000e 3968     		ldr	r1, [r7]
 1231              		.loc 1 360 0
 1232 0010 9E4B     		ldr	r3, .L119+12
 1233 0012 3068     		ldr	r0, [r6]
 1234 0014 DFF89882 		ldr	r8, .L119+48
 1235              		.loc 1 354 0
 1236 0018 86B0     		sub	sp, sp, #24
 1237              		.cfi_def_cfa_offset 56
 1238              		.loc 1 358 0
 1239 001a 04F1010A 		add	r10, r4, #1
 1240              	.LVL105:
 1241              		.loc 1 360 0
 1242 001e 0093     		str	r3, [sp]
 1243 0020 5246     		mov	r2, r10
 1244 0022 9B4B     		ldr	r3, .L119+16
 1245              		.loc 1 354 0
 1246 0024 0591     		str	r1, [sp, #20]
 1247              		.loc 1 360 0
 1248 0026 4FF4FC71 		mov	r1, #504
 1249 002a 0390     		str	r0, [sp, #12]
 1250 002c FFF7FEFF 		bl	chThdCreateStatic
 1251              	.LVL106:
 1252              		.loc 1 361 0
 1253 0030 7668     		ldr	r6, [r6, #4]
 1254 0032 984B     		ldr	r3, .L119+20
ARM GAS  C:\Users\mathi\AppData\Local\Temp\ccFSJwpz.s 			page 23


 1255              		.loc 1 360 0
 1256 0034 C8F80000 		str	r0, [r8]
 1257              		.loc 1 359 0
 1258 0038 04F1020B 		add	fp, r4, #2
 1259              	.LVL107:
 1260              		.loc 1 361 0
 1261 003c 4FF4FC71 		mov	r1, #504
 1262 0040 5A46     		mov	r2, fp
 1263 0042 0093     		str	r3, [sp]
 1264 0044 3046     		mov	r0, r6
 1265 0046 944B     		ldr	r3, .L119+24
 1266 0048 FFF7FEFF 		bl	chThdCreateStatic
 1267              	.LVL108:
 1268 004c C8F80400 		str	r0, [r8, #4]
 1269              		.loc 1 362 0
 1270 0050 9248     		ldr	r0, .L119+28
 1271 0052 FFF7FEFF 		bl	chMtxLock
 1272              	.LVL109:
 1273              	.LBB255:
 1274              	.LBB256:
 1275              		.loc 2 189 0
 1276 0056 AB69     		ldr	r3, [r5, #24]
 1277              	.LBE256:
 1278              	.LBE255:
 1279              		.loc 1 363 0
 1280 0058 9968     		ldr	r1, [r3, #8]
 1281 005a 091B     		subs	r1, r1, r4
 1282 005c B1FA81F1 		clz	r1, r1
 1283 0060 0120     		movs	r0, #1
 1284 0062 4909     		lsrs	r1, r1, #5
 1285 0064 FFF7FEFF 		bl	_test_assert
 1286              	.LVL110:
 1287 0068 38B1     		cbz	r0, .L118
 1288              	.L109:
 1289              		.loc 1 399 0
 1290 006a 059A     		ldr	r2, [sp, #20]
 1291 006c 3B68     		ldr	r3, [r7]
 1292 006e 9A42     		cmp	r2, r3
 1293 0070 40F00381 		bne	.L117
 1294 0074 06B0     		add	sp, sp, #24
 1295              		.cfi_remember_state
 1296              		.cfi_def_cfa_offset 32
 1297              		@ sp needed
 1298 0076 BDE8F08D 		pop	{r4, r5, r6, r7, r8, r10, fp, pc}
 1299              	.LVL111:
 1300              	.L118:
 1301              		.cfi_restore_state
 1302              		.loc 1 364 0
 1303 007a 6420     		movs	r0, #100
 1304 007c FFF7FEFF 		bl	chThdSleep
 1305              	.LVL112:
 1306              	.LBB257:
 1307              	.LBB258:
 1308              		.loc 2 189 0
 1309 0080 AB69     		ldr	r3, [r5, #24]
 1310              	.LBE258:
 1311              	.LBE257:
ARM GAS  C:\Users\mathi\AppData\Local\Temp\ccFSJwpz.s 			page 24


 1312              		.loc 1 365 0
 1313 0082 9968     		ldr	r1, [r3, #8]
 1314 0084 A1EB0A01 		sub	r1, r1, r10
 1315 0088 B1FA81F1 		clz	r1, r1
 1316 008c 0220     		movs	r0, #2
 1317 008e 4909     		lsrs	r1, r1, #5
 1318 0090 FFF7FEFF 		bl	_test_assert
 1319              	.LVL113:
 1320 0094 0028     		cmp	r0, #0
 1321 0096 E8D1     		bne	.L109
 1322              		.loc 1 366 0
 1323 0098 8148     		ldr	r0, .L119+32
 1324 009a FFF7FEFF 		bl	chMtxLock
 1325              	.LVL114:
 1326              	.LBB259:
 1327              	.LBB260:
 1328              		.loc 2 189 0
 1329 009e AB69     		ldr	r3, [r5, #24]
 1330              	.LBE260:
 1331              	.LBE259:
 1332              		.loc 1 367 0
 1333 00a0 9968     		ldr	r1, [r3, #8]
 1334 00a2 A1EB0A01 		sub	r1, r1, r10
 1335 00a6 B1FA81F1 		clz	r1, r1
 1336 00aa 0320     		movs	r0, #3
 1337 00ac 4909     		lsrs	r1, r1, #5
 1338 00ae FFF7FEFF 		bl	_test_assert
 1339              	.LVL115:
 1340 00b2 0028     		cmp	r0, #0
 1341 00b4 D9D1     		bne	.L109
 1342              		.loc 1 368 0
 1343 00b6 6420     		movs	r0, #100
 1344 00b8 FFF7FEFF 		bl	chThdSleep
 1345              	.LVL116:
 1346              	.LBB261:
 1347              	.LBB262:
 1348              		.loc 2 189 0
 1349 00bc AB69     		ldr	r3, [r5, #24]
 1350              	.LBE262:
 1351              	.LBE261:
 1352              		.loc 1 369 0
 1353 00be 9968     		ldr	r1, [r3, #8]
 1354 00c0 A1EB0B01 		sub	r1, r1, fp
 1355 00c4 B1FA81F1 		clz	r1, r1
 1356 00c8 0420     		movs	r0, #4
 1357 00ca 4909     		lsrs	r1, r1, #5
 1358 00cc FFF7FEFF 		bl	_test_assert
 1359              	.LVL117:
 1360 00d0 0028     		cmp	r0, #0
 1361 00d2 CAD1     		bne	.L109
 1362              		.loc 1 370 0
 1363 00d4 7248     		ldr	r0, .L119+32
 1364 00d6 FFF7FEFF 		bl	chMtxUnlock
 1365              	.LVL118:
 1366              	.LBB263:
 1367              	.LBB264:
 1368              		.loc 2 189 0
ARM GAS  C:\Users\mathi\AppData\Local\Temp\ccFSJwpz.s 			page 25


 1369 00da AB69     		ldr	r3, [r5, #24]
 1370              	.LBE264:
 1371              	.LBE263:
 1372              		.loc 1 371 0
 1373 00dc 9968     		ldr	r1, [r3, #8]
 1374 00de A1EB0A01 		sub	r1, r1, r10
 1375 00e2 B1FA81F1 		clz	r1, r1
 1376 00e6 0520     		movs	r0, #5
 1377 00e8 4909     		lsrs	r1, r1, #5
 1378 00ea FFF7FEFF 		bl	_test_assert
 1379              	.LVL119:
 1380 00ee 0028     		cmp	r0, #0
 1381 00f0 BBD1     		bne	.L109
 1382              		.loc 1 372 0
 1383 00f2 6420     		movs	r0, #100
 1384 00f4 FFF7FEFF 		bl	chThdSleep
 1385              	.LVL120:
 1386              	.LBB265:
 1387              	.LBB266:
 1388              		.loc 2 189 0
 1389 00f8 AB69     		ldr	r3, [r5, #24]
 1390              	.LBE266:
 1391              	.LBE265:
 1392              		.loc 1 373 0
 1393 00fa 9968     		ldr	r1, [r3, #8]
 1394 00fc A1EB0A01 		sub	r1, r1, r10
 1395 0100 B1FA81F1 		clz	r1, r1
 1396 0104 0620     		movs	r0, #6
 1397 0106 4909     		lsrs	r1, r1, #5
 1398 0108 FFF7FEFF 		bl	_test_assert
 1399              	.LVL121:
 1400 010c 0028     		cmp	r0, #0
 1401 010e ACD1     		bne	.L109
 1402              		.loc 1 374 0
 1403 0110 FFF7FEFF 		bl	chMtxUnlockAll
 1404              	.LVL122:
 1405              	.LBB267:
 1406              	.LBB268:
 1407              		.loc 2 189 0
 1408 0114 AB69     		ldr	r3, [r5, #24]
 1409              	.LBE268:
 1410              	.LBE267:
 1411              		.loc 1 375 0
 1412 0116 9968     		ldr	r1, [r3, #8]
 1413 0118 091B     		subs	r1, r1, r4
 1414 011a B1FA81F1 		clz	r1, r1
 1415 011e 0720     		movs	r0, #7
 1416 0120 4909     		lsrs	r1, r1, #5
 1417 0122 FFF7FEFF 		bl	_test_assert
 1418              	.LVL123:
 1419 0126 0028     		cmp	r0, #0
 1420 0128 9FD1     		bne	.L109
 1421              		.loc 1 376 0
 1422 012a FFF7FEFF 		bl	test_wait_threads
 1423              	.LVL124:
 1424              		.loc 1 379 0
 1425 012e 5D4B     		ldr	r3, .L119+36
ARM GAS  C:\Users\mathi\AppData\Local\Temp\ccFSJwpz.s 			page 26


 1426 0130 0093     		str	r3, [sp]
 1427 0132 5246     		mov	r2, r10
 1428 0134 564B     		ldr	r3, .L119+16
 1429 0136 0398     		ldr	r0, [sp, #12]
 1430 0138 4FF4FC71 		mov	r1, #504
 1431 013c FFF7FEFF 		bl	chThdCreateStatic
 1432              	.LVL125:
 1433              		.loc 1 380 0
 1434 0140 594B     		ldr	r3, .L119+40
 1435              		.loc 1 379 0
 1436 0142 C8F80000 		str	r0, [r8]
 1437              		.loc 1 380 0
 1438 0146 4FF4FC71 		mov	r1, #504
 1439 014a 0093     		str	r3, [sp]
 1440 014c 5A46     		mov	r2, fp
 1441 014e 524B     		ldr	r3, .L119+24
 1442 0150 3046     		mov	r0, r6
 1443 0152 FFF7FEFF 		bl	chThdCreateStatic
 1444              	.LVL126:
 1445 0156 C8F80400 		str	r0, [r8, #4]
 1446              		.loc 1 381 0
 1447 015a 5048     		ldr	r0, .L119+28
 1448 015c FFF7FEFF 		bl	chMtxLock
 1449              	.LVL127:
 1450              	.LBB269:
 1451              	.LBB270:
 1452              		.loc 2 189 0
 1453 0160 AB69     		ldr	r3, [r5, #24]
 1454              	.LBE270:
 1455              	.LBE269:
 1456              		.loc 1 382 0
 1457 0162 9968     		ldr	r1, [r3, #8]
 1458 0164 0B1B     		subs	r3, r1, r4
 1459 0166 5942     		rsbs	r1, r3, #0
 1460 0168 5941     		adcs	r1, r1, r3
 1461 016a 0820     		movs	r0, #8
 1462 016c FFF7FEFF 		bl	_test_assert
 1463              	.LVL128:
 1464 0170 0028     		cmp	r0, #0
 1465 0172 7FF47AAF 		bne	.L109
 1466              		.loc 1 383 0
 1467 0176 6420     		movs	r0, #100
 1468 0178 FFF7FEFF 		bl	chThdSleep
 1469              	.LVL129:
 1470              	.LBB271:
 1471              	.LBB272:
 1472              		.loc 2 189 0
 1473 017c AB69     		ldr	r3, [r5, #24]
 1474              	.LBE272:
 1475              	.LBE271:
 1476              		.loc 1 384 0
 1477 017e 9968     		ldr	r1, [r3, #8]
 1478 0180 A1EB0A08 		sub	r8, r1, r10
 1479 0184 D8F10001 		rsbs	r1, r8, #0
 1480 0188 41EB0801 		adc	r1, r1, r8
 1481 018c 0920     		movs	r0, #9
 1482 018e FFF7FEFF 		bl	_test_assert
ARM GAS  C:\Users\mathi\AppData\Local\Temp\ccFSJwpz.s 			page 27


 1483              	.LVL130:
 1484 0192 0028     		cmp	r0, #0
 1485 0194 7FF469AF 		bne	.L109
 1486              		.loc 1 385 0
 1487 0198 4148     		ldr	r0, .L119+32
 1488 019a FFF7FEFF 		bl	chMtxLock
 1489              	.LVL131:
 1490              	.LBB273:
 1491              	.LBB274:
 1492              		.loc 2 189 0
 1493 019e AB69     		ldr	r3, [r5, #24]
 1494              	.LBE274:
 1495              	.LBE273:
 1496              		.loc 1 386 0
 1497 01a0 9968     		ldr	r1, [r3, #8]
 1498 01a2 A1EB0A0E 		sub	lr, r1, r10
 1499 01a6 DEF10001 		rsbs	r1, lr, #0
 1500 01aa 41EB0E01 		adc	r1, r1, lr
 1501 01ae 0A20     		movs	r0, #10
 1502 01b0 FFF7FEFF 		bl	_test_assert
 1503              	.LVL132:
 1504 01b4 0028     		cmp	r0, #0
 1505 01b6 7FF458AF 		bne	.L109
 1506              		.loc 1 387 0
 1507 01ba 6420     		movs	r0, #100
 1508 01bc FFF7FEFF 		bl	chThdSleep
 1509              	.LVL133:
 1510              	.LBB275:
 1511              	.LBB276:
 1512              		.loc 2 189 0
 1513 01c0 AB69     		ldr	r3, [r5, #24]
 1514              	.LBE276:
 1515              	.LBE275:
 1516              		.loc 1 388 0
 1517 01c2 9968     		ldr	r1, [r3, #8]
 1518 01c4 A1EB0B0C 		sub	ip, r1, fp
 1519 01c8 DCF10001 		rsbs	r1, ip, #0
 1520 01cc 41EB0C01 		adc	r1, r1, ip
 1521 01d0 0B20     		movs	r0, #11
 1522 01d2 FFF7FEFF 		bl	_test_assert
 1523              	.LVL134:
 1524 01d6 0028     		cmp	r0, #0
 1525 01d8 7FF447AF 		bne	.L109
 1526              	.LVL135:
 1527              	.LBB277:
 1528              	.LBB278:
 1529              	.LBB279:
 1530              	.LBB280:
 1531              	.LBB281:
 1532              		.file 3 "../../lib/e-puck2_main-processor/ChibiOS//os/ext/CMSIS/include/core_cmFunc.h"
 1533              		.loc 3 546 0
 1534 01dc 2023     		movs	r3, #32
 1535              		.syntax unified
 1536              	@ 546 "../../lib/e-puck2_main-processor/ChibiOS//os/ext/CMSIS/include/core_cmFunc.h" 1
 1537 01de 83F31188 		MSR basepri, r3
 1538              	@ 0 "" 2
 1539              	.LVL136:
ARM GAS  C:\Users\mathi\AppData\Local\Temp\ccFSJwpz.s 			page 28


 1540              		.thumb
 1541              		.syntax unified
 1542              	.LBE281:
 1543              	.LBE280:
 1544              	.LBE279:
 1545              		.file 4 "../../lib/e-puck2_main-processor/ChibiOS//os/rt/include/chsys.h"
 1546              		.loc 4 349 0
 1547 01e2 FFF7FEFF 		bl	_stats_start_measure_crit_thd
 1548              	.LVL137:
 1549              		.loc 4 350 0
 1550 01e6 FFF7FEFF 		bl	_dbg_check_lock
 1551              	.LVL138:
 1552              	.LBE278:
 1553              	.LBE277:
 1554              		.loc 1 390 0
 1555 01ea 2D48     		ldr	r0, .L119+32
 1556 01ec FFF7FEFF 		bl	chMtxUnlockS
 1557              	.LVL139:
 1558              		.loc 1 391 0
 1559 01f0 FFF7FEFF 		bl	chSchRescheduleS
 1560              	.LVL140:
 1561              	.LBB282:
 1562              	.LBB283:
 1563              		.loc 4 360 0
 1564 01f4 FFF7FEFF 		bl	_dbg_check_unlock
 1565              	.LVL141:
 1566              		.loc 4 361 0
 1567 01f8 FFF7FEFF 		bl	_stats_stop_measure_crit_thd
 1568              	.LVL142:
 1569              		.loc 4 367 0
 1570 01fc 2B68     		ldr	r3, [r5]
 1571 01fe AB42     		cmp	r3, r5
 1572 0200 07D0     		beq	.L113
 1573 0202 AA69     		ldr	r2, [r5, #24]
 1574 0204 9B68     		ldr	r3, [r3, #8]
 1575 0206 9268     		ldr	r2, [r2, #8]
 1576 0208 9A42     		cmp	r2, r3
 1577 020a 02D2     		bcs	.L113
 1578 020c 2748     		ldr	r0, .L119+44
 1579 020e FFF7FEFF 		bl	chSysHalt
 1580              	.LVL143:
 1581              	.L113:
 1582              	.LBB284:
 1583              	.LBB285:
 1584              	.LBB286:
 1585              		.loc 3 546 0
 1586 0212 0023     		movs	r3, #0
 1587              		.syntax unified
 1588              	@ 546 "../../lib/e-puck2_main-processor/ChibiOS//os/ext/CMSIS/include/core_cmFunc.h" 1
 1589 0214 83F31188 		MSR basepri, r3
 1590              	@ 0 "" 2
 1591              	.LVL144:
 1592              		.thumb
 1593              		.syntax unified
 1594              	.LBE286:
 1595              	.LBE285:
 1596              	.LBE284:
ARM GAS  C:\Users\mathi\AppData\Local\Temp\ccFSJwpz.s 			page 29


 1597              	.LBE283:
 1598              	.LBE282:
 1599              	.LBB287:
 1600              	.LBB288:
 1601              		.loc 2 189 0
 1602 0218 AB69     		ldr	r3, [r5, #24]
 1603              	.LBE288:
 1604              	.LBE287:
 1605              		.loc 1 393 0
 1606 021a 9968     		ldr	r1, [r3, #8]
 1607 021c A1EB0A06 		sub	r6, r1, r10
 1608 0220 7142     		rsbs	r1, r6, #0
 1609 0222 7141     		adcs	r1, r1, r6
 1610 0224 0C20     		movs	r0, #12
 1611 0226 FFF7FEFF 		bl	_test_assert
 1612              	.LVL145:
 1613 022a 0028     		cmp	r0, #0
 1614 022c 7FF41DAF 		bne	.L109
 1615              		.loc 1 394 0
 1616 0230 6420     		movs	r0, #100
 1617 0232 FFF7FEFF 		bl	chThdSleep
 1618              	.LVL146:
 1619              	.LBB289:
 1620              	.LBB290:
 1621              		.loc 2 189 0
 1622 0236 AB69     		ldr	r3, [r5, #24]
 1623              	.LBE290:
 1624              	.LBE289:
 1625              		.loc 1 395 0
 1626 0238 9968     		ldr	r1, [r3, #8]
 1627 023a A1EB0A02 		sub	r2, r1, r10
 1628 023e 5142     		rsbs	r1, r2, #0
 1629 0240 5141     		adcs	r1, r1, r2
 1630 0242 0D20     		movs	r0, #13
 1631 0244 FFF7FEFF 		bl	_test_assert
 1632              	.LVL147:
 1633 0248 0028     		cmp	r0, #0
 1634 024a 7FF40EAF 		bne	.L109
 1635              		.loc 1 396 0
 1636 024e FFF7FEFF 		bl	chMtxUnlockAll
 1637              	.LVL148:
 1638              	.LBB291:
 1639              	.LBB292:
 1640              		.loc 2 189 0
 1641 0252 AB69     		ldr	r3, [r5, #24]
 1642              	.LBE292:
 1643              	.LBE291:
 1644              		.loc 1 397 0
 1645 0254 9968     		ldr	r1, [r3, #8]
 1646 0256 0B1B     		subs	r3, r1, r4
 1647 0258 5942     		rsbs	r1, r3, #0
 1648 025a 5941     		adcs	r1, r1, r3
 1649 025c 0E20     		movs	r0, #14
 1650 025e FFF7FEFF 		bl	_test_assert
 1651              	.LVL149:
 1652 0262 0028     		cmp	r0, #0
 1653 0264 7FF401AF 		bne	.L109
ARM GAS  C:\Users\mathi\AppData\Local\Temp\ccFSJwpz.s 			page 30


 1654              		.loc 1 398 0
 1655 0268 059A     		ldr	r2, [sp, #20]
 1656 026a 3B68     		ldr	r3, [r7]
 1657 026c 9A42     		cmp	r2, r3
 1658 026e 04D1     		bne	.L117
 1659              		.loc 1 399 0
 1660 0270 06B0     		add	sp, sp, #24
 1661              		.cfi_remember_state
 1662              		.cfi_def_cfa_offset 32
 1663              		@ sp needed
 1664 0272 BDE8F04D 		pop	{r4, r5, r6, r7, r8, r10, fp, lr}
 1665              		.cfi_restore 14
 1666              		.cfi_restore 11
 1667              		.cfi_restore 10
 1668              		.cfi_restore 8
 1669              		.cfi_restore 7
 1670              		.cfi_restore 6
 1671              		.cfi_restore 5
 1672              		.cfi_restore 4
 1673              		.cfi_def_cfa_offset 0
 1674              	.LVL150:
 1675              		.loc 1 398 0
 1676 0276 FFF7FEBF 		b	test_wait_threads
 1677              	.LVL151:
 1678              	.L117:
 1679              		.cfi_restore_state
 1680              		.loc 1 399 0
 1681 027a FFF7FEFF 		bl	__stack_chk_fail
 1682              	.LVL152:
 1683              	.L120:
 1684 027e 00BF     		.align	2
 1685              	.L119:
 1686 0280 00000000 		.word	ch
 1687 0284 00000000 		.word	__stack_chk_guard
 1688 0288 00000000 		.word	wa
 1689 028c 0C000000 		.word	.LC3
 1690 0290 00000000 		.word	thread4a
 1691 0294 10000000 		.word	.LC4
 1692 0298 00000000 		.word	thread4b
 1693 029c 00000000 		.word	.LANCHOR1
 1694 02a0 00000000 		.word	.LANCHOR0
 1695 02a4 04000000 		.word	.LC1
 1696 02a8 08000000 		.word	.LC2
 1697 02ac 00000000 		.word	.LANCHOR2
 1698 02b0 00000000 		.word	threads
 1699              		.cfi_endproc
 1700              	.LFE237:
 1701              		.size	mtx4_execute, .-mtx4_execute
 1702              		.section	.text.thread10,"ax",%progbits
 1703              		.align	1
 1704              		.p2align 4,,15
 1705              		.syntax unified
 1706              		.thumb
 1707              		.thumb_func
 1708              		.fpu fpv4-sp-d16
 1709              		.type	thread10, %function
 1710              	thread10:
ARM GAS  C:\Users\mathi\AppData\Local\Temp\ccFSJwpz.s 			page 31


 1711              	.LFB241:
 1712              		.loc 1 475 0
 1713              		.cfi_startproc
 1714              		@ args = 0, pretend = 0, frame = 8
 1715              		@ frame_needed = 0, uses_anonymous_args = 0
 1716              	.LVL153:
 1717 0000 30B5     		push	{r4, r5, lr}
 1718              		.cfi_def_cfa_offset 12
 1719              		.cfi_offset 4, -12
 1720              		.cfi_offset 5, -8
 1721              		.cfi_offset 14, -4
 1722 0002 0D4C     		ldr	r4, .L126
 1723 0004 83B0     		sub	sp, sp, #12
 1724              		.cfi_def_cfa_offset 24
 1725              		.loc 1 475 0
 1726 0006 2368     		ldr	r3, [r4]
 1727 0008 0193     		str	r3, [sp, #4]
 1728 000a 0546     		mov	r5, r0
 1729              		.loc 1 477 0
 1730 000c 0B48     		ldr	r0, .L126+4
 1731              	.LVL154:
 1732 000e FFF7FEFF 		bl	chMtxLock
 1733              	.LVL155:
 1734              		.loc 1 478 0
 1735 0012 0B48     		ldr	r0, .L126+8
 1736 0014 FFF7FEFF 		bl	chCondWait
 1737              	.LVL156:
 1738              		.loc 1 479 0
 1739 0018 2878     		ldrb	r0, [r5]	@ zero_extendqisi2
 1740 001a FFF7FEFF 		bl	test_emit_token
 1741              	.LVL157:
 1742              		.loc 1 480 0
 1743 001e 019A     		ldr	r2, [sp, #4]
 1744 0020 2368     		ldr	r3, [r4]
 1745 0022 9A42     		cmp	r2, r3
 1746 0024 05D1     		bne	.L125
 1747 0026 0548     		ldr	r0, .L126+4
 1748              		.loc 1 481 0
 1749 0028 03B0     		add	sp, sp, #12
 1750              		.cfi_remember_state
 1751              		.cfi_def_cfa_offset 12
 1752              		@ sp needed
 1753 002a BDE83040 		pop	{r4, r5, lr}
 1754              		.cfi_restore 14
 1755              		.cfi_restore 5
 1756              		.cfi_restore 4
 1757              		.cfi_def_cfa_offset 0
 1758              	.LVL158:
 1759              		.loc 1 480 0
 1760 002e FFF7FEBF 		b	chMtxUnlock
 1761              	.LVL159:
 1762              	.L125:
 1763              		.cfi_restore_state
 1764 0032 FFF7FEFF 		bl	__stack_chk_fail
 1765              	.LVL160:
 1766              	.L127:
 1767 0036 00BF     		.align	2
ARM GAS  C:\Users\mathi\AppData\Local\Temp\ccFSJwpz.s 			page 32


 1768              	.L126:
 1769 0038 00000000 		.word	__stack_chk_guard
 1770 003c 00000000 		.word	.LANCHOR0
 1771 0040 00000000 		.word	.LANCHOR3
 1772              		.cfi_endproc
 1773              	.LFE241:
 1774              		.size	thread10, .-thread10
 1775              		.section	.text.mtx6_setup,"ax",%progbits
 1776              		.align	1
 1777              		.p2align 4,,15
 1778              		.syntax unified
 1779              		.thumb
 1780              		.thumb_func
 1781              		.fpu fpv4-sp-d16
 1782              		.type	mtx6_setup, %function
 1783              	mtx6_setup:
 1784              	.LFB240:
 1785              		.loc 1 469 0
 1786              		.cfi_startproc
 1787              		@ args = 0, pretend = 0, frame = 8
 1788              		@ frame_needed = 0, uses_anonymous_args = 0
 1789 0000 10B5     		push	{r4, lr}
 1790              		.cfi_def_cfa_offset 8
 1791              		.cfi_offset 4, -8
 1792              		.cfi_offset 14, -4
 1793 0002 094C     		ldr	r4, .L133
 1794              		.loc 1 471 0
 1795 0004 0948     		ldr	r0, .L133+4
 1796              		.loc 1 469 0
 1797 0006 2368     		ldr	r3, [r4]
 1798 0008 82B0     		sub	sp, sp, #8
 1799              		.cfi_def_cfa_offset 16
 1800              		.loc 1 469 0
 1801 000a 0193     		str	r3, [sp, #4]
 1802              		.loc 1 471 0
 1803 000c FFF7FEFF 		bl	chCondObjectInit
 1804              	.LVL161:
 1805              		.loc 1 472 0
 1806 0010 019A     		ldr	r2, [sp, #4]
 1807 0012 2368     		ldr	r3, [r4]
 1808 0014 9A42     		cmp	r2, r3
 1809 0016 05D1     		bne	.L132
 1810 0018 0548     		ldr	r0, .L133+8
 1811              		.loc 1 473 0
 1812 001a 02B0     		add	sp, sp, #8
 1813              		.cfi_remember_state
 1814              		.cfi_def_cfa_offset 8
 1815              		@ sp needed
 1816 001c BDE81040 		pop	{r4, lr}
 1817              		.cfi_restore 14
 1818              		.cfi_restore 4
 1819              		.cfi_def_cfa_offset 0
 1820              		.loc 1 472 0
 1821 0020 FFF7FEBF 		b	chMtxObjectInit
 1822              	.LVL162:
 1823              	.L132:
 1824              		.cfi_restore_state
ARM GAS  C:\Users\mathi\AppData\Local\Temp\ccFSJwpz.s 			page 33


 1825 0024 FFF7FEFF 		bl	__stack_chk_fail
 1826              	.LVL163:
 1827              	.L134:
 1828              		.align	2
 1829              	.L133:
 1830 0028 00000000 		.word	__stack_chk_guard
 1831 002c 00000000 		.word	.LANCHOR3
 1832 0030 00000000 		.word	.LANCHOR0
 1833              		.cfi_endproc
 1834              	.LFE240:
 1835              		.size	mtx6_setup, .-mtx6_setup
 1836              		.section	.text.mtx8_setup,"ax",%progbits
 1837              		.align	1
 1838              		.p2align 4,,15
 1839              		.syntax unified
 1840              		.thumb
 1841              		.thumb_func
 1842              		.fpu fpv4-sp-d16
 1843              		.type	mtx8_setup, %function
 1844              	mtx8_setup:
 1845              	.LFB245:
 1846              		.loc 1 555 0
 1847              		.cfi_startproc
 1848              		@ args = 0, pretend = 0, frame = 8
 1849              		@ frame_needed = 0, uses_anonymous_args = 0
 1850 0000 10B5     		push	{r4, lr}
 1851              		.cfi_def_cfa_offset 8
 1852              		.cfi_offset 4, -8
 1853              		.cfi_offset 14, -4
 1854 0002 0B4C     		ldr	r4, .L140
 1855              		.loc 1 557 0
 1856 0004 0B48     		ldr	r0, .L140+4
 1857              		.loc 1 555 0
 1858 0006 2368     		ldr	r3, [r4]
 1859 0008 82B0     		sub	sp, sp, #8
 1860              		.cfi_def_cfa_offset 16
 1861              		.loc 1 555 0
 1862 000a 0193     		str	r3, [sp, #4]
 1863              		.loc 1 557 0
 1864 000c FFF7FEFF 		bl	chCondObjectInit
 1865              	.LVL164:
 1866              		.loc 1 558 0
 1867 0010 0948     		ldr	r0, .L140+8
 1868 0012 FFF7FEFF 		bl	chMtxObjectInit
 1869              	.LVL165:
 1870              		.loc 1 559 0
 1871 0016 019A     		ldr	r2, [sp, #4]
 1872 0018 2368     		ldr	r3, [r4]
 1873 001a 9A42     		cmp	r2, r3
 1874 001c 05D1     		bne	.L139
 1875 001e 0748     		ldr	r0, .L140+12
 1876              		.loc 1 560 0
 1877 0020 02B0     		add	sp, sp, #8
 1878              		.cfi_remember_state
 1879              		.cfi_def_cfa_offset 8
 1880              		@ sp needed
 1881 0022 BDE81040 		pop	{r4, lr}
ARM GAS  C:\Users\mathi\AppData\Local\Temp\ccFSJwpz.s 			page 34


 1882              		.cfi_restore 14
 1883              		.cfi_restore 4
 1884              		.cfi_def_cfa_offset 0
 1885              		.loc 1 559 0
 1886 0026 FFF7FEBF 		b	chMtxObjectInit
 1887              	.LVL166:
 1888              	.L139:
 1889              		.cfi_restore_state
 1890 002a FFF7FEFF 		bl	__stack_chk_fail
 1891              	.LVL167:
 1892              	.L141:
 1893 002e 00BF     		.align	2
 1894              	.L140:
 1895 0030 00000000 		.word	__stack_chk_guard
 1896 0034 00000000 		.word	.LANCHOR3
 1897 0038 00000000 		.word	.LANCHOR0
 1898 003c 00000000 		.word	.LANCHOR1
 1899              		.cfi_endproc
 1900              	.LFE245:
 1901              		.size	mtx8_setup, .-mtx8_setup
 1902              		.section	.text.mtx7_execute,"ax",%progbits
 1903              		.align	1
 1904              		.p2align 4,,15
 1905              		.syntax unified
 1906              		.thumb
 1907              		.thumb_func
 1908              		.fpu fpv4-sp-d16
 1909              		.type	mtx7_execute, %function
 1910              	mtx7_execute:
 1911              	.LFB244:
 1912              		.loc 1 526 0
 1913              		.cfi_startproc
 1914              		@ args = 0, pretend = 0, frame = 8
 1915              		@ frame_needed = 0, uses_anonymous_args = 0
 1916 0000 F0B5     		push	{r4, r5, r6, r7, lr}
 1917              		.cfi_def_cfa_offset 20
 1918              		.cfi_offset 4, -20
 1919              		.cfi_offset 5, -16
 1920              		.cfi_offset 6, -12
 1921              		.cfi_offset 7, -8
 1922              		.cfi_offset 14, -4
 1923              	.LBB293:
 1924              	.LBB294:
 1925              	.LBB295:
 1926              	.LBB296:
 1927              		.loc 2 176 0
 1928 0002 284B     		ldr	r3, .L147
 1929              	.LBE296:
 1930              	.LBE295:
 1931              	.LBE294:
 1932              	.LBE293:
 1933              		.loc 1 526 0
 1934 0004 284F     		ldr	r7, .L147+4
 1935              	.LBB299:
 1936              	.LBB297:
 1937              		.loc 2 189 0
 1938 0006 9B69     		ldr	r3, [r3, #24]
ARM GAS  C:\Users\mathi\AppData\Local\Temp\ccFSJwpz.s 			page 35


 1939              	.LBE297:
 1940              	.LBE299:
 1941              		.loc 1 529 0
 1942 0008 284E     		ldr	r6, .L147+8
 1943              	.LBB300:
 1944              	.LBB298:
 1945              		.loc 2 189 0
 1946 000a 9D68     		ldr	r5, [r3, #8]
 1947              	.LBE298:
 1948              	.LBE300:
 1949              		.loc 1 526 0
 1950 000c 3968     		ldr	r1, [r7]
 1951              		.loc 1 529 0
 1952 000e 284B     		ldr	r3, .L147+12
 1953 0010 3068     		ldr	r0, [r6]
 1954 0012 284C     		ldr	r4, .L147+16
 1955              		.loc 1 526 0
 1956 0014 85B0     		sub	sp, sp, #20
 1957              		.cfi_def_cfa_offset 40
 1958              		.loc 1 529 0
 1959 0016 6A1C     		adds	r2, r5, #1
 1960 0018 0093     		str	r3, [sp]
 1961              		.loc 1 526 0
 1962 001a 0391     		str	r1, [sp, #12]
 1963              		.loc 1 529 0
 1964 001c 264B     		ldr	r3, .L147+20
 1965 001e 4FF4FC71 		mov	r1, #504
 1966 0022 FFF7FEFF 		bl	chThdCreateStatic
 1967              	.LVL168:
 1968              		.loc 1 530 0
 1969 0026 7168     		ldr	r1, [r6, #4]
 1970 0028 244B     		ldr	r3, .L147+24
 1971              		.loc 1 529 0
 1972 002a 2060     		str	r0, [r4]
 1973              		.loc 1 530 0
 1974 002c AA1C     		adds	r2, r5, #2
 1975 002e 0846     		mov	r0, r1
 1976 0030 0093     		str	r3, [sp]
 1977 0032 4FF4FC71 		mov	r1, #504
 1978 0036 204B     		ldr	r3, .L147+20
 1979 0038 FFF7FEFF 		bl	chThdCreateStatic
 1980              	.LVL169:
 1981              		.loc 1 531 0
 1982 003c B168     		ldr	r1, [r6, #8]
 1983 003e 204B     		ldr	r3, .L147+28
 1984              		.loc 1 530 0
 1985 0040 6060     		str	r0, [r4, #4]
 1986              		.loc 1 531 0
 1987 0042 EA1C     		adds	r2, r5, #3
 1988 0044 0846     		mov	r0, r1
 1989 0046 0093     		str	r3, [sp]
 1990 0048 4FF4FC71 		mov	r1, #504
 1991 004c 1A4B     		ldr	r3, .L147+20
 1992 004e FFF7FEFF 		bl	chThdCreateStatic
 1993              	.LVL170:
 1994              		.loc 1 532 0
 1995 0052 F168     		ldr	r1, [r6, #12]
ARM GAS  C:\Users\mathi\AppData\Local\Temp\ccFSJwpz.s 			page 36


 1996 0054 1B4B     		ldr	r3, .L147+32
 1997              		.loc 1 531 0
 1998 0056 A060     		str	r0, [r4, #8]
 1999              		.loc 1 532 0
 2000 0058 2A1D     		adds	r2, r5, #4
 2001 005a 0846     		mov	r0, r1
 2002 005c 0093     		str	r3, [sp]
 2003 005e 4FF4FC71 		mov	r1, #504
 2004 0062 154B     		ldr	r3, .L147+20
 2005 0064 FFF7FEFF 		bl	chThdCreateStatic
 2006              	.LVL171:
 2007              		.loc 1 533 0
 2008 0068 3169     		ldr	r1, [r6, #16]
 2009 006a 174B     		ldr	r3, .L147+36
 2010              		.loc 1 532 0
 2011 006c E060     		str	r0, [r4, #12]
 2012              		.loc 1 533 0
 2013 006e 6A1D     		adds	r2, r5, #5
 2014 0070 0846     		mov	r0, r1
 2015 0072 0093     		str	r3, [sp]
 2016 0074 4FF4FC71 		mov	r1, #504
 2017 0078 0F4B     		ldr	r3, .L147+20
 2018 007a FFF7FEFF 		bl	chThdCreateStatic
 2019              	.LVL172:
 2020 007e 2061     		str	r0, [r4, #16]
 2021              		.loc 1 534 0
 2022 0080 1248     		ldr	r0, .L147+40
 2023 0082 FFF7FEFF 		bl	chCondBroadcast
 2024              	.LVL173:
 2025              		.loc 1 535 0
 2026 0086 FFF7FEFF 		bl	test_wait_threads
 2027              	.LVL174:
 2028              		.loc 1 536 0
 2029 008a 039A     		ldr	r2, [sp, #12]
 2030 008c 3B68     		ldr	r3, [r7]
 2031 008e 9A42     		cmp	r2, r3
 2032 0090 06D1     		bne	.L146
 2033 0092 0F49     		ldr	r1, .L147+44
 2034 0094 0120     		movs	r0, #1
 2035              		.loc 1 537 0
 2036 0096 05B0     		add	sp, sp, #20
 2037              		.cfi_remember_state
 2038              		.cfi_def_cfa_offset 20
 2039              		@ sp needed
 2040 0098 BDE8F040 		pop	{r4, r5, r6, r7, lr}
 2041              		.cfi_restore 14
 2042              		.cfi_restore 7
 2043              		.cfi_restore 6
 2044              		.cfi_restore 5
 2045              		.cfi_restore 4
 2046              		.cfi_def_cfa_offset 0
 2047              		.loc 1 536 0
 2048 009c FFF7FEBF 		b	_test_assert_sequence
 2049              	.LVL175:
 2050              	.L146:
 2051              		.cfi_restore_state
 2052 00a0 FFF7FEFF 		bl	__stack_chk_fail
ARM GAS  C:\Users\mathi\AppData\Local\Temp\ccFSJwpz.s 			page 37


 2053              	.LVL176:
 2054              	.L148:
 2055              		.align	2
 2056              	.L147:
 2057 00a4 00000000 		.word	ch
 2058 00a8 00000000 		.word	__stack_chk_guard
 2059 00ac 00000000 		.word	wa
 2060 00b0 00000000 		.word	.LC0
 2061 00b4 00000000 		.word	threads
 2062 00b8 00000000 		.word	thread10
 2063 00bc 04000000 		.word	.LC1
 2064 00c0 08000000 		.word	.LC2
 2065 00c4 0C000000 		.word	.LC3
 2066 00c8 10000000 		.word	.LC4
 2067 00cc 00000000 		.word	.LANCHOR3
 2068 00d0 14000000 		.word	.LC5
 2069              		.cfi_endproc
 2070              	.LFE244:
 2071              		.size	mtx7_execute, .-mtx7_execute
 2072              		.section	.text.mtx8_execute,"ax",%progbits
 2073              		.align	1
 2074              		.p2align 4,,15
 2075              		.syntax unified
 2076              		.thumb
 2077              		.thumb_func
 2078              		.fpu fpv4-sp-d16
 2079              		.type	mtx8_execute, %function
 2080              	mtx8_execute:
 2081              	.LFB248:
 2082              		.loc 1 583 0
 2083              		.cfi_startproc
 2084              		@ args = 0, pretend = 0, frame = 8
 2085              		@ frame_needed = 0, uses_anonymous_args = 0
 2086 0000 F0B5     		push	{r4, r5, r6, r7, lr}
 2087              		.cfi_def_cfa_offset 20
 2088              		.cfi_offset 4, -20
 2089              		.cfi_offset 5, -16
 2090              		.cfi_offset 6, -12
 2091              		.cfi_offset 7, -8
 2092              		.cfi_offset 14, -4
 2093              	.LBB301:
 2094              	.LBB302:
 2095              	.LBB303:
 2096              	.LBB304:
 2097              		.loc 2 176 0
 2098 0002 1F4B     		ldr	r3, .L154
 2099              	.LBE304:
 2100              	.LBE303:
 2101              	.LBE302:
 2102              	.LBE301:
 2103              		.loc 1 583 0
 2104 0004 1F4F     		ldr	r7, .L154+4
 2105              	.LBB307:
 2106              	.LBB305:
 2107              		.loc 2 189 0
 2108 0006 9B69     		ldr	r3, [r3, #24]
 2109              	.LBE305:
ARM GAS  C:\Users\mathi\AppData\Local\Temp\ccFSJwpz.s 			page 38


 2110              	.LBE307:
 2111              		.loc 1 586 0
 2112 0008 1F4E     		ldr	r6, .L154+8
 2113              	.LBB308:
 2114              	.LBB306:
 2115              		.loc 2 189 0
 2116 000a 9D68     		ldr	r5, [r3, #8]
 2117              	.LBE306:
 2118              	.LBE308:
 2119              		.loc 1 583 0
 2120 000c 3968     		ldr	r1, [r7]
 2121              		.loc 1 586 0
 2122 000e 1F4B     		ldr	r3, .L154+12
 2123 0010 3068     		ldr	r0, [r6]
 2124 0012 1F4C     		ldr	r4, .L154+16
 2125              		.loc 1 583 0
 2126 0014 85B0     		sub	sp, sp, #20
 2127              		.cfi_def_cfa_offset 40
 2128              		.loc 1 586 0
 2129 0016 6A1C     		adds	r2, r5, #1
 2130 0018 0093     		str	r3, [sp]
 2131              		.loc 1 583 0
 2132 001a 0391     		str	r1, [sp, #12]
 2133              		.loc 1 586 0
 2134 001c 1D4B     		ldr	r3, .L154+20
 2135 001e 4FF4FC71 		mov	r1, #504
 2136 0022 FFF7FEFF 		bl	chThdCreateStatic
 2137              	.LVL177:
 2138              		.loc 1 587 0
 2139 0026 7168     		ldr	r1, [r6, #4]
 2140 0028 1B4B     		ldr	r3, .L154+24
 2141              		.loc 1 586 0
 2142 002a 2060     		str	r0, [r4]
 2143              		.loc 1 587 0
 2144 002c AA1C     		adds	r2, r5, #2
 2145 002e 0846     		mov	r0, r1
 2146 0030 0093     		str	r3, [sp]
 2147 0032 4FF4FC71 		mov	r1, #504
 2148 0036 194B     		ldr	r3, .L154+28
 2149 0038 FFF7FEFF 		bl	chThdCreateStatic
 2150              	.LVL178:
 2151              		.loc 1 588 0
 2152 003c B168     		ldr	r1, [r6, #8]
 2153 003e 184B     		ldr	r3, .L154+32
 2154              		.loc 1 587 0
 2155 0040 6060     		str	r0, [r4, #4]
 2156              		.loc 1 588 0
 2157 0042 EA1C     		adds	r2, r5, #3
 2158 0044 0846     		mov	r0, r1
 2159 0046 0093     		str	r3, [sp]
 2160 0048 4FF4FC71 		mov	r1, #504
 2161 004c 154B     		ldr	r3, .L154+36
 2162 004e FFF7FEFF 		bl	chThdCreateStatic
 2163              	.LVL179:
 2164 0052 A060     		str	r0, [r4, #8]
 2165              		.loc 1 589 0
 2166 0054 1448     		ldr	r0, .L154+40
ARM GAS  C:\Users\mathi\AppData\Local\Temp\ccFSJwpz.s 			page 39


 2167 0056 FFF7FEFF 		bl	chCondSignal
 2168              	.LVL180:
 2169              		.loc 1 590 0
 2170 005a 1348     		ldr	r0, .L154+40
 2171 005c FFF7FEFF 		bl	chCondSignal
 2172              	.LVL181:
 2173              		.loc 1 591 0
 2174 0060 FFF7FEFF 		bl	test_wait_threads
 2175              	.LVL182:
 2176              		.loc 1 592 0
 2177 0064 039A     		ldr	r2, [sp, #12]
 2178 0066 3B68     		ldr	r3, [r7]
 2179 0068 9A42     		cmp	r2, r3
 2180 006a 06D1     		bne	.L153
 2181 006c 0F49     		ldr	r1, .L154+44
 2182 006e 0120     		movs	r0, #1
 2183              		.loc 1 593 0
 2184 0070 05B0     		add	sp, sp, #20
 2185              		.cfi_remember_state
 2186              		.cfi_def_cfa_offset 20
 2187              		@ sp needed
 2188 0072 BDE8F040 		pop	{r4, r5, r6, r7, lr}
 2189              		.cfi_restore 14
 2190              		.cfi_restore 7
 2191              		.cfi_restore 6
 2192              		.cfi_restore 5
 2193              		.cfi_restore 4
 2194              		.cfi_def_cfa_offset 0
 2195              		.loc 1 592 0
 2196 0076 FFF7FEBF 		b	_test_assert_sequence
 2197              	.LVL183:
 2198              	.L153:
 2199              		.cfi_restore_state
 2200 007a FFF7FEFF 		bl	__stack_chk_fail
 2201              	.LVL184:
 2202              	.L155:
 2203 007e 00BF     		.align	2
 2204              	.L154:
 2205 0080 00000000 		.word	ch
 2206 0084 00000000 		.word	__stack_chk_guard
 2207 0088 00000000 		.word	wa
 2208 008c 10000000 		.word	.LC4
 2209 0090 00000000 		.word	threads
 2210 0094 00000000 		.word	thread11
 2211 0098 08000000 		.word	.LC2
 2212 009c 00000000 		.word	thread10
 2213 00a0 0C000000 		.word	.LC3
 2214 00a4 00000000 		.word	thread12
 2215 00a8 00000000 		.word	.LANCHOR3
 2216 00ac 00000000 		.word	.LC6
 2217              		.cfi_endproc
 2218              	.LFE248:
 2219              		.size	mtx8_execute, .-mtx8_execute
 2220              		.section	.text.thread11,"ax",%progbits
 2221              		.align	1
 2222              		.p2align 4,,15
 2223              		.syntax unified
ARM GAS  C:\Users\mathi\AppData\Local\Temp\ccFSJwpz.s 			page 40


 2224              		.thumb
 2225              		.thumb_func
 2226              		.fpu fpv4-sp-d16
 2227              		.type	thread11, %function
 2228              	thread11:
 2229              	.LFB246:
 2230              		.loc 1 562 0
 2231              		.cfi_startproc
 2232              		@ args = 0, pretend = 0, frame = 8
 2233              		@ frame_needed = 0, uses_anonymous_args = 0
 2234              	.LVL185:
 2235 0000 30B5     		push	{r4, r5, lr}
 2236              		.cfi_def_cfa_offset 12
 2237              		.cfi_offset 4, -12
 2238              		.cfi_offset 5, -8
 2239              		.cfi_offset 14, -4
 2240 0002 114C     		ldr	r4, .L161
 2241 0004 83B0     		sub	sp, sp, #12
 2242              		.cfi_def_cfa_offset 24
 2243              		.loc 1 562 0
 2244 0006 2368     		ldr	r3, [r4]
 2245 0008 0193     		str	r3, [sp, #4]
 2246 000a 0546     		mov	r5, r0
 2247              		.loc 1 564 0
 2248 000c 0F48     		ldr	r0, .L161+4
 2249              	.LVL186:
 2250 000e FFF7FEFF 		bl	chMtxLock
 2251              	.LVL187:
 2252              		.loc 1 565 0
 2253 0012 0F48     		ldr	r0, .L161+8
 2254 0014 FFF7FEFF 		bl	chMtxLock
 2255              	.LVL188:
 2256              		.loc 1 567 0
 2257 0018 4FF0FF31 		mov	r1, #-1
 2258 001c 0D48     		ldr	r0, .L161+12
 2259 001e FFF7FEFF 		bl	chCondWaitTimeout
 2260              	.LVL189:
 2261              		.loc 1 571 0
 2262 0022 2878     		ldrb	r0, [r5]	@ zero_extendqisi2
 2263 0024 FFF7FEFF 		bl	test_emit_token
 2264              	.LVL190:
 2265              		.loc 1 572 0
 2266 0028 0948     		ldr	r0, .L161+8
 2267 002a FFF7FEFF 		bl	chMtxUnlock
 2268              	.LVL191:
 2269              		.loc 1 573 0
 2270 002e 019A     		ldr	r2, [sp, #4]
 2271 0030 2368     		ldr	r3, [r4]
 2272 0032 9A42     		cmp	r2, r3
 2273 0034 05D1     		bne	.L160
 2274 0036 0548     		ldr	r0, .L161+4
 2275              		.loc 1 574 0
 2276 0038 03B0     		add	sp, sp, #12
 2277              		.cfi_remember_state
 2278              		.cfi_def_cfa_offset 12
 2279              		@ sp needed
 2280 003a BDE83040 		pop	{r4, r5, lr}
ARM GAS  C:\Users\mathi\AppData\Local\Temp\ccFSJwpz.s 			page 41


 2281              		.cfi_restore 14
 2282              		.cfi_restore 5
 2283              		.cfi_restore 4
 2284              		.cfi_def_cfa_offset 0
 2285              	.LVL192:
 2286              		.loc 1 573 0
 2287 003e FFF7FEBF 		b	chMtxUnlock
 2288              	.LVL193:
 2289              	.L160:
 2290              		.cfi_restore_state
 2291 0042 FFF7FEFF 		bl	__stack_chk_fail
 2292              	.LVL194:
 2293              	.L162:
 2294 0046 00BF     		.align	2
 2295              	.L161:
 2296 0048 00000000 		.word	__stack_chk_guard
 2297 004c 00000000 		.word	.LANCHOR1
 2298 0050 00000000 		.word	.LANCHOR0
 2299 0054 00000000 		.word	.LANCHOR3
 2300              		.cfi_endproc
 2301              	.LFE246:
 2302              		.size	thread11, .-thread11
 2303              		.section	.text.mtx5_execute,"ax",%progbits
 2304              		.align	1
 2305              		.p2align 4,,15
 2306              		.syntax unified
 2307              		.thumb
 2308              		.thumb_func
 2309              		.fpu fpv4-sp-d16
 2310              		.type	mtx5_execute, %function
 2311              	mtx5_execute:
 2312              	.LFB239:
 2313              		.loc 1 423 0
 2314              		.cfi_startproc
 2315              		@ args = 0, pretend = 0, frame = 8
 2316              		@ frame_needed = 0, uses_anonymous_args = 0
 2317 0000 30B5     		push	{r4, r5, lr}
 2318              		.cfi_def_cfa_offset 12
 2319              		.cfi_offset 4, -12
 2320              		.cfi_offset 5, -8
 2321              		.cfi_offset 14, -4
 2322              		.loc 1 444 0
 2323 0002 134C     		ldr	r4, .L170
 2324              		.loc 1 423 0
 2325 0004 134D     		ldr	r5, .L170+4
 2326 0006 83B0     		sub	sp, sp, #12
 2327              		.cfi_def_cfa_offset 24
 2328              		.loc 1 423 0
 2329 0008 2B68     		ldr	r3, [r5]
 2330 000a 0193     		str	r3, [sp, #4]
 2331              		.loc 1 444 0
 2332 000c 2046     		mov	r0, r4
 2333 000e FFF7FEFF 		bl	chMtxLock
 2334              	.LVL195:
 2335              		.loc 1 445 0
 2336 0012 FFF7FEFF 		bl	chMtxUnlockAll
 2337              	.LVL196:
ARM GAS  C:\Users\mathi\AppData\Local\Temp\ccFSJwpz.s 			page 42


 2338              	.LBB315:
 2339              	.LBB316:
 2340              		.file 5 "../../lib/e-puck2_main-processor/ChibiOS//os/rt/include/chschd.h"
 2341              		.loc 5 618 0
 2342 0016 2168     		ldr	r1, [r4]
 2343              	.LBE316:
 2344              	.LBE315:
 2345              		.loc 1 446 0
 2346 0018 091B     		subs	r1, r1, r4
 2347 001a B1FA81F1 		clz	r1, r1
 2348 001e 0620     		movs	r0, #6
 2349 0020 4909     		lsrs	r1, r1, #5
 2350 0022 FFF7FEFF 		bl	_test_assert
 2351              	.LVL197:
 2352              		.loc 1 448 0
 2353 0026 019A     		ldr	r2, [sp, #4]
 2354 0028 2B68     		ldr	r3, [r5]
 2355              		.loc 1 446 0
 2356 002a 18B1     		cbz	r0, .L169
 2357              		.loc 1 448 0
 2358 002c 9A42     		cmp	r2, r3
 2359 002e 0DD1     		bne	.L168
 2360 0030 03B0     		add	sp, sp, #12
 2361              		.cfi_remember_state
 2362              		.cfi_def_cfa_offset 12
 2363              		@ sp needed
 2364 0032 30BD     		pop	{r4, r5, pc}
 2365              	.L169:
 2366              		.cfi_restore_state
 2367              	.LBB317:
 2368              	.LBB318:
 2369              		.loc 1 447 0
 2370 0034 9A42     		cmp	r2, r3
 2371 0036 09D1     		bne	.L168
 2372 0038 A168     		ldr	r1, [r4, #8]
 2373 003a B1FA81F1 		clz	r1, r1
 2374 003e 4909     		lsrs	r1, r1, #5
 2375 0040 0720     		movs	r0, #7
 2376              	.LBE318:
 2377              	.LBE317:
 2378              		.loc 1 448 0
 2379 0042 03B0     		add	sp, sp, #12
 2380              		.cfi_remember_state
 2381              		.cfi_def_cfa_offset 12
 2382              		@ sp needed
 2383 0044 BDE83040 		pop	{r4, r5, lr}
 2384              		.cfi_restore 14
 2385              		.cfi_restore 5
 2386              		.cfi_restore 4
 2387              		.cfi_def_cfa_offset 0
 2388              	.LBB320:
 2389              	.LBB319:
 2390              		.loc 1 447 0
 2391 0048 FFF7FEBF 		b	_test_assert
 2392              	.LVL198:
 2393              	.L168:
 2394              		.cfi_restore_state
ARM GAS  C:\Users\mathi\AppData\Local\Temp\ccFSJwpz.s 			page 43


 2395              	.LBE319:
 2396              	.LBE320:
 2397              		.loc 1 448 0
 2398 004c FFF7FEFF 		bl	__stack_chk_fail
 2399              	.LVL199:
 2400              	.L171:
 2401              		.align	2
 2402              	.L170:
 2403 0050 00000000 		.word	.LANCHOR0
 2404 0054 00000000 		.word	__stack_chk_guard
 2405              		.cfi_endproc
 2406              	.LFE239:
 2407              		.size	mtx5_execute, .-mtx5_execute
 2408              		.section	.text.mtx5_setup,"ax",%progbits
 2409              		.align	1
 2410              		.p2align 4,,15
 2411              		.syntax unified
 2412              		.thumb
 2413              		.thumb_func
 2414              		.fpu fpv4-sp-d16
 2415              		.type	mtx5_setup, %function
 2416              	mtx5_setup:
 2417              	.LFB253:
 2418              		.cfi_startproc
 2419              		@ args = 0, pretend = 0, frame = 8
 2420              		@ frame_needed = 0, uses_anonymous_args = 0
 2421 0000 00B5     		push	{lr}
 2422              		.cfi_def_cfa_offset 4
 2423              		.cfi_offset 14, -4
 2424 0002 084B     		ldr	r3, .L177
 2425 0004 83B0     		sub	sp, sp, #12
 2426              		.cfi_def_cfa_offset 16
 2427 0006 1A68     		ldr	r2, [r3]
 2428 0008 0192     		str	r2, [sp, #4]
 2429 000a 019A     		ldr	r2, [sp, #4]
 2430 000c 1B68     		ldr	r3, [r3]
 2431 000e 9A42     		cmp	r2, r3
 2432 0010 05D1     		bne	.L176
 2433 0012 0548     		ldr	r0, .L177+4
 2434 0014 03B0     		add	sp, sp, #12
 2435              		.cfi_remember_state
 2436              		.cfi_def_cfa_offset 4
 2437              		@ sp needed
 2438 0016 5DF804EB 		ldr	lr, [sp], #4
 2439              		.cfi_restore 14
 2440              		.cfi_def_cfa_offset 0
 2441 001a FFF7FEBF 		b	chMtxObjectInit
 2442              	.L176:
 2443              		.cfi_restore_state
 2444 001e FFF7FEFF 		bl	__stack_chk_fail
 2445              	.L178:
 2446 0022 00BF     		.align	2
 2447              	.L177:
 2448 0024 00000000 		.word	__stack_chk_guard
 2449 0028 00000000 		.word	.LANCHOR0
 2450              		.cfi_endproc
 2451              	.LFE253:
ARM GAS  C:\Users\mathi\AppData\Local\Temp\ccFSJwpz.s 			page 44


 2452              		.size	mtx5_setup, .-mtx5_setup
 2453              		.section	.text.mtx2_setup,"ax",%progbits
 2454              		.align	1
 2455              		.p2align 4,,15
 2456              		.syntax unified
 2457              		.thumb
 2458              		.thumb_func
 2459              		.fpu fpv4-sp-d16
 2460              		.type	mtx2_setup, %function
 2461              	mtx2_setup:
 2462              	.LFB251:
 2463              		.cfi_startproc
 2464              		@ args = 0, pretend = 0, frame = 8
 2465              		@ frame_needed = 0, uses_anonymous_args = 0
 2466 0000 00B5     		push	{lr}
 2467              		.cfi_def_cfa_offset 4
 2468              		.cfi_offset 14, -4
 2469 0002 084B     		ldr	r3, .L184
 2470 0004 83B0     		sub	sp, sp, #12
 2471              		.cfi_def_cfa_offset 16
 2472 0006 1A68     		ldr	r2, [r3]
 2473 0008 0192     		str	r2, [sp, #4]
 2474 000a 019A     		ldr	r2, [sp, #4]
 2475 000c 1B68     		ldr	r3, [r3]
 2476 000e 9A42     		cmp	r2, r3
 2477 0010 05D1     		bne	.L183
 2478 0012 0548     		ldr	r0, .L184+4
 2479 0014 03B0     		add	sp, sp, #12
 2480              		.cfi_remember_state
 2481              		.cfi_def_cfa_offset 4
 2482              		@ sp needed
 2483 0016 5DF804EB 		ldr	lr, [sp], #4
 2484              		.cfi_restore 14
 2485              		.cfi_def_cfa_offset 0
 2486 001a FFF7FEBF 		b	chMtxObjectInit
 2487              	.L183:
 2488              		.cfi_restore_state
 2489 001e FFF7FEFF 		bl	__stack_chk_fail
 2490              	.L185:
 2491 0022 00BF     		.align	2
 2492              	.L184:
 2493 0024 00000000 		.word	__stack_chk_guard
 2494 0028 00000000 		.word	.LANCHOR0
 2495              		.cfi_endproc
 2496              	.LFE251:
 2497              		.size	mtx2_setup, .-mtx2_setup
 2498              		.section	.text.mtx7_setup,"ax",%progbits
 2499              		.align	1
 2500              		.p2align 4,,15
 2501              		.syntax unified
 2502              		.thumb
 2503              		.thumb_func
 2504              		.fpu fpv4-sp-d16
 2505              		.type	mtx7_setup, %function
 2506              	mtx7_setup:
 2507              	.LFB257:
 2508              		.cfi_startproc
ARM GAS  C:\Users\mathi\AppData\Local\Temp\ccFSJwpz.s 			page 45


 2509              		@ args = 0, pretend = 0, frame = 8
 2510              		@ frame_needed = 0, uses_anonymous_args = 0
 2511 0000 10B5     		push	{r4, lr}
 2512              		.cfi_def_cfa_offset 8
 2513              		.cfi_offset 4, -8
 2514              		.cfi_offset 14, -4
 2515 0002 094C     		ldr	r4, .L191
 2516 0004 0948     		ldr	r0, .L191+4
 2517 0006 2368     		ldr	r3, [r4]
 2518 0008 82B0     		sub	sp, sp, #8
 2519              		.cfi_def_cfa_offset 16
 2520 000a 0193     		str	r3, [sp, #4]
 2521 000c FFF7FEFF 		bl	chCondObjectInit
 2522 0010 019A     		ldr	r2, [sp, #4]
 2523 0012 2368     		ldr	r3, [r4]
 2524 0014 9A42     		cmp	r2, r3
 2525 0016 05D1     		bne	.L190
 2526 0018 0548     		ldr	r0, .L191+8
 2527 001a 02B0     		add	sp, sp, #8
 2528              		.cfi_remember_state
 2529              		.cfi_def_cfa_offset 8
 2530              		@ sp needed
 2531 001c BDE81040 		pop	{r4, lr}
 2532              		.cfi_restore 14
 2533              		.cfi_restore 4
 2534              		.cfi_def_cfa_offset 0
 2535 0020 FFF7FEBF 		b	chMtxObjectInit
 2536              	.L190:
 2537              		.cfi_restore_state
 2538 0024 FFF7FEFF 		bl	__stack_chk_fail
 2539              	.L192:
 2540              		.align	2
 2541              	.L191:
 2542 0028 00000000 		.word	__stack_chk_guard
 2543 002c 00000000 		.word	.LANCHOR3
 2544 0030 00000000 		.word	.LANCHOR0
 2545              		.cfi_endproc
 2546              	.LFE257:
 2547              		.size	mtx7_setup, .-mtx7_setup
 2548              		.section	.text.mtx4_setup,"ax",%progbits
 2549              		.align	1
 2550              		.p2align 4,,15
 2551              		.syntax unified
 2552              		.thumb
 2553              		.thumb_func
 2554              		.fpu fpv4-sp-d16
 2555              		.type	mtx4_setup, %function
 2556              	mtx4_setup:
 2557              	.LFB255:
 2558              		.cfi_startproc
 2559              		@ args = 0, pretend = 0, frame = 8
 2560              		@ frame_needed = 0, uses_anonymous_args = 0
 2561 0000 10B5     		push	{r4, lr}
 2562              		.cfi_def_cfa_offset 8
 2563              		.cfi_offset 4, -8
 2564              		.cfi_offset 14, -4
 2565 0002 094C     		ldr	r4, .L198
ARM GAS  C:\Users\mathi\AppData\Local\Temp\ccFSJwpz.s 			page 46


 2566 0004 0948     		ldr	r0, .L198+4
 2567 0006 2368     		ldr	r3, [r4]
 2568 0008 82B0     		sub	sp, sp, #8
 2569              		.cfi_def_cfa_offset 16
 2570 000a 0193     		str	r3, [sp, #4]
 2571 000c FFF7FEFF 		bl	chMtxObjectInit
 2572 0010 019A     		ldr	r2, [sp, #4]
 2573 0012 2368     		ldr	r3, [r4]
 2574 0014 9A42     		cmp	r2, r3
 2575 0016 05D1     		bne	.L197
 2576 0018 0548     		ldr	r0, .L198+8
 2577 001a 02B0     		add	sp, sp, #8
 2578              		.cfi_remember_state
 2579              		.cfi_def_cfa_offset 8
 2580              		@ sp needed
 2581 001c BDE81040 		pop	{r4, lr}
 2582              		.cfi_restore 14
 2583              		.cfi_restore 4
 2584              		.cfi_def_cfa_offset 0
 2585 0020 FFF7FEBF 		b	chMtxObjectInit
 2586              	.L197:
 2587              		.cfi_restore_state
 2588 0024 FFF7FEFF 		bl	__stack_chk_fail
 2589              	.L199:
 2590              		.align	2
 2591              	.L198:
 2592 0028 00000000 		.word	__stack_chk_guard
 2593 002c 00000000 		.word	.LANCHOR0
 2594 0030 00000000 		.word	.LANCHOR1
 2595              		.cfi_endproc
 2596              	.LFE255:
 2597              		.size	mtx4_setup, .-mtx4_setup
 2598              		.section	.text.mtx2_execute,"ax",%progbits
 2599              		.align	1
 2600              		.p2align 4,,15
 2601              		.syntax unified
 2602              		.thumb
 2603              		.thumb_func
 2604              		.fpu fpv4-sp-d16
 2605              		.type	mtx2_execute, %function
 2606              	mtx2_execute:
 2607              	.LFB226:
 2608              		.loc 1 186 0
 2609              		.cfi_startproc
 2610              		@ args = 0, pretend = 0, frame = 8
 2611              		@ frame_needed = 0, uses_anonymous_args = 0
 2612              		.loc 1 186 0
 2613 0000 2DE9F043 		push	{r4, r5, r6, r7, r8, r9, lr}
 2614              		.cfi_def_cfa_offset 28
 2615              		.cfi_offset 4, -28
 2616              		.cfi_offset 5, -24
 2617              		.cfi_offset 6, -20
 2618              		.cfi_offset 7, -16
 2619              		.cfi_offset 8, -12
 2620              		.cfi_offset 9, -8
 2621              		.cfi_offset 14, -4
 2622 0004 DFF8E880 		ldr	r8, .L209+32
ARM GAS  C:\Users\mathi\AppData\Local\Temp\ccFSJwpz.s 			page 47


 2623 0008 85B0     		sub	sp, sp, #20
 2624              		.cfi_def_cfa_offset 48
 2625              		.loc 1 186 0
 2626 000a D8F80030 		ldr	r3, [r8]
 2627 000e 0393     		str	r3, [sp, #12]
 2628              		.loc 1 189 0
 2629 0010 FFF7FEFF 		bl	test_wait_tick
 2630              	.LVL200:
 2631              	.LBB347:
 2632              	.LBB348:
 2633              	.LBB349:
 2634              	.LBB350:
 2635              	.LBB351:
 2636              	.LBB352:
 2637              	.LBB353:
 2638              		.loc 3 546 0
 2639 0014 2023     		movs	r3, #32
 2640              		.syntax unified
 2641              	@ 546 "../../lib/e-puck2_main-processor/ChibiOS//os/ext/CMSIS/include/core_cmFunc.h" 1
 2642 0016 83F31188 		MSR basepri, r3
 2643              	@ 0 "" 2
 2644              	.LVL201:
 2645              		.thumb
 2646              		.syntax unified
 2647              	.LBE353:
 2648              	.LBE352:
 2649              	.LBE351:
 2650              	.LBE350:
 2651              	.LBE349:
 2652              	.LBB355:
 2653              	.LBB356:
 2654              		.file 6 "../../lib/e-puck2_main-processor/ChibiOS//os/rt/include/chvt.h"
 2655              		.loc 6 231 0
 2656 001a 2D4C     		ldr	r4, .L209
 2657              	.LBE356:
 2658              	.LBE355:
 2659              	.LBB358:
 2660              	.LBB354:
 2661              		.loc 4 349 0
 2662 001c FFF7FEFF 		bl	_stats_start_measure_crit_thd
 2663              	.LVL202:
 2664              		.loc 4 350 0
 2665 0020 FFF7FEFF 		bl	_dbg_check_lock
 2666              	.LVL203:
 2667              	.LBE354:
 2668              	.LBE358:
 2669              	.LBB359:
 2670              	.LBB357:
 2671              		.loc 6 231 0
 2672 0024 D4F82890 		ldr	r9, [r4, #40]
 2673              	.LBE357:
 2674              	.LBE359:
 2675              	.LBB360:
 2676              	.LBB361:
 2677              		.loc 4 360 0
 2678 0028 FFF7FEFF 		bl	_dbg_check_unlock
 2679              	.LVL204:
ARM GAS  C:\Users\mathi\AppData\Local\Temp\ccFSJwpz.s 			page 48


 2680              		.loc 4 361 0
 2681 002c FFF7FEFF 		bl	_stats_stop_measure_crit_thd
 2682              	.LVL205:
 2683              		.loc 4 367 0
 2684 0030 2368     		ldr	r3, [r4]
 2685 0032 A342     		cmp	r3, r4
 2686 0034 04D0     		beq	.L201
 2687 0036 A269     		ldr	r2, [r4, #24]
 2688 0038 9B68     		ldr	r3, [r3, #8]
 2689 003a 9268     		ldr	r2, [r2, #8]
 2690 003c 9A42     		cmp	r2, r3
 2691 003e 34D3     		bcc	.L207
 2692              	.L201:
 2693              	.LVL206:
 2694              	.LBB362:
 2695              	.LBB363:
 2696              	.LBB364:
 2697              		.loc 3 546 0
 2698 0040 0025     		movs	r5, #0
 2699              		.syntax unified
 2700              	@ 546 "../../lib/e-puck2_main-processor/ChibiOS//os/ext/CMSIS/include/core_cmFunc.h" 1
 2701 0042 85F31188 		MSR basepri, r5
 2702              	@ 0 "" 2
 2703              	.LVL207:
 2704              		.thumb
 2705              		.syntax unified
 2706              	.LBE364:
 2707              	.LBE363:
 2708              	.LBE362:
 2709              	.LBE361:
 2710              	.LBE360:
 2711              	.LBE348:
 2712              	.LBE347:
 2713              	.LBB368:
 2714              	.LBB369:
 2715              		.loc 2 189 0
 2716 0046 A369     		ldr	r3, [r4, #24]
 2717              	.LBE369:
 2718              	.LBE368:
 2719              		.loc 1 191 0
 2720 0048 224F     		ldr	r7, .L209+4
 2721 004a 9A68     		ldr	r2, [r3, #8]
 2722 004c 3868     		ldr	r0, [r7]
 2723 004e 224B     		ldr	r3, .L209+8
 2724 0050 0095     		str	r5, [sp]
 2725 0052 013A     		subs	r2, r2, #1
 2726 0054 4FF4FC71 		mov	r1, #504
 2727 0058 FFF7FEFF 		bl	chThdCreateStatic
 2728              	.LVL208:
 2729 005c 1F4E     		ldr	r6, .L209+12
 2730              	.LBB370:
 2731              	.LBB371:
 2732              		.loc 2 189 0
 2733 005e A369     		ldr	r3, [r4, #24]
 2734              	.LBE371:
 2735              	.LBE370:
 2736              		.loc 1 191 0
ARM GAS  C:\Users\mathi\AppData\Local\Temp\ccFSJwpz.s 			page 49


 2737 0060 3060     		str	r0, [r6]
 2738              		.loc 1 192 0
 2739 0062 9A68     		ldr	r2, [r3, #8]
 2740 0064 7868     		ldr	r0, [r7, #4]
 2741 0066 1E4B     		ldr	r3, .L209+16
 2742 0068 0095     		str	r5, [sp]
 2743 006a 023A     		subs	r2, r2, #2
 2744 006c 4FF4FC71 		mov	r1, #504
 2745 0070 FFF7FEFF 		bl	chThdCreateStatic
 2746              	.LVL209:
 2747              	.LBB372:
 2748              	.LBB373:
 2749              		.loc 2 189 0
 2750 0074 A369     		ldr	r3, [r4, #24]
 2751              	.LBE373:
 2752              	.LBE372:
 2753              		.loc 1 192 0
 2754 0076 7060     		str	r0, [r6, #4]
 2755              		.loc 1 193 0
 2756 0078 9A68     		ldr	r2, [r3, #8]
 2757 007a B868     		ldr	r0, [r7, #8]
 2758 007c 194B     		ldr	r3, .L209+20
 2759 007e 0095     		str	r5, [sp]
 2760 0080 033A     		subs	r2, r2, #3
 2761 0082 4FF4FC71 		mov	r1, #504
 2762 0086 FFF7FEFF 		bl	chThdCreateStatic
 2763              	.LVL210:
 2764 008a B060     		str	r0, [r6, #8]
 2765              		.loc 1 194 0
 2766 008c FFF7FEFF 		bl	test_wait_threads
 2767              	.LVL211:
 2768              		.loc 1 195 0
 2769 0090 1549     		ldr	r1, .L209+24
 2770 0092 0120     		movs	r0, #1
 2771 0094 FFF7FEFF 		bl	_test_assert_sequence
 2772              	.LVL212:
 2773              		.loc 1 197 0
 2774 0098 039A     		ldr	r2, [sp, #12]
 2775 009a D8F80030 		ldr	r3, [r8]
 2776              		.loc 1 195 0
 2777 009e 40B1     		cbz	r0, .L208
 2778              		.loc 1 197 0
 2779 00a0 9A42     		cmp	r2, r3
 2780 00a2 12D1     		bne	.L206
 2781 00a4 05B0     		add	sp, sp, #20
 2782              		.cfi_remember_state
 2783              		.cfi_def_cfa_offset 28
 2784              		@ sp needed
 2785 00a6 BDE8F083 		pop	{r4, r5, r6, r7, r8, r9, pc}
 2786              	.L207:
 2787              		.cfi_restore_state
 2788              	.LBB374:
 2789              	.LBB367:
 2790              	.LBB366:
 2791              	.LBB365:
 2792              		.loc 4 367 0
 2793 00aa 1048     		ldr	r0, .L209+28
ARM GAS  C:\Users\mathi\AppData\Local\Temp\ccFSJwpz.s 			page 50


 2794 00ac FFF7FEFF 		bl	chSysHalt
 2795              	.LVL213:
 2796 00b0 C6E7     		b	.L201
 2797              	.L208:
 2798              	.LBE365:
 2799              	.LBE366:
 2800              	.LBE367:
 2801              	.LBE374:
 2802              		.loc 1 196 0
 2803 00b2 9A42     		cmp	r2, r3
 2804 00b4 09D1     		bne	.L206
 2805 00b6 09F16902 		add	r2, r9, #105
 2806 00ba 09F16401 		add	r1, r9, #100
 2807 00be 0220     		movs	r0, #2
 2808              		.loc 1 197 0
 2809 00c0 05B0     		add	sp, sp, #20
 2810              		.cfi_remember_state
 2811              		.cfi_def_cfa_offset 28
 2812              		@ sp needed
 2813 00c2 BDE8F043 		pop	{r4, r5, r6, r7, r8, r9, lr}
 2814              		.cfi_restore 14
 2815              		.cfi_restore 9
 2816              		.cfi_restore 8
 2817              		.cfi_restore 7
 2818              		.cfi_restore 6
 2819              		.cfi_restore 5
 2820              		.cfi_restore 4
 2821              		.cfi_def_cfa_offset 0
 2822              		.loc 1 196 0
 2823 00c6 FFF7FEBF 		b	_test_assert_time_window
 2824              	.LVL214:
 2825              	.L206:
 2826              		.cfi_restore_state
 2827              		.loc 1 197 0
 2828 00ca FFF7FEFF 		bl	__stack_chk_fail
 2829              	.LVL215:
 2830              	.L210:
 2831 00ce 00BF     		.align	2
 2832              	.L209:
 2833 00d0 00000000 		.word	ch
 2834 00d4 00000000 		.word	wa
 2835 00d8 00000000 		.word	thread2H
 2836 00dc 00000000 		.word	threads
 2837 00e0 00000000 		.word	thread2M
 2838 00e4 00000000 		.word	thread2L
 2839 00e8 00000000 		.word	.LC6
 2840 00ec 00000000 		.word	.LANCHOR2
 2841 00f0 00000000 		.word	__stack_chk_guard
 2842              		.cfi_endproc
 2843              	.LFE226:
 2844              		.size	mtx2_execute, .-mtx2_execute
 2845              		.section	.text.mtx6_execute,"ax",%progbits
 2846              		.align	1
 2847              		.p2align 4,,15
 2848              		.syntax unified
 2849              		.thumb
 2850              		.thumb_func
ARM GAS  C:\Users\mathi\AppData\Local\Temp\ccFSJwpz.s 			page 51


 2851              		.fpu fpv4-sp-d16
 2852              		.type	mtx6_execute, %function
 2853              	mtx6_execute:
 2854              	.LFB242:
 2855              		.loc 1 483 0
 2856              		.cfi_startproc
 2857              		@ args = 0, pretend = 0, frame = 8
 2858              		@ frame_needed = 0, uses_anonymous_args = 0
 2859 0000 2DE9F041 		push	{r4, r5, r6, r7, r8, lr}
 2860              		.cfi_def_cfa_offset 24
 2861              		.cfi_offset 4, -24
 2862              		.cfi_offset 5, -20
 2863              		.cfi_offset 6, -16
 2864              		.cfi_offset 7, -12
 2865              		.cfi_offset 8, -8
 2866              		.cfi_offset 14, -4
 2867              	.LBB389:
 2868              	.LBB390:
 2869              	.LBB391:
 2870              	.LBB392:
 2871              		.loc 2 176 0
 2872 0004 3D4F     		ldr	r7, .L218
 2873              	.LBE392:
 2874              	.LBE391:
 2875              	.LBE390:
 2876              	.LBE389:
 2877              		.loc 1 483 0
 2878 0006 DFF82481 		ldr	r8, .L218+48
 2879              	.LBB395:
 2880              	.LBB393:
 2881              		.loc 2 189 0
 2882 000a BB69     		ldr	r3, [r7, #24]
 2883              	.LBE393:
 2884              	.LBE395:
 2885              		.loc 1 486 0
 2886 000c 3C4E     		ldr	r6, .L218+4
 2887              	.LBB396:
 2888              	.LBB394:
 2889              		.loc 2 189 0
 2890 000e 9D68     		ldr	r5, [r3, #8]
 2891              	.LBE394:
 2892              	.LBE396:
 2893              		.loc 1 483 0
 2894 0010 D8F80010 		ldr	r1, [r8]
 2895              		.loc 1 486 0
 2896 0014 3B4B     		ldr	r3, .L218+8
 2897 0016 3068     		ldr	r0, [r6]
 2898 0018 3B4C     		ldr	r4, .L218+12
 2899              		.loc 1 483 0
 2900 001a 84B0     		sub	sp, sp, #16
 2901              		.cfi_def_cfa_offset 40
 2902              		.loc 1 486 0
 2903 001c 6A1C     		adds	r2, r5, #1
 2904 001e 0093     		str	r3, [sp]
 2905              		.loc 1 483 0
 2906 0020 0391     		str	r1, [sp, #12]
 2907              		.loc 1 486 0
ARM GAS  C:\Users\mathi\AppData\Local\Temp\ccFSJwpz.s 			page 52


 2908 0022 3A4B     		ldr	r3, .L218+16
 2909 0024 4FF4FC71 		mov	r1, #504
 2910 0028 FFF7FEFF 		bl	chThdCreateStatic
 2911              	.LVL216:
 2912              		.loc 1 487 0
 2913 002c 7168     		ldr	r1, [r6, #4]
 2914 002e 384B     		ldr	r3, .L218+20
 2915              		.loc 1 486 0
 2916 0030 2060     		str	r0, [r4]
 2917              		.loc 1 487 0
 2918 0032 AA1C     		adds	r2, r5, #2
 2919 0034 0093     		str	r3, [sp]
 2920 0036 0846     		mov	r0, r1
 2921 0038 344B     		ldr	r3, .L218+16
 2922 003a 4FF4FC71 		mov	r1, #504
 2923 003e FFF7FEFF 		bl	chThdCreateStatic
 2924              	.LVL217:
 2925              		.loc 1 488 0
 2926 0042 B168     		ldr	r1, [r6, #8]
 2927 0044 334B     		ldr	r3, .L218+24
 2928              		.loc 1 487 0
 2929 0046 6060     		str	r0, [r4, #4]
 2930              		.loc 1 488 0
 2931 0048 EA1C     		adds	r2, r5, #3
 2932 004a 0093     		str	r3, [sp]
 2933 004c 0846     		mov	r0, r1
 2934 004e 2F4B     		ldr	r3, .L218+16
 2935 0050 4FF4FC71 		mov	r1, #504
 2936 0054 FFF7FEFF 		bl	chThdCreateStatic
 2937              	.LVL218:
 2938              		.loc 1 489 0
 2939 0058 F168     		ldr	r1, [r6, #12]
 2940 005a 2F4B     		ldr	r3, .L218+28
 2941              		.loc 1 488 0
 2942 005c A060     		str	r0, [r4, #8]
 2943              		.loc 1 489 0
 2944 005e 2A1D     		adds	r2, r5, #4
 2945 0060 0093     		str	r3, [sp]
 2946 0062 0846     		mov	r0, r1
 2947 0064 294B     		ldr	r3, .L218+16
 2948 0066 4FF4FC71 		mov	r1, #504
 2949 006a FFF7FEFF 		bl	chThdCreateStatic
 2950              	.LVL219:
 2951              		.loc 1 490 0
 2952 006e 3169     		ldr	r1, [r6, #16]
 2953 0070 2A4B     		ldr	r3, .L218+32
 2954              		.loc 1 489 0
 2955 0072 E060     		str	r0, [r4, #12]
 2956              		.loc 1 490 0
 2957 0074 0093     		str	r3, [sp]
 2958 0076 6A1D     		adds	r2, r5, #5
 2959 0078 0846     		mov	r0, r1
 2960 007a 244B     		ldr	r3, .L218+16
 2961 007c 4FF4FC71 		mov	r1, #504
 2962 0080 FFF7FEFF 		bl	chThdCreateStatic
 2963              	.LVL220:
 2964              	.LBB397:
ARM GAS  C:\Users\mathi\AppData\Local\Temp\ccFSJwpz.s 			page 53


 2965              	.LBB398:
 2966              	.LBB399:
 2967              	.LBB400:
 2968              	.LBB401:
 2969              		.loc 3 546 0
 2970 0084 2023     		movs	r3, #32
 2971              	.LBE401:
 2972              	.LBE400:
 2973              	.LBE399:
 2974              	.LBE398:
 2975              	.LBE397:
 2976              		.loc 1 490 0
 2977 0086 2061     		str	r0, [r4, #16]
 2978              	.LVL221:
 2979              	.LBB406:
 2980              	.LBB405:
 2981              	.LBB404:
 2982              	.LBB403:
 2983              	.LBB402:
 2984              		.loc 3 546 0
 2985              		.syntax unified
 2986              	@ 546 "../../lib/e-puck2_main-processor/ChibiOS//os/ext/CMSIS/include/core_cmFunc.h" 1
 2987 0088 83F31188 		MSR basepri, r3
 2988              	@ 0 "" 2
 2989              	.LVL222:
 2990              		.thumb
 2991              		.syntax unified
 2992              	.LBE402:
 2993              	.LBE403:
 2994              	.LBE404:
 2995              		.loc 4 349 0
 2996 008c FFF7FEFF 		bl	_stats_start_measure_crit_thd
 2997              	.LVL223:
 2998              		.loc 4 350 0
 2999 0090 FFF7FEFF 		bl	_dbg_check_lock
 3000              	.LVL224:
 3001              	.LBE405:
 3002              	.LBE406:
 3003              		.loc 1 492 0
 3004 0094 2248     		ldr	r0, .L218+36
 3005 0096 FFF7FEFF 		bl	chCondSignalI
 3006              	.LVL225:
 3007              		.loc 1 493 0
 3008 009a 2148     		ldr	r0, .L218+36
 3009 009c FFF7FEFF 		bl	chCondSignalI
 3010              	.LVL226:
 3011              		.loc 1 494 0
 3012 00a0 1F48     		ldr	r0, .L218+36
 3013 00a2 FFF7FEFF 		bl	chCondSignalI
 3014              	.LVL227:
 3015              		.loc 1 495 0
 3016 00a6 1E48     		ldr	r0, .L218+36
 3017 00a8 FFF7FEFF 		bl	chCondSignalI
 3018              	.LVL228:
 3019              		.loc 1 496 0
 3020 00ac 1C48     		ldr	r0, .L218+36
 3021 00ae FFF7FEFF 		bl	chCondSignalI
ARM GAS  C:\Users\mathi\AppData\Local\Temp\ccFSJwpz.s 			page 54


 3022              	.LVL229:
 3023              		.loc 1 497 0
 3024 00b2 FFF7FEFF 		bl	chSchRescheduleS
 3025              	.LVL230:
 3026              	.LBB407:
 3027              	.LBB408:
 3028              		.loc 4 360 0
 3029 00b6 FFF7FEFF 		bl	_dbg_check_unlock
 3030              	.LVL231:
 3031              		.loc 4 361 0
 3032 00ba FFF7FEFF 		bl	_stats_stop_measure_crit_thd
 3033              	.LVL232:
 3034              		.loc 4 367 0
 3035 00be 3B68     		ldr	r3, [r7]
 3036 00c0 BB42     		cmp	r3, r7
 3037 00c2 04D0     		beq	.L212
 3038 00c4 BA69     		ldr	r2, [r7, #24]
 3039 00c6 9B68     		ldr	r3, [r3, #8]
 3040 00c8 9268     		ldr	r2, [r2, #8]
 3041 00ca 9A42     		cmp	r2, r3
 3042 00cc 10D3     		bcc	.L216
 3043              	.L212:
 3044              	.LVL233:
 3045              	.LBB409:
 3046              	.LBB410:
 3047              	.LBB411:
 3048              		.loc 3 546 0
 3049 00ce 0023     		movs	r3, #0
 3050              		.syntax unified
 3051              	@ 546 "../../lib/e-puck2_main-processor/ChibiOS//os/ext/CMSIS/include/core_cmFunc.h" 1
 3052 00d0 83F31188 		MSR basepri, r3
 3053              	@ 0 "" 2
 3054              	.LVL234:
 3055              		.thumb
 3056              		.syntax unified
 3057              	.LBE411:
 3058              	.LBE410:
 3059              	.LBE409:
 3060              	.LBE408:
 3061              	.LBE407:
 3062              		.loc 1 499 0
 3063 00d4 FFF7FEFF 		bl	test_wait_threads
 3064              	.LVL235:
 3065              		.loc 1 500 0
 3066 00d8 039A     		ldr	r2, [sp, #12]
 3067 00da D8F80030 		ldr	r3, [r8]
 3068 00de 9A42     		cmp	r2, r3
 3069 00e0 0AD1     		bne	.L217
 3070 00e2 1049     		ldr	r1, .L218+40
 3071 00e4 0120     		movs	r0, #1
 3072              		.loc 1 501 0
 3073 00e6 04B0     		add	sp, sp, #16
 3074              		.cfi_remember_state
 3075              		.cfi_def_cfa_offset 24
 3076              		@ sp needed
 3077 00e8 BDE8F041 		pop	{r4, r5, r6, r7, r8, lr}
 3078              		.cfi_restore 14
ARM GAS  C:\Users\mathi\AppData\Local\Temp\ccFSJwpz.s 			page 55


 3079              		.cfi_restore 8
 3080              		.cfi_restore 7
 3081              		.cfi_restore 6
 3082              		.cfi_restore 5
 3083              		.cfi_restore 4
 3084              		.cfi_def_cfa_offset 0
 3085              		.loc 1 500 0
 3086 00ec FFF7FEBF 		b	_test_assert_sequence
 3087              	.LVL236:
 3088              	.L216:
 3089              		.cfi_restore_state
 3090              	.LBB413:
 3091              	.LBB412:
 3092              		.loc 4 367 0
 3093 00f0 0D48     		ldr	r0, .L218+44
 3094 00f2 FFF7FEFF 		bl	chSysHalt
 3095              	.LVL237:
 3096 00f6 EAE7     		b	.L212
 3097              	.L217:
 3098              	.LBE412:
 3099              	.LBE413:
 3100              		.loc 1 500 0
 3101 00f8 FFF7FEFF 		bl	__stack_chk_fail
 3102              	.LVL238:
 3103              	.L219:
 3104              		.align	2
 3105              	.L218:
 3106 00fc 00000000 		.word	ch
 3107 0100 00000000 		.word	wa
 3108 0104 00000000 		.word	.LC0
 3109 0108 00000000 		.word	threads
 3110 010c 00000000 		.word	thread10
 3111 0110 04000000 		.word	.LC1
 3112 0114 08000000 		.word	.LC2
 3113 0118 0C000000 		.word	.LC3
 3114 011c 10000000 		.word	.LC4
 3115 0120 00000000 		.word	.LANCHOR3
 3116 0124 14000000 		.word	.LC5
 3117 0128 00000000 		.word	.LANCHOR2
 3118 012c 00000000 		.word	__stack_chk_guard
 3119              		.cfi_endproc
 3120              	.LFE242:
 3121              		.size	mtx6_execute, .-mtx6_execute
 3122              		.section	.text.mtx3_execute,"ax",%progbits
 3123              		.align	1
 3124              		.p2align 4,,15
 3125              		.syntax unified
 3126              		.thumb
 3127              		.thumb_func
 3128              		.fpu fpv4-sp-d16
 3129              		.type	mtx3_execute, %function
 3130              	mtx3_execute:
 3131              	.LFB233:
 3132              		.loc 1 299 0
 3133              		.cfi_startproc
 3134              		@ args = 0, pretend = 0, frame = 8
 3135              		@ frame_needed = 0, uses_anonymous_args = 0
ARM GAS  C:\Users\mathi\AppData\Local\Temp\ccFSJwpz.s 			page 56


 3136 0000 2DE9F043 		push	{r4, r5, r6, r7, r8, r9, lr}
 3137              		.cfi_def_cfa_offset 28
 3138              		.cfi_offset 4, -28
 3139              		.cfi_offset 5, -24
 3140              		.cfi_offset 6, -20
 3141              		.cfi_offset 7, -16
 3142              		.cfi_offset 8, -12
 3143              		.cfi_offset 9, -8
 3144              		.cfi_offset 14, -4
 3145 0004 DFF81C81 		ldr	r8, .L229+40
 3146 0008 85B0     		sub	sp, sp, #20
 3147              		.cfi_def_cfa_offset 48
 3148              		.loc 1 299 0
 3149 000a D8F80030 		ldr	r3, [r8]
 3150 000e 0393     		str	r3, [sp, #12]
 3151              		.loc 1 302 0
 3152 0010 FFF7FEFF 		bl	test_wait_tick
 3153              	.LVL239:
 3154              	.LBB448:
 3155              	.LBB449:
 3156              	.LBB450:
 3157              	.LBB451:
 3158              	.LBB452:
 3159              	.LBB453:
 3160              	.LBB454:
 3161              		.loc 3 546 0
 3162 0014 2023     		movs	r3, #32
 3163              		.syntax unified
 3164              	@ 546 "../../lib/e-puck2_main-processor/ChibiOS//os/ext/CMSIS/include/core_cmFunc.h" 1
 3165 0016 83F31188 		MSR basepri, r3
 3166              	@ 0 "" 2
 3167              	.LVL240:
 3168              		.thumb
 3169              		.syntax unified
 3170              	.LBE454:
 3171              	.LBE453:
 3172              	.LBE452:
 3173              	.LBE451:
 3174              	.LBE450:
 3175              	.LBB456:
 3176              	.LBB457:
 3177              		.loc 6 231 0
 3178 001a 384C     		ldr	r4, .L229
 3179              	.LBE457:
 3180              	.LBE456:
 3181              	.LBB459:
 3182              	.LBB455:
 3183              		.loc 4 349 0
 3184 001c FFF7FEFF 		bl	_stats_start_measure_crit_thd
 3185              	.LVL241:
 3186              		.loc 4 350 0
 3187 0020 FFF7FEFF 		bl	_dbg_check_lock
 3188              	.LVL242:
 3189              	.LBE455:
 3190              	.LBE459:
 3191              	.LBB460:
 3192              	.LBB458:
ARM GAS  C:\Users\mathi\AppData\Local\Temp\ccFSJwpz.s 			page 57


 3193              		.loc 6 231 0
 3194 0024 D4F82890 		ldr	r9, [r4, #40]
 3195              	.LBE458:
 3196              	.LBE460:
 3197              	.LBB461:
 3198              	.LBB462:
 3199              		.loc 4 360 0
 3200 0028 FFF7FEFF 		bl	_dbg_check_unlock
 3201              	.LVL243:
 3202              		.loc 4 361 0
 3203 002c FFF7FEFF 		bl	_stats_stop_measure_crit_thd
 3204              	.LVL244:
 3205              		.loc 4 367 0
 3206 0030 2368     		ldr	r3, [r4]
 3207 0032 A342     		cmp	r3, r4
 3208 0034 04D0     		beq	.L221
 3209 0036 A269     		ldr	r2, [r4, #24]
 3210 0038 9B68     		ldr	r3, [r3, #8]
 3211 003a 9268     		ldr	r2, [r2, #8]
 3212 003c 9A42     		cmp	r2, r3
 3213 003e 4AD3     		bcc	.L227
 3214              	.L221:
 3215              	.LVL245:
 3216              	.LBB463:
 3217              	.LBB464:
 3218              	.LBB465:
 3219              		.loc 3 546 0
 3220 0040 0025     		movs	r5, #0
 3221              		.syntax unified
 3222              	@ 546 "../../lib/e-puck2_main-processor/ChibiOS//os/ext/CMSIS/include/core_cmFunc.h" 1
 3223 0042 85F31188 		MSR basepri, r5
 3224              	@ 0 "" 2
 3225              	.LVL246:
 3226              		.thumb
 3227              		.syntax unified
 3228              	.LBE465:
 3229              	.LBE464:
 3230              	.LBE463:
 3231              	.LBE462:
 3232              	.LBE461:
 3233              	.LBE449:
 3234              	.LBE448:
 3235              	.LBB469:
 3236              	.LBB470:
 3237              		.loc 2 189 0
 3238 0046 A369     		ldr	r3, [r4, #24]
 3239              	.LBE470:
 3240              	.LBE469:
 3241              		.loc 1 304 0
 3242 0048 2D4F     		ldr	r7, .L229+4
 3243 004a 9A68     		ldr	r2, [r3, #8]
 3244 004c 3868     		ldr	r0, [r7]
 3245 004e 2D4B     		ldr	r3, .L229+8
 3246 0050 0095     		str	r5, [sp]
 3247 0052 053A     		subs	r2, r2, #5
 3248 0054 4FF4FC71 		mov	r1, #504
 3249 0058 FFF7FEFF 		bl	chThdCreateStatic
ARM GAS  C:\Users\mathi\AppData\Local\Temp\ccFSJwpz.s 			page 58


 3250              	.LVL247:
 3251 005c 2A4E     		ldr	r6, .L229+12
 3252              	.LBB471:
 3253              	.LBB472:
 3254              		.loc 2 189 0
 3255 005e A369     		ldr	r3, [r4, #24]
 3256              	.LBE472:
 3257              	.LBE471:
 3258              		.loc 1 304 0
 3259 0060 3060     		str	r0, [r6]
 3260              		.loc 1 305 0
 3261 0062 9A68     		ldr	r2, [r3, #8]
 3262 0064 7868     		ldr	r0, [r7, #4]
 3263 0066 294B     		ldr	r3, .L229+16
 3264 0068 0095     		str	r5, [sp]
 3265 006a 043A     		subs	r2, r2, #4
 3266 006c 4FF4FC71 		mov	r1, #504
 3267 0070 FFF7FEFF 		bl	chThdCreateStatic
 3268              	.LVL248:
 3269              	.LBB473:
 3270              	.LBB474:
 3271              		.loc 2 189 0
 3272 0074 A369     		ldr	r3, [r4, #24]
 3273              	.LBE474:
 3274              	.LBE473:
 3275              		.loc 1 305 0
 3276 0076 7060     		str	r0, [r6, #4]
 3277              		.loc 1 306 0
 3278 0078 9A68     		ldr	r2, [r3, #8]
 3279 007a B868     		ldr	r0, [r7, #8]
 3280 007c 244B     		ldr	r3, .L229+20
 3281 007e 0095     		str	r5, [sp]
 3282 0080 033A     		subs	r2, r2, #3
 3283 0082 4FF4FC71 		mov	r1, #504
 3284 0086 FFF7FEFF 		bl	chThdCreateStatic
 3285              	.LVL249:
 3286              	.LBB475:
 3287              	.LBB476:
 3288              		.loc 2 189 0
 3289 008a A369     		ldr	r3, [r4, #24]
 3290              	.LBE476:
 3291              	.LBE475:
 3292              		.loc 1 306 0
 3293 008c B060     		str	r0, [r6, #8]
 3294              		.loc 1 307 0
 3295 008e 9A68     		ldr	r2, [r3, #8]
 3296 0090 F868     		ldr	r0, [r7, #12]
 3297 0092 204B     		ldr	r3, .L229+24
 3298 0094 0095     		str	r5, [sp]
 3299 0096 023A     		subs	r2, r2, #2
 3300 0098 4FF4FC71 		mov	r1, #504
 3301 009c FFF7FEFF 		bl	chThdCreateStatic
 3302              	.LVL250:
 3303              	.LBB477:
 3304              	.LBB478:
 3305              		.loc 2 189 0
 3306 00a0 A369     		ldr	r3, [r4, #24]
ARM GAS  C:\Users\mathi\AppData\Local\Temp\ccFSJwpz.s 			page 59


 3307              	.LBE478:
 3308              	.LBE477:
 3309              		.loc 1 307 0
 3310 00a2 F060     		str	r0, [r6, #12]
 3311              		.loc 1 308 0
 3312 00a4 9A68     		ldr	r2, [r3, #8]
 3313 00a6 3869     		ldr	r0, [r7, #16]
 3314 00a8 1B4B     		ldr	r3, .L229+28
 3315 00aa 0095     		str	r5, [sp]
 3316 00ac 013A     		subs	r2, r2, #1
 3317 00ae 4FF4FC71 		mov	r1, #504
 3318 00b2 FFF7FEFF 		bl	chThdCreateStatic
 3319              	.LVL251:
 3320 00b6 3061     		str	r0, [r6, #16]
 3321              		.loc 1 309 0
 3322 00b8 FFF7FEFF 		bl	test_wait_threads
 3323              	.LVL252:
 3324              		.loc 1 310 0
 3325 00bc 1749     		ldr	r1, .L229+32
 3326 00be 0120     		movs	r0, #1
 3327 00c0 FFF7FEFF 		bl	_test_assert_sequence
 3328              	.LVL253:
 3329              		.loc 1 312 0
 3330 00c4 039A     		ldr	r2, [sp, #12]
 3331 00c6 D8F80030 		ldr	r3, [r8]
 3332              		.loc 1 310 0
 3333 00ca 40B1     		cbz	r0, .L228
 3334              		.loc 1 312 0
 3335 00cc 9A42     		cmp	r2, r3
 3336 00ce 12D1     		bne	.L226
 3337 00d0 05B0     		add	sp, sp, #20
 3338              		.cfi_remember_state
 3339              		.cfi_def_cfa_offset 28
 3340              		@ sp needed
 3341 00d2 BDE8F083 		pop	{r4, r5, r6, r7, r8, r9, pc}
 3342              	.L227:
 3343              		.cfi_restore_state
 3344              	.LBB479:
 3345              	.LBB468:
 3346              	.LBB467:
 3347              	.LBB466:
 3348              		.loc 4 367 0
 3349 00d6 1248     		ldr	r0, .L229+36
 3350 00d8 FFF7FEFF 		bl	chSysHalt
 3351              	.LVL254:
 3352 00dc B0E7     		b	.L221
 3353              	.L228:
 3354              	.LBE466:
 3355              	.LBE467:
 3356              	.LBE468:
 3357              	.LBE479:
 3358              		.loc 1 311 0
 3359 00de 9A42     		cmp	r2, r3
 3360 00e0 09D1     		bne	.L226
 3361 00e2 09F17302 		add	r2, r9, #115
 3362 00e6 09F16E01 		add	r1, r9, #110
 3363 00ea 0220     		movs	r0, #2
ARM GAS  C:\Users\mathi\AppData\Local\Temp\ccFSJwpz.s 			page 60


 3364              		.loc 1 312 0
 3365 00ec 05B0     		add	sp, sp, #20
 3366              		.cfi_remember_state
 3367              		.cfi_def_cfa_offset 28
 3368              		@ sp needed
 3369 00ee BDE8F043 		pop	{r4, r5, r6, r7, r8, r9, lr}
 3370              		.cfi_restore 14
 3371              		.cfi_restore 9
 3372              		.cfi_restore 8
 3373              		.cfi_restore 7
 3374              		.cfi_restore 6
 3375              		.cfi_restore 5
 3376              		.cfi_restore 4
 3377              		.cfi_def_cfa_offset 0
 3378              		.loc 1 311 0
 3379 00f2 FFF7FEBF 		b	_test_assert_time_window
 3380              	.LVL255:
 3381              	.L226:
 3382              		.cfi_restore_state
 3383              		.loc 1 312 0
 3384 00f6 FFF7FEFF 		bl	__stack_chk_fail
 3385              	.LVL256:
 3386              	.L230:
 3387 00fa 00BF     		.align	2
 3388              	.L229:
 3389 00fc 00000000 		.word	ch
 3390 0100 00000000 		.word	wa
 3391 0104 00000000 		.word	thread3LL
 3392 0108 00000000 		.word	threads
 3393 010c 00000000 		.word	thread3L
 3394 0110 00000000 		.word	thread3M
 3395 0114 00000000 		.word	thread3H
 3396 0118 00000000 		.word	thread3HH
 3397 011c 14000000 		.word	.LC5
 3398 0120 00000000 		.word	.LANCHOR2
 3399 0124 00000000 		.word	__stack_chk_guard
 3400              		.cfi_endproc
 3401              	.LFE233:
 3402              		.size	mtx3_execute, .-mtx3_execute
 3403              		.global	patternmtx
 3404              		.global	testmtx8
 3405              		.global	testmtx7
 3406              		.global	testmtx6
 3407              		.global	testmtx5
 3408              		.global	testmtx4
 3409              		.global	testmtx3
 3410              		.global	testmtx2
 3411              		.global	testmtx1
 3412              		.section	.data.c1,"aw",%progbits
 3413              		.align	2
 3414              		.set	.LANCHOR3,. + 0
 3415              		.type	c1, %object
 3416              		.size	c1, 8
 3417              	c1:
 3418 0000 00000000 		.word	c1
 3419 0004 00000000 		.word	c1
 3420              		.section	.data.m1,"aw",%progbits
ARM GAS  C:\Users\mathi\AppData\Local\Temp\ccFSJwpz.s 			page 61


 3421              		.align	2
 3422              		.set	.LANCHOR0,. + 0
 3423              		.type	m1, %object
 3424              		.size	m1, 20
 3425              	m1:
 3426 0000 00000000 		.word	m1
 3427 0004 00000000 		.word	m1
 3428 0008 00000000 		.word	0
 3429 000c 00000000 		.word	0
 3430 0010 00000000 		.word	0
 3431              		.section	.data.m2,"aw",%progbits
 3432              		.align	2
 3433              		.set	.LANCHOR1,. + 0
 3434              		.type	m2, %object
 3435              		.size	m2, 20
 3436              	m2:
 3437 0000 00000000 		.word	m2
 3438 0004 00000000 		.word	m2
 3439 0008 00000000 		.word	0
 3440 000c 00000000 		.word	0
 3441 0010 00000000 		.word	0
 3442              		.section	.rodata.__func__.7153,"a",%progbits
 3443              		.align	2
 3444              		.set	.LANCHOR2,. + 0
 3445              		.type	__func__.7153, %object
 3446              		.size	__func__.7153, 12
 3447              	__func__.7153:
 3448 0000 63685379 		.ascii	"chSysUnlock\000"
 3448      73556E6C 
 3448      6F636B00 
 3449              		.section	.rodata.mtx1_execute.str1.4,"aMS",%progbits,1
 3450              		.align	2
 3451              	.LC0:
 3452 0000 4500     		.ascii	"E\000"
 3453 0002 0000     		.space	2
 3454              	.LC1:
 3455 0004 4400     		.ascii	"D\000"
 3456 0006 0000     		.space	2
 3457              	.LC2:
 3458 0008 4300     		.ascii	"C\000"
 3459 000a 0000     		.space	2
 3460              	.LC3:
 3461 000c 4200     		.ascii	"B\000"
 3462 000e 0000     		.space	2
 3463              	.LC4:
 3464 0010 4100     		.ascii	"A\000"
 3465 0012 0000     		.space	2
 3466              	.LC5:
 3467 0014 41424344 		.ascii	"ABCDE\000"
 3467      4500
 3468              		.section	.rodata.mtx8_execute.str1.4,"aMS",%progbits,1
 3469              		.align	2
 3470              	.LC6:
 3471 0000 41424300 		.ascii	"ABC\000"
 3472              		.section	.rodata.patternmtx,"a",%progbits
 3473              		.align	2
 3474              		.type	patternmtx, %object
ARM GAS  C:\Users\mathi\AppData\Local\Temp\ccFSJwpz.s 			page 62


 3475              		.size	patternmtx, 36
 3476              	patternmtx:
 3477 0000 00000000 		.word	testmtx1
 3478 0004 00000000 		.word	testmtx2
 3479 0008 00000000 		.word	testmtx3
 3480 000c 00000000 		.word	testmtx4
 3481 0010 00000000 		.word	testmtx5
 3482 0014 00000000 		.word	testmtx6
 3483 0018 00000000 		.word	testmtx7
 3484 001c 00000000 		.word	testmtx8
 3485 0020 00000000 		.word	0
 3486              		.section	.rodata.str1.4,"aMS",%progbits,1
 3487              		.align	2
 3488              	.LC7:
 3489 0000 436F6E64 		.ascii	"CondVar, boost test\000"
 3489      5661722C 
 3489      20626F6F 
 3489      73742074 
 3489      65737400 
 3490              	.LC8:
 3491 0014 436F6E64 		.ascii	"CondVar, broadcast test\000"
 3491      5661722C 
 3491      2062726F 
 3491      61646361 
 3491      73742074 
 3492              	.LC9:
 3493 002c 436F6E64 		.ascii	"CondVar, signal test\000"
 3493      5661722C 
 3493      20736967 
 3493      6E616C20 
 3493      74657374 
 3494 0041 000000   		.space	3
 3495              	.LC10:
 3496 0044 4D757465 		.ascii	"Mutexes, status\000"
 3496      7865732C 
 3496      20737461 
 3496      74757300 
 3497              	.LC11:
 3498 0054 4D757465 		.ascii	"Mutexes, priority return\000"
 3498      7865732C 
 3498      20707269 
 3498      6F726974 
 3498      79207265 
 3499 006d 000000   		.space	3
 3500              	.LC12:
 3501 0070 4D757465 		.ascii	"Mutexes, priority inheritance, complex case\000"
 3501      7865732C 
 3501      20707269 
 3501      6F726974 
 3501      7920696E 
 3502              	.LC13:
 3503 009c 4D757465 		.ascii	"Mutexes, priority inheritance, simple case\000"
 3503      7865732C 
 3503      20707269 
 3503      6F726974 
 3503      7920696E 
 3504 00c7 00       		.space	1
ARM GAS  C:\Users\mathi\AppData\Local\Temp\ccFSJwpz.s 			page 63


 3505              	.LC14:
 3506 00c8 4D757465 		.ascii	"Mutexes, priority enqueuing test\000"
 3506      7865732C 
 3506      20707269 
 3506      6F726974 
 3506      7920656E 
 3507              		.section	.rodata.testmtx1,"a",%progbits
 3508              		.align	2
 3509              		.type	testmtx1, %object
 3510              		.size	testmtx1, 16
 3511              	testmtx1:
 3512 0000 C8000000 		.word	.LC14
 3513 0004 00000000 		.word	mtx1_setup
 3514 0008 00000000 		.word	0
 3515 000c 00000000 		.word	mtx1_execute
 3516              		.section	.rodata.testmtx2,"a",%progbits
 3517              		.align	2
 3518              		.type	testmtx2, %object
 3519              		.size	testmtx2, 16
 3520              	testmtx2:
 3521 0000 9C000000 		.word	.LC13
 3522 0004 00000000 		.word	mtx2_setup
 3523 0008 00000000 		.word	0
 3524 000c 00000000 		.word	mtx2_execute
 3525              		.section	.rodata.testmtx3,"a",%progbits
 3526              		.align	2
 3527              		.type	testmtx3, %object
 3528              		.size	testmtx3, 16
 3529              	testmtx3:
 3530 0000 70000000 		.word	.LC12
 3531 0004 00000000 		.word	mtx3_setup
 3532 0008 00000000 		.word	0
 3533 000c 00000000 		.word	mtx3_execute
 3534              		.section	.rodata.testmtx4,"a",%progbits
 3535              		.align	2
 3536              		.type	testmtx4, %object
 3537              		.size	testmtx4, 16
 3538              	testmtx4:
 3539 0000 54000000 		.word	.LC11
 3540 0004 00000000 		.word	mtx4_setup
 3541 0008 00000000 		.word	0
 3542 000c 00000000 		.word	mtx4_execute
 3543              		.section	.rodata.testmtx5,"a",%progbits
 3544              		.align	2
 3545              		.type	testmtx5, %object
 3546              		.size	testmtx5, 16
 3547              	testmtx5:
 3548 0000 44000000 		.word	.LC10
 3549 0004 00000000 		.word	mtx5_setup
 3550 0008 00000000 		.word	0
 3551 000c 00000000 		.word	mtx5_execute
 3552              		.section	.rodata.testmtx6,"a",%progbits
 3553              		.align	2
 3554              		.type	testmtx6, %object
 3555              		.size	testmtx6, 16
 3556              	testmtx6:
 3557 0000 2C000000 		.word	.LC9
ARM GAS  C:\Users\mathi\AppData\Local\Temp\ccFSJwpz.s 			page 64


 3558 0004 00000000 		.word	mtx6_setup
 3559 0008 00000000 		.word	0
 3560 000c 00000000 		.word	mtx6_execute
 3561              		.section	.rodata.testmtx7,"a",%progbits
 3562              		.align	2
 3563              		.type	testmtx7, %object
 3564              		.size	testmtx7, 16
 3565              	testmtx7:
 3566 0000 14000000 		.word	.LC8
 3567 0004 00000000 		.word	mtx7_setup
 3568 0008 00000000 		.word	0
 3569 000c 00000000 		.word	mtx7_execute
 3570              		.section	.rodata.testmtx8,"a",%progbits
 3571              		.align	2
 3572              		.type	testmtx8, %object
 3573              		.size	testmtx8, 16
 3574              	testmtx8:
 3575 0000 00000000 		.word	.LC7
 3576 0004 00000000 		.word	mtx8_setup
 3577 0008 00000000 		.word	0
 3578 000c 00000000 		.word	mtx8_execute
 3579              		.text
 3580              	.Letext0:
 3581              		.file 7 "c:\\eclipse_e-puck2\\tools\\gcc-arm-none-eabi-7-2017-q4-major-win32\\lib\\gcc\\arm-none-e
 3582              		.file 8 "c:\\eclipse_e-puck2\\tools\\gcc-arm-none-eabi-7-2017-q4-major-win32\\arm-none-eabi\\inclu
 3583              		.file 9 "c:\\eclipse_e-puck2\\tools\\gcc-arm-none-eabi-7-2017-q4-major-win32\\arm-none-eabi\\inclu
 3584              		.file 10 "../../lib/e-puck2_main-processor/ChibiOS//os/rt/ports/ARMCMx/compilers/GCC/chtypes.h"
 3585              		.file 11 "../../lib/e-puck2_main-processor/ChibiOS//os/rt/include/chsystypes.h"
 3586              		.file 12 "../../lib/e-puck2_main-processor/ChibiOS//os/ext/CMSIS/include/core_cm4.h"
 3587              		.file 13 "../../lib/e-puck2_main-processor/ChibiOS//os/ext/CMSIS/ST/system_stm32f4xx.h"
 3588              		.file 14 "../../lib/e-puck2_main-processor/ChibiOS//os/rt/ports/ARMCMx/chcore.h"
 3589              		.file 15 "../../lib/e-puck2_main-processor/ChibiOS//os/rt/ports/ARMCMx/chcore_v7m.h"
 3590              		.file 16 "../../lib/e-puck2_main-processor/ChibiOS//os/rt/include/chdebug.h"
 3591              		.file 17 "../../lib/e-puck2_main-processor/ChibiOS//os/rt/include/chtm.h"
 3592              		.file 18 "../../lib/e-puck2_main-processor/ChibiOS//os/rt/include/chstats.h"
 3593              		.file 19 "../../lib/e-puck2_main-processor/ChibiOS//os/rt/include/chsem.h"
 3594              		.file 20 "../../lib/e-puck2_main-processor/ChibiOS//os/rt/include/chmtx.h"
 3595              		.file 21 "../../lib/e-puck2_main-processor/ChibiOS//os/rt/include/chregistry.h"
 3596              		.file 22 "../../lib/e-puck2_main-processor/ChibiOS//os/rt/include/chcond.h"
 3597              		.file 23 "../../lib/e-puck2_main-processor/ChibiOS//test/rt/test.h"