ARM GAS  C:\Users\mathi\AppData\Local\Temp\ccAv9hZP.s 			page 1


   1              		.cpu cortex-m4
   2              		.eabi_attribute 27, 1
   3              		.eabi_attribute 28, 1
   4              		.eabi_attribute 20, 1
   5              		.eabi_attribute 21, 1
   6              		.eabi_attribute 23, 3
   7              		.eabi_attribute 24, 1
   8              		.eabi_attribute 25, 1
   9              		.eabi_attribute 26, 1
  10              		.eabi_attribute 30, 2
  11              		.eabi_attribute 34, 1
  12              		.eabi_attribute 18, 4
  13              		.file	"testevt.c"
  14              		.text
  15              	.Ltext0:
  16              		.cfi_sections	.debug_frame
  17              		.section	.text.h3,"ax",%progbits
  18              		.align	1
  19              		.p2align 4,,15
  20              		.syntax unified
  21              		.thumb
  22              		.thumb_func
  23              		.fpu fpv4-sp-d16
  24              		.type	h3, %function
  25              	h3:
  26              	.LFB222:
  27              		.file 1 "../../lib/e-puck2_main-processor/ChibiOS//test/rt/testevt.c"
  28              		.loc 1 82 0
  29              		.cfi_startproc
  30              		@ args = 0, pretend = 0, frame = 8
  31              		@ frame_needed = 0, uses_anonymous_args = 0
  32              	.LVL0:
  33 0000 00B5     		push	{lr}
  34              		.cfi_def_cfa_offset 4
  35              		.cfi_offset 14, -4
  36 0002 084B     		ldr	r3, .L7
  37 0004 83B0     		sub	sp, sp, #12
  38              		.cfi_def_cfa_offset 16
  39              		.loc 1 82 0
  40 0006 1A68     		ldr	r2, [r3]
  41 0008 0192     		str	r2, [sp, #4]
  42 000a 019A     		ldr	r2, [sp, #4]
  43 000c 1B68     		ldr	r3, [r3]
  44 000e 9A42     		cmp	r2, r3
  45 0010 05D1     		bne	.L6
  46 0012 4320     		movs	r0, #67
  47              	.LVL1:
  48 0014 03B0     		add	sp, sp, #12
  49              		.cfi_remember_state
  50              		.cfi_def_cfa_offset 4
  51              		@ sp needed
  52 0016 5DF804EB 		ldr	lr, [sp], #4
  53              		.cfi_restore 14
  54              		.cfi_def_cfa_offset 0
  55 001a FFF7FEBF 		b	test_emit_token
  56              	.LVL2:
  57              	.L6:
ARM GAS  C:\Users\mathi\AppData\Local\Temp\ccAv9hZP.s 			page 2


  58              		.cfi_restore_state
  59 001e FFF7FEFF 		bl	__stack_chk_fail
  60              	.LVL3:
  61              	.L8:
  62 0022 00BF     		.align	2
  63              	.L7:
  64 0024 00000000 		.word	__stack_chk_guard
  65              		.cfi_endproc
  66              	.LFE222:
  67              		.size	h3, .-h3
  68              		.section	.text.h2,"ax",%progbits
  69              		.align	1
  70              		.p2align 4,,15
  71              		.syntax unified
  72              		.thumb
  73              		.thumb_func
  74              		.fpu fpv4-sp-d16
  75              		.type	h2, %function
  76              	h2:
  77              	.LFB221:
  78              		.loc 1 81 0
  79              		.cfi_startproc
  80              		@ args = 0, pretend = 0, frame = 8
  81              		@ frame_needed = 0, uses_anonymous_args = 0
  82              	.LVL4:
  83 0000 00B5     		push	{lr}
  84              		.cfi_def_cfa_offset 4
  85              		.cfi_offset 14, -4
  86 0002 084B     		ldr	r3, .L14
  87 0004 83B0     		sub	sp, sp, #12
  88              		.cfi_def_cfa_offset 16
  89              		.loc 1 81 0
  90 0006 1A68     		ldr	r2, [r3]
  91 0008 0192     		str	r2, [sp, #4]
  92 000a 019A     		ldr	r2, [sp, #4]
  93 000c 1B68     		ldr	r3, [r3]
  94 000e 9A42     		cmp	r2, r3
  95 0010 05D1     		bne	.L13
  96 0012 4220     		movs	r0, #66
  97              	.LVL5:
  98 0014 03B0     		add	sp, sp, #12
  99              		.cfi_remember_state
 100              		.cfi_def_cfa_offset 4
 101              		@ sp needed
 102 0016 5DF804EB 		ldr	lr, [sp], #4
 103              		.cfi_restore 14
 104              		.cfi_def_cfa_offset 0
 105 001a FFF7FEBF 		b	test_emit_token
 106              	.LVL6:
 107              	.L13:
 108              		.cfi_restore_state
 109 001e FFF7FEFF 		bl	__stack_chk_fail
 110              	.LVL7:
 111              	.L15:
 112 0022 00BF     		.align	2
 113              	.L14:
 114 0024 00000000 		.word	__stack_chk_guard
ARM GAS  C:\Users\mathi\AppData\Local\Temp\ccAv9hZP.s 			page 3


 115              		.cfi_endproc
 116              	.LFE221:
 117              		.size	h2, .-h2
 118              		.section	.text.h1,"ax",%progbits
 119              		.align	1
 120              		.p2align 4,,15
 121              		.syntax unified
 122              		.thumb
 123              		.thumb_func
 124              		.fpu fpv4-sp-d16
 125              		.type	h1, %function
 126              	h1:
 127              	.LFB220:
 128              		.loc 1 80 0
 129              		.cfi_startproc
 130              		@ args = 0, pretend = 0, frame = 8
 131              		@ frame_needed = 0, uses_anonymous_args = 0
 132              	.LVL8:
 133 0000 00B5     		push	{lr}
 134              		.cfi_def_cfa_offset 4
 135              		.cfi_offset 14, -4
 136 0002 084B     		ldr	r3, .L21
 137 0004 83B0     		sub	sp, sp, #12
 138              		.cfi_def_cfa_offset 16
 139              		.loc 1 80 0
 140 0006 1A68     		ldr	r2, [r3]
 141 0008 0192     		str	r2, [sp, #4]
 142 000a 019A     		ldr	r2, [sp, #4]
 143 000c 1B68     		ldr	r3, [r3]
 144 000e 9A42     		cmp	r2, r3
 145 0010 05D1     		bne	.L20
 146 0012 4120     		movs	r0, #65
 147              	.LVL9:
 148 0014 03B0     		add	sp, sp, #12
 149              		.cfi_remember_state
 150              		.cfi_def_cfa_offset 4
 151              		@ sp needed
 152 0016 5DF804EB 		ldr	lr, [sp], #4
 153              		.cfi_restore 14
 154              		.cfi_def_cfa_offset 0
 155 001a FFF7FEBF 		b	test_emit_token
 156              	.LVL10:
 157              	.L20:
 158              		.cfi_restore_state
 159 001e FFF7FEFF 		bl	__stack_chk_fail
 160              	.LVL11:
 161              	.L22:
 162 0022 00BF     		.align	2
 163              	.L21:
 164 0024 00000000 		.word	__stack_chk_guard
 165              		.cfi_endproc
 166              	.LFE220:
 167              		.size	h1, .-h1
 168              		.section	.text.evt1_execute,"ax",%progbits
 169              		.align	1
 170              		.p2align 4,,15
 171              		.syntax unified
ARM GAS  C:\Users\mathi\AppData\Local\Temp\ccAv9hZP.s 			page 4


 172              		.thumb
 173              		.thumb_func
 174              		.fpu fpv4-sp-d16
 175              		.type	evt1_execute, %function
 176              	evt1_execute:
 177              	.LFB223:
 178              		.loc 1 85 0
 179              		.cfi_startproc
 180              		@ args = 0, pretend = 0, frame = 48
 181              		@ frame_needed = 0, uses_anonymous_args = 0
 182 0000 30B5     		push	{r4, r5, lr}
 183              		.cfi_def_cfa_offset 12
 184              		.cfi_offset 4, -12
 185              		.cfi_offset 5, -8
 186              		.cfi_offset 14, -4
 187 0002 244D     		ldr	r5, .L31
 188              	.LBB149:
 189              	.LBB150:
 190              		.file 2 "../../lib/e-puck2_main-processor/ChibiOS//os/rt/include/chevents.h"
 191              		.loc 2 172 0
 192 0004 244C     		ldr	r4, .L31+4
 193              	.LBE150:
 194              	.LBE149:
 195              		.loc 1 85 0
 196 0006 2B68     		ldr	r3, [r5]
 197              	.LBB152:
 198              	.LBB151:
 199              		.loc 2 172 0
 200 0008 2460     		str	r4, [r4]
 201              	.LBE151:
 202              	.LBE152:
 203              		.loc 1 85 0
 204 000a 8DB0     		sub	sp, sp, #52
 205              		.cfi_def_cfa_offset 64
 206              	.LBB153:
 207              	.LBB154:
 208              		.loc 2 193 0
 209 000c 2046     		mov	r0, r4
 210              	.LBE154:
 211              	.LBE153:
 212              		.loc 1 85 0
 213 000e 0B93     		str	r3, [sp, #44]
 214              	.LVL12:
 215              	.LBB156:
 216              	.LBB155:
 217              		.loc 2 193 0
 218 0010 01A9     		add	r1, sp, #4
 219              	.LVL13:
 220 0012 4FF0FF33 		mov	r3, #-1
 221 0016 0122     		movs	r2, #1
 222 0018 FFF7FEFF 		bl	chEvtRegisterMaskWithFlags
 223              	.LVL14:
 224              	.LBE155:
 225              	.LBE156:
 226              	.LBB157:
 227              	.LBB158:
 228 001c 2046     		mov	r0, r4
ARM GAS  C:\Users\mathi\AppData\Local\Temp\ccAv9hZP.s 			page 5


 229 001e 06A9     		add	r1, sp, #24
 230              	.LVL15:
 231 0020 4FF0FF33 		mov	r3, #-1
 232 0024 0222     		movs	r2, #2
 233 0026 FFF7FEFF 		bl	chEvtRegisterMaskWithFlags
 234              	.LVL16:
 235              	.LBE158:
 236              	.LBE157:
 237              	.LBB159:
 238              	.LBB160:
 239              		.loc 2 226 0
 240 002a 2168     		ldr	r1, [r4]
 241              	.LBE160:
 242              	.LBE159:
 243              		.loc 1 94 0
 244 002c 091B     		subs	r1, r1, r4
 245 002e 18BF     		it	ne
 246 0030 0121     		movne	r1, #1
 247 0032 0120     		movs	r0, #1
 248 0034 FFF7FEFF 		bl	_test_assert
 249              	.LVL17:
 250 0038 28B1     		cbz	r0, .L29
 251              	.L23:
 252              		.loc 1 105 0
 253 003a 0B9A     		ldr	r2, [sp, #44]
 254 003c 2B68     		ldr	r3, [r5]
 255 003e 9A42     		cmp	r2, r3
 256 0040 25D1     		bne	.L30
 257 0042 0DB0     		add	sp, sp, #52
 258              		.cfi_remember_state
 259              		.cfi_def_cfa_offset 12
 260              		@ sp needed
 261 0044 30BD     		pop	{r4, r5, pc}
 262              	.L29:
 263              		.cfi_restore_state
 264              		.loc 1 95 0
 265 0046 01A9     		add	r1, sp, #4
 266 0048 2046     		mov	r0, r4
 267 004a FFF7FEFF 		bl	chEvtUnregister
 268              	.LVL18:
 269              	.LBB161:
 270              	.LBB162:
 271              		.loc 2 226 0
 272 004e 2168     		ldr	r1, [r4]
 273              	.LBE162:
 274              	.LBE161:
 275              		.loc 1 96 0
 276 0050 091B     		subs	r1, r1, r4
 277 0052 18BF     		it	ne
 278 0054 0121     		movne	r1, #1
 279 0056 0220     		movs	r0, #2
 280 0058 FFF7FEFF 		bl	_test_assert
 281              	.LVL19:
 282 005c 0028     		cmp	r0, #0
 283 005e ECD1     		bne	.L23
 284              		.loc 1 97 0
 285 0060 06A9     		add	r1, sp, #24
ARM GAS  C:\Users\mathi\AppData\Local\Temp\ccAv9hZP.s 			page 6


 286 0062 2046     		mov	r0, r4
 287 0064 FFF7FEFF 		bl	chEvtUnregister
 288              	.LVL20:
 289              		.loc 1 98 0
 290 0068 2168     		ldr	r1, [r4]
 291 006a 091B     		subs	r1, r1, r4
 292 006c B1FA81F1 		clz	r1, r1
 293 0070 0320     		movs	r0, #3
 294 0072 4909     		lsrs	r1, r1, #5
 295 0074 FFF7FEFF 		bl	_test_assert
 296              	.LVL21:
 297 0078 0028     		cmp	r0, #0
 298 007a DED1     		bne	.L23
 299              		.loc 1 103 0
 300 007c 0721     		movs	r1, #7
 301 007e 0748     		ldr	r0, .L31+8
 302 0080 FFF7FEFF 		bl	chEvtDispatch
 303              	.LVL22:
 304              		.loc 1 104 0
 305 0084 0649     		ldr	r1, .L31+12
 306 0086 0420     		movs	r0, #4
 307 0088 FFF7FEFF 		bl	_test_assert_sequence
 308              	.LVL23:
 309 008c D5E7     		b	.L23
 310              	.L30:
 311              		.loc 1 105 0
 312 008e FFF7FEFF 		bl	__stack_chk_fail
 313              	.LVL24:
 314              	.L32:
 315 0092 00BF     		.align	2
 316              	.L31:
 317 0094 00000000 		.word	__stack_chk_guard
 318 0098 00000000 		.word	.LANCHOR0
 319 009c 00000000 		.word	.LANCHOR1
 320 00a0 00000000 		.word	.LC0
 321              		.cfi_endproc
 322              	.LFE223:
 323              		.size	evt1_execute, .-evt1_execute
 324              		.section	.text.evt1_setup,"ax",%progbits
 325              		.align	1
 326              		.p2align 4,,15
 327              		.syntax unified
 328              		.thumb
 329              		.thumb_func
 330              		.fpu fpv4-sp-d16
 331              		.type	evt1_setup, %function
 332              	evt1_setup:
 333              	.LFB219:
 334              		.loc 1 75 0
 335              		.cfi_startproc
 336              		@ args = 0, pretend = 0, frame = 8
 337              		@ frame_needed = 0, uses_anonymous_args = 0
 338 0000 00B5     		push	{lr}
 339              		.cfi_def_cfa_offset 4
 340              		.cfi_offset 14, -4
 341 0002 084B     		ldr	r3, .L38
 342 0004 83B0     		sub	sp, sp, #12
ARM GAS  C:\Users\mathi\AppData\Local\Temp\ccAv9hZP.s 			page 7


 343              		.cfi_def_cfa_offset 16
 344              		.loc 1 75 0
 345 0006 1A68     		ldr	r2, [r3]
 346 0008 0192     		str	r2, [sp, #4]
 347              		.loc 1 77 0
 348 000a 019A     		ldr	r2, [sp, #4]
 349 000c 1B68     		ldr	r3, [r3]
 350 000e 9A42     		cmp	r2, r3
 351 0010 06D1     		bne	.L37
 352 0012 4FF0FF30 		mov	r0, #-1
 353              		.loc 1 78 0
 354 0016 03B0     		add	sp, sp, #12
 355              		.cfi_remember_state
 356              		.cfi_def_cfa_offset 4
 357              		@ sp needed
 358 0018 5DF804EB 		ldr	lr, [sp], #4
 359              		.cfi_restore 14
 360              		.cfi_def_cfa_offset 0
 361              		.loc 1 77 0
 362 001c FFF7FEBF 		b	chEvtGetAndClearEvents
 363              	.LVL25:
 364              	.L37:
 365              		.cfi_restore_state
 366 0020 FFF7FEFF 		bl	__stack_chk_fail
 367              	.LVL26:
 368              	.L39:
 369              		.align	2
 370              	.L38:
 371 0024 00000000 		.word	__stack_chk_guard
 372              		.cfi_endproc
 373              	.LFE219:
 374              		.size	evt1_setup, .-evt1_setup
 375              		.section	.text.thread2,"ax",%progbits
 376              		.align	1
 377              		.p2align 4,,15
 378              		.syntax unified
 379              		.thumb
 380              		.thumb_func
 381              		.fpu fpv4-sp-d16
 382              		.type	thread2, %function
 383              	thread2:
 384              	.LFB226:
 385              		.loc 1 139 0
 386              		.cfi_startproc
 387              		@ args = 0, pretend = 0, frame = 8
 388              		@ frame_needed = 0, uses_anonymous_args = 0
 389              	.LVL27:
 390 0000 10B5     		push	{r4, lr}
 391              		.cfi_def_cfa_offset 8
 392              		.cfi_offset 4, -8
 393              		.cfi_offset 14, -4
 394 0002 0C4C     		ldr	r4, .L45
 395              	.LBB163:
 396              	.LBB164:
 397              		.loc 2 239 0
 398 0004 0C48     		ldr	r0, .L45+4
 399              	.LVL28:
ARM GAS  C:\Users\mathi\AppData\Local\Temp\ccAv9hZP.s 			page 8


 400              	.LBE164:
 401              	.LBE163:
 402              		.loc 1 139 0
 403 0006 2368     		ldr	r3, [r4]
 404 0008 82B0     		sub	sp, sp, #8
 405              		.cfi_def_cfa_offset 16
 406              	.LBB167:
 407              	.LBB165:
 408              		.loc 2 239 0
 409 000a 0021     		movs	r1, #0
 410              	.LBE165:
 411              	.LBE167:
 412              		.loc 1 139 0
 413 000c 0193     		str	r3, [sp, #4]
 414              	.LVL29:
 415              	.LBB168:
 416              	.LBB166:
 417              		.loc 2 239 0
 418 000e FFF7FEFF 		bl	chEvtBroadcastFlags
 419              	.LVL30:
 420              	.LBE166:
 421              	.LBE168:
 422              		.loc 1 143 0
 423 0012 3220     		movs	r0, #50
 424 0014 FFF7FEFF 		bl	chThdSleep
 425              	.LVL31:
 426              	.LBB169:
 427              	.LBB170:
 428              		.loc 2 239 0
 429 0018 019A     		ldr	r2, [sp, #4]
 430 001a 2368     		ldr	r3, [r4]
 431 001c 9A42     		cmp	r2, r3
 432 001e 06D1     		bne	.L44
 433 0020 0648     		ldr	r0, .L45+8
 434 0022 0021     		movs	r1, #0
 435              	.LBE170:
 436              	.LBE169:
 437              		.loc 1 145 0
 438 0024 02B0     		add	sp, sp, #8
 439              		.cfi_remember_state
 440              		.cfi_def_cfa_offset 8
 441              		@ sp needed
 442 0026 BDE81040 		pop	{r4, lr}
 443              		.cfi_restore 14
 444              		.cfi_restore 4
 445              		.cfi_def_cfa_offset 0
 446              	.LBB172:
 447              	.LBB171:
 448              		.loc 2 239 0
 449 002a FFF7FEBF 		b	chEvtBroadcastFlags
 450              	.LVL32:
 451              	.L44:
 452              		.cfi_restore_state
 453 002e FFF7FEFF 		bl	__stack_chk_fail
 454              	.LVL33:
 455              	.L46:
 456 0032 00BF     		.align	2
ARM GAS  C:\Users\mathi\AppData\Local\Temp\ccAv9hZP.s 			page 9


 457              	.L45:
 458 0034 00000000 		.word	__stack_chk_guard
 459 0038 00000000 		.word	.LANCHOR0
 460 003c 00000000 		.word	.LANCHOR2
 461              	.LBE171:
 462              	.LBE172:
 463              		.cfi_endproc
 464              	.LFE226:
 465              		.size	thread2, .-thread2
 466              		.section	.text.thread1,"ax",%progbits
 467              		.align	1
 468              		.p2align 4,,15
 469              		.syntax unified
 470              		.thumb
 471              		.thumb_func
 472              		.fpu fpv4-sp-d16
 473              		.type	thread1, %function
 474              	thread1:
 475              	.LFB225:
 476              		.loc 1 133 0
 477              		.cfi_startproc
 478              		@ args = 0, pretend = 0, frame = 8
 479              		@ frame_needed = 0, uses_anonymous_args = 0
 480              	.LVL34:
 481 0000 30B5     		push	{r4, r5, lr}
 482              		.cfi_def_cfa_offset 12
 483              		.cfi_offset 4, -12
 484              		.cfi_offset 5, -8
 485              		.cfi_offset 14, -4
 486 0002 0A4C     		ldr	r4, .L52
 487 0004 83B0     		sub	sp, sp, #12
 488              		.cfi_def_cfa_offset 24
 489              		.loc 1 133 0
 490 0006 2368     		ldr	r3, [r4]
 491 0008 0193     		str	r3, [sp, #4]
 492 000a 0546     		mov	r5, r0
 493              		.loc 1 135 0
 494 000c 3220     		movs	r0, #50
 495              	.LVL35:
 496 000e FFF7FEFF 		bl	chThdSleep
 497              	.LVL36:
 498              		.loc 1 136 0
 499 0012 019A     		ldr	r2, [sp, #4]
 500 0014 2368     		ldr	r3, [r4]
 501 0016 9A42     		cmp	r2, r3
 502 0018 06D1     		bne	.L51
 503 001a 2846     		mov	r0, r5
 504 001c 0121     		movs	r1, #1
 505              		.loc 1 137 0
 506 001e 03B0     		add	sp, sp, #12
 507              		.cfi_remember_state
 508              		.cfi_def_cfa_offset 12
 509              		@ sp needed
 510 0020 BDE83040 		pop	{r4, r5, lr}
 511              		.cfi_restore 14
 512              		.cfi_restore 5
 513              		.cfi_restore 4
ARM GAS  C:\Users\mathi\AppData\Local\Temp\ccAv9hZP.s 			page 10


 514              		.cfi_def_cfa_offset 0
 515              	.LVL37:
 516              		.loc 1 136 0
 517 0024 FFF7FEBF 		b	chEvtSignal
 518              	.LVL38:
 519              	.L51:
 520              		.cfi_restore_state
 521 0028 FFF7FEFF 		bl	__stack_chk_fail
 522              	.LVL39:
 523              	.L53:
 524              		.align	2
 525              	.L52:
 526 002c 00000000 		.word	__stack_chk_guard
 527              		.cfi_endproc
 528              	.LFE225:
 529              		.size	thread1, .-thread1
 530              		.section	.text.chSysUnlock,"ax",%progbits
 531              		.align	1
 532              		.p2align 4,,15
 533              		.syntax unified
 534              		.thumb
 535              		.thumb_func
 536              		.fpu fpv4-sp-d16
 537              		.type	chSysUnlock, %function
 538              	chSysUnlock:
 539              	.LFB146:
 540              		.file 3 "../../lib/e-puck2_main-processor/ChibiOS//os/rt/include/chsys.h"
 541              		.loc 3 358 0
 542              		.cfi_startproc
 543              		@ args = 0, pretend = 0, frame = 8
 544              		@ frame_needed = 0, uses_anonymous_args = 0
 545 0000 10B5     		push	{r4, lr}
 546              		.cfi_def_cfa_offset 8
 547              		.cfi_offset 4, -8
 548              		.cfi_offset 14, -4
 549 0002 104C     		ldr	r4, .L60
 550 0004 82B0     		sub	sp, sp, #8
 551              		.cfi_def_cfa_offset 16
 552              		.loc 3 358 0
 553 0006 2368     		ldr	r3, [r4]
 554 0008 0193     		str	r3, [sp, #4]
 555              		.loc 3 360 0
 556 000a FFF7FEFF 		bl	_dbg_check_unlock
 557              	.LVL40:
 558              		.loc 3 361 0
 559 000e FFF7FEFF 		bl	_stats_stop_measure_crit_thd
 560              	.LVL41:
 561              		.loc 3 367 0
 562 0012 0D4B     		ldr	r3, .L60+4
 563 0014 1A68     		ldr	r2, [r3]
 564 0016 9A42     		cmp	r2, r3
 565 0018 04D0     		beq	.L55
 566              		.loc 3 367 0 is_stmt 0 discriminator 2
 567 001a 9969     		ldr	r1, [r3, #24]
 568 001c 9368     		ldr	r3, [r2, #8]
 569 001e 8A68     		ldr	r2, [r1, #8]
 570 0020 9A42     		cmp	r2, r3
ARM GAS  C:\Users\mathi\AppData\Local\Temp\ccAv9hZP.s 			page 11


 571 0022 08D3     		bcc	.L58
 572              	.L55:
 573              	.LVL42:
 574              	.LBB176:
 575              	.LBB177:
 576              	.LBB178:
 577              		.file 4 "../../lib/e-puck2_main-processor/ChibiOS//os/ext/CMSIS/include/core_cmFunc.h"
 578              		.loc 4 546 0 is_stmt 1
 579 0024 0023     		movs	r3, #0
 580              		.syntax unified
 581              	@ 546 "../../lib/e-puck2_main-processor/ChibiOS//os/ext/CMSIS/include/core_cmFunc.h" 1
 582 0026 83F31188 		MSR basepri, r3
 583              	@ 0 "" 2
 584              	.LVL43:
 585              		.thumb
 586              		.syntax unified
 587              	.LBE178:
 588              	.LBE177:
 589              	.LBE176:
 590              		.loc 3 372 0
 591 002a 019A     		ldr	r2, [sp, #4]
 592 002c 2368     		ldr	r3, [r4]
 593 002e 9A42     		cmp	r2, r3
 594 0030 05D1     		bne	.L59
 595 0032 02B0     		add	sp, sp, #8
 596              		.cfi_remember_state
 597              		.cfi_def_cfa_offset 8
 598              		@ sp needed
 599 0034 10BD     		pop	{r4, pc}
 600              	.L58:
 601              		.cfi_restore_state
 602              		.loc 3 367 0 discriminator 3
 603 0036 0548     		ldr	r0, .L60+8
 604 0038 FFF7FEFF 		bl	chSysHalt
 605              	.LVL44:
 606 003c F2E7     		b	.L55
 607              	.L59:
 608              		.loc 3 372 0
 609 003e FFF7FEFF 		bl	__stack_chk_fail
 610              	.LVL45:
 611              	.L61:
 612 0042 00BF     		.align	2
 613              	.L60:
 614 0044 00000000 		.word	__stack_chk_guard
 615 0048 00000000 		.word	ch
 616 004c 00000000 		.word	.LANCHOR3
 617              		.cfi_endproc
 618              	.LFE146:
 619              		.size	chSysUnlock, .-chSysUnlock
 620              		.section	.text.evt3_execute,"ax",%progbits
 621              		.align	1
 622              		.p2align 4,,15
 623              		.syntax unified
 624              		.thumb
 625              		.thumb_func
 626              		.fpu fpv4-sp-d16
 627              		.type	evt3_execute, %function
ARM GAS  C:\Users\mathi\AppData\Local\Temp\ccAv9hZP.s 			page 12


 628              	evt3_execute:
 629              	.LFB229:
 630              		.loc 1 252 0
 631              		.cfi_startproc
 632              		@ args = 0, pretend = 0, frame = 8
 633              		@ frame_needed = 0, uses_anonymous_args = 0
 634 0000 10B5     		push	{r4, lr}
 635              		.cfi_def_cfa_offset 8
 636              		.cfi_offset 4, -8
 637              		.cfi_offset 14, -4
 638 0002 2F4C     		ldr	r4, .L71
 639 0004 82B0     		sub	sp, sp, #8
 640              		.cfi_def_cfa_offset 16
 641              		.loc 1 258 0
 642 0006 0021     		movs	r1, #0
 643              		.loc 1 252 0
 644 0008 2368     		ldr	r3, [r4]
 645 000a 0193     		str	r3, [sp, #4]
 646              		.loc 1 258 0
 647 000c 4FF0FF30 		mov	r0, #-1
 648 0010 FFF7FEFF 		bl	chEvtWaitOneTimeout
 649              	.LVL46:
 650              		.loc 1 259 0
 651 0014 B0FA80F1 		clz	r1, r0
 652 0018 4909     		lsrs	r1, r1, #5
 653 001a 0120     		movs	r0, #1
 654              	.LVL47:
 655 001c FFF7FEFF 		bl	_test_assert
 656              	.LVL48:
 657 0020 28B1     		cbz	r0, .L70
 658              	.L62:
 659              		.loc 1 270 0
 660 0022 019A     		ldr	r2, [sp, #4]
 661 0024 2368     		ldr	r3, [r4]
 662 0026 9A42     		cmp	r2, r3
 663 0028 47D1     		bne	.L69
 664 002a 02B0     		add	sp, sp, #8
 665              		.cfi_remember_state
 666              		.cfi_def_cfa_offset 8
 667              		@ sp needed
 668 002c 10BD     		pop	{r4, pc}
 669              	.L70:
 670              		.cfi_restore_state
 671              		.loc 1 260 0
 672 002e 0146     		mov	r1, r0
 673 0030 4FF0FF30 		mov	r0, #-1
 674 0034 FFF7FEFF 		bl	chEvtWaitAnyTimeout
 675              	.LVL49:
 676              		.loc 1 261 0
 677 0038 B0FA80F1 		clz	r1, r0
 678 003c 4909     		lsrs	r1, r1, #5
 679 003e 0220     		movs	r0, #2
 680              	.LVL50:
 681 0040 FFF7FEFF 		bl	_test_assert
 682              	.LVL51:
 683 0044 0028     		cmp	r0, #0
 684 0046 ECD1     		bne	.L62
ARM GAS  C:\Users\mathi\AppData\Local\Temp\ccAv9hZP.s 			page 13


 685              		.loc 1 262 0
 686 0048 0146     		mov	r1, r0
 687 004a 4FF0FF30 		mov	r0, #-1
 688 004e FFF7FEFF 		bl	chEvtWaitAllTimeout
 689              	.LVL52:
 690              		.loc 1 263 0
 691 0052 B0FA80F1 		clz	r1, r0
 692 0056 4909     		lsrs	r1, r1, #5
 693 0058 0320     		movs	r0, #3
 694              	.LVL53:
 695 005a FFF7FEFF 		bl	_test_assert
 696              	.LVL54:
 697 005e 0028     		cmp	r0, #0
 698 0060 DFD1     		bne	.L62
 699              	.LBB181:
 700              	.LBB182:
 701              		.loc 1 264 0
 702 0062 0A21     		movs	r1, #10
 703 0064 4FF0FF30 		mov	r0, #-1
 704 0068 FFF7FEFF 		bl	chEvtWaitOneTimeout
 705              	.LVL55:
 706              		.loc 1 265 0
 707 006c B0FA80F1 		clz	r1, r0
 708 0070 4909     		lsrs	r1, r1, #5
 709 0072 0420     		movs	r0, #4
 710              	.LVL56:
 711 0074 FFF7FEFF 		bl	_test_assert
 712              	.LVL57:
 713 0078 0028     		cmp	r0, #0
 714 007a D2D1     		bne	.L62
 715              		.loc 1 266 0
 716 007c 0A21     		movs	r1, #10
 717 007e 4FF0FF30 		mov	r0, #-1
 718 0082 FFF7FEFF 		bl	chEvtWaitAnyTimeout
 719              	.LVL58:
 720              		.loc 1 267 0
 721 0086 B0FA80F1 		clz	r1, r0
 722 008a 4909     		lsrs	r1, r1, #5
 723 008c 0520     		movs	r0, #5
 724              	.LVL59:
 725 008e FFF7FEFF 		bl	_test_assert
 726              	.LVL60:
 727 0092 0028     		cmp	r0, #0
 728 0094 C5D1     		bne	.L62
 729              		.loc 1 268 0
 730 0096 0A21     		movs	r1, #10
 731 0098 4FF0FF30 		mov	r0, #-1
 732 009c FFF7FEFF 		bl	chEvtWaitAllTimeout
 733              	.LVL61:
 734              		.loc 1 269 0
 735 00a0 019A     		ldr	r2, [sp, #4]
 736 00a2 2368     		ldr	r3, [r4]
 737 00a4 9A42     		cmp	r2, r3
 738 00a6 08D1     		bne	.L69
 739 00a8 B0FA80F1 		clz	r1, r0
 740 00ac 4909     		lsrs	r1, r1, #5
 741 00ae 0620     		movs	r0, #6
ARM GAS  C:\Users\mathi\AppData\Local\Temp\ccAv9hZP.s 			page 14


 742              	.LVL62:
 743              	.LBE182:
 744              	.LBE181:
 745              		.loc 1 270 0
 746 00b0 02B0     		add	sp, sp, #8
 747              		.cfi_remember_state
 748              		.cfi_def_cfa_offset 8
 749              		@ sp needed
 750 00b2 BDE81040 		pop	{r4, lr}
 751              		.cfi_restore 14
 752              		.cfi_restore 4
 753              		.cfi_def_cfa_offset 0
 754              	.LBB184:
 755              	.LBB183:
 756              		.loc 1 269 0
 757 00b6 FFF7FEBF 		b	_test_assert
 758              	.LVL63:
 759              	.L69:
 760              		.cfi_restore_state
 761              	.LBE183:
 762              	.LBE184:
 763              		.loc 1 270 0
 764 00ba FFF7FEFF 		bl	__stack_chk_fail
 765              	.LVL64:
 766              	.L72:
 767 00be 00BF     		.align	2
 768              	.L71:
 769 00c0 00000000 		.word	__stack_chk_guard
 770              		.cfi_endproc
 771              	.LFE229:
 772              		.size	evt3_execute, .-evt3_execute
 773              		.section	.text.evt3_setup,"ax",%progbits
 774              		.align	1
 775              		.p2align 4,,15
 776              		.syntax unified
 777              		.thumb
 778              		.thumb_func
 779              		.fpu fpv4-sp-d16
 780              		.type	evt3_setup, %function
 781              	evt3_setup:
 782              	.LFB235:
 783              		.cfi_startproc
 784              		@ args = 0, pretend = 0, frame = 8
 785              		@ frame_needed = 0, uses_anonymous_args = 0
 786 0000 00B5     		push	{lr}
 787              		.cfi_def_cfa_offset 4
 788              		.cfi_offset 14, -4
 789 0002 084B     		ldr	r3, .L78
 790 0004 83B0     		sub	sp, sp, #12
 791              		.cfi_def_cfa_offset 16
 792 0006 1A68     		ldr	r2, [r3]
 793 0008 0192     		str	r2, [sp, #4]
 794 000a 019A     		ldr	r2, [sp, #4]
 795 000c 1B68     		ldr	r3, [r3]
 796 000e 9A42     		cmp	r2, r3
 797 0010 06D1     		bne	.L77
 798 0012 4FF0FF30 		mov	r0, #-1
ARM GAS  C:\Users\mathi\AppData\Local\Temp\ccAv9hZP.s 			page 15


 799 0016 03B0     		add	sp, sp, #12
 800              		.cfi_remember_state
 801              		.cfi_def_cfa_offset 4
 802              		@ sp needed
 803 0018 5DF804EB 		ldr	lr, [sp], #4
 804              		.cfi_restore 14
 805              		.cfi_def_cfa_offset 0
 806 001c FFF7FEBF 		b	chEvtGetAndClearEvents
 807              	.L77:
 808              		.cfi_restore_state
 809 0020 FFF7FEFF 		bl	__stack_chk_fail
 810              	.L79:
 811              		.align	2
 812              	.L78:
 813 0024 00000000 		.word	__stack_chk_guard
 814              		.cfi_endproc
 815              	.LFE235:
 816              		.size	evt3_setup, .-evt3_setup
 817              		.section	.text.evt2_setup,"ax",%progbits
 818              		.align	1
 819              		.p2align 4,,15
 820              		.syntax unified
 821              		.thumb
 822              		.thumb_func
 823              		.fpu fpv4-sp-d16
 824              		.type	evt2_setup, %function
 825              	evt2_setup:
 826              	.LFB233:
 827              		.cfi_startproc
 828              		@ args = 0, pretend = 0, frame = 8
 829              		@ frame_needed = 0, uses_anonymous_args = 0
 830 0000 00B5     		push	{lr}
 831              		.cfi_def_cfa_offset 4
 832              		.cfi_offset 14, -4
 833 0002 084B     		ldr	r3, .L85
 834 0004 83B0     		sub	sp, sp, #12
 835              		.cfi_def_cfa_offset 16
 836 0006 1A68     		ldr	r2, [r3]
 837 0008 0192     		str	r2, [sp, #4]
 838 000a 019A     		ldr	r2, [sp, #4]
 839 000c 1B68     		ldr	r3, [r3]
 840 000e 9A42     		cmp	r2, r3
 841 0010 06D1     		bne	.L84
 842 0012 4FF0FF30 		mov	r0, #-1
 843 0016 03B0     		add	sp, sp, #12
 844              		.cfi_remember_state
 845              		.cfi_def_cfa_offset 4
 846              		@ sp needed
 847 0018 5DF804EB 		ldr	lr, [sp], #4
 848              		.cfi_restore 14
 849              		.cfi_def_cfa_offset 0
 850 001c FFF7FEBF 		b	chEvtGetAndClearEvents
 851              	.L84:
 852              		.cfi_restore_state
 853 0020 FFF7FEFF 		bl	__stack_chk_fail
 854              	.L86:
 855              		.align	2
ARM GAS  C:\Users\mathi\AppData\Local\Temp\ccAv9hZP.s 			page 16


 856              	.L85:
 857 0024 00000000 		.word	__stack_chk_guard
 858              		.cfi_endproc
 859              	.LFE233:
 860              		.size	evt2_setup, .-evt2_setup
 861              		.section	.text.evt2_execute,"ax",%progbits
 862              		.align	1
 863              		.p2align 4,,15
 864              		.syntax unified
 865              		.thumb
 866              		.thumb_func
 867              		.fpu fpv4-sp-d16
 868              		.type	evt2_execute, %function
 869              	evt2_execute:
 870              	.LFB227:
 871              		.loc 1 147 0
 872              		.cfi_startproc
 873              		@ args = 0, pretend = 0, frame = 56
 874              		@ frame_needed = 0, uses_anonymous_args = 0
 875              		.loc 1 147 0
 876 0000 2DE9F046 		push	{r4, r5, r6, r7, r9, r10, lr}
 877              		.cfi_def_cfa_offset 28
 878              		.cfi_offset 4, -28
 879              		.cfi_offset 5, -24
 880              		.cfi_offset 6, -20
 881              		.cfi_offset 7, -16
 882              		.cfi_offset 9, -12
 883              		.cfi_offset 10, -8
 884              		.cfi_offset 14, -4
 885 0004 AC4C     		ldr	r4, .L99
 886 0006 91B0     		sub	sp, sp, #68
 887              		.cfi_def_cfa_offset 96
 888              		.loc 1 147 0
 889 0008 2368     		ldr	r3, [r4]
 890 000a 0F93     		str	r3, [sp, #60]
 891              		.loc 1 155 0
 892 000c 0720     		movs	r0, #7
 893 000e FFF7FEFF 		bl	chEvtAddEvents
 894              	.LVL65:
 895              		.loc 1 156 0
 896 0012 4FF0FF30 		mov	r0, #-1
 897 0016 FFF7FEFF 		bl	chEvtWaitOne
 898              	.LVL66:
 899              		.loc 1 157 0
 900 001a A0F10101 		sub	r1, r0, #1
 901 001e B1FA81F1 		clz	r1, r1
 902 0022 4909     		lsrs	r1, r1, #5
 903 0024 0120     		movs	r0, #1
 904              	.LVL67:
 905 0026 FFF7FEFF 		bl	_test_assert
 906              	.LVL68:
 907 002a 38B1     		cbz	r0, .L97
 908              	.L87:
 909              		.loc 1 222 0
 910 002c 0F9A     		ldr	r2, [sp, #60]
 911 002e 2368     		ldr	r3, [r4]
 912 0030 9A42     		cmp	r2, r3
ARM GAS  C:\Users\mathi\AppData\Local\Temp\ccAv9hZP.s 			page 17


 913 0032 40F03F81 		bne	.L98
 914 0036 11B0     		add	sp, sp, #68
 915              		.cfi_remember_state
 916              		.cfi_def_cfa_offset 28
 917              		@ sp needed
 918 0038 BDE8F086 		pop	{r4, r5, r6, r7, r9, r10, pc}
 919              	.L97:
 920              		.cfi_restore_state
 921              		.loc 1 158 0
 922 003c 4FF0FF30 		mov	r0, #-1
 923 0040 FFF7FEFF 		bl	chEvtWaitOne
 924              	.LVL69:
 925              		.loc 1 159 0
 926 0044 A0F10201 		sub	r1, r0, #2
 927 0048 B1FA81F1 		clz	r1, r1
 928 004c 4909     		lsrs	r1, r1, #5
 929 004e 0220     		movs	r0, #2
 930              	.LVL70:
 931 0050 FFF7FEFF 		bl	_test_assert
 932              	.LVL71:
 933 0054 0028     		cmp	r0, #0
 934 0056 E9D1     		bne	.L87
 935              		.loc 1 160 0
 936 0058 4FF0FF30 		mov	r0, #-1
 937 005c FFF7FEFF 		bl	chEvtWaitOne
 938              	.LVL72:
 939              		.loc 1 161 0
 940 0060 A0F10401 		sub	r1, r0, #4
 941 0064 B1FA81F1 		clz	r1, r1
 942 0068 4909     		lsrs	r1, r1, #5
 943 006a 0320     		movs	r0, #3
 944              	.LVL73:
 945 006c FFF7FEFF 		bl	_test_assert
 946              	.LVL74:
 947 0070 0028     		cmp	r0, #0
 948 0072 DBD1     		bne	.L87
 949              	.LBB247:
 950              	.LBB248:
 951              		.loc 1 162 0
 952 0074 4FF0FF30 		mov	r0, #-1
 953 0078 FFF7FEFF 		bl	chEvtGetAndClearEvents
 954              	.LVL75:
 955              		.loc 1 163 0
 956 007c B0FA80F1 		clz	r1, r0
 957 0080 4909     		lsrs	r1, r1, #5
 958 0082 0420     		movs	r0, #4
 959              	.LVL76:
 960 0084 FFF7FEFF 		bl	_test_assert
 961              	.LVL77:
 962 0088 0028     		cmp	r0, #0
 963 008a CFD1     		bne	.L87
 964              		.loc 1 168 0
 965 008c FFF7FEFF 		bl	test_wait_tick
 966              	.LVL78:
 967              	.LBB249:
 968              	.LBB250:
 969              	.LBB251:
ARM GAS  C:\Users\mathi\AppData\Local\Temp\ccAv9hZP.s 			page 18


 970              	.LBB252:
 971              	.LBB253:
 972              	.LBB254:
 973              	.LBB255:
 974              		.loc 4 546 0
 975 0090 2023     		movs	r3, #32
 976              		.syntax unified
 977              	@ 546 "../../lib/e-puck2_main-processor/ChibiOS//os/ext/CMSIS/include/core_cmFunc.h" 1
 978 0092 83F31188 		MSR basepri, r3
 979              	@ 0 "" 2
 980              	.LVL79:
 981              		.thumb
 982              		.syntax unified
 983              	.LBE255:
 984              	.LBE254:
 985              	.LBE253:
 986              	.LBE252:
 987              	.LBE251:
 988              	.LBB257:
 989              	.LBB258:
 990              		.file 5 "../../lib/e-puck2_main-processor/ChibiOS//os/rt/include/chvt.h"
 991              		.loc 5 231 0
 992 0096 894D     		ldr	r5, .L99+4
 993              	.LBE258:
 994              	.LBE257:
 995              	.LBB260:
 996              	.LBB256:
 997              		.loc 3 349 0
 998 0098 FFF7FEFF 		bl	_stats_start_measure_crit_thd
 999              	.LVL80:
 1000              		.loc 3 350 0
 1001 009c FFF7FEFF 		bl	_dbg_check_lock
 1002              	.LVL81:
 1003              	.LBE256:
 1004              	.LBE260:
 1005              	.LBB261:
 1006              	.LBB259:
 1007              		.loc 5 231 0
 1008 00a0 AE6A     		ldr	r6, [r5, #40]
 1009              	.LBE259:
 1010              	.LBE261:
 1011              	.LBB262:
 1012              	.LBB263:
 1013              		.loc 3 360 0
 1014 00a2 FFF7FEFF 		bl	_dbg_check_unlock
 1015              	.LVL82:
 1016              		.loc 3 361 0
 1017 00a6 FFF7FEFF 		bl	_stats_stop_measure_crit_thd
 1018              	.LVL83:
 1019              		.loc 3 367 0
 1020 00aa 2B68     		ldr	r3, [r5]
 1021 00ac AB42     		cmp	r3, r5
 1022 00ae 07D0     		beq	.L93
 1023 00b0 AA69     		ldr	r2, [r5, #24]
 1024 00b2 9B68     		ldr	r3, [r3, #8]
 1025 00b4 9268     		ldr	r2, [r2, #8]
 1026 00b6 9A42     		cmp	r2, r3
ARM GAS  C:\Users\mathi\AppData\Local\Temp\ccAv9hZP.s 			page 19


 1027 00b8 02D2     		bcs	.L93
 1028 00ba 8148     		ldr	r0, .L99+8
 1029 00bc FFF7FEFF 		bl	chSysHalt
 1030              	.LVL84:
 1031              	.L93:
 1032              	.LBB264:
 1033              	.LBB265:
 1034              	.LBB266:
 1035              		.loc 4 546 0
 1036 00c0 0023     		movs	r3, #0
 1037              		.syntax unified
 1038              	@ 546 "../../lib/e-puck2_main-processor/ChibiOS//os/ext/CMSIS/include/core_cmFunc.h" 1
 1039 00c2 83F31188 		MSR basepri, r3
 1040              	@ 0 "" 2
 1041              	.LVL85:
 1042              		.thumb
 1043              		.syntax unified
 1044              	.LBE266:
 1045              	.LBE265:
 1046              	.LBE264:
 1047              	.LBE263:
 1048              	.LBE262:
 1049              	.LBE250:
 1050              	.LBE249:
 1051              		.loc 1 170 0
 1052 00c6 7F4B     		ldr	r3, .L99+12
 1053              	.LBB267:
 1054              	.LBB268:
 1055              	.LBB269:
 1056              	.LBB270:
 1057              		.file 6 "../../lib/e-puck2_main-processor/ChibiOS//os/rt/include/chthreads.h"
 1058              		.loc 6 176 0
 1059 00c8 A969     		ldr	r1, [r5, #24]
 1060              	.LBE270:
 1061              	.LBE269:
 1062              	.LBE268:
 1063              	.LBE267:
 1064              		.loc 1 170 0
 1065 00ca 1B68     		ldr	r3, [r3]
 1066 00cc 8A68     		ldr	r2, [r1, #8]
 1067 00ce 0393     		str	r3, [sp, #12]
 1068 00d0 013A     		subs	r2, r2, #1
 1069 00d2 1846     		mov	r0, r3
 1070 00d4 0091     		str	r1, [sp]
 1071 00d6 7C4B     		ldr	r3, .L99+16
 1072 00d8 7C4F     		ldr	r7, .L99+20
 1073 00da 4FF4FC71 		mov	r1, #504
 1074 00de FFF7FEFF 		bl	chThdCreateStatic
 1075              	.LVL86:
 1076 00e2 3860     		str	r0, [r7]
 1077              		.loc 1 172 0
 1078 00e4 4FF0FF30 		mov	r0, #-1
 1079 00e8 FFF7FEFF 		bl	chEvtWaitOne
 1080              	.LVL87:
 1081              		.loc 1 173 0
 1082 00ec 06F13702 		add	r2, r6, #55
 1083              		.loc 1 172 0
ARM GAS  C:\Users\mathi\AppData\Local\Temp\ccAv9hZP.s 			page 20


 1084 00f0 8146     		mov	r9, r0
 1085              	.LVL88:
 1086              		.loc 1 173 0
 1087 00f2 06F13201 		add	r1, r6, #50
 1088              	.LVL89:
 1089 00f6 0520     		movs	r0, #5
 1090              	.LVL90:
 1091 00f8 FFF7FEFF 		bl	_test_assert_time_window
 1092              	.LVL91:
 1093 00fc 0028     		cmp	r0, #0
 1094 00fe 95D1     		bne	.L87
 1095              		.loc 1 174 0
 1096 0100 A9F10101 		sub	r1, r9, #1
 1097 0104 B1FA81F1 		clz	r1, r1
 1098 0108 4909     		lsrs	r1, r1, #5
 1099 010a 0620     		movs	r0, #6
 1100 010c FFF7FEFF 		bl	_test_assert
 1101              	.LVL92:
 1102 0110 0028     		cmp	r0, #0
 1103 0112 8BD1     		bne	.L87
 1104              		.loc 1 175 0
 1105 0114 4FF0FF30 		mov	r0, #-1
 1106 0118 FFF7FEFF 		bl	chEvtGetAndClearEvents
 1107              	.LVL93:
 1108              		.loc 1 176 0
 1109 011c B0FA80F1 		clz	r1, r0
 1110 0120 4909     		lsrs	r1, r1, #5
 1111 0122 0720     		movs	r0, #7
 1112              	.LVL94:
 1113 0124 FFF7FEFF 		bl	_test_assert
 1114              	.LVL95:
 1115 0128 0028     		cmp	r0, #0
 1116 012a 7FF47FAF 		bne	.L87
 1117              		.loc 1 177 0
 1118 012e FFF7FEFF 		bl	test_wait_threads
 1119              	.LVL96:
 1120              		.loc 1 182 0
 1121 0132 0520     		movs	r0, #5
 1122 0134 FFF7FEFF 		bl	chEvtAddEvents
 1123              	.LVL97:
 1124              		.loc 1 183 0
 1125 0138 4FF0FF30 		mov	r0, #-1
 1126 013c FFF7FEFF 		bl	chEvtWaitAny
 1127              	.LVL98:
 1128              		.loc 1 184 0
 1129 0140 461F     		subs	r6, r0, #5
 1130              	.LVL99:
 1131 0142 7142     		rsbs	r1, r6, #0
 1132 0144 7141     		adcs	r1, r1, r6
 1133 0146 0820     		movs	r0, #8
 1134              	.LVL100:
 1135 0148 FFF7FEFF 		bl	_test_assert
 1136              	.LVL101:
 1137 014c 0028     		cmp	r0, #0
 1138 014e 7FF46DAF 		bne	.L87
 1139              		.loc 1 185 0
 1140 0152 4FF0FF30 		mov	r0, #-1
ARM GAS  C:\Users\mathi\AppData\Local\Temp\ccAv9hZP.s 			page 21


 1141 0156 FFF7FEFF 		bl	chEvtGetAndClearEvents
 1142              	.LVL102:
 1143              		.loc 1 186 0
 1144 015a B0FA80F1 		clz	r1, r0
 1145 015e 4909     		lsrs	r1, r1, #5
 1146 0160 0920     		movs	r0, #9
 1147              	.LVL103:
 1148 0162 FFF7FEFF 		bl	_test_assert
 1149              	.LVL104:
 1150 0166 0028     		cmp	r0, #0
 1151 0168 7FF460AF 		bne	.L87
 1152              		.loc 1 191 0
 1153 016c FFF7FEFF 		bl	test_wait_tick
 1154              	.LVL105:
 1155              	.LBB271:
 1156              	.LBB272:
 1157              	.LBB273:
 1158              	.LBB274:
 1159              	.LBB275:
 1160              	.LBB276:
 1161              	.LBB277:
 1162              		.loc 4 546 0
 1163 0170 4FF0200A 		mov	r10, #32
 1164              		.syntax unified
 1165              	@ 546 "../../lib/e-puck2_main-processor/ChibiOS//os/ext/CMSIS/include/core_cmFunc.h" 1
 1166 0174 8AF31188 		MSR basepri, r10
 1167              	@ 0 "" 2
 1168              	.LVL106:
 1169              		.thumb
 1170              		.syntax unified
 1171              	.LBE277:
 1172              	.LBE276:
 1173              	.LBE275:
 1174              		.loc 3 349 0
 1175 0178 FFF7FEFF 		bl	_stats_start_measure_crit_thd
 1176              	.LVL107:
 1177              		.loc 3 350 0
 1178 017c FFF7FEFF 		bl	_dbg_check_lock
 1179              	.LVL108:
 1180              	.LBE274:
 1181              	.LBE273:
 1182              	.LBB278:
 1183              	.LBB279:
 1184              		.loc 5 231 0
 1185 0180 AE6A     		ldr	r6, [r5, #40]
 1186              	.LBE279:
 1187              	.LBE278:
 1188              		.loc 5 252 0
 1189 0182 FFF7FEFF 		bl	chSysUnlock
 1190              	.LVL109:
 1191              	.LBE272:
 1192              	.LBE271:
 1193              	.LBB280:
 1194              	.LBB281:
 1195              	.LBB282:
 1196              	.LBB283:
 1197              		.loc 6 176 0
ARM GAS  C:\Users\mathi\AppData\Local\Temp\ccAv9hZP.s 			page 22


 1198 0186 A969     		ldr	r1, [r5, #24]
 1199              	.LBE283:
 1200              	.LBE282:
 1201              	.LBE281:
 1202              	.LBE280:
 1203              		.loc 1 193 0
 1204 0188 4F4B     		ldr	r3, .L99+16
 1205 018a 8A68     		ldr	r2, [r1, #8]
 1206 018c 0398     		ldr	r0, [sp, #12]
 1207 018e 0091     		str	r1, [sp]
 1208 0190 013A     		subs	r2, r2, #1
 1209 0192 4FF4FC71 		mov	r1, #504
 1210 0196 FFF7FEFF 		bl	chThdCreateStatic
 1211              	.LVL110:
 1212 019a 3860     		str	r0, [r7]
 1213              		.loc 1 195 0
 1214 019c 4FF0FF30 		mov	r0, #-1
 1215 01a0 FFF7FEFF 		bl	chEvtWaitAny
 1216              	.LVL111:
 1217              		.loc 1 196 0
 1218 01a4 06F13702 		add	r2, r6, #55
 1219              		.loc 1 195 0
 1220 01a8 8146     		mov	r9, r0
 1221              	.LVL112:
 1222              		.loc 1 196 0
 1223 01aa 06F13201 		add	r1, r6, #50
 1224              	.LVL113:
 1225 01ae 0A20     		movs	r0, #10
 1226              	.LVL114:
 1227 01b0 FFF7FEFF 		bl	_test_assert_time_window
 1228              	.LVL115:
 1229 01b4 0028     		cmp	r0, #0
 1230 01b6 7FF439AF 		bne	.L87
 1231              		.loc 1 197 0
 1232 01ba 09F1FF30 		add	r0, r9, #-1
 1233 01be 4142     		rsbs	r1, r0, #0
 1234 01c0 4141     		adcs	r1, r1, r0
 1235 01c2 0B20     		movs	r0, #11
 1236 01c4 FFF7FEFF 		bl	_test_assert
 1237              	.LVL116:
 1238 01c8 0028     		cmp	r0, #0
 1239 01ca 7FF42FAF 		bne	.L87
 1240              		.loc 1 198 0
 1241 01ce 4FF0FF30 		mov	r0, #-1
 1242 01d2 FFF7FEFF 		bl	chEvtGetAndClearEvents
 1243              	.LVL117:
 1244              		.loc 1 199 0
 1245 01d6 B0FA80F1 		clz	r1, r0
 1246 01da 4909     		lsrs	r1, r1, #5
 1247 01dc 0C20     		movs	r0, #12
 1248              	.LVL118:
 1249 01de FFF7FEFF 		bl	_test_assert
 1250              	.LVL119:
 1251 01e2 0028     		cmp	r0, #0
 1252 01e4 7FF422AF 		bne	.L87
 1253              	.LBB284:
 1254              	.LBB285:
ARM GAS  C:\Users\mathi\AppData\Local\Temp\ccAv9hZP.s 			page 23


 1255              		.loc 2 172 0
 1256 01e8 DFF8F090 		ldr	r9, .L99+36
 1257              	.LBE285:
 1258              	.LBE284:
 1259              	.LBB287:
 1260              	.LBB288:
 1261 01ec 384E     		ldr	r6, .L99+24
 1262              	.LVL120:
 1263              	.LBE288:
 1264              	.LBE287:
 1265              		.loc 1 200 0
 1266 01ee FFF7FEFF 		bl	test_wait_threads
 1267              	.LVL121:
 1268              	.LBB290:
 1269              	.LBB291:
 1270              		.loc 2 193 0
 1271 01f2 4846     		mov	r0, r9
 1272 01f4 05A9     		add	r1, sp, #20
 1273 01f6 4FF0FF33 		mov	r3, #-1
 1274 01fa 0122     		movs	r2, #1
 1275              	.LBE291:
 1276              	.LBE290:
 1277              	.LBB293:
 1278              	.LBB286:
 1279              		.loc 2 172 0
 1280 01fc C9F80090 		str	r9, [r9]
 1281              	.LVL122:
 1282              	.LBE286:
 1283              	.LBE293:
 1284              	.LBB294:
 1285              	.LBB289:
 1286 0200 3660     		str	r6, [r6]
 1287              	.LVL123:
 1288              	.LBE289:
 1289              	.LBE294:
 1290              	.LBB295:
 1291              	.LBB292:
 1292              		.loc 2 193 0
 1293 0202 FFF7FEFF 		bl	chEvtRegisterMaskWithFlags
 1294              	.LVL124:
 1295              	.LBE292:
 1296              	.LBE295:
 1297              	.LBB296:
 1298              	.LBB297:
 1299 0206 3046     		mov	r0, r6
 1300 0208 0AA9     		add	r1, sp, #40
 1301              	.LVL125:
 1302 020a 4FF0FF33 		mov	r3, #-1
 1303 020e 0422     		movs	r2, #4
 1304 0210 FFF7FEFF 		bl	chEvtRegisterMaskWithFlags
 1305              	.LVL126:
 1306              	.LBE297:
 1307              	.LBE296:
 1308              		.loc 1 209 0
 1309 0214 FFF7FEFF 		bl	test_wait_tick
 1310              	.LVL127:
 1311              	.LBB298:
ARM GAS  C:\Users\mathi\AppData\Local\Temp\ccAv9hZP.s 			page 24


 1312              	.LBB299:
 1313              	.LBB300:
 1314              	.LBB301:
 1315              	.LBB302:
 1316              	.LBB303:
 1317              	.LBB304:
 1318              		.loc 4 546 0
 1319              		.syntax unified
 1320              	@ 546 "../../lib/e-puck2_main-processor/ChibiOS//os/ext/CMSIS/include/core_cmFunc.h" 1
 1321 0218 8AF31188 		MSR basepri, r10
 1322              	@ 0 "" 2
 1323              	.LVL128:
 1324              		.thumb
 1325              		.syntax unified
 1326              	.LBE304:
 1327              	.LBE303:
 1328              	.LBE302:
 1329              		.loc 3 349 0
 1330 021c FFF7FEFF 		bl	_stats_start_measure_crit_thd
 1331              	.LVL129:
 1332              		.loc 3 350 0
 1333 0220 FFF7FEFF 		bl	_dbg_check_lock
 1334              	.LVL130:
 1335              	.LBE301:
 1336              	.LBE300:
 1337              	.LBB305:
 1338              	.LBB306:
 1339              		.loc 5 231 0
 1340 0224 D5F828A0 		ldr	r10, [r5, #40]
 1341              	.LBE306:
 1342              	.LBE305:
 1343              		.loc 5 252 0
 1344 0228 FFF7FEFF 		bl	chSysUnlock
 1345              	.LVL131:
 1346              	.LBE299:
 1347              	.LBE298:
 1348              	.LBB307:
 1349              	.LBB308:
 1350              		.loc 6 189 0
 1351 022c AB69     		ldr	r3, [r5, #24]
 1352              	.LBE308:
 1353              	.LBE307:
 1354              		.loc 1 211 0
 1355 022e 2949     		ldr	r1, .L99+28
 1356 0230 9A68     		ldr	r2, [r3, #8]
 1357 0232 0398     		ldr	r0, [sp, #12]
 1358 0234 284B     		ldr	r3, .L99+32
 1359 0236 0091     		str	r1, [sp]
 1360 0238 013A     		subs	r2, r2, #1
 1361 023a 4FF4FC71 		mov	r1, #504
 1362 023e FFF7FEFF 		bl	chThdCreateStatic
 1363              	.LVL132:
 1364 0242 3860     		str	r0, [r7]
 1365              		.loc 1 213 0
 1366 0244 0520     		movs	r0, #5
 1367 0246 FFF7FEFF 		bl	chEvtWaitAll
 1368              	.LVL133:
ARM GAS  C:\Users\mathi\AppData\Local\Temp\ccAv9hZP.s 			page 25


 1369              		.loc 1 214 0
 1370 024a 0AF13702 		add	r2, r10, #55
 1371 024e 0AF13201 		add	r1, r10, #50
 1372              	.LVL134:
 1373 0252 0D20     		movs	r0, #13
 1374 0254 FFF7FEFF 		bl	_test_assert_time_window
 1375              	.LVL135:
 1376 0258 0028     		cmp	r0, #0
 1377 025a 7FF4E7AE 		bne	.L87
 1378              		.loc 1 215 0
 1379 025e 4FF0FF30 		mov	r0, #-1
 1380 0262 FFF7FEFF 		bl	chEvtGetAndClearEvents
 1381              	.LVL136:
 1382              		.loc 1 216 0
 1383 0266 B0FA80F1 		clz	r1, r0
 1384 026a 4909     		lsrs	r1, r1, #5
 1385 026c 0E20     		movs	r0, #14
 1386              	.LVL137:
 1387 026e FFF7FEFF 		bl	_test_assert
 1388              	.LVL138:
 1389 0272 0028     		cmp	r0, #0
 1390 0274 7FF4DAAE 		bne	.L87
 1391              		.loc 1 217 0
 1392 0278 FFF7FEFF 		bl	test_wait_threads
 1393              	.LVL139:
 1394              		.loc 1 218 0
 1395 027c 05A9     		add	r1, sp, #20
 1396 027e 4846     		mov	r0, r9
 1397 0280 FFF7FEFF 		bl	chEvtUnregister
 1398              	.LVL140:
 1399              		.loc 1 219 0
 1400 0284 0AA9     		add	r1, sp, #40
 1401 0286 3046     		mov	r0, r6
 1402 0288 FFF7FEFF 		bl	chEvtUnregister
 1403              	.LVL141:
 1404              		.loc 1 220 0
 1405 028c D9F80010 		ldr	r1, [r9]
 1406 0290 A1EB0902 		sub	r2, r1, r9
 1407 0294 5142     		rsbs	r1, r2, #0
 1408 0296 5141     		adcs	r1, r1, r2
 1409 0298 0F20     		movs	r0, #15
 1410 029a FFF7FEFF 		bl	_test_assert
 1411              	.LVL142:
 1412 029e 0028     		cmp	r0, #0
 1413 02a0 7FF4C4AE 		bne	.L87
 1414              		.loc 1 221 0
 1415 02a4 3168     		ldr	r1, [r6]
 1416 02a6 8B1B     		subs	r3, r1, r6
 1417 02a8 5942     		rsbs	r1, r3, #0
 1418 02aa 5941     		adcs	r1, r1, r3
 1419 02ac 1020     		movs	r0, #16
 1420 02ae FFF7FEFF 		bl	_test_assert
 1421              	.LVL143:
 1422 02b2 BBE6     		b	.L87
 1423              	.LVL144:
 1424              	.L98:
 1425              	.LBE248:
ARM GAS  C:\Users\mathi\AppData\Local\Temp\ccAv9hZP.s 			page 26


 1426              	.LBE247:
 1427              		.loc 1 222 0
 1428 02b4 FFF7FEFF 		bl	__stack_chk_fail
 1429              	.LVL145:
 1430              	.L100:
 1431              		.align	2
 1432              	.L99:
 1433 02b8 00000000 		.word	__stack_chk_guard
 1434 02bc 00000000 		.word	ch
 1435 02c0 00000000 		.word	.LANCHOR3
 1436 02c4 00000000 		.word	wa
 1437 02c8 00000000 		.word	thread1
 1438 02cc 00000000 		.word	threads
 1439 02d0 00000000 		.word	.LANCHOR2
 1440 02d4 00000000 		.word	.LC1
 1441 02d8 00000000 		.word	thread2
 1442 02dc 00000000 		.word	.LANCHOR0
 1443              		.cfi_endproc
 1444              	.LFE227:
 1445              		.size	evt2_execute, .-evt2_execute
 1446              		.global	patternevt
 1447              		.global	testevt3
 1448              		.global	testevt2
 1449              		.global	testevt1
 1450              		.section	.data.es1,"aw",%progbits
 1451              		.align	2
 1452              		.set	.LANCHOR0,. + 0
 1453              		.type	es1, %object
 1454              		.size	es1, 4
 1455              	es1:
 1456 0000 00000000 		.word	es1
 1457              		.section	.data.es2,"aw",%progbits
 1458              		.align	2
 1459              		.set	.LANCHOR2,. + 0
 1460              		.type	es2, %object
 1461              		.size	es2, 4
 1462              	es2:
 1463 0000 00000000 		.word	es2
 1464              		.section	.rodata.__func__.7153,"a",%progbits
 1465              		.align	2
 1466              		.set	.LANCHOR3,. + 0
 1467              		.type	__func__.7153, %object
 1468              		.size	__func__.7153, 12
 1469              	__func__.7153:
 1470 0000 63685379 		.ascii	"chSysUnlock\000"
 1470      73556E6C 
 1470      6F636B00 
 1471              		.section	.rodata.evhndl,"a",%progbits
 1472              		.align	2
 1473              		.set	.LANCHOR1,. + 0
 1474              		.type	evhndl, %object
 1475              		.size	evhndl, 12
 1476              	evhndl:
 1477 0000 00000000 		.word	h1
 1478 0004 00000000 		.word	h2
 1479 0008 00000000 		.word	h3
 1480              		.section	.rodata.evt1_execute.str1.4,"aMS",%progbits,1
ARM GAS  C:\Users\mathi\AppData\Local\Temp\ccAv9hZP.s 			page 27


 1481              		.align	2
 1482              	.LC0:
 1483 0000 41424300 		.ascii	"ABC\000"
 1484              		.section	.rodata.evt2_execute.str1.4,"aMS",%progbits,1
 1485              		.align	2
 1486              	.LC1:
 1487 0000 4100     		.ascii	"A\000"
 1488              		.section	.rodata.patternevt,"a",%progbits
 1489              		.align	2
 1490              		.type	patternevt, %object
 1491              		.size	patternevt, 16
 1492              	patternevt:
 1493 0000 00000000 		.word	testevt1
 1494 0004 00000000 		.word	testevt2
 1495 0008 00000000 		.word	testevt3
 1496 000c 00000000 		.word	0
 1497              		.section	.rodata.str1.4,"aMS",%progbits,1
 1498              		.align	2
 1499              	.LC2:
 1500 0000 4576656E 		.ascii	"Events, timeouts\000"
 1500      74732C20 
 1500      74696D65 
 1500      6F757473 
 1500      00
 1501 0011 000000   		.space	3
 1502              	.LC3:
 1503 0014 4576656E 		.ascii	"Events, wait and broadcast\000"
 1503      74732C20 
 1503      77616974 
 1503      20616E64 
 1503      2062726F 
 1504 002f 00       		.space	1
 1505              	.LC4:
 1506 0030 4576656E 		.ascii	"Events, registration and dispatch\000"
 1506      74732C20 
 1506      72656769 
 1506      73747261 
 1506      74696F6E 
 1507              		.section	.rodata.testevt1,"a",%progbits
 1508              		.align	2
 1509              		.type	testevt1, %object
 1510              		.size	testevt1, 16
 1511              	testevt1:
 1512 0000 30000000 		.word	.LC4
 1513 0004 00000000 		.word	evt1_setup
 1514 0008 00000000 		.word	0
 1515 000c 00000000 		.word	evt1_execute
 1516              		.section	.rodata.testevt2,"a",%progbits
 1517              		.align	2
 1518              		.type	testevt2, %object
 1519              		.size	testevt2, 16
 1520              	testevt2:
 1521 0000 14000000 		.word	.LC3
 1522 0004 00000000 		.word	evt2_setup
 1523 0008 00000000 		.word	0
 1524 000c 00000000 		.word	evt2_execute
 1525              		.section	.rodata.testevt3,"a",%progbits
ARM GAS  C:\Users\mathi\AppData\Local\Temp\ccAv9hZP.s 			page 28


 1526              		.align	2
 1527              		.type	testevt3, %object
 1528              		.size	testevt3, 16
 1529              	testevt3:
 1530 0000 00000000 		.word	.LC2
 1531 0004 00000000 		.word	evt3_setup
 1532 0008 00000000 		.word	0
 1533 000c 00000000 		.word	evt3_execute
 1534              		.text
 1535              	.Letext0:
 1536              		.file 7 "c:\\eclipse_e-puck2\\tools\\gcc-arm-none-eabi-7-2017-q4-major-win32\\lib\\gcc\\arm-none-e
 1537              		.file 8 "c:\\eclipse_e-puck2\\tools\\gcc-arm-none-eabi-7-2017-q4-major-win32\\arm-none-eabi\\inclu
 1538              		.file 9 "c:\\eclipse_e-puck2\\tools\\gcc-arm-none-eabi-7-2017-q4-major-win32\\arm-none-eabi\\inclu
 1539              		.file 10 "../../lib/e-puck2_main-processor/ChibiOS//os/rt/ports/ARMCMx/compilers/GCC/chtypes.h"
 1540              		.file 11 "../../lib/e-puck2_main-processor/ChibiOS//os/rt/include/chsystypes.h"
 1541              		.file 12 "../../lib/e-puck2_main-processor/ChibiOS//os/rt/include/chschd.h"
 1542              		.file 13 "../../lib/e-puck2_main-processor/ChibiOS//os/ext/CMSIS/include/core_cm4.h"
 1543              		.file 14 "../../lib/e-puck2_main-processor/ChibiOS//os/ext/CMSIS/ST/system_stm32f4xx.h"
 1544              		.file 15 "../../lib/e-puck2_main-processor/ChibiOS//os/rt/ports/ARMCMx/chcore.h"
 1545              		.file 16 "../../lib/e-puck2_main-processor/ChibiOS//os/rt/ports/ARMCMx/chcore_v7m.h"
 1546              		.file 17 "../../lib/e-puck2_main-processor/ChibiOS//os/rt/include/chdebug.h"
 1547              		.file 18 "../../lib/e-puck2_main-processor/ChibiOS//os/rt/include/chtm.h"
 1548              		.file 19 "../../lib/e-puck2_main-processor/ChibiOS//os/rt/include/chstats.h"
 1549              		.file 20 "../../lib/e-puck2_main-processor/ChibiOS//os/rt/include/chsem.h"
 1550              		.file 21 "../../lib/e-puck2_main-processor/ChibiOS//os/rt/include/chmtx.h"
 1551              		.file 22 "../../lib/e-puck2_main-processor/ChibiOS//os/rt/include/chregistry.h"
 1552              		.file 23 "../../lib/e-puck2_main-processor/ChibiOS//test/rt/test.h"