ARM GAS  C:\Users\mathi\AppData\Local\Temp\ccigTuKk.s 			page 1


   1              		.cpu cortex-m4
   2              		.eabi_attribute 27, 1
   3              		.eabi_attribute 28, 1
   4              		.eabi_attribute 20, 1
   5              		.eabi_attribute 21, 1
   6              		.eabi_attribute 23, 3
   7              		.eabi_attribute 24, 1
   8              		.eabi_attribute 25, 1
   9              		.eabi_attribute 26, 1
  10              		.eabi_attribute 30, 2
  11              		.eabi_attribute 34, 1
  12              		.eabi_attribute 18, 4
  13              		.file	"testmbox.c"
  14              		.text
  15              	.Ltext0:
  16              		.cfi_sections	.debug_frame
  17              		.section	.text.chSysUnlock,"ax",%progbits
  18              		.align	1
  19              		.p2align 4,,15
  20              		.syntax unified
  21              		.thumb
  22              		.thumb_func
  23              		.fpu fpv4-sp-d16
  24              		.type	chSysUnlock, %function
  25              	chSysUnlock:
  26              	.LFB146:
  27              		.file 1 "../../lib/e-puck2_main-processor/ChibiOS//os/rt/include/chsys.h"
  28              		.loc 1 358 0
  29              		.cfi_startproc
  30              		@ args = 0, pretend = 0, frame = 8
  31              		@ frame_needed = 0, uses_anonymous_args = 0
  32 0000 10B5     		push	{r4, lr}
  33              		.cfi_def_cfa_offset 8
  34              		.cfi_offset 4, -8
  35              		.cfi_offset 14, -4
  36 0002 104C     		ldr	r4, .L8
  37 0004 82B0     		sub	sp, sp, #8
  38              		.cfi_def_cfa_offset 16
  39              		.loc 1 358 0
  40 0006 2368     		ldr	r3, [r4]
  41 0008 0193     		str	r3, [sp, #4]
  42              		.loc 1 360 0
  43 000a FFF7FEFF 		bl	_dbg_check_unlock
  44              	.LVL0:
  45              		.loc 1 361 0
  46 000e FFF7FEFF 		bl	_stats_stop_measure_crit_thd
  47              	.LVL1:
  48              		.loc 1 367 0
  49 0012 0D4B     		ldr	r3, .L8+4
  50 0014 1A68     		ldr	r2, [r3]
  51 0016 9A42     		cmp	r2, r3
  52 0018 04D0     		beq	.L2
  53              		.loc 1 367 0 is_stmt 0 discriminator 2
  54 001a 9969     		ldr	r1, [r3, #24]
  55 001c 9368     		ldr	r3, [r2, #8]
  56 001e 8A68     		ldr	r2, [r1, #8]
  57 0020 9A42     		cmp	r2, r3
ARM GAS  C:\Users\mathi\AppData\Local\Temp\ccigTuKk.s 			page 2


  58 0022 08D3     		bcc	.L6
  59              	.L2:
  60              	.LVL2:
  61              	.LBB175:
  62              	.LBB176:
  63              	.LBB177:
  64              		.file 2 "../../lib/e-puck2_main-processor/ChibiOS//os/ext/CMSIS/include/core_cmFunc.h"
  65              		.loc 2 546 0 is_stmt 1
  66 0024 0023     		movs	r3, #0
  67              		.syntax unified
  68              	@ 546 "../../lib/e-puck2_main-processor/ChibiOS//os/ext/CMSIS/include/core_cmFunc.h" 1
  69 0026 83F31188 		MSR basepri, r3
  70              	@ 0 "" 2
  71              	.LVL3:
  72              		.thumb
  73              		.syntax unified
  74              	.LBE177:
  75              	.LBE176:
  76              	.LBE175:
  77              		.loc 1 372 0
  78 002a 019A     		ldr	r2, [sp, #4]
  79 002c 2368     		ldr	r3, [r4]
  80 002e 9A42     		cmp	r2, r3
  81 0030 05D1     		bne	.L7
  82 0032 02B0     		add	sp, sp, #8
  83              		.cfi_remember_state
  84              		.cfi_def_cfa_offset 8
  85              		@ sp needed
  86 0034 10BD     		pop	{r4, pc}
  87              	.L6:
  88              		.cfi_restore_state
  89              		.loc 1 367 0 discriminator 3
  90 0036 0548     		ldr	r0, .L8+8
  91 0038 FFF7FEFF 		bl	chSysHalt
  92              	.LVL4:
  93 003c F2E7     		b	.L2
  94              	.L7:
  95              		.loc 1 372 0
  96 003e FFF7FEFF 		bl	__stack_chk_fail
  97              	.LVL5:
  98              	.L9:
  99 0042 00BF     		.align	2
 100              	.L8:
 101 0044 00000000 		.word	__stack_chk_guard
 102 0048 00000000 		.word	ch
 103 004c 00000000 		.word	.LANCHOR0
 104              		.cfi_endproc
 105              	.LFE146:
 106              		.size	chSysUnlock, .-chSysUnlock
 107              		.section	.text.mbox1_setup,"ax",%progbits
 108              		.align	1
 109              		.p2align 4,,15
 110              		.syntax unified
 111              		.thumb
 112              		.thumb_func
 113              		.fpu fpv4-sp-d16
 114              		.type	mbox1_setup, %function
ARM GAS  C:\Users\mathi\AppData\Local\Temp\ccigTuKk.s 			page 3


 115              	mbox1_setup:
 116              	.LFB219:
 117              		.file 3 "../../lib/e-puck2_main-processor/ChibiOS//test/rt/testmbox.c"
 118              		.loc 3 71 0
 119              		.cfi_startproc
 120              		@ args = 0, pretend = 0, frame = 8
 121              		@ frame_needed = 0, uses_anonymous_args = 0
 122 0000 00B5     		push	{lr}
 123              		.cfi_def_cfa_offset 4
 124              		.cfi_offset 14, -4
 125 0002 094B     		ldr	r3, .L15
 126 0004 83B0     		sub	sp, sp, #12
 127              		.cfi_def_cfa_offset 16
 128              		.loc 3 71 0
 129 0006 1A68     		ldr	r2, [r3]
 130 0008 0192     		str	r2, [sp, #4]
 131              		.loc 3 73 0
 132 000a 019A     		ldr	r2, [sp, #4]
 133 000c 1B68     		ldr	r3, [r3]
 134 000e 9A42     		cmp	r2, r3
 135 0010 07D1     		bne	.L14
 136 0012 0649     		ldr	r1, .L15+4
 137 0014 0648     		ldr	r0, .L15+8
 138 0016 0522     		movs	r2, #5
 139              		.loc 3 74 0
 140 0018 03B0     		add	sp, sp, #12
 141              		.cfi_remember_state
 142              		.cfi_def_cfa_offset 4
 143              		@ sp needed
 144 001a 5DF804EB 		ldr	lr, [sp], #4
 145              		.cfi_restore 14
 146              		.cfi_def_cfa_offset 0
 147              		.loc 3 73 0
 148 001e FFF7FEBF 		b	chMBObjectInit
 149              	.LVL6:
 150              	.L14:
 151              		.cfi_restore_state
 152 0022 FFF7FEFF 		bl	__stack_chk_fail
 153              	.LVL7:
 154              	.L16:
 155 0026 00BF     		.align	2
 156              	.L15:
 157 0028 00000000 		.word	__stack_chk_guard
 158 002c 00000000 		.word	test
 159 0030 00000000 		.word	.LANCHOR1
 160              		.cfi_endproc
 161              	.LFE219:
 162              		.size	mbox1_setup, .-mbox1_setup
 163              		.section	.text.mbox1_execute,"ax",%progbits
 164              		.align	1
 165              		.p2align 4,,15
 166              		.syntax unified
 167              		.thumb
 168              		.thumb_func
 169              		.fpu fpv4-sp-d16
 170              		.type	mbox1_execute, %function
 171              	mbox1_execute:
ARM GAS  C:\Users\mathi\AppData\Local\Temp\ccigTuKk.s 			page 4


 172              	.LFB220:
 173              		.loc 3 76 0
 174              		.cfi_startproc
 175              		@ args = 0, pretend = 0, frame = 8
 176              		@ frame_needed = 0, uses_anonymous_args = 0
 177 0000 2DE9F043 		push	{r4, r5, r6, r7, r8, r9, lr}
 178              		.cfi_def_cfa_offset 28
 179              		.cfi_offset 4, -28
 180              		.cfi_offset 5, -24
 181              		.cfi_offset 6, -20
 182              		.cfi_offset 7, -16
 183              		.cfi_offset 8, -12
 184              		.cfi_offset 9, -8
 185              		.cfi_offset 14, -4
 186 0004 194D     		ldr	r5, .L42
 187 0006 83B0     		sub	sp, sp, #12
 188              		.cfi_def_cfa_offset 40
 189              		.loc 3 76 0
 190 0008 2B68     		ldr	r3, [r5]
 191 000a 0193     		str	r3, [sp, #4]
 192              	.LVL8:
 193              	.LBB352:
 194              	.LBB353:
 195              	.LBB354:
 196              	.LBB355:
 197              	.LBB356:
 198              		.loc 2 546 0
 199 000c 2023     		movs	r3, #32
 200              		.syntax unified
 201              	@ 546 "../../lib/e-puck2_main-processor/ChibiOS//os/ext/CMSIS/include/core_cmFunc.h" 1
 202 000e 83F31188 		MSR basepri, r3
 203              	@ 0 "" 2
 204              	.LVL9:
 205              		.thumb
 206              		.syntax unified
 207              	.LBE356:
 208              	.LBE355:
 209              	.LBE354:
 210              	.LBE353:
 211              	.LBE352:
 212              	.LBB358:
 213              	.LBB359:
 214              	.LBB360:
 215              	.LBB361:
 216              		.file 4 "../../lib/e-puck2_main-processor/ChibiOS//os/rt/include/chsem.h"
 217              		.loc 4 153 0
 218 0012 174E     		ldr	r6, .L42+4
 219              	.LBE361:
 220              	.LBE360:
 221              	.LBE359:
 222              	.LBE358:
 223              	.LBB365:
 224              	.LBB357:
 225              		.loc 1 349 0
 226 0014 FFF7FEFF 		bl	_stats_start_measure_crit_thd
 227              	.LVL10:
 228              		.loc 1 350 0
ARM GAS  C:\Users\mathi\AppData\Local\Temp\ccigTuKk.s 			page 5


 229 0018 FFF7FEFF 		bl	_dbg_check_lock
 230              	.LVL11:
 231              	.LBE357:
 232              	.LBE365:
 233              	.LBB366:
 234              	.LBB364:
 235              		.file 5 "../../lib/e-puck2_main-processor/ChibiOS//os/rt/include/chmboxes.h"
 236              		.loc 5 160 0
 237 001c FFF7FEFF 		bl	chDbgCheckClassI
 238              	.LVL12:
 239              	.LBB363:
 240              	.LBB362:
 241              		.loc 4 151 0
 242 0020 FFF7FEFF 		bl	chDbgCheckClassI
 243              	.LVL13:
 244              	.LBE362:
 245              	.LBE363:
 246              	.LBE364:
 247              	.LBE366:
 248              		.loc 3 83 0
 249 0024 716A     		ldr	r1, [r6, #36]
 250 0026 A1F10501 		sub	r1, #5
 251 002a B1FA81F1 		clz	r1, r1
 252 002e 0120     		movs	r0, #1
 253 0030 4909     		lsrs	r1, r1, #5
 254 0032 FFF7FEFF 		bl	_test_assert
 255              	.LVL14:
 256 0036 F8B1     		cbz	r0, .L18
 257              	.LBB367:
 258              	.LBB368:
 259              		.loc 1 360 0
 260 0038 FFF7FEFF 		bl	_dbg_check_unlock
 261              	.LVL15:
 262              		.loc 1 361 0
 263 003c FFF7FEFF 		bl	_stats_stop_measure_crit_thd
 264              	.LVL16:
 265              		.loc 1 367 0
 266 0040 0C4B     		ldr	r3, .L42+8
 267 0042 1A68     		ldr	r2, [r3]
 268 0044 9A42     		cmp	r2, r3
 269 0046 05D0     		beq	.L19
 270 0048 9969     		ldr	r1, [r3, #24]
 271 004a 9368     		ldr	r3, [r2, #8]
 272 004c 8A68     		ldr	r2, [r1, #8]
 273 004e 9A42     		cmp	r2, r3
 274 0050 C0F08383 		bcc	.L39
 275              	.L19:
 276              	.LVL17:
 277              	.LBB369:
 278              	.LBB370:
 279              	.LBB371:
 280              		.loc 2 546 0
 281 0054 0023     		movs	r3, #0
 282              		.syntax unified
 283              	@ 546 "../../lib/e-puck2_main-processor/ChibiOS//os/ext/CMSIS/include/core_cmFunc.h" 1
 284 0056 83F31188 		MSR basepri, r3
 285              	@ 0 "" 2
ARM GAS  C:\Users\mathi\AppData\Local\Temp\ccigTuKk.s 			page 6


 286              	.LVL18:
 287              		.thumb
 288              		.syntax unified
 289              	.L17:
 290              	.LBE371:
 291              	.LBE370:
 292              	.LBE369:
 293              	.LBE368:
 294              	.LBE367:
 295              		.loc 3 220 0
 296 005a 019A     		ldr	r2, [sp, #4]
 297 005c 2B68     		ldr	r3, [r5]
 298 005e 9A42     		cmp	r2, r3
 299 0060 40F08383 		bne	.L40
 300 0064 03B0     		add	sp, sp, #12
 301              		.cfi_remember_state
 302              		.cfi_def_cfa_offset 28
 303              		@ sp needed
 304 0066 BDE8F083 		pop	{r4, r5, r6, r7, r8, r9, pc}
 305              	.L43:
 306 006a 00BF     		.align	2
 307              	.L42:
 308 006c 00000000 		.word	__stack_chk_guard
 309 0070 00000000 		.word	.LANCHOR1
 310 0074 00000000 		.word	ch
 311              	.LVL19:
 312              	.L18:
 313              		.cfi_restore_state
 314              	.LBB373:
 315              	.LBB374:
 316              		.loc 1 367 0
 317 0078 DFF8A083 		ldr	r8, .L44+12
 318              		.loc 1 360 0
 319 007c FFF7FEFF 		bl	_dbg_check_unlock
 320              	.LVL20:
 321              		.loc 1 361 0
 322 0080 FFF7FEFF 		bl	_stats_stop_measure_crit_thd
 323              	.LVL21:
 324              		.loc 1 367 0
 325 0084 D8F80030 		ldr	r3, [r8]
 326 0088 4345     		cmp	r3, r8
 327 008a 06D0     		beq	.L21
 328 008c D8F81820 		ldr	r2, [r8, #24]
 329 0090 9B68     		ldr	r3, [r3, #8]
 330 0092 9268     		ldr	r2, [r2, #8]
 331 0094 9A42     		cmp	r2, r3
 332 0096 C0F06483 		bcc	.L41
 333              	.L21:
 334              	.LVL22:
 335              	.LBB375:
 336              	.LBB376:
 337              	.LBB377:
 338              		.loc 2 546 0
 339 009a 0023     		movs	r3, #0
 340              		.syntax unified
 341              	@ 546 "../../lib/e-puck2_main-processor/ChibiOS//os/ext/CMSIS/include/core_cmFunc.h" 1
 342 009c 83F31188 		MSR basepri, r3
ARM GAS  C:\Users\mathi\AppData\Local\Temp\ccigTuKk.s 			page 7


 343              	@ 0 "" 2
 344              	.LVL23:
 345              		.thumb
 346              		.syntax unified
 347              	.LBE377:
 348              	.LBE376:
 349              	.LBE375:
 350              	.LBE374:
 351              	.LBE373:
 352              		.loc 3 89 0
 353 00a0 DB4F     		ldr	r7, .L44
 354              	.LBB383:
 355              	.LBB381:
 356              	.LBB380:
 357              	.LBB379:
 358              	.LBB378:
 359              		.loc 2 546 0
 360 00a2 4224     		movs	r4, #66
 361              	.LVL24:
 362              	.L23:
 363              	.LBE378:
 364              	.LBE379:
 365              	.LBE380:
 366              	.LBE381:
 367              	.LBE383:
 368              		.loc 3 89 0
 369 00a4 2146     		mov	r1, r4
 370 00a6 4FF0FF32 		mov	r2, #-1
 371 00aa 3846     		mov	r0, r7
 372 00ac FFF7FEFF 		bl	chMBPost
 373              	.LVL25:
 374              		.loc 3 90 0
 375 00b0 B0FA80F1 		clz	r1, r0
 376 00b4 4909     		lsrs	r1, r1, #5
 377 00b6 0220     		movs	r0, #2
 378              	.LVL26:
 379 00b8 FFF7FEFF 		bl	_test_assert
 380              	.LVL27:
 381 00bc 0028     		cmp	r0, #0
 382 00be CCD1     		bne	.L17
 383              	.LVL28:
 384 00c0 0134     		adds	r4, r4, #1
 385              	.LVL29:
 386              		.loc 3 88 0 discriminator 2
 387 00c2 462C     		cmp	r4, #70
 388 00c4 EED1     		bne	.L23
 389              		.loc 3 92 0
 390 00c6 4121     		movs	r1, #65
 391 00c8 4FF0FF32 		mov	r2, #-1
 392 00cc D048     		ldr	r0, .L44
 393 00ce FFF7FEFF 		bl	chMBPostAhead
 394              	.LVL30:
 395              		.loc 3 93 0
 396 00d2 B0FA80F1 		clz	r1, r0
 397 00d6 4909     		lsrs	r1, r1, #5
 398 00d8 0320     		movs	r0, #3
 399              	.LVL31:
ARM GAS  C:\Users\mathi\AppData\Local\Temp\ccigTuKk.s 			page 8


 400 00da FFF7FEFF 		bl	_test_assert
 401              	.LVL32:
 402 00de 0028     		cmp	r0, #0
 403 00e0 BBD1     		bne	.L17
 404              		.loc 3 98 0
 405 00e2 5821     		movs	r1, #88
 406 00e4 0122     		movs	r2, #1
 407 00e6 CA48     		ldr	r0, .L44
 408 00e8 FFF7FEFF 		bl	chMBPost
 409              	.LVL33:
 410              		.loc 3 99 0
 411 00ec A0F1FF31 		sub	r1, r0, #-1
 412 00f0 B1FA81F1 		clz	r1, r1
 413 00f4 4909     		lsrs	r1, r1, #5
 414 00f6 0420     		movs	r0, #4
 415              	.LVL34:
 416 00f8 FFF7FEFF 		bl	_test_assert
 417              	.LVL35:
 418 00fc 0028     		cmp	r0, #0
 419 00fe ACD1     		bne	.L17
 420              	.LVL36:
 421              	.LBB384:
 422              	.LBB385:
 423              	.LBB386:
 424              	.LBB387:
 425              	.LBB388:
 426              		.loc 2 546 0
 427 0100 2023     		movs	r3, #32
 428              		.syntax unified
 429              	@ 546 "../../lib/e-puck2_main-processor/ChibiOS//os/ext/CMSIS/include/core_cmFunc.h" 1
 430 0102 83F31188 		MSR basepri, r3
 431              	@ 0 "" 2
 432              	.LVL37:
 433              		.thumb
 434              		.syntax unified
 435              	.LBE388:
 436              	.LBE387:
 437              	.LBE386:
 438              		.loc 1 349 0
 439 0106 FFF7FEFF 		bl	_stats_start_measure_crit_thd
 440              	.LVL38:
 441              		.loc 1 350 0
 442 010a FFF7FEFF 		bl	_dbg_check_lock
 443              	.LVL39:
 444              	.LBE385:
 445              	.LBE384:
 446              		.loc 3 101 0
 447 010e 5821     		movs	r1, #88
 448 0110 BF48     		ldr	r0, .L44
 449 0112 FFF7FEFF 		bl	chMBPostI
 450              	.LVL40:
 451 0116 0446     		mov	r4, r0
 452              	.LVL41:
 453              	.LBB389:
 454              	.LBB390:
 455              		.loc 1 360 0
 456 0118 FFF7FEFF 		bl	_dbg_check_unlock
ARM GAS  C:\Users\mathi\AppData\Local\Temp\ccigTuKk.s 			page 9


 457              	.LVL42:
 458              		.loc 1 361 0
 459 011c FFF7FEFF 		bl	_stats_stop_measure_crit_thd
 460              	.LVL43:
 461              		.loc 1 367 0
 462 0120 D8F80030 		ldr	r3, [r8]
 463 0124 4345     		cmp	r3, r8
 464 0126 08D0     		beq	.L24
 465 0128 D8F81820 		ldr	r2, [r8, #24]
 466 012c 9B68     		ldr	r3, [r3, #8]
 467 012e 9268     		ldr	r2, [r2, #8]
 468 0130 9A42     		cmp	r2, r3
 469 0132 02D2     		bcs	.L24
 470 0134 B748     		ldr	r0, .L44+4
 471 0136 FFF7FEFF 		bl	chSysHalt
 472              	.LVL44:
 473              	.L24:
 474              	.LBB391:
 475              	.LBB392:
 476              	.LBB393:
 477              		.loc 2 546 0
 478 013a 0023     		movs	r3, #0
 479              		.syntax unified
 480              	@ 546 "../../lib/e-puck2_main-processor/ChibiOS//os/ext/CMSIS/include/core_cmFunc.h" 1
 481 013c 83F31188 		MSR basepri, r3
 482              	@ 0 "" 2
 483              	.LVL45:
 484              		.thumb
 485              		.syntax unified
 486              	.LBE393:
 487              	.LBE392:
 488              	.LBE391:
 489              	.LBE390:
 490              	.LBE389:
 491              		.loc 3 103 0
 492 0140 A4F1FF31 		sub	r1, r4, #-1
 493 0144 B1FA81F1 		clz	r1, r1
 494 0148 0520     		movs	r0, #5
 495 014a 4909     		lsrs	r1, r1, #5
 496 014c FFF7FEFF 		bl	_test_assert
 497              	.LVL46:
 498 0150 0028     		cmp	r0, #0
 499 0152 82D1     		bne	.L17
 500              		.loc 3 104 0
 501 0154 5821     		movs	r1, #88
 502 0156 0122     		movs	r2, #1
 503 0158 AD48     		ldr	r0, .L44
 504 015a FFF7FEFF 		bl	chMBPostAhead
 505              	.LVL47:
 506              		.loc 3 105 0
 507 015e A0F1FF31 		sub	r1, r0, #-1
 508 0162 B1FA81F1 		clz	r1, r1
 509 0166 4909     		lsrs	r1, r1, #5
 510 0168 0620     		movs	r0, #6
 511              	.LVL48:
 512 016a FFF7FEFF 		bl	_test_assert
 513              	.LVL49:
ARM GAS  C:\Users\mathi\AppData\Local\Temp\ccigTuKk.s 			page 10


 514 016e 0028     		cmp	r0, #0
 515 0170 7FF473AF 		bne	.L17
 516              	.LVL50:
 517              	.LBB394:
 518              	.LBB395:
 519              	.LBB396:
 520              	.LBB397:
 521              	.LBB398:
 522              		.loc 2 546 0
 523 0174 2023     		movs	r3, #32
 524              		.syntax unified
 525              	@ 546 "../../lib/e-puck2_main-processor/ChibiOS//os/ext/CMSIS/include/core_cmFunc.h" 1
 526 0176 83F31188 		MSR basepri, r3
 527              	@ 0 "" 2
 528              	.LVL51:
 529              		.thumb
 530              		.syntax unified
 531              	.LBE398:
 532              	.LBE397:
 533              	.LBE396:
 534              		.loc 1 349 0
 535 017a FFF7FEFF 		bl	_stats_start_measure_crit_thd
 536              	.LVL52:
 537              		.loc 1 350 0
 538 017e FFF7FEFF 		bl	_dbg_check_lock
 539              	.LVL53:
 540              	.LBE395:
 541              	.LBE394:
 542              		.loc 3 107 0
 543 0182 5821     		movs	r1, #88
 544 0184 A248     		ldr	r0, .L44
 545 0186 FFF7FEFF 		bl	chMBPostAheadI
 546              	.LVL54:
 547 018a 0446     		mov	r4, r0
 548              	.LVL55:
 549              	.LBB399:
 550              	.LBB400:
 551              		.loc 1 360 0
 552 018c FFF7FEFF 		bl	_dbg_check_unlock
 553              	.LVL56:
 554              		.loc 1 361 0
 555 0190 FFF7FEFF 		bl	_stats_stop_measure_crit_thd
 556              	.LVL57:
 557              		.loc 1 367 0
 558 0194 D8F80030 		ldr	r3, [r8]
 559 0198 4345     		cmp	r3, r8
 560 019a 08D0     		beq	.L25
 561 019c D8F81820 		ldr	r2, [r8, #24]
 562 01a0 9B68     		ldr	r3, [r3, #8]
 563 01a2 9268     		ldr	r2, [r2, #8]
 564 01a4 9A42     		cmp	r2, r3
 565 01a6 02D2     		bcs	.L25
 566 01a8 9A48     		ldr	r0, .L44+4
 567 01aa FFF7FEFF 		bl	chSysHalt
 568              	.LVL58:
 569              	.L25:
 570              	.LBB401:
ARM GAS  C:\Users\mathi\AppData\Local\Temp\ccigTuKk.s 			page 11


 571              	.LBB402:
 572              	.LBB403:
 573              		.loc 2 546 0
 574 01ae 0023     		movs	r3, #0
 575              		.syntax unified
 576              	@ 546 "../../lib/e-puck2_main-processor/ChibiOS//os/ext/CMSIS/include/core_cmFunc.h" 1
 577 01b0 83F31188 		MSR basepri, r3
 578              	@ 0 "" 2
 579              	.LVL59:
 580              		.thumb
 581              		.syntax unified
 582              	.LBE403:
 583              	.LBE402:
 584              	.LBE401:
 585              	.LBE400:
 586              	.LBE399:
 587              		.loc 3 109 0
 588 01b4 A4F1FF31 		sub	r1, r4, #-1
 589 01b8 B1FA81F1 		clz	r1, r1
 590 01bc 0720     		movs	r0, #7
 591 01be 4909     		lsrs	r1, r1, #5
 592 01c0 FFF7FEFF 		bl	_test_assert
 593              	.LVL60:
 594 01c4 0028     		cmp	r0, #0
 595 01c6 7FF448AF 		bne	.L17
 596              	.LVL61:
 597              	.LBB404:
 598              	.LBB405:
 599              	.LBB406:
 600              	.LBB407:
 601              	.LBB408:
 602              		.loc 2 546 0
 603 01ca 2024     		movs	r4, #32
 604              	.LVL62:
 605              		.syntax unified
 606              	@ 546 "../../lib/e-puck2_main-processor/ChibiOS//os/ext/CMSIS/include/core_cmFunc.h" 1
 607 01cc 84F31188 		MSR basepri, r4
 608              	@ 0 "" 2
 609              	.LVL63:
 610              		.thumb
 611              		.syntax unified
 612              	.LBE408:
 613              	.LBE407:
 614              	.LBE406:
 615              		.loc 1 349 0
 616 01d0 FFF7FEFF 		bl	_stats_start_measure_crit_thd
 617              	.LVL64:
 618              		.loc 1 350 0
 619 01d4 FFF7FEFF 		bl	_dbg_check_lock
 620              	.LVL65:
 621              	.LBE405:
 622              	.LBE404:
 623              	.LBB409:
 624              	.LBB410:
 625              		.loc 5 160 0
 626 01d8 FFF7FEFF 		bl	chDbgCheckClassI
 627              	.LVL66:
ARM GAS  C:\Users\mathi\AppData\Local\Temp\ccigTuKk.s 			page 12


 628              	.LBB411:
 629              	.LBB412:
 630              		.loc 4 151 0
 631 01dc FFF7FEFF 		bl	chDbgCheckClassI
 632              	.LVL67:
 633              	.LBE412:
 634              	.LBE411:
 635              	.LBE410:
 636              	.LBE409:
 637              		.loc 3 114 0
 638 01e0 716A     		ldr	r1, [r6, #36]
 639 01e2 B1FA81F1 		clz	r1, r1
 640 01e6 4909     		lsrs	r1, r1, #5
 641 01e8 0820     		movs	r0, #8
 642 01ea FFF7FEFF 		bl	_test_assert
 643              	.LVL68:
 644 01ee 0028     		cmp	r0, #0
 645 01f0 40F0B082 		bne	.L38
 646              		.loc 3 114 0 is_stmt 0 discriminator 2
 647 01f4 FFF7FEFF 		bl	chSysUnlock
 648              	.LVL69:
 649              	.LBB413:
 650              	.LBB414:
 651              	.LBB415:
 652              	.LBB416:
 653              	.LBB417:
 654              		.loc 2 546 0 is_stmt 1 discriminator 2
 655              		.syntax unified
 656              	@ 546 "../../lib/e-puck2_main-processor/ChibiOS//os/ext/CMSIS/include/core_cmFunc.h" 1
 657 01f8 84F31188 		MSR basepri, r4
 658              	@ 0 "" 2
 659              	.LVL70:
 660              		.thumb
 661              		.syntax unified
 662              	.LBE417:
 663              	.LBE416:
 664              	.LBE415:
 665              		.loc 1 349 0 discriminator 2
 666 01fc FFF7FEFF 		bl	_stats_start_measure_crit_thd
 667              	.LVL71:
 668              		.loc 1 350 0 discriminator 2
 669 0200 FFF7FEFF 		bl	_dbg_check_lock
 670              	.LVL72:
 671              	.LBE414:
 672              	.LBE413:
 673              	.LBB418:
 674              	.LBB419:
 675              		.loc 5 179 0 discriminator 2
 676 0204 FFF7FEFF 		bl	chDbgCheckClassI
 677              	.LVL73:
 678              	.LBB420:
 679              	.LBB421:
 680              		.loc 4 151 0 discriminator 2
 681 0208 FFF7FEFF 		bl	chDbgCheckClassI
 682              	.LVL74:
 683              	.LBE421:
 684              	.LBE420:
ARM GAS  C:\Users\mathi\AppData\Local\Temp\ccigTuKk.s 			page 13


 685              	.LBE419:
 686              	.LBE418:
 687              		.loc 3 115 0 discriminator 2
 688 020c B169     		ldr	r1, [r6, #24]
 689 020e 4A1F     		subs	r2, r1, #5
 690 0210 5142     		rsbs	r1, r2, #0
 691 0212 5141     		adcs	r1, r1, r2
 692 0214 0920     		movs	r0, #9
 693 0216 FFF7FEFF 		bl	_test_assert
 694              	.LVL75:
 695 021a 0028     		cmp	r0, #0
 696 021c 40F09A82 		bne	.L38
 697 0220 FFF7FEFF 		bl	chSysUnlock
 698              	.LVL76:
 699              	.LBB422:
 700              	.LBB423:
 701              	.LBB424:
 702              	.LBB425:
 703              	.LBB426:
 704              		.loc 2 546 0 discriminator 2
 705              		.syntax unified
 706              	@ 546 "../../lib/e-puck2_main-processor/ChibiOS//os/ext/CMSIS/include/core_cmFunc.h" 1
 707 0224 84F31188 		MSR basepri, r4
 708              	@ 0 "" 2
 709              	.LVL77:
 710              		.thumb
 711              		.syntax unified
 712              	.LBE426:
 713              	.LBE425:
 714              	.LBE424:
 715              		.loc 1 349 0 discriminator 2
 716 0228 FFF7FEFF 		bl	_stats_start_measure_crit_thd
 717              	.LVL78:
 718              		.loc 1 350 0 discriminator 2
 719 022c FFF7FEFF 		bl	_dbg_check_lock
 720              	.LVL79:
 721              	.LBE423:
 722              	.LBE422:
 723              		.loc 3 116 0 discriminator 2
 724 0230 D6E90231 		ldrd	r3, r1, [r6, #8]
 725 0234 CB1A     		subs	r3, r1, r3
 726 0236 5942     		rsbs	r1, r3, #0
 727 0238 5941     		adcs	r1, r1, r3
 728 023a 0A20     		movs	r0, #10
 729 023c FFF7FEFF 		bl	_test_assert
 730              	.LVL80:
 731 0240 0028     		cmp	r0, #0
 732 0242 40F08782 		bne	.L38
 733 0246 FFF7FEFF 		bl	chSysUnlock
 734              	.LVL81:
 735              		.loc 3 122 0 discriminator 2
 736 024a 714F     		ldr	r7, .L44
 737              		.loc 3 116 0 discriminator 2
 738 024c 0524     		movs	r4, #5
 739              	.LVL82:
 740              	.L28:
 741              		.loc 3 122 0
ARM GAS  C:\Users\mathi\AppData\Local\Temp\ccigTuKk.s 			page 14


 742 024e 6946     		mov	r1, sp
 743 0250 4FF0FF32 		mov	r2, #-1
 744 0254 3846     		mov	r0, r7
 745 0256 FFF7FEFF 		bl	chMBFetch
 746              	.LVL83:
 747              		.loc 3 123 0
 748 025a B0FA80F1 		clz	r1, r0
 749 025e 4909     		lsrs	r1, r1, #5
 750 0260 0B20     		movs	r0, #11
 751              	.LVL84:
 752 0262 FFF7FEFF 		bl	_test_assert
 753              	.LVL85:
 754 0266 0028     		cmp	r0, #0
 755 0268 7FF4F7AE 		bne	.L17
 756              		.loc 3 124 0 discriminator 2
 757 026c 9DF80000 		ldrb	r0, [sp]	@ zero_extendqisi2
 758 0270 FFF7FEFF 		bl	test_emit_token
 759              	.LVL86:
 760              		.loc 3 121 0 discriminator 2
 761 0274 013C     		subs	r4, r4, #1
 762 0276 EAD1     		bne	.L28
 763              		.loc 3 126 0
 764 0278 6749     		ldr	r1, .L44+8
 765 027a 0C20     		movs	r0, #12
 766 027c FFF7FEFF 		bl	_test_assert_sequence
 767              	.LVL87:
 768 0280 0028     		cmp	r0, #0
 769 0282 7FF4EAAE 		bne	.L17
 770              		.loc 3 131 0
 771 0286 4721     		movs	r1, #71
 772 0288 4FF0FF32 		mov	r2, #-1
 773 028c 6048     		ldr	r0, .L44
 774 028e FFF7FEFF 		bl	chMBPost
 775              	.LVL88:
 776              		.loc 3 132 0
 777 0292 B0FA80F1 		clz	r1, r0
 778 0296 4909     		lsrs	r1, r1, #5
 779 0298 0D20     		movs	r0, #13
 780              	.LVL89:
 781 029a FFF7FEFF 		bl	_test_assert
 782              	.LVL90:
 783 029e 0028     		cmp	r0, #0
 784 02a0 7FF4DBAE 		bne	.L17
 785              		.loc 3 133 0
 786 02a4 6946     		mov	r1, sp
 787 02a6 4FF0FF32 		mov	r2, #-1
 788 02aa 5948     		ldr	r0, .L44
 789 02ac FFF7FEFF 		bl	chMBFetch
 790              	.LVL91:
 791              		.loc 3 134 0
 792 02b0 B0FA80F1 		clz	r1, r0
 793 02b4 4909     		lsrs	r1, r1, #5
 794 02b6 0E20     		movs	r0, #14
 795              	.LVL92:
 796 02b8 FFF7FEFF 		bl	_test_assert
 797              	.LVL93:
 798 02bc 0028     		cmp	r0, #0
ARM GAS  C:\Users\mathi\AppData\Local\Temp\ccigTuKk.s 			page 15


 799 02be 7FF4CCAE 		bne	.L17
 800              		.loc 3 135 0
 801 02c2 3168     		ldr	r1, [r6]
 802 02c4 B368     		ldr	r3, [r6, #8]
 803 02c6 A1EB0309 		sub	r9, r1, r3
 804 02ca D9F10001 		rsbs	r1, r9, #0
 805 02ce 41EB0901 		adc	r1, r1, r9
 806 02d2 0F20     		movs	r0, #15
 807 02d4 FFF7FEFF 		bl	_test_assert
 808              	.LVL94:
 809 02d8 0028     		cmp	r0, #0
 810 02da 7FF4BEAE 		bne	.L17
 811              		.loc 3 136 0
 812 02de 3168     		ldr	r1, [r6]
 813 02e0 F368     		ldr	r3, [r6, #12]
 814 02e2 A1EB0308 		sub	r8, r1, r3
 815 02e6 D8F10001 		rsbs	r1, r8, #0
 816 02ea 41EB0801 		adc	r1, r1, r8
 817 02ee 1020     		movs	r0, #16
 818 02f0 FFF7FEFF 		bl	_test_assert
 819              	.LVL95:
 820 02f4 0028     		cmp	r0, #0
 821 02f6 7FF4B0AE 		bne	.L17
 822              		.loc 3 141 0
 823 02fa 6946     		mov	r1, sp
 824 02fc 0122     		movs	r2, #1
 825 02fe 4448     		ldr	r0, .L44
 826 0300 FFF7FEFF 		bl	chMBFetch
 827              	.LVL96:
 828              		.loc 3 142 0
 829 0304 00F1010E 		add	lr, r0, #1
 830 0308 DEF10001 		rsbs	r1, lr, #0
 831 030c 41EB0E01 		adc	r1, r1, lr
 832 0310 1120     		movs	r0, #17
 833              	.LVL97:
 834 0312 FFF7FEFF 		bl	_test_assert
 835              	.LVL98:
 836 0316 0028     		cmp	r0, #0
 837 0318 7FF49FAE 		bne	.L17
 838              	.LVL99:
 839              	.LBB427:
 840              	.LBB428:
 841              	.LBB429:
 842              	.LBB430:
 843              	.LBB431:
 844              		.loc 2 546 0
 845 031c 2024     		movs	r4, #32
 846              		.syntax unified
 847              	@ 546 "../../lib/e-puck2_main-processor/ChibiOS//os/ext/CMSIS/include/core_cmFunc.h" 1
 848 031e 84F31188 		MSR basepri, r4
 849              	@ 0 "" 2
 850              	.LVL100:
 851              		.thumb
 852              		.syntax unified
 853              	.LBE431:
 854              	.LBE430:
 855              	.LBE429:
ARM GAS  C:\Users\mathi\AppData\Local\Temp\ccigTuKk.s 			page 16


 856              		.loc 1 349 0
 857 0322 FFF7FEFF 		bl	_stats_start_measure_crit_thd
 858              	.LVL101:
 859              		.loc 1 350 0
 860 0326 FFF7FEFF 		bl	_dbg_check_lock
 861              	.LVL102:
 862              	.LBE428:
 863              	.LBE427:
 864              		.loc 3 144 0
 865 032a 6946     		mov	r1, sp
 866 032c 3848     		ldr	r0, .L44
 867 032e FFF7FEFF 		bl	chMBFetchI
 868              	.LVL103:
 869 0332 0746     		mov	r7, r0
 870              	.LVL104:
 871              		.loc 3 145 0
 872 0334 FFF7FEFF 		bl	chSysUnlock
 873              	.LVL105:
 874              		.loc 3 146 0
 875 0338 07F1010C 		add	ip, r7, #1
 876 033c DCF10001 		rsbs	r1, ip, #0
 877 0340 41EB0C01 		adc	r1, r1, ip
 878 0344 1220     		movs	r0, #18
 879 0346 FFF7FEFF 		bl	_test_assert
 880              	.LVL106:
 881 034a 0028     		cmp	r0, #0
 882 034c 7FF485AE 		bne	.L17
 883              	.LVL107:
 884              	.LBB432:
 885              	.LBB433:
 886              	.LBB434:
 887              	.LBB435:
 888              	.LBB436:
 889              		.loc 2 546 0
 890              		.syntax unified
 891              	@ 546 "../../lib/e-puck2_main-processor/ChibiOS//os/ext/CMSIS/include/core_cmFunc.h" 1
 892 0350 84F31188 		MSR basepri, r4
 893              	@ 0 "" 2
 894              	.LVL108:
 895              		.thumb
 896              		.syntax unified
 897              	.LBE436:
 898              	.LBE435:
 899              	.LBE434:
 900              		.loc 1 349 0
 901 0354 FFF7FEFF 		bl	_stats_start_measure_crit_thd
 902              	.LVL109:
 903              		.loc 1 350 0
 904 0358 FFF7FEFF 		bl	_dbg_check_lock
 905              	.LVL110:
 906              	.LBE433:
 907              	.LBE432:
 908              	.LBB437:
 909              	.LBB438:
 910              		.loc 5 160 0
 911 035c FFF7FEFF 		bl	chDbgCheckClassI
 912              	.LVL111:
ARM GAS  C:\Users\mathi\AppData\Local\Temp\ccigTuKk.s 			page 17


 913              	.LBB439:
 914              	.LBB440:
 915              		.loc 4 151 0
 916 0360 FFF7FEFF 		bl	chDbgCheckClassI
 917              	.LVL112:
 918              	.LBE440:
 919              	.LBE439:
 920              	.LBE438:
 921              	.LBE437:
 922              		.loc 3 151 0
 923 0364 716A     		ldr	r1, [r6, #36]
 924 0366 4F1F     		subs	r7, r1, #5
 925              	.LVL113:
 926 0368 7942     		rsbs	r1, r7, #0
 927 036a 7941     		adcs	r1, r1, r7
 928 036c 1320     		movs	r0, #19
 929 036e FFF7FEFF 		bl	_test_assert
 930              	.LVL114:
 931 0372 0028     		cmp	r0, #0
 932 0374 40F0EE81 		bne	.L38
 933              		.loc 3 151 0 is_stmt 0 discriminator 2
 934 0378 FFF7FEFF 		bl	chSysUnlock
 935              	.LVL115:
 936              	.LBB441:
 937              	.LBB442:
 938              	.LBB443:
 939              	.LBB444:
 940              	.LBB445:
 941              		.loc 2 546 0 is_stmt 1 discriminator 2
 942              		.syntax unified
 943              	@ 546 "../../lib/e-puck2_main-processor/ChibiOS//os/ext/CMSIS/include/core_cmFunc.h" 1
 944 037c 84F31188 		MSR basepri, r4
 945              	@ 0 "" 2
 946              	.LVL116:
 947              		.thumb
 948              		.syntax unified
 949              	.LBE445:
 950              	.LBE444:
 951              	.LBE443:
 952              		.loc 1 349 0 discriminator 2
 953 0380 FFF7FEFF 		bl	_stats_start_measure_crit_thd
 954              	.LVL117:
 955              		.loc 1 350 0 discriminator 2
 956 0384 FFF7FEFF 		bl	_dbg_check_lock
 957              	.LVL118:
 958              	.LBE442:
 959              	.LBE441:
 960              	.LBB446:
 961              	.LBB447:
 962              		.loc 5 179 0 discriminator 2
 963 0388 FFF7FEFF 		bl	chDbgCheckClassI
 964              	.LVL119:
 965              	.LBB448:
 966              	.LBB449:
 967              		.loc 4 151 0 discriminator 2
 968 038c FFF7FEFF 		bl	chDbgCheckClassI
 969              	.LVL120:
ARM GAS  C:\Users\mathi\AppData\Local\Temp\ccigTuKk.s 			page 18


 970              	.LBE449:
 971              	.LBE448:
 972              	.LBE447:
 973              	.LBE446:
 974              		.loc 3 152 0 discriminator 2
 975 0390 B169     		ldr	r1, [r6, #24]
 976 0392 B1FA81F1 		clz	r1, r1
 977 0396 4909     		lsrs	r1, r1, #5
 978 0398 1420     		movs	r0, #20
 979 039a FFF7FEFF 		bl	_test_assert
 980              	.LVL121:
 981 039e 0028     		cmp	r0, #0
 982 03a0 40F0D881 		bne	.L38
 983 03a4 FFF7FEFF 		bl	chSysUnlock
 984              	.LVL122:
 985              	.LBB450:
 986              	.LBB451:
 987              	.LBB452:
 988              	.LBB453:
 989              	.LBB454:
 990              		.loc 2 546 0 discriminator 2
 991              		.syntax unified
 992              	@ 546 "../../lib/e-puck2_main-processor/ChibiOS//os/ext/CMSIS/include/core_cmFunc.h" 1
 993 03a8 84F31188 		MSR basepri, r4
 994              	@ 0 "" 2
 995              	.LVL123:
 996              		.thumb
 997              		.syntax unified
 998              	.LBE454:
 999              	.LBE453:
 1000              	.LBE452:
 1001              		.loc 1 349 0 discriminator 2
 1002 03ac FFF7FEFF 		bl	_stats_start_measure_crit_thd
 1003              	.LVL124:
 1004              		.loc 1 350 0 discriminator 2
 1005 03b0 FFF7FEFF 		bl	_dbg_check_lock
 1006              	.LVL125:
 1007              	.LBE451:
 1008              	.LBE450:
 1009              		.loc 3 153 0 discriminator 2
 1010 03b4 D6E90231 		ldrd	r3, r1, [r6, #8]
 1011 03b8 C81A     		subs	r0, r1, r3
 1012 03ba 4142     		rsbs	r1, r0, #0
 1013 03bc 4141     		adcs	r1, r1, r0
 1014 03be 1520     		movs	r0, #21
 1015 03c0 FFF7FEFF 		bl	_test_assert
 1016              	.LVL126:
 1017 03c4 0028     		cmp	r0, #0
 1018 03c6 40F0C581 		bne	.L38
 1019 03ca FFF7FEFF 		bl	chSysUnlock
 1020              	.LVL127:
 1021              	.LBB455:
 1022              	.LBB456:
 1023              	.LBB457:
 1024              	.LBB458:
 1025              	.LBB459:
 1026              		.loc 2 546 0 discriminator 2
ARM GAS  C:\Users\mathi\AppData\Local\Temp\ccigTuKk.s 			page 19


 1027              		.syntax unified
 1028              	@ 546 "../../lib/e-puck2_main-processor/ChibiOS//os/ext/CMSIS/include/core_cmFunc.h" 1
 1029 03ce 84F31188 		MSR basepri, r4
 1030              	@ 0 "" 2
 1031              	.LVL128:
 1032              		.thumb
 1033              		.syntax unified
 1034              	.LBE459:
 1035              	.LBE458:
 1036              	.LBE457:
 1037              		.loc 1 349 0 discriminator 2
 1038 03d2 FFF7FEFF 		bl	_stats_start_measure_crit_thd
 1039              	.LVL129:
 1040              		.loc 1 350 0 discriminator 2
 1041 03d6 FFF7FEFF 		bl	_dbg_check_lock
 1042              	.LVL130:
 1043              	.LBE456:
 1044              	.LBE455:
 1045              		.loc 3 159 0 discriminator 2
 1046 03da 4121     		movs	r1, #65
 1047 03dc 0C48     		ldr	r0, .L44
 1048 03de FFF7FEFF 		bl	chMBPostI
 1049              	.LVL131:
 1050              		.loc 3 160 0 discriminator 2
 1051 03e2 B0FA80F1 		clz	r1, r0
 1052 03e6 4909     		lsrs	r1, r1, #5
 1053 03e8 1620     		movs	r0, #22
 1054              	.LVL132:
 1055 03ea FFF7FEFF 		bl	_test_assert
 1056              	.LVL133:
 1057 03ee 0028     		cmp	r0, #0
 1058 03f0 7FF433AE 		bne	.L17
 1059              		.loc 3 161 0
 1060 03f4 4221     		movs	r1, #66
 1061 03f6 0648     		ldr	r0, .L44
 1062 03f8 FFF7FEFF 		bl	chMBPostI
 1063              	.LVL134:
 1064              		.loc 3 162 0
 1065 03fc B0FA80F1 		clz	r1, r0
 1066 0400 4909     		lsrs	r1, r1, #5
 1067 0402 1720     		movs	r0, #23
 1068              	.LVL135:
 1069 0404 FFF7FEFF 		bl	_test_assert
 1070              	.LVL136:
 1071 0408 0028     		cmp	r0, #0
 1072 040a 7FF426AE 		bne	.L17
 1073 040e 07E0     		b	.L45
 1074              	.L46:
 1075              		.align	2
 1076              	.L44:
 1077 0410 00000000 		.word	.LANCHOR1
 1078 0414 00000000 		.word	.LANCHOR0
 1079 0418 00000000 		.word	.LC0
 1080 041c 00000000 		.word	ch
 1081              	.L45:
 1082              		.loc 3 163 0
 1083 0420 4321     		movs	r1, #67
ARM GAS  C:\Users\mathi\AppData\Local\Temp\ccigTuKk.s 			page 20


 1084 0422 D348     		ldr	r0, .L47
 1085 0424 FFF7FEFF 		bl	chMBPostI
 1086              	.LVL137:
 1087              		.loc 3 164 0
 1088 0428 B0FA80F1 		clz	r1, r0
 1089 042c 4909     		lsrs	r1, r1, #5
 1090 042e 1820     		movs	r0, #24
 1091              	.LVL138:
 1092 0430 FFF7FEFF 		bl	_test_assert
 1093              	.LVL139:
 1094 0434 0028     		cmp	r0, #0
 1095 0436 7FF410AE 		bne	.L17
 1096              		.loc 3 165 0
 1097 043a 4421     		movs	r1, #68
 1098 043c CC48     		ldr	r0, .L47
 1099 043e FFF7FEFF 		bl	chMBPostI
 1100              	.LVL140:
 1101              		.loc 3 166 0
 1102 0442 B0FA80F1 		clz	r1, r0
 1103 0446 4909     		lsrs	r1, r1, #5
 1104 0448 1920     		movs	r0, #25
 1105              	.LVL141:
 1106 044a FFF7FEFF 		bl	_test_assert
 1107              	.LVL142:
 1108 044e 0028     		cmp	r0, #0
 1109 0450 7FF403AE 		bne	.L17
 1110              		.loc 3 167 0
 1111 0454 4521     		movs	r1, #69
 1112 0456 C648     		ldr	r0, .L47
 1113 0458 FFF7FEFF 		bl	chMBPostI
 1114              	.LVL143:
 1115 045c 0746     		mov	r7, r0
 1116              	.LVL144:
 1117              		.loc 3 168 0
 1118 045e FFF7FEFF 		bl	chSysUnlock
 1119              	.LVL145:
 1120              		.loc 3 169 0
 1121 0462 B7FA87F1 		clz	r1, r7
 1122 0466 4909     		lsrs	r1, r1, #5
 1123 0468 1A20     		movs	r0, #26
 1124 046a FFF7FEFF 		bl	_test_assert
 1125              	.LVL146:
 1126 046e 0028     		cmp	r0, #0
 1127 0470 7FF4F3AD 		bne	.L17
 1128              		.loc 3 170 0
 1129 0474 D6E90231 		ldrd	r3, r1, [r6, #8]
 1130 0478 CA1A     		subs	r2, r1, r3
 1131 047a 5142     		rsbs	r1, r2, #0
 1132 047c 5141     		adcs	r1, r1, r2
 1133 047e 1B20     		movs	r0, #27
 1134 0480 FFF7FEFF 		bl	_test_assert
 1135              	.LVL147:
 1136 0484 0028     		cmp	r0, #0
 1137 0486 7FF4E8AD 		bne	.L17
 1138              		.loc 3 173 0
 1139 048a DFF8E482 		ldr	r8, .L47
 1140 048e 0527     		movs	r7, #5
ARM GAS  C:\Users\mathi\AppData\Local\Temp\ccigTuKk.s 			page 21


 1141              	.LVL148:
 1142              	.L29:
 1143              	.LBB460:
 1144              	.LBB461:
 1145              	.LBB462:
 1146              	.LBB463:
 1147              	.LBB464:
 1148              		.loc 2 546 0
 1149              		.syntax unified
 1150              	@ 546 "../../lib/e-puck2_main-processor/ChibiOS//os/ext/CMSIS/include/core_cmFunc.h" 1
 1151 0490 84F31188 		MSR basepri, r4
 1152              	@ 0 "" 2
 1153              	.LVL149:
 1154              		.thumb
 1155              		.syntax unified
 1156              	.LBE464:
 1157              	.LBE463:
 1158              	.LBE462:
 1159              		.loc 1 349 0
 1160 0494 FFF7FEFF 		bl	_stats_start_measure_crit_thd
 1161              	.LVL150:
 1162              		.loc 1 350 0
 1163 0498 FFF7FEFF 		bl	_dbg_check_lock
 1164              	.LVL151:
 1165              	.LBE461:
 1166              	.LBE460:
 1167              		.loc 3 173 0
 1168 049c 6946     		mov	r1, sp
 1169 049e 4046     		mov	r0, r8
 1170 04a0 FFF7FEFF 		bl	chMBFetchI
 1171              	.LVL152:
 1172 04a4 8146     		mov	r9, r0
 1173              	.LVL153:
 1174              		.loc 3 174 0
 1175 04a6 FFF7FEFF 		bl	chSysUnlock
 1176              	.LVL154:
 1177              		.loc 3 175 0
 1178 04aa B9FA89F1 		clz	r1, r9
 1179 04ae 4909     		lsrs	r1, r1, #5
 1180 04b0 1C20     		movs	r0, #28
 1181 04b2 FFF7FEFF 		bl	_test_assert
 1182              	.LVL155:
 1183 04b6 0028     		cmp	r0, #0
 1184 04b8 7FF4CFAD 		bne	.L17
 1185              		.loc 3 176 0 discriminator 2
 1186 04bc 9DF80000 		ldrb	r0, [sp]	@ zero_extendqisi2
 1187 04c0 FFF7FEFF 		bl	test_emit_token
 1188              	.LVL156:
 1189              		.loc 3 171 0 discriminator 2
 1190 04c4 013F     		subs	r7, r7, #1
 1191 04c6 E3D1     		bne	.L29
 1192              		.loc 3 178 0
 1193 04c8 AA49     		ldr	r1, .L47+4
 1194 04ca 1D20     		movs	r0, #29
 1195 04cc FFF7FEFF 		bl	_test_assert_sequence
 1196              	.LVL157:
 1197 04d0 0028     		cmp	r0, #0
ARM GAS  C:\Users\mathi\AppData\Local\Temp\ccigTuKk.s 			page 22


 1198 04d2 7FF4C2AD 		bne	.L17
 1199              	.LVL158:
 1200              	.LBB465:
 1201              	.LBB466:
 1202              	.LBB467:
 1203              	.LBB468:
 1204              	.LBB469:
 1205              		.loc 2 546 0
 1206              		.syntax unified
 1207              	@ 546 "../../lib/e-puck2_main-processor/ChibiOS//os/ext/CMSIS/include/core_cmFunc.h" 1
 1208 04d6 84F31188 		MSR basepri, r4
 1209              	@ 0 "" 2
 1210              	.LVL159:
 1211              		.thumb
 1212              		.syntax unified
 1213              	.LBE469:
 1214              	.LBE468:
 1215              	.LBE467:
 1216              		.loc 1 349 0
 1217 04da FFF7FEFF 		bl	_stats_start_measure_crit_thd
 1218              	.LVL160:
 1219              		.loc 1 350 0
 1220 04de FFF7FEFF 		bl	_dbg_check_lock
 1221              	.LVL161:
 1222              	.LBE466:
 1223              	.LBE465:
 1224              	.LBB470:
 1225              	.LBB471:
 1226              		.loc 5 160 0
 1227 04e2 FFF7FEFF 		bl	chDbgCheckClassI
 1228              	.LVL162:
 1229              	.LBB472:
 1230              	.LBB473:
 1231              		.loc 4 151 0
 1232 04e6 FFF7FEFF 		bl	chDbgCheckClassI
 1233              	.LVL163:
 1234              	.LBE473:
 1235              	.LBE472:
 1236              	.LBE471:
 1237              	.LBE470:
 1238              		.loc 3 179 0
 1239 04ea 716A     		ldr	r1, [r6, #36]
 1240 04ec 4B1F     		subs	r3, r1, #5
 1241 04ee 5942     		rsbs	r1, r3, #0
 1242 04f0 5941     		adcs	r1, r1, r3
 1243 04f2 1E20     		movs	r0, #30
 1244 04f4 FFF7FEFF 		bl	_test_assert
 1245              	.LVL164:
 1246 04f8 0028     		cmp	r0, #0
 1247 04fa 40F02B81 		bne	.L38
 1248              		.loc 3 179 0 is_stmt 0 discriminator 2
 1249 04fe FFF7FEFF 		bl	chSysUnlock
 1250              	.LVL165:
 1251              	.LBB474:
 1252              	.LBB475:
 1253              	.LBB476:
 1254              	.LBB477:
ARM GAS  C:\Users\mathi\AppData\Local\Temp\ccigTuKk.s 			page 23


 1255              	.LBB478:
 1256              		.loc 2 546 0 is_stmt 1 discriminator 2
 1257              		.syntax unified
 1258              	@ 546 "../../lib/e-puck2_main-processor/ChibiOS//os/ext/CMSIS/include/core_cmFunc.h" 1
 1259 0502 84F31188 		MSR basepri, r4
 1260              	@ 0 "" 2
 1261              	.LVL166:
 1262              		.thumb
 1263              		.syntax unified
 1264              	.LBE478:
 1265              	.LBE477:
 1266              	.LBE476:
 1267              		.loc 1 349 0 discriminator 2
 1268 0506 FFF7FEFF 		bl	_stats_start_measure_crit_thd
 1269              	.LVL167:
 1270              		.loc 1 350 0 discriminator 2
 1271 050a FFF7FEFF 		bl	_dbg_check_lock
 1272              	.LVL168:
 1273              	.LBE475:
 1274              	.LBE474:
 1275              	.LBB479:
 1276              	.LBB480:
 1277              		.loc 5 179 0 discriminator 2
 1278 050e FFF7FEFF 		bl	chDbgCheckClassI
 1279              	.LVL169:
 1280              	.LBB481:
 1281              	.LBB482:
 1282              		.loc 4 151 0 discriminator 2
 1283 0512 FFF7FEFF 		bl	chDbgCheckClassI
 1284              	.LVL170:
 1285              	.LBE482:
 1286              	.LBE481:
 1287              	.LBE480:
 1288              	.LBE479:
 1289              		.loc 3 180 0 discriminator 2
 1290 0516 B169     		ldr	r1, [r6, #24]
 1291 0518 B1FA81F1 		clz	r1, r1
 1292 051c 4909     		lsrs	r1, r1, #5
 1293 051e 1F20     		movs	r0, #31
 1294 0520 FFF7FEFF 		bl	_test_assert
 1295              	.LVL171:
 1296 0524 0028     		cmp	r0, #0
 1297 0526 40F01581 		bne	.L38
 1298 052a FFF7FEFF 		bl	chSysUnlock
 1299              	.LVL172:
 1300              		.loc 3 181 0 discriminator 2
 1301 052e D6E90231 		ldrd	r3, r1, [r6, #8]
 1302 0532 A1EB0309 		sub	r9, r1, r3
 1303              	.LVL173:
 1304 0536 D9F10001 		rsbs	r1, r9, #0
 1305 053a 41EB0901 		adc	r1, r1, r9
 1306 053e 2020     		movs	r0, #32
 1307 0540 FFF7FEFF 		bl	_test_assert
 1308              	.LVL174:
 1309 0544 0028     		cmp	r0, #0
 1310 0546 7FF488AD 		bne	.L17
 1311              	.LVL175:
ARM GAS  C:\Users\mathi\AppData\Local\Temp\ccigTuKk.s 			page 24


 1312              	.LBB483:
 1313              	.LBB484:
 1314              	.LBB485:
 1315              	.LBB486:
 1316              	.LBB487:
 1317              		.loc 2 546 0
 1318              		.syntax unified
 1319              	@ 546 "../../lib/e-puck2_main-processor/ChibiOS//os/ext/CMSIS/include/core_cmFunc.h" 1
 1320 054a 84F31188 		MSR basepri, r4
 1321              	@ 0 "" 2
 1322              	.LVL176:
 1323              		.thumb
 1324              		.syntax unified
 1325              	.LBE487:
 1326              	.LBE486:
 1327              	.LBE485:
 1328              		.loc 1 349 0
 1329 054e FFF7FEFF 		bl	_stats_start_measure_crit_thd
 1330              	.LVL177:
 1331              		.loc 1 350 0
 1332 0552 FFF7FEFF 		bl	_dbg_check_lock
 1333              	.LVL178:
 1334              	.LBE484:
 1335              	.LBE483:
 1336              		.loc 3 184 0
 1337 0556 4521     		movs	r1, #69
 1338 0558 8548     		ldr	r0, .L47
 1339 055a FFF7FEFF 		bl	chMBPostAheadI
 1340              	.LVL179:
 1341              		.loc 3 185 0
 1342 055e B0FA80F1 		clz	r1, r0
 1343 0562 4909     		lsrs	r1, r1, #5
 1344 0564 2120     		movs	r0, #33
 1345              	.LVL180:
 1346 0566 FFF7FEFF 		bl	_test_assert
 1347              	.LVL181:
 1348 056a 0028     		cmp	r0, #0
 1349 056c 7FF475AD 		bne	.L17
 1350              		.loc 3 186 0
 1351 0570 4421     		movs	r1, #68
 1352 0572 7F48     		ldr	r0, .L47
 1353 0574 FFF7FEFF 		bl	chMBPostAheadI
 1354              	.LVL182:
 1355              		.loc 3 187 0
 1356 0578 B0FA80F1 		clz	r1, r0
 1357 057c 4909     		lsrs	r1, r1, #5
 1358 057e 2220     		movs	r0, #34
 1359              	.LVL183:
 1360 0580 FFF7FEFF 		bl	_test_assert
 1361              	.LVL184:
 1362 0584 0028     		cmp	r0, #0
 1363 0586 7FF468AD 		bne	.L17
 1364              		.loc 3 188 0
 1365 058a 4321     		movs	r1, #67
 1366 058c 7848     		ldr	r0, .L47
 1367 058e FFF7FEFF 		bl	chMBPostAheadI
 1368              	.LVL185:
ARM GAS  C:\Users\mathi\AppData\Local\Temp\ccigTuKk.s 			page 25


 1369              		.loc 3 189 0
 1370 0592 B0FA80F1 		clz	r1, r0
 1371 0596 4909     		lsrs	r1, r1, #5
 1372 0598 2320     		movs	r0, #35
 1373              	.LVL186:
 1374 059a FFF7FEFF 		bl	_test_assert
 1375              	.LVL187:
 1376 059e 0028     		cmp	r0, #0
 1377 05a0 7FF45BAD 		bne	.L17
 1378              		.loc 3 190 0
 1379 05a4 4221     		movs	r1, #66
 1380 05a6 7248     		ldr	r0, .L47
 1381 05a8 FFF7FEFF 		bl	chMBPostAheadI
 1382              	.LVL188:
 1383              		.loc 3 191 0
 1384 05ac B0FA80F1 		clz	r1, r0
 1385 05b0 4909     		lsrs	r1, r1, #5
 1386 05b2 2420     		movs	r0, #36
 1387              	.LVL189:
 1388 05b4 FFF7FEFF 		bl	_test_assert
 1389              	.LVL190:
 1390 05b8 0028     		cmp	r0, #0
 1391 05ba 7FF44EAD 		bne	.L17
 1392              		.loc 3 192 0
 1393 05be 4121     		movs	r1, #65
 1394 05c0 6B48     		ldr	r0, .L47
 1395 05c2 FFF7FEFF 		bl	chMBPostAheadI
 1396              	.LVL191:
 1397 05c6 0446     		mov	r4, r0
 1398              	.LVL192:
 1399              		.loc 3 193 0
 1400 05c8 FFF7FEFF 		bl	chSysUnlock
 1401              	.LVL193:
 1402              		.loc 3 194 0
 1403 05cc B4FA84F1 		clz	r1, r4
 1404 05d0 4909     		lsrs	r1, r1, #5
 1405 05d2 2520     		movs	r0, #37
 1406 05d4 FFF7FEFF 		bl	_test_assert
 1407              	.LVL194:
 1408 05d8 0028     		cmp	r0, #0
 1409 05da 7FF43EAD 		bne	.L17
 1410              		.loc 3 195 0
 1411 05de D6E90231 		ldrd	r3, r1, [r6, #8]
 1412 05e2 A1EB0308 		sub	r8, r1, r3
 1413 05e6 D8F10001 		rsbs	r1, r8, #0
 1414 05ea 41EB0801 		adc	r1, r1, r8
 1415 05ee 2620     		movs	r0, #38
 1416 05f0 FFF7FEFF 		bl	_test_assert
 1417              	.LVL195:
 1418 05f4 0028     		cmp	r0, #0
 1419 05f6 7FF430AD 		bne	.L17
 1420              		.loc 3 198 0
 1421 05fa DFF87481 		ldr	r8, .L47
 1422 05fe 0527     		movs	r7, #5
 1423              	.LBB488:
 1424              	.LBB489:
 1425              	.LBB490:
ARM GAS  C:\Users\mathi\AppData\Local\Temp\ccigTuKk.s 			page 26


 1426              	.LBB491:
 1427              	.LBB492:
 1428              		.loc 2 546 0
 1429 0600 2024     		movs	r4, #32
 1430              	.LVL196:
 1431              	.L30:
 1432              		.syntax unified
 1433              	@ 546 "../../lib/e-puck2_main-processor/ChibiOS//os/ext/CMSIS/include/core_cmFunc.h" 1
 1434 0602 84F31188 		MSR basepri, r4
 1435              	@ 0 "" 2
 1436              	.LVL197:
 1437              		.thumb
 1438              		.syntax unified
 1439              	.LBE492:
 1440              	.LBE491:
 1441              	.LBE490:
 1442              		.loc 1 349 0
 1443 0606 FFF7FEFF 		bl	_stats_start_measure_crit_thd
 1444              	.LVL198:
 1445              		.loc 1 350 0
 1446 060a FFF7FEFF 		bl	_dbg_check_lock
 1447              	.LVL199:
 1448              	.LBE489:
 1449              	.LBE488:
 1450              		.loc 3 198 0
 1451 060e 6946     		mov	r1, sp
 1452 0610 4046     		mov	r0, r8
 1453 0612 FFF7FEFF 		bl	chMBFetchI
 1454              	.LVL200:
 1455 0616 8146     		mov	r9, r0
 1456              	.LVL201:
 1457              		.loc 3 199 0
 1458 0618 FFF7FEFF 		bl	chSysUnlock
 1459              	.LVL202:
 1460              		.loc 3 200 0
 1461 061c B9FA89F1 		clz	r1, r9
 1462 0620 4909     		lsrs	r1, r1, #5
 1463 0622 2720     		movs	r0, #39
 1464 0624 FFF7FEFF 		bl	_test_assert
 1465              	.LVL203:
 1466 0628 0028     		cmp	r0, #0
 1467 062a 7FF416AD 		bne	.L17
 1468              		.loc 3 201 0 discriminator 2
 1469 062e 9DF80000 		ldrb	r0, [sp]	@ zero_extendqisi2
 1470 0632 FFF7FEFF 		bl	test_emit_token
 1471              	.LVL204:
 1472              		.loc 3 196 0 discriminator 2
 1473 0636 013F     		subs	r7, r7, #1
 1474 0638 E3D1     		bne	.L30
 1475              		.loc 3 203 0
 1476 063a 4E49     		ldr	r1, .L47+4
 1477 063c 2820     		movs	r0, #40
 1478 063e FFF7FEFF 		bl	_test_assert_sequence
 1479              	.LVL205:
 1480 0642 0028     		cmp	r0, #0
 1481 0644 7FF409AD 		bne	.L17
 1482              	.LVL206:
ARM GAS  C:\Users\mathi\AppData\Local\Temp\ccigTuKk.s 			page 27


 1483              	.LBB493:
 1484              	.LBB494:
 1485              	.LBB495:
 1486              	.LBB496:
 1487              	.LBB497:
 1488              		.loc 2 546 0
 1489              		.syntax unified
 1490              	@ 546 "../../lib/e-puck2_main-processor/ChibiOS//os/ext/CMSIS/include/core_cmFunc.h" 1
 1491 0648 84F31188 		MSR basepri, r4
 1492              	@ 0 "" 2
 1493              	.LVL207:
 1494              		.thumb
 1495              		.syntax unified
 1496              	.LBE497:
 1497              	.LBE496:
 1498              	.LBE495:
 1499              		.loc 1 349 0
 1500 064c FFF7FEFF 		bl	_stats_start_measure_crit_thd
 1501              	.LVL208:
 1502              		.loc 1 350 0
 1503 0650 FFF7FEFF 		bl	_dbg_check_lock
 1504              	.LVL209:
 1505              	.LBE494:
 1506              	.LBE493:
 1507              	.LBB498:
 1508              	.LBB499:
 1509              		.loc 5 160 0
 1510 0654 FFF7FEFF 		bl	chDbgCheckClassI
 1511              	.LVL210:
 1512              	.LBB500:
 1513              	.LBB501:
 1514              		.loc 4 151 0
 1515 0658 FFF7FEFF 		bl	chDbgCheckClassI
 1516              	.LVL211:
 1517              	.LBE501:
 1518              	.LBE500:
 1519              	.LBE499:
 1520              	.LBE498:
 1521              		.loc 3 204 0
 1522 065c 716A     		ldr	r1, [r6, #36]
 1523 065e A1F1050E 		sub	lr, r1, #5
 1524 0662 DEF10001 		rsbs	r1, lr, #0
 1525 0666 41EB0E01 		adc	r1, r1, lr
 1526 066a 2920     		movs	r0, #41
 1527 066c FFF7FEFF 		bl	_test_assert
 1528              	.LVL212:
 1529 0670 0028     		cmp	r0, #0
 1530 0672 6FD1     		bne	.L38
 1531              		.loc 3 204 0 is_stmt 0 discriminator 2
 1532 0674 FFF7FEFF 		bl	chSysUnlock
 1533              	.LVL213:
 1534              	.LBB502:
 1535              	.LBB503:
 1536              	.LBB504:
 1537              	.LBB505:
 1538              	.LBB506:
 1539              		.loc 2 546 0 is_stmt 1 discriminator 2
ARM GAS  C:\Users\mathi\AppData\Local\Temp\ccigTuKk.s 			page 28


 1540              		.syntax unified
 1541              	@ 546 "../../lib/e-puck2_main-processor/ChibiOS//os/ext/CMSIS/include/core_cmFunc.h" 1
 1542 0678 84F31188 		MSR basepri, r4
 1543              	@ 0 "" 2
 1544              	.LVL214:
 1545              		.thumb
 1546              		.syntax unified
 1547              	.LBE506:
 1548              	.LBE505:
 1549              	.LBE504:
 1550              		.loc 1 349 0 discriminator 2
 1551 067c FFF7FEFF 		bl	_stats_start_measure_crit_thd
 1552              	.LVL215:
 1553              		.loc 1 350 0 discriminator 2
 1554 0680 FFF7FEFF 		bl	_dbg_check_lock
 1555              	.LVL216:
 1556              	.LBE503:
 1557              	.LBE502:
 1558              	.LBB507:
 1559              	.LBB508:
 1560              		.loc 5 179 0 discriminator 2
 1561 0684 FFF7FEFF 		bl	chDbgCheckClassI
 1562              	.LVL217:
 1563              	.LBB509:
 1564              	.LBB510:
 1565              		.loc 4 151 0 discriminator 2
 1566 0688 FFF7FEFF 		bl	chDbgCheckClassI
 1567              	.LVL218:
 1568              	.LBE510:
 1569              	.LBE509:
 1570              	.LBE508:
 1571              	.LBE507:
 1572              		.loc 3 205 0 discriminator 2
 1573 068c B169     		ldr	r1, [r6, #24]
 1574 068e B1FA81F1 		clz	r1, r1
 1575 0692 4909     		lsrs	r1, r1, #5
 1576 0694 2A20     		movs	r0, #42
 1577 0696 FFF7FEFF 		bl	_test_assert
 1578              	.LVL219:
 1579 069a 0028     		cmp	r0, #0
 1580 069c 5AD1     		bne	.L38
 1581 069e FFF7FEFF 		bl	chSysUnlock
 1582              	.LVL220:
 1583              		.loc 3 206 0 discriminator 2
 1584 06a2 D6E90231 		ldrd	r3, r1, [r6, #8]
 1585 06a6 A1EB030C 		sub	ip, r1, r3
 1586 06aa DCF10001 		rsbs	r1, ip, #0
 1587 06ae 41EB0C01 		adc	r1, r1, ip
 1588 06b2 2B20     		movs	r0, #43
 1589 06b4 FFF7FEFF 		bl	_test_assert
 1590              	.LVL221:
 1591 06b8 0028     		cmp	r0, #0
 1592 06ba 7FF4CEAC 		bne	.L17
 1593              		.loc 3 211 0
 1594 06be 2C48     		ldr	r0, .L47
 1595 06c0 FFF7FEFF 		bl	chMBReset
 1596              	.LVL222:
ARM GAS  C:\Users\mathi\AppData\Local\Temp\ccigTuKk.s 			page 29


 1597              	.LBB511:
 1598              	.LBB512:
 1599              	.LBB513:
 1600              	.LBB514:
 1601              	.LBB515:
 1602              		.loc 2 546 0
 1603              		.syntax unified
 1604              	@ 546 "../../lib/e-puck2_main-processor/ChibiOS//os/ext/CMSIS/include/core_cmFunc.h" 1
 1605 06c4 84F31188 		MSR basepri, r4
 1606              	@ 0 "" 2
 1607              	.LVL223:
 1608              		.thumb
 1609              		.syntax unified
 1610              	.LBE515:
 1611              	.LBE514:
 1612              	.LBE513:
 1613              		.loc 1 349 0
 1614 06c8 FFF7FEFF 		bl	_stats_start_measure_crit_thd
 1615              	.LVL224:
 1616              		.loc 1 350 0
 1617 06cc FFF7FEFF 		bl	_dbg_check_lock
 1618              	.LVL225:
 1619              	.LBE512:
 1620              	.LBE511:
 1621              	.LBB516:
 1622              	.LBB517:
 1623              		.loc 5 160 0
 1624 06d0 FFF7FEFF 		bl	chDbgCheckClassI
 1625              	.LVL226:
 1626              	.LBB518:
 1627              	.LBB519:
 1628              		.loc 4 151 0
 1629 06d4 FFF7FEFF 		bl	chDbgCheckClassI
 1630              	.LVL227:
 1631              	.LBE519:
 1632              	.LBE518:
 1633              	.LBE517:
 1634              	.LBE516:
 1635              		.loc 3 216 0
 1636 06d8 716A     		ldr	r1, [r6, #36]
 1637 06da 4F1F     		subs	r7, r1, #5
 1638 06dc 7942     		rsbs	r1, r7, #0
 1639 06de 7941     		adcs	r1, r1, r7
 1640 06e0 2C20     		movs	r0, #44
 1641 06e2 FFF7FEFF 		bl	_test_assert
 1642              	.LVL228:
 1643 06e6 A8BB     		cbnz	r0, .L38
 1644              		.loc 3 216 0 is_stmt 0 discriminator 2
 1645 06e8 FFF7FEFF 		bl	chSysUnlock
 1646              	.LVL229:
 1647              	.LBB520:
 1648              	.LBB521:
 1649              	.LBB522:
 1650              	.LBB523:
 1651              	.LBB524:
 1652              		.loc 2 546 0 is_stmt 1 discriminator 2
 1653              		.syntax unified
ARM GAS  C:\Users\mathi\AppData\Local\Temp\ccigTuKk.s 			page 30


 1654              	@ 546 "../../lib/e-puck2_main-processor/ChibiOS//os/ext/CMSIS/include/core_cmFunc.h" 1
 1655 06ec 84F31188 		MSR basepri, r4
 1656              	@ 0 "" 2
 1657              	.LVL230:
 1658              		.thumb
 1659              		.syntax unified
 1660              	.LBE524:
 1661              	.LBE523:
 1662              	.LBE522:
 1663              		.loc 1 349 0 discriminator 2
 1664 06f0 FFF7FEFF 		bl	_stats_start_measure_crit_thd
 1665              	.LVL231:
 1666              		.loc 1 350 0 discriminator 2
 1667 06f4 FFF7FEFF 		bl	_dbg_check_lock
 1668              	.LVL232:
 1669              	.LBE521:
 1670              	.LBE520:
 1671              	.LBB525:
 1672              	.LBB526:
 1673              		.loc 5 179 0 discriminator 2
 1674 06f8 FFF7FEFF 		bl	chDbgCheckClassI
 1675              	.LVL233:
 1676              	.LBB527:
 1677              	.LBB528:
 1678              		.loc 4 151 0 discriminator 2
 1679 06fc FFF7FEFF 		bl	chDbgCheckClassI
 1680              	.LVL234:
 1681              	.LBE528:
 1682              	.LBE527:
 1683              	.LBE526:
 1684              	.LBE525:
 1685              		.loc 3 217 0 discriminator 2
 1686 0700 B169     		ldr	r1, [r6, #24]
 1687 0702 B1FA81F1 		clz	r1, r1
 1688 0706 4909     		lsrs	r1, r1, #5
 1689 0708 2D20     		movs	r0, #45
 1690 070a FFF7FEFF 		bl	_test_assert
 1691              	.LVL235:
 1692 070e 08BB     		cbnz	r0, .L38
 1693 0710 FFF7FEFF 		bl	chSysUnlock
 1694              	.LVL236:
 1695              	.LBB529:
 1696              	.LBB530:
 1697              	.LBB531:
 1698              	.LBB532:
 1699              	.LBB533:
 1700              		.loc 2 546 0 discriminator 2
 1701              		.syntax unified
 1702              	@ 546 "../../lib/e-puck2_main-processor/ChibiOS//os/ext/CMSIS/include/core_cmFunc.h" 1
 1703 0714 84F31188 		MSR basepri, r4
 1704              	@ 0 "" 2
 1705              	.LVL237:
 1706              		.thumb
 1707              		.syntax unified
 1708              	.LBE533:
 1709              	.LBE532:
 1710              	.LBE531:
ARM GAS  C:\Users\mathi\AppData\Local\Temp\ccigTuKk.s 			page 31


 1711              		.loc 1 349 0 discriminator 2
 1712 0718 FFF7FEFF 		bl	_stats_start_measure_crit_thd
 1713              	.LVL238:
 1714              		.loc 1 350 0 discriminator 2
 1715 071c FFF7FEFF 		bl	_dbg_check_lock
 1716              	.LVL239:
 1717              	.LBE530:
 1718              	.LBE529:
 1719              		.loc 3 218 0 discriminator 2
 1720 0720 3168     		ldr	r1, [r6]
 1721 0722 B368     		ldr	r3, [r6, #8]
 1722 0724 CA1A     		subs	r2, r1, r3
 1723 0726 5142     		rsbs	r1, r2, #0
 1724 0728 5141     		adcs	r1, r1, r2
 1725 072a 2E20     		movs	r0, #46
 1726 072c FFF7FEFF 		bl	_test_assert
 1727              	.LVL240:
 1728 0730 80B9     		cbnz	r0, .L38
 1729 0732 FFF7FEFF 		bl	chSysUnlock
 1730              	.LVL241:
 1731              	.LBB534:
 1732              	.LBB535:
 1733              	.LBB536:
 1734              	.LBB537:
 1735              	.LBB538:
 1736              		.loc 2 546 0 discriminator 2
 1737              		.syntax unified
 1738              	@ 546 "../../lib/e-puck2_main-processor/ChibiOS//os/ext/CMSIS/include/core_cmFunc.h" 1
 1739 0736 84F31188 		MSR basepri, r4
 1740              	@ 0 "" 2
 1741              	.LVL242:
 1742              		.thumb
 1743              		.syntax unified
 1744              	.LBE538:
 1745              	.LBE537:
 1746              	.LBE536:
 1747              		.loc 1 349 0 discriminator 2
 1748 073a FFF7FEFF 		bl	_stats_start_measure_crit_thd
 1749              	.LVL243:
 1750              		.loc 1 350 0 discriminator 2
 1751 073e FFF7FEFF 		bl	_dbg_check_lock
 1752              	.LVL244:
 1753              	.LBE535:
 1754              	.LBE534:
 1755              		.loc 3 219 0 discriminator 2
 1756 0742 3168     		ldr	r1, [r6]
 1757 0744 F368     		ldr	r3, [r6, #12]
 1758 0746 CB1A     		subs	r3, r1, r3
 1759 0748 5942     		rsbs	r1, r3, #0
 1760 074a 4FF02F00 		mov	r0, #47
 1761 074e 5941     		adcs	r1, r1, r3
 1762 0750 FFF7FEFF 		bl	_test_assert
 1763              	.LVL245:
 1764              	.L38:
 1765 0754 FFF7FEFF 		bl	chSysUnlock
 1766              	.LVL246:
 1767 0758 7FE4     		b	.L17
ARM GAS  C:\Users\mathi\AppData\Local\Temp\ccigTuKk.s 			page 32


 1768              	.LVL247:
 1769              	.L39:
 1770              	.LBB539:
 1771              	.LBB372:
 1772              		.loc 1 367 0
 1773 075a 0748     		ldr	r0, .L47+8
 1774 075c FFF7FEFF 		bl	chSysHalt
 1775              	.LVL248:
 1776 0760 78E4     		b	.L19
 1777              	.L41:
 1778              	.LBE372:
 1779              	.LBE539:
 1780              	.LBB540:
 1781              	.LBB382:
 1782 0762 0548     		ldr	r0, .L47+8
 1783 0764 FFF7FEFF 		bl	chSysHalt
 1784              	.LVL249:
 1785 0768 97E4     		b	.L21
 1786              	.LVL250:
 1787              	.L40:
 1788              	.LBE382:
 1789              	.LBE540:
 1790              		.loc 3 220 0
 1791 076a FFF7FEFF 		bl	__stack_chk_fail
 1792              	.LVL251:
 1793              	.L48:
 1794 076e 00BF     		.align	2
 1795              	.L47:
 1796 0770 00000000 		.word	.LANCHOR1
 1797 0774 00000000 		.word	.LC0
 1798 0778 00000000 		.word	.LANCHOR0
 1799              		.cfi_endproc
 1800              	.LFE220:
 1801              		.size	mbox1_execute, .-mbox1_execute
 1802              		.global	patternmbox
 1803              		.global	testmbox1
 1804              		.section	.data.mb1,"aw",%progbits
 1805              		.align	2
 1806              		.set	.LANCHOR1,. + 0
 1807              		.type	mb1, %object
 1808              		.size	mb1, 40
 1809              	mb1:
 1810 0000 00000000 		.word	test
 1811 0004 14000000 		.word	test+20
 1812 0008 00000000 		.word	test
 1813 000c 00000000 		.word	test
 1814 0010 10000000 		.word	mb1+16
 1815 0014 10000000 		.word	mb1+16
 1816 0018 00000000 		.word	0
 1817 001c 1C000000 		.word	mb1+28
 1818 0020 1C000000 		.word	mb1+28
 1819 0024 05000000 		.word	5
 1820              		.section	.rodata.__func__.7153,"a",%progbits
 1821              		.align	2
 1822              		.set	.LANCHOR0,. + 0
 1823              		.type	__func__.7153, %object
 1824              		.size	__func__.7153, 12
ARM GAS  C:\Users\mathi\AppData\Local\Temp\ccigTuKk.s 			page 33


 1825              	__func__.7153:
 1826 0000 63685379 		.ascii	"chSysUnlock\000"
 1826      73556E6C 
 1826      6F636B00 
 1827              		.section	.rodata.mbox1_execute.str1.4,"aMS",%progbits,1
 1828              		.align	2
 1829              	.LC0:
 1830 0000 41424344 		.ascii	"ABCDE\000"
 1830      4500
 1831              		.section	.rodata.patternmbox,"a",%progbits
 1832              		.align	2
 1833              		.type	patternmbox, %object
 1834              		.size	patternmbox, 8
 1835              	patternmbox:
 1836 0000 00000000 		.word	testmbox1
 1837 0004 00000000 		.word	0
 1838              		.section	.rodata.str1.4,"aMS",%progbits,1
 1839              		.align	2
 1840              	.LC1:
 1841 0000 4D61696C 		.ascii	"Mailboxes, queuing and timeouts\000"
 1841      626F7865 
 1841      732C2071 
 1841      75657569 
 1841      6E672061 
 1842              		.section	.rodata.testmbox1,"a",%progbits
 1843              		.align	2
 1844              		.type	testmbox1, %object
 1845              		.size	testmbox1, 16
 1846              	testmbox1:
 1847 0000 00000000 		.word	.LC1
 1848 0004 00000000 		.word	mbox1_setup
 1849 0008 00000000 		.word	0
 1850 000c 00000000 		.word	mbox1_execute
 1851              		.text
 1852              	.Letext0:
 1853              		.file 6 "c:\\eclipse_e-puck2\\tools\\gcc-arm-none-eabi-7-2017-q4-major-win32\\lib\\gcc\\arm-none-e
 1854              		.file 7 "c:\\eclipse_e-puck2\\tools\\gcc-arm-none-eabi-7-2017-q4-major-win32\\arm-none-eabi\\inclu
 1855              		.file 8 "c:\\eclipse_e-puck2\\tools\\gcc-arm-none-eabi-7-2017-q4-major-win32\\arm-none-eabi\\inclu
 1856              		.file 9 "../../lib/e-puck2_main-processor/ChibiOS//os/rt/ports/ARMCMx/compilers/GCC/chtypes.h"
 1857              		.file 10 "../../lib/e-puck2_main-processor/ChibiOS//os/rt/include/chsystypes.h"
 1858              		.file 11 "../../lib/e-puck2_main-processor/ChibiOS//os/rt/include/chschd.h"
 1859              		.file 12 "../../lib/e-puck2_main-processor/ChibiOS//os/ext/CMSIS/include/core_cm4.h"
 1860              		.file 13 "../../lib/e-puck2_main-processor/ChibiOS//os/ext/CMSIS/ST/system_stm32f4xx.h"
 1861              		.file 14 "../../lib/e-puck2_main-processor/ChibiOS//os/rt/ports/ARMCMx/chcore.h"
 1862              		.file 15 "../../lib/e-puck2_main-processor/ChibiOS//os/rt/ports/ARMCMx/chcore_v7m.h"
 1863              		.file 16 "../../lib/e-puck2_main-processor/ChibiOS//os/rt/include/chdebug.h"
 1864              		.file 17 "../../lib/e-puck2_main-processor/ChibiOS//os/rt/include/chtm.h"
 1865              		.file 18 "../../lib/e-puck2_main-processor/ChibiOS//os/rt/include/chstats.h"
 1866              		.file 19 "../../lib/e-puck2_main-processor/ChibiOS//os/rt/include/chmtx.h"
 1867              		.file 20 "../../lib/e-puck2_main-processor/ChibiOS//os/rt/include/chregistry.h"
 1868              		.file 21 "../../lib/e-puck2_main-processor/ChibiOS//test/rt/test.h"