ARM GAS  C:\Users\mathi\AppData\Local\Temp\ccsjBlyq.s 			page 1


   1              		.cpu cortex-m4
   2              		.eabi_attribute 27, 1
   3              		.eabi_attribute 28, 1
   4              		.eabi_attribute 20, 1
   5              		.eabi_attribute 21, 1
   6              		.eabi_attribute 23, 3
   7              		.eabi_attribute 24, 1
   8              		.eabi_attribute 25, 1
   9              		.eabi_attribute 26, 1
  10              		.eabi_attribute 30, 2
  11              		.eabi_attribute 34, 1
  12              		.eabi_attribute 18, 4
  13              		.file	"uc_usage.c"
  14              		.text
  15              	.Ltext0:
  16              		.cfi_sections	.debug_frame
  17              		.section	.text.chprintf,"ax",%progbits
  18              		.align	1
  19              		.p2align 4,,15
  20              		.syntax unified
  21              		.thumb
  22              		.thumb_func
  23              		.fpu fpv4-sp-d16
  24              		.type	chprintf, %function
  25              	chprintf:
  26              	.LFB219:
  27              		.file 1 "../../lib/e-puck2_main-processor/ChibiOS//os/hal/lib/streams/chprintf.h"
  28              		.loc 1 69 0
  29              		.cfi_startproc
  30              		@ args = 4, pretend = 12, frame = 8
  31              		@ frame_needed = 0, uses_anonymous_args = 1
  32              	.LVL0:
  33 0000 0EB4     		push	{r1, r2, r3}
  34              		.cfi_def_cfa_offset 12
  35              		.cfi_offset 1, -12
  36              		.cfi_offset 2, -8
  37              		.cfi_offset 3, -4
  38 0002 10B5     		push	{r4, lr}
  39              		.cfi_def_cfa_offset 20
  40              		.cfi_offset 4, -20
  41              		.cfi_offset 14, -16
  42 0004 83B0     		sub	sp, sp, #12
  43              		.cfi_def_cfa_offset 32
  44              		.loc 1 69 0
  45 0006 05AA     		add	r2, sp, #20
  46 0008 094C     		ldr	r4, .L6
  47 000a 52F8041B 		ldr	r1, [r2], #4
  48 000e 2368     		ldr	r3, [r4]
  49              		.loc 1 73 0
  50 0010 0092     		str	r2, [sp]
  51              		.loc 1 69 0
  52 0012 0193     		str	r3, [sp, #4]
  53              		.loc 1 74 0
  54 0014 FFF7FEFF 		bl	chvprintf
  55              	.LVL1:
  56              		.loc 1 78 0
  57 0018 019A     		ldr	r2, [sp, #4]
ARM GAS  C:\Users\mathi\AppData\Local\Temp\ccsjBlyq.s 			page 2


  58 001a 2368     		ldr	r3, [r4]
  59 001c 9A42     		cmp	r2, r3
  60 001e 04D1     		bne	.L5
  61 0020 03B0     		add	sp, sp, #12
  62              		.cfi_remember_state
  63              		.cfi_def_cfa_offset 20
  64              		@ sp needed
  65 0022 BDE81040 		pop	{r4, lr}
  66              		.cfi_restore 14
  67              		.cfi_restore 4
  68              		.cfi_def_cfa_offset 12
  69 0026 03B0     		add	sp, sp, #12
  70              		.cfi_restore 3
  71              		.cfi_restore 2
  72              		.cfi_restore 1
  73              		.cfi_def_cfa_offset 0
  74 0028 7047     		bx	lr
  75              	.L5:
  76              		.cfi_restore_state
  77 002a FFF7FEFF 		bl	__stack_chk_fail
  78              	.LVL2:
  79              	.L7:
  80 002e 00BF     		.align	2
  81              	.L6:
  82 0030 00000000 		.word	__stack_chk_guard
  83              		.cfi_endproc
  84              	.LFE219:
  85              		.size	chprintf, .-chprintf
  86              		.section	.text.chprintf.constprop.0,"ax",%progbits
  87              		.align	1
  88              		.p2align 4,,15
  89              		.syntax unified
  90              		.thumb
  91              		.thumb_func
  92              		.fpu fpv4-sp-d16
  93              		.type	chprintf.constprop.0, %function
  94              	chprintf.constprop.0:
  95              	.LFB221:
  96              		.loc 1 69 0
  97              		.cfi_startproc
  98              		@ args = 4, pretend = 12, frame = 8
  99              		@ frame_needed = 0, uses_anonymous_args = 1
 100              	.LVL3:
 101 0000 0EB4     		push	{r1, r2, r3}
 102              		.cfi_def_cfa_offset 12
 103              		.cfi_offset 1, -12
 104              		.cfi_offset 2, -8
 105              		.cfi_offset 3, -4
 106 0002 10B5     		push	{r4, lr}
 107              		.cfi_def_cfa_offset 20
 108              		.cfi_offset 4, -20
 109              		.cfi_offset 14, -16
 110 0004 0A4C     		ldr	r4, .L12
 111              		.loc 1 74 0
 112 0006 0B49     		ldr	r1, .L12+4
 113              		.loc 1 69 0
 114 0008 2368     		ldr	r3, [r4]
ARM GAS  C:\Users\mathi\AppData\Local\Temp\ccsjBlyq.s 			page 3


 115 000a 83B0     		sub	sp, sp, #12
 116              		.cfi_def_cfa_offset 32
 117              		.loc 1 69 0
 118 000c 0193     		str	r3, [sp, #4]
 119              	.LVL4:
 120              		.loc 1 73 0
 121 000e 06AB     		add	r3, sp, #24
 122              		.loc 1 74 0
 123 0010 1A46     		mov	r2, r3
 124              		.loc 1 73 0
 125 0012 0093     		str	r3, [sp]
 126              		.loc 1 74 0
 127 0014 FFF7FEFF 		bl	chvprintf
 128              	.LVL5:
 129              		.loc 1 78 0
 130 0018 019A     		ldr	r2, [sp, #4]
 131 001a 2368     		ldr	r3, [r4]
 132 001c 9A42     		cmp	r2, r3
 133 001e 04D1     		bne	.L11
 134 0020 03B0     		add	sp, sp, #12
 135              		.cfi_remember_state
 136              		.cfi_def_cfa_offset 20
 137              		@ sp needed
 138 0022 BDE81040 		pop	{r4, lr}
 139              		.cfi_restore 14
 140              		.cfi_restore 4
 141              		.cfi_def_cfa_offset 12
 142 0026 03B0     		add	sp, sp, #12
 143              		.cfi_restore 3
 144              		.cfi_restore 2
 145              		.cfi_restore 1
 146              		.cfi_def_cfa_offset 0
 147 0028 7047     		bx	lr
 148              	.L11:
 149              		.cfi_restore_state
 150 002a FFF7FEFF 		bl	__stack_chk_fail
 151              	.LVL6:
 152              	.L13:
 153 002e 00BF     		.align	2
 154              	.L12:
 155 0030 00000000 		.word	__stack_chk_guard
 156 0034 00000000 		.word	.LC0
 157              		.cfi_endproc
 158              	.LFE221:
 159              		.size	chprintf.constprop.0, .-chprintf.constprop.0
 160              		.global	__aeabi_uldivmod
 161              		.section	.text.printUcUsage,"ax",%progbits
 162              		.align	1
 163              		.p2align 4,,15
 164              		.global	printUcUsage
 165              		.syntax unified
 166              		.thumb
 167              		.thumb_func
 168              		.fpu fpv4-sp-d16
 169              		.type	printUcUsage, %function
 170              	printUcUsage:
 171              	.LFB220:
ARM GAS  C:\Users\mathi\AppData\Local\Temp\ccsjBlyq.s 			page 4


 172              		.file 2 "../../lib/e-puck2_main-processor/src/uc_usage.c"
 173              		.loc 2 13 0
 174              		.cfi_startproc
 175              		@ args = 0, pretend = 0, frame = 8
 176              		@ frame_needed = 0, uses_anonymous_args = 0
 177              	.LVL7:
 178 0000 2DE9F04F 		push	{r4, r5, r6, r7, r8, r9, r10, fp, lr}
 179              		.cfi_def_cfa_offset 36
 180              		.cfi_offset 4, -36
 181              		.cfi_offset 5, -32
 182              		.cfi_offset 6, -28
 183              		.cfi_offset 7, -24
 184              		.cfi_offset 8, -20
 185              		.cfi_offset 9, -16
 186              		.cfi_offset 10, -12
 187              		.cfi_offset 11, -8
 188              		.cfi_offset 14, -4
 189 0004 764B     		ldr	r3, .L23
 190              		.loc 2 19 0
 191 0006 774E     		ldr	r6, .L23+4
 192              		.loc 2 13 0
 193 0008 1B68     		ldr	r3, [r3]
 194 000a 85B0     		sub	sp, sp, #20
 195              		.cfi_def_cfa_offset 56
 196              		.loc 2 19 0
 197 000c 0022     		movs	r2, #0
 198              		.loc 2 13 0
 199 000e 0393     		str	r3, [sp, #12]
 200              		.loc 2 19 0
 201 0010 0023     		movs	r3, #0
 202              		.loc 2 13 0
 203 0012 0546     		mov	r5, r0
 204              		.loc 2 19 0
 205 0014 C6E90023 		strd	r2, [r6]
 206              		.loc 2 21 0
 207 0018 FFF7FEFF 		bl	chRegFirstThread
 208              	.LVL8:
 209              	.L15:
 210              		.loc 2 24 0 discriminator 1
 211 001c D6E90023 		ldrd	r2, [r6]
 212 0020 D0E91889 		ldrd	r8, [r0, #96]
 213 0024 12EB080A 		adds	r10, r2, r8
 214 0028 43EB090B 		adc	fp, r3, r9
 215 002c C6E900AB 		strd	r10, [r6]
 216              		.loc 2 25 0 discriminator 1
 217 0030 FFF7FEFF 		bl	chRegNextThread
 218              	.LVL9:
 219              		.loc 2 26 0 discriminator 1
 220 0034 0028     		cmp	r0, #0
 221 0036 F1D1     		bne	.L15
 222              		.loc 2 27 0
 223 0038 6B4B     		ldr	r3, .L23+8
 224              		.loc 2 35 0
 225 003a 6C4C     		ldr	r4, .L23+12
 226              		.loc 2 27 0
 227 003c D3E90023 		ldrd	r2, [r3]
 228 0040 D6E90001 		ldrd	r0, [r6]
ARM GAS  C:\Users\mathi\AppData\Local\Temp\ccsjBlyq.s 			page 5


 229              	.LVL10:
 230 0044 1718     		adds	r7, r2, r0
 231 0046 43EB0108 		adc	r8, r3, r1
 232              		.loc 2 28 0
 233 004a 6949     		ldr	r1, .L23+16
 234 004c D1E900AB 		ldrd	r10, [r1]
 235 0050 17EB0A02 		adds	r2, r7, r10
 236 0054 48EB0B03 		adc	r3, r8, fp
 237 0058 C6E90023 		strd	r2, [r6]
 238              		.loc 2 31 0
 239 005c FFF7FEFF 		bl	chRegFirstThread
 240              	.LVL11:
 241              		.loc 2 35 0
 242 0060 DFF898B1 		ldr	fp, .L23+28
 243 0064 4FF0640A 		mov	r10, #100
 244              		.loc 2 31 0
 245 0068 8146     		mov	r9, r0
 246              	.LVL12:
 247              	.L16:
 248              		.loc 2 34 0 discriminator 1
 249 006a D9E91801 		ldrd	r0, [r9, #96]
 250              	.LVL13:
 251 006e 4FEA810C 		lsl	ip, r1, #2
 252 0072 8200     		lsls	r2, r0, #2
 253 0074 1718     		adds	r7, r2, r0
 254 0076 4CEA9073 		orr	r3, ip, r0, lsr #30
 255 007a 43EB0108 		adc	r8, r3, r1
 256 007e 4FEAC70E 		lsl	lr, r7, #3
 257 0082 4FEAC80C 		lsl	ip, r8, #3
 258 0086 BEEB0002 		subs	r2, lr, r0
 259 008a 4CEA577C 		orr	ip, ip, r7, lsr #29
 260 008e 6CEB0103 		sbc	r3, ip, r1
 261 0092 4FEA021E 		lsl	lr, r2, #4
 262 0096 4FEA031C 		lsl	ip, r3, #4
 263 009a 10EB0E07 		adds	r7, r0, lr
 264 009e 4CEA127C 		orr	ip, ip, r2, lsr #28
 265 00a2 41EB0C08 		adc	r8, r1, ip
 266 00a6 4146     		mov	r1, r8
 267 00a8 0B01     		lsls	r3, r1, #4
 268 00aa 43EA1773 		orr	r3, r3, r7, lsr #28
 269 00ae 3A01     		lsls	r2, r7, #4
 270 00b0 1046     		mov	r0, r2
 271 00b2 1946     		mov	r1, r3
 272 00b4 D6E90023 		ldrd	r2, [r6]
 273 00b8 FFF7FEFF 		bl	__aeabi_uldivmod
 274              	.LVL14:
 275 00bc 80B2     		uxth	r0, r0
 276              		.loc 2 35 0 discriminator 1
 277 00be A4FB0023 		umull	r2, r3, r4, r0
 278 00c2 5B09     		lsrs	r3, r3, #5
 279 00c4 0AFB1300 		mls	r0, r10, r3, r0
 280 00c8 80B2     		uxth	r0, r0
 281 00ca D9F81820 		ldr	r2, [r9, #24]
 282 00ce 0090     		str	r0, [sp]
 283 00d0 5946     		mov	r1, fp
 284 00d2 2846     		mov	r0, r5
 285 00d4 FFF7FEFF 		bl	chprintf.constprop.0
ARM GAS  C:\Users\mathi\AppData\Local\Temp\ccsjBlyq.s 			page 6


 286              	.LVL15:
 287              		.loc 2 36 0 discriminator 1
 288 00d8 4846     		mov	r0, r9
 289 00da FFF7FEFF 		bl	chRegNextThread
 290              	.LVL16:
 291              		.loc 2 37 0 discriminator 1
 292 00de 8146     		mov	r9, r0
 293 00e0 0028     		cmp	r0, #0
 294 00e2 C2D1     		bne	.L16
 295              		.loc 2 39 0
 296 00e4 404B     		ldr	r3, .L23+8
 297 00e6 D3E90001 		ldrd	r0, [r3]
 298              	.LVL17:
 299 00ea 8F00     		lsls	r7, r1, #2
 300 00ec 8200     		lsls	r2, r0, #2
 301 00ee 47EA9073 		orr	r3, r7, r0, lsr #30
 302 00f2 1718     		adds	r7, r2, r0
 303 00f4 43EB0108 		adc	r8, r3, r1
 304 00f8 C146     		mov	r9, r8
 305              	.LVL18:
 306 00fa 4B46     		mov	r3, r9
 307 00fc B846     		mov	r8, r7
 308 00fe 4FEAC80C 		lsl	ip, r8, #3
 309 0102 DF00     		lsls	r7, r3, #3
 310 0104 BCEB0002 		subs	r2, ip, r0
 311 0108 47EA5877 		orr	r7, r7, r8, lsr #29
 312 010c 67EB0103 		sbc	r3, r7, r1
 313 0110 4FEA021C 		lsl	ip, r2, #4
 314 0114 1F01     		lsls	r7, r3, #4
 315 0116 10EB0C0B 		adds	fp, r0, ip
 316 011a 47EA1277 		orr	r7, r7, r2, lsr #28
 317 011e 41EB070C 		adc	ip, r1, r7
 318 0122 D6E90067 		ldrd	r6, [r6]
 319 0126 4FEA0C13 		lsl	r3, ip, #4
 320 012a 43EA1B73 		orr	r3, r3, fp, lsr #28
 321 012e 4FEA0B12 		lsl	r2, fp, #4
 322 0132 1046     		mov	r0, r2
 323 0134 1946     		mov	r1, r3
 324 0136 3246     		mov	r2, r6
 325 0138 3B46     		mov	r3, r7
 326 013a FFF7FEFF 		bl	__aeabi_uldivmod
 327              	.LVL19:
 328              		.loc 2 40 0
 329 013e 2C4B     		ldr	r3, .L23+16
 330 0140 D3E90089 		ldrd	r8, [r3]
 331 0144 4FEA8901 		lsl	r1, r9, #2
 332 0148 4FEA8802 		lsl	r2, r8, #2
 333 014c 12EB080B 		adds	fp, r2, r8
 334 0150 41EA9873 		orr	r3, r1, r8, lsr #30
 335 0154 43EB090C 		adc	ip, r3, r9
 336 0158 6346     		mov	r3, ip
 337 015a D900     		lsls	r1, r3, #3
 338 015c 4FEACB0C 		lsl	ip, fp, #3
 339 0160 BCEB0802 		subs	r2, ip, r8
 340 0164 41EA5B71 		orr	r1, r1, fp, lsr #29
 341 0168 61EB0903 		sbc	r3, r1, r9
 342 016c 4FEA021C 		lsl	ip, r2, #4
ARM GAS  C:\Users\mathi\AppData\Local\Temp\ccsjBlyq.s 			page 7


 343 0170 1901     		lsls	r1, r3, #4
 344 0172 1CEB080B 		adds	fp, ip, r8
 345 0176 41EA1271 		orr	r1, r1, r2, lsr #28
 346 017a 41EB090C 		adc	ip, r1, r9
 347 017e 4FEA0C13 		lsl	r3, ip, #4
 348 0182 43EA1B73 		orr	r3, r3, fp, lsr #28
 349 0186 4FEA0B12 		lsl	r2, fp, #4
 350 018a 9C46     		mov	ip, r3
 351 018c 9346     		mov	fp, r2
 352 018e 3B46     		mov	r3, r7
 353              		.loc 2 39 0
 354 0190 1FFA80F9 		uxth	r9, r0
 355              		.loc 2 40 0
 356 0194 3246     		mov	r2, r6
 357 0196 6146     		mov	r1, ip
 358 0198 5846     		mov	r0, fp
 359 019a FFF7FEFF 		bl	__aeabi_uldivmod
 360              	.LVL20:
 361 019e 80B2     		uxth	r0, r0
 362              		.loc 2 42 0
 363 01a0 A4FB0031 		umull	r3, r1, r4, r0
 364 01a4 4909     		lsrs	r1, r1, #5
 365 01a6 A4FB0932 		umull	r3, r2, r4, r9
 366 01aa 5209     		lsrs	r2, r2, #5
 367 01ac 0AFB1100 		mls	r0, r10, r1, r0
 368 01b0 0AFB1293 		mls	r3, r10, r2, r9
 369 01b4 80B2     		uxth	r0, r0
 370 01b6 0190     		str	r0, [sp, #4]
 371 01b8 9BB2     		uxth	r3, r3
 372 01ba 0091     		str	r1, [sp]
 373 01bc 2846     		mov	r0, r5
 374 01be 0D49     		ldr	r1, .L23+20
 375 01c0 FFF7FEFF 		bl	chprintf
 376              	.LVL21:
 377              		.loc 2 44 0
 378 01c4 064B     		ldr	r3, .L23
 379 01c6 039A     		ldr	r2, [sp, #12]
 380 01c8 1B68     		ldr	r3, [r3]
 381 01ca 9A42     		cmp	r2, r3
 382 01cc 06D1     		bne	.L22
 383 01ce 0A49     		ldr	r1, .L23+24
 384 01d0 2846     		mov	r0, r5
 385              		.loc 2 45 0
 386 01d2 05B0     		add	sp, sp, #20
 387              		.cfi_remember_state
 388              		.cfi_def_cfa_offset 36
 389              		@ sp needed
 390 01d4 BDE8F04F 		pop	{r4, r5, r6, r7, r8, r9, r10, fp, lr}
 391              		.cfi_restore 14
 392              		.cfi_restore 11
 393              		.cfi_restore 10
 394              		.cfi_restore 9
 395              		.cfi_restore 8
 396              		.cfi_restore 7
 397              		.cfi_restore 6
 398              		.cfi_restore 5
 399              		.cfi_restore 4
ARM GAS  C:\Users\mathi\AppData\Local\Temp\ccsjBlyq.s 			page 8


 400              		.cfi_def_cfa_offset 0
 401              	.LVL22:
 402              		.loc 2 44 0
 403 01d8 FFF7FEBF 		b	chprintf
 404              	.LVL23:
 405              	.L22:
 406              		.cfi_restore_state
 407 01dc FFF7FEFF 		bl	__stack_chk_fail
 408              	.LVL24:
 409              	.L24:
 410              		.align	2
 411              	.L23:
 412 01e0 00000000 		.word	__stack_chk_guard
 413 01e4 00000000 		.word	.LANCHOR0
 414 01e8 C8040000 		.word	ch+1224
 415 01ec 1F85EB51 		.word	1374389535
 416 01f0 E0040000 		.word	ch+1248
 417 01f4 00000000 		.word	.LC1
 418 01f8 30000000 		.word	.LC2
 419 01fc 00000000 		.word	.LC0
 420              		.cfi_endproc
 421              	.LFE220:
 422              		.size	printUcUsage, .-printUcUsage
 423              		.section	.bss.sum.7868,"aw",%nobits
 424              		.align	3
 425              		.set	.LANCHOR0,. + 0
 426              		.type	sum.7868, %object
 427              		.size	sum.7868, 8
 428              	sum.7868:
 429 0000 00000000 		.space	8
 429      00000000 
 430              		.section	.rodata.chprintf.constprop.0.str1.4,"aMS",%progbits,1
 431              		.align	2
 432              	.LC0:
 433 0000 25313273 		.ascii	"%12s %u.%u%%\015\012\000"
 433      2025752E 
 433      25752525 
 433      0D0A00
 434              		.section	.rodata.printUcUsage.str1.4,"aMS",%progbits,1
 435              		.align	2
 436              	.LC1:
 437 0000 63726974 		.ascii	"critical thd:%u.%u%%   critical isr:%u.%u%%\015\012"
 437      6963616C 
 437      20746864 
 437      3A25752E 
 437      25752525 
 438 002d 00       		.ascii	"\000"
 439 002e 0000     		.space	2
 440              	.LC2:
 441 0030 0D0A00   		.ascii	"\015\012\000"
 442              		.text
 443              	.Letext0:
 444              		.file 3 "c:\\eclipse_e-puck2\\tools\\gcc-arm-none-eabi-7-2017-q4-major-win32\\lib\\gcc\\arm-none-e
 445              		.file 4 "c:\\eclipse_e-puck2\\tools\\gcc-arm-none-eabi-7-2017-q4-major-win32\\arm-none-eabi\\inclu
 446              		.file 5 "c:\\eclipse_e-puck2\\tools\\gcc-arm-none-eabi-7-2017-q4-major-win32\\arm-none-eabi\\inclu
 447              		.file 6 "../../lib/e-puck2_main-processor/ChibiOS//os/rt/ports/ARMCMx/compilers/GCC/chtypes.h"
 448              		.file 7 "../../lib/e-puck2_main-processor/ChibiOS//os/rt/include/chsystypes.h"
ARM GAS  C:\Users\mathi\AppData\Local\Temp\ccsjBlyq.s 			page 9


 449              		.file 8 "../../lib/e-puck2_main-processor/ChibiOS//os/rt/include/chschd.h"
 450              		.file 9 "../../lib/e-puck2_main-processor/ChibiOS//os/ext/CMSIS/include/core_cm4.h"
 451              		.file 10 "../../lib/e-puck2_main-processor/ChibiOS//os/ext/CMSIS/ST/system_stm32f4xx.h"
 452              		.file 11 "../../lib/e-puck2_main-processor/ChibiOS//os/rt/ports/ARMCMx/chcore.h"
 453              		.file 12 "../../lib/e-puck2_main-processor/ChibiOS//os/rt/ports/ARMCMx/chcore_v7m.h"
 454              		.file 13 "../../lib/e-puck2_main-processor/ChibiOS//os/rt/include/chdebug.h"
 455              		.file 14 "../../lib/e-puck2_main-processor/ChibiOS//os/rt/include/chtm.h"
 456              		.file 15 "../../lib/e-puck2_main-processor/ChibiOS//os/rt/include/chstats.h"
 457              		.file 16 "../../lib/e-puck2_main-processor/ChibiOS//os/rt/include/chsem.h"
 458              		.file 17 "../../lib/e-puck2_main-processor/ChibiOS//os/rt/include/chmtx.h"
 459              		.file 18 "../../lib/e-puck2_main-processor/ChibiOS//os/rt/include/chregistry.h"
 460              		.file 19 "../../lib/e-puck2_main-processor/ChibiOS//os/rt/include/chstreams.h"
 461              		.file 20 "c:\\eclipse_e-puck2\\tools\\gcc-arm-none-eabi-7-2017-q4-major-win32\\lib\\gcc\\arm-none-
 462              		.file 21 "<built-in>"