ARM GAS  C:\Users\mathi\AppData\Local\Temp\cc1oOiLv.s 			page 1


   1              		.cpu cortex-m4
   2              		.eabi_attribute 27, 1
   3              		.eabi_attribute 28, 1
   4              		.eabi_attribute 20, 1
   5              		.eabi_attribute 21, 1
   6              		.eabi_attribute 23, 3
   7              		.eabi_attribute 24, 1
   8              		.eabi_attribute 25, 1
   9              		.eabi_attribute 26, 1
  10              		.eabi_attribute 30, 2
  11              		.eabi_attribute 34, 1
  12              		.eabi_attribute 18, 4
  13              		.file	"unicode.c"
  14              		.text
  15              	.Ltext0:
  16              		.cfi_sections	.debug_frame
  17              		.section	.text.ff_convert,"ax",%progbits
  18              		.align	1
  19              		.p2align 4,,15
  20              		.global	ff_convert
  21              		.syntax unified
  22              		.thumb
  23              		.thumb_func
  24              		.fpu fpv4-sp-d16
  25              		.type	ff_convert, %function
  26              	ff_convert:
  27              	.LFB219:
  28              		.file 1 "../../lib/e-puck2_main-processor/ChibiOS_ext//ext/fatfs/src/option/ccsbcs.c"
  29              		.loc 1 505 0
  30              		.cfi_startproc
  31              		@ args = 0, pretend = 0, frame = 8
  32              		@ frame_needed = 0, uses_anonymous_args = 0
  33              	.LVL0:
  34 0000 30B5     		push	{r4, r5, lr}
  35              		.cfi_def_cfa_offset 12
  36              		.cfi_offset 4, -12
  37              		.cfi_offset 5, -8
  38              		.cfi_offset 14, -4
  39 0002 124D     		ldr	r5, .L16
  40 0004 83B0     		sub	sp, sp, #12
  41              		.cfi_def_cfa_offset 24
  42              		.loc 1 505 0
  43 0006 2B68     		ldr	r3, [r5]
  44 0008 0193     		str	r3, [sp, #4]
  45              		.loc 1 509 0
  46 000a 7F28     		cmp	r0, #127
  47 000c 0DD9     		bls	.L2
  48              		.loc 1 513 0
  49 000e 91B9     		cbnz	r1, .L13
  50 0010 0F4B     		ldr	r3, .L16+4
  51 0012 02E0     		b	.L5
  52              	.LVL1:
  53              	.L14:
  54 0014 0131     		adds	r1, r1, #1
  55              	.LVL2:
  56              		.loc 1 517 0 discriminator 2
  57 0016 8029     		cmp	r1, #128
ARM GAS  C:\Users\mathi\AppData\Local\Temp\cc1oOiLv.s 			page 2


  58 0018 14D0     		beq	.L9
  59              	.LVL3:
  60              	.L5:
  61              		.loc 1 518 0
  62 001a 33F8022B 		ldrh	r2, [r3], #2
  63 001e 8242     		cmp	r2, r0
  64 0020 8CB2     		uxth	r4, r1
  65              	.LVL4:
  66 0022 F7D1     		bne	.L14
  67 0024 04F18000 		add	r0, r4, #128
  68              	.LVL5:
  69 0028 80B2     		uxth	r0, r0
  70              	.LVL6:
  71              	.L2:
  72              		.loc 1 525 0
  73 002a 019A     		ldr	r2, [sp, #4]
  74 002c 2B68     		ldr	r3, [r5]
  75 002e 9A42     		cmp	r2, r3
  76 0030 0AD1     		bne	.L15
  77 0032 03B0     		add	sp, sp, #12
  78              		.cfi_remember_state
  79              		.cfi_def_cfa_offset 12
  80              		@ sp needed
  81 0034 30BD     		pop	{r4, r5, pc}
  82              	.LVL7:
  83              	.L13:
  84              		.cfi_restore_state
  85              		.loc 1 514 0
  86 0036 FF28     		cmp	r0, #255
  87 0038 04D8     		bhi	.L9
  88              		.loc 1 514 0 is_stmt 0 discriminator 1
  89 003a 8038     		subs	r0, r0, #128
  90              	.LVL8:
  91 003c 044B     		ldr	r3, .L16+4
  92 003e 33F81000 		ldrh	r0, [r3, r0, lsl #1]
  93 0042 F2E7     		b	.L2
  94              	.LVL9:
  95              	.L9:
  96              		.loc 1 514 0
  97 0044 0020     		movs	r0, #0
  98              	.LVL10:
  99 0046 F0E7     		b	.L2
 100              	.LVL11:
 101              	.L15:
 102              		.loc 1 525 0 is_stmt 1
 103 0048 FFF7FEFF 		bl	__stack_chk_fail
 104              	.LVL12:
 105              	.L17:
 106              		.align	2
 107              	.L16:
 108 004c 00000000 		.word	__stack_chk_guard
 109 0050 00000000 		.word	.LANCHOR0
 110              		.cfi_endproc
 111              	.LFE219:
 112              		.size	ff_convert, .-ff_convert
 113              		.section	.text.ff_wtoupper,"ax",%progbits
 114              		.align	1
ARM GAS  C:\Users\mathi\AppData\Local\Temp\cc1oOiLv.s 			page 3


 115              		.p2align 4,,15
 116              		.global	ff_wtoupper
 117              		.syntax unified
 118              		.thumb
 119              		.thumb_func
 120              		.fpu fpv4-sp-d16
 121              		.type	ff_wtoupper, %function
 122              	ff_wtoupper:
 123              	.LFB220:
 124              		.loc 1 531 0
 125              		.cfi_startproc
 126              		@ args = 0, pretend = 0, frame = 8
 127              		@ frame_needed = 0, uses_anonymous_args = 0
 128              	.LVL13:
 129 0000 10B5     		push	{r4, lr}
 130              		.cfi_def_cfa_offset 8
 131              		.cfi_offset 4, -8
 132              		.cfi_offset 14, -4
 133 0002 0F4C     		ldr	r4, .L30
 134 0004 82B0     		sub	sp, sp, #8
 135              		.cfi_def_cfa_offset 16
 136              		.loc 1 531 0
 137 0006 2368     		ldr	r3, [r4]
 138 0008 0193     		str	r3, [sp, #4]
 139              	.LVL14:
 140              		.loc 1 537 0
 141 000a 6128     		cmp	r0, #97
 142 000c 13D0     		beq	.L24
 143 000e 0D49     		ldr	r1, .L30+4
 144 0010 0122     		movs	r2, #1
 145 0012 6223     		movs	r3, #98
 146              	.LVL15:
 147              	.L20:
 148              		.loc 1 537 0 is_stmt 0 discriminator 3
 149 0014 8342     		cmp	r3, r0
 150 0016 0AD0     		beq	.L28
 151              		.loc 1 537 0 discriminator 4
 152 0018 31F8023F 		ldrh	r3, [r1, #2]!
 153 001c 0132     		adds	r2, r2, #1
 154              	.LVL16:
 155 001e 002B     		cmp	r3, #0
 156 0020 F8D1     		bne	.L20
 157              	.LVL17:
 158              	.L21:
 159              		.loc 1 540 0 is_stmt 1 discriminator 4
 160 0022 019A     		ldr	r2, [sp, #4]
 161 0024 2368     		ldr	r3, [r4]
 162 0026 9A42     		cmp	r2, r3
 163 0028 07D1     		bne	.L29
 164              		.loc 1 540 0 is_stmt 0
 165 002a 02B0     		add	sp, sp, #8
 166              		.cfi_remember_state
 167              		.cfi_def_cfa_offset 8
 168              		@ sp needed
 169 002c 10BD     		pop	{r4, pc}
 170              	.LVL18:
 171              	.L28:
ARM GAS  C:\Users\mathi\AppData\Local\Temp\cc1oOiLv.s 			page 4


 172              		.cfi_restore_state
 173 002e 064B     		ldr	r3, .L30+8
 174 0030 33F81200 		ldrh	r0, [r3, r2, lsl #1]
 175              	.LVL19:
 176 0034 F5E7     		b	.L21
 177              	.LVL20:
 178              	.L24:
 179              		.loc 1 537 0 is_stmt 1
 180 0036 4120     		movs	r0, #65
 181              	.LVL21:
 182 0038 F3E7     		b	.L21
 183              	.LVL22:
 184              	.L29:
 185              		.loc 1 540 0
 186 003a FFF7FEFF 		bl	__stack_chk_fail
 187              	.LVL23:
 188              	.L31:
 189 003e 00BF     		.align	2
 190              	.L30:
 191 0040 00000000 		.word	__stack_chk_guard
 192 0044 02000000 		.word	.LANCHOR1+2
 193 0048 00000000 		.word	.LANCHOR2
 194              		.cfi_endproc
 195              	.LFE220:
 196              		.size	ff_wtoupper, .-ff_wtoupper
 197              		.section	.rodata.Tbl,"a",%progbits
 198              		.align	2
 199              		.set	.LANCHOR0,. + 0
 200              		.type	Tbl, %object
 201              		.size	Tbl, 256
 202              	Tbl:
 203 0000 AC20     		.short	8364
 204 0002 0000     		.short	0
 205 0004 1A20     		.short	8218
 206 0006 9201     		.short	402
 207 0008 1E20     		.short	8222
 208 000a 2620     		.short	8230
 209 000c 2020     		.short	8224
 210 000e 2120     		.short	8225
 211 0010 C602     		.short	710
 212 0012 3020     		.short	8240
 213 0014 6001     		.short	352
 214 0016 3920     		.short	8249
 215 0018 5201     		.short	338
 216 001a 0000     		.short	0
 217 001c 7D01     		.short	381
 218 001e 0000     		.short	0
 219 0020 0000     		.short	0
 220 0022 1820     		.short	8216
 221 0024 1920     		.short	8217
 222 0026 1C20     		.short	8220
 223 0028 1D20     		.short	8221
 224 002a 2220     		.short	8226
 225 002c 1320     		.short	8211
 226 002e 1420     		.short	8212
 227 0030 DC02     		.short	732
 228 0032 2221     		.short	8482
ARM GAS  C:\Users\mathi\AppData\Local\Temp\cc1oOiLv.s 			page 5


 229 0034 6101     		.short	353
 230 0036 3A20     		.short	8250
 231 0038 5301     		.short	339
 232 003a 0000     		.short	0
 233 003c 7E01     		.short	382
 234 003e 7801     		.short	376
 235 0040 A000     		.short	160
 236 0042 A100     		.short	161
 237 0044 A200     		.short	162
 238 0046 A300     		.short	163
 239 0048 A400     		.short	164
 240 004a A500     		.short	165
 241 004c A600     		.short	166
 242 004e A700     		.short	167
 243 0050 A800     		.short	168
 244 0052 A900     		.short	169
 245 0054 AA00     		.short	170
 246 0056 AB00     		.short	171
 247 0058 AC00     		.short	172
 248 005a AD00     		.short	173
 249 005c AE00     		.short	174
 250 005e AF00     		.short	175
 251 0060 B000     		.short	176
 252 0062 B100     		.short	177
 253 0064 B200     		.short	178
 254 0066 B300     		.short	179
 255 0068 B400     		.short	180
 256 006a B500     		.short	181
 257 006c B600     		.short	182
 258 006e B700     		.short	183
 259 0070 B800     		.short	184
 260 0072 B900     		.short	185
 261 0074 BA00     		.short	186
 262 0076 BB00     		.short	187
 263 0078 BC00     		.short	188
 264 007a BD00     		.short	189
 265 007c BE00     		.short	190
 266 007e BF00     		.short	191
 267 0080 C000     		.short	192
 268 0082 C100     		.short	193
 269 0084 C200     		.short	194
 270 0086 C300     		.short	195
 271 0088 C400     		.short	196
 272 008a C500     		.short	197
 273 008c C600     		.short	198
 274 008e C700     		.short	199
 275 0090 C800     		.short	200
 276 0092 C900     		.short	201
 277 0094 CA00     		.short	202
 278 0096 CB00     		.short	203
 279 0098 CC00     		.short	204
 280 009a CD00     		.short	205
 281 009c CE00     		.short	206
 282 009e CF00     		.short	207
 283 00a0 D000     		.short	208
 284 00a2 D100     		.short	209
 285 00a4 D200     		.short	210
ARM GAS  C:\Users\mathi\AppData\Local\Temp\cc1oOiLv.s 			page 6


 286 00a6 D300     		.short	211
 287 00a8 D400     		.short	212
 288 00aa D500     		.short	213
 289 00ac D600     		.short	214
 290 00ae D700     		.short	215
 291 00b0 D800     		.short	216
 292 00b2 D900     		.short	217
 293 00b4 DA00     		.short	218
 294 00b6 DB00     		.short	219
 295 00b8 DC00     		.short	220
 296 00ba DD00     		.short	221
 297 00bc DE00     		.short	222
 298 00be DF00     		.short	223
 299 00c0 E000     		.short	224
 300 00c2 E100     		.short	225
 301 00c4 E200     		.short	226
 302 00c6 E300     		.short	227
 303 00c8 E400     		.short	228
 304 00ca E500     		.short	229
 305 00cc E600     		.short	230
 306 00ce E700     		.short	231
 307 00d0 E800     		.short	232
 308 00d2 E900     		.short	233
 309 00d4 EA00     		.short	234
 310 00d6 EB00     		.short	235
 311 00d8 EC00     		.short	236
 312 00da ED00     		.short	237
 313 00dc EE00     		.short	238
 314 00de EF00     		.short	239
 315 00e0 F000     		.short	240
 316 00e2 F100     		.short	241
 317 00e4 F200     		.short	242
 318 00e6 F300     		.short	243
 319 00e8 F400     		.short	244
 320 00ea F500     		.short	245
 321 00ec F600     		.short	246
 322 00ee F700     		.short	247
 323 00f0 F800     		.short	248
 324 00f2 F900     		.short	249
 325 00f4 FA00     		.short	250
 326 00f6 FB00     		.short	251
 327 00f8 FC00     		.short	252
 328 00fa FD00     		.short	253
 329 00fc FE00     		.short	254
 330 00fe FF00     		.short	255
 331              		.section	.rodata.tbl_lower.8049,"a",%progbits
 332              		.align	2
 333              		.set	.LANCHOR1,. + 0
 334              		.type	tbl_lower.8049, %object
 335              		.size	tbl_lower.8049, 480
 336              	tbl_lower.8049:
 337 0000 6100     		.short	97
 338 0002 6200     		.short	98
 339 0004 6300     		.short	99
 340 0006 6400     		.short	100
 341 0008 6500     		.short	101
 342 000a 6600     		.short	102
ARM GAS  C:\Users\mathi\AppData\Local\Temp\cc1oOiLv.s 			page 7


 343 000c 6700     		.short	103
 344 000e 6800     		.short	104
 345 0010 6900     		.short	105
 346 0012 6A00     		.short	106
 347 0014 6B00     		.short	107
 348 0016 6C00     		.short	108
 349 0018 6D00     		.short	109
 350 001a 6E00     		.short	110
 351 001c 6F00     		.short	111
 352 001e 7000     		.short	112
 353 0020 7100     		.short	113
 354 0022 7200     		.short	114
 355 0024 7300     		.short	115
 356 0026 7400     		.short	116
 357 0028 7500     		.short	117
 358 002a 7600     		.short	118
 359 002c 7700     		.short	119
 360 002e 7800     		.short	120
 361 0030 7900     		.short	121
 362 0032 7A00     		.short	122
 363 0034 A100     		.short	161
 364 0036 A200     		.short	162
 365 0038 A300     		.short	163
 366 003a A500     		.short	165
 367 003c AC00     		.short	172
 368 003e AF00     		.short	175
 369 0040 E000     		.short	224
 370 0042 E100     		.short	225
 371 0044 E200     		.short	226
 372 0046 E300     		.short	227
 373 0048 E400     		.short	228
 374 004a E500     		.short	229
 375 004c E600     		.short	230
 376 004e E700     		.short	231
 377 0050 E800     		.short	232
 378 0052 E900     		.short	233
 379 0054 EA00     		.short	234
 380 0056 EB00     		.short	235
 381 0058 EC00     		.short	236
 382 005a ED00     		.short	237
 383 005c EE00     		.short	238
 384 005e EF00     		.short	239
 385 0060 F000     		.short	240
 386 0062 F100     		.short	241
 387 0064 F200     		.short	242
 388 0066 F300     		.short	243
 389 0068 F400     		.short	244
 390 006a F500     		.short	245
 391 006c F600     		.short	246
 392 006e F800     		.short	248
 393 0070 F900     		.short	249
 394 0072 FA00     		.short	250
 395 0074 FB00     		.short	251
 396 0076 FC00     		.short	252
 397 0078 FD00     		.short	253
 398 007a FE00     		.short	254
 399 007c FF00     		.short	255
ARM GAS  C:\Users\mathi\AppData\Local\Temp\cc1oOiLv.s 			page 8


 400 007e 0101     		.short	257
 401 0080 0301     		.short	259
 402 0082 0501     		.short	261
 403 0084 0701     		.short	263
 404 0086 0901     		.short	265
 405 0088 0B01     		.short	267
 406 008a 0D01     		.short	269
 407 008c 0F01     		.short	271
 408 008e 1101     		.short	273
 409 0090 1301     		.short	275
 410 0092 1501     		.short	277
 411 0094 1701     		.short	279
 412 0096 1901     		.short	281
 413 0098 1B01     		.short	283
 414 009a 1D01     		.short	285
 415 009c 1F01     		.short	287
 416 009e 2101     		.short	289
 417 00a0 2301     		.short	291
 418 00a2 2501     		.short	293
 419 00a4 2701     		.short	295
 420 00a6 2901     		.short	297
 421 00a8 2B01     		.short	299
 422 00aa 2D01     		.short	301
 423 00ac 2F01     		.short	303
 424 00ae 3101     		.short	305
 425 00b0 3301     		.short	307
 426 00b2 3501     		.short	309
 427 00b4 3701     		.short	311
 428 00b6 3A01     		.short	314
 429 00b8 3C01     		.short	316
 430 00ba 3E01     		.short	318
 431 00bc 4001     		.short	320
 432 00be 4201     		.short	322
 433 00c0 4401     		.short	324
 434 00c2 4601     		.short	326
 435 00c4 4801     		.short	328
 436 00c6 4B01     		.short	331
 437 00c8 4D01     		.short	333
 438 00ca 4F01     		.short	335
 439 00cc 5101     		.short	337
 440 00ce 5301     		.short	339
 441 00d0 5501     		.short	341
 442 00d2 5701     		.short	343
 443 00d4 5901     		.short	345
 444 00d6 5B01     		.short	347
 445 00d8 5D01     		.short	349
 446 00da 5F01     		.short	351
 447 00dc 6101     		.short	353
 448 00de 6301     		.short	355
 449 00e0 6501     		.short	357
 450 00e2 6701     		.short	359
 451 00e4 6901     		.short	361
 452 00e6 6B01     		.short	363
 453 00e8 6D01     		.short	365
 454 00ea 6F01     		.short	367
 455 00ec 7101     		.short	369
 456 00ee 7301     		.short	371
ARM GAS  C:\Users\mathi\AppData\Local\Temp\cc1oOiLv.s 			page 9


 457 00f0 7501     		.short	373
 458 00f2 7701     		.short	375
 459 00f4 7A01     		.short	378
 460 00f6 7C01     		.short	380
 461 00f8 7E01     		.short	382
 462 00fa 9201     		.short	402
 463 00fc B103     		.short	945
 464 00fe B203     		.short	946
 465 0100 B303     		.short	947
 466 0102 B403     		.short	948
 467 0104 B503     		.short	949
 468 0106 B603     		.short	950
 469 0108 B703     		.short	951
 470 010a B803     		.short	952
 471 010c B903     		.short	953
 472 010e BA03     		.short	954
 473 0110 BB03     		.short	955
 474 0112 BC03     		.short	956
 475 0114 BD03     		.short	957
 476 0116 BE03     		.short	958
 477 0118 BF03     		.short	959
 478 011a C003     		.short	960
 479 011c C103     		.short	961
 480 011e C303     		.short	963
 481 0120 C403     		.short	964
 482 0122 C503     		.short	965
 483 0124 C603     		.short	966
 484 0126 C703     		.short	967
 485 0128 C803     		.short	968
 486 012a C903     		.short	969
 487 012c CA03     		.short	970
 488 012e 3004     		.short	1072
 489 0130 3104     		.short	1073
 490 0132 3204     		.short	1074
 491 0134 3304     		.short	1075
 492 0136 3404     		.short	1076
 493 0138 3504     		.short	1077
 494 013a 3604     		.short	1078
 495 013c 3704     		.short	1079
 496 013e 3804     		.short	1080
 497 0140 3904     		.short	1081
 498 0142 3A04     		.short	1082
 499 0144 3B04     		.short	1083
 500 0146 3C04     		.short	1084
 501 0148 3D04     		.short	1085
 502 014a 3E04     		.short	1086
 503 014c 3F04     		.short	1087
 504 014e 4004     		.short	1088
 505 0150 4104     		.short	1089
 506 0152 4204     		.short	1090
 507 0154 4304     		.short	1091
 508 0156 4404     		.short	1092
 509 0158 4504     		.short	1093
 510 015a 4604     		.short	1094
 511 015c 4704     		.short	1095
 512 015e 4804     		.short	1096
 513 0160 4904     		.short	1097
ARM GAS  C:\Users\mathi\AppData\Local\Temp\cc1oOiLv.s 			page 10


 514 0162 4A04     		.short	1098
 515 0164 4B04     		.short	1099
 516 0166 4C04     		.short	1100
 517 0168 4D04     		.short	1101
 518 016a 4E04     		.short	1102
 519 016c 4F04     		.short	1103
 520 016e 5104     		.short	1105
 521 0170 5204     		.short	1106
 522 0172 5304     		.short	1107
 523 0174 5404     		.short	1108
 524 0176 5504     		.short	1109
 525 0178 5604     		.short	1110
 526 017a 5704     		.short	1111
 527 017c 5804     		.short	1112
 528 017e 5904     		.short	1113
 529 0180 5A04     		.short	1114
 530 0182 5B04     		.short	1115
 531 0184 5C04     		.short	1116
 532 0186 5E04     		.short	1118
 533 0188 5F04     		.short	1119
 534 018a 7021     		.short	8560
 535 018c 7121     		.short	8561
 536 018e 7221     		.short	8562
 537 0190 7321     		.short	8563
 538 0192 7421     		.short	8564
 539 0194 7521     		.short	8565
 540 0196 7621     		.short	8566
 541 0198 7721     		.short	8567
 542 019a 7821     		.short	8568
 543 019c 7921     		.short	8569
 544 019e 7A21     		.short	8570
 545 01a0 7B21     		.short	8571
 546 01a2 7C21     		.short	8572
 547 01a4 7D21     		.short	8573
 548 01a6 7E21     		.short	8574
 549 01a8 7F21     		.short	8575
 550 01aa 41FF     		.short	-191
 551 01ac 42FF     		.short	-190
 552 01ae 43FF     		.short	-189
 553 01b0 44FF     		.short	-188
 554 01b2 45FF     		.short	-187
 555 01b4 46FF     		.short	-186
 556 01b6 47FF     		.short	-185
 557 01b8 48FF     		.short	-184
 558 01ba 49FF     		.short	-183
 559 01bc 4AFF     		.short	-182
 560 01be 4BFF     		.short	-181
 561 01c0 4CFF     		.short	-180
 562 01c2 4DFF     		.short	-179
 563 01c4 4EFF     		.short	-178
 564 01c6 4FFF     		.short	-177
 565 01c8 50FF     		.short	-176
 566 01ca 51FF     		.short	-175
 567 01cc 52FF     		.short	-174
 568 01ce 53FF     		.short	-173
 569 01d0 54FF     		.short	-172
 570 01d2 55FF     		.short	-171
ARM GAS  C:\Users\mathi\AppData\Local\Temp\cc1oOiLv.s 			page 11


 571 01d4 56FF     		.short	-170
 572 01d6 57FF     		.short	-169
 573 01d8 58FF     		.short	-168
 574 01da 59FF     		.short	-167
 575 01dc 5AFF     		.short	-166
 576 01de 0000     		.short	0
 577              		.section	.rodata.tbl_upper.8050,"a",%progbits
 578              		.align	2
 579              		.set	.LANCHOR2,. + 0
 580              		.type	tbl_upper.8050, %object
 581              		.size	tbl_upper.8050, 480
 582              	tbl_upper.8050:
 583 0000 4100     		.short	65
 584 0002 4200     		.short	66
 585 0004 4300     		.short	67
 586 0006 4400     		.short	68
 587 0008 4500     		.short	69
 588 000a 4600     		.short	70
 589 000c 4700     		.short	71
 590 000e 4800     		.short	72
 591 0010 4900     		.short	73
 592 0012 4A00     		.short	74
 593 0014 4B00     		.short	75
 594 0016 4C00     		.short	76
 595 0018 4D00     		.short	77
 596 001a 4E00     		.short	78
 597 001c 4F00     		.short	79
 598 001e 5000     		.short	80
 599 0020 5100     		.short	81
 600 0022 5200     		.short	82
 601 0024 5300     		.short	83
 602 0026 5400     		.short	84
 603 0028 5500     		.short	85
 604 002a 5600     		.short	86
 605 002c 5700     		.short	87
 606 002e 5800     		.short	88
 607 0030 5900     		.short	89
 608 0032 5A00     		.short	90
 609 0034 2100     		.short	33
 610 0036 E0FF     		.short	-32
 611 0038 E1FF     		.short	-31
 612 003a E5FF     		.short	-27
 613 003c E2FF     		.short	-30
 614 003e E3FF     		.short	-29
 615 0040 C000     		.short	192
 616 0042 C100     		.short	193
 617 0044 C200     		.short	194
 618 0046 C300     		.short	195
 619 0048 C400     		.short	196
 620 004a C500     		.short	197
 621 004c C600     		.short	198
 622 004e C700     		.short	199
 623 0050 C800     		.short	200
 624 0052 C900     		.short	201
 625 0054 CA00     		.short	202
 626 0056 CB00     		.short	203
 627 0058 CC00     		.short	204
ARM GAS  C:\Users\mathi\AppData\Local\Temp\cc1oOiLv.s 			page 12


 628 005a CD00     		.short	205
 629 005c CE00     		.short	206
 630 005e CF00     		.short	207
 631 0060 D000     		.short	208
 632 0062 D100     		.short	209
 633 0064 D200     		.short	210
 634 0066 D300     		.short	211
 635 0068 D400     		.short	212
 636 006a D500     		.short	213
 637 006c D600     		.short	214
 638 006e D800     		.short	216
 639 0070 D900     		.short	217
 640 0072 DA00     		.short	218
 641 0074 DB00     		.short	219
 642 0076 DC00     		.short	220
 643 0078 DD00     		.short	221
 644 007a DE00     		.short	222
 645 007c 7801     		.short	376
 646 007e 0001     		.short	256
 647 0080 0201     		.short	258
 648 0082 0401     		.short	260
 649 0084 0601     		.short	262
 650 0086 0801     		.short	264
 651 0088 0A01     		.short	266
 652 008a 0C01     		.short	268
 653 008c 0E01     		.short	270
 654 008e 1001     		.short	272
 655 0090 1201     		.short	274
 656 0092 1401     		.short	276
 657 0094 1601     		.short	278
 658 0096 1801     		.short	280
 659 0098 1A01     		.short	282
 660 009a 1C01     		.short	284
 661 009c 1E01     		.short	286
 662 009e 2001     		.short	288
 663 00a0 2201     		.short	290
 664 00a2 2401     		.short	292
 665 00a4 2601     		.short	294
 666 00a6 2801     		.short	296
 667 00a8 2A01     		.short	298
 668 00aa 2C01     		.short	300
 669 00ac 2E01     		.short	302
 670 00ae 3001     		.short	304
 671 00b0 3201     		.short	306
 672 00b2 3401     		.short	308
 673 00b4 3601     		.short	310
 674 00b6 3901     		.short	313
 675 00b8 3B01     		.short	315
 676 00ba 3D01     		.short	317
 677 00bc 3F01     		.short	319
 678 00be 4101     		.short	321
 679 00c0 4301     		.short	323
 680 00c2 4501     		.short	325
 681 00c4 4701     		.short	327
 682 00c6 4A01     		.short	330
 683 00c8 4C01     		.short	332
 684 00ca 4E01     		.short	334
ARM GAS  C:\Users\mathi\AppData\Local\Temp\cc1oOiLv.s 			page 13


 685 00cc 5001     		.short	336
 686 00ce 5201     		.short	338
 687 00d0 5401     		.short	340
 688 00d2 5601     		.short	342
 689 00d4 5801     		.short	344
 690 00d6 5A01     		.short	346
 691 00d8 5C01     		.short	348
 692 00da 5E01     		.short	350
 693 00dc 6001     		.short	352
 694 00de 6201     		.short	354
 695 00e0 6401     		.short	356
 696 00e2 6601     		.short	358
 697 00e4 6801     		.short	360
 698 00e6 6A01     		.short	362
 699 00e8 6C01     		.short	364
 700 00ea 6E01     		.short	366
 701 00ec 7001     		.short	368
 702 00ee 7201     		.short	370
 703 00f0 7401     		.short	372
 704 00f2 7601     		.short	374
 705 00f4 7901     		.short	377
 706 00f6 7B01     		.short	379
 707 00f8 7D01     		.short	381
 708 00fa 9101     		.short	401
 709 00fc 9103     		.short	913
 710 00fe 9203     		.short	914
 711 0100 9303     		.short	915
 712 0102 9403     		.short	916
 713 0104 9503     		.short	917
 714 0106 9603     		.short	918
 715 0108 9703     		.short	919
 716 010a 9803     		.short	920
 717 010c 9903     		.short	921
 718 010e 9A03     		.short	922
 719 0110 9B03     		.short	923
 720 0112 9C03     		.short	924
 721 0114 9D03     		.short	925
 722 0116 9E03     		.short	926
 723 0118 9F03     		.short	927
 724 011a A003     		.short	928
 725 011c A103     		.short	929
 726 011e A303     		.short	931
 727 0120 A403     		.short	932
 728 0122 A503     		.short	933
 729 0124 A603     		.short	934
 730 0126 A703     		.short	935
 731 0128 A803     		.short	936
 732 012a A903     		.short	937
 733 012c AA03     		.short	938
 734 012e 1004     		.short	1040
 735 0130 1104     		.short	1041
 736 0132 1204     		.short	1042
 737 0134 1304     		.short	1043
 738 0136 1404     		.short	1044
 739 0138 1504     		.short	1045
 740 013a 1604     		.short	1046
 741 013c 1704     		.short	1047
ARM GAS  C:\Users\mathi\AppData\Local\Temp\cc1oOiLv.s 			page 14


 742 013e 1804     		.short	1048
 743 0140 1904     		.short	1049
 744 0142 1A04     		.short	1050
 745 0144 1B04     		.short	1051
 746 0146 1C04     		.short	1052
 747 0148 1D04     		.short	1053
 748 014a 1E04     		.short	1054
 749 014c 1F04     		.short	1055
 750 014e 2004     		.short	1056
 751 0150 2104     		.short	1057
 752 0152 2204     		.short	1058
 753 0154 2304     		.short	1059
 754 0156 2404     		.short	1060
 755 0158 2504     		.short	1061
 756 015a 2604     		.short	1062
 757 015c 2704     		.short	1063
 758 015e 2804     		.short	1064
 759 0160 2904     		.short	1065
 760 0162 2A04     		.short	1066
 761 0164 2B04     		.short	1067
 762 0166 2C04     		.short	1068
 763 0168 2D04     		.short	1069
 764 016a 2E04     		.short	1070
 765 016c 2F04     		.short	1071
 766 016e 0104     		.short	1025
 767 0170 0204     		.short	1026
 768 0172 0304     		.short	1027
 769 0174 0404     		.short	1028
 770 0176 0504     		.short	1029
 771 0178 0604     		.short	1030
 772 017a 0704     		.short	1031
 773 017c 0804     		.short	1032
 774 017e 0904     		.short	1033
 775 0180 0A04     		.short	1034
 776 0182 0B04     		.short	1035
 777 0184 0C04     		.short	1036
 778 0186 0E04     		.short	1038
 779 0188 0F04     		.short	1039
 780 018a 6021     		.short	8544
 781 018c 6121     		.short	8545
 782 018e 6221     		.short	8546
 783 0190 6321     		.short	8547
 784 0192 6421     		.short	8548
 785 0194 6521     		.short	8549
 786 0196 6621     		.short	8550
 787 0198 6721     		.short	8551
 788 019a 6821     		.short	8552
 789 019c 6921     		.short	8553
 790 019e 6A21     		.short	8554
 791 01a0 6B21     		.short	8555
 792 01a2 6C21     		.short	8556
 793 01a4 6D21     		.short	8557
 794 01a6 6E21     		.short	8558
 795 01a8 6F21     		.short	8559
 796 01aa 21FF     		.short	-223
 797 01ac 22FF     		.short	-222
 798 01ae 23FF     		.short	-221
ARM GAS  C:\Users\mathi\AppData\Local\Temp\cc1oOiLv.s 			page 15


 799 01b0 24FF     		.short	-220
 800 01b2 25FF     		.short	-219
 801 01b4 26FF     		.short	-218
 802 01b6 27FF     		.short	-217
 803 01b8 28FF     		.short	-216
 804 01ba 29FF     		.short	-215
 805 01bc 2AFF     		.short	-214
 806 01be 2BFF     		.short	-213
 807 01c0 2CFF     		.short	-212
 808 01c2 2DFF     		.short	-211
 809 01c4 2EFF     		.short	-210
 810 01c6 2FFF     		.short	-209
 811 01c8 30FF     		.short	-208
 812 01ca 31FF     		.short	-207
 813 01cc 32FF     		.short	-206
 814 01ce 33FF     		.short	-205
 815 01d0 34FF     		.short	-204
 816 01d2 35FF     		.short	-203
 817 01d4 36FF     		.short	-202
 818 01d6 37FF     		.short	-201
 819 01d8 38FF     		.short	-200
 820 01da 39FF     		.short	-199
 821 01dc 3AFF     		.short	-198
 822 01de 0000     		.short	0
 823              		.text
 824              	.Letext0:
 825              		.file 2 "../../lib/e-puck2_main-processor/ChibiOS_ext//ext/fatfs/src/option/../integer.h"
 826              		.file 3 "c:\\eclipse_e-puck2\\tools\\gcc-arm-none-eabi-7-2017-q4-major-win32\\lib\\gcc\\arm-none-e
 827              		.file 4 "c:\\eclipse_e-puck2\\tools\\gcc-arm-none-eabi-7-2017-q4-major-win32\\arm-none-eabi\\inclu
 828              		.file 5 "c:\\eclipse_e-puck2\\tools\\gcc-arm-none-eabi-7-2017-q4-major-win32\\arm-none-eabi\\inclu
 829              		.file 6 "../../lib/e-puck2_main-processor/ChibiOS//os/rt/ports/ARMCMx/compilers/GCC/chtypes.h"
 830              		.file 7 "../../lib/e-puck2_main-processor/ChibiOS//os/rt/include/chsystypes.h"
 831              		.file 8 "../../lib/e-puck2_main-processor/ChibiOS//os/rt/include/chschd.h"
 832              		.file 9 "../../lib/e-puck2_main-processor/ChibiOS//os/ext/CMSIS/include/core_cm4.h"
 833              		.file 10 "../../lib/e-puck2_main-processor/ChibiOS//os/ext/CMSIS/ST/system_stm32f4xx.h"
 834              		.file 11 "../../lib/e-puck2_main-processor/ChibiOS//os/rt/ports/ARMCMx/chcore.h"
 835              		.file 12 "../../lib/e-puck2_main-processor/ChibiOS//os/rt/ports/ARMCMx/chcore_v7m.h"
 836              		.file 13 "../../lib/e-puck2_main-processor/ChibiOS//os/rt/include/chdebug.h"
 837              		.file 14 "../../lib/e-puck2_main-processor/ChibiOS//os/rt/include/chtm.h"
 838              		.file 15 "../../lib/e-puck2_main-processor/ChibiOS//os/rt/include/chstats.h"
 839              		.file 16 "../../lib/e-puck2_main-processor/ChibiOS//os/rt/include/chsem.h"
 840              		.file 17 "../../lib/e-puck2_main-processor/ChibiOS//os/rt/include/chmtx.h"
 841              		.file 18 "../../lib/e-puck2_main-processor/ChibiOS//os/rt/include/chregistry.h"
 842              		.section	.debug_info,"",%progbits
 843              	.Ldebug_info0:
 844 0000 0C0B0000 		.4byte	0xb0c
 845 0004 0400     		.2byte	0x4
 846 0006 00000000 		.4byte	.Ldebug_abbrev0
 847 000a 04       		.byte	0x4
 848 000b 01       		.uleb128 0x1
 849 000c 61040000 		.4byte	.LASF163
 850 0010 0C       		.byte	0xc
 851 0011 EE050000 		.4byte	.LASF164
 852 0015 81020000 		.4byte	.LASF165
 853 0019 00000000 		.4byte	.Ldebug_ranges0+0
 854 001d 00000000 		.4byte	0
 855 0021 00000000 		.4byte	.Ldebug_line0
ARM GAS  C:\Users\mathi\AppData\Local\Temp\cc1oOiLv.s 			page 16


 856 0025 02       		.uleb128 0x2
 857 0026 01       		.byte	0x1
 858 0027 08       		.byte	0x8
 859 0028 53060000 		.4byte	.LASF0
 860 002c 02       		.uleb128 0x2
 861 002d 02       		.byte	0x2
 862 002e 05       		.byte	0x5
 863 002f 6B060000 		.4byte	.LASF1
 864 0033 02       		.uleb128 0x2
 865 0034 02       		.byte	0x2
 866 0035 07       		.byte	0x7
 867 0036 F7020000 		.4byte	.LASF2
 868 003a 03       		.uleb128 0x3
 869 003b 34080000 		.4byte	.LASF3
 870 003f 02       		.byte	0x2
 871 0040 15       		.byte	0x15
 872 0041 33000000 		.4byte	0x33
 873 0045 04       		.uleb128 0x4
 874 0046 3A000000 		.4byte	0x3a
 875 004a 05       		.uleb128 0x5
 876 004b 04       		.byte	0x4
 877 004c 05       		.byte	0x5
 878 004d 696E7400 		.ascii	"int\000"
 879 0051 03       		.uleb128 0x3
 880 0052 7C020000 		.4byte	.LASF4
 881 0056 02       		.byte	0x2
 882 0057 19       		.byte	0x19
 883 0058 5C000000 		.4byte	0x5c
 884 005c 02       		.uleb128 0x2
 885 005d 04       		.byte	0x4
 886 005e 07       		.byte	0x7
 887 005f 40020000 		.4byte	.LASF5
 888 0063 02       		.uleb128 0x2
 889 0064 04       		.byte	0x4
 890 0065 05       		.byte	0x5
 891 0066 9C010000 		.4byte	.LASF6
 892 006a 02       		.uleb128 0x2
 893 006b 04       		.byte	0x4
 894 006c 07       		.byte	0x7
 895 006d 53070000 		.4byte	.LASF7
 896 0071 03       		.uleb128 0x3
 897 0072 2C000000 		.4byte	.LASF8
 898 0076 03       		.byte	0x3
 899 0077 D8       		.byte	0xd8
 900 0078 5C000000 		.4byte	0x5c
 901 007c 02       		.uleb128 0x2
 902 007d 08       		.byte	0x8
 903 007e 05       		.byte	0x5
 904 007f 1D010000 		.4byte	.LASF9
 905 0083 02       		.uleb128 0x2
 906 0084 08       		.byte	0x8
 907 0085 04       		.byte	0x4
 908 0086 DA030000 		.4byte	.LASF10
 909 008a 02       		.uleb128 0x2
 910 008b 01       		.byte	0x1
 911 008c 06       		.byte	0x6
 912 008d 2B010000 		.4byte	.LASF11
ARM GAS  C:\Users\mathi\AppData\Local\Temp\cc1oOiLv.s 			page 17


 913 0091 03       		.uleb128 0x3
 914 0092 43000000 		.4byte	.LASF12
 915 0096 04       		.byte	0x4
 916 0097 2B       		.byte	0x2b
 917 0098 25000000 		.4byte	0x25
 918 009c 03       		.uleb128 0x3
 919 009d 71070000 		.4byte	.LASF13
 920 00a1 04       		.byte	0x4
 921 00a2 39       		.byte	0x39
 922 00a3 33000000 		.4byte	0x33
 923 00a7 03       		.uleb128 0x3
 924 00a8 72030000 		.4byte	.LASF14
 925 00ac 04       		.byte	0x4
 926 00ad 4D       		.byte	0x4d
 927 00ae 63000000 		.4byte	0x63
 928 00b2 03       		.uleb128 0x3
 929 00b3 AF070000 		.4byte	.LASF15
 930 00b7 04       		.byte	0x4
 931 00b8 4F       		.byte	0x4f
 932 00b9 6A000000 		.4byte	0x6a
 933 00bd 03       		.uleb128 0x3
 934 00be 4B040000 		.4byte	.LASF16
 935 00c2 04       		.byte	0x4
 936 00c3 69       		.byte	0x69
 937 00c4 C8000000 		.4byte	0xc8
 938 00c8 02       		.uleb128 0x2
 939 00c9 08       		.byte	0x8
 940 00ca 07       		.byte	0x7
 941 00cb 92000000 		.4byte	.LASF17
 942 00cf 03       		.uleb128 0x3
 943 00d0 12080000 		.4byte	.LASF18
 944 00d4 05       		.byte	0x5
 945 00d5 18       		.byte	0x18
 946 00d6 91000000 		.4byte	0x91
 947 00da 03       		.uleb128 0x3
 948 00db 55020000 		.4byte	.LASF19
 949 00df 05       		.byte	0x5
 950 00e0 24       		.byte	0x24
 951 00e1 9C000000 		.4byte	0x9c
 952 00e5 03       		.uleb128 0x3
 953 00e6 4B060000 		.4byte	.LASF20
 954 00ea 05       		.byte	0x5
 955 00eb 2C       		.byte	0x2c
 956 00ec A7000000 		.4byte	0xa7
 957 00f0 06       		.uleb128 0x6
 958 00f1 E5000000 		.4byte	0xe5
 959 00f5 03       		.uleb128 0x3
 960 00f6 1E070000 		.4byte	.LASF21
 961 00fa 05       		.byte	0x5
 962 00fb 30       		.byte	0x30
 963 00fc B2000000 		.4byte	0xb2
 964 0100 03       		.uleb128 0x3
 965 0101 3A000000 		.4byte	.LASF22
 966 0105 05       		.byte	0x5
 967 0106 3C       		.byte	0x3c
 968 0107 BD000000 		.4byte	0xbd
 969 010b 03       		.uleb128 0x3
ARM GAS  C:\Users\mathi\AppData\Local\Temp\cc1oOiLv.s 			page 18


 970 010c BB030000 		.4byte	.LASF23
 971 0110 06       		.byte	0x6
 972 0111 45       		.byte	0x45
 973 0112 F5000000 		.4byte	0xf5
 974 0116 03       		.uleb128 0x3
 975 0117 00010000 		.4byte	.LASF24
 976 011b 06       		.byte	0x6
 977 011c 46       		.byte	0x46
 978 011d 00010000 		.4byte	0x100
 979 0121 03       		.uleb128 0x3
 980 0122 A0060000 		.4byte	.LASF25
 981 0126 06       		.byte	0x6
 982 0127 48       		.byte	0x48
 983 0128 CF000000 		.4byte	0xcf
 984 012c 03       		.uleb128 0x3
 985 012d A5010000 		.4byte	.LASF26
 986 0131 06       		.byte	0x6
 987 0132 49       		.byte	0x49
 988 0133 CF000000 		.4byte	0xcf
 989 0137 03       		.uleb128 0x3
 990 0138 B2050000 		.4byte	.LASF27
 991 013c 06       		.byte	0x6
 992 013d 4A       		.byte	0x4a
 993 013e CF000000 		.4byte	0xcf
 994 0142 03       		.uleb128 0x3
 995 0143 77010000 		.4byte	.LASF28
 996 0147 06       		.byte	0x6
 997 0148 4B       		.byte	0x4b
 998 0149 CF000000 		.4byte	0xcf
 999 014d 03       		.uleb128 0x3
 1000 014e E6050000 		.4byte	.LASF29
 1001 0152 06       		.byte	0x6
 1002 0153 4C       		.byte	0x4c
 1003 0154 F5000000 		.4byte	0xf5
 1004 0158 03       		.uleb128 0x3
 1005 0159 23030000 		.4byte	.LASF30
 1006 015d 06       		.byte	0x6
 1007 015e 4D       		.byte	0x4d
 1008 015f E5000000 		.4byte	0xe5
 1009 0163 03       		.uleb128 0x3
 1010 0164 66030000 		.4byte	.LASF31
 1011 0168 06       		.byte	0x6
 1012 0169 4F       		.byte	0x4f
 1013 016a F5000000 		.4byte	0xf5
 1014 016e 03       		.uleb128 0x3
 1015 016f 2F020000 		.4byte	.LASF32
 1016 0173 06       		.byte	0x6
 1017 0174 51       		.byte	0x51
 1018 0175 E5000000 		.4byte	0xe5
 1019 0179 03       		.uleb128 0x3
 1020 017a 2E030000 		.4byte	.LASF33
 1021 017e 06       		.byte	0x6
 1022 017f 52       		.byte	0x52
 1023 0180 F5000000 		.4byte	0xf5
 1024 0184 03       		.uleb128 0x3
 1025 0185 91070000 		.4byte	.LASF34
 1026 0189 07       		.byte	0x7
ARM GAS  C:\Users\mathi\AppData\Local\Temp\cc1oOiLv.s 			page 19


 1027 018a 33       		.byte	0x33
 1028 018b F5000000 		.4byte	0xf5
 1029 018f 06       		.uleb128 0x6
 1030 0190 84010000 		.4byte	0x184
 1031 0194 03       		.uleb128 0x3
 1032 0195 7C070000 		.4byte	.LASF35
 1033 0199 07       		.byte	0x7
 1034 019a 3F       		.byte	0x3f
 1035 019b 9F010000 		.4byte	0x19f
 1036 019f 07       		.uleb128 0x7
 1037 01a0 19030000 		.4byte	.LASF59
 1038 01a4 68       		.byte	0x68
 1039 01a5 08       		.byte	0x8
 1040 01a6 C2       		.byte	0xc2
 1041 01a7 BD020000 		.4byte	0x2bd
 1042 01ab 08       		.uleb128 0x8
 1043 01ac 99060000 		.4byte	.LASF36
 1044 01b0 08       		.byte	0x8
 1045 01b1 C3       		.byte	0xc3
 1046 01b2 C8020000 		.4byte	0x2c8
 1047 01b6 00       		.byte	0
 1048 01b7 08       		.uleb128 0x8
 1049 01b8 DF050000 		.4byte	.LASF37
 1050 01bc 08       		.byte	0x8
 1051 01bd C5       		.byte	0xc5
 1052 01be C8020000 		.4byte	0x2c8
 1053 01c2 04       		.byte	0x4
 1054 01c3 08       		.uleb128 0x8
 1055 01c4 09010000 		.4byte	.LASF38
 1056 01c8 08       		.byte	0x8
 1057 01c9 C7       		.byte	0xc7
 1058 01ca 4D010000 		.4byte	0x14d
 1059 01ce 08       		.byte	0x8
 1060 01cf 08       		.uleb128 0x8
 1061 01d0 22040000 		.4byte	.LASF39
 1062 01d4 08       		.byte	0x8
 1063 01d5 C8       		.byte	0xc8
 1064 01d6 41050000 		.4byte	0x541
 1065 01da 0C       		.byte	0xc
 1066 01db 08       		.uleb128 0x8
 1067 01dc C8010000 		.4byte	.LASF40
 1068 01e0 08       		.byte	0x8
 1069 01e1 CA       		.byte	0xca
 1070 01e2 C8020000 		.4byte	0x2c8
 1071 01e6 10       		.byte	0x10
 1072 01e7 08       		.uleb128 0x8
 1073 01e8 14040000 		.4byte	.LASF41
 1074 01ec 08       		.byte	0x8
 1075 01ed CB       		.byte	0xcb
 1076 01ee C8020000 		.4byte	0x2c8
 1077 01f2 14       		.byte	0x14
 1078 01f3 08       		.uleb128 0x8
 1079 01f4 3B060000 		.4byte	.LASF42
 1080 01f8 08       		.byte	0x8
 1081 01f9 D2       		.byte	0xd2
 1082 01fa B7080000 		.4byte	0x8b7
 1083 01fe 18       		.byte	0x18
ARM GAS  C:\Users\mathi\AppData\Local\Temp\cc1oOiLv.s 			page 20


 1084 01ff 08       		.uleb128 0x8
 1085 0200 35020000 		.4byte	.LASF43
 1086 0204 08       		.byte	0x8
 1087 0205 D8       		.byte	0xd8
 1088 0206 CE080000 		.4byte	0x8ce
 1089 020a 1C       		.byte	0x1c
 1090 020b 08       		.uleb128 0x8
 1091 020c 75060000 		.4byte	.LASF44
 1092 0210 08       		.byte	0x8
 1093 0211 DD       		.byte	0xdd
 1094 0212 2C010000 		.4byte	0x12c
 1095 0216 20       		.byte	0x20
 1096 0217 08       		.uleb128 0x8
 1097 0218 B7060000 		.4byte	.LASF45
 1098 021c 08       		.byte	0x8
 1099 021d E1       		.byte	0xe1
 1100 021e 21010000 		.4byte	0x121
 1101 0222 21       		.byte	0x21
 1102 0223 08       		.uleb128 0x8
 1103 0224 F4070000 		.4byte	.LASF46
 1104 0228 08       		.byte	0x8
 1105 0229 E6       		.byte	0xe6
 1106 022a 37010000 		.4byte	0x137
 1107 022e 22       		.byte	0x22
 1108 022f 08       		.uleb128 0x8
 1109 0230 7D060000 		.4byte	.LASF47
 1110 0234 08       		.byte	0x8
 1111 0235 EC       		.byte	0xec
 1112 0236 42010000 		.4byte	0x142
 1113 023a 23       		.byte	0x23
 1114 023b 08       		.uleb128 0x8
 1115 023c 6E020000 		.4byte	.LASF48
 1116 0240 08       		.byte	0x8
 1117 0241 F3       		.byte	0xf3
 1118 0242 8F010000 		.4byte	0x18f
 1119 0246 24       		.byte	0x24
 1120 0247 09       		.uleb128 0x9
 1121 0248 705F7500 		.ascii	"p_u\000"
 1122 024c 08       		.byte	0x8
 1123 024d 3101     		.2byte	0x131
 1124 024f E6070000 		.4byte	0x7e6
 1125 0253 28       		.byte	0x28
 1126 0254 0A       		.uleb128 0xa
 1127 0255 B1030000 		.4byte	.LASF49
 1128 0259 08       		.byte	0x8
 1129 025a 3601     		.2byte	0x136
 1130 025c CE020000 		.4byte	0x2ce
 1131 0260 2C       		.byte	0x2c
 1132 0261 0A       		.uleb128 0xa
 1133 0262 D7020000 		.4byte	.LASF50
 1134 0266 08       		.byte	0x8
 1135 0267 3C01     		.2byte	0x13c
 1136 0269 F2020000 		.4byte	0x2f2
 1137 026d 30       		.byte	0x30
 1138 026e 0A       		.uleb128 0xa
 1139 026f D3070000 		.4byte	.LASF51
 1140 0273 08       		.byte	0x8
ARM GAS  C:\Users\mathi\AppData\Local\Temp\cc1oOiLv.s 			page 21


 1141 0274 4001     		.2byte	0x140
 1142 0276 58010000 		.4byte	0x158
 1143 027a 38       		.byte	0x38
 1144 027b 0A       		.uleb128 0xa
 1145 027c 13070000 		.4byte	.LASF52
 1146 0280 08       		.byte	0x8
 1147 0281 4601     		.2byte	0x146
 1148 0283 63010000 		.4byte	0x163
 1149 0287 3C       		.byte	0x3c
 1150 0288 0A       		.uleb128 0xa
 1151 0289 61060000 		.4byte	.LASF53
 1152 028d 08       		.byte	0x8
 1153 028e 4D01     		.2byte	0x14d
 1154 0290 B1080000 		.4byte	0x8b1
 1155 0294 40       		.byte	0x40
 1156 0295 0A       		.uleb128 0xa
 1157 0296 9B070000 		.4byte	.LASF54
 1158 029a 08       		.byte	0x8
 1159 029b 5101     		.2byte	0x151
 1160 029d 4D010000 		.4byte	0x14d
 1161 02a1 44       		.byte	0x44
 1162 02a2 0A       		.uleb128 0xa
 1163 02a3 60010000 		.4byte	.LASF55
 1164 02a7 08       		.byte	0x8
 1165 02a8 5801     		.2byte	0x158
 1166 02aa A5030000 		.4byte	0x3a5
 1167 02ae 48       		.byte	0x48
 1168 02af 0A       		.uleb128 0xa
 1169 02b0 BF060000 		.4byte	.LASF56
 1170 02b4 08       		.byte	0x8
 1171 02b5 5E01     		.2byte	0x15e
 1172 02b7 97070000 		.4byte	0x797
 1173 02bb 50       		.byte	0x50
 1174 02bc 00       		.byte	0
 1175 02bd 03       		.uleb128 0x3
 1176 02be 1A080000 		.4byte	.LASF57
 1177 02c2 07       		.byte	0x7
 1178 02c3 44       		.byte	0x44
 1179 02c4 C8020000 		.4byte	0x2c8
 1180 02c8 0B       		.uleb128 0xb
 1181 02c9 04       		.byte	0x4
 1182 02ca 94010000 		.4byte	0x194
 1183 02ce 03       		.uleb128 0x3
 1184 02cf 87030000 		.4byte	.LASF58
 1185 02d3 07       		.byte	0x7
 1186 02d4 49       		.byte	0x49
 1187 02d5 D9020000 		.4byte	0x2d9
 1188 02d9 07       		.uleb128 0x7
 1189 02da 3B070000 		.4byte	.LASF60
 1190 02de 04       		.byte	0x4
 1191 02df 08       		.byte	0x8
 1192 02e0 B0       		.byte	0xb0
 1193 02e1 F2020000 		.4byte	0x2f2
 1194 02e5 08       		.uleb128 0x8
 1195 02e6 99060000 		.4byte	.LASF36
 1196 02ea 08       		.byte	0x8
 1197 02eb B1       		.byte	0xb1
ARM GAS  C:\Users\mathi\AppData\Local\Temp\cc1oOiLv.s 			page 22


 1198 02ec C8020000 		.4byte	0x2c8
 1199 02f0 00       		.byte	0
 1200 02f1 00       		.byte	0
 1201 02f2 03       		.uleb128 0x3
 1202 02f3 C7060000 		.4byte	.LASF61
 1203 02f7 07       		.byte	0x7
 1204 02f8 50       		.byte	0x50
 1205 02f9 FD020000 		.4byte	0x2fd
 1206 02fd 07       		.uleb128 0x7
 1207 02fe 59000000 		.4byte	.LASF62
 1208 0302 08       		.byte	0x8
 1209 0303 08       		.byte	0x8
 1210 0304 B7       		.byte	0xb7
 1211 0305 22030000 		.4byte	0x322
 1212 0309 08       		.uleb128 0x8
 1213 030a 99060000 		.4byte	.LASF36
 1214 030e 08       		.byte	0x8
 1215 030f B8       		.byte	0xb8
 1216 0310 C8020000 		.4byte	0x2c8
 1217 0314 00       		.byte	0
 1218 0315 08       		.uleb128 0x8
 1219 0316 DF050000 		.4byte	.LASF37
 1220 031a 08       		.byte	0x8
 1221 031b B9       		.byte	0xb9
 1222 031c C8020000 		.4byte	0x2c8
 1223 0320 04       		.byte	0x4
 1224 0321 00       		.byte	0
 1225 0322 03       		.uleb128 0x3
 1226 0323 0D000000 		.4byte	.LASF63
 1227 0327 07       		.byte	0x7
 1228 0328 57       		.byte	0x57
 1229 0329 2D030000 		.4byte	0x32d
 1230 032d 0C       		.uleb128 0xc
 1231 032e 58030000 		.4byte	.LASF64
 1232 0332 1C       		.byte	0x1c
 1233 0333 08       		.byte	0x8
 1234 0334 9001     		.2byte	0x190
 1235 0336 89030000 		.4byte	0x389
 1236 033a 0A       		.uleb128 0xa
 1237 033b 33070000 		.4byte	.LASF65
 1238 033f 08       		.byte	0x8
 1239 0340 9101     		.2byte	0x191
 1240 0342 F2020000 		.4byte	0x2f2
 1241 0346 00       		.byte	0
 1242 0347 0A       		.uleb128 0xa
 1243 0348 AA030000 		.4byte	.LASF66
 1244 034c 08       		.byte	0x8
 1245 034d 9201     		.2byte	0x192
 1246 034f 4D010000 		.4byte	0x14d
 1247 0353 08       		.byte	0x8
 1248 0354 0A       		.uleb128 0xa
 1249 0355 1C040000 		.4byte	.LASF67
 1250 0359 08       		.byte	0x8
 1251 035a 9401     		.2byte	0x194
 1252 035c 41050000 		.4byte	0x541
 1253 0360 0C       		.byte	0xc
 1254 0361 0A       		.uleb128 0xa
ARM GAS  C:\Users\mathi\AppData\Local\Temp\cc1oOiLv.s 			page 23


 1255 0362 E0010000 		.4byte	.LASF68
 1256 0366 08       		.byte	0x8
 1257 0367 9701     		.2byte	0x197
 1258 0369 C8020000 		.4byte	0x2c8
 1259 036d 10       		.byte	0x10
 1260 036e 0A       		.uleb128 0xa
 1261 036f 43040000 		.4byte	.LASF69
 1262 0373 08       		.byte	0x8
 1263 0374 9801     		.2byte	0x198
 1264 0376 C8020000 		.4byte	0x2c8
 1265 037a 14       		.byte	0x14
 1266 037b 0A       		.uleb128 0xa
 1267 037c 39040000 		.4byte	.LASF70
 1268 0380 08       		.byte	0x8
 1269 0381 9B01     		.2byte	0x19b
 1270 0383 C8020000 		.4byte	0x2c8
 1271 0387 18       		.byte	0x18
 1272 0388 00       		.byte	0
 1273 0389 03       		.uleb128 0x3
 1274 038a A6070000 		.4byte	.LASF71
 1275 038e 07       		.byte	0x7
 1276 038f 5C       		.byte	0x5c
 1277 0390 94030000 		.4byte	0x394
 1278 0394 0B       		.uleb128 0xb
 1279 0395 04       		.byte	0x4
 1280 0396 9A030000 		.4byte	0x39a
 1281 039a 0D       		.uleb128 0xd
 1282 039b A5030000 		.4byte	0x3a5
 1283 039f 0E       		.uleb128 0xe
 1284 03a0 A5030000 		.4byte	0x3a5
 1285 03a4 00       		.byte	0
 1286 03a5 0F       		.uleb128 0xf
 1287 03a6 04       		.byte	0x4
 1288 03a7 03       		.uleb128 0x3
 1289 03a8 CF050000 		.4byte	.LASF72
 1290 03ac 07       		.byte	0x7
 1291 03ad 61       		.byte	0x61
 1292 03ae B2030000 		.4byte	0x3b2
 1293 03b2 0C       		.uleb128 0xc
 1294 03b3 D7060000 		.4byte	.LASF73
 1295 03b7 14       		.byte	0x14
 1296 03b8 08       		.byte	0x8
 1297 03b9 6B01     		.2byte	0x16b
 1298 03bb 01040000 		.4byte	0x401
 1299 03bf 0A       		.uleb128 0xa
 1300 03c0 4D020000 		.4byte	.LASF74
 1301 03c4 08       		.byte	0x8
 1302 03c5 6C01     		.2byte	0x16c
 1303 03c7 D4080000 		.4byte	0x8d4
 1304 03cb 00       		.byte	0
 1305 03cc 0A       		.uleb128 0xa
 1306 03cd F1010000 		.4byte	.LASF75
 1307 03d1 08       		.byte	0x8
 1308 03d2 6D01     		.2byte	0x16d
 1309 03d4 D4080000 		.4byte	0x8d4
 1310 03d8 04       		.byte	0x4
 1311 03d9 0A       		.uleb128 0xa
ARM GAS  C:\Users\mathi\AppData\Local\Temp\cc1oOiLv.s 			page 24


 1312 03da 52080000 		.4byte	.LASF76
 1313 03de 08       		.byte	0x8
 1314 03df 6E01     		.2byte	0x16e
 1315 03e1 84010000 		.4byte	0x184
 1316 03e5 08       		.byte	0x8
 1317 03e6 0A       		.uleb128 0xa
 1318 03e7 86080000 		.4byte	.LASF77
 1319 03eb 08       		.byte	0x8
 1320 03ec 6F01     		.2byte	0x16f
 1321 03ee 89030000 		.4byte	0x389
 1322 03f2 0C       		.byte	0xc
 1323 03f3 0A       		.uleb128 0xa
 1324 03f4 D9070000 		.4byte	.LASF78
 1325 03f8 08       		.byte	0x8
 1326 03f9 7101     		.2byte	0x171
 1327 03fb A5030000 		.4byte	0x3a5
 1328 03ff 10       		.byte	0x10
 1329 0400 00       		.byte	0
 1330 0401 03       		.uleb128 0x3
 1331 0402 DD000000 		.4byte	.LASF79
 1332 0406 07       		.byte	0x7
 1333 0407 66       		.byte	0x66
 1334 0408 0C040000 		.4byte	0x40c
 1335 040c 0C       		.uleb128 0xc
 1336 040d C3030000 		.4byte	.LASF80
 1337 0411 10       		.byte	0x10
 1338 0412 08       		.byte	0x8
 1339 0413 7B01     		.2byte	0x17b
 1340 0415 4E040000 		.4byte	0x44e
 1341 0419 0A       		.uleb128 0xa
 1342 041a 4D020000 		.4byte	.LASF74
 1343 041e 08       		.byte	0x8
 1344 041f 7C01     		.2byte	0x17c
 1345 0421 D4080000 		.4byte	0x8d4
 1346 0425 00       		.byte	0
 1347 0426 0A       		.uleb128 0xa
 1348 0427 F1010000 		.4byte	.LASF75
 1349 042b 08       		.byte	0x8
 1350 042c 7E01     		.2byte	0x17e
 1351 042e D4080000 		.4byte	0x8d4
 1352 0432 04       		.byte	0x4
 1353 0433 0A       		.uleb128 0xa
 1354 0434 52080000 		.4byte	.LASF76
 1355 0438 08       		.byte	0x8
 1356 0439 8001     		.2byte	0x180
 1357 043b 84010000 		.4byte	0x184
 1358 043f 08       		.byte	0x8
 1359 0440 0A       		.uleb128 0xa
 1360 0441 3A080000 		.4byte	.LASF81
 1361 0445 08       		.byte	0x8
 1362 0446 8201     		.2byte	0x182
 1363 0448 8F010000 		.4byte	0x18f
 1364 044c 0C       		.byte	0xc
 1365 044d 00       		.byte	0
 1366 044e 03       		.uleb128 0x3
 1367 044f 6A000000 		.4byte	.LASF82
 1368 0453 07       		.byte	0x7
ARM GAS  C:\Users\mathi\AppData\Local\Temp\cc1oOiLv.s 			page 25


 1369 0454 6B       		.byte	0x6b
 1370 0455 59040000 		.4byte	0x459
 1371 0459 10       		.uleb128 0x10
 1372 045a F9010000 		.4byte	.LASF83
 1373 045e 1404     		.2byte	0x414
 1374 0460 08       		.byte	0x8
 1375 0461 A201     		.2byte	0x1a2
 1376 0463 9C040000 		.4byte	0x49c
 1377 0467 0A       		.uleb128 0xa
 1378 0468 BA070000 		.4byte	.LASF84
 1379 046c 08       		.byte	0x8
 1380 046d AA01     		.2byte	0x1aa
 1381 046f BD080000 		.4byte	0x8bd
 1382 0473 00       		.byte	0
 1383 0474 0A       		.uleb128 0xa
 1384 0475 FB070000 		.4byte	.LASF85
 1385 0479 08       		.byte	0x8
 1386 047a AF01     		.2byte	0x1af
 1387 047c 6E010000 		.4byte	0x16e
 1388 0480 04       		.byte	0x4
 1389 0481 0A       		.uleb128 0xa
 1390 0482 17020000 		.4byte	.LASF86
 1391 0486 08       		.byte	0x8
 1392 0487 B301     		.2byte	0x1b3
 1393 0489 6E010000 		.4byte	0x16e
 1394 048d 08       		.byte	0x8
 1395 048e 0A       		.uleb128 0xa
 1396 048f 45080000 		.4byte	.LASF87
 1397 0493 08       		.byte	0x8
 1398 0494 B901     		.2byte	0x1b9
 1399 0496 29070000 		.4byte	0x729
 1400 049a 0C       		.byte	0xc
 1401 049b 00       		.byte	0
 1402 049c 03       		.uleb128 0x3
 1403 049d 35030000 		.4byte	.LASF88
 1404 04a1 07       		.byte	0x7
 1405 04a2 70       		.byte	0x70
 1406 04a3 A7040000 		.4byte	0x4a7
 1407 04a7 10       		.uleb128 0x10
 1408 04a8 92010000 		.4byte	.LASF89
 1409 04ac 7006     		.2byte	0x670
 1410 04ae 08       		.byte	0x8
 1411 04af C201     		.2byte	0x1c2
 1412 04b1 14050000 		.4byte	0x514
 1413 04b5 0A       		.uleb128 0xa
 1414 04b6 0C080000 		.4byte	.LASF90
 1415 04ba 08       		.byte	0x8
 1416 04bb C601     		.2byte	0x1c6
 1417 04bd 22030000 		.4byte	0x322
 1418 04c1 00       		.byte	0
 1419 04c2 0A       		.uleb128 0xa
 1420 04c3 70010000 		.4byte	.LASF91
 1421 04c7 08       		.byte	0x8
 1422 04c8 CA01     		.2byte	0x1ca
 1423 04ca 01040000 		.4byte	0x401
 1424 04ce 1C       		.byte	0x1c
 1425 04cf 09       		.uleb128 0x9
ARM GAS  C:\Users\mathi\AppData\Local\Temp\cc1oOiLv.s 			page 26


 1426 04d0 64626700 		.ascii	"dbg\000"
 1427 04d4 08       		.byte	0x8
 1428 04d5 CE01     		.2byte	0x1ce
 1429 04d7 4E040000 		.4byte	0x44e
 1430 04db 2C       		.byte	0x2c
 1431 04dc 11       		.uleb128 0x11
 1432 04dd D2000000 		.4byte	.LASF92
 1433 04e1 08       		.byte	0x8
 1434 04e2 D201     		.2byte	0x1d2
 1435 04e4 94010000 		.4byte	0x194
 1436 04e8 4004     		.2byte	0x440
 1437 04ea 12       		.uleb128 0x12
 1438 04eb 746D00   		.ascii	"tm\000"
 1439 04ee 08       		.byte	0x8
 1440 04ef D701     		.2byte	0x1d7
 1441 04f1 49070000 		.4byte	0x749
 1442 04f5 A804     		.2byte	0x4a8
 1443 04f7 11       		.uleb128 0x11
 1444 04f8 A5050000 		.4byte	.LASF93
 1445 04fc 08       		.byte	0x8
 1446 04fd DD01     		.2byte	0x1dd
 1447 04ff DB070000 		.4byte	0x7db
 1448 0503 B004     		.2byte	0x4b0
 1449 0505 11       		.uleb128 0x11
 1450 0506 20020000 		.4byte	.LASF94
 1451 050a 08       		.byte	0x8
 1452 050b E301     		.2byte	0x1e3
 1453 050d DA080000 		.4byte	0x8da
 1454 0511 E804     		.2byte	0x4e8
 1455 0513 00       		.byte	0
 1456 0514 13       		.uleb128 0x13
 1457 0515 F3000000 		.4byte	.LASF95
 1458 0519 09       		.byte	0x9
 1459 051a A706     		.2byte	0x6a7
 1460 051c F0000000 		.4byte	0xf0
 1461 0520 14       		.uleb128 0x14
 1462 0521 5E020000 		.4byte	.LASF96
 1463 0525 0A       		.byte	0xa
 1464 0526 4C       		.byte	0x4c
 1465 0527 F5000000 		.4byte	0xf5
 1466 052b 03       		.uleb128 0x3
 1467 052c E8010000 		.4byte	.LASF97
 1468 0530 0B       		.byte	0xb
 1469 0531 65       		.byte	0x65
 1470 0532 A5030000 		.4byte	0x3a5
 1471 0536 03       		.uleb128 0x3
 1472 0537 7C030000 		.4byte	.LASF98
 1473 053b 0B       		.byte	0xb
 1474 053c 6D       		.byte	0x6d
 1475 053d 00010000 		.4byte	0x100
 1476 0541 07       		.uleb128 0x7
 1477 0542 CB070000 		.4byte	.LASF99
 1478 0546 04       		.byte	0x4
 1479 0547 0B       		.byte	0xb
 1480 0548 89       		.byte	0x89
 1481 0549 5A050000 		.4byte	0x55a
 1482 054d 15       		.uleb128 0x15
ARM GAS  C:\Users\mathi\AppData\Local\Temp\cc1oOiLv.s 			page 27


 1483 054e 72313300 		.ascii	"r13\000"
 1484 0552 0B       		.byte	0xb
 1485 0553 8A       		.byte	0x8a
 1486 0554 9B060000 		.4byte	0x69b
 1487 0558 00       		.byte	0
 1488 0559 00       		.byte	0
 1489 055a 07       		.uleb128 0x7
 1490 055b 4D000000 		.4byte	.LASF100
 1491 055f 64       		.byte	0x64
 1492 0560 0C       		.byte	0xc
 1493 0561 F4       		.byte	0xf4
 1494 0562 9B060000 		.4byte	0x69b
 1495 0566 15       		.uleb128 0x15
 1496 0567 73313600 		.ascii	"s16\000"
 1497 056b 0C       		.byte	0xc
 1498 056c F6       		.byte	0xf6
 1499 056d 2B050000 		.4byte	0x52b
 1500 0571 00       		.byte	0
 1501 0572 15       		.uleb128 0x15
 1502 0573 73313700 		.ascii	"s17\000"
 1503 0577 0C       		.byte	0xc
 1504 0578 F7       		.byte	0xf7
 1505 0579 2B050000 		.4byte	0x52b
 1506 057d 04       		.byte	0x4
 1507 057e 15       		.uleb128 0x15
 1508 057f 73313800 		.ascii	"s18\000"
 1509 0583 0C       		.byte	0xc
 1510 0584 F8       		.byte	0xf8
 1511 0585 2B050000 		.4byte	0x52b
 1512 0589 08       		.byte	0x8
 1513 058a 15       		.uleb128 0x15
 1514 058b 73313900 		.ascii	"s19\000"
 1515 058f 0C       		.byte	0xc
 1516 0590 F9       		.byte	0xf9
 1517 0591 2B050000 		.4byte	0x52b
 1518 0595 0C       		.byte	0xc
 1519 0596 15       		.uleb128 0x15
 1520 0597 73323000 		.ascii	"s20\000"
 1521 059b 0C       		.byte	0xc
 1522 059c FA       		.byte	0xfa
 1523 059d 2B050000 		.4byte	0x52b
 1524 05a1 10       		.byte	0x10
 1525 05a2 15       		.uleb128 0x15
 1526 05a3 73323100 		.ascii	"s21\000"
 1527 05a7 0C       		.byte	0xc
 1528 05a8 FB       		.byte	0xfb
 1529 05a9 2B050000 		.4byte	0x52b
 1530 05ad 14       		.byte	0x14
 1531 05ae 15       		.uleb128 0x15
 1532 05af 73323200 		.ascii	"s22\000"
 1533 05b3 0C       		.byte	0xc
 1534 05b4 FC       		.byte	0xfc
 1535 05b5 2B050000 		.4byte	0x52b
 1536 05b9 18       		.byte	0x18
 1537 05ba 15       		.uleb128 0x15
 1538 05bb 73323300 		.ascii	"s23\000"
 1539 05bf 0C       		.byte	0xc
ARM GAS  C:\Users\mathi\AppData\Local\Temp\cc1oOiLv.s 			page 28


 1540 05c0 FD       		.byte	0xfd
 1541 05c1 2B050000 		.4byte	0x52b
 1542 05c5 1C       		.byte	0x1c
 1543 05c6 15       		.uleb128 0x15
 1544 05c7 73323400 		.ascii	"s24\000"
 1545 05cb 0C       		.byte	0xc
 1546 05cc FE       		.byte	0xfe
 1547 05cd 2B050000 		.4byte	0x52b
 1548 05d1 20       		.byte	0x20
 1549 05d2 15       		.uleb128 0x15
 1550 05d3 73323500 		.ascii	"s25\000"
 1551 05d7 0C       		.byte	0xc
 1552 05d8 FF       		.byte	0xff
 1553 05d9 2B050000 		.4byte	0x52b
 1554 05dd 24       		.byte	0x24
 1555 05de 09       		.uleb128 0x9
 1556 05df 73323600 		.ascii	"s26\000"
 1557 05e3 0C       		.byte	0xc
 1558 05e4 0001     		.2byte	0x100
 1559 05e6 2B050000 		.4byte	0x52b
 1560 05ea 28       		.byte	0x28
 1561 05eb 09       		.uleb128 0x9
 1562 05ec 73323700 		.ascii	"s27\000"
 1563 05f0 0C       		.byte	0xc
 1564 05f1 0101     		.2byte	0x101
 1565 05f3 2B050000 		.4byte	0x52b
 1566 05f7 2C       		.byte	0x2c
 1567 05f8 09       		.uleb128 0x9
 1568 05f9 73323800 		.ascii	"s28\000"
 1569 05fd 0C       		.byte	0xc
 1570 05fe 0201     		.2byte	0x102
 1571 0600 2B050000 		.4byte	0x52b
 1572 0604 30       		.byte	0x30
 1573 0605 09       		.uleb128 0x9
 1574 0606 73323900 		.ascii	"s29\000"
 1575 060a 0C       		.byte	0xc
 1576 060b 0301     		.2byte	0x103
 1577 060d 2B050000 		.4byte	0x52b
 1578 0611 34       		.byte	0x34
 1579 0612 09       		.uleb128 0x9
 1580 0613 73333000 		.ascii	"s30\000"
 1581 0617 0C       		.byte	0xc
 1582 0618 0401     		.2byte	0x104
 1583 061a 2B050000 		.4byte	0x52b
 1584 061e 38       		.byte	0x38
 1585 061f 09       		.uleb128 0x9
 1586 0620 73333100 		.ascii	"s31\000"
 1587 0624 0C       		.byte	0xc
 1588 0625 0501     		.2byte	0x105
 1589 0627 2B050000 		.4byte	0x52b
 1590 062b 3C       		.byte	0x3c
 1591 062c 09       		.uleb128 0x9
 1592 062d 723400   		.ascii	"r4\000"
 1593 0630 0C       		.byte	0xc
 1594 0631 0701     		.2byte	0x107
 1595 0633 2B050000 		.4byte	0x52b
 1596 0637 40       		.byte	0x40
ARM GAS  C:\Users\mathi\AppData\Local\Temp\cc1oOiLv.s 			page 29


 1597 0638 09       		.uleb128 0x9
 1598 0639 723500   		.ascii	"r5\000"
 1599 063c 0C       		.byte	0xc
 1600 063d 0801     		.2byte	0x108
 1601 063f 2B050000 		.4byte	0x52b
 1602 0643 44       		.byte	0x44
 1603 0644 09       		.uleb128 0x9
 1604 0645 723600   		.ascii	"r6\000"
 1605 0648 0C       		.byte	0xc
 1606 0649 0901     		.2byte	0x109
 1607 064b 2B050000 		.4byte	0x52b
 1608 064f 48       		.byte	0x48
 1609 0650 09       		.uleb128 0x9
 1610 0651 723700   		.ascii	"r7\000"
 1611 0654 0C       		.byte	0xc
 1612 0655 0A01     		.2byte	0x10a
 1613 0657 2B050000 		.4byte	0x52b
 1614 065b 4C       		.byte	0x4c
 1615 065c 09       		.uleb128 0x9
 1616 065d 723800   		.ascii	"r8\000"
 1617 0660 0C       		.byte	0xc
 1618 0661 0B01     		.2byte	0x10b
 1619 0663 2B050000 		.4byte	0x52b
 1620 0667 50       		.byte	0x50
 1621 0668 09       		.uleb128 0x9
 1622 0669 723900   		.ascii	"r9\000"
 1623 066c 0C       		.byte	0xc
 1624 066d 0C01     		.2byte	0x10c
 1625 066f 2B050000 		.4byte	0x52b
 1626 0673 54       		.byte	0x54
 1627 0674 09       		.uleb128 0x9
 1628 0675 72313000 		.ascii	"r10\000"
 1629 0679 0C       		.byte	0xc
 1630 067a 0D01     		.2byte	0x10d
 1631 067c 2B050000 		.4byte	0x52b
 1632 0680 58       		.byte	0x58
 1633 0681 09       		.uleb128 0x9
 1634 0682 72313100 		.ascii	"r11\000"
 1635 0686 0C       		.byte	0xc
 1636 0687 0E01     		.2byte	0x10e
 1637 0689 2B050000 		.4byte	0x52b
 1638 068d 5C       		.byte	0x5c
 1639 068e 09       		.uleb128 0x9
 1640 068f 6C7200   		.ascii	"lr\000"
 1641 0692 0C       		.byte	0xc
 1642 0693 0F01     		.2byte	0x10f
 1643 0695 2B050000 		.4byte	0x52b
 1644 0699 60       		.byte	0x60
 1645 069a 00       		.byte	0
 1646 069b 0B       		.uleb128 0xb
 1647 069c 04       		.byte	0x4
 1648 069d 5A050000 		.4byte	0x55a
 1649 06a1 16       		.uleb128 0x16
 1650 06a2 10       		.byte	0x10
 1651 06a3 0D       		.byte	0xd
 1652 06a4 51       		.byte	0x51
 1653 06a5 DA060000 		.4byte	0x6da
ARM GAS  C:\Users\mathi\AppData\Local\Temp\cc1oOiLv.s 			page 30


 1654 06a9 08       		.uleb128 0x8
 1655 06aa 1A000000 		.4byte	.LASF101
 1656 06ae 0D       		.byte	0xd
 1657 06af 55       		.byte	0x55
 1658 06b0 84010000 		.4byte	0x184
 1659 06b4 00       		.byte	0
 1660 06b5 08       		.uleb128 0x8
 1661 06b6 B8010000 		.4byte	.LASF102
 1662 06ba 0D       		.byte	0xd
 1663 06bb 59       		.byte	0x59
 1664 06bc C8020000 		.4byte	0x2c8
 1665 06c0 04       		.byte	0x4
 1666 06c1 08       		.uleb128 0x8
 1667 06c2 6E080000 		.4byte	.LASF103
 1668 06c6 0D       		.byte	0xd
 1669 06c7 5D       		.byte	0x5d
 1670 06c8 A5030000 		.4byte	0x3a5
 1671 06cc 08       		.byte	0x8
 1672 06cd 08       		.uleb128 0x8
 1673 06ce 03080000 		.4byte	.LASF104
 1674 06d2 0D       		.byte	0xd
 1675 06d3 61       		.byte	0x61
 1676 06d4 CF000000 		.4byte	0xcf
 1677 06d8 0C       		.byte	0xc
 1678 06d9 00       		.byte	0
 1679 06da 03       		.uleb128 0x3
 1680 06db F9030000 		.4byte	.LASF105
 1681 06df 0D       		.byte	0xd
 1682 06e0 62       		.byte	0x62
 1683 06e1 A1060000 		.4byte	0x6a1
 1684 06e5 17       		.uleb128 0x17
 1685 06e6 0804     		.2byte	0x408
 1686 06e8 0D       		.byte	0xd
 1687 06e9 67       		.byte	0x67
 1688 06ea 13070000 		.4byte	0x713
 1689 06ee 08       		.uleb128 0x8
 1690 06ef D8010000 		.4byte	.LASF106
 1691 06f3 0D       		.byte	0xd
 1692 06f4 6B       		.byte	0x6b
 1693 06f5 5C000000 		.4byte	0x5c
 1694 06f9 00       		.byte	0
 1695 06fa 08       		.uleb128 0x8
 1696 06fb F2030000 		.4byte	.LASF107
 1697 06ff 0D       		.byte	0xd
 1698 0700 6F       		.byte	0x6f
 1699 0701 13070000 		.4byte	0x713
 1700 0705 04       		.byte	0x4
 1701 0706 08       		.uleb128 0x8
 1702 0707 BA050000 		.4byte	.LASF108
 1703 070b 0D       		.byte	0xd
 1704 070c 73       		.byte	0x73
 1705 070d 19070000 		.4byte	0x719
 1706 0711 08       		.byte	0x8
 1707 0712 00       		.byte	0
 1708 0713 0B       		.uleb128 0xb
 1709 0714 04       		.byte	0x4
 1710 0715 DA060000 		.4byte	0x6da
ARM GAS  C:\Users\mathi\AppData\Local\Temp\cc1oOiLv.s 			page 31


 1711 0719 18       		.uleb128 0x18
 1712 071a DA060000 		.4byte	0x6da
 1713 071e 29070000 		.4byte	0x729
 1714 0722 19       		.uleb128 0x19
 1715 0723 5C000000 		.4byte	0x5c
 1716 0727 3F       		.byte	0x3f
 1717 0728 00       		.byte	0
 1718 0729 03       		.uleb128 0x3
 1719 072a A9000000 		.4byte	.LASF109
 1720 072e 0D       		.byte	0xd
 1721 072f 74       		.byte	0x74
 1722 0730 E5060000 		.4byte	0x6e5
 1723 0734 16       		.uleb128 0x16
 1724 0735 04       		.byte	0x4
 1725 0736 0E       		.byte	0xe
 1726 0737 38       		.byte	0x38
 1727 0738 49070000 		.4byte	0x749
 1728 073c 08       		.uleb128 0x8
 1729 073d C4070000 		.4byte	.LASF110
 1730 0741 0E       		.byte	0xe
 1731 0742 3C       		.byte	0x3c
 1732 0743 0B010000 		.4byte	0x10b
 1733 0747 00       		.byte	0
 1734 0748 00       		.byte	0
 1735 0749 03       		.uleb128 0x3
 1736 074a 28040000 		.4byte	.LASF111
 1737 074e 0E       		.byte	0xe
 1738 074f 3D       		.byte	0x3d
 1739 0750 34070000 		.4byte	0x734
 1740 0754 16       		.uleb128 0x16
 1741 0755 18       		.byte	0x18
 1742 0756 0E       		.byte	0xe
 1743 0757 48       		.byte	0x48
 1744 0758 97070000 		.4byte	0x797
 1745 075c 08       		.uleb128 0x8
 1746 075d 85070000 		.4byte	.LASF112
 1747 0761 0E       		.byte	0xe
 1748 0762 49       		.byte	0x49
 1749 0763 0B010000 		.4byte	0x10b
 1750 0767 00       		.byte	0
 1751 0768 08       		.uleb128 0x8
 1752 0769 79000000 		.4byte	.LASF113
 1753 076d 0E       		.byte	0xe
 1754 076e 4A       		.byte	0x4a
 1755 076f 0B010000 		.4byte	0x10b
 1756 0773 04       		.byte	0x4
 1757 0774 08       		.uleb128 0x8
 1758 0775 29030000 		.4byte	.LASF114
 1759 0779 0E       		.byte	0xe
 1760 077a 4B       		.byte	0x4b
 1761 077b 0B010000 		.4byte	0x10b
 1762 077f 08       		.byte	0x8
 1763 0780 15       		.uleb128 0x15
 1764 0781 6E00     		.ascii	"n\000"
 1765 0783 0E       		.byte	0xe
 1766 0784 4C       		.byte	0x4c
 1767 0785 79010000 		.4byte	0x179
ARM GAS  C:\Users\mathi\AppData\Local\Temp\cc1oOiLv.s 			page 32


 1768 0789 0C       		.byte	0xc
 1769 078a 08       		.uleb128 0x8
 1770 078b 56040000 		.4byte	.LASF115
 1771 078f 0E       		.byte	0xe
 1772 0790 4D       		.byte	0x4d
 1773 0791 16010000 		.4byte	0x116
 1774 0795 10       		.byte	0x10
 1775 0796 00       		.byte	0
 1776 0797 03       		.uleb128 0x3
 1777 0798 7F000000 		.4byte	.LASF116
 1778 079c 0E       		.byte	0xe
 1779 079d 4E       		.byte	0x4e
 1780 079e 54070000 		.4byte	0x754
 1781 07a2 16       		.uleb128 0x16
 1782 07a3 38       		.byte	0x38
 1783 07a4 0F       		.byte	0xf
 1784 07a5 38       		.byte	0x38
 1785 07a6 DB070000 		.4byte	0x7db
 1786 07aa 08       		.uleb128 0x8
 1787 07ab EB020000 		.4byte	.LASF117
 1788 07af 0F       		.byte	0xf
 1789 07b0 39       		.byte	0x39
 1790 07b1 79010000 		.4byte	0x179
 1791 07b5 00       		.byte	0
 1792 07b6 08       		.uleb128 0x8
 1793 07b7 42060000 		.4byte	.LASF118
 1794 07bb 0F       		.byte	0xf
 1795 07bc 3A       		.byte	0x3a
 1796 07bd 79010000 		.4byte	0x179
 1797 07c1 04       		.byte	0x4
 1798 07c2 08       		.uleb128 0x8
 1799 07c3 5B080000 		.4byte	.LASF119
 1800 07c7 0F       		.byte	0xf
 1801 07c8 3B       		.byte	0x3b
 1802 07c9 97070000 		.4byte	0x797
 1803 07cd 08       		.byte	0x8
 1804 07ce 08       		.uleb128 0x8
 1805 07cf 4D030000 		.4byte	.LASF120
 1806 07d3 0F       		.byte	0xf
 1807 07d4 3D       		.byte	0x3d
 1808 07d5 97070000 		.4byte	0x797
 1809 07d9 20       		.byte	0x20
 1810 07da 00       		.byte	0
 1811 07db 03       		.uleb128 0x3
 1812 07dc 0A030000 		.4byte	.LASF121
 1813 07e0 0F       		.byte	0xf
 1814 07e1 3F       		.byte	0x3f
 1815 07e2 A2070000 		.4byte	0x7a2
 1816 07e6 1A       		.uleb128 0x1a
 1817 07e7 04       		.byte	0x4
 1818 07e8 08       		.byte	0x8
 1819 07e9 FA       		.byte	0xfa
 1820 07ea 43080000 		.4byte	0x843
 1821 07ee 1B       		.uleb128 0x1b
 1822 07ef 33000000 		.4byte	.LASF122
 1823 07f3 08       		.byte	0x8
 1824 07f4 0101     		.2byte	0x101
ARM GAS  C:\Users\mathi\AppData\Local\Temp\cc1oOiLv.s 			page 33


 1825 07f6 58010000 		.4byte	0x158
 1826 07fa 1B       		.uleb128 0x1b
 1827 07fb C9000000 		.4byte	.LASF123
 1828 07ff 08       		.byte	0x8
 1829 0800 0801     		.2byte	0x108
 1830 0802 58010000 		.4byte	0x158
 1831 0806 1B       		.uleb128 0x1b
 1832 0807 2D080000 		.4byte	.LASF124
 1833 080b 08       		.byte	0x8
 1834 080c 0F01     		.2byte	0x10f
 1835 080e A5030000 		.4byte	0x3a5
 1836 0812 1B       		.uleb128 0x1b
 1837 0813 8C010000 		.4byte	.LASF125
 1838 0817 08       		.byte	0x8
 1839 0818 1601     		.2byte	0x116
 1840 081a 43080000 		.4byte	0x843
 1841 081e 1B       		.uleb128 0x1b
 1842 081f 75020000 		.4byte	.LASF126
 1843 0823 08       		.byte	0x8
 1844 0824 1E01     		.2byte	0x11e
 1845 0826 6E080000 		.4byte	0x86e
 1846 082a 1B       		.uleb128 0x1b
 1847 082b 6A070000 		.4byte	.LASF127
 1848 082f 08       		.byte	0x8
 1849 0830 2701     		.2byte	0x127
 1850 0832 B1080000 		.4byte	0x8b1
 1851 0836 1B       		.uleb128 0x1b
 1852 0837 92060000 		.4byte	.LASF128
 1853 083b 08       		.byte	0x8
 1854 083c 2F01     		.2byte	0x12f
 1855 083e 63010000 		.4byte	0x163
 1856 0842 00       		.byte	0
 1857 0843 0B       		.uleb128 0xb
 1858 0844 04       		.byte	0x4
 1859 0845 BD020000 		.4byte	0x2bd
 1860 0849 07       		.uleb128 0x7
 1861 084a 06070000 		.4byte	.LASF129
 1862 084e 0C       		.byte	0xc
 1863 084f 10       		.byte	0x10
 1864 0850 34       		.byte	0x34
 1865 0851 6E080000 		.4byte	0x86e
 1866 0855 08       		.uleb128 0x8
 1867 0856 D0010000 		.4byte	.LASF130
 1868 085a 10       		.byte	0x10
 1869 085b 35       		.byte	0x35
 1870 085c F2020000 		.4byte	0x2f2
 1871 0860 00       		.byte	0
 1872 0861 08       		.uleb128 0x8
 1873 0862 F1020000 		.4byte	.LASF131
 1874 0866 10       		.byte	0x10
 1875 0867 37       		.byte	0x37
 1876 0868 6E010000 		.4byte	0x16e
 1877 086c 08       		.byte	0x8
 1878 086d 00       		.byte	0
 1879 086e 0B       		.uleb128 0xb
 1880 086f 04       		.byte	0x4
 1881 0870 49080000 		.4byte	0x849
ARM GAS  C:\Users\mathi\AppData\Local\Temp\cc1oOiLv.s 			page 34


 1882 0874 07       		.uleb128 0x7
 1883 0875 EB070000 		.4byte	.LASF132
 1884 0879 14       		.byte	0x14
 1885 087a 11       		.byte	0x11
 1886 087b 39       		.byte	0x39
 1887 087c B1080000 		.4byte	0x8b1
 1888 0880 08       		.uleb128 0x8
 1889 0881 68010000 		.4byte	.LASF133
 1890 0885 11       		.byte	0x11
 1891 0886 3A       		.byte	0x3a
 1892 0887 F2020000 		.4byte	0x2f2
 1893 088b 00       		.byte	0
 1894 088c 08       		.uleb128 0x8
 1895 088d 66080000 		.4byte	.LASF134
 1896 0891 11       		.byte	0x11
 1897 0892 3C       		.byte	0x3c
 1898 0893 C8020000 		.4byte	0x2c8
 1899 0897 08       		.byte	0x8
 1900 0898 08       		.uleb128 0x8
 1901 0899 8A070000 		.4byte	.LASF135
 1902 089d 11       		.byte	0x11
 1903 089e 3E       		.byte	0x3e
 1904 089f 0C0A0000 		.4byte	0xa0c
 1905 08a3 0C       		.byte	0xc
 1906 08a4 08       		.uleb128 0x8
 1907 08a5 09020000 		.4byte	.LASF136
 1908 08a9 11       		.byte	0x11
 1909 08aa 41       		.byte	0x41
 1910 08ab 6E010000 		.4byte	0x16e
 1911 08af 10       		.byte	0x10
 1912 08b0 00       		.byte	0
 1913 08b1 0B       		.uleb128 0xb
 1914 08b2 04       		.byte	0x4
 1915 08b3 74080000 		.4byte	0x874
 1916 08b7 0B       		.uleb128 0xb
 1917 08b8 04       		.byte	0x4
 1918 08b9 C9080000 		.4byte	0x8c9
 1919 08bd 06       		.uleb128 0x6
 1920 08be B7080000 		.4byte	0x8b7
 1921 08c2 02       		.uleb128 0x2
 1922 08c3 01       		.byte	0x1
 1923 08c4 08       		.byte	0x8
 1924 08c5 65070000 		.4byte	.LASF137
 1925 08c9 04       		.uleb128 0x4
 1926 08ca C2080000 		.4byte	0x8c2
 1927 08ce 0B       		.uleb128 0xb
 1928 08cf 04       		.byte	0x4
 1929 08d0 36050000 		.4byte	0x536
 1930 08d4 0B       		.uleb128 0xb
 1931 08d5 04       		.byte	0x4
 1932 08d6 A7030000 		.4byte	0x3a7
 1933 08da 18       		.uleb128 0x18
 1934 08db 36050000 		.4byte	0x536
 1935 08df EA080000 		.4byte	0x8ea
 1936 08e3 19       		.uleb128 0x19
 1937 08e4 5C000000 		.4byte	0x5c
 1938 08e8 30       		.byte	0x30
ARM GAS  C:\Users\mathi\AppData\Local\Temp\cc1oOiLv.s 			page 35


 1939 08e9 00       		.byte	0
 1940 08ea 1C       		.uleb128 0x1c
 1941 08eb 636800   		.ascii	"ch\000"
 1942 08ee 08       		.byte	0x8
 1943 08ef 0902     		.2byte	0x209
 1944 08f1 9C040000 		.4byte	0x49c
 1945 08f5 16       		.uleb128 0x16
 1946 08f6 16       		.byte	0x16
 1947 08f7 12       		.byte	0x12
 1948 08f8 34       		.byte	0x34
 1949 08f9 D6090000 		.4byte	0x9d6
 1950 08fd 08       		.uleb128 0x8
 1951 08fe 78080000 		.4byte	.LASF138
 1952 0902 12       		.byte	0x12
 1953 0903 35       		.byte	0x35
 1954 0904 D6090000 		.4byte	0x9d6
 1955 0908 00       		.byte	0
 1956 0909 08       		.uleb128 0x8
 1957 090a 96030000 		.4byte	.LASF139
 1958 090e 12       		.byte	0x12
 1959 090f 36       		.byte	0x36
 1960 0910 CF000000 		.4byte	0xcf
 1961 0914 04       		.byte	0x4
 1962 0915 08       		.uleb128 0x8
 1963 0916 4B070000 		.4byte	.LASF140
 1964 091a 12       		.byte	0x12
 1965 091b 37       		.byte	0x37
 1966 091c CF000000 		.4byte	0xcf
 1967 0920 05       		.byte	0x5
 1968 0921 08       		.uleb128 0x8
 1969 0922 87060000 		.4byte	.LASF141
 1970 0926 12       		.byte	0x12
 1971 0927 38       		.byte	0x38
 1972 0928 DA000000 		.4byte	0xda
 1973 092c 06       		.byte	0x6
 1974 092d 08       		.uleb128 0x8
 1975 092e C4050000 		.4byte	.LASF142
 1976 0932 12       		.byte	0x12
 1977 0933 39       		.byte	0x39
 1978 0934 CF000000 		.4byte	0xcf
 1979 0938 08       		.byte	0x8
 1980 0939 08       		.uleb128 0x8
 1981 093a E6030000 		.4byte	.LASF143
 1982 093e 12       		.byte	0x12
 1983 093f 3A       		.byte	0x3a
 1984 0940 CF000000 		.4byte	0xcf
 1985 0944 09       		.byte	0x9
 1986 0945 08       		.uleb128 0x8
 1987 0946 BB000000 		.4byte	.LASF144
 1988 094a 12       		.byte	0x12
 1989 094b 3B       		.byte	0x3b
 1990 094c CF000000 		.4byte	0xcf
 1991 0950 0A       		.byte	0xa
 1992 0951 08       		.uleb128 0x8
 1993 0952 27070000 		.4byte	.LASF145
 1994 0956 12       		.byte	0x12
 1995 0957 3C       		.byte	0x3c
ARM GAS  C:\Users\mathi\AppData\Local\Temp\cc1oOiLv.s 			page 36


 1996 0958 CF000000 		.4byte	0xcf
 1997 095c 0B       		.byte	0xb
 1998 095d 08       		.uleb128 0x8
 1999 095e E0070000 		.4byte	.LASF146
 2000 0962 12       		.byte	0x12
 2001 0963 3D       		.byte	0x3d
 2002 0964 CF000000 		.4byte	0xcf
 2003 0968 0C       		.byte	0xc
 2004 0969 08       		.uleb128 0x8
 2005 096a E8060000 		.4byte	.LASF147
 2006 096e 12       		.byte	0x12
 2007 096f 3E       		.byte	0x3e
 2008 0970 CF000000 		.4byte	0xcf
 2009 0974 0D       		.byte	0xd
 2010 0975 08       		.uleb128 0x8
 2011 0976 00000000 		.4byte	.LASF148
 2012 097a 12       		.byte	0x12
 2013 097b 3F       		.byte	0x3f
 2014 097c CF000000 		.4byte	0xcf
 2015 0980 0E       		.byte	0xe
 2016 0981 08       		.uleb128 0x8
 2017 0982 08040000 		.4byte	.LASF149
 2018 0986 12       		.byte	0x12
 2019 0987 40       		.byte	0x40
 2020 0988 CF000000 		.4byte	0xcf
 2021 098c 0F       		.byte	0xf
 2022 098d 08       		.uleb128 0x8
 2023 098e 43010000 		.4byte	.LASF150
 2024 0992 12       		.byte	0x12
 2025 0993 41       		.byte	0x41
 2026 0994 CF000000 		.4byte	0xcf
 2027 0998 10       		.byte	0x10
 2028 0999 08       		.uleb128 0x8
 2029 099a 10010000 		.4byte	.LASF151
 2030 099e 12       		.byte	0x12
 2031 099f 43       		.byte	0x43
 2032 09a0 CF000000 		.4byte	0xcf
 2033 09a4 11       		.byte	0x11
 2034 09a5 08       		.uleb128 0x8
 2035 09a6 53010000 		.4byte	.LASF152
 2036 09aa 12       		.byte	0x12
 2037 09ab 44       		.byte	0x44
 2038 09ac CF000000 		.4byte	0xcf
 2039 09b0 12       		.byte	0x12
 2040 09b1 08       		.uleb128 0x8
 2041 09b2 9E030000 		.4byte	.LASF153
 2042 09b6 12       		.byte	0x12
 2043 09b7 45       		.byte	0x45
 2044 09b8 CF000000 		.4byte	0xcf
 2045 09bc 13       		.byte	0x13
 2046 09bd 08       		.uleb128 0x8
 2047 09be A8060000 		.4byte	.LASF154
 2048 09c2 12       		.byte	0x12
 2049 09c3 46       		.byte	0x46
 2050 09c4 CF000000 		.4byte	0xcf
 2051 09c8 14       		.byte	0x14
 2052 09c9 08       		.uleb128 0x8
ARM GAS  C:\Users\mathi\AppData\Local\Temp\cc1oOiLv.s 			page 37


 2053 09ca 41030000 		.4byte	.LASF155
 2054 09ce 12       		.byte	0x12
 2055 09cf 48       		.byte	0x48
 2056 09d0 CF000000 		.4byte	0xcf
 2057 09d4 15       		.byte	0x15
 2058 09d5 00       		.byte	0
 2059 09d6 18       		.uleb128 0x18
 2060 09d7 C2080000 		.4byte	0x8c2
 2061 09db E6090000 		.4byte	0x9e6
 2062 09df 19       		.uleb128 0x19
 2063 09e0 5C000000 		.4byte	0x5c
 2064 09e4 03       		.byte	0x3
 2065 09e5 00       		.byte	0
 2066 09e6 03       		.uleb128 0x3
 2067 09e7 BE010000 		.4byte	.LASF156
 2068 09eb 12       		.byte	0x12
 2069 09ec 49       		.byte	0x49
 2070 09ed F5080000 		.4byte	0x8f5
 2071 09f1 04       		.uleb128 0x4
 2072 09f2 E6090000 		.4byte	0x9e6
 2073 09f6 14       		.uleb128 0x14
 2074 09f7 E2020000 		.4byte	.LASF157
 2075 09fb 12       		.byte	0x12
 2076 09fc 6E       		.byte	0x6e
 2077 09fd F1090000 		.4byte	0x9f1
 2078 0a01 03       		.uleb128 0x3
 2079 0a02 0F020000 		.4byte	.LASF158
 2080 0a06 11       		.byte	0x11
 2081 0a07 34       		.byte	0x34
 2082 0a08 74080000 		.4byte	0x874
 2083 0a0c 0B       		.uleb128 0xb
 2084 0a0d 04       		.byte	0x4
 2085 0a0e 010A0000 		.4byte	0xa01
 2086 0a12 18       		.uleb128 0x18
 2087 0a13 45000000 		.4byte	0x45
 2088 0a17 220A0000 		.4byte	0xa22
 2089 0a1b 19       		.uleb128 0x19
 2090 0a1c 5C000000 		.4byte	0x5c
 2091 0a20 7F       		.byte	0x7f
 2092 0a21 00       		.byte	0
 2093 0a22 04       		.uleb128 0x4
 2094 0a23 120A0000 		.4byte	0xa12
 2095 0a27 1D       		.uleb128 0x1d
 2096 0a28 54626C00 		.ascii	"Tbl\000"
 2097 0a2c 01       		.byte	0x1
 2098 0a2d 5601     		.2byte	0x156
 2099 0a2f 220A0000 		.4byte	0xa22
 2100 0a33 05       		.uleb128 0x5
 2101 0a34 03       		.byte	0x3
 2102 0a35 00000000 		.4byte	Tbl
 2103 0a39 1E       		.uleb128 0x1e
 2104 0a3a 37010000 		.4byte	.LASF161
 2105 0a3e 01       		.byte	0x1
 2106 0a3f 1002     		.2byte	0x210
 2107 0a41 3A000000 		.4byte	0x3a
 2108 0a45 00000000 		.4byte	.LFB220
 2109 0a49 4C000000 		.4byte	.LFE220-.LFB220
ARM GAS  C:\Users\mathi\AppData\Local\Temp\cc1oOiLv.s 			page 38


 2110 0a4d 01       		.uleb128 0x1
 2111 0a4e 9C       		.byte	0x9c
 2112 0a4f 9F0A0000 		.4byte	0xa9f
 2113 0a53 1F       		.uleb128 0x1f
 2114 0a54 63687200 		.ascii	"chr\000"
 2115 0a58 01       		.byte	0x1
 2116 0a59 1102     		.2byte	0x211
 2117 0a5b 3A000000 		.4byte	0x3a
 2118 0a5f 00000000 		.4byte	.LLST3
 2119 0a63 20       		.uleb128 0x20
 2120 0a64 AE010000 		.4byte	.LASF159
 2121 0a68 01       		.byte	0x1
 2122 0a69 1402     		.2byte	0x214
 2123 0a6b AF0A0000 		.4byte	0xaaf
 2124 0a6f 05       		.uleb128 0x5
 2125 0a70 03       		.byte	0x3
 2126 0a71 00000000 		.4byte	tbl_lower.8049
 2127 0a75 20       		.uleb128 0x20
 2128 0a76 22000000 		.4byte	.LASF160
 2129 0a7a 01       		.byte	0x1
 2130 0a7b 1502     		.2byte	0x215
 2131 0a7d AF0A0000 		.4byte	0xaaf
 2132 0a81 05       		.uleb128 0x5
 2133 0a82 03       		.byte	0x3
 2134 0a83 00000000 		.4byte	tbl_upper.8050
 2135 0a87 21       		.uleb128 0x21
 2136 0a88 6900     		.ascii	"i\000"
 2137 0a8a 01       		.byte	0x1
 2138 0a8b 1602     		.2byte	0x216
 2139 0a8d 4A000000 		.4byte	0x4a
 2140 0a91 53000000 		.4byte	.LLST4
 2141 0a95 22       		.uleb128 0x22
 2142 0a96 3E000000 		.4byte	.LVL23
 2143 0a9a 060B0000 		.4byte	0xb06
 2144 0a9e 00       		.byte	0
 2145 0a9f 18       		.uleb128 0x18
 2146 0aa0 45000000 		.4byte	0x45
 2147 0aa4 AF0A0000 		.4byte	0xaaf
 2148 0aa8 19       		.uleb128 0x19
 2149 0aa9 5C000000 		.4byte	0x5c
 2150 0aad EF       		.byte	0xef
 2151 0aae 00       		.byte	0
 2152 0aaf 04       		.uleb128 0x4
 2153 0ab0 9F0A0000 		.4byte	0xa9f
 2154 0ab4 1E       		.uleb128 0x1e
 2155 0ab5 81010000 		.4byte	.LASF162
 2156 0ab9 01       		.byte	0x1
 2157 0aba F501     		.2byte	0x1f5
 2158 0abc 3A000000 		.4byte	0x3a
 2159 0ac0 00000000 		.4byte	.LFB219
 2160 0ac4 54000000 		.4byte	.LFE219-.LFB219
 2161 0ac8 01       		.uleb128 0x1
 2162 0ac9 9C       		.byte	0x9c
 2163 0aca 060B0000 		.4byte	0xb06
 2164 0ace 1F       		.uleb128 0x1f
 2165 0acf 63687200 		.ascii	"chr\000"
 2166 0ad3 01       		.byte	0x1
ARM GAS  C:\Users\mathi\AppData\Local\Temp\cc1oOiLv.s 			page 39


 2167 0ad4 F601     		.2byte	0x1f6
 2168 0ad6 3A000000 		.4byte	0x3a
 2169 0ada 89000000 		.4byte	.LLST0
 2170 0ade 1F       		.uleb128 0x1f
 2171 0adf 64697200 		.ascii	"dir\000"
 2172 0ae3 01       		.byte	0x1
 2173 0ae4 F701     		.2byte	0x1f7
 2174 0ae6 51000000 		.4byte	0x51
 2175 0aea DC000000 		.4byte	.LLST1
 2176 0aee 21       		.uleb128 0x21
 2177 0aef 6300     		.ascii	"c\000"
 2178 0af1 01       		.byte	0x1
 2179 0af2 FA01     		.2byte	0x1fa
 2180 0af4 3A000000 		.4byte	0x3a
 2181 0af8 16010000 		.4byte	.LLST2
 2182 0afc 22       		.uleb128 0x22
 2183 0afd 4C000000 		.4byte	.LVL12
 2184 0b01 060B0000 		.4byte	0xb06
 2185 0b05 00       		.byte	0
 2186 0b06 23       		.uleb128 0x23
 2187 0b07 F5060000 		.4byte	.LASF166
 2188 0b0b F5060000 		.4byte	.LASF166
 2189 0b0f 00       		.byte	0
 2190              		.section	.debug_abbrev,"",%progbits
 2191              	.Ldebug_abbrev0:
 2192 0000 01       		.uleb128 0x1
 2193 0001 11       		.uleb128 0x11
 2194 0002 01       		.byte	0x1
 2195 0003 25       		.uleb128 0x25
 2196 0004 0E       		.uleb128 0xe
 2197 0005 13       		.uleb128 0x13
 2198 0006 0B       		.uleb128 0xb
 2199 0007 03       		.uleb128 0x3
 2200 0008 0E       		.uleb128 0xe
 2201 0009 1B       		.uleb128 0x1b
 2202 000a 0E       		.uleb128 0xe
 2203 000b 55       		.uleb128 0x55
 2204 000c 17       		.uleb128 0x17
 2205 000d 11       		.uleb128 0x11
 2206 000e 01       		.uleb128 0x1
 2207 000f 10       		.uleb128 0x10
 2208 0010 17       		.uleb128 0x17
 2209 0011 00       		.byte	0
 2210 0012 00       		.byte	0
 2211 0013 02       		.uleb128 0x2
 2212 0014 24       		.uleb128 0x24
 2213 0015 00       		.byte	0
 2214 0016 0B       		.uleb128 0xb
 2215 0017 0B       		.uleb128 0xb
 2216 0018 3E       		.uleb128 0x3e
 2217 0019 0B       		.uleb128 0xb
 2218 001a 03       		.uleb128 0x3
 2219 001b 0E       		.uleb128 0xe
 2220 001c 00       		.byte	0
 2221 001d 00       		.byte	0
 2222 001e 03       		.uleb128 0x3
 2223 001f 16       		.uleb128 0x16
ARM GAS  C:\Users\mathi\AppData\Local\Temp\cc1oOiLv.s 			page 40


 2224 0020 00       		.byte	0
 2225 0021 03       		.uleb128 0x3
 2226 0022 0E       		.uleb128 0xe
 2227 0023 3A       		.uleb128 0x3a
 2228 0024 0B       		.uleb128 0xb
 2229 0025 3B       		.uleb128 0x3b
 2230 0026 0B       		.uleb128 0xb
 2231 0027 49       		.uleb128 0x49
 2232 0028 13       		.uleb128 0x13
 2233 0029 00       		.byte	0
 2234 002a 00       		.byte	0
 2235 002b 04       		.uleb128 0x4
 2236 002c 26       		.uleb128 0x26
 2237 002d 00       		.byte	0
 2238 002e 49       		.uleb128 0x49
 2239 002f 13       		.uleb128 0x13
 2240 0030 00       		.byte	0
 2241 0031 00       		.byte	0
 2242 0032 05       		.uleb128 0x5
 2243 0033 24       		.uleb128 0x24
 2244 0034 00       		.byte	0
 2245 0035 0B       		.uleb128 0xb
 2246 0036 0B       		.uleb128 0xb
 2247 0037 3E       		.uleb128 0x3e
 2248 0038 0B       		.uleb128 0xb
 2249 0039 03       		.uleb128 0x3
 2250 003a 08       		.uleb128 0x8
 2251 003b 00       		.byte	0
 2252 003c 00       		.byte	0
 2253 003d 06       		.uleb128 0x6
 2254 003e 35       		.uleb128 0x35
 2255 003f 00       		.byte	0
 2256 0040 49       		.uleb128 0x49
 2257 0041 13       		.uleb128 0x13
 2258 0042 00       		.byte	0
 2259 0043 00       		.byte	0
 2260 0044 07       		.uleb128 0x7
 2261 0045 13       		.uleb128 0x13
 2262 0046 01       		.byte	0x1
 2263 0047 03       		.uleb128 0x3
 2264 0048 0E       		.uleb128 0xe
 2265 0049 0B       		.uleb128 0xb
 2266 004a 0B       		.uleb128 0xb
 2267 004b 3A       		.uleb128 0x3a
 2268 004c 0B       		.uleb128 0xb
 2269 004d 3B       		.uleb128 0x3b
 2270 004e 0B       		.uleb128 0xb
 2271 004f 01       		.uleb128 0x1
 2272 0050 13       		.uleb128 0x13
 2273 0051 00       		.byte	0
 2274 0052 00       		.byte	0
 2275 0053 08       		.uleb128 0x8
 2276 0054 0D       		.uleb128 0xd
 2277 0055 00       		.byte	0
 2278 0056 03       		.uleb128 0x3
 2279 0057 0E       		.uleb128 0xe
 2280 0058 3A       		.uleb128 0x3a
ARM GAS  C:\Users\mathi\AppData\Local\Temp\cc1oOiLv.s 			page 41


 2281 0059 0B       		.uleb128 0xb
 2282 005a 3B       		.uleb128 0x3b
 2283 005b 0B       		.uleb128 0xb
 2284 005c 49       		.uleb128 0x49
 2285 005d 13       		.uleb128 0x13
 2286 005e 38       		.uleb128 0x38
 2287 005f 0B       		.uleb128 0xb
 2288 0060 00       		.byte	0
 2289 0061 00       		.byte	0
 2290 0062 09       		.uleb128 0x9
 2291 0063 0D       		.uleb128 0xd
 2292 0064 00       		.byte	0
 2293 0065 03       		.uleb128 0x3
 2294 0066 08       		.uleb128 0x8
 2295 0067 3A       		.uleb128 0x3a
 2296 0068 0B       		.uleb128 0xb
 2297 0069 3B       		.uleb128 0x3b
 2298 006a 05       		.uleb128 0x5
 2299 006b 49       		.uleb128 0x49
 2300 006c 13       		.uleb128 0x13
 2301 006d 38       		.uleb128 0x38
 2302 006e 0B       		.uleb128 0xb
 2303 006f 00       		.byte	0
 2304 0070 00       		.byte	0
 2305 0071 0A       		.uleb128 0xa
 2306 0072 0D       		.uleb128 0xd
 2307 0073 00       		.byte	0
 2308 0074 03       		.uleb128 0x3
 2309 0075 0E       		.uleb128 0xe
 2310 0076 3A       		.uleb128 0x3a
 2311 0077 0B       		.uleb128 0xb
 2312 0078 3B       		.uleb128 0x3b
 2313 0079 05       		.uleb128 0x5
 2314 007a 49       		.uleb128 0x49
 2315 007b 13       		.uleb128 0x13
 2316 007c 38       		.uleb128 0x38
 2317 007d 0B       		.uleb128 0xb
 2318 007e 00       		.byte	0
 2319 007f 00       		.byte	0
 2320 0080 0B       		.uleb128 0xb
 2321 0081 0F       		.uleb128 0xf
 2322 0082 00       		.byte	0
 2323 0083 0B       		.uleb128 0xb
 2324 0084 0B       		.uleb128 0xb
 2325 0085 49       		.uleb128 0x49
 2326 0086 13       		.uleb128 0x13
 2327 0087 00       		.byte	0
 2328 0088 00       		.byte	0
 2329 0089 0C       		.uleb128 0xc
 2330 008a 13       		.uleb128 0x13
 2331 008b 01       		.byte	0x1
 2332 008c 03       		.uleb128 0x3
 2333 008d 0E       		.uleb128 0xe
 2334 008e 0B       		.uleb128 0xb
 2335 008f 0B       		.uleb128 0xb
 2336 0090 3A       		.uleb128 0x3a
 2337 0091 0B       		.uleb128 0xb
ARM GAS  C:\Users\mathi\AppData\Local\Temp\cc1oOiLv.s 			page 42


 2338 0092 3B       		.uleb128 0x3b
 2339 0093 05       		.uleb128 0x5
 2340 0094 01       		.uleb128 0x1
 2341 0095 13       		.uleb128 0x13
 2342 0096 00       		.byte	0
 2343 0097 00       		.byte	0
 2344 0098 0D       		.uleb128 0xd
 2345 0099 15       		.uleb128 0x15
 2346 009a 01       		.byte	0x1
 2347 009b 27       		.uleb128 0x27
 2348 009c 19       		.uleb128 0x19
 2349 009d 01       		.uleb128 0x1
 2350 009e 13       		.uleb128 0x13
 2351 009f 00       		.byte	0
 2352 00a0 00       		.byte	0
 2353 00a1 0E       		.uleb128 0xe
 2354 00a2 05       		.uleb128 0x5
 2355 00a3 00       		.byte	0
 2356 00a4 49       		.uleb128 0x49
 2357 00a5 13       		.uleb128 0x13
 2358 00a6 00       		.byte	0
 2359 00a7 00       		.byte	0
 2360 00a8 0F       		.uleb128 0xf
 2361 00a9 0F       		.uleb128 0xf
 2362 00aa 00       		.byte	0
 2363 00ab 0B       		.uleb128 0xb
 2364 00ac 0B       		.uleb128 0xb
 2365 00ad 00       		.byte	0
 2366 00ae 00       		.byte	0
 2367 00af 10       		.uleb128 0x10
 2368 00b0 13       		.uleb128 0x13
 2369 00b1 01       		.byte	0x1
 2370 00b2 03       		.uleb128 0x3
 2371 00b3 0E       		.uleb128 0xe
 2372 00b4 0B       		.uleb128 0xb
 2373 00b5 05       		.uleb128 0x5
 2374 00b6 3A       		.uleb128 0x3a
 2375 00b7 0B       		.uleb128 0xb
 2376 00b8 3B       		.uleb128 0x3b
 2377 00b9 05       		.uleb128 0x5
 2378 00ba 01       		.uleb128 0x1
 2379 00bb 13       		.uleb128 0x13
 2380 00bc 00       		.byte	0
 2381 00bd 00       		.byte	0
 2382 00be 11       		.uleb128 0x11
 2383 00bf 0D       		.uleb128 0xd
 2384 00c0 00       		.byte	0
 2385 00c1 03       		.uleb128 0x3
 2386 00c2 0E       		.uleb128 0xe
 2387 00c3 3A       		.uleb128 0x3a
 2388 00c4 0B       		.uleb128 0xb
 2389 00c5 3B       		.uleb128 0x3b
 2390 00c6 05       		.uleb128 0x5
 2391 00c7 49       		.uleb128 0x49
 2392 00c8 13       		.uleb128 0x13
 2393 00c9 38       		.uleb128 0x38
 2394 00ca 05       		.uleb128 0x5
ARM GAS  C:\Users\mathi\AppData\Local\Temp\cc1oOiLv.s 			page 43


 2395 00cb 00       		.byte	0
 2396 00cc 00       		.byte	0
 2397 00cd 12       		.uleb128 0x12
 2398 00ce 0D       		.uleb128 0xd
 2399 00cf 00       		.byte	0
 2400 00d0 03       		.uleb128 0x3
 2401 00d1 08       		.uleb128 0x8
 2402 00d2 3A       		.uleb128 0x3a
 2403 00d3 0B       		.uleb128 0xb
 2404 00d4 3B       		.uleb128 0x3b
 2405 00d5 05       		.uleb128 0x5
 2406 00d6 49       		.uleb128 0x49
 2407 00d7 13       		.uleb128 0x13
 2408 00d8 38       		.uleb128 0x38
 2409 00d9 05       		.uleb128 0x5
 2410 00da 00       		.byte	0
 2411 00db 00       		.byte	0
 2412 00dc 13       		.uleb128 0x13
 2413 00dd 34       		.uleb128 0x34
 2414 00de 00       		.byte	0
 2415 00df 03       		.uleb128 0x3
 2416 00e0 0E       		.uleb128 0xe
 2417 00e1 3A       		.uleb128 0x3a
 2418 00e2 0B       		.uleb128 0xb
 2419 00e3 3B       		.uleb128 0x3b
 2420 00e4 05       		.uleb128 0x5
 2421 00e5 49       		.uleb128 0x49
 2422 00e6 13       		.uleb128 0x13
 2423 00e7 3F       		.uleb128 0x3f
 2424 00e8 19       		.uleb128 0x19
 2425 00e9 3C       		.uleb128 0x3c
 2426 00ea 19       		.uleb128 0x19
 2427 00eb 00       		.byte	0
 2428 00ec 00       		.byte	0
 2429 00ed 14       		.uleb128 0x14
 2430 00ee 34       		.uleb128 0x34
 2431 00ef 00       		.byte	0
 2432 00f0 03       		.uleb128 0x3
 2433 00f1 0E       		.uleb128 0xe
 2434 00f2 3A       		.uleb128 0x3a
 2435 00f3 0B       		.uleb128 0xb
 2436 00f4 3B       		.uleb128 0x3b
 2437 00f5 0B       		.uleb128 0xb
 2438 00f6 49       		.uleb128 0x49
 2439 00f7 13       		.uleb128 0x13
 2440 00f8 3F       		.uleb128 0x3f
 2441 00f9 19       		.uleb128 0x19
 2442 00fa 3C       		.uleb128 0x3c
 2443 00fb 19       		.uleb128 0x19
 2444 00fc 00       		.byte	0
 2445 00fd 00       		.byte	0
 2446 00fe 15       		.uleb128 0x15
 2447 00ff 0D       		.uleb128 0xd
 2448 0100 00       		.byte	0
 2449 0101 03       		.uleb128 0x3
 2450 0102 08       		.uleb128 0x8
 2451 0103 3A       		.uleb128 0x3a
ARM GAS  C:\Users\mathi\AppData\Local\Temp\cc1oOiLv.s 			page 44


 2452 0104 0B       		.uleb128 0xb
 2453 0105 3B       		.uleb128 0x3b
 2454 0106 0B       		.uleb128 0xb
 2455 0107 49       		.uleb128 0x49
 2456 0108 13       		.uleb128 0x13
 2457 0109 38       		.uleb128 0x38
 2458 010a 0B       		.uleb128 0xb
 2459 010b 00       		.byte	0
 2460 010c 00       		.byte	0
 2461 010d 16       		.uleb128 0x16
 2462 010e 13       		.uleb128 0x13
 2463 010f 01       		.byte	0x1
 2464 0110 0B       		.uleb128 0xb
 2465 0111 0B       		.uleb128 0xb
 2466 0112 3A       		.uleb128 0x3a
 2467 0113 0B       		.uleb128 0xb
 2468 0114 3B       		.uleb128 0x3b
 2469 0115 0B       		.uleb128 0xb
 2470 0116 01       		.uleb128 0x1
 2471 0117 13       		.uleb128 0x13
 2472 0118 00       		.byte	0
 2473 0119 00       		.byte	0
 2474 011a 17       		.uleb128 0x17
 2475 011b 13       		.uleb128 0x13
 2476 011c 01       		.byte	0x1
 2477 011d 0B       		.uleb128 0xb
 2478 011e 05       		.uleb128 0x5
 2479 011f 3A       		.uleb128 0x3a
 2480 0120 0B       		.uleb128 0xb
 2481 0121 3B       		.uleb128 0x3b
 2482 0122 0B       		.uleb128 0xb
 2483 0123 01       		.uleb128 0x1
 2484 0124 13       		.uleb128 0x13
 2485 0125 00       		.byte	0
 2486 0126 00       		.byte	0
 2487 0127 18       		.uleb128 0x18
 2488 0128 01       		.uleb128 0x1
 2489 0129 01       		.byte	0x1
 2490 012a 49       		.uleb128 0x49
 2491 012b 13       		.uleb128 0x13
 2492 012c 01       		.uleb128 0x1
 2493 012d 13       		.uleb128 0x13
 2494 012e 00       		.byte	0
 2495 012f 00       		.byte	0
 2496 0130 19       		.uleb128 0x19
 2497 0131 21       		.uleb128 0x21
 2498 0132 00       		.byte	0
 2499 0133 49       		.uleb128 0x49
 2500 0134 13       		.uleb128 0x13
 2501 0135 2F       		.uleb128 0x2f
 2502 0136 0B       		.uleb128 0xb
 2503 0137 00       		.byte	0
 2504 0138 00       		.byte	0
 2505 0139 1A       		.uleb128 0x1a
 2506 013a 17       		.uleb128 0x17
 2507 013b 01       		.byte	0x1
 2508 013c 0B       		.uleb128 0xb
ARM GAS  C:\Users\mathi\AppData\Local\Temp\cc1oOiLv.s 			page 45


 2509 013d 0B       		.uleb128 0xb
 2510 013e 3A       		.uleb128 0x3a
 2511 013f 0B       		.uleb128 0xb
 2512 0140 3B       		.uleb128 0x3b
 2513 0141 0B       		.uleb128 0xb
 2514 0142 01       		.uleb128 0x1
 2515 0143 13       		.uleb128 0x13
 2516 0144 00       		.byte	0
 2517 0145 00       		.byte	0
 2518 0146 1B       		.uleb128 0x1b
 2519 0147 0D       		.uleb128 0xd
 2520 0148 00       		.byte	0
 2521 0149 03       		.uleb128 0x3
 2522 014a 0E       		.uleb128 0xe
 2523 014b 3A       		.uleb128 0x3a
 2524 014c 0B       		.uleb128 0xb
 2525 014d 3B       		.uleb128 0x3b
 2526 014e 05       		.uleb128 0x5
 2527 014f 49       		.uleb128 0x49
 2528 0150 13       		.uleb128 0x13
 2529 0151 00       		.byte	0
 2530 0152 00       		.byte	0
 2531 0153 1C       		.uleb128 0x1c
 2532 0154 34       		.uleb128 0x34
 2533 0155 00       		.byte	0
 2534 0156 03       		.uleb128 0x3
 2535 0157 08       		.uleb128 0x8
 2536 0158 3A       		.uleb128 0x3a
 2537 0159 0B       		.uleb128 0xb
 2538 015a 3B       		.uleb128 0x3b
 2539 015b 05       		.uleb128 0x5
 2540 015c 49       		.uleb128 0x49
 2541 015d 13       		.uleb128 0x13
 2542 015e 3F       		.uleb128 0x3f
 2543 015f 19       		.uleb128 0x19
 2544 0160 3C       		.uleb128 0x3c
 2545 0161 19       		.uleb128 0x19
 2546 0162 00       		.byte	0
 2547 0163 00       		.byte	0
 2548 0164 1D       		.uleb128 0x1d
 2549 0165 34       		.uleb128 0x34
 2550 0166 00       		.byte	0
 2551 0167 03       		.uleb128 0x3
 2552 0168 08       		.uleb128 0x8
 2553 0169 3A       		.uleb128 0x3a
 2554 016a 0B       		.uleb128 0xb
 2555 016b 3B       		.uleb128 0x3b
 2556 016c 05       		.uleb128 0x5
 2557 016d 49       		.uleb128 0x49
 2558 016e 13       		.uleb128 0x13
 2559 016f 02       		.uleb128 0x2
 2560 0170 18       		.uleb128 0x18
 2561 0171 00       		.byte	0
 2562 0172 00       		.byte	0
 2563 0173 1E       		.uleb128 0x1e
 2564 0174 2E       		.uleb128 0x2e
 2565 0175 01       		.byte	0x1
ARM GAS  C:\Users\mathi\AppData\Local\Temp\cc1oOiLv.s 			page 46


 2566 0176 3F       		.uleb128 0x3f
 2567 0177 19       		.uleb128 0x19
 2568 0178 03       		.uleb128 0x3
 2569 0179 0E       		.uleb128 0xe
 2570 017a 3A       		.uleb128 0x3a
 2571 017b 0B       		.uleb128 0xb
 2572 017c 3B       		.uleb128 0x3b
 2573 017d 05       		.uleb128 0x5
 2574 017e 27       		.uleb128 0x27
 2575 017f 19       		.uleb128 0x19
 2576 0180 49       		.uleb128 0x49
 2577 0181 13       		.uleb128 0x13
 2578 0182 11       		.uleb128 0x11
 2579 0183 01       		.uleb128 0x1
 2580 0184 12       		.uleb128 0x12
 2581 0185 06       		.uleb128 0x6
 2582 0186 40       		.uleb128 0x40
 2583 0187 18       		.uleb128 0x18
 2584 0188 9742     		.uleb128 0x2117
 2585 018a 19       		.uleb128 0x19
 2586 018b 01       		.uleb128 0x1
 2587 018c 13       		.uleb128 0x13
 2588 018d 00       		.byte	0
 2589 018e 00       		.byte	0
 2590 018f 1F       		.uleb128 0x1f
 2591 0190 05       		.uleb128 0x5
 2592 0191 00       		.byte	0
 2593 0192 03       		.uleb128 0x3
 2594 0193 08       		.uleb128 0x8
 2595 0194 3A       		.uleb128 0x3a
 2596 0195 0B       		.uleb128 0xb
 2597 0196 3B       		.uleb128 0x3b
 2598 0197 05       		.uleb128 0x5
 2599 0198 49       		.uleb128 0x49
 2600 0199 13       		.uleb128 0x13
 2601 019a 02       		.uleb128 0x2
 2602 019b 17       		.uleb128 0x17
 2603 019c 00       		.byte	0
 2604 019d 00       		.byte	0
 2605 019e 20       		.uleb128 0x20
 2606 019f 34       		.uleb128 0x34
 2607 01a0 00       		.byte	0
 2608 01a1 03       		.uleb128 0x3
 2609 01a2 0E       		.uleb128 0xe
 2610 01a3 3A       		.uleb128 0x3a
 2611 01a4 0B       		.uleb128 0xb
 2612 01a5 3B       		.uleb128 0x3b
 2613 01a6 05       		.uleb128 0x5
 2614 01a7 49       		.uleb128 0x49
 2615 01a8 13       		.uleb128 0x13
 2616 01a9 02       		.uleb128 0x2
 2617 01aa 18       		.uleb128 0x18
 2618 01ab 00       		.byte	0
 2619 01ac 00       		.byte	0
 2620 01ad 21       		.uleb128 0x21
 2621 01ae 34       		.uleb128 0x34
 2622 01af 00       		.byte	0
ARM GAS  C:\Users\mathi\AppData\Local\Temp\cc1oOiLv.s 			page 47


 2623 01b0 03       		.uleb128 0x3
 2624 01b1 08       		.uleb128 0x8
 2625 01b2 3A       		.uleb128 0x3a
 2626 01b3 0B       		.uleb128 0xb
 2627 01b4 3B       		.uleb128 0x3b
 2628 01b5 05       		.uleb128 0x5
 2629 01b6 49       		.uleb128 0x49
 2630 01b7 13       		.uleb128 0x13
 2631 01b8 02       		.uleb128 0x2
 2632 01b9 17       		.uleb128 0x17
 2633 01ba 00       		.byte	0
 2634 01bb 00       		.byte	0
 2635 01bc 22       		.uleb128 0x22
 2636 01bd 898201   		.uleb128 0x4109
 2637 01c0 00       		.byte	0
 2638 01c1 11       		.uleb128 0x11
 2639 01c2 01       		.uleb128 0x1
 2640 01c3 31       		.uleb128 0x31
 2641 01c4 13       		.uleb128 0x13
 2642 01c5 00       		.byte	0
 2643 01c6 00       		.byte	0
 2644 01c7 23       		.uleb128 0x23
 2645 01c8 2E       		.uleb128 0x2e
 2646 01c9 00       		.byte	0
 2647 01ca 3F       		.uleb128 0x3f
 2648 01cb 19       		.uleb128 0x19
 2649 01cc 3C       		.uleb128 0x3c
 2650 01cd 19       		.uleb128 0x19
 2651 01ce 6E       		.uleb128 0x6e
 2652 01cf 0E       		.uleb128 0xe
 2653 01d0 03       		.uleb128 0x3
 2654 01d1 0E       		.uleb128 0xe
 2655 01d2 00       		.byte	0
 2656 01d3 00       		.byte	0
 2657 01d4 00       		.byte	0
 2658              		.section	.debug_loc,"",%progbits
 2659              	.Ldebug_loc0:
 2660              	.LLST3:
 2661 0000 00000000 		.4byte	.LVL13
 2662 0004 22000000 		.4byte	.LVL17
 2663 0008 0100     		.2byte	0x1
 2664 000a 50       		.byte	0x50
 2665 000b 22000000 		.4byte	.LVL17
 2666 000f 2E000000 		.4byte	.LVL18
 2667 0013 0400     		.2byte	0x4
 2668 0015 F3       		.byte	0xf3
 2669 0016 01       		.uleb128 0x1
 2670 0017 50       		.byte	0x50
 2671 0018 9F       		.byte	0x9f
 2672 0019 2E000000 		.4byte	.LVL18
 2673 001d 34000000 		.4byte	.LVL19
 2674 0021 0100     		.2byte	0x1
 2675 0023 50       		.byte	0x50
 2676 0024 34000000 		.4byte	.LVL19
 2677 0028 36000000 		.4byte	.LVL20
 2678 002c 0400     		.2byte	0x4
 2679 002e F3       		.byte	0xf3
ARM GAS  C:\Users\mathi\AppData\Local\Temp\cc1oOiLv.s 			page 48


 2680 002f 01       		.uleb128 0x1
 2681 0030 50       		.byte	0x50
 2682 0031 9F       		.byte	0x9f
 2683 0032 36000000 		.4byte	.LVL20
 2684 0036 38000000 		.4byte	.LVL21
 2685 003a 0100     		.2byte	0x1
 2686 003c 50       		.byte	0x50
 2687 003d 38000000 		.4byte	.LVL21
 2688 0041 4C000000 		.4byte	.LFE220
 2689 0045 0400     		.2byte	0x4
 2690 0047 F3       		.byte	0xf3
 2691 0048 01       		.uleb128 0x1
 2692 0049 50       		.byte	0x50
 2693 004a 9F       		.byte	0x9f
 2694 004b 00000000 		.4byte	0
 2695 004f 00000000 		.4byte	0
 2696              	.LLST4:
 2697 0053 0A000000 		.4byte	.LVL14
 2698 0057 14000000 		.4byte	.LVL15
 2699 005b 0200     		.2byte	0x2
 2700 005d 30       		.byte	0x30
 2701 005e 9F       		.byte	0x9f
 2702 005f 14000000 		.4byte	.LVL15
 2703 0063 22000000 		.4byte	.LVL17
 2704 0067 0100     		.2byte	0x1
 2705 0069 52       		.byte	0x52
 2706 006a 2E000000 		.4byte	.LVL18
 2707 006e 36000000 		.4byte	.LVL20
 2708 0072 0100     		.2byte	0x1
 2709 0074 52       		.byte	0x52
 2710 0075 36000000 		.4byte	.LVL20
 2711 0079 3A000000 		.4byte	.LVL22
 2712 007d 0200     		.2byte	0x2
 2713 007f 30       		.byte	0x30
 2714 0080 9F       		.byte	0x9f
 2715 0081 00000000 		.4byte	0
 2716 0085 00000000 		.4byte	0
 2717              	.LLST0:
 2718 0089 00000000 		.4byte	.LVL0
 2719 008d 28000000 		.4byte	.LVL5
 2720 0091 0100     		.2byte	0x1
 2721 0093 50       		.byte	0x50
 2722 0094 28000000 		.4byte	.LVL5
 2723 0098 36000000 		.4byte	.LVL7
 2724 009c 0400     		.2byte	0x4
 2725 009e F3       		.byte	0xf3
 2726 009f 01       		.uleb128 0x1
 2727 00a0 50       		.byte	0x50
 2728 00a1 9F       		.byte	0x9f
 2729 00a2 36000000 		.4byte	.LVL7
 2730 00a6 3C000000 		.4byte	.LVL8
 2731 00aa 0100     		.2byte	0x1
 2732 00ac 50       		.byte	0x50
 2733 00ad 3C000000 		.4byte	.LVL8
 2734 00b1 44000000 		.4byte	.LVL9
 2735 00b5 0400     		.2byte	0x4
 2736 00b7 F3       		.byte	0xf3
ARM GAS  C:\Users\mathi\AppData\Local\Temp\cc1oOiLv.s 			page 49


 2737 00b8 01       		.uleb128 0x1
 2738 00b9 50       		.byte	0x50
 2739 00ba 9F       		.byte	0x9f
 2740 00bb 44000000 		.4byte	.LVL9
 2741 00bf 46000000 		.4byte	.LVL10
 2742 00c3 0100     		.2byte	0x1
 2743 00c5 50       		.byte	0x50
 2744 00c6 46000000 		.4byte	.LVL10
 2745 00ca 54000000 		.4byte	.LFE219
 2746 00ce 0400     		.2byte	0x4
 2747 00d0 F3       		.byte	0xf3
 2748 00d1 01       		.uleb128 0x1
 2749 00d2 50       		.byte	0x50
 2750 00d3 9F       		.byte	0x9f
 2751 00d4 00000000 		.4byte	0
 2752 00d8 00000000 		.4byte	0
 2753              	.LLST1:
 2754 00dc 00000000 		.4byte	.LVL0
 2755 00e0 14000000 		.4byte	.LVL1
 2756 00e4 0100     		.2byte	0x1
 2757 00e6 51       		.byte	0x51
 2758 00e7 14000000 		.4byte	.LVL1
 2759 00eb 36000000 		.4byte	.LVL7
 2760 00ef 0400     		.2byte	0x4
 2761 00f1 F3       		.byte	0xf3
 2762 00f2 01       		.uleb128 0x1
 2763 00f3 51       		.byte	0x51
 2764 00f4 9F       		.byte	0x9f
 2765 00f5 36000000 		.4byte	.LVL7
 2766 00f9 44000000 		.4byte	.LVL9
 2767 00fd 0100     		.2byte	0x1
 2768 00ff 51       		.byte	0x51
 2769 0100 44000000 		.4byte	.LVL9
 2770 0104 54000000 		.4byte	.LFE219
 2771 0108 0400     		.2byte	0x4
 2772 010a F3       		.byte	0xf3
 2773 010b 01       		.uleb128 0x1
 2774 010c 51       		.byte	0x51
 2775 010d 9F       		.byte	0x9f
 2776 010e 00000000 		.4byte	0
 2777 0112 00000000 		.4byte	0
 2778              	.LLST2:
 2779 0116 14000000 		.4byte	.LVL1
 2780 011a 16000000 		.4byte	.LVL2
 2781 011e 0300     		.2byte	0x3
 2782 0120 71       		.byte	0x71
 2783 0121 01       		.sleb128 1
 2784 0122 9F       		.byte	0x9f
 2785 0123 16000000 		.4byte	.LVL2
 2786 0127 1A000000 		.4byte	.LVL3
 2787 012b 0300     		.2byte	0x3
 2788 012d 74       		.byte	0x74
 2789 012e 01       		.sleb128 1
 2790 012f 9F       		.byte	0x9f
 2791 0130 22000000 		.4byte	.LVL4
 2792 0134 2A000000 		.4byte	.LVL6
 2793 0138 0100     		.2byte	0x1
ARM GAS  C:\Users\mathi\AppData\Local\Temp\cc1oOiLv.s 			page 50


 2794 013a 54       		.byte	0x54
 2795 013b 2A000000 		.4byte	.LVL6
 2796 013f 36000000 		.4byte	.LVL7
 2797 0143 0100     		.2byte	0x1
 2798 0145 50       		.byte	0x50
 2799 0146 48000000 		.4byte	.LVL11
 2800 014a 4B000000 		.4byte	.LVL12-1
 2801 014e 0100     		.2byte	0x1
 2802 0150 50       		.byte	0x50
 2803 0151 00000000 		.4byte	0
 2804 0155 00000000 		.4byte	0
 2805              		.section	.debug_aranges,"",%progbits
 2806 0000 24000000 		.4byte	0x24
 2807 0004 0200     		.2byte	0x2
 2808 0006 00000000 		.4byte	.Ldebug_info0
 2809 000a 04       		.byte	0x4
 2810 000b 00       		.byte	0
 2811 000c 0000     		.2byte	0
 2812 000e 0000     		.2byte	0
 2813 0010 00000000 		.4byte	.LFB219
 2814 0014 54000000 		.4byte	.LFE219-.LFB219
 2815 0018 00000000 		.4byte	.LFB220
 2816 001c 4C000000 		.4byte	.LFE220-.LFB220
 2817 0020 00000000 		.4byte	0
 2818 0024 00000000 		.4byte	0
 2819              		.section	.debug_ranges,"",%progbits
 2820              	.Ldebug_ranges0:
 2821 0000 00000000 		.4byte	.LFB219
 2822 0004 54000000 		.4byte	.LFE219
 2823 0008 00000000 		.4byte	.LFB220
 2824 000c 4C000000 		.4byte	.LFE220
 2825 0010 00000000 		.4byte	0
 2826 0014 00000000 		.4byte	0
 2827              		.section	.debug_line,"",%progbits
 2828              	.Ldebug_line0:
 2829 0000 43040000 		.section	.debug_str,"MS",%progbits,1
 2829      0200ED03 
 2829      00000201 
 2829      FB0E0D00 
 2829      01010101 
 2830              	.LASF148:
 2831 0000 63665F6F 		.ascii	"cf_off_older\000"
 2831      66665F6F 
 2831      6C646572 
 2831      00
 2832              	.LASF63:
 2833 000d 72656164 		.ascii	"ready_list_t\000"
 2833      795F6C69 
 2833      73745F74 
 2833      00
 2834              	.LASF101:
 2835 001a 73655F74 		.ascii	"se_time\000"
 2835      696D6500 
 2836              	.LASF160:
 2837 0022 74626C5F 		.ascii	"tbl_upper\000"
 2837      75707065 
 2837      7200
ARM GAS  C:\Users\mathi\AppData\Local\Temp\cc1oOiLv.s 			page 51


 2838              	.LASF8:
 2839 002c 73697A65 		.ascii	"size_t\000"
 2839      5F7400
 2840              	.LASF122:
 2841 0033 7264796D 		.ascii	"rdymsg\000"
 2841      736700
 2842              	.LASF22:
 2843 003a 75696E74 		.ascii	"uint64_t\000"
 2843      36345F74 
 2843      00
 2844              	.LASF12:
 2845 0043 5F5F7569 		.ascii	"__uint8_t\000"
 2845      6E74385F 
 2845      7400
 2846              	.LASF100:
 2847 004d 706F7274 		.ascii	"port_intctx\000"
 2847      5F696E74 
 2847      63747800 
 2848              	.LASF62:
 2849 0059 63685F74 		.ascii	"ch_threads_queue\000"
 2849      68726561 
 2849      64735F71 
 2849      75657565 
 2849      00
 2850              	.LASF82:
 2851 006a 73797374 		.ascii	"system_debug_t\000"
 2851      656D5F64 
 2851      65627567 
 2851      5F7400
 2852              	.LASF113:
 2853 0079 776F7273 		.ascii	"worst\000"
 2853      7400
 2854              	.LASF116:
 2855 007f 74696D65 		.ascii	"time_measurement_t\000"
 2855      5F6D6561 
 2855      73757265 
 2855      6D656E74 
 2855      5F7400
 2856              	.LASF17:
 2857 0092 6C6F6E67 		.ascii	"long long unsigned int\000"
 2857      206C6F6E 
 2857      6720756E 
 2857      7369676E 
 2857      65642069 
 2858              	.LASF109:
 2859 00a9 63685F74 		.ascii	"ch_trace_buffer_t\000"
 2859      72616365 
 2859      5F627566 
 2859      6665725F 
 2859      7400
 2860              	.LASF144:
 2861 00bb 63685F74 		.ascii	"ch_threadsize\000"
 2861      68726561 
 2861      6473697A 
 2861      6500
 2862              	.LASF123:
 2863 00c9 65786974 		.ascii	"exitcode\000"
ARM GAS  C:\Users\mathi\AppData\Local\Temp\cc1oOiLv.s 			page 52


 2863      636F6465 
 2863      00
 2864              	.LASF92:
 2865 00d2 6D61696E 		.ascii	"mainthread\000"
 2865      74687265 
 2865      616400
 2866              	.LASF79:
 2867 00dd 76697274 		.ascii	"virtual_timers_list_t\000"
 2867      75616C5F 
 2867      74696D65 
 2867      72735F6C 
 2867      6973745F 
 2868              	.LASF95:
 2869 00f3 49544D5F 		.ascii	"ITM_RxBuffer\000"
 2869      52784275 
 2869      66666572 
 2869      00
 2870              	.LASF24:
 2871 0100 72747469 		.ascii	"rttime_t\000"
 2871      6D655F74 
 2871      00
 2872              	.LASF38:
 2873 0109 705F7072 		.ascii	"p_prio\000"
 2873      696F00
 2874              	.LASF151:
 2875 0110 63665F6F 		.ascii	"cf_off_state\000"
 2875      66665F73 
 2875      74617465 
 2875      00
 2876              	.LASF9:
 2877 011d 6C6F6E67 		.ascii	"long long int\000"
 2877      206C6F6E 
 2877      6720696E 
 2877      7400
 2878              	.LASF11:
 2879 012b 7369676E 		.ascii	"signed char\000"
 2879      65642063 
 2879      68617200 
 2880              	.LASF161:
 2881 0137 66665F77 		.ascii	"ff_wtoupper\000"
 2881      746F7570 
 2881      70657200 
 2882              	.LASF150:
 2883 0143 63665F6F 		.ascii	"cf_off_stklimit\000"
 2883      66665F73 
 2883      746B6C69 
 2883      6D697400 
 2884              	.LASF152:
 2885 0153 63665F6F 		.ascii	"cf_off_flags\000"
 2885      66665F66 
 2885      6C616773 
 2885      00
 2886              	.LASF55:
 2887 0160 705F6D70 		.ascii	"p_mpool\000"
 2887      6F6F6C00 
 2888              	.LASF133:
 2889 0168 6D5F7175 		.ascii	"m_queue\000"
ARM GAS  C:\Users\mathi\AppData\Local\Temp\cc1oOiLv.s 			page 53


 2889      65756500 
 2890              	.LASF91:
 2891 0170 76746C69 		.ascii	"vtlist\000"
 2891      737400
 2892              	.LASF28:
 2893 0177 74736C69 		.ascii	"tslices_t\000"
 2893      6365735F 
 2893      7400
 2894              	.LASF162:
 2895 0181 66665F63 		.ascii	"ff_convert\000"
 2895      6F6E7665 
 2895      727400
 2896              	.LASF125:
 2897 018c 77747472 		.ascii	"wttrp\000"
 2897      7000
 2898              	.LASF89:
 2899 0192 63685F73 		.ascii	"ch_system\000"
 2899      79737465 
 2899      6D00
 2900              	.LASF6:
 2901 019c 6C6F6E67 		.ascii	"long int\000"
 2901      20696E74 
 2901      00
 2902              	.LASF26:
 2903 01a5 74737461 		.ascii	"tstate_t\000"
 2903      74655F74 
 2903      00
 2904              	.LASF159:
 2905 01ae 74626C5F 		.ascii	"tbl_lower\000"
 2905      6C6F7765 
 2905      7200
 2906              	.LASF102:
 2907 01b8 73655F74 		.ascii	"se_tp\000"
 2907      7000
 2908              	.LASF156:
 2909 01be 63686465 		.ascii	"chdebug_t\000"
 2909      6275675F 
 2909      7400
 2910              	.LASF40:
 2911 01c8 705F6E65 		.ascii	"p_newer\000"
 2911      77657200 
 2912              	.LASF130:
 2913 01d0 735F7175 		.ascii	"s_queue\000"
 2913      65756500 
 2914              	.LASF106:
 2915 01d8 74625F73 		.ascii	"tb_size\000"
 2915      697A6500 
 2916              	.LASF68:
 2917 01e0 725F6E65 		.ascii	"r_newer\000"
 2917      77657200 
 2918              	.LASF97:
 2919 01e8 72656761 		.ascii	"regarm_t\000"
 2919      726D5F74 
 2919      00
 2920              	.LASF75:
 2921 01f1 76745F70 		.ascii	"vt_prev\000"
 2921      72657600 
ARM GAS  C:\Users\mathi\AppData\Local\Temp\cc1oOiLv.s 			page 54


 2922              	.LASF83:
 2923 01f9 63685F73 		.ascii	"ch_system_debug\000"
 2923      79737465 
 2923      6D5F6465 
 2923      62756700 
 2924              	.LASF136:
 2925 0209 6D5F636E 		.ascii	"m_cnt\000"
 2925      7400
 2926              	.LASF158:
 2927 020f 6D757465 		.ascii	"mutex_t\000"
 2927      785F7400 
 2928              	.LASF86:
 2929 0217 6C6F636B 		.ascii	"lock_cnt\000"
 2929      5F636E74 
 2929      00
 2930              	.LASF94:
 2931 0220 69646C65 		.ascii	"idle_thread_wa\000"
 2931      5F746872 
 2931      6561645F 
 2931      776100
 2932              	.LASF32:
 2933 022f 636E745F 		.ascii	"cnt_t\000"
 2933      7400
 2934              	.LASF43:
 2935 0235 705F7374 		.ascii	"p_stklimit\000"
 2935      6B6C696D 
 2935      697400
 2936              	.LASF5:
 2937 0240 756E7369 		.ascii	"unsigned int\000"
 2937      676E6564 
 2937      20696E74 
 2937      00
 2938              	.LASF74:
 2939 024d 76745F6E 		.ascii	"vt_next\000"
 2939      65787400 
 2940              	.LASF19:
 2941 0255 75696E74 		.ascii	"uint16_t\000"
 2941      31365F74 
 2941      00
 2942              	.LASF96:
 2943 025e 53797374 		.ascii	"SystemCoreClock\000"
 2943      656D436F 
 2943      7265436C 
 2943      6F636B00 
 2944              	.LASF48:
 2945 026e 705F7469 		.ascii	"p_time\000"
 2945      6D6500
 2946              	.LASF126:
 2947 0275 77747365 		.ascii	"wtsemp\000"
 2947      6D7000
 2948              	.LASF4:
 2949 027c 55494E54 		.ascii	"UINT\000"
 2949      00
 2950              	.LASF165:
 2951 0281 433A5C55 		.ascii	"C:\\Users\\mathi\\Documents\\robotique\\robotics_pr"
 2951      73657273 
 2951      5C6D6174 
ARM GAS  C:\Users\mathi\AppData\Local\Temp\cc1oOiLv.s 			page 55


 2951      68695C44 
 2951      6F63756D 
 2952 02af 6F6A6563 		.ascii	"oject\\robotics_project\\robotics_project\000"
 2952      745C726F 
 2952      626F7469 
 2952      63735F70 
 2952      726F6A65 
 2953              	.LASF50:
 2954 02d7 705F6D73 		.ascii	"p_msgqueue\000"
 2954      67717565 
 2954      756500
 2955              	.LASF157:
 2956 02e2 63685F64 		.ascii	"ch_debug\000"
 2956      65627567 
 2956      00
 2957              	.LASF117:
 2958 02eb 6E5F6972 		.ascii	"n_irq\000"
 2958      7100
 2959              	.LASF131:
 2960 02f1 735F636E 		.ascii	"s_cnt\000"
 2960      7400
 2961              	.LASF2:
 2962 02f7 73686F72 		.ascii	"short unsigned int\000"
 2962      7420756E 
 2962      7369676E 
 2962      65642069 
 2962      6E7400
 2963              	.LASF121:
 2964 030a 6B65726E 		.ascii	"kernel_stats_t\000"
 2964      656C5F73 
 2964      74617473 
 2964      5F7400
 2965              	.LASF59:
 2966 0319 63685F74 		.ascii	"ch_thread\000"
 2966      68726561 
 2966      6400
 2967              	.LASF30:
 2968 0323 6D73675F 		.ascii	"msg_t\000"
 2968      7400
 2969              	.LASF114:
 2970 0329 6C617374 		.ascii	"last\000"
 2970      00
 2971              	.LASF33:
 2972 032e 75636E74 		.ascii	"ucnt_t\000"
 2972      5F7400
 2973              	.LASF88:
 2974 0335 63685F73 		.ascii	"ch_system_t\000"
 2974      79737465 
 2974      6D5F7400 
 2975              	.LASF155:
 2976 0341 63665F6F 		.ascii	"cf_off_time\000"
 2976      66665F74 
 2976      696D6500 
 2977              	.LASF120:
 2978 034d 6D5F6372 		.ascii	"m_crit_isr\000"
 2978      69745F69 
 2978      737200
ARM GAS  C:\Users\mathi\AppData\Local\Temp\cc1oOiLv.s 			page 56


 2979              	.LASF64:
 2980 0358 63685F72 		.ascii	"ch_ready_list\000"
 2980      65616479 
 2980      5F6C6973 
 2980      7400
 2981              	.LASF31:
 2982 0366 6576656E 		.ascii	"eventmask_t\000"
 2982      746D6173 
 2982      6B5F7400 
 2983              	.LASF14:
 2984 0372 5F5F696E 		.ascii	"__int32_t\000"
 2984      7433325F 
 2984      7400
 2985              	.LASF98:
 2986 037c 73746B61 		.ascii	"stkalign_t\000"
 2986      6C69676E 
 2986      5F7400
 2987              	.LASF58:
 2988 0387 74687265 		.ascii	"threads_list_t\000"
 2988      6164735F 
 2988      6C697374 
 2988      5F7400
 2989              	.LASF139:
 2990 0396 63685F7A 		.ascii	"ch_zero\000"
 2990      65726F00 
 2991              	.LASF153:
 2992 039e 63665F6F 		.ascii	"cf_off_refs\000"
 2992      66665F72 
 2992      65667300 
 2993              	.LASF66:
 2994 03aa 725F7072 		.ascii	"r_prio\000"
 2994      696F00
 2995              	.LASF49:
 2996 03b1 705F7761 		.ascii	"p_waiting\000"
 2996      6974696E 
 2996      6700
 2997              	.LASF23:
 2998 03bb 7274636E 		.ascii	"rtcnt_t\000"
 2998      745F7400 
 2999              	.LASF80:
 3000 03c3 63685F76 		.ascii	"ch_virtual_timers_list\000"
 3000      69727475 
 3000      616C5F74 
 3000      696D6572 
 3000      735F6C69 
 3001              	.LASF10:
 3002 03da 6C6F6E67 		.ascii	"long double\000"
 3002      20646F75 
 3002      626C6500 
 3003              	.LASF143:
 3004 03e6 63685F74 		.ascii	"ch_timesize\000"
 3004      696D6573 
 3004      697A6500 
 3005              	.LASF107:
 3006 03f2 74625F70 		.ascii	"tb_ptr\000"
 3006      747200
 3007              	.LASF105:
ARM GAS  C:\Users\mathi\AppData\Local\Temp\cc1oOiLv.s 			page 57


 3008 03f9 63685F73 		.ascii	"ch_swc_event_t\000"
 3008      77635F65 
 3008      76656E74 
 3008      5F7400
 3009              	.LASF149:
 3010 0408 63665F6F 		.ascii	"cf_off_name\000"
 3010      66665F6E 
 3010      616D6500 
 3011              	.LASF41:
 3012 0414 705F6F6C 		.ascii	"p_older\000"
 3012      64657200 
 3013              	.LASF67:
 3014 041c 725F6374 		.ascii	"r_ctx\000"
 3014      7800
 3015              	.LASF39:
 3016 0422 705F6374 		.ascii	"p_ctx\000"
 3016      7800
 3017              	.LASF111:
 3018 0428 746D5F63 		.ascii	"tm_calibration_t\000"
 3018      616C6962 
 3018      72617469 
 3018      6F6E5F74 
 3018      00
 3019              	.LASF70:
 3020 0439 725F6375 		.ascii	"r_current\000"
 3020      7272656E 
 3020      7400
 3021              	.LASF69:
 3022 0443 725F6F6C 		.ascii	"r_older\000"
 3022      64657200 
 3023              	.LASF16:
 3024 044b 5F5F7569 		.ascii	"__uint64_t\000"
 3024      6E743634 
 3024      5F7400
 3025              	.LASF115:
 3026 0456 63756D75 		.ascii	"cumulative\000"
 3026      6C617469 
 3026      766500
 3027              	.LASF163:
 3028 0461 474E5520 		.ascii	"GNU C11 7.2.1 20170904 (release) [ARM/embedded-7-br"
 3028      43313120 
 3028      372E322E 
 3028      31203230 
 3028      31373039 
 3029 0494 616E6368 		.ascii	"anch revision 255204] -mcpu=cortex-m4 -mfloat-abi=h"
 3029      20726576 
 3029      6973696F 
 3029      6E203235 
 3029      35323034 
 3030 04c7 61726420 		.ascii	"ard -mfpu=fpv4-sp-d16 -mno-thumb-interwork -mthumb "
 3030      2D6D6670 
 3030      753D6670 
 3030      76342D73 
 3030      702D6431 
 3031 04fa 2D676764 		.ascii	"-ggdb -O3 -fomit-frame-pointer -falign-functions=16"
 3031      62202D4F 
 3031      33202D66 
ARM GAS  C:\Users\mathi\AppData\Local\Temp\cc1oOiLv.s 			page 58


 3031      6F6D6974 
 3031      2D667261 
 3032 052d 202D666E 		.ascii	" -fno-strict-aliasing -fstack-protector-all -ffunct"
 3032      6F2D7374 
 3032      72696374 
 3032      2D616C69 
 3032      6173696E 
 3033 0560 696F6E2D 		.ascii	"ion-sections -fdata-sections -fno-common -fsingle-p"
 3033      73656374 
 3033      696F6E73 
 3033      202D6664 
 3033      6174612D 
 3034 0593 72656369 		.ascii	"recision-constant\000"
 3034      73696F6E 
 3034      2D636F6E 
 3034      7374616E 
 3034      7400
 3035              	.LASF93:
 3036 05a5 6B65726E 		.ascii	"kernel_stats\000"
 3036      656C5F73 
 3036      74617473 
 3036      00
 3037              	.LASF27:
 3038 05b2 74726566 		.ascii	"trefs_t\000"
 3038      735F7400 
 3039              	.LASF108:
 3040 05ba 74625F62 		.ascii	"tb_buffer\000"
 3040      75666665 
 3040      7200
 3041              	.LASF142:
 3042 05c4 63685F70 		.ascii	"ch_ptrsize\000"
 3042      74727369 
 3042      7A6500
 3043              	.LASF72:
 3044 05cf 76697274 		.ascii	"virtual_timer_t\000"
 3044      75616C5F 
 3044      74696D65 
 3044      725F7400 
 3045              	.LASF37:
 3046 05df 705F7072 		.ascii	"p_prev\000"
 3046      657600
 3047              	.LASF29:
 3048 05e6 74707269 		.ascii	"tprio_t\000"
 3048      6F5F7400 
 3049              	.LASF164:
 3050 05ee 2E2E2F2E 		.ascii	"../../lib/e-puck2_main-processor/ChibiOS_ext//ext/f"
 3050      2E2F6C69 
 3050      622F652D 
 3050      7075636B 
 3050      325F6D61 
 3051 0621 61746673 		.ascii	"atfs/src/option/unicode.c\000"
 3051      2F737263 
 3051      2F6F7074 
 3051      696F6E2F 
 3051      756E6963 
 3052              	.LASF42:
 3053 063b 705F6E61 		.ascii	"p_name\000"
ARM GAS  C:\Users\mathi\AppData\Local\Temp\cc1oOiLv.s 			page 59


 3053      6D6500
 3054              	.LASF118:
 3055 0642 6E5F6374 		.ascii	"n_ctxswc\000"
 3055      78737763 
 3055      00
 3056              	.LASF20:
 3057 064b 696E7433 		.ascii	"int32_t\000"
 3057      325F7400 
 3058              	.LASF0:
 3059 0653 756E7369 		.ascii	"unsigned char\000"
 3059      676E6564 
 3059      20636861 
 3059      7200
 3060              	.LASF53:
 3061 0661 705F6D74 		.ascii	"p_mtxlist\000"
 3061      786C6973 
 3061      7400
 3062              	.LASF1:
 3063 066b 73686F72 		.ascii	"short int\000"
 3063      7420696E 
 3063      7400
 3064              	.LASF44:
 3065 0675 705F7374 		.ascii	"p_state\000"
 3065      61746500 
 3066              	.LASF47:
 3067 067d 705F7072 		.ascii	"p_preempt\000"
 3067      65656D70 
 3067      7400
 3068              	.LASF141:
 3069 0687 63685F76 		.ascii	"ch_version\000"
 3069      65727369 
 3069      6F6E00
 3070              	.LASF128:
 3071 0692 65776D61 		.ascii	"ewmask\000"
 3071      736B00
 3072              	.LASF36:
 3073 0699 705F6E65 		.ascii	"p_next\000"
 3073      787400
 3074              	.LASF25:
 3075 06a0 746D6F64 		.ascii	"tmode_t\000"
 3075      655F7400 
 3076              	.LASF154:
 3077 06a8 63665F6F 		.ascii	"cf_off_preempt\000"
 3077      66665F70 
 3077      7265656D 
 3077      707400
 3078              	.LASF45:
 3079 06b7 705F666C 		.ascii	"p_flags\000"
 3079      61677300 
 3080              	.LASF56:
 3081 06bf 705F7374 		.ascii	"p_stats\000"
 3081      61747300 
 3082              	.LASF61:
 3083 06c7 74687265 		.ascii	"threads_queue_t\000"
 3083      6164735F 
 3083      71756575 
 3083      655F7400 
ARM GAS  C:\Users\mathi\AppData\Local\Temp\cc1oOiLv.s 			page 60


 3084              	.LASF73:
 3085 06d7 63685F76 		.ascii	"ch_virtual_timer\000"
 3085      69727475 
 3085      616C5F74 
 3085      696D6572 
 3085      00
 3086              	.LASF147:
 3087 06e8 63665F6F 		.ascii	"cf_off_newer\000"
 3087      66665F6E 
 3087      65776572 
 3087      00
 3088              	.LASF166:
 3089 06f5 5F5F7374 		.ascii	"__stack_chk_fail\000"
 3089      61636B5F 
 3089      63686B5F 
 3089      6661696C 
 3089      00
 3090              	.LASF129:
 3091 0706 63685F73 		.ascii	"ch_semaphore\000"
 3091      656D6170 
 3091      686F7265 
 3091      00
 3092              	.LASF52:
 3093 0713 705F6570 		.ascii	"p_epending\000"
 3093      656E6469 
 3093      6E6700
 3094              	.LASF21:
 3095 071e 75696E74 		.ascii	"uint32_t\000"
 3095      33325F74 
 3095      00
 3096              	.LASF145:
 3097 0727 63665F6F 		.ascii	"cf_off_prio\000"
 3097      66665F70 
 3097      72696F00 
 3098              	.LASF65:
 3099 0733 725F7175 		.ascii	"r_queue\000"
 3099      65756500 
 3100              	.LASF60:
 3101 073b 63685F74 		.ascii	"ch_threads_list\000"
 3101      68726561 
 3101      64735F6C 
 3101      69737400 
 3102              	.LASF140:
 3103 074b 63685F73 		.ascii	"ch_size\000"
 3103      697A6500 
 3104              	.LASF7:
 3105 0753 6C6F6E67 		.ascii	"long unsigned int\000"
 3105      20756E73 
 3105      69676E65 
 3105      6420696E 
 3105      7400
 3106              	.LASF137:
 3107 0765 63686172 		.ascii	"char\000"
 3107      00
 3108              	.LASF127:
 3109 076a 77746D74 		.ascii	"wtmtxp\000"
 3109      787000
ARM GAS  C:\Users\mathi\AppData\Local\Temp\cc1oOiLv.s 			page 61


 3110              	.LASF13:
 3111 0771 5F5F7569 		.ascii	"__uint16_t\000"
 3111      6E743136 
 3111      5F7400
 3112              	.LASF35:
 3113 077c 74687265 		.ascii	"thread_t\000"
 3113      61645F74 
 3113      00
 3114              	.LASF112:
 3115 0785 62657374 		.ascii	"best\000"
 3115      00
 3116              	.LASF135:
 3117 078a 6D5F6E65 		.ascii	"m_next\000"
 3117      787400
 3118              	.LASF34:
 3119 0791 73797374 		.ascii	"systime_t\000"
 3119      696D655F 
 3119      7400
 3120              	.LASF54:
 3121 079b 705F7265 		.ascii	"p_realprio\000"
 3121      616C7072 
 3121      696F00
 3122              	.LASF71:
 3123 07a6 76746675 		.ascii	"vtfunc_t\000"
 3123      6E635F74 
 3123      00
 3124              	.LASF15:
 3125 07af 5F5F7569 		.ascii	"__uint32_t\000"
 3125      6E743332 
 3125      5F7400
 3126              	.LASF84:
 3127 07ba 70616E69 		.ascii	"panic_msg\000"
 3127      635F6D73 
 3127      6700
 3128              	.LASF110:
 3129 07c4 6F666673 		.ascii	"offset\000"
 3129      657400
 3130              	.LASF99:
 3131 07cb 636F6E74 		.ascii	"context\000"
 3131      65787400 
 3132              	.LASF51:
 3133 07d3 705F6D73 		.ascii	"p_msg\000"
 3133      6700
 3134              	.LASF78:
 3135 07d9 76745F70 		.ascii	"vt_par\000"
 3135      617200
 3136              	.LASF146:
 3137 07e0 63665F6F 		.ascii	"cf_off_ctx\000"
 3137      66665F63 
 3137      747800
 3138              	.LASF132:
 3139 07eb 63685F6D 		.ascii	"ch_mutex\000"
 3139      75746578 
 3139      00
 3140              	.LASF46:
 3141 07f4 705F7265 		.ascii	"p_refs\000"
 3141      667300
ARM GAS  C:\Users\mathi\AppData\Local\Temp\cc1oOiLv.s 			page 62


 3142              	.LASF85:
 3143 07fb 6973725F 		.ascii	"isr_cnt\000"
 3143      636E7400 
 3144              	.LASF104:
 3145 0803 73655F73 		.ascii	"se_state\000"
 3145      74617465 
 3145      00
 3146              	.LASF90:
 3147 080c 726C6973 		.ascii	"rlist\000"
 3147      7400
 3148              	.LASF18:
 3149 0812 75696E74 		.ascii	"uint8_t\000"
 3149      385F7400 
 3150              	.LASF57:
 3151 081a 74687265 		.ascii	"thread_reference_t\000"
 3151      61645F72 
 3151      65666572 
 3151      656E6365 
 3151      5F7400
 3152              	.LASF124:
 3153 082d 77746F62 		.ascii	"wtobjp\000"
 3153      6A7000
 3154              	.LASF3:
 3155 0834 57434841 		.ascii	"WCHAR\000"
 3155      5200
 3156              	.LASF81:
 3157 083a 76745F73 		.ascii	"vt_systime\000"
 3157      79737469 
 3157      6D6500
 3158              	.LASF87:
 3159 0845 74726163 		.ascii	"trace_buffer\000"
 3159      655F6275 
 3159      66666572 
 3159      00
 3160              	.LASF76:
 3161 0852 76745F64 		.ascii	"vt_delta\000"
 3161      656C7461 
 3161      00
 3162              	.LASF119:
 3163 085b 6D5F6372 		.ascii	"m_crit_thd\000"
 3163      69745F74 
 3163      686400
 3164              	.LASF134:
 3165 0866 6D5F6F77 		.ascii	"m_owner\000"
 3165      6E657200 
 3166              	.LASF103:
 3167 086e 73655F77 		.ascii	"se_wtobjp\000"
 3167      746F626A 
 3167      7000
 3168              	.LASF138:
 3169 0878 63685F69 		.ascii	"ch_identifier\000"
 3169      64656E74 
 3169      69666965 
 3169      7200
 3170              	.LASF77:
 3171 0886 76745F66 		.ascii	"vt_func\000"
 3171      756E6300 
ARM GAS  C:\Users\mathi\AppData\Local\Temp\cc1oOiLv.s 			page 63


 3172              		.ident	"GCC: (GNU Tools for Arm Embedded Processors 7-2017-q4-major) 7.2.1 20170904 (release) [ARM
ARM GAS  C:\Users\mathi\AppData\Local\Temp\cc1oOiLv.s 			page 64


DEFINED SYMBOLS
                            *ABS*:00000000 unicode.c
C:\Users\mathi\AppData\Local\Temp\cc1oOiLv.s:18     .text.ff_convert:00000000 $t
C:\Users\mathi\AppData\Local\Temp\cc1oOiLv.s:26     .text.ff_convert:00000000 ff_convert
C:\Users\mathi\AppData\Local\Temp\cc1oOiLv.s:108    .text.ff_convert:0000004c $d
C:\Users\mathi\AppData\Local\Temp\cc1oOiLv.s:114    .text.ff_wtoupper:00000000 $t
C:\Users\mathi\AppData\Local\Temp\cc1oOiLv.s:122    .text.ff_wtoupper:00000000 ff_wtoupper
C:\Users\mathi\AppData\Local\Temp\cc1oOiLv.s:191    .text.ff_wtoupper:00000040 $d
C:\Users\mathi\AppData\Local\Temp\cc1oOiLv.s:198    .rodata.Tbl:00000000 $d
C:\Users\mathi\AppData\Local\Temp\cc1oOiLv.s:202    .rodata.Tbl:00000000 Tbl
C:\Users\mathi\AppData\Local\Temp\cc1oOiLv.s:332    .rodata.tbl_lower.8049:00000000 $d
C:\Users\mathi\AppData\Local\Temp\cc1oOiLv.s:336    .rodata.tbl_lower.8049:00000000 tbl_lower.8049
C:\Users\mathi\AppData\Local\Temp\cc1oOiLv.s:578    .rodata.tbl_upper.8050:00000000 $d
C:\Users\mathi\AppData\Local\Temp\cc1oOiLv.s:582    .rodata.tbl_upper.8050:00000000 tbl_upper.8050

UNDEFINED SYMBOLS
__stack_chk_fail
__stack_chk_guard
