ARM GAS  C:\Users\mathi\AppData\Local\Temp\ccXUSDGB.s 			page 1


   1              		.cpu cortex-m4
   2              		.eabi_attribute 27, 1
   3              		.eabi_attribute 28, 1
   4              		.eabi_attribute 20, 1
   5              		.eabi_attribute 21, 1
   6              		.eabi_attribute 23, 3
   7              		.eabi_attribute 24, 1
   8              		.eabi_attribute 25, 1
   9              		.eabi_attribute 26, 1
  10              		.eabi_attribute 30, 2
  11              		.eabi_attribute 34, 1
  12              		.eabi_attribute 18, 4
  13              		.file	"usb.c"
  14              		.text
  15              	.Ltext0:
  16              		.cfi_sections	.debug_frame
  17              		.section	.text.usbInit,"ax",%progbits
  18              		.align	1
  19              		.p2align 4,,15
  20              		.global	usbInit
  21              		.syntax unified
  22              		.thumb
  23              		.thumb_func
  24              		.fpu fpv4-sp-d16
  25              		.type	usbInit, %function
  26              	usbInit:
  27              	.LFB259:
  28              		.file 1 "../../lib/e-puck2_main-processor/ChibiOS//os/hal/src/usb.c"
  29              		.loc 1 254 0
  30              		.cfi_startproc
  31              		@ args = 0, pretend = 0, frame = 8
  32              		@ frame_needed = 0, uses_anonymous_args = 0
  33 0000 00B5     		push	{lr}
  34              		.cfi_def_cfa_offset 4
  35              		.cfi_offset 14, -4
  36 0002 074B     		ldr	r3, .L7
  37 0004 83B0     		sub	sp, sp, #12
  38              		.cfi_def_cfa_offset 16
  39              		.loc 1 254 0
  40 0006 1A68     		ldr	r2, [r3]
  41 0008 0192     		str	r2, [sp, #4]
  42              		.loc 1 256 0
  43 000a 019A     		ldr	r2, [sp, #4]
  44 000c 1B68     		ldr	r3, [r3]
  45 000e 9A42     		cmp	r2, r3
  46 0010 04D1     		bne	.L6
  47              		.loc 1 257 0
  48 0012 03B0     		add	sp, sp, #12
  49              		.cfi_remember_state
  50              		.cfi_def_cfa_offset 4
  51              		@ sp needed
  52 0014 5DF804EB 		ldr	lr, [sp], #4
  53              		.cfi_restore 14
  54              		.cfi_def_cfa_offset 0
  55              		.loc 1 256 0
  56 0018 FFF7FEBF 		b	usb_lld_init
  57              	.LVL0:
ARM GAS  C:\Users\mathi\AppData\Local\Temp\ccXUSDGB.s 			page 2


  58              	.L6:
  59              		.cfi_restore_state
  60 001c FFF7FEFF 		bl	__stack_chk_fail
  61              	.LVL1:
  62              	.L8:
  63              		.align	2
  64              	.L7:
  65 0020 00000000 		.word	__stack_chk_guard
  66              		.cfi_endproc
  67              	.LFE259:
  68              		.size	usbInit, .-usbInit
  69              		.section	.text.usbObjectInit,"ax",%progbits
  70              		.align	1
  71              		.p2align 4,,15
  72              		.global	usbObjectInit
  73              		.syntax unified
  74              		.thumb
  75              		.thumb_func
  76              		.fpu fpv4-sp-d16
  77              		.type	usbObjectInit, %function
  78              	usbObjectInit:
  79              	.LFB260:
  80              		.loc 1 266 0
  81              		.cfi_startproc
  82              		@ args = 0, pretend = 0, frame = 8
  83              		@ frame_needed = 0, uses_anonymous_args = 0
  84              	.LVL2:
  85 0000 00B5     		push	{lr}
  86              		.cfi_def_cfa_offset 4
  87              		.cfi_offset 14, -4
  88 0002 0C4B     		ldr	r3, .L13
  89 0004 83B0     		sub	sp, sp, #12
  90              		.cfi_def_cfa_offset 16
  91              		.loc 1 266 0
  92 0006 1A68     		ldr	r2, [r3]
  93 0008 0192     		str	r2, [sp, #4]
  94              		.loc 1 269 0
  95 000a 0122     		movs	r2, #1
  96 000c 0270     		strb	r2, [r0]
  97              		.loc 1 277 0
  98 000e 0199     		ldr	r1, [sp, #4]
  99 0010 1A68     		ldr	r2, [r3]
 100              		.loc 1 270 0
 101 0012 0023     		movs	r3, #0
 102              		.loc 1 277 0
 103 0014 9142     		cmp	r1, r2
 104              		.loc 1 270 0
 105 0016 4360     		str	r3, [r0, #4]
 106              	.LVL3:
 107              		.loc 1 272 0
 108 0018 C361     		str	r3, [r0, #28]
 109              		.loc 1 273 0
 110 001a 8362     		str	r3, [r0, #40]
 111              	.LVL4:
 112              		.loc 1 272 0
 113 001c 0362     		str	r3, [r0, #32]
 114              		.loc 1 273 0
ARM GAS  C:\Users\mathi\AppData\Local\Temp\ccXUSDGB.s 			page 3


 115 001e C362     		str	r3, [r0, #44]
 116              	.LVL5:
 117              		.loc 1 272 0
 118 0020 4362     		str	r3, [r0, #36]
 119              		.loc 1 273 0
 120 0022 0363     		str	r3, [r0, #48]
 121              	.LVL6:
 122              		.loc 1 275 0
 123 0024 8360     		str	r3, [r0, #8]
 124              		.loc 1 277 0
 125 0026 02D1     		bne	.L12
 126 0028 03B0     		add	sp, sp, #12
 127              		.cfi_remember_state
 128              		.cfi_def_cfa_offset 4
 129              		@ sp needed
 130 002a 5DF804FB 		ldr	pc, [sp], #4
 131              	.L12:
 132              		.cfi_restore_state
 133 002e FFF7FEFF 		bl	__stack_chk_fail
 134              	.LVL7:
 135              	.L14:
 136 0032 00BF     		.align	2
 137              	.L13:
 138 0034 00000000 		.word	__stack_chk_guard
 139              		.cfi_endproc
 140              	.LFE260:
 141              		.size	usbObjectInit, .-usbObjectInit
 142              		.section	.text.usbStart,"ax",%progbits
 143              		.align	1
 144              		.p2align 4,,15
 145              		.global	usbStart
 146              		.syntax unified
 147              		.thumb
 148              		.thumb_func
 149              		.fpu fpv4-sp-d16
 150              		.type	usbStart, %function
 151              	usbStart:
 152              	.LFB261:
 153              		.loc 1 287 0
 154              		.cfi_startproc
 155              		@ args = 0, pretend = 0, frame = 8
 156              		@ frame_needed = 0, uses_anonymous_args = 0
 157              	.LVL8:
 158 0000 70B5     		push	{r4, r5, r6, lr}
 159              		.cfi_def_cfa_offset 16
 160              		.cfi_offset 4, -16
 161              		.cfi_offset 5, -12
 162              		.cfi_offset 6, -8
 163              		.cfi_offset 14, -4
 164 0002 204D     		ldr	r5, .L27
 165 0004 82B0     		sub	sp, sp, #8
 166              		.cfi_def_cfa_offset 24
 167              		.loc 1 287 0
 168 0006 2B68     		ldr	r3, [r5]
 169 0008 0193     		str	r3, [sp, #4]
 170 000a 0E46     		mov	r6, r1
 171              		.loc 1 290 0
ARM GAS  C:\Users\mathi\AppData\Local\Temp\ccXUSDGB.s 			page 4


 172 000c 0446     		mov	r4, r0
 173 000e 98B3     		cbz	r0, .L16
 174              		.loc 1 290 0 is_stmt 0 discriminator 3
 175 0010 91B3     		cbz	r1, .L16
 176              	.LVL9:
 177              	.L17:
 178              	.LBB212:
 179              	.LBB213:
 180              	.LBB214:
 181              	.LBB215:
 182              	.LBB216:
 183              	.LBB217:
 184              		.file 2 "../../lib/e-puck2_main-processor/ChibiOS//os/ext/CMSIS/include/core_cmFunc.h"
 185              		.loc 2 546 0 is_stmt 1
 186 0012 2023     		movs	r3, #32
 187              		.syntax unified
 188              	@ 546 "../../lib/e-puck2_main-processor/ChibiOS//os/ext/CMSIS/include/core_cmFunc.h" 1
 189 0014 83F31188 		MSR basepri, r3
 190              	@ 0 "" 2
 191              	.LVL10:
 192              		.thumb
 193              		.syntax unified
 194              	.LBE217:
 195              	.LBE216:
 196              	.LBE215:
 197              		.file 3 "../../lib/e-puck2_main-processor/ChibiOS//os/rt/include/chsys.h"
 198              		.loc 3 349 0
 199 0018 FFF7FEFF 		bl	_stats_start_measure_crit_thd
 200              	.LVL11:
 201              		.loc 3 350 0
 202 001c FFF7FEFF 		bl	_dbg_check_lock
 203              	.LVL12:
 204              	.LBE214:
 205              	.LBE213:
 206              	.LBE212:
 207              		.loc 1 293 0
 208 0020 2378     		ldrb	r3, [r4]	@ zero_extendqisi2
 209 0022 013B     		subs	r3, r3, #1
 210 0024 012B     		cmp	r3, #1
 211 0026 02D9     		bls	.L18
 212              		.loc 1 293 0 is_stmt 0 discriminator 2
 213 0028 1748     		ldr	r0, .L27+4
 214 002a FFF7FEFF 		bl	chSysHalt
 215              	.LVL13:
 216              	.L18:
 217              		.loc 1 297 0 is_stmt 1
 218 002e 0023     		movs	r3, #0
 219              		.loc 1 299 0
 220 0030 2046     		mov	r0, r4
 221              		.loc 1 297 0
 222 0032 C4E90333 		strd	r3, r3, [r4, #12]
 223 0036 C4E90533 		strd	r3, r3, [r4, #20]
 224              		.loc 1 295 0
 225 003a 6660     		str	r6, [r4, #4]
 226              	.LVL14:
 227              		.loc 1 299 0
 228 003c FFF7FEFF 		bl	usb_lld_start
ARM GAS  C:\Users\mathi\AppData\Local\Temp\ccXUSDGB.s 			page 5


 229              	.LVL15:
 230              		.loc 1 300 0
 231 0040 0223     		movs	r3, #2
 232 0042 2370     		strb	r3, [r4]
 233              	.LBB218:
 234              	.LBB219:
 235              	.LBB220:
 236              		.loc 3 360 0
 237 0044 FFF7FEFF 		bl	_dbg_check_unlock
 238              	.LVL16:
 239              		.loc 3 361 0
 240 0048 FFF7FEFF 		bl	_stats_stop_measure_crit_thd
 241              	.LVL17:
 242              		.loc 3 367 0
 243 004c 0F4B     		ldr	r3, .L27+8
 244 004e 1A68     		ldr	r2, [r3]
 245 0050 9A42     		cmp	r2, r3
 246 0052 04D0     		beq	.L19
 247 0054 9969     		ldr	r1, [r3, #24]
 248 0056 9368     		ldr	r3, [r2, #8]
 249 0058 8A68     		ldr	r2, [r1, #8]
 250 005a 9A42     		cmp	r2, r3
 251 005c 08D3     		bcc	.L25
 252              	.L19:
 253              	.LVL18:
 254              	.LBB221:
 255              	.LBB222:
 256              	.LBB223:
 257              		.loc 2 546 0
 258 005e 0023     		movs	r3, #0
 259              		.syntax unified
 260              	@ 546 "../../lib/e-puck2_main-processor/ChibiOS//os/ext/CMSIS/include/core_cmFunc.h" 1
 261 0060 83F31188 		MSR basepri, r3
 262              	@ 0 "" 2
 263              	.LVL19:
 264              		.thumb
 265              		.syntax unified
 266              	.LBE223:
 267              	.LBE222:
 268              	.LBE221:
 269              	.LBE220:
 270              	.LBE219:
 271              	.LBE218:
 272              		.loc 1 302 0
 273 0064 019A     		ldr	r2, [sp, #4]
 274 0066 2B68     		ldr	r3, [r5]
 275 0068 9A42     		cmp	r2, r3
 276 006a 09D1     		bne	.L26
 277 006c 02B0     		add	sp, sp, #8
 278              		.cfi_remember_state
 279              		.cfi_def_cfa_offset 16
 280              		@ sp needed
 281 006e 70BD     		pop	{r4, r5, r6, pc}
 282              	.LVL20:
 283              	.L25:
 284              		.cfi_restore_state
 285              	.LBB226:
ARM GAS  C:\Users\mathi\AppData\Local\Temp\ccXUSDGB.s 			page 6


 286              	.LBB225:
 287              	.LBB224:
 288              		.loc 3 367 0
 289 0070 0748     		ldr	r0, .L27+12
 290 0072 FFF7FEFF 		bl	chSysHalt
 291              	.LVL21:
 292 0076 F2E7     		b	.L19
 293              	.LVL22:
 294              	.L16:
 295              	.LBE224:
 296              	.LBE225:
 297              	.LBE226:
 298              		.loc 1 290 0 discriminator 4
 299 0078 0348     		ldr	r0, .L27+4
 300              	.LVL23:
 301 007a FFF7FEFF 		bl	chSysHalt
 302              	.LVL24:
 303 007e C8E7     		b	.L17
 304              	.LVL25:
 305              	.L26:
 306              		.loc 1 302 0
 307 0080 FFF7FEFF 		bl	__stack_chk_fail
 308              	.LVL26:
 309              	.L28:
 310              		.align	2
 311              	.L27:
 312 0084 00000000 		.word	__stack_chk_guard
 313 0088 00000000 		.word	.LANCHOR0
 314 008c 00000000 		.word	ch
 315 0090 00000000 		.word	.LANCHOR1
 316              		.cfi_endproc
 317              	.LFE261:
 318              		.size	usbStart, .-usbStart
 319              		.section	.text.usbStop,"ax",%progbits
 320              		.align	1
 321              		.p2align 4,,15
 322              		.global	usbStop
 323              		.syntax unified
 324              		.thumb
 325              		.thumb_func
 326              		.fpu fpv4-sp-d16
 327              		.type	usbStop, %function
 328              	usbStop:
 329              	.LFB262:
 330              		.loc 1 311 0
 331              		.cfi_startproc
 332              		@ args = 0, pretend = 0, frame = 8
 333              		@ frame_needed = 0, uses_anonymous_args = 0
 334              	.LVL27:
 335 0000 30B5     		push	{r4, r5, lr}
 336              		.cfi_def_cfa_offset 12
 337              		.cfi_offset 4, -12
 338              		.cfi_offset 5, -8
 339              		.cfi_offset 14, -4
 340 0002 1C4D     		ldr	r5, .L38
 341 0004 83B0     		sub	sp, sp, #12
 342              		.cfi_def_cfa_offset 24
ARM GAS  C:\Users\mathi\AppData\Local\Temp\ccXUSDGB.s 			page 7


 343              		.loc 1 311 0
 344 0006 2B68     		ldr	r3, [r5]
 345 0008 0193     		str	r3, [sp, #4]
 346              		.loc 1 313 0
 347 000a 0446     		mov	r4, r0
 348 000c 60B3     		cbz	r0, .L35
 349              	.LVL28:
 350              	.L30:
 351              	.LBB240:
 352              	.LBB241:
 353              	.LBB242:
 354              	.LBB243:
 355              	.LBB244:
 356              	.LBB245:
 357              		.loc 2 546 0
 358 000e 2023     		movs	r3, #32
 359              		.syntax unified
 360              	@ 546 "../../lib/e-puck2_main-processor/ChibiOS//os/ext/CMSIS/include/core_cmFunc.h" 1
 361 0010 83F31188 		MSR basepri, r3
 362              	@ 0 "" 2
 363              	.LVL29:
 364              		.thumb
 365              		.syntax unified
 366              	.LBE245:
 367              	.LBE244:
 368              	.LBE243:
 369              		.loc 3 349 0
 370 0014 FFF7FEFF 		bl	_stats_start_measure_crit_thd
 371              	.LVL30:
 372              		.loc 3 350 0
 373 0018 FFF7FEFF 		bl	_dbg_check_lock
 374              	.LVL31:
 375              	.LBE242:
 376              	.LBE241:
 377              	.LBE240:
 378              		.loc 1 316 0
 379 001c 2378     		ldrb	r3, [r4]	@ zero_extendqisi2
 380 001e 013B     		subs	r3, r3, #1
 381 0020 032B     		cmp	r3, #3
 382 0022 02D9     		bls	.L31
 383              		.loc 1 316 0 is_stmt 0 discriminator 2
 384 0024 1448     		ldr	r0, .L38+4
 385 0026 FFF7FEFF 		bl	chSysHalt
 386              	.LVL32:
 387              	.L31:
 388              		.loc 1 319 0 is_stmt 1
 389 002a 2046     		mov	r0, r4
 390 002c FFF7FEFF 		bl	usb_lld_stop
 391              	.LVL33:
 392              		.loc 1 320 0
 393 0030 0123     		movs	r3, #1
 394 0032 2370     		strb	r3, [r4]
 395              	.LBB246:
 396              	.LBB247:
 397              	.LBB248:
 398              		.loc 3 360 0
 399 0034 FFF7FEFF 		bl	_dbg_check_unlock
ARM GAS  C:\Users\mathi\AppData\Local\Temp\ccXUSDGB.s 			page 8


 400              	.LVL34:
 401              		.loc 3 361 0
 402 0038 FFF7FEFF 		bl	_stats_stop_measure_crit_thd
 403              	.LVL35:
 404              		.loc 3 367 0
 405 003c 0F4B     		ldr	r3, .L38+8
 406 003e 1A68     		ldr	r2, [r3]
 407 0040 9A42     		cmp	r2, r3
 408 0042 04D0     		beq	.L32
 409 0044 9969     		ldr	r1, [r3, #24]
 410 0046 9368     		ldr	r3, [r2, #8]
 411 0048 8A68     		ldr	r2, [r1, #8]
 412 004a 9A42     		cmp	r2, r3
 413 004c 08D3     		bcc	.L36
 414              	.L32:
 415              	.LVL36:
 416              	.LBB249:
 417              	.LBB250:
 418              	.LBB251:
 419              		.loc 2 546 0
 420 004e 0023     		movs	r3, #0
 421              		.syntax unified
 422              	@ 546 "../../lib/e-puck2_main-processor/ChibiOS//os/ext/CMSIS/include/core_cmFunc.h" 1
 423 0050 83F31188 		MSR basepri, r3
 424              	@ 0 "" 2
 425              	.LVL37:
 426              		.thumb
 427              		.syntax unified
 428              	.LBE251:
 429              	.LBE250:
 430              	.LBE249:
 431              	.LBE248:
 432              	.LBE247:
 433              	.LBE246:
 434              		.loc 1 322 0
 435 0054 019A     		ldr	r2, [sp, #4]
 436 0056 2B68     		ldr	r3, [r5]
 437 0058 9A42     		cmp	r2, r3
 438 005a 09D1     		bne	.L37
 439 005c 03B0     		add	sp, sp, #12
 440              		.cfi_remember_state
 441              		.cfi_def_cfa_offset 12
 442              		@ sp needed
 443 005e 30BD     		pop	{r4, r5, pc}
 444              	.LVL38:
 445              	.L36:
 446              		.cfi_restore_state
 447              	.LBB254:
 448              	.LBB253:
 449              	.LBB252:
 450              		.loc 3 367 0
 451 0060 0748     		ldr	r0, .L38+12
 452 0062 FFF7FEFF 		bl	chSysHalt
 453              	.LVL39:
 454 0066 F2E7     		b	.L32
 455              	.LVL40:
 456              	.L35:
ARM GAS  C:\Users\mathi\AppData\Local\Temp\ccXUSDGB.s 			page 9


 457              	.LBE252:
 458              	.LBE253:
 459              	.LBE254:
 460              		.loc 1 313 0 discriminator 2
 461 0068 0348     		ldr	r0, .L38+4
 462              	.LVL41:
 463 006a FFF7FEFF 		bl	chSysHalt
 464              	.LVL42:
 465 006e CEE7     		b	.L30
 466              	.L37:
 467              		.loc 1 322 0
 468 0070 FFF7FEFF 		bl	__stack_chk_fail
 469              	.LVL43:
 470              	.L39:
 471              		.align	2
 472              	.L38:
 473 0074 00000000 		.word	__stack_chk_guard
 474 0078 00000000 		.word	.LANCHOR2
 475 007c 00000000 		.word	ch
 476 0080 00000000 		.word	.LANCHOR1
 477              		.cfi_endproc
 478              	.LFE262:
 479              		.size	usbStop, .-usbStop
 480              		.section	.text.usbInitEndpointI,"ax",%progbits
 481              		.align	1
 482              		.p2align 4,,15
 483              		.global	usbInitEndpointI
 484              		.syntax unified
 485              		.thumb
 486              		.thumb_func
 487              		.fpu fpv4-sp-d16
 488              		.type	usbInitEndpointI, %function
 489              	usbInitEndpointI:
 490              	.LFB263:
 491              		.loc 1 338 0
 492              		.cfi_startproc
 493              		@ args = 0, pretend = 0, frame = 8
 494              		@ frame_needed = 0, uses_anonymous_args = 0
 495              	.LVL44:
 496 0000 2DE9F041 		push	{r4, r5, r6, r7, r8, lr}
 497              		.cfi_def_cfa_offset 24
 498              		.cfi_offset 4, -24
 499              		.cfi_offset 5, -20
 500              		.cfi_offset 6, -16
 501              		.cfi_offset 7, -12
 502              		.cfi_offset 8, -8
 503              		.cfi_offset 14, -4
 504 0004 1D4E     		ldr	r6, .L66
 505 0006 82B0     		sub	sp, sp, #8
 506              		.cfi_def_cfa_offset 32
 507              		.loc 1 338 0
 508 0008 0446     		mov	r4, r0
 509 000a 3368     		ldr	r3, [r6]
 510 000c 0193     		str	r3, [sp, #4]
 511 000e 0F46     		mov	r7, r1
 512 0010 1546     		mov	r5, r2
 513              		.loc 1 340 0
ARM GAS  C:\Users\mathi\AppData\Local\Temp\ccXUSDGB.s 			page 10


 514 0012 FFF7FEFF 		bl	chDbgCheckClassI
 515              	.LVL45:
 516              		.loc 1 341 0
 517 0016 5CB3     		cbz	r4, .L41
 518              		.loc 1 341 0 is_stmt 0 discriminator 3
 519 0018 55B3     		cbz	r5, .L41
 520              	.L42:
 521              		.loc 1 342 0 is_stmt 1 discriminator 1
 522 001a 2378     		ldrb	r3, [r4]	@ zero_extendqisi2
 523 001c 042B     		cmp	r3, #4
 524 001e 02D0     		beq	.L43
 525              		.loc 1 342 0 is_stmt 0 discriminator 2
 526 0020 1748     		ldr	r0, .L66+4
 527 0022 FFF7FEFF 		bl	chSysHalt
 528              	.LVL46:
 529              	.L43:
 530 0026 04EB8708 		add	r8, r4, r7, lsl #2
 531              		.loc 1 344 0 is_stmt 1 discriminator 1
 532 002a D8F80C30 		ldr	r3, [r8, #12]
 533 002e 13B1     		cbz	r3, .L44
 534              		.loc 1 344 0 is_stmt 0 discriminator 2
 535 0030 1348     		ldr	r0, .L66+4
 536 0032 FFF7FEFF 		bl	chSysHalt
 537              	.LVL47:
 538              	.L44:
 539              		.loc 1 347 0 is_stmt 1
 540 0036 6B69     		ldr	r3, [r5, #20]
 541 0038 2BB1     		cbz	r3, .L45
 542              		.loc 1 348 0
 543 003a 0022     		movs	r2, #0
 544 003c 1A60     		str	r2, [r3]	@ unaligned
 545 003e 5A60     		str	r2, [r3, #4]	@ unaligned
 546 0040 9A60     		str	r2, [r3, #8]	@ unaligned
 547 0042 DA60     		str	r2, [r3, #12]	@ unaligned
 548 0044 1A61     		str	r2, [r3, #16]	@ unaligned
 549              	.L45:
 550              		.loc 1 350 0
 551 0046 AB69     		ldr	r3, [r5, #24]
 552 0048 2BB1     		cbz	r3, .L46
 553              		.loc 1 351 0
 554 004a 0022     		movs	r2, #0
 555 004c 1A60     		str	r2, [r3]	@ unaligned
 556 004e 5A60     		str	r2, [r3, #4]	@ unaligned
 557 0050 9A60     		str	r2, [r3, #8]	@ unaligned
 558 0052 DA60     		str	r2, [r3, #12]	@ unaligned
 559 0054 1A61     		str	r2, [r3, #16]	@ unaligned
 560              	.L46:
 561              		.loc 1 357 0
 562 0056 019A     		ldr	r2, [sp, #4]
 563 0058 3368     		ldr	r3, [r6]
 564              		.loc 1 354 0
 565 005a C8F80C50 		str	r5, [r8, #12]
 566              		.loc 1 357 0
 567 005e 9A42     		cmp	r2, r3
 568 0060 0AD1     		bne	.L65
 569 0062 3946     		mov	r1, r7
 570 0064 2046     		mov	r0, r4
ARM GAS  C:\Users\mathi\AppData\Local\Temp\ccXUSDGB.s 			page 11


 571              		.loc 1 358 0
 572 0066 02B0     		add	sp, sp, #8
 573              		.cfi_remember_state
 574              		.cfi_def_cfa_offset 24
 575              		@ sp needed
 576 0068 BDE8F041 		pop	{r4, r5, r6, r7, r8, lr}
 577              		.cfi_restore 14
 578              		.cfi_restore 8
 579              		.cfi_restore 7
 580              		.cfi_restore 6
 581              		.cfi_restore 5
 582              		.cfi_restore 4
 583              		.cfi_def_cfa_offset 0
 584              	.LVL48:
 585              		.loc 1 357 0
 586 006c FFF7FEBF 		b	usb_lld_init_endpoint
 587              	.LVL49:
 588              	.L41:
 589              		.cfi_restore_state
 590              		.loc 1 341 0 discriminator 4
 591 0070 0348     		ldr	r0, .L66+4
 592 0072 FFF7FEFF 		bl	chSysHalt
 593              	.LVL50:
 594 0076 D0E7     		b	.L42
 595              	.L65:
 596              		.loc 1 357 0
 597 0078 FFF7FEFF 		bl	__stack_chk_fail
 598              	.LVL51:
 599              	.L67:
 600              		.align	2
 601              	.L66:
 602 007c 00000000 		.word	__stack_chk_guard
 603 0080 00000000 		.word	.LANCHOR3
 604              		.cfi_endproc
 605              	.LFE263:
 606              		.size	usbInitEndpointI, .-usbInitEndpointI
 607              		.section	.text.usbDisableEndpointsI,"ax",%progbits
 608              		.align	1
 609              		.p2align 4,,15
 610              		.global	usbDisableEndpointsI
 611              		.syntax unified
 612              		.thumb
 613              		.thumb_func
 614              		.fpu fpv4-sp-d16
 615              		.type	usbDisableEndpointsI, %function
 616              	usbDisableEndpointsI:
 617              	.LFB264:
 618              		.loc 1 371 0
 619              		.cfi_startproc
 620              		@ args = 0, pretend = 0, frame = 8
 621              		@ frame_needed = 0, uses_anonymous_args = 0
 622              	.LVL52:
 623 0000 30B5     		push	{r4, r5, lr}
 624              		.cfi_def_cfa_offset 12
 625              		.cfi_offset 4, -12
 626              		.cfi_offset 5, -8
 627              		.cfi_offset 14, -4
ARM GAS  C:\Users\mathi\AppData\Local\Temp\ccXUSDGB.s 			page 12


 628 0002 164D     		ldr	r5, .L79
 629 0004 83B0     		sub	sp, sp, #12
 630              		.cfi_def_cfa_offset 24
 631              		.loc 1 371 0
 632 0006 0446     		mov	r4, r0
 633 0008 2B68     		ldr	r3, [r5]
 634 000a 0193     		str	r3, [sp, #4]
 635              		.loc 1 374 0
 636 000c FFF7FEFF 		bl	chDbgCheckClassI
 637              	.LVL53:
 638              		.loc 1 375 0
 639 0010 ECB1     		cbz	r4, .L77
 640              	.L69:
 641              		.loc 1 376 0 discriminator 1
 642 0012 2378     		ldrb	r3, [r4]	@ zero_extendqisi2
 643 0014 032B     		cmp	r3, #3
 644 0016 02D0     		beq	.L70
 645              		.loc 1 376 0 is_stmt 0 discriminator 2
 646 0018 1148     		ldr	r0, .L79+4
 647 001a FFF7FEFF 		bl	chSysHalt
 648              	.LVL54:
 649              	.L70:
 650              		.loc 1 378 0 is_stmt 1
 651 001e 2289     		ldrh	r2, [r4, #8]
 652              		.loc 1 379 0
 653 0020 6389     		ldrh	r3, [r4, #10]
 654              		.loc 1 385 0
 655 0022 0198     		ldr	r0, [sp, #4]
 656 0024 2968     		ldr	r1, [r5]
 657              		.loc 1 378 0
 658 0026 22F00102 		bic	r2, r2, #1
 659              		.loc 1 379 0
 660 002a 23F00103 		bic	r3, r3, #1
 661              		.loc 1 381 0
 662 002e 0025     		movs	r5, #0
 663              		.loc 1 378 0
 664 0030 2281     		strh	r2, [r4, #8]	@ movhi
 665              		.loc 1 379 0
 666 0032 6381     		strh	r3, [r4, #10]	@ movhi
 667              	.LVL55:
 668              		.loc 1 381 0
 669 0034 0022     		movs	r2, #0
 670 0036 0023     		movs	r3, #0
 671              		.loc 1 385 0
 672 0038 8842     		cmp	r0, r1
 673              		.loc 1 381 0
 674 003a C4E90423 		strd	r2, [r4, #16]
 675              	.LVL56:
 676 003e A561     		str	r5, [r4, #24]
 677              	.LVL57:
 678              		.loc 1 385 0
 679 0040 09D1     		bne	.L78
 680 0042 2046     		mov	r0, r4
 681              		.loc 1 386 0
 682 0044 03B0     		add	sp, sp, #12
 683              		.cfi_remember_state
 684              		.cfi_def_cfa_offset 12
ARM GAS  C:\Users\mathi\AppData\Local\Temp\ccXUSDGB.s 			page 13


 685              		@ sp needed
 686 0046 BDE83040 		pop	{r4, r5, lr}
 687              		.cfi_restore 14
 688              		.cfi_restore 5
 689              		.cfi_restore 4
 690              		.cfi_def_cfa_offset 0
 691              	.LVL58:
 692              		.loc 1 385 0
 693 004a FFF7FEBF 		b	usb_lld_disable_endpoints
 694              	.LVL59:
 695              	.L77:
 696              		.cfi_restore_state
 697              		.loc 1 375 0 discriminator 2
 698 004e 0448     		ldr	r0, .L79+4
 699 0050 FFF7FEFF 		bl	chSysHalt
 700              	.LVL60:
 701 0054 DDE7     		b	.L69
 702              	.LVL61:
 703              	.L78:
 704              		.loc 1 385 0
 705 0056 FFF7FEFF 		bl	__stack_chk_fail
 706              	.LVL62:
 707              	.L80:
 708 005a 00BF     		.align	2
 709              	.L79:
 710 005c 00000000 		.word	__stack_chk_guard
 711 0060 00000000 		.word	.LANCHOR4
 712              		.cfi_endproc
 713              	.LFE264:
 714              		.size	usbDisableEndpointsI, .-usbDisableEndpointsI
 715              		.section	.text.usbPrepareReceive,"ax",%progbits
 716              		.align	1
 717              		.p2align 4,,15
 718              		.global	usbPrepareReceive
 719              		.syntax unified
 720              		.thumb
 721              		.thumb_func
 722              		.fpu fpv4-sp-d16
 723              		.type	usbPrepareReceive, %function
 724              	usbPrepareReceive:
 725              	.LFB265:
 726              		.loc 1 400 0
 727              		.cfi_startproc
 728              		@ args = 0, pretend = 0, frame = 8
 729              		@ frame_needed = 0, uses_anonymous_args = 0
 730              	.LVL63:
 731 0000 70B5     		push	{r4, r5, r6, lr}
 732              		.cfi_def_cfa_offset 16
 733              		.cfi_offset 4, -16
 734              		.cfi_offset 5, -12
 735              		.cfi_offset 6, -8
 736              		.cfi_offset 14, -4
 737              		.loc 1 401 0
 738 0002 00EB8104 		add	r4, r0, r1, lsl #2
 739              		.loc 1 400 0
 740 0006 0B4E     		ldr	r6, .L86
 741              		.loc 1 401 0
ARM GAS  C:\Users\mathi\AppData\Local\Temp\ccXUSDGB.s 			page 14


 742 0008 E468     		ldr	r4, [r4, #12]
 743              		.loc 1 400 0
 744 000a 3568     		ldr	r5, [r6]
 745              		.loc 1 401 0
 746 000c A469     		ldr	r4, [r4, #24]
 747              	.LVL64:
 748              		.loc 1 400 0
 749 000e 82B0     		sub	sp, sp, #8
 750              		.cfi_def_cfa_offset 24
 751              		.loc 1 404 0
 752 0010 E260     		str	r2, [r4, #12]
 753              		.loc 1 400 0
 754 0012 0195     		str	r5, [sp, #4]
 755              		.loc 1 403 0
 756 0014 0025     		movs	r5, #0
 757 0016 2570     		strb	r5, [r4]
 758              		.loc 1 408 0
 759 0018 019A     		ldr	r2, [sp, #4]
 760              	.LVL65:
 761              		.loc 1 405 0
 762 001a 6360     		str	r3, [r4, #4]
 763              		.loc 1 408 0
 764 001c 3368     		ldr	r3, [r6]
 765              	.LVL66:
 766              		.loc 1 406 0
 767 001e A560     		str	r5, [r4, #8]
 768              		.loc 1 408 0
 769 0020 9A42     		cmp	r2, r3
 770 0022 04D1     		bne	.L85
 771              		.loc 1 409 0
 772 0024 02B0     		add	sp, sp, #8
 773              		.cfi_remember_state
 774              		.cfi_def_cfa_offset 16
 775              		@ sp needed
 776 0026 BDE87040 		pop	{r4, r5, r6, lr}
 777              		.cfi_restore 14
 778              		.cfi_restore 6
 779              		.cfi_restore 5
 780              		.cfi_restore 4
 781              		.cfi_def_cfa_offset 0
 782              	.LVL67:
 783              		.loc 1 408 0
 784 002a FFF7FEBF 		b	usb_lld_prepare_receive
 785              	.LVL68:
 786              	.L85:
 787              		.cfi_restore_state
 788 002e FFF7FEFF 		bl	__stack_chk_fail
 789              	.LVL69:
 790              	.L87:
 791 0032 00BF     		.align	2
 792              	.L86:
 793 0034 00000000 		.word	__stack_chk_guard
 794              		.cfi_endproc
 795              	.LFE265:
 796              		.size	usbPrepareReceive, .-usbPrepareReceive
 797              		.section	.text.usbPrepareTransmit,"ax",%progbits
 798              		.align	1
ARM GAS  C:\Users\mathi\AppData\Local\Temp\ccXUSDGB.s 			page 15


 799              		.p2align 4,,15
 800              		.global	usbPrepareTransmit
 801              		.syntax unified
 802              		.thumb
 803              		.thumb_func
 804              		.fpu fpv4-sp-d16
 805              		.type	usbPrepareTransmit, %function
 806              	usbPrepareTransmit:
 807              	.LFB266:
 808              		.loc 1 426 0
 809              		.cfi_startproc
 810              		@ args = 0, pretend = 0, frame = 8
 811              		@ frame_needed = 0, uses_anonymous_args = 0
 812              	.LVL70:
 813 0000 70B5     		push	{r4, r5, r6, lr}
 814              		.cfi_def_cfa_offset 16
 815              		.cfi_offset 4, -16
 816              		.cfi_offset 5, -12
 817              		.cfi_offset 6, -8
 818              		.cfi_offset 14, -4
 819              		.loc 1 427 0
 820 0002 00EB8104 		add	r4, r0, r1, lsl #2
 821              		.loc 1 426 0
 822 0006 0B4E     		ldr	r6, .L93
 823              		.loc 1 427 0
 824 0008 E468     		ldr	r4, [r4, #12]
 825              		.loc 1 426 0
 826 000a 3568     		ldr	r5, [r6]
 827              		.loc 1 427 0
 828 000c 6469     		ldr	r4, [r4, #20]
 829              	.LVL71:
 830              		.loc 1 426 0
 831 000e 82B0     		sub	sp, sp, #8
 832              		.cfi_def_cfa_offset 24
 833              		.loc 1 430 0
 834 0010 E260     		str	r2, [r4, #12]
 835              		.loc 1 426 0
 836 0012 0195     		str	r5, [sp, #4]
 837              		.loc 1 429 0
 838 0014 0025     		movs	r5, #0
 839 0016 2570     		strb	r5, [r4]
 840              		.loc 1 434 0
 841 0018 019A     		ldr	r2, [sp, #4]
 842              	.LVL72:
 843              		.loc 1 431 0
 844 001a 6360     		str	r3, [r4, #4]
 845              		.loc 1 434 0
 846 001c 3368     		ldr	r3, [r6]
 847              	.LVL73:
 848              		.loc 1 432 0
 849 001e A560     		str	r5, [r4, #8]
 850              		.loc 1 434 0
 851 0020 9A42     		cmp	r2, r3
 852 0022 04D1     		bne	.L92
 853              		.loc 1 435 0
 854 0024 02B0     		add	sp, sp, #8
 855              		.cfi_remember_state
ARM GAS  C:\Users\mathi\AppData\Local\Temp\ccXUSDGB.s 			page 16


 856              		.cfi_def_cfa_offset 16
 857              		@ sp needed
 858 0026 BDE87040 		pop	{r4, r5, r6, lr}
 859              		.cfi_restore 14
 860              		.cfi_restore 6
 861              		.cfi_restore 5
 862              		.cfi_restore 4
 863              		.cfi_def_cfa_offset 0
 864              	.LVL74:
 865              		.loc 1 434 0
 866 002a FFF7FEBF 		b	usb_lld_prepare_transmit
 867              	.LVL75:
 868              	.L92:
 869              		.cfi_restore_state
 870 002e FFF7FEFF 		bl	__stack_chk_fail
 871              	.LVL76:
 872              	.L94:
 873 0032 00BF     		.align	2
 874              	.L93:
 875 0034 00000000 		.word	__stack_chk_guard
 876              		.cfi_endproc
 877              	.LFE266:
 878              		.size	usbPrepareTransmit, .-usbPrepareTransmit
 879              		.section	.text.usbPrepareQueuedReceive,"ax",%progbits
 880              		.align	1
 881              		.p2align 4,,15
 882              		.global	usbPrepareQueuedReceive
 883              		.syntax unified
 884              		.thumb
 885              		.thumb_func
 886              		.fpu fpv4-sp-d16
 887              		.type	usbPrepareQueuedReceive, %function
 888              	usbPrepareQueuedReceive:
 889              	.LFB267:
 890              		.loc 1 455 0
 891              		.cfi_startproc
 892              		@ args = 0, pretend = 0, frame = 8
 893              		@ frame_needed = 0, uses_anonymous_args = 0
 894              	.LVL77:
 895 0000 70B5     		push	{r4, r5, r6, lr}
 896              		.cfi_def_cfa_offset 16
 897              		.cfi_offset 4, -16
 898              		.cfi_offset 5, -12
 899              		.cfi_offset 6, -8
 900              		.cfi_offset 14, -4
 901              		.loc 1 456 0
 902 0002 00EB8104 		add	r4, r0, r1, lsl #2
 903              		.loc 1 455 0
 904 0006 0C4D     		ldr	r5, .L100
 905              		.loc 1 456 0
 906 0008 E468     		ldr	r4, [r4, #12]
 907              		.loc 1 455 0
 908 000a 2E68     		ldr	r6, [r5]
 909              		.loc 1 456 0
 910 000c A469     		ldr	r4, [r4, #24]
 911              	.LVL78:
 912              		.loc 1 455 0
ARM GAS  C:\Users\mathi\AppData\Local\Temp\ccXUSDGB.s 			page 17


 913 000e 82B0     		sub	sp, sp, #8
 914              		.cfi_def_cfa_offset 24
 915              		.loc 1 459 0
 916 0010 E260     		str	r2, [r4, #12]
 917              		.loc 1 455 0
 918 0012 0196     		str	r6, [sp, #4]
 919              		.loc 1 458 0
 920 0014 0126     		movs	r6, #1
 921 0016 2670     		strb	r6, [r4]
 922              		.loc 1 463 0
 923 0018 019E     		ldr	r6, [sp, #4]
 924 001a 2A68     		ldr	r2, [r5]
 925              	.LVL79:
 926              		.loc 1 460 0
 927 001c 6360     		str	r3, [r4, #4]
 928              		.loc 1 463 0
 929 001e 9642     		cmp	r6, r2
 930              		.loc 1 461 0
 931 0020 4FF00003 		mov	r3, #0
 932              	.LVL80:
 933 0024 A360     		str	r3, [r4, #8]
 934              		.loc 1 463 0
 935 0026 04D1     		bne	.L99
 936              		.loc 1 464 0
 937 0028 02B0     		add	sp, sp, #8
 938              		.cfi_remember_state
 939              		.cfi_def_cfa_offset 16
 940              		@ sp needed
 941 002a BDE87040 		pop	{r4, r5, r6, lr}
 942              		.cfi_restore 14
 943              		.cfi_restore 6
 944              		.cfi_restore 5
 945              		.cfi_restore 4
 946              		.cfi_def_cfa_offset 0
 947              	.LVL81:
 948              		.loc 1 463 0
 949 002e FFF7FEBF 		b	usb_lld_prepare_receive
 950              	.LVL82:
 951              	.L99:
 952              		.cfi_restore_state
 953 0032 FFF7FEFF 		bl	__stack_chk_fail
 954              	.LVL83:
 955              	.L101:
 956 0036 00BF     		.align	2
 957              	.L100:
 958 0038 00000000 		.word	__stack_chk_guard
 959              		.cfi_endproc
 960              	.LFE267:
 961              		.size	usbPrepareQueuedReceive, .-usbPrepareQueuedReceive
 962              		.section	.text.usbPrepareQueuedTransmit,"ax",%progbits
 963              		.align	1
 964              		.p2align 4,,15
 965              		.global	usbPrepareQueuedTransmit
 966              		.syntax unified
 967              		.thumb
 968              		.thumb_func
 969              		.fpu fpv4-sp-d16
ARM GAS  C:\Users\mathi\AppData\Local\Temp\ccXUSDGB.s 			page 18


 970              		.type	usbPrepareQueuedTransmit, %function
 971              	usbPrepareQueuedTransmit:
 972              	.LFB268:
 973              		.loc 1 481 0
 974              		.cfi_startproc
 975              		@ args = 0, pretend = 0, frame = 8
 976              		@ frame_needed = 0, uses_anonymous_args = 0
 977              	.LVL84:
 978 0000 70B5     		push	{r4, r5, r6, lr}
 979              		.cfi_def_cfa_offset 16
 980              		.cfi_offset 4, -16
 981              		.cfi_offset 5, -12
 982              		.cfi_offset 6, -8
 983              		.cfi_offset 14, -4
 984              		.loc 1 482 0
 985 0002 00EB8104 		add	r4, r0, r1, lsl #2
 986              		.loc 1 481 0
 987 0006 0C4D     		ldr	r5, .L107
 988              		.loc 1 482 0
 989 0008 E468     		ldr	r4, [r4, #12]
 990              		.loc 1 481 0
 991 000a 2E68     		ldr	r6, [r5]
 992              		.loc 1 482 0
 993 000c 6469     		ldr	r4, [r4, #20]
 994              	.LVL85:
 995              		.loc 1 481 0
 996 000e 82B0     		sub	sp, sp, #8
 997              		.cfi_def_cfa_offset 24
 998              		.loc 1 485 0
 999 0010 E260     		str	r2, [r4, #12]
 1000              		.loc 1 481 0
 1001 0012 0196     		str	r6, [sp, #4]
 1002              		.loc 1 484 0
 1003 0014 0126     		movs	r6, #1
 1004 0016 2670     		strb	r6, [r4]
 1005              		.loc 1 489 0
 1006 0018 019E     		ldr	r6, [sp, #4]
 1007 001a 2A68     		ldr	r2, [r5]
 1008              	.LVL86:
 1009              		.loc 1 486 0
 1010 001c 6360     		str	r3, [r4, #4]
 1011              		.loc 1 489 0
 1012 001e 9642     		cmp	r6, r2
 1013              		.loc 1 487 0
 1014 0020 4FF00003 		mov	r3, #0
 1015              	.LVL87:
 1016 0024 A360     		str	r3, [r4, #8]
 1017              		.loc 1 489 0
 1018 0026 04D1     		bne	.L106
 1019              		.loc 1 490 0
 1020 0028 02B0     		add	sp, sp, #8
 1021              		.cfi_remember_state
 1022              		.cfi_def_cfa_offset 16
 1023              		@ sp needed
 1024 002a BDE87040 		pop	{r4, r5, r6, lr}
 1025              		.cfi_restore 14
 1026              		.cfi_restore 6
ARM GAS  C:\Users\mathi\AppData\Local\Temp\ccXUSDGB.s 			page 19


 1027              		.cfi_restore 5
 1028              		.cfi_restore 4
 1029              		.cfi_def_cfa_offset 0
 1030              	.LVL88:
 1031              		.loc 1 489 0
 1032 002e FFF7FEBF 		b	usb_lld_prepare_transmit
 1033              	.LVL89:
 1034              	.L106:
 1035              		.cfi_restore_state
 1036 0032 FFF7FEFF 		bl	__stack_chk_fail
 1037              	.LVL90:
 1038              	.L108:
 1039 0036 00BF     		.align	2
 1040              	.L107:
 1041 0038 00000000 		.word	__stack_chk_guard
 1042              		.cfi_endproc
 1043              	.LFE268:
 1044              		.size	usbPrepareQueuedTransmit, .-usbPrepareQueuedTransmit
 1045              		.section	.text.usbStartReceiveI,"ax",%progbits
 1046              		.align	1
 1047              		.p2align 4,,15
 1048              		.global	usbStartReceiveI
 1049              		.syntax unified
 1050              		.thumb
 1051              		.thumb_func
 1052              		.fpu fpv4-sp-d16
 1053              		.type	usbStartReceiveI, %function
 1054              	usbStartReceiveI:
 1055              	.LFB269:
 1056              		.loc 1 506 0
 1057              		.cfi_startproc
 1058              		@ args = 0, pretend = 0, frame = 8
 1059              		@ frame_needed = 0, uses_anonymous_args = 0
 1060              	.LVL91:
 1061 0000 F0B5     		push	{r4, r5, r6, r7, lr}
 1062              		.cfi_def_cfa_offset 20
 1063              		.cfi_offset 4, -20
 1064              		.cfi_offset 5, -16
 1065              		.cfi_offset 6, -12
 1066              		.cfi_offset 7, -8
 1067              		.cfi_offset 14, -4
 1068 0002 124D     		ldr	r5, .L117
 1069 0004 83B0     		sub	sp, sp, #12
 1070              		.cfi_def_cfa_offset 32
 1071              		.loc 1 506 0
 1072 0006 0446     		mov	r4, r0
 1073 0008 2B68     		ldr	r3, [r5]
 1074 000a 0193     		str	r3, [sp, #4]
 1075 000c 0E46     		mov	r6, r1
 1076              		.loc 1 508 0
 1077 000e FFF7FEFF 		bl	chDbgCheckClassI
 1078              	.LVL92:
 1079              		.loc 1 509 0
 1080 0012 A4B1     		cbz	r4, .L115
 1081              	.L110:
 1082              		.loc 1 511 0
 1083 0014 0120     		movs	r0, #1
ARM GAS  C:\Users\mathi\AppData\Local\Temp\ccXUSDGB.s 			page 20


 1084 0016 00FA06F3 		lsl	r3, r0, r6
 1085 001a 6289     		ldrh	r2, [r4, #10]
 1086 001c 9BB2     		uxth	r3, r3
 1087 001e 12EA0307 		ands	r7, r2, r3
 1088 0022 06D1     		bne	.L111
 1089              		.loc 1 515 0
 1090 0024 1343     		orrs	r3, r3, r2
 1091              		.loc 1 516 0
 1092 0026 2046     		mov	r0, r4
 1093              		.loc 1 515 0
 1094 0028 6381     		strh	r3, [r4, #10]	@ movhi
 1095              		.loc 1 516 0
 1096 002a 3146     		mov	r1, r6
 1097 002c FFF7FEFF 		bl	usb_lld_start_out
 1098              	.LVL93:
 1099              		.loc 1 517 0
 1100 0030 3846     		mov	r0, r7
 1101              	.L111:
 1102              		.loc 1 518 0
 1103 0032 019A     		ldr	r2, [sp, #4]
 1104 0034 2B68     		ldr	r3, [r5]
 1105 0036 9A42     		cmp	r2, r3
 1106 0038 05D1     		bne	.L116
 1107 003a 03B0     		add	sp, sp, #12
 1108              		.cfi_remember_state
 1109              		.cfi_def_cfa_offset 20
 1110              		@ sp needed
 1111 003c F0BD     		pop	{r4, r5, r6, r7, pc}
 1112              	.LVL94:
 1113              	.L115:
 1114              		.cfi_restore_state
 1115              		.loc 1 509 0 discriminator 2
 1116 003e 0448     		ldr	r0, .L117+4
 1117 0040 FFF7FEFF 		bl	chSysHalt
 1118              	.LVL95:
 1119 0044 E6E7     		b	.L110
 1120              	.L116:
 1121              		.loc 1 518 0
 1122 0046 FFF7FEFF 		bl	__stack_chk_fail
 1123              	.LVL96:
 1124              	.L118:
 1125 004a 00BF     		.align	2
 1126              	.L117:
 1127 004c 00000000 		.word	__stack_chk_guard
 1128 0050 00000000 		.word	.LANCHOR5
 1129              		.cfi_endproc
 1130              	.LFE269:
 1131              		.size	usbStartReceiveI, .-usbStartReceiveI
 1132              		.section	.text.usbStartTransmitI,"ax",%progbits
 1133              		.align	1
 1134              		.p2align 4,,15
 1135              		.global	usbStartTransmitI
 1136              		.syntax unified
 1137              		.thumb
 1138              		.thumb_func
 1139              		.fpu fpv4-sp-d16
 1140              		.type	usbStartTransmitI, %function
ARM GAS  C:\Users\mathi\AppData\Local\Temp\ccXUSDGB.s 			page 21


 1141              	usbStartTransmitI:
 1142              	.LFB270:
 1143              		.loc 1 534 0
 1144              		.cfi_startproc
 1145              		@ args = 0, pretend = 0, frame = 8
 1146              		@ frame_needed = 0, uses_anonymous_args = 0
 1147              	.LVL97:
 1148 0000 F0B5     		push	{r4, r5, r6, r7, lr}
 1149              		.cfi_def_cfa_offset 20
 1150              		.cfi_offset 4, -20
 1151              		.cfi_offset 5, -16
 1152              		.cfi_offset 6, -12
 1153              		.cfi_offset 7, -8
 1154              		.cfi_offset 14, -4
 1155 0002 124D     		ldr	r5, .L127
 1156 0004 83B0     		sub	sp, sp, #12
 1157              		.cfi_def_cfa_offset 32
 1158              		.loc 1 534 0
 1159 0006 0446     		mov	r4, r0
 1160 0008 2B68     		ldr	r3, [r5]
 1161 000a 0193     		str	r3, [sp, #4]
 1162 000c 0E46     		mov	r6, r1
 1163              		.loc 1 536 0
 1164 000e FFF7FEFF 		bl	chDbgCheckClassI
 1165              	.LVL98:
 1166              		.loc 1 537 0
 1167 0012 A4B1     		cbz	r4, .L125
 1168              	.L120:
 1169              		.loc 1 539 0
 1170 0014 0120     		movs	r0, #1
 1171 0016 00FA06F3 		lsl	r3, r0, r6
 1172 001a 2289     		ldrh	r2, [r4, #8]
 1173 001c 9BB2     		uxth	r3, r3
 1174 001e 12EA0307 		ands	r7, r2, r3
 1175 0022 06D1     		bne	.L121
 1176              		.loc 1 543 0
 1177 0024 1343     		orrs	r3, r3, r2
 1178              		.loc 1 544 0
 1179 0026 2046     		mov	r0, r4
 1180              		.loc 1 543 0
 1181 0028 2381     		strh	r3, [r4, #8]	@ movhi
 1182              		.loc 1 544 0
 1183 002a 3146     		mov	r1, r6
 1184 002c FFF7FEFF 		bl	usb_lld_start_in
 1185              	.LVL99:
 1186              		.loc 1 545 0
 1187 0030 3846     		mov	r0, r7
 1188              	.L121:
 1189              		.loc 1 546 0
 1190 0032 019A     		ldr	r2, [sp, #4]
 1191 0034 2B68     		ldr	r3, [r5]
 1192 0036 9A42     		cmp	r2, r3
 1193 0038 05D1     		bne	.L126
 1194 003a 03B0     		add	sp, sp, #12
 1195              		.cfi_remember_state
 1196              		.cfi_def_cfa_offset 20
 1197              		@ sp needed
ARM GAS  C:\Users\mathi\AppData\Local\Temp\ccXUSDGB.s 			page 22


 1198 003c F0BD     		pop	{r4, r5, r6, r7, pc}
 1199              	.LVL100:
 1200              	.L125:
 1201              		.cfi_restore_state
 1202              		.loc 1 537 0 discriminator 2
 1203 003e 0448     		ldr	r0, .L127+4
 1204 0040 FFF7FEFF 		bl	chSysHalt
 1205              	.LVL101:
 1206 0044 E6E7     		b	.L120
 1207              	.L126:
 1208              		.loc 1 546 0
 1209 0046 FFF7FEFF 		bl	__stack_chk_fail
 1210              	.LVL102:
 1211              	.L128:
 1212 004a 00BF     		.align	2
 1213              	.L127:
 1214 004c 00000000 		.word	__stack_chk_guard
 1215 0050 00000000 		.word	.LANCHOR6
 1216              		.cfi_endproc
 1217              	.LFE270:
 1218              		.size	usbStartTransmitI, .-usbStartTransmitI
 1219              		.section	.text.usbStallReceiveI,"ax",%progbits
 1220              		.align	1
 1221              		.p2align 4,,15
 1222              		.global	usbStallReceiveI
 1223              		.syntax unified
 1224              		.thumb
 1225              		.thumb_func
 1226              		.fpu fpv4-sp-d16
 1227              		.type	usbStallReceiveI, %function
 1228              	usbStallReceiveI:
 1229              	.LFB271:
 1230              		.loc 1 560 0
 1231              		.cfi_startproc
 1232              		@ args = 0, pretend = 0, frame = 8
 1233              		@ frame_needed = 0, uses_anonymous_args = 0
 1234              	.LVL103:
 1235 0000 F0B5     		push	{r4, r5, r6, r7, lr}
 1236              		.cfi_def_cfa_offset 20
 1237              		.cfi_offset 4, -20
 1238              		.cfi_offset 5, -16
 1239              		.cfi_offset 6, -12
 1240              		.cfi_offset 7, -8
 1241              		.cfi_offset 14, -4
 1242 0002 104E     		ldr	r6, .L137
 1243 0004 83B0     		sub	sp, sp, #12
 1244              		.cfi_def_cfa_offset 32
 1245              		.loc 1 560 0
 1246 0006 0546     		mov	r5, r0
 1247 0008 3368     		ldr	r3, [r6]
 1248 000a 0193     		str	r3, [sp, #4]
 1249 000c 0F46     		mov	r7, r1
 1250              		.loc 1 562 0
 1251 000e FFF7FEFF 		bl	chDbgCheckClassI
 1252              	.LVL104:
 1253              		.loc 1 563 0
 1254 0012 85B1     		cbz	r5, .L135
ARM GAS  C:\Users\mathi\AppData\Local\Temp\ccXUSDGB.s 			page 23


 1255              	.L130:
 1256              		.loc 1 565 0
 1257 0014 0120     		movs	r0, #1
 1258 0016 6C89     		ldrh	r4, [r5, #10]
 1259 0018 00FA07F3 		lsl	r3, r0, r7
 1260 001c 1C40     		ands	r4, r3, r4
 1261 001e 04D1     		bne	.L131
 1262              		.loc 1 569 0
 1263 0020 2846     		mov	r0, r5
 1264 0022 3946     		mov	r1, r7
 1265 0024 FFF7FEFF 		bl	usb_lld_stall_out
 1266              	.LVL105:
 1267              		.loc 1 570 0
 1268 0028 2046     		mov	r0, r4
 1269              	.L131:
 1270              		.loc 1 571 0
 1271 002a 019A     		ldr	r2, [sp, #4]
 1272 002c 3368     		ldr	r3, [r6]
 1273 002e 9A42     		cmp	r2, r3
 1274 0030 05D1     		bne	.L136
 1275 0032 03B0     		add	sp, sp, #12
 1276              		.cfi_remember_state
 1277              		.cfi_def_cfa_offset 20
 1278              		@ sp needed
 1279 0034 F0BD     		pop	{r4, r5, r6, r7, pc}
 1280              	.LVL106:
 1281              	.L135:
 1282              		.cfi_restore_state
 1283              		.loc 1 563 0 discriminator 2
 1284 0036 0448     		ldr	r0, .L137+4
 1285 0038 FFF7FEFF 		bl	chSysHalt
 1286              	.LVL107:
 1287 003c EAE7     		b	.L130
 1288              	.L136:
 1289              		.loc 1 571 0
 1290 003e FFF7FEFF 		bl	__stack_chk_fail
 1291              	.LVL108:
 1292              	.L138:
 1293 0042 00BF     		.align	2
 1294              	.L137:
 1295 0044 00000000 		.word	__stack_chk_guard
 1296 0048 00000000 		.word	.LANCHOR7
 1297              		.cfi_endproc
 1298              	.LFE271:
 1299              		.size	usbStallReceiveI, .-usbStallReceiveI
 1300              		.section	.text.usbStallTransmitI,"ax",%progbits
 1301              		.align	1
 1302              		.p2align 4,,15
 1303              		.global	usbStallTransmitI
 1304              		.syntax unified
 1305              		.thumb
 1306              		.thumb_func
 1307              		.fpu fpv4-sp-d16
 1308              		.type	usbStallTransmitI, %function
 1309              	usbStallTransmitI:
 1310              	.LFB272:
 1311              		.loc 1 585 0
ARM GAS  C:\Users\mathi\AppData\Local\Temp\ccXUSDGB.s 			page 24


 1312              		.cfi_startproc
 1313              		@ args = 0, pretend = 0, frame = 8
 1314              		@ frame_needed = 0, uses_anonymous_args = 0
 1315              	.LVL109:
 1316 0000 F0B5     		push	{r4, r5, r6, r7, lr}
 1317              		.cfi_def_cfa_offset 20
 1318              		.cfi_offset 4, -20
 1319              		.cfi_offset 5, -16
 1320              		.cfi_offset 6, -12
 1321              		.cfi_offset 7, -8
 1322              		.cfi_offset 14, -4
 1323 0002 104E     		ldr	r6, .L147
 1324 0004 83B0     		sub	sp, sp, #12
 1325              		.cfi_def_cfa_offset 32
 1326              		.loc 1 585 0
 1327 0006 0546     		mov	r5, r0
 1328 0008 3368     		ldr	r3, [r6]
 1329 000a 0193     		str	r3, [sp, #4]
 1330 000c 0F46     		mov	r7, r1
 1331              		.loc 1 587 0
 1332 000e FFF7FEFF 		bl	chDbgCheckClassI
 1333              	.LVL110:
 1334              		.loc 1 588 0
 1335 0012 85B1     		cbz	r5, .L145
 1336              	.L140:
 1337              		.loc 1 590 0
 1338 0014 0120     		movs	r0, #1
 1339 0016 2C89     		ldrh	r4, [r5, #8]
 1340 0018 00FA07F3 		lsl	r3, r0, r7
 1341 001c 1C40     		ands	r4, r3, r4
 1342 001e 04D1     		bne	.L141
 1343              		.loc 1 594 0
 1344 0020 2846     		mov	r0, r5
 1345 0022 3946     		mov	r1, r7
 1346 0024 FFF7FEFF 		bl	usb_lld_stall_in
 1347              	.LVL111:
 1348              		.loc 1 595 0
 1349 0028 2046     		mov	r0, r4
 1350              	.L141:
 1351              		.loc 1 596 0
 1352 002a 019A     		ldr	r2, [sp, #4]
 1353 002c 3368     		ldr	r3, [r6]
 1354 002e 9A42     		cmp	r2, r3
 1355 0030 05D1     		bne	.L146
 1356 0032 03B0     		add	sp, sp, #12
 1357              		.cfi_remember_state
 1358              		.cfi_def_cfa_offset 20
 1359              		@ sp needed
 1360 0034 F0BD     		pop	{r4, r5, r6, r7, pc}
 1361              	.LVL112:
 1362              	.L145:
 1363              		.cfi_restore_state
 1364              		.loc 1 588 0 discriminator 2
 1365 0036 0448     		ldr	r0, .L147+4
 1366 0038 FFF7FEFF 		bl	chSysHalt
 1367              	.LVL113:
 1368 003c EAE7     		b	.L140
ARM GAS  C:\Users\mathi\AppData\Local\Temp\ccXUSDGB.s 			page 25


 1369              	.L146:
 1370              		.loc 1 596 0
 1371 003e FFF7FEFF 		bl	__stack_chk_fail
 1372              	.LVL114:
 1373              	.L148:
 1374 0042 00BF     		.align	2
 1375              	.L147:
 1376 0044 00000000 		.word	__stack_chk_guard
 1377 0048 00000000 		.word	.LANCHOR8
 1378              		.cfi_endproc
 1379              	.LFE272:
 1380              		.size	usbStallTransmitI, .-usbStallTransmitI
 1381              		.section	.text._usb_reset,"ax",%progbits
 1382              		.align	1
 1383              		.p2align 4,,15
 1384              		.global	_usb_reset
 1385              		.syntax unified
 1386              		.thumb
 1387              		.thumb_func
 1388              		.fpu fpv4-sp-d16
 1389              		.type	_usb_reset, %function
 1390              	_usb_reset:
 1391              	.LFB273:
 1392              		.loc 1 607 0
 1393              		.cfi_startproc
 1394              		@ args = 0, pretend = 0, frame = 8
 1395              		@ frame_needed = 0, uses_anonymous_args = 0
 1396              	.LVL115:
 1397 0000 10B5     		push	{r4, lr}
 1398              		.cfi_def_cfa_offset 8
 1399              		.cfi_offset 4, -8
 1400              		.cfi_offset 14, -4
 1401 0002 0D4A     		ldr	r2, .L154
 1402 0004 82B0     		sub	sp, sp, #8
 1403              		.cfi_def_cfa_offset 16
 1404              		.loc 1 607 0
 1405 0006 1168     		ldr	r1, [r2]
 1406 0008 0191     		str	r1, [sp, #4]
 1407              		.loc 1 610 0
 1408 000a 0221     		movs	r1, #2
 1409 000c 0170     		strb	r1, [r0]
 1410              		.loc 1 626 0
 1411 000e 019C     		ldr	r4, [sp, #4]
 1412 0010 1168     		ldr	r1, [r2]
 1413              		.loc 1 611 0
 1414 0012 0022     		movs	r2, #0
 1415              		.loc 1 626 0
 1416 0014 8C42     		cmp	r4, r1
 1417              		.loc 1 611 0
 1418 0016 C264     		str	r2, [r0, #76]
 1419              		.loc 1 619 0
 1420 0018 C0E90222 		strd	r2, r2, [r0, #8]
 1421              	.LVL116:
 1422 001c C0E90422 		strd	r2, r2, [r0, #16]
 1423              	.LVL117:
 1424 0020 8261     		str	r2, [r0, #24]
 1425              	.LVL118:
ARM GAS  C:\Users\mathi\AppData\Local\Temp\ccXUSDGB.s 			page 26


 1426              		.loc 1 623 0
 1427 0022 80F83420 		strb	r2, [r0, #52]
 1428              		.loc 1 626 0
 1429 0026 04D1     		bne	.L153
 1430              		.loc 1 627 0
 1431 0028 02B0     		add	sp, sp, #8
 1432              		.cfi_remember_state
 1433              		.cfi_def_cfa_offset 8
 1434              		@ sp needed
 1435 002a BDE81040 		pop	{r4, lr}
 1436              		.cfi_restore 14
 1437              		.cfi_restore 4
 1438              		.cfi_def_cfa_offset 0
 1439              		.loc 1 626 0
 1440 002e FFF7FEBF 		b	usb_lld_reset
 1441              	.LVL119:
 1442              	.L153:
 1443              		.cfi_restore_state
 1444 0032 FFF7FEFF 		bl	__stack_chk_fail
 1445              	.LVL120:
 1446              	.L155:
 1447 0036 00BF     		.align	2
 1448              	.L154:
 1449 0038 00000000 		.word	__stack_chk_guard
 1450              		.cfi_endproc
 1451              	.LFE273:
 1452              		.size	_usb_reset, .-_usb_reset
 1453              		.section	.text._usb_ep0setup,"ax",%progbits
 1454              		.align	1
 1455              		.p2align 4,,15
 1456              		.global	_usb_ep0setup
 1457              		.syntax unified
 1458              		.thumb
 1459              		.thumb_func
 1460              		.fpu fpv4-sp-d16
 1461              		.type	_usb_ep0setup, %function
 1462              	_usb_ep0setup:
 1463              	.LFB274:
 1464              		.loc 1 639 0
 1465              		.cfi_startproc
 1466              		@ args = 0, pretend = 0, frame = 8
 1467              		@ frame_needed = 0, uses_anonymous_args = 0
 1468              	.LVL121:
 1469 0000 F0B5     		push	{r4, r5, r6, r7, lr}
 1470              		.cfi_def_cfa_offset 20
 1471              		.cfi_offset 4, -20
 1472              		.cfi_offset 5, -16
 1473              		.cfi_offset 6, -12
 1474              		.cfi_offset 7, -8
 1475              		.cfi_offset 14, -4
 1476 0002 BF4D     		ldr	r5, .L261
 1477 0004 83B0     		sub	sp, sp, #12
 1478              		.cfi_def_cfa_offset 32
 1479              		.loc 1 639 0
 1480 0006 0446     		mov	r4, r0
 1481              		.loc 1 642 0
 1482 0008 0022     		movs	r2, #0
ARM GAS  C:\Users\mathi\AppData\Local\Temp\ccXUSDGB.s 			page 27


 1483              		.loc 1 639 0
 1484 000a 2B68     		ldr	r3, [r5]
 1485              		.loc 1 642 0
 1486 000c 80F83420 		strb	r2, [r0, #52]
 1487              		.loc 1 643 0
 1488 0010 00F14402 		add	r2, r0, #68
 1489              		.loc 1 639 0
 1490 0014 0193     		str	r3, [sp, #4]
 1491              		.loc 1 643 0
 1492 0016 FFF7FEFF 		bl	usb_lld_read_setup
 1493              	.LVL122:
 1494              		.loc 1 648 0
 1495 001a 6368     		ldr	r3, [r4, #4]
 1496 001c 9B68     		ldr	r3, [r3, #8]
 1497 001e 002B     		cmp	r3, #0
 1498 0020 39D0     		beq	.L161
 1499              		.loc 1 649 0 discriminator 1
 1500 0022 2046     		mov	r0, r4
 1501 0024 9847     		blx	r3
 1502              	.LVL123:
 1503              		.loc 1 648 0 discriminator 1
 1504 0026 0028     		cmp	r0, #0
 1505 0028 35D0     		beq	.L161
 1506 002a E16B     		ldr	r1, [r4, #60]
 1507 002c 94F84430 		ldrb	r3, [r4, #68]	@ zero_extendqisi2
 1508              	.L178:
 1509              	.LBB335:
 1510              	.LBB336:
 1511              		.loc 1 55 0
 1512 0030 94F84B00 		ldrb	r0, [r4, #75]	@ zero_extendqisi2
 1513 0034 94F84A20 		ldrb	r2, [r4, #74]	@ zero_extendqisi2
 1514              	.LBE336:
 1515              	.LBE335:
 1516              		.loc 1 676 0
 1517 0038 42EA0022 		orr	r2, r2, r0, lsl #8
 1518              	.LVL124:
 1519              		.loc 1 678 0
 1520 003c 8A42     		cmp	r2, r1
 1521 003e 2CBF     		ite	cs
 1522 0040 0A46     		movcs	r2, r1
 1523              	.LVL125:
 1524              		.loc 1 679 0
 1525 0042 E263     		strcc	r2, [r4, #60]
 1526              		.loc 1 681 0
 1527 0044 1806     		lsls	r0, r3, #24
 1528              	.LVL126:
 1529 0046 E168     		ldr	r1, [r4, #12]
 1530 0048 00F1B080 		bmi	.L251
 1531              		.loc 1 707 0
 1532 004c 002A     		cmp	r2, #0
 1533 004e 00F08680 		beq	.L199
 1534              		.loc 1 709 0
 1535 0052 0423     		movs	r3, #4
 1536 0054 84F83430 		strb	r3, [r4, #52]
 1537              	.LBB337:
 1538              	.LBB338:
 1539              		.loc 1 401 0
ARM GAS  C:\Users\mathi\AppData\Local\Temp\ccXUSDGB.s 			page 28


 1540 0058 8B69     		ldr	r3, [r1, #24]
 1541              	.LBE338:
 1542              	.LBE337:
 1543              		.loc 1 710 0
 1544 005a A16B     		ldr	r1, [r4, #56]
 1545              	.LVL127:
 1546              	.LBB340:
 1547              	.LBB339:
 1548              		.loc 1 404 0
 1549 005c D960     		str	r1, [r3, #12]
 1550              	.LVL128:
 1551              		.loc 1 403 0
 1552 005e 0021     		movs	r1, #0
 1553              	.LVL129:
 1554              		.loc 1 405 0
 1555 0060 5A60     		str	r2, [r3, #4]
 1556              		.loc 1 403 0
 1557 0062 1970     		strb	r1, [r3]
 1558              	.LVL130:
 1559              	.L249:
 1560              		.loc 1 406 0
 1561 0064 9960     		str	r1, [r3, #8]
 1562              		.loc 1 408 0
 1563 0066 2046     		mov	r0, r4
 1564 0068 FFF7FEFF 		bl	usb_lld_prepare_receive
 1565              	.LVL131:
 1566              	.LBE339:
 1567              	.LBE340:
 1568              	.LBB341:
 1569              	.LBB342:
 1570              	.LBB343:
 1571              	.LBB344:
 1572              	.LBB345:
 1573              	.LBB346:
 1574              	.LBB347:
 1575              		.loc 2 546 0
 1576 006c 2023     		movs	r3, #32
 1577              		.syntax unified
 1578              	@ 546 "../../lib/e-puck2_main-processor/ChibiOS//os/ext/CMSIS/include/core_cmFunc.h" 1
 1579 006e 83F31188 		MSR basepri, r3
 1580              	@ 0 "" 2
 1581              	.LVL132:
 1582              		.thumb
 1583              		.syntax unified
 1584              	.LBE347:
 1585              	.LBE346:
 1586              	.LBE345:
 1587              	.LBE344:
 1588              		.loc 3 389 0
 1589 0072 FFF7FEFF 		bl	_stats_start_measure_crit_isr
 1590              	.LVL133:
 1591              		.loc 3 390 0
 1592 0076 FFF7FEFF 		bl	_dbg_check_lock_from_isr
 1593              	.LVL134:
 1594              	.LBE343:
 1595              	.LBE342:
 1596              	.LBE341:
ARM GAS  C:\Users\mathi\AppData\Local\Temp\ccXUSDGB.s 			page 29


 1597              	.LBB348:
 1598              	.LBB349:
 1599              		.loc 1 508 0
 1600 007a FFF7FEFF 		bl	chDbgCheckClassI
 1601              	.LVL135:
 1602              		.loc 1 511 0
 1603 007e 6389     		ldrh	r3, [r4, #10]
 1604 0080 13F00101 		ands	r1, r3, #1
 1605 0084 40F08A80 		bne	.L201
 1606              		.loc 1 515 0
 1607 0088 43F00103 		orr	r3, r3, #1
 1608 008c 6381     		strh	r3, [r4, #10]	@ movhi
 1609              		.loc 1 516 0
 1610 008e 2046     		mov	r0, r4
 1611 0090 FFF7FEFF 		bl	usb_lld_start_out
 1612              	.LVL136:
 1613 0094 82E0     		b	.L201
 1614              	.L161:
 1615              	.LBE349:
 1616              	.LBE348:
 1617              		.loc 1 654 0
 1618 0096 94F84430 		ldrb	r3, [r4, #68]	@ zero_extendqisi2
 1619 009a 13F06006 		ands	r6, r3, #96
 1620 009e 1846     		mov	r0, r3
 1621 00a0 17D0     		beq	.L252
 1622              	.L177:
 1623              		.loc 1 660 0
 1624 00a2 0021     		movs	r1, #0
 1625 00a4 2046     		mov	r0, r4
 1626 00a6 FFF7FEFF 		bl	usb_lld_stall_in
 1627              	.LVL137:
 1628              		.loc 1 661 0
 1629 00aa 0021     		movs	r1, #0
 1630 00ac 2046     		mov	r0, r4
 1631 00ae FFF7FEFF 		bl	usb_lld_stall_out
 1632              	.LVL138:
 1633              		.loc 1 662 0
 1634 00b2 6368     		ldr	r3, [r4, #4]
 1635 00b4 1B68     		ldr	r3, [r3]
 1636 00b6 13B1     		cbz	r3, .L191
 1637              		.loc 1 662 0 is_stmt 0 discriminator 1
 1638 00b8 0521     		movs	r1, #5
 1639 00ba 2046     		mov	r0, r4
 1640 00bc 9847     		blx	r3
 1641              	.LVL139:
 1642              	.L191:
 1643              		.loc 1 663 0 is_stmt 1
 1644 00be 0623     		movs	r3, #6
 1645 00c0 84F83430 		strb	r3, [r4, #52]
 1646              	.L156:
 1647              		.loc 1 729 0
 1648 00c4 019A     		ldr	r2, [sp, #4]
 1649 00c6 2B68     		ldr	r3, [r5]
 1650 00c8 9A42     		cmp	r2, r3
 1651 00ca 40F03E81 		bne	.L253
 1652 00ce 03B0     		add	sp, sp, #12
 1653              		.cfi_remember_state
ARM GAS  C:\Users\mathi\AppData\Local\Temp\ccXUSDGB.s 			page 30


 1654              		.cfi_def_cfa_offset 20
 1655              		@ sp needed
 1656 00d0 F0BD     		pop	{r4, r5, r6, r7, pc}
 1657              	.LVL140:
 1658              	.L252:
 1659              		.cfi_restore_state
 1660              	.LBB350:
 1661              	.LBB351:
 1662              		.loc 1 90 0
 1663 00d2 94F84510 		ldrb	r1, [r4, #69]	@ zero_extendqisi2
 1664              		.loc 1 88 0
 1665 00d6 03F07F02 		and	r2, r3, #127
 1666              		.loc 1 89 0
 1667 00da 42EA0122 		orr	r2, r2, r1, lsl #8
 1668              		.loc 1 88 0
 1669 00de B2F5407F 		cmp	r2, #768
 1670 00e2 00F01381 		beq	.L163
 1671 00e6 17D9     		bls	.L254
 1672 00e8 B2F5C06F 		cmp	r2, #1536
 1673 00ec 00F0EF80 		beq	.L171
 1674 00f0 40F29280 		bls	.L255
 1675 00f4 B2F5106F 		cmp	r2, #2304
 1676 00f8 6CD0     		beq	.L175
 1677 00fa 40F60241 		movw	r1, #3074
 1678 00fe 8A42     		cmp	r2, r1
 1679 0100 00F0CB80 		beq	.L168
 1680 0104 B2F5006F 		cmp	r2, #2048
 1681 0108 CBD1     		bne	.L177
 1682              		.loc 1 141 0
 1683 010a 04F14F02 		add	r2, r4, #79
 1684 010e 0121     		movs	r1, #1
 1685 0110 2664     		str	r6, [r4, #64]
 1686              	.LVL141:
 1687 0112 C4E90E21 		strd	r2, r1, [r4, #56]
 1688 0116 8BE7     		b	.L178
 1689              	.LVL142:
 1690              	.L254:
 1691              		.loc 1 88 0
 1692 0118 022A     		cmp	r2, #2
 1693 011a 00F0A480 		beq	.L165
 1694 011e 40F29A80 		bls	.L256
 1695 0122 B2F5807F 		cmp	r2, #256
 1696 0126 68D0     		beq	.L169
 1697 0128 B2F5817F 		cmp	r2, #258
 1698 012c B9D1     		bne	.L177
 1699              		.loc 1 201 0
 1700 012e 94F84630 		ldrb	r3, [r4, #70]	@ zero_extendqisi2
 1701 0132 002B     		cmp	r3, #0
 1702 0134 B5D1     		bne	.L177
 1703              		.loc 1 205 0
 1704 0136 94F84830 		ldrb	r3, [r4, #72]	@ zero_extendqisi2
 1705 013a 13F00F01 		ands	r1, r3, #15
 1706 013e 07D0     		beq	.L189
 1707              		.loc 1 206 0
 1708 0140 1F06     		lsls	r7, r3, #24
 1709              		.loc 1 207 0
 1710 0142 2046     		mov	r0, r4
ARM GAS  C:\Users\mathi\AppData\Local\Temp\ccXUSDGB.s 			page 31


 1711              		.loc 1 206 0
 1712 0144 00F1F780 		bmi	.L257
 1713              	.LVL143:
 1714              		.loc 1 210 0
 1715 0148 FFF7FEFF 		bl	usb_lld_clear_out
 1716              	.LVL144:
 1717 014c 94F84400 		ldrb	r0, [r4, #68]	@ zero_extendqisi2
 1718              	.L189:
 1719              		.loc 1 229 0
 1720 0150 0023     		movs	r3, #0
 1721 0152 C4E90E33 		strd	r3, r3, [r4, #56]
 1722 0156 2364     		str	r3, [r4, #64]
 1723              	.LVL145:
 1724              	.L179:
 1725              	.LBE351:
 1726              	.LBE350:
 1727              		.loc 1 681 0
 1728 0158 0306     		lsls	r3, r0, #24
 1729 015a E168     		ldr	r1, [r4, #12]
 1730 015c 31D4     		bmi	.L196
 1731              	.LVL146:
 1732              	.L199:
 1733              		.loc 1 718 0
 1734 015e 0523     		movs	r3, #5
 1735 0160 84F83430 		strb	r3, [r4, #52]
 1736              	.LVL147:
 1737              	.LBB359:
 1738              	.LBB360:
 1739              		.loc 1 427 0
 1740 0164 4B69     		ldr	r3, [r1, #20]
 1741              	.LVL148:
 1742              		.loc 1 429 0
 1743 0166 0021     		movs	r1, #0
 1744 0168 1970     		strb	r1, [r3]
 1745              		.loc 1 430 0
 1746 016a D960     		str	r1, [r3, #12]
 1747              		.loc 1 431 0
 1748 016c 5960     		str	r1, [r3, #4]
 1749              	.LVL149:
 1750              	.L250:
 1751              		.loc 1 432 0
 1752 016e 9960     		str	r1, [r3, #8]
 1753              		.loc 1 434 0
 1754 0170 2046     		mov	r0, r4
 1755 0172 FFF7FEFF 		bl	usb_lld_prepare_transmit
 1756              	.LVL150:
 1757              	.LBE360:
 1758              	.LBE359:
 1759              	.LBB361:
 1760              	.LBB362:
 1761              	.LBB363:
 1762              	.LBB364:
 1763              	.LBB365:
 1764              	.LBB366:
 1765              	.LBB367:
 1766              		.loc 2 546 0
 1767 0176 2023     		movs	r3, #32
ARM GAS  C:\Users\mathi\AppData\Local\Temp\ccXUSDGB.s 			page 32


 1768              		.syntax unified
 1769              	@ 546 "../../lib/e-puck2_main-processor/ChibiOS//os/ext/CMSIS/include/core_cmFunc.h" 1
 1770 0178 83F31188 		MSR basepri, r3
 1771              	@ 0 "" 2
 1772              	.LVL151:
 1773              		.thumb
 1774              		.syntax unified
 1775              	.LBE367:
 1776              	.LBE366:
 1777              	.LBE365:
 1778              	.LBE364:
 1779              		.loc 3 389 0
 1780 017c FFF7FEFF 		bl	_stats_start_measure_crit_isr
 1781              	.LVL152:
 1782              		.loc 3 390 0
 1783 0180 FFF7FEFF 		bl	_dbg_check_lock_from_isr
 1784              	.LVL153:
 1785              	.LBE363:
 1786              	.LBE362:
 1787              	.LBE361:
 1788              	.LBB368:
 1789              	.LBB369:
 1790              		.loc 1 536 0
 1791 0184 FFF7FEFF 		bl	chDbgCheckClassI
 1792              	.LVL154:
 1793              		.loc 1 539 0
 1794 0188 2389     		ldrh	r3, [r4, #8]
 1795 018a 13F00101 		ands	r1, r3, #1
 1796 018e 05D1     		bne	.L201
 1797              		.loc 1 543 0
 1798 0190 43F00103 		orr	r3, r3, #1
 1799 0194 2381     		strh	r3, [r4, #8]	@ movhi
 1800              		.loc 1 544 0
 1801 0196 2046     		mov	r0, r4
 1802 0198 FFF7FEFF 		bl	usb_lld_start_in
 1803              	.LVL155:
 1804              	.L201:
 1805              	.LBE369:
 1806              	.LBE368:
 1807              	.LBB370:
 1808              	.LBB371:
 1809              	.LBB372:
 1810              		.loc 3 408 0
 1811 019c FFF7FEFF 		bl	_dbg_check_unlock_from_isr
 1812              	.LVL156:
 1813              		.loc 3 409 0
 1814 01a0 FFF7FEFF 		bl	_stats_stop_measure_crit_isr
 1815              	.LVL157:
 1816              	.LBB373:
 1817              	.LBB374:
 1818              	.LBB375:
 1819              	.LBB376:
 1820              		.loc 2 546 0
 1821 01a4 0023     		movs	r3, #0
 1822              		.syntax unified
 1823              	@ 546 "../../lib/e-puck2_main-processor/ChibiOS//os/ext/CMSIS/include/core_cmFunc.h" 1
 1824 01a6 83F31188 		MSR basepri, r3
ARM GAS  C:\Users\mathi\AppData\Local\Temp\ccXUSDGB.s 			page 33


 1825              	@ 0 "" 2
 1826              	.LVL158:
 1827              		.thumb
 1828              		.syntax unified
 1829 01aa 8BE7     		b	.L156
 1830              	.LVL159:
 1831              	.L251:
 1832              	.LBE376:
 1833              	.LBE375:
 1834              	.LBE374:
 1835              	.LBE373:
 1836              	.LBE372:
 1837              	.LBE371:
 1838              	.LBE370:
 1839              		.loc 1 683 0
 1840 01ac 4AB1     		cbz	r2, .L196
 1841              		.loc 1 685 0
 1842 01ae 0123     		movs	r3, #1
 1843 01b0 84F83430 		strb	r3, [r4, #52]
 1844              	.LBB377:
 1845              	.LBB378:
 1846              		.loc 1 427 0
 1847 01b4 4B69     		ldr	r3, [r1, #20]
 1848              	.LBE378:
 1849              	.LBE377:
 1850              		.loc 1 686 0
 1851 01b6 A16B     		ldr	r1, [r4, #56]
 1852              	.LVL160:
 1853              	.LBB380:
 1854              	.LBB379:
 1855              		.loc 1 430 0
 1856 01b8 D960     		str	r1, [r3, #12]
 1857              	.LVL161:
 1858              		.loc 1 429 0
 1859 01ba 0021     		movs	r1, #0
 1860              	.LVL162:
 1861              		.loc 1 431 0
 1862 01bc 5A60     		str	r2, [r3, #4]
 1863              		.loc 1 429 0
 1864 01be 1970     		strb	r1, [r3]
 1865 01c0 D5E7     		b	.L250
 1866              	.LVL163:
 1867              	.L196:
 1868              	.LBE379:
 1869              	.LBE380:
 1870              		.loc 1 694 0
 1871 01c2 0323     		movs	r3, #3
 1872 01c4 84F83430 		strb	r3, [r4, #52]
 1873              	.LVL164:
 1874              	.LBB381:
 1875              	.LBB382:
 1876              		.loc 1 401 0
 1877 01c8 8B69     		ldr	r3, [r1, #24]
 1878              	.LVL165:
 1879              		.loc 1 403 0
 1880 01ca 0021     		movs	r1, #0
 1881 01cc 1970     		strb	r1, [r3]
ARM GAS  C:\Users\mathi\AppData\Local\Temp\ccXUSDGB.s 			page 34


 1882              		.loc 1 404 0
 1883 01ce D960     		str	r1, [r3, #12]
 1884              		.loc 1 405 0
 1885 01d0 5960     		str	r1, [r3, #4]
 1886 01d2 47E7     		b	.L249
 1887              	.LVL166:
 1888              	.L175:
 1889              	.LBE382:
 1890              	.LBE381:
 1891              	.LBB383:
 1892              	.LBB358:
 1893              		.loc 1 145 0
 1894 01d4 94F84630 		ldrb	r3, [r4, #70]	@ zero_extendqisi2
 1895 01d8 84F84F30 		strb	r3, [r4, #79]
 1896              		.loc 1 147 0
 1897 01dc 002B     		cmp	r3, #0
 1898 01de 14BF     		ite	ne
 1899 01e0 0423     		movne	r3, #4
 1900 01e2 0323     		moveq	r3, #3
 1901              		.loc 1 152 0
 1902 01e4 6268     		ldr	r2, [r4, #4]
 1903 01e6 2370     		strb	r3, [r4]
 1904 01e8 1368     		ldr	r3, [r2]
 1905 01ea 002B     		cmp	r3, #0
 1906 01ec B0D0     		beq	.L189
 1907 01ee 2046     		mov	r0, r4
 1908 01f0 0221     		movs	r1, #2
 1909 01f2 9847     		blx	r3
 1910              	.LVL167:
 1911 01f4 94F84400 		ldrb	r0, [r4, #68]	@ zero_extendqisi2
 1912 01f8 AAE7     		b	.L189
 1913              	.L169:
 1914              		.loc 1 98 0
 1915 01fa 94F84630 		ldrb	r3, [r4, #70]	@ zero_extendqisi2
 1916 01fe 012B     		cmp	r3, #1
 1917 0200 7FF44FAF 		bne	.L177
 1918              		.loc 1 99 0
 1919 0204 B4F84C30 		ldrh	r3, [r4, #76]
 1920              		.loc 1 100 0
 1921 0208 A663     		str	r6, [r4, #56]
 1922              		.loc 1 99 0
 1923 020a 23F00203 		bic	r3, r3, #2
 1924              		.loc 1 100 0
 1925 020e C4E90F66 		strd	r6, r6, [r4, #60]
 1926              	.LVL168:
 1927              		.loc 1 99 0
 1928 0212 A4F84C30 		strh	r3, [r4, #76]	@ movhi
 1929 0216 9FE7     		b	.L179
 1930              	.LVL169:
 1931              	.L255:
 1932              		.loc 1 88 0
 1933 0218 40F20233 		movw	r3, #770
 1934 021c 9A42     		cmp	r2, r3
 1935 021e 43D0     		beq	.L173
 1936 0220 B2F5A06F 		cmp	r2, #1280
 1937 0224 7FF43DAF 		bne	.L177
 1938              		.loc 1 118 0
ARM GAS  C:\Users\mathi\AppData\Local\Temp\ccXUSDGB.s 			page 35


 1939 0228 B4F84430 		ldrh	r3, [r4, #68]
 1940 022c B3F5A06F 		cmp	r3, #1280
 1941 0230 8ED1     		bne	.L189
 1942              	.LVL170:
 1943              	.LBB352:
 1944              	.LBB353:
 1945              		.loc 1 66 0
 1946 0232 94F84630 		ldrb	r3, [r4, #70]	@ zero_extendqisi2
 1947 0236 84F84E30 		strb	r3, [r4, #78]
 1948              		.loc 1 67 0
 1949 023a 2046     		mov	r0, r4
 1950 023c FFF7FEFF 		bl	usb_lld_set_address
 1951              	.LVL171:
 1952              		.loc 1 68 0
 1953 0240 6368     		ldr	r3, [r4, #4]
 1954 0242 1B68     		ldr	r3, [r3]
 1955 0244 13B1     		cbz	r3, .L181
 1956 0246 0121     		movs	r1, #1
 1957 0248 2046     		mov	r0, r4
 1958 024a 9847     		blx	r3
 1959              	.LVL172:
 1960              	.L181:
 1961              		.loc 1 69 0
 1962 024c 0323     		movs	r3, #3
 1963 024e 94F84400 		ldrb	r0, [r4, #68]	@ zero_extendqisi2
 1964 0252 2370     		strb	r3, [r4]
 1965 0254 7CE7     		b	.L189
 1966              	.LVL173:
 1967              	.L256:
 1968              	.LBE353:
 1969              	.LBE352:
 1970              		.loc 1 88 0
 1971 0256 EAB9     		cbnz	r2, .L258
 1972              		.loc 1 93 0
 1973 0258 04F14C00 		add	r0, r4, #76
 1974 025c 0221     		movs	r1, #2
 1975 025e 2264     		str	r2, [r4, #64]
 1976              	.LVL174:
 1977 0260 C4E90E01 		strd	r0, r1, [r4, #56]
 1978 0264 E4E6     		b	.L178
 1979              	.LVL175:
 1980              	.L165:
 1981              		.loc 1 165 0
 1982 0266 94F84830 		ldrb	r3, [r4, #72]	@ zero_extendqisi2
 1983 026a 03F00F01 		and	r1, r3, #15
 1984 026e 1B06     		lsls	r3, r3, #24
 1985              		.loc 1 166 0
 1986 0270 2046     		mov	r0, r4
 1987              		.loc 1 165 0
 1988 0272 5AD4     		bmi	.L259
 1989              	.LVL176:
 1990              		.loc 1 183 0
 1991 0274 FFF7FEFF 		bl	usb_lld_get_status_out
 1992              	.LVL177:
 1993 0278 0128     		cmp	r0, #1
 1994 027a 5AD0     		beq	.L185
 1995              	.L245:
ARM GAS  C:\Users\mathi\AppData\Local\Temp\ccXUSDGB.s 			page 36


 1996 027c 0228     		cmp	r0, #2
 1997 027e 7FF410AF 		bne	.L177
 1998              		.loc 1 174 0
 1999 0282 204B     		ldr	r3, .L261+4
 2000              	.L246:
 2001 0284 A363     		str	r3, [r4, #56]
 2002 0286 0221     		movs	r1, #2
 2003 0288 0023     		movs	r3, #0
 2004 028a C4E90F13 		strd	r1, r3, [r4, #60]
 2005              	.LVL178:
 2006 028e 94F84430 		ldrb	r3, [r4, #68]	@ zero_extendqisi2
 2007 0292 CDE6     		b	.L178
 2008              	.LVL179:
 2009              	.L258:
 2010              		.loc 1 88 0
 2011 0294 012A     		cmp	r2, #1
 2012 0296 7FF404AF 		bne	.L177
 2013              	.L168:
 2014              		.loc 1 160 0
 2015 029a 1B4A     		ldr	r2, .L261+8
 2016 029c A263     		str	r2, [r4, #56]
 2017 029e 0221     		movs	r1, #2
 2018 02a0 0022     		movs	r2, #0
 2019 02a2 C4E90F12 		strd	r1, r2, [r4, #60]
 2020              	.LVL180:
 2021 02a6 C3E6     		b	.L178
 2022              	.LVL181:
 2023              	.L173:
 2024              		.loc 1 217 0
 2025 02a8 94F84630 		ldrb	r3, [r4, #70]	@ zero_extendqisi2
 2026 02ac 002B     		cmp	r3, #0
 2027 02ae 7FF4F8AE 		bne	.L177
 2028              		.loc 1 221 0
 2029 02b2 94F84830 		ldrb	r3, [r4, #72]	@ zero_extendqisi2
 2030 02b6 13F00F01 		ands	r1, r3, #15
 2031 02ba 3FF449AF 		beq	.L189
 2032              		.loc 1 222 0
 2033 02be 1E06     		lsls	r6, r3, #24
 2034              		.loc 1 223 0
 2035 02c0 2046     		mov	r0, r4
 2036              		.loc 1 222 0
 2037 02c2 3DD4     		bmi	.L260
 2038              	.LVL182:
 2039              		.loc 1 226 0
 2040 02c4 FFF7FEFF 		bl	usb_lld_stall_out
 2041              	.LVL183:
 2042 02c8 94F84400 		ldrb	r0, [r4, #68]	@ zero_extendqisi2
 2043 02cc 40E7     		b	.L189
 2044              	.L171:
 2045              	.LBB354:
 2046              	.LBB355:
 2047              		.loc 1 55 0
 2048 02ce 94F84900 		ldrb	r0, [r4, #73]	@ zero_extendqisi2
 2049              	.LBE355:
 2050              	.LBE354:
 2051              		.loc 1 129 0
 2052 02d2 6168     		ldr	r1, [r4, #4]
ARM GAS  C:\Users\mathi\AppData\Local\Temp\ccXUSDGB.s 			page 37


 2053              	.LBB357:
 2054              	.LBB356:
 2055              		.loc 1 55 0
 2056 02d4 94F84830 		ldrb	r3, [r4, #72]	@ zero_extendqisi2
 2057              	.LBE356:
 2058              	.LBE357:
 2059              		.loc 1 129 0
 2060 02d8 4F68     		ldr	r7, [r1, #4]
 2061 02da 94F84620 		ldrb	r2, [r4, #70]	@ zero_extendqisi2
 2062 02de 94F84710 		ldrb	r1, [r4, #71]	@ zero_extendqisi2
 2063 02e2 43EA0023 		orr	r3, r3, r0, lsl #8
 2064 02e6 2046     		mov	r0, r4
 2065 02e8 B847     		blx	r7
 2066              	.LVL184:
 2067              		.loc 1 132 0
 2068 02ea 0028     		cmp	r0, #0
 2069 02ec 3FF4D9AE 		beq	.L177
 2070              		.loc 1 136 0
 2071 02f0 4368     		ldr	r3, [r0, #4]
 2072 02f2 A363     		str	r3, [r4, #56]
 2073 02f4 0168     		ldr	r1, [r0]
 2074 02f6 94F84430 		ldrb	r3, [r4, #68]	@ zero_extendqisi2
 2075 02fa C4E90F16 		strd	r1, r6, [r4, #60]
 2076              	.LVL185:
 2077 02fe 97E6     		b	.L178
 2078              	.L262:
 2079              		.align	2
 2080              	.L261:
 2081 0300 00000000 		.word	__stack_chk_guard
 2082 0304 00000000 		.word	.LANCHOR11
 2083 0308 00000000 		.word	.LANCHOR9
 2084              	.LVL186:
 2085              	.L163:
 2086              		.loc 1 107 0
 2087 030c 94F84630 		ldrb	r3, [r4, #70]	@ zero_extendqisi2
 2088 0310 012B     		cmp	r3, #1
 2089 0312 7FF4C6AE 		bne	.L177
 2090              		.loc 1 108 0
 2091 0316 B4F84C30 		ldrh	r3, [r4, #76]
 2092              		.loc 1 109 0
 2093 031a A663     		str	r6, [r4, #56]
 2094              		.loc 1 108 0
 2095 031c 43F00203 		orr	r3, r3, #2
 2096              		.loc 1 109 0
 2097 0320 C4E90F66 		strd	r6, r6, [r4, #60]
 2098              	.LVL187:
 2099              		.loc 1 108 0
 2100 0324 A4F84C30 		strh	r3, [r4, #76]	@ movhi
 2101 0328 16E7     		b	.L179
 2102              	.LVL188:
 2103              	.L259:
 2104              		.loc 1 166 0
 2105 032a FFF7FEFF 		bl	usb_lld_get_status_in
 2106              	.LVL189:
 2107 032e 0128     		cmp	r0, #1
 2108 0330 A4D1     		bne	.L245
 2109              	.L185:
ARM GAS  C:\Users\mathi\AppData\Local\Temp\ccXUSDGB.s 			page 38


 2110              		.loc 1 169 0
 2111 0332 074B     		ldr	r3, .L263
 2112 0334 A6E7     		b	.L246
 2113              	.LVL190:
 2114              	.L257:
 2115              		.loc 1 207 0
 2116 0336 FFF7FEFF 		bl	usb_lld_clear_in
 2117              	.LVL191:
 2118 033a 94F84400 		ldrb	r0, [r4, #68]	@ zero_extendqisi2
 2119 033e 07E7     		b	.L189
 2120              	.LVL192:
 2121              	.L260:
 2122              		.loc 1 223 0
 2123 0340 FFF7FEFF 		bl	usb_lld_stall_in
 2124              	.LVL193:
 2125 0344 94F84400 		ldrb	r0, [r4, #68]	@ zero_extendqisi2
 2126 0348 02E7     		b	.L189
 2127              	.LVL194:
 2128              	.L253:
 2129              	.LBE358:
 2130              	.LBE383:
 2131              		.loc 1 729 0
 2132 034a FFF7FEFF 		bl	__stack_chk_fail
 2133              	.LVL195:
 2134              	.L264:
 2135 034e 00BF     		.align	2
 2136              	.L263:
 2137 0350 00000000 		.word	.LANCHOR10
 2138              		.cfi_endproc
 2139              	.LFE274:
 2140              		.size	_usb_ep0setup, .-_usb_ep0setup
 2141              		.section	.text._usb_ep0in,"ax",%progbits
 2142              		.align	1
 2143              		.p2align 4,,15
 2144              		.global	_usb_ep0in
 2145              		.syntax unified
 2146              		.thumb
 2147              		.thumb_func
 2148              		.fpu fpv4-sp-d16
 2149              		.type	_usb_ep0in, %function
 2150              	_usb_ep0in:
 2151              	.LFB275:
 2152              		.loc 1 741 0
 2153              		.cfi_startproc
 2154              		@ args = 0, pretend = 0, frame = 8
 2155              		@ frame_needed = 0, uses_anonymous_args = 0
 2156              	.LVL196:
 2157 0000 30B5     		push	{r4, r5, lr}
 2158              		.cfi_def_cfa_offset 12
 2159              		.cfi_offset 4, -12
 2160              		.cfi_offset 5, -8
 2161              		.cfi_offset 14, -4
 2162 0002 4E4D     		ldr	r5, .L290
 2163              		.loc 1 745 0
 2164 0004 90F83430 		ldrb	r3, [r0, #52]	@ zero_extendqisi2
 2165              		.loc 1 741 0
 2166 0008 2A68     		ldr	r2, [r5]
ARM GAS  C:\Users\mathi\AppData\Local\Temp\ccXUSDGB.s 			page 39


 2167 000a 83B0     		sub	sp, sp, #12
 2168              		.cfi_def_cfa_offset 24
 2169              		.loc 1 741 0
 2170 000c 0446     		mov	r4, r0
 2171 000e 0192     		str	r2, [sp, #4]
 2172              		.loc 1 745 0
 2173 0010 062B     		cmp	r3, #6
 2174 0012 5FD8     		bhi	.L266
 2175 0014 DFE803F0 		tbb	[pc, r3]
 2176              	.L268:
 2177 0018 04       		.byte	(.L267-.L268)/2
 2178 0019 25       		.byte	(.L269-.L268)/2
 2179 001a 5C       		.byte	(.L270-.L268)/2
 2180 001b 04       		.byte	(.L267-.L268)/2
 2181 001c 04       		.byte	(.L267-.L268)/2
 2182 001d 1E       		.byte	(.L271-.L268)/2
 2183 001e 07       		.byte	(.L272-.L268)/2
 2184 001f 00       		.p2align 1
 2185              	.L267:
 2186              		.loc 1 784 0 discriminator 2
 2187 0020 4748     		ldr	r0, .L290+4
 2188              	.LVL197:
 2189 0022 FFF7FEFF 		bl	chSysHalt
 2190              	.LVL198:
 2191              	.L272:
 2192              		.loc 1 790 0
 2193 0026 0021     		movs	r1, #0
 2194 0028 2046     		mov	r0, r4
 2195 002a FFF7FEFF 		bl	usb_lld_stall_in
 2196              	.LVL199:
 2197              		.loc 1 791 0
 2198 002e 0021     		movs	r1, #0
 2199 0030 2046     		mov	r0, r4
 2200 0032 FFF7FEFF 		bl	usb_lld_stall_out
 2201              	.LVL200:
 2202              		.loc 1 792 0
 2203 0036 6368     		ldr	r3, [r4, #4]
 2204 0038 1B68     		ldr	r3, [r3]
 2205 003a 13B1     		cbz	r3, .L278
 2206              		.loc 1 792 0 is_stmt 0 discriminator 1
 2207 003c 0521     		movs	r1, #5
 2208 003e 2046     		mov	r0, r4
 2209 0040 9847     		blx	r3
 2210              	.LVL201:
 2211              	.L278:
 2212              		.loc 1 793 0 is_stmt 1
 2213 0042 0623     		movs	r3, #6
 2214 0044 84F83430 		strb	r3, [r4, #52]
 2215              	.L265:
 2216              		.loc 1 798 0
 2217 0048 019A     		ldr	r2, [sp, #4]
 2218 004a 2B68     		ldr	r3, [r5]
 2219 004c 9A42     		cmp	r2, r3
 2220 004e 72D1     		bne	.L288
 2221 0050 03B0     		add	sp, sp, #12
 2222              		.cfi_remember_state
 2223              		.cfi_def_cfa_offset 12
ARM GAS  C:\Users\mathi\AppData\Local\Temp\ccXUSDGB.s 			page 40


 2224              		@ sp needed
 2225 0052 30BD     		pop	{r4, r5, pc}
 2226              	.LVL202:
 2227              	.L271:
 2228              		.cfi_restore_state
 2229              		.loc 1 775 0
 2230 0054 036C     		ldr	r3, [r0, #64]
 2231 0056 03B1     		cbz	r3, .L277
 2232              		.loc 1 776 0
 2233 0058 9847     		blx	r3
 2234              	.LVL203:
 2235              	.L277:
 2236              		.loc 1 778 0
 2237 005a 0023     		movs	r3, #0
 2238 005c 84F83430 		strb	r3, [r4, #52]
 2239              		.loc 1 779 0
 2240 0060 F2E7     		b	.L265
 2241              	.LVL204:
 2242              	.L269:
 2243              	.LBB422:
 2244              	.LBB423:
 2245              		.loc 1 55 0
 2246 0062 90F84B00 		ldrb	r0, [r0, #75]	@ zero_extendqisi2
 2247              	.LVL205:
 2248 0066 94F84A20 		ldrb	r2, [r4, #74]	@ zero_extendqisi2
 2249              	.LBE423:
 2250              	.LBE422:
 2251              		.loc 1 751 0
 2252 006a E16B     		ldr	r1, [r4, #60]
 2253              	.LVL206:
 2254 006c E368     		ldr	r3, [r4, #12]
 2255              		.loc 1 747 0
 2256 006e 42EA0022 		orr	r2, r2, r0, lsl #8
 2257              		.loc 1 751 0
 2258 0072 9142     		cmp	r1, r2
 2259 0074 05D2     		bcs	.L273
 2260              		.loc 1 752 0 discriminator 1
 2261 0076 188A     		ldrh	r0, [r3, #16]
 2262              	.LVL207:
 2263 0078 B1FBF0F2 		udiv	r2, r1, r0
 2264 007c 00FB1212 		mls	r2, r0, r2, r1
 2265              		.loc 1 751 0 discriminator 1
 2266 0080 92B3     		cbz	r2, .L289
 2267              	.LVL208:
 2268              	.L273:
 2269              		.loc 1 763 0
 2270 0082 0322     		movs	r2, #3
 2271 0084 84F83420 		strb	r2, [r4, #52]
 2272              	.LVL209:
 2273              	.LBB424:
 2274              	.LBB425:
 2275              		.loc 1 401 0
 2276 0088 9B69     		ldr	r3, [r3, #24]
 2277              	.LVL210:
 2278              		.loc 1 403 0
 2279 008a 0021     		movs	r1, #0
 2280 008c 1970     		strb	r1, [r3]
ARM GAS  C:\Users\mathi\AppData\Local\Temp\ccXUSDGB.s 			page 41


 2281              		.loc 1 404 0
 2282 008e D960     		str	r1, [r3, #12]
 2283              		.loc 1 406 0
 2284 0090 C3E90111 		strd	r1, r1, [r3, #4]
 2285              		.loc 1 408 0
 2286 0094 2046     		mov	r0, r4
 2287 0096 FFF7FEFF 		bl	usb_lld_prepare_receive
 2288              	.LVL211:
 2289              	.LBE425:
 2290              	.LBE424:
 2291              	.LBB426:
 2292              	.LBB427:
 2293              	.LBB428:
 2294              	.LBB429:
 2295              	.LBB430:
 2296              	.LBB431:
 2297              	.LBB432:
 2298              		.loc 2 546 0
 2299 009a 2023     		movs	r3, #32
 2300              		.syntax unified
 2301              	@ 546 "../../lib/e-puck2_main-processor/ChibiOS//os/ext/CMSIS/include/core_cmFunc.h" 1
 2302 009c 83F31188 		MSR basepri, r3
 2303              	@ 0 "" 2
 2304              	.LVL212:
 2305              		.thumb
 2306              		.syntax unified
 2307              	.LBE432:
 2308              	.LBE431:
 2309              	.LBE430:
 2310              	.LBE429:
 2311              		.loc 3 389 0
 2312 00a0 FFF7FEFF 		bl	_stats_start_measure_crit_isr
 2313              	.LVL213:
 2314              		.loc 3 390 0
 2315 00a4 FFF7FEFF 		bl	_dbg_check_lock_from_isr
 2316              	.LVL214:
 2317              	.LBE428:
 2318              	.LBE427:
 2319              	.LBE426:
 2320              	.LBB433:
 2321              	.LBB434:
 2322              		.loc 1 508 0
 2323 00a8 FFF7FEFF 		bl	chDbgCheckClassI
 2324              	.LVL215:
 2325              		.loc 1 511 0
 2326 00ac 6389     		ldrh	r3, [r4, #10]
 2327 00ae 13F00101 		ands	r1, r3, #1
 2328 00b2 05D1     		bne	.L276
 2329              		.loc 1 515 0
 2330 00b4 43F00103 		orr	r3, r3, #1
 2331 00b8 6381     		strh	r3, [r4, #10]	@ movhi
 2332              		.loc 1 516 0
 2333 00ba 2046     		mov	r0, r4
 2334 00bc FFF7FEFF 		bl	usb_lld_start_out
 2335              	.LVL216:
 2336              	.L276:
 2337              	.LBE434:
ARM GAS  C:\Users\mathi\AppData\Local\Temp\ccXUSDGB.s 			page 42


 2338              	.LBE433:
 2339              	.LBB435:
 2340              	.LBB436:
 2341              	.LBB437:
 2342              		.loc 3 408 0
 2343 00c0 FFF7FEFF 		bl	_dbg_check_unlock_from_isr
 2344              	.LVL217:
 2345              		.loc 3 409 0
 2346 00c4 FFF7FEFF 		bl	_stats_stop_measure_crit_isr
 2347              	.LVL218:
 2348              	.LBB438:
 2349              	.LBB439:
 2350              	.LBB440:
 2351              	.LBB441:
 2352              		.loc 2 546 0
 2353 00c8 0023     		movs	r3, #0
 2354              		.syntax unified
 2355              	@ 546 "../../lib/e-puck2_main-processor/ChibiOS//os/ext/CMSIS/include/core_cmFunc.h" 1
 2356 00ca 83F31188 		MSR basepri, r3
 2357              	@ 0 "" 2
 2358              	.LVL219:
 2359              		.thumb
 2360              		.syntax unified
 2361 00ce BBE7     		b	.L265
 2362              	.LVL220:
 2363              	.L270:
 2364 00d0 C368     		ldr	r3, [r0, #12]
 2365 00d2 D6E7     		b	.L273
 2366              	.L266:
 2367              	.LBE441:
 2368              	.LBE440:
 2369              	.LBE439:
 2370              	.LBE438:
 2371              	.LBE437:
 2372              	.LBE436:
 2373              	.LBE435:
 2374              		.loc 1 796 0 discriminator 2
 2375 00d4 019A     		ldr	r2, [sp, #4]
 2376 00d6 2B68     		ldr	r3, [r5]
 2377 00d8 9A42     		cmp	r2, r3
 2378 00da 2CD1     		bne	.L288
 2379 00dc 1848     		ldr	r0, .L290+4
 2380              	.LVL221:
 2381              		.loc 1 798 0 discriminator 2
 2382 00de 03B0     		add	sp, sp, #12
 2383              		@ sp needed
 2384 00e0 BDE83040 		pop	{r4, r5, lr}
 2385              	.LVL222:
 2386              		.loc 1 796 0 discriminator 2
 2387 00e4 FFF7FEBF 		b	chSysHalt
 2388              	.LVL223:
 2389              	.L289:
 2390              	.LBB442:
 2391              	.LBB443:
 2392              		.loc 1 427 0
 2393 00e8 5B69     		ldr	r3, [r3, #20]
 2394              	.LVL224:
ARM GAS  C:\Users\mathi\AppData\Local\Temp\ccXUSDGB.s 			page 43


 2395              		.loc 1 434 0
 2396 00ea 1146     		mov	r1, r2
 2397              		.loc 1 429 0
 2398 00ec 1A70     		strb	r2, [r3]
 2399              	.LVL225:
 2400              		.loc 1 430 0
 2401 00ee DA60     		str	r2, [r3, #12]
 2402              		.loc 1 432 0
 2403 00f0 C3E90122 		strd	r2, r2, [r3, #4]
 2404              		.loc 1 434 0
 2405 00f4 2046     		mov	r0, r4
 2406 00f6 FFF7FEFF 		bl	usb_lld_prepare_transmit
 2407              	.LVL226:
 2408              	.LBE443:
 2409              	.LBE442:
 2410              	.LBB444:
 2411              	.LBB445:
 2412              	.LBB446:
 2413              	.LBB447:
 2414              	.LBB448:
 2415              	.LBB449:
 2416              	.LBB450:
 2417              		.loc 2 546 0
 2418 00fa 2023     		movs	r3, #32
 2419              		.syntax unified
 2420              	@ 546 "../../lib/e-puck2_main-processor/ChibiOS//os/ext/CMSIS/include/core_cmFunc.h" 1
 2421 00fc 83F31188 		MSR basepri, r3
 2422              	@ 0 "" 2
 2423              	.LVL227:
 2424              		.thumb
 2425              		.syntax unified
 2426              	.LBE450:
 2427              	.LBE449:
 2428              	.LBE448:
 2429              	.LBE447:
 2430              		.loc 3 389 0
 2431 0100 FFF7FEFF 		bl	_stats_start_measure_crit_isr
 2432              	.LVL228:
 2433              		.loc 3 390 0
 2434 0104 FFF7FEFF 		bl	_dbg_check_lock_from_isr
 2435              	.LVL229:
 2436              	.LBE446:
 2437              	.LBE445:
 2438              	.LBE444:
 2439              	.LBB451:
 2440              	.LBB452:
 2441              		.loc 1 536 0
 2442 0108 FFF7FEFF 		bl	chDbgCheckClassI
 2443              	.LVL230:
 2444              		.loc 1 539 0
 2445 010c 2389     		ldrh	r3, [r4, #8]
 2446 010e 13F00101 		ands	r1, r3, #1
 2447 0112 05D1     		bne	.L274
 2448              		.loc 1 543 0
 2449 0114 43F00103 		orr	r3, r3, #1
 2450 0118 2381     		strh	r3, [r4, #8]	@ movhi
 2451              		.loc 1 544 0
ARM GAS  C:\Users\mathi\AppData\Local\Temp\ccXUSDGB.s 			page 44


 2452 011a 2046     		mov	r0, r4
 2453 011c FFF7FEFF 		bl	usb_lld_start_in
 2454              	.LVL231:
 2455              	.L274:
 2456              	.LBE452:
 2457              	.LBE451:
 2458              	.LBB453:
 2459              	.LBB454:
 2460              	.LBB455:
 2461              		.loc 3 408 0
 2462 0120 FFF7FEFF 		bl	_dbg_check_unlock_from_isr
 2463              	.LVL232:
 2464              		.loc 3 409 0
 2465 0124 FFF7FEFF 		bl	_stats_stop_measure_crit_isr
 2466              	.LVL233:
 2467              	.LBB456:
 2468              	.LBB457:
 2469              	.LBB458:
 2470              	.LBB459:
 2471              		.loc 2 546 0
 2472 0128 0023     		movs	r3, #0
 2473              		.syntax unified
 2474              	@ 546 "../../lib/e-puck2_main-processor/ChibiOS//os/ext/CMSIS/include/core_cmFunc.h" 1
 2475 012a 83F31188 		MSR basepri, r3
 2476              	@ 0 "" 2
 2477              	.LVL234:
 2478              		.thumb
 2479              		.syntax unified
 2480              	.LBE459:
 2481              	.LBE458:
 2482              	.LBE457:
 2483              	.LBE456:
 2484              	.LBE455:
 2485              	.LBE454:
 2486              	.LBE453:
 2487              		.loc 1 757 0
 2488 012e 0223     		movs	r3, #2
 2489 0130 84F83430 		strb	r3, [r4, #52]
 2490              		.loc 1 758 0
 2491 0134 88E7     		b	.L265
 2492              	.L288:
 2493              		.loc 1 798 0
 2494 0136 FFF7FEFF 		bl	__stack_chk_fail
 2495              	.LVL235:
 2496              	.L291:
 2497 013a 00BF     		.align	2
 2498              	.L290:
 2499 013c 00000000 		.word	__stack_chk_guard
 2500 0140 00000000 		.word	.LANCHOR12
 2501              		.cfi_endproc
 2502              	.LFE275:
 2503              		.size	_usb_ep0in, .-_usb_ep0in
 2504              		.section	.text._usb_ep0out,"ax",%progbits
 2505              		.align	1
 2506              		.p2align 4,,15
 2507              		.global	_usb_ep0out
 2508              		.syntax unified
ARM GAS  C:\Users\mathi\AppData\Local\Temp\ccXUSDGB.s 			page 45


 2509              		.thumb
 2510              		.thumb_func
 2511              		.fpu fpv4-sp-d16
 2512              		.type	_usb_ep0out, %function
 2513              	_usb_ep0out:
 2514              	.LFB276:
 2515              		.loc 1 810 0
 2516              		.cfi_startproc
 2517              		@ args = 0, pretend = 0, frame = 8
 2518              		@ frame_needed = 0, uses_anonymous_args = 0
 2519              	.LVL236:
 2520 0000 30B5     		push	{r4, r5, lr}
 2521              		.cfi_def_cfa_offset 12
 2522              		.cfi_offset 4, -12
 2523              		.cfi_offset 5, -8
 2524              		.cfi_offset 14, -4
 2525 0002 344D     		ldr	r5, .L314
 2526              		.loc 1 813 0
 2527 0004 90F83430 		ldrb	r3, [r0, #52]	@ zero_extendqisi2
 2528              		.loc 1 810 0
 2529 0008 2A68     		ldr	r2, [r5]
 2530 000a 83B0     		sub	sp, sp, #12
 2531              		.cfi_def_cfa_offset 24
 2532              		.loc 1 810 0
 2533 000c 0446     		mov	r4, r0
 2534 000e 0192     		str	r2, [sp, #4]
 2535              		.loc 1 813 0
 2536 0010 062B     		cmp	r3, #6
 2537 0012 4CD8     		bhi	.L293
 2538 0014 DFE803F0 		tbb	[pc, r3]
 2539              	.L295:
 2540 0018 04       		.byte	(.L294-.L295)/2
 2541 0019 04       		.byte	(.L294-.L295)/2
 2542 001a 04       		.byte	(.L294-.L295)/2
 2543 001b 3F       		.byte	(.L296-.L295)/2
 2544 001c 1E       		.byte	(.L297-.L295)/2
 2545 001d 04       		.byte	(.L294-.L295)/2
 2546 001e 07       		.byte	(.L298-.L295)/2
 2547 001f 00       		.p2align 1
 2548              	.L294:
 2549              		.loc 1 844 0 discriminator 2
 2550 0020 2D48     		ldr	r0, .L314+4
 2551              	.LVL237:
 2552 0022 FFF7FEFF 		bl	chSysHalt
 2553              	.LVL238:
 2554              	.L298:
 2555              		.loc 1 850 0
 2556 0026 0021     		movs	r1, #0
 2557 0028 2046     		mov	r0, r4
 2558 002a FFF7FEFF 		bl	usb_lld_stall_in
 2559              	.LVL239:
 2560              		.loc 1 851 0
 2561 002e 0021     		movs	r1, #0
 2562 0030 2046     		mov	r0, r4
 2563 0032 FFF7FEFF 		bl	usb_lld_stall_out
 2564              	.LVL240:
 2565              		.loc 1 852 0
ARM GAS  C:\Users\mathi\AppData\Local\Temp\ccXUSDGB.s 			page 46


 2566 0036 6368     		ldr	r3, [r4, #4]
 2567 0038 1B68     		ldr	r3, [r3]
 2568 003a 13B1     		cbz	r3, .L302
 2569              		.loc 1 852 0 is_stmt 0 discriminator 1
 2570 003c 0521     		movs	r1, #5
 2571 003e 2046     		mov	r0, r4
 2572 0040 9847     		blx	r3
 2573              	.LVL241:
 2574              	.L302:
 2575              		.loc 1 853 0 is_stmt 1
 2576 0042 0623     		movs	r3, #6
 2577 0044 84F83430 		strb	r3, [r4, #52]
 2578              	.L292:
 2579              		.loc 1 858 0
 2580 0048 019A     		ldr	r2, [sp, #4]
 2581 004a 2B68     		ldr	r3, [r5]
 2582 004c 9A42     		cmp	r2, r3
 2583 004e 3FD1     		bne	.L312
 2584 0050 03B0     		add	sp, sp, #12
 2585              		.cfi_remember_state
 2586              		.cfi_def_cfa_offset 12
 2587              		@ sp needed
 2588 0052 30BD     		pop	{r4, r5, pc}
 2589              	.LVL242:
 2590              	.L297:
 2591              		.cfi_restore_state
 2592              	.LBB478:
 2593              	.LBB479:
 2594              		.loc 1 427 0
 2595 0054 C368     		ldr	r3, [r0, #12]
 2596              	.LBE479:
 2597              	.LBE478:
 2598              		.loc 1 816 0
 2599 0056 0522     		movs	r2, #5
 2600 0058 80F83420 		strb	r2, [r0, #52]
 2601              	.LVL243:
 2602              	.LBB481:
 2603              	.LBB480:
 2604              		.loc 1 427 0
 2605 005c 5B69     		ldr	r3, [r3, #20]
 2606              	.LVL244:
 2607              		.loc 1 429 0
 2608 005e 0021     		movs	r1, #0
 2609              	.LVL245:
 2610 0060 1970     		strb	r1, [r3]
 2611              		.loc 1 430 0
 2612 0062 D960     		str	r1, [r3, #12]
 2613              		.loc 1 432 0
 2614 0064 C3E90111 		strd	r1, r1, [r3, #4]
 2615              		.loc 1 434 0
 2616 0068 FFF7FEFF 		bl	usb_lld_prepare_transmit
 2617              	.LVL246:
 2618              	.LBE480:
 2619              	.LBE481:
 2620              	.LBB482:
 2621              	.LBB483:
 2622              	.LBB484:
ARM GAS  C:\Users\mathi\AppData\Local\Temp\ccXUSDGB.s 			page 47


 2623              	.LBB485:
 2624              	.LBB486:
 2625              	.LBB487:
 2626              	.LBB488:
 2627              		.loc 2 546 0
 2628 006c 2023     		movs	r3, #32
 2629              		.syntax unified
 2630              	@ 546 "../../lib/e-puck2_main-processor/ChibiOS//os/ext/CMSIS/include/core_cmFunc.h" 1
 2631 006e 83F31188 		MSR basepri, r3
 2632              	@ 0 "" 2
 2633              	.LVL247:
 2634              		.thumb
 2635              		.syntax unified
 2636              	.LBE488:
 2637              	.LBE487:
 2638              	.LBE486:
 2639              	.LBE485:
 2640              		.loc 3 389 0
 2641 0072 FFF7FEFF 		bl	_stats_start_measure_crit_isr
 2642              	.LVL248:
 2643              		.loc 3 390 0
 2644 0076 FFF7FEFF 		bl	_dbg_check_lock_from_isr
 2645              	.LVL249:
 2646              	.LBE484:
 2647              	.LBE483:
 2648              	.LBE482:
 2649              	.LBB489:
 2650              	.LBB490:
 2651              		.loc 1 536 0
 2652 007a FFF7FEFF 		bl	chDbgCheckClassI
 2653              	.LVL250:
 2654              		.loc 1 539 0
 2655 007e 2389     		ldrh	r3, [r4, #8]
 2656 0080 13F00101 		ands	r1, r3, #1
 2657 0084 1DD0     		beq	.L313
 2658              	.L299:
 2659              	.LVL251:
 2660              	.LBE490:
 2661              	.LBE489:
 2662              	.LBB492:
 2663              	.LBB493:
 2664              	.LBB494:
 2665              		.loc 3 408 0
 2666 0086 FFF7FEFF 		bl	_dbg_check_unlock_from_isr
 2667              	.LVL252:
 2668              		.loc 3 409 0
 2669 008a FFF7FEFF 		bl	_stats_stop_measure_crit_isr
 2670              	.LVL253:
 2671              	.LBB495:
 2672              	.LBB496:
 2673              	.LBB497:
 2674              	.LBB498:
 2675              		.loc 2 546 0
 2676 008e 0023     		movs	r3, #0
 2677              		.syntax unified
 2678              	@ 546 "../../lib/e-puck2_main-processor/ChibiOS//os/ext/CMSIS/include/core_cmFunc.h" 1
 2679 0090 83F31188 		MSR basepri, r3
ARM GAS  C:\Users\mathi\AppData\Local\Temp\ccXUSDGB.s 			page 48


 2680              	@ 0 "" 2
 2681              	.LVL254:
 2682              		.thumb
 2683              		.syntax unified
 2684 0094 D8E7     		b	.L292
 2685              	.LVL255:
 2686              	.L296:
 2687              	.LBE498:
 2688              	.LBE497:
 2689              	.LBE496:
 2690              	.LBE495:
 2691              	.LBE494:
 2692              	.LBE493:
 2693              	.LBE492:
 2694              		.loc 1 830 0
 2695 0096 C368     		ldr	r3, [r0, #12]
 2696 0098 9B69     		ldr	r3, [r3, #24]
 2697 009a 9B68     		ldr	r3, [r3, #8]
 2698 009c 002B     		cmp	r3, #0
 2699 009e D3D1     		bne	.L292
 2700              		.loc 1 834 0
 2701 00a0 036C     		ldr	r3, [r0, #64]
 2702 00a2 03B1     		cbz	r3, .L301
 2703              		.loc 1 835 0
 2704 00a4 9847     		blx	r3
 2705              	.LVL256:
 2706              	.L301:
 2707              		.loc 1 837 0
 2708 00a6 0023     		movs	r3, #0
 2709 00a8 84F83430 		strb	r3, [r4, #52]
 2710              		.loc 1 838 0
 2711 00ac CCE7     		b	.L292
 2712              	.LVL257:
 2713              	.L293:
 2714              		.loc 1 856 0 discriminator 2
 2715 00ae 019A     		ldr	r2, [sp, #4]
 2716 00b0 2B68     		ldr	r3, [r5]
 2717 00b2 9A42     		cmp	r2, r3
 2718 00b4 0CD1     		bne	.L312
 2719 00b6 0848     		ldr	r0, .L314+4
 2720              	.LVL258:
 2721              		.loc 1 858 0 discriminator 2
 2722 00b8 03B0     		add	sp, sp, #12
 2723              		@ sp needed
 2724 00ba BDE83040 		pop	{r4, r5, lr}
 2725              	.LVL259:
 2726              		.loc 1 856 0 discriminator 2
 2727 00be FFF7FEBF 		b	chSysHalt
 2728              	.LVL260:
 2729              	.L313:
 2730              	.LBB499:
 2731              	.LBB491:
 2732              		.loc 1 543 0
 2733 00c2 43F00103 		orr	r3, r3, #1
 2734 00c6 2381     		strh	r3, [r4, #8]	@ movhi
 2735              		.loc 1 544 0
 2736 00c8 2046     		mov	r0, r4
ARM GAS  C:\Users\mathi\AppData\Local\Temp\ccXUSDGB.s 			page 49


 2737 00ca FFF7FEFF 		bl	usb_lld_start_in
 2738              	.LVL261:
 2739 00ce DAE7     		b	.L299
 2740              	.LVL262:
 2741              	.L312:
 2742              	.LBE491:
 2743              	.LBE499:
 2744              		.loc 1 858 0
 2745 00d0 FFF7FEFF 		bl	__stack_chk_fail
 2746              	.LVL263:
 2747              	.L315:
 2748              		.align	2
 2749              	.L314:
 2750 00d4 00000000 		.word	__stack_chk_guard
 2751 00d8 00000000 		.word	.LANCHOR13
 2752              		.cfi_endproc
 2753              	.LFE276:
 2754              		.size	_usb_ep0out, .-_usb_ep0out
 2755              		.section	.rodata.__func__.10295,"a",%progbits
 2756              		.align	2
 2757              		.set	.LANCHOR0,. + 0
 2758              		.type	__func__.10295, %object
 2759              		.size	__func__.10295, 9
 2760              	__func__.10295:
 2761 0000 75736253 		.ascii	"usbStart\000"
 2761      74617274 
 2761      00
 2762              		.section	.rodata.__func__.10302,"a",%progbits
 2763              		.align	2
 2764              		.set	.LANCHOR2,. + 0
 2765              		.type	__func__.10302, %object
 2766              		.size	__func__.10302, 8
 2767              	__func__.10302:
 2768 0000 75736253 		.ascii	"usbStop\000"
 2768      746F7000 
 2769              		.section	.rodata.__func__.10308,"a",%progbits
 2770              		.align	2
 2771              		.set	.LANCHOR3,. + 0
 2772              		.type	__func__.10308, %object
 2773              		.size	__func__.10308, 17
 2774              	__func__.10308:
 2775 0000 75736249 		.ascii	"usbInitEndpointI\000"
 2775      6E697445 
 2775      6E64706F 
 2775      696E7449 
 2775      00
 2776              		.section	.rodata.__func__.10313,"a",%progbits
 2777              		.align	2
 2778              		.set	.LANCHOR4,. + 0
 2779              		.type	__func__.10313, %object
 2780              		.size	__func__.10313, 21
 2781              	__func__.10313:
 2782 0000 75736244 		.ascii	"usbDisableEndpointsI\000"
 2782      69736162 
 2782      6C65456E 
 2782      64706F69 
 2782      6E747349 
ARM GAS  C:\Users\mathi\AppData\Local\Temp\ccXUSDGB.s 			page 50


 2783              		.section	.rodata.__func__.10349,"a",%progbits
 2784              		.align	2
 2785              		.set	.LANCHOR5,. + 0
 2786              		.type	__func__.10349, %object
 2787              		.size	__func__.10349, 17
 2788              	__func__.10349:
 2789 0000 75736253 		.ascii	"usbStartReceiveI\000"
 2789      74617274 
 2789      52656365 
 2789      69766549 
 2789      00
 2790              		.section	.rodata.__func__.10354,"a",%progbits
 2791              		.align	2
 2792              		.set	.LANCHOR6,. + 0
 2793              		.type	__func__.10354, %object
 2794              		.size	__func__.10354, 18
 2795              	__func__.10354:
 2796 0000 75736253 		.ascii	"usbStartTransmitI\000"
 2796      74617274 
 2796      5472616E 
 2796      736D6974 
 2796      4900
 2797              		.section	.rodata.__func__.10359,"a",%progbits
 2798              		.align	2
 2799              		.set	.LANCHOR7,. + 0
 2800              		.type	__func__.10359, %object
 2801              		.size	__func__.10359, 17
 2802              	__func__.10359:
 2803 0000 75736253 		.ascii	"usbStallReceiveI\000"
 2803      74616C6C 
 2803      52656365 
 2803      69766549 
 2803      00
 2804              		.section	.rodata.__func__.10364,"a",%progbits
 2805              		.align	2
 2806              		.set	.LANCHOR8,. + 0
 2807              		.type	__func__.10364, %object
 2808              		.size	__func__.10364, 18
 2809              	__func__.10364:
 2810 0000 75736253 		.ascii	"usbStallTransmitI\000"
 2810      74616C6C 
 2810      5472616E 
 2810      736D6974 
 2810      4900
 2811              		.section	.rodata.__func__.10388,"a",%progbits
 2812              		.align	2
 2813              		.set	.LANCHOR12,. + 0
 2814              		.type	__func__.10388, %object
 2815              		.size	__func__.10388, 11
 2816              	__func__.10388:
 2817 0000 5F757362 		.ascii	"_usb_ep0in\000"
 2817      5F657030 
 2817      696E00
 2818              		.section	.rodata.__func__.10402,"a",%progbits
 2819              		.align	2
 2820              		.set	.LANCHOR13,. + 0
 2821              		.type	__func__.10402, %object
ARM GAS  C:\Users\mathi\AppData\Local\Temp\ccXUSDGB.s 			page 51


 2822              		.size	__func__.10402, 12
 2823              	__func__.10402:
 2824 0000 5F757362 		.ascii	"_usb_ep0out\000"
 2824      5F657030 
 2824      6F757400 
 2825              		.section	.rodata.__func__.7554,"a",%progbits
 2826              		.align	2
 2827              		.set	.LANCHOR1,. + 0
 2828              		.type	__func__.7554, %object
 2829              		.size	__func__.7554, 12
 2830              	__func__.7554:
 2831 0000 63685379 		.ascii	"chSysUnlock\000"
 2831      73556E6C 
 2831      6F636B00 
 2832              		.section	.rodata.active_status,"a",%progbits
 2833              		.align	2
 2834              		.set	.LANCHOR11,. + 0
 2835              		.type	active_status, %object
 2836              		.size	active_status, 2
 2837              	active_status:
 2838 0000 0000     		.space	2
 2839              		.section	.rodata.halted_status,"a",%progbits
 2840              		.align	2
 2841              		.set	.LANCHOR10,. + 0
 2842              		.type	halted_status, %object
 2843              		.size	halted_status, 2
 2844              	halted_status:
 2845 0000 01       		.byte	1
 2846 0001 00       		.byte	0
 2847              		.section	.rodata.zero_status,"a",%progbits
 2848              		.align	2
 2849              		.set	.LANCHOR9,. + 0
 2850              		.type	zero_status, %object
 2851              		.size	zero_status, 2
 2852              	zero_status:
 2853 0000 0000     		.space	2
 2854              		.text
 2855              	.Letext0:
 2856              		.file 4 "c:\\eclipse_e-puck2\\tools\\gcc-arm-none-eabi-7-2017-q4-major-win32\\lib\\gcc\\arm-none-e
 2857              		.file 5 "c:\\eclipse_e-puck2\\tools\\gcc-arm-none-eabi-7-2017-q4-major-win32\\arm-none-eabi\\inclu
 2858              		.file 6 "c:\\eclipse_e-puck2\\tools\\gcc-arm-none-eabi-7-2017-q4-major-win32\\arm-none-eabi\\inclu
 2859              		.file 7 "c:\\eclipse_e-puck2\\tools\\gcc-arm-none-eabi-7-2017-q4-major-win32\\arm-none-eabi\\inclu
 2860              		.file 8 "c:\\eclipse_e-puck2\\tools\\gcc-arm-none-eabi-7-2017-q4-major-win32\\arm-none-eabi\\inclu
 2861              		.file 9 "c:\\eclipse_e-puck2\\tools\\gcc-arm-none-eabi-7-2017-q4-major-win32\\arm-none-eabi\\inclu
 2862              		.file 10 "../../lib/e-puck2_main-processor/ChibiOS//os/rt/ports/ARMCMx/compilers/GCC/chtypes.h"
 2863              		.file 11 "../../lib/e-puck2_main-processor/ChibiOS//os/rt/include/chsystypes.h"
 2864              		.file 12 "../../lib/e-puck2_main-processor/ChibiOS//os/rt/include/chschd.h"
 2865              		.file 13 "../../lib/e-puck2_main-processor/ChibiOS//os/ext/CMSIS/include/core_cm4.h"
 2866              		.file 14 "../../lib/e-puck2_main-processor/ChibiOS//os/ext/CMSIS/ST/system_stm32f4xx.h"
 2867              		.file 15 "../../lib/e-puck2_main-processor/ChibiOS//os/ext/CMSIS/ST/stm32f407xx.h"
 2868              		.file 16 "../../lib/e-puck2_main-processor/ChibiOS//os/rt/ports/ARMCMx/chcore.h"
 2869              		.file 17 "../../lib/e-puck2_main-processor/ChibiOS//os/rt/ports/ARMCMx/chcore_v7m.h"
 2870              		.file 18 "../../lib/e-puck2_main-processor/ChibiOS//os/rt/include/chdebug.h"
 2871              		.file 19 "../../lib/e-puck2_main-processor/ChibiOS//os/rt/include/chtm.h"
 2872              		.file 20 "../../lib/e-puck2_main-processor/ChibiOS//os/rt/include/chstats.h"
 2873              		.file 21 "../../lib/e-puck2_main-processor/ChibiOS//os/rt/include/chsem.h"
 2874              		.file 22 "../../lib/e-puck2_main-processor/ChibiOS//os/rt/include/chmtx.h"
ARM GAS  C:\Users\mathi\AppData\Local\Temp\ccXUSDGB.s 			page 52


 2875              		.file 23 "../../lib/e-puck2_main-processor/ChibiOS//os/rt/include/chregistry.h"
 2876              		.file 24 "../../lib/e-puck2_main-processor/ChibiOS//os/rt/include/chevents.h"
 2877              		.file 25 "../../lib/e-puck2_main-processor/ChibiOS//os/rt/include/chqueues.h"
 2878              		.file 26 "../../lib/e-puck2_main-processor/ChibiOS//os/hal/ports/STM32/STM32F4xx/stm32_dma.h"
 2879              		.file 27 "../../lib/e-puck2_main-processor/ChibiOS//os/hal/include/hal_ioblock.h"
 2880              		.file 28 "../../lib/e-puck2_main-processor/ChibiOS//os/hal/ports/STM32/LLD/GPIOv2/pal_lld.h"
 2881              		.file 29 "../../lib/e-puck2_main-processor/ChibiOS//os/hal/include/adc.h"
 2882              		.file 30 "../../lib/e-puck2_main-processor/ChibiOS//os/hal/ports/STM32/STM32F4xx/adc_lld.h"
 2883              		.file 31 "../../lib/e-puck2_main-processor/ChibiOS//os/hal/include/can.h"
 2884              		.file 32 "../../lib/e-puck2_main-processor/ChibiOS//os/hal/ports/STM32/LLD/can_lld.h"
 2885              		.file 33 "../../lib/e-puck2_main-processor/ChibiOS//os/hal/include/dac.h"
 2886              		.file 34 "../../lib/e-puck2_main-processor/ChibiOS//os/hal/ports/STM32/LLD/DACv1/dac_lld.h"
 2887              		.file 35 "../../lib/e-puck2_main-processor/ChibiOS//os/hal/include/ext.h"
 2888              		.file 36 "../../lib/e-puck2_main-processor/ChibiOS//os/hal/ports/STM32/LLD/ext_lld.h"
 2889              		.file 37 "../../lib/e-puck2_main-processor/ChibiOS//os/hal/include/gpt.h"
 2890              		.file 38 "../../lib/e-puck2_main-processor/ChibiOS//os/hal/ports/STM32/LLD/TIMv1/gpt_lld.h"
 2891              		.file 39 "../../lib/e-puck2_main-processor/ChibiOS//os/hal/ports/STM32/LLD/TIMv1/stm32_tim.h"
 2892              		.file 40 "../../lib/e-puck2_main-processor/ChibiOS//os/hal/include/i2c.h"
 2893              		.file 41 "../../lib/e-puck2_main-processor/ChibiOS//os/hal/ports/STM32/LLD/I2Cv1/i2c_lld.h"
 2894              		.file 42 "../../lib/e-puck2_main-processor/ChibiOS//os/hal/include/i2s.h"
 2895              		.file 43 "../../lib/e-puck2_main-processor/ChibiOS//os/hal/ports/STM32/LLD/SPIv1/i2s_lld.h"
 2896              		.file 44 "../../lib/e-puck2_main-processor/ChibiOS//os/hal/include/pwm.h"
 2897              		.file 45 "../../lib/e-puck2_main-processor/ChibiOS//os/hal/ports/STM32/LLD/TIMv1/pwm_lld.h"
 2898              		.file 46 "../../lib/e-puck2_main-processor/ChibiOS//os/hal/include/serial.h"
 2899              		.file 47 "../../lib/e-puck2_main-processor/ChibiOS//os/hal/ports/STM32/LLD/USARTv1/serial_lld.h"
 2900              		.file 48 "../../lib/e-puck2_main-processor/ChibiOS//os/hal/include/sdc.h"
 2901              		.file 49 "../../lib/e-puck2_main-processor/ChibiOS//os/hal/ports/STM32/LLD/sdc_lld.h"
 2902              		.file 50 "../../lib/e-puck2_main-processor/ChibiOS//os/hal/include/spi.h"
 2903              		.file 51 "../../lib/e-puck2_main-processor/ChibiOS//os/hal/ports/STM32/LLD/SPIv1/spi_lld.h"
 2904              		.file 52 "../../lib/e-puck2_main-processor/ChibiOS//os/hal/include/usb.h"
 2905              		.file 53 "../../lib/e-puck2_main-processor/ChibiOS//os/hal/ports/STM32/LLD/OTGv1/usb_lld.h"
 2906              		.file 54 "../../lib/e-puck2_main-processor/ChibiOS//os/hal/ports/STM32/LLD/OTGv1/stm32_otg.h"
 2907              		.file 55 "../../lib/e-puck2_main-processor/ChibiOS//os/hal/osal/rt/osal.h"