ARM GAS  C:\Users\mathi\AppData\Local\Temp\ccOm87JI.s 			page 1


   1              		.cpu cortex-m4
   2              		.eabi_attribute 27, 1
   3              		.eabi_attribute 28, 1
   4              		.eabi_attribute 20, 1
   5              		.eabi_attribute 21, 1
   6              		.eabi_attribute 23, 3
   7              		.eabi_attribute 24, 1
   8              		.eabi_attribute 25, 1
   9              		.eabi_attribute 26, 1
  10              		.eabi_attribute 30, 2
  11              		.eabi_attribute 34, 1
  12              		.eabi_attribute 18, 4
  13              		.file	"usb_lld.c"
  14              		.text
  15              	.Ltext0:
  16              		.cfi_sections	.debug_frame
  17              		.section	.text.usb_lld_pump,"ax",%progbits
  18              		.align	1
  19              		.p2align 4,,15
  20              		.global	usb_lld_pump
  21              		.syntax unified
  22              		.thumb
  23              		.thumb_func
  24              		.fpu fpv4-sp-d16
  25              		.type	usb_lld_pump, %function
  26              	usb_lld_pump:
  27              	.LFB292:
  28              		.file 1 "../../lib/e-puck2_main-processor/ChibiOS//os/hal/ports/STM32/LLD/OTGv1/usb_lld.c"
  29              		.loc 1 1294 0
  30              		.cfi_startproc
  31              		@ args = 0, pretend = 0, frame = 32
  32              		@ frame_needed = 0, uses_anonymous_args = 0
  33              	.LVL0:
  34 0000 2DE9F04F 		push	{r4, r5, r6, r7, r8, r9, r10, fp, lr}
  35              		.cfi_def_cfa_offset 36
  36              		.cfi_offset 4, -36
  37              		.cfi_offset 5, -32
  38              		.cfi_offset 6, -28
  39              		.cfi_offset 7, -24
  40              		.cfi_offset 8, -20
  41              		.cfi_offset 9, -16
  42              		.cfi_offset 10, -12
  43              		.cfi_offset 11, -8
  44              		.cfi_offset 14, -4
  45              	.LBB421:
  46              	.LBB422:
  47              		.file 2 "../../lib/e-puck2_main-processor/ChibiOS//os/rt/include/chregistry.h"
  48              		.loc 2 135 0
  49 0004 DFF87CB2 		ldr	fp, .L125+12
  50              	.LBE422:
  51              	.LBE421:
  52              		.loc 1 1294 0
  53 0008 9B4B     		ldr	r3, .L125
  54              	.LBB426:
  55              	.LBB423:
  56              		.loc 2 135 0
  57 000a DBF81820 		ldr	r2, [fp, #24]
ARM GAS  C:\Users\mathi\AppData\Local\Temp\ccOm87JI.s 			page 2


  58              	.LBE423:
  59              	.LBE426:
  60              		.loc 1 1294 0
  61 000e 1B68     		ldr	r3, [r3]
  62              	.LBB427:
  63              	.LBB424:
  64              		.loc 2 135 0
  65 0010 9A49     		ldr	r1, .L125+4
  66              	.LBE424:
  67              	.LBE427:
  68              		.loc 1 1296 0
  69 0012 D0F85090 		ldr	r9, [r0, #80]
  70              	.LBB428:
  71              	.LBB425:
  72              		.loc 2 135 0
  73 0016 9161     		str	r1, [r2, #24]
  74              	.LBE425:
  75              	.LBE428:
  76              		.loc 1 1294 0
  77 0018 89B0     		sub	sp, sp, #36
  78              		.cfi_def_cfa_offset 72
  79              		.loc 1 1294 0
  80 001a 8046     		mov	r8, r0
  81              	.LVL1:
  82 001c 0793     		str	r3, [sp, #28]
  83              	.LBB429:
  84              	.LBB430:
  85              	.LBB431:
  86              	.LBB432:
  87              	.LBB433:
  88              	.LBB434:
  89              		.file 3 "../../lib/e-puck2_main-processor/ChibiOS//os/ext/CMSIS/include/core_cmFunc.h"
  90              		.loc 3 546 0
  91 001e 2023     		movs	r3, #32
  92              		.syntax unified
  93              	@ 546 "../../lib/e-puck2_main-processor/ChibiOS//os/ext/CMSIS/include/core_cmFunc.h" 1
  94 0020 83F31188 		MSR basepri, r3
  95              	@ 0 "" 2
  96              	.LVL2:
  97              		.thumb
  98              		.syntax unified
  99              	.LBE434:
 100              	.LBE433:
 101              	.LBE432:
 102              		.file 4 "../../lib/e-puck2_main-processor/ChibiOS//os/rt/include/chsys.h"
 103              		.loc 4 349 0
 104 0024 FFF7FEFF 		bl	_stats_start_measure_crit_thd
 105              	.LVL3:
 106              		.loc 4 350 0
 107 0028 FFF7FEFF 		bl	_dbg_check_lock
 108              	.LVL4:
 109 002c 08F16003 		add	r3, r8, #96
 110              	.LBE431:
 111              	.LBE430:
 112              	.LBE429:
 113              	.LBB435:
 114              	.LBB436:
ARM GAS  C:\Users\mathi\AppData\Local\Temp\ccOm87JI.s 			page 3


 115              	.LBB437:
 116              	.LBB438:
 117              	.LBB439:
 118              	.LBB440:
 119              	.LBB441:
 120              		.loc 3 546 0
 121 0030 C246     		mov	r10, r8
 122 0032 0593     		str	r3, [sp, #20]
 123 0034 C846     		mov	r8, r9
 124              	.LVL5:
 125              	.L64:
 126              	.LBE441:
 127              	.LBE440:
 128              	.LBE439:
 129              	.LBE438:
 130              	.LBE437:
 131              	.LBE436:
 132              		.loc 1 1307 0
 133 0036 9AF80030 		ldrb	r3, [r10]	@ zero_extendqisi2
 134 003a 012B     		cmp	r3, #1
 135 003c 06D0     		beq	.L2
 136              		.loc 1 1307 0 is_stmt 0 discriminator 1
 137 003e DAF85C30 		ldr	r3, [r10, #92]
 138 0042 63B9     		cbnz	r3, .L3
 139              		.loc 1 1308 0 is_stmt 1
 140 0044 D8F81430 		ldr	r3, [r8, #20]
 141 0048 DA06     		lsls	r2, r3, #27
 142 004a 08D4     		bmi	.L3
 143              	.L2:
 144              		.loc 1 1309 0
 145 004c D8F81830 		ldr	r3, [r8, #24]
 146              	.LBB447:
 147              	.LBB448:
 148              		.file 5 "../../lib/e-puck2_main-processor/ChibiOS//os/hal/osal/rt/osal.h"
 149              		.loc 5 642 0
 150 0050 0598     		ldr	r0, [sp, #20]
 151              	.LBE448:
 152              	.LBE447:
 153              		.loc 1 1309 0
 154 0052 43F01003 		orr	r3, r3, #16
 155 0056 C8F81830 		str	r3, [r8, #24]
 156              	.LBB450:
 157              	.LBB449:
 158              		.loc 5 642 0
 159 005a FFF7FEFF 		bl	chThdSuspendS
 160              	.LVL6:
 161              	.L3:
 162              	.LBE449:
 163              	.LBE450:
 164              	.LBB451:
 165              	.LBB446:
 166              	.LBB445:
 167              		.loc 4 360 0
 168 005e FFF7FEFF 		bl	_dbg_check_unlock
 169              	.LVL7:
 170              		.loc 4 361 0
 171 0062 FFF7FEFF 		bl	_stats_stop_measure_crit_thd
ARM GAS  C:\Users\mathi\AppData\Local\Temp\ccOm87JI.s 			page 4


 172              	.LVL8:
 173              		.loc 4 367 0
 174 0066 DBF80030 		ldr	r3, [fp]
 175 006a 5B45     		cmp	r3, fp
 176 006c 08D0     		beq	.L4
 177 006e DBF81820 		ldr	r2, [fp, #24]
 178 0072 9B68     		ldr	r3, [r3, #8]
 179 0074 9268     		ldr	r2, [r2, #8]
 180 0076 9A42     		cmp	r2, r3
 181 0078 02D2     		bcs	.L4
 182 007a 8148     		ldr	r0, .L125+8
 183 007c FFF7FEFF 		bl	chSysHalt
 184              	.LVL9:
 185              	.L4:
 186              	.LBB444:
 187              	.LBB443:
 188              	.LBB442:
 189              		.loc 3 546 0
 190 0080 0023     		movs	r3, #0
 191              		.syntax unified
 192              	@ 546 "../../lib/e-puck2_main-processor/ChibiOS//os/ext/CMSIS/include/core_cmFunc.h" 1
 193 0082 83F31188 		MSR basepri, r3
 194              	@ 0 "" 2
 195              	.LVL10:
 196              		.thumb
 197              		.syntax unified
 198 0086 1C46     		mov	r4, r3
 199              	.LVL11:
 200              	.L6:
 201              	.LBE442:
 202              	.LBE443:
 203              	.LBE444:
 204              	.LBE445:
 205              	.LBE446:
 206              	.LBE451:
 207              		.loc 1 1318 0
 208 0088 D8F81430 		ldr	r3, [r8, #20]
 209 008c DB06     		lsls	r3, r3, #27
 210 008e 5CD5     		bpl	.L118
 211              	.L30:
 212              	.LVL12:
 213              	.LBB452:
 214              	.LBB453:
 215              		.loc 1 437 0
 216 0090 DAF85010 		ldr	r1, [r10, #80]
 217 0094 0B6A     		ldr	r3, [r1, #32]
 218              	.LVL13:
 219              		.loc 1 438 0
 220 0096 03F4F012 		and	r2, r3, #1966080
 221 009a B2F5802F 		cmp	r2, #262144
 222 009e 24D0     		beq	.L7
 223 00a0 B2F5402F 		cmp	r2, #786432
 224 00a4 F0D1     		bne	.L6
 225              	.LVL14:
 226              		.loc 1 443 0
 227 00a6 03F00F02 		and	r2, r3, #15
 228              	.LVL15:
ARM GAS  C:\Users\mathi\AppData\Local\Temp\ccOm87JI.s 			page 5


 229              		.loc 1 444 0
 230 00aa 0AEB8202 		add	r2, r10, r2, lsl #2
 231              	.LVL16:
 232              		.loc 1 442 0
 233 00ae C3F30A13 		ubfx	r3, r3, #4, #11
 234              	.LVL17:
 235              		.loc 1 444 0
 236 00b2 D268     		ldr	r2, [r2, #12]
 237              	.LBB454:
 238              	.LBB455:
 239              		.loc 1 356 0
 240 00b4 0333     		adds	r3, r3, #3
 241              		.loc 1 358 0
 242 00b6 9B08     		lsrs	r3, r3, #2
 243              	.LBE455:
 244              	.LBE454:
 245              		.loc 1 444 0
 246 00b8 156A     		ldr	r5, [r2, #32]
 247              	.LVL18:
 248              	.LBB460:
 249              	.LBB459:
 250              		.loc 1 358 0
 251 00ba E5D0     		beq	.L6
 252 00bc 01F58051 		add	r1, r1, #4096
 253              	.LVL19:
 254              		.loc 1 357 0
 255 00c0 0222     		movs	r2, #2
 256              	.LVL20:
 257              	.LBB456:
 258              		.loc 1 359 0
 259 00c2 0E68     		ldr	r6, [r1]
 260              	.LVL21:
 261 00c4 581E     		subs	r0, r3, #1
 262              		.loc 1 360 0
 263 00c6 4AB1     		cbz	r2, .L119
 264              	.L11:
 265              		.loc 1 365 0
 266 00c8 0346     		mov	r3, r0
 267              		.loc 1 363 0
 268 00ca 45F8046B 		str	r6, [r5], #4
 269              	.LVL22:
 270              		.loc 1 365 0
 271 00ce 013A     		subs	r2, r2, #1
 272              	.LVL23:
 273              	.LBE456:
 274              		.loc 1 358 0
 275 00d0 002B     		cmp	r3, #0
 276 00d2 D9D0     		beq	.L6
 277              	.LVL24:
 278              	.L117:
 279              	.LBB457:
 280              		.loc 1 359 0
 281 00d4 0E68     		ldr	r6, [r1]
 282              	.LVL25:
 283 00d6 581E     		subs	r0, r3, #1
 284              		.loc 1 360 0
 285 00d8 002A     		cmp	r2, #0
ARM GAS  C:\Users\mathi\AppData\Local\Temp\ccOm87JI.s 			page 6


 286 00da F5D1     		bne	.L11
 287              	.L119:
 288              	.LVL26:
 289              	.LBE457:
 290              		.loc 1 358 0
 291 00dc 0028     		cmp	r0, #0
 292 00de D3D0     		beq	.L6
 293 00e0 023B     		subs	r3, r3, #2
 294              	.LBB458:
 295              		.loc 1 359 0
 296 00e2 0868     		ldr	r0, [r1]
 297              	.LVL27:
 298              	.LBE458:
 299              		.loc 1 358 0
 300 00e4 002B     		cmp	r3, #0
 301 00e6 F5D1     		bne	.L117
 302 00e8 CEE7     		b	.L6
 303              	.LVL28:
 304              	.L7:
 305              	.LBE459:
 306              	.LBE460:
 307              		.loc 1 449 0
 308 00ea 03F00F07 		and	r7, r3, #15
 309 00ee 0AEB8707 		add	r7, r10, r7, lsl #2
 310              		.loc 1 448 0
 311 00f2 C3F30A15 		ubfx	r5, r3, #4, #11
 312              	.LVL29:
 313              		.loc 1 450 0
 314 00f6 FB68     		ldr	r3, [r7, #12]
 315              	.LVL30:
 316 00f8 9869     		ldr	r0, [r3, #24]
 317 00fa 0378     		ldrb	r3, [r0]	@ zero_extendqisi2
 318 00fc C668     		ldr	r6, [r0, #12]
 319 00fe 002B     		cmp	r3, #0
 320 0100 43D1     		bne	.L120
 321              	.LVL31:
 322              	.LBB461:
 323              	.LBB462:
 324              		.loc 1 357 0
 325 0102 D0E90132 		ldrd	r3, r2, [r0, #4]
 326 0106 0333     		adds	r3, r3, #3
 327 0108 9A1A     		subs	r2, r3, r2
 328              		.loc 1 356 0
 329 010a EB1C     		adds	r3, r5, #3
 330              	.LVL32:
 331              		.loc 1 358 0
 332 010c 9B08     		lsrs	r3, r3, #2
 333              		.loc 1 357 0
 334 010e 4FEA9202 		lsr	r2, r2, #2
 335              	.LVL33:
 336              		.loc 1 358 0
 337 0112 0FD0     		beq	.L25
 338 0114 01F58051 		add	r1, r1, #4096
 339              	.LVL34:
 340 0118 8C46     		mov	ip, r1
 341              	.LVL35:
 342              	.L29:
ARM GAS  C:\Users\mathi\AppData\Local\Temp\ccOm87JI.s 			page 7


 343              	.LBB463:
 344              		.loc 1 359 0
 345 011a DCF80010 		ldr	r1, [ip]
 346              	.LVL36:
 347 011e 581E     		subs	r0, r3, #1
 348              		.loc 1 360 0
 349 0120 5AB3     		cbz	r2, .L121
 350              		.loc 1 365 0
 351 0122 0346     		mov	r3, r0
 352              	.LVL37:
 353              		.loc 1 363 0
 354 0124 46F8041B 		str	r1, [r6], #4
 355              	.LVL38:
 356              		.loc 1 365 0
 357 0128 013A     		subs	r2, r2, #1
 358              	.LVL39:
 359              	.LBE463:
 360              		.loc 1 358 0
 361 012a 002B     		cmp	r3, #0
 362 012c F5D1     		bne	.L29
 363              	.LVL40:
 364              	.L114:
 365 012e FB68     		ldr	r3, [r7, #12]
 366 0130 9869     		ldr	r0, [r3, #24]
 367 0132 C668     		ldr	r6, [r0, #12]
 368              	.LVL41:
 369              	.L25:
 370              	.LBE462:
 371              	.LBE461:
 372              		.loc 1 462 0
 373 0134 2E44     		add	r6, r6, r5
 374 0136 C660     		str	r6, [r0, #12]
 375              	.L24:
 376              		.loc 1 464 0
 377 0138 FB68     		ldr	r3, [r7, #12]
 378 013a 9A69     		ldr	r2, [r3, #24]
 379 013c 9368     		ldr	r3, [r2, #8]
 380 013e 2B44     		add	r3, r3, r5
 381 0140 9360     		str	r3, [r2, #8]
 382              	.LBE453:
 383              	.LBE452:
 384              		.loc 1 1318 0
 385 0142 D8F81430 		ldr	r3, [r8, #20]
 386 0146 DB06     		lsls	r3, r3, #27
 387 0148 A2D4     		bmi	.L30
 388              	.LVL42:
 389              	.L118:
 390              		.loc 1 1322 0
 391 014a 0127     		movs	r7, #1
 392              		.loc 1 1323 0
 393 014c DAF85C30 		ldr	r3, [r10, #92]
 394              		.loc 1 1322 0
 395 0150 A740     		lsls	r7, r7, r4
 396              	.LVL43:
 397              		.loc 1 1323 0
 398 0152 1F42     		tst	r7, r3
 399 0154 40F09880 		bne	.L107
ARM GAS  C:\Users\mathi\AppData\Local\Temp\ccOm87JI.s 			page 8


 400 0158 631C     		adds	r3, r4, #1
 401 015a 0293     		str	r3, [sp, #8]
 402              	.LVL44:
 403              	.L31:
 404              		.loc 1 1315 0 discriminator 2
 405 015c DAF85430 		ldr	r3, [r10, #84]
 406 0160 9DF80840 		ldrb	r4, [sp, #8]	@ zero_extendqisi2
 407              	.LVL45:
 408 0164 9B68     		ldr	r3, [r3, #8]
 409 0166 9C42     		cmp	r4, r3
 410 0168 8ED9     		bls	.L6
 411              	.LVL46:
 412              	.LBB488:
 413              	.LBB489:
 414              	.LBB490:
 415              	.LBB491:
 416              	.LBB492:
 417              	.LBB493:
 418              		.loc 3 546 0
 419 016a 2023     		movs	r3, #32
 420              		.syntax unified
 421              	@ 546 "../../lib/e-puck2_main-processor/ChibiOS//os/ext/CMSIS/include/core_cmFunc.h" 1
 422 016c 83F31188 		MSR basepri, r3
 423              	@ 0 "" 2
 424              	.LVL47:
 425              		.thumb
 426              		.syntax unified
 427              	.LBE493:
 428              	.LBE492:
 429              	.LBE491:
 430              		.loc 4 349 0
 431 0170 FFF7FEFF 		bl	_stats_start_measure_crit_thd
 432              	.LVL48:
 433              		.loc 4 350 0
 434 0174 FFF7FEFF 		bl	_dbg_check_lock
 435              	.LVL49:
 436 0178 5DE7     		b	.L64
 437              	.LVL50:
 438              	.L121:
 439              	.LBE490:
 440              	.LBE489:
 441              	.LBE488:
 442              	.LBB494:
 443              	.LBB487:
 444              	.LBB466:
 445              	.LBB465:
 446              		.loc 1 358 0
 447 017a 0028     		cmp	r0, #0
 448 017c D7D0     		beq	.L114
 449 017e 023B     		subs	r3, r3, #2
 450              	.LVL51:
 451              	.LBB464:
 452              		.loc 1 359 0
 453 0180 DCF80010 		ldr	r1, [ip]
 454              	.LVL52:
 455              	.LBE464:
 456              		.loc 1 358 0
ARM GAS  C:\Users\mathi\AppData\Local\Temp\ccOm87JI.s 			page 9


 457 0184 002B     		cmp	r3, #0
 458 0186 C8D1     		bne	.L29
 459 0188 D1E7     		b	.L114
 460              	.LVL53:
 461              	.L120:
 462              	.LBE465:
 463              	.LBE466:
 464              	.LBB467:
 465              	.LBB468:
 466              		.loc 1 386 0
 467 018a 002D     		cmp	r5, #0
 468 018c 4FD0     		beq	.L16
 469 018e 01F58051 		add	r1, r1, #4096
 470              	.LVL54:
 471 0192 2846     		mov	r0, r5
 472              	.LVL55:
 473              	.L15:
 474              	.LBB469:
 475              		.loc 1 390 0
 476 0194 0328     		cmp	r0, #3
 477 0196 D6F814C0 		ldr	ip, [r6, #20]
 478 019a 08D9     		bls	.L17
 479              	.LVL56:
 480              	.L122:
 481              	.LBB470:
 482              		.loc 1 396 0
 483 019c 3369     		ldr	r3, [r6, #16]
 484 019e 6345     		cmp	r3, ip
 485 01a0 05D8     		bhi	.L17
 486              		.loc 1 397 0
 487 01a2 F368     		ldr	r3, [r6, #12]
 488 01a4 7361     		str	r3, [r6, #20]
 489              	.LVL57:
 490              	.LBE470:
 491              		.loc 1 390 0
 492 01a6 0328     		cmp	r0, #3
 493 01a8 D6F814C0 		ldr	ip, [r6, #20]
 494 01ac F6D8     		bhi	.L122
 495              	.LVL58:
 496              	.L17:
 497              		.loc 1 408 0
 498 01ae 0A68     		ldr	r2, [r1]
 499              	.LVL59:
 500              		.loc 1 411 0
 501 01b0 0CF10103 		add	r3, ip, #1
 502 01b4 7361     		str	r3, [r6, #20]
 503 01b6 8CF80020 		strb	r2, [ip]
 504              		.loc 1 412 0
 505 01ba D6E9043C 		ldrd	r3, ip, [r6, #16]
 506 01be 9C45     		cmp	ip, r3
 507              		.loc 1 413 0
 508 01c0 24BF     		itt	cs
 509 01c2 D6F80CC0 		ldrcs	ip, [r6, #12]
 510 01c6 C6F814C0 		strcs	ip, [r6, #20]
 511              	.LVL60:
 512              		.loc 1 410 0
 513 01ca 0128     		cmp	r0, #1
ARM GAS  C:\Users\mathi\AppData\Local\Temp\ccOm87JI.s 			page 10


 514 01cc 2FD0     		beq	.L16
 515              		.loc 1 411 0
 516 01ce 0CF1010E 		add	lr, ip, #1
 517 01d2 130A     		lsrs	r3, r2, #8
 518 01d4 C6F814E0 		str	lr, [r6, #20]
 519 01d8 8CF80030 		strb	r3, [ip]
 520              		.loc 1 412 0
 521 01dc D6E9043C 		ldrd	r3, ip, [r6, #16]
 522 01e0 9C45     		cmp	ip, r3
 523              		.loc 1 413 0
 524 01e2 24BF     		itt	cs
 525 01e4 D6F80CC0 		ldrcs	ip, [r6, #12]
 526 01e8 C6F814C0 		strcs	ip, [r6, #20]
 527              	.LVL61:
 528              		.loc 1 410 0
 529 01ec 0228     		cmp	r0, #2
 530 01ee 1ED0     		beq	.L16
 531              		.loc 1 411 0
 532 01f0 0CF1010E 		add	lr, ip, #1
 533 01f4 130C     		lsrs	r3, r2, #16
 534 01f6 C6F814E0 		str	lr, [r6, #20]
 535 01fa 8CF80030 		strb	r3, [ip]
 536              		.loc 1 412 0
 537 01fe D6E9043C 		ldrd	r3, ip, [r6, #16]
 538 0202 9C45     		cmp	ip, r3
 539              		.loc 1 413 0
 540 0204 24BF     		itt	cs
 541 0206 D6F80CC0 		ldrcs	ip, [r6, #12]
 542 020a C6F814C0 		strcs	ip, [r6, #20]
 543              	.LVL62:
 544              		.loc 1 410 0
 545 020e 0328     		cmp	r0, #3
 546 0210 0DD0     		beq	.L16
 547              	.LVL63:
 548              		.loc 1 411 0
 549 0212 120E     		lsrs	r2, r2, #24
 550              	.LVL64:
 551 0214 0CF10103 		add	r3, ip, #1
 552 0218 7361     		str	r3, [r6, #20]
 553 021a 8CF80020 		strb	r2, [ip]
 554              		.loc 1 412 0
 555 021e D6E90432 		ldrd	r3, r2, [r6, #16]
 556 0222 9A42     		cmp	r2, r3
 557              		.loc 1 413 0
 558 0224 24BF     		itt	cs
 559 0226 F368     		ldrcs	r3, [r6, #12]
 560 0228 7361     		strcs	r3, [r6, #20]
 561              	.LBE469:
 562              		.loc 1 386 0
 563 022a 0438     		subs	r0, r0, #4
 564              	.LVL65:
 565 022c B2D1     		bne	.L15
 566              	.LVL66:
 567              	.L16:
 568              	.LBB471:
 569              	.LBB472:
 570              	.LBB473:
ARM GAS  C:\Users\mathi\AppData\Local\Temp\ccOm87JI.s 			page 11


 571              	.LBB474:
 572              	.LBB475:
 573              	.LBB476:
 574              		.loc 3 546 0
 575 022e 2023     		movs	r3, #32
 576              		.syntax unified
 577              	@ 546 "../../lib/e-puck2_main-processor/ChibiOS//os/ext/CMSIS/include/core_cmFunc.h" 1
 578 0230 83F31188 		MSR basepri, r3
 579              	@ 0 "" 2
 580              	.LVL67:
 581              		.thumb
 582              		.syntax unified
 583              	.LBE476:
 584              	.LBE475:
 585              	.LBE474:
 586              		.loc 4 349 0
 587 0234 FFF7FEFF 		bl	_stats_start_measure_crit_thd
 588              	.LVL68:
 589              		.loc 4 350 0
 590 0238 FFF7FEFF 		bl	_dbg_check_lock
 591              	.LVL69:
 592              	.LBE473:
 593              	.LBE472:
 594              	.LBE471:
 595              		.loc 1 421 0
 596 023c B368     		ldr	r3, [r6, #8]
 597 023e 2B44     		add	r3, r3, r5
 598 0240 B360     		str	r3, [r6, #8]
 599              	.LVL70:
 600              	.LBB477:
 601              	.LBB478:
 602              		.loc 5 764 0
 603 0242 3046     		mov	r0, r6
 604 0244 0021     		movs	r1, #0
 605 0246 FFF7FEFF 		bl	chThdDequeueAllI
 606              	.LVL71:
 607              	.LBE478:
 608              	.LBE477:
 609              	.LBB479:
 610              	.LBB480:
 611              		.loc 5 554 0
 612 024a FFF7FEFF 		bl	chSchRescheduleS
 613              	.LVL72:
 614              	.LBE480:
 615              	.LBE479:
 616              	.LBB481:
 617              	.LBB482:
 618              	.LBB483:
 619              		.loc 4 360 0
 620 024e FFF7FEFF 		bl	_dbg_check_unlock
 621              	.LVL73:
 622              		.loc 4 361 0
 623 0252 FFF7FEFF 		bl	_stats_stop_measure_crit_thd
 624              	.LVL74:
 625              		.loc 4 367 0
 626 0256 DBF80030 		ldr	r3, [fp]
 627 025a 5B45     		cmp	r3, fp
ARM GAS  C:\Users\mathi\AppData\Local\Temp\ccOm87JI.s 			page 12


 628 025c 08D0     		beq	.L23
 629 025e DBF81820 		ldr	r2, [fp, #24]
 630 0262 9B68     		ldr	r3, [r3, #8]
 631 0264 9268     		ldr	r2, [r2, #8]
 632 0266 9A42     		cmp	r2, r3
 633 0268 02D2     		bcs	.L23
 634 026a 0548     		ldr	r0, .L125+8
 635 026c FFF7FEFF 		bl	chSysHalt
 636              	.LVL75:
 637              	.L23:
 638              	.LBB484:
 639              	.LBB485:
 640              	.LBB486:
 641              		.loc 3 546 0
 642 0270 0023     		movs	r3, #0
 643              		.syntax unified
 644              	@ 546 "../../lib/e-puck2_main-processor/ChibiOS//os/ext/CMSIS/include/core_cmFunc.h" 1
 645 0272 83F31188 		MSR basepri, r3
 646              	@ 0 "" 2
 647              	.LVL76:
 648              		.thumb
 649              		.syntax unified
 650 0276 5FE7     		b	.L24
 651              	.L126:
 652              		.align	2
 653              	.L125:
 654 0278 00000000 		.word	__stack_chk_guard
 655 027c 00000000 		.word	.LC0
 656 0280 00000000 		.word	.LANCHOR0
 657 0284 00000000 		.word	ch
 658              	.LVL77:
 659              	.L107:
 660              	.LBE486:
 661              	.LBE485:
 662              	.LBE484:
 663              	.LBE483:
 664              	.LBE482:
 665              	.LBE481:
 666              	.LBE468:
 667              	.LBE467:
 668              	.LBE487:
 669              	.LBE494:
 670              	.LBB495:
 671              	.LBB496:
 672              	.LBB497:
 673              	.LBB498:
 674              	.LBB499:
 675              	.LBB500:
 676              	.LBB501:
 677 0288 2023     		movs	r3, #32
 678              		.syntax unified
 679              	@ 546 "../../lib/e-puck2_main-processor/ChibiOS//os/ext/CMSIS/include/core_cmFunc.h" 1
 680 028a 83F31188 		MSR basepri, r3
 681              	@ 0 "" 2
 682              	.LVL78:
 683              		.thumb
 684              		.syntax unified
ARM GAS  C:\Users\mathi\AppData\Local\Temp\ccOm87JI.s 			page 13


 685              	.LBE501:
 686              	.LBE500:
 687              	.LBE499:
 688              		.loc 4 349 0
 689 028e FFF7FEFF 		bl	_stats_start_measure_crit_thd
 690              	.LVL79:
 691              		.loc 4 350 0
 692 0292 FFF7FEFF 		bl	_dbg_check_lock
 693              	.LVL80:
 694              	.LBE498:
 695              	.LBE497:
 696              	.LBE496:
 697              		.loc 1 1334 0
 698 0296 D8F80830 		ldr	r3, [r8, #8]
 699 029a 23F00103 		bic	r3, r3, #1
 700 029e C8F80830 		str	r3, [r8, #8]
 701              		.loc 1 1335 0
 702 02a2 DAF85C30 		ldr	r3, [r10, #92]
 703 02a6 23EA0703 		bic	r3, r3, r7
 704 02aa CAF85C30 		str	r3, [r10, #92]
 705              	.LBB502:
 706              	.LBB503:
 707              	.LBB504:
 708              		.loc 4 360 0
 709 02ae FFF7FEFF 		bl	_dbg_check_unlock
 710              	.LVL81:
 711              		.loc 4 361 0
 712 02b2 FFF7FEFF 		bl	_stats_stop_measure_crit_thd
 713              	.LVL82:
 714              		.loc 4 367 0
 715 02b6 DBF80030 		ldr	r3, [fp]
 716 02ba 5B45     		cmp	r3, fp
 717 02bc 08D0     		beq	.L32
 718 02be DBF81820 		ldr	r2, [fp, #24]
 719 02c2 9B68     		ldr	r3, [r3, #8]
 720 02c4 9268     		ldr	r2, [r2, #8]
 721 02c6 9A42     		cmp	r2, r3
 722 02c8 02D2     		bcs	.L32
 723 02ca 9548     		ldr	r0, .L127
 724 02cc FFF7FEFF 		bl	chSysHalt
 725              	.LVL83:
 726              	.L32:
 727              	.LBB505:
 728              	.LBB506:
 729              	.LBB507:
 730              		.loc 3 546 0
 731 02d0 0023     		movs	r3, #0
 732              		.syntax unified
 733              	@ 546 "../../lib/e-puck2_main-processor/ChibiOS//os/ext/CMSIS/include/core_cmFunc.h" 1
 734 02d2 83F31188 		MSR basepri, r3
 735              	@ 0 "" 2
 736              	.LVL84:
 737              		.thumb
 738              		.syntax unified
 739 02d6 0AEB8409 		add	r9, r10, r4, lsl #2
 740              	.LBE507:
 741              	.LBE506:
ARM GAS  C:\Users\mathi\AppData\Local\Temp\ccOm87JI.s 			page 14


 742              	.LBE505:
 743              	.LBE504:
 744              	.LBE503:
 745              	.LBE502:
 746              	.LBB508:
 747              	.LBB509:
 748              		.loc 1 488 0
 749 02da D9F80C50 		ldr	r5, [r9, #12]
 750 02de 6B69     		ldr	r3, [r5, #20]
 751 02e0 D3E90121 		ldrd	r2, r1, [r3, #4]
 752 02e4 8A42     		cmp	r2, r1
 753 02e6 40F2FB80 		bls	.L123
 754              		.loc 1 498 0
 755 02ea DAF85000 		ldr	r0, [r10, #80]
 756              		.loc 1 493 0
 757 02ee B5F810E0 		ldrh	lr, [r5, #16]
 758              		.loc 1 498 0
 759 02f2 6601     		lsls	r6, r4, #5
 760 02f4 00EB060C 		add	ip, r0, r6
 761              		.loc 1 492 0
 762 02f8 521A     		subs	r2, r2, r1
 763              	.LVL85:
 764              		.loc 1 498 0
 765 02fa DCF81819 		ldr	r1, [ip, #2328]
 766 02fe 9645     		cmp	lr, r2
 767 0300 7546     		mov	r5, lr
 768 0302 28BF     		it	cs
 769 0304 1546     		movcs	r5, r2
 770              	.LVL86:
 771 0306 8AB2     		uxth	r2, r1
 772 0308 B5EB820F 		cmp	r5, r2, lsl #2
 773 030c 00F2F880 		bhi	.L35
 774 0310 621C     		adds	r2, r4, #1
 775 0312 0292     		str	r2, [sp, #8]
 776 0314 1203     		lsls	r2, r2, #12
 777 0316 CDE90387 		strd	r8, r7, [sp, #12]
 778 031a 0192     		str	r2, [sp, #4]
 779 031c B046     		mov	r8, r6
 780              	.LVL87:
 781              	.L36:
 782 031e 0199     		ldr	r1, [sp, #4]
 783              		.loc 1 505 0
 784 0320 1A78     		ldrb	r2, [r3]	@ zero_extendqisi2
 785 0322 DC68     		ldr	r4, [r3, #12]
 786 0324 0844     		add	r0, r0, r1
 787 0326 002A     		cmp	r2, #0
 788 0328 00F0C180 		beq	.L39
 789              	.LVL88:
 790              	.LBB510:
 791              	.LBB511:
 792              		.loc 1 274 0
 793 032c 05B3     		cbz	r5, .L49
 794 032e 2A46     		mov	r2, r5
 795              	.LVL89:
 796              	.L55:
 797              	.LBB512:
 798              		.loc 1 278 0
ARM GAS  C:\Users\mathi\AppData\Local\Temp\ccOm87JI.s 			page 15


 799 0330 5FEA920C 		lsrs	ip, r2, #2
 800              	.LVL90:
 801 0334 2669     		ldr	r6, [r4, #16]
 802 0336 A369     		ldr	r3, [r4, #24]
 803 0338 00F08980 		beq	.L41
 804              	.LVL91:
 805              	.LBB513:
 806              		.loc 1 280 0
 807 033c F11A     		subs	r1, r6, r3
 808 033e 48BF     		it	mi
 809 0340 0331     		addmi	r1, r1, #3
 810 0342 8F10     		asrs	r7, r1, #2
 811              		.loc 1 282 0
 812 0344 6745     		cmp	r7, ip
 813 0346 28BF     		it	cs
 814 0348 6746     		movcs	r7, ip
 815              	.LVL92:
 816 034a B900     		lsls	r1, r7, #2
 817 034c 521A     		subs	r2, r2, r1
 818              	.LVL93:
 819              	.LBB514:
 820              	.LBB515:
 821              		.loc 1 233 0
 822 034e 002F     		cmp	r7, #0
 823 0350 00F0C080 		beq	.L69
 824 0354 1944     		add	r1, r1, r3
 825              	.LVL94:
 826              	.L44:
 827              		.loc 1 236 0
 828 0356 53F8046B 		ldr	r6, [r3], #4
 829              	.LVL95:
 830 035a 0660     		str	r6, [r0]
 831              	.LVL96:
 832              		.loc 1 233 0
 833 035c 8B42     		cmp	r3, r1
 834 035e FAD1     		bne	.L44
 835 0360 2669     		ldr	r6, [r4, #16]
 836              	.LVL97:
 837              	.L43:
 838              	.LBE515:
 839              	.LBE514:
 840              		.loc 1 283 0
 841 0362 A161     		str	r1, [r4, #24]
 842              		.loc 1 284 0
 843 0364 B142     		cmp	r1, r6
 844 0366 6FD3     		bcc	.L45
 845              		.loc 1 285 0
 846 0368 E368     		ldr	r3, [r4, #12]
 847 036a A361     		str	r3, [r4, #24]
 848              	.LBE513:
 849              	.LBE512:
 850              		.loc 1 274 0
 851 036c 002A     		cmp	r2, #0
 852 036e DFD1     		bne	.L55
 853              	.LVL98:
 854              	.L49:
 855              	.LBB519:
ARM GAS  C:\Users\mathi\AppData\Local\Temp\ccOm87JI.s 			page 16


 856              	.LBB520:
 857              	.LBB521:
 858              	.LBB522:
 859              	.LBB523:
 860              	.LBB524:
 861              		.loc 3 546 0
 862 0370 2023     		movs	r3, #32
 863              		.syntax unified
 864              	@ 546 "../../lib/e-puck2_main-processor/ChibiOS//os/ext/CMSIS/include/core_cmFunc.h" 1
 865 0372 83F31188 		MSR basepri, r3
 866              	@ 0 "" 2
 867              	.LVL99:
 868              		.thumb
 869              		.syntax unified
 870              	.LBE524:
 871              	.LBE523:
 872              	.LBE522:
 873              		.loc 4 349 0
 874 0376 FFF7FEFF 		bl	_stats_start_measure_crit_thd
 875              	.LVL100:
 876              		.loc 4 350 0
 877 037a FFF7FEFF 		bl	_dbg_check_lock
 878              	.LVL101:
 879              	.LBE521:
 880              	.LBE520:
 881              	.LBE519:
 882              		.loc 1 310 0
 883 037e A368     		ldr	r3, [r4, #8]
 884 0380 2B44     		add	r3, r3, r5
 885 0382 A360     		str	r3, [r4, #8]
 886              	.LVL102:
 887              	.LBB525:
 888              	.LBB526:
 889              		.loc 5 764 0
 890 0384 2046     		mov	r0, r4
 891 0386 0021     		movs	r1, #0
 892 0388 FFF7FEFF 		bl	chThdDequeueAllI
 893              	.LVL103:
 894              	.LBE526:
 895              	.LBE525:
 896              	.LBB527:
 897              	.LBB528:
 898              		.loc 5 554 0
 899 038c FFF7FEFF 		bl	chSchRescheduleS
 900              	.LVL104:
 901              	.LBE528:
 902              	.LBE527:
 903              	.LBB529:
 904              	.LBB530:
 905              	.LBB531:
 906              		.loc 4 360 0
 907 0390 FFF7FEFF 		bl	_dbg_check_unlock
 908              	.LVL105:
 909              		.loc 4 361 0
 910 0394 FFF7FEFF 		bl	_stats_stop_measure_crit_thd
 911              	.LVL106:
 912              		.loc 4 367 0
ARM GAS  C:\Users\mathi\AppData\Local\Temp\ccOm87JI.s 			page 17


 913 0398 DBF80030 		ldr	r3, [fp]
 914 039c 5B45     		cmp	r3, fp
 915 039e 08D0     		beq	.L56
 916 03a0 DBF81820 		ldr	r2, [fp, #24]
 917 03a4 9B68     		ldr	r3, [r3, #8]
 918 03a6 9268     		ldr	r2, [r2, #8]
 919 03a8 9A42     		cmp	r2, r3
 920 03aa 02D2     		bcs	.L56
 921 03ac 5C48     		ldr	r0, .L127
 922 03ae FFF7FEFF 		bl	chSysHalt
 923              	.LVL107:
 924              	.L56:
 925              	.LBB532:
 926              	.LBB533:
 927              	.LBB534:
 928              		.loc 3 546 0
 929 03b2 0023     		movs	r3, #0
 930              		.syntax unified
 931              	@ 546 "../../lib/e-puck2_main-processor/ChibiOS//os/ext/CMSIS/include/core_cmFunc.h" 1
 932 03b4 83F31188 		MSR basepri, r3
 933              	@ 0 "" 2
 934              	.LVL108:
 935              		.thumb
 936              		.syntax unified
 937              	.L57:
 938              	.LBE534:
 939              	.LBE533:
 940              	.LBE532:
 941              	.LBE531:
 942              	.LBE530:
 943              	.LBE529:
 944              	.LBE511:
 945              	.LBE510:
 946              		.loc 1 521 0
 947 03b8 D9F80C30 		ldr	r3, [r9, #12]
 948 03bc 5A69     		ldr	r2, [r3, #20]
 949 03be 9368     		ldr	r3, [r2, #8]
 950 03c0 1D44     		add	r5, r5, r3
 951              	.LVL109:
 952 03c2 9560     		str	r5, [r2, #8]
 953              		.loc 1 488 0
 954 03c4 D9F80C40 		ldr	r4, [r9, #12]
 955 03c8 6369     		ldr	r3, [r4, #20]
 956 03ca D3E90121 		ldrd	r2, r1, [r3, #4]
 957 03ce 9142     		cmp	r1, r2
 958 03d0 80F08280 		bcs	.L124
 959              		.loc 1 498 0
 960 03d4 DAF85000 		ldr	r0, [r10, #80]
 961              		.loc 1 493 0
 962 03d8 258A     		ldrh	r5, [r4, #16]
 963              		.loc 1 498 0
 964 03da 00EB0804 		add	r4, r0, r8
 965              		.loc 1 492 0
 966 03de 521A     		subs	r2, r2, r1
 967              	.LVL110:
 968              		.loc 1 498 0
 969 03e0 D4F81819 		ldr	r1, [r4, #2328]
ARM GAS  C:\Users\mathi\AppData\Local\Temp\ccOm87JI.s 			page 18


 970 03e4 9542     		cmp	r5, r2
 971 03e6 28BF     		it	cs
 972 03e8 1546     		movcs	r5, r2
 973              	.LVL111:
 974 03ea 8AB2     		uxth	r2, r1
 975 03ec B5EB820F 		cmp	r5, r2, lsl #2
 976 03f0 95D9     		bls	.L36
 977 03f2 DDE90387 		ldrd	r8, r7, [sp, #12]
 978              		.loc 1 499 0
 979 03f6 0024     		movs	r4, #0
 980              	.LVL112:
 981              	.L38:
 982              	.LBE509:
 983              	.LBE508:
 984              	.LBB546:
 985              	.LBB547:
 986              	.LBB548:
 987              	.LBB549:
 988              	.LBB550:
 989              	.LBB551:
 990              		.loc 3 546 0
 991 03f8 2023     		movs	r3, #32
 992              		.syntax unified
 993              	@ 546 "../../lib/e-puck2_main-processor/ChibiOS//os/ext/CMSIS/include/core_cmFunc.h" 1
 994 03fa 83F31188 		MSR basepri, r3
 995              	@ 0 "" 2
 996              	.LVL113:
 997              		.thumb
 998              		.syntax unified
 999              	.LBE551:
 1000              	.LBE550:
 1001              	.LBE549:
 1002              		.loc 4 349 0
 1003 03fe FFF7FEFF 		bl	_stats_start_measure_crit_thd
 1004              	.LVL114:
 1005              		.loc 4 350 0
 1006 0402 FFF7FEFF 		bl	_dbg_check_lock
 1007              	.LVL115:
 1008              	.LBE548:
 1009              	.LBE547:
 1010              	.LBE546:
 1011              		.loc 1 1341 0
 1012 0406 D8F80830 		ldr	r3, [r8, #8]
 1013 040a 43F00103 		orr	r3, r3, #1
 1014 040e C8F80830 		str	r3, [r8, #8]
 1015              		.loc 1 1342 0
 1016 0412 24B9     		cbnz	r4, .L34
 1017              	.L37:
 1018              		.loc 1 1343 0
 1019 0414 D8F83438 		ldr	r3, [r8, #2100]
 1020 0418 1F43     		orrs	r7, r7, r3
 1021 041a C8F83478 		str	r7, [r8, #2100]
 1022              	.L34:
 1023              	.LBB562:
 1024              	.LBB563:
 1025              	.LBB564:
 1026              		.loc 4 360 0
ARM GAS  C:\Users\mathi\AppData\Local\Temp\ccOm87JI.s 			page 19


 1027 041e FFF7FEFF 		bl	_dbg_check_unlock
 1028              	.LVL116:
 1029              		.loc 4 361 0
 1030 0422 FFF7FEFF 		bl	_stats_stop_measure_crit_thd
 1031              	.LVL117:
 1032              		.loc 4 367 0
 1033 0426 DBF80030 		ldr	r3, [fp]
 1034 042a 5B45     		cmp	r3, fp
 1035 042c 08D0     		beq	.L61
 1036 042e DBF81820 		ldr	r2, [fp, #24]
 1037 0432 9B68     		ldr	r3, [r3, #8]
 1038 0434 9268     		ldr	r2, [r2, #8]
 1039 0436 9A42     		cmp	r2, r3
 1040 0438 02D2     		bcs	.L61
 1041 043a 3948     		ldr	r0, .L127
 1042 043c FFF7FEFF 		bl	chSysHalt
 1043              	.LVL118:
 1044              	.L61:
 1045              	.LBB565:
 1046              	.LBB566:
 1047              	.LBB567:
 1048              		.loc 3 546 0
 1049 0440 0023     		movs	r3, #0
 1050              		.syntax unified
 1051              	@ 546 "../../lib/e-puck2_main-processor/ChibiOS//os/ext/CMSIS/include/core_cmFunc.h" 1
 1052 0442 83F31188 		MSR basepri, r3
 1053              	@ 0 "" 2
 1054              	.LVL119:
 1055              		.thumb
 1056              		.syntax unified
 1057 0446 89E6     		b	.L31
 1058              	.LVL120:
 1059              	.L45:
 1060              	.LBE567:
 1061              	.LBE566:
 1062              	.LBE565:
 1063              	.LBE564:
 1064              	.LBE563:
 1065              	.LBE562:
 1066              	.LBB568:
 1067              	.LBB545:
 1068              	.LBB539:
 1069              	.LBB537:
 1070              	.LBB535:
 1071              		.loc 1 292 0
 1072 0448 002A     		cmp	r2, #0
 1073 044a 91D0     		beq	.L49
 1074 044c 0B46     		mov	r3, r1
 1075              	.LVL121:
 1076              	.L41:
 1077              		.loc 1 299 0
 1078 044e 591C     		adds	r1, r3, #1
 1079              		.loc 1 300 0
 1080 0450 B142     		cmp	r1, r6
 1081              		.loc 1 299 0
 1082 0452 A161     		str	r1, [r4, #24]
 1083              		.loc 1 301 0
ARM GAS  C:\Users\mathi\AppData\Local\Temp\ccOm87JI.s 			page 20


 1084 0454 28BF     		it	cs
 1085 0456 E168     		ldrcs	r1, [r4, #12]
 1086              		.loc 1 299 0
 1087 0458 1B78     		ldrb	r3, [r3]	@ zero_extendqisi2
 1088              	.LVL122:
 1089              		.loc 1 301 0
 1090 045a 28BF     		it	cs
 1091 045c A161     		strcs	r1, [r4, #24]
 1092              	.LVL123:
 1093              		.loc 1 298 0
 1094 045e 012A     		cmp	r2, #1
 1095 0460 36D0     		beq	.L115
 1096              		.loc 1 299 0
 1097 0462 4F1C     		adds	r7, r1, #1
 1098 0464 A761     		str	r7, [r4, #24]
 1099              		.loc 1 300 0
 1100 0466 B742     		cmp	r7, r6
 1101              		.loc 1 299 0
 1102 0468 0978     		ldrb	r1, [r1]	@ zero_extendqisi2
 1103              		.loc 1 301 0
 1104 046a 24BF     		itt	cs
 1105 046c E768     		ldrcs	r7, [r4, #12]
 1106 046e A761     		strcs	r7, [r4, #24]
 1107              		.loc 1 298 0
 1108 0470 022A     		cmp	r2, #2
 1109              		.loc 1 299 0
 1110 0472 43EA0123 		orr	r3, r3, r1, lsl #8
 1111              	.LVL124:
 1112              		.loc 1 298 0
 1113 0476 2BD0     		beq	.L115
 1114              		.loc 1 299 0
 1115 0478 791C     		adds	r1, r7, #1
 1116 047a A161     		str	r1, [r4, #24]
 1117              		.loc 1 300 0
 1118 047c B142     		cmp	r1, r6
 1119              		.loc 1 299 0
 1120 047e 3F78     		ldrb	r7, [r7]	@ zero_extendqisi2
 1121              		.loc 1 301 0
 1122 0480 24BF     		itt	cs
 1123 0482 E168     		ldrcs	r1, [r4, #12]
 1124 0484 A161     		strcs	r1, [r4, #24]
 1125              		.loc 1 298 0
 1126 0486 032A     		cmp	r2, #3
 1127              		.loc 1 299 0
 1128 0488 43EA0743 		orr	r3, r3, r7, lsl #16
 1129              	.LVL125:
 1130              		.loc 1 298 0
 1131 048c 20D0     		beq	.L115
 1132              		.loc 1 299 0
 1133 048e 4F1C     		adds	r7, r1, #1
 1134 0490 A761     		str	r7, [r4, #24]
 1135 0492 0978     		ldrb	r1, [r1]	@ zero_extendqisi2
 1136              		.loc 1 300 0
 1137 0494 B742     		cmp	r7, r6
 1138              		.loc 1 299 0
 1139 0496 43EA0163 		orr	r3, r3, r1, lsl #24
 1140              	.LVL126:
ARM GAS  C:\Users\mathi\AppData\Local\Temp\ccOm87JI.s 			page 21


 1141              		.loc 1 302 0
 1142 049a A2F10402 		sub	r2, r2, #4
 1143              	.LVL127:
 1144              		.loc 1 301 0
 1145 049e 24BF     		itt	cs
 1146 04a0 E168     		ldrcs	r1, [r4, #12]
 1147 04a2 A161     		strcs	r1, [r4, #24]
 1148              		.loc 1 305 0
 1149 04a4 0360     		str	r3, [r0]
 1150              	.LBE535:
 1151              		.loc 1 274 0
 1152 04a6 002A     		cmp	r2, #0
 1153 04a8 7FF442AF 		bne	.L55
 1154 04ac 60E7     		b	.L49
 1155              	.LVL128:
 1156              	.L39:
 1157              	.LBE537:
 1158              	.LBE539:
 1159              	.LBB540:
 1160              	.LBB541:
 1161              		.loc 1 256 0
 1162 04ae EA1C     		adds	r2, r5, #3
 1163              	.LVL129:
 1164              	.LBB542:
 1165              	.LBB543:
 1166              		.loc 1 233 0
 1167 04b0 9208     		lsrs	r2, r2, #2
 1168              	.LVL130:
 1169 04b2 09D0     		beq	.L58
 1170 04b4 04EB8203 		add	r3, r4, r2, lsl #2
 1171              	.LVL131:
 1172              	.L59:
 1173              		.loc 1 236 0
 1174 04b8 54F8042B 		ldr	r2, [r4], #4
 1175              	.LVL132:
 1176 04bc 0260     		str	r2, [r0]
 1177              	.LVL133:
 1178              		.loc 1 233 0
 1179 04be 9C42     		cmp	r4, r3
 1180 04c0 FAD1     		bne	.L59
 1181 04c2 D9F80C30 		ldr	r3, [r9, #12]
 1182 04c6 5B69     		ldr	r3, [r3, #20]
 1183              	.LVL134:
 1184              	.L58:
 1185              	.LBE543:
 1186              	.LBE542:
 1187              	.LBE541:
 1188              	.LBE540:
 1189              		.loc 1 516 0
 1190 04c8 DA68     		ldr	r2, [r3, #12]
 1191 04ca 2A44     		add	r2, r2, r5
 1192 04cc DA60     		str	r2, [r3, #12]
 1193 04ce 73E7     		b	.L57
 1194              	.LVL135:
 1195              	.L115:
 1196              	.LBB544:
 1197              	.LBB538:
ARM GAS  C:\Users\mathi\AppData\Local\Temp\ccOm87JI.s 			page 22


 1198              	.LBB536:
 1199              		.loc 1 305 0
 1200 04d0 0360     		str	r3, [r0]
 1201              	.LVL136:
 1202 04d2 4DE7     		b	.L49
 1203              	.LVL137:
 1204              	.L69:
 1205              	.LBB518:
 1206              	.LBB517:
 1207              	.LBB516:
 1208              		.loc 1 233 0
 1209 04d4 1946     		mov	r1, r3
 1210 04d6 44E7     		b	.L43
 1211              	.LVL138:
 1212              	.L124:
 1213 04d8 DDE90387 		ldrd	r8, r7, [sp, #12]
 1214              	.LBE516:
 1215              	.LBE517:
 1216              	.LBE518:
 1217              	.LBE536:
 1218              	.LBE538:
 1219              	.LBE544:
 1220              		.loc 1 489 0
 1221 04dc 0124     		movs	r4, #1
 1222 04de 8BE7     		b	.L38
 1223              	.LVL139:
 1224              	.L123:
 1225              	.LBE545:
 1226              	.LBE568:
 1227              	.LBB569:
 1228              	.LBB560:
 1229              	.LBB558:
 1230              	.LBB556:
 1231              	.LBB554:
 1232              	.LBB552:
 1233              		.loc 3 546 0
 1234 04e0 2023     		movs	r3, #32
 1235              		.syntax unified
 1236              	@ 546 "../../lib/e-puck2_main-processor/ChibiOS//os/ext/CMSIS/include/core_cmFunc.h" 1
 1237 04e2 83F31188 		MSR basepri, r3
 1238              	@ 0 "" 2
 1239              	.LVL140:
 1240              		.thumb
 1241              		.syntax unified
 1242              	.LBE552:
 1243              	.LBE554:
 1244              	.LBE556:
 1245              		.loc 4 349 0
 1246 04e6 FFF7FEFF 		bl	_stats_start_measure_crit_thd
 1247              	.LVL141:
 1248              		.loc 4 350 0
 1249 04ea FFF7FEFF 		bl	_dbg_check_lock
 1250              	.LVL142:
 1251              	.LBE558:
 1252              	.LBE560:
 1253              	.LBE569:
 1254              		.loc 1 1341 0
ARM GAS  C:\Users\mathi\AppData\Local\Temp\ccOm87JI.s 			page 23


 1255 04ee D8F80830 		ldr	r3, [r8, #8]
 1256 04f2 621C     		adds	r2, r4, #1
 1257 04f4 43F00103 		orr	r3, r3, #1
 1258 04f8 0292     		str	r2, [sp, #8]
 1259 04fa C8F80830 		str	r3, [r8, #8]
 1260 04fe 8EE7     		b	.L34
 1261              	.LVL143:
 1262              	.L35:
 1263              	.LBB570:
 1264              	.LBB561:
 1265              	.LBB559:
 1266              	.LBB557:
 1267              	.LBB555:
 1268              	.LBB553:
 1269              		.loc 3 546 0
 1270 0500 2023     		movs	r3, #32
 1271              		.syntax unified
 1272              	@ 546 "../../lib/e-puck2_main-processor/ChibiOS//os/ext/CMSIS/include/core_cmFunc.h" 1
 1273 0502 83F31188 		MSR basepri, r3
 1274              	@ 0 "" 2
 1275              	.LVL144:
 1276              		.thumb
 1277              		.syntax unified
 1278              	.LBE553:
 1279              	.LBE555:
 1280              	.LBE557:
 1281              		.loc 4 349 0
 1282 0506 FFF7FEFF 		bl	_stats_start_measure_crit_thd
 1283              	.LVL145:
 1284              		.loc 4 350 0
 1285 050a FFF7FEFF 		bl	_dbg_check_lock
 1286              	.LVL146:
 1287              	.LBE559:
 1288              	.LBE561:
 1289              	.LBE570:
 1290              		.loc 1 1341 0
 1291 050e D8F80830 		ldr	r3, [r8, #8]
 1292 0512 621C     		adds	r2, r4, #1
 1293 0514 43F00103 		orr	r3, r3, #1
 1294 0518 0292     		str	r2, [sp, #8]
 1295 051a C8F80830 		str	r3, [r8, #8]
 1296 051e 79E7     		b	.L37
 1297              	.L128:
 1298              		.align	2
 1299              	.L127:
 1300 0520 00000000 		.word	.LANCHOR0
 1301              	.LBE495:
 1302              	.LBE435:
 1303              		.cfi_endproc
 1304              	.LFE292:
 1305              		.size	usb_lld_pump, .-usb_lld_pump
 1306              		.section	.text.Vector14C,"ax",%progbits
 1307              		.align	1
 1308              		.p2align 4,,15
 1309              		.global	Vector14C
 1310              		.syntax unified
 1311              		.thumb
ARM GAS  C:\Users\mathi\AppData\Local\Temp\ccOm87JI.s 			page 24


 1312              		.thumb_func
 1313              		.fpu fpv4-sp-d16
 1314              		.type	Vector14C, %function
 1315              	Vector14C:
 1316              	.LFB273:
 1317              		.loc 1 706 0
 1318              		.cfi_startproc
 1319              		@ args = 0, pretend = 0, frame = 8
 1320              		@ frame_needed = 0, uses_anonymous_args = 0
 1321 0000 2DE9F043 		push	{r4, r5, r6, r7, r8, r9, lr}
 1322              		.cfi_def_cfa_offset 28
 1323              		.cfi_offset 4, -28
 1324              		.cfi_offset 5, -24
 1325              		.cfi_offset 6, -20
 1326              		.cfi_offset 7, -16
 1327              		.cfi_offset 8, -12
 1328              		.cfi_offset 9, -8
 1329              		.cfi_offset 14, -4
 1330 0004 A54F     		ldr	r7, .L331
 1331              	.LBB817:
 1332              	.LBB818:
 1333              		.loc 1 624 0
 1334 0006 A64E     		ldr	r6, .L331+4
 1335              	.LBE818:
 1336              	.LBE817:
 1337              		.loc 1 706 0
 1338 0008 3B68     		ldr	r3, [r7]
 1339 000a 83B0     		sub	sp, sp, #12
 1340              		.cfi_def_cfa_offset 40
 1341              		.loc 1 706 0
 1342 000c 0193     		str	r3, [sp, #4]
 1343              		.loc 1 708 0
 1344 000e FFF7FEFF 		bl	_stats_increase_irq
 1345              	.LVL147:
 1346 0012 FFF7FEFF 		bl	_dbg_check_enter_isr
 1347              	.LVL148:
 1348              	.LBB1127:
 1349              	.LBB1125:
 1350              		.loc 1 624 0
 1351 0016 356D     		ldr	r5, [r6, #80]
 1352              	.LVL149:
 1353              		.loc 1 627 0
 1354 0018 6C69     		ldr	r4, [r5, #20]
 1355              	.LVL150:
 1356              		.loc 1 628 0
 1357 001a AB69     		ldr	r3, [r5, #24]
 1358 001c 1C40     		ands	r4, r4, r3
 1359              	.LVL151:
 1360              		.loc 1 632 0
 1361 001e E204     		lsls	r2, r4, #19
 1362              		.loc 1 629 0
 1363 0020 6C61     		str	r4, [r5, #20]
 1364              		.loc 1 632 0
 1365 0022 4BD4     		bmi	.L307
 1366              	.L131:
 1367              		.loc 1 638 0
 1368 0024 A304     		lsls	r3, r4, #18
ARM GAS  C:\Users\mathi\AppData\Local\Temp\ccOm87JI.s 			page 25


 1369              		.loc 1 639 0
 1370 0026 48BF     		it	mi
 1371 0028 D5F80838 		ldrmi	r3, [r5, #2056]
 1372              		.loc 1 643 0
 1373 002c 2007     		lsls	r0, r4, #28
 1374 002e 04D5     		bpl	.L134
 1375              		.loc 1 644 0
 1376 0030 7368     		ldr	r3, [r6, #4]
 1377 0032 DB68     		ldr	r3, [r3, #12]
 1378 0034 0BB1     		cbz	r3, .L134
 1379 0036 9A48     		ldr	r0, .L331+4
 1380 0038 9847     		blx	r3
 1381              	.LVL152:
 1382              	.L134:
 1383              		.loc 1 648 0
 1384 003a E106     		lsls	r1, r4, #27
 1385 003c 27D4     		bmi	.L308
 1386              	.L135:
 1387              		.loc 1 659 0
 1388 003e 6203     		lsls	r2, r4, #13
 1389              		.loc 1 658 0
 1390 0040 D5F81858 		ldr	r5, [r5, #2072]
 1391              	.LVL153:
 1392              		.loc 1 659 0
 1393 0044 0BD5     		bpl	.L137
 1394              		.loc 1 660 0
 1395 0046 EB07     		lsls	r3, r5, #31
 1396 0048 00F12E81 		bmi	.L309
 1397              	.L139:
 1398              		.loc 1 662 0
 1399 004c AA07     		lsls	r2, r5, #30
 1400 004e 00F16D81 		bmi	.L310
 1401              	.L147:
 1402              		.loc 1 664 0
 1403 0052 6907     		lsls	r1, r5, #29
 1404 0054 00F1AC81 		bmi	.L311
 1405              	.L154:
 1406              		.loc 1 666 0
 1407 0058 2807     		lsls	r0, r5, #28
 1408 005a 00F1DC80 		bmi	.L312
 1409              	.L137:
 1410              		.loc 1 675 0
 1411 005e 2303     		lsls	r3, r4, #12
 1412 0060 09D5     		bpl	.L166
 1413              		.loc 1 676 0
 1414 0062 EC03     		lsls	r4, r5, #15
 1415              	.LVL154:
 1416 0064 5BD4     		bmi	.L313
 1417              	.L168:
 1418              		.loc 1 678 0
 1419 0066 AA03     		lsls	r2, r5, #14
 1420 0068 00F18180 		bmi	.L314
 1421              	.L175:
 1422              		.loc 1 680 0
 1423 006c 6903     		lsls	r1, r5, #13
 1424 006e 00F1A880 		bmi	.L315
 1425              	.L180:
ARM GAS  C:\Users\mathi\AppData\Local\Temp\ccOm87JI.s 			page 26


 1426              		.loc 1 682 0
 1427 0072 2C03     		lsls	r4, r5, #12
 1428 0074 2DD4     		bmi	.L316
 1429              	.LVL155:
 1430              	.L166:
 1431              	.LBE1125:
 1432              	.LBE1127:
 1433              		.loc 1 712 0
 1434 0076 FFF7FEFF 		bl	_dbg_check_leave_isr
 1435              	.LVL156:
 1436 007a 019A     		ldr	r2, [sp, #4]
 1437 007c 3B68     		ldr	r3, [r7]
 1438 007e 9A42     		cmp	r2, r3
 1439 0080 40F07183 		bne	.L317
 1440              		.loc 1 713 0
 1441 0084 03B0     		add	sp, sp, #12
 1442              		.cfi_remember_state
 1443              		.cfi_def_cfa_offset 28
 1444              		@ sp needed
 1445 0086 BDE8F043 		pop	{r4, r5, r6, r7, r8, r9, lr}
 1446              		.cfi_restore 14
 1447              		.cfi_restore 9
 1448              		.cfi_restore 8
 1449              		.cfi_restore 7
 1450              		.cfi_restore 6
 1451              		.cfi_restore 5
 1452              		.cfi_restore 4
 1453              		.cfi_def_cfa_offset 0
 1454              		.loc 1 712 0
 1455 008a FFF7FEBF 		b	_port_irq_epilogue
 1456              	.LVL157:
 1457              	.L308:
 1458              		.cfi_restore_state
 1459              	.LBB1128:
 1460              	.LBB1126:
 1461              	.LBB819:
 1462              	.LBB820:
 1463              	.LBB821:
 1464              	.LBB822:
 1465              	.LBB823:
 1466              	.LBB824:
 1467              	.LBB825:
 1468              		.loc 3 546 0
 1469 008e 2023     		movs	r3, #32
 1470              		.syntax unified
 1471              	@ 546 "../../lib/e-puck2_main-processor/ChibiOS//os/ext/CMSIS/include/core_cmFunc.h" 1
 1472 0090 83F31188 		MSR basepri, r3
 1473              	@ 0 "" 2
 1474              	.LVL158:
 1475              		.thumb
 1476              		.syntax unified
 1477              	.LBE825:
 1478              	.LBE824:
 1479              	.LBE823:
 1480              	.LBE822:
 1481              		.loc 4 389 0
 1482 0094 FFF7FEFF 		bl	_stats_start_measure_crit_isr
ARM GAS  C:\Users\mathi\AppData\Local\Temp\ccOm87JI.s 			page 27


 1483              	.LVL159:
 1484              		.loc 4 390 0
 1485 0098 FFF7FEFF 		bl	_dbg_check_lock_from_isr
 1486              	.LVL160:
 1487              	.LBE821:
 1488              	.LBE820:
 1489              	.LBE819:
 1490              		.loc 1 652 0
 1491 009c AB69     		ldr	r3, [r5, #24]
 1492              	.LBB826:
 1493              	.LBB827:
 1494              		.loc 5 682 0
 1495 009e 8148     		ldr	r0, .L331+8
 1496              	.LBE827:
 1497              	.LBE826:
 1498              		.loc 1 652 0
 1499 00a0 23F01003 		bic	r3, r3, #16
 1500 00a4 AB61     		str	r3, [r5, #24]
 1501              	.LVL161:
 1502              	.LBB829:
 1503              	.LBB828:
 1504              		.loc 5 682 0
 1505 00a6 0021     		movs	r1, #0
 1506 00a8 FFF7FEFF 		bl	chThdResumeI
 1507              	.LVL162:
 1508              	.LBE828:
 1509              	.LBE829:
 1510              	.LBB830:
 1511              	.LBB831:
 1512              	.LBB832:
 1513              		.loc 4 408 0
 1514 00ac FFF7FEFF 		bl	_dbg_check_unlock_from_isr
 1515              	.LVL163:
 1516              		.loc 4 409 0
 1517 00b0 FFF7FEFF 		bl	_stats_stop_measure_crit_isr
 1518              	.LVL164:
 1519              	.LBB833:
 1520              	.LBB834:
 1521              	.LBB835:
 1522              	.LBB836:
 1523              		.loc 3 546 0
 1524 00b4 0023     		movs	r3, #0
 1525              		.syntax unified
 1526              	@ 546 "../../lib/e-puck2_main-processor/ChibiOS//os/ext/CMSIS/include/core_cmFunc.h" 1
 1527 00b6 83F31188 		MSR basepri, r3
 1528              	@ 0 "" 2
 1529              	.LVL165:
 1530              		.thumb
 1531              		.syntax unified
 1532 00ba C0E7     		b	.L135
 1533              	.L307:
 1534              	.LBE836:
 1535              	.LBE835:
 1536              	.LBE834:
 1537              	.LBE833:
 1538              	.LBE832:
 1539              	.LBE831:
ARM GAS  C:\Users\mathi\AppData\Local\Temp\ccOm87JI.s 			page 28


 1540              	.LBE830:
 1541              		.loc 1 633 0
 1542 00bc 3046     		mov	r0, r6
 1543 00be FFF7FEFF 		bl	_usb_reset
 1544              	.LVL166:
 1545              		.loc 1 634 0
 1546 00c2 7368     		ldr	r3, [r6, #4]
 1547 00c4 1B68     		ldr	r3, [r3]
 1548 00c6 002B     		cmp	r3, #0
 1549 00c8 ACD0     		beq	.L131
 1550 00ca 0021     		movs	r1, #0
 1551 00cc 3046     		mov	r0, r6
 1552 00ce 9847     		blx	r3
 1553              	.LVL167:
 1554 00d0 A8E7     		b	.L131
 1555              	.LVL168:
 1556              	.L316:
 1557              	.LBB837:
 1558              	.LBB838:
 1559              		.loc 1 582 0
 1560 00d2 346D     		ldr	r4, [r6, #80]
 1561              	.LVL169:
 1562              		.loc 1 583 0
 1563 00d4 D4F8685B 		ldr	r5, [r4, #2920]
 1564              	.LVL170:
 1565              		.loc 1 586 0
 1566 00d8 C4F8685B 		str	r5, [r4, #2920]
 1567              		.loc 1 588 0
 1568 00dc 2807     		lsls	r0, r5, #28
 1569 00de 08D5     		bpl	.L185
 1570 00e0 D4F81438 		ldr	r3, [r4, #2068]
 1571 00e4 1907     		lsls	r1, r3, #28
 1572 00e6 04D5     		bpl	.L185
 1573              		.loc 1 591 0
 1574 00e8 B369     		ldr	r3, [r6, #24]
 1575 00ea 6D48     		ldr	r0, .L331+4
 1576 00ec 5B68     		ldr	r3, [r3, #4]
 1577 00ee 0321     		movs	r1, #3
 1578 00f0 9847     		blx	r3
 1579              	.LVL171:
 1580              	.L185:
 1581              		.loc 1 594 0
 1582 00f2 EA07     		lsls	r2, r5, #31
 1583 00f4 BFD5     		bpl	.L166
 1584 00f6 D4F81438 		ldr	r3, [r4, #2068]
 1585 00fa DB07     		lsls	r3, r3, #31
 1586 00fc BBD5     		bpl	.L166
 1587              	.LBB839:
 1588              		.loc 1 596 0
 1589 00fe B269     		ldr	r2, [r6, #24]
 1590 0100 9369     		ldr	r3, [r2, #24]
 1591              	.LVL172:
 1592              		.loc 1 598 0
 1593 0102 5868     		ldr	r0, [r3, #4]
 1594 0104 1969     		ldr	r1, [r3, #16]
 1595 0106 8842     		cmp	r0, r1
 1596 0108 C0F01782 		bcc	.L318
ARM GAS  C:\Users\mathi\AppData\Local\Temp\ccOm87JI.s 			page 29


 1597              		.loc 1 611 0
 1598 010c 7389     		ldrh	r3, [r6, #10]
 1599              	.LVL173:
 1600 010e D268     		ldr	r2, [r2, #12]
 1601              	.LVL174:
 1602 0110 6348     		ldr	r0, .L331+4
 1603 0112 23F00803 		bic	r3, r3, #8
 1604 0116 7381     		strh	r3, [r6, #10]	@ movhi
 1605 0118 0321     		movs	r1, #3
 1606 011a 9047     		blx	r2
 1607              	.LVL175:
 1608 011c ABE7     		b	.L166
 1609              	.LVL176:
 1610              	.L313:
 1611              	.LBE839:
 1612              	.LBE838:
 1613              	.LBE837:
 1614              	.LBB858:
 1615              	.LBB859:
 1616              		.loc 1 582 0
 1617 011e 346D     		ldr	r4, [r6, #80]
 1618              	.LVL177:
 1619              		.loc 1 583 0
 1620 0120 D4F8088B 		ldr	r8, [r4, #2824]
 1621              	.LVL178:
 1622              		.loc 1 586 0
 1623 0124 C4F8088B 		str	r8, [r4, #2824]
 1624              		.loc 1 588 0
 1625 0128 18F0080F 		tst	r8, #8
 1626 012c 08D0     		beq	.L169
 1627 012e D4F81438 		ldr	r3, [r4, #2068]
 1628 0132 1807     		lsls	r0, r3, #28
 1629 0134 04D5     		bpl	.L169
 1630              		.loc 1 591 0
 1631 0136 F368     		ldr	r3, [r6, #12]
 1632 0138 5948     		ldr	r0, .L331+4
 1633 013a 5B68     		ldr	r3, [r3, #4]
 1634 013c 0021     		movs	r1, #0
 1635 013e 9847     		blx	r3
 1636              	.LVL179:
 1637              	.L169:
 1638              		.loc 1 594 0
 1639 0140 18F0010F 		tst	r8, #1
 1640 0144 8FD0     		beq	.L168
 1641 0146 D4F81438 		ldr	r3, [r4, #2068]
 1642 014a D907     		lsls	r1, r3, #31
 1643 014c 8BD5     		bpl	.L168
 1644              	.LBB860:
 1645              		.loc 1 596 0
 1646 014e F268     		ldr	r2, [r6, #12]
 1647 0150 9369     		ldr	r3, [r2, #24]
 1648              	.LVL180:
 1649              		.loc 1 598 0
 1650 0152 5868     		ldr	r0, [r3, #4]
 1651 0154 1969     		ldr	r1, [r3, #16]
 1652 0156 8842     		cmp	r0, r1
 1653 0158 C0F0C081 		bcc	.L319
ARM GAS  C:\Users\mathi\AppData\Local\Temp\ccOm87JI.s 			page 30


 1654              		.loc 1 611 0
 1655 015c 7389     		ldrh	r3, [r6, #10]
 1656              	.LVL181:
 1657 015e D268     		ldr	r2, [r2, #12]
 1658              	.LVL182:
 1659 0160 4F48     		ldr	r0, .L331+4
 1660 0162 23F00103 		bic	r3, r3, #1
 1661 0166 7381     		strh	r3, [r6, #10]	@ movhi
 1662 0168 0021     		movs	r1, #0
 1663 016a 9047     		blx	r2
 1664              	.LVL183:
 1665 016c 7BE7     		b	.L168
 1666              	.LVL184:
 1667              	.L314:
 1668              	.LBE860:
 1669              	.LBE859:
 1670              	.LBE858:
 1671              	.LBB879:
 1672              	.LBB880:
 1673              		.loc 1 582 0
 1674 016e 346D     		ldr	r4, [r6, #80]
 1675              	.LVL185:
 1676              		.loc 1 583 0
 1677 0170 D4F8288B 		ldr	r8, [r4, #2856]
 1678              	.LVL186:
 1679              		.loc 1 586 0
 1680 0174 C4F8288B 		str	r8, [r4, #2856]
 1681              		.loc 1 588 0
 1682 0178 18F0080F 		tst	r8, #8
 1683 017c 08D0     		beq	.L176
 1684 017e D4F81438 		ldr	r3, [r4, #2068]
 1685 0182 1B07     		lsls	r3, r3, #28
 1686 0184 04D5     		bpl	.L176
 1687              		.loc 1 591 0
 1688 0186 3369     		ldr	r3, [r6, #16]
 1689 0188 4548     		ldr	r0, .L331+4
 1690 018a 5B68     		ldr	r3, [r3, #4]
 1691 018c 0121     		movs	r1, #1
 1692 018e 9847     		blx	r3
 1693              	.LVL187:
 1694              	.L176:
 1695              		.loc 1 594 0
 1696 0190 18F0010F 		tst	r8, #1
 1697 0194 3FF46AAF 		beq	.L175
 1698 0198 D4F81438 		ldr	r3, [r4, #2068]
 1699 019c D807     		lsls	r0, r3, #31
 1700 019e 7FF565AF 		bpl	.L175
 1701              	.LBB881:
 1702              		.loc 1 596 0
 1703 01a2 3269     		ldr	r2, [r6, #16]
 1704 01a4 9369     		ldr	r3, [r2, #24]
 1705              	.LVL188:
 1706              		.loc 1 598 0
 1707 01a6 5868     		ldr	r0, [r3, #4]
 1708 01a8 1969     		ldr	r1, [r3, #16]
 1709 01aa 8842     		cmp	r0, r1
 1710 01ac C0F06C81 		bcc	.L320
ARM GAS  C:\Users\mathi\AppData\Local\Temp\ccOm87JI.s 			page 31


 1711              		.loc 1 611 0
 1712 01b0 7389     		ldrh	r3, [r6, #10]
 1713              	.LVL189:
 1714 01b2 D268     		ldr	r2, [r2, #12]
 1715              	.LVL190:
 1716 01b4 3A48     		ldr	r0, .L331+4
 1717 01b6 23F00203 		bic	r3, r3, #2
 1718 01ba 7381     		strh	r3, [r6, #10]	@ movhi
 1719 01bc 0121     		movs	r1, #1
 1720 01be 9047     		blx	r2
 1721              	.LVL191:
 1722 01c0 54E7     		b	.L175
 1723              	.LVL192:
 1724              	.L315:
 1725              	.LBE881:
 1726              	.LBE880:
 1727              	.LBE879:
 1728              	.LBB900:
 1729              	.LBB901:
 1730              		.loc 1 582 0
 1731 01c2 346D     		ldr	r4, [r6, #80]
 1732              	.LVL193:
 1733              		.loc 1 583 0
 1734 01c4 D4F8488B 		ldr	r8, [r4, #2888]
 1735              	.LVL194:
 1736              		.loc 1 586 0
 1737 01c8 C4F8488B 		str	r8, [r4, #2888]
 1738              		.loc 1 588 0
 1739 01cc 18F0080F 		tst	r8, #8
 1740 01d0 08D0     		beq	.L181
 1741 01d2 D4F81438 		ldr	r3, [r4, #2068]
 1742 01d6 1A07     		lsls	r2, r3, #28
 1743 01d8 04D5     		bpl	.L181
 1744              		.loc 1 591 0
 1745 01da 7369     		ldr	r3, [r6, #20]
 1746 01dc 3048     		ldr	r0, .L331+4
 1747 01de 5B68     		ldr	r3, [r3, #4]
 1748 01e0 0221     		movs	r1, #2
 1749 01e2 9847     		blx	r3
 1750              	.LVL195:
 1751              	.L181:
 1752              		.loc 1 594 0
 1753 01e4 18F0010F 		tst	r8, #1
 1754 01e8 3FF443AF 		beq	.L180
 1755 01ec D4F81438 		ldr	r3, [r4, #2068]
 1756 01f0 DB07     		lsls	r3, r3, #31
 1757 01f2 7FF53EAF 		bpl	.L180
 1758              	.LBB902:
 1759              		.loc 1 596 0
 1760 01f6 7269     		ldr	r2, [r6, #20]
 1761 01f8 9369     		ldr	r3, [r2, #24]
 1762              	.LVL196:
 1763              		.loc 1 598 0
 1764 01fa 5868     		ldr	r0, [r3, #4]
 1765 01fc 1969     		ldr	r1, [r3, #16]
 1766 01fe 8842     		cmp	r0, r1
 1767 0200 C0F01881 		bcc	.L321
ARM GAS  C:\Users\mathi\AppData\Local\Temp\ccOm87JI.s 			page 32


 1768              		.loc 1 611 0
 1769 0204 7389     		ldrh	r3, [r6, #10]
 1770              	.LVL197:
 1771 0206 D268     		ldr	r2, [r2, #12]
 1772              	.LVL198:
 1773 0208 2548     		ldr	r0, .L331+4
 1774 020a 23F00403 		bic	r3, r3, #4
 1775 020e 7381     		strh	r3, [r6, #10]	@ movhi
 1776 0210 0221     		movs	r1, #2
 1777 0212 9047     		blx	r2
 1778              	.LVL199:
 1779 0214 2DE7     		b	.L180
 1780              	.LVL200:
 1781              	.L312:
 1782              	.LBE902:
 1783              	.LBE901:
 1784              	.LBE900:
 1785              	.LBB921:
 1786              	.LBB922:
 1787              		.loc 1 534 0
 1788 0216 D6F85080 		ldr	r8, [r6, #80]
 1789              	.LVL201:
 1790              		.loc 1 535 0
 1791 021a D8F86899 		ldr	r9, [r8, #2408]
 1792              	.LVL202:
 1793              		.loc 1 537 0
 1794 021e C8F86899 		str	r9, [r8, #2408]
 1795              		.loc 1 542 0
 1796 0222 19F0010F 		tst	r9, #1
 1797 0226 12D0     		beq	.L161
 1798 0228 D8F81038 		ldr	r3, [r8, #2064]
 1799 022c D907     		lsls	r1, r3, #31
 1800 022e 0ED5     		bpl	.L161
 1801              	.LBB923:
 1802              		.loc 1 544 0
 1803 0230 B269     		ldr	r2, [r6, #24]
 1804 0232 5369     		ldr	r3, [r2, #20]
 1805              	.LVL203:
 1806              		.loc 1 546 0
 1807 0234 5868     		ldr	r0, [r3, #4]
 1808 0236 1969     		ldr	r1, [r3, #16]
 1809 0238 8842     		cmp	r0, r1
 1810 023a C0F0A881 		bcc	.L322
 1811              		.loc 1 559 0
 1812 023e 3389     		ldrh	r3, [r6, #8]
 1813              	.LVL204:
 1814 0240 1748     		ldr	r0, .L331+4
 1815 0242 23F00803 		bic	r3, r3, #8
 1816 0246 3381     		strh	r3, [r6, #8]	@ movhi
 1817 0248 9368     		ldr	r3, [r2, #8]
 1818 024a 0321     		movs	r1, #3
 1819 024c 9847     		blx	r3
 1820              	.LVL205:
 1821              	.L161:
 1822              	.LBE923:
 1823              		.loc 1 562 0
 1824 024e 19F0800F 		tst	r9, #128
ARM GAS  C:\Users\mathi\AppData\Local\Temp\ccOm87JI.s 			page 33


 1825 0252 3FF404AF 		beq	.L137
 1826              		.loc 1 563 0
 1827 0256 D8F83438 		ldr	r3, [r8, #2100]
 1828              		.loc 1 562 0
 1829 025a 1A07     		lsls	r2, r3, #28
 1830 025c 7FF5FFAE 		bpl	.L137
 1831              	.LVL206:
 1832              	.LBB945:
 1833              	.LBB946:
 1834              	.LBB947:
 1835              	.LBB948:
 1836              	.LBB949:
 1837              	.LBB950:
 1838              	.LBB951:
 1839              		.loc 3 546 0
 1840 0260 2023     		movs	r3, #32
 1841              		.syntax unified
 1842              	@ 546 "../../lib/e-puck2_main-processor/ChibiOS//os/ext/CMSIS/include/core_cmFunc.h" 1
 1843 0262 83F31188 		MSR basepri, r3
 1844              	@ 0 "" 2
 1845              	.LVL207:
 1846              		.thumb
 1847              		.syntax unified
 1848              	.LBE951:
 1849              	.LBE950:
 1850              	.LBE949:
 1851              	.LBE948:
 1852              		.loc 4 389 0
 1853 0266 FFF7FEFF 		bl	_stats_start_measure_crit_isr
 1854              	.LVL208:
 1855              		.loc 4 390 0
 1856 026a FFF7FEFF 		bl	_dbg_check_lock_from_isr
 1857              	.LVL209:
 1858              	.LBE947:
 1859              	.LBE946:
 1860              	.LBE945:
 1861              		.loc 1 567 0
 1862 026e D8F83428 		ldr	r2, [r8, #2100]
 1863              		.loc 1 566 0
 1864 0272 F36D     		ldr	r3, [r6, #92]
 1865              	.LBB952:
 1866              	.LBB953:
 1867              		.loc 5 682 0
 1868 0274 0B48     		ldr	r0, .L331+8
 1869              	.LBE953:
 1870              	.LBE952:
 1871              		.loc 1 567 0
 1872 0276 22F00802 		bic	r2, r2, #8
 1873              		.loc 1 566 0
 1874 027a 43F00803 		orr	r3, r3, #8
 1875              		.loc 1 567 0
 1876 027e C8F83428 		str	r2, [r8, #2100]
 1877              	.LVL210:
 1878              	.LBB956:
 1879              	.LBB954:
 1880              		.loc 5 682 0
 1881 0282 0021     		movs	r1, #0
ARM GAS  C:\Users\mathi\AppData\Local\Temp\ccOm87JI.s 			page 34


 1882              	.LBE954:
 1883              	.LBE956:
 1884              		.loc 1 566 0
 1885 0284 F365     		str	r3, [r6, #92]
 1886              	.LBB957:
 1887              	.LBB955:
 1888              		.loc 5 682 0
 1889 0286 FFF7FEFF 		bl	chThdResumeI
 1890              	.LVL211:
 1891              	.LBE955:
 1892              	.LBE957:
 1893              	.LBB958:
 1894              	.LBB959:
 1895              	.LBB960:
 1896              		.loc 4 408 0
 1897 028a FFF7FEFF 		bl	_dbg_check_unlock_from_isr
 1898              	.LVL212:
 1899              		.loc 4 409 0
 1900 028e FFF7FEFF 		bl	_stats_stop_measure_crit_isr
 1901              	.LVL213:
 1902              	.LBB961:
 1903              	.LBB962:
 1904              	.LBB963:
 1905              	.LBB964:
 1906              		.loc 3 546 0
 1907 0292 0023     		movs	r3, #0
 1908              		.syntax unified
 1909              	@ 546 "../../lib/e-puck2_main-processor/ChibiOS//os/ext/CMSIS/include/core_cmFunc.h" 1
 1910 0294 83F31188 		MSR basepri, r3
 1911              	@ 0 "" 2
 1912              	.LVL214:
 1913              		.thumb
 1914              		.syntax unified
 1915 0298 E1E6     		b	.L137
 1916              	.L332:
 1917 029a 00BF     		.align	2
 1918              	.L331:
 1919 029c 00000000 		.word	__stack_chk_guard
 1920 02a0 00000000 		.word	.LANCHOR1
 1921 02a4 60000000 		.word	.LANCHOR1+96
 1922              	.LVL215:
 1923              	.L309:
 1924              	.LBE964:
 1925              	.LBE963:
 1926              	.LBE962:
 1927              	.LBE961:
 1928              	.LBE960:
 1929              	.LBE959:
 1930              	.LBE958:
 1931              	.LBE922:
 1932              	.LBE921:
 1933              	.LBB969:
 1934              	.LBB970:
 1935              		.loc 1 534 0
 1936 02a8 D6F85080 		ldr	r8, [r6, #80]
 1937              	.LVL216:
 1938              		.loc 1 535 0
ARM GAS  C:\Users\mathi\AppData\Local\Temp\ccOm87JI.s 			page 35


 1939 02ac D8F80899 		ldr	r9, [r8, #2312]
 1940              	.LVL217:
 1941              		.loc 1 537 0
 1942 02b0 C8F80899 		str	r9, [r8, #2312]
 1943              		.loc 1 542 0
 1944 02b4 19F0010F 		tst	r9, #1
 1945 02b8 12D0     		beq	.L140
 1946 02ba D8F81038 		ldr	r3, [r8, #2064]
 1947 02be D807     		lsls	r0, r3, #31
 1948 02c0 0ED5     		bpl	.L140
 1949              	.LBB971:
 1950              		.loc 1 544 0
 1951 02c2 F268     		ldr	r2, [r6, #12]
 1952 02c4 5369     		ldr	r3, [r2, #20]
 1953              	.LVL218:
 1954              		.loc 1 546 0
 1955 02c6 5868     		ldr	r0, [r3, #4]
 1956 02c8 1969     		ldr	r1, [r3, #16]
 1957 02ca 8842     		cmp	r0, r1
 1958 02cc C0F0FB81 		bcc	.L323
 1959              		.loc 1 559 0
 1960 02d0 3389     		ldrh	r3, [r6, #8]
 1961              	.LVL219:
 1962 02d2 C848     		ldr	r0, .L333
 1963 02d4 23F00103 		bic	r3, r3, #1
 1964 02d8 3381     		strh	r3, [r6, #8]	@ movhi
 1965 02da 9368     		ldr	r3, [r2, #8]
 1966 02dc 0021     		movs	r1, #0
 1967 02de 9847     		blx	r3
 1968              	.LVL220:
 1969              	.L140:
 1970              	.LBE971:
 1971              		.loc 1 562 0
 1972 02e0 19F0800F 		tst	r9, #128
 1973 02e4 3FF4B2AE 		beq	.L139
 1974              		.loc 1 563 0
 1975 02e8 D8F83438 		ldr	r3, [r8, #2100]
 1976              		.loc 1 562 0
 1977 02ec D907     		lsls	r1, r3, #31
 1978 02ee 7FF5ADAE 		bpl	.L139
 1979              	.LVL221:
 1980              	.LBB993:
 1981              	.LBB994:
 1982              	.LBB995:
 1983              	.LBB996:
 1984              	.LBB997:
 1985              	.LBB998:
 1986              	.LBB999:
 1987              		.loc 3 546 0
 1988 02f2 2023     		movs	r3, #32
 1989              		.syntax unified
 1990              	@ 546 "../../lib/e-puck2_main-processor/ChibiOS//os/ext/CMSIS/include/core_cmFunc.h" 1
 1991 02f4 83F31188 		MSR basepri, r3
 1992              	@ 0 "" 2
 1993              	.LVL222:
 1994              		.thumb
 1995              		.syntax unified
ARM GAS  C:\Users\mathi\AppData\Local\Temp\ccOm87JI.s 			page 36


 1996              	.LBE999:
 1997              	.LBE998:
 1998              	.LBE997:
 1999              	.LBE996:
 2000              		.loc 4 389 0
 2001 02f8 FFF7FEFF 		bl	_stats_start_measure_crit_isr
 2002              	.LVL223:
 2003              		.loc 4 390 0
 2004 02fc FFF7FEFF 		bl	_dbg_check_lock_from_isr
 2005              	.LVL224:
 2006              	.LBE995:
 2007              	.LBE994:
 2008              	.LBE993:
 2009              		.loc 1 567 0
 2010 0300 D8F83428 		ldr	r2, [r8, #2100]
 2011              		.loc 1 566 0
 2012 0304 F36D     		ldr	r3, [r6, #92]
 2013              	.LBB1000:
 2014              	.LBB1001:
 2015              		.loc 5 682 0
 2016 0306 BC48     		ldr	r0, .L333+4
 2017              	.LBE1001:
 2018              	.LBE1000:
 2019              		.loc 1 567 0
 2020 0308 22F00102 		bic	r2, r2, #1
 2021              		.loc 1 566 0
 2022 030c 43F00103 		orr	r3, r3, #1
 2023              		.loc 1 567 0
 2024 0310 C8F83428 		str	r2, [r8, #2100]
 2025              	.LVL225:
 2026              	.LBB1004:
 2027              	.LBB1002:
 2028              		.loc 5 682 0
 2029 0314 0021     		movs	r1, #0
 2030              	.LBE1002:
 2031              	.LBE1004:
 2032              		.loc 1 566 0
 2033 0316 F365     		str	r3, [r6, #92]
 2034              	.LBB1005:
 2035              	.LBB1003:
 2036              		.loc 5 682 0
 2037 0318 FFF7FEFF 		bl	chThdResumeI
 2038              	.LVL226:
 2039              	.LBE1003:
 2040              	.LBE1005:
 2041              	.LBB1006:
 2042              	.LBB1007:
 2043              	.LBB1008:
 2044              		.loc 4 408 0
 2045 031c FFF7FEFF 		bl	_dbg_check_unlock_from_isr
 2046              	.LVL227:
 2047              		.loc 4 409 0
 2048 0320 FFF7FEFF 		bl	_stats_stop_measure_crit_isr
 2049              	.LVL228:
 2050              	.LBB1009:
 2051              	.LBB1010:
 2052              	.LBB1011:
ARM GAS  C:\Users\mathi\AppData\Local\Temp\ccOm87JI.s 			page 37


 2053              	.LBB1012:
 2054              		.loc 3 546 0
 2055 0324 0023     		movs	r3, #0
 2056              		.syntax unified
 2057              	@ 546 "../../lib/e-puck2_main-processor/ChibiOS//os/ext/CMSIS/include/core_cmFunc.h" 1
 2058 0326 83F31188 		MSR basepri, r3
 2059              	@ 0 "" 2
 2060              	.LVL229:
 2061              		.thumb
 2062              		.syntax unified
 2063 032a 8FE6     		b	.L139
 2064              	.LVL230:
 2065              	.L310:
 2066              	.LBE1012:
 2067              	.LBE1011:
 2068              	.LBE1010:
 2069              	.LBE1009:
 2070              	.LBE1008:
 2071              	.LBE1007:
 2072              	.LBE1006:
 2073              	.LBE970:
 2074              	.LBE969:
 2075              	.LBB1017:
 2076              	.LBB1018:
 2077              		.loc 1 534 0
 2078 032c D6F85080 		ldr	r8, [r6, #80]
 2079              	.LVL231:
 2080              		.loc 1 535 0
 2081 0330 D8F82899 		ldr	r9, [r8, #2344]
 2082              	.LVL232:
 2083              		.loc 1 537 0
 2084 0334 C8F82899 		str	r9, [r8, #2344]
 2085              		.loc 1 542 0
 2086 0338 19F0010F 		tst	r9, #1
 2087 033c 12D0     		beq	.L148
 2088 033e D8F81038 		ldr	r3, [r8, #2064]
 2089 0342 DB07     		lsls	r3, r3, #31
 2090 0344 0ED5     		bpl	.L148
 2091              	.LBB1019:
 2092              		.loc 1 544 0
 2093 0346 3269     		ldr	r2, [r6, #16]
 2094 0348 5369     		ldr	r3, [r2, #20]
 2095              	.LVL233:
 2096              		.loc 1 546 0
 2097 034a 5868     		ldr	r0, [r3, #4]
 2098 034c 1969     		ldr	r1, [r3, #16]
 2099 034e 8842     		cmp	r0, r1
 2100 0350 C0F08881 		bcc	.L324
 2101              		.loc 1 559 0
 2102 0354 3389     		ldrh	r3, [r6, #8]
 2103              	.LVL234:
 2104 0356 A748     		ldr	r0, .L333
 2105 0358 23F00203 		bic	r3, r3, #2
 2106 035c 3381     		strh	r3, [r6, #8]	@ movhi
 2107 035e 9368     		ldr	r3, [r2, #8]
 2108 0360 0121     		movs	r1, #1
 2109 0362 9847     		blx	r3
ARM GAS  C:\Users\mathi\AppData\Local\Temp\ccOm87JI.s 			page 38


 2110              	.LVL235:
 2111              	.L148:
 2112              	.LBE1019:
 2113              		.loc 1 562 0
 2114 0364 19F0800F 		tst	r9, #128
 2115 0368 3FF473AE 		beq	.L147
 2116              		.loc 1 563 0
 2117 036c D8F83438 		ldr	r3, [r8, #2100]
 2118              		.loc 1 562 0
 2119 0370 9807     		lsls	r0, r3, #30
 2120 0372 7FF56EAE 		bpl	.L147
 2121              	.LVL236:
 2122              	.LBB1041:
 2123              	.LBB1042:
 2124              	.LBB1043:
 2125              	.LBB1044:
 2126              	.LBB1045:
 2127              	.LBB1046:
 2128              	.LBB1047:
 2129              		.loc 3 546 0
 2130 0376 2023     		movs	r3, #32
 2131              		.syntax unified
 2132              	@ 546 "../../lib/e-puck2_main-processor/ChibiOS//os/ext/CMSIS/include/core_cmFunc.h" 1
 2133 0378 83F31188 		MSR basepri, r3
 2134              	@ 0 "" 2
 2135              	.LVL237:
 2136              		.thumb
 2137              		.syntax unified
 2138              	.LBE1047:
 2139              	.LBE1046:
 2140              	.LBE1045:
 2141              	.LBE1044:
 2142              		.loc 4 389 0
 2143 037c FFF7FEFF 		bl	_stats_start_measure_crit_isr
 2144              	.LVL238:
 2145              		.loc 4 390 0
 2146 0380 FFF7FEFF 		bl	_dbg_check_lock_from_isr
 2147              	.LVL239:
 2148              	.LBE1043:
 2149              	.LBE1042:
 2150              	.LBE1041:
 2151              		.loc 1 567 0
 2152 0384 D8F83428 		ldr	r2, [r8, #2100]
 2153              		.loc 1 566 0
 2154 0388 F36D     		ldr	r3, [r6, #92]
 2155              	.LBB1048:
 2156              	.LBB1049:
 2157              		.loc 5 682 0
 2158 038a 9B48     		ldr	r0, .L333+4
 2159              	.LBE1049:
 2160              	.LBE1048:
 2161              		.loc 1 567 0
 2162 038c 22F00202 		bic	r2, r2, #2
 2163              		.loc 1 566 0
 2164 0390 43F00203 		orr	r3, r3, #2
 2165              		.loc 1 567 0
 2166 0394 C8F83428 		str	r2, [r8, #2100]
ARM GAS  C:\Users\mathi\AppData\Local\Temp\ccOm87JI.s 			page 39


 2167              	.LVL240:
 2168              	.LBB1052:
 2169              	.LBB1050:
 2170              		.loc 5 682 0
 2171 0398 0021     		movs	r1, #0
 2172              	.LBE1050:
 2173              	.LBE1052:
 2174              		.loc 1 566 0
 2175 039a F365     		str	r3, [r6, #92]
 2176              	.LBB1053:
 2177              	.LBB1051:
 2178              		.loc 5 682 0
 2179 039c FFF7FEFF 		bl	chThdResumeI
 2180              	.LVL241:
 2181              	.LBE1051:
 2182              	.LBE1053:
 2183              	.LBB1054:
 2184              	.LBB1055:
 2185              	.LBB1056:
 2186              		.loc 4 408 0
 2187 03a0 FFF7FEFF 		bl	_dbg_check_unlock_from_isr
 2188              	.LVL242:
 2189              		.loc 4 409 0
 2190 03a4 FFF7FEFF 		bl	_stats_stop_measure_crit_isr
 2191              	.LVL243:
 2192              	.LBB1057:
 2193              	.LBB1058:
 2194              	.LBB1059:
 2195              	.LBB1060:
 2196              		.loc 3 546 0
 2197 03a8 0023     		movs	r3, #0
 2198              		.syntax unified
 2199              	@ 546 "../../lib/e-puck2_main-processor/ChibiOS//os/ext/CMSIS/include/core_cmFunc.h" 1
 2200 03aa 83F31188 		MSR basepri, r3
 2201              	@ 0 "" 2
 2202              	.LVL244:
 2203              		.thumb
 2204              		.syntax unified
 2205 03ae 50E6     		b	.L147
 2206              	.LVL245:
 2207              	.L311:
 2208              	.LBE1060:
 2209              	.LBE1059:
 2210              	.LBE1058:
 2211              	.LBE1057:
 2212              	.LBE1056:
 2213              	.LBE1055:
 2214              	.LBE1054:
 2215              	.LBE1018:
 2216              	.LBE1017:
 2217              	.LBB1065:
 2218              	.LBB1066:
 2219              		.loc 1 534 0
 2220 03b0 D6F85080 		ldr	r8, [r6, #80]
 2221              	.LVL246:
 2222              		.loc 1 535 0
 2223 03b4 D8F84899 		ldr	r9, [r8, #2376]
ARM GAS  C:\Users\mathi\AppData\Local\Temp\ccOm87JI.s 			page 40


 2224              	.LVL247:
 2225              		.loc 1 537 0
 2226 03b8 C8F84899 		str	r9, [r8, #2376]
 2227              		.loc 1 542 0
 2228 03bc 19F0010F 		tst	r9, #1
 2229 03c0 12D0     		beq	.L155
 2230 03c2 D8F81038 		ldr	r3, [r8, #2064]
 2231 03c6 DA07     		lsls	r2, r3, #31
 2232 03c8 0ED5     		bpl	.L155
 2233              	.LBB1067:
 2234              		.loc 1 544 0
 2235 03ca 7269     		ldr	r2, [r6, #20]
 2236 03cc 5369     		ldr	r3, [r2, #20]
 2237              	.LVL248:
 2238              		.loc 1 546 0
 2239 03ce 5868     		ldr	r0, [r3, #4]
 2240 03d0 1969     		ldr	r1, [r3, #16]
 2241 03d2 8842     		cmp	r0, r1
 2242 03d4 C0F01481 		bcc	.L325
 2243              		.loc 1 559 0
 2244 03d8 3389     		ldrh	r3, [r6, #8]
 2245              	.LVL249:
 2246 03da 8648     		ldr	r0, .L333
 2247 03dc 23F00403 		bic	r3, r3, #4
 2248 03e0 3381     		strh	r3, [r6, #8]	@ movhi
 2249 03e2 9368     		ldr	r3, [r2, #8]
 2250 03e4 0221     		movs	r1, #2
 2251 03e6 9847     		blx	r3
 2252              	.LVL250:
 2253              	.L155:
 2254              	.LBE1067:
 2255              		.loc 1 562 0
 2256 03e8 19F0800F 		tst	r9, #128
 2257 03ec 3FF434AE 		beq	.L154
 2258              		.loc 1 563 0
 2259 03f0 D8F83438 		ldr	r3, [r8, #2100]
 2260              		.loc 1 562 0
 2261 03f4 5B07     		lsls	r3, r3, #29
 2262 03f6 7FF52FAE 		bpl	.L154
 2263              	.LVL251:
 2264              	.LBB1089:
 2265              	.LBB1090:
 2266              	.LBB1091:
 2267              	.LBB1092:
 2268              	.LBB1093:
 2269              	.LBB1094:
 2270              	.LBB1095:
 2271              		.loc 3 546 0
 2272 03fa 2023     		movs	r3, #32
 2273              		.syntax unified
 2274              	@ 546 "../../lib/e-puck2_main-processor/ChibiOS//os/ext/CMSIS/include/core_cmFunc.h" 1
 2275 03fc 83F31188 		MSR basepri, r3
 2276              	@ 0 "" 2
 2277              	.LVL252:
 2278              		.thumb
 2279              		.syntax unified
 2280              	.LBE1095:
ARM GAS  C:\Users\mathi\AppData\Local\Temp\ccOm87JI.s 			page 41


 2281              	.LBE1094:
 2282              	.LBE1093:
 2283              	.LBE1092:
 2284              		.loc 4 389 0
 2285 0400 FFF7FEFF 		bl	_stats_start_measure_crit_isr
 2286              	.LVL253:
 2287              		.loc 4 390 0
 2288 0404 FFF7FEFF 		bl	_dbg_check_lock_from_isr
 2289              	.LVL254:
 2290              	.LBE1091:
 2291              	.LBE1090:
 2292              	.LBE1089:
 2293              		.loc 1 567 0
 2294 0408 D8F83428 		ldr	r2, [r8, #2100]
 2295              		.loc 1 566 0
 2296 040c F36D     		ldr	r3, [r6, #92]
 2297              	.LBB1096:
 2298              	.LBB1097:
 2299              		.loc 5 682 0
 2300 040e 7A48     		ldr	r0, .L333+4
 2301              	.LBE1097:
 2302              	.LBE1096:
 2303              		.loc 1 567 0
 2304 0410 22F00402 		bic	r2, r2, #4
 2305              		.loc 1 566 0
 2306 0414 43F00403 		orr	r3, r3, #4
 2307              		.loc 1 567 0
 2308 0418 C8F83428 		str	r2, [r8, #2100]
 2309              	.LVL255:
 2310              	.LBB1100:
 2311              	.LBB1098:
 2312              		.loc 5 682 0
 2313 041c 0021     		movs	r1, #0
 2314              	.LBE1098:
 2315              	.LBE1100:
 2316              		.loc 1 566 0
 2317 041e F365     		str	r3, [r6, #92]
 2318              	.LBB1101:
 2319              	.LBB1099:
 2320              		.loc 5 682 0
 2321 0420 FFF7FEFF 		bl	chThdResumeI
 2322              	.LVL256:
 2323              	.LBE1099:
 2324              	.LBE1101:
 2325              	.LBB1102:
 2326              	.LBB1103:
 2327              	.LBB1104:
 2328              		.loc 4 408 0
 2329 0424 FFF7FEFF 		bl	_dbg_check_unlock_from_isr
 2330              	.LVL257:
 2331              		.loc 4 409 0
 2332 0428 FFF7FEFF 		bl	_stats_stop_measure_crit_isr
 2333              	.LVL258:
 2334              	.LBB1105:
 2335              	.LBB1106:
 2336              	.LBB1107:
 2337              	.LBB1108:
ARM GAS  C:\Users\mathi\AppData\Local\Temp\ccOm87JI.s 			page 42


 2338              		.loc 3 546 0
 2339 042c 0023     		movs	r3, #0
 2340              		.syntax unified
 2341              	@ 546 "../../lib/e-puck2_main-processor/ChibiOS//os/ext/CMSIS/include/core_cmFunc.h" 1
 2342 042e 83F31188 		MSR basepri, r3
 2343              	@ 0 "" 2
 2344              	.LVL259:
 2345              		.thumb
 2346              		.syntax unified
 2347 0432 11E6     		b	.L154
 2348              	.LVL260:
 2349              	.L321:
 2350              	.LBE1108:
 2351              	.LBE1107:
 2352              	.LBE1106:
 2353              	.LBE1105:
 2354              	.LBE1104:
 2355              	.LBE1103:
 2356              	.LBE1102:
 2357              	.LBE1066:
 2358              	.LBE1065:
 2359              	.LBB1113:
 2360              	.LBB920:
 2361              	.LBB919:
 2362              		.loc 1 602 0
 2363 0434 091A     		subs	r1, r1, r0
 2364              		.loc 1 603 0
 2365 0436 0024     		movs	r4, #0
 2366              	.LVL261:
 2367 0438 C3E90114 		strd	r1, r4, [r3, #4]
 2368              	.LVL262:
 2369              	.LBB903:
 2370              	.LBB904:
 2371              		.loc 1 1161 0
 2372 043c 7369     		ldr	r3, [r6, #20]
 2373              	.LVL263:
 2374 043e 9A69     		ldr	r2, [r3, #24]
 2375              	.LVL264:
 2376              		.loc 1 1164 0
 2377 0440 5368     		ldr	r3, [r2, #4]
 2378 0442 1361     		str	r3, [r2, #16]
 2379              		.loc 1 1168 0
 2380 0444 7269     		ldr	r2, [r6, #20]
 2381              	.LVL265:
 2382              		.loc 1 1170 0
 2383 0446 316D     		ldr	r1, [r6, #80]
 2384              		.loc 1 1168 0
 2385 0448 508A     		ldrh	r0, [r2, #18]
 2386              	.LVL266:
 2387 044a 1A18     		adds	r2, r3, r0
 2388              		.loc 1 1170 0
 2389 044c 43F0C043 		orr	r3, r3, #1610612736
 2390              	.LVL267:
 2391              		.loc 1 1168 0
 2392 0450 013A     		subs	r2, r2, #1
 2393 0452 B2FBF0F2 		udiv	r2, r2, r0
 2394              	.LVL268:
ARM GAS  C:\Users\mathi\AppData\Local\Temp\ccOm87JI.s 			page 43


 2395              		.loc 1 1170 0
 2396 0456 43EAC243 		orr	r3, r3, r2, lsl #19
 2397 045a C1F8503B 		str	r3, [r1, #2896]
 2398              	.LVL269:
 2399              	.LBE904:
 2400              	.LBE903:
 2401              	.LBB905:
 2402              	.LBB906:
 2403              	.LBB907:
 2404              	.LBB908:
 2405              	.LBB909:
 2406              	.LBB910:
 2407              		.loc 3 546 0
 2408 045e 2023     		movs	r3, #32
 2409              		.syntax unified
 2410              	@ 546 "../../lib/e-puck2_main-processor/ChibiOS//os/ext/CMSIS/include/core_cmFunc.h" 1
 2411 0460 83F31188 		MSR basepri, r3
 2412              	@ 0 "" 2
 2413              	.LVL270:
 2414              		.thumb
 2415              		.syntax unified
 2416              	.LBE910:
 2417              	.LBE909:
 2418              	.LBE908:
 2419              	.LBE907:
 2420              		.loc 4 389 0
 2421 0464 FFF7FEFF 		bl	_stats_start_measure_crit_isr
 2422              	.LVL271:
 2423              		.loc 4 390 0
 2424 0468 FFF7FEFF 		bl	_dbg_check_lock_from_isr
 2425              	.LVL272:
 2426              	.LBE906:
 2427              	.LBE905:
 2428              	.LBB911:
 2429              	.LBB912:
 2430              		.loc 1 1214 0
 2431 046c 326D     		ldr	r2, [r6, #80]
 2432 046e D2F8403B 		ldr	r3, [r2, #2880]
 2433 0472 43F08063 		orr	r3, r3, #67108864
 2434 0476 C2F8403B 		str	r3, [r2, #2880]
 2435              	.LVL273:
 2436              	.LBE912:
 2437              	.LBE911:
 2438              	.LBB913:
 2439              	.LBB914:
 2440              		.loc 4 408 0
 2441 047a FFF7FEFF 		bl	_dbg_check_unlock_from_isr
 2442              	.LVL274:
 2443              		.loc 4 409 0
 2444 047e FFF7FEFF 		bl	_stats_stop_measure_crit_isr
 2445              	.LVL275:
 2446              	.LBB915:
 2447              	.LBB916:
 2448              	.LBB917:
 2449              	.LBB918:
 2450              		.loc 3 546 0
 2451              		.syntax unified
ARM GAS  C:\Users\mathi\AppData\Local\Temp\ccOm87JI.s 			page 44


 2452              	@ 546 "../../lib/e-puck2_main-processor/ChibiOS//os/ext/CMSIS/include/core_cmFunc.h" 1
 2453 0482 84F31188 		MSR basepri, r4
 2454              	@ 0 "" 2
 2455              	.LVL276:
 2456              		.thumb
 2457              		.syntax unified
 2458 0486 F4E5     		b	.L180
 2459              	.LVL277:
 2460              	.L320:
 2461              	.LBE918:
 2462              	.LBE917:
 2463              	.LBE916:
 2464              	.LBE915:
 2465              	.LBE914:
 2466              	.LBE913:
 2467              	.LBE919:
 2468              	.LBE920:
 2469              	.LBE1113:
 2470              	.LBB1114:
 2471              	.LBB899:
 2472              	.LBB898:
 2473              		.loc 1 602 0
 2474 0488 091A     		subs	r1, r1, r0
 2475              		.loc 1 603 0
 2476 048a 0024     		movs	r4, #0
 2477              	.LVL278:
 2478 048c C3E90114 		strd	r1, r4, [r3, #4]
 2479              	.LVL279:
 2480              	.LBB882:
 2481              	.LBB883:
 2482              		.loc 1 1161 0
 2483 0490 3369     		ldr	r3, [r6, #16]
 2484              	.LVL280:
 2485 0492 9A69     		ldr	r2, [r3, #24]
 2486              	.LVL281:
 2487              		.loc 1 1164 0
 2488 0494 5368     		ldr	r3, [r2, #4]
 2489 0496 1361     		str	r3, [r2, #16]
 2490              		.loc 1 1168 0
 2491 0498 3269     		ldr	r2, [r6, #16]
 2492              	.LVL282:
 2493              		.loc 1 1170 0
 2494 049a 316D     		ldr	r1, [r6, #80]
 2495              		.loc 1 1168 0
 2496 049c 508A     		ldrh	r0, [r2, #18]
 2497              	.LVL283:
 2498 049e 1A18     		adds	r2, r3, r0
 2499              		.loc 1 1170 0
 2500 04a0 43F0C043 		orr	r3, r3, #1610612736
 2501              	.LVL284:
 2502              		.loc 1 1168 0
 2503 04a4 013A     		subs	r2, r2, #1
 2504 04a6 B2FBF0F2 		udiv	r2, r2, r0
 2505              	.LVL285:
 2506              		.loc 1 1170 0
 2507 04aa 43EAC243 		orr	r3, r3, r2, lsl #19
 2508 04ae C1F8303B 		str	r3, [r1, #2864]
ARM GAS  C:\Users\mathi\AppData\Local\Temp\ccOm87JI.s 			page 45


 2509              	.LVL286:
 2510              	.LBE883:
 2511              	.LBE882:
 2512              	.LBB884:
 2513              	.LBB885:
 2514              	.LBB886:
 2515              	.LBB887:
 2516              	.LBB888:
 2517              	.LBB889:
 2518              		.loc 3 546 0
 2519 04b2 2023     		movs	r3, #32
 2520              		.syntax unified
 2521              	@ 546 "../../lib/e-puck2_main-processor/ChibiOS//os/ext/CMSIS/include/core_cmFunc.h" 1
 2522 04b4 83F31188 		MSR basepri, r3
 2523              	@ 0 "" 2
 2524              	.LVL287:
 2525              		.thumb
 2526              		.syntax unified
 2527              	.LBE889:
 2528              	.LBE888:
 2529              	.LBE887:
 2530              	.LBE886:
 2531              		.loc 4 389 0
 2532 04b8 FFF7FEFF 		bl	_stats_start_measure_crit_isr
 2533              	.LVL288:
 2534              		.loc 4 390 0
 2535 04bc FFF7FEFF 		bl	_dbg_check_lock_from_isr
 2536              	.LVL289:
 2537              	.LBE885:
 2538              	.LBE884:
 2539              	.LBB890:
 2540              	.LBB891:
 2541              		.loc 1 1214 0
 2542 04c0 326D     		ldr	r2, [r6, #80]
 2543 04c2 D2F8203B 		ldr	r3, [r2, #2848]
 2544 04c6 43F08063 		orr	r3, r3, #67108864
 2545 04ca C2F8203B 		str	r3, [r2, #2848]
 2546              	.LVL290:
 2547              	.LBE891:
 2548              	.LBE890:
 2549              	.LBB892:
 2550              	.LBB893:
 2551              		.loc 4 408 0
 2552 04ce FFF7FEFF 		bl	_dbg_check_unlock_from_isr
 2553              	.LVL291:
 2554              		.loc 4 409 0
 2555 04d2 FFF7FEFF 		bl	_stats_stop_measure_crit_isr
 2556              	.LVL292:
 2557              	.LBB894:
 2558              	.LBB895:
 2559              	.LBB896:
 2560              	.LBB897:
 2561              		.loc 3 546 0
 2562              		.syntax unified
 2563              	@ 546 "../../lib/e-puck2_main-processor/ChibiOS//os/ext/CMSIS/include/core_cmFunc.h" 1
 2564 04d6 84F31188 		MSR basepri, r4
 2565              	@ 0 "" 2
ARM GAS  C:\Users\mathi\AppData\Local\Temp\ccOm87JI.s 			page 46


 2566              	.LVL293:
 2567              		.thumb
 2568              		.syntax unified
 2569 04da C7E5     		b	.L175
 2570              	.LVL294:
 2571              	.L319:
 2572              	.LBE897:
 2573              	.LBE896:
 2574              	.LBE895:
 2575              	.LBE894:
 2576              	.LBE893:
 2577              	.LBE892:
 2578              	.LBE898:
 2579              	.LBE899:
 2580              	.LBE1114:
 2581              	.LBB1115:
 2582              	.LBB878:
 2583              	.LBB877:
 2584              		.loc 1 602 0
 2585 04dc 091A     		subs	r1, r1, r0
 2586              		.loc 1 603 0
 2587 04de 0022     		movs	r2, #0
 2588 04e0 C3E90112 		strd	r1, r2, [r3, #4]
 2589              	.LVL295:
 2590              	.LBB861:
 2591              	.LBB862:
 2592              		.loc 1 1161 0
 2593 04e4 F268     		ldr	r2, [r6, #12]
 2594 04e6 9169     		ldr	r1, [r2, #24]
 2595              	.LVL296:
 2596              		.loc 1 1164 0
 2597 04e8 4B68     		ldr	r3, [r1, #4]
 2598              	.LVL297:
 2599 04ea 0B61     		str	r3, [r1, #16]
 2600              		.loc 1 1165 0
 2601 04ec 402B     		cmp	r3, #64
 2602 04ee 40F21F81 		bls	.L326
 2603              		.loc 1 1166 0
 2604 04f2 4023     		movs	r3, #64
 2605 04f4 4B60     		str	r3, [r1, #4]
 2606 04f6 F268     		ldr	r2, [r6, #12]
 2607 04f8 4049     		ldr	r1, .L333+8
 2608              	.LVL298:
 2609              	.L173:
 2610              		.loc 1 1168 0
 2611 04fa 508A     		ldrh	r0, [r2, #18]
 2612              	.LVL299:
 2613              		.loc 1 1170 0
 2614 04fc 326D     		ldr	r2, [r6, #80]
 2615              		.loc 1 1168 0
 2616 04fe 013B     		subs	r3, r3, #1
 2617              	.LVL300:
 2618 0500 0344     		add	r3, r3, r0
 2619              	.LVL301:
 2620 0502 B3FBF0F3 		udiv	r3, r3, r0
 2621              		.loc 1 1170 0
 2622 0506 41EAC343 		orr	r3, r1, r3, lsl #19
ARM GAS  C:\Users\mathi\AppData\Local\Temp\ccOm87JI.s 			page 47


 2623 050a C2F8103B 		str	r3, [r2, #2832]
 2624              	.LVL302:
 2625              	.LBE862:
 2626              	.LBE861:
 2627              	.LBB863:
 2628              	.LBB864:
 2629              	.LBB865:
 2630              	.LBB866:
 2631              	.LBB867:
 2632              	.LBB868:
 2633              		.loc 3 546 0
 2634 050e 2023     		movs	r3, #32
 2635              		.syntax unified
 2636              	@ 546 "../../lib/e-puck2_main-processor/ChibiOS//os/ext/CMSIS/include/core_cmFunc.h" 1
 2637 0510 83F31188 		MSR basepri, r3
 2638              	@ 0 "" 2
 2639              	.LVL303:
 2640              		.thumb
 2641              		.syntax unified
 2642              	.LBE868:
 2643              	.LBE867:
 2644              	.LBE866:
 2645              	.LBE865:
 2646              		.loc 4 389 0
 2647 0514 FFF7FEFF 		bl	_stats_start_measure_crit_isr
 2648              	.LVL304:
 2649              		.loc 4 390 0
 2650 0518 FFF7FEFF 		bl	_dbg_check_lock_from_isr
 2651              	.LVL305:
 2652              	.LBE864:
 2653              	.LBE863:
 2654              	.LBB869:
 2655              	.LBB870:
 2656              		.loc 1 1214 0
 2657 051c 326D     		ldr	r2, [r6, #80]
 2658 051e D2F8003B 		ldr	r3, [r2, #2816]
 2659 0522 43F08063 		orr	r3, r3, #67108864
 2660 0526 C2F8003B 		str	r3, [r2, #2816]
 2661              	.LVL306:
 2662              	.LBE870:
 2663              	.LBE869:
 2664              	.LBB871:
 2665              	.LBB872:
 2666              		.loc 4 408 0
 2667 052a FFF7FEFF 		bl	_dbg_check_unlock_from_isr
 2668              	.LVL307:
 2669              		.loc 4 409 0
 2670 052e FFF7FEFF 		bl	_stats_stop_measure_crit_isr
 2671              	.LVL308:
 2672              	.LBB873:
 2673              	.LBB874:
 2674              	.LBB875:
 2675              	.LBB876:
 2676              		.loc 3 546 0
 2677 0532 0023     		movs	r3, #0
 2678              		.syntax unified
 2679              	@ 546 "../../lib/e-puck2_main-processor/ChibiOS//os/ext/CMSIS/include/core_cmFunc.h" 1
ARM GAS  C:\Users\mathi\AppData\Local\Temp\ccOm87JI.s 			page 48


 2680 0534 83F31188 		MSR basepri, r3
 2681              	@ 0 "" 2
 2682              	.LVL309:
 2683              		.thumb
 2684              		.syntax unified
 2685 0538 95E5     		b	.L168
 2686              	.LVL310:
 2687              	.L318:
 2688              	.LBE876:
 2689              	.LBE875:
 2690              	.LBE874:
 2691              	.LBE873:
 2692              	.LBE872:
 2693              	.LBE871:
 2694              	.LBE877:
 2695              	.LBE878:
 2696              	.LBE1115:
 2697              	.LBB1116:
 2698              	.LBB857:
 2699              	.LBB856:
 2700              		.loc 1 602 0
 2701 053a 091A     		subs	r1, r1, r0
 2702              		.loc 1 603 0
 2703 053c 0024     		movs	r4, #0
 2704              	.LVL311:
 2705 053e C3E90114 		strd	r1, r4, [r3, #4]
 2706              	.LVL312:
 2707              	.LBB840:
 2708              	.LBB841:
 2709              		.loc 1 1161 0
 2710 0542 B369     		ldr	r3, [r6, #24]
 2711              	.LVL313:
 2712 0544 9A69     		ldr	r2, [r3, #24]
 2713              	.LVL314:
 2714              		.loc 1 1164 0
 2715 0546 5368     		ldr	r3, [r2, #4]
 2716 0548 1361     		str	r3, [r2, #16]
 2717              		.loc 1 1168 0
 2718 054a B269     		ldr	r2, [r6, #24]
 2719              	.LVL315:
 2720              		.loc 1 1170 0
 2721 054c 316D     		ldr	r1, [r6, #80]
 2722              		.loc 1 1168 0
 2723 054e 508A     		ldrh	r0, [r2, #18]
 2724              	.LVL316:
 2725 0550 1A18     		adds	r2, r3, r0
 2726              		.loc 1 1170 0
 2727 0552 43F0C043 		orr	r3, r3, #1610612736
 2728              	.LVL317:
 2729              		.loc 1 1168 0
 2730 0556 013A     		subs	r2, r2, #1
 2731 0558 B2FBF0F2 		udiv	r2, r2, r0
 2732              	.LVL318:
 2733              		.loc 1 1170 0
 2734 055c 43EAC243 		orr	r3, r3, r2, lsl #19
 2735 0560 C1F8703B 		str	r3, [r1, #2928]
 2736              	.LVL319:
ARM GAS  C:\Users\mathi\AppData\Local\Temp\ccOm87JI.s 			page 49


 2737              	.LBE841:
 2738              	.LBE840:
 2739              	.LBB842:
 2740              	.LBB843:
 2741              	.LBB844:
 2742              	.LBB845:
 2743              	.LBB846:
 2744              	.LBB847:
 2745              		.loc 3 546 0
 2746 0564 2023     		movs	r3, #32
 2747              		.syntax unified
 2748              	@ 546 "../../lib/e-puck2_main-processor/ChibiOS//os/ext/CMSIS/include/core_cmFunc.h" 1
 2749 0566 83F31188 		MSR basepri, r3
 2750              	@ 0 "" 2
 2751              	.LVL320:
 2752              		.thumb
 2753              		.syntax unified
 2754              	.LBE847:
 2755              	.LBE846:
 2756              	.LBE845:
 2757              	.LBE844:
 2758              		.loc 4 389 0
 2759 056a FFF7FEFF 		bl	_stats_start_measure_crit_isr
 2760              	.LVL321:
 2761              		.loc 4 390 0
 2762 056e FFF7FEFF 		bl	_dbg_check_lock_from_isr
 2763              	.LVL322:
 2764              	.LBE843:
 2765              	.LBE842:
 2766              	.LBB848:
 2767              	.LBB849:
 2768              		.loc 1 1214 0
 2769 0572 326D     		ldr	r2, [r6, #80]
 2770 0574 D2F8603B 		ldr	r3, [r2, #2912]
 2771 0578 43F08063 		orr	r3, r3, #67108864
 2772 057c C2F8603B 		str	r3, [r2, #2912]
 2773              	.LVL323:
 2774              	.LBE849:
 2775              	.LBE848:
 2776              	.LBB850:
 2777              	.LBB851:
 2778              		.loc 4 408 0
 2779 0580 FFF7FEFF 		bl	_dbg_check_unlock_from_isr
 2780              	.LVL324:
 2781              		.loc 4 409 0
 2782 0584 FFF7FEFF 		bl	_stats_stop_measure_crit_isr
 2783              	.LVL325:
 2784              	.LBB852:
 2785              	.LBB853:
 2786              	.LBB854:
 2787              	.LBB855:
 2788              		.loc 3 546 0
 2789              		.syntax unified
 2790              	@ 546 "../../lib/e-puck2_main-processor/ChibiOS//os/ext/CMSIS/include/core_cmFunc.h" 1
 2791 0588 84F31188 		MSR basepri, r4
 2792              	@ 0 "" 2
 2793              	.LVL326:
ARM GAS  C:\Users\mathi\AppData\Local\Temp\ccOm87JI.s 			page 50


 2794              		.thumb
 2795              		.syntax unified
 2796 058c 73E5     		b	.L166
 2797              	.LVL327:
 2798              	.L322:
 2799              	.LBE855:
 2800              	.LBE854:
 2801              	.LBE853:
 2802              	.LBE852:
 2803              	.LBE851:
 2804              	.LBE850:
 2805              	.LBE856:
 2806              	.LBE857:
 2807              	.LBE1116:
 2808              	.LBB1117:
 2809              	.LBB967:
 2810              	.LBB965:
 2811              		.loc 1 550 0
 2812 058e 091A     		subs	r1, r1, r0
 2813              		.loc 1 551 0
 2814 0590 0022     		movs	r2, #0
 2815 0592 C3E90112 		strd	r1, r2, [r3, #4]
 2816              	.LVL328:
 2817              	.LBB924:
 2818              	.LBB925:
 2819              		.loc 1 1184 0
 2820 0596 B369     		ldr	r3, [r6, #24]
 2821              	.LVL329:
 2822 0598 5B69     		ldr	r3, [r3, #20]
 2823              	.LVL330:
 2824              		.loc 1 1187 0
 2825 059a 5968     		ldr	r1, [r3, #4]
 2826 059c 1961     		str	r1, [r3, #16]
 2827              		.loc 1 1188 0
 2828 059e 0029     		cmp	r1, #0
 2829 05a0 00F0C980 		beq	.L327
 2830              	.LBB926:
 2831              		.loc 1 1197 0
 2832 05a4 B269     		ldr	r2, [r6, #24]
 2833              		.loc 1 1199 0
 2834 05a6 336D     		ldr	r3, [r6, #80]
 2835              	.LVL331:
 2836              		.loc 1 1197 0
 2837 05a8 108A     		ldrh	r0, [r2, #16]
 2838              	.LVL332:
 2839 05aa 0A18     		adds	r2, r1, r0
 2840 05ac 013A     		subs	r2, r2, #1
 2841 05ae B2FBF0F2 		udiv	r2, r2, r0
 2842              	.LVL333:
 2843              		.loc 1 1199 0
 2844 05b2 41EAC241 		orr	r1, r1, r2, lsl #19
 2845 05b6 C3F87019 		str	r1, [r3, #2416]
 2846              	.LVL334:
 2847              	.L164:
 2848              	.LBE926:
 2849              	.LBE925:
 2850              	.LBE924:
ARM GAS  C:\Users\mathi\AppData\Local\Temp\ccOm87JI.s 			page 51


 2851              	.LBB928:
 2852              	.LBB929:
 2853              	.LBB930:
 2854              	.LBB931:
 2855              	.LBB932:
 2856              	.LBB933:
 2857              	.LBB934:
 2858              		.loc 3 546 0
 2859 05ba 2023     		movs	r3, #32
 2860              		.syntax unified
 2861              	@ 546 "../../lib/e-puck2_main-processor/ChibiOS//os/ext/CMSIS/include/core_cmFunc.h" 1
 2862 05bc 83F31188 		MSR basepri, r3
 2863              	@ 0 "" 2
 2864              	.LVL335:
 2865              		.thumb
 2866              		.syntax unified
 2867              	.LBE934:
 2868              	.LBE933:
 2869              	.LBE932:
 2870              	.LBE931:
 2871              		.loc 4 389 0
 2872 05c0 FFF7FEFF 		bl	_stats_start_measure_crit_isr
 2873              	.LVL336:
 2874              		.loc 4 390 0
 2875 05c4 FFF7FEFF 		bl	_dbg_check_lock_from_isr
 2876              	.LVL337:
 2877              	.LBE930:
 2878              	.LBE929:
 2879              	.LBE928:
 2880              	.LBB935:
 2881              	.LBB936:
 2882              		.loc 1 1227 0
 2883 05c8 336D     		ldr	r3, [r6, #80]
 2884 05ca D3F86029 		ldr	r2, [r3, #2400]
 2885 05ce 42F00442 		orr	r2, r2, #-2080374784
 2886 05d2 C3F86029 		str	r2, [r3, #2400]
 2887              		.loc 1 1228 0
 2888 05d6 D3F83428 		ldr	r2, [r3, #2100]
 2889 05da 42F00802 		orr	r2, r2, #8
 2890 05de C3F83428 		str	r2, [r3, #2100]
 2891              	.LVL338:
 2892              	.LBE936:
 2893              	.LBE935:
 2894              	.LBB937:
 2895              	.LBB938:
 2896              	.LBB939:
 2897              		.loc 4 408 0
 2898 05e2 FFF7FEFF 		bl	_dbg_check_unlock_from_isr
 2899              	.LVL339:
 2900              		.loc 4 409 0
 2901 05e6 FFF7FEFF 		bl	_stats_stop_measure_crit_isr
 2902              	.LVL340:
 2903              	.LBB940:
 2904              	.LBB941:
 2905              	.LBB942:
 2906              	.LBB943:
 2907              		.loc 3 546 0
ARM GAS  C:\Users\mathi\AppData\Local\Temp\ccOm87JI.s 			page 52


 2908 05ea 0023     		movs	r3, #0
 2909              		.syntax unified
 2910              	@ 546 "../../lib/e-puck2_main-processor/ChibiOS//os/ext/CMSIS/include/core_cmFunc.h" 1
 2911 05ec 83F31188 		MSR basepri, r3
 2912              	@ 0 "" 2
 2913              	.LVL341:
 2914              		.thumb
 2915              		.syntax unified
 2916 05f0 2DE6     		b	.L161
 2917              	.L334:
 2918 05f2 00BF     		.align	2
 2919              	.L333:
 2920 05f4 00000000 		.word	.LANCHOR1
 2921 05f8 60000000 		.word	.LANCHOR1+96
 2922 05fc 40000060 		.word	1610612800
 2923              	.LVL342:
 2924              	.L325:
 2925              	.LBE943:
 2926              	.LBE942:
 2927              	.LBE941:
 2928              	.LBE940:
 2929              	.LBE939:
 2930              	.LBE938:
 2931              	.LBE937:
 2932              	.LBE965:
 2933              	.LBE967:
 2934              	.LBE1117:
 2935              	.LBB1118:
 2936              	.LBB1111:
 2937              	.LBB1109:
 2938              		.loc 1 550 0
 2939 0600 091A     		subs	r1, r1, r0
 2940              		.loc 1 551 0
 2941 0602 0022     		movs	r2, #0
 2942 0604 C3E90112 		strd	r1, r2, [r3, #4]
 2943              	.LVL343:
 2944              	.LBB1068:
 2945              	.LBB1069:
 2946              		.loc 1 1184 0
 2947 0608 7369     		ldr	r3, [r6, #20]
 2948              	.LVL344:
 2949 060a 5B69     		ldr	r3, [r3, #20]
 2950              	.LVL345:
 2951              		.loc 1 1187 0
 2952 060c 5968     		ldr	r1, [r3, #4]
 2953 060e 1961     		str	r1, [r3, #16]
 2954              		.loc 1 1188 0
 2955 0610 0029     		cmp	r1, #0
 2956 0612 00F09680 		beq	.L328
 2957              	.LBB1070:
 2958              		.loc 1 1197 0
 2959 0616 7269     		ldr	r2, [r6, #20]
 2960              		.loc 1 1199 0
 2961 0618 336D     		ldr	r3, [r6, #80]
 2962              	.LVL346:
 2963              		.loc 1 1197 0
 2964 061a 108A     		ldrh	r0, [r2, #16]
ARM GAS  C:\Users\mathi\AppData\Local\Temp\ccOm87JI.s 			page 53


 2965              	.LVL347:
 2966 061c 0A18     		adds	r2, r1, r0
 2967 061e 013A     		subs	r2, r2, #1
 2968 0620 B2FBF0F2 		udiv	r2, r2, r0
 2969              	.LVL348:
 2970              		.loc 1 1199 0
 2971 0624 41EAC241 		orr	r1, r1, r2, lsl #19
 2972 0628 C3F85019 		str	r1, [r3, #2384]
 2973              	.LVL349:
 2974              	.L158:
 2975              	.LBE1070:
 2976              	.LBE1069:
 2977              	.LBE1068:
 2978              	.LBB1072:
 2979              	.LBB1073:
 2980              	.LBB1074:
 2981              	.LBB1075:
 2982              	.LBB1076:
 2983              	.LBB1077:
 2984              	.LBB1078:
 2985              		.loc 3 546 0
 2986 062c 2023     		movs	r3, #32
 2987              		.syntax unified
 2988              	@ 546 "../../lib/e-puck2_main-processor/ChibiOS//os/ext/CMSIS/include/core_cmFunc.h" 1
 2989 062e 83F31188 		MSR basepri, r3
 2990              	@ 0 "" 2
 2991              	.LVL350:
 2992              		.thumb
 2993              		.syntax unified
 2994              	.LBE1078:
 2995              	.LBE1077:
 2996              	.LBE1076:
 2997              	.LBE1075:
 2998              		.loc 4 389 0
 2999 0632 FFF7FEFF 		bl	_stats_start_measure_crit_isr
 3000              	.LVL351:
 3001              		.loc 4 390 0
 3002 0636 FFF7FEFF 		bl	_dbg_check_lock_from_isr
 3003              	.LVL352:
 3004              	.LBE1074:
 3005              	.LBE1073:
 3006              	.LBE1072:
 3007              	.LBB1079:
 3008              	.LBB1080:
 3009              		.loc 1 1227 0
 3010 063a 336D     		ldr	r3, [r6, #80]
 3011 063c D3F84029 		ldr	r2, [r3, #2368]
 3012 0640 42F00442 		orr	r2, r2, #-2080374784
 3013 0644 C3F84029 		str	r2, [r3, #2368]
 3014              		.loc 1 1228 0
 3015 0648 D3F83428 		ldr	r2, [r3, #2100]
 3016 064c 42F00402 		orr	r2, r2, #4
 3017 0650 C3F83428 		str	r2, [r3, #2100]
 3018              	.LVL353:
 3019              	.LBE1080:
 3020              	.LBE1079:
 3021              	.LBB1081:
ARM GAS  C:\Users\mathi\AppData\Local\Temp\ccOm87JI.s 			page 54


 3022              	.LBB1082:
 3023              	.LBB1083:
 3024              		.loc 4 408 0
 3025 0654 FFF7FEFF 		bl	_dbg_check_unlock_from_isr
 3026              	.LVL354:
 3027              		.loc 4 409 0
 3028 0658 FFF7FEFF 		bl	_stats_stop_measure_crit_isr
 3029              	.LVL355:
 3030              	.LBB1084:
 3031              	.LBB1085:
 3032              	.LBB1086:
 3033              	.LBB1087:
 3034              		.loc 3 546 0
 3035 065c 0023     		movs	r3, #0
 3036              		.syntax unified
 3037              	@ 546 "../../lib/e-puck2_main-processor/ChibiOS//os/ext/CMSIS/include/core_cmFunc.h" 1
 3038 065e 83F31188 		MSR basepri, r3
 3039              	@ 0 "" 2
 3040              	.LVL356:
 3041              		.thumb
 3042              		.syntax unified
 3043 0662 C1E6     		b	.L155
 3044              	.LVL357:
 3045              	.L324:
 3046              	.LBE1087:
 3047              	.LBE1086:
 3048              	.LBE1085:
 3049              	.LBE1084:
 3050              	.LBE1083:
 3051              	.LBE1082:
 3052              	.LBE1081:
 3053              	.LBE1109:
 3054              	.LBE1111:
 3055              	.LBE1118:
 3056              	.LBB1119:
 3057              	.LBB1063:
 3058              	.LBB1061:
 3059              		.loc 1 550 0
 3060 0664 091A     		subs	r1, r1, r0
 3061              		.loc 1 551 0
 3062 0666 0022     		movs	r2, #0
 3063 0668 C3E90112 		strd	r1, r2, [r3, #4]
 3064              	.LVL358:
 3065              	.LBB1020:
 3066              	.LBB1021:
 3067              		.loc 1 1184 0
 3068 066c 3369     		ldr	r3, [r6, #16]
 3069              	.LVL359:
 3070 066e 5B69     		ldr	r3, [r3, #20]
 3071              	.LVL360:
 3072              		.loc 1 1187 0
 3073 0670 5968     		ldr	r1, [r3, #4]
 3074 0672 1961     		str	r1, [r3, #16]
 3075              		.loc 1 1188 0
 3076 0674 0029     		cmp	r1, #0
 3077 0676 6AD0     		beq	.L329
 3078              	.LBB1022:
ARM GAS  C:\Users\mathi\AppData\Local\Temp\ccOm87JI.s 			page 55


 3079              		.loc 1 1197 0
 3080 0678 3269     		ldr	r2, [r6, #16]
 3081              		.loc 1 1199 0
 3082 067a 336D     		ldr	r3, [r6, #80]
 3083              	.LVL361:
 3084              		.loc 1 1197 0
 3085 067c 108A     		ldrh	r0, [r2, #16]
 3086              	.LVL362:
 3087 067e 0A18     		adds	r2, r1, r0
 3088 0680 013A     		subs	r2, r2, #1
 3089 0682 B2FBF0F2 		udiv	r2, r2, r0
 3090              	.LVL363:
 3091              		.loc 1 1199 0
 3092 0686 41EAC241 		orr	r1, r1, r2, lsl #19
 3093 068a C3F83019 		str	r1, [r3, #2352]
 3094              	.LVL364:
 3095              	.L151:
 3096              	.LBE1022:
 3097              	.LBE1021:
 3098              	.LBE1020:
 3099              	.LBB1024:
 3100              	.LBB1025:
 3101              	.LBB1026:
 3102              	.LBB1027:
 3103              	.LBB1028:
 3104              	.LBB1029:
 3105              	.LBB1030:
 3106              		.loc 3 546 0
 3107 068e 2023     		movs	r3, #32
 3108              		.syntax unified
 3109              	@ 546 "../../lib/e-puck2_main-processor/ChibiOS//os/ext/CMSIS/include/core_cmFunc.h" 1
 3110 0690 83F31188 		MSR basepri, r3
 3111              	@ 0 "" 2
 3112              	.LVL365:
 3113              		.thumb
 3114              		.syntax unified
 3115              	.LBE1030:
 3116              	.LBE1029:
 3117              	.LBE1028:
 3118              	.LBE1027:
 3119              		.loc 4 389 0
 3120 0694 FFF7FEFF 		bl	_stats_start_measure_crit_isr
 3121              	.LVL366:
 3122              		.loc 4 390 0
 3123 0698 FFF7FEFF 		bl	_dbg_check_lock_from_isr
 3124              	.LVL367:
 3125              	.LBE1026:
 3126              	.LBE1025:
 3127              	.LBE1024:
 3128              	.LBB1031:
 3129              	.LBB1032:
 3130              		.loc 1 1227 0
 3131 069c 336D     		ldr	r3, [r6, #80]
 3132 069e D3F82029 		ldr	r2, [r3, #2336]
 3133 06a2 42F00442 		orr	r2, r2, #-2080374784
 3134 06a6 C3F82029 		str	r2, [r3, #2336]
 3135              		.loc 1 1228 0
ARM GAS  C:\Users\mathi\AppData\Local\Temp\ccOm87JI.s 			page 56


 3136 06aa D3F83428 		ldr	r2, [r3, #2100]
 3137 06ae 42F00202 		orr	r2, r2, #2
 3138 06b2 C3F83428 		str	r2, [r3, #2100]
 3139              	.LVL368:
 3140              	.LBE1032:
 3141              	.LBE1031:
 3142              	.LBB1033:
 3143              	.LBB1034:
 3144              	.LBB1035:
 3145              		.loc 4 408 0
 3146 06b6 FFF7FEFF 		bl	_dbg_check_unlock_from_isr
 3147              	.LVL369:
 3148              		.loc 4 409 0
 3149 06ba FFF7FEFF 		bl	_stats_stop_measure_crit_isr
 3150              	.LVL370:
 3151              	.LBB1036:
 3152              	.LBB1037:
 3153              	.LBB1038:
 3154              	.LBB1039:
 3155              		.loc 3 546 0
 3156 06be 0023     		movs	r3, #0
 3157              		.syntax unified
 3158              	@ 546 "../../lib/e-puck2_main-processor/ChibiOS//os/ext/CMSIS/include/core_cmFunc.h" 1
 3159 06c0 83F31188 		MSR basepri, r3
 3160              	@ 0 "" 2
 3161              	.LVL371:
 3162              		.thumb
 3163              		.syntax unified
 3164 06c4 4EE6     		b	.L148
 3165              	.LVL372:
 3166              	.L323:
 3167              	.LBE1039:
 3168              	.LBE1038:
 3169              	.LBE1037:
 3170              	.LBE1036:
 3171              	.LBE1035:
 3172              	.LBE1034:
 3173              	.LBE1033:
 3174              	.LBE1061:
 3175              	.LBE1063:
 3176              	.LBE1119:
 3177              	.LBB1120:
 3178              	.LBB1015:
 3179              	.LBB1013:
 3180              		.loc 1 550 0
 3181 06c6 091A     		subs	r1, r1, r0
 3182              		.loc 1 551 0
 3183 06c8 0022     		movs	r2, #0
 3184 06ca C3E90112 		strd	r1, r2, [r3, #4]
 3185              	.LVL373:
 3186              	.LBB972:
 3187              	.LBB973:
 3188              		.loc 1 1184 0
 3189 06ce F368     		ldr	r3, [r6, #12]
 3190              	.LVL374:
 3191 06d0 5B69     		ldr	r3, [r3, #20]
 3192              	.LVL375:
ARM GAS  C:\Users\mathi\AppData\Local\Temp\ccOm87JI.s 			page 57


 3193              		.loc 1 1187 0
 3194 06d2 5968     		ldr	r1, [r3, #4]
 3195 06d4 1961     		str	r1, [r3, #16]
 3196              		.loc 1 1188 0
 3197 06d6 0029     		cmp	r1, #0
 3198 06d8 3FD0     		beq	.L330
 3199              	.LBB974:
 3200              		.loc 1 1193 0
 3201 06da 4029     		cmp	r1, #64
 3202              		.loc 1 1194 0
 3203 06dc 84BF     		itt	hi
 3204 06de 4021     		movhi	r1, #64
 3205 06e0 5960     		strhi	r1, [r3, #4]
 3206              		.loc 1 1197 0
 3207 06e2 F268     		ldr	r2, [r6, #12]
 3208              		.loc 1 1199 0
 3209 06e4 336D     		ldr	r3, [r6, #80]
 3210              	.LVL376:
 3211              		.loc 1 1197 0
 3212 06e6 108A     		ldrh	r0, [r2, #16]
 3213              	.LVL377:
 3214 06e8 0A18     		adds	r2, r1, r0
 3215 06ea 013A     		subs	r2, r2, #1
 3216 06ec B2FBF0F2 		udiv	r2, r2, r0
 3217              	.LVL378:
 3218              		.loc 1 1199 0
 3219 06f0 41EAC241 		orr	r1, r1, r2, lsl #19
 3220 06f4 C3F81019 		str	r1, [r3, #2320]
 3221              	.LVL379:
 3222              	.L143:
 3223              	.LBE974:
 3224              	.LBE973:
 3225              	.LBE972:
 3226              	.LBB976:
 3227              	.LBB977:
 3228              	.LBB978:
 3229              	.LBB979:
 3230              	.LBB980:
 3231              	.LBB981:
 3232              	.LBB982:
 3233              		.loc 3 546 0
 3234 06f8 2023     		movs	r3, #32
 3235              		.syntax unified
 3236              	@ 546 "../../lib/e-puck2_main-processor/ChibiOS//os/ext/CMSIS/include/core_cmFunc.h" 1
 3237 06fa 83F31188 		MSR basepri, r3
 3238              	@ 0 "" 2
 3239              	.LVL380:
 3240              		.thumb
 3241              		.syntax unified
 3242              	.LBE982:
 3243              	.LBE981:
 3244              	.LBE980:
 3245              	.LBE979:
 3246              		.loc 4 389 0
 3247 06fe FFF7FEFF 		bl	_stats_start_measure_crit_isr
 3248              	.LVL381:
 3249              		.loc 4 390 0
ARM GAS  C:\Users\mathi\AppData\Local\Temp\ccOm87JI.s 			page 58


 3250 0702 FFF7FEFF 		bl	_dbg_check_lock_from_isr
 3251              	.LVL382:
 3252              	.LBE978:
 3253              	.LBE977:
 3254              	.LBE976:
 3255              	.LBB983:
 3256              	.LBB984:
 3257              		.loc 1 1227 0
 3258 0706 336D     		ldr	r3, [r6, #80]
 3259 0708 D3F80029 		ldr	r2, [r3, #2304]
 3260 070c 42F00442 		orr	r2, r2, #-2080374784
 3261 0710 C3F80029 		str	r2, [r3, #2304]
 3262              		.loc 1 1228 0
 3263 0714 D3F83428 		ldr	r2, [r3, #2100]
 3264 0718 42F00102 		orr	r2, r2, #1
 3265 071c C3F83428 		str	r2, [r3, #2100]
 3266              	.LVL383:
 3267              	.LBE984:
 3268              	.LBE983:
 3269              	.LBB985:
 3270              	.LBB986:
 3271              	.LBB987:
 3272              		.loc 4 408 0
 3273 0720 FFF7FEFF 		bl	_dbg_check_unlock_from_isr
 3274              	.LVL384:
 3275              		.loc 4 409 0
 3276 0724 FFF7FEFF 		bl	_stats_stop_measure_crit_isr
 3277              	.LVL385:
 3278              	.LBB988:
 3279              	.LBB989:
 3280              	.LBB990:
 3281              	.LBB991:
 3282              		.loc 3 546 0
 3283 0728 0023     		movs	r3, #0
 3284              		.syntax unified
 3285              	@ 546 "../../lib/e-puck2_main-processor/ChibiOS//os/ext/CMSIS/include/core_cmFunc.h" 1
 3286 072a 83F31188 		MSR basepri, r3
 3287              	@ 0 "" 2
 3288              	.LVL386:
 3289              		.thumb
 3290              		.syntax unified
 3291 072e D7E5     		b	.L140
 3292              	.LVL387:
 3293              	.L326:
 3294 0730 43F0C041 		orr	r1, r3, #1610612736
 3295              	.LVL388:
 3296 0734 E1E6     		b	.L173
 3297              	.LVL389:
 3298              	.L327:
 3299              	.LBE991:
 3300              	.LBE990:
 3301              	.LBE989:
 3302              	.LBE988:
 3303              	.LBE987:
 3304              	.LBE986:
 3305              	.LBE985:
 3306              	.LBE1013:
ARM GAS  C:\Users\mathi\AppData\Local\Temp\ccOm87JI.s 			page 59


 3307              	.LBE1015:
 3308              	.LBE1120:
 3309              	.LBB1121:
 3310              	.LBB968:
 3311              	.LBB966:
 3312              	.LBB944:
 3313              	.LBB927:
 3314              		.loc 1 1190 0
 3315 0736 336D     		ldr	r3, [r6, #80]
 3316              	.LVL390:
 3317 0738 4FF40022 		mov	r2, #524288
 3318 073c C3F87029 		str	r2, [r3, #2416]
 3319 0740 3BE7     		b	.L164
 3320              	.LVL391:
 3321              	.L328:
 3322              	.LBE927:
 3323              	.LBE944:
 3324              	.LBE966:
 3325              	.LBE968:
 3326              	.LBE1121:
 3327              	.LBB1122:
 3328              	.LBB1112:
 3329              	.LBB1110:
 3330              	.LBB1088:
 3331              	.LBB1071:
 3332 0742 336D     		ldr	r3, [r6, #80]
 3333              	.LVL392:
 3334 0744 4FF40022 		mov	r2, #524288
 3335 0748 C3F85029 		str	r2, [r3, #2384]
 3336 074c 6EE7     		b	.L158
 3337              	.LVL393:
 3338              	.L329:
 3339              	.LBE1071:
 3340              	.LBE1088:
 3341              	.LBE1110:
 3342              	.LBE1112:
 3343              	.LBE1122:
 3344              	.LBB1123:
 3345              	.LBB1064:
 3346              	.LBB1062:
 3347              	.LBB1040:
 3348              	.LBB1023:
 3349 074e 336D     		ldr	r3, [r6, #80]
 3350              	.LVL394:
 3351 0750 4FF40022 		mov	r2, #524288
 3352 0754 C3F83029 		str	r2, [r3, #2352]
 3353 0758 99E7     		b	.L151
 3354              	.LVL395:
 3355              	.L330:
 3356              	.LBE1023:
 3357              	.LBE1040:
 3358              	.LBE1062:
 3359              	.LBE1064:
 3360              	.LBE1123:
 3361              	.LBB1124:
 3362              	.LBB1016:
 3363              	.LBB1014:
ARM GAS  C:\Users\mathi\AppData\Local\Temp\ccOm87JI.s 			page 60


 3364              	.LBB992:
 3365              	.LBB975:
 3366 075a 336D     		ldr	r3, [r6, #80]
 3367              	.LVL396:
 3368 075c 4FF40022 		mov	r2, #524288
 3369 0760 C3F81029 		str	r2, [r3, #2320]
 3370 0764 C8E7     		b	.L143
 3371              	.LVL397:
 3372              	.L317:
 3373              	.LBE975:
 3374              	.LBE992:
 3375              	.LBE1014:
 3376              	.LBE1016:
 3377              	.LBE1124:
 3378              	.LBE1126:
 3379              	.LBE1128:
 3380              		.loc 1 712 0
 3381 0766 FFF7FEFF 		bl	__stack_chk_fail
 3382              	.LVL398:
 3383              		.cfi_endproc
 3384              	.LFE273:
 3385              		.size	Vector14C, .-Vector14C
 3386 076a 00BF     		.section	.text.usb_lld_init,"ax",%progbits
 3387              		.align	1
 3388              		.p2align 4,,15
 3389              		.global	usb_lld_init
 3390              		.syntax unified
 3391              		.thumb
 3392              		.thumb_func
 3393              		.fpu fpv4-sp-d16
 3394              		.type	usb_lld_init, %function
 3395              	usb_lld_init:
 3396              	.LFB274:
 3397              		.loc 1 744 0
 3398              		.cfi_startproc
 3399              		@ args = 0, pretend = 0, frame = 8
 3400              		@ frame_needed = 0, uses_anonymous_args = 0
 3401 0000 30B5     		push	{r4, r5, lr}
 3402              		.cfi_def_cfa_offset 12
 3403              		.cfi_offset 4, -12
 3404              		.cfi_offset 5, -8
 3405              		.cfi_offset 14, -4
 3406              		.loc 1 748 0
 3407 0002 134C     		ldr	r4, .L340
 3408              		.loc 1 744 0
 3409 0004 134D     		ldr	r5, .L340+4
 3410 0006 83B0     		sub	sp, sp, #12
 3411              		.cfi_def_cfa_offset 24
 3412              		.loc 1 744 0
 3413 0008 2B68     		ldr	r3, [r5]
 3414 000a 0193     		str	r3, [sp, #4]
 3415              		.loc 1 748 0
 3416 000c 2046     		mov	r0, r4
 3417 000e FFF7FEFF 		bl	usbObjectInit
 3418              	.LVL399:
 3419              		.loc 1 750 0
 3420 0012 4FF0A043 		mov	r3, #1342177280
ARM GAS  C:\Users\mathi\AppData\Local\Temp\ccOm87JI.s 			page 61


 3421              		.loc 1 751 0
 3422 0016 104A     		ldr	r2, .L340+8
 3423              		.loc 1 750 0
 3424 0018 2365     		str	r3, [r4, #80]
 3425              		.loc 1 751 0
 3426 001a 6265     		str	r2, [r4, #84]
 3427              		.loc 1 749 0
 3428 001c 0023     		movs	r3, #0
 3429              	.LBB1129:
 3430              		.loc 1 760 0
 3431 001e FF22     		movs	r2, #255
 3432 0020 04F1D001 		add	r1, r4, #208
 3433 0024 04F16800 		add	r0, r4, #104
 3434              	.LBE1129:
 3435              		.loc 1 754 0
 3436 0028 C4E91833 		strd	r3, r3, [r4, #96]
 3437              	.LVL400:
 3438              	.LBB1130:
 3439              		.loc 1 760 0
 3440 002c FFF7FEFF 		bl	_thread_memfill
 3441              	.LVL401:
 3442              		.loc 1 763 0
 3443 0030 019A     		ldr	r2, [sp, #4]
 3444 0032 2B68     		ldr	r3, [r5]
 3445 0034 9A42     		cmp	r2, r3
 3446 0036 09D1     		bne	.L339
 3447 0038 5522     		movs	r2, #85
 3448 003a 04F51871 		add	r1, r4, #608
 3449 003e 04F1D000 		add	r0, r4, #208
 3450              	.LBE1130:
 3451              		.loc 1 794 0
 3452 0042 03B0     		add	sp, sp, #12
 3453              		.cfi_remember_state
 3454              		.cfi_def_cfa_offset 12
 3455              		@ sp needed
 3456 0044 BDE83040 		pop	{r4, r5, lr}
 3457              		.cfi_restore 14
 3458              		.cfi_restore 5
 3459              		.cfi_restore 4
 3460              		.cfi_def_cfa_offset 0
 3461              	.LBB1131:
 3462              		.loc 1 763 0
 3463 0048 FFF7FEBF 		b	_thread_memfill
 3464              	.LVL402:
 3465              	.L339:
 3466              		.cfi_restore_state
 3467 004c FFF7FEFF 		bl	__stack_chk_fail
 3468              	.LVL403:
 3469              	.L341:
 3470              		.align	2
 3471              	.L340:
 3472 0050 00000000 		.word	.LANCHOR1
 3473 0054 00000000 		.word	__stack_chk_guard
 3474 0058 00000000 		.word	.LANCHOR2
 3475              	.LBE1131:
 3476              		.cfi_endproc
 3477              	.LFE274:
ARM GAS  C:\Users\mathi\AppData\Local\Temp\ccOm87JI.s 			page 62


 3478              		.size	usb_lld_init, .-usb_lld_init
 3479              		.section	.text.usb_lld_start,"ax",%progbits
 3480              		.align	1
 3481              		.p2align 4,,15
 3482              		.global	usb_lld_start
 3483              		.syntax unified
 3484              		.thumb
 3485              		.thumb_func
 3486              		.fpu fpv4-sp-d16
 3487              		.type	usb_lld_start, %function
 3488              	usb_lld_start:
 3489              	.LFB275:
 3490              		.loc 1 806 0
 3491              		.cfi_startproc
 3492              		@ args = 0, pretend = 0, frame = 8
 3493              		@ frame_needed = 0, uses_anonymous_args = 0
 3494              	.LVL404:
 3495 0000 2DE9F043 		push	{r4, r5, r6, r7, r8, r9, lr}
 3496              		.cfi_def_cfa_offset 28
 3497              		.cfi_offset 4, -28
 3498              		.cfi_offset 5, -24
 3499              		.cfi_offset 6, -20
 3500              		.cfi_offset 7, -16
 3501              		.cfi_offset 8, -12
 3502              		.cfi_offset 9, -8
 3503              		.cfi_offset 14, -4
 3504 0004 574E     		ldr	r6, .L377
 3505              		.loc 1 809 0
 3506 0006 0378     		ldrb	r3, [r0]	@ zero_extendqisi2
 3507              		.loc 1 806 0
 3508 0008 3268     		ldr	r2, [r6]
 3509 000a 85B0     		sub	sp, sp, #20
 3510              		.cfi_def_cfa_offset 48
 3511              		.loc 1 809 0
 3512 000c 012B     		cmp	r3, #1
 3513              		.loc 1 806 0
 3514 000e 0392     		str	r2, [sp, #12]
 3515              	.LVL405:
 3516              		.loc 1 809 0
 3517 0010 07D0     		beq	.L370
 3518              	.LVL406:
 3519              	.L342:
 3520              		.loc 1 893 0
 3521 0012 039A     		ldr	r2, [sp, #12]
 3522 0014 3368     		ldr	r3, [r6]
 3523 0016 9A42     		cmp	r2, r3
 3524 0018 40F0A280 		bne	.L371
 3525 001c 05B0     		add	sp, sp, #20
 3526              		.cfi_remember_state
 3527              		.cfi_def_cfa_offset 28
 3528              		@ sp needed
 3529 001e BDE8F083 		pop	{r4, r5, r6, r7, r8, r9, pc}
 3530              	.LVL407:
 3531              	.L370:
 3532              		.cfi_restore_state
 3533              		.loc 1 812 0
 3534 0022 514B     		ldr	r3, .L377+4
ARM GAS  C:\Users\mathi\AppData\Local\Temp\ccOm87JI.s 			page 63


 3535              		.loc 1 807 0
 3536 0024 056D     		ldr	r5, [r0, #80]
 3537              		.loc 1 812 0
 3538 0026 9842     		cmp	r0, r3
 3539 0028 0446     		mov	r4, r0
 3540 002a 71D0     		beq	.L372
 3541              	.LVL408:
 3542              	.L344:
 3543              		.loc 1 836 0
 3544 002c 0023     		movs	r3, #0
 3545              		.loc 1 841 0
 3546 002e 4F4A     		ldr	r2, .L377+8
 3547              		.loc 1 836 0
 3548 0030 E365     		str	r3, [r4, #92]
 3549              		.loc 1 844 0
 3550 0032 4F49     		ldr	r1, .L377+12
 3551              		.loc 1 841 0
 3552 0034 EA60     		str	r2, [r5, #12]
 3553              		.loc 1 854 0
 3554 0036 4FF45022 		mov	r2, #851968
 3555              		.loc 1 844 0
 3556 003a C5F80018 		str	r1, [r5, #2048]
 3557              		.loc 1 847 0
 3558 003e C5F8003E 		str	r3, [r5, #3584]
 3559              		.loc 1 854 0
 3560 0042 AA63     		str	r2, [r5, #56]
 3561 0044 276D     		ldr	r7, [r4, #80]
 3562              	.LVL409:
 3563              	.LBB1142:
 3564              	.LBB1143:
 3565              	.LBB1144:
 3566              	.LBB1145:
 3567              		.loc 5 527 0
 3568 0046 2020     		movs	r0, #32
 3569 0048 FFF7FEFF 		bl	chSysPolledDelayX
 3570              	.LVL410:
 3571              	.LBE1145:
 3572              	.LBE1144:
 3573              		.loc 1 121 0
 3574 004c 0123     		movs	r3, #1
 3575 004e 3B61     		str	r3, [r7, #16]
 3576              	.L345:
 3577              		.loc 1 122 0
 3578 0050 3B69     		ldr	r3, [r7, #16]
 3579 0052 D807     		lsls	r0, r3, #31
 3580 0054 FCD4     		bmi	.L345
 3581              	.LVL411:
 3582              	.LBB1146:
 3583              	.LBB1147:
 3584              		.loc 5 527 0
 3585 0056 0C20     		movs	r0, #12
 3586 0058 FFF7FEFF 		bl	chSysPolledDelayX
 3587              	.LVL412:
 3588              	.L346:
 3589              	.LBE1147:
 3590              	.LBE1146:
 3591              		.loc 1 128 0
ARM GAS  C:\Users\mathi\AppData\Local\Temp\ccOm87JI.s 			page 64


 3592 005c 3B69     		ldr	r3, [r7, #16]
 3593 005e 002B     		cmp	r3, #0
 3594 0060 FCDA     		bge	.L346
 3595              	.LVL413:
 3596              	.LBE1143:
 3597              	.LBE1142:
 3598              		.loc 1 861 0
 3599 0062 0020     		movs	r0, #0
 3600 0064 A860     		str	r0, [r5, #8]
 3601 0066 D4F850C0 		ldr	ip, [r4, #80]
 3602              	.LVL414:
 3603              	.LBB1148:
 3604              	.LBB1149:
 3605              		.loc 1 147 0
 3606 006a 0746     		mov	r7, r0
 3607              		.loc 1 141 0
 3608 006c 4FF08048 		mov	r8, #1073741824
 3609              		.loc 1 149 0
 3610 0070 4FF0FF3E 		mov	lr, #-1
 3611 0074 18E0     		b	.L353
 3612              	.LVL415:
 3613              	.L347:
 3614              		.loc 1 147 0
 3615 0076 C2F80079 		str	r7, [r2, #2304]
 3616              	.L349:
 3617              		.loc 1 148 0
 3618 007a 0CEB0301 		add	r1, ip, r3
 3619 007e C1F81079 		str	r7, [r1, #2320]
 3620              		.loc 1 149 0
 3621 0082 C1F808E9 		str	lr, [r1, #2312]
 3622              		.loc 1 155 0
 3623 0086 D2F8009B 		ldr	r9, [r2, #2816]
 3624 008a B9F1000F 		cmp	r9, #0
 3625 008e 1ADB     		blt	.L373
 3626              		.loc 1 162 0
 3627 0090 C2F8007B 		str	r7, [r2, #2816]
 3628              	.L352:
 3629              		.loc 1 163 0
 3630 0094 6344     		add	r3, r3, ip
 3631              		.loc 1 136 0
 3632 0096 0130     		adds	r0, r0, #1
 3633              	.LVL416:
 3634              		.loc 1 163 0
 3635 0098 C3F8107B 		str	r7, [r3, #2832]
 3636              		.loc 1 164 0
 3637 009c C3F808EB 		str	lr, [r3, #2824]
 3638              		.loc 1 136 0
 3639 00a0 636D     		ldr	r3, [r4, #84]
 3640 00a2 9B68     		ldr	r3, [r3, #8]
 3641 00a4 9842     		cmp	r0, r3
 3642 00a6 15D8     		bhi	.L374
 3643              	.LVL417:
 3644              	.L353:
 3645 00a8 4301     		lsls	r3, r0, #5
 3646 00aa 0CEB0302 		add	r2, ip, r3
 3647              		.loc 1 140 0
 3648 00ae D2F80019 		ldr	r1, [r2, #2304]
ARM GAS  C:\Users\mathi\AppData\Local\Temp\ccOm87JI.s 			page 65


 3649 00b2 0029     		cmp	r1, #0
 3650 00b4 DFDA     		bge	.L347
 3651              		.loc 1 141 0
 3652 00b6 C2F80089 		str	r8, [r2, #2304]
 3653              		.loc 1 143 0
 3654 00ba 9146     		mov	r9, r2
 3655              	.L348:
 3656 00bc D9F80819 		ldr	r1, [r9, #2312]
 3657 00c0 8907     		lsls	r1, r1, #30
 3658 00c2 FBD5     		bpl	.L348
 3659 00c4 D9E7     		b	.L349
 3660              	.L373:
 3661              		.loc 1 156 0
 3662 00c6 C2F8008B 		str	r8, [r2, #2816]
 3663              	.L351:
 3664              		.loc 1 158 0
 3665 00ca D1F8082B 		ldr	r2, [r1, #2824]
 3666 00ce D206     		lsls	r2, r2, #27
 3667 00d0 FBD5     		bpl	.L351
 3668 00d2 DFE7     		b	.L352
 3669              	.L374:
 3670              		.loc 1 166 0
 3671 00d4 4FF00113 		mov	r3, #65537
 3672 00d8 CCF81C38 		str	r3, [ip, #2076]
 3673              	.LVL418:
 3674              	.LBE1149:
 3675              	.LBE1148:
 3676              		.loc 1 868 0
 3677 00dc C5F81078 		str	r7, [r5, #2064]
 3678              		.loc 1 869 0
 3679 00e0 C5F81478 		str	r7, [r5, #2068]
 3680              		.loc 1 870 0
 3681 00e4 C5F81C78 		str	r7, [r5, #2076]
 3682              		.loc 1 871 0
 3683 00e8 6368     		ldr	r3, [r4, #4]
 3684 00ea DB68     		ldr	r3, [r3, #12]
 3685 00ec 63B1     		cbz	r3, .L375
 3686              		.loc 1 875 0
 3687 00ee 43F20803 		movw	r3, #12296
 3688 00f2 AB61     		str	r3, [r5, #24]
 3689              	.L355:
 3690              		.loc 1 877 0
 3691 00f4 4FF0FF33 		mov	r3, #-1
 3692 00f8 6B61     		str	r3, [r5, #20]
 3693              		.loc 1 881 0
 3694 00fa 636E     		ldr	r3, [r4, #100]
 3695 00fc C3B1     		cbz	r3, .L376
 3696              	.L356:
 3697              		.loc 1 891 0
 3698 00fe AB68     		ldr	r3, [r5, #8]
 3699 0100 43F00103 		orr	r3, r3, #1
 3700 0104 AB60     		str	r3, [r5, #8]
 3701              		.loc 1 893 0
 3702 0106 84E7     		b	.L342
 3703              	.L375:
 3704              		.loc 1 872 0
 3705 0108 4FF44053 		mov	r3, #12288
ARM GAS  C:\Users\mathi\AppData\Local\Temp\ccOm87JI.s 			page 66


 3706 010c AB61     		str	r3, [r5, #24]
 3707 010e F1E7     		b	.L355
 3708              	.LVL419:
 3709              	.L372:
 3710              		.loc 1 814 0
 3711 0110 184B     		ldr	r3, .L377+16
 3712 0112 5A6B     		ldr	r2, [r3, #52]
 3713 0114 42F08002 		orr	r2, r2, #128
 3714 0118 5A63     		str	r2, [r3, #52]
 3715              	.LVL420:
 3716              		.loc 1 815 0
 3717 011a 5A69     		ldr	r2, [r3, #20]
 3718 011c 0021     		movs	r1, #0
 3719 011e 42F08002 		orr	r2, r2, #128
 3720 0122 5A61     		str	r2, [r3, #20]
 3721              		.loc 1 818 0
 3722 0124 4320     		movs	r0, #67
 3723              	.LVL421:
 3724              		.loc 1 815 0
 3725 0126 5961     		str	r1, [r3, #20]
 3726              		.loc 1 818 0
 3727 0128 0E21     		movs	r1, #14
 3728 012a FFF7FEFF 		bl	nvicEnableVector
 3729              	.LVL422:
 3730 012e 7DE7     		b	.L344
 3731              	.LVL423:
 3732              	.L376:
 3733              		.loc 1 882 0
 3734 0130 114B     		ldr	r3, .L377+20
 3735 0132 0094     		str	r4, [sp]
 3736 0134 4A22     		movs	r2, #74
 3737 0136 4FF4FC71 		mov	r1, #504
 3738 013a 04F16800 		add	r0, r4, #104
 3739 013e FFF7FEFF 		bl	chThdCreateI
 3740              	.LVL424:
 3741 0142 6066     		str	r0, [r4, #100]
 3742              	.LVL425:
 3743              	.LBB1150:
 3744              	.LBB1151:
 3745              		.file 6 "../../lib/e-puck2_main-processor/ChibiOS//os/rt/include/chthreads.h"
 3746              		.loc 6 247 0
 3747 0144 90F82030 		ldrb	r3, [r0, #32]	@ zero_extendqisi2
 3748 0148 022B     		cmp	r3, #2
 3749              	.LBE1151:
 3750              	.LBE1150:
 3751              		.loc 1 882 0
 3752 014a 0746     		mov	r7, r0
 3753              	.LBB1153:
 3754              	.LBB1152:
 3755              		.loc 6 247 0
 3756 014c 02D0     		beq	.L357
 3757 014e 0B48     		ldr	r0, .L377+24
 3758              	.LVL426:
 3759 0150 FFF7FEFF 		bl	chSysHalt
 3760              	.LVL427:
 3761              	.L357:
 3762              		.loc 6 249 0
ARM GAS  C:\Users\mathi\AppData\Local\Temp\ccOm87JI.s 			page 67


 3763 0154 3846     		mov	r0, r7
 3764 0156 FFF7FEFF 		bl	chSchReadyI
 3765              	.LVL428:
 3766              	.LBE1152:
 3767              	.LBE1153:
 3768              		.loc 1 886 0
 3769 015a FFF7FEFF 		bl	chSchRescheduleS
 3770              	.LVL429:
 3771 015e CEE7     		b	.L356
 3772              	.LVL430:
 3773              	.L371:
 3774              		.loc 1 893 0
 3775 0160 FFF7FEFF 		bl	__stack_chk_fail
 3776              	.LVL431:
 3777              	.L378:
 3778              		.align	2
 3779              	.L377:
 3780 0164 00000000 		.word	__stack_chk_guard
 3781 0168 00000000 		.word	.LANCHOR1
 3782 016c 40140040 		.word	1073747008
 3783 0170 03002002 		.word	35651587
 3784 0174 00380240 		.word	1073887232
 3785 0178 00000000 		.word	usb_lld_pump
 3786 017c 00000000 		.word	.LANCHOR3
 3787              		.cfi_endproc
 3788              	.LFE275:
 3789              		.size	usb_lld_start, .-usb_lld_start
 3790              		.section	.text.usb_lld_stop,"ax",%progbits
 3791              		.align	1
 3792              		.p2align 4,,15
 3793              		.global	usb_lld_stop
 3794              		.syntax unified
 3795              		.thumb
 3796              		.thumb_func
 3797              		.fpu fpv4-sp-d16
 3798              		.type	usb_lld_stop, %function
 3799              	usb_lld_stop:
 3800              	.LFB276:
 3801              		.loc 1 902 0
 3802              		.cfi_startproc
 3803              		@ args = 0, pretend = 0, frame = 8
 3804              		@ frame_needed = 0, uses_anonymous_args = 0
 3805              	.LVL432:
 3806 0000 2DE9F041 		push	{r4, r5, r6, r7, r8, lr}
 3807              		.cfi_def_cfa_offset 24
 3808              		.cfi_offset 4, -24
 3809              		.cfi_offset 5, -20
 3810              		.cfi_offset 6, -16
 3811              		.cfi_offset 7, -12
 3812              		.cfi_offset 8, -8
 3813              		.cfi_offset 14, -4
 3814 0004 2C4F     		ldr	r7, .L400
 3815              		.loc 1 906 0
 3816 0006 0378     		ldrb	r3, [r0]	@ zero_extendqisi2
 3817              		.loc 1 902 0
 3818 0008 3A68     		ldr	r2, [r7]
 3819 000a 82B0     		sub	sp, sp, #8
ARM GAS  C:\Users\mathi\AppData\Local\Temp\ccOm87JI.s 			page 68


 3820              		.cfi_def_cfa_offset 32
 3821              		.loc 1 906 0
 3822 000c 012B     		cmp	r3, #1
 3823              		.loc 1 902 0
 3824 000e 0192     		str	r2, [sp, #4]
 3825              	.LVL433:
 3826              		.loc 1 906 0
 3827 0010 41D0     		beq	.L379
 3828              	.LBB1156:
 3829              	.LBB1157:
 3830              		.loc 1 136 0
 3831 0012 0025     		movs	r5, #0
 3832              	.LBE1157:
 3833              	.LBE1156:
 3834              		.loc 1 903 0
 3835 0014 066D     		ldr	r6, [r0, #80]
 3836              	.LBB1162:
 3837              	.LBB1158:
 3838              		.loc 1 147 0
 3839 0016 2C46     		mov	r4, r5
 3840              		.loc 1 141 0
 3841 0018 4FF0804E 		mov	lr, #1073741824
 3842              		.loc 1 149 0
 3843 001c 4FF0FF3C 		mov	ip, #-1
 3844 0020 17E0     		b	.L388
 3845              	.LVL434:
 3846              	.L382:
 3847              		.loc 1 147 0
 3848 0022 C2F80049 		str	r4, [r2, #2304]
 3849              	.L384:
 3850              		.loc 1 148 0
 3851 0026 F118     		adds	r1, r6, r3
 3852 0028 C1F81049 		str	r4, [r1, #2320]
 3853              		.loc 1 149 0
 3854 002c C1F808C9 		str	ip, [r1, #2312]
 3855              		.loc 1 155 0
 3856 0030 D2F8008B 		ldr	r8, [r2, #2816]
 3857 0034 B8F1000F 		cmp	r8, #0
 3858 0038 34DB     		blt	.L397
 3859              		.loc 1 162 0
 3860 003a C2F8004B 		str	r4, [r2, #2816]
 3861              	.L387:
 3862              		.loc 1 163 0
 3863 003e 3344     		add	r3, r3, r6
 3864              		.loc 1 136 0
 3865 0040 0135     		adds	r5, r5, #1
 3866              	.LVL435:
 3867              		.loc 1 163 0
 3868 0042 C3F8104B 		str	r4, [r3, #2832]
 3869              		.loc 1 164 0
 3870 0046 C3F808CB 		str	ip, [r3, #2824]
 3871              		.loc 1 136 0
 3872 004a 436D     		ldr	r3, [r0, #84]
 3873 004c 9B68     		ldr	r3, [r3, #8]
 3874 004e 9D42     		cmp	r5, r3
 3875 0050 0DD8     		bhi	.L398
 3876              	.LVL436:
ARM GAS  C:\Users\mathi\AppData\Local\Temp\ccOm87JI.s 			page 69


 3877              	.L388:
 3878 0052 6B01     		lsls	r3, r5, #5
 3879 0054 F218     		adds	r2, r6, r3
 3880              		.loc 1 140 0
 3881 0056 D2F80019 		ldr	r1, [r2, #2304]
 3882 005a 0029     		cmp	r1, #0
 3883 005c E1DA     		bge	.L382
 3884              		.loc 1 141 0
 3885 005e C2F800E9 		str	lr, [r2, #2304]
 3886              		.loc 1 143 0
 3887 0062 9046     		mov	r8, r2
 3888              	.L383:
 3889 0064 D8F80819 		ldr	r1, [r8, #2312]
 3890 0068 8907     		lsls	r1, r1, #30
 3891 006a FBD5     		bpl	.L383
 3892 006c DBE7     		b	.L384
 3893              	.L398:
 3894              	.LBE1158:
 3895              	.LBE1162:
 3896              		.loc 1 919 0
 3897 006e 134B     		ldr	r3, .L400+4
 3898              	.LBB1163:
 3899              	.LBB1159:
 3900              		.loc 1 166 0
 3901 0070 4FF00112 		mov	r2, #65537
 3902              	.LBE1159:
 3903              	.LBE1163:
 3904              		.loc 1 919 0
 3905 0074 9842     		cmp	r0, r3
 3906              	.LBB1164:
 3907              	.LBB1160:
 3908              		.loc 1 166 0
 3909 0076 C6F81C28 		str	r2, [r6, #2076]
 3910              	.LVL437:
 3911              	.LBE1160:
 3912              	.LBE1164:
 3913              		.loc 1 912 0
 3914 007a C465     		str	r4, [r0, #92]
 3915              		.loc 1 914 0
 3916 007c C6F81C48 		str	r4, [r6, #2076]
 3917              		.loc 1 915 0
 3918 0080 B460     		str	r4, [r6, #8]
 3919              		.loc 1 916 0
 3920 0082 B463     		str	r4, [r6, #56]
 3921              		.loc 1 919 0
 3922 0084 07D1     		bne	.L379
 3923              		.loc 1 920 0
 3924 0086 4320     		movs	r0, #67
 3925              	.LVL438:
 3926 0088 FFF7FEFF 		bl	nvicDisableVector
 3927              	.LVL439:
 3928              		.loc 1 921 0
 3929 008c 0C4A     		ldr	r2, .L400+8
 3930 008e 536B     		ldr	r3, [r2, #52]
 3931 0090 23F08003 		bic	r3, r3, #128
 3932 0094 5363     		str	r3, [r2, #52]
 3933              	.LVL440:
ARM GAS  C:\Users\mathi\AppData\Local\Temp\ccOm87JI.s 			page 70


 3934              	.L379:
 3935              		.loc 1 932 0
 3936 0096 019A     		ldr	r2, [sp, #4]
 3937 0098 3B68     		ldr	r3, [r7]
 3938 009a 9A42     		cmp	r2, r3
 3939 009c 09D1     		bne	.L399
 3940 009e 02B0     		add	sp, sp, #8
 3941              		.cfi_remember_state
 3942              		.cfi_def_cfa_offset 24
 3943              		@ sp needed
 3944 00a0 BDE8F081 		pop	{r4, r5, r6, r7, r8, pc}
 3945              	.LVL441:
 3946              	.L397:
 3947              		.cfi_restore_state
 3948              	.LBB1165:
 3949              	.LBB1161:
 3950              		.loc 1 156 0
 3951 00a4 C2F800EB 		str	lr, [r2, #2816]
 3952              	.L386:
 3953              		.loc 1 158 0
 3954 00a8 D1F8082B 		ldr	r2, [r1, #2824]
 3955 00ac D206     		lsls	r2, r2, #27
 3956 00ae FBD5     		bpl	.L386
 3957 00b0 C5E7     		b	.L387
 3958              	.LVL442:
 3959              	.L399:
 3960              	.LBE1161:
 3961              	.LBE1165:
 3962              		.loc 1 932 0
 3963 00b2 FFF7FEFF 		bl	__stack_chk_fail
 3964              	.LVL443:
 3965              	.L401:
 3966 00b6 00BF     		.align	2
 3967              	.L400:
 3968 00b8 00000000 		.word	__stack_chk_guard
 3969 00bc 00000000 		.word	.LANCHOR1
 3970 00c0 00380240 		.word	1073887232
 3971              		.cfi_endproc
 3972              	.LFE276:
 3973              		.size	usb_lld_stop, .-usb_lld_stop
 3974              		.section	.text.usb_lld_reset,"ax",%progbits
 3975              		.align	1
 3976              		.p2align 4,,15
 3977              		.global	usb_lld_reset
 3978              		.syntax unified
 3979              		.thumb
 3980              		.thumb_func
 3981              		.fpu fpv4-sp-d16
 3982              		.type	usb_lld_reset, %function
 3983              	usb_lld_reset:
 3984              	.LFB277:
 3985              		.loc 1 941 0
 3986              		.cfi_startproc
 3987              		@ args = 0, pretend = 0, frame = 8
 3988              		@ frame_needed = 0, uses_anonymous_args = 0
 3989              	.LVL444:
 3990 0000 F0B5     		push	{r4, r5, r6, r7, lr}
ARM GAS  C:\Users\mathi\AppData\Local\Temp\ccOm87JI.s 			page 71


 3991              		.cfi_def_cfa_offset 20
 3992              		.cfi_offset 4, -20
 3993              		.cfi_offset 5, -16
 3994              		.cfi_offset 6, -12
 3995              		.cfi_offset 7, -8
 3996              		.cfi_offset 14, -4
 3997 0002 8E4F     		ldr	r7, .L415
 3998              		.loc 1 943 0
 3999 0004 046D     		ldr	r4, [r0, #80]
 4000              	.LVL445:
 4001              		.loc 1 941 0
 4002 0006 3B68     		ldr	r3, [r7]
 4003 0008 83B0     		sub	sp, sp, #12
 4004              		.cfi_def_cfa_offset 32
 4005              		.loc 1 941 0
 4006 000a 0646     		mov	r6, r0
 4007              	.LVL446:
 4008 000c 0193     		str	r3, [sp, #4]
 4009              	.LBB1166:
 4010              	.LBB1167:
 4011              		.loc 1 182 0
 4012 000e 2023     		movs	r3, #32
 4013 0010 2361     		str	r3, [r4, #16]
 4014              	.L403:
 4015              		.loc 1 183 0
 4016 0012 2369     		ldr	r3, [r4, #16]
 4017 0014 9B06     		lsls	r3, r3, #26
 4018 0016 FCD4     		bmi	.L403
 4019              	.LVL447:
 4020              	.LBB1168:
 4021              	.LBB1169:
 4022              		.loc 5 527 0
 4023 0018 0C20     		movs	r0, #12
 4024              	.LVL448:
 4025 001a FFF7FEFF 		bl	chSysPolledDelayX
 4026              	.LVL449:
 4027              	.LBE1169:
 4028              	.LBE1168:
 4029              	.LBE1167:
 4030              	.LBE1166:
 4031              		.loc 1 950 0
 4032 001e 4FF00062 		mov	r2, #134217728
 4033              		.loc 1 952 0
 4034 0022 FF23     		movs	r3, #255
 4035              		.loc 1 950 0
 4036 0024 C4F80029 		str	r2, [r4, #2304]
 4037              		.loc 1 951 0
 4038 0028 C4F8002B 		str	r2, [r4, #2816]
 4039              		.loc 1 952 0
 4040 002c C4F80839 		str	r3, [r4, #2312]
 4041              		.loc 1 953 0
 4042 0030 C4F8083B 		str	r3, [r4, #2824]
 4043              	.LVL450:
 4044              		.loc 1 949 0
 4045 0034 716D     		ldr	r1, [r6, #84]
 4046 0036 8968     		ldr	r1, [r1, #8]
 4047 0038 0029     		cmp	r1, #0
ARM GAS  C:\Users\mathi\AppData\Local\Temp\ccOm87JI.s 			page 72


 4048 003a 00F0B580 		beq	.L404
 4049              		.loc 1 950 0
 4050 003e C4F82029 		str	r2, [r4, #2336]
 4051              		.loc 1 951 0
 4052 0042 C4F8202B 		str	r2, [r4, #2848]
 4053              		.loc 1 952 0
 4054 0046 C4F82839 		str	r3, [r4, #2344]
 4055              		.loc 1 953 0
 4056 004a C4F8283B 		str	r3, [r4, #2856]
 4057              	.LVL451:
 4058              		.loc 1 949 0
 4059 004e 716D     		ldr	r1, [r6, #84]
 4060 0050 8968     		ldr	r1, [r1, #8]
 4061 0052 0129     		cmp	r1, #1
 4062 0054 40F2A880 		bls	.L404
 4063              		.loc 1 950 0
 4064 0058 C4F84029 		str	r2, [r4, #2368]
 4065              		.loc 1 951 0
 4066 005c C4F8402B 		str	r2, [r4, #2880]
 4067              		.loc 1 952 0
 4068 0060 C4F84839 		str	r3, [r4, #2376]
 4069              		.loc 1 953 0
 4070 0064 C4F8483B 		str	r3, [r4, #2888]
 4071              	.LVL452:
 4072              		.loc 1 949 0
 4073 0068 716D     		ldr	r1, [r6, #84]
 4074 006a 8968     		ldr	r1, [r1, #8]
 4075 006c 0229     		cmp	r1, #2
 4076 006e 40F29B80 		bls	.L404
 4077              		.loc 1 950 0
 4078 0072 C4F86029 		str	r2, [r4, #2400]
 4079              		.loc 1 951 0
 4080 0076 C4F8602B 		str	r2, [r4, #2912]
 4081              		.loc 1 952 0
 4082 007a C4F86839 		str	r3, [r4, #2408]
 4083              		.loc 1 953 0
 4084 007e C4F8683B 		str	r3, [r4, #2920]
 4085              	.LVL453:
 4086              		.loc 1 949 0
 4087 0082 716D     		ldr	r1, [r6, #84]
 4088 0084 8968     		ldr	r1, [r1, #8]
 4089 0086 0329     		cmp	r1, #3
 4090 0088 40F28E80 		bls	.L404
 4091              		.loc 1 950 0
 4092 008c C4F88029 		str	r2, [r4, #2432]
 4093              		.loc 1 951 0
 4094 0090 C4F8802B 		str	r2, [r4, #2944]
 4095              		.loc 1 952 0
 4096 0094 C4F88839 		str	r3, [r4, #2440]
 4097              		.loc 1 953 0
 4098 0098 C4F8883B 		str	r3, [r4, #2952]
 4099              	.LVL454:
 4100              		.loc 1 949 0
 4101 009c 716D     		ldr	r1, [r6, #84]
 4102 009e 8968     		ldr	r1, [r1, #8]
 4103 00a0 0429     		cmp	r1, #4
 4104 00a2 40F28180 		bls	.L404
ARM GAS  C:\Users\mathi\AppData\Local\Temp\ccOm87JI.s 			page 73


 4105              		.loc 1 950 0
 4106 00a6 C4F8A029 		str	r2, [r4, #2464]
 4107              		.loc 1 951 0
 4108 00aa C4F8A02B 		str	r2, [r4, #2976]
 4109              		.loc 1 952 0
 4110 00ae C4F8A839 		str	r3, [r4, #2472]
 4111              		.loc 1 953 0
 4112 00b2 C4F8A83B 		str	r3, [r4, #2984]
 4113              	.LVL455:
 4114              		.loc 1 949 0
 4115 00b6 716D     		ldr	r1, [r6, #84]
 4116 00b8 8968     		ldr	r1, [r1, #8]
 4117 00ba 0529     		cmp	r1, #5
 4118 00bc 74D9     		bls	.L404
 4119              		.loc 1 950 0
 4120 00be C4F8C029 		str	r2, [r4, #2496]
 4121              		.loc 1 951 0
 4122 00c2 C4F8C02B 		str	r2, [r4, #3008]
 4123              		.loc 1 952 0
 4124 00c6 C4F8C839 		str	r3, [r4, #2504]
 4125              		.loc 1 953 0
 4126 00ca C4F8C83B 		str	r3, [r4, #3016]
 4127              	.LVL456:
 4128              		.loc 1 949 0
 4129 00ce 716D     		ldr	r1, [r6, #84]
 4130 00d0 8968     		ldr	r1, [r1, #8]
 4131 00d2 0629     		cmp	r1, #6
 4132 00d4 68D9     		bls	.L404
 4133              		.loc 1 950 0
 4134 00d6 C4F8E029 		str	r2, [r4, #2528]
 4135              		.loc 1 951 0
 4136 00da C4F8E02B 		str	r2, [r4, #3040]
 4137              		.loc 1 952 0
 4138 00de C4F8E839 		str	r3, [r4, #2536]
 4139              		.loc 1 953 0
 4140 00e2 C4F8E83B 		str	r3, [r4, #3048]
 4141              	.LVL457:
 4142              		.loc 1 949 0
 4143 00e6 716D     		ldr	r1, [r6, #84]
 4144 00e8 8968     		ldr	r1, [r1, #8]
 4145 00ea 0729     		cmp	r1, #7
 4146 00ec 5CD9     		bls	.L404
 4147              		.loc 1 950 0
 4148 00ee C4F8002A 		str	r2, [r4, #2560]
 4149              		.loc 1 951 0
 4150 00f2 C4F8002C 		str	r2, [r4, #3072]
 4151              		.loc 1 952 0
 4152 00f6 C4F8083A 		str	r3, [r4, #2568]
 4153              		.loc 1 953 0
 4154 00fa C4F8083C 		str	r3, [r4, #3080]
 4155              	.LVL458:
 4156              		.loc 1 949 0
 4157 00fe 736D     		ldr	r3, [r6, #84]
 4158 0100 9B68     		ldr	r3, [r3, #8]
 4159 0102 082B     		cmp	r3, #8
 4160 0104 50D9     		bls	.L404
 4161              		.loc 1 952 0
ARM GAS  C:\Users\mathi\AppData\Local\Temp\ccOm87JI.s 			page 74


 4162 0106 FF23     		movs	r3, #255
 4163              		.loc 1 950 0
 4164 0108 C4F8202A 		str	r2, [r4, #2592]
 4165              		.loc 1 951 0
 4166 010c C4F8202C 		str	r2, [r4, #3104]
 4167              		.loc 1 952 0
 4168 0110 C4F8283A 		str	r3, [r4, #2600]
 4169              		.loc 1 953 0
 4170 0114 C4F8283C 		str	r3, [r4, #3112]
 4171              	.LVL459:
 4172              		.loc 1 949 0
 4173 0118 716D     		ldr	r1, [r6, #84]
 4174 011a 8968     		ldr	r1, [r1, #8]
 4175 011c 0929     		cmp	r1, #9
 4176 011e 43D9     		bls	.L404
 4177              		.loc 1 950 0
 4178 0120 C4F8402A 		str	r2, [r4, #2624]
 4179              		.loc 1 951 0
 4180 0124 C4F8402C 		str	r2, [r4, #3136]
 4181              		.loc 1 952 0
 4182 0128 C4F8483A 		str	r3, [r4, #2632]
 4183              		.loc 1 953 0
 4184 012c C4F8483C 		str	r3, [r4, #3144]
 4185              	.LVL460:
 4186              		.loc 1 949 0
 4187 0130 716D     		ldr	r1, [r6, #84]
 4188 0132 8968     		ldr	r1, [r1, #8]
 4189 0134 0A29     		cmp	r1, #10
 4190 0136 37D9     		bls	.L404
 4191              		.loc 1 950 0
 4192 0138 C4F8602A 		str	r2, [r4, #2656]
 4193              		.loc 1 951 0
 4194 013c C4F8602C 		str	r2, [r4, #3168]
 4195              		.loc 1 952 0
 4196 0140 C4F8683A 		str	r3, [r4, #2664]
 4197              		.loc 1 953 0
 4198 0144 C4F8683C 		str	r3, [r4, #3176]
 4199              	.LVL461:
 4200              		.loc 1 949 0
 4201 0148 716D     		ldr	r1, [r6, #84]
 4202 014a 8968     		ldr	r1, [r1, #8]
 4203 014c 0B29     		cmp	r1, #11
 4204 014e 2BD9     		bls	.L404
 4205              		.loc 1 950 0
 4206 0150 C4F8802A 		str	r2, [r4, #2688]
 4207              		.loc 1 951 0
 4208 0154 C4F8802C 		str	r2, [r4, #3200]
 4209              		.loc 1 952 0
 4210 0158 C4F8883A 		str	r3, [r4, #2696]
 4211              		.loc 1 953 0
 4212 015c C4F8883C 		str	r3, [r4, #3208]
 4213              	.LVL462:
 4214              		.loc 1 949 0
 4215 0160 716D     		ldr	r1, [r6, #84]
 4216 0162 8968     		ldr	r1, [r1, #8]
 4217 0164 0C29     		cmp	r1, #12
 4218 0166 1FD9     		bls	.L404
ARM GAS  C:\Users\mathi\AppData\Local\Temp\ccOm87JI.s 			page 75


 4219              		.loc 1 950 0
 4220 0168 C4F8A02A 		str	r2, [r4, #2720]
 4221              		.loc 1 951 0
 4222 016c C4F8A02C 		str	r2, [r4, #3232]
 4223              		.loc 1 952 0
 4224 0170 C4F8A83A 		str	r3, [r4, #2728]
 4225              		.loc 1 953 0
 4226 0174 C4F8A83C 		str	r3, [r4, #3240]
 4227              	.LVL463:
 4228              		.loc 1 949 0
 4229 0178 716D     		ldr	r1, [r6, #84]
 4230 017a 8968     		ldr	r1, [r1, #8]
 4231 017c 0D29     		cmp	r1, #13
 4232 017e 13D9     		bls	.L404
 4233              		.loc 1 950 0
 4234 0180 C4F8C02A 		str	r2, [r4, #2752]
 4235              		.loc 1 951 0
 4236 0184 C4F8C02C 		str	r2, [r4, #3264]
 4237              		.loc 1 952 0
 4238 0188 C4F8C83A 		str	r3, [r4, #2760]
 4239              		.loc 1 953 0
 4240 018c C4F8C83C 		str	r3, [r4, #3272]
 4241              	.LVL464:
 4242              		.loc 1 949 0
 4243 0190 716D     		ldr	r1, [r6, #84]
 4244 0192 8968     		ldr	r1, [r1, #8]
 4245 0194 0E29     		cmp	r1, #14
 4246 0196 07D9     		bls	.L404
 4247              		.loc 1 950 0 discriminator 3
 4248 0198 C4F8E02A 		str	r2, [r4, #2784]
 4249              		.loc 1 951 0 discriminator 3
 4250 019c C4F8E02C 		str	r2, [r4, #3296]
 4251              		.loc 1 952 0 discriminator 3
 4252 01a0 C4F8E83A 		str	r3, [r4, #2792]
 4253              		.loc 1 953 0 discriminator 3
 4254 01a4 C4F8E83C 		str	r3, [r4, #3304]
 4255              	.LVL465:
 4256              	.L404:
 4257              		.loc 1 957 0
 4258 01a8 4FF0FF32 		mov	r2, #-1
 4259              		.loc 1 958 0
 4260 01ac 4FF00113 		mov	r3, #65537
 4261              		.loc 1 957 0
 4262 01b0 C4F81828 		str	r2, [r4, #2072]
 4263              		.loc 1 958 0
 4264 01b4 C4F81C38 		str	r3, [r4, #2076]
 4265 01b8 736D     		ldr	r3, [r6, #84]
 4266              	.LVL466:
 4267              	.LBB1170:
 4268              	.LBB1171:
 4269              		.loc 1 198 0
 4270 01ba 1A68     		ldr	r2, [r3]
 4271 01bc B265     		str	r2, [r6, #88]
 4272              	.LBE1171:
 4273              	.LBE1170:
 4274              		.loc 1 964 0
 4275 01be 1B68     		ldr	r3, [r3]
ARM GAS  C:\Users\mathi\AppData\Local\Temp\ccOm87JI.s 			page 76


 4276 01c0 6362     		str	r3, [r4, #36]
 4277 01c2 326D     		ldr	r2, [r6, #80]
 4278              	.LVL467:
 4279              	.LBB1172:
 4280              	.LBB1173:
 4281              		.loc 1 172 0
 4282 01c4 1023     		movs	r3, #16
 4283 01c6 1361     		str	r3, [r2, #16]
 4284              	.L405:
 4285              		.loc 1 173 0
 4286 01c8 1569     		ldr	r5, [r2, #16]
 4287 01ca 15F01005 		ands	r5, r5, #16
 4288 01ce FBD1     		bne	.L405
 4289              	.LVL468:
 4290              	.LBB1174:
 4291              	.LBB1175:
 4292              		.loc 5 527 0
 4293 01d0 0C20     		movs	r0, #12
 4294 01d2 FFF7FEFF 		bl	chSysPolledDelayX
 4295              	.LVL469:
 4296              	.LBE1175:
 4297              	.LBE1174:
 4298              	.LBE1173:
 4299              	.LBE1172:
 4300              		.loc 1 968 0
 4301 01d6 D4F80038 		ldr	r3, [r4, #2048]
 4302              		.loc 1 976 0
 4303 01da 194A     		ldr	r2, .L415+4
 4304              		.loc 1 968 0
 4305 01dc 23F4FE63 		bic	r3, r3, #2032
 4306 01e0 C4F80038 		str	r3, [r4, #2048]
 4307              		.loc 1 971 0
 4308 01e4 A369     		ldr	r3, [r4, #24]
 4309 01e6 43F44023 		orr	r3, r3, #786432
 4310 01ea 43F01003 		orr	r3, r3, #16
 4311 01ee A361     		str	r3, [r4, #24]
 4312              		.loc 1 972 0
 4313 01f0 0923     		movs	r3, #9
 4314 01f2 C4F81038 		str	r3, [r4, #2064]
 4315              		.loc 1 973 0
 4316 01f6 C4F81438 		str	r3, [r4, #2068]
 4317              		.loc 1 978 0
 4318 01fa 124B     		ldr	r3, .L415+8
 4319              		.loc 1 976 0
 4320 01fc F260     		str	r2, [r6, #12]
 4321              		.loc 1 977 0
 4322 01fe C4F8105B 		str	r5, [r4, #2832]
 4323              		.loc 1 978 0
 4324 0202 C4F8003B 		str	r3, [r4, #2816]
 4325              		.loc 1 980 0
 4326 0206 C4F81059 		str	r5, [r4, #2320]
 4327              		.loc 1 981 0
 4328 020a C4F80039 		str	r3, [r4, #2304]
 4329 020e D6E91525 		ldrd	r2, r5, [r6, #84]
 4330              	.LVL470:
 4331              	.LBB1176:
 4332              	.LBB1177:
ARM GAS  C:\Users\mathi\AppData\Local\Temp\ccOm87JI.s 			page 77


 4333              		.loc 1 213 0
 4334 0212 05F11003 		add	r3, r5, #16
 4335 0216 B365     		str	r3, [r6, #88]
 4336              		.loc 1 214 0
 4337 0218 5268     		ldr	r2, [r2, #4]
 4338 021a 9342     		cmp	r3, r2
 4339 021c 02D9     		bls	.L406
 4340 021e 0A48     		ldr	r0, .L415+12
 4341 0220 FFF7FEFF 		bl	chSysHalt
 4342              	.LVL471:
 4343              	.L406:
 4344              	.LBE1177:
 4345              	.LBE1176:
 4346              		.loc 1 983 0
 4347 0224 45F48015 		orr	r5, r5, #1048576
 4348 0228 A562     		str	r5, [r4, #40]
 4349              		.loc 1 986 0
 4350 022a 019A     		ldr	r2, [sp, #4]
 4351 022c 3B68     		ldr	r3, [r7]
 4352 022e 9A42     		cmp	r2, r3
 4353 0230 01D1     		bne	.L414
 4354 0232 03B0     		add	sp, sp, #12
 4355              		.cfi_remember_state
 4356              		.cfi_def_cfa_offset 20
 4357              		@ sp needed
 4358 0234 F0BD     		pop	{r4, r5, r6, r7, pc}
 4359              	.LVL472:
 4360              	.L414:
 4361              		.cfi_restore_state
 4362 0236 FFF7FEFF 		bl	__stack_chk_fail
 4363              	.LVL473:
 4364              	.L416:
 4365 023a 00BF     		.align	2
 4366              	.L415:
 4367 023c 00000000 		.word	__stack_chk_guard
 4368 0240 00000000 		.word	.LANCHOR4
 4369 0244 40800010 		.word	268468288
 4370 0248 00000000 		.word	.LANCHOR5
 4371              		.cfi_endproc
 4372              	.LFE277:
 4373              		.size	usb_lld_reset, .-usb_lld_reset
 4374              		.section	.text.usb_lld_set_address,"ax",%progbits
 4375              		.align	1
 4376              		.p2align 4,,15
 4377              		.global	usb_lld_set_address
 4378              		.syntax unified
 4379              		.thumb
 4380              		.thumb_func
 4381              		.fpu fpv4-sp-d16
 4382              		.type	usb_lld_set_address, %function
 4383              	usb_lld_set_address:
 4384              	.LFB278:
 4385              		.loc 1 995 0
 4386              		.cfi_startproc
 4387              		@ args = 0, pretend = 0, frame = 8
 4388              		@ frame_needed = 0, uses_anonymous_args = 0
 4389              	.LVL474:
ARM GAS  C:\Users\mathi\AppData\Local\Temp\ccOm87JI.s 			page 78


 4390 0000 00B5     		push	{lr}
 4391              		.cfi_def_cfa_offset 4
 4392              		.cfi_offset 14, -4
 4393 0002 0C4A     		ldr	r2, .L421
 4394              		.loc 1 996 0
 4395 0004 016D     		ldr	r1, [r0, #80]
 4396              	.LVL475:
 4397              		.loc 1 995 0
 4398 0006 1368     		ldr	r3, [r2]
 4399              		.loc 1 998 0
 4400 0008 90F84E00 		ldrb	r0, [r0, #78]	@ zero_extendqisi2
 4401              	.LVL476:
 4402              		.loc 1 995 0
 4403 000c 83B0     		sub	sp, sp, #12
 4404              		.cfi_def_cfa_offset 16
 4405              		.loc 1 995 0
 4406 000e 0193     		str	r3, [sp, #4]
 4407              		.loc 1 998 0
 4408 0010 D1F80038 		ldr	r3, [r1, #2048]
 4409 0014 23F4FE63 		bic	r3, r3, #2032
 4410 0018 43EA0013 		orr	r3, r3, r0, lsl #4
 4411 001c C1F80038 		str	r3, [r1, #2048]
 4412              		.loc 1 999 0
 4413 0020 0199     		ldr	r1, [sp, #4]
 4414              	.LVL477:
 4415 0022 1368     		ldr	r3, [r2]
 4416 0024 9942     		cmp	r1, r3
 4417 0026 02D1     		bne	.L420
 4418 0028 03B0     		add	sp, sp, #12
 4419              		.cfi_remember_state
 4420              		.cfi_def_cfa_offset 4
 4421              		@ sp needed
 4422 002a 5DF804FB 		ldr	pc, [sp], #4
 4423              	.L420:
 4424              		.cfi_restore_state
 4425 002e FFF7FEFF 		bl	__stack_chk_fail
 4426              	.LVL478:
 4427              	.L422:
 4428 0032 00BF     		.align	2
 4429              	.L421:
 4430 0034 00000000 		.word	__stack_chk_guard
 4431              		.cfi_endproc
 4432              	.LFE278:
 4433              		.size	usb_lld_set_address, .-usb_lld_set_address
 4434              		.section	.text.usb_lld_init_endpoint,"ax",%progbits
 4435              		.align	1
 4436              		.p2align 4,,15
 4437              		.global	usb_lld_init_endpoint
 4438              		.syntax unified
 4439              		.thumb
 4440              		.thumb_func
 4441              		.fpu fpv4-sp-d16
 4442              		.type	usb_lld_init_endpoint, %function
 4443              	usb_lld_init_endpoint:
 4444              	.LFB279:
 4445              		.loc 1 1009 0
 4446              		.cfi_startproc
ARM GAS  C:\Users\mathi\AppData\Local\Temp\ccOm87JI.s 			page 79


 4447              		@ args = 0, pretend = 0, frame = 16
 4448              		@ frame_needed = 0, uses_anonymous_args = 0
 4449              	.LVL479:
 4450 0000 2DE9F04F 		push	{r4, r5, r6, r7, r8, r9, r10, fp, lr}
 4451              		.cfi_def_cfa_offset 36
 4452              		.cfi_offset 4, -36
 4453              		.cfi_offset 5, -32
 4454              		.cfi_offset 6, -28
 4455              		.cfi_offset 7, -24
 4456              		.cfi_offset 8, -20
 4457              		.cfi_offset 9, -16
 4458              		.cfi_offset 10, -12
 4459              		.cfi_offset 11, -8
 4460              		.cfi_offset 14, -4
 4461 0004 0EB2     		sxth	r6, r1
 4462 0006 00EB8608 		add	r8, r0, r6, lsl #2
 4463 000a DFF88891 		ldr	r9, .L443+16
 4464              		.loc 1 1014 0
 4465 000e D8F80C30 		ldr	r3, [r8, #12]
 4466              		.loc 1 1009 0
 4467 0012 D9F80020 		ldr	r2, [r9]
 4468              		.loc 1 1014 0
 4469 0016 1B68     		ldr	r3, [r3]
 4470              		.loc 1 1009 0
 4471 0018 85B0     		sub	sp, sp, #20
 4472              		.cfi_def_cfa_offset 56
 4473              		.loc 1 1014 0
 4474 001a 03F00303 		and	r3, r3, #3
 4475 001e 022B     		cmp	r3, #2
 4476              		.loc 1 1009 0
 4477 0020 0D46     		mov	r5, r1
 4478 0022 0746     		mov	r7, r0
 4479 0024 0392     		str	r2, [sp, #12]
 4480              	.LVL480:
 4481              		.loc 1 1014 0
 4482 0026 00F0A080 		beq	.L425
 4483 002a 032B     		cmp	r3, #3
 4484 002c 00F09A80 		beq	.L426
 4485              		.loc 1 1016 0
 4486 0030 5449     		ldr	r1, .L443
 4487              	.LVL481:
 4488 0032 554A     		ldr	r2, .L443+4
 4489 0034 012B     		cmp	r3, #1
 4490 0036 0CBF     		ite	eq
 4491 0038 8A46     		moveq	r10, r1
 4492 003a 9246     		movne	r10, r2
 4493              	.L427:
 4494              		.loc 1 1011 0
 4495 003c 3C6D     		ldr	r4, [r7, #80]
 4496              	.LVL482:
 4497              		.loc 1 1032 0
 4498 003e 6A01     		lsls	r2, r5, #5
 4499 0040 A318     		adds	r3, r4, r2
 4500 0042 0021     		movs	r1, #0
 4501 0044 C3F8101B 		str	r1, [r3, #2832]
 4502              	.LVL483:
 4503              		.loc 1 1033 0
ARM GAS  C:\Users\mathi\AppData\Local\Temp\ccOm87JI.s 			page 80


 4504 0048 D8F80C00 		ldr	r0, [r8, #12]
 4505              	.LVL484:
 4506 004c C368     		ldr	r3, [r0, #12]
 4507 004e 05F11001 		add	r1, r5, #16
 4508 0052 4FF0010C 		mov	ip, #1
 4509 0056 0CFA01F1 		lsl	r1, ip, r1
 4510 005a 002B     		cmp	r3, #0
 4511 005c 73D0     		beq	.L428
 4512              		.loc 1 1034 0
 4513 005e 408A     		ldrh	r0, [r0, #18]
 4514 0060 05F15803 		add	r3, r5, #88
 4515 0064 5B01     		lsls	r3, r3, #5
 4516 0066 40EA0A00 		orr	r0, r0, r10
 4517 006a E050     		str	r0, [r4, r3]
 4518              		.loc 1 1035 0
 4519 006c D4F81C38 		ldr	r3, [r4, #2076]
 4520 0070 1943     		orrs	r1, r1, r3
 4521 0072 C4F81C18 		str	r1, [r4, #2076]
 4522              	.L429:
 4523              		.loc 1 1043 0
 4524 0076 2244     		add	r2, r2, r4
 4525 0078 0023     		movs	r3, #0
 4526 007a C2F81039 		str	r3, [r2, #2320]
 4527              		.loc 1 1044 0
 4528 007e D8F80C10 		ldr	r1, [r8, #12]
 4529 0082 8A68     		ldr	r2, [r1, #8]
 4530 0084 AB01     		lsls	r3, r5, #6
 4531 0086 43F02003 		orr	r3, r3, #32
 4532 008a 05F1FF3B 		add	fp, r5, #-1
 4533 008e 002A     		cmp	r2, #0
 4534 0090 39D0     		beq	.L430
 4535              		.loc 1 1047 0
 4536 0092 8A8B     		ldrh	r2, [r1, #28]
 4537              		.loc 1 1046 0
 4538 0094 0E8A     		ldrh	r6, [r1, #16]
 4539              		.loc 1 1047 0
 4540 0096 012A     		cmp	r2, #1
 4541              		.loc 1 1046 0
 4542 0098 4FEA9606 		lsr	r6, r6, #2
 4543              	.LVL485:
 4544              		.loc 1 1048 0
 4545 009c 88BF     		it	hi
 4546 009e 5643     		mulhi	r6, r2, r6
 4547              	.LVL486:
 4548 00a0 D7E91512 		ldrd	r1, r2, [r7, #84]
 4549              	.LVL487:
 4550              	.LBB1178:
 4551              	.LBB1179:
 4552              		.loc 1 213 0
 4553 00a4 B018     		adds	r0, r6, r2
 4554 00a6 B865     		str	r0, [r7, #88]
 4555              		.loc 1 214 0
 4556 00a8 4968     		ldr	r1, [r1, #4]
 4557 00aa 8842     		cmp	r0, r1
 4558              	.LBE1179:
 4559              	.LBE1178:
 4560              		.loc 1 1049 0
ARM GAS  C:\Users\mathi\AppData\Local\Temp\ccOm87JI.s 			page 81


 4561 00ac 4FEA0646 		lsl	r6, r6, #16
 4562              	.LVL488:
 4563              	.LBB1182:
 4564              	.LBB1180:
 4565              		.loc 1 214 0
 4566 00b0 5ED8     		bhi	.L441
 4567              	.LVL489:
 4568              	.L432:
 4569              	.LBE1180:
 4570              	.LBE1182:
 4571              		.loc 1 1049 0
 4572 00b2 0BF1400B 		add	fp, fp, #64
 4573 00b6 04EB8B0B 		add	fp, r4, fp, lsl #2
 4574 00ba 1643     		orrs	r6, r6, r2
 4575 00bc CBF80460 		str	r6, [fp, #4]
 4576 00c0 3A6D     		ldr	r2, [r7, #80]
 4577              	.LVL490:
 4578              	.LBB1183:
 4579              	.LBB1184:
 4580              		.loc 1 182 0
 4581 00c2 1361     		str	r3, [r2, #16]
 4582              	.L433:
 4583              		.loc 1 183 0
 4584 00c4 1369     		ldr	r3, [r2, #16]
 4585 00c6 9906     		lsls	r1, r3, #26
 4586 00c8 FCD4     		bmi	.L433
 4587              	.LVL491:
 4588              	.LBB1185:
 4589              	.LBB1186:
 4590              		.loc 5 527 0
 4591 00ca 0C20     		movs	r0, #12
 4592 00cc FFF7FEFF 		bl	chSysPolledDelayX
 4593              	.LVL492:
 4594              	.LBE1186:
 4595              	.LBE1185:
 4596              	.LBE1184:
 4597              	.LBE1183:
 4598              		.loc 1 1055 0
 4599 00d0 D8F80C30 		ldr	r3, [r8, #12]
 4600 00d4 1B8A     		ldrh	r3, [r3, #16]
 4601              		.loc 1 1053 0
 4602 00d6 05F14802 		add	r2, r5, #72
 4603              		.loc 1 1054 0
 4604 00da 43EA8553 		orr	r3, r3, r5, lsl #22
 4605              		.loc 1 1053 0
 4606 00de 5201     		lsls	r2, r2, #5
 4607              		.loc 1 1054 0
 4608 00e0 43EA0A03 		orr	r3, r3, r10
 4609              		.loc 1 1053 0
 4610 00e4 A350     		str	r3, [r4, r2]
 4611              		.loc 1 1056 0
 4612 00e6 0121     		movs	r1, #1
 4613 00e8 D4F81C38 		ldr	r3, [r4, #2076]
 4614 00ec 01FA05F5 		lsl	r5, r1, r5
 4615 00f0 1D43     		orrs	r5, r5, r3
 4616 00f2 C4F81C58 		str	r5, [r4, #2076]
 4617              	.LVL493:
ARM GAS  C:\Users\mathi\AppData\Local\Temp\ccOm87JI.s 			page 82


 4618              	.L423:
 4619              		.loc 1 1064 0
 4620 00f6 039A     		ldr	r2, [sp, #12]
 4621 00f8 D9F80030 		ldr	r3, [r9]
 4622 00fc 9A42     		cmp	r2, r3
 4623 00fe 3FD1     		bne	.L442
 4624 0100 05B0     		add	sp, sp, #20
 4625              		.cfi_remember_state
 4626              		.cfi_def_cfa_offset 36
 4627              		@ sp needed
 4628 0102 BDE8F08F 		pop	{r4, r5, r6, r7, r8, r9, r10, fp, pc}
 4629              	.LVL494:
 4630              	.L430:
 4631              		.cfi_restore_state
 4632              		.loc 1 1059 0
 4633 0106 05F13F02 		add	r2, r5, #63
 4634 010a 04EB8202 		add	r2, r4, r2, lsl #2
 4635 010e 1F49     		ldr	r1, .L443+8
 4636 0110 5160     		str	r1, [r2, #4]
 4637 0112 3A6D     		ldr	r2, [r7, #80]
 4638              	.LVL495:
 4639              	.LBB1187:
 4640              	.LBB1188:
 4641              		.loc 1 182 0
 4642 0114 1361     		str	r3, [r2, #16]
 4643              	.L435:
 4644              		.loc 1 183 0
 4645 0116 1369     		ldr	r3, [r2, #16]
 4646 0118 9B06     		lsls	r3, r3, #26
 4647 011a FCD4     		bmi	.L435
 4648              	.LVL496:
 4649 011c 04EB4616 		add	r6, r4, r6, lsl #5
 4650              	.LBB1189:
 4651              	.LBB1190:
 4652              		.loc 5 527 0
 4653 0120 0C20     		movs	r0, #12
 4654 0122 FFF7FEFF 		bl	chSysPolledDelayX
 4655              	.LVL497:
 4656              	.LBE1190:
 4657              	.LBE1189:
 4658              	.LBE1188:
 4659              	.LBE1187:
 4660              		.loc 1 1061 0
 4661 0126 D6F80039 		ldr	r3, [r6, #2304]
 4662 012a 23F40043 		bic	r3, r3, #32768
 4663 012e C6F80039 		str	r3, [r6, #2304]
 4664              		.loc 1 1062 0
 4665 0132 D4F81C38 		ldr	r3, [r4, #2076]
 4666 0136 0121     		movs	r1, #1
 4667 0138 01FA05F5 		lsl	r5, r1, r5
 4668 013c 23EA0505 		bic	r5, r3, r5
 4669 0140 C4F81C58 		str	r5, [r4, #2076]
 4670 0144 D7E7     		b	.L423
 4671              	.LVL498:
 4672              	.L428:
 4673 0146 04EB4610 		add	r0, r4, r6, lsl #5
 4674              		.loc 1 1038 0
ARM GAS  C:\Users\mathi\AppData\Local\Temp\ccOm87JI.s 			page 83


 4675 014a D0F8003B 		ldr	r3, [r0, #2816]
 4676 014e 23F40043 		bic	r3, r3, #32768
 4677 0152 C0F8003B 		str	r3, [r0, #2816]
 4678              		.loc 1 1039 0
 4679 0156 D4F81C38 		ldr	r3, [r4, #2076]
 4680 015a 23EA0101 		bic	r1, r3, r1
 4681 015e C4F81C18 		str	r1, [r4, #2076]
 4682 0162 88E7     		b	.L429
 4683              	.LVL499:
 4684              	.L426:
 4685              		.loc 1 1025 0
 4686 0164 DFF830A0 		ldr	r10, .L443+20
 4687              		.loc 1 1026 0
 4688 0168 68E7     		b	.L427
 4689              	.LVL500:
 4690              	.L425:
 4691              		.loc 1 1022 0
 4692 016a DFF830A0 		ldr	r10, .L443+24
 4693              		.loc 1 1023 0
 4694 016e 65E7     		b	.L427
 4695              	.LVL501:
 4696              	.L441:
 4697              	.LBB1191:
 4698              	.LBB1181:
 4699              		.loc 1 214 0
 4700 0170 0748     		ldr	r0, .L443+12
 4701 0172 CDE90023 		strd	r2, r3, [sp]
 4702 0176 FFF7FEFF 		bl	chSysHalt
 4703              	.LVL502:
 4704 017a DDE90023 		ldrd	r2, r3, [sp]
 4705 017e 98E7     		b	.L432
 4706              	.LVL503:
 4707              	.L442:
 4708              	.LBE1181:
 4709              	.LBE1191:
 4710              		.loc 1 1064 0
 4711 0180 FFF7FEFF 		bl	__stack_chk_fail
 4712              	.LVL504:
 4713              	.L444:
 4714              		.align	2
 4715              	.L443:
 4716 0184 00800410 		.word	268730368
 4717 0188 00800010 		.word	268468224
 4718 018c 00040002 		.word	33555456
 4719 0190 00000000 		.word	.LANCHOR5
 4720 0194 00000000 		.word	__stack_chk_guard
 4721 0198 00800C10 		.word	269254656
 4722 019c 00800810 		.word	268992512
 4723              		.cfi_endproc
 4724              	.LFE279:
 4725              		.size	usb_lld_init_endpoint, .-usb_lld_init_endpoint
 4726              		.section	.text.usb_lld_disable_endpoints,"ax",%progbits
 4727              		.align	1
 4728              		.p2align 4,,15
 4729              		.global	usb_lld_disable_endpoints
 4730              		.syntax unified
 4731              		.thumb
ARM GAS  C:\Users\mathi\AppData\Local\Temp\ccOm87JI.s 			page 84


 4732              		.thumb_func
 4733              		.fpu fpv4-sp-d16
 4734              		.type	usb_lld_disable_endpoints, %function
 4735              	usb_lld_disable_endpoints:
 4736              	.LFB280:
 4737              		.loc 1 1073 0
 4738              		.cfi_startproc
 4739              		@ args = 0, pretend = 0, frame = 8
 4740              		@ frame_needed = 0, uses_anonymous_args = 0
 4741              	.LVL505:
 4742 0000 2DE9F041 		push	{r4, r5, r6, r7, r8, lr}
 4743              		.cfi_def_cfa_offset 24
 4744              		.cfi_offset 4, -24
 4745              		.cfi_offset 5, -20
 4746              		.cfi_offset 6, -16
 4747              		.cfi_offset 7, -12
 4748              		.cfi_offset 8, -8
 4749              		.cfi_offset 14, -4
 4750              	.LBB1196:
 4751              	.LBB1197:
 4752              		.loc 1 198 0
 4753 0004 426D     		ldr	r2, [r0, #84]
 4754              	.LBE1197:
 4755              	.LBE1196:
 4756              		.loc 1 1073 0
 4757 0006 DFF894E0 		ldr	lr, .L463
 4758              	.LBB1200:
 4759              	.LBB1198:
 4760              		.loc 1 198 0
 4761 000a 1268     		ldr	r2, [r2]
 4762              	.LBE1198:
 4763              	.LBE1200:
 4764              		.loc 1 1073 0
 4765 000c DEF80030 		ldr	r3, [lr]
 4766 0010 066D     		ldr	r6, [r0, #80]
 4767              	.LBB1201:
 4768              	.LBB1199:
 4769              		.loc 1 198 0
 4770 0012 8265     		str	r2, [r0, #88]
 4771              	.LBE1199:
 4772              	.LBE1201:
 4773              		.loc 1 1073 0
 4774 0014 82B0     		sub	sp, sp, #8
 4775              		.cfi_def_cfa_offset 32
 4776              	.LBB1202:
 4777              	.LBB1203:
 4778              		.loc 1 136 0
 4779 0016 0024     		movs	r4, #0
 4780              	.LBE1203:
 4781              	.LBE1202:
 4782              		.loc 1 1073 0
 4783 0018 0193     		str	r3, [sp, #4]
 4784              	.LVL506:
 4785              	.LBB1205:
 4786              	.LBB1204:
 4787              		.loc 1 147 0
 4788 001a 2546     		mov	r5, r4
ARM GAS  C:\Users\mathi\AppData\Local\Temp\ccOm87JI.s 			page 85


 4789              		.loc 1 141 0
 4790 001c 4FF0804C 		mov	ip, #1073741824
 4791              		.loc 1 149 0
 4792 0020 4FF0FF37 		mov	r7, #-1
 4793 0024 17E0     		b	.L452
 4794              	.LVL507:
 4795              	.L446:
 4796              		.loc 1 147 0
 4797 0026 C2F80059 		str	r5, [r2, #2304]
 4798              	.L448:
 4799              		.loc 1 148 0
 4800 002a F118     		adds	r1, r6, r3
 4801 002c C1F81059 		str	r5, [r1, #2320]
 4802              		.loc 1 149 0
 4803 0030 C1F80879 		str	r7, [r1, #2312]
 4804              		.loc 1 155 0
 4805 0034 D2F8008B 		ldr	r8, [r2, #2816]
 4806 0038 B8F1000F 		cmp	r8, #0
 4807 003c 19DB     		blt	.L460
 4808              		.loc 1 162 0
 4809 003e C2F8005B 		str	r5, [r2, #2816]
 4810              	.L451:
 4811              		.loc 1 163 0
 4812 0042 3344     		add	r3, r3, r6
 4813              		.loc 1 136 0
 4814 0044 0134     		adds	r4, r4, #1
 4815              	.LVL508:
 4816              		.loc 1 163 0
 4817 0046 C3F8105B 		str	r5, [r3, #2832]
 4818              		.loc 1 164 0
 4819 004a C3F8087B 		str	r7, [r3, #2824]
 4820              		.loc 1 136 0
 4821 004e 436D     		ldr	r3, [r0, #84]
 4822 0050 9B68     		ldr	r3, [r3, #8]
 4823 0052 9C42     		cmp	r4, r3
 4824 0054 14D8     		bhi	.L461
 4825              	.LVL509:
 4826              	.L452:
 4827 0056 6301     		lsls	r3, r4, #5
 4828 0058 F218     		adds	r2, r6, r3
 4829              		.loc 1 140 0
 4830 005a D2F80019 		ldr	r1, [r2, #2304]
 4831 005e 0029     		cmp	r1, #0
 4832 0060 E1DA     		bge	.L446
 4833              		.loc 1 141 0
 4834 0062 C2F800C9 		str	ip, [r2, #2304]
 4835              		.loc 1 143 0
 4836 0066 9046     		mov	r8, r2
 4837              	.L447:
 4838 0068 D8F80819 		ldr	r1, [r8, #2312]
 4839 006c 8907     		lsls	r1, r1, #30
 4840 006e FBD5     		bpl	.L447
 4841 0070 DBE7     		b	.L448
 4842              	.L460:
 4843              		.loc 1 156 0
 4844 0072 C2F800CB 		str	ip, [r2, #2816]
 4845              	.L450:
ARM GAS  C:\Users\mathi\AppData\Local\Temp\ccOm87JI.s 			page 86


 4846              		.loc 1 158 0
 4847 0076 D1F8082B 		ldr	r2, [r1, #2824]
 4848 007a D206     		lsls	r2, r2, #27
 4849 007c FBD5     		bpl	.L450
 4850 007e E0E7     		b	.L451
 4851              	.L461:
 4852              		.loc 1 166 0
 4853 0080 4FF00113 		mov	r3, #65537
 4854 0084 C6F81C38 		str	r3, [r6, #2076]
 4855              	.LVL510:
 4856              	.LBE1204:
 4857              	.LBE1205:
 4858              		.loc 1 1080 0
 4859 0088 019A     		ldr	r2, [sp, #4]
 4860 008a DEF80030 		ldr	r3, [lr]
 4861 008e 9A42     		cmp	r2, r3
 4862 0090 02D1     		bne	.L462
 4863 0092 02B0     		add	sp, sp, #8
 4864              		.cfi_remember_state
 4865              		.cfi_def_cfa_offset 24
 4866              		@ sp needed
 4867 0094 BDE8F081 		pop	{r4, r5, r6, r7, r8, pc}
 4868              	.L462:
 4869              		.cfi_restore_state
 4870 0098 FFF7FEFF 		bl	__stack_chk_fail
 4871              	.LVL511:
 4872              	.L464:
 4873              		.align	2
 4874              	.L463:
 4875 009c 00000000 		.word	__stack_chk_guard
 4876              		.cfi_endproc
 4877              	.LFE280:
 4878              		.size	usb_lld_disable_endpoints, .-usb_lld_disable_endpoints
 4879              		.section	.text.usb_lld_get_status_out,"ax",%progbits
 4880              		.align	1
 4881              		.p2align 4,,15
 4882              		.global	usb_lld_get_status_out
 4883              		.syntax unified
 4884              		.thumb
 4885              		.thumb_func
 4886              		.fpu fpv4-sp-d16
 4887              		.type	usb_lld_get_status_out, %function
 4888              	usb_lld_get_status_out:
 4889              	.LFB281:
 4890              		.loc 1 1094 0
 4891              		.cfi_startproc
 4892              		@ args = 0, pretend = 0, frame = 8
 4893              		@ frame_needed = 0, uses_anonymous_args = 0
 4894              	.LVL512:
 4895 0000 00B5     		push	{lr}
 4896              		.cfi_def_cfa_offset 4
 4897              		.cfi_offset 14, -4
 4898 0002 0C4A     		ldr	r2, .L472
 4899              		.loc 1 1099 0
 4900 0004 036D     		ldr	r3, [r0, #80]
 4901              		.loc 1 1094 0
 4902 0006 1068     		ldr	r0, [r2]
ARM GAS  C:\Users\mathi\AppData\Local\Temp\ccOm87JI.s 			page 87


 4903              	.LVL513:
 4904 0008 83B0     		sub	sp, sp, #12
 4905              		.cfi_def_cfa_offset 16
 4906              		.loc 1 1099 0
 4907 000a 5831     		adds	r1, r1, #88
 4908              	.LVL514:
 4909 000c 4901     		lsls	r1, r1, #5
 4910              		.loc 1 1094 0
 4911 000e 0190     		str	r0, [sp, #4]
 4912              		.loc 1 1099 0
 4913 0010 5B58     		ldr	r3, [r3, r1]
 4914              	.LVL515:
 4915              		.loc 1 1100 0
 4916 0012 13F40040 		ands	r0, r3, #32768
 4917 0016 04D0     		beq	.L466
 4918              		.loc 1 1102 0
 4919 0018 13F4001F 		tst	r3, #2097152
 4920              		.loc 1 1104 0
 4921 001c 14BF     		ite	ne
 4922 001e 0120     		movne	r0, #1
 4923 0020 0220     		moveq	r0, #2
 4924              	.L466:
 4925              		.loc 1 1105 0
 4926 0022 0199     		ldr	r1, [sp, #4]
 4927 0024 1368     		ldr	r3, [r2]
 4928              	.LVL516:
 4929 0026 9942     		cmp	r1, r3
 4930 0028 02D1     		bne	.L471
 4931 002a 03B0     		add	sp, sp, #12
 4932              		.cfi_remember_state
 4933              		.cfi_def_cfa_offset 4
 4934              		@ sp needed
 4935 002c 5DF804FB 		ldr	pc, [sp], #4
 4936              	.L471:
 4937              		.cfi_restore_state
 4938 0030 FFF7FEFF 		bl	__stack_chk_fail
 4939              	.LVL517:
 4940              	.L473:
 4941              		.align	2
 4942              	.L472:
 4943 0034 00000000 		.word	__stack_chk_guard
 4944              		.cfi_endproc
 4945              	.LFE281:
 4946              		.size	usb_lld_get_status_out, .-usb_lld_get_status_out
 4947              		.section	.text.usb_lld_get_status_in,"ax",%progbits
 4948              		.align	1
 4949              		.p2align 4,,15
 4950              		.global	usb_lld_get_status_in
 4951              		.syntax unified
 4952              		.thumb
 4953              		.thumb_func
 4954              		.fpu fpv4-sp-d16
 4955              		.type	usb_lld_get_status_in, %function
 4956              	usb_lld_get_status_in:
 4957              	.LFB282:
 4958              		.loc 1 1119 0
 4959              		.cfi_startproc
ARM GAS  C:\Users\mathi\AppData\Local\Temp\ccOm87JI.s 			page 88


 4960              		@ args = 0, pretend = 0, frame = 8
 4961              		@ frame_needed = 0, uses_anonymous_args = 0
 4962              	.LVL518:
 4963 0000 00B5     		push	{lr}
 4964              		.cfi_def_cfa_offset 4
 4965              		.cfi_offset 14, -4
 4966 0002 0C4A     		ldr	r2, .L481
 4967              		.loc 1 1124 0
 4968 0004 036D     		ldr	r3, [r0, #80]
 4969              		.loc 1 1119 0
 4970 0006 1068     		ldr	r0, [r2]
 4971              	.LVL519:
 4972 0008 83B0     		sub	sp, sp, #12
 4973              		.cfi_def_cfa_offset 16
 4974              		.loc 1 1124 0
 4975 000a 4831     		adds	r1, r1, #72
 4976              	.LVL520:
 4977 000c 4901     		lsls	r1, r1, #5
 4978              		.loc 1 1119 0
 4979 000e 0190     		str	r0, [sp, #4]
 4980              		.loc 1 1124 0
 4981 0010 5B58     		ldr	r3, [r3, r1]
 4982              	.LVL521:
 4983              		.loc 1 1125 0
 4984 0012 13F40040 		ands	r0, r3, #32768
 4985 0016 04D0     		beq	.L475
 4986              		.loc 1 1127 0
 4987 0018 13F4001F 		tst	r3, #2097152
 4988              		.loc 1 1129 0
 4989 001c 14BF     		ite	ne
 4990 001e 0120     		movne	r0, #1
 4991 0020 0220     		moveq	r0, #2
 4992              	.L475:
 4993              		.loc 1 1130 0
 4994 0022 0199     		ldr	r1, [sp, #4]
 4995 0024 1368     		ldr	r3, [r2]
 4996              	.LVL522:
 4997 0026 9942     		cmp	r1, r3
 4998 0028 02D1     		bne	.L480
 4999 002a 03B0     		add	sp, sp, #12
 5000              		.cfi_remember_state
 5001              		.cfi_def_cfa_offset 4
 5002              		@ sp needed
 5003 002c 5DF804FB 		ldr	pc, [sp], #4
 5004              	.L480:
 5005              		.cfi_restore_state
 5006 0030 FFF7FEFF 		bl	__stack_chk_fail
 5007              	.LVL523:
 5008              	.L482:
 5009              		.align	2
 5010              	.L481:
 5011 0034 00000000 		.word	__stack_chk_guard
 5012              		.cfi_endproc
 5013              	.LFE282:
 5014              		.size	usb_lld_get_status_in, .-usb_lld_get_status_in
 5015              		.section	.text.usb_lld_read_setup,"ax",%progbits
 5016              		.align	1
ARM GAS  C:\Users\mathi\AppData\Local\Temp\ccOm87JI.s 			page 89


 5017              		.p2align 4,,15
 5018              		.global	usb_lld_read_setup
 5019              		.syntax unified
 5020              		.thumb
 5021              		.thumb_func
 5022              		.fpu fpv4-sp-d16
 5023              		.type	usb_lld_read_setup, %function
 5024              	usb_lld_read_setup:
 5025              	.LFB283:
 5026              		.loc 1 1146 0
 5027              		.cfi_startproc
 5028              		@ args = 0, pretend = 0, frame = 8
 5029              		@ frame_needed = 0, uses_anonymous_args = 0
 5030              	.LVL524:
 5031 0000 10B5     		push	{r4, lr}
 5032              		.cfi_def_cfa_offset 8
 5033              		.cfi_offset 4, -8
 5034              		.cfi_offset 14, -4
 5035              		.loc 1 1148 0
 5036 0002 00EB8101 		add	r1, r0, r1, lsl #2
 5037              	.LVL525:
 5038              		.loc 1 1146 0
 5039 0006 094B     		ldr	r3, .L487
 5040              		.loc 1 1148 0
 5041 0008 C968     		ldr	r1, [r1, #12]
 5042              		.loc 1 1146 0
 5043 000a 1868     		ldr	r0, [r3]
 5044              	.LVL526:
 5045              		.loc 1 1148 0
 5046 000c 096A     		ldr	r1, [r1, #32]
 5047              		.loc 1 1146 0
 5048 000e 82B0     		sub	sp, sp, #8
 5049              		.cfi_def_cfa_offset 16
 5050              		.loc 1 1148 0
 5051 0010 0C68     		ldr	r4, [r1]	@ unaligned
 5052              		.loc 1 1146 0
 5053 0012 0190     		str	r0, [sp, #4]
 5054              		.loc 1 1148 0
 5055 0014 4868     		ldr	r0, [r1, #4]	@ unaligned
 5056 0016 1460     		str	r4, [r2]	@ unaligned
 5057              		.loc 1 1149 0
 5058 0018 0199     		ldr	r1, [sp, #4]
 5059 001a 1B68     		ldr	r3, [r3]
 5060              		.loc 1 1148 0
 5061 001c 5060     		str	r0, [r2, #4]	@ unaligned
 5062              		.loc 1 1149 0
 5063 001e 9942     		cmp	r1, r3
 5064 0020 01D1     		bne	.L486
 5065 0022 02B0     		add	sp, sp, #8
 5066              		.cfi_remember_state
 5067              		.cfi_def_cfa_offset 8
 5068              		@ sp needed
 5069 0024 10BD     		pop	{r4, pc}
 5070              	.L486:
 5071              		.cfi_restore_state
 5072 0026 FFF7FEFF 		bl	__stack_chk_fail
 5073              	.LVL527:
ARM GAS  C:\Users\mathi\AppData\Local\Temp\ccOm87JI.s 			page 90


 5074              	.L488:
 5075 002a 00BF     		.align	2
 5076              	.L487:
 5077 002c 00000000 		.word	__stack_chk_guard
 5078              		.cfi_endproc
 5079              	.LFE283:
 5080              		.size	usb_lld_read_setup, .-usb_lld_read_setup
 5081              		.section	.text.usb_lld_prepare_receive,"ax",%progbits
 5082              		.align	1
 5083              		.p2align 4,,15
 5084              		.global	usb_lld_prepare_receive
 5085              		.syntax unified
 5086              		.thumb
 5087              		.thumb_func
 5088              		.fpu fpv4-sp-d16
 5089              		.type	usb_lld_prepare_receive, %function
 5090              	usb_lld_prepare_receive:
 5091              	.LFB284:
 5092              		.loc 1 1159 0
 5093              		.cfi_startproc
 5094              		@ args = 0, pretend = 0, frame = 8
 5095              		@ frame_needed = 0, uses_anonymous_args = 0
 5096              	.LVL528:
 5097 0000 F0B5     		push	{r4, r5, r6, r7, lr}
 5098              		.cfi_def_cfa_offset 20
 5099              		.cfi_offset 4, -20
 5100              		.cfi_offset 5, -16
 5101              		.cfi_offset 6, -12
 5102              		.cfi_offset 7, -8
 5103              		.cfi_offset 14, -4
 5104 0002 00EB8107 		add	r7, r0, r1, lsl #2
 5105 0006 134E     		ldr	r6, .L497
 5106              		.loc 1 1161 0
 5107 0008 FA68     		ldr	r2, [r7, #12]
 5108              		.loc 1 1159 0
 5109 000a 3368     		ldr	r3, [r6]
 5110              		.loc 1 1161 0
 5111 000c 9569     		ldr	r5, [r2, #24]
 5112              	.LVL529:
 5113              		.loc 1 1159 0
 5114 000e 83B0     		sub	sp, sp, #12
 5115              		.cfi_def_cfa_offset 32
 5116              		.loc 1 1164 0
 5117 0010 6A68     		ldr	r2, [r5, #4]
 5118              		.loc 1 1159 0
 5119 0012 0193     		str	r3, [sp, #4]
 5120              		.loc 1 1164 0
 5121 0014 2A61     		str	r2, [r5, #16]
 5122              		.loc 1 1165 0
 5123 0016 29B9     		cbnz	r1, .L495
 5124              		.loc 1 1165 0 is_stmt 0 discriminator 1
 5125 0018 402A     		cmp	r2, #64
 5126 001a 03D9     		bls	.L495
 5127              		.loc 1 1166 0 is_stmt 1
 5128 001c 4022     		movs	r2, #64
 5129 001e 0E4C     		ldr	r4, .L497+4
 5130 0020 6A60     		str	r2, [r5, #4]
ARM GAS  C:\Users\mathi\AppData\Local\Temp\ccOm87JI.s 			page 91


 5131 0022 01E0     		b	.L491
 5132              	.L495:
 5133 0024 42F0C044 		orr	r4, r2, #1610612736
 5134              	.L491:
 5135              		.loc 1 1168 0
 5136 0028 FB68     		ldr	r3, [r7, #12]
 5137              		.loc 1 1170 0
 5138 002a 006D     		ldr	r0, [r0, #80]
 5139              	.LVL530:
 5140              		.loc 1 1168 0
 5141 002c 5D8A     		ldrh	r5, [r3, #18]
 5142              	.LVL531:
 5143              		.loc 1 1170 0
 5144 002e 00EB4111 		add	r1, r0, r1, lsl #5
 5145              	.LVL532:
 5146              		.loc 1 1168 0
 5147 0032 6B1E     		subs	r3, r5, #1
 5148 0034 1344     		add	r3, r3, r2
 5149 0036 B3FBF5F3 		udiv	r3, r3, r5
 5150              		.loc 1 1170 0
 5151 003a 44EAC343 		orr	r3, r4, r3, lsl #19
 5152 003e C1F8103B 		str	r3, [r1, #2832]
 5153              		.loc 1 1173 0
 5154 0042 019A     		ldr	r2, [sp, #4]
 5155              	.LVL533:
 5156 0044 3368     		ldr	r3, [r6]
 5157 0046 9A42     		cmp	r2, r3
 5158 0048 01D1     		bne	.L496
 5159 004a 03B0     		add	sp, sp, #12
 5160              		.cfi_remember_state
 5161              		.cfi_def_cfa_offset 20
 5162              		@ sp needed
 5163 004c F0BD     		pop	{r4, r5, r6, r7, pc}
 5164              	.L496:
 5165              		.cfi_restore_state
 5166 004e FFF7FEFF 		bl	__stack_chk_fail
 5167              	.LVL534:
 5168              	.L498:
 5169 0052 00BF     		.align	2
 5170              	.L497:
 5171 0054 00000000 		.word	__stack_chk_guard
 5172 0058 40000060 		.word	1610612800
 5173              		.cfi_endproc
 5174              	.LFE284:
 5175              		.size	usb_lld_prepare_receive, .-usb_lld_prepare_receive
 5176              		.section	.text.usb_lld_prepare_transmit,"ax",%progbits
 5177              		.align	1
 5178              		.p2align 4,,15
 5179              		.global	usb_lld_prepare_transmit
 5180              		.syntax unified
 5181              		.thumb
 5182              		.thumb_func
 5183              		.fpu fpv4-sp-d16
 5184              		.type	usb_lld_prepare_transmit, %function
 5185              	usb_lld_prepare_transmit:
 5186              	.LFB285:
 5187              		.loc 1 1183 0
ARM GAS  C:\Users\mathi\AppData\Local\Temp\ccOm87JI.s 			page 92


 5188              		.cfi_startproc
 5189              		@ args = 0, pretend = 0, frame = 8
 5190              		@ frame_needed = 0, uses_anonymous_args = 0
 5191              	.LVL535:
 5192 0000 30B5     		push	{r4, r5, lr}
 5193              		.cfi_def_cfa_offset 12
 5194              		.cfi_offset 4, -12
 5195              		.cfi_offset 5, -8
 5196              		.cfi_offset 14, -4
 5197 0002 00EB8105 		add	r5, r0, r1, lsl #2
 5198 0006 164C     		ldr	r4, .L508
 5199              		.loc 1 1184 0
 5200 0008 EA68     		ldr	r2, [r5, #12]
 5201              		.loc 1 1183 0
 5202 000a 2368     		ldr	r3, [r4]
 5203              		.loc 1 1184 0
 5204 000c 5269     		ldr	r2, [r2, #20]
 5205              	.LVL536:
 5206              		.loc 1 1183 0
 5207 000e 83B0     		sub	sp, sp, #12
 5208              		.cfi_def_cfa_offset 24
 5209              		.loc 1 1183 0
 5210 0010 0193     		str	r3, [sp, #4]
 5211              		.loc 1 1187 0
 5212 0012 5368     		ldr	r3, [r2, #4]
 5213 0014 1361     		str	r3, [r2, #16]
 5214              		.loc 1 1188 0
 5215 0016 C3B1     		cbz	r3, .L505
 5216              	.LBB1206:
 5217              		.loc 1 1193 0
 5218 0018 91B1     		cbz	r1, .L506
 5219              	.L502:
 5220              		.loc 1 1197 0
 5221 001a EA68     		ldr	r2, [r5, #12]
 5222              	.LVL537:
 5223              		.loc 1 1199 0
 5224 001c 006D     		ldr	r0, [r0, #80]
 5225              	.LVL538:
 5226              		.loc 1 1197 0
 5227 001e 158A     		ldrh	r5, [r2, #16]
 5228              	.LVL539:
 5229              		.loc 1 1199 0
 5230 0020 00EB4111 		add	r1, r0, r1, lsl #5
 5231              	.LVL540:
 5232              		.loc 1 1197 0
 5233 0024 6A1E     		subs	r2, r5, #1
 5234 0026 1A44     		add	r2, r2, r3
 5235 0028 B2FBF5F2 		udiv	r2, r2, r5
 5236              		.loc 1 1199 0
 5237 002c 43EAC243 		orr	r3, r3, r2, lsl #19
 5238              	.LVL541:
 5239 0030 C1F81039 		str	r3, [r1, #2320]
 5240              	.L499:
 5241              	.LBE1206:
 5242              		.loc 1 1202 0
 5243 0034 019A     		ldr	r2, [sp, #4]
 5244 0036 2368     		ldr	r3, [r4]
ARM GAS  C:\Users\mathi\AppData\Local\Temp\ccOm87JI.s 			page 93


 5245 0038 9A42     		cmp	r2, r3
 5246 003a 0ED1     		bne	.L507
 5247 003c 03B0     		add	sp, sp, #12
 5248              		.cfi_remember_state
 5249              		.cfi_def_cfa_offset 12
 5250              		@ sp needed
 5251 003e 30BD     		pop	{r4, r5, pc}
 5252              	.LVL542:
 5253              	.L506:
 5254              		.cfi_restore_state
 5255              	.LBB1207:
 5256              		.loc 1 1193 0 discriminator 1
 5257 0040 402B     		cmp	r3, #64
 5258              		.loc 1 1194 0 discriminator 1
 5259 0042 84BF     		itt	hi
 5260 0044 4023     		movhi	r3, #64
 5261 0046 5360     		strhi	r3, [r2, #4]
 5262 0048 E7E7     		b	.L502
 5263              	.L505:
 5264              	.LBE1207:
 5265              		.loc 1 1190 0
 5266 004a 036D     		ldr	r3, [r0, #80]
 5267 004c 03EB4111 		add	r1, r3, r1, lsl #5
 5268              	.LVL543:
 5269 0050 4FF40023 		mov	r3, #524288
 5270 0054 C1F81039 		str	r3, [r1, #2320]
 5271 0058 ECE7     		b	.L499
 5272              	.LVL544:
 5273              	.L507:
 5274              		.loc 1 1202 0
 5275 005a FFF7FEFF 		bl	__stack_chk_fail
 5276              	.LVL545:
 5277              	.L509:
 5278 005e 00BF     		.align	2
 5279              	.L508:
 5280 0060 00000000 		.word	__stack_chk_guard
 5281              		.cfi_endproc
 5282              	.LFE285:
 5283              		.size	usb_lld_prepare_transmit, .-usb_lld_prepare_transmit
 5284              		.section	.text.usb_lld_start_out,"ax",%progbits
 5285              		.align	1
 5286              		.p2align 4,,15
 5287              		.global	usb_lld_start_out
 5288              		.syntax unified
 5289              		.thumb
 5290              		.thumb_func
 5291              		.fpu fpv4-sp-d16
 5292              		.type	usb_lld_start_out, %function
 5293              	usb_lld_start_out:
 5294              	.LFB286:
 5295              		.loc 1 1212 0
 5296              		.cfi_startproc
 5297              		@ args = 0, pretend = 0, frame = 8
 5298              		@ frame_needed = 0, uses_anonymous_args = 0
 5299              	.LVL546:
 5300 0000 00B5     		push	{lr}
 5301              		.cfi_def_cfa_offset 4
ARM GAS  C:\Users\mathi\AppData\Local\Temp\ccOm87JI.s 			page 94


 5302              		.cfi_offset 14, -4
 5303 0002 0B4A     		ldr	r2, .L514
 5304 0004 036D     		ldr	r3, [r0, #80]
 5305 0006 83B0     		sub	sp, sp, #12
 5306              		.cfi_def_cfa_offset 16
 5307 0008 03EB4111 		add	r1, r3, r1, lsl #5
 5308              	.LVL547:
 5309              		.loc 1 1212 0
 5310 000c 1368     		ldr	r3, [r2]
 5311 000e 0193     		str	r3, [sp, #4]
 5312              		.loc 1 1214 0
 5313 0010 D1F8003B 		ldr	r3, [r1, #2816]
 5314 0014 43F08063 		orr	r3, r3, #67108864
 5315 0018 C1F8003B 		str	r3, [r1, #2816]
 5316              		.loc 1 1215 0
 5317 001c 0199     		ldr	r1, [sp, #4]
 5318 001e 1368     		ldr	r3, [r2]
 5319 0020 9942     		cmp	r1, r3
 5320 0022 02D1     		bne	.L513
 5321 0024 03B0     		add	sp, sp, #12
 5322              		.cfi_remember_state
 5323              		.cfi_def_cfa_offset 4
 5324              		@ sp needed
 5325 0026 5DF804FB 		ldr	pc, [sp], #4
 5326              	.L513:
 5327              		.cfi_restore_state
 5328 002a FFF7FEFF 		bl	__stack_chk_fail
 5329              	.LVL548:
 5330              	.L515:
 5331 002e 00BF     		.align	2
 5332              	.L514:
 5333 0030 00000000 		.word	__stack_chk_guard
 5334              		.cfi_endproc
 5335              	.LFE286:
 5336              		.size	usb_lld_start_out, .-usb_lld_start_out
 5337              		.section	.text.usb_lld_start_in,"ax",%progbits
 5338              		.align	1
 5339              		.p2align 4,,15
 5340              		.global	usb_lld_start_in
 5341              		.syntax unified
 5342              		.thumb
 5343              		.thumb_func
 5344              		.fpu fpv4-sp-d16
 5345              		.type	usb_lld_start_in, %function
 5346              	usb_lld_start_in:
 5347              	.LFB287:
 5348              		.loc 1 1225 0
 5349              		.cfi_startproc
 5350              		@ args = 0, pretend = 0, frame = 8
 5351              		@ frame_needed = 0, uses_anonymous_args = 0
 5352              	.LVL549:
 5353 0000 30B5     		push	{r4, r5, lr}
 5354              		.cfi_def_cfa_offset 12
 5355              		.cfi_offset 4, -12
 5356              		.cfi_offset 5, -8
 5357              		.cfi_offset 14, -4
 5358 0002 0F4D     		ldr	r5, .L520
ARM GAS  C:\Users\mathi\AppData\Local\Temp\ccOm87JI.s 			page 95


 5359 0004 026D     		ldr	r2, [r0, #80]
 5360 0006 2B68     		ldr	r3, [r5]
 5361 0008 83B0     		sub	sp, sp, #12
 5362              		.cfi_def_cfa_offset 24
 5363 000a 02EB4112 		add	r2, r2, r1, lsl #5
 5364              		.loc 1 1225 0
 5365 000e 0193     		str	r3, [sp, #4]
 5366              		.loc 1 1227 0
 5367 0010 D2F80049 		ldr	r4, [r2, #2304]
 5368 0014 44F00444 		orr	r4, r4, #-2080374784
 5369 0018 C2F80049 		str	r4, [r2, #2304]
 5370              		.loc 1 1228 0
 5371 001c 026D     		ldr	r2, [r0, #80]
 5372 001e 0123     		movs	r3, #1
 5373 0020 D2F83408 		ldr	r0, [r2, #2100]
 5374              	.LVL550:
 5375 0024 03FA01F1 		lsl	r1, r3, r1
 5376              	.LVL551:
 5377 0028 0143     		orrs	r1, r1, r0
 5378 002a C2F83418 		str	r1, [r2, #2100]
 5379              		.loc 1 1229 0
 5380 002e 019A     		ldr	r2, [sp, #4]
 5381 0030 2B68     		ldr	r3, [r5]
 5382 0032 9A42     		cmp	r2, r3
 5383 0034 01D1     		bne	.L519
 5384 0036 03B0     		add	sp, sp, #12
 5385              		.cfi_remember_state
 5386              		.cfi_def_cfa_offset 12
 5387              		@ sp needed
 5388 0038 30BD     		pop	{r4, r5, pc}
 5389              	.L519:
 5390              		.cfi_restore_state
 5391 003a FFF7FEFF 		bl	__stack_chk_fail
 5392              	.LVL552:
 5393              	.L521:
 5394 003e 00BF     		.align	2
 5395              	.L520:
 5396 0040 00000000 		.word	__stack_chk_guard
 5397              		.cfi_endproc
 5398              	.LFE287:
 5399              		.size	usb_lld_start_in, .-usb_lld_start_in
 5400              		.section	.text.usb_lld_stall_out,"ax",%progbits
 5401              		.align	1
 5402              		.p2align 4,,15
 5403              		.global	usb_lld_stall_out
 5404              		.syntax unified
 5405              		.thumb
 5406              		.thumb_func
 5407              		.fpu fpv4-sp-d16
 5408              		.type	usb_lld_stall_out, %function
 5409              	usb_lld_stall_out:
 5410              	.LFB288:
 5411              		.loc 1 1239 0
 5412              		.cfi_startproc
 5413              		@ args = 0, pretend = 0, frame = 8
 5414              		@ frame_needed = 0, uses_anonymous_args = 0
 5415              	.LVL553:
ARM GAS  C:\Users\mathi\AppData\Local\Temp\ccOm87JI.s 			page 96


 5416 0000 00B5     		push	{lr}
 5417              		.cfi_def_cfa_offset 4
 5418              		.cfi_offset 14, -4
 5419 0002 0B4A     		ldr	r2, .L526
 5420 0004 036D     		ldr	r3, [r0, #80]
 5421 0006 83B0     		sub	sp, sp, #12
 5422              		.cfi_def_cfa_offset 16
 5423 0008 03EB4111 		add	r1, r3, r1, lsl #5
 5424              	.LVL554:
 5425              		.loc 1 1239 0
 5426 000c 1368     		ldr	r3, [r2]
 5427 000e 0193     		str	r3, [sp, #4]
 5428              		.loc 1 1241 0
 5429 0010 D1F8003B 		ldr	r3, [r1, #2816]
 5430 0014 43F40013 		orr	r3, r3, #2097152
 5431 0018 C1F8003B 		str	r3, [r1, #2816]
 5432              		.loc 1 1242 0
 5433 001c 0199     		ldr	r1, [sp, #4]
 5434 001e 1368     		ldr	r3, [r2]
 5435 0020 9942     		cmp	r1, r3
 5436 0022 02D1     		bne	.L525
 5437 0024 03B0     		add	sp, sp, #12
 5438              		.cfi_remember_state
 5439              		.cfi_def_cfa_offset 4
 5440              		@ sp needed
 5441 0026 5DF804FB 		ldr	pc, [sp], #4
 5442              	.L525:
 5443              		.cfi_restore_state
 5444 002a FFF7FEFF 		bl	__stack_chk_fail
 5445              	.LVL555:
 5446              	.L527:
 5447 002e 00BF     		.align	2
 5448              	.L526:
 5449 0030 00000000 		.word	__stack_chk_guard
 5450              		.cfi_endproc
 5451              	.LFE288:
 5452              		.size	usb_lld_stall_out, .-usb_lld_stall_out
 5453              		.section	.text.usb_lld_stall_in,"ax",%progbits
 5454              		.align	1
 5455              		.p2align 4,,15
 5456              		.global	usb_lld_stall_in
 5457              		.syntax unified
 5458              		.thumb
 5459              		.thumb_func
 5460              		.fpu fpv4-sp-d16
 5461              		.type	usb_lld_stall_in, %function
 5462              	usb_lld_stall_in:
 5463              	.LFB289:
 5464              		.loc 1 1252 0
 5465              		.cfi_startproc
 5466              		@ args = 0, pretend = 0, frame = 8
 5467              		@ frame_needed = 0, uses_anonymous_args = 0
 5468              	.LVL556:
 5469 0000 00B5     		push	{lr}
 5470              		.cfi_def_cfa_offset 4
 5471              		.cfi_offset 14, -4
 5472 0002 0B4A     		ldr	r2, .L532
ARM GAS  C:\Users\mathi\AppData\Local\Temp\ccOm87JI.s 			page 97


 5473 0004 036D     		ldr	r3, [r0, #80]
 5474 0006 83B0     		sub	sp, sp, #12
 5475              		.cfi_def_cfa_offset 16
 5476 0008 03EB4111 		add	r1, r3, r1, lsl #5
 5477              	.LVL557:
 5478              		.loc 1 1252 0
 5479 000c 1368     		ldr	r3, [r2]
 5480 000e 0193     		str	r3, [sp, #4]
 5481              		.loc 1 1254 0
 5482 0010 D1F80039 		ldr	r3, [r1, #2304]
 5483 0014 43F40013 		orr	r3, r3, #2097152
 5484 0018 C1F80039 		str	r3, [r1, #2304]
 5485              		.loc 1 1255 0
 5486 001c 0199     		ldr	r1, [sp, #4]
 5487 001e 1368     		ldr	r3, [r2]
 5488 0020 9942     		cmp	r1, r3
 5489 0022 02D1     		bne	.L531
 5490 0024 03B0     		add	sp, sp, #12
 5491              		.cfi_remember_state
 5492              		.cfi_def_cfa_offset 4
 5493              		@ sp needed
 5494 0026 5DF804FB 		ldr	pc, [sp], #4
 5495              	.L531:
 5496              		.cfi_restore_state
 5497 002a FFF7FEFF 		bl	__stack_chk_fail
 5498              	.LVL558:
 5499              	.L533:
 5500 002e 00BF     		.align	2
 5501              	.L532:
 5502 0030 00000000 		.word	__stack_chk_guard
 5503              		.cfi_endproc
 5504              	.LFE289:
 5505              		.size	usb_lld_stall_in, .-usb_lld_stall_in
 5506              		.section	.text.usb_lld_clear_out,"ax",%progbits
 5507              		.align	1
 5508              		.p2align 4,,15
 5509              		.global	usb_lld_clear_out
 5510              		.syntax unified
 5511              		.thumb
 5512              		.thumb_func
 5513              		.fpu fpv4-sp-d16
 5514              		.type	usb_lld_clear_out, %function
 5515              	usb_lld_clear_out:
 5516              	.LFB290:
 5517              		.loc 1 1265 0
 5518              		.cfi_startproc
 5519              		@ args = 0, pretend = 0, frame = 8
 5520              		@ frame_needed = 0, uses_anonymous_args = 0
 5521              	.LVL559:
 5522 0000 00B5     		push	{lr}
 5523              		.cfi_def_cfa_offset 4
 5524              		.cfi_offset 14, -4
 5525 0002 0B4A     		ldr	r2, .L538
 5526 0004 036D     		ldr	r3, [r0, #80]
 5527 0006 83B0     		sub	sp, sp, #12
 5528              		.cfi_def_cfa_offset 16
 5529 0008 03EB4111 		add	r1, r3, r1, lsl #5
ARM GAS  C:\Users\mathi\AppData\Local\Temp\ccOm87JI.s 			page 98


 5530              	.LVL560:
 5531              		.loc 1 1265 0
 5532 000c 1368     		ldr	r3, [r2]
 5533 000e 0193     		str	r3, [sp, #4]
 5534              		.loc 1 1267 0
 5535 0010 D1F8003B 		ldr	r3, [r1, #2816]
 5536 0014 23F40013 		bic	r3, r3, #2097152
 5537 0018 C1F8003B 		str	r3, [r1, #2816]
 5538              		.loc 1 1268 0
 5539 001c 0199     		ldr	r1, [sp, #4]
 5540 001e 1368     		ldr	r3, [r2]
 5541 0020 9942     		cmp	r1, r3
 5542 0022 02D1     		bne	.L537
 5543 0024 03B0     		add	sp, sp, #12
 5544              		.cfi_remember_state
 5545              		.cfi_def_cfa_offset 4
 5546              		@ sp needed
 5547 0026 5DF804FB 		ldr	pc, [sp], #4
 5548              	.L537:
 5549              		.cfi_restore_state
 5550 002a FFF7FEFF 		bl	__stack_chk_fail
 5551              	.LVL561:
 5552              	.L539:
 5553 002e 00BF     		.align	2
 5554              	.L538:
 5555 0030 00000000 		.word	__stack_chk_guard
 5556              		.cfi_endproc
 5557              	.LFE290:
 5558              		.size	usb_lld_clear_out, .-usb_lld_clear_out
 5559              		.section	.text.usb_lld_clear_in,"ax",%progbits
 5560              		.align	1
 5561              		.p2align 4,,15
 5562              		.global	usb_lld_clear_in
 5563              		.syntax unified
 5564              		.thumb
 5565              		.thumb_func
 5566              		.fpu fpv4-sp-d16
 5567              		.type	usb_lld_clear_in, %function
 5568              	usb_lld_clear_in:
 5569              	.LFB291:
 5570              		.loc 1 1278 0
 5571              		.cfi_startproc
 5572              		@ args = 0, pretend = 0, frame = 8
 5573              		@ frame_needed = 0, uses_anonymous_args = 0
 5574              	.LVL562:
 5575 0000 00B5     		push	{lr}
 5576              		.cfi_def_cfa_offset 4
 5577              		.cfi_offset 14, -4
 5578 0002 0B4A     		ldr	r2, .L544
 5579 0004 036D     		ldr	r3, [r0, #80]
 5580 0006 83B0     		sub	sp, sp, #12
 5581              		.cfi_def_cfa_offset 16
 5582 0008 03EB4111 		add	r1, r3, r1, lsl #5
 5583              	.LVL563:
 5584              		.loc 1 1278 0
 5585 000c 1368     		ldr	r3, [r2]
 5586 000e 0193     		str	r3, [sp, #4]
ARM GAS  C:\Users\mathi\AppData\Local\Temp\ccOm87JI.s 			page 99


 5587              		.loc 1 1280 0
 5588 0010 D1F80039 		ldr	r3, [r1, #2304]
 5589 0014 23F40013 		bic	r3, r3, #2097152
 5590 0018 C1F80039 		str	r3, [r1, #2304]
 5591              		.loc 1 1281 0
 5592 001c 0199     		ldr	r1, [sp, #4]
 5593 001e 1368     		ldr	r3, [r2]
 5594 0020 9942     		cmp	r1, r3
 5595 0022 02D1     		bne	.L543
 5596 0024 03B0     		add	sp, sp, #12
 5597              		.cfi_remember_state
 5598              		.cfi_def_cfa_offset 4
 5599              		@ sp needed
 5600 0026 5DF804FB 		ldr	pc, [sp], #4
 5601              	.L543:
 5602              		.cfi_restore_state
 5603 002a FFF7FEFF 		bl	__stack_chk_fail
 5604              	.LVL564:
 5605              	.L545:
 5606 002e 00BF     		.align	2
 5607              	.L544:
 5608 0030 00000000 		.word	__stack_chk_guard
 5609              		.cfi_endproc
 5610              	.LFE291:
 5611              		.size	usb_lld_clear_in, .-usb_lld_clear_in
 5612              		.global	USBD1
 5613              		.section	.bss.USBD1,"aw",%nobits
 5614              		.align	3
 5615              		.set	.LANCHOR1,. + 0
 5616              		.type	USBD1, %object
 5617              		.size	USBD1, 608
 5618              	USBD1:
 5619 0000 00000000 		.space	608
 5619      00000000 
 5619      00000000 
 5619      00000000 
 5619      00000000 
 5620              		.section	.bss.ep0_state,"aw",%nobits
 5621              		.align	2
 5622              		.type	ep0_state, %object
 5623              		.size	ep0_state, 20
 5624              	ep0_state:
 5625 0000 00000000 		.space	20
 5625      00000000 
 5625      00000000 
 5625      00000000 
 5625      00000000 
 5626              		.section	.bss.ep0setup_buffer,"aw",%nobits
 5627              		.align	2
 5628              		.type	ep0setup_buffer, %object
 5629              		.size	ep0setup_buffer, 8
 5630              	ep0setup_buffer:
 5631 0000 00000000 		.space	8
 5631      00000000 
 5632              		.section	.rodata.__func__.10295,"a",%progbits
 5633              		.align	2
 5634              		.set	.LANCHOR5,. + 0
ARM GAS  C:\Users\mathi\AppData\Local\Temp\ccOm87JI.s 			page 100


 5635              		.type	__func__.10295, %object
 5636              		.size	__func__.10295, 14
 5637              	__func__.10295:
 5638 0000 6F74675F 		.ascii	"otg_ram_alloc\000"
 5638      72616D5F 
 5638      616C6C6F 
 5638      6300
 5639              		.section	.rodata.__func__.7554,"a",%progbits
 5640              		.align	2
 5641              		.set	.LANCHOR0,. + 0
 5642              		.type	__func__.7554, %object
 5643              		.size	__func__.7554, 12
 5644              	__func__.7554:
 5645 0000 63685379 		.ascii	"chSysUnlock\000"
 5645      73556E6C 
 5645      6F636B00 
 5646              		.section	.rodata.__func__.7721,"a",%progbits
 5647              		.align	2
 5648              		.set	.LANCHOR3,. + 0
 5649              		.type	__func__.7721, %object
 5650              		.size	__func__.7721, 12
 5651              	__func__.7721:
 5652 0000 63685468 		.ascii	"chThdStartI\000"
 5652      64537461 
 5652      72744900 
 5653              		.section	.rodata.ep0config,"a",%progbits
 5654              		.align	2
 5655              		.set	.LANCHOR4,. + 0
 5656              		.type	ep0config, %object
 5657              		.size	ep0config, 36
 5658              	ep0config:
 5659 0000 00000000 		.word	0
 5660 0004 00000000 		.word	_usb_ep0setup
 5661 0008 00000000 		.word	_usb_ep0in
 5662 000c 00000000 		.word	_usb_ep0out
 5663 0010 4000     		.short	64
 5664 0012 4000     		.short	64
 5665 0014 00000000 		.word	ep0_state
 5666 0018 00000000 		.word	ep0_state
 5667 001c 0100     		.short	1
 5668 001e 0000     		.space	2
 5669 0020 00000000 		.word	ep0setup_buffer
 5670              		.section	.rodata.fsparams,"a",%progbits
 5671              		.align	2
 5672              		.set	.LANCHOR2,. + 0
 5673              		.type	fsparams, %object
 5674              		.size	fsparams, 12
 5675              	fsparams:
 5676 0000 80000000 		.word	128
 5677 0004 40010000 		.word	320
 5678 0008 03000000 		.word	3
 5679              		.section	.rodata.usb_lld_pump.str1.4,"aMS",%progbits,1
 5680              		.align	2
 5681              	.LC0:
 5682 0000 7573625F 		.ascii	"usb_lld_pump\000"
 5682      6C6C645F 
 5682      70756D70 
ARM GAS  C:\Users\mathi\AppData\Local\Temp\ccOm87JI.s 			page 101


 5682      00
 5683              		.text
 5684              	.Letext0:
 5685              		.file 7 "c:\\eclipse_e-puck2\\tools\\gcc-arm-none-eabi-7-2017-q4-major-win32\\lib\\gcc\\arm-none-e
 5686              		.file 8 "c:\\eclipse_e-puck2\\tools\\gcc-arm-none-eabi-7-2017-q4-major-win32\\arm-none-eabi\\inclu
 5687              		.file 9 "c:\\eclipse_e-puck2\\tools\\gcc-arm-none-eabi-7-2017-q4-major-win32\\arm-none-eabi\\inclu
 5688              		.file 10 "c:\\eclipse_e-puck2\\tools\\gcc-arm-none-eabi-7-2017-q4-major-win32\\arm-none-eabi\\incl
 5689              		.file 11 "c:\\eclipse_e-puck2\\tools\\gcc-arm-none-eabi-7-2017-q4-major-win32\\arm-none-eabi\\incl
 5690              		.file 12 "c:\\eclipse_e-puck2\\tools\\gcc-arm-none-eabi-7-2017-q4-major-win32\\arm-none-eabi\\incl
 5691              		.file 13 "../../lib/e-puck2_main-processor/ChibiOS//os/rt/ports/ARMCMx/compilers/GCC/chtypes.h"
 5692              		.file 14 "../../lib/e-puck2_main-processor/ChibiOS//os/rt/include/chsystypes.h"
 5693              		.file 15 "../../lib/e-puck2_main-processor/ChibiOS//os/rt/include/chschd.h"
 5694              		.file 16 "../../lib/e-puck2_main-processor/ChibiOS//os/ext/CMSIS/include/core_cm4.h"
 5695              		.file 17 "../../lib/e-puck2_main-processor/ChibiOS//os/ext/CMSIS/ST/system_stm32f4xx.h"
 5696              		.file 18 "../../lib/e-puck2_main-processor/ChibiOS//os/ext/CMSIS/ST/stm32f407xx.h"
 5697              		.file 19 "../../lib/e-puck2_main-processor/ChibiOS//os/rt/ports/ARMCMx/chcore.h"
 5698              		.file 20 "../../lib/e-puck2_main-processor/ChibiOS//os/rt/ports/ARMCMx/chcore_v7m.h"
 5699              		.file 21 "../../lib/e-puck2_main-processor/ChibiOS//os/rt/include/chdebug.h"
 5700              		.file 22 "../../lib/e-puck2_main-processor/ChibiOS//os/rt/include/chtm.h"
 5701              		.file 23 "../../lib/e-puck2_main-processor/ChibiOS//os/rt/include/chstats.h"
 5702              		.file 24 "../../lib/e-puck2_main-processor/ChibiOS//os/rt/include/chsem.h"
 5703              		.file 25 "../../lib/e-puck2_main-processor/ChibiOS//os/rt/include/chmtx.h"
 5704              		.file 26 "../../lib/e-puck2_main-processor/ChibiOS//os/rt/include/chevents.h"
 5705              		.file 27 "../../lib/e-puck2_main-processor/ChibiOS//os/rt/include/chqueues.h"
 5706              		.file 28 "../../lib/e-puck2_main-processor/ChibiOS//os/hal/ports/STM32/STM32F4xx/stm32_dma.h"
 5707              		.file 29 "../../lib/e-puck2_main-processor/ChibiOS//os/hal/include/hal_ioblock.h"
 5708              		.file 30 "../../lib/e-puck2_main-processor/ChibiOS//os/hal/ports/STM32/LLD/GPIOv2/pal_lld.h"
 5709              		.file 31 "../../lib/e-puck2_main-processor/ChibiOS//os/hal/include/adc.h"
 5710              		.file 32 "../../lib/e-puck2_main-processor/ChibiOS//os/hal/ports/STM32/STM32F4xx/adc_lld.h"
 5711              		.file 33 "../../lib/e-puck2_main-processor/ChibiOS//os/hal/include/can.h"
 5712              		.file 34 "../../lib/e-puck2_main-processor/ChibiOS//os/hal/ports/STM32/LLD/can_lld.h"
 5713              		.file 35 "../../lib/e-puck2_main-processor/ChibiOS//os/hal/include/dac.h"
 5714              		.file 36 "../../lib/e-puck2_main-processor/ChibiOS//os/hal/ports/STM32/LLD/DACv1/dac_lld.h"
 5715              		.file 37 "../../lib/e-puck2_main-processor/ChibiOS//os/hal/include/ext.h"
 5716              		.file 38 "../../lib/e-puck2_main-processor/ChibiOS//os/hal/ports/STM32/LLD/ext_lld.h"
 5717              		.file 39 "../../lib/e-puck2_main-processor/ChibiOS//os/hal/include/gpt.h"
 5718              		.file 40 "../../lib/e-puck2_main-processor/ChibiOS//os/hal/ports/STM32/LLD/TIMv1/gpt_lld.h"
 5719              		.file 41 "../../lib/e-puck2_main-processor/ChibiOS//os/hal/ports/STM32/LLD/TIMv1/stm32_tim.h"
 5720              		.file 42 "../../lib/e-puck2_main-processor/ChibiOS//os/hal/include/i2c.h"
 5721              		.file 43 "../../lib/e-puck2_main-processor/ChibiOS//os/hal/ports/STM32/LLD/I2Cv1/i2c_lld.h"
 5722              		.file 44 "../../lib/e-puck2_main-processor/ChibiOS//os/hal/include/i2s.h"
 5723              		.file 45 "../../lib/e-puck2_main-processor/ChibiOS//os/hal/ports/STM32/LLD/SPIv1/i2s_lld.h"
 5724              		.file 46 "../../lib/e-puck2_main-processor/ChibiOS//os/hal/include/pwm.h"
 5725              		.file 47 "../../lib/e-puck2_main-processor/ChibiOS//os/hal/ports/STM32/LLD/TIMv1/pwm_lld.h"
 5726              		.file 48 "../../lib/e-puck2_main-processor/ChibiOS//os/hal/include/serial.h"
 5727              		.file 49 "../../lib/e-puck2_main-processor/ChibiOS//os/hal/ports/STM32/LLD/USARTv1/serial_lld.h"
 5728              		.file 50 "../../lib/e-puck2_main-processor/ChibiOS//os/hal/include/sdc.h"
 5729              		.file 51 "../../lib/e-puck2_main-processor/ChibiOS//os/hal/ports/STM32/LLD/sdc_lld.h"
 5730              		.file 52 "../../lib/e-puck2_main-processor/ChibiOS//os/hal/include/spi.h"
 5731              		.file 53 "../../lib/e-puck2_main-processor/ChibiOS//os/hal/ports/STM32/LLD/SPIv1/spi_lld.h"
 5732              		.file 54 "../../lib/e-puck2_main-processor/ChibiOS//os/hal/include/usb.h"
 5733              		.file 55 "../../lib/e-puck2_main-processor/ChibiOS//os/hal/ports/STM32/LLD/OTGv1/usb_lld.h"
 5734              		.file 56 "../../lib/e-puck2_main-processor/ChibiOS//os/hal/ports/STM32/LLD/OTGv1/stm32_otg.h"
 5735              		.file 57 "../../lib/e-puck2_main-processor/ChibiOS//os/hal/ports/common/ARMCMx/nvic.h"