ARM GAS  C:\Users\mathi\AppData\Local\Temp\ccOm87JI.s 			page 1


   1              		.cpu cortex-m4
   2              		.eabi_attribute 27, 1
   3              		.eabi_attribute 28, 1
   4              		.eabi_attribute 20, 1
   5              		.eabi_attribute 21, 1
   6              		.eabi_attribute 23, 3
   7              		.eabi_attribute 24, 1
   8              		.eabi_attribute 25, 1
   9              		.eabi_attribute 26, 1
  10              		.eabi_attribute 30, 2
  11              		.eabi_attribute 34, 1
  12              		.eabi_attribute 18, 4
  13              		.file	"usb_lld.c"
  14              		.text
  15              	.Ltext0:
  16              		.cfi_sections	.debug_frame
  17              		.section	.text.usb_lld_pump,"ax",%progbits
  18              		.align	1
  19              		.p2align 4,,15
  20              		.global	usb_lld_pump
  21              		.syntax unified
  22              		.thumb
  23              		.thumb_func
  24              		.fpu fpv4-sp-d16
  25              		.type	usb_lld_pump, %function
  26              	usb_lld_pump:
  27              	.LFB292:
  28              		.file 1 "../../lib/e-puck2_main-processor/ChibiOS//os/hal/ports/STM32/LLD/OTGv1/usb_lld.c"
  29              		.loc 1 1294 0
  30              		.cfi_startproc
  31              		@ args = 0, pretend = 0, frame = 32
  32              		@ frame_needed = 0, uses_anonymous_args = 0
  33              	.LVL0:
  34 0000 2DE9F04F 		push	{r4, r5, r6, r7, r8, r9, r10, fp, lr}
  35              		.cfi_def_cfa_offset 36
  36              		.cfi_offset 4, -36
  37              		.cfi_offset 5, -32
  38              		.cfi_offset 6, -28
  39              		.cfi_offset 7, -24
  40              		.cfi_offset 8, -20
  41              		.cfi_offset 9, -16
  42              		.cfi_offset 10, -12
  43              		.cfi_offset 11, -8
  44              		.cfi_offset 14, -4
  45              	.LBB421:
  46              	.LBB422:
  47              		.file 2 "../../lib/e-puck2_main-processor/ChibiOS//os/rt/include/chregistry.h"
  48              		.loc 2 135 0
  49 0004 DFF87CB2 		ldr	fp, .L125+12
  50              	.LBE422:
  51              	.LBE421:
  52              		.loc 1 1294 0
  53 0008 9B4B     		ldr	r3, .L125
  54              	.LBB426:
  55              	.LBB423:
  56              		.loc 2 135 0
  57 000a DBF81820 		ldr	r2, [fp, #24]
ARM GAS  C:\Users\mathi\AppData\Local\Temp\ccOm87JI.s 			page 2


  58              	.LBE423:
  59              	.LBE426:
  60              		.loc 1 1294 0
  61 000e 1B68     		ldr	r3, [r3]
  62              	.LBB427:
  63              	.LBB424:
  64              		.loc 2 135 0
  65 0010 9A49     		ldr	r1, .L125+4
  66              	.LBE424:
  67              	.LBE427:
  68              		.loc 1 1296 0
  69 0012 D0F85090 		ldr	r9, [r0, #80]
  70              	.LBB428:
  71              	.LBB425:
  72              		.loc 2 135 0
  73 0016 9161     		str	r1, [r2, #24]
  74              	.LBE425:
  75              	.LBE428:
  76              		.loc 1 1294 0
  77 0018 89B0     		sub	sp, sp, #36
  78              		.cfi_def_cfa_offset 72
  79              		.loc 1 1294 0
  80 001a 8046     		mov	r8, r0
  81              	.LVL1:
  82 001c 0793     		str	r3, [sp, #28]
  83              	.LBB429:
  84              	.LBB430:
  85              	.LBB431:
  86              	.LBB432:
  87              	.LBB433:
  88              	.LBB434:
  89              		.file 3 "../../lib/e-puck2_main-processor/ChibiOS//os/ext/CMSIS/include/core_cmFunc.h"
  90              		.loc 3 546 0
  91 001e 2023     		movs	r3, #32
  92              		.syntax unified
  93              	@ 546 "../../lib/e-puck2_main-processor/ChibiOS//os/ext/CMSIS/include/core_cmFunc.h" 1
  94 0020 83F31188 		MSR basepri, r3
  95              	@ 0 "" 2
  96              	.LVL2:
  97              		.thumb
  98              		.syntax unified
  99              	.LBE434:
 100              	.LBE433:
 101              	.LBE432:
 102              		.file 4 "../../lib/e-puck2_main-processor/ChibiOS//os/rt/include/chsys.h"
 103              		.loc 4 349 0
 104 0024 FFF7FEFF 		bl	_stats_start_measure_crit_thd
 105              	.LVL3:
 106              		.loc 4 350 0
 107 0028 FFF7FEFF 		bl	_dbg_check_lock
 108              	.LVL4:
 109 002c 08F16003 		add	r3, r8, #96
 110              	.LBE431:
 111              	.LBE430:
 112              	.LBE429:
 113              	.LBB435:
 114              	.LBB436:
ARM GAS  C:\Users\mathi\AppData\Local\Temp\ccOm87JI.s 			page 3


 115              	.LBB437:
 116              	.LBB438:
 117              	.LBB439:
 118              	.LBB440:
 119              	.LBB441:
 120              		.loc 3 546 0
 121 0030 C246     		mov	r10, r8
 122 0032 0593     		str	r3, [sp, #20]
 123 0034 C846     		mov	r8, r9
 124              	.LVL5:
 125              	.L64:
 126              	.LBE441:
 127              	.LBE440:
 128              	.LBE439:
 129              	.LBE438:
 130              	.LBE437:
 131              	.LBE436:
 132              		.loc 1 1307 0
 133 0036 9AF80030 		ldrb	r3, [r10]	@ zero_extendqisi2
 134 003a 012B     		cmp	r3, #1
 135 003c 06D0     		beq	.L2
 136              		.loc 1 1307 0 is_stmt 0 discriminator 1
 137 003e DAF85C30 		ldr	r3, [r10, #92]
 138 0042 63B9     		cbnz	r3, .L3
 139              		.loc 1 1308 0 is_stmt 1
 140 0044 D8F81430 		ldr	r3, [r8, #20]
 141 0048 DA06     		lsls	r2, r3, #27
 142 004a 08D4     		bmi	.L3
 143              	.L2:
 144              		.loc 1 1309 0
 145 004c D8F81830 		ldr	r3, [r8, #24]
 146              	.LBB447:
 147              	.LBB448:
 148              		.file 5 "../../lib/e-puck2_main-processor/ChibiOS//os/hal/osal/rt/osal.h"
 149              		.loc 5 642 0
 150 0050 0598     		ldr	r0, [sp, #20]
 151              	.LBE448:
 152              	.LBE447:
 153              		.loc 1 1309 0
 154 0052 43F01003 		orr	r3, r3, #16
 155 0056 C8F81830 		str	r3, [r8, #24]
 156              	.LBB450:
 157              	.LBB449:
 158              		.loc 5 642 0
 159 005a FFF7FEFF 		bl	chThdSuspendS
 160              	.LVL6:
 161              	.L3:
 162              	.LBE449:
 163              	.LBE450:
 164              	.LBB451:
 165              	.LBB446:
 166              	.LBB445:
 167              		.loc 4 360 0
 168 005e FFF7FEFF 		bl	_dbg_check_unlock
 169              	.LVL7:
 170              		.loc 4 361 0
 171 0062 FFF7FEFF 		bl	_stats_stop_measure_crit_thd
ARM GAS  C:\Users\mathi\AppData\Local\Temp\ccOm87JI.s 			page 4


 172              	.LVL8:
 173              		.loc 4 367 0
 174 0066 DBF80030 		ldr	r3, [fp]
 175 006a 5B45     		cmp	r3, fp
 176 006c 08D0     		beq	.L4
 177 006e DBF81820 		ldr	r2, [fp, #24]
 178 0072 9B68     		ldr	r3, [r3, #8]
 179 0074 9268     		ldr	r2, [r2, #8]
 180 0076 9A42     		cmp	r2, r3
 181 0078 02D2     		bcs	.L4
 182 007a 8148     		ldr	r0, .L125+8
 183 007c FFF7FEFF 		bl	chSysHalt
 184              	.LVL9:
 185              	.L4:
 186              	.LBB444:
 187              	.LBB443:
 188              	.LBB442:
 189              		.loc 3 546 0
 190 0080 0023     		movs	r3, #0
 191              		.syntax unified
 192              	@ 546 "../../lib/e-puck2_main-processor/ChibiOS//os/ext/CMSIS/include/core_cmFunc.h" 1
 193 0082 83F31188 		MSR basepri, r3
 194              	@ 0 "" 2
 195              	.LVL10:
 196              		.thumb
 197              		.syntax unified
 198 0086 1C46     		mov	r4, r3
 199              	.LVL11:
 200              	.L6:
 201              	.LBE442:
 202              	.LBE443:
 203              	.LBE444:
 204              	.LBE445:
 205              	.LBE446:
 206              	.LBE451:
 207              		.loc 1 1318 0
 208 0088 D8F81430 		ldr	r3, [r8, #20]
 209 008c DB06     		lsls	r3, r3, #27
 210 008e 5CD5     		bpl	.L118
 211              	.L30:
 212              	.LVL12:
 213              	.LBB452:
 214              	.LBB453:
 215              		.loc 1 437 0
 216 0090 DAF85010 		ldr	r1, [r10, #80]
 217 0094 0B6A     		ldr	r3, [r1, #32]
 218              	.LVL13:
 219              		.loc 1 438 0
 220 0096 03F4F012 		and	r2, r3, #1966080
 221 009a B2F5802F 		cmp	r2, #262144
 222 009e 24D0     		beq	.L7
 223 00a0 B2F5402F 		cmp	r2, #786432
 224 00a4 F0D1     		bne	.L6
 225              	.LVL14:
 226              		.loc 1 443 0
 227 00a6 03F00F02 		and	r2, r3, #15
 228              	.LVL15:
ARM GAS  C:\Users\mathi\AppData\Local\Temp\ccOm87JI.s 			page 5


 229              		.loc 1 444 0
 230 00aa 0AEB8202 		add	r2, r10, r2, lsl #2
 231              	.LVL16:
 232              		.loc 1 442 0
 233 00ae C3F30A13 		ubfx	r3, r3, #4, #11
 234              	.LVL17:
 235              		.loc 1 444 0
 236 00b2 D268     		ldr	r2, [r2, #12]
 237              	.LBB454:
 238              	.LBB455:
 239              		.loc 1 356 0
 240 00b4 0333     		adds	r3, r3, #3
 241              		.loc 1 358 0
 242 00b6 9B08     		lsrs	r3, r3, #2
 243              	.LBE455:
 244              	.LBE454:
 245              		.loc 1 444 0
 246 00b8 156A     		ldr	r5, [r2, #32]
 247              	.LVL18:
 248              	.LBB460:
 249              	.LBB459:
 250              		.loc 1 358 0
 251 00ba E5D0     		beq	.L6
 252 00bc 01F58051 		add	r1, r1, #4096
 253              	.LVL19:
 254              		.loc 1 357 0
 255 00c0 0222     		movs	r2, #2
 256              	.LVL20:
 257              	.LBB456:
 258              		.loc 1 359 0
 259 00c2 0E68     		ldr	r6, [r1]
 260              	.LVL21:
 261 00c4 581E     		subs	r0, r3, #1
 262              		.loc 1 360 0
 263 00c6 4AB1     		cbz	r2, .L119
 264              	.L11:
 265              		.loc 1 365 0
 266 00c8 0346     		mov	r3, r0
 267              		.loc 1 363 0
 268 00ca 45F8046B 		str	r6, [r5], #4
 269              	.LVL22:
 270              		.loc 1 365 0
 271 00ce 013A     		subs	r2, r2, #1
 272              	.LVL23:
 273              	.LBE456:
 274              		.loc 1 358 0
 275 00d0 002B     		cmp	r3, #0
 276 00d2 D9D0     		beq	.L6
 277              	.LVL24:
 278              	.L117:
 279              	.LBB457:
 280              		.loc 1 359 0
 281 00d4 0E68     		ldr	r6, [r1]
 282              	.LVL25:
 283 00d6 581E     		subs	r0, r3, #1
 284              		.loc 1 360 0
 285 00d8 002A     		cmp	r2, #0
ARM GAS  C:\Users\mathi\AppData\Local\Temp\ccOm87JI.s 			page 6


 286 00da F5D1     		bne	.L11
 287              	.L119:
 288              	.LVL26:
 289              	.LBE457:
 290              		.loc 1 358 0
 291 00dc 0028     		cmp	r0, #0
 292 00de D3D0     		beq	.L6
 293 00e0 023B     		subs	r3, r3, #2
 294              	.LBB458:
 295              		.loc 1 359 0
 296 00e2 0868     		ldr	r0, [r1]
 297              	.LVL27:
 298              	.LBE458:
 299              		.loc 1 358 0
 300 00e4 002B     		cmp	r3, #0
 301 00e6 F5D1     		bne	.L117
 302 00e8 CEE7     		b	.L6
 303              	.LVL28:
 304              	.L7:
 305              	.LBE459:
 306              	.LBE460:
 307              		.loc 1 449 0
 308 00ea 03F00F07 		and	r7, r3, #15
 309 00ee 0AEB8707 		add	r7, r10, r7, lsl #2
 310              		.loc 1 448 0
 311 00f2 C3F30A15 		ubfx	r5, r3, #4, #11
 312              	.LVL29:
 313              		.loc 1 450 0
 314 00f6 FB68     		ldr	r3, [r7, #12]
 315              	.LVL30:
 316 00f8 9869     		ldr	r0, [r3, #24]
 317 00fa 0378     		ldrb	r3, [r0]	@ zero_extendqisi2
 318 00fc C668     		ldr	r6, [r0, #12]
 319 00fe 002B     		cmp	r3, #0
 320 0100 43D1     		bne	.L120
 321              	.LVL31:
 322              	.LBB461:
 323              	.LBB462:
 324              		.loc 1 357 0
 325 0102 D0E90132 		ldrd	r3, r2, [r0, #4]
 326 0106 0333     		adds	r3, r3, #3
 327 0108 9A1A     		subs	r2, r3, r2
 328              		.loc 1 356 0
 329 010a EB1C     		adds	r3, r5, #3
 330              	.LVL32:
 331              		.loc 1 358 0
 332 010c 9B08     		lsrs	r3, r3, #2
 333              		.loc 1 357 0
 334 010e 4FEA9202 		lsr	r2, r2, #2
 335              	.LVL33:
 336              		.loc 1 358 0
 337 0112 0FD0     		beq	.L25
 338 0114 01F58051 		add	r1, r1, #4096
 339              	.LVL34:
 340 0118 8C46     		mov	ip, r1
 341              	.LVL35:
 342              	.L29:
ARM GAS  C:\Users\mathi\AppData\Local\Temp\ccOm87JI.s 			page 7


 343              	.LBB463:
 344              		.loc 1 359 0
 345 011a DCF80010 		ldr	r1, [ip]
 346              	.LVL36:
 347 011e 581E     		subs	r0, r3, #1
 348              		.loc 1 360 0
 349 0120 5AB3     		cbz	r2, .L121
 350              		.loc 1 365 0
 351 0122 0346     		mov	r3, r0
 352              	.LVL37:
 353              		.loc 1 363 0
 354 0124 46F8041B 		str	r1, [r6], #4
 355              	.LVL38:
 356              		.loc 1 365 0
 357 0128 013A     		subs	r2, r2, #1
 358              	.LVL39:
 359              	.LBE463:
 360              		.loc 1 358 0
 361 012a 002B     		cmp	r3, #0
 362 012c F5D1     		bne	.L29
 363              	.LVL40:
 364              	.L114:
 365 012e FB68     		ldr	r3, [r7, #12]
 366 0130 9869     		ldr	r0, [r3, #24]
 367 0132 C668     		ldr	r6, [r0, #12]
 368              	.LVL41:
 369              	.L25:
 370              	.LBE462:
 371              	.LBE461:
 372              		.loc 1 462 0
 373 0134 2E44     		add	r6, r6, r5
 374 0136 C660     		str	r6, [r0, #12]
 375              	.L24:
 376              		.loc 1 464 0
 377 0138 FB68     		ldr	r3, [r7, #12]
 378 013a 9A69     		ldr	r2, [r3, #24]
 379 013c 9368     		ldr	r3, [r2, #8]
 380 013e 2B44     		add	r3, r3, r5
 381 0140 9360     		str	r3, [r2, #8]
 382              	.LBE453:
 383              	.LBE452:
 384              		.loc 1 1318 0
 385 0142 D8F81430 		ldr	r3, [r8, #20]
 386 0146 DB06     		lsls	r3, r3, #27
 387 0148 A2D4     		bmi	.L30
 388              	.LVL42:
 389              	.L118:
 390              		.loc 1 1322 0
 391 014a 0127     		movs	r7, #1
 392              		.loc 1 1323 0
 393 014c DAF85C30 		ldr	r3, [r10, #92]
 394              		.loc 1 1322 0
 395 0150 A740     		lsls	r7, r7, r4
 396              	.LVL43:
 397              		.loc 1 1323 0
 398 0152 1F42     		tst	r7, r3
 399 0154 40F09880 		bne	.L107
ARM GAS  C:\Users\mathi\AppData\Local\Temp\ccOm87JI.s 			page 8


 400 0158 631C     		adds	r3, r4, #1
 401 015a 0293     		str	r3, [sp, #8]
 402              	.LVL44:
 403              	.L31:
 404              		.loc 1 1315 0 discriminator 2
 405 015c DAF85430 		ldr	r3, [r10, #84]
 406 0160 9DF80840 		ldrb	r4, [sp, #8]	@ zero_extendqisi2
 407              	.LVL45:
 408 0164 9B68     		ldr	r3, [r3, #8]
 409 0166 9C42     		cmp	r4, r3
 410 0168 8ED9     		bls	.L6
 411              	.LVL46:
 412              	.LBB488:
 413              	.LBB489:
 414              	.LBB490:
 415              	.LBB491:
 416              	.LBB492:
 417              	.LBB493:
 418              		.loc 3 546 0
 419 016a 2023     		movs	r3, #32
 420              		.syntax unified
 421              	@ 546 "../../lib/e-puck2_main-processor/ChibiOS//os/ext/CMSIS/include/core_cmFunc.h" 1
 422 016c 83F31188 		MSR basepri, r3
 423              	@ 0 "" 2
 424              	.LVL47:
 425              		.thumb
 426              		.syntax unified
 427              	.LBE493:
 428              	.LBE492:
 429              	.LBE491:
 430              		.loc 4 349 0
 431 0170 FFF7FEFF 		bl	_stats_start_measure_crit_thd
 432              	.LVL48:
 433              		.loc 4 350 0
 434 0174 FFF7FEFF 		bl	_dbg_check_lock
 435              	.LVL49:
 436 0178 5DE7     		b	.L64
 437              	.LVL50:
 438              	.L121:
 439              	.LBE490:
 440              	.LBE489:
 441              	.LBE488:
 442              	.LBB494:
 443              	.LBB487:
 444              	.LBB466:
 445              	.LBB465:
 446              		.loc 1 358 0
 447 017a 0028     		cmp	r0, #0
 448 017c D7D0     		beq	.L114
 449 017e 023B     		subs	r3, r3, #2
 450              	.LVL51:
 451              	.LBB464:
 452              		.loc 1 359 0
 453 0180 DCF80010 		ldr	r1, [ip]
 454              	.LVL52:
 455              	.LBE464:
 456              		.loc 1 358 0
ARM GAS  C:\Users\mathi\AppData\Local\Temp\ccOm87JI.s 			page 9


 457 0184 002B     		cmp	r3, #0
 458 0186 C8D1     		bne	.L29
 459 0188 D1E7     		b	.L114
 460              	.LVL53:
 461              	.L120:
 462              	.LBE465:
 463              	.LBE466:
 464              	.LBB467:
 465              	.LBB468:
 466              		.loc 1 386 0
 467 018a 002D     		cmp	r5, #0
 468 018c 4FD0     		beq	.L16
 469 018e 01F58051 		add	r1, r1, #4096
 470              	.LVL54:
 471 0192 2846     		mov	r0, r5
 472              	.LVL55:
 473              	.L15:
 474              	.LBB469:
 475              		.loc 1 390 0
 476 0194 0328     		cmp	r0, #3
 477 0196 D6F814C0 		ldr	ip, [r6, #20]
 478 019a 08D9     		bls	.L17
 479              	.LVL56:
 480              	.L122:
 481              	.LBB470:
 482              		.loc 1 396 0
 483 019c 3369     		ldr	r3, [r6, #16]
 484 019e 6345     		cmp	r3, ip
 485 01a0 05D8     		bhi	.L17
 486              		.loc 1 397 0
 487 01a2 F368     		ldr	r3, [r6, #12]
 488 01a4 7361     		str	r3, [r6, #20]
 489              	.LVL57:
 490              	.LBE470:
 491              		.loc 1 390 0
 492 01a6 0328     		cmp	r0, #3
 493 01a8 D6F814C0 		ldr	ip, [r6, #20]
 494 01ac F6D8     		bhi	.L122
 495              	.LVL58:
 496              	.L17:
 497              		.loc 1 408 0
 498 01ae 0A68     		ldr	r2, [r1]
 499              	.LVL59:
 500              		.loc 1 411 0
 501 01b0 0CF10103 		add	r3, ip, #1
 502 01b4 7361     		str	r3, [r6, #20]
 503 01b6 8CF80020 		strb	r2, [ip]
 504              		.loc 1 412 0
 505 01ba D6E9043C 		ldrd	r3, ip, [r6, #16]
 506 01be 9C45     		cmp	ip, r3
 507              		.loc 1 413 0
 508 01c0 24BF     		itt	cs
 509 01c2 D6F80CC0 		ldrcs	ip, [r6, #12]
 510 01c6 C6F814C0 		strcs	ip, [r6, #20]
 511              	.LVL60:
 512              		.loc 1 410 0
 513 01ca 0128     		cmp	r0, #1
ARM GAS  C:\Users\mathi\AppData\Local\Temp\ccOm87JI.s 			page 10


 514 01cc 2FD0     		beq	.L16
 515              		.loc 1 411 0
 516 01ce 0CF1010E 		add	lr, ip, #1
 517 01d2 130A     		lsrs	r3, r2, #8
 518 01d4 C6F814E0 		str	lr, [r6, #20]
 519 01d8 8CF80030 		strb	r3, [ip]
 520              		.loc 1 412 0
 521 01dc D6E9043C 		ldrd	r3, ip, [r6, #16]
 522 01e0 9C45     		cmp	ip, r3
 523              		.loc 1 413 0
 524 01e2 24BF     		itt	cs
 525 01e4 D6F80CC0 		ldrcs	ip, [r6, #12]
 526 01e8 C6F814C0 		strcs	ip, [r6, #20]
 527              	.LVL61:
 528              		.loc 1 410 0
 529 01ec 0228     		cmp	r0, #2
 530 01ee 1ED0     		beq	.L16
 531              		.loc 1 411 0
 532 01f0 0CF1010E 		add	lr, ip, #1
 533 01f4 130C     		lsrs	r3, r2, #16
 534 01f6 C6F814E0 		str	lr, [r6, #20]
 535 01fa 8CF80030 		strb	r3, [ip]
 536              		.loc 1 412 0
 537 01fe D6E9043C 		ldrd	r3, ip, [r6, #16]
 538 0202 9C45     		cmp	ip, r3
 539              		.loc 1 413 0
 540 0204 24BF     		itt	cs
 541 0206 D6F80CC0 		ldrcs	ip, [r6, #12]
 542 020a C6F814C0 		strcs	ip, [r6, #20]
 543              	.LVL62:
 544              		.loc 1 410 0
 545 020e 0328     		cmp	r0, #3
 546 0210 0DD0     		beq	.L16
 547              	.LVL63:
 548              		.loc 1 411 0
 549 0212 120E     		lsrs	r2, r2, #24
 550              	.LVL64:
 551 0214 0CF10103 		add	r3, ip, #1
 552 0218 7361     		str	r3, [r6, #20]
 553 021a 8CF80020 		strb	r2, [ip]
 554              		.loc 1 412 0
 555 021e D6E90432 		ldrd	r3, r2, [r6, #16]
 556 0222 9A42     		cmp	r2, r3
 557              		.loc 1 413 0
 558 0224 24BF     		itt	cs
 559 0226 F368     		ldrcs	r3, [r6, #12]
 560 0228 7361     		strcs	r3, [r6, #20]
 561              	.LBE469:
 562              		.loc 1 386 0
 563 022a 0438     		subs	r0, r0, #4
 564              	.LVL65:
 565 022c B2D1     		bne	.L15
 566              	.LVL66:
 567              	.L16:
 568              	.LBB471:
 569              	.LBB472:
 570              	.LBB473:
ARM GAS  C:\Users\mathi\AppData\Local\Temp\ccOm87JI.s 			page 11


 571              	.LBB474:
 572              	.LBB475:
 573              	.LBB476:
 574              		.loc 3 546 0
 575 022e 2023     		movs	r3, #32
 576              		.syntax unified
 577              	@ 546 "../../lib/e-puck2_main-processor/ChibiOS//os/ext/CMSIS/include/core_cmFunc.h" 1
 578 0230 83F31188 		MSR basepri, r3
 579              	@ 0 "" 2
 580              	.LVL67:
 581              		.thumb
 582              		.syntax unified
 583              	.LBE476:
 584              	.LBE475:
 585              	.LBE474:
 586              		.loc 4 349 0
 587 0234 FFF7FEFF 		bl	_stats_start_measure_crit_thd
 588              	.LVL68:
 589              		.loc 4 350 0
 590 0238 FFF7FEFF 		bl	_dbg_check_lock
 591              	.LVL69:
 592              	.LBE473:
 593              	.LBE472:
 594              	.LBE471:
 595              		.loc 1 421 0
 596 023c B368     		ldr	r3, [r6, #8]
 597 023e 2B44     		add	r3, r3, r5
 598 0240 B360     		str	r3, [r6, #8]
 599              	.LVL70:
 600              	.LBB477:
 601              	.LBB478:
 602              		.loc 5 764 0
 603 0242 3046     		mov	r0, r6
 604 0244 0021     		movs	r1, #0
 605 0246 FFF7FEFF 		bl	chThdDequeueAllI
 606              	.LVL71:
 607              	.LBE478:
 608              	.LBE477:
 609              	.LBB479:
 610              	.LBB480:
 611              		.loc 5 554 0
 612 024a FFF7FEFF 		bl	chSchRescheduleS
 613              	.LVL72:
 614              	.LBE480:
 615              	.LBE479:
 616              	.LBB481:
 617              	.LBB482:
 618              	.LBB483:
 619              		.loc 4 360 0
 620 024e FFF7FEFF 		bl	_dbg_check_unlock
 621              	.LVL73:
 622              		.loc 4 361 0
 623 0252 FFF7FEFF 		bl	_stats_stop_measure_crit_thd
 624              	.LVL74:
 625              		.loc 4 367 0
 626 0256 DBF80030 		ldr	r3, [fp]
 627 025a 5B45     		cmp	r3, fp
ARM GAS  C:\Users\mathi\AppData\Local\Temp\ccOm87JI.s 			page 12


 628 025c 08D0     		beq	.L23
 629 025e DBF81820 		ldr	r2, [fp, #24]
 630 0262 9B68     		ldr	r3, [r3, #8]
 631 0264 9268     		ldr	r2, [r2, #8]
 632 0266 9A42     		cmp	r2, r3
 633 0268 02D2     		bcs	.L23
 634 026a 0548     		ldr	r0, .L125+8
 635 026c FFF7FEFF 		bl	chSysHalt
 636              	.LVL75:
 637              	.L23:
 638              	.LBB484:
 639              	.LBB485:
 640              	.LBB486:
 641              		.loc 3 546 0
 642 0270 0023     		movs	r3, #0
 643              		.syntax unified
 644              	@ 546 "../../lib/e-puck2_main-processor/ChibiOS//os/ext/CMSIS/include/core_cmFunc.h" 1
 645 0272 83F31188 		MSR basepri, r3
 646              	@ 0 "" 2
 647              	.LVL76:
 648              		.thumb
 649              		.syntax unified
 650 0276 5FE7     		b	.L24
 651              	.L126:
 652              		.align	2
 653              	.L125:
 654 0278 00000000 		.word	__stack_chk_guard
 655 027c 00000000 		.word	.LC0
 656 0280 00000000 		.word	.LANCHOR0
 657 0284 00000000 		.word	ch
 658              	.LVL77:
 659              	.L107:
 660              	.LBE486:
 661              	.LBE485:
 662              	.LBE484:
 663              	.LBE483:
 664              	.LBE482:
 665              	.LBE481:
 666              	.LBE468:
 667              	.LBE467:
 668              	.LBE487:
 669              	.LBE494:
 670              	.LBB495:
 671              	.LBB496:
 672              	.LBB497:
 673              	.LBB498:
 674              	.LBB499:
 675              	.LBB500:
 676              	.LBB501:
 677 0288 2023     		movs	r3, #32
 678              		.syntax unified
 679              	@ 546 "../../lib/e-puck2_main-processor/ChibiOS//os/ext/CMSIS/include/core_cmFunc.h" 1
 680 028a 83F31188 		MSR basepri, r3
 681              	@ 0 "" 2
 682              	.LVL78:
 683              		.thumb
 684              		.syntax unified
ARM GAS  C:\Users\mathi\AppData\Local\Temp\ccOm87JI.s 			page 13


 685              	.LBE501:
 686              	.LBE500:
 687              	.LBE499:
 688              		.loc 4 349 0
 689 028e FFF7FEFF 		bl	_stats_start_measure_crit_thd
 690              	.LVL79:
 691              		.loc 4 350 0
 692 0292 FFF7FEFF 		bl	_dbg_check_lock
 693              	.LVL80:
 694              	.LBE498:
 695              	.LBE497:
 696              	.LBE496:
 697              		.loc 1 1334 0
 698 0296 D8F80830 		ldr	r3, [r8, #8]
 699 029a 23F00103 		bic	r3, r3, #1
 700 029e C8F80830 		str	r3, [r8, #8]
 701              		.loc 1 1335 0
 702 02a2 DAF85C30 		ldr	r3, [r10, #92]
 703 02a6 23EA0703 		bic	r3, r3, r7
 704 02aa CAF85C30 		str	r3, [r10, #92]
 705              	.LBB502:
 706              	.LBB503:
 707              	.LBB504:
 708              		.loc 4 360 0
 709 02ae FFF7FEFF 		bl	_dbg_check_unlock
 710              	.LVL81:
 711              		.loc 4 361 0
 712 02b2 FFF7FEFF 		bl	_stats_stop_measure_crit_thd
 713              	.LVL82:
 714              		.loc 4 367 0
 715 02b6 DBF80030 		ldr	r3, [fp]
 716 02ba 5B45     		cmp	r3, fp
 717 02bc 08D0     		beq	.L32
 718 02be DBF81820 		ldr	r2, [fp, #24]
 719 02c2 9B68     		ldr	r3, [r3, #8]
 720 02c4 9268     		ldr	r2, [r2, #8]
 721 02c6 9A42     		cmp	r2, r3
 722 02c8 02D2     		bcs	.L32
 723 02ca 9548     		ldr	r0, .L127
 724 02cc FFF7FEFF 		bl	chSysHalt
 725              	.LVL83:
 726              	.L32:
 727              	.LBB505:
 728              	.LBB506:
 729              	.LBB507:
 730              		.loc 3 546 0
 731 02d0 0023     		movs	r3, #0
 732              		.syntax unified
 733              	@ 546 "../../lib/e-puck2_main-processor/ChibiOS//os/ext/CMSIS/include/core_cmFunc.h" 1
 734 02d2 83F31188 		MSR basepri, r3
 735              	@ 0 "" 2
 736              	.LVL84:
 737              		.thumb
 738              		.syntax unified
 739 02d6 0AEB8409 		add	r9, r10, r4, lsl #2
 740              	.LBE507:
 741              	.LBE506:
ARM GAS  C:\Users\mathi\AppData\Local\Temp\ccOm87JI.s 			page 14


 742              	.LBE505:
 743              	.LBE504:
 744              	.LBE503:
 745              	.LBE502:
 746              	.LBB508:
 747              	.LBB509:
 748              		.loc 1 488 0
 749 02da D9F80C50 		ldr	r5, [r9, #12]
 750 02de 6B69     		ldr	r3, [r5, #20]
 751 02e0 D3E90121 		ldrd	r2, r1, [r3, #4]
 752 02e4 8A42     		cmp	r2, r1
 753 02e6 40F2FB80 		bls	.L123
 754              		.loc 1 498 0
 755 02ea DAF85000 		ldr	r0, [r10, #80]
 756              		.loc 1 493 0
 757 02ee B5F810E0 		ldrh	lr, [r5, #16]
 758              		.loc 1 498 0
 759 02f2 6601     		lsls	r6, r4, #5
 760 02f4 00EB060C 		add	ip, r0, r6
 761              		.loc 1 492 0
 762 02f8 521A     		subs	r2, r2, r1
 763              	.LVL85:
 764              		.loc 1 498 0
 765 02fa DCF81819 		ldr	r1, [ip, #2328]
 766 02fe 9645     		cmp	lr, r2
 767 0300 7546     		mov	r5, lr
 768 0302 28BF     		it	cs
 769 0304 1546     		movcs	r5, r2
 770              	.LVL86:
 771 0306 8AB2     		uxth	r2, r1
 772 0308 B5EB820F 		cmp	r5, r2, lsl #2
 773 030c 00F2F880 		bhi	.L35
 774 0310 621C     		adds	r2, r4, #1
 775 0312 0292     		str	r2, [sp, #8]
 776 0314 1203     		lsls	r2, r2, #12
 777 0316 CDE90387 		strd	r8, r7, [sp, #12]
 778 031a 0192     		str	r2, [sp, #4]
 779 031c B046     		mov	r8, r6
 780              	.LVL87:
 781              	.L36:
 782 031e 0199     		ldr	r1, [sp, #4]
 783              		.loc 1 505 0
 784 0320 1A78     		ldrb	r2, [r3]	@ zero_extendqisi2
 785 0322 DC68     		ldr	r4, [r3, #12]
 786 0324 0844     		add	r0, r0, r1
 787 0326 002A     		cmp	r2, #0
 788 0328 00F0C180 		beq	.L39
 789              	.LVL88:
 790              	.LBB510:
 791              	.LBB511:
 792              		.loc 1 274 0
 793 032c 05B3     		cbz	r5, .L49
 794 032e 2A46     		mov	r2, r5
 795              	.LVL89:
 796              	.L55:
 797              	.LBB512:
 798              		.loc 1 278 0
ARM GAS  C:\Users\mathi\AppData\Local\Temp\ccOm87JI.s 			page 15


 799 0330 5FEA920C 		lsrs	ip, r2, #2
 800              	.LVL90:
 801 0334 2669     		ldr	r6, [r4, #16]
 802 0336 A369     		ldr	r3, [r4, #24]
 803 0338 00F08980 		beq	.L41
 804              	.LVL91:
 805              	.LBB513:
 806              		.loc 1 280 0
 807 033c F11A     		subs	r1, r6, r3
 808 033e 48BF     		it	mi
 809 0340 0331     		addmi	r1, r1, #3
 810 0342 8F10     		asrs	r7, r1, #2
 811              		.loc 1 282 0
 812 0344 6745     		cmp	r7, ip
 813 0346 28BF     		it	cs
 814 0348 6746     		movcs	r7, ip
 815              	.LVL92:
 816 034a B900     		lsls	r1, r7, #2
 817 034c 521A     		subs	r2, r2, r1
 818              	.LVL93:
 819              	.LBB514:
 820              	.LBB515:
 821              		.loc 1 233 0
 822 034e 002F     		cmp	r7, #0
 823 0350 00F0C080 		beq	.L69
 824 0354 1944     		add	r1, r1, r3
 825              	.LVL94:
 826              	.L44:
 827              		.loc 1 236 0
 828 0356 53F8046B 		ldr	r6, [r3], #4
 829              	.LVL95:
 830 035a 0660     		str	r6, [r0]
 831              	.LVL96:
 832              		.loc 1 233 0
 833 035c 8B42     		cmp	r3, r1
 834 035e FAD1     		bne	.L44
 835 0360 2669     		ldr	r6, [r4, #16]
 836              	.LVL97:
 837              	.L43:
 838              	.LBE515:
 839              	.LBE514:
 840              		.loc 1 283 0
 841 0362 A161     		str	r1, [r4, #24]
 842              		.loc 1 284 0
 843 0364 B142     		cmp	r1, r6
 844 0366 6FD3     		bcc	.L45
 845              		.loc 1 285 0
 846 0368 E368     		ldr	r3, [r4, #12]
 847 036a A361     		str	r3, [r4, #24]
 848              	.LBE513:
 849              	.LBE512:
 850              		.loc 1 274 0
 851 036c 002A     		cmp	r2, #0
 852 036e DFD1     		bne	.L55
 853              	.LVL98:
 854              	.L49:
 855              	.LBB519:
ARM GAS  C:\Users\mathi\AppData\Local\Temp\ccOm87JI.s 			page 16


 856              	.LBB520:
 857              	.LBB521:
 858              	.LBB522:
 859              	.LBB523:
 860              	.LBB524:
 861              		.loc 3 546 0
 862 0370 2023     		movs	r3, #32
 863              		.syntax unified
 864              	@ 546 "../../lib/e-puck2_main-processor/ChibiOS//os/ext/CMSIS/include/core_cmFunc.h" 1
 865 0372 83F31188 		MSR basepri, r3
 866              	@ 0 "" 2
 867              	.LVL99:
 868              		.thumb
 869              		.syntax unified
 870              	.LBE524:
 871              	.LBE523:
 872              	.LBE522:
 873              		.loc 4 349 0
 874 0376 FFF7FEFF 		bl	_stats_start_measure_crit_thd
 875              	.LVL100:
 876              		.loc 4 350 0
 877 037a FFF7FEFF 		bl	_dbg_check_lock
 878              	.LVL101:
 879              	.LBE521:
 880              	.LBE520:
 881              	.LBE519:
 882              		.loc 1 310 0
 883 037e A368     		ldr	r3, [r4, #8]
 884 0380 2B44     		add	r3, r3, r5
 885 0382 A360     		str	r3, [r4, #8]
 886              	.LVL102:
 887              	.LBB525:
 888              	.LBB526:
 889              		.loc 5 764 0
 890 0384 2046     		mov	r0, r4
 891 0386 0021     		movs	r1, #0
 892 0388 FFF7FEFF 		bl	chThdDequeueAllI
 893              	.LVL103:
 894              	.LBE526:
 895              	.LBE525:
 896              	.LBB527:
 897              	.LBB528:
 898              		.loc 5 554 0
 899 038c FFF7FEFF 		bl	chSchRescheduleS
 900              	.LVL104:
 901              	.LBE528:
 902              	.LBE527:
 903              	.LBB529:
 904              	.LBB530:
 905              	.LBB531:
 906              		.loc 4 360 0
 907 0390 FFF7FEFF 		bl	_dbg_check_unlock
 908              	.LVL105:
 909              		.loc 4 361 0
 910 0394 FFF7FEFF 		bl	_stats_stop_measure_crit_thd
 911              	.LVL106:
 912              		.loc 4 367 0
ARM GAS  C:\Users\mathi\AppData\Local\Temp\ccOm87JI.s 			page 17


 913 0398 DBF80030 		ldr	r3, [fp]
 914 039c 5B45     		cmp	r3, fp
 915 039e 08D0     		beq	.L56
 916 03a0 DBF81820 		ldr	r2, [fp, #24]
 917 03a4 9B68     		ldr	r3, [r3, #8]
 918 03a6 9268     		ldr	r2, [r2, #8]
 919 03a8 9A42     		cmp	r2, r3
 920 03aa 02D2     		bcs	.L56
 921 03ac 5C48     		ldr	r0, .L127
 922 03ae FFF7FEFF 		bl	chSysHalt
 923              	.LVL107:
 924              	.L56:
 925              	.LBB532:
 926              	.LBB533:
 927              	.LBB534:
 928              		.loc 3 546 0
 929 03b2 0023     		movs	r3, #0
 930              		.syntax unified
 931              	@ 546 "../../lib/e-puck2_main-processor/ChibiOS//os/ext/CMSIS/include/core_cmFunc.h" 1
 932 03b4 83F31188 		MSR basepri, r3
 933              	@ 0 "" 2
 934              	.LVL108:
 935              		.thumb
 936              		.syntax unified
 937              	.L57:
 938              	.LBE534:
 939              	.LBE533:
 940              	.LBE532:
 941              	.LBE531:
 942              	.LBE530:
 943              	.LBE529:
 944              	.LBE511:
 945              	.LBE510:
 946              		.loc 1 521 0
 947 03b8 D9F80C30 		ldr	r3, [r9, #12]
 948 03bc 5A69     		ldr	r2, [r3, #20]
 949 03be 9368     		ldr	r3, [r2, #8]
 950 03c0 1D44     		add	r5, r5, r3
 951              	.LVL109:
 952 03c2 9560     		str	r5, [r2, #8]
 953              		.loc 1 488 0
 954 03c4 D9F80C40 		ldr	r4, [r9, #12]
 955 03c8 6369     		ldr	r3, [r4, #20]
 956 03ca D3E90121 		ldrd	r2, r1, [r3, #4]
 957 03ce 9142     		cmp	r1, r2
 958 03d0 80F08280 		bcs	.L124
 959              		.loc 1 498 0
 960 03d4 DAF85000 		ldr	r0, [r10, #80]
 961              		.loc 1 493 0
 962 03d8 258A     		ldrh	r5, [r4, #16]
 963              		.loc 1 498 0
 964 03da 00EB0804 		add	r4, r0, r8
 965              		.loc 1 492 0
 966 03de 521A     		subs	r2, r2, r1
 967              	.LVL110:
 968              		.loc 1 498 0
 969 03e0 D4F81819 		ldr	r1, [r4, #2328]
ARM GAS  C:\Users\mathi\AppData\Local\Temp\ccOm87JI.s 			page 18


 970 03e4 9542     		cmp	r5, r2
 971 03e6 28BF     		it	cs
 972 03e8 1546     		movcs	r5, r2
 973              	.LVL111:
 974 03ea 8AB2     		uxth	r2, r1
 975 03ec B5EB820F 		cmp	r5, r2, lsl #2
 976 03f0 95D9     		bls	.L36
 977 03f2 DDE90387 		ldrd	r8, r7, [sp, #12]
 978              		.loc 1 499 0
 979 03f6 0024     		movs	r4, #0
 980              	.LVL112:
 981              	.L38:
 982              	.LBE509:
 983              	.LBE508:
 984              	.LBB546:
 985              	.LBB547:
 986              	.LBB548:
 987              	.LBB549:
 988              	.LBB550:
 989              	.LBB551:
 990              		.loc 3 546 0
 991 03f8 2023     		movs	r3, #32
 992              		.syntax unified
 993              	@ 546 "../../lib/e-puck2_main-processor/ChibiOS//os/ext/CMSIS/include/core_cmFunc.h" 1
 994 03fa 83F31188 		MSR basepri, r3
 995              	@ 0 "" 2
 996              	.LVL113:
 997              		.thumb
 998              		.syntax unified
 999              	.LBE551:
 1000              	.LBE550:
 1001              	.LBE549:
 1002              		.loc 4 349 0
 1003 03fe FFF7FEFF 		bl	_stats_start_measure_crit_thd
 1004              	.LVL114:
 1005              		.loc 4 350 0
 1006 0402 FFF7FEFF 		bl	_dbg_check_lock
 1007              	.LVL115:
 1008              	.LBE548:
 1009              	.LBE547:
 1010              	.LBE546:
 1011              		.loc 1 1341 0
 1012 0406 D8F80830 		ldr	r3, [r8, #8]
 1013 040a 43F00103 		orr	r3, r3, #1
 1014 040e C8F80830 		str	r3, [r8, #8]
 1015              		.loc 1 1342 0
 1016 0412 24B9     		cbnz	r4, .L34
 1017              	.L37:
 1018              		.loc 1 1343 0
 1019 0414 D8F83438 		ldr	r3, [r8, #2100]
 1020 0418 1F43     		orrs	r7, r7, r3
 1021 041a C8F83478 		str	r7, [r8, #2100]
 1022              	.L34:
 1023              	.LBB562:
 1024              	.LBB563:
 1025              	.LBB564:
 1026              		.loc 4 360 0
ARM GAS  C:\Users\mathi\AppData\Local\Temp\ccOm87JI.s 			page 19


 1027 041e FFF7FEFF 		bl	_dbg_check_unlock
 1028              	.LVL116:
 1029              		.loc 4 361 0
 1030 0422 FFF7FEFF 		bl	_stats_stop_measure_crit_thd
 1031              	.LVL117:
 1032              		.loc 4 367 0
 1033 0426 DBF80030 		ldr	r3, [fp]
 1034 042a 5B45     		cmp	r3, fp
 1035 042c 08D0     		beq	.L61
 1036 042e DBF81820 		ldr	r2, [fp, #24]
 1037 0432 9B68     		ldr	r3, [r3, #8]
 1038 0434 9268     		ldr	r2, [r2, #8]
 1039 0436 9A42     		cmp	r2, r3
 1040 0438 02D2     		bcs	.L61
 1041 043a 3948     		ldr	r0, .L127
 1042 043c FFF7FEFF 		bl	chSysHalt
 1043              	.LVL118:
 1044              	.L61:
 1045              	.LBB565:
 1046              	.LBB566:
 1047              	.LBB567:
 1048              		.loc 3 546 0
 1049 0440 0023     		movs	r3, #0
 1050              		.syntax unified
 1051              	@ 546 "../../lib/e-puck2_main-processor/ChibiOS//os/ext/CMSIS/include/core_cmFunc.h" 1
 1052 0442 83F31188 		MSR basepri, r3
 1053              	@ 0 "" 2
 1054              	.LVL119:
 1055              		.thumb
 1056              		.syntax unified
 1057 0446 89E6     		b	.L31
 1058              	.LVL120:
 1059              	.L45:
 1060              	.LBE567:
 1061              	.LBE566:
 1062              	.LBE565:
 1063              	.LBE564:
 1064              	.LBE563:
 1065              	.LBE562:
 1066              	.LBB568:
 1067              	.LBB545:
 1068              	.LBB539:
 1069              	.LBB537:
 1070              	.LBB535:
 1071              		.loc 1 292 0
 1072 0448 002A     		cmp	r2, #0
 1073 044a 91D0     		beq	.L49
 1074 044c 0B46     		mov	r3, r1
 1075              	.LVL121:
 1076              	.L41:
 1077              		.loc 1 299 0
 1078 044e 591C     		adds	r1, r3, #1
 1079              		.loc 1 300 0
 1080 0450 B142     		cmp	r1, r6
 1081              		.loc 1 299 0
 1082 0452 A161     		str	r1, [r4, #24]
 1083              		.loc 1 301 0
ARM GAS  C:\Users\mathi\AppData\Local\Temp\ccOm87JI.s 			page 20


 1084 0454 28BF     		it	cs
 1085 0456 E168     		ldrcs	r1, [r4, #12]
 1086              		.loc 1 299 0
 1087 0458 1B78     		ldrb	r3, [r3]	@ zero_extendqisi2
 1088              	.LVL122:
 1089              		.loc 1 301 0
 1090 045a 28BF     		it	cs
 1091 045c A161     		strcs	r1, [r4, #24]
 1092              	.LVL123:
 1093              		.loc 1 298 0
 1094 045e 012A     		cmp	r2, #1
 1095 0460 36D0     		beq	.L115
 1096              		.loc 1 299 0
 1097 0462 4F1C     		adds	r7, r1, #1
 1098 0464 A761     		str	r7, [r4, #24]
 1099              		.loc 1 300 0
 1100 0466 B742     		cmp	r7, r6
 1101              		.loc 1 299 0
 1102 0468 0978     		ldrb	r1, [r1]	@ zero_extendqisi2
 1103              		.loc 1 301 0
 1104 046a 24BF     		itt	cs
 1105 046c E768     		ldrcs	r7, [r4, #12]
 1106 046e A761     		strcs	r7, [r4, #24]
 1107              		.loc 1 298 0
 1108 0470 022A     		cmp	r2, #2
 1109              		.loc 1 299 0
 1110 0472 43EA0123 		orr	r3, r3, r1, lsl #8
 1111              	.LVL124:
 1112              		.loc 1 298 0
 1113 0476 2BD0     		beq	.L115
 1114              		.loc 1 299 0
 1115 0478 791C     		adds	r1, r7, #1
 1116 047a A161     		str	r1, [r4, #24]
 1117              		.loc 1 300 0
 1118 047c B142     		cmp	r1, r6
 1119              		.loc 1 299 0
 1120 047e 3F78     		ldrb	r7, [r7]	@ zero_extendqisi2
 1121              		.loc 1 301 0
 1122 0480 24BF     		itt	cs
 1123 0482 E168     		ldrcs	r1, [r4, #12]
 1124 0484 A161     		strcs	r1, [r4, #24]
 1125              		.loc 1 298 0
 1126 0486 032A     		cmp	r2, #3
 1127              		.loc 1 299 0
 1128 0488 43EA0743 		orr	r3, r3, r7, lsl #16
 1129              	.LVL125:
 1130              		.loc 1 298 0
 1131 048c 20D0     		beq	.L115
 1132              		.loc 1 299 0
 1133 048e 4F1C     		adds	r7, r1, #1
 1134 0490 A761     		str	r7, [r4, #24]
 1135 0492 0978     		ldrb	r1, [r1]	@ zero_extendqisi2
 1136              		.loc 1 300 0
 1137 0494 B742     		cmp	r7, r6
 1138              		.loc 1 299 0
 1139 0496 43EA0163 		orr	r3, r3, r1, lsl #24
 1140              	.LVL126:
ARM GAS  C:\Users\mathi\AppData\Local\Temp\ccOm87JI.s 			page 21


 1141              		.loc 1 302 0
 1142 049a A2F10402 		sub	r2, r2, #4
 1143              	.LVL127:
 1144              		.loc 1 301 0
 1145 049e 24BF     		itt	cs
 1146 04a0 E168     		ldrcs	r1, [r4, #12]
 1147 04a2 A161     		strcs	r1, [r4, #24]
 1148              		.loc 1 305 0
 1149 04a4 0360     		str	r3, [r0]
 1150              	.LBE535:
 1151              		.loc 1 274 0
 1152 04a6 002A     		cmp	r2, #0
 1153 04a8 7FF442AF 		bne	.L55
 1154 04ac 60E7     		b	.L49
 1155              	.LVL128:
 1156              	.L39:
 1157              	.LBE537:
 1158              	.LBE539:
 1159              	.LBB540:
 1160              	.LBB541:
 1161              		.loc 1 256 0
 1162 04ae EA1C     		adds	r2, r5, #3
 1163              	.LVL129:
 1164              	.LBB542:
 1165              	.LBB543:
 1166              		.loc 1 233 0
 1167 04b0 9208     		lsrs	r2, r2, #2
 1168              	.LVL130:
 1169 04b2 09D0     		beq	.L58
 1170 04b4 04EB8203 		add	r3, r4, r2, lsl #2
 1171              	.LVL131:
 1172              	.L59:
 1173              		.loc 1 236 0
 1174 04b8 54F8042B 		ldr	r2, [r4], #4
 1175              	.LVL132:
 1176 04bc 0260     		str	r2, [r0]
 1177              	.LVL133:
 1178              		.loc 1 233 0
 1179 04be 9C42     		cmp	r4, r3
 1180 04c0 FAD1     		bne	.L59
 1181 04c2 D9F80C30 		ldr	r3, [r9, #12]
 1182 04c6 5B69     		ldr	r3, [r3, #20]
 1183              	.LVL134:
 1184              	.L58:
 1185              	.LBE543:
 1186              	.LBE542:
 1187              	.LBE541:
 1188              	.LBE540:
 1189              		.loc 1 516 0
 1190 04c8 DA68     		ldr	r2, [r3, #12]
 1191 04ca 2A44     		add	r2, r2, r5
 1192 04cc DA60     		str	r2, [r3, #12]
 1193 04ce 73E7     		b	.L57
 1194              	.LVL135:
 1195              	.L115:
 1196              	.LBB544:
 1197              	.LBB538:
ARM GAS  C:\Users\mathi\AppData\Local\Temp\ccOm87JI.s 			page 22


 1198              	.LBB536:
 1199              		.loc 1 305 0
 1200 04d0 0360     		str	r3, [r0]
 1201              	.LVL136:
 1202 04d2 4DE7     		b	.L49
 1203              	.LVL137:
 1204              	.L69:
 1205              	.LBB518:
 1206              	.LBB517:
 1207              	.LBB516:
 1208              		.loc 1 233 0
 1209 04d4 1946     		mov	r1, r3
 1210 04d6 44E7     		b	.L43
 1211              	.LVL138:
 1212              	.L124:
 1213 04d8 DDE90387 		ldrd	r8, r7, [sp, #12]
 1214              	.LBE516:
 1215              	.LBE517:
 1216              	.LBE518:
 1217              	.LBE536:
 1218              	.LBE538:
 1219              	.LBE544:
 1220              		.loc 1 489 0
 1221 04dc 0124     		movs	r4, #1
 1222 04de 8BE7     		b	.L38
 1223              	.LVL139:
 1224              	.L123:
 1225              	.LBE545:
 1226              	.LBE568:
 1227              	.LBB569:
 1228              	.LBB560:
 1229              	.LBB558:
 1230              	.LBB556:
 1231              	.LBB554:
 1232              	.LBB552:
 1233              		.loc 3 546 0
 1234 04e0 2023     		movs	r3, #32
 1235              		.syntax unified
 1236              	@ 546 "../../lib/e-puck2_main-processor/ChibiOS//os/ext/CMSIS/include/core_cmFunc.h" 1
 1237 04e2 83F31188 		MSR basepri, r3
 1238              	@ 0 "" 2
 1239              	.LVL140:
 1240              		.thumb
 1241              		.syntax unified
 1242              	.LBE552:
 1243              	.LBE554:
 1244              	.LBE556:
 1245              		.loc 4 349 0
 1246 04e6 FFF7FEFF 		bl	_stats_start_measure_crit_thd
 1247              	.LVL141:
 1248              		.loc 4 350 0
 1249 04ea FFF7FEFF 		bl	_dbg_check_lock
 1250              	.LVL142:
 1251              	.LBE558:
 1252              	.LBE560:
 1253              	.LBE569:
 1254              		.loc 1 1341 0
ARM GAS  C:\Users\mathi\AppData\Local\Temp\ccOm87JI.s 			page 23


 1255 04ee D8F80830 		ldr	r3, [r8, #8]
 1256 04f2 621C     		adds	r2, r4, #1
 1257 04f4 43F00103 		orr	r3, r3, #1
 1258 04f8 0292     		str	r2, [sp, #8]
 1259 04fa C8F80830 		str	r3, [r8, #8]
 1260 04fe 8EE7     		b	.L34
 1261              	.LVL143:
 1262              	.L35:
 1263              	.LBB570:
 1264              	.LBB561:
 1265              	.LBB559:
 1266              	.LBB557:
 1267              	.LBB555:
 1268              	.LBB553:
 1269              		.loc 3 546 0
 1270 0500 2023     		movs	r3, #32
 1271              		.syntax unified
 1272              	@ 546 "../../lib/e-puck2_main-processor/ChibiOS//os/ext/CMSIS/include/core_cmFunc.h" 1
 1273 0502 83F31188 		MSR basepri, r3
 1274              	@ 0 "" 2
 1275              	.LVL144:
 1276              		.thumb
 1277              		.syntax unified
 1278              	.LBE553:
 1279              	.LBE555:
 1280              	.LBE557:
 1281              		.loc 4 349 0
 1282 0506 FFF7FEFF 		bl	_stats_start_measure_crit_thd
 1283              	.LVL145:
 1284              		.loc 4 350 0
 1285 050a FFF7FEFF 		bl	_dbg_check_lock
 1286              	.LVL146:
 1287              	.LBE559:
 1288              	.LBE561:
 1289              	.LBE570:
 1290              		.loc 1 1341 0
 1291 050e D8F80830 		ldr	r3, [r8, #8]
 1292 0512 621C     		adds	r2, r4, #1
 1293 0514 43F00103 		orr	r3, r3, #1
 1294 0518 0292     		str	r2, [sp, #8]
 1295 051a C8F80830 		str	r3, [r8, #8]
 1296 051e 79E7     		b	.L37
 1297              	.L128:
 1298              		.align	2
 1299              	.L127:
 1300 0520 00000000 		.word	.LANCHOR0
 1301              	.LBE495:
 1302              	.LBE435:
 1303              		.cfi_endproc
 1304              	.LFE292:
 1305              		.size	usb_lld_pump, .-usb_lld_pump
 1306              		.section	.text.Vector14C,"ax",%progbits
 1307              		.align	1
 1308              		.p2align 4,,15
 1309              		.global	Vector14C
 1310              		.syntax unified
 1311              		.thumb
ARM GAS  C:\Users\mathi\AppData\Local\Temp\ccOm87JI.s 			page 24


 1312              		.thumb_func
 1313              		.fpu fpv4-sp-d16
 1314              		.type	Vector14C, %function
 1315              	Vector14C:
 1316              	.LFB273:
 1317              		.loc 1 706 0
 1318              		.cfi_startproc
 1319              		@ args = 0, pretend = 0, frame = 8
 1320              		@ frame_needed = 0, uses_anonymous_args = 0
 1321 0000 2DE9F043 		push	{r4, r5, r6, r7, r8, r9, lr}
 1322              		.cfi_def_cfa_offset 28
 1323              		.cfi_offset 4, -28
 1324              		.cfi_offset 5, -24
 1325              		.cfi_offset 6, -20
 1326              		.cfi_offset 7, -16
 1327              		.cfi_offset 8, -12
 1328              		.cfi_offset 9, -8
 1329              		.cfi_offset 14, -4
 1330 0004 A54F     		ldr	r7, .L331
 1331              	.LBB817:
 1332              	.LBB818:
 1333              		.loc 1 624 0
 1334 0006 A64E     		ldr	r6, .L331+4
 1335              	.LBE818:
 1336              	.LBE817:
 1337              		.loc 1 706 0
 1338 0008 3B68     		ldr	r3, [r7]
 1339 000a 83B0     		sub	sp, sp, #12
 1340              		.cfi_def_cfa_offset 40
 1341              		.loc 1 706 0
 1342 000c 0193     		str	r3, [sp, #4]
 1343              		.loc 1 708 0
 1344 000e FFF7FEFF 		bl	_stats_increase_irq
 1345              	.LVL147:
 1346 0012 FFF7FEFF 		bl	_dbg_check_enter_isr
 1347              	.LVL148:
 1348              	.LBB1127:
 1349              	.LBB1125:
 1350              		.loc 1 624 0
 1351 0016 356D     		ldr	r5, [r6, #80]
 1352              	.LVL149:
 1353              		.loc 1 627 0
 1354 0018 6C69     		ldr	r4, [r5, #20]
 1355              	.LVL150:
 1356              		.loc 1 628 0
 1357 001a AB69     		ldr	r3, [r5, #24]
 1358 001c 1C40     		ands	r4, r4, r3
 1359              	.LVL151:
 1360              		.loc 1 632 0
 1361 001e E204     		lsls	r2, r4, #19
 1362              		.loc 1 629 0
 1363 0020 6C61     		str	r4, [r5, #20]
 1364              		.loc 1 632 0
 1365 0022 4BD4     		bmi	.L307
 1366              	.L131:
 1367              		.loc 1 638 0
 1368 0024 A304     		lsls	r3, r4, #18
ARM GAS  C:\Users\mathi\AppData\Local\Temp\ccOm87JI.s 			page 25


 1369              		.loc 1 639 0
 1370 0026 48BF     		it	mi
 1371 0028 D5F80838 		ldrmi	r3, [r5, #2056]
 1372              		.loc 1 643 0
 1373 002c 2007     		lsls	r0, r4, #28
 1374 002e 04D5     		bpl	.L134
 1375              		.loc 1 644 0
 1376 0030 7368     		ldr	r3, [r6, #4]
 1377 0032 DB68     		ldr	r3, [r3, #12]
 1378 0034 0BB1     		cbz	r3, .L134
 1379 0036 9A48     		ldr	r0, .L331+4
 1380 0038 9847     		blx	r3
 1381              	.LVL152:
 1382              	.L134:
 1383              		.loc 1 648 0
 1384 003a E106     		lsls	r1, r4, #27
 1385 003c 27D4     		bmi	.L308
 1386              	.L135:
 1387              		.loc 1 659 0
 1388 003e 6203     		lsls	r2, r4, #13
 1389              		.loc 1 658 0
 1390 0040 D5F81858 		ldr	r5, [r5, #2072]
 1391              	.LVL153:
 1392              		.loc 1 659 0
 1393 0044 0BD5     		bpl	.L137
 1394              		.loc 1 660 0
 1395 0046 EB07     		lsls	r3, r5, #31
 1396 0048 00F12E81 		bmi	.L309
 1397              	.L139:
 1398              		.loc 1 662 0
 1399 004c AA07     		lsls	r2, r5, #30
 1400 004e 00F16D81 		bmi	.L310
 1401              	.L147:
 1402              		.loc 1 664 0
 1403 0052 6907     		lsls	r1, r5, #29
 1404 0054 00F1AC81 		bmi	.L311
 1405              	.L154:
 1406              		.loc 1 666 0
 1407 0058 2807     		lsls	r0, r5, #28
 1408 005a 00F1DC80 		bmi	.L312
 1409              	.L137:
 1410              		.loc 1 675 0
 1411 005e 2303     		lsls	r3, r4, #12
 1412 0060 09D5     		bpl	.L166
 1413              		.loc 1 676 0
 1414 0062 EC03     		lsls	r4, r5, #15
 1415              	.LVL154:
 1416 0064 5BD4     		bmi	.L313
 1417              	.L168:
 1418              		.loc 1 678 0
 1419 0066 AA03     		lsls	r2, r5, #14
 1420 0068 00F18180 		bmi	.L314
 1421              	.L175:
 1422              		.loc 1 680 0
 1423 006c 6903     		lsls	r1, r5, #13
 1424 006e 00F1A880 		bmi	.L315
 1425              	.L180:
ARM GAS  C:\Users\mathi\AppData\Local\Temp\ccOm87JI.s 			page 26


 1426              		.loc 1 682 0
 1427 0072 2C03     		lsls	r4, r5, #12
 1428 0074 2DD4     		bmi	.L316
 1429              	.LVL155:
 1430              	.L166:
 1431              	.LBE1125:
 1432              	.LBE1127:
 1433              		.loc 1 712 0
 1434 0076 FFF7FEFF 		bl	_dbg_check_leave_isr
 1435              	.LVL156:
 1436 007a 019A     		ldr	r2, [sp, #4]
 1437 007c 3B68     		ldr	r3, [r7]
 1438 007e 9A42     		cmp	r2, r3
 1439 0080 40F07183 		bne	.L317
 1440              		.loc 1 713 0
 1441 0084 03B0     		add	sp, sp, #12
 1442              		.cfi_remember_state
 1443              		.cfi_def_cfa_offset 28
 1444              		@ sp needed
 1445 0086 BDE8F043 		pop	{r4, r5, r6, r7, r8, r9, lr}
 1446              		.cfi_restore 14
 1447              		.cfi_restore 9
 1448              		.cfi_restore 8
 1449              		.cfi_restore 7
 1450              		.cfi_restore 6
 1451              		.cfi_restore 5
 1452              		.cfi_restore 4
 1453              		.cfi_def_cfa_offset 0
 1454              		.loc 1 712 0
 1455 008a FFF7FEBF 		b	_port_irq_epilogue
 1456              	.LVL157:
 1457              	.L308:
 1458              		.cfi_restore_state
 1459              	.LBB1128:
 1460              	.LBB1126:
 1461              	.LBB819:
 1462              	.LBB820:
 1463              	.LBB821:
 1464              	.LBB822:
 1465              	.LBB823:
 1466              	.LBB824:
 1467              	.LBB825:
 1468              		.loc 3 546 0
 1469 008e 2023     		movs	r3, #32
 1470              		.syntax unified
 1471              	@ 546 "../../lib/e-puck2_main-processor/ChibiOS//os/ext/CMSIS/include/core_cmFunc.h" 1
 1472 0090 83F31188 		MSR basepri, r3
 1473              	@ 0 "" 2
 1474              	.LVL158:
 1475              		.thumb
 1476              		.syntax unified
 1477              	.LBE825:
 1478              	.LBE824:
 1479              	.LBE823:
 1480              	.LBE822:
 1481              		.loc 4 389 0
 1482 0094 FFF7FEFF 		bl	_stats_start_measure_crit_isr
ARM GAS  C:\Users\mathi\AppData\Local\Temp\ccOm87JI.s 			page 27


 1483              	.LVL159:
 1484              		.loc 4 390 0
 1485 0098 FFF7FEFF 		bl	_dbg_check_lock_from_isr
 1486              	.LVL160:
 1487              	.LBE821:
 1488              	.LBE820:
 1489              	.LBE819:
 1490              		.loc 1 652 0
 1491 009c AB69     		ldr	r3, [r5, #24]
 1492              	.LBB826:
 1493              	.LBB827:
 1494              		.loc 5 682 0
 1495 009e 8148     		ldr	r0, .L331+8
 1496              	.LBE827:
 1497              	.LBE826:
 1498              		.loc 1 652 0
 1499 00a0 23F01003 		bic	r3, r3, #16
 1500 00a4 AB61     		str	r3, [r5, #24]
 1501              	.LVL161:
 1502              	.LBB829:
 1503              	.LBB828:
 1504              		.loc 5 682 0
 1505 00a6 0021     		movs	r1, #0
 1506 00a8 FFF7FEFF 		bl	chThdResumeI
 1507              	.LVL162:
 1508              	.LBE828:
 1509              	.LBE829:
 1510              	.LBB830:
 1511              	.LBB831:
 1512              	.LBB832:
 1513              		.loc 4 408 0
 1514 00ac FFF7FEFF 		bl	_dbg_check_unlock_from_isr
 1515              	.LVL163:
 1516              		.loc 4 409 0
 1517 00b0 FFF7FEFF 		bl	_stats_stop_measure_crit_isr
 1518              	.LVL164:
 1519              	.LBB833:
 1520              	.LBB834:
 1521              	.LBB835:
 1522              	.LBB836:
 1523              		.loc 3 546 0
 1524 00b4 0023     		movs	r3, #0
 1525              		.syntax unified
 1526              	@ 546 "../../lib/e-puck2_main-processor/ChibiOS//os/ext/CMSIS/include/core_cmFunc.h" 1
 1527 00b6 83F31188 		MSR basepri, r3
 1528              	@ 0 "" 2
 1529              	.LVL165:
 1530              		.thumb
 1531              		.syntax unified
 1532 00ba C0E7     		b	.L135
 1533              	.L307:
 1534              	.LBE836:
 1535              	.LBE835:
 1536              	.LBE834:
 1537              	.LBE833:
 1538              	.LBE832:
 1539              	.LBE831:
ARM GAS  C:\Users\mathi\AppData\Local\Temp\ccOm87JI.s 			page 28


 1540              	.LBE830:
 1541              		.loc 1 633 0
 1542 00bc 3046     		mov	r0, r6
 1543 00be FFF7FEFF 		bl	_usb_reset
 1544              	.LVL166:
 1545              		.loc 1 634 0
 1546 00c2 7368     		ldr	r3, [r6, #4]
 1547 00c4 1B68     		ldr	r3, [r3]
 1548 00c6 002B     		cmp	r3, #0
 1549 00c8 ACD0     		beq	.L131
 1550 00ca 0021     		movs	r1, #0
 1551 00cc 3046     		mov	r0, r6
 1552 00ce 9847     		blx	r3
 1553              	.LVL167:
 1554 00d0 A8E7     		b	.L131
 1555              	.LVL168:
 1556              	.L316:
 1557              	.LBB837:
 1558              	.LBB838:
 1559              		.loc 1 582 0
 1560 00d2 346D     		ldr	r4, [r6, #80]
 1561              	.LVL169:
 1562              		.loc 1 583 0
 1563 00d4 D4F8685B 		ldr	r5, [r4, #2920]
 1564              	.LVL170:
 1565              		.loc 1 586 0
 1566 00d8 C4F8685B 		str	r5, [r4, #2920]
 1567              		.loc 1 588 0
 1568 00dc 2807     		lsls	r0, r5, #28
 1569 00de 08D5     		bpl	.L185
 1570 00e0 D4F81438 		ldr	r3, [r4, #2068]
 1571 00e4 1907     		lsls	r1, r3, #28
 1572 00e6 04D5     		bpl	.L185
 1573              		.loc 1 591 0
 1574 00e8 B369     		ldr	r3, [r6, #24]
 1575 00ea 6D48     		ldr	r0, .L331+4
 1576 00ec 5B68     		ldr	r3, [r3, #4]
 1577 00ee 0321     		movs	r1, #3
 1578 00f0 9847     		blx	r3
 1579              	.LVL171:
 1580              	.L185:
 1581              		.loc 1 594 0
 1582 00f2 EA07     		lsls	r2, r5, #31
 1583 00f4 BFD5     		bpl	.L166
 1584 00f6 D4F81438 		ldr	r3, [r4, #2068]
 1585 00fa DB07     		lsls	r3, r3, #31
 1586 00fc BBD5     		bpl	.L166
 1587              	.LBB839:
 1588              		.loc 1 596 0
 1589 00fe B269     		ldr	r2, [r6, #24]
 1590 0100 9369     		ldr	r3, [r2, #24]
 1591              	.LVL172:
 1592              		.loc 1 598 0
 1593 0102 5868     		ldr	r0, [r3, #4]
 1594 0104 1969     		ldr	r1, [r3, #16]
 1595 0106 8842     		cmp	r0, r1
 1596 0108 C0F01782 		bcc	.L318
ARM GAS  C:\Users\mathi\AppData\Local\Temp\ccOm87JI.s 			page 29


 1597              		.loc 1 611 0
 1598 010c 7389     		ldrh	r3, [r6, #10]
 1599              	.LVL173:
 1600 010e D268     		ldr	r2, [r2, #12]
 1601              	.LVL174:
 1602 0110 6348     		ldr	r0, .L331+4
 1603 0112 23F00803 		bic	r3, r3, #8
 1604 0116 7381     		strh	r3, [r6, #10]	@ movhi
 1605 0118 0321     		movs	r1, #3
 1606 011a 9047     		blx	r2
 1607              	.LVL175:
 1608 011c ABE7     		b	.L166
 1609              	.LVL176:
 1610              	.L313:
 1611              	.LBE839:
 1612              	.LBE838:
 1613              	.LBE837:
 1614              	.LBB858:
 1615              	.LBB859:
 1616              		.loc 1 582 0
 1617 011e 346D     		ldr	r4, [r6, #80]
 1618              	.LVL177:
 1619              		.loc 1 583 0
 1620 0120 D4F8088B 		ldr	r8, [r4, #2824]
 1621              	.LVL178:
 1622              		.loc 1 586 0
 1623 0124 C4F8088B 		str	r8, [r4, #2824]
 1624              		.loc 1 588 0
 1625 0128 18F0080F 		tst	r8, #8
 1626 012c 08D0     		beq	.L169
 1627 012e D4F81438 		ldr	r3, [r4, #2068]
 1628 0132 1807     		lsls	r0, r3, #28
 1629 0134 04D5     		bpl	.L169
 1630              		.loc 1 591 0
 1631 0136 F368     		ldr	r3, [r6, #12]
 1632 0138 5948     		ldr	r0, .L331+4
 1633 013a 5B68     		ldr	r3, [r3, #4]
 1634 013c 0021     		movs	r1, #0
 1635 013e 9847     		blx	r3
 1636              	.LVL179:
 1637              	.L169:
 1638              		.loc 1 594 0
 1639 0140 18F0010F 		tst	r8, #1
 1640 0144 8FD0     		beq	.L168
 1641 0146 D4F81438 		ldr	r3, [r4, #2068]
 1642 014a D907     		lsls	r1, r3, #31
 1643 014c 8BD5     		bpl	.L168
 1644              	.LBB860:
 1645              		.loc 1 596 0
 1646 014e F268     		ldr	r2, [r6, #12]
 1647 0150 9369     		ldr	r3, [r2, #24]
 1648              	.LVL180:
 1649              		.loc 1 598 0
 1650 0152 5868     		ldr	r0, [r3, #4]
 1651 0154 1969     		ldr	r1, [r3, #16]
 1652 0156 8842     		cmp	r0, r1
 1653 0158 C0F0C081 		bcc	.L319
ARM GAS  C:\Users\mathi\AppData\Local\Temp\ccOm87JI.s 			page 30


 1654              		.loc 1 611 0
 1655 015c 7389     		ldrh	r3, [r6, #10]
 1656              	.LVL181:
 1657 015e D268     		ldr	r2, [r2, #12]
 1658              	.LVL182:
 1659 0160 4F48     		ldr	r0, .L331+4
 1660 0162 23F00103 		bic	r3, r3, #1
 1661 0166 7381     		strh	r3, [r6, #10]	@ movhi
 1662 0168 0021     		movs	r1, #0
 1663 016a 9047     		blx	r2
 1664              	.LVL183:
 1665 016c 7BE7     		b	.L168
 1666              	.LVL184:
 1667              	.L314:
 1668              	.LBE860:
 1669              	.LBE859:
 1670              	.LBE858:
 1671              	.LBB879:
 1672              	.LBB880:
 1673              		.loc 1 582 0
 1674 016e 346D     		ldr	r4, [r6, #80]
 1675              	.LVL185:
 1676              		.loc 1 583 0
 1677 0170 D4F8288B 		ldr	r8, [r4, #2856]
 1678              	.LVL186:
 1679              		.loc 1 586 0
 1680 0174 C4F8288B 		str	r8, [r4, #2856]
 1681              		.loc 1 588 0
 1682 0178 18F0080F 		tst	r8, #8
 1683 017c 08D0     		beq	.L176
 1684 017e D4F81438 		ldr	r3, [r4, #2068]
 1685 0182 1B07     		lsls	r3, r3, #28
 1686 0184 04D5     		bpl	.L176
 1687              		.loc 1 591 0
 1688 0186 3369     		ldr	r3, [r6, #16]
 1689 0188 4548     		ldr	r0, .L331+4
 1690 018a 5B68     		ldr	r3, [r3, #4]
 1691 018c 0121     		movs	r1, #1
 1692 018e 9847     		blx	r3
 1693              	.LVL187:
 1694              	.L176:
 1695              		.loc 1 594 0
 1696 0190 18F0010F 		tst	r8, #1
 1697 0194 3FF46AAF 		beq	.L175
 1698 0198 D4F81438 		ldr	r3, [r4, #2068]
 1699 019c D807     		lsls	r0, r3, #31
 1700 019e 7FF565AF 		bpl	.L175
 1701              	.LBB881:
 1702              		.loc 1 596 0
 1703 01a2 3269     		ldr	r2, [r6, #16]
 1704 01a4 9369     		ldr	r3, [r2, #24]
 1705              	.LVL188:
 1706              		.loc 1 598 0
 1707 01a6 5868     		ldr	r0, [r3, #4]
 1708 01a8 1969     		ldr	r1, [r3, #16]
 1709 01aa 8842     		cmp	r0, r1
 1710 01ac C0F06C81 		bcc	.L320
ARM GAS  C:\Users\mathi\AppData\Local\Temp\ccOm87JI.s 			page 31


 1711              		.loc 1 611 0
 1712 01b0 7389     		ldrh	r3, [r6, #10]
 1713              	.LVL189:
 1714 01b2 D268     		ldr	r2, [r2, #12]
 1715              	.LVL190:
 1716 01b4 3A48     		ldr	r0, .L331+4
 1717 01b6 23F00203 		bic	r3, r3, #2
 1718 01ba 7381     		strh	r3, [r6, #10]	@ movhi
 1719 01bc 0121     		movs	r1, #1
 1720 01be 9047     		blx	r2
 1721              	.LVL191:
 1722 01c0 54E7     		b	.L175
 1723              	.LVL192:
 1724              	.L315:
 1725              	.LBE881:
 1726              	.LBE880:
 1727              	.LBE879:
 1728              	.LBB900:
 1729              	.LBB901:
 1730              		.loc 1 582 0
 1731 01c2 346D     		ldr	r4, [r6, #80]
 1732              	.LVL193:
 1733              		.loc 1 583 0
 1734 01c4 D4F8488B 		ldr	r8, [r4, #2888]
 1735              	.LVL194:
 1736              		.loc 1 586 0
 1737 01c8 C4F8488B 		str	r8, [r4, #2888]
 1738              		.loc 1 588 0
 1739 01cc 18F0080F 		tst	r8, #8
 1740 01d0 08D0     		beq	.L181
 1741 01d2 D4F81438 		ldr	r3, [r4, #2068]
 1742 01d6 1A07     		lsls	r2, r3, #28
 1743 01d8 04D5     		bpl	.L181
 1744              		.loc 1 591 0
 1745 01da 7369     		ldr	r3, [r6, #20]
 1746 01dc 3048     		ldr	r0, .L331+4
 1747 01de 5B68     		ldr	r3, [r3, #4]
 1748 01e0 0221     		movs	r1, #2
 1749 01e2 9847     		blx	r3
 1750              	.LVL195:
 1751              	.L181:
 1752              		.loc 1 594 0
 1753 01e4 18F0010F 		tst	r8, #1
 1754 01e8 3FF443AF 		beq	.L180
 1755 01ec D4F81438 		ldr	r3, [r4, #2068]
 1756 01f0 DB07     		lsls	r3, r3, #31
 1757 01f2 7FF53EAF 		bpl	.L180
 1758              	.LBB902:
 1759              		.loc 1 596 0
 1760 01f6 7269     		ldr	r2, [r6, #20]
 1761 01f8 9369     		ldr	r3, [r2, #24]
 1762              	.LVL196:
 1763              		.loc 1 598 0
 1764 01fa 5868     		ldr	r0, [r3, #4]
 1765 01fc 1969     		ldr	r1, [r3, #16]
 1766 01fe 8842     		cmp	r0, r1
 1767 0200 C0F01881 		bcc	.L321
ARM GAS  C:\Users\mathi\AppData\Local\Temp\ccOm87JI.s 			page 32


 1768              		.loc 1 611 0
 1769 0204 7389     		ldrh	r3, [r6, #10]
 1770              	.LVL197:
 1771 0206 D268     		ldr	r2, [r2, #12]
 1772              	.LVL198:
 1773 0208 2548     		ldr	r0, .L331+4
 1774 020a 23F00403 		bic	r3, r3, #4
 1775 020e 7381     		strh	r3, [r6, #10]	@ movhi
 1776 0210 0221     		movs	r1, #2
 1777 0212 9047     		blx	r2
 1778              	.LVL199:
 1779 0214 2DE7     		b	.L180
 1780              	.LVL200:
 1781              	.L312:
 1782              	.LBE902:
 1783              	.LBE901:
 1784              	.LBE900:
 1785              	.LBB921:
 1786              	.LBB922:
 1787              		.loc 1 534 0
 1788 0216 D6F85080 		ldr	r8, [r6, #80]
 1789              	.LVL201:
 1790              		.loc 1 535 0
 1791 021a D8F86899 		ldr	r9, [r8, #2408]
 1792              	.LVL202:
 1793              		.loc 1 537 0
 1794 021e C8F86899 		str	r9, [r8, #2408]
 1795              		.loc 1 542 0
 1796 0222 19F0010F 		tst	r9, #1
 1797 0226 12D0     		beq	.L161
 1798 0228 D8F81038 		ldr	r3, [r8, #2064]
 1799 022c D907     		lsls	r1, r3, #31
 1800 022e 0ED5     		bpl	.L161
 1801              	.LBB923:
 1802              		.loc 1 544 0
 1803 0230 B269     		ldr	r2, [r6, #24]
 1804 0232 5369     		ldr	r3, [r2, #20]
 1805              	.LVL203:
 1806              		.loc 1 546 0
 1807 0234 5868     		ldr	r0, [r3, #4]
 1808 0236 1969     		ldr	r1, [r3, #16]
 1809 0238 8842     		cmp	r0, r1
 1810 023a C0F0A881 		bcc	.L322
 1811              		.loc 1 559 0
 1812 023e 3389     		ldrh	r3, [r6, #8]
 1813              	.LVL204:
 1814 0240 1748     		ldr	r0, .L331+4
 1815 0242 23F00803 		bic	r3, r3, #8
 1816 0246 3381     		strh	r3, [r6, #8]	@ movhi
 1817 0248 9368     		ldr	r3, [r2, #8]
 1818 024a 0321     		movs	r1, #3
 1819 024c 9847     		blx	r3
 1820              	.LVL205:
 1821              	.L161:
 1822              	.LBE923:
 1823              		.loc 1 562 0
 1824 024e 19F0800F 		tst	r9, #128
ARM GAS  C:\Users\mathi\AppData\Local\Temp\ccOm87JI.s 			page 33


 1825 0252 3FF404AF 		beq	.L137
 1826              		.loc 1 563 0
 1827 0256 D8F83438 		ldr	r3, [r8, #2100]
 1828              		.loc 1 562 0
 1829 025a 1A07     		lsls	r2, r3, #28
 1830 025c 7FF5FFAE 		bpl	.L137
 1831              	.LVL206:
 1832              	.LBB945:
 1833              	.LBB946:
 1834              	.LBB947:
 1835              	.LBB948:
 1836              	.LBB949:
 1837              	.LBB950:
 1838              	.LBB951:
 1839              		.loc 3 546 0
 1840 0260 2023     		movs	r3, #32
 1841              		.syntax unified
 1842              	@ 546 "../../lib/e-puck2_main-processor/ChibiOS//os/ext/CMSIS/include/core_cmFunc.h" 1
 1843 0262 83F31188 		MSR basepri, r3
 1844              	@ 0 "" 2
 1845              	.LVL207:
 1846              		.thumb
 1847              		.syntax unified
 1848              	.LBE951:
 1849              	.LBE950:
 1850              	.LBE949:
 1851              	.LBE948:
 1852              		.loc 4 389 0
 1853 0266 FFF7FEFF 		bl	_stats_start_measure_crit_isr
 1854              	.LVL208:
 1855              		.loc 4 390 0
 1856 026a FFF7FEFF 		bl	_dbg_check_lock_from_isr
 1857              	.LVL209:
 1858              	.LBE947:
 1859              	.LBE946:
 1860              	.LBE945:
 1861              		.loc 1 567 0
 1862 026e D8F83428 		ldr	r2, [r8, #2100]
 1863              		.loc 1 566 0
 1864 0272 F36D     		ldr	r3, [r6, #92]
 1865              	.LBB952:
 1866              	.LBB953:
 1867              		.loc 5 682 0
 1868 0274 0B48     		ldr	r0, .L331+8
 1869              	.LBE953:
 1870              	.LBE952:
 1871              		.loc 1 567 0
 1872 0276 22F00802 		bic	r2, r2, #8
 1873              		.loc 1 566 0
 1874 027a 43F00803 		orr	r3, r3, #8
 1875              		.loc 1 567 0
 1876 027e C8F83428 		str	r2, [r8, #2100]
 1877              	.LVL210:
 1878              	.LBB956:
 1879              	.LBB954:
 1880              		.loc 5 682 0
 1881 0282 0021     		movs	r1, #0
ARM GAS  C:\Users\mathi\AppData\Local\Temp\ccOm87JI.s 			page 34


 1882              	.LBE954:
 1883              	.LBE956:
 1884              		.loc 1 566 0
 1885 0284 F365     		str	r3, [r6, #92]
 1886              	.LBB957:
 1887              	.LBB955:
 1888              		.loc 5 682 0
 1889 0286 FFF7FEFF 		bl	chThdResumeI
 1890              	.LVL211:
 1891              	.LBE955:
 1892              	.LBE957:
 1893              	.LBB958:
 1894              	.LBB959:
 1895              	.LBB960:
 1896              		.loc 4 408 0
 1897 028a FFF7FEFF 		bl	_dbg_check_unlock_from_isr
 1898              	.LVL212:
 1899              		.loc 4 409 0
 1900 028e FFF7FEFF 		bl	_stats_stop_measure_crit_isr
 1901              	.LVL213:
 1902              	.LBB961:
 1903              	.LBB962:
 1904              	.LBB963:
 1905              	.LBB964:
 1906              		.loc 3 546 0
 1907 0292 0023     		movs	r3, #0
 1908              		.syntax unified
 1909              	@ 546 "../../lib/e-puck2_main-processor/ChibiOS//os/ext/CMSIS/include/core_cmFunc.h" 1
 1910 0294 83F31188 		MSR basepri, r3
 1911              	@ 0 "" 2
 1912              	.LVL214:
 1913              		.thumb
 1914              		.syntax unified
 1915 0298 E1E6     		b	.L137
 1916              	.L332:
 1917 029a 00BF     		.align	2
 1918              	.L331:
 1919 029c 00000000 		.word	__stack_chk_guard
 1920 02a0 00000000 		.word	.LANCHOR1
 1921 02a4 60000000 		.word	.LANCHOR1+96
 1922              	.LVL215:
 1923              	.L309:
 1924              	.LBE964:
 1925              	.LBE963:
 1926              	.LBE962:
 1927              	.LBE961:
 1928              	.LBE960:
 1929              	.LBE959:
 1930              	.LBE958:
 1931              	.LBE922:
 1932              	.LBE921:
 1933              	.LBB969:
 1934              	.LBB970:
 1935              		.loc 1 534 0
 1936 02a8 D6F85080 		ldr	r8, [r6, #80]
 1937              	.LVL216:
 1938              		.loc 1 535 0
ARM GAS  C:\Users\mathi\AppData\Local\Temp\ccOm87JI.s 			page 35


 1939 02ac D8F80899 		ldr	r9, [r8, #2312]
 1940              	.LVL217:
 1941              		.loc 1 537 0
 1942 02b0 C8F80899 		str	r9, [r8, #2312]
 1943              		.loc 1 542 0
 1944 02b4 19F0010F 		tst	r9, #1
 1945 02b8 12D0     		beq	.L140
 1946 02ba D8F81038 		ldr	r3, [r8, #2064]
 1947 02be D807     		lsls	r0, r3, #31
 1948 02c0 0ED5     		bpl	.L140
 1949              	.LBB971:
 1950              		.loc 1 544 0
 1951 02c2 F268     		ldr	r2, [r6, #12]
 1952 02c4 5369     		ldr	r3, [r2, #20]
 1953              	.LVL218:
 1954              		.loc 1 546 0
 1955 02c6 5868     		ldr	r0, [r3, #4]
 1956 02c8 1969     		ldr	r1, [r3, #16]
 1957 02ca 8842     		cmp	r0, r1
 1958 02cc C0F0FB81 		bcc	.L323
 1959              		.loc 1 559 0
 1960 02d0 3389     		ldrh	r3, [r6, #8]
 1961              	.LVL219:
 1962 02d2 C848     		ldr	r0, .L333
 1963 02d4 23F00103 		bic	r3, r3, #1
 1964 02d8 3381     		strh	r3, [r6, #8]	@ movhi
 1965 02da 9368     		ldr	r3, [r2, #8]
 1966 02dc 0021     		movs	r1, #0
 1967 02de 9847     		blx	r3
 1968              	.LVL220:
 1969              	.L140:
 1970              	.LBE971:
 1971              		.loc 1 562 0
 1972 02e0 19F0800F 		tst	r9, #128
 1973 02e4 3FF4B2AE 		beq	.L139
 1974              		.loc 1 563 0
 1975 02e8 D8F83438 		ldr	r3, [r8, #2100]
 1976              		.loc 1 562 0
 1977 02ec D907     		lsls	r1, r3, #31
 1978 02ee 7FF5ADAE 		bpl	.L139
 1979              	.LVL221:
 1980              	.LBB993:
 1981              	.LBB994:
 1982              	.LBB995:
 1983              	.LBB996:
 1984              	.LBB997:
 1985              	.LBB998:
 1986              	.LBB999:
 1987              		.loc 3 546 0
 1988 02f2 2023     		movs	r3, #32
 1989              		.syntax unified
 1990              	@ 546 "../../lib/e-puck2_main-processor/ChibiOS//os/ext/CMSIS/include/core_cmFunc.h" 1
 1991 02f4 83F31188 		MSR basepri, r3
 1992              	@ 0 "" 2
 1993              	.LVL222:
 1994              		.thumb
 1995              		.syntax unified
ARM GAS  C:\Users\mathi\AppData\Local\Temp\ccOm87JI.s 			page 36


 1996              	.LBE999:
 1997              	.LBE998:
 1998              	.LBE997:
 1999              	.LBE996:
 2000              		.loc 4 389 0
 2001 02f8 FFF7FEFF 		bl	_stats_start_measure_crit_isr
 2002              	.LVL223:
 2003              		.loc 4 390 0
 2004 02fc FFF7FEFF 		bl	_dbg_check_lock_from_isr
 2005              	.LVL224:
 2006              	.LBE995:
 2007              	.LBE994:
 2008              	.LBE993:
 2009              		.loc 1 567 0
 2010 0300 D8F83428 		ldr	r2, [r8, #2100]
 2011              		.loc 1 566 0
 2012 0304 F36D     		ldr	r3, [r6, #92]
 2013              	.LBB1000:
 2014              	.LBB1001:
 2015              		.loc 5 682 0
 2016 0306 BC48     		ldr	r0, .L333+4
 2017              	.LBE1001:
 2018              	.LBE1000:
 2019              		.loc 1 567 0
 2020 0308 22F00102 		bic	r2, r2, #1
 2021              		.loc 1 566 0
 2022 030c 43F00103 		orr	r3, r3, #1
 2023              		.loc 1 567 0
 2024 0310 C8F83428 		str	r2, [r8, #2100]
 2025              	.LVL225:
 2026              	.LBB1004:
 2027              	.LBB1002:
 2028              		.loc 5 682 0
 2029 0314 0021     		movs	r1, #0
 2030              	.LBE1002:
 2031              	.LBE1004:
 2032              		.loc 1 566 0
 2033 0316 F365     		str	r3, [r6, #92]
 2034              	.LBB1005:
 2035              	.LBB1003:
 2036              		.loc 5 682 0
 2037 0318 FFF7FEFF 		bl	chThdResumeI
 2038              	.LVL226:
 2039              	.LBE1003:
 2040              	.LBE1005:
 2041              	.LBB1006:
 2042              	.LBB1007:
 2043              	.LBB1008:
 2044              		.loc 4 408 0
 2045 031c FFF7FEFF 		bl	_dbg_check_unlock_from_isr
 2046              	.LVL227:
 2047              		.loc 4 409 0
 2048 0320 FFF7FEFF 		bl	_stats_stop_measure_crit_isr
 2049              	.LVL228:
 2050              	.LBB1009:
 2051              	.LBB1010:
 2052              	.LBB1011:
ARM GAS  C:\Users\mathi\AppData\Local\Temp\ccOm87JI.s 			page 37


 2053              	.LBB1012:
 2054              		.loc 3 546 0
 2055 0324 0023     		movs	r3, #0
 2056              		.syntax unified
 2057              	@ 546 "../../lib/e-puck2_main-processor/ChibiOS//os/ext/CMSIS/include/core_cmFunc.h" 1
 2058 0326 83F31188 		MSR basepri, r3
 2059              	@ 0 "" 2
 2060              	.LVL229:
 2061              		.thumb
 2062              		.syntax unified
 2063 032a 8FE6     		b	.L139
 2064              	.LVL230:
 2065              	.L310:
 2066              	.LBE1012:
 2067              	.LBE1011:
 2068              	.LBE1010:
 2069              	.LBE1009:
 2070              	.LBE1008:
 2071              	.LBE1007:
 2072              	.LBE1006:
 2073              	.LBE970:
 2074              	.LBE969:
 2075              	.LBB1017:
 2076              	.LBB1018:
 2077              		.loc 1 534 0
 2078 032c D6F85080 		ldr	r8, [r6, #80]
 2079              	.LVL231:
 2080              		.loc 1 535 0
 2081 0330 D8F82899 		ldr	r9, [r8, #2344]
 2082              	.LVL232:
 2083              		.loc 1 537 0
 2084 0334 C8F82899 		str	r9, [r8, #2344]
 2085              		.loc 1 542 0
 2086 0338 19F0010F 		tst	r9, #1
 2087 033c 12D0     		beq	.L148
 2088 033e D8F81038 		ldr	r3, [r8, #2064]
 2089 0342 DB07     		lsls	r3, r3, #31
 2090 0344 0ED5     		bpl	.L148
 2091              	.LBB1019:
 2092              		.loc 1 544 0
 2093 0346 3269     		ldr	r2, [r6, #16]
 2094 0348 5369     		ldr	r3, [r2, #20]
 2095              	.LVL233:
 2096              		.loc 1 546 0
 2097 034a 5868     		ldr	r0, [r3, #4]
 2098 034c 1969     		ldr	r1, [r3, #16]
 2099 034e 8842     		cmp	r0, r1
 2100 0350 C0F08881 		bcc	.L324
 2101              		.loc 1 559 0
 2102 0354 3389     		ldrh	r3, [r6, #8]
 2103              	.LVL234:
 2104 0356 A748     		ldr	r0, .L333
 2105 0358 23F00203 		bic	r3, r3, #2
 2106 035c 3381     		strh	r3, [r6, #8]	@ movhi
 2107 035e 9368     		ldr	r3, [r2, #8]
 2108 0360 0121     		movs	r1, #1
 2109 0362 9847     		blx	r3
ARM GAS  C:\Users\mathi\AppData\Local\Temp\ccOm87JI.s 			page 38


 2110              	.LVL235:
 2111              	.L148:
 2112              	.LBE1019:
 2113              		.loc 1 562 0
 2114 0364 19F0800F 		tst	r9, #128
 2115 0368 3FF473AE 		beq	.L147
 2116              		.loc 1 563 0
 2117 036c D8F83438 		ldr	r3, [r8, #2100]
 2118              		.loc 1 562 0
 2119 0370 9807     		lsls	r0, r3, #30
 2120 0372 7FF56EAE 		bpl	.L147
 2121              	.LVL236:
 2122              	.LBB1041:
 2123              	.LBB1042:
 2124              	.LBB1043:
 2125              	.LBB1044:
 2126              	.LBB1045:
 2127              	.LBB1046:
 2128              	.LBB1047:
 2129              		.loc 3 546 0
 2130 0376 2023     		movs	r3, #32
 2131              		.syntax unified
 2132              	@ 546 "../../lib/e-puck2_main-processor/ChibiOS//os/ext/CMSIS/include/core_cmFunc.h" 1
 2133 0378 83F31188 		MSR basepri, r3
 2134              	@ 0 "" 2
 2135              	.LVL237:
 2136              		.thumb
 2137              		.syntax unified
 2138              	.LBE1047:
 2139              	.LBE1046:
 2140              	.LBE1045:
 2141              	.LBE1044:
 2142              		.loc 4 389 0
 2143 037c FFF7FEFF 		bl	_stats_start_measure_crit_isr
 2144              	.LVL238:
 2145              		.loc 4 390 0
 2146 0380 FFF7FEFF 		bl	_dbg_check_lock_from_isr
 2147              	.LVL239:
 2148              	.LBE1043:
 2149              	.LBE1042:
 2150              	.LBE1041:
 2151              		.loc 1 567 0
 2152 0384 D8F83428 		ldr	r2, [r8, #2100]
 2153              		.loc 1 566 0
 2154 0388 F36D     		ldr	r3, [r6, #92]
 2155              	.LBB1048:
 2156              	.LBB1049:
 2157              		.loc 5 682 0
 2158 038a 9B48     		ldr	r0, .L333+4
 2159              	.LBE1049:
 2160              	.LBE1048:
 2161              		.loc 1 567 0
 2162 038c 22F00202 		bic	r2, r2, #2
 2163              		.loc 1 566 0
 2164 0390 43F00203 		orr	r3, r3, #2
 2165              		.loc 1 567 0
 2166 0394 C8F83428 		str	r2, [r8, #2100]
ARM GAS  C:\Users\mathi\AppData\Local\Temp\ccOm87JI.s 			page 39


 2167              	.LVL240:
 2168              	.LBB1052:
 2169              	.LBB1050:
 2170              		.loc 5 682 0
 2171 0398 0021     		movs	r1, #0
 2172              	.LBE1050:
 2173              	.LBE1052:
 2174              		.loc 1 566 0
 2175 039a F365     		str	r3, [r6, #92]
 2176              	.LBB1053:
 2177              	.LBB1051:
 2178              		.loc 5 682 0
 2179 039c FFF7FEFF 		bl	chThdResumeI
 2180              	.LVL241:
 2181              	.LBE1051:
 2182              	.LBE1053:
 2183              	.LBB1054:
 2184              	.LBB1055:
 2185              	.LBB1056:
 2186              		.loc 4 408 0
 2187 03a0 FFF7FEFF 		bl	_dbg_check_unlock_from_isr
 2188              	.LVL242:
 2189              		.loc 4 409 0
 2190 03a4 FFF7FEFF 		bl	_stats_stop_measure_crit_isr
 2191              	.LVL243:
 2192              	.LBB1057:
 2193              	.LBB1058:
 2194              	.LBB1059:
 2195              	.LBB1060:
 2196              		.loc 3 546 0
 2197 03a8 0023     		movs	r3, #0
 2198              		.syntax unified
 2199              	@ 546 "../../lib/e-puck2_main-processor/ChibiOS//os/ext/CMSIS/include/core_cmFunc.h" 1
 2200 03aa 83F31188 		MSR basepri, r3
 2201              	@ 0 "" 2
 2202              	.LVL244:
 2203              		.thumb
 2204              		.syntax unified
 2205 03ae 50E6     		b	.L147
 2206              	.LVL245:
 2207              	.L311:
 2208              	.LBE1060:
 2209              	.LBE1059:
 2210              	.LBE1058:
 2211              	.LBE1057:
 2212              	.LBE1056:
 2213              	.LBE1055:
 2214              	.LBE1054:
 2215              	.LBE1018:
 2216              	.LBE1017:
 2217              	.LBB1065:
 2218              	.LBB1066:
 2219              		.loc 1 534 0
 2220 03b0 D6F85080 		ldr	r8, [r6, #80]
 2221              	.LVL246:
 2222              		.loc 1 535 0
 2223 03b4 D8F84899 		ldr	r9, [r8, #2376]
ARM GAS  C:\Users\mathi\AppData\Local\Temp\ccOm87JI.s 			page 40


 2224              	.LVL247:
 2225              		.loc 1 537 0
 2226 03b8 C8F84899 		str	r9, [r8, #2376]
 2227              		.loc 1 542 0
 2228 03bc 19F0010F 		tst	r9, #1
 2229 03c0 12D0     		beq	.L155
 2230 03c2 D8F81038 		ldr	r3, [r8, #2064]
 2231 03c6 DA07     		lsls	r2, r3, #31
 2232 03c8 0ED5     		bpl	.L155
 2233              	.LBB1067:
 2234              		.loc 1 544 0
 2235 03ca 7269     		ldr	r2, [r6, #20]
 2236 03cc 5369     		ldr	r3, [r2, #20]
 2237              	.LVL248:
 2238              		.loc 1 546 0
 2239 03ce 5868     		ldr	r0, [r3, #4]
 2240 03d0 1969     		ldr	r1, [r3, #16]
 2241 03d2 8842     		cmp	r0, r1
 2242 03d4 C0F01481 		bcc	.L325
 2243              		.loc 1 559 0
 2244 03d8 3389     		ldrh	r3, [r6, #8]
 2245              	.LVL249:
 2246 03da 8648     		ldr	r0, .L333
 2247 03dc 23F00403 		bic	r3, r3, #4
 2248 03e0 3381     		strh	r3, [r6, #8]	@ movhi
 2249 03e2 9368     		ldr	r3, [r2, #8]
 2250 03e4 0221     		movs	r1, #2
 2251 03e6 9847     		blx	r3
 2252              	.LVL250:
 2253              	.L155:
 2254              	.LBE1067:
 2255              		.loc 1 562 0
 2256 03e8 19F0800F 		tst	r9, #128
 2257 03ec 3FF434AE 		beq	.L154
 2258              		.loc 1 563 0
 2259 03f0 D8F83438 		ldr	r3, [r8, #2100]
 2260              		.loc 1 562 0
 2261 03f4 5B07     		lsls	r3, r3, #29
 2262 03f6 7FF52FAE 		bpl	.L154
 2263              	.LVL251:
 2264              	.LBB1089:
 2265              	.LBB1090:
 2266              	.LBB1091:
 2267              	.LBB1092:
 2268              	.LBB1093:
 2269              	.LBB1094:
 2270              	.LBB1095:
 2271              		.loc 3 546 0
 2272 03fa 2023     		movs	r3, #32
 2273              		.syntax unified
 2274              	@ 546 "../../lib/e-puck2_main-processor/ChibiOS//os/ext/CMSIS/include/core_cmFunc.h" 1
 2275 03fc 83F31188 		MSR basepri, r3
 2276              	@ 0 "" 2
 2277              	.LVL252:
 2278              		.thumb
 2279              		.syntax unified
 2280              	.LBE1095:
ARM GAS  C:\Users\mathi\AppData\Local\Temp\ccOm87JI.s 			page 41


 2281              	.LBE1094:
 2282              	.LBE1093:
 2283              	.LBE1092:
 2284              		.loc 4 389 0
 2285 0400 FFF7FEFF 		bl	_stats_start_measure_crit_isr
 2286              	.LVL253:
 2287              		.loc 4 390 0
 2288 0404 FFF7FEFF 		bl	_dbg_check_lock_from_isr
 2289              	.LVL254:
 2290              	.LBE1091:
 2291              	.LBE1090:
 2292              	.LBE1089:
 2293              		.loc 1 567 0
 2294 0408 D8F83428 		ldr	r2, [r8, #2100]
 2295              		.loc 1 566 0
 2296 040c F36D     		ldr	r3, [r6, #92]
 2297              	.LBB1096:
 2298              	.LBB1097:
 2299              		.loc 5 682 0
 2300 040e 7A48     		ldr	r0, .L333+4
 2301              	.LBE1097:
 2302              	.LBE1096:
 2303              		.loc 1 567 0
 2304 0410 22F00402 		bic	r2, r2, #4
 2305              		.loc 1 566 0
 2306 0414 43F00403 		orr	r3, r3, #4
 2307              		.loc 1 567 0
 2308 0418 C8F83428 		str	r2, [r8, #2100]
 2309              	.LVL255:
 2310              	.LBB1100:
 2311              	.LBB1098:
 2312              		.loc 5 682 0
 2313 041c 0021     		movs	r1, #0
 2314              	.LBE1098:
 2315              	.LBE1100:
 2316              		.loc 1 566 0
 2317 041e F365     		str	r3, [r6, #92]
 2318              	.LBB1101:
 2319              	.LBB1099:
 2320              		.loc 5 682 0
 2321 0420 FFF7FEFF 		bl	chThdResumeI
 2322              	.LVL256:
 2323              	.LBE1099:
 2324              	.LBE1101:
 2325              	.LBB1102:
 2326              	.LBB1103:
 2327              	.LBB1104:
 2328              		.loc 4 408 0
 2329 0424 FFF7FEFF 		bl	_dbg_check_unlock_from_isr
 2330              	.LVL257:
 2331              		.loc 4 409 0
 2332 0428 FFF7FEFF 		bl	_stats_stop_measure_crit_isr
 2333              	.LVL258:
 2334              	.LBB1105:
 2335              	.LBB1106:
 2336              	.LBB1107:
 2337              	.LBB1108:
ARM GAS  C:\Users\mathi\AppData\Local\Temp\ccOm87JI.s 			page 42


 2338              		.loc 3 546 0
 2339 042c 0023     		movs	r3, #0
 2340              		.syntax unified
 2341              	@ 546 "../../lib/e-puck2_main-processor/ChibiOS//os/ext/CMSIS/include/core_cmFunc.h" 1
 2342 042e 83F31188 		MSR basepri, r3
 2343              	@ 0 "" 2
 2344              	.LVL259:
 2345              		.thumb
 2346              		.syntax unified
 2347 0432 11E6     		b	.L154
 2348              	.LVL260:
 2349              	.L321:
 2350              	.LBE1108:
 2351              	.LBE1107:
 2352              	.LBE1106:
 2353              	.LBE1105:
 2354              	.LBE1104:
 2355              	.LBE1103:
 2356              	.LBE1102:
 2357              	.LBE1066:
 2358              	.LBE1065:
 2359              	.LBB1113:
 2360              	.LBB920:
 2361              	.LBB919:
 2362              		.loc 1 602 0
 2363 0434 091A     		subs	r1, r1, r0
 2364              		.loc 1 603 0
 2365 0436 0024     		movs	r4, #0
 2366              	.LVL261:
 2367 0438 C3E90114 		strd	r1, r4, [r3, #4]
 2368              	.LVL262:
 2369              	.LBB903:
 2370              	.LBB904:
 2371              		.loc 1 1161 0
 2372 043c 7369     		ldr	r3, [r6, #20]
 2373              	.LVL263:
 2374 043e 9A69     		ldr	r2, [r3, #24]
 2375              	.LVL264:
 2376              		.loc 1 1164 0
 2377 0440 5368     		ldr	r3, [r2, #4]
 2378 0442 1361     		str	r3, [r2, #16]
 2379              		.loc 1 1168 0
 2380 0444 7269     		ldr	r2, [r6, #20]
 2381              	.LVL265:
 2382              		.loc 1 1170 0
 2383 0446 316D     		ldr	r1, [r6, #80]
 2384              		.loc 1 1168 0
 2385 0448 508A     		ldrh	r0, [r2, #18]
 2386              	.LVL266:
 2387 044a 1A18     		adds	r2, r3, r0
 2388              		.loc 1 1170 0
 2389 044c 43F0C043 		orr	r3, r3, #1610612736
 2390              	.LVL267:
 2391              		.loc 1 1168 0
 2392 0450 013A     		subs	r2, r2, #1
 2393 0452 B2FBF0F2 		udiv	r2, r2, r0
 2394              	.LVL268:
ARM GAS  C:\Users\mathi\AppData\Local\Temp\ccOm87JI.s 			page 43


 2395              		.loc 1 1170 0
 2396 0456 43EAC243 		orr	r3, r3, r2, lsl #19
 2397 045a C1F8503B 		str	r3, [r1, #2896]
 2398              	.LVL269:
 2399              	.LBE904:
 2400              	.LBE903:
 2401              	.LBB905:
 2402              	.LBB906:
 2403              	.LBB907:
 2404              	.LBB908:
 2405              	.LBB909:
 2406              	.LBB910:
 2407              		.loc 3 546 0
 2408 045e 2023     		movs	r3, #32
 2409              		.syntax unified
 2410              	@ 546 "../../lib/e-puck2_main-processor/ChibiOS//os/ext/CMSIS/include/core_cmFunc.h" 1
 2411 0460 83F31188 		MSR basepri, r3
 2412              	@ 0 "" 2
 2413              	.LVL270:
 2414              		.thumb
 2415              		.syntax unified
 2416              	.LBE910:
 2417              	.LBE909:
 2418              	.LBE908:
 2419              	.LBE907:
 2420              		.loc 4 389 0
 2421 0464 FFF7FEFF 		bl	_stats_start_measure_crit_isr
 2422              	.LVL271:
 2423              		.loc 4 390 0
 2424 0468 FFF7FEFF 		bl	_dbg_check_lock_from_isr
 2425              	.LVL272:
 2426              	.LBE906:
 2427              	.LBE905:
 2428              	.LBB911:
 2429              	.LBB912:
 2430              		.loc 1 1214 0
 2431 046c 326D     		ldr	r2, [r6, #80]
 2432 046e D2F8403B 		ldr	r3, [r2, #2880]
 2433 0472 43F08063 		orr	r3, r3, #67108864
 2434 0476 C2F8403B 		str	r3, [r2, #2880]
 2435              	.LVL273:
 2436              	.LBE912:
 2437              	.LBE911:
 2438              	.LBB913:
 2439              	.LBB914:
 2440              		.loc 4 408 0
 2441 047a FFF7FEFF 		bl	_dbg_check_unlock_from_isr
 2442              	.LVL274:
 2443              		.loc 4 409 0
 2444 047e FFF7FEFF 		bl	_stats_stop_measure_crit_isr
 2445              	.LVL275:
 2446              	.LBB915:
 2447              	.LBB916:
 2448              	.LBB917:
 2449              	.LBB918:
 2450              		.loc 3 546 0
 2451              		.syntax unified
ARM GAS  C:\Users\mathi\AppData\Local\Temp\ccOm87JI.s 			page 44


 2452              	@ 546 "../../lib/e-puck2_main-processor/ChibiOS//os/ext/CMSIS/include/core_cmFunc.h" 1
 2453 0482 84F31188 		MSR basepri, r4
 2454              	@ 0 "" 2
 2455              	.LVL276:
 2456              		.thumb
 2457              		.syntax unified
 2458 0486 F4E5     		b	.L180
 2459              	.LVL277:
 2460              	.L320:
 2461              	.LBE918:
 2462              	.LBE917:
 2463              	.LBE916:
 2464              	.LBE915:
 2465              	.LBE914:
 2466              	.LBE913:
 2467              	.LBE919:
 2468              	.LBE920:
 2469              	.LBE1113:
 2470              	.LBB1114:
 2471              	.LBB899:
 2472              	.LBB898:
 2473              		.loc 1 602 0
 2474 0488 091A     		subs	r1, r1, r0
 2475              		.loc 1 603 0
 2476 048a 0024     		movs	r4, #0
 2477              	.LVL278:
 2478 048c C3E90114 		strd	r1, r4, [r3, #4]
 2479              	.LVL279:
 2480              	.LBB882:
 2481              	.LBB883:
 2482              		.loc 1 1161 0
 2483 0490 3369     		ldr	r3, [r6, #16]
 2484              	.LVL280:
 2485 0492 9A69     		ldr	r2, [r3, #24]
 2486              	.LVL281:
 2487              		.loc 1 1164 0
 2488 0494 5368     		ldr	r3, [r2, #4]
 2489 0496 1361     		str	r3, [r2, #16]
 2490              		.loc 1 1168 0
 2491 0498 3269     		ldr	r2, [r6, #16]
 2492              	.LVL282:
 2493              		.loc 1 1170 0
 2494 049a 316D     		ldr	r1, [r6, #80]
 2495              		.loc 1 1168 0
 2496 049c 508A     		ldrh	r0, [r2, #18]
 2497              	.LVL283:
 2498 049e 1A18     		adds	r2, r3, r0
 2499              		.loc 1 1170 0
 2500 04a0 43F0C043 		orr	r3, r3, #1610612736
 2501              	.LVL284:
 2502              		.loc 1 1168 0
 2503 04a4 013A     		subs	r2, r2, #1
 2504 04a6 B2FBF0F2 		udiv	r2, r2, r0
 2505              	.LVL285:
 2506              		.loc 1 1170 0
 2507 04aa 43EAC243 		orr	r3, r3, r2, lsl #19
 2508 04ae C1F8303B 		str	r3, [r1, #2864]
ARM GAS  C:\Users\mathi\AppData\Local\Temp\ccOm87JI.s 			page 45


 2509              	.LVL286:
 2510              	.LBE883:
 2511              	.LBE882:
 2512              	.LBB884:
 2513              	.LBB885:
 2514              	.LBB886:
 2515              	.LBB887:
 2516              	.LBB888:
 2517              	.LBB889:
 2518              		.loc 3 546 0
 2519 04b2 2023     		movs	r3, #32
 2520              		.syntax unified
 2521              	@ 546 "../../lib/e-puck2_main-processor/ChibiOS//os/ext/CMSIS/include/core_cmFunc.h" 1
 2522 04b4 83F31188 		MSR basepri, r3
 2523              	@ 0 "" 2
 2524              	.LVL287:
 2525              		.thumb
 2526              		.syntax unified
 2527              	.LBE889:
 2528              	.LBE888:
 2529              	.LBE887:
 2530              	.LBE886:
 2531              		.loc 4 389 0
 2532 04b8 FFF7FEFF 		bl	_stats_start_measure_crit_isr
 2533              	.LVL288:
 2534              		.loc 4 390 0
 2535 04bc FFF7FEFF 		bl	_dbg_check_lock_from_isr
 2536              	.LVL289:
 2537              	.LBE885:
 2538              	.LBE884:
 2539              	.LBB890:
 2540              	.LBB891:
 2541              		.loc 1 1214 0
 2542 04c0 326D     		ldr	r2, [r6, #80]
 2543 04c2 D2F8203B 		ldr	r3, [r2, #2848]
 2544 04c6 43F08063 		orr	r3, r3, #67108864
 2545 04ca C2F8203B 		str	r3, [r2, #2848]
 2546              	.LVL290:
 2547              	.LBE891:
 2548              	.LBE890:
 2549              	.LBB892:
 2550              	.LBB893:
 2551              		.loc 4 408 0
 2552 04ce FFF7FEFF 		bl	_dbg_check_unlock_from_isr
 2553              	.LVL291:
 2554              		.loc 4 409 0
 2555 04d2 FFF7FEFF 		bl	_stats_stop_measure_crit_isr
 2556              	.LVL292:
 2557              	.LBB894:
 2558              	.LBB895:
 2559              	.LBB896:
 2560              	.LBB897:
 2561              		.loc 3 546 0
 2562              		.syntax unified
 2563              	@ 546 "../../lib/e-puck2_main-processor/ChibiOS//os/ext/CMSIS/include/core_cmFunc.h" 1
 2564 04d6 84F31188 		MSR basepri, r4
 2565              	@ 0 "" 2
ARM GAS  C:\Users\mathi\AppData\Local\Temp\ccOm87JI.s 			page 46


 2566              	.LVL293:
 2567              		.thumb
 2568              		.syntax unified
 2569 04da C7E5     		b	.L175
 2570              	.LVL294:
 2571              	.L319:
 2572              	.LBE897:
 2573              	.LBE896:
 2574              	.LBE895:
 2575              	.LBE894:
 2576              	.LBE893:
 2577              	.LBE892:
 2578              	.LBE898:
 2579              	.LBE899:
 2580              	.LBE1114:
 2581              	.LBB1115:
 2582              	.LBB878:
 2583              	.LBB877:
 2584              		.loc 1 602 0
 2585 04dc 091A     		subs	r1, r1, r0
 2586              		.loc 1 603 0
 2587 04de 0022     		movs	r2, #0
 2588 04e0 C3E90112 		strd	r1, r2, [r3, #4]
 2589              	.LVL295:
 2590              	.LBB861:
 2591              	.LBB862:
 2592              		.loc 1 1161 0
 2593 04e4 F268     		ldr	r2, [r6, #12]
 2594 04e6 9169     		ldr	r1, [r2, #24]
 2595              	.LVL296:
 2596              		.loc 1 1164 0
 2597 04e8 4B68     		ldr	r3, [r1, #4]
 2598              	.LVL297:
 2599 04ea 0B61     		str	r3, [r1, #16]
 2600              		.loc 1 1165 0
 2601 04ec 402B     		cmp	r3, #64
 2602 04ee 40F21F81 		bls	.L326
 2603              		.loc 1 1166 0
 2604 04f2 4023     		movs	r3, #64
 2605 04f4 4B60     		str	r3, [r1, #4]
 2606 04f6 F268     		ldr	r2, [r6, #12]
 2607 04f8 4049     		ldr	r1, .L333+8
 2608              	.LVL298:
 2609              	.L173:
 2610              		.loc 1 1168 0
 2611 04fa 508A     		ldrh	r0, [r2, #18]
 2612              	.LVL299:
 2613              		.loc 1 1170 0
 2614 04fc 326D     		ldr	r2, [r6, #80]
 2615              		.loc 1 1168 0
 2616 04fe 013B     		subs	r3, r3, #1
 2617              	.LVL300:
 2618 0500 0344     		add	r3, r3, r0
 2619              	.LVL301:
 2620 0502 B3FBF0F3 		udiv	r3, r3, r0
 2621              		.loc 1 1170 0
 2622 0506 41EAC343 		orr	r3, r1, r3, lsl #19
ARM GAS  C:\Users\mathi\AppData\Local\Temp\ccOm87JI.s 			page 47


 2623 050a C2F8103B 		str	r3, [r2, #2832]
 2624              	.LVL302:
 2625              	.LBE862:
 2626              	.LBE861:
 2627              	.LBB863:
 2628              	.LBB864:
 2629              	.LBB865:
 2630              	.LBB866:
 2631              	.LBB867:
 2632              	.LBB868:
 2633              		.loc 3 546 0
 2634 050e 2023     		movs	r3, #32
 2635              		.syntax unified
 2636              	@ 546 "../../lib/e-puck2_main-processor/ChibiOS//os/ext/CMSIS/include/core_cmFunc.h" 1
 2637 0510 83F31188 		MSR basepri, r3
 2638              	@ 0 "" 2
 2639              	.LVL303:
 2640              		.thumb
 2641              		.syntax unified
 2642              	.LBE868:
 2643              	.LBE867:
 2644              	.LBE866:
 2645              	.LBE865:
 2646              		.loc 4 389 0
 2647 0514 FFF7FEFF 		bl	_stats_start_measure_crit_isr
 2648              	.LVL304:
 2649              		.loc 4 390 0
 2650 0518 FFF7FEFF 		bl	_dbg_check_lock_from_isr
 2651              	.LVL305:
 2652              	.LBE864:
 2653              	.LBE863:
 2654              	.LBB869:
 2655              	.LBB870:
 2656              		.loc 1 1214 0
 2657 051c 326D     		ldr	r2, [r6, #80]
 2658 051e D2F8003B 		ldr	r3, [r2, #2816]
 2659 0522 43F08063 		orr	r3, r3, #67108864
 2660 0526 C2F8003B 		str	r3, [r2, #2816]
 2661              	.LVL306:
 2662              	.LBE870:
 2663              	.LBE869:
 2664              	.LBB871:
 2665              	.LBB872:
 2666              		.loc 4 408 0
 2667 052a FFF7FEFF 		bl	_dbg_check_unlock_from_isr
 2668              	.LVL307:
 2669              		.loc 4 409 0
 2670 052e FFF7FEFF 		bl	_stats_stop_measure_crit_isr
 2671              	.LVL308:
 2672              	.LBB873:
 2673              	.LBB874:
 2674              	.LBB875:
 2675              	.LBB876:
 2676              		.loc 3 546 0
 2677 0532 0023     		movs	r3, #0
 2678              		.syntax unified
 2679              	@ 546 "../../lib/e-puck2_main-processor/ChibiOS//os/ext/CMSIS/include/core_cmFunc.h" 1
ARM GAS  C:\Users\mathi\AppData\Local\Temp\ccOm87JI.s 			page 48


 2680 0534 83F31188 		MSR basepri, r3
 2681              	@ 0 "" 2
 2682              	.LVL309:
 2683              		.thumb
 2684              		.syntax unified
 2685 0538 95E5     		b	.L168
 2686              	.LVL310:
 2687              	.L318:
 2688              	.LBE876:
 2689              	.LBE875:
 2690              	.LBE874:
 2691              	.LBE873:
 2692              	.LBE872:
 2693              	.LBE871:
 2694              	.LBE877:
 2695              	.LBE878:
 2696              	.LBE1115:
 2697              	.LBB1116:
 2698              	.LBB857:
 2699              	.LBB856:
 2700              		.loc 1 602 0
 2701 053a 091A     		subs	r1, r1, r0
 2702              		.loc 1 603 0
 2703 053c 0024     		movs	r4, #0
 2704              	.LVL311:
 2705 053e C3E90114 		strd	r1, r4, [r3, #4]
 2706              	.LVL312:
 2707              	.LBB840:
 2708              	.LBB841:
 2709              		.loc 1 1161 0
 2710 0542 B369     		ldr	r3, [r6, #24]
 2711              	.LVL313:
 2712 0544 9A69     		ldr	r2, [r3, #24]
 2713              	.LVL314:
 2714              		.loc 1 1164 0
 2715 0546 5368     		ldr	r3, [r2, #4]
 2716 0548 1361     		str	r3, [r2, #16]
 2717              		.loc 1 1168 0
 2718 054a B269     		ldr	r2, [r6, #24]
 2719              	.LVL315:
 2720              		.loc 1 1170 0
 2721 054c 316D     		ldr	r1, [r6, #80]
 2722              		.loc 1 1168 0
 2723 054e 508A     		ldrh	r0, [r2, #18]
 2724              	.LVL316:
 2725 0550 1A18     		adds	r2, r3, r0
 2726              		.loc 1 1170 0
 2727 0552 43F0C043 		orr	r3, r3, #1610612736
 2728              	.LVL317:
 2729              		.loc 1 1168 0
 2730 0556 013A     		subs	r2, r2, #1
 2731 0558 B2FBF0F2 		udiv	r2, r2, r0
 2732              	.LVL318:
 2733              		.loc 1 1170 0
 2734 055c 43EAC243 		orr	r3, r3, r2, lsl #19
 2735 0560 C1F8703B 		str	r3, [r1, #2928]
 2736              	.LVL319:
ARM GAS  C:\Users\mathi\AppData\Local\Temp\ccOm87JI.s 			page 49


 2737              	.LBE841:
 2738              	.LBE840:
 2739              	.LBB842:
 2740              	.LBB843:
 2741              	.LBB844:
 2742              	.LBB845:
 2743              	.LBB846:
 2744              	.LBB847:
 2745              		.loc 3 546 0
 2746 0564 2023     		movs	r3, #32
 2747              		.syntax unified
 2748              	@ 546 "../../lib/e-puck2_main-processor/ChibiOS//os/ext/CMSIS/include/core_cmFunc.h" 1
 2749 0566 83F31188 		MSR basepri, r3
 2750              	@ 0 "" 2
 2751              	.LVL320:
 2752              		.thumb
 2753              		.syntax unified
 2754              	.LBE847:
 2755              	.LBE846:
 2756              	.LBE845:
 2757              	.LBE844:
 2758              		.loc 4 389 0
 2759 056a FFF7FEFF 		bl	_stats_start_measure_crit_isr
 2760              	.LVL321:
 2761              		.loc 4 390 0
 2762 056e FFF7FEFF 		bl	_dbg_check_lock_from_isr
 2763              	.LVL322:
 2764              	.LBE843:
 2765              	.LBE842:
 2766              	.LBB848:
 2767              	.LBB849:
 2768              		.loc 1 1214 0
 2769 0572 326D     		ldr	r2, [r6, #80]
 2770 0574 D2F8603B 		ldr	r3, [r2, #2912]
 2771 0578 43F08063 		orr	r3, r3, #67108864
 2772 057c C2F8603B 		str	r3, [r2, #2912]
 2773              	.LVL323:
 2774              	.LBE849:
 2775              	.LBE848:
 2776              	.LBB850:
 2777              	.LBB851:
 2778              		.loc 4 408 0
 2779 0580 FFF7FEFF 		bl	_dbg_check_unlock_from_isr
 2780              	.LVL324:
 2781              		.loc 4 409 0
 2782 0584 FFF7FEFF 		bl	_stats_stop_measure_crit_isr
 2783              	.LVL325:
 2784              	.LBB852:
 2785              	.LBB853:
 2786              	.LBB854:
 2787              	.LBB855:
 2788              		.loc 3 546 0
 2789              		.syntax unified
 2790              	@ 546 "../../lib/e-puck2_main-processor/ChibiOS//os/ext/CMSIS/include/core_cmFunc.h" 1
 2791 0588 84F31188 		MSR basepri, r4
 2792              	@ 0 "" 2
 2793              	.LVL326:
ARM GAS  C:\Users\mathi\AppData\Local\Temp\ccOm87JI.s 			page 50


 2794              		.thumb
 2795              		.syntax unified
 2796 058c 73E5     		b	.L166
 2797              	.LVL327:
 2798              	.L322:
 2799              	.LBE855:
 2800              	.LBE854:
 2801              	.LBE853:
 2802              	.LBE852:
 2803              	.LBE851:
 2804              	.LBE850:
 2805              	.LBE856:
 2806              	.LBE857:
 2807              	.LBE1116:
 2808              	.LBB1117:
 2809              	.LBB967:
 2810              	.LBB965:
 2811              		.loc 1 550 0
 2812 058e 091A     		subs	r1, r1, r0
 2813              		.loc 1 551 0
 2814 0590 0022     		movs	r2, #0
 2815 0592 C3E90112 		strd	r1, r2, [r3, #4]
 2816              	.LVL328:
 2817              	.LBB924:
 2818              	.LBB925:
 2819              		.loc 1 1184 0
 2820 0596 B369     		ldr	r3, [r6, #24]
 2821              	.LVL329:
 2822 0598 5B69     		ldr	r3, [r3, #20]
 2823              	.LVL330:
 2824              		.loc 1 1187 0
 2825 059a 5968     		ldr	r1, [r3, #4]
 2826 059c 1961     		str	r1, [r3, #16]
 2827              		.loc 1 1188 0
 2828 059e 0029     		cmp	r1, #0
 2829 05a0 00F0C980 		beq	.L327
 2830              	.LBB926:
 2831              		.loc 1 1197 0
 2832 05a4 B269     		ldr	r2, [r6, #24]
 2833              		.loc 1 1199 0
 2834 05a6 336D     		ldr	r3, [r6, #80]
 2835              	.LVL331:
 2836              		.loc 1 1197 0
 2837 05a8 108A     		ldrh	r0, [r2, #16]
 2838              	.LVL332:
 2839 05aa 0A18     		adds	r2, r1, r0
 2840 05ac 013A     		subs	r2, r2, #1
 2841 05ae B2FBF0F2 		udiv	r2, r2, r0
 2842              	.LVL333:
 2843              		.loc 1 1199 0
 2844 05b2 41EAC241 		orr	r1, r1, r2, lsl #19
 2845 05b6 C3F87019 		str	r1, [r3, #2416]
 2846              	.LVL334:
 2847              	.L164:
 2848              	.LBE926:
 2849              	.LBE925:
 2850              	.LBE924:
ARM GAS  C:\Users\mathi\AppData\Local\Temp\ccOm87JI.s 			page 51


 2851              	.LBB928:
 2852              	.LBB929:
 2853              	.LBB930:
 2854              	.LBB931:
 2855              	.LBB932:
 2856              	.LBB933:
 2857              	.LBB934:
 2858              		.loc 3 546 0
 2859 05ba 2023     		movs	r3, #32
 2860              		.syntax unified
 2861              	@ 546 "../../lib/e-puck2_main-processor/ChibiOS//os/ext/CMSIS/include/core_cmFunc.h" 1
 2862 05bc 83F31188 		MSR basepri, r3
 2863              	@ 0 "" 2
 2864              	.LVL335:
 2865              		.thumb
 2866              		.syntax unified
 2867              	.LBE934:
 2868              	.LBE933:
 2869              	.LBE932:
 2870              	.LBE931:
 2871              		.loc 4 389 0
 2872 05c0 FFF7FEFF 		bl	_stats_start_measure_crit_isr
 2873              	.LVL336:
 2874              		.loc 4 390 0
 2875 05c4 FFF7FEFF 		bl	_dbg_check_lock_from_isr
 2876              	.LVL337:
 2877              	.LBE930:
 2878              	.LBE929:
 2879              	.LBE928:
 2880              	.LBB935:
 2881              	.LBB936:
 2882              		.loc 1 1227 0
 2883 05c8 336D     		ldr	r3, [r6, #80]
 2884 05ca D3F86029 		ldr	r2, [r3, #2400]
 2885 05ce 42F00442 		orr	r2, r2, #-2080374784
 2886 05d2 C3F86029 		str	r2, [r3, #2400]
 2887              		.loc 1 1228 0
 2888 05d6 D3F83428 		ldr	r2, [r3, #2100]
 2889 05da 42F00802 		orr	r2, r2, #8
 2890 05de C3F83428 		str	r2, [r3, #2100]
 2891              	.LVL338:
 2892              	.LBE936:
 2893              	.LBE935:
 2894              	.LBB937:
 2895              	.LBB938:
 2896              	.LBB939:
 2897              		.loc 4 408 0
 2898 05e2 FFF7FEFF 		bl	_dbg_check_unlock_from_isr
 2899              	.LVL339:
 2900              		.loc 4 409 0
 2901 05e6 FFF7FEFF 		bl	_stats_stop_measure_crit_isr
 2902              	.LVL340:
 2903              	.LBB940:
 2904              	.LBB941:
 2905              	.LBB942:
 2906              	.LBB943:
 2907              		.loc 3 546 0
ARM GAS  C:\Users\mathi\AppData\Local\Temp\ccOm87JI.s 			page 52


 2908 05ea 0023     		movs	r3, #0
 2909              		.syntax unified
 2910              	@ 546 "../../lib/e-puck2_main-processor/ChibiOS//os/ext/CMSIS/include/core_cmFunc.h" 1
 2911 05ec 83F31188 		MSR basepri, r3
 2912              	@ 0 "" 2
 2913              	.LVL341:
 2914              		.thumb
 2915              		.syntax unified
 2916 05f0 2DE6     		b	.L161
 2917              	.L334:
 2918 05f2 00BF     		.align	2
 2919              	.L333:
 2920 05f4 00000000 		.word	.LANCHOR1
 2921 05f8 60000000 		.word	.LANCHOR1+96
 2922 05fc 40000060 		.word	1610612800
 2923              	.LVL342:
 2924              	.L325:
 2925              	.LBE943:
 2926              	.LBE942:
 2927              	.LBE941:
 2928              	.LBE940:
 2929              	.LBE939:
 2930              	.LBE938:
 2931              	.LBE937:
 2932              	.LBE965:
 2933              	.LBE967:
 2934              	.LBE1117:
 2935              	.LBB1118:
 2936              	.LBB1111:
 2937              	.LBB1109:
 2938              		.loc 1 550 0
 2939 0600 091A     		subs	r1, r1, r0
 2940              		.loc 1 551 0
 2941 0602 0022     		movs	r2, #0
 2942 0604 C3E90112 		strd	r1, r2, [r3, #4]
 2943              	.LVL343:
 2944              	.LBB1068:
 2945              	.LBB1069:
 2946              		.loc 1 1184 0
 2947 0608 7369     		ldr	r3, [r6, #20]
 2948              	.LVL344:
 2949 060a 5B69     		ldr	r3, [r3, #20]
 2950              	.LVL345:
 2951              		.loc 1 1187 0
 2952 060c 5968     		ldr	r1, [r3, #4]
 2953 060e 1961     		str	r1, [r3, #16]
 2954              		.loc 1 1188 0
 2955 0610 0029     		cmp	r1, #0
 2956 0612 00F09680 		beq	.L328
 2957              	.LBB1070:
 2958              		.loc 1 1197 0
 2959 0616 7269     		ldr	r2, [r6, #20]
 2960              		.loc 1 1199 0
 2961 0618 336D     		ldr	r3, [r6, #80]
 2962              	.LVL346:
 2963              		.loc 1 1197 0
 2964 061a 108A     		ldrh	r0, [r2, #16]
ARM GAS  C:\Users\mathi\AppData\Local\Temp\ccOm87JI.s 			page 53


 2965              	.LVL347:
 2966 061c 0A18     		adds	r2, r1, r0
 2967 061e 013A     		subs	r2, r2, #1
 2968 0620 B2FBF0F2 		udiv	r2, r2, r0
 2969              	.LVL348:
 2970              		.loc 1 1199 0
 2971 0624 41EAC241 		orr	r1, r1, r2, lsl #19
 2972 0628 C3F85019 		str	r1, [r3, #2384]
 2973              	.LVL349:
 2974              	.L158:
 2975              	.LBE1070:
 2976              	.LBE1069:
 2977              	.LBE1068:
 2978              	.LBB1072:
 2979              	.LBB1073:
 2980              	.LBB1074:
 2981              	.LBB1075:
 2982              	.LBB1076:
 2983              	.LBB1077:
 2984              	.LBB1078:
 2985              		.loc 3 546 0
 2986 062c 2023     		movs	r3, #32
 2987              		.syntax unified
 2988              	@ 546 "../../lib/e-puck2_main-processor/ChibiOS//os/ext/CMSIS/include/core_cmFunc.h" 1
 2989 062e 83F31188 		MSR basepri, r3
 2990              	@ 0 "" 2
 2991              	.LVL350:
 2992              		.thumb
 2993              		.syntax unified
 2994              	.LBE1078:
 2995              	.LBE1077:
 2996              	.LBE1076:
 2997              	.LBE1075:
 2998              		.loc 4 389 0
 2999 0632 FFF7FEFF 		bl	_stats_start_measure_crit_isr
 3000              	.LVL351:
 3001              		.loc 4 390 0
 3002 0636 FFF7FEFF 		bl	_dbg_check_lock_from_isr
 3003              	.LVL352:
 3004              	.LBE1074:
 3005              	.LBE1073:
 3006              	.LBE1072:
 3007              	.LBB1079:
 3008              	.LBB1080:
 3009              		.loc 1 1227 0
 3010 063a 336D     		ldr	r3, [r6, #80]
 3011 063c D3F84029 		ldr	r2, [r3, #2368]
 3012 0640 42F00442 		orr	r2, r2, #-2080374784
 3013 0644 C3F84029 		str	r2, [r3, #2368]
 3014              		.loc 1 1228 0
 3015 0648 D3F83428 		ldr	r2, [r3, #2100]
 3016 064c 42F00402 		orr	r2, r2, #4
 3017 0650 C3F83428 		str	r2, [r3, #2100]
 3018              	.LVL353:
 3019              	.LBE1080:
 3020              	.LBE1079:
 3021              	.LBB1081:
ARM GAS  C:\Users\mathi\AppData\Local\Temp\ccOm87JI.s 			page 54


 3022              	.LBB1082:
 3023              	.LBB1083:
 3024              		.loc 4 408 0
 3025 0654 FFF7FEFF 		bl	_dbg_check_unlock_from_isr
 3026              	.LVL354:
 3027              		.loc 4 409 0
 3028 0658 FFF7FEFF 		bl	_stats_stop_measure_crit_isr
 3029              	.LVL355:
 3030              	.LBB1084:
 3031              	.LBB1085:
 3032              	.LBB1086:
 3033              	.LBB1087:
 3034              		.loc 3 546 0
 3035 065c 0023     		movs	r3, #0
 3036              		.syntax unified
 3037              	@ 546 "../../lib/e-puck2_main-processor/ChibiOS//os/ext/CMSIS/include/core_cmFunc.h" 1
 3038 065e 83F31188 		MSR basepri, r3
 3039              	@ 0 "" 2
 3040              	.LVL356:
 3041              		.thumb
 3042              		.syntax unified
 3043 0662 C1E6     		b	.L155
 3044              	.LVL357:
 3045              	.L324:
 3046              	.LBE1087:
 3047              	.LBE1086:
 3048              	.LBE1085:
 3049              	.LBE1084:
 3050              	.LBE1083:
 3051              	.LBE1082:
 3052              	.LBE1081:
 3053              	.LBE1109:
 3054              	.LBE1111:
 3055              	.LBE1118:
 3056              	.LBB1119:
 3057              	.LBB1063:
 3058              	.LBB1061:
 3059              		.loc 1 550 0
 3060 0664 091A     		subs	r1, r1, r0
 3061              		.loc 1 551 0
 3062 0666 0022     		movs	r2, #0
 3063 0668 C3E90112 		strd	r1, r2, [r3, #4]
 3064              	.LVL358:
 3065              	.LBB1020:
 3066              	.LBB1021:
 3067              		.loc 1 1184 0
 3068 066c 3369     		ldr	r3, [r6, #16]
 3069              	.LVL359:
 3070 066e 5B69     		ldr	r3, [r3, #20]
 3071              	.LVL360:
 3072              		.loc 1 1187 0
 3073 0670 5968     		ldr	r1, [r3, #4]
 3074 0672 1961     		str	r1, [r3, #16]
 3075              		.loc 1 1188 0
 3076 0674 0029     		cmp	r1, #0
 3077 0676 6AD0     		beq	.L329
 3078              	.LBB1022:
ARM GAS  C:\Users\mathi\AppData\Local\Temp\ccOm87JI.s 			page 55


 3079              		.loc 1 1197 0
 3080 0678 3269     		ldr	r2, [r6, #16]
 3081              		.loc 1 1199 0
 3082 067a 336D     		ldr	r3, [r6, #80]
 3083              	.LVL361:
 3084              		.loc 1 1197 0
 3085 067c 108A     		ldrh	r0, [r2, #16]
 3086              	.LVL362:
 3087 067e 0A18     		adds	r2, r1, r0
 3088 0680 013A     		subs	r2, r2, #1
 3089 0682 B2FBF0F2 		udiv	r2, r2, r0
 3090              	.LVL363:
 3091              		.loc 1 1199 0
 3092 0686 41EAC241 		orr	r1, r1, r2, lsl #19
 3093 068a C3F83019 		str	r1, [r3, #2352]
 3094              	.LVL364:
 3095              	.L151:
 3096              	.LBE1022:
 3097              	.LBE1021:
 3098              	.LBE1020:
 3099              	.LBB1024:
 3100              	.LBB1025:
 3101              	.LBB1026:
 3102              	.LBB1027:
 3103              	.LBB1028:
 3104              	.LBB1029:
 3105              	.LBB1030:
 3106              		.loc 3 546 0
 3107 068e 2023     		movs	r3, #32
 3108              		.syntax unified
 3109              	@ 546 "../../lib/e-puck2_main-processor/ChibiOS//os/ext/CMSIS/include/core_cmFunc.h" 1
 3110 0690 83F31188 		MSR basepri, r3
 3111              	@ 0 "" 2
 3112              	.LVL365:
 3113              		.thumb
 3114              		.syntax unified
 3115              	.LBE1030:
 3116              	.LBE1029:
 3117              	.LBE1028:
 3118              	.LBE1027:
 3119              		.loc 4 389 0
 3120 0694 FFF7FEFF 		bl	_stats_start_measure_crit_isr
 3121              	.LVL366:
 3122              		.loc 4 390 0
 3123 0698 FFF7FEFF 		bl	_dbg_check_lock_from_isr
 3124              	.LVL367:
 3125              	.LBE1026:
 3126              	.LBE1025:
 3127              	.LBE1024:
 3128              	.LBB1031:
 3129              	.LBB1032:
 3130              		.loc 1 1227 0
 3131 069c 336D     		ldr	r3, [r6, #80]
 3132 069e D3F82029 		ldr	r2, [r3, #2336]
 3133 06a2 42F00442 		orr	r2, r2, #-2080374784
 3134 06a6 C3F82029 		str	r2, [r3, #2336]
 3135              		.loc 1 1228 0
ARM GAS  C:\Users\mathi\AppData\Local\Temp\ccOm87JI.s 			page 56


 3136 06aa D3F83428 		ldr	r2, [r3, #2100]
 3137 06ae 42F00202 		orr	r2, r2, #2
 3138 06b2 C3F83428 		str	r2, [r3, #2100]
 3139              	.LVL368:
 3140              	.LBE1032:
 3141              	.LBE1031:
 3142              	.LBB1033:
 3143              	.LBB1034:
 3144              	.LBB1035:
 3145              		.loc 4 408 0
 3146 06b6 FFF7FEFF 		bl	_dbg_check_unlock_from_isr
 3147              	.LVL369:
 3148              		.loc 4 409 0
 3149 06ba FFF7FEFF 		bl	_stats_stop_measure_crit_isr
 3150              	.LVL370:
 3151              	.LBB1036:
 3152              	.LBB1037:
 3153              	.LBB1038:
 3154              	.LBB1039:
 3155              		.loc 3 546 0
 3156 06be 0023     		movs	r3, #0
 3157              		.syntax unified
 3158              	@ 546 "../../lib/e-puck2_main-processor/ChibiOS//os/ext/CMSIS/include/core_cmFunc.h" 1
 3159 06c0 83F31188 		MSR basepri, r3
 3160              	@ 0 "" 2
 3161              	.LVL371:
 3162              		.thumb
 3163              		.syntax unified
 3164 06c4 4EE6     		b	.L148
 3165              	.LVL372:
 3166              	.L323:
 3167              	.LBE1039:
 3168              	.LBE1038:
 3169              	.LBE1037:
 3170              	.LBE1036:
 3171              	.LBE1035:
 3172              	.LBE1034:
 3173              	.LBE1033:
 3174              	.LBE1061:
 3175              	.LBE1063:
 3176              	.LBE1119:
 3177              	.LBB1120:
 3178              	.LBB1015:
 3179              	.LBB1013:
 3180              		.loc 1 550 0
 3181 06c6 091A     		subs	r1, r1, r0
 3182              		.loc 1 551 0
 3183 06c8 0022     		movs	r2, #0
 3184 06ca C3E90112 		strd	r1, r2, [r3, #4]
 3185              	.LVL373:
 3186              	.LBB972:
 3187              	.LBB973:
 3188              		.loc 1 1184 0
 3189 06ce F368     		ldr	r3, [r6, #12]
 3190              	.LVL374:
 3191 06d0 5B69     		ldr	r3, [r3, #20]
 3192              	.LVL375:
ARM GAS  C:\Users\mathi\AppData\Local\Temp\ccOm87JI.s 			page 57


 3193              		.loc 1 1187 0
 3194 06d2 5968     		ldr	r1, [r3, #4]
 3195 06d4 1961     		str	r1, [r3, #16]
 3196              		.loc 1 1188 0
 3197 06d6 0029     		cmp	r1, #0
 3198 06d8 3FD0     		beq	.L330
 3199              	.LBB974:
 3200              		.loc 1 1193 0
 3201 06da 4029     		cmp	r1, #64
 3202              		.loc 1 1194 0
 3203 06dc 84BF     		itt	hi
 3204 06de 4021     		movhi	r1, #64
 3205 06e0 5960     		strhi	r1, [r3, #4]
 3206              		.loc 1 1197 0
 3207 06e2 F268     		ldr	r2, [r6, #12]
 3208              		.loc 1 1199 0
 3209 06e4 336D     		ldr	r3, [r6, #80]
 3210              	.LVL376:
 3211              		.loc 1 1197 0
 3212 06e6 108A     		ldrh	r0, [r2, #16]
 3213              	.LVL377:
 3214 06e8 0A18     		adds	r2, r1, r0
 3215 06ea 013A     		subs	r2, r2, #1
 3216 06ec B2FBF0F2 		udiv	r2, r2, r0
 3217              	.LVL378:
 3218              		.loc 1 1199 0
 3219 06f0 41EAC241 		orr	r1, r1, r2, lsl #19
 3220 06f4 C3F81019 		str	r1, [r3, #2320]
 3221              	.LVL379:
 3222              	.L143:
 3223              	.LBE974:
 3224              	.LBE973:
 3225              	.LBE972:
 3226              	.LBB976:
 3227              	.LBB977:
 3228              	.LBB978:
 3229              	.LBB979:
 3230              	.LBB980:
 3231              	.LBB981:
 3232              	.LBB982:
 3233              		.loc 3 546 0
 3234 06f8 2023     		movs	r3, #32
 3235              		.syntax unified
 3236              	@ 546 "../../lib/e-puck2_main-processor/ChibiOS//os/ext/CMSIS/include/core_cmFunc.h" 1
 3237 06fa 83F31188 		MSR basepri, r3
 3238              	@ 0 "" 2
 3239              	.LVL380:
 3240              		.thumb
 3241              		.syntax unified
 3242              	.LBE982:
 3243              	.LBE981:
 3244              	.LBE980:
 3245              	.LBE979:
 3246              		.loc 4 389 0
 3247 06fe FFF7FEFF 		bl	_stats_start_measure_crit_isr
 3248              	.LVL381:
 3249              		.loc 4 390 0
ARM GAS  C:\Users\mathi\AppData\Local\Temp\ccOm87JI.s 			page 58


 3250 0702 FFF7FEFF 		bl	_dbg_check_lock_from_isr
 3251              	.LVL382:
 3252              	.LBE978:
 3253              	.LBE977:
 3254              	.LBE976:
 3255              	.LBB983:
 3256              	.LBB984:
 3257              		.loc 1 1227 0
 3258 0706 336D     		ldr	r3, [r6, #80]
 3259 0708 D3F80029 		ldr	r2, [r3, #2304]
 3260 070c 42F00442 		orr	r2, r2, #-2080374784
 3261 0710 C3F80029 		str	r2, [r3, #2304]
 3262              		.loc 1 1228 0
 3263 0714 D3F83428 		ldr	r2, [r3, #2100]
 3264 0718 42F00102 		orr	r2, r2, #1
 3265 071c C3F83428 		str	r2, [r3, #2100]
 3266              	.LVL383:
 3267              	.LBE984:
 3268              	.LBE983:
 3269              	.LBB985:
 3270              	.LBB986:
 3271              	.LBB987:
 3272              		.loc 4 408 0
 3273 0720 FFF7FEFF 		bl	_dbg_check_unlock_from_isr
 3274              	.LVL384:
 3275              		.loc 4 409 0
 3276 0724 FFF7FEFF 		bl	_stats_stop_measure_crit_isr
 3277              	.LVL385:
 3278              	.LBB988:
 3279              	.LBB989:
 3280              	.LBB990:
 3281              	.LBB991:
 3282              		.loc 3 546 0
 3283 0728 0023     		movs	r3, #0
 3284              		.syntax unified
 3285              	@ 546 "../../lib/e-puck2_main-processor/ChibiOS//os/ext/CMSIS/include/core_cmFunc.h" 1
 3286 072a 83F31188 		MSR basepri, r3
 3287              	@ 0 "" 2
 3288              	.LVL386:
 3289              		.thumb
 3290              		.syntax unified
 3291 072e D7E5     		b	.L140
 3292              	.LVL387:
 3293              	.L326:
 3294 0730 43F0C041 		orr	r1, r3, #1610612736
 3295              	.LVL388:
 3296 0734 E1E6     		b	.L173
 3297              	.LVL389:
 3298              	.L327:
 3299              	.LBE991:
 3300              	.LBE990:
 3301              	.LBE989:
 3302              	.LBE988:
 3303              	.LBE987:
 3304              	.LBE986:
 3305              	.LBE985:
 3306              	.LBE1013:
ARM GAS  C:\Users\mathi\AppData\Local\Temp\ccOm87JI.s 			page 59


 3307              	.LBE1015:
 3308              	.LBE1120:
 3309              	.LBB1121:
 3310              	.LBB968:
 3311              	.LBB966:
 3312              	.LBB944:
 3313              	.LBB927:
 3314              		.loc 1 1190 0
 3315 0736 336D     		ldr	r3, [r6, #80]
 3316              	.LVL390:
 3317 0738 4FF40022 		mov	r2, #524288
 3318 073c C3F87029 		str	r2, [r3, #2416]
 3319 0740 3BE7     		b	.L164
 3320              	.LVL391:
 3321              	.L328:
 3322              	.LBE927:
 3323              	.LBE944:
 3324              	.LBE966:
 3325              	.LBE968:
 3326              	.LBE1121:
 3327              	.LBB1122:
 3328              	.LBB1112:
 3329              	.LBB1110:
 3330              	.LBB1088:
 3331              	.LBB1071:
 3332 0742 336D     		ldr	r3, [r6, #80]
 3333              	.LVL392:
 3334 0744 4FF40022 		mov	r2, #524288
 3335 0748 C3F85029 		str	r2, [r3, #2384]
 3336 074c 6EE7     		b	.L158
 3337              	.LVL393:
 3338              	.L329:
 3339              	.LBE1071:
 3340              	.LBE1088:
 3341              	.LBE1110:
 3342              	.LBE1112:
 3343              	.LBE1122:
 3344              	.LBB1123:
 3345              	.LBB1064:
 3346              	.LBB1062:
 3347              	.LBB1040:
 3348              	.LBB1023:
 3349 074e 336D     		ldr	r3, [r6, #80]
 3350              	.LVL394:
 3351 0750 4FF40022 		mov	r2, #524288
 3352 0754 C3F83029 		str	r2, [r3, #2352]
 3353 0758 99E7     		b	.L151
 3354              	.LVL395:
 3355              	.L330:
 3356              	.LBE1023:
 3357              	.LBE1040:
 3358              	.LBE1062:
 3359              	.LBE1064:
 3360              	.LBE1123:
 3361              	.LBB1124:
 3362              	.LBB1016:
 3363              	.LBB1014:
ARM GAS  C:\Users\mathi\AppData\Local\Temp\ccOm87JI.s 			page 60


 3364              	.LBB992:
 3365              	.LBB975:
 3366 075a 336D     		ldr	r3, [r6, #80]
 3367              	.LVL396:
 3368 075c 4FF40022 		mov	r2, #524288
 3369 0760 C3F81029 		str	r2, [r3, #2320]
 3370 0764 C8E7     		b	.L143
 3371              	.LVL397:
 3372              	.L317:
 3373              	.LBE975:
 3374              	.LBE992:
 3375              	.LBE1014:
 3376              	.LBE1016:
 3377              	.LBE1124:
 3378              	.LBE1126:
 3379              	.LBE1128:
 3380              		.loc 1 712 0
 3381 0766 FFF7FEFF 		bl	__stack_chk_fail
 3382              	.LVL398:
 3383              		.cfi_endproc
 3384              	.LFE273:
 3385              		.size	Vector14C, .-Vector14C
 3386 076a 00BF     		.section	.text.usb_lld_init,"ax",%progbits
 3387              		.align	1
 3388              		.p2align 4,,15
 3389              		.global	usb_lld_init
 3390              		.syntax unified
 3391              		.thumb
 3392              		.thumb_func
 3393              		.fpu fpv4-sp-d16
 3394              		.type	usb_lld_init, %function
 3395              	usb_lld_init:
 3396              	.LFB274:
 3397              		.loc 1 744 0
 3398              		.cfi_startproc
 3399              		@ args = 0, pretend = 0, frame = 8
 3400              		@ frame_needed = 0, uses_anonymous_args = 0
 3401 0000 30B5     		push	{r4, r5, lr}
 3402              		.cfi_def_cfa_offset 12
 3403              		.cfi_offset 4, -12
 3404              		.cfi_offset 5, -8
 3405              		.cfi_offset 14, -4
 3406              		.loc 1 748 0
 3407 0002 134C     		ldr	r4, .L340
 3408              		.loc 1 744 0
 3409 0004 134D     		ldr	r5, .L340+4
 3410 0006 83B0     		sub	sp, sp, #12
 3411              		.cfi_def_cfa_offset 24
 3412              		.loc 1 744 0
 3413 0008 2B68     		ldr	r3, [r5]
 3414 000a 0193     		str	r3, [sp, #4]
 3415              		.loc 1 748 0
 3416 000c 2046     		mov	r0, r4
 3417 000e FFF7FEFF 		bl	usbObjectInit
 3418              	.LVL399:
 3419              		.loc 1 750 0
 3420 0012 4FF0A043 		mov	r3, #1342177280
ARM GAS  C:\Users\mathi\AppData\Local\Temp\ccOm87JI.s 			page 61


 3421              		.loc 1 751 0
 3422 0016 104A     		ldr	r2, .L340+8
 3423              		.loc 1 750 0
 3424 0018 2365     		str	r3, [r4, #80]
 3425              		.loc 1 751 0
 3426 001a 6265     		str	r2, [r4, #84]
 3427              		.loc 1 749 0
 3428 001c 0023     		movs	r3, #0
 3429              	.LBB1129:
 3430              		.loc 1 760 0
 3431 001e FF22     		movs	r2, #255
 3432 0020 04F1D001 		add	r1, r4, #208
 3433 0024 04F16800 		add	r0, r4, #104
 3434              	.LBE1129:
 3435              		.loc 1 754 0
 3436 0028 C4E91833 		strd	r3, r3, [r4, #96]
 3437              	.LVL400:
 3438              	.LBB1130:
 3439              		.loc 1 760 0
 3440 002c FFF7FEFF 		bl	_thread_memfill
 3441              	.LVL401:
 3442              		.loc 1 763 0
 3443 0030 019A     		ldr	r2, [sp, #4]
 3444 0032 2B68     		ldr	r3, [r5]
 3445 0034 9A42     		cmp	r2, r3
 3446 0036 09D1     		bne	.L339
 3447 0038 5522     		movs	r2, #85
 3448 003a 04F51871 		add	r1, r4, #608
 3449 003e 04F1D000 		add	r0, r4, #208
 3450              	.LBE1130:
 3451              		.loc 1 794 0
 3452 0042 03B0     		add	sp, sp, #12
 3453              		.cfi_remember_state
 3454              		.cfi_def_cfa_offset 12
 3455              		@ sp needed
 3456 0044 BDE83040 		pop	{r4, r5, lr}
 3457              		.cfi_restore 14
 3458              		.cfi_restore 5
 3459              		.cfi_restore 4
 3460              		.cfi_def_cfa_offset 0
 3461              	.LBB1131:
 3462              		.loc 1 763 0
 3463 0048 FFF7FEBF 		b	_thread_memfill
 3464              	.LVL402:
 3465              	.L339:
 3466              		.cfi_restore_state
 3467 004c FFF7FEFF 		bl	__stack_chk_fail
 3468              	.LVL403:
 3469              	.L341:
 3470              		.align	2
 3471              	.L340:
 3472 0050 00000000 		.word	.LANCHOR1
 3473 0054 00000000 		.word	__stack_chk_guard
 3474 0058 00000000 		.word	.LANCHOR2
 3475              	.LBE1131:
 3476              		.cfi_endproc
 3477              	.LFE274:
ARM GAS  C:\Users\mathi\AppData\Local\Temp\ccOm87JI.s 			page 62


 3478              		.size	usb_lld_init, .-usb_lld_init
 3479              		.section	.text.usb_lld_start,"ax",%progbits
 3480              		.align	1
 3481              		.p2align 4,,15
 3482              		.global	usb_lld_start
 3483              		.syntax unified
 3484              		.thumb
 3485              		.thumb_func
 3486              		.fpu fpv4-sp-d16
 3487              		.type	usb_lld_start, %function
 3488              	usb_lld_start:
 3489              	.LFB275:
 3490              		.loc 1 806 0
 3491              		.cfi_startproc
 3492              		@ args = 0, pretend = 0, frame = 8
 3493              		@ frame_needed = 0, uses_anonymous_args = 0
 3494              	.LVL404:
 3495 0000 2DE9F043 		push	{r4, r5, r6, r7, r8, r9, lr}
 3496              		.cfi_def_cfa_offset 28
 3497              		.cfi_offset 4, -28
 3498              		.cfi_offset 5, -24
 3499              		.cfi_offset 6, -20
 3500              		.cfi_offset 7, -16
 3501              		.cfi_offset 8, -12
 3502              		.cfi_offset 9, -8
 3503              		.cfi_offset 14, -4
 3504 0004 574E     		ldr	r6, .L377
 3505              		.loc 1 809 0
 3506 0006 0378     		ldrb	r3, [r0]	@ zero_extendqisi2
 3507              		.loc 1 806 0
 3508 0008 3268     		ldr	r2, [r6]
 3509 000a 85B0     		sub	sp, sp, #20
 3510              		.cfi_def_cfa_offset 48
 3511              		.loc 1 809 0
 3512 000c 012B     		cmp	r3, #1
 3513              		.loc 1 806 0
 3514 000e 0392     		str	r2, [sp, #12]
 3515              	.LVL405:
 3516              		.loc 1 809 0
 3517 0010 07D0     		beq	.L370
 3518              	.LVL406:
 3519              	.L342:
 3520              		.loc 1 893 0
 3521 0012 039A     		ldr	r2, [sp, #12]
 3522 0014 3368     		ldr	r3, [r6]
 3523 0016 9A42     		cmp	r2, r3
 3524 0018 40F0A280 		bne	.L371
 3525 001c 05B0     		add	sp, sp, #20
 3526              		.cfi_remember_state
 3527              		.cfi_def_cfa_offset 28
 3528              		@ sp needed
 3529 001e BDE8F083 		pop	{r4, r5, r6, r7, r8, r9, pc}
 3530              	.LVL407:
 3531              	.L370:
 3532              		.cfi_restore_state
 3533              		.loc 1 812 0
 3534 0022 514B     		ldr	r3, .L377+4
ARM GAS  C:\Users\mathi\AppData\Local\Temp\ccOm87JI.s 			page 63


 3535              		.loc 1 807 0
 3536 0024 056D     		ldr	r5, [r0, #80]
 3537              		.loc 1 812 0
 3538 0026 9842     		cmp	r0, r3
 3539 0028 0446     		mov	r4, r0
 3540 002a 71D0     		beq	.L372
 3541              	.LVL408:
 3542              	.L344:
 3543              		.loc 1 836 0
 3544 002c 0023     		movs	r3, #0
 3545              		.loc 1 841 0
 3546 002e 4F4A     		ldr	r2, .L377+8
 3547              		.loc 1 836 0
 3548 0030 E365     		str	r3, [r4, #92]
 3549              		.loc 1 844 0
 3550 0032 4F49     		ldr	r1, .L377+12
 3551              		.loc 1 841 0
 3552 0034 EA60     		str	r2, [r5, #12]
 3553              		.loc 1 854 0
 3554 0036 4FF45022 		mov	r2, #851968
 3555              		.loc 1 844 0
 3556 003a C5F80018 		str	r1, [r5, #2048]
 3557              		.loc 1 847 0
 3558 003e C5F8003E 		str	r3, [r5, #3584]
 3559              		.loc 1 854 0
 3560 0042 AA63     		str	r2, [r5, #56]
 3561 0044 276D     		ldr	r7, [r4, #80]
 3562              	.LVL409:
 3563              	.LBB1142:
 3564              	.LBB1143:
 3565              	.LBB1144:
 3566              	.LBB1145:
 3567              		.loc 5 527 0
 3568 0046 2020     		movs	r0, #32
 3569 0048 FFF7FEFF 		bl	chSysPolledDelayX
 3570              	.LVL410:
 3571              	.LBE1145:
 3572              	.LBE1144:
 3573              		.loc 1 121 0
 3574 004c 0123     		movs	r3, #1
 3575 004e 3B61     		str	r3, [r7, #16]
 3576              	.L345:
 3577              		.loc 1 122 0
 3578 0050 3B69     		ldr	r3, [r7, #16]
 3579 0052 D807     		lsls	r0, r3, #31
 3580 0054 FCD4     		bmi	.L345
 3581              	.LVL411:
 3582              	.LBB1146:
 3583              	.LBB1147:
 3584              		.loc 5 527 0
 3585 0056 0C20     		movs	r0, #12
 3586 0058 FFF7FEFF 		bl	chSysPolledDelayX
 3587              	.LVL412:
 3588              	.L346:
 3589              	.LBE1147:
 3590              	.LBE1146:
 3591              		.loc 1 128 0
ARM GAS  C:\Users\mathi\AppData\Local\Temp\ccOm87JI.s 			page 64


 3592 005c 3B69     		ldr	r3, [r7, #16]
 3593 005e 002B     		cmp	r3, #0
 3594 0060 FCDA     		bge	.L346
 3595              	.LVL413:
 3596              	.LBE1143:
 3597              	.LBE1142:
 3598              		.loc 1 861 0
 3599 0062 0020     		movs	r0, #0
 3600 0064 A860     		str	r0, [r5, #8]
 3601 0066 D4F850C0 		ldr	ip, [r4, #80]
 3602              	.LVL414:
 3603              	.LBB1148:
 3604              	.LBB1149:
 3605              		.loc 1 147 0
 3606 006a 0746     		mov	r7, r0
 3607              		.loc 1 141 0
 3608 006c 4FF08048 		mov	r8, #1073741824
 3609              		.loc 1 149 0
 3610 0070 4FF0FF3E 		mov	lr, #-1
 3611 0074 18E0     		b	.L353
 3612              	.LVL415:
 3613              	.L347:
 3614              		.loc 1 147 0
 3615 0076 C2F80079 		str	r7, [r2, #2304]
 3616              	.L349:
 3617              		.loc 1 148 0
 3618 007a 0CEB0301 		add	r1, ip, r3
 3619 007e C1F81079 		str	r7, [r1, #2320]
 3620              		.loc 1 149 0
 3621 0082 C1F808E9 		str	lr, [r1, #2312]
 3622              		.loc 1 155 0
 3623 0086 D2F8009B 		ldr	r9, [r2, #2816]
 3624 008a B9F1000F 		cmp	r9, #0
 3625 008e 1ADB     		blt	.L373
 3626              		.loc 1 162 0
 3627 0090 C2F8007B 		str	r7, [r2, #2816]
 3628              	.L352:
 3629              		.loc 1 163 0
 3630 0094 6344     		add	r3, r3, ip
 3631              		.loc 1 136 0
 3632 0096 0130     		adds	r0, r0, #1
 3633              	.LVL416:
 3634              		.loc 1 163 0
 3635 0098 C3F8107B 		str	r7, [r3, #2832]
 3636              		.loc 1 164 0
 3637 009c C3F808EB 		str	lr, [r3, #2824]
 3638              		.loc 1 136 0
 3639 00a0 636D     		ldr	r3, [r4, #84]
 3640 00a2 9B68     		ldr	r3, [r3, #8]
 3641 00a4 9842     		cmp	r0, r3
 3642 00a6 15D8     		bhi	.L374
 3643              	.LVL417:
 3644              	.L353:
 3645 00a8 4301     		lsls	r3, r0, #5
 3646 00aa 0CEB0302 		add	r2, ip, r3
 3647              		.loc 1 140 0
 3648 00ae D2F80019 		ldr	r1, [r2, #2304]
ARM GAS  C:\Users\mathi\AppData\Local\Temp\ccOm87JI.s 			page 65


 3649 00b2 0029     		cmp	r1, #0
 3650 00b4 DFDA     		bge	.L347
 3651              		.loc 1 141 0
 3652 00b6 C2F80089 		str	r8, [r2, #2304]
 3653              		.loc 1 143 0
 3654 00ba 9146     		mov	r9, r2
 3655              	.L348:
 3656 00bc D9F80819 		ldr	r1, [r9, #2312]
 3657 00c0 8907     		lsls	r1, r1, #30
 3658 00c2 FBD5     		bpl	.L348
 3659 00c4 D9E7     		b	.L349
 3660              	.L373:
 3661              		.loc 1 156 0
 3662 00c6 C2F8008B 		str	r8, [r2, #2816]
 3663              	.L351:
 3664              		.loc 1 158 0
 3665 00ca D1F8082B 		ldr	r2, [r1, #2824]
 3666 00ce D206     		lsls	r2, r2, #27
 3667 00d0 FBD5     		bpl	.L351
 3668 00d2 DFE7     		b	.L352
 3669              	.L374:
 3670              		.loc 1 166 0
 3671 00d4 4FF00113 		mov	r3, #65537
 3672 00d8 CCF81C38 		str	r3, [ip, #2076]
 3673              	.LVL418:
 3674              	.LBE1149:
 3675              	.LBE1148:
 3676              		.loc 1 868 0
 3677 00dc C5F81078 		str	r7, [r5, #2064]
 3678              		.loc 1 869 0
 3679 00e0 C5F81478 		str	r7, [r5, #2068]
 3680              		.loc 1 870 0
 3681 00e4 C5F81C78 		str	r7, [r5, #2076]
 3682              		.loc 1 871 0
 3683 00e8 6368     		ldr	r3, [r4, #4]
 3684 00ea DB68     		ldr	r3, [r3, #12]
 3685 00ec 63B1     		cbz	r3, .L375
 3686              		.loc 1 875 0
 3687 00ee 43F20803 		movw	r3, #12296
 3688 00f2 AB61     		str	r3, [r5, #24]
 3689              	.L355:
 3690              		.loc 1 877 0
 3691 00f4 4FF0FF33 		mov	r3, #-1
 3692 00f8 6B61     		str	r3, [r5, #20]
 3693              		.loc 1 881 0
 3694 00fa 636E     		ldr	r3, [r4, #100]
 3695 00fc C3B1     		cbz	r3, .L376
 3696              	.L356:
 3697              		.loc 1 891 0
 3698 00fe AB68     		ldr	r3, [r5, #8]
 3699 0100 43F00103 		orr	r3, r3, #1
 3700 0104 AB60     		str	r3, [r5, #8]
 3701              		.loc 1 893 0
 3702 0106 84E7     		b	.L342
 3703              	.L375:
 3704              		.loc 1 872 0
 3705 0108 4FF44053 		mov	r3, #12288
ARM GAS  C:\Users\mathi\AppData\Local\Temp\ccOm87JI.s 			page 66


 3706 010c AB61     		str	r3, [r5, #24]
 3707 010e F1E7     		b	.L355
 3708              	.LVL419:
 3709              	.L372:
 3710              		.loc 1 814 0
 3711 0110 184B     		ldr	r3, .L377+16
 3712 0112 5A6B     		ldr	r2, [r3, #52]
 3713 0114 42F08002 		orr	r2, r2, #128
 3714 0118 5A63     		str	r2, [r3, #52]
 3715              	.LVL420:
 3716              		.loc 1 815 0
 3717 011a 5A69     		ldr	r2, [r3, #20]
 3718 011c 0021     		movs	r1, #0
 3719 011e 42F08002 		orr	r2, r2, #128
 3720 0122 5A61     		str	r2, [r3, #20]
 3721              		.loc 1 818 0
 3722 0124 4320     		movs	r0, #67
 3723              	.LVL421:
 3724              		.loc 1 815 0
 3725 0126 5961     		str	r1, [r3, #20]
 3726              		.loc 1 818 0
 3727 0128 0E21     		movs	r1, #14
 3728 012a FFF7FEFF 		bl	nvicEnableVector
 3729              	.LVL422:
 3730 012e 7DE7     		b	.L344
 3731              	.LVL423:
 3732              	.L376:
 3733              		.loc 1 882 0
 3734 0130 114B     		ldr	r3, .L377+20
 3735 0132 0094     		str	r4, [sp]
 3736 0134 4A22     		movs	r2, #74
 3737 0136 4FF4FC71 		mov	r1, #504
 3738 013a 04F16800 		add	r0, r4, #104
 3739 013e FFF7FEFF 		bl	chThdCreateI
 3740              	.LVL424:
 3741 0142 6066     		str	r0, [r4, #100]
 3742              	.LVL425:
 3743              	.LBB1150:
 3744              	.LBB1151:
 3745              		.file 6 "../../lib/e-puck2_main-processor/ChibiOS//os/rt/include/chthreads.h"
 3746              		.loc 6 247 0
 3747 0144 90F82030 		ldrb	r3, [r0, #32]	@ zero_extendqisi2
 3748 0148 022B     		cmp	r3, #2
 3749              	.LBE1151:
 3750              	.LBE1150:
 3751              		.loc 1 882 0
 3752 014a 0746     		mov	r7, r0
 3753              	.LBB1153:
 3754              	.LBB1152:
 3755              		.loc 6 247 0
 3756 014c 02D0     		beq	.L357
 3757 014e 0B48     		ldr	r0, .L377+24
 3758              	.LVL426:
 3759 0150 FFF7FEFF 		bl	chSysHalt
 3760              	.LVL427:
 3761              	.L357:
 3762              		.loc 6 249 0
ARM GAS  C:\Users\mathi\AppData\Local\Temp\ccOm87JI.s 			page 67


 3763 0154 3846     		mov	r0, r7
 3764 0156 FFF7FEFF 		bl	chSchReadyI
 3765              	.LVL428:
 3766              	.LBE1152:
 3767              	.LBE1153:
 3768              		.loc 1 886 0
 3769 015a FFF7FEFF 		bl	chSchRescheduleS
 3770              	.LVL429:
 3771 015e CEE7     		b	.L356
 3772              	.LVL430:
 3773              	.L371:
 3774              		.loc 1 893 0
 3775 0160 FFF7FEFF 		bl	__stack_chk_fail
 3776              	.LVL431:
 3777              	.L378:
 3778              		.align	2
 3779              	.L377:
 3780 0164 00000000 		.word	__stack_chk_guard
 3781 0168 00000000 		.word	.LANCHOR1
 3782 016c 40140040 		.word	1073747008
 3783 0170 03002002 		.word	35651587
 3784 0174 00380240 		.word	1073887232
 3785 0178 00000000 		.word	usb_lld_pump
 3786 017c 00000000 		.word	.LANCHOR3
 3787              		.cfi_endproc
 3788              	.LFE275:
 3789              		.size	usb_lld_start, .-usb_lld_start
 3790              		.section	.text.usb_lld_stop,"ax",%progbits
 3791              		.align	1
 3792              		.p2align 4,,15
 3793              		.global	usb_lld_stop
 3794              		.syntax unified
 3795              		.thumb
 3796              		.thumb_func
 3797              		.fpu fpv4-sp-d16
 3798              		.type	usb_lld_stop, %function
 3799              	usb_lld_stop:
 3800              	.LFB276:
 3801              		.loc 1 902 0
 3802              		.cfi_startproc
 3803              		@ args = 0, pretend = 0, frame = 8
 3804              		@ frame_needed = 0, uses_anonymous_args = 0
 3805              	.LVL432:
 3806 0000 2DE9F041 		push	{r4, r5, r6, r7, r8, lr}
 3807              		.cfi_def_cfa_offset 24
 3808              		.cfi_offset 4, -24
 3809              		.cfi_offset 5, -20
 3810              		.cfi_offset 6, -16
 3811              		.cfi_offset 7, -12
 3812              		.cfi_offset 8, -8
 3813              		.cfi_offset 14, -4
 3814 0004 2C4F     		ldr	r7, .L400
 3815              		.loc 1 906 0
 3816 0006 0378     		ldrb	r3, [r0]	@ zero_extendqisi2
 3817              		.loc 1 902 0
 3818 0008 3A68     		ldr	r2, [r7]
 3819 000a 82B0     		sub	sp, sp, #8
ARM GAS  C:\Users\mathi\AppData\Local\Temp\ccOm87JI.s 			page 68


 3820              		.cfi_def_cfa_offset 32
 3821              		.loc 1 906 0
 3822 000c 012B     		cmp	r3, #1
 3823              		.loc 1 902 0
 3824 000e 0192     		str	r2, [sp, #4]
 3825              	.LVL433:
 3826              		.loc 1 906 0
 3827 0010 41D0     		beq	.L379
 3828              	.LBB1156:
 3829              	.LBB1157:
 3830              		.loc 1 136 0
 3831 0012 0025     		movs	r5, #0
 3832              	.LBE1157:
 3833              	.LBE1156:
 3834              		.loc 1 903 0
 3835 0014 066D     		ldr	r6, [r0, #80]
 3836              	.LBB1162:
 3837              	.LBB1158:
 3838              		.loc 1 147 0
 3839 0016 2C46     		mov	r4, r5
 3840              		.loc 1 141 0
 3841 0018 4FF0804E 		mov	lr, #1073741824
 3842              		.loc 1 149 0
 3843 001c 4FF0FF3C 		mov	ip, #-1
 3844 0020 17E0     		b	.L388
 3845              	.LVL434:
 3846              	.L382:
 3847              		.loc 1 147 0
 3848 0022 C2F80049 		str	r4, [r2, #2304]
 3849              	.L384:
 3850              		.loc 1 148 0
 3851 0026 F118     		adds	r1, r6, r3
 3852 0028 C1F81049 		str	r4, [r1, #2320]
 3853              		.loc 1 149 0
 3854 002c C1F808C9 		str	ip, [r1, #2312]
 3855              		.loc 1 155 0
 3856 0030 D2F8008B 		ldr	r8, [r2, #2816]
 3857 0034 B8F1000F 		cmp	r8, #0
 3858 0038 34DB     		blt	.L397
 3859              		.loc 1 162 0
 3860 003a C2F8004B 		str	r4, [r2, #2816]
 3861              	.L387:
 3862              		.loc 1 163 0
 3863 003e 3344     		add	r3, r3, r6
 3864              		.loc 1 136 0
 3865 0040 0135     		adds	r5, r5, #1
 3866              	.LVL435:
 3867              		.loc 1 163 0
 3868 0042 C3F8104B 		str	r4, [r3, #2832]
 3869              		.loc 1 164 0
 3870 0046 C3F808CB 		str	ip, [r3, #2824]
 3871              		.loc 1 136 0
 3872 004a 436D     		ldr	r3, [r0, #84]
 3873 004c 9B68     		ldr	r3, [r3, #8]
 3874 004e 9D42     		cmp	r5, r3
 3875 0050 0DD8     		bhi	.L398
 3876              	.LVL436:
ARM GAS  C:\Users\mathi\AppData\Local\Temp\ccOm87JI.s 			page 69


 3877              	.L388:
 3878 0052 6B01     		lsls	r3, r5, #5
 3879 0054 F218     		adds	r2, r6, r3
 3880              		.loc 1 140 0
 3881 0056 D2F80019 		ldr	r1, [r2, #2304]
 3882 005a 0029     		cmp	r1, #0
 3883 005c E1DA     		bge	.L382
 3884              		.loc 1 141 0
 3885 005e C2F800E9 		str	lr, [r2, #2304]
 3886              		.loc 1 143 0
 3887 0062 9046     		mov	r8, r2
 3888              	.L383:
 3889 0064 D8F80819 		ldr	r1, [r8, #2312]
 3890 0068 8907     		lsls	r1, r1, #30
 3891 006a FBD5     		bpl	.L383
 3892 006c DBE7     		b	.L384
 3893              	.L398:
 3894              	.LBE1158:
 3895              	.LBE1162:
 3896              		.loc 1 919 0
 3897 006e 134B     		ldr	r3, .L400+4
 3898              	.LBB1163:
 3899              	.LBB1159:
 3900              		.loc 1 166 0
 3901 0070 4FF00112 		mov	r2, #65537
 3902              	.LBE1159:
 3903              	.LBE1163:
 3904              		.loc 1 919 0
 3905 0074 9842     		cmp	r0, r3
 3906              	.LBB1164:
 3907              	.LBB1160:
 3908              		.loc 1 166 0
 3909 0076 C6F81C28 		str	r2, [r6, #2076]
 3910              	.LVL437:
 3911              	.LBE1160:
 3912              	.LBE1164:
 3913              		.loc 1 912 0
 3914 007a C465     		str	r4, [r0, #92]
 3915              		.loc 1 914 0
 3916 007c C6F81C48 		str	r4, [r6, #2076]
 3917              		.loc 1 915 0
 3918 0080 B460     		str	r4, [r6, #8]
 3919              		.loc 1 916 0
 3920 0082 B463     		str	r4, [r6, #56]
 3921              		.loc 1 919 0
 3922 0084 07D1     		bne	.L379
 3923              		.loc 1 920 0
 3924 0086 4320     		movs	r0, #67
 3925              	.LVL438:
 3926 0088 FFF7FEFF 		bl	nvicDisableVector
 3927              	.LVL439:
 3928              		.loc 1 921 0
 3929 008c 0C4A     		ldr	r2, .L400+8
 3930 008e 536B     		ldr	r3, [r2, #52]
 3931 0090 23F08003 		bic	r3, r3, #128
 3932 0094 5363     		str	r3, [r2, #52]
 3933              	.LVL440:
ARM GAS  C:\Users\mathi\AppData\Local\Temp\ccOm87JI.s 			page 70


 3934              	.L379:
 3935              		.loc 1 932 0
 3936 0096 019A     		ldr	r2, [sp, #4]
 3937 0098 3B68     		ldr	r3, [r7]
 3938 009a 9A42     		cmp	r2, r3
 3939 009c 09D1     		bne	.L399
 3940 009e 02B0     		add	sp, sp, #8
 3941              		.cfi_remember_state
 3942              		.cfi_def_cfa_offset 24
 3943              		@ sp needed
 3944 00a0 BDE8F081 		pop	{r4, r5, r6, r7, r8, pc}
 3945              	.LVL441:
 3946              	.L397:
 3947              		.cfi_restore_state
 3948              	.LBB1165:
 3949              	.LBB1161:
 3950              		.loc 1 156 0
 3951 00a4 C2F800EB 		str	lr, [r2, #2816]
 3952              	.L386:
 3953              		.loc 1 158 0
 3954 00a8 D1F8082B 		ldr	r2, [r1, #2824]
 3955 00ac D206     		lsls	r2, r2, #27
 3956 00ae FBD5     		bpl	.L386
 3957 00b0 C5E7     		b	.L387
 3958              	.LVL442:
 3959              	.L399:
 3960              	.LBE1161:
 3961              	.LBE1165:
 3962              		.loc 1 932 0
 3963 00b2 FFF7FEFF 		bl	__stack_chk_fail
 3964              	.LVL443:
 3965              	.L401:
 3966 00b6 00BF     		.align	2
 3967              	.L400:
 3968 00b8 00000000 		.word	__stack_chk_guard
 3969 00bc 00000000 		.word	.LANCHOR1
 3970 00c0 00380240 		.word	1073887232
 3971              		.cfi_endproc
 3972              	.LFE276:
 3973              		.size	usb_lld_stop, .-usb_lld_stop
 3974              		.section	.text.usb_lld_reset,"ax",%progbits
 3975              		.align	1
 3976              		.p2align 4,,15
 3977              		.global	usb_lld_reset
 3978              		.syntax unified
 3979              		.thumb
 3980              		.thumb_func
 3981              		.fpu fpv4-sp-d16
 3982              		.type	usb_lld_reset, %function
 3983              	usb_lld_reset:
 3984              	.LFB277:
 3985              		.loc 1 941 0
 3986              		.cfi_startproc
 3987              		@ args = 0, pretend = 0, frame = 8
 3988              		@ frame_needed = 0, uses_anonymous_args = 0
 3989              	.LVL444:
 3990 0000 F0B5     		push	{r4, r5, r6, r7, lr}
ARM GAS  C:\Users\mathi\AppData\Local\Temp\ccOm87JI.s 			page 71


 3991              		.cfi_def_cfa_offset 20
 3992              		.cfi_offset 4, -20
 3993              		.cfi_offset 5, -16
 3994              		.cfi_offset 6, -12
 3995              		.cfi_offset 7, -8
 3996              		.cfi_offset 14, -4
 3997 0002 8E4F     		ldr	r7, .L415
 3998              		.loc 1 943 0
 3999 0004 046D     		ldr	r4, [r0, #80]
 4000              	.LVL445:
 4001              		.loc 1 941 0
 4002 0006 3B68     		ldr	r3, [r7]
 4003 0008 83B0     		sub	sp, sp, #12
 4004              		.cfi_def_cfa_offset 32
 4005              		.loc 1 941 0
 4006 000a 0646     		mov	r6, r0
 4007              	.LVL446:
 4008 000c 0193     		str	r3, [sp, #4]
 4009              	.LBB1166:
 4010              	.LBB1167:
 4011              		.loc 1 182 0
 4012 000e 2023     		movs	r3, #32
 4013 0010 2361     		str	r3, [r4, #16]
 4014              	.L403:
 4015              		.loc 1 183 0
 4016 0012 2369     		ldr	r3, [r4, #16]
 4017 0014 9B06     		lsls	r3, r3, #26
 4018 0016 FCD4     		bmi	.L403
 4019              	.LVL447:
 4020              	.LBB1168:
 4021              	.LBB1169:
 4022              		.loc 5 527 0
 4023 0018 0C20     		movs	r0, #12
 4024              	.LVL448:
 4025 001a FFF7FEFF 		bl	chSysPolledDelayX
 4026              	.LVL449:
 4027              	.LBE1169:
 4028              	.LBE1168:
 4029              	.LBE1167:
 4030              	.LBE1166:
 4031              		.loc 1 950 0
 4032 001e 4FF00062 		mov	r2, #134217728
 4033              		.loc 1 952 0
 4034 0022 FF23     		movs	r3, #255
 4035              		.loc 1 950 0
 4036 0024 C4F80029 		str	r2, [r4, #2304]
 4037              		.loc 1 951 0
 4038 0028 C4F8002B 		str	r2, [r4, #2816]
 4039              		.loc 1 952 0
 4040 002c C4F80839 		str	r3, [r4, #2312]
 4041              		.loc 1 953 0
 4042 0030 C4F8083B 		str	r3, [r4, #2824]
 4043              	.LVL450:
 4044              		.loc 1 949 0
 4045 0034 716D     		ldr	r1, [r6, #84]
 4046 0036 8968     		ldr	r1, [r1, #8]
 4047 0038 0029     		cmp	r1, #0
ARM GAS  C:\Users\mathi\AppData\Local\Temp\ccOm87JI.s 			page 72


 4048 003a 00F0B580 		beq	.L404
 4049              		.loc 1 950 0
 4050 003e C4F82029 		str	r2, [r4, #2336]
 4051              		.loc 1 951 0
 4052 0042 C4F8202B 		str	r2, [r4, #2848]
 4053              		.loc 1 952 0
 4054 0046 C4F82839 		str	r3, [r4, #2344]
 4055              		.loc 1 953 0
 4056 004a C4F8283B 		str	r3, [r4, #2856]
 4057              	.LVL451:
 4058              		.loc 1 949 0
 4059 004e 716D     		ldr	r1, [r6, #84]
 4060 0050 8968     		ldr	r1, [r1, #8]
 4061 0052 0129     		cmp	r1, #1
 4062 0054 40F2A880 		bls	.L404
 4063              		.loc 1 950 0
 4064 0058 C4F84029 		str	r2, [r4, #2368]
 4065              		.loc 1 951 0
 4066 005c C4F8402B 		str	r2, [r4, #2880]
 4067              		.loc 1 952 0
 4068 0060 C4F84839 		str	r3, [r4, #2376]
 4069              		.loc 1 953 0
 4070 0064 C4F8483B 		str	r3, [r4, #2888]
 4071              	.LVL452:
 4072              		.loc 1 949 0
 4073 0068 716D     		ldr	r1, [r6, #84]
 4074 006a 8968     		ldr	r1, [r1, #8]
 4075 006c 0229     		cmp	r1, #2
 4076 006e 40F29B80 		bls	.L404
 4077              		.loc 1 950 0
 4078 0072 C4F86029 		str	r2, [r4, #2400]
 4079              		.loc 1 951 0
 4080 0076 C4F8602B 		str	r2, [r4, #2912]
 4081              		.loc 1 952 0
 4082 007a C4F86839 		str	r3, [r4, #2408]
 4083              		.loc 1 953 0
 4084 007e C4F8683B 		str	r3, [r4, #2920]
 4085              	.LVL453:
 4086              		.loc 1 949 0
 4087 0082 716D     		ldr	r1, [r6, #84]
 4088 0084 8968     		ldr	r1, [r1, #8]
 4089 0086 0329     		cmp	r1, #3
 4090 0088 40F28E80 		bls	.L404
 4091              		.loc 1 950 0
 4092 008c C4F88029 		str	r2, [r4, #2432]
 4093              		.loc 1 951 0
 4094 0090 C4F8802B 		str	r2, [r4, #2944]
 4095              		.loc 1 952 0
 4096 0094 C4F88839 		str	r3, [r4, #2440]
 4097              		.loc 1 953 0
 4098 0098 C4F8883B 		str	r3, [r4, #2952]
 4099              	.LVL454:
 4100              		.loc 1 949 0
 4101 009c 716D     		ldr	r1, [r6, #84]
 4102 009e 8968     		ldr	r1, [r1, #8]
 4103 00a0 0429     		cmp	r1, #4
 4104 00a2 40F28180 		bls	.L404
ARM GAS  C:\Users\mathi\AppData\Local\Temp\ccOm87JI.s 			page 73


 4105              		.loc 1 950 0
 4106 00a6 C4F8A029 		str	r2, [r4, #2464]
 4107              		.loc 1 951 0
 4108 00aa C4F8A02B 		str	r2, [r4, #2976]
 4109              		.loc 1 952 0
 4110 00ae C4F8A839 		str	r3, [r4, #2472]
 4111              		.loc 1 953 0
 4112 00b2 C4F8A83B 		str	r3, [r4, #2984]
 4113              	.LVL455:
 4114              		.loc 1 949 0
 4115 00b6 716D     		ldr	r1, [r6, #84]
 4116 00b8 8968     		ldr	r1, [r1, #8]
 4117 00ba 0529     		cmp	r1, #5
 4118 00bc 74D9     		bls	.L404
 4119              		.loc 1 950 0
 4120 00be C4F8C029 		str	r2, [r4, #2496]
 4121              		.loc 1 951 0
 4122 00c2 C4F8C02B 		str	r2, [r4, #3008]
 4123              		.loc 1 952 0
 4124 00c6 C4F8C839 		str	r3, [r4, #2504]
 4125              		.loc 1 953 0
 4126 00ca C4F8C83B 		str	r3, [r4, #3016]
 4127              	.LVL456:
 4128              		.loc 1 949 0
 4129 00ce 716D     		ldr	r1, [r6, #84]
 4130 00d0 8968     		ldr	r1, [r1, #8]
 4131 00d2 0629     		cmp	r1, #6
 4132 00d4 68D9     		bls	.L404
 4133              		.loc 1 950 0
 4134 00d6 C4F8E029 		str	r2, [r4, #2528]
 4135              		.loc 1 951 0
 4136 00da C4F8E02B 		str	r2, [r4, #3040]
 4137              		.loc 1 952 0
 4138 00de C4F8E839 		str	r3, [r4, #2536]
 4139              		.loc 1 953 0
 4140 00e2 C4F8E83B 		str	r3, [r4, #3048]
 4141              	.LVL457:
 4142              		.loc 1 949 0
 4143 00e6 716D     		ldr	r1, [r6, #84]
 4144 00e8 8968     		ldr	r1, [r1, #8]
 4145 00ea 0729     		cmp	r1, #7
 4146 00ec 5CD9     		bls	.L404
 4147              		.loc 1 950 0
 4148 00ee C4F8002A 		str	r2, [r4, #2560]
 4149              		.loc 1 951 0
 4150 00f2 C4F8002C 		str	r2, [r4, #3072]
 4151              		.loc 1 952 0
 4152 00f6 C4F8083A 		str	r3, [r4, #2568]
 4153              		.loc 1 953 0
 4154 00fa C4F8083C 		str	r3, [r4, #3080]
 4155              	.LVL458:
 4156              		.loc 1 949 0
 4157 00fe 736D     		ldr	r3, [r6, #84]
 4158 0100 9B68     		ldr	r3, [r3, #8]
 4159 0102 082B     		cmp	r3, #8
 4160 0104 50D9     		bls	.L404
 4161              		.loc 1 952 0
ARM GAS  C:\Users\mathi\AppData\Local\Temp\ccOm87JI.s 			page 74


 4162 0106 FF23     		movs	r3, #255
 4163              		.loc 1 950 0
 4164 0108 C4F8202A 		str	r2, [r4, #2592]
 4165              		.loc 1 951 0
 4166 010c C4F8202C 		str	r2, [r4, #3104]
 4167              		.loc 1 952 0
 4168 0110 C4F8283A 		str	r3, [r4, #2600]
 4169              		.loc 1 953 0
 4170 0114 C4F8283C 		str	r3, [r4, #3112]
 4171              	.LVL459:
 4172              		.loc 1 949 0
 4173 0118 716D     		ldr	r1, [r6, #84]
 4174 011a 8968     		ldr	r1, [r1, #8]
 4175 011c 0929     		cmp	r1, #9
 4176 011e 43D9     		bls	.L404
 4177              		.loc 1 950 0
 4178 0120 C4F8402A 		str	r2, [r4, #2624]
 4179              		.loc 1 951 0
 4180 0124 C4F8402C 		str	r2, [r4, #3136]
 4181              		.loc 1 952 0
 4182 0128 C4F8483A 		str	r3, [r4, #2632]
 4183              		.loc 1 953 0
 4184 012c C4F8483C 		str	r3, [r4, #3144]
 4185              	.LVL460:
 4186              		.loc 1 949 0
 4187 0130 716D     		ldr	r1, [r6, #84]
 4188 0132 8968     		ldr	r1, [r1, #8]
 4189 0134 0A29     		cmp	r1, #10
 4190 0136 37D9     		bls	.L404
 4191              		.loc 1 950 0
 4192 0138 C4F8602A 		str	r2, [r4, #2656]
 4193              		.loc 1 951 0
 4194 013c C4F8602C 		str	r2, [r4, #3168]
 4195              		.loc 1 952 0
 4196 0140 C4F8683A 		str	r3, [r4, #2664]
 4197              		.loc 1 953 0
 4198 0144 C4F8683C 		str	r3, [r4, #3176]
 4199              	.LVL461:
 4200              		.loc 1 949 0
 4201 0148 716D     		ldr	r1, [r6, #84]
 4202 014a 8968     		ldr	r1, [r1, #8]
 4203 014c 0B29     		cmp	r1, #11
 4204 014e 2BD9     		bls	.L404
 4205              		.loc 1 950 0
 4206 0150 C4F8802A 		str	r2, [r4, #2688]
 4207              		.loc 1 951 0
 4208 0154 C4F8802C 		str	r2, [r4, #3200]
 4209              		.loc 1 952 0
 4210 0158 C4F8883A 		str	r3, [r4, #2696]
 4211              		.loc 1 953 0
 4212 015c C4F8883C 		str	r3, [r4, #3208]
 4213              	.LVL462:
 4214              		.loc 1 949 0
 4215 0160 716D     		ldr	r1, [r6, #84]
 4216 0162 8968     		ldr	r1, [r1, #8]
 4217 0164 0C29     		cmp	r1, #12
 4218 0166 1FD9     		bls	.L404
ARM GAS  C:\Users\mathi\AppData\Local\Temp\ccOm87JI.s 			page 75


 4219              		.loc 1 950 0
 4220 0168 C4F8A02A 		str	r2, [r4, #2720]
 4221              		.loc 1 951 0
 4222 016c C4F8A02C 		str	r2, [r4, #3232]
 4223              		.loc 1 952 0
 4224 0170 C4F8A83A 		str	r3, [r4, #2728]
 4225              		.loc 1 953 0
 4226 0174 C4F8A83C 		str	r3, [r4, #3240]
 4227              	.LVL463:
 4228              		.loc 1 949 0
 4229 0178 716D     		ldr	r1, [r6, #84]
 4230 017a 8968     		ldr	r1, [r1, #8]
 4231 017c 0D29     		cmp	r1, #13
 4232 017e 13D9     		bls	.L404
 4233              		.loc 1 950 0
 4234 0180 C4F8C02A 		str	r2, [r4, #2752]
 4235              		.loc 1 951 0
 4236 0184 C4F8C02C 		str	r2, [r4, #3264]
 4237              		.loc 1 952 0
 4238 0188 C4F8C83A 		str	r3, [r4, #2760]
 4239              		.loc 1 953 0
 4240 018c C4F8C83C 		str	r3, [r4, #3272]
 4241              	.LVL464:
 4242              		.loc 1 949 0
 4243 0190 716D     		ldr	r1, [r6, #84]
 4244 0192 8968     		ldr	r1, [r1, #8]
 4245 0194 0E29     		cmp	r1, #14
 4246 0196 07D9     		bls	.L404
 4247              		.loc 1 950 0 discriminator 3
 4248 0198 C4F8E02A 		str	r2, [r4, #2784]
 4249              		.loc 1 951 0 discriminator 3
 4250 019c C4F8E02C 		str	r2, [r4, #3296]
 4251              		.loc 1 952 0 discriminator 3
 4252 01a0 C4F8E83A 		str	r3, [r4, #2792]
 4253              		.loc 1 953 0 discriminator 3
 4254 01a4 C4F8E83C 		str	r3, [r4, #3304]
 4255              	.LVL465:
 4256              	.L404:
 4257              		.loc 1 957 0
 4258 01a8 4FF0FF32 		mov	r2, #-1
 4259              		.loc 1 958 0
 4260 01ac 4FF00113 		mov	r3, #65537
 4261              		.loc 1 957 0
 4262 01b0 C4F81828 		str	r2, [r4, #2072]
 4263              		.loc 1 958 0
 4264 01b4 C4F81C38 		str	r3, [r4, #2076]
 4265 01b8 736D     		ldr	r3, [r6, #84]
 4266              	.LVL466:
 4267              	.LBB1170:
 4268              	.LBB1171:
 4269              		.loc 1 198 0
 4270 01ba 1A68     		ldr	r2, [r3]
 4271 01bc B265     		str	r2, [r6, #88]
 4272              	.LBE1171:
 4273              	.LBE1170:
 4274              		.loc 1 964 0
 4275 01be 1B68     		ldr	r3, [r3]
ARM GAS  C:\Users\mathi\AppData\Local\Temp\ccOm87JI.s 			page 76


 4276 01c0 6362     		str	r3, [r4, #36]
 4277 01c2 326D     		ldr	r2, [r6, #80]
 4278              	.LVL467:
 4279              	.LBB1172:
 4280              	.LBB1173:
 4281              		.loc 1 172 0
 4282 01c4 1023     		movs	r3, #16
 4283 01c6 1361     		str	r3, [r2, #16]
 4284              	.L405:
 4285              		.loc 1 173 0
 4286 01c8 1569     		ldr	r5, [r2, #16]
 4287 01ca 15F01005 		ands	r5, r5, #16
 4288 01ce FBD1     		bne	.L405
 4289              	.LVL468:
 4290              	.LBB1174:
 4291              	.LBB1175:
 4292              		.loc 5 527 0
 4293 01d0 0C20     		movs	r0, #12
 4294 01d2 FFF7FEFF 		bl	chSysPolledDelayX
 4295              	.LVL469:
 4296              	.LBE1175:
 4297              	.LBE1174:
 4298              	.LBE1173:
 4299              	.LBE1172:
 4300              		.loc 1 968 0
 4301 01d6 D4F80038 		ldr	r3, [r4, #2048]
 4302              		.loc 1 976 0
 4303 01da 194A     		ldr	r2, .L415+4
 4304              		.loc 1 968 0
 4305 01dc 23F4FE63 		bic	r3, r3, #2032
 4306 01e0 C4F80038 		str	r3, [r4, #2048]
 4307              		.loc 1 971 0
 4308 01e4 A369     		ldr	r3, [r4, #24]
 4309 01e6 43F44023 		orr	r3, r3, #786432
 4310 01ea 43F01003 		orr	r3, r3, #16
 4311 01ee A361     		str	r3, [r4, #24]
 4312              		.loc 1 972 0
 4313 01f0 0923     		movs	r3, #9
 4314 01f2 C4F81038 		str	r3, [r4, #2064]
 4315              		.loc 1 973 0
 4316 01f6 C4F81438 		str	r3, [r4, #2068]
 4317              		.loc 1 978 0
 4318 01fa 124B     		ldr	r3, .L415+8
 4319              		.loc 1 976 0
 4320 01fc F260     		str	r2, [r6, #12]
 4321              		.loc 1 977 0
 4322 01fe C4F8105B 		str	r5, [r4, #2832]
 4323              		.loc 1 978 0
 4324 0202 C4F8003B 		str	r3, [r4, #2816]
 4325              		.loc 1 980 0
 4326 0206 C4F81059 		str	r5, [r4, #2320]
 4327              		.loc 1 981 0
 4328 020a C4F80039 		str	r3, [r4, #2304]
 4329 020e D6E91525 		ldrd	r2, r5, [r6, #84]
 4330              	.LVL470:
 4331              	.LBB1176:
 4332              	.LBB1177:
ARM GAS  C:\Users\mathi\AppData\Local\Temp\ccOm87JI.s 			page 77


 4333              		.loc 1 213 0
 4334 0212 05F11003 		add	r3, r5, #16
 4335 0216 B365     		str	r3, [r6, #88]
 4336              		.loc 1 214 0
 4337 0218 5268     		ldr	r2, [r2, #4]
 4338 021a 9342     		cmp	r3, r2
 4339 021c 02D9     		bls	.L406
 4340 021e 0A48     		ldr	r0, .L415+12
 4341 0220 FFF7FEFF 		bl	chSysHalt
 4342              	.LVL471:
 4343              	.L406:
 4344              	.LBE1177:
 4345              	.LBE1176:
 4346              		.loc 1 983 0
 4347 0224 45F48015 		orr	r5, r5, #1048576
 4348 0228 A562     		str	r5, [r4, #40]
 4349              		.loc 1 986 0
 4350 022a 019A     		ldr	r2, [sp, #4]
 4351 022c 3B68     		ldr	r3, [r7]
 4352 022e 9A42     		cmp	r2, r3
 4353 0230 01D1     		bne	.L414
 4354 0232 03B0     		add	sp, sp, #12
 4355              		.cfi_remember_state
 4356              		.cfi_def_cfa_offset 20
 4357              		@ sp needed
 4358 0234 F0BD     		pop	{r4, r5, r6, r7, pc}
 4359              	.LVL472:
 4360              	.L414:
 4361              		.cfi_restore_state
 4362 0236 FFF7FEFF 		bl	__stack_chk_fail
 4363              	.LVL473:
 4364              	.L416:
 4365 023a 00BF     		.align	2
 4366              	.L415:
 4367 023c 00000000 		.word	__stack_chk_guard
 4368 0240 00000000 		.word	.LANCHOR4
 4369 0244 40800010 		.word	268468288
 4370 0248 00000000 		.word	.LANCHOR5
 4371              		.cfi_endproc
 4372              	.LFE277:
 4373              		.size	usb_lld_reset, .-usb_lld_reset
 4374              		.section	.text.usb_lld_set_address,"ax",%progbits
 4375              		.align	1
 4376              		.p2align 4,,15
 4377              		.global	usb_lld_set_address
 4378              		.syntax unified
 4379              		.thumb
 4380              		.thumb_func
 4381              		.fpu fpv4-sp-d16
 4382              		.type	usb_lld_set_address, %function
 4383              	usb_lld_set_address:
 4384              	.LFB278:
 4385              		.loc 1 995 0
 4386              		.cfi_startproc
 4387              		@ args = 0, pretend = 0, frame = 8
 4388              		@ frame_needed = 0, uses_anonymous_args = 0
 4389              	.LVL474:
ARM GAS  C:\Users\mathi\AppData\Local\Temp\ccOm87JI.s 			page 78


 4390 0000 00B5     		push	{lr}
 4391              		.cfi_def_cfa_offset 4
 4392              		.cfi_offset 14, -4
 4393 0002 0C4A     		ldr	r2, .L421
 4394              		.loc 1 996 0
 4395 0004 016D     		ldr	r1, [r0, #80]
 4396              	.LVL475:
 4397              		.loc 1 995 0
 4398 0006 1368     		ldr	r3, [r2]
 4399              		.loc 1 998 0
 4400 0008 90F84E00 		ldrb	r0, [r0, #78]	@ zero_extendqisi2
 4401              	.LVL476:
 4402              		.loc 1 995 0
 4403 000c 83B0     		sub	sp, sp, #12
 4404              		.cfi_def_cfa_offset 16
 4405              		.loc 1 995 0
 4406 000e 0193     		str	r3, [sp, #4]
 4407              		.loc 1 998 0
 4408 0010 D1F80038 		ldr	r3, [r1, #2048]
 4409 0014 23F4FE63 		bic	r3, r3, #2032
 4410 0018 43EA0013 		orr	r3, r3, r0, lsl #4
 4411 001c C1F80038 		str	r3, [r1, #2048]
 4412              		.loc 1 999 0
 4413 0020 0199     		ldr	r1, [sp, #4]
 4414              	.LVL477:
 4415 0022 1368     		ldr	r3, [r2]
 4416 0024 9942     		cmp	r1, r3
 4417 0026 02D1     		bne	.L420
 4418 0028 03B0     		add	sp, sp, #12
 4419              		.cfi_remember_state
 4420              		.cfi_def_cfa_offset 4
 4421              		@ sp needed
 4422 002a 5DF804FB 		ldr	pc, [sp], #4
 4423              	.L420:
 4424              		.cfi_restore_state
 4425 002e FFF7FEFF 		bl	__stack_chk_fail
 4426              	.LVL478:
 4427              	.L422:
 4428 0032 00BF     		.align	2
 4429              	.L421:
 4430 0034 00000000 		.word	__stack_chk_guard
 4431              		.cfi_endproc
 4432              	.LFE278:
 4433              		.size	usb_lld_set_address, .-usb_lld_set_address
 4434              		.section	.text.usb_lld_init_endpoint,"ax",%progbits
 4435              		.align	1
 4436              		.p2align 4,,15
 4437              		.global	usb_lld_init_endpoint
 4438              		.syntax unified
 4439              		.thumb
 4440              		.thumb_func
 4441              		.fpu fpv4-sp-d16
 4442              		.type	usb_lld_init_endpoint, %function
 4443              	usb_lld_init_endpoint:
 4444              	.LFB279:
 4445              		.loc 1 1009 0
 4446              		.cfi_startproc
ARM GAS  C:\Users\mathi\AppData\Local\Temp\ccOm87JI.s 			page 79


 4447              		@ args = 0, pretend = 0, frame = 16
 4448              		@ frame_needed = 0, uses_anonymous_args = 0
 4449              	.LVL479:
 4450 0000 2DE9F04F 		push	{r4, r5, r6, r7, r8, r9, r10, fp, lr}
 4451              		.cfi_def_cfa_offset 36
 4452              		.cfi_offset 4, -36
 4453              		.cfi_offset 5, -32
 4454              		.cfi_offset 6, -28
 4455              		.cfi_offset 7, -24
 4456              		.cfi_offset 8, -20
 4457              		.cfi_offset 9, -16
 4458              		.cfi_offset 10, -12
 4459              		.cfi_offset 11, -8
 4460              		.cfi_offset 14, -4
 4461 0004 0EB2     		sxth	r6, r1
 4462 0006 00EB8608 		add	r8, r0, r6, lsl #2
 4463 000a DFF88891 		ldr	r9, .L443+16
 4464              		.loc 1 1014 0
 4465 000e D8F80C30 		ldr	r3, [r8, #12]
 4466              		.loc 1 1009 0
 4467 0012 D9F80020 		ldr	r2, [r9]
 4468              		.loc 1 1014 0
 4469 0016 1B68     		ldr	r3, [r3]
 4470              		.loc 1 1009 0
 4471 0018 85B0     		sub	sp, sp, #20
 4472              		.cfi_def_cfa_offset 56
 4473              		.loc 1 1014 0
 4474 001a 03F00303 		and	r3, r3, #3
 4475 001e 022B     		cmp	r3, #2
 4476              		.loc 1 1009 0
 4477 0020 0D46     		mov	r5, r1
 4478 0022 0746     		mov	r7, r0
 4479 0024 0392     		str	r2, [sp, #12]
 4480              	.LVL480:
 4481              		.loc 1 1014 0
 4482 0026 00F0A080 		beq	.L425
 4483 002a 032B     		cmp	r3, #3
 4484 002c 00F09A80 		beq	.L426
 4485              		.loc 1 1016 0
 4486 0030 5449     		ldr	r1, .L443
 4487              	.LVL481:
 4488 0032 554A     		ldr	r2, .L443+4
 4489 0034 012B     		cmp	r3, #1
 4490 0036 0CBF     		ite	eq
 4491 0038 8A46     		moveq	r10, r1
 4492 003a 9246     		movne	r10, r2
 4493              	.L427:
 4494              		.loc 1 1011 0
 4495 003c 3C6D     		ldr	r4, [r7, #80]
 4496              	.LVL482:
 4497              		.loc 1 1032 0
 4498 003e 6A01     		lsls	r2, r5, #5
 4499 0040 A318     		adds	r3, r4, r2
 4500 0042 0021     		movs	r1, #0
 4501 0044 C3F8101B 		str	r1, [r3, #2832]
 4502              	.LVL483:
 4503              		.loc 1 1033 0
ARM GAS  C:\Users\mathi\AppData\Local\Temp\ccOm87JI.s 			page 80


 4504 0048 D8F80C00 		ldr	r0, [r8, #12]
 4505              	.LVL484:
 4506 004c C368     		ldr	r3, [r0, #12]
 4507 004e 05F11001 		add	r1, r5, #16
 4508 0052 4FF0010C 		mov	ip, #1
 4509 0056 0CFA01F1 		lsl	r1, ip, r1
 4510 005a 002B     		cmp	r3, #0
 4511 005c 73D0     		beq	.L428
 4512              		.loc 1 1034 0
 4513 005e 408A     		ldrh	r0, [r0, #18]
 4514 0060 05F15803 		add	r3, r5, #88
 4515 0064 5B01     		lsls	r3, r3, #5
 4516 0066 40EA0A00 		orr	r0, r0, r10
 4517 006a E050     		str	r0, [r4, r3]
 4518              		.loc 1 1035 0
 4519 006c D4F81C38 		ldr	r3, [r4, #2076]
 4520 0070 1943     		orrs	r1, r1, r3
 4521 0072 C4F81C18 		str	r1, [r4, #2076]
 4522              	.L429:
 4523              		.loc 1 1043 0
 4524 0076 2244     		add	r2, r2, r4
 4525 0078 0023     		movs	r3, #0
 4526 007a C2F81039 		str	r3, [r2, #2320]
 4527              		.loc 1 1044 0
 4528 007e D8F80C10 		ldr	r1, [r8, #12]
 4529 0082 8A68     		ldr	r2, [r1, #8]
 4530 0084 AB01     		lsls	r3, r5, #6
 4531 0086 43F02003 		orr	r3, r3, #32
 4532 008a 05F1FF3B 		add	fp, r5, #-1
 4533 008e 002A     		cmp	r2, #0
 4534 0090 39D0     		beq	.L430
 4535              		.loc 1 1047 0
 4536 0092 8A8B     		ldrh	r2, [r1, #28]
 4537              		.loc 1 1046 0
 4538 0094 0E8A     		ldrh	r6, [r1, #16]
 4539              		.loc 1 1047 0
 4540 0096 012A     		cmp	r2, #1
 4541              		.loc 1 1046 0
 4542 0098 4FEA9606 		lsr	r6, r6, #2
 4543              	.LVL485:
 4544              		.loc 1 1048 0
 4545 009c 88BF     		it	hi
 4546 009e 5643     		mulhi	r6, r2, r6
 4547              	.LVL486:
 4548 00a0 D7E91512 		ldrd	r1, r2, [r7, #84]
 4549              	.LVL487:
 4550              	.LBB1178:
 4551              	.LBB1179:
 4552              		.loc 1 213 0
 4553 00a4 B018     		adds	r0, r6, r2
 4554 00a6 B865     		str	r0, [r7, #88]
 4555              		.loc 1 214 0
 4556 00a8 4968     		ldr	r1, [r1, #4]
 4557 00aa 8842     		cmp	r0, r1
 4558              	.LBE1179:
 4559              	.LBE1178:
 4560              		.loc 1 1049 0
ARM GAS  C:\Users\mathi\AppData\Local\Temp\ccOm87JI.s 			page 81


 4561 00ac 4FEA0646 		lsl	r6, r6, #16
 4562              	.LVL488:
 4563              	.LBB1182:
 4564              	.LBB1180:
 4565              		.loc 1 214 0
 4566 00b0 5ED8     		bhi	.L441
 4567              	.LVL489:
 4568              	.L432:
 4569              	.LBE1180:
 4570              	.LBE1182:
 4571              		.loc 1 1049 0
 4572 00b2 0BF1400B 		add	fp, fp, #64
 4573 00b6 04EB8B0B 		add	fp, r4, fp, lsl #2
 4574 00ba 1643     		orrs	r6, r6, r2
 4575 00bc CBF80460 		str	r6, [fp, #4]
 4576 00c0 3A6D     		ldr	r2, [r7, #80]
 4577              	.LVL490:
 4578              	.LBB1183:
 4579              	.LBB1184:
 4580              		.loc 1 182 0
 4581 00c2 1361     		str	r3, [r2, #16]
 4582              	.L433:
 4583              		.loc 1 183 0
 4584 00c4 1369     		ldr	r3, [r2, #16]
 4585 00c6 9906     		lsls	r1, r3, #26
 4586 00c8 FCD4     		bmi	.L433
 4587              	.LVL491:
 4588              	.LBB1185:
 4589              	.LBB1186:
 4590              		.loc 5 527 0
 4591 00ca 0C20     		movs	r0, #12
 4592 00cc FFF7FEFF 		bl	chSysPolledDelayX
 4593              	.LVL492:
 4594              	.LBE1186:
 4595              	.LBE1185:
 4596              	.LBE1184:
 4597              	.LBE1183:
 4598              		.loc 1 1055 0
 4599 00d0 D8F80C30 		ldr	r3, [r8, #12]
 4600 00d4 1B8A     		ldrh	r3, [r3, #16]
 4601              		.loc 1 1053 0
 4602 00d6 05F14802 		add	r2, r5, #72
 4603              		.loc 1 1054 0
 4604 00da 43EA8553 		orr	r3, r3, r5, lsl #22
 4605              		.loc 1 1053 0
 4606 00de 5201     		lsls	r2, r2, #5
 4607              		.loc 1 1054 0
 4608 00e0 43EA0A03 		orr	r3, r3, r10
 4609              		.loc 1 1053 0
 4610 00e4 A350     		str	r3, [r4, r2]
 4611              		.loc 1 1056 0
 4612 00e6 0121     		movs	r1, #1
 4613 00e8 D4F81C38 		ldr	r3, [r4, #2076]
 4614 00ec 01FA05F5 		lsl	r5, r1, r5
 4615 00f0 1D43     		orrs	r5, r5, r3
 4616 00f2 C4F81C58 		str	r5, [r4, #2076]
 4617              	.LVL493:
ARM GAS  C:\Users\mathi\AppData\Local\Temp\ccOm87JI.s 			page 82


 4618              	.L423:
 4619              		.loc 1 1064 0
 4620 00f6 039A     		ldr	r2, [sp, #12]
 4621 00f8 D9F80030 		ldr	r3, [r9]
 4622 00fc 9A42     		cmp	r2, r3
 4623 00fe 3FD1     		bne	.L442
 4624 0100 05B0     		add	sp, sp, #20
 4625              		.cfi_remember_state
 4626              		.cfi_def_cfa_offset 36
 4627              		@ sp needed
 4628 0102 BDE8F08F 		pop	{r4, r5, r6, r7, r8, r9, r10, fp, pc}
 4629              	.LVL494:
 4630              	.L430:
 4631              		.cfi_restore_state
 4632              		.loc 1 1059 0
 4633 0106 05F13F02 		add	r2, r5, #63
 4634 010a 04EB8202 		add	r2, r4, r2, lsl #2
 4635 010e 1F49     		ldr	r1, .L443+8
 4636 0110 5160     		str	r1, [r2, #4]
 4637 0112 3A6D     		ldr	r2, [r7, #80]
 4638              	.LVL495:
 4639              	.LBB1187:
 4640              	.LBB1188:
 4641              		.loc 1 182 0
 4642 0114 1361     		str	r3, [r2, #16]
 4643              	.L435:
 4644              		.loc 1 183 0
 4645 0116 1369     		ldr	r3, [r2, #16]
 4646 0118 9B06     		lsls	r3, r3, #26
 4647 011a FCD4     		bmi	.L435
 4648              	.LVL496:
 4649 011c 04EB4616 		add	r6, r4, r6, lsl #5
 4650              	.LBB1189:
 4651              	.LBB1190:
 4652              		.loc 5 527 0
 4653 0120 0C20     		movs	r0, #12
 4654 0122 FFF7FEFF 		bl	chSysPolledDelayX
 4655              	.LVL497:
 4656              	.LBE1190:
 4657              	.LBE1189:
 4658              	.LBE1188:
 4659              	.LBE1187:
 4660              		.loc 1 1061 0
 4661 0126 D6F80039 		ldr	r3, [r6, #2304]
 4662 012a 23F40043 		bic	r3, r3, #32768
 4663 012e C6F80039 		str	r3, [r6, #2304]
 4664              		.loc 1 1062 0
 4665 0132 D4F81C38 		ldr	r3, [r4, #2076]
 4666 0136 0121     		movs	r1, #1
 4667 0138 01FA05F5 		lsl	r5, r1, r5
 4668 013c 23EA0505 		bic	r5, r3, r5
 4669 0140 C4F81C58 		str	r5, [r4, #2076]
 4670 0144 D7E7     		b	.L423
 4671              	.LVL498:
 4672              	.L428:
 4673 0146 04EB4610 		add	r0, r4, r6, lsl #5
 4674              		.loc 1 1038 0
ARM GAS  C:\Users\mathi\AppData\Local\Temp\ccOm87JI.s 			page 83


 4675 014a D0F8003B 		ldr	r3, [r0, #2816]
 4676 014e 23F40043 		bic	r3, r3, #32768
 4677 0152 C0F8003B 		str	r3, [r0, #2816]
 4678              		.loc 1 1039 0
 4679 0156 D4F81C38 		ldr	r3, [r4, #2076]
 4680 015a 23EA0101 		bic	r1, r3, r1
 4681 015e C4F81C18 		str	r1, [r4, #2076]
 4682 0162 88E7     		b	.L429
 4683              	.LVL499:
 4684              	.L426:
 4685              		.loc 1 1025 0
 4686 0164 DFF830A0 		ldr	r10, .L443+20
 4687              		.loc 1 1026 0
 4688 0168 68E7     		b	.L427
 4689              	.LVL500:
 4690              	.L425:
 4691              		.loc 1 1022 0
 4692 016a DFF830A0 		ldr	r10, .L443+24
 4693              		.loc 1 1023 0
 4694 016e 65E7     		b	.L427
 4695              	.LVL501:
 4696              	.L441:
 4697              	.LBB1191:
 4698              	.LBB1181:
 4699              		.loc 1 214 0
 4700 0170 0748     		ldr	r0, .L443+12
 4701 0172 CDE90023 		strd	r2, r3, [sp]
 4702 0176 FFF7FEFF 		bl	chSysHalt
 4703              	.LVL502:
 4704 017a DDE90023 		ldrd	r2, r3, [sp]
 4705 017e 98E7     		b	.L432
 4706              	.LVL503:
 4707              	.L442:
 4708              	.LBE1181:
 4709              	.LBE1191:
 4710              		.loc 1 1064 0
 4711 0180 FFF7FEFF 		bl	__stack_chk_fail
 4712              	.LVL504:
 4713              	.L444:
 4714              		.align	2
 4715              	.L443:
 4716 0184 00800410 		.word	268730368
 4717 0188 00800010 		.word	268468224
 4718 018c 00040002 		.word	33555456
 4719 0190 00000000 		.word	.LANCHOR5
 4720 0194 00000000 		.word	__stack_chk_guard
 4721 0198 00800C10 		.word	269254656
 4722 019c 00800810 		.word	268992512
 4723              		.cfi_endproc
 4724              	.LFE279:
 4725              		.size	usb_lld_init_endpoint, .-usb_lld_init_endpoint
 4726              		.section	.text.usb_lld_disable_endpoints,"ax",%progbits
 4727              		.align	1
 4728              		.p2align 4,,15
 4729              		.global	usb_lld_disable_endpoints
 4730              		.syntax unified
 4731              		.thumb
ARM GAS  C:\Users\mathi\AppData\Local\Temp\ccOm87JI.s 			page 84


 4732              		.thumb_func
 4733              		.fpu fpv4-sp-d16
 4734              		.type	usb_lld_disable_endpoints, %function
 4735              	usb_lld_disable_endpoints:
 4736              	.LFB280:
 4737              		.loc 1 1073 0
 4738              		.cfi_startproc
 4739              		@ args = 0, pretend = 0, frame = 8
 4740              		@ frame_needed = 0, uses_anonymous_args = 0
 4741              	.LVL505:
 4742 0000 2DE9F041 		push	{r4, r5, r6, r7, r8, lr}
 4743              		.cfi_def_cfa_offset 24
 4744              		.cfi_offset 4, -24
 4745              		.cfi_offset 5, -20
 4746              		.cfi_offset 6, -16
 4747              		.cfi_offset 7, -12
 4748              		.cfi_offset 8, -8
 4749              		.cfi_offset 14, -4
 4750              	.LBB1196:
 4751              	.LBB1197:
 4752              		.loc 1 198 0
 4753 0004 426D     		ldr	r2, [r0, #84]
 4754              	.LBE1197:
 4755              	.LBE1196:
 4756              		.loc 1 1073 0
 4757 0006 DFF894E0 		ldr	lr, .L463
 4758              	.LBB1200:
 4759              	.LBB1198:
 4760              		.loc 1 198 0
 4761 000a 1268     		ldr	r2, [r2]
 4762              	.LBE1198:
 4763              	.LBE1200:
 4764              		.loc 1 1073 0
 4765 000c DEF80030 		ldr	r3, [lr]
 4766 0010 066D     		ldr	r6, [r0, #80]
 4767              	.LBB1201:
 4768              	.LBB1199:
 4769              		.loc 1 198 0
 4770 0012 8265     		str	r2, [r0, #88]
 4771              	.LBE1199:
 4772              	.LBE1201:
 4773              		.loc 1 1073 0
 4774 0014 82B0     		sub	sp, sp, #8
 4775              		.cfi_def_cfa_offset 32
 4776              	.LBB1202:
 4777              	.LBB1203:
 4778              		.loc 1 136 0
 4779 0016 0024     		movs	r4, #0
 4780              	.LBE1203:
 4781              	.LBE1202:
 4782              		.loc 1 1073 0
 4783 0018 0193     		str	r3, [sp, #4]
 4784              	.LVL506:
 4785              	.LBB1205:
 4786              	.LBB1204:
 4787              		.loc 1 147 0
 4788 001a 2546     		mov	r5, r4
ARM GAS  C:\Users\mathi\AppData\Local\Temp\ccOm87JI.s 			page 85


 4789              		.loc 1 141 0
 4790 001c 4FF0804C 		mov	ip, #1073741824
 4791              		.loc 1 149 0
 4792 0020 4FF0FF37 		mov	r7, #-1
 4793 0024 17E0     		b	.L452
 4794              	.LVL507:
 4795              	.L446:
 4796              		.loc 1 147 0
 4797 0026 C2F80059 		str	r5, [r2, #2304]
 4798              	.L448:
 4799              		.loc 1 148 0
 4800 002a F118     		adds	r1, r6, r3
 4801 002c C1F81059 		str	r5, [r1, #2320]
 4802              		.loc 1 149 0
 4803 0030 C1F80879 		str	r7, [r1, #2312]
 4804              		.loc 1 155 0
 4805 0034 D2F8008B 		ldr	r8, [r2, #2816]
 4806 0038 B8F1000F 		cmp	r8, #0
 4807 003c 19DB     		blt	.L460
 4808              		.loc 1 162 0
 4809 003e C2F8005B 		str	r5, [r2, #2816]
 4810              	.L451:
 4811              		.loc 1 163 0
 4812 0042 3344     		add	r3, r3, r6
 4813              		.loc 1 136 0
 4814 0044 0134     		adds	r4, r4, #1
 4815              	.LVL508:
 4816              		.loc 1 163 0
 4817 0046 C3F8105B 		str	r5, [r3, #2832]
 4818              		.loc 1 164 0
 4819 004a C3F8087B 		str	r7, [r3, #2824]
 4820              		.loc 1 136 0
 4821 004e 436D     		ldr	r3, [r0, #84]
 4822 0050 9B68     		ldr	r3, [r3, #8]
 4823 0052 9C42     		cmp	r4, r3
 4824 0054 14D8     		bhi	.L461
 4825              	.LVL509:
 4826              	.L452:
 4827 0056 6301     		lsls	r3, r4, #5
 4828 0058 F218     		adds	r2, r6, r3
 4829              		.loc 1 140 0
 4830 005a D2F80019 		ldr	r1, [r2, #2304]
 4831 005e 0029     		cmp	r1, #0
 4832 0060 E1DA     		bge	.L446
 4833              		.loc 1 141 0
 4834 0062 C2F800C9 		str	ip, [r2, #2304]
 4835              		.loc 1 143 0
 4836 0066 9046     		mov	r8, r2
 4837              	.L447:
 4838 0068 D8F80819 		ldr	r1, [r8, #2312]
 4839 006c 8907     		lsls	r1, r1, #30
 4840 006e FBD5     		bpl	.L447
 4841 0070 DBE7     		b	.L448
 4842              	.L460:
 4843              		.loc 1 156 0
 4844 0072 C2F800CB 		str	ip, [r2, #2816]
 4845              	.L450:
ARM GAS  C:\Users\mathi\AppData\Local\Temp\ccOm87JI.s 			page 86


 4846              		.loc 1 158 0
 4847 0076 D1F8082B 		ldr	r2, [r1, #2824]
 4848 007a D206     		lsls	r2, r2, #27
 4849 007c FBD5     		bpl	.L450
 4850 007e E0E7     		b	.L451
 4851              	.L461:
 4852              		.loc 1 166 0
 4853 0080 4FF00113 		mov	r3, #65537
 4854 0084 C6F81C38 		str	r3, [r6, #2076]
 4855              	.LVL510:
 4856              	.LBE1204:
 4857              	.LBE1205:
 4858              		.loc 1 1080 0
 4859 0088 019A     		ldr	r2, [sp, #4]
 4860 008a DEF80030 		ldr	r3, [lr]
 4861 008e 9A42     		cmp	r2, r3
 4862 0090 02D1     		bne	.L462
 4863 0092 02B0     		add	sp, sp, #8
 4864              		.cfi_remember_state
 4865              		.cfi_def_cfa_offset 24
 4866              		@ sp needed
 4867 0094 BDE8F081 		pop	{r4, r5, r6, r7, r8, pc}
 4868              	.L462:
 4869              		.cfi_restore_state
 4870 0098 FFF7FEFF 		bl	__stack_chk_fail
 4871              	.LVL511:
 4872              	.L464:
 4873              		.align	2
 4874              	.L463:
 4875 009c 00000000 		.word	__stack_chk_guard
 4876              		.cfi_endproc
 4877              	.LFE280:
 4878              		.size	usb_lld_disable_endpoints, .-usb_lld_disable_endpoints
 4879              		.section	.text.usb_lld_get_status_out,"ax",%progbits
 4880              		.align	1
 4881              		.p2align 4,,15
 4882              		.global	usb_lld_get_status_out
 4883              		.syntax unified
 4884              		.thumb
 4885              		.thumb_func
 4886              		.fpu fpv4-sp-d16
 4887              		.type	usb_lld_get_status_out, %function
 4888              	usb_lld_get_status_out:
 4889              	.LFB281:
 4890              		.loc 1 1094 0
 4891              		.cfi_startproc
 4892              		@ args = 0, pretend = 0, frame = 8
 4893              		@ frame_needed = 0, uses_anonymous_args = 0
 4894              	.LVL512:
 4895 0000 00B5     		push	{lr}
 4896              		.cfi_def_cfa_offset 4
 4897              		.cfi_offset 14, -4
 4898 0002 0C4A     		ldr	r2, .L472
 4899              		.loc 1 1099 0
 4900 0004 036D     		ldr	r3, [r0, #80]
 4901              		.loc 1 1094 0
 4902 0006 1068     		ldr	r0, [r2]
ARM GAS  C:\Users\mathi\AppData\Local\Temp\ccOm87JI.s 			page 87


 4903              	.LVL513:
 4904 0008 83B0     		sub	sp, sp, #12
 4905              		.cfi_def_cfa_offset 16
 4906              		.loc 1 1099 0
 4907 000a 5831     		adds	r1, r1, #88
 4908              	.LVL514:
 4909 000c 4901     		lsls	r1, r1, #5
 4910              		.loc 1 1094 0
 4911 000e 0190     		str	r0, [sp, #4]
 4912              		.loc 1 1099 0
 4913 0010 5B58     		ldr	r3, [r3, r1]
 4914              	.LVL515:
 4915              		.loc 1 1100 0
 4916 0012 13F40040 		ands	r0, r3, #32768
 4917 0016 04D0     		beq	.L466
 4918              		.loc 1 1102 0
 4919 0018 13F4001F 		tst	r3, #2097152
 4920              		.loc 1 1104 0
 4921 001c 14BF     		ite	ne
 4922 001e 0120     		movne	r0, #1
 4923 0020 0220     		moveq	r0, #2
 4924              	.L466:
 4925              		.loc 1 1105 0
 4926 0022 0199     		ldr	r1, [sp, #4]
 4927 0024 1368     		ldr	r3, [r2]
 4928              	.LVL516:
 4929 0026 9942     		cmp	r1, r3
 4930 0028 02D1     		bne	.L471
 4931 002a 03B0     		add	sp, sp, #12
 4932              		.cfi_remember_state
 4933              		.cfi_def_cfa_offset 4
 4934              		@ sp needed
 4935 002c 5DF804FB 		ldr	pc, [sp], #4
 4936              	.L471:
 4937              		.cfi_restore_state
 4938 0030 FFF7FEFF 		bl	__stack_chk_fail
 4939              	.LVL517:
 4940              	.L473:
 4941              		.align	2
 4942              	.L472:
 4943 0034 00000000 		.word	__stack_chk_guard
 4944              		.cfi_endproc
 4945              	.LFE281:
 4946              		.size	usb_lld_get_status_out, .-usb_lld_get_status_out
 4947              		.section	.text.usb_lld_get_status_in,"ax",%progbits
 4948              		.align	1
 4949              		.p2align 4,,15
 4950              		.global	usb_lld_get_status_in
 4951              		.syntax unified
 4952              		.thumb
 4953              		.thumb_func
 4954              		.fpu fpv4-sp-d16
 4955              		.type	usb_lld_get_status_in, %function
 4956              	usb_lld_get_status_in:
 4957              	.LFB282:
 4958              		.loc 1 1119 0
 4959              		.cfi_startproc
ARM GAS  C:\Users\mathi\AppData\Local\Temp\ccOm87JI.s 			page 88


 4960              		@ args = 0, pretend = 0, frame = 8
 4961              		@ frame_needed = 0, uses_anonymous_args = 0
 4962              	.LVL518:
 4963 0000 00B5     		push	{lr}
 4964              		.cfi_def_cfa_offset 4
 4965              		.cfi_offset 14, -4
 4966 0002 0C4A     		ldr	r2, .L481
 4967              		.loc 1 1124 0
 4968 0004 036D     		ldr	r3, [r0, #80]
 4969              		.loc 1 1119 0
 4970 0006 1068     		ldr	r0, [r2]
 4971              	.LVL519:
 4972 0008 83B0     		sub	sp, sp, #12
 4973              		.cfi_def_cfa_offset 16
 4974              		.loc 1 1124 0
 4975 000a 4831     		adds	r1, r1, #72
 4976              	.LVL520:
 4977 000c 4901     		lsls	r1, r1, #5
 4978              		.loc 1 1119 0
 4979 000e 0190     		str	r0, [sp, #4]
 4980              		.loc 1 1124 0
 4981 0010 5B58     		ldr	r3, [r3, r1]
 4982              	.LVL521:
 4983              		.loc 1 1125 0
 4984 0012 13F40040 		ands	r0, r3, #32768
 4985 0016 04D0     		beq	.L475
 4986              		.loc 1 1127 0
 4987 0018 13F4001F 		tst	r3, #2097152
 4988              		.loc 1 1129 0
 4989 001c 14BF     		ite	ne
 4990 001e 0120     		movne	r0, #1
 4991 0020 0220     		moveq	r0, #2
 4992              	.L475:
 4993              		.loc 1 1130 0
 4994 0022 0199     		ldr	r1, [sp, #4]
 4995 0024 1368     		ldr	r3, [r2]
 4996              	.LVL522:
 4997 0026 9942     		cmp	r1, r3
 4998 0028 02D1     		bne	.L480
 4999 002a 03B0     		add	sp, sp, #12
 5000              		.cfi_remember_state
 5001              		.cfi_def_cfa_offset 4
 5002              		@ sp needed
 5003 002c 5DF804FB 		ldr	pc, [sp], #4
 5004              	.L480:
 5005              		.cfi_restore_state
 5006 0030 FFF7FEFF 		bl	__stack_chk_fail
 5007              	.LVL523:
 5008              	.L482:
 5009              		.align	2
 5010              	.L481:
 5011 0034 00000000 		.word	__stack_chk_guard
 5012              		.cfi_endproc
 5013              	.LFE282:
 5014              		.size	usb_lld_get_status_in, .-usb_lld_get_status_in
 5015              		.section	.text.usb_lld_read_setup,"ax",%progbits
 5016              		.align	1
ARM GAS  C:\Users\mathi\AppData\Local\Temp\ccOm87JI.s 			page 89


 5017              		.p2align 4,,15
 5018              		.global	usb_lld_read_setup
 5019              		.syntax unified
 5020              		.thumb
 5021              		.thumb_func
 5022              		.fpu fpv4-sp-d16
 5023              		.type	usb_lld_read_setup, %function
 5024              	usb_lld_read_setup:
 5025              	.LFB283:
 5026              		.loc 1 1146 0
 5027              		.cfi_startproc
 5028              		@ args = 0, pretend = 0, frame = 8
 5029              		@ frame_needed = 0, uses_anonymous_args = 0
 5030              	.LVL524:
 5031 0000 10B5     		push	{r4, lr}
 5032              		.cfi_def_cfa_offset 8
 5033              		.cfi_offset 4, -8
 5034              		.cfi_offset 14, -4
 5035              		.loc 1 1148 0
 5036 0002 00EB8101 		add	r1, r0, r1, lsl #2
 5037              	.LVL525:
 5038              		.loc 1 1146 0
 5039 0006 094B     		ldr	r3, .L487
 5040              		.loc 1 1148 0
 5041 0008 C968     		ldr	r1, [r1, #12]
 5042              		.loc 1 1146 0
 5043 000a 1868     		ldr	r0, [r3]
 5044              	.LVL526:
 5045              		.loc 1 1148 0
 5046 000c 096A     		ldr	r1, [r1, #32]
 5047              		.loc 1 1146 0
 5048 000e 82B0     		sub	sp, sp, #8
 5049              		.cfi_def_cfa_offset 16
 5050              		.loc 1 1148 0
 5051 0010 0C68     		ldr	r4, [r1]	@ unaligned
 5052              		.loc 1 1146 0
 5053 0012 0190     		str	r0, [sp, #4]
 5054              		.loc 1 1148 0
 5055 0014 4868     		ldr	r0, [r1, #4]	@ unaligned
 5056 0016 1460     		str	r4, [r2]	@ unaligned
 5057              		.loc 1 1149 0
 5058 0018 0199     		ldr	r1, [sp, #4]
 5059 001a 1B68     		ldr	r3, [r3]
 5060              		.loc 1 1148 0
 5061 001c 5060     		str	r0, [r2, #4]	@ unaligned
 5062              		.loc 1 1149 0
 5063 001e 9942     		cmp	r1, r3
 5064 0020 01D1     		bne	.L486
 5065 0022 02B0     		add	sp, sp, #8
 5066              		.cfi_remember_state
 5067              		.cfi_def_cfa_offset 8
 5068              		@ sp needed
 5069 0024 10BD     		pop	{r4, pc}
 5070              	.L486:
 5071              		.cfi_restore_state
 5072 0026 FFF7FEFF 		bl	__stack_chk_fail
 5073              	.LVL527:
ARM GAS  C:\Users\mathi\AppData\Local\Temp\ccOm87JI.s 			page 90


 5074              	.L488:
 5075 002a 00BF     		.align	2
 5076              	.L487:
 5077 002c 00000000 		.word	__stack_chk_guard
 5078              		.cfi_endproc
 5079              	.LFE283:
 5080              		.size	usb_lld_read_setup, .-usb_lld_read_setup
 5081              		.section	.text.usb_lld_prepare_receive,"ax",%progbits
 5082              		.align	1
 5083              		.p2align 4,,15
 5084              		.global	usb_lld_prepare_receive
 5085              		.syntax unified
 5086              		.thumb
 5087              		.thumb_func
 5088              		.fpu fpv4-sp-d16
 5089              		.type	usb_lld_prepare_receive, %function
 5090              	usb_lld_prepare_receive:
 5091              	.LFB284:
 5092              		.loc 1 1159 0
 5093              		.cfi_startproc
 5094              		@ args = 0, pretend = 0, frame = 8
 5095              		@ frame_needed = 0, uses_anonymous_args = 0
 5096              	.LVL528:
 5097 0000 F0B5     		push	{r4, r5, r6, r7, lr}
 5098              		.cfi_def_cfa_offset 20
 5099              		.cfi_offset 4, -20
 5100              		.cfi_offset 5, -16
 5101              		.cfi_offset 6, -12
 5102              		.cfi_offset 7, -8
 5103              		.cfi_offset 14, -4
 5104 0002 00EB8107 		add	r7, r0, r1, lsl #2
 5105 0006 134E     		ldr	r6, .L497
 5106              		.loc 1 1161 0
 5107 0008 FA68     		ldr	r2, [r7, #12]
 5108              		.loc 1 1159 0
 5109 000a 3368     		ldr	r3, [r6]
 5110              		.loc 1 1161 0
 5111 000c 9569     		ldr	r5, [r2, #24]
 5112              	.LVL529:
 5113              		.loc 1 1159 0
 5114 000e 83B0     		sub	sp, sp, #12
 5115              		.cfi_def_cfa_offset 32
 5116              		.loc 1 1164 0
 5117 0010 6A68     		ldr	r2, [r5, #4]
 5118              		.loc 1 1159 0
 5119 0012 0193     		str	r3, [sp, #4]
 5120              		.loc 1 1164 0
 5121 0014 2A61     		str	r2, [r5, #16]
 5122              		.loc 1 1165 0
 5123 0016 29B9     		cbnz	r1, .L495
 5124              		.loc 1 1165 0 is_stmt 0 discriminator 1
 5125 0018 402A     		cmp	r2, #64
 5126 001a 03D9     		bls	.L495
 5127              		.loc 1 1166 0 is_stmt 1
 5128 001c 4022     		movs	r2, #64
 5129 001e 0E4C     		ldr	r4, .L497+4
 5130 0020 6A60     		str	r2, [r5, #4]
ARM GAS  C:\Users\mathi\AppData\Local\Temp\ccOm87JI.s 			page 91


 5131 0022 01E0     		b	.L491
 5132              	.L495:
 5133 0024 42F0C044 		orr	r4, r2, #1610612736
 5134              	.L491:
 5135              		.loc 1 1168 0
 5136 0028 FB68     		ldr	r3, [r7, #12]
 5137              		.loc 1 1170 0
 5138 002a 006D     		ldr	r0, [r0, #80]
 5139              	.LVL530:
 5140              		.loc 1 1168 0
 5141 002c 5D8A     		ldrh	r5, [r3, #18]
 5142              	.LVL531:
 5143              		.loc 1 1170 0
 5144 002e 00EB4111 		add	r1, r0, r1, lsl #5
 5145              	.LVL532:
 5146              		.loc 1 1168 0
 5147 0032 6B1E     		subs	r3, r5, #1
 5148 0034 1344     		add	r3, r3, r2
 5149 0036 B3FBF5F3 		udiv	r3, r3, r5
 5150              		.loc 1 1170 0
 5151 003a 44EAC343 		orr	r3, r4, r3, lsl #19
 5152 003e C1F8103B 		str	r3, [r1, #2832]
 5153              		.loc 1 1173 0
 5154 0042 019A     		ldr	r2, [sp, #4]
 5155              	.LVL533:
 5156 0044 3368     		ldr	r3, [r6]
 5157 0046 9A42     		cmp	r2, r3
 5158 0048 01D1     		bne	.L496
 5159 004a 03B0     		add	sp, sp, #12
 5160              		.cfi_remember_state
 5161              		.cfi_def_cfa_offset 20
 5162              		@ sp needed
 5163 004c F0BD     		pop	{r4, r5, r6, r7, pc}
 5164              	.L496:
 5165              		.cfi_restore_state
 5166 004e FFF7FEFF 		bl	__stack_chk_fail
 5167              	.LVL534:
 5168              	.L498:
 5169 0052 00BF     		.align	2
 5170              	.L497:
 5171 0054 00000000 		.word	__stack_chk_guard
 5172 0058 40000060 		.word	1610612800
 5173              		.cfi_endproc
 5174              	.LFE284:
 5175              		.size	usb_lld_prepare_receive, .-usb_lld_prepare_receive
 5176              		.section	.text.usb_lld_prepare_transmit,"ax",%progbits
 5177              		.align	1
 5178              		.p2align 4,,15
 5179              		.global	usb_lld_prepare_transmit
 5180              		.syntax unified
 5181              		.thumb
 5182              		.thumb_func
 5183              		.fpu fpv4-sp-d16
 5184              		.type	usb_lld_prepare_transmit, %function
 5185              	usb_lld_prepare_transmit:
 5186              	.LFB285:
 5187              		.loc 1 1183 0
ARM GAS  C:\Users\mathi\AppData\Local\Temp\ccOm87JI.s 			page 92


 5188              		.cfi_startproc
 5189              		@ args = 0, pretend = 0, frame = 8
 5190              		@ frame_needed = 0, uses_anonymous_args = 0
 5191              	.LVL535:
 5192 0000 30B5     		push	{r4, r5, lr}
 5193              		.cfi_def_cfa_offset 12
 5194              		.cfi_offset 4, -12
 5195              		.cfi_offset 5, -8
 5196              		.cfi_offset 14, -4
 5197 0002 00EB8105 		add	r5, r0, r1, lsl #2
 5198 0006 164C     		ldr	r4, .L508
 5199              		.loc 1 1184 0
 5200 0008 EA68     		ldr	r2, [r5, #12]
 5201              		.loc 1 1183 0
 5202 000a 2368     		ldr	r3, [r4]
 5203              		.loc 1 1184 0
 5204 000c 5269     		ldr	r2, [r2, #20]
 5205              	.LVL536:
 5206              		.loc 1 1183 0
 5207 000e 83B0     		sub	sp, sp, #12
 5208              		.cfi_def_cfa_offset 24
 5209              		.loc 1 1183 0
 5210 0010 0193     		str	r3, [sp, #4]
 5211              		.loc 1 1187 0
 5212 0012 5368     		ldr	r3, [r2, #4]
 5213 0014 1361     		str	r3, [r2, #16]
 5214              		.loc 1 1188 0
 5215 0016 C3B1     		cbz	r3, .L505
 5216              	.LBB1206:
 5217              		.loc 1 1193 0
 5218 0018 91B1     		cbz	r1, .L506
 5219              	.L502:
 5220              		.loc 1 1197 0
 5221 001a EA68     		ldr	r2, [r5, #12]
 5222              	.LVL537:
 5223              		.loc 1 1199 0
 5224 001c 006D     		ldr	r0, [r0, #80]
 5225              	.LVL538:
 5226              		.loc 1 1197 0
 5227 001e 158A     		ldrh	r5, [r2, #16]
 5228              	.LVL539:
 5229              		.loc 1 1199 0
 5230 0020 00EB4111 		add	r1, r0, r1, lsl #5
 5231              	.LVL540:
 5232              		.loc 1 1197 0
 5233 0024 6A1E     		subs	r2, r5, #1
 5234 0026 1A44     		add	r2, r2, r3
 5235 0028 B2FBF5F2 		udiv	r2, r2, r5
 5236              		.loc 1 1199 0
 5237 002c 43EAC243 		orr	r3, r3, r2, lsl #19
 5238              	.LVL541:
 5239 0030 C1F81039 		str	r3, [r1, #2320]
 5240              	.L499:
 5241              	.LBE1206:
 5242              		.loc 1 1202 0
 5243 0034 019A     		ldr	r2, [sp, #4]
 5244 0036 2368     		ldr	r3, [r4]
ARM GAS  C:\Users\mathi\AppData\Local\Temp\ccOm87JI.s 			page 93


 5245 0038 9A42     		cmp	r2, r3
 5246 003a 0ED1     		bne	.L507
 5247 003c 03B0     		add	sp, sp, #12
 5248              		.cfi_remember_state
 5249              		.cfi_def_cfa_offset 12
 5250              		@ sp needed
 5251 003e 30BD     		pop	{r4, r5, pc}
 5252              	.LVL542:
 5253              	.L506:
 5254              		.cfi_restore_state
 5255              	.LBB1207:
 5256              		.loc 1 1193 0 discriminator 1
 5257 0040 402B     		cmp	r3, #64
 5258              		.loc 1 1194 0 discriminator 1
 5259 0042 84BF     		itt	hi
 5260 0044 4023     		movhi	r3, #64
 5261 0046 5360     		strhi	r3, [r2, #4]
 5262 0048 E7E7     		b	.L502
 5263              	.L505:
 5264              	.LBE1207:
 5265              		.loc 1 1190 0
 5266 004a 036D     		ldr	r3, [r0, #80]
 5267 004c 03EB4111 		add	r1, r3, r1, lsl #5
 5268              	.LVL543:
 5269 0050 4FF40023 		mov	r3, #524288
 5270 0054 C1F81039 		str	r3, [r1, #2320]
 5271 0058 ECE7     		b	.L499
 5272              	.LVL544:
 5273              	.L507:
 5274              		.loc 1 1202 0
 5275 005a FFF7FEFF 		bl	__stack_chk_fail
 5276              	.LVL545:
 5277              	.L509:
 5278 005e 00BF     		.align	2
 5279              	.L508:
 5280 0060 00000000 		.word	__stack_chk_guard
 5281              		.cfi_endproc
 5282              	.LFE285:
 5283              		.size	usb_lld_prepare_transmit, .-usb_lld_prepare_transmit
 5284              		.section	.text.usb_lld_start_out,"ax",%progbits
 5285              		.align	1
 5286              		.p2align 4,,15
 5287              		.global	usb_lld_start_out
 5288              		.syntax unified
 5289              		.thumb
 5290              		.thumb_func
 5291              		.fpu fpv4-sp-d16
 5292              		.type	usb_lld_start_out, %function
 5293              	usb_lld_start_out:
 5294              	.LFB286:
 5295              		.loc 1 1212 0
 5296              		.cfi_startproc
 5297              		@ args = 0, pretend = 0, frame = 8
 5298              		@ frame_needed = 0, uses_anonymous_args = 0
 5299              	.LVL546:
 5300 0000 00B5     		push	{lr}
 5301              		.cfi_def_cfa_offset 4
ARM GAS  C:\Users\mathi\AppData\Local\Temp\ccOm87JI.s 			page 94


 5302              		.cfi_offset 14, -4
 5303 0002 0B4A     		ldr	r2, .L514
 5304 0004 036D     		ldr	r3, [r0, #80]
 5305 0006 83B0     		sub	sp, sp, #12
 5306              		.cfi_def_cfa_offset 16
 5307 0008 03EB4111 		add	r1, r3, r1, lsl #5
 5308              	.LVL547:
 5309              		.loc 1 1212 0
 5310 000c 1368     		ldr	r3, [r2]
 5311 000e 0193     		str	r3, [sp, #4]
 5312              		.loc 1 1214 0
 5313 0010 D1F8003B 		ldr	r3, [r1, #2816]
 5314 0014 43F08063 		orr	r3, r3, #67108864
 5315 0018 C1F8003B 		str	r3, [r1, #2816]
 5316              		.loc 1 1215 0
 5317 001c 0199     		ldr	r1, [sp, #4]
 5318 001e 1368     		ldr	r3, [r2]
 5319 0020 9942     		cmp	r1, r3
 5320 0022 02D1     		bne	.L513
 5321 0024 03B0     		add	sp, sp, #12
 5322              		.cfi_remember_state
 5323              		.cfi_def_cfa_offset 4
 5324              		@ sp needed
 5325 0026 5DF804FB 		ldr	pc, [sp], #4
 5326              	.L513:
 5327              		.cfi_restore_state
 5328 002a FFF7FEFF 		bl	__stack_chk_fail
 5329              	.LVL548:
 5330              	.L515:
 5331 002e 00BF     		.align	2
 5332              	.L514:
 5333 0030 00000000 		.word	__stack_chk_guard
 5334              		.cfi_endproc
 5335              	.LFE286:
 5336              		.size	usb_lld_start_out, .-usb_lld_start_out
 5337              		.section	.text.usb_lld_start_in,"ax",%progbits
 5338              		.align	1
 5339              		.p2align 4,,15
 5340              		.global	usb_lld_start_in
 5341              		.syntax unified
 5342              		.thumb
 5343              		.thumb_func
 5344              		.fpu fpv4-sp-d16
 5345              		.type	usb_lld_start_in, %function
 5346              	usb_lld_start_in:
 5347              	.LFB287:
 5348              		.loc 1 1225 0
 5349              		.cfi_startproc
 5350              		@ args = 0, pretend = 0, frame = 8
 5351              		@ frame_needed = 0, uses_anonymous_args = 0
 5352              	.LVL549:
 5353 0000 30B5     		push	{r4, r5, lr}
 5354              		.cfi_def_cfa_offset 12
 5355              		.cfi_offset 4, -12
 5356              		.cfi_offset 5, -8
 5357              		.cfi_offset 14, -4
 5358 0002 0F4D     		ldr	r5, .L520
ARM GAS  C:\Users\mathi\AppData\Local\Temp\ccOm87JI.s 			page 95


 5359 0004 026D     		ldr	r2, [r0, #80]
 5360 0006 2B68     		ldr	r3, [r5]
 5361 0008 83B0     		sub	sp, sp, #12
 5362              		.cfi_def_cfa_offset 24
 5363 000a 02EB4112 		add	r2, r2, r1, lsl #5
 5364              		.loc 1 1225 0
 5365 000e 0193     		str	r3, [sp, #4]
 5366              		.loc 1 1227 0
 5367 0010 D2F80049 		ldr	r4, [r2, #2304]
 5368 0014 44F00444 		orr	r4, r4, #-2080374784
 5369 0018 C2F80049 		str	r4, [r2, #2304]
 5370              		.loc 1 1228 0
 5371 001c 026D     		ldr	r2, [r0, #80]
 5372 001e 0123     		movs	r3, #1
 5373 0020 D2F83408 		ldr	r0, [r2, #2100]
 5374              	.LVL550:
 5375 0024 03FA01F1 		lsl	r1, r3, r1
 5376              	.LVL551:
 5377 0028 0143     		orrs	r1, r1, r0
 5378 002a C2F83418 		str	r1, [r2, #2100]
 5379              		.loc 1 1229 0
 5380 002e 019A     		ldr	r2, [sp, #4]
 5381 0030 2B68     		ldr	r3, [r5]
 5382 0032 9A42     		cmp	r2, r3
 5383 0034 01D1     		bne	.L519
 5384 0036 03B0     		add	sp, sp, #12
 5385              		.cfi_remember_state
 5386              		.cfi_def_cfa_offset 12
 5387              		@ sp needed
 5388 0038 30BD     		pop	{r4, r5, pc}
 5389              	.L519:
 5390              		.cfi_restore_state
 5391 003a FFF7FEFF 		bl	__stack_chk_fail
 5392              	.LVL552:
 5393              	.L521:
 5394 003e 00BF     		.align	2
 5395              	.L520:
 5396 0040 00000000 		.word	__stack_chk_guard
 5397              		.cfi_endproc
 5398              	.LFE287:
 5399              		.size	usb_lld_start_in, .-usb_lld_start_in
 5400              		.section	.text.usb_lld_stall_out,"ax",%progbits
 5401              		.align	1
 5402              		.p2align 4,,15
 5403              		.global	usb_lld_stall_out
 5404              		.syntax unified
 5405              		.thumb
 5406              		.thumb_func
 5407              		.fpu fpv4-sp-d16
 5408              		.type	usb_lld_stall_out, %function
 5409              	usb_lld_stall_out:
 5410              	.LFB288:
 5411              		.loc 1 1239 0
 5412              		.cfi_startproc
 5413              		@ args = 0, pretend = 0, frame = 8
 5414              		@ frame_needed = 0, uses_anonymous_args = 0
 5415              	.LVL553:
ARM GAS  C:\Users\mathi\AppData\Local\Temp\ccOm87JI.s 			page 96


 5416 0000 00B5     		push	{lr}
 5417              		.cfi_def_cfa_offset 4
 5418              		.cfi_offset 14, -4
 5419 0002 0B4A     		ldr	r2, .L526
 5420 0004 036D     		ldr	r3, [r0, #80]
 5421 0006 83B0     		sub	sp, sp, #12
 5422              		.cfi_def_cfa_offset 16
 5423 0008 03EB4111 		add	r1, r3, r1, lsl #5
 5424              	.LVL554:
 5425              		.loc 1 1239 0
 5426 000c 1368     		ldr	r3, [r2]
 5427 000e 0193     		str	r3, [sp, #4]
 5428              		.loc 1 1241 0
 5429 0010 D1F8003B 		ldr	r3, [r1, #2816]
 5430 0014 43F40013 		orr	r3, r3, #2097152
 5431 0018 C1F8003B 		str	r3, [r1, #2816]
 5432              		.loc 1 1242 0
 5433 001c 0199     		ldr	r1, [sp, #4]
 5434 001e 1368     		ldr	r3, [r2]
 5435 0020 9942     		cmp	r1, r3
 5436 0022 02D1     		bne	.L525
 5437 0024 03B0     		add	sp, sp, #12
 5438              		.cfi_remember_state
 5439              		.cfi_def_cfa_offset 4
 5440              		@ sp needed
 5441 0026 5DF804FB 		ldr	pc, [sp], #4
 5442              	.L525:
 5443              		.cfi_restore_state
 5444 002a FFF7FEFF 		bl	__stack_chk_fail
 5445              	.LVL555:
 5446              	.L527:
 5447 002e 00BF     		.align	2
 5448              	.L526:
 5449 0030 00000000 		.word	__stack_chk_guard
 5450              		.cfi_endproc
 5451              	.LFE288:
 5452              		.size	usb_lld_stall_out, .-usb_lld_stall_out
 5453              		.section	.text.usb_lld_stall_in,"ax",%progbits
 5454              		.align	1
 5455              		.p2align 4,,15
 5456              		.global	usb_lld_stall_in
 5457              		.syntax unified
 5458              		.thumb
 5459              		.thumb_func
 5460              		.fpu fpv4-sp-d16
 5461              		.type	usb_lld_stall_in, %function
 5462              	usb_lld_stall_in:
 5463              	.LFB289:
 5464              		.loc 1 1252 0
 5465              		.cfi_startproc
 5466              		@ args = 0, pretend = 0, frame = 8
 5467              		@ frame_needed = 0, uses_anonymous_args = 0
 5468              	.LVL556:
 5469 0000 00B5     		push	{lr}
 5470              		.cfi_def_cfa_offset 4
 5471              		.cfi_offset 14, -4
 5472 0002 0B4A     		ldr	r2, .L532
ARM GAS  C:\Users\mathi\AppData\Local\Temp\ccOm87JI.s 			page 97


 5473 0004 036D     		ldr	r3, [r0, #80]
 5474 0006 83B0     		sub	sp, sp, #12
 5475              		.cfi_def_cfa_offset 16
 5476 0008 03EB4111 		add	r1, r3, r1, lsl #5
 5477              	.LVL557:
 5478              		.loc 1 1252 0
 5479 000c 1368     		ldr	r3, [r2]
 5480 000e 0193     		str	r3, [sp, #4]
 5481              		.loc 1 1254 0
 5482 0010 D1F80039 		ldr	r3, [r1, #2304]
 5483 0014 43F40013 		orr	r3, r3, #2097152
 5484 0018 C1F80039 		str	r3, [r1, #2304]
 5485              		.loc 1 1255 0
 5486 001c 0199     		ldr	r1, [sp, #4]
 5487 001e 1368     		ldr	r3, [r2]
 5488 0020 9942     		cmp	r1, r3
 5489 0022 02D1     		bne	.L531
 5490 0024 03B0     		add	sp, sp, #12
 5491              		.cfi_remember_state
 5492              		.cfi_def_cfa_offset 4
 5493              		@ sp needed
 5494 0026 5DF804FB 		ldr	pc, [sp], #4
 5495              	.L531:
 5496              		.cfi_restore_state
 5497 002a FFF7FEFF 		bl	__stack_chk_fail
 5498              	.LVL558:
 5499              	.L533:
 5500 002e 00BF     		.align	2
 5501              	.L532:
 5502 0030 00000000 		.word	__stack_chk_guard
 5503              		.cfi_endproc
 5504              	.LFE289:
 5505              		.size	usb_lld_stall_in, .-usb_lld_stall_in
 5506              		.section	.text.usb_lld_clear_out,"ax",%progbits
 5507              		.align	1
 5508              		.p2align 4,,15
 5509              		.global	usb_lld_clear_out
 5510              		.syntax unified
 5511              		.thumb
 5512              		.thumb_func
 5513              		.fpu fpv4-sp-d16
 5514              		.type	usb_lld_clear_out, %function
 5515              	usb_lld_clear_out:
 5516              	.LFB290:
 5517              		.loc 1 1265 0
 5518              		.cfi_startproc
 5519              		@ args = 0, pretend = 0, frame = 8
 5520              		@ frame_needed = 0, uses_anonymous_args = 0
 5521              	.LVL559:
 5522 0000 00B5     		push	{lr}
 5523              		.cfi_def_cfa_offset 4
 5524              		.cfi_offset 14, -4
 5525 0002 0B4A     		ldr	r2, .L538
 5526 0004 036D     		ldr	r3, [r0, #80]
 5527 0006 83B0     		sub	sp, sp, #12
 5528              		.cfi_def_cfa_offset 16
 5529 0008 03EB4111 		add	r1, r3, r1, lsl #5
ARM GAS  C:\Users\mathi\AppData\Local\Temp\ccOm87JI.s 			page 98


 5530              	.LVL560:
 5531              		.loc 1 1265 0
 5532 000c 1368     		ldr	r3, [r2]
 5533 000e 0193     		str	r3, [sp, #4]
 5534              		.loc 1 1267 0
 5535 0010 D1F8003B 		ldr	r3, [r1, #2816]
 5536 0014 23F40013 		bic	r3, r3, #2097152
 5537 0018 C1F8003B 		str	r3, [r1, #2816]
 5538              		.loc 1 1268 0
 5539 001c 0199     		ldr	r1, [sp, #4]
 5540 001e 1368     		ldr	r3, [r2]
 5541 0020 9942     		cmp	r1, r3
 5542 0022 02D1     		bne	.L537
 5543 0024 03B0     		add	sp, sp, #12
 5544              		.cfi_remember_state
 5545              		.cfi_def_cfa_offset 4
 5546              		@ sp needed
 5547 0026 5DF804FB 		ldr	pc, [sp], #4
 5548              	.L537:
 5549              		.cfi_restore_state
 5550 002a FFF7FEFF 		bl	__stack_chk_fail
 5551              	.LVL561:
 5552              	.L539:
 5553 002e 00BF     		.align	2
 5554              	.L538:
 5555 0030 00000000 		.word	__stack_chk_guard
 5556              		.cfi_endproc
 5557              	.LFE290:
 5558              		.size	usb_lld_clear_out, .-usb_lld_clear_out
 5559              		.section	.text.usb_lld_clear_in,"ax",%progbits
 5560              		.align	1
 5561              		.p2align 4,,15
 5562              		.global	usb_lld_clear_in
 5563              		.syntax unified
 5564              		.thumb
 5565              		.thumb_func
 5566              		.fpu fpv4-sp-d16
 5567              		.type	usb_lld_clear_in, %function
 5568              	usb_lld_clear_in:
 5569              	.LFB291:
 5570              		.loc 1 1278 0
 5571              		.cfi_startproc
 5572              		@ args = 0, pretend = 0, frame = 8
 5573              		@ frame_needed = 0, uses_anonymous_args = 0
 5574              	.LVL562:
 5575 0000 00B5     		push	{lr}
 5576              		.cfi_def_cfa_offset 4
 5577              		.cfi_offset 14, -4
 5578 0002 0B4A     		ldr	r2, .L544
 5579 0004 036D     		ldr	r3, [r0, #80]
 5580 0006 83B0     		sub	sp, sp, #12
 5581              		.cfi_def_cfa_offset 16
 5582 0008 03EB4111 		add	r1, r3, r1, lsl #5
 5583              	.LVL563:
 5584              		.loc 1 1278 0
 5585 000c 1368     		ldr	r3, [r2]
 5586 000e 0193     		str	r3, [sp, #4]
ARM GAS  C:\Users\mathi\AppData\Local\Temp\ccOm87JI.s 			page 99


 5587              		.loc 1 1280 0
 5588 0010 D1F80039 		ldr	r3, [r1, #2304]
 5589 0014 23F40013 		bic	r3, r3, #2097152
 5590 0018 C1F80039 		str	r3, [r1, #2304]
 5591              		.loc 1 1281 0
 5592 001c 0199     		ldr	r1, [sp, #4]
 5593 001e 1368     		ldr	r3, [r2]
 5594 0020 9942     		cmp	r1, r3
 5595 0022 02D1     		bne	.L543
 5596 0024 03B0     		add	sp, sp, #12
 5597              		.cfi_remember_state
 5598              		.cfi_def_cfa_offset 4
 5599              		@ sp needed
 5600 0026 5DF804FB 		ldr	pc, [sp], #4
 5601              	.L543:
 5602              		.cfi_restore_state
 5603 002a FFF7FEFF 		bl	__stack_chk_fail
 5604              	.LVL564:
 5605              	.L545:
 5606 002e 00BF     		.align	2
 5607              	.L544:
 5608 0030 00000000 		.word	__stack_chk_guard
 5609              		.cfi_endproc
 5610              	.LFE291:
 5611              		.size	usb_lld_clear_in, .-usb_lld_clear_in
 5612              		.global	USBD1
 5613              		.section	.bss.USBD1,"aw",%nobits
 5614              		.align	3
 5615              		.set	.LANCHOR1,. + 0
 5616              		.type	USBD1, %object
 5617              		.size	USBD1, 608
 5618              	USBD1:
 5619 0000 00000000 		.space	608
 5619      00000000 
 5619      00000000 
 5619      00000000 
 5619      00000000 
 5620              		.section	.bss.ep0_state,"aw",%nobits
 5621              		.align	2
 5622              		.type	ep0_state, %object
 5623              		.size	ep0_state, 20
 5624              	ep0_state:
 5625 0000 00000000 		.space	20
 5625      00000000 
 5625      00000000 
 5625      00000000 
 5625      00000000 
 5626              		.section	.bss.ep0setup_buffer,"aw",%nobits
 5627              		.align	2
 5628              		.type	ep0setup_buffer, %object
 5629              		.size	ep0setup_buffer, 8
 5630              	ep0setup_buffer:
 5631 0000 00000000 		.space	8
 5631      00000000 
 5632              		.section	.rodata.__func__.10295,"a",%progbits
 5633              		.align	2
 5634              		.set	.LANCHOR5,. + 0
ARM GAS  C:\Users\mathi\AppData\Local\Temp\ccOm87JI.s 			page 100


 5635              		.type	__func__.10295, %object
 5636              		.size	__func__.10295, 14
 5637              	__func__.10295:
 5638 0000 6F74675F 		.ascii	"otg_ram_alloc\000"
 5638      72616D5F 
 5638      616C6C6F 
 5638      6300
 5639              		.section	.rodata.__func__.7554,"a",%progbits
 5640              		.align	2
 5641              		.set	.LANCHOR0,. + 0
 5642              		.type	__func__.7554, %object
 5643              		.size	__func__.7554, 12
 5644              	__func__.7554:
 5645 0000 63685379 		.ascii	"chSysUnlock\000"
 5645      73556E6C 
 5645      6F636B00 
 5646              		.section	.rodata.__func__.7721,"a",%progbits
 5647              		.align	2
 5648              		.set	.LANCHOR3,. + 0
 5649              		.type	__func__.7721, %object
 5650              		.size	__func__.7721, 12
 5651              	__func__.7721:
 5652 0000 63685468 		.ascii	"chThdStartI\000"
 5652      64537461 
 5652      72744900 
 5653              		.section	.rodata.ep0config,"a",%progbits
 5654              		.align	2
 5655              		.set	.LANCHOR4,. + 0
 5656              		.type	ep0config, %object
 5657              		.size	ep0config, 36
 5658              	ep0config:
 5659 0000 00000000 		.word	0
 5660 0004 00000000 		.word	_usb_ep0setup
 5661 0008 00000000 		.word	_usb_ep0in
 5662 000c 00000000 		.word	_usb_ep0out
 5663 0010 4000     		.short	64
 5664 0012 4000     		.short	64
 5665 0014 00000000 		.word	ep0_state
 5666 0018 00000000 		.word	ep0_state
 5667 001c 0100     		.short	1
 5668 001e 0000     		.space	2
 5669 0020 00000000 		.word	ep0setup_buffer
 5670              		.section	.rodata.fsparams,"a",%progbits
 5671              		.align	2
 5672              		.set	.LANCHOR2,. + 0
 5673              		.type	fsparams, %object
 5674              		.size	fsparams, 12
 5675              	fsparams:
 5676 0000 80000000 		.word	128
 5677 0004 40010000 		.word	320
 5678 0008 03000000 		.word	3
 5679              		.section	.rodata.usb_lld_pump.str1.4,"aMS",%progbits,1
 5680              		.align	2
 5681              	.LC0:
 5682 0000 7573625F 		.ascii	"usb_lld_pump\000"
 5682      6C6C645F 
 5682      70756D70 
ARM GAS  C:\Users\mathi\AppData\Local\Temp\ccOm87JI.s 			page 101


 5682      00
 5683              		.text
 5684              	.Letext0:
 5685              		.file 7 "c:\\eclipse_e-puck2\\tools\\gcc-arm-none-eabi-7-2017-q4-major-win32\\lib\\gcc\\arm-none-e
 5686              		.file 8 "c:\\eclipse_e-puck2\\tools\\gcc-arm-none-eabi-7-2017-q4-major-win32\\arm-none-eabi\\inclu
 5687              		.file 9 "c:\\eclipse_e-puck2\\tools\\gcc-arm-none-eabi-7-2017-q4-major-win32\\arm-none-eabi\\inclu
 5688              		.file 10 "c:\\eclipse_e-puck2\\tools\\gcc-arm-none-eabi-7-2017-q4-major-win32\\arm-none-eabi\\incl
 5689              		.file 11 "c:\\eclipse_e-puck2\\tools\\gcc-arm-none-eabi-7-2017-q4-major-win32\\arm-none-eabi\\incl
 5690              		.file 12 "c:\\eclipse_e-puck2\\tools\\gcc-arm-none-eabi-7-2017-q4-major-win32\\arm-none-eabi\\incl
 5691              		.file 13 "../../lib/e-puck2_main-processor/ChibiOS//os/rt/ports/ARMCMx/compilers/GCC/chtypes.h"
 5692              		.file 14 "../../lib/e-puck2_main-processor/ChibiOS//os/rt/include/chsystypes.h"
 5693              		.file 15 "../../lib/e-puck2_main-processor/ChibiOS//os/rt/include/chschd.h"
 5694              		.file 16 "../../lib/e-puck2_main-processor/ChibiOS//os/ext/CMSIS/include/core_cm4.h"
 5695              		.file 17 "../../lib/e-puck2_main-processor/ChibiOS//os/ext/CMSIS/ST/system_stm32f4xx.h"
 5696              		.file 18 "../../lib/e-puck2_main-processor/ChibiOS//os/ext/CMSIS/ST/stm32f407xx.h"
 5697              		.file 19 "../../lib/e-puck2_main-processor/ChibiOS//os/rt/ports/ARMCMx/chcore.h"
 5698              		.file 20 "../../lib/e-puck2_main-processor/ChibiOS//os/rt/ports/ARMCMx/chcore_v7m.h"
 5699              		.file 21 "../../lib/e-puck2_main-processor/ChibiOS//os/rt/include/chdebug.h"
 5700              		.file 22 "../../lib/e-puck2_main-processor/ChibiOS//os/rt/include/chtm.h"
 5701              		.file 23 "../../lib/e-puck2_main-processor/ChibiOS//os/rt/include/chstats.h"
 5702              		.file 24 "../../lib/e-puck2_main-processor/ChibiOS//os/rt/include/chsem.h"
 5703              		.file 25 "../../lib/e-puck2_main-processor/ChibiOS//os/rt/include/chmtx.h"
 5704              		.file 26 "../../lib/e-puck2_main-processor/ChibiOS//os/rt/include/chevents.h"
 5705              		.file 27 "../../lib/e-puck2_main-processor/ChibiOS//os/rt/include/chqueues.h"
 5706              		.file 28 "../../lib/e-puck2_main-processor/ChibiOS//os/hal/ports/STM32/STM32F4xx/stm32_dma.h"
 5707              		.file 29 "../../lib/e-puck2_main-processor/ChibiOS//os/hal/include/hal_ioblock.h"
 5708              		.file 30 "../../lib/e-puck2_main-processor/ChibiOS//os/hal/ports/STM32/LLD/GPIOv2/pal_lld.h"
 5709              		.file 31 "../../lib/e-puck2_main-processor/ChibiOS//os/hal/include/adc.h"
 5710              		.file 32 "../../lib/e-puck2_main-processor/ChibiOS//os/hal/ports/STM32/STM32F4xx/adc_lld.h"
 5711              		.file 33 "../../lib/e-puck2_main-processor/ChibiOS//os/hal/include/can.h"
 5712              		.file 34 "../../lib/e-puck2_main-processor/ChibiOS//os/hal/ports/STM32/LLD/can_lld.h"
 5713              		.file 35 "../../lib/e-puck2_main-processor/ChibiOS//os/hal/include/dac.h"
 5714              		.file 36 "../../lib/e-puck2_main-processor/ChibiOS//os/hal/ports/STM32/LLD/DACv1/dac_lld.h"
 5715              		.file 37 "../../lib/e-puck2_main-processor/ChibiOS//os/hal/include/ext.h"
 5716              		.file 38 "../../lib/e-puck2_main-processor/ChibiOS//os/hal/ports/STM32/LLD/ext_lld.h"
 5717              		.file 39 "../../lib/e-puck2_main-processor/ChibiOS//os/hal/include/gpt.h"
 5718              		.file 40 "../../lib/e-puck2_main-processor/ChibiOS//os/hal/ports/STM32/LLD/TIMv1/gpt_lld.h"
 5719              		.file 41 "../../lib/e-puck2_main-processor/ChibiOS//os/hal/ports/STM32/LLD/TIMv1/stm32_tim.h"
 5720              		.file 42 "../../lib/e-puck2_main-processor/ChibiOS//os/hal/include/i2c.h"
 5721              		.file 43 "../../lib/e-puck2_main-processor/ChibiOS//os/hal/ports/STM32/LLD/I2Cv1/i2c_lld.h"
 5722              		.file 44 "../../lib/e-puck2_main-processor/ChibiOS//os/hal/include/i2s.h"
 5723              		.file 45 "../../lib/e-puck2_main-processor/ChibiOS//os/hal/ports/STM32/LLD/SPIv1/i2s_lld.h"
 5724              		.file 46 "../../lib/e-puck2_main-processor/ChibiOS//os/hal/include/pwm.h"
 5725              		.file 47 "../../lib/e-puck2_main-processor/ChibiOS//os/hal/ports/STM32/LLD/TIMv1/pwm_lld.h"
 5726              		.file 48 "../../lib/e-puck2_main-processor/ChibiOS//os/hal/include/serial.h"
 5727              		.file 49 "../../lib/e-puck2_main-processor/ChibiOS//os/hal/ports/STM32/LLD/USARTv1/serial_lld.h"
 5728              		.file 50 "../../lib/e-puck2_main-processor/ChibiOS//os/hal/include/sdc.h"
 5729              		.file 51 "../../lib/e-puck2_main-processor/ChibiOS//os/hal/ports/STM32/LLD/sdc_lld.h"
 5730              		.file 52 "../../lib/e-puck2_main-processor/ChibiOS//os/hal/include/spi.h"
 5731              		.file 53 "../../lib/e-puck2_main-processor/ChibiOS//os/hal/ports/STM32/LLD/SPIv1/spi_lld.h"
 5732              		.file 54 "../../lib/e-puck2_main-processor/ChibiOS//os/hal/include/usb.h"
 5733              		.file 55 "../../lib/e-puck2_main-processor/ChibiOS//os/hal/ports/STM32/LLD/OTGv1/usb_lld.h"
 5734              		.file 56 "../../lib/e-puck2_main-processor/ChibiOS//os/hal/ports/STM32/LLD/OTGv1/stm32_otg.h"
 5735              		.file 57 "../../lib/e-puck2_main-processor/ChibiOS//os/hal/ports/common/ARMCMx/nvic.h"
 5736              		.section	.debug_info,"",%progbits
 5737              	.Ldebug_info0:
 5738 0000 E96D0000 		.4byte	0x6de9
ARM GAS  C:\Users\mathi\AppData\Local\Temp\ccOm87JI.s 			page 102


 5739 0004 0400     		.2byte	0x4
 5740 0006 00000000 		.4byte	.Ldebug_abbrev0
 5741 000a 04       		.byte	0x4
 5742 000b 01       		.uleb128 0x1
 5743 000c 7F010000 		.4byte	.LASF948
 5744 0010 0C       		.byte	0xc
 5745 0011 7A1C0000 		.4byte	.LASF949
 5746 0015 4E150000 		.4byte	.LASF950
 5747 0019 68050000 		.4byte	.Ldebug_ranges0+0x568
 5748 001d 00000000 		.4byte	0
 5749 0021 00000000 		.4byte	.Ldebug_line0
 5750 0025 02       		.uleb128 0x2
 5751 0026 04       		.byte	0x4
 5752 0027 07       		.byte	0x7
 5753 0028 FB260000 		.4byte	.LASF0
 5754 002c 03       		.uleb128 0x3
 5755 002d 04       		.byte	0x4
 5756 002e 05       		.byte	0x5
 5757 002f 696E7400 		.ascii	"int\000"
 5758 0033 04       		.uleb128 0x4
 5759 0034 600E0000 		.4byte	.LASF4
 5760 0038 07       		.byte	0x7
 5761 0039 D8       		.byte	0xd8
 5762 003a 25000000 		.4byte	0x25
 5763 003e 02       		.uleb128 0x2
 5764 003f 08       		.byte	0x8
 5765 0040 05       		.byte	0x5
 5766 0041 99240000 		.4byte	.LASF1
 5767 0045 02       		.uleb128 0x2
 5768 0046 08       		.byte	0x8
 5769 0047 04       		.byte	0x4
 5770 0048 871A0000 		.4byte	.LASF2
 5771 004c 02       		.uleb128 0x2
 5772 004d 01       		.byte	0x1
 5773 004e 06       		.byte	0x6
 5774 004f 6B160000 		.4byte	.LASF3
 5775 0053 04       		.uleb128 0x4
 5776 0054 C8000000 		.4byte	.LASF5
 5777 0058 08       		.byte	0x8
 5778 0059 2B       		.byte	0x2b
 5779 005a 5E000000 		.4byte	0x5e
 5780 005e 02       		.uleb128 0x2
 5781 005f 01       		.byte	0x1
 5782 0060 08       		.byte	0x8
 5783 0061 C00A0000 		.4byte	.LASF6
 5784 0065 04       		.uleb128 0x4
 5785 0066 EB080000 		.4byte	.LASF7
 5786 006a 08       		.byte	0x8
 5787 006b 37       		.byte	0x37
 5788 006c 70000000 		.4byte	0x70
 5789 0070 02       		.uleb128 0x2
 5790 0071 02       		.byte	0x2
 5791 0072 05       		.byte	0x5
 5792 0073 6E270000 		.4byte	.LASF8
 5793 0077 04       		.uleb128 0x4
 5794 0078 0D090000 		.4byte	.LASF9
 5795 007c 08       		.byte	0x8
ARM GAS  C:\Users\mathi\AppData\Local\Temp\ccOm87JI.s 			page 103


 5796 007d 39       		.byte	0x39
 5797 007e 82000000 		.4byte	0x82
 5798 0082 02       		.uleb128 0x2
 5799 0083 02       		.byte	0x2
 5800 0084 07       		.byte	0x7
 5801 0085 50160000 		.4byte	.LASF10
 5802 0089 04       		.uleb128 0x4
 5803 008a BF1F0000 		.4byte	.LASF11
 5804 008e 08       		.byte	0x8
 5805 008f 4D       		.byte	0x4d
 5806 0090 94000000 		.4byte	0x94
 5807 0094 02       		.uleb128 0x2
 5808 0095 04       		.byte	0x4
 5809 0096 05       		.byte	0x5
 5810 0097 4D190000 		.4byte	.LASF12
 5811 009b 04       		.uleb128 0x4
 5812 009c C91F0000 		.4byte	.LASF13
 5813 00a0 08       		.byte	0x8
 5814 00a1 4F       		.byte	0x4f
 5815 00a2 A6000000 		.4byte	0xa6
 5816 00a6 02       		.uleb128 0x2
 5817 00a7 04       		.byte	0x4
 5818 00a8 07       		.byte	0x7
 5819 00a9 E11A0000 		.4byte	.LASF14
 5820 00ad 04       		.uleb128 0x4
 5821 00ae C9110000 		.4byte	.LASF15
 5822 00b2 08       		.byte	0x8
 5823 00b3 69       		.byte	0x69
 5824 00b4 B8000000 		.4byte	0xb8
 5825 00b8 02       		.uleb128 0x2
 5826 00b9 08       		.byte	0x8
 5827 00ba 07       		.byte	0x7
 5828 00bb CC210000 		.4byte	.LASF16
 5829 00bf 04       		.uleb128 0x4
 5830 00c0 CA080000 		.4byte	.LASF17
 5831 00c4 09       		.byte	0x9
 5832 00c5 22       		.byte	0x22
 5833 00c6 CA000000 		.4byte	0xca
 5834 00ca 05       		.uleb128 0x5
 5835 00cb 04       		.byte	0x4
 5836 00cc D0000000 		.4byte	0xd0
 5837 00d0 06       		.uleb128 0x6
 5838 00d1 CD060000 		.4byte	.LASF124
 5839 00d5 04       		.uleb128 0x4
 5840 00d6 3B0E0000 		.4byte	.LASF18
 5841 00da 0A       		.byte	0xa
 5842 00db 2C       		.byte	0x2c
 5843 00dc 94000000 		.4byte	0x94
 5844 00e0 04       		.uleb128 0x4
 5845 00e1 D21E0000 		.4byte	.LASF19
 5846 00e5 0A       		.byte	0xa
 5847 00e6 72       		.byte	0x72
 5848 00e7 94000000 		.4byte	0x94
 5849 00eb 07       		.uleb128 0x7
 5850 00ec 5B100000 		.4byte	.LASF20
 5851 00f0 07       		.byte	0x7
 5852 00f1 6501     		.2byte	0x165
ARM GAS  C:\Users\mathi\AppData\Local\Temp\ccOm87JI.s 			page 104


 5853 00f3 25000000 		.4byte	0x25
 5854 00f7 08       		.uleb128 0x8
 5855 00f8 04       		.byte	0x4
 5856 00f9 0A       		.byte	0xa
 5857 00fa A6       		.byte	0xa6
 5858 00fb 16010000 		.4byte	0x116
 5859 00ff 09       		.uleb128 0x9
 5860 0100 AF180000 		.4byte	.LASF21
 5861 0104 0A       		.byte	0xa
 5862 0105 A8       		.byte	0xa8
 5863 0106 EB000000 		.4byte	0xeb
 5864 010a 09       		.uleb128 0x9
 5865 010b FB0F0000 		.4byte	.LASF22
 5866 010f 0A       		.byte	0xa
 5867 0110 A9       		.byte	0xa9
 5868 0111 16010000 		.4byte	0x116
 5869 0115 00       		.byte	0
 5870 0116 0A       		.uleb128 0xa
 5871 0117 5E000000 		.4byte	0x5e
 5872 011b 26010000 		.4byte	0x126
 5873 011f 0B       		.uleb128 0xb
 5874 0120 25000000 		.4byte	0x25
 5875 0124 03       		.byte	0x3
 5876 0125 00       		.byte	0
 5877 0126 0C       		.uleb128 0xc
 5878 0127 08       		.byte	0x8
 5879 0128 0A       		.byte	0xa
 5880 0129 A3       		.byte	0xa3
 5881 012a 47010000 		.4byte	0x147
 5882 012e 0D       		.uleb128 0xd
 5883 012f 7F0E0000 		.4byte	.LASF23
 5884 0133 0A       		.byte	0xa
 5885 0134 A5       		.byte	0xa5
 5886 0135 2C000000 		.4byte	0x2c
 5887 0139 00       		.byte	0
 5888 013a 0D       		.uleb128 0xd
 5889 013b F71F0000 		.4byte	.LASF24
 5890 013f 0A       		.byte	0xa
 5891 0140 AA       		.byte	0xaa
 5892 0141 F7000000 		.4byte	0xf7
 5893 0145 04       		.byte	0x4
 5894 0146 00       		.byte	0
 5895 0147 04       		.uleb128 0x4
 5896 0148 5E1F0000 		.4byte	.LASF25
 5897 014c 0A       		.byte	0xa
 5898 014d AB       		.byte	0xab
 5899 014e 26010000 		.4byte	0x126
 5900 0152 04       		.uleb128 0x4
 5901 0153 EE230000 		.4byte	.LASF26
 5902 0157 0A       		.byte	0xa
 5903 0158 AF       		.byte	0xaf
 5904 0159 BF000000 		.4byte	0xbf
 5905 015d 0E       		.uleb128 0xe
 5906 015e 04       		.byte	0x4
 5907 015f 05       		.uleb128 0x5
 5908 0160 04       		.byte	0x4
 5909 0161 65010000 		.4byte	0x165
ARM GAS  C:\Users\mathi\AppData\Local\Temp\ccOm87JI.s 			page 105


 5910 0165 02       		.uleb128 0x2
 5911 0166 01       		.byte	0x1
 5912 0167 08       		.byte	0x8
 5913 0168 921B0000 		.4byte	.LASF27
 5914 016c 0F       		.uleb128 0xf
 5915 016d 65010000 		.4byte	0x165
 5916 0171 04       		.uleb128 0x4
 5917 0172 65140000 		.4byte	.LASF28
 5918 0176 0B       		.byte	0xb
 5919 0177 16       		.byte	0x16
 5920 0178 A6000000 		.4byte	0xa6
 5921 017c 10       		.uleb128 0x10
 5922 017d 501C0000 		.4byte	.LASF33
 5923 0181 18       		.byte	0x18
 5924 0182 0B       		.byte	0xb
 5925 0183 2F       		.byte	0x2f
 5926 0184 CF010000 		.4byte	0x1cf
 5927 0188 0D       		.uleb128 0xd
 5928 0189 E5110000 		.4byte	.LASF29
 5929 018d 0B       		.byte	0xb
 5930 018e 31       		.byte	0x31
 5931 018f CF010000 		.4byte	0x1cf
 5932 0193 00       		.byte	0
 5933 0194 11       		.uleb128 0x11
 5934 0195 5F6B00   		.ascii	"_k\000"
 5935 0198 0B       		.byte	0xb
 5936 0199 32       		.byte	0x32
 5937 019a 2C000000 		.4byte	0x2c
 5938 019e 04       		.byte	0x4
 5939 019f 0D       		.uleb128 0xd
 5940 01a0 641A0000 		.4byte	.LASF30
 5941 01a4 0B       		.byte	0xb
 5942 01a5 32       		.byte	0x32
 5943 01a6 2C000000 		.4byte	0x2c
 5944 01aa 08       		.byte	0x8
 5945 01ab 0D       		.uleb128 0xd
 5946 01ac 9E260000 		.4byte	.LASF31
 5947 01b0 0B       		.byte	0xb
 5948 01b1 32       		.byte	0x32
 5949 01b2 2C000000 		.4byte	0x2c
 5950 01b6 0C       		.byte	0xc
 5951 01b7 0D       		.uleb128 0xd
 5952 01b8 4F0B0000 		.4byte	.LASF32
 5953 01bc 0B       		.byte	0xb
 5954 01bd 32       		.byte	0x32
 5955 01be 2C000000 		.4byte	0x2c
 5956 01c2 10       		.byte	0x10
 5957 01c3 11       		.uleb128 0x11
 5958 01c4 5F7800   		.ascii	"_x\000"
 5959 01c7 0B       		.byte	0xb
 5960 01c8 33       		.byte	0x33
 5961 01c9 D5010000 		.4byte	0x1d5
 5962 01cd 14       		.byte	0x14
 5963 01ce 00       		.byte	0
 5964 01cf 05       		.uleb128 0x5
 5965 01d0 04       		.byte	0x4
 5966 01d1 7C010000 		.4byte	0x17c
ARM GAS  C:\Users\mathi\AppData\Local\Temp\ccOm87JI.s 			page 106


 5967 01d5 0A       		.uleb128 0xa
 5968 01d6 71010000 		.4byte	0x171
 5969 01da E5010000 		.4byte	0x1e5
 5970 01de 0B       		.uleb128 0xb
 5971 01df 25000000 		.4byte	0x25
 5972 01e3 00       		.byte	0
 5973 01e4 00       		.byte	0
 5974 01e5 10       		.uleb128 0x10
 5975 01e6 23080000 		.4byte	.LASF34
 5976 01ea 24       		.byte	0x24
 5977 01eb 0B       		.byte	0xb
 5978 01ec 37       		.byte	0x37
 5979 01ed 5E020000 		.4byte	0x25e
 5980 01f1 0D       		.uleb128 0xd
 5981 01f2 3A130000 		.4byte	.LASF35
 5982 01f6 0B       		.byte	0xb
 5983 01f7 39       		.byte	0x39
 5984 01f8 2C000000 		.4byte	0x2c
 5985 01fc 00       		.byte	0
 5986 01fd 0D       		.uleb128 0xd
 5987 01fe AD260000 		.4byte	.LASF36
 5988 0202 0B       		.byte	0xb
 5989 0203 3A       		.byte	0x3a
 5990 0204 2C000000 		.4byte	0x2c
 5991 0208 04       		.byte	0x4
 5992 0209 0D       		.uleb128 0xd
 5993 020a 2A100000 		.4byte	.LASF37
 5994 020e 0B       		.byte	0xb
 5995 020f 3B       		.byte	0x3b
 5996 0210 2C000000 		.4byte	0x2c
 5997 0214 08       		.byte	0x8
 5998 0215 0D       		.uleb128 0xd
 5999 0216 FB100000 		.4byte	.LASF38
 6000 021a 0B       		.byte	0xb
 6001 021b 3C       		.byte	0x3c
 6002 021c 2C000000 		.4byte	0x2c
 6003 0220 0C       		.byte	0xc
 6004 0221 0D       		.uleb128 0xd
 6005 0222 5F010000 		.4byte	.LASF39
 6006 0226 0B       		.byte	0xb
 6007 0227 3D       		.byte	0x3d
 6008 0228 2C000000 		.4byte	0x2c
 6009 022c 10       		.byte	0x10
 6010 022d 0D       		.uleb128 0xd
 6011 022e 7D0C0000 		.4byte	.LASF40
 6012 0232 0B       		.byte	0xb
 6013 0233 3E       		.byte	0x3e
 6014 0234 2C000000 		.4byte	0x2c
 6015 0238 14       		.byte	0x14
 6016 0239 0D       		.uleb128 0xd
 6017 023a 430A0000 		.4byte	.LASF41
 6018 023e 0B       		.byte	0xb
 6019 023f 3F       		.byte	0x3f
 6020 0240 2C000000 		.4byte	0x2c
 6021 0244 18       		.byte	0x18
 6022 0245 0D       		.uleb128 0xd
 6023 0246 85080000 		.4byte	.LASF42
ARM GAS  C:\Users\mathi\AppData\Local\Temp\ccOm87JI.s 			page 107


 6024 024a 0B       		.byte	0xb
 6025 024b 40       		.byte	0x40
 6026 024c 2C000000 		.4byte	0x2c
 6027 0250 1C       		.byte	0x1c
 6028 0251 0D       		.uleb128 0xd
 6029 0252 4D0A0000 		.4byte	.LASF43
 6030 0256 0B       		.byte	0xb
 6031 0257 41       		.byte	0x41
 6032 0258 2C000000 		.4byte	0x2c
 6033 025c 20       		.byte	0x20
 6034 025d 00       		.byte	0
 6035 025e 12       		.uleb128 0x12
 6036 025f 5B130000 		.4byte	.LASF44
 6037 0263 0801     		.2byte	0x108
 6038 0265 0B       		.byte	0xb
 6039 0266 4A       		.byte	0x4a
 6040 0267 9E020000 		.4byte	0x29e
 6041 026b 0D       		.uleb128 0xd
 6042 026c 33110000 		.4byte	.LASF45
 6043 0270 0B       		.byte	0xb
 6044 0271 4B       		.byte	0x4b
 6045 0272 9E020000 		.4byte	0x29e
 6046 0276 00       		.byte	0
 6047 0277 0D       		.uleb128 0xd
 6048 0278 0F0A0000 		.4byte	.LASF46
 6049 027c 0B       		.byte	0xb
 6050 027d 4C       		.byte	0x4c
 6051 027e 9E020000 		.4byte	0x29e
 6052 0282 80       		.byte	0x80
 6053 0283 13       		.uleb128 0x13
 6054 0284 68010000 		.4byte	.LASF47
 6055 0288 0B       		.byte	0xb
 6056 0289 4E       		.byte	0x4e
 6057 028a 71010000 		.4byte	0x171
 6058 028e 0001     		.2byte	0x100
 6059 0290 13       		.uleb128 0x13
 6060 0291 15200000 		.4byte	.LASF48
 6061 0295 0B       		.byte	0xb
 6062 0296 51       		.byte	0x51
 6063 0297 71010000 		.4byte	0x171
 6064 029b 0401     		.2byte	0x104
 6065 029d 00       		.byte	0
 6066 029e 0A       		.uleb128 0xa
 6067 029f 5D010000 		.4byte	0x15d
 6068 02a3 AE020000 		.4byte	0x2ae
 6069 02a7 0B       		.uleb128 0xb
 6070 02a8 25000000 		.4byte	0x25
 6071 02ac 1F       		.byte	0x1f
 6072 02ad 00       		.byte	0
 6073 02ae 12       		.uleb128 0x12
 6074 02af F7000000 		.4byte	.LASF49
 6075 02b3 9001     		.2byte	0x190
 6076 02b5 0B       		.byte	0xb
 6077 02b6 5D       		.byte	0x5d
 6078 02b7 EC020000 		.4byte	0x2ec
 6079 02bb 0D       		.uleb128 0xd
 6080 02bc E5110000 		.4byte	.LASF29
ARM GAS  C:\Users\mathi\AppData\Local\Temp\ccOm87JI.s 			page 108


 6081 02c0 0B       		.byte	0xb
 6082 02c1 5E       		.byte	0x5e
 6083 02c2 EC020000 		.4byte	0x2ec
 6084 02c6 00       		.byte	0
 6085 02c7 0D       		.uleb128 0xd
 6086 02c8 C8020000 		.4byte	.LASF50
 6087 02cc 0B       		.byte	0xb
 6088 02cd 5F       		.byte	0x5f
 6089 02ce 2C000000 		.4byte	0x2c
 6090 02d2 04       		.byte	0x4
 6091 02d3 0D       		.uleb128 0xd
 6092 02d4 211F0000 		.4byte	.LASF51
 6093 02d8 0B       		.byte	0xb
 6094 02d9 61       		.byte	0x61
 6095 02da F2020000 		.4byte	0x2f2
 6096 02de 08       		.byte	0x8
 6097 02df 0D       		.uleb128 0xd
 6098 02e0 5B130000 		.4byte	.LASF44
 6099 02e4 0B       		.byte	0xb
 6100 02e5 62       		.byte	0x62
 6101 02e6 5E020000 		.4byte	0x25e
 6102 02ea 88       		.byte	0x88
 6103 02eb 00       		.byte	0
 6104 02ec 05       		.uleb128 0x5
 6105 02ed 04       		.byte	0x4
 6106 02ee AE020000 		.4byte	0x2ae
 6107 02f2 0A       		.uleb128 0xa
 6108 02f3 02030000 		.4byte	0x302
 6109 02f7 02030000 		.4byte	0x302
 6110 02fb 0B       		.uleb128 0xb
 6111 02fc 25000000 		.4byte	0x25
 6112 0300 1F       		.byte	0x1f
 6113 0301 00       		.byte	0
 6114 0302 05       		.uleb128 0x5
 6115 0303 04       		.byte	0x4
 6116 0304 08030000 		.4byte	0x308
 6117 0308 14       		.uleb128 0x14
 6118 0309 10       		.uleb128 0x10
 6119 030a F1170000 		.4byte	.LASF52
 6120 030e 08       		.byte	0x8
 6121 030f 0B       		.byte	0xb
 6122 0310 75       		.byte	0x75
 6123 0311 2E030000 		.4byte	0x32e
 6124 0315 0D       		.uleb128 0xd
 6125 0316 5D070000 		.4byte	.LASF53
 6126 031a 0B       		.byte	0xb
 6127 031b 76       		.byte	0x76
 6128 031c 2E030000 		.4byte	0x32e
 6129 0320 00       		.byte	0
 6130 0321 0D       		.uleb128 0xd
 6131 0322 720B0000 		.4byte	.LASF54
 6132 0326 0B       		.byte	0xb
 6133 0327 77       		.byte	0x77
 6134 0328 2C000000 		.4byte	0x2c
 6135 032c 04       		.byte	0x4
 6136 032d 00       		.byte	0
 6137 032e 05       		.uleb128 0x5
ARM GAS  C:\Users\mathi\AppData\Local\Temp\ccOm87JI.s 			page 109


 6138 032f 04       		.byte	0x4
 6139 0330 5E000000 		.4byte	0x5e
 6140 0334 10       		.uleb128 0x10
 6141 0335 191F0000 		.4byte	.LASF55
 6142 0339 68       		.byte	0x68
 6143 033a 0B       		.byte	0xb
 6144 033b B5       		.byte	0xb5
 6145 033c 5E040000 		.4byte	0x45e
 6146 0340 11       		.uleb128 0x11
 6147 0341 5F7000   		.ascii	"_p\000"
 6148 0344 0B       		.byte	0xb
 6149 0345 B6       		.byte	0xb6
 6150 0346 2E030000 		.4byte	0x32e
 6151 034a 00       		.byte	0
 6152 034b 11       		.uleb128 0x11
 6153 034c 5F7200   		.ascii	"_r\000"
 6154 034f 0B       		.byte	0xb
 6155 0350 B7       		.byte	0xb7
 6156 0351 2C000000 		.4byte	0x2c
 6157 0355 04       		.byte	0x4
 6158 0356 11       		.uleb128 0x11
 6159 0357 5F7700   		.ascii	"_w\000"
 6160 035a 0B       		.byte	0xb
 6161 035b B8       		.byte	0xb8
 6162 035c 2C000000 		.4byte	0x2c
 6163 0360 08       		.byte	0x8
 6164 0361 0D       		.uleb128 0xd
 6165 0362 2A030000 		.4byte	.LASF56
 6166 0366 0B       		.byte	0xb
 6167 0367 B9       		.byte	0xb9
 6168 0368 70000000 		.4byte	0x70
 6169 036c 0C       		.byte	0xc
 6170 036d 0D       		.uleb128 0xd
 6171 036e EF1E0000 		.4byte	.LASF57
 6172 0372 0B       		.byte	0xb
 6173 0373 BA       		.byte	0xba
 6174 0374 70000000 		.4byte	0x70
 6175 0378 0E       		.byte	0xe
 6176 0379 11       		.uleb128 0x11
 6177 037a 5F626600 		.ascii	"_bf\000"
 6178 037e 0B       		.byte	0xb
 6179 037f BB       		.byte	0xbb
 6180 0380 09030000 		.4byte	0x309
 6181 0384 10       		.byte	0x10
 6182 0385 0D       		.uleb128 0xd
 6183 0386 C7050000 		.4byte	.LASF58
 6184 038a 0B       		.byte	0xb
 6185 038b BC       		.byte	0xbc
 6186 038c 2C000000 		.4byte	0x2c
 6187 0390 18       		.byte	0x18
 6188 0391 0D       		.uleb128 0xd
 6189 0392 2B120000 		.4byte	.LASF59
 6190 0396 0B       		.byte	0xb
 6191 0397 C3       		.byte	0xc3
 6192 0398 5D010000 		.4byte	0x15d
 6193 039c 1C       		.byte	0x1c
 6194 039d 0D       		.uleb128 0xd
ARM GAS  C:\Users\mathi\AppData\Local\Temp\ccOm87JI.s 			page 110


 6195 039e 86270000 		.4byte	.LASF60
 6196 03a2 0B       		.byte	0xb
 6197 03a3 C5       		.byte	0xc5
 6198 03a4 B9050000 		.4byte	0x5b9
 6199 03a8 20       		.byte	0x20
 6200 03a9 0D       		.uleb128 0xd
 6201 03aa C90B0000 		.4byte	.LASF61
 6202 03ae 0B       		.byte	0xb
 6203 03af C7       		.byte	0xc7
 6204 03b0 E8050000 		.4byte	0x5e8
 6205 03b4 24       		.byte	0x24
 6206 03b5 0D       		.uleb128 0xd
 6207 03b6 13160000 		.4byte	.LASF62
 6208 03ba 0B       		.byte	0xb
 6209 03bb CA       		.byte	0xca
 6210 03bc 0C060000 		.4byte	0x60c
 6211 03c0 28       		.byte	0x28
 6212 03c1 0D       		.uleb128 0xd
 6213 03c2 861B0000 		.4byte	.LASF63
 6214 03c6 0B       		.byte	0xb
 6215 03c7 CB       		.byte	0xcb
 6216 03c8 26060000 		.4byte	0x626
 6217 03cc 2C       		.byte	0x2c
 6218 03cd 11       		.uleb128 0x11
 6219 03ce 5F756200 		.ascii	"_ub\000"
 6220 03d2 0B       		.byte	0xb
 6221 03d3 CE       		.byte	0xce
 6222 03d4 09030000 		.4byte	0x309
 6223 03d8 30       		.byte	0x30
 6224 03d9 11       		.uleb128 0x11
 6225 03da 5F757000 		.ascii	"_up\000"
 6226 03de 0B       		.byte	0xb
 6227 03df CF       		.byte	0xcf
 6228 03e0 2E030000 		.4byte	0x32e
 6229 03e4 38       		.byte	0x38
 6230 03e5 11       		.uleb128 0x11
 6231 03e6 5F757200 		.ascii	"_ur\000"
 6232 03ea 0B       		.byte	0xb
 6233 03eb D0       		.byte	0xd0
 6234 03ec 2C000000 		.4byte	0x2c
 6235 03f0 3C       		.byte	0x3c
 6236 03f1 0D       		.uleb128 0xd
 6237 03f2 241E0000 		.4byte	.LASF64
 6238 03f6 0B       		.byte	0xb
 6239 03f7 D3       		.byte	0xd3
 6240 03f8 2C060000 		.4byte	0x62c
 6241 03fc 40       		.byte	0x40
 6242 03fd 0D       		.uleb128 0xd
 6243 03fe D0030000 		.4byte	.LASF65
 6244 0402 0B       		.byte	0xb
 6245 0403 D4       		.byte	0xd4
 6246 0404 3C060000 		.4byte	0x63c
 6247 0408 43       		.byte	0x43
 6248 0409 11       		.uleb128 0x11
 6249 040a 5F6C6200 		.ascii	"_lb\000"
 6250 040e 0B       		.byte	0xb
 6251 040f D7       		.byte	0xd7
ARM GAS  C:\Users\mathi\AppData\Local\Temp\ccOm87JI.s 			page 111


 6252 0410 09030000 		.4byte	0x309
 6253 0414 44       		.byte	0x44
 6254 0415 0D       		.uleb128 0xd
 6255 0416 121E0000 		.4byte	.LASF66
 6256 041a 0B       		.byte	0xb
 6257 041b DA       		.byte	0xda
 6258 041c 2C000000 		.4byte	0x2c
 6259 0420 4C       		.byte	0x4c
 6260 0421 0D       		.uleb128 0xd
 6261 0422 89170000 		.4byte	.LASF67
 6262 0426 0B       		.byte	0xb
 6263 0427 DB       		.byte	0xdb
 6264 0428 D5000000 		.4byte	0xd5
 6265 042c 50       		.byte	0x50
 6266 042d 0D       		.uleb128 0xd
 6267 042e 2C060000 		.4byte	.LASF68
 6268 0432 0B       		.byte	0xb
 6269 0433 DE       		.byte	0xde
 6270 0434 7C040000 		.4byte	0x47c
 6271 0438 54       		.byte	0x54
 6272 0439 0D       		.uleb128 0xd
 6273 043a CA030000 		.4byte	.LASF69
 6274 043e 0B       		.byte	0xb
 6275 043f E2       		.byte	0xe2
 6276 0440 52010000 		.4byte	0x152
 6277 0444 58       		.byte	0x58
 6278 0445 0D       		.uleb128 0xd
 6279 0446 EE000000 		.4byte	.LASF70
 6280 044a 0B       		.byte	0xb
 6281 044b E4       		.byte	0xe4
 6282 044c 47010000 		.4byte	0x147
 6283 0450 5C       		.byte	0x5c
 6284 0451 0D       		.uleb128 0xd
 6285 0452 CE240000 		.4byte	.LASF71
 6286 0456 0B       		.byte	0xb
 6287 0457 E5       		.byte	0xe5
 6288 0458 2C000000 		.4byte	0x2c
 6289 045c 64       		.byte	0x64
 6290 045d 00       		.byte	0
 6291 045e 15       		.uleb128 0x15
 6292 045f 2C000000 		.4byte	0x2c
 6293 0463 7C040000 		.4byte	0x47c
 6294 0467 16       		.uleb128 0x16
 6295 0468 7C040000 		.4byte	0x47c
 6296 046c 16       		.uleb128 0x16
 6297 046d 5D010000 		.4byte	0x15d
 6298 0471 16       		.uleb128 0x16
 6299 0472 5F010000 		.4byte	0x15f
 6300 0476 16       		.uleb128 0x16
 6301 0477 2C000000 		.4byte	0x2c
 6302 047b 00       		.byte	0
 6303 047c 05       		.uleb128 0x5
 6304 047d 04       		.byte	0x4
 6305 047e 87040000 		.4byte	0x487
 6306 0482 0F       		.uleb128 0xf
 6307 0483 7C040000 		.4byte	0x47c
 6308 0487 17       		.uleb128 0x17
ARM GAS  C:\Users\mathi\AppData\Local\Temp\ccOm87JI.s 			page 112


 6309 0488 E3060000 		.4byte	.LASF72
 6310 048c 2804     		.2byte	0x428
 6311 048e 0B       		.byte	0xb
 6312 048f 3902     		.2byte	0x239
 6313 0491 B9050000 		.4byte	0x5b9
 6314 0495 18       		.uleb128 0x18
 6315 0496 E0100000 		.4byte	.LASF73
 6316 049a 0B       		.byte	0xb
 6317 049b 3B02     		.2byte	0x23b
 6318 049d 2C000000 		.4byte	0x2c
 6319 04a1 00       		.byte	0
 6320 04a2 18       		.uleb128 0x18
 6321 04a3 8F0D0000 		.4byte	.LASF74
 6322 04a7 0B       		.byte	0xb
 6323 04a8 4002     		.2byte	0x240
 6324 04aa 93060000 		.4byte	0x693
 6325 04ae 04       		.byte	0x4
 6326 04af 18       		.uleb128 0x18
 6327 04b0 CE0A0000 		.4byte	.LASF75
 6328 04b4 0B       		.byte	0xb
 6329 04b5 4002     		.2byte	0x240
 6330 04b7 93060000 		.4byte	0x693
 6331 04bb 08       		.byte	0x8
 6332 04bc 18       		.uleb128 0x18
 6333 04bd EF090000 		.4byte	.LASF76
 6334 04c1 0B       		.byte	0xb
 6335 04c2 4002     		.2byte	0x240
 6336 04c4 93060000 		.4byte	0x693
 6337 04c8 0C       		.byte	0xc
 6338 04c9 18       		.uleb128 0x18
 6339 04ca C3020000 		.4byte	.LASF77
 6340 04ce 0B       		.byte	0xb
 6341 04cf 4202     		.2byte	0x242
 6342 04d1 2C000000 		.4byte	0x2c
 6343 04d5 10       		.byte	0x10
 6344 04d6 18       		.uleb128 0x18
 6345 04d7 F1190000 		.4byte	.LASF78
 6346 04db 0B       		.byte	0xb
 6347 04dc 4302     		.2byte	0x243
 6348 04de 75080000 		.4byte	0x875
 6349 04e2 14       		.byte	0x14
 6350 04e3 18       		.uleb128 0x18
 6351 04e4 07230000 		.4byte	.LASF79
 6352 04e8 0B       		.byte	0xb
 6353 04e9 4602     		.2byte	0x246
 6354 04eb 2C000000 		.4byte	0x2c
 6355 04ef 30       		.byte	0x30
 6356 04f0 18       		.uleb128 0x18
 6357 04f1 4A250000 		.4byte	.LASF80
 6358 04f5 0B       		.byte	0xb
 6359 04f6 4702     		.2byte	0x247
 6360 04f8 8A080000 		.4byte	0x88a
 6361 04fc 34       		.byte	0x34
 6362 04fd 18       		.uleb128 0x18
 6363 04fe 66230000 		.4byte	.LASF81
 6364 0502 0B       		.byte	0xb
 6365 0503 4902     		.2byte	0x249
ARM GAS  C:\Users\mathi\AppData\Local\Temp\ccOm87JI.s 			page 113


 6366 0505 2C000000 		.4byte	0x2c
 6367 0509 38       		.byte	0x38
 6368 050a 18       		.uleb128 0x18
 6369 050b 6E1E0000 		.4byte	.LASF82
 6370 050f 0B       		.byte	0xb
 6371 0510 4B02     		.2byte	0x24b
 6372 0512 9B080000 		.4byte	0x89b
 6373 0516 3C       		.byte	0x3c
 6374 0517 18       		.uleb128 0x18
 6375 0518 F7090000 		.4byte	.LASF83
 6376 051c 0B       		.byte	0xb
 6377 051d 4E02     		.2byte	0x24e
 6378 051f CF010000 		.4byte	0x1cf
 6379 0523 40       		.byte	0x40
 6380 0524 18       		.uleb128 0x18
 6381 0525 E0090000 		.4byte	.LASF84
 6382 0529 0B       		.byte	0xb
 6383 052a 4F02     		.2byte	0x24f
 6384 052c 2C000000 		.4byte	0x2c
 6385 0530 44       		.byte	0x44
 6386 0531 18       		.uleb128 0x18
 6387 0532 4F200000 		.4byte	.LASF85
 6388 0536 0B       		.byte	0xb
 6389 0537 5002     		.2byte	0x250
 6390 0539 CF010000 		.4byte	0x1cf
 6391 053d 48       		.byte	0x48
 6392 053e 18       		.uleb128 0x18
 6393 053f 27170000 		.4byte	.LASF86
 6394 0543 0B       		.byte	0xb
 6395 0544 5102     		.2byte	0x251
 6396 0546 A1080000 		.4byte	0x8a1
 6397 054a 4C       		.byte	0x4c
 6398 054b 18       		.uleb128 0x18
 6399 054c 5F030000 		.4byte	.LASF87
 6400 0550 0B       		.byte	0xb
 6401 0551 5402     		.2byte	0x254
 6402 0553 2C000000 		.4byte	0x2c
 6403 0557 50       		.byte	0x50
 6404 0558 18       		.uleb128 0x18
 6405 0559 450F0000 		.4byte	.LASF88
 6406 055d 0B       		.byte	0xb
 6407 055e 5502     		.2byte	0x255
 6408 0560 5F010000 		.4byte	0x15f
 6409 0564 54       		.byte	0x54
 6410 0565 18       		.uleb128 0x18
 6411 0566 6A100000 		.4byte	.LASF89
 6412 056a 0B       		.byte	0xb
 6413 056b 7802     		.2byte	0x278
 6414 056d 53080000 		.4byte	0x853
 6415 0571 58       		.byte	0x58
 6416 0572 19       		.uleb128 0x19
 6417 0573 F7000000 		.4byte	.LASF49
 6418 0577 0B       		.byte	0xb
 6419 0578 7C02     		.2byte	0x27c
 6420 057a EC020000 		.4byte	0x2ec
 6421 057e 4801     		.2byte	0x148
 6422 0580 19       		.uleb128 0x19
ARM GAS  C:\Users\mathi\AppData\Local\Temp\ccOm87JI.s 			page 114


 6423 0581 D91C0000 		.4byte	.LASF90
 6424 0585 0B       		.byte	0xb
 6425 0586 7D02     		.2byte	0x27d
 6426 0588 AE020000 		.4byte	0x2ae
 6427 058c 4C01     		.2byte	0x14c
 6428 058e 19       		.uleb128 0x19
 6429 058f 94030000 		.4byte	.LASF91
 6430 0593 0B       		.byte	0xb
 6431 0594 8102     		.2byte	0x281
 6432 0596 B2080000 		.4byte	0x8b2
 6433 059a DC02     		.2byte	0x2dc
 6434 059c 19       		.uleb128 0x19
 6435 059d 4C1E0000 		.4byte	.LASF92
 6436 05a1 0B       		.byte	0xb
 6437 05a2 8602     		.2byte	0x286
 6438 05a4 58060000 		.4byte	0x658
 6439 05a8 E002     		.2byte	0x2e0
 6440 05aa 19       		.uleb128 0x19
 6441 05ab 4F070000 		.4byte	.LASF93
 6442 05af 0B       		.byte	0xb
 6443 05b0 8802     		.2byte	0x288
 6444 05b2 BE080000 		.4byte	0x8be
 6445 05b6 EC02     		.2byte	0x2ec
 6446 05b8 00       		.byte	0
 6447 05b9 05       		.uleb128 0x5
 6448 05ba 04       		.byte	0x4
 6449 05bb 5E040000 		.4byte	0x45e
 6450 05bf 15       		.uleb128 0x15
 6451 05c0 2C000000 		.4byte	0x2c
 6452 05c4 DD050000 		.4byte	0x5dd
 6453 05c8 16       		.uleb128 0x16
 6454 05c9 7C040000 		.4byte	0x47c
 6455 05cd 16       		.uleb128 0x16
 6456 05ce 5D010000 		.4byte	0x15d
 6457 05d2 16       		.uleb128 0x16
 6458 05d3 DD050000 		.4byte	0x5dd
 6459 05d7 16       		.uleb128 0x16
 6460 05d8 2C000000 		.4byte	0x2c
 6461 05dc 00       		.byte	0
 6462 05dd 05       		.uleb128 0x5
 6463 05de 04       		.byte	0x4
 6464 05df 6C010000 		.4byte	0x16c
 6465 05e3 1A       		.uleb128 0x1a
 6466 05e4 DD050000 		.4byte	0x5dd
 6467 05e8 05       		.uleb128 0x5
 6468 05e9 04       		.byte	0x4
 6469 05ea BF050000 		.4byte	0x5bf
 6470 05ee 15       		.uleb128 0x15
 6471 05ef E0000000 		.4byte	0xe0
 6472 05f3 0C060000 		.4byte	0x60c
 6473 05f7 16       		.uleb128 0x16
 6474 05f8 7C040000 		.4byte	0x47c
 6475 05fc 16       		.uleb128 0x16
 6476 05fd 5D010000 		.4byte	0x15d
 6477 0601 16       		.uleb128 0x16
 6478 0602 E0000000 		.4byte	0xe0
 6479 0606 16       		.uleb128 0x16
ARM GAS  C:\Users\mathi\AppData\Local\Temp\ccOm87JI.s 			page 115


 6480 0607 2C000000 		.4byte	0x2c
 6481 060b 00       		.byte	0
 6482 060c 05       		.uleb128 0x5
 6483 060d 04       		.byte	0x4
 6484 060e EE050000 		.4byte	0x5ee
 6485 0612 15       		.uleb128 0x15
 6486 0613 2C000000 		.4byte	0x2c
 6487 0617 26060000 		.4byte	0x626
 6488 061b 16       		.uleb128 0x16
 6489 061c 7C040000 		.4byte	0x47c
 6490 0620 16       		.uleb128 0x16
 6491 0621 5D010000 		.4byte	0x15d
 6492 0625 00       		.byte	0
 6493 0626 05       		.uleb128 0x5
 6494 0627 04       		.byte	0x4
 6495 0628 12060000 		.4byte	0x612
 6496 062c 0A       		.uleb128 0xa
 6497 062d 5E000000 		.4byte	0x5e
 6498 0631 3C060000 		.4byte	0x63c
 6499 0635 0B       		.uleb128 0xb
 6500 0636 25000000 		.4byte	0x25
 6501 063a 02       		.byte	0x2
 6502 063b 00       		.byte	0
 6503 063c 0A       		.uleb128 0xa
 6504 063d 5E000000 		.4byte	0x5e
 6505 0641 4C060000 		.4byte	0x64c
 6506 0645 0B       		.uleb128 0xb
 6507 0646 25000000 		.4byte	0x25
 6508 064a 00       		.byte	0
 6509 064b 00       		.byte	0
 6510 064c 07       		.uleb128 0x7
 6511 064d 5B260000 		.4byte	.LASF94
 6512 0651 0B       		.byte	0xb
 6513 0652 1F01     		.2byte	0x11f
 6514 0654 34030000 		.4byte	0x334
 6515 0658 1B       		.uleb128 0x1b
 6516 0659 B01B0000 		.4byte	.LASF95
 6517 065d 0C       		.byte	0xc
 6518 065e 0B       		.byte	0xb
 6519 065f 2301     		.2byte	0x123
 6520 0661 8D060000 		.4byte	0x68d
 6521 0665 18       		.uleb128 0x18
 6522 0666 E5110000 		.4byte	.LASF29
 6523 066a 0B       		.byte	0xb
 6524 066b 2501     		.2byte	0x125
 6525 066d 8D060000 		.4byte	0x68d
 6526 0671 00       		.byte	0
 6527 0672 18       		.uleb128 0x18
 6528 0673 99100000 		.4byte	.LASF96
 6529 0677 0B       		.byte	0xb
 6530 0678 2601     		.2byte	0x126
 6531 067a 2C000000 		.4byte	0x2c
 6532 067e 04       		.byte	0x4
 6533 067f 18       		.uleb128 0x18
 6534 0680 EB190000 		.4byte	.LASF97
 6535 0684 0B       		.byte	0xb
 6536 0685 2701     		.2byte	0x127
ARM GAS  C:\Users\mathi\AppData\Local\Temp\ccOm87JI.s 			page 116


 6537 0687 93060000 		.4byte	0x693
 6538 068b 08       		.byte	0x8
 6539 068c 00       		.byte	0
 6540 068d 05       		.uleb128 0x5
 6541 068e 04       		.byte	0x4
 6542 068f 58060000 		.4byte	0x658
 6543 0693 05       		.uleb128 0x5
 6544 0694 04       		.byte	0x4
 6545 0695 4C060000 		.4byte	0x64c
 6546 0699 1B       		.uleb128 0x1b
 6547 069a B1270000 		.4byte	.LASF98
 6548 069e 0E       		.byte	0xe
 6549 069f 0B       		.byte	0xb
 6550 06a0 3F01     		.2byte	0x13f
 6551 06a2 CE060000 		.4byte	0x6ce
 6552 06a6 18       		.uleb128 0x18
 6553 06a7 FE150000 		.4byte	.LASF99
 6554 06ab 0B       		.byte	0xb
 6555 06ac 4001     		.2byte	0x140
 6556 06ae CE060000 		.4byte	0x6ce
 6557 06b2 00       		.byte	0
 6558 06b3 18       		.uleb128 0x18
 6559 06b4 DD0C0000 		.4byte	.LASF100
 6560 06b8 0B       		.byte	0xb
 6561 06b9 4101     		.2byte	0x141
 6562 06bb CE060000 		.4byte	0x6ce
 6563 06bf 06       		.byte	0x6
 6564 06c0 18       		.uleb128 0x18
 6565 06c1 D8040000 		.4byte	.LASF101
 6566 06c5 0B       		.byte	0xb
 6567 06c6 4201     		.2byte	0x142
 6568 06c8 82000000 		.4byte	0x82
 6569 06cc 0C       		.byte	0xc
 6570 06cd 00       		.byte	0
 6571 06ce 0A       		.uleb128 0xa
 6572 06cf 82000000 		.4byte	0x82
 6573 06d3 DE060000 		.4byte	0x6de
 6574 06d7 0B       		.uleb128 0xb
 6575 06d8 25000000 		.4byte	0x25
 6576 06dc 02       		.byte	0x2
 6577 06dd 00       		.byte	0
 6578 06de 1C       		.uleb128 0x1c
 6579 06df D0       		.byte	0xd0
 6580 06e0 0B       		.byte	0xb
 6581 06e1 5902     		.2byte	0x259
 6582 06e3 DF070000 		.4byte	0x7df
 6583 06e7 18       		.uleb128 0x18
 6584 06e8 36090000 		.4byte	.LASF102
 6585 06ec 0B       		.byte	0xb
 6586 06ed 5B02     		.2byte	0x25b
 6587 06ef 25000000 		.4byte	0x25
 6588 06f3 00       		.byte	0
 6589 06f4 18       		.uleb128 0x18
 6590 06f5 41150000 		.4byte	.LASF103
 6591 06f9 0B       		.byte	0xb
 6592 06fa 5C02     		.2byte	0x25c
 6593 06fc 5F010000 		.4byte	0x15f
ARM GAS  C:\Users\mathi\AppData\Local\Temp\ccOm87JI.s 			page 117


 6594 0700 04       		.byte	0x4
 6595 0701 18       		.uleb128 0x18
 6596 0702 6B180000 		.4byte	.LASF104
 6597 0706 0B       		.byte	0xb
 6598 0707 5D02     		.2byte	0x25d
 6599 0709 DF070000 		.4byte	0x7df
 6600 070d 08       		.byte	0x8
 6601 070e 18       		.uleb128 0x18
 6602 070f 670E0000 		.4byte	.LASF105
 6603 0713 0B       		.byte	0xb
 6604 0714 5E02     		.2byte	0x25e
 6605 0716 E5010000 		.4byte	0x1e5
 6606 071a 24       		.byte	0x24
 6607 071b 18       		.uleb128 0x18
 6608 071c 33220000 		.4byte	.LASF106
 6609 0720 0B       		.byte	0xb
 6610 0721 5F02     		.2byte	0x25f
 6611 0723 2C000000 		.4byte	0x2c
 6612 0727 48       		.byte	0x48
 6613 0728 18       		.uleb128 0x18
 6614 0729 1C1A0000 		.4byte	.LASF107
 6615 072d 0B       		.byte	0xb
 6616 072e 6002     		.2byte	0x260
 6617 0730 B8000000 		.4byte	0xb8
 6618 0734 50       		.byte	0x50
 6619 0735 18       		.uleb128 0x18
 6620 0736 12270000 		.4byte	.LASF108
 6621 073a 0B       		.byte	0xb
 6622 073b 6102     		.2byte	0x261
 6623 073d 99060000 		.4byte	0x699
 6624 0741 58       		.byte	0x58
 6625 0742 18       		.uleb128 0x18
 6626 0743 3F1E0000 		.4byte	.LASF109
 6627 0747 0B       		.byte	0xb
 6628 0748 6202     		.2byte	0x262
 6629 074a 47010000 		.4byte	0x147
 6630 074e 68       		.byte	0x68
 6631 074f 18       		.uleb128 0x18
 6632 0750 8C070000 		.4byte	.LASF110
 6633 0754 0B       		.byte	0xb
 6634 0755 6302     		.2byte	0x263
 6635 0757 47010000 		.4byte	0x147
 6636 075b 70       		.byte	0x70
 6637 075c 18       		.uleb128 0x18
 6638 075d 79190000 		.4byte	.LASF111
 6639 0761 0B       		.byte	0xb
 6640 0762 6402     		.2byte	0x264
 6641 0764 47010000 		.4byte	0x147
 6642 0768 78       		.byte	0x78
 6643 0769 18       		.uleb128 0x18
 6644 076a 19180000 		.4byte	.LASF112
 6645 076e 0B       		.byte	0xb
 6646 076f 6502     		.2byte	0x265
 6647 0771 EF070000 		.4byte	0x7ef
 6648 0775 80       		.byte	0x80
 6649 0776 18       		.uleb128 0x18
 6650 0777 14120000 		.4byte	.LASF113
ARM GAS  C:\Users\mathi\AppData\Local\Temp\ccOm87JI.s 			page 118


 6651 077b 0B       		.byte	0xb
 6652 077c 6602     		.2byte	0x266
 6653 077e FF070000 		.4byte	0x7ff
 6654 0782 88       		.byte	0x88
 6655 0783 18       		.uleb128 0x18
 6656 0784 281D0000 		.4byte	.LASF114
 6657 0788 0B       		.byte	0xb
 6658 0789 6702     		.2byte	0x267
 6659 078b 2C000000 		.4byte	0x2c
 6660 078f A0       		.byte	0xa0
 6661 0790 18       		.uleb128 0x18
 6662 0791 230D0000 		.4byte	.LASF115
 6663 0795 0B       		.byte	0xb
 6664 0796 6802     		.2byte	0x268
 6665 0798 47010000 		.4byte	0x147
 6666 079c A4       		.byte	0xa4
 6667 079d 18       		.uleb128 0x18
 6668 079e 02100000 		.4byte	.LASF116
 6669 07a2 0B       		.byte	0xb
 6670 07a3 6902     		.2byte	0x269
 6671 07a5 47010000 		.4byte	0x147
 6672 07a9 AC       		.byte	0xac
 6673 07aa 18       		.uleb128 0x18
 6674 07ab 1C0B0000 		.4byte	.LASF117
 6675 07af 0B       		.byte	0xb
 6676 07b0 6A02     		.2byte	0x26a
 6677 07b2 47010000 		.4byte	0x147
 6678 07b6 B4       		.byte	0xb4
 6679 07b7 18       		.uleb128 0x18
 6680 07b8 D4130000 		.4byte	.LASF118
 6681 07bc 0B       		.byte	0xb
 6682 07bd 6B02     		.2byte	0x26b
 6683 07bf 47010000 		.4byte	0x147
 6684 07c3 BC       		.byte	0xbc
 6685 07c4 18       		.uleb128 0x18
 6686 07c5 C2180000 		.4byte	.LASF119
 6687 07c9 0B       		.byte	0xb
 6688 07ca 6C02     		.2byte	0x26c
 6689 07cc 47010000 		.4byte	0x147
 6690 07d0 C4       		.byte	0xc4
 6691 07d1 18       		.uleb128 0x18
 6692 07d2 691F0000 		.4byte	.LASF120
 6693 07d6 0B       		.byte	0xb
 6694 07d7 6D02     		.2byte	0x26d
 6695 07d9 2C000000 		.4byte	0x2c
 6696 07dd CC       		.byte	0xcc
 6697 07de 00       		.byte	0
 6698 07df 0A       		.uleb128 0xa
 6699 07e0 65010000 		.4byte	0x165
 6700 07e4 EF070000 		.4byte	0x7ef
 6701 07e8 0B       		.uleb128 0xb
 6702 07e9 25000000 		.4byte	0x25
 6703 07ed 19       		.byte	0x19
 6704 07ee 00       		.byte	0
 6705 07ef 0A       		.uleb128 0xa
 6706 07f0 65010000 		.4byte	0x165
 6707 07f4 FF070000 		.4byte	0x7ff
ARM GAS  C:\Users\mathi\AppData\Local\Temp\ccOm87JI.s 			page 119


 6708 07f8 0B       		.uleb128 0xb
 6709 07f9 25000000 		.4byte	0x25
 6710 07fd 07       		.byte	0x7
 6711 07fe 00       		.byte	0
 6712 07ff 0A       		.uleb128 0xa
 6713 0800 65010000 		.4byte	0x165
 6714 0804 0F080000 		.4byte	0x80f
 6715 0808 0B       		.uleb128 0xb
 6716 0809 25000000 		.4byte	0x25
 6717 080d 17       		.byte	0x17
 6718 080e 00       		.byte	0
 6719 080f 1C       		.uleb128 0x1c
 6720 0810 F0       		.byte	0xf0
 6721 0811 0B       		.byte	0xb
 6722 0812 7202     		.2byte	0x272
 6723 0814 33080000 		.4byte	0x833
 6724 0818 18       		.uleb128 0x18
 6725 0819 0F1A0000 		.4byte	.LASF121
 6726 081d 0B       		.byte	0xb
 6727 081e 7502     		.2byte	0x275
 6728 0820 33080000 		.4byte	0x833
 6729 0824 00       		.byte	0
 6730 0825 18       		.uleb128 0x18
 6731 0826 960D0000 		.4byte	.LASF122
 6732 082a 0B       		.byte	0xb
 6733 082b 7602     		.2byte	0x276
 6734 082d 43080000 		.4byte	0x843
 6735 0831 78       		.byte	0x78
 6736 0832 00       		.byte	0
 6737 0833 0A       		.uleb128 0xa
 6738 0834 2E030000 		.4byte	0x32e
 6739 0838 43080000 		.4byte	0x843
 6740 083c 0B       		.uleb128 0xb
 6741 083d 25000000 		.4byte	0x25
 6742 0841 1D       		.byte	0x1d
 6743 0842 00       		.byte	0
 6744 0843 0A       		.uleb128 0xa
 6745 0844 25000000 		.4byte	0x25
 6746 0848 53080000 		.4byte	0x853
 6747 084c 0B       		.uleb128 0xb
 6748 084d 25000000 		.4byte	0x25
 6749 0851 1D       		.byte	0x1d
 6750 0852 00       		.byte	0
 6751 0853 1D       		.uleb128 0x1d
 6752 0854 F0       		.byte	0xf0
 6753 0855 0B       		.byte	0xb
 6754 0856 5702     		.2byte	0x257
 6755 0858 75080000 		.4byte	0x875
 6756 085c 1E       		.uleb128 0x1e
 6757 085d E3060000 		.4byte	.LASF72
 6758 0861 0B       		.byte	0xb
 6759 0862 6E02     		.2byte	0x26e
 6760 0864 DE060000 		.4byte	0x6de
 6761 0868 1E       		.uleb128 0x1e
 6762 0869 E6030000 		.4byte	.LASF123
 6763 086d 0B       		.byte	0xb
 6764 086e 7702     		.2byte	0x277
ARM GAS  C:\Users\mathi\AppData\Local\Temp\ccOm87JI.s 			page 120


 6765 0870 0F080000 		.4byte	0x80f
 6766 0874 00       		.byte	0
 6767 0875 0A       		.uleb128 0xa
 6768 0876 65010000 		.4byte	0x165
 6769 087a 85080000 		.4byte	0x885
 6770 087e 0B       		.uleb128 0xb
 6771 087f 25000000 		.4byte	0x25
 6772 0883 18       		.byte	0x18
 6773 0884 00       		.byte	0
 6774 0885 06       		.uleb128 0x6
 6775 0886 541E0000 		.4byte	.LASF125
 6776 088a 05       		.uleb128 0x5
 6777 088b 04       		.byte	0x4
 6778 088c 85080000 		.4byte	0x885
 6779 0890 1F       		.uleb128 0x1f
 6780 0891 9B080000 		.4byte	0x89b
 6781 0895 16       		.uleb128 0x16
 6782 0896 7C040000 		.4byte	0x47c
 6783 089a 00       		.byte	0
 6784 089b 05       		.uleb128 0x5
 6785 089c 04       		.byte	0x4
 6786 089d 90080000 		.4byte	0x890
 6787 08a1 05       		.uleb128 0x5
 6788 08a2 04       		.byte	0x4
 6789 08a3 CF010000 		.4byte	0x1cf
 6790 08a7 1F       		.uleb128 0x1f
 6791 08a8 B2080000 		.4byte	0x8b2
 6792 08ac 16       		.uleb128 0x16
 6793 08ad 2C000000 		.4byte	0x2c
 6794 08b1 00       		.byte	0
 6795 08b2 05       		.uleb128 0x5
 6796 08b3 04       		.byte	0x4
 6797 08b4 B8080000 		.4byte	0x8b8
 6798 08b8 05       		.uleb128 0x5
 6799 08b9 04       		.byte	0x4
 6800 08ba A7080000 		.4byte	0x8a7
 6801 08be 0A       		.uleb128 0xa
 6802 08bf 4C060000 		.4byte	0x64c
 6803 08c3 CE080000 		.4byte	0x8ce
 6804 08c7 0B       		.uleb128 0xb
 6805 08c8 25000000 		.4byte	0x25
 6806 08cc 02       		.byte	0x2
 6807 08cd 00       		.byte	0
 6808 08ce 20       		.uleb128 0x20
 6809 08cf EA1D0000 		.4byte	.LASF126
 6810 08d3 0B       		.byte	0xb
 6811 08d4 0703     		.2byte	0x307
 6812 08d6 7C040000 		.4byte	0x47c
 6813 08da 20       		.uleb128 0x20
 6814 08db E4220000 		.4byte	.LASF127
 6815 08df 0B       		.byte	0xb
 6816 08e0 0803     		.2byte	0x308
 6817 08e2 82040000 		.4byte	0x482
 6818 08e6 04       		.uleb128 0x4
 6819 08e7 870E0000 		.4byte	.LASF128
 6820 08eb 0C       		.byte	0xc
 6821 08ec 18       		.byte	0x18
ARM GAS  C:\Users\mathi\AppData\Local\Temp\ccOm87JI.s 			page 121


 6822 08ed 53000000 		.4byte	0x53
 6823 08f1 0F       		.uleb128 0xf
 6824 08f2 E6080000 		.4byte	0x8e6
 6825 08f6 04       		.uleb128 0x4
 6826 08f7 2B160000 		.4byte	.LASF129
 6827 08fb 0C       		.byte	0xc
 6828 08fc 20       		.byte	0x20
 6829 08fd 65000000 		.4byte	0x65
 6830 0901 04       		.uleb128 0x4
 6831 0902 09030000 		.4byte	.LASF130
 6832 0906 0C       		.byte	0xc
 6833 0907 24       		.byte	0x24
 6834 0908 77000000 		.4byte	0x77
 6835 090c 04       		.uleb128 0x4
 6836 090d AA040000 		.4byte	.LASF131
 6837 0911 0C       		.byte	0xc
 6838 0912 2C       		.byte	0x2c
 6839 0913 89000000 		.4byte	0x89
 6840 0917 1A       		.uleb128 0x1a
 6841 0918 0C090000 		.4byte	0x90c
 6842 091c 04       		.uleb128 0x4
 6843 091d 501A0000 		.4byte	.LASF132
 6844 0921 0C       		.byte	0xc
 6845 0922 30       		.byte	0x30
 6846 0923 9B000000 		.4byte	0x9b
 6847 0927 1A       		.uleb128 0x1a
 6848 0928 1C090000 		.4byte	0x91c
 6849 092c 0F       		.uleb128 0xf
 6850 092d 27090000 		.4byte	0x927
 6851 0931 04       		.uleb128 0x4
 6852 0932 300C0000 		.4byte	.LASF133
 6853 0936 0C       		.byte	0xc
 6854 0937 3C       		.byte	0x3c
 6855 0938 AD000000 		.4byte	0xad
 6856 093c 04       		.uleb128 0x4
 6857 093d ED0D0000 		.4byte	.LASF134
 6858 0941 0D       		.byte	0xd
 6859 0942 45       		.byte	0x45
 6860 0943 1C090000 		.4byte	0x91c
 6861 0947 04       		.uleb128 0x4
 6862 0948 F7060000 		.4byte	.LASF135
 6863 094c 0D       		.byte	0xd
 6864 094d 46       		.byte	0x46
 6865 094e 31090000 		.4byte	0x931
 6866 0952 04       		.uleb128 0x4
 6867 0953 71130000 		.4byte	.LASF136
 6868 0957 0D       		.byte	0xd
 6869 0958 48       		.byte	0x48
 6870 0959 E6080000 		.4byte	0x8e6
 6871 095d 04       		.uleb128 0x4
 6872 095e DB220000 		.4byte	.LASF137
 6873 0962 0D       		.byte	0xd
 6874 0963 49       		.byte	0x49
 6875 0964 E6080000 		.4byte	0x8e6
 6876 0968 04       		.uleb128 0x4
 6877 0969 FA120000 		.4byte	.LASF138
 6878 096d 0D       		.byte	0xd
ARM GAS  C:\Users\mathi\AppData\Local\Temp\ccOm87JI.s 			page 122


 6879 096e 4A       		.byte	0x4a
 6880 096f E6080000 		.4byte	0x8e6
 6881 0973 04       		.uleb128 0x4
 6882 0974 37150000 		.4byte	.LASF139
 6883 0978 0D       		.byte	0xd
 6884 0979 4B       		.byte	0x4b
 6885 097a E6080000 		.4byte	0x8e6
 6886 097e 04       		.uleb128 0x4
 6887 097f F4070000 		.4byte	.LASF140
 6888 0983 0D       		.byte	0xd
 6889 0984 4C       		.byte	0x4c
 6890 0985 1C090000 		.4byte	0x91c
 6891 0989 04       		.uleb128 0x4
 6892 098a 4E000000 		.4byte	.LASF141
 6893 098e 0D       		.byte	0xd
 6894 098f 4D       		.byte	0x4d
 6895 0990 0C090000 		.4byte	0x90c
 6896 0994 04       		.uleb128 0x4
 6897 0995 9C1A0000 		.4byte	.LASF142
 6898 0999 0D       		.byte	0xd
 6899 099a 4F       		.byte	0x4f
 6900 099b 1C090000 		.4byte	0x91c
 6901 099f 04       		.uleb128 0x4
 6902 09a0 52250000 		.4byte	.LASF143
 6903 09a4 0D       		.byte	0xd
 6904 09a5 50       		.byte	0x50
 6905 09a6 1C090000 		.4byte	0x91c
 6906 09aa 04       		.uleb128 0x4
 6907 09ab 811D0000 		.4byte	.LASF144
 6908 09af 0D       		.byte	0xd
 6909 09b0 51       		.byte	0x51
 6910 09b1 0C090000 		.4byte	0x90c
 6911 09b5 04       		.uleb128 0x4
 6912 09b6 B5160000 		.4byte	.LASF145
 6913 09ba 0D       		.byte	0xd
 6914 09bb 52       		.byte	0x52
 6915 09bc 1C090000 		.4byte	0x91c
 6916 09c0 04       		.uleb128 0x4
 6917 09c1 BE040000 		.4byte	.LASF146
 6918 09c5 0E       		.byte	0xe
 6919 09c6 33       		.byte	0x33
 6920 09c7 1C090000 		.4byte	0x91c
 6921 09cb 1A       		.uleb128 0x1a
 6922 09cc C0090000 		.4byte	0x9c0
 6923 09d0 04       		.uleb128 0x4
 6924 09d1 5A040000 		.4byte	.LASF147
 6925 09d5 0E       		.byte	0xe
 6926 09d6 3F       		.byte	0x3f
 6927 09d7 DB090000 		.4byte	0x9db
 6928 09db 10       		.uleb128 0x10
 6929 09dc 000B0000 		.4byte	.LASF148
 6930 09e0 68       		.byte	0x68
 6931 09e1 0F       		.byte	0xf
 6932 09e2 C2       		.byte	0xc2
 6933 09e3 F90A0000 		.4byte	0xaf9
 6934 09e7 0D       		.uleb128 0xd
 6935 09e8 99120000 		.4byte	.LASF149
ARM GAS  C:\Users\mathi\AppData\Local\Temp\ccOm87JI.s 			page 123


 6936 09ec 0F       		.byte	0xf
 6937 09ed C3       		.byte	0xc3
 6938 09ee 040B0000 		.4byte	0xb04
 6939 09f2 00       		.byte	0
 6940 09f3 0D       		.uleb128 0xd
 6941 09f4 B20E0000 		.4byte	.LASF150
 6942 09f8 0F       		.byte	0xf
 6943 09f9 C5       		.byte	0xc5
 6944 09fa 040B0000 		.4byte	0xb04
 6945 09fe 04       		.byte	0x4
 6946 09ff 0D       		.uleb128 0xd
 6947 0a00 B2110000 		.4byte	.LASF151
 6948 0a04 0F       		.byte	0xf
 6949 0a05 C7       		.byte	0xc7
 6950 0a06 7E090000 		.4byte	0x97e
 6951 0a0a 08       		.byte	0x8
 6952 0a0b 0D       		.uleb128 0xd
 6953 0a0c AA0B0000 		.4byte	.LASF152
 6954 0a10 0F       		.byte	0xf
 6955 0a11 C8       		.byte	0xc8
 6956 0a12 A7160000 		.4byte	0x16a7
 6957 0a16 0C       		.byte	0xc
 6958 0a17 0D       		.uleb128 0xd
 6959 0a18 9E030000 		.4byte	.LASF153
 6960 0a1c 0F       		.byte	0xf
 6961 0a1d CA       		.byte	0xca
 6962 0a1e 040B0000 		.4byte	0xb04
 6963 0a22 10       		.byte	0x10
 6964 0a23 0D       		.uleb128 0xd
 6965 0a24 DC250000 		.4byte	.LASF154
 6966 0a28 0F       		.byte	0xf
 6967 0a29 CB       		.byte	0xcb
 6968 0a2a 040B0000 		.4byte	0xb04
 6969 0a2e 14       		.byte	0x14
 6970 0a2f 0D       		.uleb128 0xd
 6971 0a30 5F230000 		.4byte	.LASF155
 6972 0a34 0F       		.byte	0xf
 6973 0a35 D2       		.byte	0xd2
 6974 0a36 DD050000 		.4byte	0x5dd
 6975 0a3a 18       		.byte	0x18
 6976 0a3b 0D       		.uleb128 0xd
 6977 0a3c 761D0000 		.4byte	.LASF156
 6978 0a40 0F       		.byte	0xf
 6979 0a41 D8       		.byte	0xd8
 6980 0a42 1D1A0000 		.4byte	0x1a1d
 6981 0a46 1C       		.byte	0x1c
 6982 0a47 0D       		.uleb128 0xd
 6983 0a48 2A280000 		.4byte	.LASF157
 6984 0a4c 0F       		.byte	0xf
 6985 0a4d DD       		.byte	0xdd
 6986 0a4e 5D090000 		.4byte	0x95d
 6987 0a52 20       		.byte	0x20
 6988 0a53 0D       		.uleb128 0xd
 6989 0a54 A1220000 		.4byte	.LASF158
 6990 0a58 0F       		.byte	0xf
 6991 0a59 E1       		.byte	0xe1
 6992 0a5a 52090000 		.4byte	0x952
ARM GAS  C:\Users\mathi\AppData\Local\Temp\ccOm87JI.s 			page 124


 6993 0a5e 21       		.byte	0x21
 6994 0a5f 0D       		.uleb128 0xd
 6995 0a60 2C190000 		.4byte	.LASF159
 6996 0a64 0F       		.byte	0xf
 6997 0a65 E6       		.byte	0xe6
 6998 0a66 68090000 		.4byte	0x968
 6999 0a6a 22       		.byte	0x22
 7000 0a6b 0D       		.uleb128 0xd
 7001 0a6c A1160000 		.4byte	.LASF160
 7002 0a70 0F       		.byte	0xf
 7003 0a71 EC       		.byte	0xec
 7004 0a72 73090000 		.4byte	0x973
 7005 0a76 23       		.byte	0x23
 7006 0a77 0D       		.uleb128 0xd
 7007 0a78 25190000 		.4byte	.LASF161
 7008 0a7c 0F       		.byte	0xf
 7009 0a7d F3       		.byte	0xf3
 7010 0a7e CB090000 		.4byte	0x9cb
 7011 0a82 24       		.byte	0x24
 7012 0a83 21       		.uleb128 0x21
 7013 0a84 705F7500 		.ascii	"p_u\000"
 7014 0a88 0F       		.byte	0xf
 7015 0a89 3101     		.2byte	0x131
 7016 0a8b 4C190000 		.4byte	0x194c
 7017 0a8f 28       		.byte	0x28
 7018 0a90 18       		.uleb128 0x18
 7019 0a91 48060000 		.4byte	.LASF162
 7020 0a95 0F       		.byte	0xf
 7021 0a96 3601     		.2byte	0x136
 7022 0a98 0A0B0000 		.4byte	0xb0a
 7023 0a9c 2C       		.byte	0x2c
 7024 0a9d 18       		.uleb128 0x18
 7025 0a9e 5D170000 		.4byte	.LASF163
 7026 0aa2 0F       		.byte	0xf
 7027 0aa3 3C01     		.2byte	0x13c
 7028 0aa5 2E0B0000 		.4byte	0xb2e
 7029 0aa9 30       		.byte	0x30
 7030 0aaa 18       		.uleb128 0x18
 7031 0aab 30090000 		.4byte	.LASF164
 7032 0aaf 0F       		.byte	0xf
 7033 0ab0 4001     		.2byte	0x140
 7034 0ab2 89090000 		.4byte	0x989
 7035 0ab6 38       		.byte	0x38
 7036 0ab7 18       		.uleb128 0x18
 7037 0ab8 54200000 		.4byte	.LASF165
 7038 0abc 0F       		.byte	0xf
 7039 0abd 4601     		.2byte	0x146
 7040 0abf 94090000 		.4byte	0x994
 7041 0ac3 3C       		.byte	0x3c
 7042 0ac4 18       		.uleb128 0x18
 7043 0ac5 C6220000 		.4byte	.LASF166
 7044 0ac9 0F       		.byte	0xf
 7045 0aca 4D01     		.2byte	0x14d
 7046 0acc 171A0000 		.4byte	0x1a17
 7047 0ad0 40       		.byte	0x40
 7048 0ad1 18       		.uleb128 0x18
 7049 0ad2 F51E0000 		.4byte	.LASF167
ARM GAS  C:\Users\mathi\AppData\Local\Temp\ccOm87JI.s 			page 125


 7050 0ad6 0F       		.byte	0xf
 7051 0ad7 5101     		.2byte	0x151
 7052 0ad9 7E090000 		.4byte	0x97e
 7053 0add 44       		.byte	0x44
 7054 0ade 18       		.uleb128 0x18
 7055 0adf 02130000 		.4byte	.LASF168
 7056 0ae3 0F       		.byte	0xf
 7057 0ae4 5801     		.2byte	0x158
 7058 0ae6 5D010000 		.4byte	0x15d
 7059 0aea 48       		.byte	0x48
 7060 0aeb 18       		.uleb128 0x18
 7061 0aec 65280000 		.4byte	.LASF169
 7062 0af0 0F       		.byte	0xf
 7063 0af1 5E01     		.2byte	0x15e
 7064 0af3 FD180000 		.4byte	0x18fd
 7065 0af7 50       		.byte	0x50
 7066 0af8 00       		.byte	0
 7067 0af9 04       		.uleb128 0x4
 7068 0afa 31260000 		.4byte	.LASF170
 7069 0afe 0E       		.byte	0xe
 7070 0aff 44       		.byte	0x44
 7071 0b00 040B0000 		.4byte	0xb04
 7072 0b04 05       		.uleb128 0x5
 7073 0b05 04       		.byte	0x4
 7074 0b06 D0090000 		.4byte	0x9d0
 7075 0b0a 04       		.uleb128 0x4
 7076 0b0b 87060000 		.4byte	.LASF171
 7077 0b0f 0E       		.byte	0xe
 7078 0b10 49       		.byte	0x49
 7079 0b11 150B0000 		.4byte	0xb15
 7080 0b15 10       		.uleb128 0x10
 7081 0b16 44280000 		.4byte	.LASF172
 7082 0b1a 04       		.byte	0x4
 7083 0b1b 0F       		.byte	0xf
 7084 0b1c B0       		.byte	0xb0
 7085 0b1d 2E0B0000 		.4byte	0xb2e
 7086 0b21 0D       		.uleb128 0xd
 7087 0b22 99120000 		.4byte	.LASF149
 7088 0b26 0F       		.byte	0xf
 7089 0b27 B1       		.byte	0xb1
 7090 0b28 040B0000 		.4byte	0xb04
 7091 0b2c 00       		.byte	0
 7092 0b2d 00       		.byte	0
 7093 0b2e 04       		.uleb128 0x4
 7094 0b2f 00190000 		.4byte	.LASF173
 7095 0b33 0E       		.byte	0xe
 7096 0b34 50       		.byte	0x50
 7097 0b35 390B0000 		.4byte	0xb39
 7098 0b39 10       		.uleb128 0x10
 7099 0b3a 76030000 		.4byte	.LASF174
 7100 0b3e 08       		.byte	0x8
 7101 0b3f 0F       		.byte	0xf
 7102 0b40 B7       		.byte	0xb7
 7103 0b41 5E0B0000 		.4byte	0xb5e
 7104 0b45 0D       		.uleb128 0xd
 7105 0b46 99120000 		.4byte	.LASF149
 7106 0b4a 0F       		.byte	0xf
ARM GAS  C:\Users\mathi\AppData\Local\Temp\ccOm87JI.s 			page 126


 7107 0b4b B8       		.byte	0xb8
 7108 0b4c 040B0000 		.4byte	0xb04
 7109 0b50 00       		.byte	0
 7110 0b51 0D       		.uleb128 0xd
 7111 0b52 B20E0000 		.4byte	.LASF150
 7112 0b56 0F       		.byte	0xf
 7113 0b57 B9       		.byte	0xb9
 7114 0b58 040B0000 		.4byte	0xb04
 7115 0b5c 04       		.byte	0x4
 7116 0b5d 00       		.byte	0
 7117 0b5e 04       		.uleb128 0x4
 7118 0b5f F30A0000 		.4byte	.LASF175
 7119 0b63 0E       		.byte	0xe
 7120 0b64 57       		.byte	0x57
 7121 0b65 690B0000 		.4byte	0xb69
 7122 0b69 1B       		.uleb128 0x1b
 7123 0b6a AB1F0000 		.4byte	.LASF176
 7124 0b6e 1C       		.byte	0x1c
 7125 0b6f 0F       		.byte	0xf
 7126 0b70 9001     		.2byte	0x190
 7127 0b72 C50B0000 		.4byte	0xbc5
 7128 0b76 18       		.uleb128 0x18
 7129 0b77 A81B0000 		.4byte	.LASF177
 7130 0b7b 0F       		.byte	0xf
 7131 0b7c 9101     		.2byte	0x191
 7132 0b7e 2E0B0000 		.4byte	0xb2e
 7133 0b82 00       		.byte	0
 7134 0b83 18       		.uleb128 0x18
 7135 0b84 A1210000 		.4byte	.LASF178
 7136 0b88 0F       		.byte	0xf
 7137 0b89 9201     		.2byte	0x192
 7138 0b8b 7E090000 		.4byte	0x97e
 7139 0b8f 08       		.byte	0x8
 7140 0b90 18       		.uleb128 0x18
 7141 0b91 CD0D0000 		.4byte	.LASF179
 7142 0b95 0F       		.byte	0xf
 7143 0b96 9401     		.2byte	0x194
 7144 0b98 A7160000 		.4byte	0x16a7
 7145 0b9c 0C       		.byte	0xc
 7146 0b9d 18       		.uleb128 0x18
 7147 0b9e 8B140000 		.4byte	.LASF180
 7148 0ba2 0F       		.byte	0xf
 7149 0ba3 9701     		.2byte	0x197
 7150 0ba5 040B0000 		.4byte	0xb04
 7151 0ba9 10       		.byte	0x10
 7152 0baa 18       		.uleb128 0x18
 7153 0bab AA0E0000 		.4byte	.LASF181
 7154 0baf 0F       		.byte	0xf
 7155 0bb0 9801     		.2byte	0x198
 7156 0bb2 040B0000 		.4byte	0xb04
 7157 0bb6 14       		.byte	0x14
 7158 0bb7 18       		.uleb128 0x18
 7159 0bb8 D6100000 		.4byte	.LASF182
 7160 0bbc 0F       		.byte	0xf
 7161 0bbd 9B01     		.2byte	0x19b
 7162 0bbf 040B0000 		.4byte	0xb04
 7163 0bc3 18       		.byte	0x18
ARM GAS  C:\Users\mathi\AppData\Local\Temp\ccOm87JI.s 			page 127


 7164 0bc4 00       		.byte	0
 7165 0bc5 04       		.uleb128 0x4
 7166 0bc6 9E1E0000 		.4byte	.LASF183
 7167 0bca 0E       		.byte	0xe
 7168 0bcb 5C       		.byte	0x5c
 7169 0bcc D00B0000 		.4byte	0xbd0
 7170 0bd0 05       		.uleb128 0x5
 7171 0bd1 04       		.byte	0x4
 7172 0bd2 D60B0000 		.4byte	0xbd6
 7173 0bd6 1F       		.uleb128 0x1f
 7174 0bd7 E10B0000 		.4byte	0xbe1
 7175 0bdb 16       		.uleb128 0x16
 7176 0bdc 5D010000 		.4byte	0x15d
 7177 0be0 00       		.byte	0
 7178 0be1 04       		.uleb128 0x4
 7179 0be2 B10D0000 		.4byte	.LASF184
 7180 0be6 0E       		.byte	0xe
 7181 0be7 61       		.byte	0x61
 7182 0be8 EC0B0000 		.4byte	0xbec
 7183 0bec 1B       		.uleb128 0x1b
 7184 0bed 90220000 		.4byte	.LASF185
 7185 0bf1 14       		.byte	0x14
 7186 0bf2 0F       		.byte	0xf
 7187 0bf3 6B01     		.2byte	0x16b
 7188 0bf5 3B0C0000 		.4byte	0xc3b
 7189 0bf9 18       		.uleb128 0x18
 7190 0bfa D30D0000 		.4byte	.LASF186
 7191 0bfe 0F       		.byte	0xf
 7192 0bff 6C01     		.2byte	0x16c
 7193 0c01 231A0000 		.4byte	0x1a23
 7194 0c05 00       		.byte	0
 7195 0c06 18       		.uleb128 0x18
 7196 0c07 A80A0000 		.4byte	.LASF187
 7197 0c0b 0F       		.byte	0xf
 7198 0c0c 6D01     		.2byte	0x16d
 7199 0c0e 231A0000 		.4byte	0x1a23
 7200 0c12 04       		.byte	0x4
 7201 0c13 18       		.uleb128 0x18
 7202 0c14 DF150000 		.4byte	.LASF188
 7203 0c18 0F       		.byte	0xf
 7204 0c19 6E01     		.2byte	0x16e
 7205 0c1b C0090000 		.4byte	0x9c0
 7206 0c1f 08       		.byte	0x8
 7207 0c20 18       		.uleb128 0x18
 7208 0c21 6D220000 		.4byte	.LASF189
 7209 0c25 0F       		.byte	0xf
 7210 0c26 6F01     		.2byte	0x16f
 7211 0c28 C50B0000 		.4byte	0xbc5
 7212 0c2c 0C       		.byte	0xc
 7213 0c2d 18       		.uleb128 0x18
 7214 0c2e B00B0000 		.4byte	.LASF190
 7215 0c32 0F       		.byte	0xf
 7216 0c33 7101     		.2byte	0x171
 7217 0c35 5D010000 		.4byte	0x15d
 7218 0c39 10       		.byte	0x10
 7219 0c3a 00       		.byte	0
 7220 0c3b 04       		.uleb128 0x4
ARM GAS  C:\Users\mathi\AppData\Local\Temp\ccOm87JI.s 			page 128


 7221 0c3c F7230000 		.4byte	.LASF191
 7222 0c40 0E       		.byte	0xe
 7223 0c41 66       		.byte	0x66
 7224 0c42 460C0000 		.4byte	0xc46
 7225 0c46 1B       		.uleb128 0x1b
 7226 0c47 84040000 		.4byte	.LASF192
 7227 0c4b 10       		.byte	0x10
 7228 0c4c 0F       		.byte	0xf
 7229 0c4d 7B01     		.2byte	0x17b
 7230 0c4f 880C0000 		.4byte	0xc88
 7231 0c53 18       		.uleb128 0x18
 7232 0c54 D30D0000 		.4byte	.LASF186
 7233 0c58 0F       		.byte	0xf
 7234 0c59 7C01     		.2byte	0x17c
 7235 0c5b 231A0000 		.4byte	0x1a23
 7236 0c5f 00       		.byte	0
 7237 0c60 18       		.uleb128 0x18
 7238 0c61 A80A0000 		.4byte	.LASF187
 7239 0c65 0F       		.byte	0xf
 7240 0c66 7E01     		.2byte	0x17e
 7241 0c68 231A0000 		.4byte	0x1a23
 7242 0c6c 04       		.byte	0x4
 7243 0c6d 18       		.uleb128 0x18
 7244 0c6e DF150000 		.4byte	.LASF188
 7245 0c72 0F       		.byte	0xf
 7246 0c73 8001     		.2byte	0x180
 7247 0c75 C0090000 		.4byte	0x9c0
 7248 0c79 08       		.byte	0x8
 7249 0c7a 18       		.uleb128 0x18
 7250 0c7b 34010000 		.4byte	.LASF193
 7251 0c7f 0F       		.byte	0xf
 7252 0c80 8201     		.2byte	0x182
 7253 0c82 CB090000 		.4byte	0x9cb
 7254 0c86 0C       		.byte	0xc
 7255 0c87 00       		.byte	0
 7256 0c88 04       		.uleb128 0x4
 7257 0c89 7E0B0000 		.4byte	.LASF194
 7258 0c8d 0E       		.byte	0xe
 7259 0c8e 6B       		.byte	0x6b
 7260 0c8f 930C0000 		.4byte	0xc93
 7261 0c93 17       		.uleb128 0x17
 7262 0c94 D41F0000 		.4byte	.LASF195
 7263 0c98 1404     		.2byte	0x414
 7264 0c9a 0F       		.byte	0xf
 7265 0c9b A201     		.2byte	0x1a2
 7266 0c9d D60C0000 		.4byte	0xcd6
 7267 0ca1 18       		.uleb128 0x18
 7268 0ca2 6D140000 		.4byte	.LASF196
 7269 0ca6 0F       		.byte	0xf
 7270 0ca7 AA01     		.2byte	0x1aa
 7271 0ca9 E3050000 		.4byte	0x5e3
 7272 0cad 00       		.byte	0
 7273 0cae 18       		.uleb128 0x18
 7274 0caf 3A140000 		.4byte	.LASF197
 7275 0cb3 0F       		.byte	0xf
 7276 0cb4 AF01     		.2byte	0x1af
 7277 0cb6 AA090000 		.4byte	0x9aa
ARM GAS  C:\Users\mathi\AppData\Local\Temp\ccOm87JI.s 			page 129


 7278 0cba 04       		.byte	0x4
 7279 0cbb 18       		.uleb128 0x18
 7280 0cbc 67030000 		.4byte	.LASF198
 7281 0cc0 0F       		.byte	0xf
 7282 0cc1 B301     		.2byte	0x1b3
 7283 0cc3 AA090000 		.4byte	0x9aa
 7284 0cc7 08       		.byte	0x8
 7285 0cc8 18       		.uleb128 0x18
 7286 0cc9 5E180000 		.4byte	.LASF199
 7287 0ccd 0F       		.byte	0xf
 7288 0cce B901     		.2byte	0x1b9
 7289 0cd0 8F180000 		.4byte	0x188f
 7290 0cd4 0C       		.byte	0xc
 7291 0cd5 00       		.byte	0
 7292 0cd6 04       		.uleb128 0x4
 7293 0cd7 BC000000 		.4byte	.LASF200
 7294 0cdb 0E       		.byte	0xe
 7295 0cdc 70       		.byte	0x70
 7296 0cdd E10C0000 		.4byte	0xce1
 7297 0ce1 17       		.uleb128 0x17
 7298 0ce2 43180000 		.4byte	.LASF201
 7299 0ce6 7006     		.2byte	0x670
 7300 0ce8 0F       		.byte	0xf
 7301 0ce9 C201     		.2byte	0x1c2
 7302 0ceb 4E0D0000 		.4byte	0xd4e
 7303 0cef 18       		.uleb128 0x18
 7304 0cf0 81060000 		.4byte	.LASF202
 7305 0cf4 0F       		.byte	0xf
 7306 0cf5 C601     		.2byte	0x1c6
 7307 0cf7 5E0B0000 		.4byte	0xb5e
 7308 0cfb 00       		.byte	0
 7309 0cfc 18       		.uleb128 0x18
 7310 0cfd 32060000 		.4byte	.LASF203
 7311 0d01 0F       		.byte	0xf
 7312 0d02 CA01     		.2byte	0x1ca
 7313 0d04 3B0C0000 		.4byte	0xc3b
 7314 0d08 1C       		.byte	0x1c
 7315 0d09 21       		.uleb128 0x21
 7316 0d0a 64626700 		.ascii	"dbg\000"
 7317 0d0e 0F       		.byte	0xf
 7318 0d0f CE01     		.2byte	0x1ce
 7319 0d11 880C0000 		.4byte	0xc88
 7320 0d15 2C       		.byte	0x2c
 7321 0d16 19       		.uleb128 0x19
 7322 0d17 56190000 		.4byte	.LASF204
 7323 0d1b 0F       		.byte	0xf
 7324 0d1c D201     		.2byte	0x1d2
 7325 0d1e D0090000 		.4byte	0x9d0
 7326 0d22 4004     		.2byte	0x440
 7327 0d24 22       		.uleb128 0x22
 7328 0d25 746D00   		.ascii	"tm\000"
 7329 0d28 0F       		.byte	0xf
 7330 0d29 D701     		.2byte	0x1d7
 7331 0d2b AF180000 		.4byte	0x18af
 7332 0d2f A804     		.2byte	0x4a8
 7333 0d31 19       		.uleb128 0x19
 7334 0d32 4A1D0000 		.4byte	.LASF205
ARM GAS  C:\Users\mathi\AppData\Local\Temp\ccOm87JI.s 			page 130


 7335 0d36 0F       		.byte	0xf
 7336 0d37 DD01     		.2byte	0x1dd
 7337 0d39 41190000 		.4byte	0x1941
 7338 0d3d B004     		.2byte	0x4b0
 7339 0d3f 19       		.uleb128 0x19
 7340 0d40 4A220000 		.4byte	.LASF206
 7341 0d44 0F       		.byte	0xf
 7342 0d45 E301     		.2byte	0x1e3
 7343 0d47 291A0000 		.4byte	0x1a29
 7344 0d4b E804     		.2byte	0x4e8
 7345 0d4d 00       		.byte	0
 7346 0d4e 0A       		.uleb128 0xa
 7347 0d4f 1C090000 		.4byte	0x91c
 7348 0d53 5E0D0000 		.4byte	0xd5e
 7349 0d57 0B       		.uleb128 0xb
 7350 0d58 25000000 		.4byte	0x25
 7351 0d5c 01       		.byte	0x1
 7352 0d5d 00       		.byte	0
 7353 0d5e 0A       		.uleb128 0xa
 7354 0d5f 1C090000 		.4byte	0x91c
 7355 0d63 6E0D0000 		.4byte	0xd6e
 7356 0d67 0B       		.uleb128 0xb
 7357 0d68 25000000 		.4byte	0x25
 7358 0d6c 07       		.byte	0x7
 7359 0d6d 00       		.byte	0
 7360 0d6e 20       		.uleb128 0x20
 7361 0d6f AF210000 		.4byte	.LASF207
 7362 0d73 10       		.byte	0x10
 7363 0d74 A706     		.2byte	0x6a7
 7364 0d76 17090000 		.4byte	0x917
 7365 0d7a 23       		.uleb128 0x23
 7366 0d7b 91170000 		.4byte	.LASF208
 7367 0d7f 11       		.byte	0x11
 7368 0d80 4C       		.byte	0x4c
 7369 0d81 1C090000 		.4byte	0x91c
 7370 0d85 0C       		.uleb128 0xc
 7371 0d86 50       		.byte	0x50
 7372 0d87 12       		.byte	0x12
 7373 0d88 C4       		.byte	0xc4
 7374 0d89 7C0E0000 		.4byte	0xe7c
 7375 0d8d 11       		.uleb128 0x11
 7376 0d8e 535200   		.ascii	"SR\000"
 7377 0d91 12       		.byte	0x12
 7378 0d92 C6       		.byte	0xc6
 7379 0d93 27090000 		.4byte	0x927
 7380 0d97 00       		.byte	0
 7381 0d98 11       		.uleb128 0x11
 7382 0d99 43523100 		.ascii	"CR1\000"
 7383 0d9d 12       		.byte	0x12
 7384 0d9e C7       		.byte	0xc7
 7385 0d9f 27090000 		.4byte	0x927
 7386 0da3 04       		.byte	0x4
 7387 0da4 11       		.uleb128 0x11
 7388 0da5 43523200 		.ascii	"CR2\000"
 7389 0da9 12       		.byte	0x12
 7390 0daa C8       		.byte	0xc8
 7391 0dab 27090000 		.4byte	0x927
ARM GAS  C:\Users\mathi\AppData\Local\Temp\ccOm87JI.s 			page 131


 7392 0daf 08       		.byte	0x8
 7393 0db0 0D       		.uleb128 0xd
 7394 0db1 B1030000 		.4byte	.LASF209
 7395 0db5 12       		.byte	0x12
 7396 0db6 C9       		.byte	0xc9
 7397 0db7 27090000 		.4byte	0x927
 7398 0dbb 0C       		.byte	0xc
 7399 0dbc 0D       		.uleb128 0xd
 7400 0dbd B7030000 		.4byte	.LASF210
 7401 0dc1 12       		.byte	0x12
 7402 0dc2 CA       		.byte	0xca
 7403 0dc3 27090000 		.4byte	0x927
 7404 0dc7 10       		.byte	0x10
 7405 0dc8 0D       		.uleb128 0xd
 7406 0dc9 B70B0000 		.4byte	.LASF211
 7407 0dcd 12       		.byte	0x12
 7408 0dce CB       		.byte	0xcb
 7409 0dcf 27090000 		.4byte	0x927
 7410 0dd3 14       		.byte	0x14
 7411 0dd4 0D       		.uleb128 0xd
 7412 0dd5 BD0B0000 		.4byte	.LASF212
 7413 0dd9 12       		.byte	0x12
 7414 0dda CC       		.byte	0xcc
 7415 0ddb 27090000 		.4byte	0x927
 7416 0ddf 18       		.byte	0x18
 7417 0de0 0D       		.uleb128 0xd
 7418 0de1 91110000 		.4byte	.LASF213
 7419 0de5 12       		.byte	0x12
 7420 0de6 CD       		.byte	0xcd
 7421 0de7 27090000 		.4byte	0x927
 7422 0deb 1C       		.byte	0x1c
 7423 0dec 0D       		.uleb128 0xd
 7424 0ded C30B0000 		.4byte	.LASF214
 7425 0df1 12       		.byte	0x12
 7426 0df2 CE       		.byte	0xce
 7427 0df3 27090000 		.4byte	0x927
 7428 0df7 20       		.byte	0x20
 7429 0df8 11       		.uleb128 0x11
 7430 0df9 48545200 		.ascii	"HTR\000"
 7431 0dfd 12       		.byte	0x12
 7432 0dfe CF       		.byte	0xcf
 7433 0dff 27090000 		.4byte	0x927
 7434 0e03 24       		.byte	0x24
 7435 0e04 11       		.uleb128 0x11
 7436 0e05 4C545200 		.ascii	"LTR\000"
 7437 0e09 12       		.byte	0x12
 7438 0e0a D0       		.byte	0xd0
 7439 0e0b 27090000 		.4byte	0x927
 7440 0e0f 28       		.byte	0x28
 7441 0e10 0D       		.uleb128 0xd
 7442 0e11 9C130000 		.4byte	.LASF215
 7443 0e15 12       		.byte	0x12
 7444 0e16 D1       		.byte	0xd1
 7445 0e17 27090000 		.4byte	0x927
 7446 0e1b 2C       		.byte	0x2c
 7447 0e1c 0D       		.uleb128 0xd
 7448 0e1d A1130000 		.4byte	.LASF216
ARM GAS  C:\Users\mathi\AppData\Local\Temp\ccOm87JI.s 			page 132


 7449 0e21 12       		.byte	0x12
 7450 0e22 D2       		.byte	0xd2
 7451 0e23 27090000 		.4byte	0x927
 7452 0e27 30       		.byte	0x30
 7453 0e28 0D       		.uleb128 0xd
 7454 0e29 A6130000 		.4byte	.LASF217
 7455 0e2d 12       		.byte	0x12
 7456 0e2e D3       		.byte	0xd3
 7457 0e2f 27090000 		.4byte	0x927
 7458 0e33 34       		.byte	0x34
 7459 0e34 0D       		.uleb128 0xd
 7460 0e35 790D0000 		.4byte	.LASF218
 7461 0e39 12       		.byte	0x12
 7462 0e3a D4       		.byte	0xd4
 7463 0e3b 27090000 		.4byte	0x927
 7464 0e3f 38       		.byte	0x38
 7465 0e40 0D       		.uleb128 0xd
 7466 0e41 7E230000 		.4byte	.LASF219
 7467 0e45 12       		.byte	0x12
 7468 0e46 D5       		.byte	0xd5
 7469 0e47 27090000 		.4byte	0x927
 7470 0e4b 3C       		.byte	0x3c
 7471 0e4c 0D       		.uleb128 0xd
 7472 0e4d 83230000 		.4byte	.LASF220
 7473 0e51 12       		.byte	0x12
 7474 0e52 D6       		.byte	0xd6
 7475 0e53 27090000 		.4byte	0x927
 7476 0e57 40       		.byte	0x40
 7477 0e58 0D       		.uleb128 0xd
 7478 0e59 88230000 		.4byte	.LASF221
 7479 0e5d 12       		.byte	0x12
 7480 0e5e D7       		.byte	0xd7
 7481 0e5f 27090000 		.4byte	0x927
 7482 0e63 44       		.byte	0x44
 7483 0e64 0D       		.uleb128 0xd
 7484 0e65 8D230000 		.4byte	.LASF222
 7485 0e69 12       		.byte	0x12
 7486 0e6a D8       		.byte	0xd8
 7487 0e6b 27090000 		.4byte	0x927
 7488 0e6f 48       		.byte	0x48
 7489 0e70 11       		.uleb128 0x11
 7490 0e71 445200   		.ascii	"DR\000"
 7491 0e74 12       		.byte	0x12
 7492 0e75 D9       		.byte	0xd9
 7493 0e76 27090000 		.4byte	0x927
 7494 0e7a 4C       		.byte	0x4c
 7495 0e7b 00       		.byte	0
 7496 0e7c 04       		.uleb128 0x4
 7497 0e7d 3C160000 		.4byte	.LASF223
 7498 0e81 12       		.byte	0x12
 7499 0e82 DA       		.byte	0xda
 7500 0e83 850D0000 		.4byte	0xd85
 7501 0e87 0C       		.uleb128 0xc
 7502 0e88 10       		.byte	0x10
 7503 0e89 12       		.byte	0x12
 7504 0e8a E9       		.byte	0xe9
 7505 0e8b C00E0000 		.4byte	0xec0
ARM GAS  C:\Users\mathi\AppData\Local\Temp\ccOm87JI.s 			page 133


 7506 0e8f 11       		.uleb128 0x11
 7507 0e90 54495200 		.ascii	"TIR\000"
 7508 0e94 12       		.byte	0x12
 7509 0e95 EB       		.byte	0xeb
 7510 0e96 27090000 		.4byte	0x927
 7511 0e9a 00       		.byte	0
 7512 0e9b 0D       		.uleb128 0xd
 7513 0e9c 45110000 		.4byte	.LASF224
 7514 0ea0 12       		.byte	0x12
 7515 0ea1 EC       		.byte	0xec
 7516 0ea2 27090000 		.4byte	0x927
 7517 0ea6 04       		.byte	0x4
 7518 0ea7 0D       		.uleb128 0xd
 7519 0ea8 48190000 		.4byte	.LASF225
 7520 0eac 12       		.byte	0x12
 7521 0ead ED       		.byte	0xed
 7522 0eae 27090000 		.4byte	0x927
 7523 0eb2 08       		.byte	0x8
 7524 0eb3 0D       		.uleb128 0xd
 7525 0eb4 BC160000 		.4byte	.LASF226
 7526 0eb8 12       		.byte	0x12
 7527 0eb9 EE       		.byte	0xee
 7528 0eba 27090000 		.4byte	0x927
 7529 0ebe 0C       		.byte	0xc
 7530 0ebf 00       		.byte	0
 7531 0ec0 04       		.uleb128 0x4
 7532 0ec1 6B060000 		.4byte	.LASF227
 7533 0ec5 12       		.byte	0x12
 7534 0ec6 EF       		.byte	0xef
 7535 0ec7 870E0000 		.4byte	0xe87
 7536 0ecb 0C       		.uleb128 0xc
 7537 0ecc 10       		.byte	0x10
 7538 0ecd 12       		.byte	0x12
 7539 0ece F5       		.byte	0xf5
 7540 0ecf 040F0000 		.4byte	0xf04
 7541 0ed3 11       		.uleb128 0x11
 7542 0ed4 52495200 		.ascii	"RIR\000"
 7543 0ed8 12       		.byte	0x12
 7544 0ed9 F7       		.byte	0xf7
 7545 0eda 27090000 		.4byte	0x927
 7546 0ede 00       		.byte	0
 7547 0edf 0D       		.uleb128 0xd
 7548 0ee0 721F0000 		.4byte	.LASF228
 7549 0ee4 12       		.byte	0x12
 7550 0ee5 F8       		.byte	0xf8
 7551 0ee6 27090000 		.4byte	0x927
 7552 0eea 04       		.byte	0x4
 7553 0eeb 0D       		.uleb128 0xd
 7554 0eec 781A0000 		.4byte	.LASF229
 7555 0ef0 12       		.byte	0x12
 7556 0ef1 F9       		.byte	0xf9
 7557 0ef2 27090000 		.4byte	0x927
 7558 0ef6 08       		.byte	0x8
 7559 0ef7 0D       		.uleb128 0xd
 7560 0ef8 30180000 		.4byte	.LASF230
 7561 0efc 12       		.byte	0x12
 7562 0efd FA       		.byte	0xfa
ARM GAS  C:\Users\mathi\AppData\Local\Temp\ccOm87JI.s 			page 134


 7563 0efe 27090000 		.4byte	0x927
 7564 0f02 0C       		.byte	0xc
 7565 0f03 00       		.byte	0
 7566 0f04 04       		.uleb128 0x4
 7567 0f05 A71E0000 		.4byte	.LASF231
 7568 0f09 12       		.byte	0x12
 7569 0f0a FB       		.byte	0xfb
 7570 0f0b CB0E0000 		.4byte	0xecb
 7571 0f0f 1C       		.uleb128 0x1c
 7572 0f10 08       		.byte	0x8
 7573 0f11 12       		.byte	0x12
 7574 0f12 0101     		.2byte	0x101
 7575 0f14 330F0000 		.4byte	0xf33
 7576 0f18 21       		.uleb128 0x21
 7577 0f19 46523100 		.ascii	"FR1\000"
 7578 0f1d 12       		.byte	0x12
 7579 0f1e 0301     		.2byte	0x103
 7580 0f20 27090000 		.4byte	0x927
 7581 0f24 00       		.byte	0
 7582 0f25 21       		.uleb128 0x21
 7583 0f26 46523200 		.ascii	"FR2\000"
 7584 0f2a 12       		.byte	0x12
 7585 0f2b 0401     		.2byte	0x104
 7586 0f2d 27090000 		.4byte	0x927
 7587 0f31 04       		.byte	0x4
 7588 0f32 00       		.byte	0
 7589 0f33 07       		.uleb128 0x7
 7590 0f34 5D110000 		.4byte	.LASF232
 7591 0f38 12       		.byte	0x12
 7592 0f39 0501     		.2byte	0x105
 7593 0f3b 0F0F0000 		.4byte	0xf0f
 7594 0f3f 24       		.uleb128 0x24
 7595 0f40 2003     		.2byte	0x320
 7596 0f42 12       		.byte	0x12
 7597 0f43 0B01     		.2byte	0x10b
 7598 0f45 75100000 		.4byte	0x1075
 7599 0f49 21       		.uleb128 0x21
 7600 0f4a 4D435200 		.ascii	"MCR\000"
 7601 0f4e 12       		.byte	0x12
 7602 0f4f 0D01     		.2byte	0x10d
 7603 0f51 27090000 		.4byte	0x927
 7604 0f55 00       		.byte	0
 7605 0f56 21       		.uleb128 0x21
 7606 0f57 4D535200 		.ascii	"MSR\000"
 7607 0f5b 12       		.byte	0x12
 7608 0f5c 0E01     		.2byte	0x10e
 7609 0f5e 27090000 		.4byte	0x927
 7610 0f62 04       		.byte	0x4
 7611 0f63 21       		.uleb128 0x21
 7612 0f64 54535200 		.ascii	"TSR\000"
 7613 0f68 12       		.byte	0x12
 7614 0f69 0F01     		.2byte	0x10f
 7615 0f6b 27090000 		.4byte	0x927
 7616 0f6f 08       		.byte	0x8
 7617 0f70 18       		.uleb128 0x18
 7618 0f71 9C0F0000 		.4byte	.LASF233
 7619 0f75 12       		.byte	0x12
ARM GAS  C:\Users\mathi\AppData\Local\Temp\ccOm87JI.s 			page 135


 7620 0f76 1001     		.2byte	0x110
 7621 0f78 27090000 		.4byte	0x927
 7622 0f7c 0C       		.byte	0xc
 7623 0f7d 18       		.uleb128 0x18
 7624 0f7e B41A0000 		.4byte	.LASF234
 7625 0f82 12       		.byte	0x12
 7626 0f83 1101     		.2byte	0x111
 7627 0f85 27090000 		.4byte	0x927
 7628 0f89 10       		.byte	0x10
 7629 0f8a 21       		.uleb128 0x21
 7630 0f8b 49455200 		.ascii	"IER\000"
 7631 0f8f 12       		.byte	0x12
 7632 0f90 1201     		.2byte	0x112
 7633 0f92 27090000 		.4byte	0x927
 7634 0f96 14       		.byte	0x14
 7635 0f97 21       		.uleb128 0x21
 7636 0f98 45535200 		.ascii	"ESR\000"
 7637 0f9c 12       		.byte	0x12
 7638 0f9d 1301     		.2byte	0x113
 7639 0f9f 27090000 		.4byte	0x927
 7640 0fa3 18       		.byte	0x18
 7641 0fa4 21       		.uleb128 0x21
 7642 0fa5 42545200 		.ascii	"BTR\000"
 7643 0fa9 12       		.byte	0x12
 7644 0faa 1401     		.2byte	0x114
 7645 0fac 27090000 		.4byte	0x927
 7646 0fb0 1C       		.byte	0x1c
 7647 0fb1 18       		.uleb128 0x18
 7648 0fb2 B4200000 		.4byte	.LASF235
 7649 0fb6 12       		.byte	0x12
 7650 0fb7 1501     		.2byte	0x115
 7651 0fb9 75100000 		.4byte	0x1075
 7652 0fbd 20       		.byte	0x20
 7653 0fbe 19       		.uleb128 0x19
 7654 0fbf 62120000 		.4byte	.LASF236
 7655 0fc3 12       		.byte	0x12
 7656 0fc4 1601     		.2byte	0x116
 7657 0fc6 85100000 		.4byte	0x1085
 7658 0fca 8001     		.2byte	0x180
 7659 0fcc 19       		.uleb128 0x19
 7660 0fcd 7F250000 		.4byte	.LASF237
 7661 0fd1 12       		.byte	0x12
 7662 0fd2 1701     		.2byte	0x117
 7663 0fd4 95100000 		.4byte	0x1095
 7664 0fd8 B001     		.2byte	0x1b0
 7665 0fda 19       		.uleb128 0x19
 7666 0fdb BE200000 		.4byte	.LASF238
 7667 0fdf 12       		.byte	0x12
 7668 0fe0 1801     		.2byte	0x118
 7669 0fe2 A5100000 		.4byte	0x10a5
 7670 0fe6 D001     		.2byte	0x1d0
 7671 0fe8 22       		.uleb128 0x22
 7672 0fe9 464D5200 		.ascii	"FMR\000"
 7673 0fed 12       		.byte	0x12
 7674 0fee 1901     		.2byte	0x119
 7675 0ff0 27090000 		.4byte	0x927
 7676 0ff4 0002     		.2byte	0x200
ARM GAS  C:\Users\mathi\AppData\Local\Temp\ccOm87JI.s 			page 136


 7677 0ff6 19       		.uleb128 0x19
 7678 0ff7 500C0000 		.4byte	.LASF239
 7679 0ffb 12       		.byte	0x12
 7680 0ffc 1A01     		.2byte	0x11a
 7681 0ffe 27090000 		.4byte	0x927
 7682 1002 0402     		.2byte	0x204
 7683 1004 19       		.uleb128 0x19
 7684 1005 C8200000 		.4byte	.LASF240
 7685 1009 12       		.byte	0x12
 7686 100a 1B01     		.2byte	0x11b
 7687 100c 1C090000 		.4byte	0x91c
 7688 1010 0802     		.2byte	0x208
 7689 1012 19       		.uleb128 0x19
 7690 1013 D6220000 		.4byte	.LASF241
 7691 1017 12       		.byte	0x12
 7692 1018 1C01     		.2byte	0x11c
 7693 101a 27090000 		.4byte	0x927
 7694 101e 0C02     		.2byte	0x20c
 7695 1020 19       		.uleb128 0x19
 7696 1021 D2200000 		.4byte	.LASF242
 7697 1025 12       		.byte	0x12
 7698 1026 1D01     		.2byte	0x11d
 7699 1028 1C090000 		.4byte	0x91c
 7700 102c 1002     		.2byte	0x210
 7701 102e 19       		.uleb128 0x19
 7702 102f AE1A0000 		.4byte	.LASF243
 7703 1033 12       		.byte	0x12
 7704 1034 1E01     		.2byte	0x11e
 7705 1036 27090000 		.4byte	0x927
 7706 103a 1402     		.2byte	0x214
 7707 103c 19       		.uleb128 0x19
 7708 103d DC200000 		.4byte	.LASF244
 7709 1041 12       		.byte	0x12
 7710 1042 1F01     		.2byte	0x11f
 7711 1044 1C090000 		.4byte	0x91c
 7712 1048 1802     		.2byte	0x218
 7713 104a 19       		.uleb128 0x19
 7714 104b 3D050000 		.4byte	.LASF245
 7715 104f 12       		.byte	0x12
 7716 1050 2001     		.2byte	0x120
 7717 1052 27090000 		.4byte	0x927
 7718 1056 1C02     		.2byte	0x21c
 7719 1058 19       		.uleb128 0x19
 7720 1059 E6200000 		.4byte	.LASF246
 7721 105d 12       		.byte	0x12
 7722 105e 2101     		.2byte	0x121
 7723 1060 5E0D0000 		.4byte	0xd5e
 7724 1064 2002     		.2byte	0x220
 7725 1066 19       		.uleb128 0x19
 7726 1067 2B070000 		.4byte	.LASF247
 7727 106b 12       		.byte	0x12
 7728 106c 2201     		.2byte	0x122
 7729 106e B5100000 		.4byte	0x10b5
 7730 1072 4002     		.2byte	0x240
 7731 1074 00       		.byte	0
 7732 1075 0A       		.uleb128 0xa
 7733 1076 1C090000 		.4byte	0x91c
ARM GAS  C:\Users\mathi\AppData\Local\Temp\ccOm87JI.s 			page 137


 7734 107a 85100000 		.4byte	0x1085
 7735 107e 0B       		.uleb128 0xb
 7736 107f 25000000 		.4byte	0x25
 7737 1083 57       		.byte	0x57
 7738 1084 00       		.byte	0
 7739 1085 0A       		.uleb128 0xa
 7740 1086 C00E0000 		.4byte	0xec0
 7741 108a 95100000 		.4byte	0x1095
 7742 108e 0B       		.uleb128 0xb
 7743 108f 25000000 		.4byte	0x25
 7744 1093 02       		.byte	0x2
 7745 1094 00       		.byte	0
 7746 1095 0A       		.uleb128 0xa
 7747 1096 040F0000 		.4byte	0xf04
 7748 109a A5100000 		.4byte	0x10a5
 7749 109e 0B       		.uleb128 0xb
 7750 109f 25000000 		.4byte	0x25
 7751 10a3 01       		.byte	0x1
 7752 10a4 00       		.byte	0
 7753 10a5 0A       		.uleb128 0xa
 7754 10a6 1C090000 		.4byte	0x91c
 7755 10aa B5100000 		.4byte	0x10b5
 7756 10ae 0B       		.uleb128 0xb
 7757 10af 25000000 		.4byte	0x25
 7758 10b3 0B       		.byte	0xb
 7759 10b4 00       		.byte	0
 7760 10b5 0A       		.uleb128 0xa
 7761 10b6 330F0000 		.4byte	0xf33
 7762 10ba C5100000 		.4byte	0x10c5
 7763 10be 0B       		.uleb128 0xb
 7764 10bf 25000000 		.4byte	0x25
 7765 10c3 1B       		.byte	0x1b
 7766 10c4 00       		.byte	0
 7767 10c5 07       		.uleb128 0x7
 7768 10c6 2F0E0000 		.4byte	.LASF248
 7769 10ca 12       		.byte	0x12
 7770 10cb 2301     		.2byte	0x123
 7771 10cd 3F0F0000 		.4byte	0xf3f
 7772 10d1 1C       		.uleb128 0x1c
 7773 10d2 38       		.byte	0x38
 7774 10d3 12       		.byte	0x12
 7775 10d4 3601     		.2byte	0x136
 7776 10d6 8F110000 		.4byte	0x118f
 7777 10da 21       		.uleb128 0x21
 7778 10db 435200   		.ascii	"CR\000"
 7779 10de 12       		.byte	0x12
 7780 10df 3801     		.2byte	0x138
 7781 10e1 27090000 		.4byte	0x927
 7782 10e5 00       		.byte	0
 7783 10e6 18       		.uleb128 0x18
 7784 10e7 FD170000 		.4byte	.LASF249
 7785 10eb 12       		.byte	0x12
 7786 10ec 3901     		.2byte	0x139
 7787 10ee 27090000 		.4byte	0x927
 7788 10f2 04       		.byte	0x4
 7789 10f3 18       		.uleb128 0x18
 7790 10f4 0C210000 		.4byte	.LASF250
ARM GAS  C:\Users\mathi\AppData\Local\Temp\ccOm87JI.s 			page 138


 7791 10f8 12       		.byte	0x12
 7792 10f9 3A01     		.2byte	0x13a
 7793 10fb 27090000 		.4byte	0x927
 7794 10ff 08       		.byte	0x8
 7795 1100 18       		.uleb128 0x18
 7796 1101 181D0000 		.4byte	.LASF251
 7797 1105 12       		.byte	0x12
 7798 1106 3B01     		.2byte	0x13b
 7799 1108 27090000 		.4byte	0x927
 7800 110c 0C       		.byte	0xc
 7801 110d 18       		.uleb128 0x18
 7802 110e 8D0B0000 		.4byte	.LASF252
 7803 1112 12       		.byte	0x12
 7804 1113 3C01     		.2byte	0x13c
 7805 1115 27090000 		.4byte	0x927
 7806 1119 10       		.byte	0x10
 7807 111a 18       		.uleb128 0x18
 7808 111b 14210000 		.4byte	.LASF253
 7809 111f 12       		.byte	0x12
 7810 1120 3D01     		.2byte	0x13d
 7811 1122 27090000 		.4byte	0x927
 7812 1126 14       		.byte	0x14
 7813 1127 18       		.uleb128 0x18
 7814 1128 201D0000 		.4byte	.LASF254
 7815 112c 12       		.byte	0x12
 7816 112d 3E01     		.2byte	0x13e
 7817 112f 27090000 		.4byte	0x927
 7818 1133 18       		.byte	0x18
 7819 1134 18       		.uleb128 0x18
 7820 1135 940B0000 		.4byte	.LASF255
 7821 1139 12       		.byte	0x12
 7822 113a 3F01     		.2byte	0x13f
 7823 113c 27090000 		.4byte	0x927
 7824 1140 1C       		.byte	0x1c
 7825 1141 18       		.uleb128 0x18
 7826 1142 5B210000 		.4byte	.LASF256
 7827 1146 12       		.byte	0x12
 7828 1147 4001     		.2byte	0x140
 7829 1149 27090000 		.4byte	0x927
 7830 114d 20       		.byte	0x20
 7831 114e 18       		.uleb128 0x18
 7832 114f 421D0000 		.4byte	.LASF257
 7833 1153 12       		.byte	0x12
 7834 1154 4101     		.2byte	0x141
 7835 1156 27090000 		.4byte	0x927
 7836 115a 24       		.byte	0x24
 7837 115b 18       		.uleb128 0x18
 7838 115c 96250000 		.4byte	.LASF258
 7839 1160 12       		.byte	0x12
 7840 1161 4201     		.2byte	0x142
 7841 1163 27090000 		.4byte	0x927
 7842 1167 28       		.byte	0x28
 7843 1168 18       		.uleb128 0x18
 7844 1169 3F010000 		.4byte	.LASF259
 7845 116d 12       		.byte	0x12
 7846 116e 4301     		.2byte	0x143
 7847 1170 27090000 		.4byte	0x927
ARM GAS  C:\Users\mathi\AppData\Local\Temp\ccOm87JI.s 			page 139


 7848 1174 2C       		.byte	0x2c
 7849 1175 18       		.uleb128 0x18
 7850 1176 44010000 		.4byte	.LASF260
 7851 117a 12       		.byte	0x12
 7852 117b 4401     		.2byte	0x144
 7853 117d 27090000 		.4byte	0x927
 7854 1181 30       		.byte	0x30
 7855 1182 21       		.uleb128 0x21
 7856 1183 535200   		.ascii	"SR\000"
 7857 1186 12       		.byte	0x12
 7858 1187 4501     		.2byte	0x145
 7859 1189 27090000 		.4byte	0x927
 7860 118d 34       		.byte	0x34
 7861 118e 00       		.byte	0
 7862 118f 07       		.uleb128 0x7
 7863 1190 BF1E0000 		.4byte	.LASF261
 7864 1194 12       		.byte	0x12
 7865 1195 4601     		.2byte	0x146
 7866 1197 D1100000 		.4byte	0x10d1
 7867 119b 1C       		.uleb128 0x1c
 7868 119c 18       		.byte	0x18
 7869 119d 12       		.byte	0x12
 7870 119e 6B01     		.2byte	0x16b
 7871 11a0 F2110000 		.4byte	0x11f2
 7872 11a4 21       		.uleb128 0x21
 7873 11a5 435200   		.ascii	"CR\000"
 7874 11a8 12       		.byte	0x12
 7875 11a9 6D01     		.2byte	0x16d
 7876 11ab 27090000 		.4byte	0x927
 7877 11af 00       		.byte	0
 7878 11b0 18       		.uleb128 0x18
 7879 11b1 26220000 		.4byte	.LASF262
 7880 11b5 12       		.byte	0x12
 7881 11b6 6E01     		.2byte	0x16e
 7882 11b8 27090000 		.4byte	0x927
 7883 11bc 04       		.byte	0x4
 7884 11bd 21       		.uleb128 0x21
 7885 11be 50415200 		.ascii	"PAR\000"
 7886 11c2 12       		.byte	0x12
 7887 11c3 6F01     		.2byte	0x16f
 7888 11c5 27090000 		.4byte	0x927
 7889 11c9 08       		.byte	0x8
 7890 11ca 18       		.uleb128 0x18
 7891 11cb DD040000 		.4byte	.LASF263
 7892 11cf 12       		.byte	0x12
 7893 11d0 7001     		.2byte	0x170
 7894 11d2 27090000 		.4byte	0x927
 7895 11d6 0C       		.byte	0xc
 7896 11d7 18       		.uleb128 0x18
 7897 11d8 80090000 		.4byte	.LASF264
 7898 11dc 12       		.byte	0x12
 7899 11dd 7101     		.2byte	0x171
 7900 11df 27090000 		.4byte	0x927
 7901 11e3 10       		.byte	0x10
 7902 11e4 21       		.uleb128 0x21
 7903 11e5 46435200 		.ascii	"FCR\000"
 7904 11e9 12       		.byte	0x12
ARM GAS  C:\Users\mathi\AppData\Local\Temp\ccOm87JI.s 			page 140


 7905 11ea 7201     		.2byte	0x172
 7906 11ec 27090000 		.4byte	0x927
 7907 11f0 14       		.byte	0x14
 7908 11f1 00       		.byte	0
 7909 11f2 07       		.uleb128 0x7
 7910 11f3 8A090000 		.4byte	.LASF265
 7911 11f7 12       		.byte	0x12
 7912 11f8 7301     		.2byte	0x173
 7913 11fa 9B110000 		.4byte	0x119b
 7914 11fe 0A       		.uleb128 0xa
 7915 11ff 27090000 		.4byte	0x927
 7916 1203 0E120000 		.4byte	0x120e
 7917 1207 0B       		.uleb128 0xb
 7918 1208 25000000 		.4byte	0x25
 7919 120c 01       		.byte	0x1
 7920 120d 00       		.byte	0
 7921 120e 1A       		.uleb128 0x1a
 7922 120f FE110000 		.4byte	0x11fe
 7923 1213 0A       		.uleb128 0xa
 7924 1214 27090000 		.4byte	0x927
 7925 1218 23120000 		.4byte	0x1223
 7926 121c 0B       		.uleb128 0xb
 7927 121d 25000000 		.4byte	0x25
 7928 1221 03       		.byte	0x3
 7929 1222 00       		.byte	0
 7930 1223 1A       		.uleb128 0x1a
 7931 1224 13120000 		.4byte	0x1213
 7932 1228 1C       		.uleb128 0x1c
 7933 1229 28       		.byte	0x28
 7934 122a 12       		.byte	0x12
 7935 122b 3F02     		.2byte	0x23f
 7936 122d B3120000 		.4byte	0x12b3
 7937 1231 21       		.uleb128 0x21
 7938 1232 43523100 		.ascii	"CR1\000"
 7939 1236 12       		.byte	0x12
 7940 1237 4102     		.2byte	0x241
 7941 1239 27090000 		.4byte	0x927
 7942 123d 00       		.byte	0
 7943 123e 21       		.uleb128 0x21
 7944 123f 43523200 		.ascii	"CR2\000"
 7945 1243 12       		.byte	0x12
 7946 1244 4202     		.2byte	0x242
 7947 1246 27090000 		.4byte	0x927
 7948 124a 04       		.byte	0x4
 7949 124b 18       		.uleb128 0x18
 7950 124c 5B280000 		.4byte	.LASF266
 7951 1250 12       		.byte	0x12
 7952 1251 4302     		.2byte	0x243
 7953 1253 27090000 		.4byte	0x927
 7954 1257 08       		.byte	0x8
 7955 1258 18       		.uleb128 0x18
 7956 1259 60280000 		.4byte	.LASF267
 7957 125d 12       		.byte	0x12
 7958 125e 4402     		.2byte	0x244
 7959 1260 27090000 		.4byte	0x927
 7960 1264 0C       		.byte	0xc
 7961 1265 21       		.uleb128 0x21
ARM GAS  C:\Users\mathi\AppData\Local\Temp\ccOm87JI.s 			page 141


 7962 1266 445200   		.ascii	"DR\000"
 7963 1269 12       		.byte	0x12
 7964 126a 4502     		.2byte	0x245
 7965 126c 27090000 		.4byte	0x927
 7966 1270 10       		.byte	0x10
 7967 1271 21       		.uleb128 0x21
 7968 1272 53523100 		.ascii	"SR1\000"
 7969 1276 12       		.byte	0x12
 7970 1277 4602     		.2byte	0x246
 7971 1279 27090000 		.4byte	0x927
 7972 127d 14       		.byte	0x14
 7973 127e 21       		.uleb128 0x21
 7974 127f 53523200 		.ascii	"SR2\000"
 7975 1283 12       		.byte	0x12
 7976 1284 4702     		.2byte	0x247
 7977 1286 27090000 		.4byte	0x927
 7978 128a 18       		.byte	0x18
 7979 128b 21       		.uleb128 0x21
 7980 128c 43435200 		.ascii	"CCR\000"
 7981 1290 12       		.byte	0x12
 7982 1291 4802     		.2byte	0x248
 7983 1293 27090000 		.4byte	0x927
 7984 1297 1C       		.byte	0x1c
 7985 1298 18       		.uleb128 0x18
 7986 1299 39060000 		.4byte	.LASF268
 7987 129d 12       		.byte	0x12
 7988 129e 4902     		.2byte	0x249
 7989 12a0 27090000 		.4byte	0x927
 7990 12a4 20       		.byte	0x20
 7991 12a5 18       		.uleb128 0x18
 7992 12a6 E4260000 		.4byte	.LASF269
 7993 12aa 12       		.byte	0x12
 7994 12ab 4A02     		.2byte	0x24a
 7995 12ad 27090000 		.4byte	0x927
 7996 12b1 24       		.byte	0x24
 7997 12b2 00       		.byte	0
 7998 12b3 07       		.uleb128 0x7
 7999 12b4 0A130000 		.4byte	.LASF270
 8000 12b8 12       		.byte	0x12
 8001 12b9 4B02     		.2byte	0x24b
 8002 12bb 28120000 		.4byte	0x1228
 8003 12bf 1C       		.uleb128 0x1c
 8004 12c0 88       		.byte	0x88
 8005 12c1 12       		.byte	0x12
 8006 12c2 6702     		.2byte	0x267
 8007 12c4 4E140000 		.4byte	0x144e
 8008 12c8 21       		.uleb128 0x21
 8009 12c9 435200   		.ascii	"CR\000"
 8010 12cc 12       		.byte	0x12
 8011 12cd 6902     		.2byte	0x269
 8012 12cf 27090000 		.4byte	0x927
 8013 12d3 00       		.byte	0
 8014 12d4 18       		.uleb128 0x18
 8015 12d5 781E0000 		.4byte	.LASF271
 8016 12d9 12       		.byte	0x12
 8017 12da 6A02     		.2byte	0x26a
 8018 12dc 27090000 		.4byte	0x927
ARM GAS  C:\Users\mathi\AppData\Local\Temp\ccOm87JI.s 			page 142


 8019 12e0 04       		.byte	0x4
 8020 12e1 18       		.uleb128 0x18
 8021 12e2 B2150000 		.4byte	.LASF272
 8022 12e6 12       		.byte	0x12
 8023 12e7 6B02     		.2byte	0x26b
 8024 12e9 27090000 		.4byte	0x927
 8025 12ed 08       		.byte	0x8
 8026 12ee 21       		.uleb128 0x21
 8027 12ef 43495200 		.ascii	"CIR\000"
 8028 12f3 12       		.byte	0x12
 8029 12f4 6C02     		.2byte	0x26c
 8030 12f6 27090000 		.4byte	0x927
 8031 12fa 0C       		.byte	0xc
 8032 12fb 18       		.uleb128 0x18
 8033 12fc 06280000 		.4byte	.LASF273
 8034 1300 12       		.byte	0x12
 8035 1301 6D02     		.2byte	0x26d
 8036 1303 27090000 		.4byte	0x927
 8037 1307 10       		.byte	0x10
 8038 1308 18       		.uleb128 0x18
 8039 1309 FF0C0000 		.4byte	.LASF274
 8040 130d 12       		.byte	0x12
 8041 130e 6E02     		.2byte	0x26e
 8042 1310 27090000 		.4byte	0x927
 8043 1314 14       		.byte	0x14
 8044 1315 18       		.uleb128 0x18
 8045 1316 9C190000 		.4byte	.LASF275
 8046 131a 12       		.byte	0x12
 8047 131b 6F02     		.2byte	0x26f
 8048 131d 27090000 		.4byte	0x927
 8049 1321 18       		.byte	0x18
 8050 1322 18       		.uleb128 0x18
 8051 1323 B4200000 		.4byte	.LASF235
 8052 1327 12       		.byte	0x12
 8053 1328 7002     		.2byte	0x270
 8054 132a 1C090000 		.4byte	0x91c
 8055 132e 1C       		.byte	0x1c
 8056 132f 18       		.uleb128 0x18
 8057 1330 81050000 		.4byte	.LASF276
 8058 1334 12       		.byte	0x12
 8059 1335 7102     		.2byte	0x271
 8060 1337 27090000 		.4byte	0x927
 8061 133b 20       		.byte	0x20
 8062 133c 18       		.uleb128 0x18
 8063 133d 90120000 		.4byte	.LASF277
 8064 1341 12       		.byte	0x12
 8065 1342 7202     		.2byte	0x272
 8066 1344 27090000 		.4byte	0x927
 8067 1348 24       		.byte	0x24
 8068 1349 18       		.uleb128 0x18
 8069 134a BE200000 		.4byte	.LASF238
 8070 134e 12       		.byte	0x12
 8071 134f 7302     		.2byte	0x273
 8072 1351 4E0D0000 		.4byte	0xd4e
 8073 1355 28       		.byte	0x28
 8074 1356 18       		.uleb128 0x18
 8075 1357 B3140000 		.4byte	.LASF278
ARM GAS  C:\Users\mathi\AppData\Local\Temp\ccOm87JI.s 			page 143


 8076 135b 12       		.byte	0x12
 8077 135c 7402     		.2byte	0x274
 8078 135e 27090000 		.4byte	0x927
 8079 1362 30       		.byte	0x30
 8080 1363 18       		.uleb128 0x18
 8081 1364 FE270000 		.4byte	.LASF279
 8082 1368 12       		.byte	0x12
 8083 1369 7502     		.2byte	0x275
 8084 136b 27090000 		.4byte	0x927
 8085 136f 34       		.byte	0x34
 8086 1370 18       		.uleb128 0x18
 8087 1371 89130000 		.4byte	.LASF280
 8088 1375 12       		.byte	0x12
 8089 1376 7602     		.2byte	0x276
 8090 1378 27090000 		.4byte	0x927
 8091 137c 38       		.byte	0x38
 8092 137d 18       		.uleb128 0x18
 8093 137e C8200000 		.4byte	.LASF240
 8094 1382 12       		.byte	0x12
 8095 1383 7702     		.2byte	0x277
 8096 1385 1C090000 		.4byte	0x91c
 8097 1389 3C       		.byte	0x3c
 8098 138a 18       		.uleb128 0x18
 8099 138b 721C0000 		.4byte	.LASF281
 8100 138f 12       		.byte	0x12
 8101 1390 7802     		.2byte	0x278
 8102 1392 27090000 		.4byte	0x927
 8103 1396 40       		.byte	0x40
 8104 1397 18       		.uleb128 0x18
 8105 1398 12080000 		.4byte	.LASF282
 8106 139c 12       		.byte	0x12
 8107 139d 7902     		.2byte	0x279
 8108 139f 27090000 		.4byte	0x927
 8109 13a3 44       		.byte	0x44
 8110 13a4 18       		.uleb128 0x18
 8111 13a5 D2200000 		.4byte	.LASF242
 8112 13a9 12       		.byte	0x12
 8113 13aa 7A02     		.2byte	0x27a
 8114 13ac 4E0D0000 		.4byte	0xd4e
 8115 13b0 48       		.byte	0x48
 8116 13b1 18       		.uleb128 0x18
 8117 13b2 F7210000 		.4byte	.LASF283
 8118 13b6 12       		.byte	0x12
 8119 13b7 7B02     		.2byte	0x27b
 8120 13b9 27090000 		.4byte	0x927
 8121 13bd 50       		.byte	0x50
 8122 13be 18       		.uleb128 0x18
 8123 13bf A00B0000 		.4byte	.LASF284
 8124 13c3 12       		.byte	0x12
 8125 13c4 7C02     		.2byte	0x27c
 8126 13c6 27090000 		.4byte	0x927
 8127 13ca 54       		.byte	0x54
 8128 13cb 18       		.uleb128 0x18
 8129 13cc 450B0000 		.4byte	.LASF285
 8130 13d0 12       		.byte	0x12
 8131 13d1 7D02     		.2byte	0x27d
 8132 13d3 27090000 		.4byte	0x927
ARM GAS  C:\Users\mathi\AppData\Local\Temp\ccOm87JI.s 			page 144


 8133 13d7 58       		.byte	0x58
 8134 13d8 18       		.uleb128 0x18
 8135 13d9 DC200000 		.4byte	.LASF244
 8136 13dd 12       		.byte	0x12
 8137 13de 7E02     		.2byte	0x27e
 8138 13e0 1C090000 		.4byte	0x91c
 8139 13e4 5C       		.byte	0x5c
 8140 13e5 18       		.uleb128 0x18
 8141 13e6 E9120000 		.4byte	.LASF286
 8142 13ea 12       		.byte	0x12
 8143 13eb 7F02     		.2byte	0x27f
 8144 13ed 27090000 		.4byte	0x927
 8145 13f1 60       		.byte	0x60
 8146 13f2 18       		.uleb128 0x18
 8147 13f3 9B230000 		.4byte	.LASF287
 8148 13f7 12       		.byte	0x12
 8149 13f8 8002     		.2byte	0x280
 8150 13fa 27090000 		.4byte	0x927
 8151 13fe 64       		.byte	0x64
 8152 13ff 18       		.uleb128 0x18
 8153 1400 E6200000 		.4byte	.LASF246
 8154 1404 12       		.byte	0x12
 8155 1405 8102     		.2byte	0x281
 8156 1407 4E0D0000 		.4byte	0xd4e
 8157 140b 68       		.byte	0x68
 8158 140c 18       		.uleb128 0x18
 8159 140d 961F0000 		.4byte	.LASF288
 8160 1411 12       		.byte	0x12
 8161 1412 8202     		.2byte	0x282
 8162 1414 27090000 		.4byte	0x927
 8163 1418 70       		.byte	0x70
 8164 1419 21       		.uleb128 0x21
 8165 141a 43535200 		.ascii	"CSR\000"
 8166 141e 12       		.byte	0x12
 8167 141f 8302     		.2byte	0x283
 8168 1421 27090000 		.4byte	0x927
 8169 1425 74       		.byte	0x74
 8170 1426 18       		.uleb128 0x18
 8171 1427 F0200000 		.4byte	.LASF289
 8172 142b 12       		.byte	0x12
 8173 142c 8402     		.2byte	0x284
 8174 142e 4E0D0000 		.4byte	0xd4e
 8175 1432 78       		.byte	0x78
 8176 1433 18       		.uleb128 0x18
 8177 1434 F1160000 		.4byte	.LASF290
 8178 1438 12       		.byte	0x12
 8179 1439 8502     		.2byte	0x285
 8180 143b 27090000 		.4byte	0x927
 8181 143f 80       		.byte	0x80
 8182 1440 18       		.uleb128 0x18
 8183 1441 53180000 		.4byte	.LASF291
 8184 1445 12       		.byte	0x12
 8185 1446 8602     		.2byte	0x286
 8186 1448 27090000 		.4byte	0x927
 8187 144c 84       		.byte	0x84
 8188 144d 00       		.byte	0
 8189 144e 07       		.uleb128 0x7
ARM GAS  C:\Users\mathi\AppData\Local\Temp\ccOm87JI.s 			page 145


 8190 144f 53010000 		.4byte	.LASF292
 8191 1453 12       		.byte	0x12
 8192 1454 8802     		.2byte	0x288
 8193 1456 BF120000 		.4byte	0x12bf
 8194 145a 1C       		.uleb128 0x1c
 8195 145b 84       		.byte	0x84
 8196 145c 12       		.byte	0x12
 8197 145d BF02     		.2byte	0x2bf
 8198 145f 68150000 		.4byte	0x1568
 8199 1463 18       		.uleb128 0x18
 8200 1464 4D180000 		.4byte	.LASF293
 8201 1468 12       		.byte	0x12
 8202 1469 C102     		.2byte	0x2c1
 8203 146b 27090000 		.4byte	0x927
 8204 146f 00       		.byte	0
 8205 1470 18       		.uleb128 0x18
 8206 1471 4F230000 		.4byte	.LASF294
 8207 1475 12       		.byte	0x12
 8208 1476 C202     		.2byte	0x2c2
 8209 1478 27090000 		.4byte	0x927
 8210 147c 04       		.byte	0x4
 8211 147d 21       		.uleb128 0x21
 8212 147e 41524700 		.ascii	"ARG\000"
 8213 1482 12       		.byte	0x12
 8214 1483 C302     		.2byte	0x2c3
 8215 1485 27090000 		.4byte	0x927
 8216 1489 08       		.byte	0x8
 8217 148a 21       		.uleb128 0x21
 8218 148b 434D4400 		.ascii	"CMD\000"
 8219 148f 12       		.byte	0x12
 8220 1490 C402     		.2byte	0x2c4
 8221 1492 27090000 		.4byte	0x927
 8222 1496 0C       		.byte	0xc
 8223 1497 18       		.uleb128 0x18
 8224 1498 661B0000 		.4byte	.LASF295
 8225 149c 12       		.byte	0x12
 8226 149d C502     		.2byte	0x2c5
 8227 149f 2C090000 		.4byte	0x92c
 8228 14a3 10       		.byte	0x10
 8229 14a4 18       		.uleb128 0x18
 8230 14a5 74070000 		.4byte	.LASF296
 8231 14a9 12       		.byte	0x12
 8232 14aa C602     		.2byte	0x2c6
 8233 14ac 2C090000 		.4byte	0x92c
 8234 14b0 14       		.byte	0x14
 8235 14b1 18       		.uleb128 0x18
 8236 14b2 7A070000 		.4byte	.LASF297
 8237 14b6 12       		.byte	0x12
 8238 14b7 C702     		.2byte	0x2c7
 8239 14b9 2C090000 		.4byte	0x92c
 8240 14bd 18       		.byte	0x18
 8241 14be 18       		.uleb128 0x18
 8242 14bf 80070000 		.4byte	.LASF298
 8243 14c3 12       		.byte	0x12
 8244 14c4 C802     		.2byte	0x2c8
 8245 14c6 2C090000 		.4byte	0x92c
 8246 14ca 1C       		.byte	0x1c
ARM GAS  C:\Users\mathi\AppData\Local\Temp\ccOm87JI.s 			page 146


 8247 14cb 18       		.uleb128 0x18
 8248 14cc 86070000 		.4byte	.LASF299
 8249 14d0 12       		.byte	0x12
 8250 14d1 C902     		.2byte	0x2c9
 8251 14d3 2C090000 		.4byte	0x92c
 8252 14d7 20       		.byte	0x20
 8253 14d8 18       		.uleb128 0x18
 8254 14d9 84140000 		.4byte	.LASF300
 8255 14dd 12       		.byte	0x12
 8256 14de CA02     		.2byte	0x2ca
 8257 14e0 27090000 		.4byte	0x927
 8258 14e4 24       		.byte	0x24
 8259 14e5 18       		.uleb128 0x18
 8260 14e6 EC160000 		.4byte	.LASF301
 8261 14ea 12       		.byte	0x12
 8262 14eb CB02     		.2byte	0x2cb
 8263 14ed 27090000 		.4byte	0x927
 8264 14f1 28       		.byte	0x28
 8265 14f2 18       		.uleb128 0x18
 8266 14f3 D0260000 		.4byte	.LASF302
 8267 14f7 12       		.byte	0x12
 8268 14f8 CC02     		.2byte	0x2cc
 8269 14fa 27090000 		.4byte	0x927
 8270 14fe 2C       		.byte	0x2c
 8271 14ff 18       		.uleb128 0x18
 8272 1500 54280000 		.4byte	.LASF303
 8273 1504 12       		.byte	0x12
 8274 1505 CD02     		.2byte	0x2cd
 8275 1507 2C090000 		.4byte	0x92c
 8276 150b 30       		.byte	0x30
 8277 150c 21       		.uleb128 0x21
 8278 150d 53544100 		.ascii	"STA\000"
 8279 1511 12       		.byte	0x12
 8280 1512 CE02     		.2byte	0x2ce
 8281 1514 2C090000 		.4byte	0x92c
 8282 1518 34       		.byte	0x34
 8283 1519 21       		.uleb128 0x21
 8284 151a 49435200 		.ascii	"ICR\000"
 8285 151e 12       		.byte	0x12
 8286 151f CF02     		.2byte	0x2cf
 8287 1521 27090000 		.4byte	0x927
 8288 1525 38       		.byte	0x38
 8289 1526 18       		.uleb128 0x18
 8290 1527 CD020000 		.4byte	.LASF304
 8291 152b 12       		.byte	0x12
 8292 152c D002     		.2byte	0x2d0
 8293 152e 27090000 		.4byte	0x927
 8294 1532 3C       		.byte	0x3c
 8295 1533 18       		.uleb128 0x18
 8296 1534 B4200000 		.4byte	.LASF235
 8297 1538 12       		.byte	0x12
 8298 1539 D102     		.2byte	0x2d1
 8299 153b 4E0D0000 		.4byte	0xd4e
 8300 153f 40       		.byte	0x40
 8301 1540 18       		.uleb128 0x18
 8302 1541 BF150000 		.4byte	.LASF305
 8303 1545 12       		.byte	0x12
ARM GAS  C:\Users\mathi\AppData\Local\Temp\ccOm87JI.s 			page 147


 8304 1546 D202     		.2byte	0x2d2
 8305 1548 2C090000 		.4byte	0x92c
 8306 154c 48       		.byte	0x48
 8307 154d 18       		.uleb128 0x18
 8308 154e BE200000 		.4byte	.LASF238
 8309 1552 12       		.byte	0x12
 8310 1553 D302     		.2byte	0x2d3
 8311 1555 68150000 		.4byte	0x1568
 8312 1559 4C       		.byte	0x4c
 8313 155a 18       		.uleb128 0x18
 8314 155b D60A0000 		.4byte	.LASF306
 8315 155f 12       		.byte	0x12
 8316 1560 D402     		.2byte	0x2d4
 8317 1562 27090000 		.4byte	0x927
 8318 1566 80       		.byte	0x80
 8319 1567 00       		.byte	0
 8320 1568 0A       		.uleb128 0xa
 8321 1569 1C090000 		.4byte	0x91c
 8322 156d 78150000 		.4byte	0x1578
 8323 1571 0B       		.uleb128 0xb
 8324 1572 25000000 		.4byte	0x25
 8325 1576 0C       		.byte	0xc
 8326 1577 00       		.byte	0
 8327 1578 07       		.uleb128 0x7
 8328 1579 E3210000 		.4byte	.LASF307
 8329 157d 12       		.byte	0x12
 8330 157e D502     		.2byte	0x2d5
 8331 1580 5A140000 		.4byte	0x145a
 8332 1584 1C       		.uleb128 0x1c
 8333 1585 24       		.byte	0x24
 8334 1586 12       		.byte	0x12
 8335 1587 DB02     		.2byte	0x2db
 8336 1589 01160000 		.4byte	0x1601
 8337 158d 21       		.uleb128 0x21
 8338 158e 43523100 		.ascii	"CR1\000"
 8339 1592 12       		.byte	0x12
 8340 1593 DD02     		.2byte	0x2dd
 8341 1595 27090000 		.4byte	0x927
 8342 1599 00       		.byte	0
 8343 159a 21       		.uleb128 0x21
 8344 159b 43523200 		.ascii	"CR2\000"
 8345 159f 12       		.byte	0x12
 8346 15a0 DE02     		.2byte	0x2de
 8347 15a2 27090000 		.4byte	0x927
 8348 15a6 04       		.byte	0x4
 8349 15a7 21       		.uleb128 0x21
 8350 15a8 535200   		.ascii	"SR\000"
 8351 15ab 12       		.byte	0x12
 8352 15ac DF02     		.2byte	0x2df
 8353 15ae 27090000 		.4byte	0x927
 8354 15b2 08       		.byte	0x8
 8355 15b3 21       		.uleb128 0x21
 8356 15b4 445200   		.ascii	"DR\000"
 8357 15b7 12       		.byte	0x12
 8358 15b8 E002     		.2byte	0x2e0
 8359 15ba 27090000 		.4byte	0x927
 8360 15be 0C       		.byte	0xc
ARM GAS  C:\Users\mathi\AppData\Local\Temp\ccOm87JI.s 			page 148


 8361 15bf 18       		.uleb128 0x18
 8362 15c0 DB080000 		.4byte	.LASF308
 8363 15c4 12       		.byte	0x12
 8364 15c5 E102     		.2byte	0x2e1
 8365 15c7 27090000 		.4byte	0x927
 8366 15cb 10       		.byte	0x10
 8367 15cc 18       		.uleb128 0x18
 8368 15cd D00C0000 		.4byte	.LASF309
 8369 15d1 12       		.byte	0x12
 8370 15d2 E202     		.2byte	0x2e2
 8371 15d4 27090000 		.4byte	0x927
 8372 15d8 14       		.byte	0x14
 8373 15d9 18       		.uleb128 0x18
 8374 15da D00B0000 		.4byte	.LASF310
 8375 15de 12       		.byte	0x12
 8376 15df E302     		.2byte	0x2e3
 8377 15e1 27090000 		.4byte	0x927
 8378 15e5 18       		.byte	0x18
 8379 15e6 18       		.uleb128 0x18
 8380 15e7 77240000 		.4byte	.LASF311
 8381 15eb 12       		.byte	0x12
 8382 15ec E402     		.2byte	0x2e4
 8383 15ee 27090000 		.4byte	0x927
 8384 15f2 1C       		.byte	0x1c
 8385 15f3 18       		.uleb128 0x18
 8386 15f4 9E080000 		.4byte	.LASF312
 8387 15f8 12       		.byte	0x12
 8388 15f9 E502     		.2byte	0x2e5
 8389 15fb 27090000 		.4byte	0x927
 8390 15ff 20       		.byte	0x20
 8391 1600 00       		.byte	0
 8392 1601 07       		.uleb128 0x7
 8393 1602 61220000 		.4byte	.LASF313
 8394 1606 12       		.byte	0x12
 8395 1607 E602     		.2byte	0x2e6
 8396 1609 84150000 		.4byte	0x1584
 8397 160d 1C       		.uleb128 0x1c
 8398 160e 1C       		.byte	0x1c
 8399 160f 12       		.byte	0x12
 8400 1610 0903     		.2byte	0x309
 8401 1612 70160000 		.4byte	0x1670
 8402 1616 21       		.uleb128 0x21
 8403 1617 535200   		.ascii	"SR\000"
 8404 161a 12       		.byte	0x12
 8405 161b 0B03     		.2byte	0x30b
 8406 161d 27090000 		.4byte	0x927
 8407 1621 00       		.byte	0
 8408 1622 21       		.uleb128 0x21
 8409 1623 445200   		.ascii	"DR\000"
 8410 1626 12       		.byte	0x12
 8411 1627 0C03     		.2byte	0x30c
 8412 1629 27090000 		.4byte	0x927
 8413 162d 04       		.byte	0x4
 8414 162e 21       		.uleb128 0x21
 8415 162f 42525200 		.ascii	"BRR\000"
 8416 1633 12       		.byte	0x12
 8417 1634 0D03     		.2byte	0x30d
ARM GAS  C:\Users\mathi\AppData\Local\Temp\ccOm87JI.s 			page 149


 8418 1636 27090000 		.4byte	0x927
 8419 163a 08       		.byte	0x8
 8420 163b 21       		.uleb128 0x21
 8421 163c 43523100 		.ascii	"CR1\000"
 8422 1640 12       		.byte	0x12
 8423 1641 0E03     		.2byte	0x30e
 8424 1643 27090000 		.4byte	0x927
 8425 1647 0C       		.byte	0xc
 8426 1648 21       		.uleb128 0x21
 8427 1649 43523200 		.ascii	"CR2\000"
 8428 164d 12       		.byte	0x12
 8429 164e 0F03     		.2byte	0x30f
 8430 1650 27090000 		.4byte	0x927
 8431 1654 10       		.byte	0x10
 8432 1655 21       		.uleb128 0x21
 8433 1656 43523300 		.ascii	"CR3\000"
 8434 165a 12       		.byte	0x12
 8435 165b 1003     		.2byte	0x310
 8436 165d 27090000 		.4byte	0x927
 8437 1661 14       		.byte	0x14
 8438 1662 18       		.uleb128 0x18
 8439 1663 CB0F0000 		.4byte	.LASF314
 8440 1667 12       		.byte	0x12
 8441 1668 1103     		.2byte	0x311
 8442 166a 27090000 		.4byte	0x927
 8443 166e 18       		.byte	0x18
 8444 166f 00       		.byte	0
 8445 1670 07       		.uleb128 0x7
 8446 1671 94270000 		.4byte	.LASF315
 8447 1675 12       		.byte	0x12
 8448 1676 1203     		.2byte	0x312
 8449 1678 0D160000 		.4byte	0x160d
 8450 167c 0A       		.uleb128 0xa
 8451 167d 27090000 		.4byte	0x927
 8452 1681 8C160000 		.4byte	0x168c
 8453 1685 0B       		.uleb128 0xb
 8454 1686 25000000 		.4byte	0x25
 8455 168a 0E       		.byte	0xe
 8456 168b 00       		.byte	0
 8457 168c 1A       		.uleb128 0x1a
 8458 168d 7C160000 		.4byte	0x167c
 8459 1691 04       		.uleb128 0x4
 8460 1692 931A0000 		.4byte	.LASF316
 8461 1696 13       		.byte	0x13
 8462 1697 65       		.byte	0x65
 8463 1698 5D010000 		.4byte	0x15d
 8464 169c 04       		.uleb128 0x4
 8465 169d 7E0A0000 		.4byte	.LASF317
 8466 16a1 13       		.byte	0x13
 8467 16a2 6D       		.byte	0x6d
 8468 16a3 31090000 		.4byte	0x931
 8469 16a7 10       		.uleb128 0x10
 8470 16a8 69130000 		.4byte	.LASF318
 8471 16ac 04       		.byte	0x4
 8472 16ad 13       		.byte	0x13
 8473 16ae 89       		.byte	0x89
 8474 16af C0160000 		.4byte	0x16c0
ARM GAS  C:\Users\mathi\AppData\Local\Temp\ccOm87JI.s 			page 150


 8475 16b3 11       		.uleb128 0x11
 8476 16b4 72313300 		.ascii	"r13\000"
 8477 16b8 13       		.byte	0x13
 8478 16b9 8A       		.byte	0x8a
 8479 16ba 01180000 		.4byte	0x1801
 8480 16be 00       		.byte	0
 8481 16bf 00       		.byte	0
 8482 16c0 10       		.uleb128 0x10
 8483 16c1 09000000 		.4byte	.LASF319
 8484 16c5 64       		.byte	0x64
 8485 16c6 14       		.byte	0x14
 8486 16c7 F4       		.byte	0xf4
 8487 16c8 01180000 		.4byte	0x1801
 8488 16cc 11       		.uleb128 0x11
 8489 16cd 73313600 		.ascii	"s16\000"
 8490 16d1 14       		.byte	0x14
 8491 16d2 F6       		.byte	0xf6
 8492 16d3 91160000 		.4byte	0x1691
 8493 16d7 00       		.byte	0
 8494 16d8 11       		.uleb128 0x11
 8495 16d9 73313700 		.ascii	"s17\000"
 8496 16dd 14       		.byte	0x14
 8497 16de F7       		.byte	0xf7
 8498 16df 91160000 		.4byte	0x1691
 8499 16e3 04       		.byte	0x4
 8500 16e4 11       		.uleb128 0x11
 8501 16e5 73313800 		.ascii	"s18\000"
 8502 16e9 14       		.byte	0x14
 8503 16ea F8       		.byte	0xf8
 8504 16eb 91160000 		.4byte	0x1691
 8505 16ef 08       		.byte	0x8
 8506 16f0 11       		.uleb128 0x11
 8507 16f1 73313900 		.ascii	"s19\000"
 8508 16f5 14       		.byte	0x14
 8509 16f6 F9       		.byte	0xf9
 8510 16f7 91160000 		.4byte	0x1691
 8511 16fb 0C       		.byte	0xc
 8512 16fc 11       		.uleb128 0x11
 8513 16fd 73323000 		.ascii	"s20\000"
 8514 1701 14       		.byte	0x14
 8515 1702 FA       		.byte	0xfa
 8516 1703 91160000 		.4byte	0x1691
 8517 1707 10       		.byte	0x10
 8518 1708 11       		.uleb128 0x11
 8519 1709 73323100 		.ascii	"s21\000"
 8520 170d 14       		.byte	0x14
 8521 170e FB       		.byte	0xfb
 8522 170f 91160000 		.4byte	0x1691
 8523 1713 14       		.byte	0x14
 8524 1714 11       		.uleb128 0x11
 8525 1715 73323200 		.ascii	"s22\000"
 8526 1719 14       		.byte	0x14
 8527 171a FC       		.byte	0xfc
 8528 171b 91160000 		.4byte	0x1691
 8529 171f 18       		.byte	0x18
 8530 1720 11       		.uleb128 0x11
 8531 1721 73323300 		.ascii	"s23\000"
ARM GAS  C:\Users\mathi\AppData\Local\Temp\ccOm87JI.s 			page 151


 8532 1725 14       		.byte	0x14
 8533 1726 FD       		.byte	0xfd
 8534 1727 91160000 		.4byte	0x1691
 8535 172b 1C       		.byte	0x1c
 8536 172c 11       		.uleb128 0x11
 8537 172d 73323400 		.ascii	"s24\000"
 8538 1731 14       		.byte	0x14
 8539 1732 FE       		.byte	0xfe
 8540 1733 91160000 		.4byte	0x1691
 8541 1737 20       		.byte	0x20
 8542 1738 11       		.uleb128 0x11
 8543 1739 73323500 		.ascii	"s25\000"
 8544 173d 14       		.byte	0x14
 8545 173e FF       		.byte	0xff
 8546 173f 91160000 		.4byte	0x1691
 8547 1743 24       		.byte	0x24
 8548 1744 21       		.uleb128 0x21
 8549 1745 73323600 		.ascii	"s26\000"
 8550 1749 14       		.byte	0x14
 8551 174a 0001     		.2byte	0x100
 8552 174c 91160000 		.4byte	0x1691
 8553 1750 28       		.byte	0x28
 8554 1751 21       		.uleb128 0x21
 8555 1752 73323700 		.ascii	"s27\000"
 8556 1756 14       		.byte	0x14
 8557 1757 0101     		.2byte	0x101
 8558 1759 91160000 		.4byte	0x1691
 8559 175d 2C       		.byte	0x2c
 8560 175e 21       		.uleb128 0x21
 8561 175f 73323800 		.ascii	"s28\000"
 8562 1763 14       		.byte	0x14
 8563 1764 0201     		.2byte	0x102
 8564 1766 91160000 		.4byte	0x1691
 8565 176a 30       		.byte	0x30
 8566 176b 21       		.uleb128 0x21
 8567 176c 73323900 		.ascii	"s29\000"
 8568 1770 14       		.byte	0x14
 8569 1771 0301     		.2byte	0x103
 8570 1773 91160000 		.4byte	0x1691
 8571 1777 34       		.byte	0x34
 8572 1778 21       		.uleb128 0x21
 8573 1779 73333000 		.ascii	"s30\000"
 8574 177d 14       		.byte	0x14
 8575 177e 0401     		.2byte	0x104
 8576 1780 91160000 		.4byte	0x1691
 8577 1784 38       		.byte	0x38
 8578 1785 21       		.uleb128 0x21
 8579 1786 73333100 		.ascii	"s31\000"
 8580 178a 14       		.byte	0x14
 8581 178b 0501     		.2byte	0x105
 8582 178d 91160000 		.4byte	0x1691
 8583 1791 3C       		.byte	0x3c
 8584 1792 21       		.uleb128 0x21
 8585 1793 723400   		.ascii	"r4\000"
 8586 1796 14       		.byte	0x14
 8587 1797 0701     		.2byte	0x107
 8588 1799 91160000 		.4byte	0x1691
ARM GAS  C:\Users\mathi\AppData\Local\Temp\ccOm87JI.s 			page 152


 8589 179d 40       		.byte	0x40
 8590 179e 21       		.uleb128 0x21
 8591 179f 723500   		.ascii	"r5\000"
 8592 17a2 14       		.byte	0x14
 8593 17a3 0801     		.2byte	0x108
 8594 17a5 91160000 		.4byte	0x1691
 8595 17a9 44       		.byte	0x44
 8596 17aa 21       		.uleb128 0x21
 8597 17ab 723600   		.ascii	"r6\000"
 8598 17ae 14       		.byte	0x14
 8599 17af 0901     		.2byte	0x109
 8600 17b1 91160000 		.4byte	0x1691
 8601 17b5 48       		.byte	0x48
 8602 17b6 21       		.uleb128 0x21
 8603 17b7 723700   		.ascii	"r7\000"
 8604 17ba 14       		.byte	0x14
 8605 17bb 0A01     		.2byte	0x10a
 8606 17bd 91160000 		.4byte	0x1691
 8607 17c1 4C       		.byte	0x4c
 8608 17c2 21       		.uleb128 0x21
 8609 17c3 723800   		.ascii	"r8\000"
 8610 17c6 14       		.byte	0x14
 8611 17c7 0B01     		.2byte	0x10b
 8612 17c9 91160000 		.4byte	0x1691
 8613 17cd 50       		.byte	0x50
 8614 17ce 21       		.uleb128 0x21
 8615 17cf 723900   		.ascii	"r9\000"
 8616 17d2 14       		.byte	0x14
 8617 17d3 0C01     		.2byte	0x10c
 8618 17d5 91160000 		.4byte	0x1691
 8619 17d9 54       		.byte	0x54
 8620 17da 21       		.uleb128 0x21
 8621 17db 72313000 		.ascii	"r10\000"
 8622 17df 14       		.byte	0x14
 8623 17e0 0D01     		.2byte	0x10d
 8624 17e2 91160000 		.4byte	0x1691
 8625 17e6 58       		.byte	0x58
 8626 17e7 21       		.uleb128 0x21
 8627 17e8 72313100 		.ascii	"r11\000"
 8628 17ec 14       		.byte	0x14
 8629 17ed 0E01     		.2byte	0x10e
 8630 17ef 91160000 		.4byte	0x1691
 8631 17f3 5C       		.byte	0x5c
 8632 17f4 21       		.uleb128 0x21
 8633 17f5 6C7200   		.ascii	"lr\000"
 8634 17f8 14       		.byte	0x14
 8635 17f9 0F01     		.2byte	0x10f
 8636 17fb 91160000 		.4byte	0x1691
 8637 17ff 60       		.byte	0x60
 8638 1800 00       		.byte	0
 8639 1801 05       		.uleb128 0x5
 8640 1802 04       		.byte	0x4
 8641 1803 C0160000 		.4byte	0x16c0
 8642 1807 0C       		.uleb128 0xc
 8643 1808 10       		.byte	0x10
 8644 1809 15       		.byte	0x15
 8645 180a 51       		.byte	0x51
ARM GAS  C:\Users\mathi\AppData\Local\Temp\ccOm87JI.s 			page 153


 8646 180b 40180000 		.4byte	0x1840
 8647 180f 0D       		.uleb128 0xd
 8648 1810 32210000 		.4byte	.LASF320
 8649 1814 15       		.byte	0x15
 8650 1815 55       		.byte	0x55
 8651 1816 C0090000 		.4byte	0x9c0
 8652 181a 00       		.byte	0
 8653 181b 0D       		.uleb128 0xd
 8654 181c 321B0000 		.4byte	.LASF321
 8655 1820 15       		.byte	0x15
 8656 1821 59       		.byte	0x59
 8657 1822 040B0000 		.4byte	0xb04
 8658 1826 04       		.byte	0x4
 8659 1827 0D       		.uleb128 0xd
 8660 1828 6F0D0000 		.4byte	.LASF322
 8661 182c 15       		.byte	0x15
 8662 182d 5D       		.byte	0x5d
 8663 182e 5D010000 		.4byte	0x15d
 8664 1832 08       		.byte	0x8
 8665 1833 0D       		.uleb128 0xd
 8666 1834 690B0000 		.4byte	.LASF323
 8667 1838 15       		.byte	0x15
 8668 1839 61       		.byte	0x61
 8669 183a E6080000 		.4byte	0x8e6
 8670 183e 0C       		.byte	0xc
 8671 183f 00       		.byte	0
 8672 1840 04       		.uleb128 0x4
 8673 1841 420E0000 		.4byte	.LASF324
 8674 1845 15       		.byte	0x15
 8675 1846 62       		.byte	0x62
 8676 1847 07180000 		.4byte	0x1807
 8677 184b 25       		.uleb128 0x25
 8678 184c 0804     		.2byte	0x408
 8679 184e 15       		.byte	0x15
 8680 184f 67       		.byte	0x67
 8681 1850 79180000 		.4byte	0x1879
 8682 1854 0D       		.uleb128 0xd
 8683 1855 180F0000 		.4byte	.LASF325
 8684 1859 15       		.byte	0x15
 8685 185a 6B       		.byte	0x6b
 8686 185b 25000000 		.4byte	0x25
 8687 185f 00       		.byte	0
 8688 1860 0D       		.uleb128 0xd
 8689 1861 04160000 		.4byte	.LASF326
 8690 1865 15       		.byte	0x15
 8691 1866 6F       		.byte	0x6f
 8692 1867 79180000 		.4byte	0x1879
 8693 186b 04       		.byte	0x4
 8694 186c 0D       		.uleb128 0xd
 8695 186d DB0A0000 		.4byte	.LASF327
 8696 1871 15       		.byte	0x15
 8697 1872 73       		.byte	0x73
 8698 1873 7F180000 		.4byte	0x187f
 8699 1877 08       		.byte	0x8
 8700 1878 00       		.byte	0
 8701 1879 05       		.uleb128 0x5
 8702 187a 04       		.byte	0x4
ARM GAS  C:\Users\mathi\AppData\Local\Temp\ccOm87JI.s 			page 154


 8703 187b 40180000 		.4byte	0x1840
 8704 187f 0A       		.uleb128 0xa
 8705 1880 40180000 		.4byte	0x1840
 8706 1884 8F180000 		.4byte	0x188f
 8707 1888 0B       		.uleb128 0xb
 8708 1889 25000000 		.4byte	0x25
 8709 188d 3F       		.byte	0x3f
 8710 188e 00       		.byte	0
 8711 188f 04       		.uleb128 0x4
 8712 1890 15000000 		.4byte	.LASF328
 8713 1894 15       		.byte	0x15
 8714 1895 74       		.byte	0x74
 8715 1896 4B180000 		.4byte	0x184b
 8716 189a 0C       		.uleb128 0xc
 8717 189b 04       		.byte	0x4
 8718 189c 16       		.byte	0x16
 8719 189d 38       		.byte	0x38
 8720 189e AF180000 		.4byte	0x18af
 8721 18a2 0D       		.uleb128 0xd
 8722 18a3 F0210000 		.4byte	.LASF329
 8723 18a7 16       		.byte	0x16
 8724 18a8 3C       		.byte	0x3c
 8725 18a9 3C090000 		.4byte	0x93c
 8726 18ad 00       		.byte	0
 8727 18ae 00       		.byte	0
 8728 18af 04       		.uleb128 0x4
 8729 18b0 96060000 		.4byte	.LASF330
 8730 18b4 16       		.byte	0x16
 8731 18b5 3D       		.byte	0x3d
 8732 18b6 9A180000 		.4byte	0x189a
 8733 18ba 0C       		.uleb128 0xc
 8734 18bb 18       		.byte	0x18
 8735 18bc 16       		.byte	0x16
 8736 18bd 48       		.byte	0x48
 8737 18be FD180000 		.4byte	0x18fd
 8738 18c2 0D       		.uleb128 0xd
 8739 18c3 AF080000 		.4byte	.LASF331
 8740 18c7 16       		.byte	0x16
 8741 18c8 49       		.byte	0x49
 8742 18c9 3C090000 		.4byte	0x93c
 8743 18cd 00       		.byte	0
 8744 18ce 0D       		.uleb128 0xd
 8745 18cf 2E010000 		.4byte	.LASF332
 8746 18d3 16       		.byte	0x16
 8747 18d4 4A       		.byte	0x4a
 8748 18d5 3C090000 		.4byte	0x93c
 8749 18d9 04       		.byte	0x4
 8750 18da 0D       		.uleb128 0xd
 8751 18db 3C1A0000 		.4byte	.LASF333
 8752 18df 16       		.byte	0x16
 8753 18e0 4B       		.byte	0x4b
 8754 18e1 3C090000 		.4byte	0x93c
 8755 18e5 08       		.byte	0x8
 8756 18e6 11       		.uleb128 0x11
 8757 18e7 6E00     		.ascii	"n\000"
 8758 18e9 16       		.byte	0x16
 8759 18ea 4C       		.byte	0x4c
ARM GAS  C:\Users\mathi\AppData\Local\Temp\ccOm87JI.s 			page 155


 8760 18eb B5090000 		.4byte	0x9b5
 8761 18ef 0C       		.byte	0xc
 8762 18f0 0D       		.uleb128 0xd
 8763 18f1 E0190000 		.4byte	.LASF334
 8764 18f5 16       		.byte	0x16
 8765 18f6 4D       		.byte	0x4d
 8766 18f7 47090000 		.4byte	0x947
 8767 18fb 10       		.byte	0x10
 8768 18fc 00       		.byte	0
 8769 18fd 04       		.uleb128 0x4
 8770 18fe E7240000 		.4byte	.LASF335
 8771 1902 16       		.byte	0x16
 8772 1903 4E       		.byte	0x4e
 8773 1904 BA180000 		.4byte	0x18ba
 8774 1908 0C       		.uleb128 0xc
 8775 1909 38       		.byte	0x38
 8776 190a 17       		.byte	0x17
 8777 190b 38       		.byte	0x38
 8778 190c 41190000 		.4byte	0x1941
 8779 1910 0D       		.uleb128 0xd
 8780 1911 FC070000 		.4byte	.LASF336
 8781 1915 17       		.byte	0x17
 8782 1916 39       		.byte	0x39
 8783 1917 B5090000 		.4byte	0x9b5
 8784 191b 00       		.byte	0
 8785 191c 0D       		.uleb128 0xd
 8786 191d 390C0000 		.4byte	.LASF337
 8787 1921 17       		.byte	0x17
 8788 1922 3A       		.byte	0x3a
 8789 1923 B5090000 		.4byte	0x9b5
 8790 1927 04       		.byte	0x4
 8791 1928 0D       		.uleb128 0xd
 8792 1929 5A240000 		.4byte	.LASF338
 8793 192d 17       		.byte	0x17
 8794 192e 3B       		.byte	0x3b
 8795 192f FD180000 		.4byte	0x18fd
 8796 1933 08       		.byte	0x8
 8797 1934 0D       		.uleb128 0xd
 8798 1935 6D000000 		.4byte	.LASF339
 8799 1939 17       		.byte	0x17
 8800 193a 3D       		.byte	0x3d
 8801 193b FD180000 		.4byte	0x18fd
 8802 193f 20       		.byte	0x20
 8803 1940 00       		.byte	0
 8804 1941 04       		.uleb128 0x4
 8805 1942 52060000 		.4byte	.LASF340
 8806 1946 17       		.byte	0x17
 8807 1947 3F       		.byte	0x3f
 8808 1948 08190000 		.4byte	0x1908
 8809 194c 08       		.uleb128 0x8
 8810 194d 04       		.byte	0x4
 8811 194e 0F       		.byte	0xf
 8812 194f FA       		.byte	0xfa
 8813 1950 A9190000 		.4byte	0x19a9
 8814 1954 1E       		.uleb128 0x1e
 8815 1955 2C110000 		.4byte	.LASF341
 8816 1959 0F       		.byte	0xf
ARM GAS  C:\Users\mathi\AppData\Local\Temp\ccOm87JI.s 			page 156


 8817 195a 0101     		.2byte	0x101
 8818 195c 89090000 		.4byte	0x989
 8819 1960 1E       		.uleb128 0x1e
 8820 1961 77090000 		.4byte	.LASF342
 8821 1965 0F       		.byte	0xf
 8822 1966 0801     		.2byte	0x108
 8823 1968 89090000 		.4byte	0x989
 8824 196c 1E       		.uleb128 0x1e
 8825 196d CB1E0000 		.4byte	.LASF343
 8826 1971 0F       		.byte	0xf
 8827 1972 0F01     		.2byte	0x10f
 8828 1974 5D010000 		.4byte	0x15d
 8829 1978 1E       		.uleb128 0x1e
 8830 1979 011A0000 		.4byte	.LASF344
 8831 197d 0F       		.byte	0xf
 8832 197e 1601     		.2byte	0x116
 8833 1980 A9190000 		.4byte	0x19a9
 8834 1984 1E       		.uleb128 0x1e
 8835 1985 D2000000 		.4byte	.LASF345
 8836 1989 0F       		.byte	0xf
 8837 198a 1E01     		.2byte	0x11e
 8838 198c D4190000 		.4byte	0x19d4
 8839 1990 1E       		.uleb128 0x1e
 8840 1991 121F0000 		.4byte	.LASF346
 8841 1995 0F       		.byte	0xf
 8842 1996 2701     		.2byte	0x127
 8843 1998 171A0000 		.4byte	0x1a17
 8844 199c 1E       		.uleb128 0x1e
 8845 199d A9220000 		.4byte	.LASF347
 8846 19a1 0F       		.byte	0xf
 8847 19a2 2F01     		.2byte	0x12f
 8848 19a4 94090000 		.4byte	0x994
 8849 19a8 00       		.byte	0
 8850 19a9 05       		.uleb128 0x5
 8851 19aa 04       		.byte	0x4
 8852 19ab F90A0000 		.4byte	0xaf9
 8853 19af 10       		.uleb128 0x10
 8854 19b0 B5180000 		.4byte	.LASF348
 8855 19b4 0C       		.byte	0xc
 8856 19b5 18       		.byte	0x18
 8857 19b6 34       		.byte	0x34
 8858 19b7 D4190000 		.4byte	0x19d4
 8859 19bb 0D       		.uleb128 0xd
 8860 19bc 52240000 		.4byte	.LASF349
 8861 19c0 18       		.byte	0x18
 8862 19c1 35       		.byte	0x35
 8863 19c2 2E0B0000 		.4byte	0xb2e
 8864 19c6 00       		.byte	0
 8865 19c7 0D       		.uleb128 0xd
 8866 19c8 ED0A0000 		.4byte	.LASF350
 8867 19cc 18       		.byte	0x18
 8868 19cd 37       		.byte	0x37
 8869 19ce AA090000 		.4byte	0x9aa
 8870 19d2 08       		.byte	0x8
 8871 19d3 00       		.byte	0
 8872 19d4 05       		.uleb128 0x5
 8873 19d5 04       		.byte	0x4
ARM GAS  C:\Users\mathi\AppData\Local\Temp\ccOm87JI.s 			page 157


 8874 19d6 AF190000 		.4byte	0x19af
 8875 19da 10       		.uleb128 0x10
 8876 19db E30C0000 		.4byte	.LASF351
 8877 19df 14       		.byte	0x14
 8878 19e0 19       		.byte	0x19
 8879 19e1 39       		.byte	0x39
 8880 19e2 171A0000 		.4byte	0x1a17
 8881 19e6 0D       		.uleb128 0xd
 8882 19e7 13140000 		.4byte	.LASF352
 8883 19eb 19       		.byte	0x19
 8884 19ec 3A       		.byte	0x3a
 8885 19ed 2E0B0000 		.4byte	0xb2e
 8886 19f1 00       		.byte	0
 8887 19f2 0D       		.uleb128 0xd
 8888 19f3 81170000 		.4byte	.LASF353
 8889 19f7 19       		.byte	0x19
 8890 19f8 3C       		.byte	0x3c
 8891 19f9 040B0000 		.4byte	0xb04
 8892 19fd 08       		.byte	0x8
 8893 19fe 0D       		.uleb128 0xd
 8894 19ff 71010000 		.4byte	.LASF354
 8895 1a03 19       		.byte	0x19
 8896 1a04 3E       		.byte	0x3e
 8897 1a05 5B1B0000 		.4byte	0x1b5b
 8898 1a09 0C       		.byte	0xc
 8899 1a0a 0D       		.uleb128 0xd
 8900 1a0b FF090000 		.4byte	.LASF355
 8901 1a0f 19       		.byte	0x19
 8902 1a10 41       		.byte	0x41
 8903 1a11 AA090000 		.4byte	0x9aa
 8904 1a15 10       		.byte	0x10
 8905 1a16 00       		.byte	0
 8906 1a17 05       		.uleb128 0x5
 8907 1a18 04       		.byte	0x4
 8908 1a19 DA190000 		.4byte	0x19da
 8909 1a1d 05       		.uleb128 0x5
 8910 1a1e 04       		.byte	0x4
 8911 1a1f 9C160000 		.4byte	0x169c
 8912 1a23 05       		.uleb128 0x5
 8913 1a24 04       		.byte	0x4
 8914 1a25 E10B0000 		.4byte	0xbe1
 8915 1a29 0A       		.uleb128 0xa
 8916 1a2a 9C160000 		.4byte	0x169c
 8917 1a2e 391A0000 		.4byte	0x1a39
 8918 1a32 0B       		.uleb128 0xb
 8919 1a33 25000000 		.4byte	0x25
 8920 1a37 30       		.byte	0x30
 8921 1a38 00       		.byte	0
 8922 1a39 26       		.uleb128 0x26
 8923 1a3a 636800   		.ascii	"ch\000"
 8924 1a3d 0F       		.byte	0xf
 8925 1a3e 0902     		.2byte	0x209
 8926 1a40 D60C0000 		.4byte	0xcd6
 8927 1a44 0C       		.uleb128 0xc
 8928 1a45 16       		.byte	0x16
 8929 1a46 02       		.byte	0x2
 8930 1a47 34       		.byte	0x34
ARM GAS  C:\Users\mathi\AppData\Local\Temp\ccOm87JI.s 			page 158


 8931 1a48 251B0000 		.4byte	0x1b25
 8932 1a4c 0D       		.uleb128 0xd
 8933 1a4d 84240000 		.4byte	.LASF356
 8934 1a51 02       		.byte	0x2
 8935 1a52 35       		.byte	0x35
 8936 1a53 251B0000 		.4byte	0x1b25
 8937 1a57 00       		.byte	0
 8938 1a58 0D       		.uleb128 0xd
 8939 1a59 B6260000 		.4byte	.LASF357
 8940 1a5d 02       		.byte	0x2
 8941 1a5e 36       		.byte	0x36
 8942 1a5f E6080000 		.4byte	0x8e6
 8943 1a63 04       		.byte	0x4
 8944 1a64 0D       		.uleb128 0xd
 8945 1a65 FF030000 		.4byte	.LASF358
 8946 1a69 02       		.byte	0x2
 8947 1a6a 37       		.byte	0x37
 8948 1a6b E6080000 		.4byte	0x8e6
 8949 1a6f 05       		.byte	0x5
 8950 1a70 0D       		.uleb128 0xd
 8951 1a71 E6170000 		.4byte	.LASF359
 8952 1a75 02       		.byte	0x2
 8953 1a76 38       		.byte	0x38
 8954 1a77 01090000 		.4byte	0x901
 8955 1a7b 06       		.byte	0x6
 8956 1a7c 0D       		.uleb128 0xd
 8957 1a7d 27000000 		.4byte	.LASF360
 8958 1a81 02       		.byte	0x2
 8959 1a82 39       		.byte	0x39
 8960 1a83 E6080000 		.4byte	0x8e6
 8961 1a87 08       		.byte	0x8
 8962 1a88 0D       		.uleb128 0xd
 8963 1a89 EA040000 		.4byte	.LASF361
 8964 1a8d 02       		.byte	0x2
 8965 1a8e 3A       		.byte	0x3a
 8966 1a8f E6080000 		.4byte	0x8e6
 8967 1a93 09       		.byte	0x9
 8968 1a94 0D       		.uleb128 0xd
 8969 1a95 D6260000 		.4byte	.LASF362
 8970 1a99 02       		.byte	0x2
 8971 1a9a 3B       		.byte	0x3b
 8972 1a9b E6080000 		.4byte	0x8e6
 8973 1a9f 0A       		.byte	0xa
 8974 1aa0 0D       		.uleb128 0xd
 8975 1aa1 C2240000 		.4byte	.LASF363
 8976 1aa5 02       		.byte	0x2
 8977 1aa6 3C       		.byte	0x3c
 8978 1aa7 E6080000 		.4byte	0x8e6
 8979 1aab 0B       		.byte	0xb
 8980 1aac 0D       		.uleb128 0xd
 8981 1aad C9230000 		.4byte	.LASF364
 8982 1ab1 02       		.byte	0x2
 8983 1ab2 3D       		.byte	0x3d
 8984 1ab3 E6080000 		.4byte	0x8e6
 8985 1ab7 0C       		.byte	0xc
 8986 1ab8 0D       		.uleb128 0xd
 8987 1ab9 370D0000 		.4byte	.LASF365
ARM GAS  C:\Users\mathi\AppData\Local\Temp\ccOm87JI.s 			page 159


 8988 1abd 02       		.byte	0x2
 8989 1abe 3E       		.byte	0x3e
 8990 1abf E6080000 		.4byte	0x8e6
 8991 1ac3 0D       		.byte	0xd
 8992 1ac4 0D       		.uleb128 0xd
 8993 1ac5 EA060000 		.4byte	.LASF366
 8994 1ac9 02       		.byte	0x2
 8995 1aca 3F       		.byte	0x3f
 8996 1acb E6080000 		.4byte	0x8e6
 8997 1acf 0E       		.byte	0xe
 8998 1ad0 0D       		.uleb128 0xd
 8999 1ad1 B90E0000 		.4byte	.LASF367
 9000 1ad5 02       		.byte	0x2
 9001 1ad6 40       		.byte	0x40
 9002 1ad7 E6080000 		.4byte	0x8e6
 9003 1adb 0F       		.byte	0xf
 9004 1adc 0D       		.uleb128 0xd
 9005 1add A0100000 		.4byte	.LASF368
 9006 1ae1 02       		.byte	0x2
 9007 1ae2 41       		.byte	0x41
 9008 1ae3 E6080000 		.4byte	0x8e6
 9009 1ae7 10       		.byte	0x10
 9010 1ae8 0D       		.uleb128 0xd
 9011 1ae9 74170000 		.4byte	.LASF369
 9012 1aed 02       		.byte	0x2
 9013 1aee 43       		.byte	0x43
 9014 1aef E6080000 		.4byte	0x8e6
 9015 1af3 11       		.byte	0x11
 9016 1af4 0D       		.uleb128 0xd
 9017 1af5 BD030000 		.4byte	.LASF370
 9018 1af9 02       		.byte	0x2
 9019 1afa 44       		.byte	0x44
 9020 1afb E6080000 		.4byte	0x8e6
 9021 1aff 12       		.byte	0x12
 9022 1b00 0D       		.uleb128 0xd
 9023 1b01 68170000 		.4byte	.LASF371
 9024 1b05 02       		.byte	0x2
 9025 1b06 45       		.byte	0x45
 9026 1b07 E6080000 		.4byte	0x8e6
 9027 1b0b 13       		.byte	0x13
 9028 1b0c 0D       		.uleb128 0xd
 9029 1b0d F61D0000 		.4byte	.LASF372
 9030 1b11 02       		.byte	0x2
 9031 1b12 46       		.byte	0x46
 9032 1b13 E6080000 		.4byte	0x8e6
 9033 1b17 14       		.byte	0x14
 9034 1b18 0D       		.uleb128 0xd
 9035 1b19 B0000000 		.4byte	.LASF373
 9036 1b1d 02       		.byte	0x2
 9037 1b1e 48       		.byte	0x48
 9038 1b1f E6080000 		.4byte	0x8e6
 9039 1b23 15       		.byte	0x15
 9040 1b24 00       		.byte	0
 9041 1b25 0A       		.uleb128 0xa
 9042 1b26 65010000 		.4byte	0x165
 9043 1b2a 351B0000 		.4byte	0x1b35
 9044 1b2e 0B       		.uleb128 0xb
ARM GAS  C:\Users\mathi\AppData\Local\Temp\ccOm87JI.s 			page 160


 9045 1b2f 25000000 		.4byte	0x25
 9046 1b33 03       		.byte	0x3
 9047 1b34 00       		.byte	0
 9048 1b35 04       		.uleb128 0x4
 9049 1b36 BB140000 		.4byte	.LASF374
 9050 1b3a 02       		.byte	0x2
 9051 1b3b 49       		.byte	0x49
 9052 1b3c 441A0000 		.4byte	0x1a44
 9053 1b40 0F       		.uleb128 0xf
 9054 1b41 351B0000 		.4byte	0x1b35
 9055 1b45 23       		.uleb128 0x23
 9056 1b46 420C0000 		.4byte	.LASF375
 9057 1b4a 02       		.byte	0x2
 9058 1b4b 6E       		.byte	0x6e
 9059 1b4c 401B0000 		.4byte	0x1b40
 9060 1b50 04       		.uleb128 0x4
 9061 1b51 47200000 		.4byte	.LASF376
 9062 1b55 19       		.byte	0x19
 9063 1b56 34       		.byte	0x34
 9064 1b57 DA190000 		.4byte	0x19da
 9065 1b5b 05       		.uleb128 0x5
 9066 1b5c 04       		.byte	0x4
 9067 1b5d 501B0000 		.4byte	0x1b50
 9068 1b61 04       		.uleb128 0x4
 9069 1b62 870C0000 		.4byte	.LASF377
 9070 1b66 1A       		.byte	0x1a
 9071 1b67 34       		.byte	0x34
 9072 1b68 6C1B0000 		.4byte	0x1b6c
 9073 1b6c 10       		.uleb128 0x10
 9074 1b6d 5F270000 		.4byte	.LASF378
 9075 1b71 14       		.byte	0x14
 9076 1b72 1A       		.byte	0x1a
 9077 1b73 39       		.byte	0x39
 9078 1b74 B51B0000 		.4byte	0x1bb5
 9079 1b78 0D       		.uleb128 0xd
 9080 1b79 46030000 		.4byte	.LASF379
 9081 1b7d 1A       		.byte	0x1a
 9082 1b7e 3A       		.byte	0x3a
 9083 1b7f B51B0000 		.4byte	0x1bb5
 9084 1b83 00       		.byte	0
 9085 1b84 0D       		.uleb128 0xd
 9086 1b85 63210000 		.4byte	.LASF380
 9087 1b89 1A       		.byte	0x1a
 9088 1b8a 3D       		.byte	0x3d
 9089 1b8b 040B0000 		.4byte	0xb04
 9090 1b8f 04       		.byte	0x4
 9091 1b90 0D       		.uleb128 0xd
 9092 1b91 63040000 		.4byte	.LASF381
 9093 1b95 1A       		.byte	0x1a
 9094 1b96 3F       		.byte	0x3f
 9095 1b97 94090000 		.4byte	0x994
 9096 1b9b 08       		.byte	0x8
 9097 1b9c 0D       		.uleb128 0xd
 9098 1b9d B0220000 		.4byte	.LASF382
 9099 1ba1 1A       		.byte	0x1a
 9100 1ba2 41       		.byte	0x41
 9101 1ba3 9F090000 		.4byte	0x99f
ARM GAS  C:\Users\mathi\AppData\Local\Temp\ccOm87JI.s 			page 161


 9102 1ba7 0C       		.byte	0xc
 9103 1ba8 0D       		.uleb128 0xd
 9104 1ba9 040F0000 		.4byte	.LASF383
 9105 1bad 1A       		.byte	0x1a
 9106 1bae 43       		.byte	0x43
 9107 1baf 9F090000 		.4byte	0x99f
 9108 1bb3 10       		.byte	0x10
 9109 1bb4 00       		.byte	0
 9110 1bb5 05       		.uleb128 0x5
 9111 1bb6 04       		.byte	0x4
 9112 1bb7 611B0000 		.4byte	0x1b61
 9113 1bbb 10       		.uleb128 0x10
 9114 1bbc B9220000 		.4byte	.LASF384
 9115 1bc0 04       		.byte	0x4
 9116 1bc1 1A       		.byte	0x1a
 9117 1bc2 4A       		.byte	0x4a
 9118 1bc3 D41B0000 		.4byte	0x1bd4
 9119 1bc7 0D       		.uleb128 0xd
 9120 1bc8 2B220000 		.4byte	.LASF385
 9121 1bcc 1A       		.byte	0x1a
 9122 1bcd 4B       		.byte	0x4b
 9123 1bce B51B0000 		.4byte	0x1bb5
 9124 1bd2 00       		.byte	0
 9125 1bd3 00       		.byte	0
 9126 1bd4 04       		.uleb128 0x4
 9127 1bd5 C7150000 		.4byte	.LASF386
 9128 1bd9 1A       		.byte	0x1a
 9129 1bda 4E       		.byte	0x4e
 9130 1bdb BB1B0000 		.4byte	0x1bbb
 9131 1bdf 04       		.uleb128 0x4
 9132 1be0 570F0000 		.4byte	.LASF387
 9133 1be4 1B       		.byte	0x1b
 9134 1be5 3F       		.byte	0x3f
 9135 1be6 EA1B0000 		.4byte	0x1bea
 9136 1bea 10       		.uleb128 0x10
 9137 1beb B9110000 		.4byte	.LASF388
 9138 1bef 24       		.byte	0x24
 9139 1bf0 1B       		.byte	0x1b
 9140 1bf1 4D       		.byte	0x4d
 9141 1bf2 571C0000 		.4byte	0x1c57
 9142 1bf6 0D       		.uleb128 0xd
 9143 1bf7 61060000 		.4byte	.LASF389
 9144 1bfb 1B       		.byte	0x1b
 9145 1bfc 4E       		.byte	0x4e
 9146 1bfd 2E0B0000 		.4byte	0xb2e
 9147 1c01 00       		.byte	0
 9148 1c02 0D       		.uleb128 0xd
 9149 1c03 A5190000 		.4byte	.LASF390
 9150 1c07 1B       		.byte	0x1b
 9151 1c08 4F       		.byte	0x4f
 9152 1c09 33000000 		.4byte	0x33
 9153 1c0d 08       		.byte	0x8
 9154 1c0e 0D       		.uleb128 0xd
 9155 1c0f 87120000 		.4byte	.LASF391
 9156 1c13 1B       		.byte	0x1b
 9157 1c14 50       		.byte	0x50
 9158 1c15 791C0000 		.4byte	0x1c79
ARM GAS  C:\Users\mathi\AppData\Local\Temp\ccOm87JI.s 			page 162


 9159 1c19 0C       		.byte	0xc
 9160 1c1a 0D       		.uleb128 0xd
 9161 1c1b C1050000 		.4byte	.LASF392
 9162 1c1f 1B       		.byte	0x1b
 9163 1c20 51       		.byte	0x51
 9164 1c21 791C0000 		.4byte	0x1c79
 9165 1c25 10       		.byte	0x10
 9166 1c26 0D       		.uleb128 0xd
 9167 1c27 381B0000 		.4byte	.LASF393
 9168 1c2b 1B       		.byte	0x1b
 9169 1c2c 53       		.byte	0x53
 9170 1c2d 791C0000 		.4byte	0x1c79
 9171 1c31 14       		.byte	0x14
 9172 1c32 0D       		.uleb128 0xd
 9173 1c33 071A0000 		.4byte	.LASF394
 9174 1c37 1B       		.byte	0x1b
 9175 1c38 54       		.byte	0x54
 9176 1c39 791C0000 		.4byte	0x1c79
 9177 1c3d 18       		.byte	0x18
 9178 1c3e 0D       		.uleb128 0xd
 9179 1c3f 091F0000 		.4byte	.LASF395
 9180 1c43 1B       		.byte	0x1b
 9181 1c44 55       		.byte	0x55
 9182 1c45 571C0000 		.4byte	0x1c57
 9183 1c49 1C       		.byte	0x1c
 9184 1c4a 0D       		.uleb128 0xd
 9185 1c4b 281C0000 		.4byte	.LASF396
 9186 1c4f 1B       		.byte	0x1b
 9187 1c50 56       		.byte	0x56
 9188 1c51 5D010000 		.4byte	0x15d
 9189 1c55 20       		.byte	0x20
 9190 1c56 00       		.byte	0
 9191 1c57 04       		.uleb128 0x4
 9192 1c58 6C050000 		.4byte	.LASF397
 9193 1c5c 1B       		.byte	0x1b
 9194 1c5d 42       		.byte	0x42
 9195 1c5e 621C0000 		.4byte	0x1c62
 9196 1c62 05       		.uleb128 0x5
 9197 1c63 04       		.byte	0x4
 9198 1c64 681C0000 		.4byte	0x1c68
 9199 1c68 1F       		.uleb128 0x1f
 9200 1c69 731C0000 		.4byte	0x1c73
 9201 1c6d 16       		.uleb128 0x16
 9202 1c6e 731C0000 		.4byte	0x1c73
 9203 1c72 00       		.byte	0
 9204 1c73 05       		.uleb128 0x5
 9205 1c74 04       		.byte	0x4
 9206 1c75 DF1B0000 		.4byte	0x1bdf
 9207 1c79 05       		.uleb128 0x5
 9208 1c7a 04       		.byte	0x4
 9209 1c7b E6080000 		.4byte	0x8e6
 9210 1c7f 04       		.uleb128 0x4
 9211 1c80 A7060000 		.4byte	.LASF398
 9212 1c84 1B       		.byte	0x1b
 9213 1c85 64       		.byte	0x64
 9214 1c86 DF1B0000 		.4byte	0x1bdf
 9215 1c8a 04       		.uleb128 0x4
ARM GAS  C:\Users\mathi\AppData\Local\Temp\ccOm87JI.s 			page 163


 9216 1c8b A2270000 		.4byte	.LASF399
 9217 1c8f 1B       		.byte	0x1b
 9218 1c90 71       		.byte	0x71
 9219 1c91 DF1B0000 		.4byte	0x1bdf
 9220 1c95 15       		.uleb128 0x15
 9221 1c96 33000000 		.4byte	0x33
 9222 1c9a AE1C0000 		.4byte	0x1cae
 9223 1c9e 16       		.uleb128 0x16
 9224 1c9f 5D010000 		.4byte	0x15d
 9225 1ca3 16       		.uleb128 0x16
 9226 1ca4 AE1C0000 		.4byte	0x1cae
 9227 1ca8 16       		.uleb128 0x16
 9228 1ca9 33000000 		.4byte	0x33
 9229 1cad 00       		.byte	0
 9230 1cae 05       		.uleb128 0x5
 9231 1caf 04       		.byte	0x4
 9232 1cb0 F1080000 		.4byte	0x8f1
 9233 1cb4 05       		.uleb128 0x5
 9234 1cb5 04       		.byte	0x4
 9235 1cb6 951C0000 		.4byte	0x1c95
 9236 1cba 15       		.uleb128 0x15
 9237 1cbb 33000000 		.4byte	0x33
 9238 1cbf D31C0000 		.4byte	0x1cd3
 9239 1cc3 16       		.uleb128 0x16
 9240 1cc4 5D010000 		.4byte	0x15d
 9241 1cc8 16       		.uleb128 0x16
 9242 1cc9 791C0000 		.4byte	0x1c79
 9243 1ccd 16       		.uleb128 0x16
 9244 1cce 33000000 		.4byte	0x33
 9245 1cd2 00       		.byte	0
 9246 1cd3 05       		.uleb128 0x5
 9247 1cd4 04       		.byte	0x4
 9248 1cd5 BA1C0000 		.4byte	0x1cba
 9249 1cd9 15       		.uleb128 0x15
 9250 1cda 89090000 		.4byte	0x989
 9251 1cde ED1C0000 		.4byte	0x1ced
 9252 1ce2 16       		.uleb128 0x16
 9253 1ce3 5D010000 		.4byte	0x15d
 9254 1ce7 16       		.uleb128 0x16
 9255 1ce8 E6080000 		.4byte	0x8e6
 9256 1cec 00       		.byte	0
 9257 1ced 05       		.uleb128 0x5
 9258 1cee 04       		.byte	0x4
 9259 1cef D91C0000 		.4byte	0x1cd9
 9260 1cf3 15       		.uleb128 0x15
 9261 1cf4 89090000 		.4byte	0x989
 9262 1cf8 021D0000 		.4byte	0x1d02
 9263 1cfc 16       		.uleb128 0x16
 9264 1cfd 5D010000 		.4byte	0x15d
 9265 1d01 00       		.byte	0
 9266 1d02 05       		.uleb128 0x5
 9267 1d03 04       		.byte	0x4
 9268 1d04 F31C0000 		.4byte	0x1cf3
 9269 1d08 0C       		.uleb128 0xc
 9270 1d09 0C       		.byte	0xc
 9271 1d0a 1C       		.byte	0x1c
 9272 1d0b DA       		.byte	0xda
ARM GAS  C:\Users\mathi\AppData\Local\Temp\ccOm87JI.s 			page 164


 9273 1d0c 4D1D0000 		.4byte	0x1d4d
 9274 1d10 0D       		.uleb128 0xd
 9275 1d11 2E270000 		.4byte	.LASF400
 9276 1d15 1C       		.byte	0x1c
 9277 1d16 DB       		.byte	0xdb
 9278 1d17 4D1D0000 		.4byte	0x1d4d
 9279 1d1b 00       		.byte	0
 9280 1d1c 0D       		.uleb128 0xd
 9281 1d1d 05110000 		.4byte	.LASF401
 9282 1d21 1C       		.byte	0x1c
 9283 1d22 DC       		.byte	0xdc
 9284 1d23 531D0000 		.4byte	0x1d53
 9285 1d27 04       		.byte	0x4
 9286 1d28 0D       		.uleb128 0xd
 9287 1d29 93050000 		.4byte	.LASF402
 9288 1d2d 1C       		.byte	0x1c
 9289 1d2e DD       		.byte	0xdd
 9290 1d2f E6080000 		.4byte	0x8e6
 9291 1d33 08       		.byte	0x8
 9292 1d34 0D       		.uleb128 0xd
 9293 1d35 3D200000 		.4byte	.LASF403
 9294 1d39 1C       		.byte	0x1c
 9295 1d3a DF       		.byte	0xdf
 9296 1d3b E6080000 		.4byte	0x8e6
 9297 1d3f 09       		.byte	0x9
 9298 1d40 0D       		.uleb128 0xd
 9299 1d41 9B040000 		.4byte	.LASF404
 9300 1d45 1C       		.byte	0x1c
 9301 1d46 E0       		.byte	0xe0
 9302 1d47 E6080000 		.4byte	0x8e6
 9303 1d4b 0A       		.byte	0xa
 9304 1d4c 00       		.byte	0
 9305 1d4d 05       		.uleb128 0x5
 9306 1d4e 04       		.byte	0x4
 9307 1d4f F2110000 		.4byte	0x11f2
 9308 1d53 05       		.uleb128 0x5
 9309 1d54 04       		.byte	0x4
 9310 1d55 27090000 		.4byte	0x927
 9311 1d59 04       		.uleb128 0x4
 9312 1d5a B0130000 		.4byte	.LASF405
 9313 1d5e 1C       		.byte	0x1c
 9314 1d5f E1       		.byte	0xe1
 9315 1d60 081D0000 		.4byte	0x1d08
 9316 1d64 0F       		.uleb128 0xf
 9317 1d65 591D0000 		.4byte	0x1d59
 9318 1d69 0A       		.uleb128 0xa
 9319 1d6a 641D0000 		.4byte	0x1d64
 9320 1d6e 791D0000 		.4byte	0x1d79
 9321 1d72 0B       		.uleb128 0xb
 9322 1d73 25000000 		.4byte	0x25
 9323 1d77 0F       		.byte	0xf
 9324 1d78 00       		.byte	0
 9325 1d79 0F       		.uleb128 0xf
 9326 1d7a 691D0000 		.4byte	0x1d69
 9327 1d7e 20       		.uleb128 0x20
 9328 1d7f 051D0000 		.4byte	.LASF406
 9329 1d83 1C       		.byte	0x1c
ARM GAS  C:\Users\mathi\AppData\Local\Temp\ccOm87JI.s 			page 165


 9330 1d84 BB01     		.2byte	0x1bb
 9331 1d86 791D0000 		.4byte	0x1d79
 9332 1d8a 15       		.uleb128 0x15
 9333 1d8b 89090000 		.4byte	0x989
 9334 1d8f A31D0000 		.4byte	0x1da3
 9335 1d93 16       		.uleb128 0x16
 9336 1d94 5D010000 		.4byte	0x15d
 9337 1d98 16       		.uleb128 0x16
 9338 1d99 E6080000 		.4byte	0x8e6
 9339 1d9d 16       		.uleb128 0x16
 9340 1d9e C0090000 		.4byte	0x9c0
 9341 1da2 00       		.byte	0
 9342 1da3 05       		.uleb128 0x5
 9343 1da4 04       		.byte	0x4
 9344 1da5 8A1D0000 		.4byte	0x1d8a
 9345 1da9 15       		.uleb128 0x15
 9346 1daa 89090000 		.4byte	0x989
 9347 1dae BD1D0000 		.4byte	0x1dbd
 9348 1db2 16       		.uleb128 0x16
 9349 1db3 5D010000 		.4byte	0x15d
 9350 1db7 16       		.uleb128 0x16
 9351 1db8 C0090000 		.4byte	0x9c0
 9352 1dbc 00       		.byte	0
 9353 1dbd 05       		.uleb128 0x5
 9354 1dbe 04       		.byte	0x4
 9355 1dbf A91D0000 		.4byte	0x1da9
 9356 1dc3 15       		.uleb128 0x15
 9357 1dc4 33000000 		.4byte	0x33
 9358 1dc8 E11D0000 		.4byte	0x1de1
 9359 1dcc 16       		.uleb128 0x16
 9360 1dcd 5D010000 		.4byte	0x15d
 9361 1dd1 16       		.uleb128 0x16
 9362 1dd2 AE1C0000 		.4byte	0x1cae
 9363 1dd6 16       		.uleb128 0x16
 9364 1dd7 33000000 		.4byte	0x33
 9365 1ddb 16       		.uleb128 0x16
 9366 1ddc C0090000 		.4byte	0x9c0
 9367 1de0 00       		.byte	0
 9368 1de1 05       		.uleb128 0x5
 9369 1de2 04       		.byte	0x4
 9370 1de3 C31D0000 		.4byte	0x1dc3
 9371 1de7 15       		.uleb128 0x15
 9372 1de8 33000000 		.4byte	0x33
 9373 1dec 051E0000 		.4byte	0x1e05
 9374 1df0 16       		.uleb128 0x16
 9375 1df1 5D010000 		.4byte	0x15d
 9376 1df5 16       		.uleb128 0x16
 9377 1df6 791C0000 		.4byte	0x1c79
 9378 1dfa 16       		.uleb128 0x16
 9379 1dfb 33000000 		.4byte	0x33
 9380 1dff 16       		.uleb128 0x16
 9381 1e00 C0090000 		.4byte	0x9c0
 9382 1e04 00       		.byte	0
 9383 1e05 05       		.uleb128 0x5
 9384 1e06 04       		.byte	0x4
 9385 1e07 E71D0000 		.4byte	0x1de7
 9386 1e0b 27       		.uleb128 0x27
ARM GAS  C:\Users\mathi\AppData\Local\Temp\ccOm87JI.s 			page 166


 9387 1e0c 07       		.byte	0x7
 9388 1e0d 01       		.byte	0x1
 9389 1e0e 5E000000 		.4byte	0x5e
 9390 1e12 1D       		.byte	0x1d
 9391 1e13 28       		.byte	0x28
 9392 1e14 4F1E0000 		.4byte	0x1e4f
 9393 1e18 28       		.uleb128 0x28
 9394 1e19 12010000 		.4byte	.LASF407
 9395 1e1d 00       		.byte	0
 9396 1e1e 28       		.uleb128 0x28
 9397 1e1f 34100000 		.4byte	.LASF408
 9398 1e23 01       		.byte	0x1
 9399 1e24 28       		.uleb128 0x28
 9400 1e25 720C0000 		.4byte	.LASF409
 9401 1e29 02       		.byte	0x2
 9402 1e2a 28       		.uleb128 0x28
 9403 1e2b 5F1E0000 		.4byte	.LASF410
 9404 1e2f 03       		.byte	0x3
 9405 1e30 28       		.uleb128 0x28
 9406 1e31 18260000 		.4byte	.LASF411
 9407 1e35 04       		.byte	0x4
 9408 1e36 28       		.uleb128 0x28
 9409 1e37 E1080000 		.4byte	.LASF412
 9410 1e3b 05       		.byte	0x5
 9411 1e3c 28       		.uleb128 0x28
 9412 1e3d 1D200000 		.4byte	.LASF413
 9413 1e41 06       		.byte	0x6
 9414 1e42 28       		.uleb128 0x28
 9415 1e43 6C1A0000 		.4byte	.LASF414
 9416 1e47 07       		.byte	0x7
 9417 1e48 28       		.uleb128 0x28
 9418 1e49 E4250000 		.4byte	.LASF415
 9419 1e4d 08       		.byte	0x8
 9420 1e4e 00       		.byte	0
 9421 1e4f 04       		.uleb128 0x4
 9422 1e50 10190000 		.4byte	.LASF416
 9423 1e54 1D       		.byte	0x1d
 9424 1e55 32       		.byte	0x32
 9425 1e56 0B1E0000 		.4byte	0x1e0b
 9426 1e5a 0C       		.uleb128 0xc
 9427 1e5b 08       		.byte	0x8
 9428 1e5c 1D       		.byte	0x1d
 9429 1e5d 37       		.byte	0x37
 9430 1e5e 7B1E0000 		.4byte	0x1e7b
 9431 1e62 0D       		.uleb128 0xd
 9432 1e63 72080000 		.4byte	.LASF417
 9433 1e67 1D       		.byte	0x1d
 9434 1e68 38       		.byte	0x38
 9435 1e69 1C090000 		.4byte	0x91c
 9436 1e6d 00       		.byte	0
 9437 1e6e 0D       		.uleb128 0xd
 9438 1e6f 771F0000 		.4byte	.LASF418
 9439 1e73 1D       		.byte	0x1d
 9440 1e74 39       		.byte	0x39
 9441 1e75 1C090000 		.4byte	0x91c
 9442 1e79 04       		.byte	0x4
 9443 1e7a 00       		.byte	0
ARM GAS  C:\Users\mathi\AppData\Local\Temp\ccOm87JI.s 			page 167


 9444 1e7b 04       		.uleb128 0x4
 9445 1e7c BC210000 		.4byte	.LASF419
 9446 1e80 1D       		.byte	0x1d
 9447 1e81 3A       		.byte	0x3a
 9448 1e82 5A1E0000 		.4byte	0x1e5a
 9449 1e86 15       		.uleb128 0x15
 9450 1e87 951E0000 		.4byte	0x1e95
 9451 1e8b 951E0000 		.4byte	0x1e95
 9452 1e8f 16       		.uleb128 0x16
 9453 1e90 5D010000 		.4byte	0x15d
 9454 1e94 00       		.byte	0
 9455 1e95 02       		.uleb128 0x2
 9456 1e96 01       		.byte	0x1
 9457 1e97 02       		.byte	0x2
 9458 1e98 D9000000 		.4byte	.LASF420
 9459 1e9c 05       		.uleb128 0x5
 9460 1e9d 04       		.byte	0x4
 9461 1e9e 861E0000 		.4byte	0x1e86
 9462 1ea2 15       		.uleb128 0x15
 9463 1ea3 951E0000 		.4byte	0x1e95
 9464 1ea7 C01E0000 		.4byte	0x1ec0
 9465 1eab 16       		.uleb128 0x16
 9466 1eac 5D010000 		.4byte	0x15d
 9467 1eb0 16       		.uleb128 0x16
 9468 1eb1 1C090000 		.4byte	0x91c
 9469 1eb5 16       		.uleb128 0x16
 9470 1eb6 791C0000 		.4byte	0x1c79
 9471 1eba 16       		.uleb128 0x16
 9472 1ebb 1C090000 		.4byte	0x91c
 9473 1ebf 00       		.byte	0
 9474 1ec0 05       		.uleb128 0x5
 9475 1ec1 04       		.byte	0x4
 9476 1ec2 A21E0000 		.4byte	0x1ea2
 9477 1ec6 15       		.uleb128 0x15
 9478 1ec7 951E0000 		.4byte	0x1e95
 9479 1ecb E41E0000 		.4byte	0x1ee4
 9480 1ecf 16       		.uleb128 0x16
 9481 1ed0 5D010000 		.4byte	0x15d
 9482 1ed4 16       		.uleb128 0x16
 9483 1ed5 1C090000 		.4byte	0x91c
 9484 1ed9 16       		.uleb128 0x16
 9485 1eda AE1C0000 		.4byte	0x1cae
 9486 1ede 16       		.uleb128 0x16
 9487 1edf 1C090000 		.4byte	0x91c
 9488 1ee3 00       		.byte	0
 9489 1ee4 05       		.uleb128 0x5
 9490 1ee5 04       		.byte	0x4
 9491 1ee6 C61E0000 		.4byte	0x1ec6
 9492 1eea 15       		.uleb128 0x15
 9493 1eeb 951E0000 		.4byte	0x1e95
 9494 1eef FE1E0000 		.4byte	0x1efe
 9495 1ef3 16       		.uleb128 0x16
 9496 1ef4 5D010000 		.4byte	0x15d
 9497 1ef8 16       		.uleb128 0x16
 9498 1ef9 FE1E0000 		.4byte	0x1efe
 9499 1efd 00       		.byte	0
 9500 1efe 05       		.uleb128 0x5
ARM GAS  C:\Users\mathi\AppData\Local\Temp\ccOm87JI.s 			page 168


 9501 1eff 04       		.byte	0x4
 9502 1f00 7B1E0000 		.4byte	0x1e7b
 9503 1f04 05       		.uleb128 0x5
 9504 1f05 04       		.byte	0x4
 9505 1f06 EA1E0000 		.4byte	0x1eea
 9506 1f0a 0A       		.uleb128 0xa
 9507 1f0b 1C090000 		.4byte	0x91c
 9508 1f0f 1A1F0000 		.4byte	0x1f1a
 9509 1f13 0B       		.uleb128 0xb
 9510 1f14 25000000 		.4byte	0x25
 9511 1f18 03       		.byte	0x3
 9512 1f19 00       		.byte	0
 9513 1f1a 0C       		.uleb128 0xc
 9514 1f1b 04       		.byte	0x4
 9515 1f1c 1E       		.byte	0x1e
 9516 1f1d B3       		.byte	0xb3
 9517 1f1e 3B1F0000 		.4byte	0x1f3b
 9518 1f22 11       		.uleb128 0x11
 9519 1f23 73657400 		.ascii	"set\000"
 9520 1f27 1E       		.byte	0x1e
 9521 1f28 B4       		.byte	0xb4
 9522 1f29 01090000 		.4byte	0x901
 9523 1f2d 00       		.byte	0
 9524 1f2e 0D       		.uleb128 0xd
 9525 1f2f 240E0000 		.4byte	.LASF421
 9526 1f33 1E       		.byte	0x1e
 9527 1f34 B5       		.byte	0xb5
 9528 1f35 01090000 		.4byte	0x901
 9529 1f39 02       		.byte	0x2
 9530 1f3a 00       		.byte	0
 9531 1f3b 08       		.uleb128 0x8
 9532 1f3c 04       		.byte	0x4
 9533 1f3d 1E       		.byte	0x1e
 9534 1f3e B1       		.byte	0xb1
 9535 1f3f 561F0000 		.4byte	0x1f56
 9536 1f43 29       		.uleb128 0x29
 9537 1f44 5700     		.ascii	"W\000"
 9538 1f46 1E       		.byte	0x1e
 9539 1f47 B2       		.byte	0xb2
 9540 1f48 1C090000 		.4byte	0x91c
 9541 1f4c 29       		.uleb128 0x29
 9542 1f4d 4800     		.ascii	"H\000"
 9543 1f4f 1E       		.byte	0x1e
 9544 1f50 B6       		.byte	0xb6
 9545 1f51 1A1F0000 		.4byte	0x1f1a
 9546 1f55 00       		.byte	0
 9547 1f56 1A       		.uleb128 0x1a
 9548 1f57 3B1F0000 		.4byte	0x1f3b
 9549 1f5b 0C       		.uleb128 0xc
 9550 1f5c 2C       		.byte	0x2c
 9551 1f5d 1E       		.byte	0x1e
 9552 1f5e A9       		.byte	0xa9
 9553 1f5f E81F0000 		.4byte	0x1fe8
 9554 1f63 0D       		.uleb128 0xd
 9555 1f64 8F200000 		.4byte	.LASF422
 9556 1f68 1E       		.byte	0x1e
 9557 1f69 AB       		.byte	0xab
ARM GAS  C:\Users\mathi\AppData\Local\Temp\ccOm87JI.s 			page 169


 9558 1f6a 27090000 		.4byte	0x927
 9559 1f6e 00       		.byte	0
 9560 1f6f 0D       		.uleb128 0xd
 9561 1f70 24040000 		.4byte	.LASF423
 9562 1f74 1E       		.byte	0x1e
 9563 1f75 AC       		.byte	0xac
 9564 1f76 27090000 		.4byte	0x927
 9565 1f7a 04       		.byte	0x4
 9566 1f7b 0D       		.uleb128 0xd
 9567 1f7c E10F0000 		.4byte	.LASF424
 9568 1f80 1E       		.byte	0x1e
 9569 1f81 AD       		.byte	0xad
 9570 1f82 27090000 		.4byte	0x927
 9571 1f86 08       		.byte	0x8
 9572 1f87 0D       		.uleb128 0xd
 9573 1f88 B91F0000 		.4byte	.LASF425
 9574 1f8c 1E       		.byte	0x1e
 9575 1f8d AE       		.byte	0xae
 9576 1f8e 27090000 		.4byte	0x927
 9577 1f92 0C       		.byte	0xc
 9578 1f93 11       		.uleb128 0x11
 9579 1f94 49445200 		.ascii	"IDR\000"
 9580 1f98 1E       		.byte	0x1e
 9581 1f99 AF       		.byte	0xaf
 9582 1f9a 27090000 		.4byte	0x927
 9583 1f9e 10       		.byte	0x10
 9584 1f9f 11       		.uleb128 0x11
 9585 1fa0 4F445200 		.ascii	"ODR\000"
 9586 1fa4 1E       		.byte	0x1e
 9587 1fa5 B0       		.byte	0xb0
 9588 1fa6 27090000 		.4byte	0x927
 9589 1faa 14       		.byte	0x14
 9590 1fab 0D       		.uleb128 0xd
 9591 1fac AB130000 		.4byte	.LASF426
 9592 1fb0 1E       		.byte	0x1e
 9593 1fb1 B7       		.byte	0xb7
 9594 1fb2 561F0000 		.4byte	0x1f56
 9595 1fb6 18       		.byte	0x18
 9596 1fb7 0D       		.uleb128 0xd
 9597 1fb8 411A0000 		.4byte	.LASF427
 9598 1fbc 1E       		.byte	0x1e
 9599 1fbd B8       		.byte	0xb8
 9600 1fbe 27090000 		.4byte	0x927
 9601 1fc2 1C       		.byte	0x1c
 9602 1fc3 0D       		.uleb128 0xd
 9603 1fc4 E51D0000 		.4byte	.LASF428
 9604 1fc8 1E       		.byte	0x1e
 9605 1fc9 B9       		.byte	0xb9
 9606 1fca 27090000 		.4byte	0x927
 9607 1fce 20       		.byte	0x20
 9608 1fcf 0D       		.uleb128 0xd
 9609 1fd0 E01D0000 		.4byte	.LASF429
 9610 1fd4 1E       		.byte	0x1e
 9611 1fd5 BA       		.byte	0xba
 9612 1fd6 27090000 		.4byte	0x927
 9613 1fda 24       		.byte	0x24
 9614 1fdb 11       		.uleb128 0x11
ARM GAS  C:\Users\mathi\AppData\Local\Temp\ccOm87JI.s 			page 170


 9615 1fdc 42525200 		.ascii	"BRR\000"
 9616 1fe0 1E       		.byte	0x1e
 9617 1fe1 BB       		.byte	0xbb
 9618 1fe2 27090000 		.4byte	0x927
 9619 1fe6 28       		.byte	0x28
 9620 1fe7 00       		.byte	0
 9621 1fe8 04       		.uleb128 0x4
 9622 1fe9 1F110000 		.4byte	.LASF430
 9623 1fed 1E       		.byte	0x1e
 9624 1fee BC       		.byte	0xbc
 9625 1fef 5B1F0000 		.4byte	0x1f5b
 9626 1ff3 0C       		.uleb128 0xc
 9627 1ff4 1C       		.byte	0x1c
 9628 1ff5 1E       		.byte	0x1e
 9629 1ff6 C1       		.byte	0xc1
 9630 1ff7 50200000 		.4byte	0x2050
 9631 1ffb 0D       		.uleb128 0xd
 9632 1ffc 42240000 		.4byte	.LASF431
 9633 2000 1E       		.byte	0x1e
 9634 2001 C3       		.byte	0xc3
 9635 2002 1C090000 		.4byte	0x91c
 9636 2006 00       		.byte	0
 9637 2007 0D       		.uleb128 0xd
 9638 2008 0F040000 		.4byte	.LASF432
 9639 200c 1E       		.byte	0x1e
 9640 200d C5       		.byte	0xc5
 9641 200e 1C090000 		.4byte	0x91c
 9642 2012 04       		.byte	0x4
 9643 2013 0D       		.uleb128 0xd
 9644 2014 36030000 		.4byte	.LASF433
 9645 2018 1E       		.byte	0x1e
 9646 2019 C7       		.byte	0xc7
 9647 201a 1C090000 		.4byte	0x91c
 9648 201e 08       		.byte	0x8
 9649 201f 0D       		.uleb128 0xd
 9650 2020 20230000 		.4byte	.LASF434
 9651 2024 1E       		.byte	0x1e
 9652 2025 C9       		.byte	0xc9
 9653 2026 1C090000 		.4byte	0x91c
 9654 202a 0C       		.byte	0xc
 9655 202b 11       		.uleb128 0x11
 9656 202c 6F647200 		.ascii	"odr\000"
 9657 2030 1E       		.byte	0x1e
 9658 2031 CB       		.byte	0xcb
 9659 2032 1C090000 		.4byte	0x91c
 9660 2036 10       		.byte	0x10
 9661 2037 0D       		.uleb128 0xd
 9662 2038 29200000 		.4byte	.LASF435
 9663 203c 1E       		.byte	0x1e
 9664 203d CD       		.byte	0xcd
 9665 203e 1C090000 		.4byte	0x91c
 9666 2042 14       		.byte	0x14
 9667 2043 0D       		.uleb128 0xd
 9668 2044 54000000 		.4byte	.LASF436
 9669 2048 1E       		.byte	0x1e
 9670 2049 CF       		.byte	0xcf
 9671 204a 1C090000 		.4byte	0x91c
ARM GAS  C:\Users\mathi\AppData\Local\Temp\ccOm87JI.s 			page 171


 9672 204e 18       		.byte	0x18
 9673 204f 00       		.byte	0
 9674 2050 04       		.uleb128 0x4
 9675 2051 E21C0000 		.4byte	.LASF437
 9676 2055 1E       		.byte	0x1e
 9677 2056 D0       		.byte	0xd0
 9678 2057 F31F0000 		.4byte	0x1ff3
 9679 205b 0C       		.uleb128 0xc
 9680 205c FC       		.byte	0xfc
 9681 205d 1E       		.byte	0x1e
 9682 205e D9       		.byte	0xd9
 9683 205f D0200000 		.4byte	0x20d0
 9684 2063 0D       		.uleb128 0xd
 9685 2064 C2110000 		.4byte	.LASF438
 9686 2068 1E       		.byte	0x1e
 9687 2069 DC       		.byte	0xdc
 9688 206a 50200000 		.4byte	0x2050
 9689 206e 00       		.byte	0
 9690 206f 0D       		.uleb128 0xd
 9691 2070 EE030000 		.4byte	.LASF439
 9692 2074 1E       		.byte	0x1e
 9693 2075 E0       		.byte	0xe0
 9694 2076 50200000 		.4byte	0x2050
 9695 207a 1C       		.byte	0x1c
 9696 207b 0D       		.uleb128 0xd
 9697 207c 78010000 		.4byte	.LASF440
 9698 2080 1E       		.byte	0x1e
 9699 2081 E4       		.byte	0xe4
 9700 2082 50200000 		.4byte	0x2050
 9701 2086 38       		.byte	0x38
 9702 2087 0D       		.uleb128 0xd
 9703 2088 200F0000 		.4byte	.LASF441
 9704 208c 1E       		.byte	0x1e
 9705 208d E8       		.byte	0xe8
 9706 208e 50200000 		.4byte	0x2050
 9707 2092 54       		.byte	0x54
 9708 2093 0D       		.uleb128 0xd
 9709 2094 A11B0000 		.4byte	.LASF442
 9710 2098 1E       		.byte	0x1e
 9711 2099 EC       		.byte	0xec
 9712 209a 50200000 		.4byte	0x2050
 9713 209e 70       		.byte	0x70
 9714 209f 0D       		.uleb128 0xd
 9715 20a0 1A280000 		.4byte	.LASF443
 9716 20a4 1E       		.byte	0x1e
 9717 20a5 F0       		.byte	0xf0
 9718 20a6 50200000 		.4byte	0x2050
 9719 20aa 8C       		.byte	0x8c
 9720 20ab 0D       		.uleb128 0xd
 9721 20ac 120D0000 		.4byte	.LASF444
 9722 20b0 1E       		.byte	0x1e
 9723 20b1 F4       		.byte	0xf4
 9724 20b2 50200000 		.4byte	0x2050
 9725 20b6 A8       		.byte	0xa8
 9726 20b7 0D       		.uleb128 0xd
 9727 20b8 AF190000 		.4byte	.LASF445
 9728 20bc 1E       		.byte	0x1e
ARM GAS  C:\Users\mathi\AppData\Local\Temp\ccOm87JI.s 			page 172


 9729 20bd F8       		.byte	0xf8
 9730 20be 50200000 		.4byte	0x2050
 9731 20c2 C4       		.byte	0xc4
 9732 20c3 0D       		.uleb128 0xd
 9733 20c4 F0250000 		.4byte	.LASF446
 9734 20c8 1E       		.byte	0x1e
 9735 20c9 FC       		.byte	0xfc
 9736 20ca 50200000 		.4byte	0x2050
 9737 20ce E0       		.byte	0xe0
 9738 20cf 00       		.byte	0
 9739 20d0 04       		.uleb128 0x4
 9740 20d1 550C0000 		.4byte	.LASF447
 9741 20d5 1E       		.byte	0x1e
 9742 20d6 FE       		.byte	0xfe
 9743 20d7 5B200000 		.4byte	0x205b
 9744 20db 0F       		.uleb128 0xf
 9745 20dc D0200000 		.4byte	0x20d0
 9746 20e0 07       		.uleb128 0x7
 9747 20e1 B6190000 		.4byte	.LASF448
 9748 20e5 1E       		.byte	0x1e
 9749 20e6 1B01     		.2byte	0x11b
 9750 20e8 EC200000 		.4byte	0x20ec
 9751 20ec 05       		.uleb128 0x5
 9752 20ed 04       		.byte	0x4
 9753 20ee E81F0000 		.4byte	0x1fe8
 9754 20f2 20       		.uleb128 0x20
 9755 20f3 43210000 		.4byte	.LASF449
 9756 20f7 1E       		.byte	0x1e
 9757 20f8 DA01     		.2byte	0x1da
 9758 20fa DB200000 		.4byte	0x20db
 9759 20fe 27       		.uleb128 0x27
 9760 20ff 07       		.byte	0x7
 9761 2100 01       		.byte	0x1
 9762 2101 5E000000 		.4byte	0x5e
 9763 2105 1F       		.byte	0x1f
 9764 2106 46       		.byte	0x46
 9765 2107 30210000 		.4byte	0x2130
 9766 210b 28       		.uleb128 0x28
 9767 210c CB090000 		.4byte	.LASF450
 9768 2110 00       		.byte	0
 9769 2111 28       		.uleb128 0x28
 9770 2112 C7160000 		.4byte	.LASF451
 9771 2116 01       		.byte	0x1
 9772 2117 28       		.uleb128 0x28
 9773 2118 A5230000 		.4byte	.LASF452
 9774 211c 02       		.byte	0x2
 9775 211d 28       		.uleb128 0x28
 9776 211e 91130000 		.4byte	.LASF453
 9777 2122 03       		.byte	0x3
 9778 2123 28       		.uleb128 0x28
 9779 2124 D3070000 		.4byte	.LASF454
 9780 2128 04       		.byte	0x4
 9781 2129 28       		.uleb128 0x28
 9782 212a 51130000 		.4byte	.LASF455
 9783 212e 05       		.byte	0x5
 9784 212f 00       		.byte	0
 9785 2130 04       		.uleb128 0x4
ARM GAS  C:\Users\mathi\AppData\Local\Temp\ccOm87JI.s 			page 173


 9786 2131 76050000 		.4byte	.LASF456
 9787 2135 1F       		.byte	0x1f
 9788 2136 4D       		.byte	0x4d
 9789 2137 FE200000 		.4byte	0x20fe
 9790 213b 07       		.uleb128 0x7
 9791 213c 6D120000 		.4byte	.LASF457
 9792 2140 20       		.byte	0x20
 9793 2141 2701     		.2byte	0x127
 9794 2143 01090000 		.4byte	0x901
 9795 2147 07       		.uleb128 0x7
 9796 2148 8B1E0000 		.4byte	.LASF458
 9797 214c 20       		.byte	0x20
 9798 214d 2C01     		.2byte	0x12c
 9799 214f 01090000 		.4byte	0x901
 9800 2153 2A       		.uleb128 0x2a
 9801 2154 07       		.byte	0x7
 9802 2155 01       		.byte	0x1
 9803 2156 5E000000 		.4byte	0x5e
 9804 215a 20       		.byte	0x20
 9805 215b 3301     		.2byte	0x133
 9806 215d 6E210000 		.4byte	0x216e
 9807 2161 28       		.uleb128 0x28
 9808 2162 AD0F0000 		.4byte	.LASF459
 9809 2166 00       		.byte	0
 9810 2167 28       		.uleb128 0x28
 9811 2168 4E030000 		.4byte	.LASF460
 9812 216c 01       		.byte	0x1
 9813 216d 00       		.byte	0
 9814 216e 07       		.uleb128 0x7
 9815 216f 1C250000 		.4byte	.LASF461
 9816 2173 20       		.byte	0x20
 9817 2174 3601     		.2byte	0x136
 9818 2176 53210000 		.4byte	0x2153
 9819 217a 07       		.uleb128 0x7
 9820 217b 6F100000 		.4byte	.LASF462
 9821 217f 20       		.byte	0x20
 9822 2180 3B01     		.2byte	0x13b
 9823 2182 86210000 		.4byte	0x2186
 9824 2186 1B       		.uleb128 0x1b
 9825 2187 6F100000 		.4byte	.LASF462
 9826 218b 38       		.byte	0x38
 9827 218c 20       		.byte	0x20
 9828 218d 9F01     		.2byte	0x19f
 9829 218f 16220000 		.4byte	0x2216
 9830 2193 18       		.uleb128 0x18
 9831 2194 E0170000 		.4byte	.LASF463
 9832 2198 20       		.byte	0x20
 9833 2199 A301     		.2byte	0x1a3
 9834 219b 30210000 		.4byte	0x2130
 9835 219f 00       		.byte	0
 9836 21a0 18       		.uleb128 0x18
 9837 21a1 2A1E0000 		.4byte	.LASF464
 9838 21a5 20       		.byte	0x20
 9839 21a6 A701     		.2byte	0x1a7
 9840 21a8 3D230000 		.4byte	0x233d
 9841 21ac 04       		.byte	0x4
 9842 21ad 18       		.uleb128 0x18
ARM GAS  C:\Users\mathi\AppData\Local\Temp\ccOm87JI.s 			page 174


 9843 21ae D2020000 		.4byte	.LASF465
 9844 21b2 20       		.byte	0x20
 9845 21b3 AB01     		.2byte	0x1ab
 9846 21b5 43220000 		.4byte	0x2243
 9847 21b9 08       		.byte	0x8
 9848 21ba 18       		.uleb128 0x18
 9849 21bb A81A0000 		.4byte	.LASF466
 9850 21bf 20       		.byte	0x20
 9851 21c0 AF01     		.2byte	0x1af
 9852 21c2 33000000 		.4byte	0x33
 9853 21c6 0C       		.byte	0xc
 9854 21c7 18       		.uleb128 0x18
 9855 21c8 56210000 		.4byte	.LASF467
 9856 21cc 20       		.byte	0x20
 9857 21cd B301     		.2byte	0x1b3
 9858 21cf 43230000 		.4byte	0x2343
 9859 21d3 10       		.byte	0x10
 9860 21d4 18       		.uleb128 0x18
 9861 21d5 49080000 		.4byte	.LASF468
 9862 21d9 20       		.byte	0x20
 9863 21da B801     		.2byte	0x1b8
 9864 21dc F90A0000 		.4byte	0xaf9
 9865 21e0 14       		.byte	0x14
 9866 21e1 18       		.uleb128 0x18
 9867 21e2 F50D0000 		.4byte	.LASF469
 9868 21e6 20       		.byte	0x20
 9869 21e7 BE01     		.2byte	0x1be
 9870 21e9 501B0000 		.4byte	0x1b50
 9871 21ed 18       		.byte	0x18
 9872 21ee 21       		.uleb128 0x21
 9873 21ef 61646300 		.ascii	"adc\000"
 9874 21f3 20       		.byte	0x20
 9875 21f4 C701     		.2byte	0x1c7
 9876 21f6 49230000 		.4byte	0x2349
 9877 21fa 2C       		.byte	0x2c
 9878 21fb 18       		.uleb128 0x18
 9879 21fc F70B0000 		.4byte	.LASF470
 9880 2200 20       		.byte	0x20
 9881 2201 CB01     		.2byte	0x1cb
 9882 2203 4F230000 		.4byte	0x234f
 9883 2207 30       		.byte	0x30
 9884 2208 18       		.uleb128 0x18
 9885 2209 D8190000 		.4byte	.LASF471
 9886 220d 20       		.byte	0x20
 9887 220e CF01     		.2byte	0x1cf
 9888 2210 1C090000 		.4byte	0x91c
 9889 2214 34       		.byte	0x34
 9890 2215 00       		.byte	0
 9891 2216 07       		.uleb128 0x7
 9892 2217 681D0000 		.4byte	.LASF472
 9893 221b 20       		.byte	0x20
 9894 221c 4501     		.2byte	0x145
 9895 221e 22220000 		.4byte	0x2222
 9896 2222 05       		.uleb128 0x5
 9897 2223 04       		.byte	0x4
 9898 2224 28220000 		.4byte	0x2228
 9899 2228 1F       		.uleb128 0x1f
ARM GAS  C:\Users\mathi\AppData\Local\Temp\ccOm87JI.s 			page 175


 9900 2229 3D220000 		.4byte	0x223d
 9901 222d 16       		.uleb128 0x16
 9902 222e 3D220000 		.4byte	0x223d
 9903 2232 16       		.uleb128 0x16
 9904 2233 43220000 		.4byte	0x2243
 9905 2237 16       		.uleb128 0x16
 9906 2238 33000000 		.4byte	0x33
 9907 223c 00       		.byte	0
 9908 223d 05       		.uleb128 0x5
 9909 223e 04       		.byte	0x4
 9910 223f 7A210000 		.4byte	0x217a
 9911 2243 05       		.uleb128 0x5
 9912 2244 04       		.byte	0x4
 9913 2245 3B210000 		.4byte	0x213b
 9914 2249 07       		.uleb128 0x7
 9915 224a A1170000 		.4byte	.LASF473
 9916 224e 20       		.byte	0x20
 9917 224f 4E01     		.2byte	0x14e
 9918 2251 55220000 		.4byte	0x2255
 9919 2255 05       		.uleb128 0x5
 9920 2256 04       		.byte	0x4
 9921 2257 5B220000 		.4byte	0x225b
 9922 225b 1F       		.uleb128 0x1f
 9923 225c 6B220000 		.4byte	0x226b
 9924 2260 16       		.uleb128 0x16
 9925 2261 3D220000 		.4byte	0x223d
 9926 2265 16       		.uleb128 0x16
 9927 2266 6E210000 		.4byte	0x216e
 9928 226a 00       		.byte	0
 9929 226b 1C       		.uleb128 0x1c
 9930 226c 28       		.byte	0x28
 9931 226d 20       		.byte	0x20
 9932 226e 5801     		.2byte	0x158
 9933 2270 04230000 		.4byte	0x2304
 9934 2274 18       		.uleb128 0x18
 9935 2275 2E240000 		.4byte	.LASF474
 9936 2279 20       		.byte	0x20
 9937 227a 5C01     		.2byte	0x15c
 9938 227c 951E0000 		.4byte	0x1e95
 9939 2280 00       		.byte	0
 9940 2281 18       		.uleb128 0x18
 9941 2282 84110000 		.4byte	.LASF475
 9942 2286 20       		.byte	0x20
 9943 2287 6001     		.2byte	0x160
 9944 2289 47210000 		.4byte	0x2147
 9945 228d 02       		.byte	0x2
 9946 228e 18       		.uleb128 0x18
 9947 228f B00A0000 		.4byte	.LASF476
 9948 2293 20       		.byte	0x20
 9949 2294 6401     		.2byte	0x164
 9950 2296 16220000 		.4byte	0x2216
 9951 229a 04       		.byte	0x4
 9952 229b 18       		.uleb128 0x18
 9953 229c 0F260000 		.4byte	.LASF477
 9954 22a0 20       		.byte	0x20
 9955 22a1 6801     		.2byte	0x168
 9956 22a3 49220000 		.4byte	0x2249
ARM GAS  C:\Users\mathi\AppData\Local\Temp\ccOm87JI.s 			page 176


 9957 22a7 08       		.byte	0x8
 9958 22a8 21       		.uleb128 0x21
 9959 22a9 63723100 		.ascii	"cr1\000"
 9960 22ad 20       		.byte	0x20
 9961 22ae 6F01     		.2byte	0x16f
 9962 22b0 1C090000 		.4byte	0x91c
 9963 22b4 0C       		.byte	0xc
 9964 22b5 21       		.uleb128 0x21
 9965 22b6 63723200 		.ascii	"cr2\000"
 9966 22ba 20       		.byte	0x20
 9967 22bb 7601     		.2byte	0x176
 9968 22bd 1C090000 		.4byte	0x91c
 9969 22c1 10       		.byte	0x10
 9970 22c2 18       		.uleb128 0x18
 9971 22c3 F4180000 		.4byte	.LASF478
 9972 22c7 20       		.byte	0x20
 9973 22c8 7C01     		.2byte	0x17c
 9974 22ca 1C090000 		.4byte	0x91c
 9975 22ce 14       		.byte	0x14
 9976 22cf 18       		.uleb128 0x18
 9977 22d0 FA180000 		.4byte	.LASF479
 9978 22d4 20       		.byte	0x20
 9979 22d5 8201     		.2byte	0x182
 9980 22d7 1C090000 		.4byte	0x91c
 9981 22db 18       		.byte	0x18
 9982 22dc 18       		.uleb128 0x18
 9983 22dd 0D010000 		.4byte	.LASF480
 9984 22e1 20       		.byte	0x20
 9985 22e2 8701     		.2byte	0x187
 9986 22e4 1C090000 		.4byte	0x91c
 9987 22e8 1C       		.byte	0x1c
 9988 22e9 18       		.uleb128 0x18
 9989 22ea 08270000 		.4byte	.LASF481
 9990 22ee 20       		.byte	0x20
 9991 22ef 8C01     		.2byte	0x18c
 9992 22f1 1C090000 		.4byte	0x91c
 9993 22f5 20       		.byte	0x20
 9994 22f6 18       		.uleb128 0x18
 9995 22f7 0D270000 		.4byte	.LASF482
 9996 22fb 20       		.byte	0x20
 9997 22fc 9101     		.2byte	0x191
 9998 22fe 1C090000 		.4byte	0x91c
 9999 2302 24       		.byte	0x24
 10000 2303 00       		.byte	0
 10001 2304 07       		.uleb128 0x7
 10002 2305 B5060000 		.4byte	.LASF483
 10003 2309 20       		.byte	0x20
 10004 230a 9201     		.2byte	0x192
 10005 230c 6B220000 		.4byte	0x226b
 10006 2310 0F       		.uleb128 0xf
 10007 2311 04230000 		.4byte	0x2304
 10008 2315 1C       		.uleb128 0x1c
 10009 2316 04       		.byte	0x4
 10010 2317 20       		.byte	0x20
 10011 2318 9801     		.2byte	0x198
 10012 231a 2C230000 		.4byte	0x232c
 10013 231e 18       		.uleb128 0x18
ARM GAS  C:\Users\mathi\AppData\Local\Temp\ccOm87JI.s 			page 177


 10014 231f 35270000 		.4byte	.LASF484
 10015 2323 20       		.byte	0x20
 10016 2324 9901     		.2byte	0x199
 10017 2326 1C090000 		.4byte	0x91c
 10018 232a 00       		.byte	0
 10019 232b 00       		.byte	0
 10020 232c 07       		.uleb128 0x7
 10021 232d 87100000 		.4byte	.LASF485
 10022 2331 20       		.byte	0x20
 10023 2332 9A01     		.2byte	0x19a
 10024 2334 15230000 		.4byte	0x2315
 10025 2338 0F       		.uleb128 0xf
 10026 2339 2C230000 		.4byte	0x232c
 10027 233d 05       		.uleb128 0x5
 10028 233e 04       		.byte	0x4
 10029 233f 38230000 		.4byte	0x2338
 10030 2343 05       		.uleb128 0x5
 10031 2344 04       		.byte	0x4
 10032 2345 10230000 		.4byte	0x2310
 10033 2349 05       		.uleb128 0x5
 10034 234a 04       		.byte	0x4
 10035 234b 7C0E0000 		.4byte	0xe7c
 10036 234f 05       		.uleb128 0x5
 10037 2350 04       		.byte	0x4
 10038 2351 641D0000 		.4byte	0x1d64
 10039 2355 20       		.uleb128 0x20
 10040 2356 C1190000 		.4byte	.LASF486
 10041 235a 20       		.byte	0x20
 10042 235b 1402     		.2byte	0x214
 10043 235d 7A210000 		.4byte	0x217a
 10044 2361 20       		.uleb128 0x20
 10045 2362 C7190000 		.4byte	.LASF487
 10046 2366 20       		.byte	0x20
 10047 2367 1802     		.2byte	0x218
 10048 2369 7A210000 		.4byte	0x217a
 10049 236d 20       		.uleb128 0x20
 10050 236e CD190000 		.4byte	.LASF488
 10051 2372 20       		.byte	0x20
 10052 2373 1C02     		.2byte	0x21c
 10053 2375 7A210000 		.4byte	0x217a
 10054 2379 27       		.uleb128 0x27
 10055 237a 07       		.byte	0x7
 10056 237b 01       		.byte	0x1
 10057 237c 5E000000 		.4byte	0x5e
 10058 2380 21       		.byte	0x21
 10059 2381 5F       		.byte	0x5f
 10060 2382 A5230000 		.4byte	0x23a5
 10061 2386 28       		.uleb128 0x28
 10062 2387 970E0000 		.4byte	.LASF489
 10063 238b 00       		.byte	0
 10064 238c 28       		.uleb128 0x28
 10065 238d A7000000 		.4byte	.LASF490
 10066 2391 01       		.byte	0x1
 10067 2392 28       		.uleb128 0x28
 10068 2393 38000000 		.4byte	.LASF491
 10069 2397 02       		.byte	0x2
 10070 2398 28       		.uleb128 0x28
ARM GAS  C:\Users\mathi\AppData\Local\Temp\ccOm87JI.s 			page 178


 10071 2399 C61A0000 		.4byte	.LASF492
 10072 239d 03       		.byte	0x3
 10073 239e 28       		.uleb128 0x28
 10074 239f 5F0B0000 		.4byte	.LASF493
 10075 23a3 04       		.byte	0x4
 10076 23a4 00       		.byte	0
 10077 23a5 04       		.uleb128 0x4
 10078 23a6 20070000 		.4byte	.LASF494
 10079 23aa 21       		.byte	0x21
 10080 23ab 65       		.byte	0x65
 10081 23ac 79230000 		.4byte	0x2379
 10082 23b0 0A       		.uleb128 0xa
 10083 23b1 E6080000 		.4byte	0x8e6
 10084 23b5 C0230000 		.4byte	0x23c0
 10085 23b9 0B       		.uleb128 0xb
 10086 23ba 25000000 		.4byte	0x25
 10087 23be 07       		.byte	0x7
 10088 23bf 00       		.byte	0
 10089 23c0 0C       		.uleb128 0xc
 10090 23c1 08       		.byte	0x8
 10091 23c2 22       		.byte	0x22
 10092 23c3 F4       		.byte	0xf4
 10093 23c4 E2230000 		.4byte	0x23e2
 10094 23c8 11       		.uleb128 0x11
 10095 23c9 6D637200 		.ascii	"mcr\000"
 10096 23cd 22       		.byte	0x22
 10097 23ce FA       		.byte	0xfa
 10098 23cf 1C090000 		.4byte	0x91c
 10099 23d3 00       		.byte	0
 10100 23d4 21       		.uleb128 0x21
 10101 23d5 62747200 		.ascii	"btr\000"
 10102 23d9 22       		.byte	0x22
 10103 23da 0001     		.2byte	0x100
 10104 23dc 1C090000 		.4byte	0x91c
 10105 23e0 04       		.byte	0x4
 10106 23e1 00       		.byte	0
 10107 23e2 07       		.uleb128 0x7
 10108 23e3 971B0000 		.4byte	.LASF495
 10109 23e7 22       		.byte	0x22
 10110 23e8 0101     		.2byte	0x101
 10111 23ea C0230000 		.4byte	0x23c0
 10112 23ee 0F       		.uleb128 0xf
 10113 23ef E2230000 		.4byte	0x23e2
 10114 23f3 1C       		.uleb128 0x1c
 10115 23f4 30       		.byte	0x30
 10116 23f5 22       		.byte	0x22
 10117 23f6 0601     		.2byte	0x106
 10118 23f8 7F240000 		.4byte	0x247f
 10119 23fc 18       		.uleb128 0x18
 10120 23fd E0170000 		.4byte	.LASF463
 10121 2401 22       		.byte	0x22
 10122 2402 0A01     		.2byte	0x10a
 10123 2404 A5230000 		.4byte	0x23a5
 10124 2408 00       		.byte	0
 10125 2409 18       		.uleb128 0x18
 10126 240a 2A1E0000 		.4byte	.LASF464
 10127 240e 22       		.byte	0x22
ARM GAS  C:\Users\mathi\AppData\Local\Temp\ccOm87JI.s 			page 179


 10128 240f 0E01     		.2byte	0x10e
 10129 2411 7F240000 		.4byte	0x247f
 10130 2415 04       		.byte	0x4
 10131 2416 18       		.uleb128 0x18
 10132 2417 E50A0000 		.4byte	.LASF496
 10133 241b 22       		.byte	0x22
 10134 241c 1201     		.2byte	0x112
 10135 241e 2E0B0000 		.4byte	0xb2e
 10136 2422 08       		.byte	0x8
 10137 2423 18       		.uleb128 0x18
 10138 2424 2A210000 		.4byte	.LASF497
 10139 2428 22       		.byte	0x22
 10140 2429 1601     		.2byte	0x116
 10141 242b 2E0B0000 		.4byte	0xb2e
 10142 242f 10       		.byte	0x10
 10143 2430 18       		.uleb128 0x18
 10144 2431 6E1B0000 		.4byte	.LASF498
 10145 2435 22       		.byte	0x22
 10146 2436 2301     		.2byte	0x123
 10147 2438 D41B0000 		.4byte	0x1bd4
 10148 243c 18       		.byte	0x18
 10149 243d 18       		.uleb128 0x18
 10150 243e F10C0000 		.4byte	.LASF499
 10151 2442 22       		.byte	0x22
 10152 2443 2A01     		.2byte	0x12a
 10153 2445 D41B0000 		.4byte	0x1bd4
 10154 2449 1C       		.byte	0x1c
 10155 244a 18       		.uleb128 0x18
 10156 244b 78110000 		.4byte	.LASF500
 10157 244f 22       		.byte	0x22
 10158 2450 3001     		.2byte	0x130
 10159 2452 D41B0000 		.4byte	0x1bd4
 10160 2456 20       		.byte	0x20
 10161 2457 18       		.uleb128 0x18
 10162 2458 78040000 		.4byte	.LASF501
 10163 245c 22       		.byte	0x22
 10164 245d 3501     		.2byte	0x135
 10165 245f D41B0000 		.4byte	0x1bd4
 10166 2463 24       		.byte	0x24
 10167 2464 18       		.uleb128 0x18
 10168 2465 9B0A0000 		.4byte	.LASF502
 10169 2469 22       		.byte	0x22
 10170 246a 3901     		.2byte	0x139
 10171 246c D41B0000 		.4byte	0x1bd4
 10172 2470 28       		.byte	0x28
 10173 2471 21       		.uleb128 0x21
 10174 2472 63616E00 		.ascii	"can\000"
 10175 2476 22       		.byte	0x22
 10176 2477 3F01     		.2byte	0x13f
 10177 2479 85240000 		.4byte	0x2485
 10178 247d 2C       		.byte	0x2c
 10179 247e 00       		.byte	0
 10180 247f 05       		.uleb128 0x5
 10181 2480 04       		.byte	0x4
 10182 2481 EE230000 		.4byte	0x23ee
 10183 2485 05       		.uleb128 0x5
 10184 2486 04       		.byte	0x4
ARM GAS  C:\Users\mathi\AppData\Local\Temp\ccOm87JI.s 			page 180


 10185 2487 C5100000 		.4byte	0x10c5
 10186 248b 07       		.uleb128 0x7
 10187 248c CE040000 		.4byte	.LASF503
 10188 2490 22       		.byte	0x22
 10189 2491 4001     		.2byte	0x140
 10190 2493 F3230000 		.4byte	0x23f3
 10191 2497 20       		.uleb128 0x20
 10192 2498 D0220000 		.4byte	.LASF504
 10193 249c 22       		.byte	0x22
 10194 249d 4B01     		.2byte	0x14b
 10195 249f 8B240000 		.4byte	0x248b
 10196 24a3 27       		.uleb128 0x27
 10197 24a4 07       		.byte	0x7
 10198 24a5 01       		.byte	0x1
 10199 24a6 5E000000 		.4byte	0x5e
 10200 24aa 23       		.byte	0x23
 10201 24ab 46       		.byte	0x46
 10202 24ac D5240000 		.4byte	0x24d5
 10203 24b0 28       		.uleb128 0x28
 10204 24b1 801E0000 		.4byte	.LASF505
 10205 24b5 00       		.byte	0
 10206 24b6 28       		.uleb128 0x28
 10207 24b7 65240000 		.4byte	.LASF506
 10208 24bb 01       		.byte	0x1
 10209 24bc 28       		.uleb128 0x28
 10210 24bd E90F0000 		.4byte	.LASF507
 10211 24c1 02       		.byte	0x2
 10212 24c2 28       		.uleb128 0x28
 10213 24c3 C7170000 		.4byte	.LASF508
 10214 24c7 03       		.byte	0x3
 10215 24c8 28       		.uleb128 0x28
 10216 24c9 051E0000 		.4byte	.LASF509
 10217 24cd 04       		.byte	0x4
 10218 24ce 28       		.uleb128 0x28
 10219 24cf CC100000 		.4byte	.LASF510
 10220 24d3 05       		.byte	0x5
 10221 24d4 00       		.byte	0
 10222 24d5 04       		.uleb128 0x4
 10223 24d6 081B0000 		.4byte	.LASF511
 10224 24da 23       		.byte	0x23
 10225 24db 4D       		.byte	0x4d
 10226 24dc A3240000 		.4byte	0x24a3
 10227 24e0 0C       		.uleb128 0xc
 10228 24e1 1C       		.byte	0x1c
 10229 24e2 24       		.byte	0x24
 10230 24e3 F9       		.byte	0xf9
 10231 24e4 43250000 		.4byte	0x2543
 10232 24e8 11       		.uleb128 0x11
 10233 24e9 64616300 		.ascii	"dac\000"
 10234 24ed 24       		.byte	0x24
 10235 24ee FD       		.byte	0xfd
 10236 24ef 43250000 		.4byte	0x2543
 10237 24f3 00       		.byte	0
 10238 24f4 18       		.uleb128 0x18
 10239 24f5 591A0000 		.4byte	.LASF512
 10240 24f9 24       		.byte	0x24
 10241 24fa 0101     		.2byte	0x101
ARM GAS  C:\Users\mathi\AppData\Local\Temp\ccOm87JI.s 			page 181


 10242 24fc 1C090000 		.4byte	0x91c
 10243 2500 04       		.byte	0x4
 10244 2501 18       		.uleb128 0x18
 10245 2502 50080000 		.4byte	.LASF513
 10246 2506 24       		.byte	0x24
 10247 2507 0501     		.2byte	0x105
 10248 2509 1C090000 		.4byte	0x91c
 10249 250d 08       		.byte	0x8
 10250 250e 18       		.uleb128 0x18
 10251 250f E5020000 		.4byte	.LASF514
 10252 2513 24       		.byte	0x24
 10253 2514 0901     		.2byte	0x109
 10254 2516 1C090000 		.4byte	0x91c
 10255 251a 0C       		.byte	0xc
 10256 251b 21       		.uleb128 0x21
 10257 251c 646D6100 		.ascii	"dma\000"
 10258 2520 24       		.byte	0x24
 10259 2521 0D01     		.2byte	0x10d
 10260 2523 4F230000 		.4byte	0x234f
 10261 2527 10       		.byte	0x10
 10262 2528 18       		.uleb128 0x18
 10263 2529 D8190000 		.4byte	.LASF471
 10264 252d 24       		.byte	0x24
 10265 252e 1101     		.2byte	0x111
 10266 2530 1C090000 		.4byte	0x91c
 10267 2534 14       		.byte	0x14
 10268 2535 18       		.uleb128 0x18
 10269 2536 87190000 		.4byte	.LASF515
 10270 253a 24       		.byte	0x24
 10271 253b 1501     		.2byte	0x115
 10272 253d 1C090000 		.4byte	0x91c
 10273 2541 18       		.byte	0x18
 10274 2542 00       		.byte	0
 10275 2543 05       		.uleb128 0x5
 10276 2544 04       		.byte	0x4
 10277 2545 8F110000 		.4byte	0x118f
 10278 2549 07       		.uleb128 0x7
 10279 254a 2B040000 		.4byte	.LASF516
 10280 254e 24       		.byte	0x24
 10281 254f 1601     		.2byte	0x116
 10282 2551 E0240000 		.4byte	0x24e0
 10283 2555 0F       		.uleb128 0xf
 10284 2556 49250000 		.4byte	0x2549
 10285 255a 07       		.uleb128 0x7
 10286 255b 000E0000 		.4byte	.LASF517
 10287 255f 24       		.byte	0x24
 10288 2560 1B01     		.2byte	0x11b
 10289 2562 66250000 		.4byte	0x2566
 10290 2566 1B       		.uleb128 0x1b
 10291 2567 000E0000 		.4byte	.LASF517
 10292 256b 30       		.byte	0x30
 10293 256c 24       		.byte	0x24
 10294 256d 7B01     		.2byte	0x17b
 10295 256f DC250000 		.4byte	0x25dc
 10296 2573 18       		.uleb128 0x18
 10297 2574 E0170000 		.4byte	.LASF463
 10298 2578 24       		.byte	0x24
ARM GAS  C:\Users\mathi\AppData\Local\Temp\ccOm87JI.s 			page 182


 10299 2579 7F01     		.2byte	0x17f
 10300 257b D5240000 		.4byte	0x24d5
 10301 257f 00       		.byte	0
 10302 2580 18       		.uleb128 0x18
 10303 2581 56210000 		.4byte	.LASF467
 10304 2585 24       		.byte	0x24
 10305 2586 8301     		.2byte	0x183
 10306 2588 1A270000 		.4byte	0x271a
 10307 258c 04       		.byte	0x4
 10308 258d 18       		.uleb128 0x18
 10309 258e D2020000 		.4byte	.LASF465
 10310 2592 24       		.byte	0x24
 10311 2593 8701     		.2byte	0x187
 10312 2595 41260000 		.4byte	0x2641
 10313 2599 08       		.byte	0x8
 10314 259a 18       		.uleb128 0x18
 10315 259b A81A0000 		.4byte	.LASF466
 10316 259f 24       		.byte	0x24
 10317 25a0 8B01     		.2byte	0x18b
 10318 25a2 01090000 		.4byte	0x901
 10319 25a6 0C       		.byte	0xc
 10320 25a7 18       		.uleb128 0x18
 10321 25a8 2A1E0000 		.4byte	.LASF464
 10322 25ac 24       		.byte	0x24
 10323 25ad 8F01     		.2byte	0x18f
 10324 25af 20270000 		.4byte	0x2720
 10325 25b3 10       		.byte	0x10
 10326 25b4 18       		.uleb128 0x18
 10327 25b5 49080000 		.4byte	.LASF468
 10328 25b9 24       		.byte	0x24
 10329 25ba 9401     		.2byte	0x194
 10330 25bc F90A0000 		.4byte	0xaf9
 10331 25c0 14       		.byte	0x14
 10332 25c1 18       		.uleb128 0x18
 10333 25c2 F50D0000 		.4byte	.LASF469
 10334 25c6 24       		.byte	0x24
 10335 25c7 9A01     		.2byte	0x19a
 10336 25c9 501B0000 		.4byte	0x1b50
 10337 25cd 18       		.byte	0x18
 10338 25ce 18       		.uleb128 0x18
 10339 25cf F9110000 		.4byte	.LASF518
 10340 25d3 24       		.byte	0x24
 10341 25d4 A301     		.2byte	0x1a3
 10342 25d6 26270000 		.4byte	0x2726
 10343 25da 2C       		.byte	0x2c
 10344 25db 00       		.byte	0
 10345 25dc 07       		.uleb128 0x7
 10346 25dd 401B0000 		.4byte	.LASF519
 10347 25e1 24       		.byte	0x24
 10348 25e2 2001     		.2byte	0x120
 10349 25e4 01090000 		.4byte	0x901
 10350 25e8 0F       		.uleb128 0xf
 10351 25e9 DC250000 		.4byte	0x25dc
 10352 25ed 2A       		.uleb128 0x2a
 10353 25ee 07       		.byte	0x7
 10354 25ef 01       		.byte	0x1
 10355 25f0 5E000000 		.4byte	0x5e
ARM GAS  C:\Users\mathi\AppData\Local\Temp\ccOm87JI.s 			page 183


 10356 25f4 24       		.byte	0x24
 10357 25f5 2701     		.2byte	0x127
 10358 25f7 08260000 		.4byte	0x2608
 10359 25fb 28       		.uleb128 0x28
 10360 25fc DB1B0000 		.4byte	.LASF520
 10361 2600 00       		.byte	0
 10362 2601 28       		.uleb128 0x28
 10363 2602 890A0000 		.4byte	.LASF521
 10364 2606 01       		.byte	0x1
 10365 2607 00       		.byte	0
 10366 2608 07       		.uleb128 0x7
 10367 2609 57120000 		.4byte	.LASF522
 10368 260d 24       		.byte	0x24
 10369 260e 2A01     		.2byte	0x12a
 10370 2610 ED250000 		.4byte	0x25ed
 10371 2614 07       		.uleb128 0x7
 10372 2615 BC080000 		.4byte	.LASF523
 10373 2619 24       		.byte	0x24
 10374 261a 3401     		.2byte	0x134
 10375 261c 20260000 		.4byte	0x2620
 10376 2620 05       		.uleb128 0x5
 10377 2621 04       		.byte	0x4
 10378 2622 26260000 		.4byte	0x2626
 10379 2626 1F       		.uleb128 0x1f
 10380 2627 3B260000 		.4byte	0x263b
 10381 262b 16       		.uleb128 0x16
 10382 262c 3B260000 		.4byte	0x263b
 10383 2630 16       		.uleb128 0x16
 10384 2631 41260000 		.4byte	0x2641
 10385 2635 16       		.uleb128 0x16
 10386 2636 33000000 		.4byte	0x33
 10387 263a 00       		.byte	0
 10388 263b 05       		.uleb128 0x5
 10389 263c 04       		.byte	0x4
 10390 263d 5A250000 		.4byte	0x255a
 10391 2641 05       		.uleb128 0x5
 10392 2642 04       		.byte	0x4
 10393 2643 E8250000 		.4byte	0x25e8
 10394 2647 07       		.uleb128 0x7
 10395 2648 26230000 		.4byte	.LASF524
 10396 264c 24       		.byte	0x24
 10397 264d 3F01     		.2byte	0x13f
 10398 264f 53260000 		.4byte	0x2653
 10399 2653 05       		.uleb128 0x5
 10400 2654 04       		.byte	0x4
 10401 2655 59260000 		.4byte	0x2659
 10402 2659 1F       		.uleb128 0x1f
 10403 265a 69260000 		.4byte	0x2669
 10404 265e 16       		.uleb128 0x16
 10405 265f 3B260000 		.4byte	0x263b
 10406 2663 16       		.uleb128 0x16
 10407 2664 08260000 		.4byte	0x2608
 10408 2668 00       		.byte	0
 10409 2669 2A       		.uleb128 0x2a
 10410 266a 07       		.byte	0x7
 10411 266b 01       		.byte	0x1
 10412 266c 5E000000 		.4byte	0x5e
ARM GAS  C:\Users\mathi\AppData\Local\Temp\ccOm87JI.s 			page 184


 10413 2670 24       		.byte	0x24
 10414 2671 4401     		.2byte	0x144
 10415 2673 8A260000 		.4byte	0x268a
 10416 2677 28       		.uleb128 0x28
 10417 2678 DA1E0000 		.4byte	.LASF525
 10418 267c 00       		.byte	0
 10419 267d 28       		.uleb128 0x28
 10420 267e F8130000 		.4byte	.LASF526
 10421 2682 01       		.byte	0x1
 10422 2683 28       		.uleb128 0x28
 10423 2684 78180000 		.4byte	.LASF527
 10424 2688 02       		.byte	0x2
 10425 2689 00       		.byte	0
 10426 268a 07       		.uleb128 0x7
 10427 268b EA0B0000 		.4byte	.LASF528
 10428 268f 24       		.byte	0x24
 10429 2690 4D01     		.2byte	0x14d
 10430 2692 69260000 		.4byte	0x2669
 10431 2696 1C       		.uleb128 0x1c
 10432 2697 10       		.byte	0x10
 10433 2698 24       		.byte	0x24
 10434 2699 5201     		.2byte	0x152
 10435 269b D4260000 		.4byte	0x26d4
 10436 269f 18       		.uleb128 0x18
 10437 26a0 84110000 		.4byte	.LASF475
 10438 26a4 24       		.byte	0x24
 10439 26a5 5601     		.2byte	0x156
 10440 26a7 1C090000 		.4byte	0x91c
 10441 26ab 00       		.byte	0
 10442 26ac 18       		.uleb128 0x18
 10443 26ad B00A0000 		.4byte	.LASF476
 10444 26b1 24       		.byte	0x24
 10445 26b2 5A01     		.2byte	0x15a
 10446 26b4 14260000 		.4byte	0x2614
 10447 26b8 04       		.byte	0x4
 10448 26b9 18       		.uleb128 0x18
 10449 26ba 0F260000 		.4byte	.LASF477
 10450 26be 24       		.byte	0x24
 10451 26bf 5E01     		.2byte	0x15e
 10452 26c1 47260000 		.4byte	0x2647
 10453 26c5 08       		.byte	0x8
 10454 26c6 18       		.uleb128 0x18
 10455 26c7 0B160000 		.4byte	.LASF529
 10456 26cb 24       		.byte	0x24
 10457 26cc 6601     		.2byte	0x166
 10458 26ce 1C090000 		.4byte	0x91c
 10459 26d2 0C       		.byte	0xc
 10460 26d3 00       		.byte	0
 10461 26d4 07       		.uleb128 0x7
 10462 26d5 27130000 		.4byte	.LASF530
 10463 26d9 24       		.byte	0x24
 10464 26da 6701     		.2byte	0x167
 10465 26dc 96260000 		.4byte	0x2696
 10466 26e0 0F       		.uleb128 0xf
 10467 26e1 D4260000 		.4byte	0x26d4
 10468 26e5 1C       		.uleb128 0x1c
 10469 26e6 04       		.byte	0x4
ARM GAS  C:\Users\mathi\AppData\Local\Temp\ccOm87JI.s 			page 185


 10470 26e7 24       		.byte	0x24
 10471 26e8 6C01     		.2byte	0x16c
 10472 26ea 09270000 		.4byte	0x2709
 10473 26ee 18       		.uleb128 0x18
 10474 26ef 4B0C0000 		.4byte	.LASF531
 10475 26f3 24       		.byte	0x24
 10476 26f4 7101     		.2byte	0x171
 10477 26f6 DC250000 		.4byte	0x25dc
 10478 26fa 00       		.byte	0
 10479 26fb 18       		.uleb128 0x18
 10480 26fc DF000000 		.4byte	.LASF532
 10481 2700 24       		.byte	0x24
 10482 2701 7501     		.2byte	0x175
 10483 2703 8A260000 		.4byte	0x268a
 10484 2707 02       		.byte	0x2
 10485 2708 00       		.byte	0
 10486 2709 07       		.uleb128 0x7
 10487 270a 0A0E0000 		.4byte	.LASF533
 10488 270e 24       		.byte	0x24
 10489 270f 7601     		.2byte	0x176
 10490 2711 E5260000 		.4byte	0x26e5
 10491 2715 0F       		.uleb128 0xf
 10492 2716 09270000 		.4byte	0x2709
 10493 271a 05       		.uleb128 0x5
 10494 271b 04       		.byte	0x4
 10495 271c E0260000 		.4byte	0x26e0
 10496 2720 05       		.uleb128 0x5
 10497 2721 04       		.byte	0x4
 10498 2722 15270000 		.4byte	0x2715
 10499 2726 05       		.uleb128 0x5
 10500 2727 04       		.byte	0x4
 10501 2728 55250000 		.4byte	0x2555
 10502 272c 20       		.uleb128 0x20
 10503 272d C8040000 		.4byte	.LASF534
 10504 2731 24       		.byte	0x24
 10505 2732 B301     		.2byte	0x1b3
 10506 2734 5A250000 		.4byte	0x255a
 10507 2738 27       		.uleb128 0x27
 10508 2739 07       		.byte	0x7
 10509 273a 01       		.byte	0x1
 10510 273b 5E000000 		.4byte	0x5e
 10511 273f 25       		.byte	0x25
 10512 2740 3F       		.byte	0x3f
 10513 2741 58270000 		.4byte	0x2758
 10514 2745 28       		.uleb128 0x28
 10515 2746 540B0000 		.4byte	.LASF535
 10516 274a 00       		.byte	0
 10517 274b 28       		.uleb128 0x28
 10518 274c 21280000 		.4byte	.LASF536
 10519 2750 01       		.byte	0x1
 10520 2751 28       		.uleb128 0x28
 10521 2752 1F030000 		.4byte	.LASF537
 10522 2756 02       		.byte	0x2
 10523 2757 00       		.byte	0
 10524 2758 04       		.uleb128 0x4
 10525 2759 871D0000 		.4byte	.LASF538
 10526 275d 25       		.byte	0x25
ARM GAS  C:\Users\mathi\AppData\Local\Temp\ccOm87JI.s 			page 186


 10527 275e 43       		.byte	0x43
 10528 275f 38270000 		.4byte	0x2738
 10529 2763 04       		.uleb128 0x4
 10530 2764 050A0000 		.4byte	.LASF539
 10531 2768 25       		.byte	0x25
 10532 2769 48       		.byte	0x48
 10533 276a 6E270000 		.4byte	0x276e
 10534 276e 10       		.uleb128 0x10
 10535 276f 050A0000 		.4byte	.LASF539
 10536 2773 08       		.byte	0x8
 10537 2774 26       		.byte	0x26
 10538 2775 71       		.byte	0x71
 10539 2776 93270000 		.4byte	0x2793
 10540 277a 0D       		.uleb128 0xd
 10541 277b E0170000 		.4byte	.LASF463
 10542 277f 26       		.byte	0x26
 10543 2780 75       		.byte	0x75
 10544 2781 58270000 		.4byte	0x2758
 10545 2785 00       		.byte	0
 10546 2786 0D       		.uleb128 0xd
 10547 2787 2A1E0000 		.4byte	.LASF464
 10548 278b 26       		.byte	0x26
 10549 278c 79       		.byte	0x79
 10550 278d 25280000 		.4byte	0x2825
 10551 2791 04       		.byte	0x4
 10552 2792 00       		.byte	0
 10553 2793 04       		.uleb128 0x4
 10554 2794 44260000 		.4byte	.LASF540
 10555 2798 26       		.byte	0x26
 10556 2799 47       		.byte	0x47
 10557 279a 1C090000 		.4byte	0x91c
 10558 279e 04       		.uleb128 0x4
 10559 279f 1C210000 		.4byte	.LASF541
 10560 27a3 26       		.byte	0x26
 10561 27a4 4F       		.byte	0x4f
 10562 27a5 A9270000 		.4byte	0x27a9
 10563 27a9 05       		.uleb128 0x5
 10564 27aa 04       		.byte	0x4
 10565 27ab AF270000 		.4byte	0x27af
 10566 27af 1F       		.uleb128 0x1f
 10567 27b0 BF270000 		.4byte	0x27bf
 10568 27b4 16       		.uleb128 0x16
 10569 27b5 BF270000 		.4byte	0x27bf
 10570 27b9 16       		.uleb128 0x16
 10571 27ba 93270000 		.4byte	0x2793
 10572 27be 00       		.byte	0
 10573 27bf 05       		.uleb128 0x5
 10574 27c0 04       		.byte	0x4
 10575 27c1 63270000 		.4byte	0x2763
 10576 27c5 0C       		.uleb128 0xc
 10577 27c6 08       		.byte	0x8
 10578 27c7 26       		.byte	0x26
 10579 27c8 54       		.byte	0x54
 10580 27c9 E5270000 		.4byte	0x27e5
 10581 27cd 0D       		.uleb128 0xd
 10582 27ce EA090000 		.4byte	.LASF542
 10583 27d2 26       		.byte	0x26
ARM GAS  C:\Users\mathi\AppData\Local\Temp\ccOm87JI.s 			page 187


 10584 27d3 58       		.byte	0x58
 10585 27d4 1C090000 		.4byte	0x91c
 10586 27d8 00       		.byte	0
 10587 27d9 11       		.uleb128 0x11
 10588 27da 636200   		.ascii	"cb\000"
 10589 27dd 26       		.byte	0x26
 10590 27de 5F       		.byte	0x5f
 10591 27df 9E270000 		.4byte	0x279e
 10592 27e3 04       		.byte	0x4
 10593 27e4 00       		.byte	0
 10594 27e5 04       		.uleb128 0x4
 10595 27e6 D00F0000 		.4byte	.LASF543
 10596 27ea 26       		.byte	0x26
 10597 27eb 60       		.byte	0x60
 10598 27ec C5270000 		.4byte	0x27c5
 10599 27f0 0C       		.uleb128 0xc
 10600 27f1 B8       		.byte	0xb8
 10601 27f2 26       		.byte	0x26
 10602 27f3 66       		.byte	0x66
 10603 27f4 05280000 		.4byte	0x2805
 10604 27f8 0D       		.uleb128 0xd
 10605 27f9 46230000 		.4byte	.LASF544
 10606 27fd 26       		.byte	0x26
 10607 27fe 6A       		.byte	0x6a
 10608 27ff 05280000 		.4byte	0x2805
 10609 2803 00       		.byte	0
 10610 2804 00       		.byte	0
 10611 2805 0A       		.uleb128 0xa
 10612 2806 E5270000 		.4byte	0x27e5
 10613 280a 15280000 		.4byte	0x2815
 10614 280e 0B       		.uleb128 0xb
 10615 280f 25000000 		.4byte	0x25
 10616 2813 16       		.byte	0x16
 10617 2814 00       		.byte	0
 10618 2815 04       		.uleb128 0x4
 10619 2816 ED1F0000 		.4byte	.LASF545
 10620 281a 26       		.byte	0x26
 10621 281b 6C       		.byte	0x6c
 10622 281c F0270000 		.4byte	0x27f0
 10623 2820 0F       		.uleb128 0xf
 10624 2821 15280000 		.4byte	0x2815
 10625 2825 05       		.uleb128 0x5
 10626 2826 04       		.byte	0x4
 10627 2827 20280000 		.4byte	0x2820
 10628 282b 23       		.uleb128 0x23
 10629 282c 00070000 		.4byte	.LASF546
 10630 2830 26       		.byte	0x26
 10631 2831 86       		.byte	0x86
 10632 2832 63270000 		.4byte	0x2763
 10633 2836 27       		.uleb128 0x27
 10634 2837 07       		.byte	0x7
 10635 2838 01       		.byte	0x1
 10636 2839 5E000000 		.4byte	0x5e
 10637 283d 27       		.byte	0x27
 10638 283e 31       		.byte	0x31
 10639 283f 62280000 		.4byte	0x2862
 10640 2843 28       		.uleb128 0x28
ARM GAS  C:\Users\mathi\AppData\Local\Temp\ccOm87JI.s 			page 188


 10641 2844 8C180000 		.4byte	.LASF547
 10642 2848 00       		.byte	0
 10643 2849 28       		.uleb128 0x28
 10644 284a 33160000 		.4byte	.LASF548
 10645 284e 01       		.byte	0x1
 10646 284f 28       		.uleb128 0x28
 10647 2850 FE1A0000 		.4byte	.LASF549
 10648 2854 02       		.byte	0x2
 10649 2855 28       		.uleb128 0x28
 10650 2856 18090000 		.4byte	.LASF550
 10651 285a 03       		.byte	0x3
 10652 285b 28       		.uleb128 0x28
 10653 285c B5050000 		.4byte	.LASF551
 10654 2860 04       		.byte	0x4
 10655 2861 00       		.byte	0
 10656 2862 04       		.uleb128 0x4
 10657 2863 5A140000 		.4byte	.LASF552
 10658 2867 27       		.byte	0x27
 10659 2868 37       		.byte	0x37
 10660 2869 36280000 		.4byte	0x2836
 10661 286d 04       		.uleb128 0x4
 10662 286e 92190000 		.4byte	.LASF553
 10663 2872 27       		.byte	0x27
 10664 2873 3C       		.byte	0x3c
 10665 2874 78280000 		.4byte	0x2878
 10666 2878 1B       		.uleb128 0x1b
 10667 2879 92190000 		.4byte	.LASF553
 10668 287d 10       		.byte	0x10
 10669 287e 28       		.byte	0x28
 10670 287f 9701     		.2byte	0x197
 10671 2881 BA280000 		.4byte	0x28ba
 10672 2885 18       		.uleb128 0x18
 10673 2886 E0170000 		.4byte	.LASF463
 10674 288a 28       		.byte	0x28
 10675 288b 9B01     		.2byte	0x19b
 10676 288d 62280000 		.4byte	0x2862
 10677 2891 00       		.byte	0
 10678 2892 18       		.uleb128 0x18
 10679 2893 2A1E0000 		.4byte	.LASF464
 10680 2897 28       		.byte	0x28
 10681 2898 9F01     		.2byte	0x19f
 10682 289a 4F2A0000 		.4byte	0x2a4f
 10683 289e 04       		.byte	0x4
 10684 289f 18       		.uleb128 0x18
 10685 28a0 1E0E0000 		.4byte	.LASF554
 10686 28a4 28       		.byte	0x28
 10687 28a5 A701     		.2byte	0x1a7
 10688 28a7 1C090000 		.4byte	0x91c
 10689 28ab 08       		.byte	0x8
 10690 28ac 21       		.uleb128 0x21
 10691 28ad 74696D00 		.ascii	"tim\000"
 10692 28b1 28       		.byte	0x28
 10693 28b2 AB01     		.2byte	0x1ab
 10694 28b4 552A0000 		.4byte	0x2a55
 10695 28b8 0C       		.byte	0xc
 10696 28b9 00       		.byte	0
 10697 28ba 04       		.uleb128 0x4
ARM GAS  C:\Users\mathi\AppData\Local\Temp\ccOm87JI.s 			page 189


 10698 28bb 79120000 		.4byte	.LASF555
 10699 28bf 27       		.byte	0x27
 10700 28c0 43       		.byte	0x43
 10701 28c1 C5280000 		.4byte	0x28c5
 10702 28c5 05       		.uleb128 0x5
 10703 28c6 04       		.byte	0x4
 10704 28c7 CB280000 		.4byte	0x28cb
 10705 28cb 1F       		.uleb128 0x1f
 10706 28cc D6280000 		.4byte	0x28d6
 10707 28d0 16       		.uleb128 0x16
 10708 28d1 D6280000 		.4byte	0x28d6
 10709 28d5 00       		.byte	0
 10710 28d6 05       		.uleb128 0x5
 10711 28d7 04       		.byte	0x4
 10712 28d8 6D280000 		.4byte	0x286d
 10713 28dc 1C       		.uleb128 0x1c
 10714 28dd 60       		.byte	0x60
 10715 28de 29       		.byte	0x29
 10716 28df 9E01     		.2byte	0x19e
 10717 28e1 E8290000 		.4byte	0x29e8
 10718 28e5 21       		.uleb128 0x21
 10719 28e6 43523100 		.ascii	"CR1\000"
 10720 28ea 29       		.byte	0x29
 10721 28eb 9F01     		.2byte	0x19f
 10722 28ed 27090000 		.4byte	0x927
 10723 28f1 00       		.byte	0
 10724 28f2 21       		.uleb128 0x21
 10725 28f3 43523200 		.ascii	"CR2\000"
 10726 28f7 29       		.byte	0x29
 10727 28f8 A001     		.2byte	0x1a0
 10728 28fa 27090000 		.4byte	0x927
 10729 28fe 04       		.byte	0x4
 10730 28ff 18       		.uleb128 0x18
 10731 2900 75220000 		.4byte	.LASF556
 10732 2904 29       		.byte	0x29
 10733 2905 A101     		.2byte	0x1a1
 10734 2907 27090000 		.4byte	0x927
 10735 290b 08       		.byte	0x8
 10736 290c 18       		.uleb128 0x18
 10737 290d 9B0B0000 		.4byte	.LASF557
 10738 2911 29       		.byte	0x29
 10739 2912 A201     		.2byte	0x1a2
 10740 2914 27090000 		.4byte	0x927
 10741 2918 0C       		.byte	0xc
 10742 2919 21       		.uleb128 0x21
 10743 291a 535200   		.ascii	"SR\000"
 10744 291d 29       		.byte	0x29
 10745 291e A301     		.2byte	0x1a3
 10746 2920 27090000 		.4byte	0x927
 10747 2924 10       		.byte	0x10
 10748 2925 21       		.uleb128 0x21
 10749 2926 45475200 		.ascii	"EGR\000"
 10750 292a 29       		.byte	0x29
 10751 292b A401     		.2byte	0x1a4
 10752 292d 27090000 		.4byte	0x927
 10753 2931 14       		.byte	0x14
 10754 2932 18       		.uleb128 0x18
ARM GAS  C:\Users\mathi\AppData\Local\Temp\ccOm87JI.s 			page 190


 10755 2933 E9260000 		.4byte	.LASF558
 10756 2937 29       		.byte	0x29
 10757 2938 A501     		.2byte	0x1a5
 10758 293a 27090000 		.4byte	0x927
 10759 293e 18       		.byte	0x18
 10760 293f 18       		.uleb128 0x18
 10761 2940 EF260000 		.4byte	.LASF559
 10762 2944 29       		.byte	0x29
 10763 2945 A601     		.2byte	0x1a6
 10764 2947 27090000 		.4byte	0x927
 10765 294b 1C       		.byte	0x1c
 10766 294c 18       		.uleb128 0x18
 10767 294d 99080000 		.4byte	.LASF560
 10768 2951 29       		.byte	0x29
 10769 2952 A701     		.2byte	0x1a7
 10770 2954 27090000 		.4byte	0x927
 10771 2958 20       		.byte	0x20
 10772 2959 21       		.uleb128 0x21
 10773 295a 434E5400 		.ascii	"CNT\000"
 10774 295e 29       		.byte	0x29
 10775 295f A801     		.2byte	0x1a8
 10776 2961 27090000 		.4byte	0x927
 10777 2965 24       		.byte	0x24
 10778 2966 21       		.uleb128 0x21
 10779 2967 50534300 		.ascii	"PSC\000"
 10780 296b 29       		.byte	0x29
 10781 296c A901     		.2byte	0x1a9
 10782 296e 27090000 		.4byte	0x927
 10783 2972 28       		.byte	0x28
 10784 2973 21       		.uleb128 0x21
 10785 2974 41525200 		.ascii	"ARR\000"
 10786 2978 29       		.byte	0x29
 10787 2979 AA01     		.2byte	0x1aa
 10788 297b 27090000 		.4byte	0x927
 10789 297f 2C       		.byte	0x2c
 10790 2980 21       		.uleb128 0x21
 10791 2981 52435200 		.ascii	"RCR\000"
 10792 2985 29       		.byte	0x29
 10793 2986 AB01     		.2byte	0x1ab
 10794 2988 27090000 		.4byte	0x927
 10795 298c 30       		.byte	0x30
 10796 298d 21       		.uleb128 0x21
 10797 298e 43435200 		.ascii	"CCR\000"
 10798 2992 29       		.byte	0x29
 10799 2993 AC01     		.2byte	0x1ac
 10800 2995 23120000 		.4byte	0x1223
 10801 2999 34       		.byte	0x34
 10802 299a 18       		.uleb128 0x18
 10803 299b E0020000 		.4byte	.LASF561
 10804 299f 29       		.byte	0x29
 10805 29a0 AD01     		.2byte	0x1ad
 10806 29a2 27090000 		.4byte	0x927
 10807 29a6 44       		.byte	0x44
 10808 29a7 21       		.uleb128 0x21
 10809 29a8 44435200 		.ascii	"DCR\000"
 10810 29ac 29       		.byte	0x29
 10811 29ad AE01     		.2byte	0x1ae
ARM GAS  C:\Users\mathi\AppData\Local\Temp\ccOm87JI.s 			page 191


 10812 29af 27090000 		.4byte	0x927
 10813 29b3 48       		.byte	0x48
 10814 29b4 18       		.uleb128 0x18
 10815 29b5 35180000 		.4byte	.LASF562
 10816 29b9 29       		.byte	0x29
 10817 29ba AF01     		.2byte	0x1af
 10818 29bc 27090000 		.4byte	0x927
 10819 29c0 4C       		.byte	0x4c
 10820 29c1 21       		.uleb128 0x21
 10821 29c2 4F5200   		.ascii	"OR\000"
 10822 29c5 29       		.byte	0x29
 10823 29c6 B001     		.2byte	0x1b0
 10824 29c8 27090000 		.4byte	0x927
 10825 29cc 50       		.byte	0x50
 10826 29cd 18       		.uleb128 0x18
 10827 29ce F5260000 		.4byte	.LASF563
 10828 29d2 29       		.byte	0x29
 10829 29d3 B101     		.2byte	0x1b1
 10830 29d5 27090000 		.4byte	0x927
 10831 29d9 54       		.byte	0x54
 10832 29da 18       		.uleb128 0x18
 10833 29db 2A0E0000 		.4byte	.LASF564
 10834 29df 29       		.byte	0x29
 10835 29e0 B201     		.2byte	0x1b2
 10836 29e2 0E120000 		.4byte	0x120e
 10837 29e6 58       		.byte	0x58
 10838 29e7 00       		.byte	0
 10839 29e8 07       		.uleb128 0x7
 10840 29e9 88210000 		.4byte	.LASF565
 10841 29ed 29       		.byte	0x29
 10842 29ee B301     		.2byte	0x1b3
 10843 29f0 DC280000 		.4byte	0x28dc
 10844 29f4 07       		.uleb128 0x7
 10845 29f5 390A0000 		.4byte	.LASF566
 10846 29f9 28       		.byte	0x28
 10847 29fa 6D01     		.2byte	0x16d
 10848 29fc 1C090000 		.4byte	0x91c
 10849 2a00 1C       		.uleb128 0x1c
 10850 2a01 10       		.byte	0x10
 10851 2a02 28       		.byte	0x28
 10852 2a03 7801     		.2byte	0x178
 10853 2a05 3E2A0000 		.4byte	0x2a3e
 10854 2a09 18       		.uleb128 0x18
 10855 2a0a 62260000 		.4byte	.LASF567
 10856 2a0e 28       		.byte	0x28
 10857 2a0f 7E01     		.2byte	0x17e
 10858 2a11 F4290000 		.4byte	0x29f4
 10859 2a15 00       		.byte	0
 10860 2a16 18       		.uleb128 0x18
 10861 2a17 3A180000 		.4byte	.LASF568
 10862 2a1b 28       		.byte	0x28
 10863 2a1c 8501     		.2byte	0x185
 10864 2a1e BA280000 		.4byte	0x28ba
 10865 2a22 04       		.byte	0x4
 10866 2a23 21       		.uleb128 0x21
 10867 2a24 63723200 		.ascii	"cr2\000"
 10868 2a28 28       		.byte	0x28
ARM GAS  C:\Users\mathi\AppData\Local\Temp\ccOm87JI.s 			page 192


 10869 2a29 8B01     		.2byte	0x18b
 10870 2a2b 1C090000 		.4byte	0x91c
 10871 2a2f 08       		.byte	0x8
 10872 2a30 18       		.uleb128 0x18
 10873 2a31 9F0D0000 		.4byte	.LASF569
 10874 2a35 28       		.byte	0x28
 10875 2a36 9101     		.2byte	0x191
 10876 2a38 1C090000 		.4byte	0x91c
 10877 2a3c 0C       		.byte	0xc
 10878 2a3d 00       		.byte	0
 10879 2a3e 07       		.uleb128 0x7
 10880 2a3f E0070000 		.4byte	.LASF570
 10881 2a43 28       		.byte	0x28
 10882 2a44 9201     		.2byte	0x192
 10883 2a46 002A0000 		.4byte	0x2a00
 10884 2a4a 0F       		.uleb128 0xf
 10885 2a4b 3E2A0000 		.4byte	0x2a3e
 10886 2a4f 05       		.uleb128 0x5
 10887 2a50 04       		.byte	0x4
 10888 2a51 4A2A0000 		.4byte	0x2a4a
 10889 2a55 05       		.uleb128 0x5
 10890 2a56 04       		.byte	0x4
 10891 2a57 E8290000 		.4byte	0x29e8
 10892 2a5b 20       		.uleb128 0x20
 10893 2a5c 09260000 		.4byte	.LASF571
 10894 2a60 28       		.byte	0x28
 10895 2a61 F201     		.2byte	0x1f2
 10896 2a63 6D280000 		.4byte	0x286d
 10897 2a67 20       		.uleb128 0x20
 10898 2a68 311E0000 		.4byte	.LASF572
 10899 2a6c 28       		.byte	0x28
 10900 2a6d 0202     		.2byte	0x202
 10901 2a6f 6D280000 		.4byte	0x286d
 10902 2a73 20       		.uleb128 0x20
 10903 2a74 381E0000 		.4byte	.LASF573
 10904 2a78 28       		.byte	0x28
 10905 2a79 0602     		.2byte	0x206
 10906 2a7b 6D280000 		.4byte	0x286d
 10907 2a7f 27       		.uleb128 0x27
 10908 2a80 07       		.byte	0x7
 10909 2a81 01       		.byte	0x1
 10910 2a82 5E000000 		.4byte	0x5e
 10911 2a86 2A       		.byte	0x2a
 10912 2a87 4C       		.byte	0x4c
 10913 2a88 B12A0000 		.4byte	0x2ab1
 10914 2a8c 28       		.uleb128 0x28
 10915 2a8d B8070000 		.4byte	.LASF574
 10916 2a91 00       		.byte	0
 10917 2a92 28       		.uleb128 0x28
 10918 2a93 7B0F0000 		.4byte	.LASF575
 10919 2a97 01       		.byte	0x1
 10920 2a98 28       		.uleb128 0x28
 10921 2a99 7B080000 		.4byte	.LASF576
 10922 2a9d 02       		.byte	0x2
 10923 2a9e 28       		.uleb128 0x28
 10924 2a9f E4050000 		.4byte	.LASF577
 10925 2aa3 03       		.byte	0x3
ARM GAS  C:\Users\mathi\AppData\Local\Temp\ccOm87JI.s 			page 193


 10926 2aa4 28       		.uleb128 0x28
 10927 2aa5 4C040000 		.4byte	.LASF578
 10928 2aa9 04       		.byte	0x4
 10929 2aaa 28       		.uleb128 0x28
 10930 2aab 2F140000 		.4byte	.LASF579
 10931 2aaf 05       		.byte	0x5
 10932 2ab0 00       		.byte	0
 10933 2ab1 04       		.uleb128 0x4
 10934 2ab2 20120000 		.4byte	.LASF580
 10935 2ab6 2A       		.byte	0x2a
 10936 2ab7 53       		.byte	0x53
 10937 2ab8 7F2A0000 		.4byte	0x2a7f
 10938 2abc 07       		.uleb128 0x7
 10939 2abd 6F190000 		.4byte	.LASF581
 10940 2ac1 2B       		.byte	0x2b
 10941 2ac2 6A01     		.2byte	0x16a
 10942 2ac4 01090000 		.4byte	0x901
 10943 2ac8 07       		.uleb128 0x7
 10944 2ac9 F6040000 		.4byte	.LASF582
 10945 2acd 2B       		.byte	0x2b
 10946 2ace 6F01     		.2byte	0x16f
 10947 2ad0 1C090000 		.4byte	0x91c
 10948 2ad4 2A       		.uleb128 0x2a
 10949 2ad5 07       		.byte	0x7
 10950 2ad6 01       		.byte	0x1
 10951 2ad7 5E000000 		.4byte	0x5e
 10952 2adb 2B       		.byte	0x2b
 10953 2adc 7401     		.2byte	0x174
 10954 2ade F52A0000 		.4byte	0x2af5
 10955 2ae2 28       		.uleb128 0x28
 10956 2ae3 F7050000 		.4byte	.LASF583
 10957 2ae7 01       		.byte	0x1
 10958 2ae8 28       		.uleb128 0x28
 10959 2ae9 59000000 		.4byte	.LASF584
 10960 2aed 02       		.byte	0x2
 10961 2aee 28       		.uleb128 0x28
 10962 2aef 0A0B0000 		.4byte	.LASF585
 10963 2af3 03       		.byte	0x3
 10964 2af4 00       		.byte	0
 10965 2af5 07       		.uleb128 0x7
 10966 2af6 3B270000 		.4byte	.LASF586
 10967 2afa 2B       		.byte	0x2b
 10968 2afb 7801     		.2byte	0x178
 10969 2afd D42A0000 		.4byte	0x2ad4
 10970 2b01 2A       		.uleb128 0x2a
 10971 2b02 07       		.byte	0x7
 10972 2b03 01       		.byte	0x1
 10973 2b04 5E000000 		.4byte	0x5e
 10974 2b08 2B       		.byte	0x2b
 10975 2b09 7D01     		.2byte	0x17d
 10976 2b0b 222B0000 		.4byte	0x2b22
 10977 2b0f 28       		.uleb128 0x28
 10978 2b10 D4060000 		.4byte	.LASF587
 10979 2b14 01       		.byte	0x1
 10980 2b15 28       		.uleb128 0x28
 10981 2b16 BE260000 		.4byte	.LASF588
 10982 2b1a 02       		.byte	0x2
ARM GAS  C:\Users\mathi\AppData\Local\Temp\ccOm87JI.s 			page 194


 10983 2b1b 28       		.uleb128 0x28
 10984 2b1c FE0B0000 		.4byte	.LASF589
 10985 2b20 03       		.byte	0x3
 10986 2b21 00       		.byte	0
 10987 2b22 07       		.uleb128 0x7
 10988 2b23 31080000 		.4byte	.LASF590
 10989 2b27 2B       		.byte	0x2b
 10990 2b28 8101     		.2byte	0x181
 10991 2b2a 012B0000 		.4byte	0x2b01
 10992 2b2e 1C       		.uleb128 0x1c
 10993 2b2f 0C       		.byte	0xc
 10994 2b30 2B       		.byte	0x2b
 10995 2b31 8601     		.2byte	0x186
 10996 2b33 5F2B0000 		.4byte	0x2b5f
 10997 2b37 18       		.uleb128 0x18
 10998 2b38 63160000 		.4byte	.LASF591
 10999 2b3c 2B       		.byte	0x2b
 11000 2b3d 8801     		.2byte	0x188
 11001 2b3f F52A0000 		.4byte	0x2af5
 11002 2b43 00       		.byte	0
 11003 2b44 18       		.uleb128 0x18
 11004 2b45 B2040000 		.4byte	.LASF592
 11005 2b49 2B       		.byte	0x2b
 11006 2b4a 8901     		.2byte	0x189
 11007 2b4c 1C090000 		.4byte	0x91c
 11008 2b50 04       		.byte	0x4
 11009 2b51 18       		.uleb128 0x18
 11010 2b52 E1270000 		.4byte	.LASF593
 11011 2b56 2B       		.byte	0x2b
 11012 2b57 8C01     		.2byte	0x18c
 11013 2b59 222B0000 		.4byte	0x2b22
 11014 2b5d 08       		.byte	0x8
 11015 2b5e 00       		.byte	0
 11016 2b5f 07       		.uleb128 0x7
 11017 2b60 FF020000 		.4byte	.LASF594
 11018 2b64 2B       		.byte	0x2b
 11019 2b65 8E01     		.2byte	0x18e
 11020 2b67 2E2B0000 		.4byte	0x2b2e
 11021 2b6b 0F       		.uleb128 0xf
 11022 2b6c 5F2B0000 		.4byte	0x2b5f
 11023 2b70 07       		.uleb128 0x7
 11024 2b71 DA050000 		.4byte	.LASF595
 11025 2b75 2B       		.byte	0x2b
 11026 2b76 9301     		.2byte	0x193
 11027 2b78 7C2B0000 		.4byte	0x2b7c
 11028 2b7c 1B       		.uleb128 0x1b
 11029 2b7d DA050000 		.4byte	.LASF595
 11030 2b81 3C       		.byte	0x3c
 11031 2b82 2B       		.byte	0x2b
 11032 2b83 9801     		.2byte	0x198
 11033 2b85 192C0000 		.4byte	0x2c19
 11034 2b89 18       		.uleb128 0x18
 11035 2b8a E0170000 		.4byte	.LASF463
 11036 2b8e 2B       		.byte	0x2b
 11037 2b8f 9C01     		.2byte	0x19c
 11038 2b91 B12A0000 		.4byte	0x2ab1
 11039 2b95 00       		.byte	0
ARM GAS  C:\Users\mathi\AppData\Local\Temp\ccOm87JI.s 			page 195


 11040 2b96 18       		.uleb128 0x18
 11041 2b97 2A1E0000 		.4byte	.LASF464
 11042 2b9b 2B       		.byte	0x2b
 11043 2b9c A001     		.2byte	0x1a0
 11044 2b9e 192C0000 		.4byte	0x2c19
 11045 2ba2 04       		.byte	0x4
 11046 2ba3 18       		.uleb128 0x18
 11047 2ba4 27010000 		.4byte	.LASF596
 11048 2ba8 2B       		.byte	0x2b
 11049 2ba9 A401     		.2byte	0x1a4
 11050 2bab C82A0000 		.4byte	0x2ac8
 11051 2baf 08       		.byte	0x8
 11052 2bb0 18       		.uleb128 0x18
 11053 2bb1 F50D0000 		.4byte	.LASF469
 11054 2bb5 2B       		.byte	0x2b
 11055 2bb6 A901     		.2byte	0x1a9
 11056 2bb8 501B0000 		.4byte	0x1b50
 11057 2bbc 0C       		.byte	0xc
 11058 2bbd 18       		.uleb128 0x18
 11059 2bbe 49080000 		.4byte	.LASF468
 11060 2bc2 2B       		.byte	0x2b
 11061 2bc3 B201     		.2byte	0x1b2
 11062 2bc5 F90A0000 		.4byte	0xaf9
 11063 2bc9 20       		.byte	0x20
 11064 2bca 18       		.uleb128 0x18
 11065 2bcb 840F0000 		.4byte	.LASF597
 11066 2bcf 2B       		.byte	0x2b
 11067 2bd0 B601     		.2byte	0x1b6
 11068 2bd2 BC2A0000 		.4byte	0x2abc
 11069 2bd6 24       		.byte	0x24
 11070 2bd7 18       		.uleb128 0x18
 11071 2bd8 D6090000 		.4byte	.LASF598
 11072 2bdc 2B       		.byte	0x2b
 11073 2bdd BA01     		.2byte	0x1ba
 11074 2bdf 1C090000 		.4byte	0x91c
 11075 2be3 28       		.byte	0x28
 11076 2be4 18       		.uleb128 0x18
 11077 2be5 2F0A0000 		.4byte	.LASF599
 11078 2be9 2B       		.byte	0x2b
 11079 2bea BE01     		.2byte	0x1be
 11080 2bec 1C090000 		.4byte	0x91c
 11081 2bf0 2C       		.byte	0x2c
 11082 2bf1 18       		.uleb128 0x18
 11083 2bf2 E8000000 		.4byte	.LASF600
 11084 2bf6 2B       		.byte	0x2b
 11085 2bf7 C201     		.2byte	0x1c2
 11086 2bf9 4F230000 		.4byte	0x234f
 11087 2bfd 30       		.byte	0x30
 11088 2bfe 18       		.uleb128 0x18
 11089 2bff 12030000 		.4byte	.LASF601
 11090 2c03 2B       		.byte	0x2b
 11091 2c04 C601     		.2byte	0x1c6
 11092 2c06 4F230000 		.4byte	0x234f
 11093 2c0a 34       		.byte	0x34
 11094 2c0b 21       		.uleb128 0x21
 11095 2c0c 69326300 		.ascii	"i2c\000"
 11096 2c10 2B       		.byte	0x2b
ARM GAS  C:\Users\mathi\AppData\Local\Temp\ccOm87JI.s 			page 196


 11097 2c11 CA01     		.2byte	0x1ca
 11098 2c13 1F2C0000 		.4byte	0x2c1f
 11099 2c17 38       		.byte	0x38
 11100 2c18 00       		.byte	0
 11101 2c19 05       		.uleb128 0x5
 11102 2c1a 04       		.byte	0x4
 11103 2c1b 6B2B0000 		.4byte	0x2b6b
 11104 2c1f 05       		.uleb128 0x5
 11105 2c20 04       		.byte	0x4
 11106 2c21 B3120000 		.4byte	0x12b3
 11107 2c25 20       		.uleb128 0x20
 11108 2c26 A0120000 		.4byte	.LASF602
 11109 2c2a 2B       		.byte	0x2b
 11110 2c2b E001     		.2byte	0x1e0
 11111 2c2d 702B0000 		.4byte	0x2b70
 11112 2c31 27       		.uleb128 0x27
 11113 2c32 07       		.byte	0x7
 11114 2c33 01       		.byte	0x1
 11115 2c34 5E000000 		.4byte	0x5e
 11116 2c38 2C       		.byte	0x2c
 11117 2c39 39       		.byte	0x39
 11118 2c3a 5D2C0000 		.4byte	0x2c5d
 11119 2c3e 28       		.uleb128 0x28
 11120 2c3f 14110000 		.4byte	.LASF603
 11121 2c43 00       		.byte	0
 11122 2c44 28       		.uleb128 0x28
 11123 2c45 DB0D0000 		.4byte	.LASF604
 11124 2c49 01       		.byte	0x1
 11125 2c4a 28       		.uleb128 0x28
 11126 2c4b AB160000 		.4byte	.LASF605
 11127 2c4f 02       		.byte	0x2
 11128 2c50 28       		.uleb128 0x28
 11129 2c51 F31A0000 		.4byte	.LASF606
 11130 2c55 03       		.byte	0x3
 11131 2c56 28       		.uleb128 0x28
 11132 2c57 A7200000 		.4byte	.LASF607
 11133 2c5b 04       		.byte	0x4
 11134 2c5c 00       		.byte	0
 11135 2c5d 04       		.uleb128 0x4
 11136 2c5e 37240000 		.4byte	.LASF608
 11137 2c62 2C       		.byte	0x2c
 11138 2c63 3F       		.byte	0x3f
 11139 2c64 312C0000 		.4byte	0x2c31
 11140 2c68 04       		.uleb128 0x4
 11141 2c69 D7270000 		.4byte	.LASF609
 11142 2c6d 2D       		.byte	0x2d
 11143 2c6e E2       		.byte	0xe2
 11144 2c6f 732C0000 		.4byte	0x2c73
 11145 2c73 1B       		.uleb128 0x1b
 11146 2c74 D7270000 		.4byte	.LASF609
 11147 2c78 20       		.byte	0x20
 11148 2c79 2D       		.byte	0x2d
 11149 2c7a 1B01     		.2byte	0x11b
 11150 2c7c E92C0000 		.4byte	0x2ce9
 11151 2c80 18       		.uleb128 0x18
 11152 2c81 E0170000 		.4byte	.LASF463
 11153 2c85 2D       		.byte	0x2d
ARM GAS  C:\Users\mathi\AppData\Local\Temp\ccOm87JI.s 			page 197


 11154 2c86 1F01     		.2byte	0x11f
 11155 2c88 5D2C0000 		.4byte	0x2c5d
 11156 2c8c 00       		.byte	0
 11157 2c8d 18       		.uleb128 0x18
 11158 2c8e 2A1E0000 		.4byte	.LASF464
 11159 2c92 2D       		.byte	0x2d
 11160 2c93 2301     		.2byte	0x123
 11161 2c95 812D0000 		.4byte	0x2d81
 11162 2c99 04       		.byte	0x4
 11163 2c9a 21       		.uleb128 0x21
 11164 2c9b 73706900 		.ascii	"spi\000"
 11165 2c9f 2D       		.byte	0x2d
 11166 2ca0 2801     		.2byte	0x128
 11167 2ca2 872D0000 		.4byte	0x2d87
 11168 2ca6 08       		.byte	0x8
 11169 2ca7 21       		.uleb128 0x21
 11170 2ca8 63666700 		.ascii	"cfg\000"
 11171 2cac 2D       		.byte	0x2d
 11172 2cad 2C01     		.2byte	0x12c
 11173 2caf 01090000 		.4byte	0x901
 11174 2cb3 0C       		.byte	0xc
 11175 2cb4 18       		.uleb128 0x18
 11176 2cb5 E8000000 		.4byte	.LASF600
 11177 2cb9 2D       		.byte	0x2d
 11178 2cba 3001     		.2byte	0x130
 11179 2cbc 4F230000 		.4byte	0x234f
 11180 2cc0 10       		.byte	0x10
 11181 2cc1 18       		.uleb128 0x18
 11182 2cc2 12030000 		.4byte	.LASF601
 11183 2cc6 2D       		.byte	0x2d
 11184 2cc7 3401     		.2byte	0x134
 11185 2cc9 4F230000 		.4byte	0x234f
 11186 2ccd 14       		.byte	0x14
 11187 2cce 18       		.uleb128 0x18
 11188 2ccf D6090000 		.4byte	.LASF598
 11189 2cd3 2D       		.byte	0x2d
 11190 2cd4 3801     		.2byte	0x138
 11191 2cd6 1C090000 		.4byte	0x91c
 11192 2cda 18       		.byte	0x18
 11193 2cdb 18       		.uleb128 0x18
 11194 2cdc 2F0A0000 		.4byte	.LASF599
 11195 2ce0 2D       		.byte	0x2d
 11196 2ce1 3C01     		.2byte	0x13c
 11197 2ce3 1C090000 		.4byte	0x91c
 11198 2ce7 1C       		.byte	0x1c
 11199 2ce8 00       		.byte	0
 11200 2ce9 04       		.uleb128 0x4
 11201 2cea 1B0A0000 		.4byte	.LASF610
 11202 2cee 2D       		.byte	0x2d
 11203 2cef EB       		.byte	0xeb
 11204 2cf0 F42C0000 		.4byte	0x2cf4
 11205 2cf4 05       		.uleb128 0x5
 11206 2cf5 04       		.byte	0x4
 11207 2cf6 FA2C0000 		.4byte	0x2cfa
 11208 2cfa 1F       		.uleb128 0x1f
 11209 2cfb 0F2D0000 		.4byte	0x2d0f
 11210 2cff 16       		.uleb128 0x16
ARM GAS  C:\Users\mathi\AppData\Local\Temp\ccOm87JI.s 			page 198


 11211 2d00 0F2D0000 		.4byte	0x2d0f
 11212 2d04 16       		.uleb128 0x16
 11213 2d05 33000000 		.4byte	0x33
 11214 2d09 16       		.uleb128 0x16
 11215 2d0a 33000000 		.4byte	0x33
 11216 2d0e 00       		.byte	0
 11217 2d0f 05       		.uleb128 0x5
 11218 2d10 04       		.byte	0x4
 11219 2d11 682C0000 		.4byte	0x2c68
 11220 2d15 0C       		.uleb128 0xc
 11221 2d16 14       		.byte	0x14
 11222 2d17 2D       		.byte	0x2d
 11223 2d18 F1       		.byte	0xf1
 11224 2d19 692D0000 		.4byte	0x2d69
 11225 2d1d 0D       		.uleb128 0xd
 11226 2d1e 49010000 		.4byte	.LASF611
 11227 2d22 2D       		.byte	0x2d
 11228 2d23 F6       		.byte	0xf6
 11229 2d24 692D0000 		.4byte	0x2d69
 11230 2d28 00       		.byte	0
 11231 2d29 0D       		.uleb128 0xd
 11232 2d2a 1D010000 		.4byte	.LASF612
 11233 2d2e 2D       		.byte	0x2d
 11234 2d2f FB       		.byte	0xfb
 11235 2d30 5D010000 		.4byte	0x15d
 11236 2d34 04       		.byte	0x4
 11237 2d35 0D       		.uleb128 0xd
 11238 2d36 FB0D0000 		.4byte	.LASF613
 11239 2d3a 2D       		.byte	0x2d
 11240 2d3b FF       		.byte	0xff
 11241 2d3c 33000000 		.4byte	0x33
 11242 2d40 08       		.byte	0x8
 11243 2d41 18       		.uleb128 0x18
 11244 2d42 B00A0000 		.4byte	.LASF476
 11245 2d46 2D       		.byte	0x2d
 11246 2d47 0301     		.2byte	0x103
 11247 2d49 E92C0000 		.4byte	0x2ce9
 11248 2d4d 0C       		.byte	0xc
 11249 2d4e 18       		.uleb128 0x18
 11250 2d4f 5E1B0000 		.4byte	.LASF614
 11251 2d53 2D       		.byte	0x2d
 11252 2d54 0F01     		.2byte	0x10f
 11253 2d56 F6080000 		.4byte	0x8f6
 11254 2d5a 10       		.byte	0x10
 11255 2d5b 18       		.uleb128 0x18
 11256 2d5c 02080000 		.4byte	.LASF615
 11257 2d60 2D       		.byte	0x2d
 11258 2d61 1501     		.2byte	0x115
 11259 2d63 F6080000 		.4byte	0x8f6
 11260 2d67 12       		.byte	0x12
 11261 2d68 00       		.byte	0
 11262 2d69 05       		.uleb128 0x5
 11263 2d6a 04       		.byte	0x4
 11264 2d6b 6F2D0000 		.4byte	0x2d6f
 11265 2d6f 2B       		.uleb128 0x2b
 11266 2d70 07       		.uleb128 0x7
 11267 2d71 EC270000 		.4byte	.LASF616
ARM GAS  C:\Users\mathi\AppData\Local\Temp\ccOm87JI.s 			page 199


 11268 2d75 2D       		.byte	0x2d
 11269 2d76 1601     		.2byte	0x116
 11270 2d78 152D0000 		.4byte	0x2d15
 11271 2d7c 0F       		.uleb128 0xf
 11272 2d7d 702D0000 		.4byte	0x2d70
 11273 2d81 05       		.uleb128 0x5
 11274 2d82 04       		.byte	0x4
 11275 2d83 7C2D0000 		.4byte	0x2d7c
 11276 2d87 05       		.uleb128 0x5
 11277 2d88 04       		.byte	0x4
 11278 2d89 01160000 		.4byte	0x1601
 11279 2d8d 20       		.uleb128 0x20
 11280 2d8e 32280000 		.4byte	.LASF617
 11281 2d92 2D       		.byte	0x2d
 11282 2d93 4801     		.2byte	0x148
 11283 2d95 682C0000 		.4byte	0x2c68
 11284 2d99 27       		.uleb128 0x27
 11285 2d9a 07       		.byte	0x7
 11286 2d9b 01       		.byte	0x1
 11287 2d9c 5E000000 		.4byte	0x5e
 11288 2da0 2E       		.byte	0x2e
 11289 2da1 4A       		.byte	0x4a
 11290 2da2 B92D0000 		.4byte	0x2db9
 11291 2da6 28       		.uleb128 0x28
 11292 2da7 A4080000 		.4byte	.LASF618
 11293 2dab 00       		.byte	0
 11294 2dac 28       		.uleb128 0x28
 11295 2dad E40D0000 		.4byte	.LASF619
 11296 2db1 01       		.byte	0x1
 11297 2db2 28       		.uleb128 0x28
 11298 2db3 3B110000 		.4byte	.LASF620
 11299 2db7 02       		.byte	0x2
 11300 2db8 00       		.byte	0
 11301 2db9 04       		.uleb128 0x4
 11302 2dba 6D040000 		.4byte	.LASF621
 11303 2dbe 2E       		.byte	0x2e
 11304 2dbf 4E       		.byte	0x4e
 11305 2dc0 992D0000 		.4byte	0x2d99
 11306 2dc4 04       		.uleb128 0x4
 11307 2dc5 080D0000 		.4byte	.LASF622
 11308 2dc9 2E       		.byte	0x2e
 11309 2dca 53       		.byte	0x53
 11310 2dcb CF2D0000 		.4byte	0x2dcf
 11311 2dcf 1B       		.uleb128 0x1b
 11312 2dd0 080D0000 		.4byte	.LASF622
 11313 2dd4 1C       		.byte	0x1c
 11314 2dd5 2F       		.byte	0x2f
 11315 2dd6 7901     		.2byte	0x179
 11316 2dd8 382E0000 		.4byte	0x2e38
 11317 2ddc 18       		.uleb128 0x18
 11318 2ddd E0170000 		.4byte	.LASF463
 11319 2de1 2F       		.byte	0x2f
 11320 2de2 7D01     		.2byte	0x17d
 11321 2de4 B92D0000 		.4byte	0x2db9
 11322 2de8 00       		.byte	0
 11323 2de9 18       		.uleb128 0x18
 11324 2dea 2A1E0000 		.4byte	.LASF464
ARM GAS  C:\Users\mathi\AppData\Local\Temp\ccOm87JI.s 			page 200


 11325 2dee 2F       		.byte	0x2f
 11326 2def 8101     		.2byte	0x181
 11327 2df1 332F0000 		.4byte	0x2f33
 11328 2df5 04       		.byte	0x4
 11329 2df6 18       		.uleb128 0x18
 11330 2df7 0C140000 		.4byte	.LASF623
 11331 2dfb 2F       		.byte	0x2f
 11332 2dfc 8501     		.2byte	0x185
 11333 2dfe 7E2E0000 		.4byte	0x2e7e
 11334 2e02 08       		.byte	0x8
 11335 2e03 18       		.uleb128 0x18
 11336 2e04 D31B0000 		.4byte	.LASF624
 11337 2e08 2F       		.byte	0x2f
 11338 2e09 8901     		.2byte	0x189
 11339 2e0b 722E0000 		.4byte	0x2e72
 11340 2e0f 0C       		.byte	0xc
 11341 2e10 18       		.uleb128 0x18
 11342 2e11 46230000 		.4byte	.LASF544
 11343 2e15 2F       		.byte	0x2f
 11344 2e16 8D01     		.2byte	0x18d
 11345 2e18 662E0000 		.4byte	0x2e66
 11346 2e1c 10       		.byte	0x10
 11347 2e1d 18       		.uleb128 0x18
 11348 2e1e 1E0E0000 		.4byte	.LASF554
 11349 2e22 2F       		.byte	0x2f
 11350 2e23 9501     		.2byte	0x195
 11351 2e25 1C090000 		.4byte	0x91c
 11352 2e29 14       		.byte	0x14
 11353 2e2a 21       		.uleb128 0x21
 11354 2e2b 74696D00 		.ascii	"tim\000"
 11355 2e2f 2F       		.byte	0x2f
 11356 2e30 9901     		.2byte	0x199
 11357 2e32 552A0000 		.4byte	0x2a55
 11358 2e36 18       		.byte	0x18
 11359 2e37 00       		.byte	0
 11360 2e38 04       		.uleb128 0x4
 11361 2e39 EB110000 		.4byte	.LASF625
 11362 2e3d 2E       		.byte	0x2e
 11363 2e3e 5A       		.byte	0x5a
 11364 2e3f 432E0000 		.4byte	0x2e43
 11365 2e43 05       		.uleb128 0x5
 11366 2e44 04       		.byte	0x4
 11367 2e45 492E0000 		.4byte	0x2e49
 11368 2e49 1F       		.uleb128 0x1f
 11369 2e4a 542E0000 		.4byte	0x2e54
 11370 2e4e 16       		.uleb128 0x16
 11371 2e4f 542E0000 		.4byte	0x2e54
 11372 2e53 00       		.byte	0
 11373 2e54 05       		.uleb128 0x5
 11374 2e55 04       		.byte	0x4
 11375 2e56 C42D0000 		.4byte	0x2dc4
 11376 2e5a 07       		.uleb128 0x7
 11377 2e5b DB160000 		.4byte	.LASF626
 11378 2e5f 2F       		.byte	0x2f
 11379 2e60 2501     		.2byte	0x125
 11380 2e62 1C090000 		.4byte	0x91c
 11381 2e66 07       		.uleb128 0x7
ARM GAS  C:\Users\mathi\AppData\Local\Temp\ccOm87JI.s 			page 201


 11382 2e67 3B190000 		.4byte	.LASF627
 11383 2e6b 2F       		.byte	0x2f
 11384 2e6c 2A01     		.2byte	0x12a
 11385 2e6e E6080000 		.4byte	0x8e6
 11386 2e72 07       		.uleb128 0x7
 11387 2e73 77160000 		.4byte	.LASF628
 11388 2e77 2F       		.byte	0x2f
 11389 2e78 2F01     		.2byte	0x12f
 11390 2e7a 1C090000 		.4byte	0x91c
 11391 2e7e 07       		.uleb128 0x7
 11392 2e7f D60E0000 		.4byte	.LASF629
 11393 2e83 2F       		.byte	0x2f
 11394 2e84 3401     		.2byte	0x134
 11395 2e86 1C090000 		.4byte	0x91c
 11396 2e8a 1C       		.uleb128 0x1c
 11397 2e8b 08       		.byte	0x8
 11398 2e8c 2F       		.byte	0x2f
 11399 2e8d 3901     		.2byte	0x139
 11400 2e8f AE2E0000 		.4byte	0x2eae
 11401 2e93 18       		.uleb128 0x18
 11402 2e94 EA090000 		.4byte	.LASF542
 11403 2e98 2F       		.byte	0x2f
 11404 2e99 3D01     		.2byte	0x13d
 11405 2e9b 5A2E0000 		.4byte	0x2e5a
 11406 2e9f 00       		.byte	0
 11407 2ea0 18       		.uleb128 0x18
 11408 2ea1 3A180000 		.4byte	.LASF568
 11409 2ea5 2F       		.byte	0x2f
 11410 2ea6 4301     		.2byte	0x143
 11411 2ea8 382E0000 		.4byte	0x2e38
 11412 2eac 04       		.byte	0x4
 11413 2ead 00       		.byte	0
 11414 2eae 07       		.uleb128 0x7
 11415 2eaf C50E0000 		.4byte	.LASF630
 11416 2eb3 2F       		.byte	0x2f
 11417 2eb4 4501     		.2byte	0x145
 11418 2eb6 8A2E0000 		.4byte	0x2e8a
 11419 2eba 1C       		.uleb128 0x1c
 11420 2ebb 34       		.byte	0x34
 11421 2ebc 2F       		.byte	0x2f
 11422 2ebd 4A01     		.2byte	0x14a
 11423 2ebf 122F0000 		.4byte	0x2f12
 11424 2ec3 18       		.uleb128 0x18
 11425 2ec4 62260000 		.4byte	.LASF567
 11426 2ec8 2F       		.byte	0x2f
 11427 2ec9 5001     		.2byte	0x150
 11428 2ecb 1C090000 		.4byte	0x91c
 11429 2ecf 00       		.byte	0
 11430 2ed0 18       		.uleb128 0x18
 11431 2ed1 0C140000 		.4byte	.LASF623
 11432 2ed5 2F       		.byte	0x2f
 11433 2ed6 5601     		.2byte	0x156
 11434 2ed8 7E2E0000 		.4byte	0x2e7e
 11435 2edc 04       		.byte	0x4
 11436 2edd 18       		.uleb128 0x18
 11437 2ede 3A180000 		.4byte	.LASF568
 11438 2ee2 2F       		.byte	0x2f
ARM GAS  C:\Users\mathi\AppData\Local\Temp\ccOm87JI.s 			page 202


 11439 2ee3 5C01     		.2byte	0x15c
 11440 2ee5 382E0000 		.4byte	0x2e38
 11441 2ee9 08       		.byte	0x8
 11442 2eea 18       		.uleb128 0x18
 11443 2eeb 46230000 		.4byte	.LASF544
 11444 2eef 2F       		.byte	0x2f
 11445 2ef0 6001     		.2byte	0x160
 11446 2ef2 122F0000 		.4byte	0x2f12
 11447 2ef6 0C       		.byte	0xc
 11448 2ef7 21       		.uleb128 0x21
 11449 2ef8 63723200 		.ascii	"cr2\000"
 11450 2efc 2F       		.byte	0x2f
 11451 2efd 6601     		.2byte	0x166
 11452 2eff 1C090000 		.4byte	0x91c
 11453 2f03 2C       		.byte	0x2c
 11454 2f04 18       		.uleb128 0x18
 11455 2f05 9F0D0000 		.4byte	.LASF569
 11456 2f09 2F       		.byte	0x2f
 11457 2f0a 7301     		.2byte	0x173
 11458 2f0c 1C090000 		.4byte	0x91c
 11459 2f10 30       		.byte	0x30
 11460 2f11 00       		.byte	0
 11461 2f12 0A       		.uleb128 0xa
 11462 2f13 AE2E0000 		.4byte	0x2eae
 11463 2f17 222F0000 		.4byte	0x2f22
 11464 2f1b 0B       		.uleb128 0xb
 11465 2f1c 25000000 		.4byte	0x25
 11466 2f20 03       		.byte	0x3
 11467 2f21 00       		.byte	0
 11468 2f22 07       		.uleb128 0x7
 11469 2f23 190D0000 		.4byte	.LASF631
 11470 2f27 2F       		.byte	0x2f
 11471 2f28 7401     		.2byte	0x174
 11472 2f2a BA2E0000 		.4byte	0x2eba
 11473 2f2e 0F       		.uleb128 0xf
 11474 2f2f 222F0000 		.4byte	0x2f22
 11475 2f33 05       		.uleb128 0x5
 11476 2f34 04       		.byte	0x4
 11477 2f35 2E2F0000 		.4byte	0x2f2e
 11478 2f39 20       		.uleb128 0x20
 11479 2f3a D1120000 		.4byte	.LASF632
 11480 2f3e 2F       		.byte	0x2f
 11481 2f3f BC01     		.2byte	0x1bc
 11482 2f41 C42D0000 		.4byte	0x2dc4
 11483 2f45 20       		.uleb128 0x20
 11484 2f46 D7120000 		.4byte	.LASF633
 11485 2f4a 2F       		.byte	0x2f
 11486 2f4b C001     		.2byte	0x1c0
 11487 2f4d C42D0000 		.4byte	0x2dc4
 11488 2f51 20       		.uleb128 0x20
 11489 2f52 DD120000 		.4byte	.LASF634
 11490 2f56 2F       		.byte	0x2f
 11491 2f57 C401     		.2byte	0x1c4
 11492 2f59 C42D0000 		.4byte	0x2dc4
 11493 2f5d 20       		.uleb128 0x20
 11494 2f5e E3120000 		.4byte	.LASF635
 11495 2f62 2F       		.byte	0x2f
ARM GAS  C:\Users\mathi\AppData\Local\Temp\ccOm87JI.s 			page 203


 11496 2f63 C801     		.2byte	0x1c8
 11497 2f65 C42D0000 		.4byte	0x2dc4
 11498 2f69 27       		.uleb128 0x27
 11499 2f6a 07       		.byte	0x7
 11500 2f6b 01       		.byte	0x1
 11501 2f6c 5E000000 		.4byte	0x5e
 11502 2f70 30       		.byte	0x30
 11503 2f71 55       		.byte	0x55
 11504 2f72 892F0000 		.4byte	0x2f89
 11505 2f76 28       		.uleb128 0x28
 11506 2f77 EA070000 		.4byte	.LASF636
 11507 2f7b 00       		.byte	0
 11508 2f7c 28       		.uleb128 0x28
 11509 2f7d 510E0000 		.4byte	.LASF637
 11510 2f81 01       		.byte	0x1
 11511 2f82 28       		.uleb128 0x28
 11512 2f83 B0100000 		.4byte	.LASF638
 11513 2f87 02       		.byte	0x2
 11514 2f88 00       		.byte	0
 11515 2f89 04       		.uleb128 0x4
 11516 2f8a 461A0000 		.4byte	.LASF639
 11517 2f8e 30       		.byte	0x30
 11518 2f8f 59       		.byte	0x59
 11519 2f90 692F0000 		.4byte	0x2f69
 11520 2f94 04       		.uleb128 0x4
 11521 2f95 71230000 		.4byte	.LASF640
 11522 2f99 30       		.byte	0x30
 11523 2f9a 5E       		.byte	0x5e
 11524 2f9b 9F2F0000 		.4byte	0x2f9f
 11525 2f9f 10       		.uleb128 0x10
 11526 2fa0 71230000 		.4byte	.LASF640
 11527 2fa4 78       		.byte	0x78
 11528 2fa5 30       		.byte	0x30
 11529 2fa6 78       		.byte	0x78
 11530 2fa7 0A300000 		.4byte	0x300a
 11531 2fab 11       		.uleb128 0x11
 11532 2fac 766D7400 		.ascii	"vmt\000"
 11533 2fb0 30       		.byte	0x30
 11534 2fb1 7A       		.byte	0x7a
 11535 2fb2 88300000 		.4byte	0x3088
 11536 2fb6 00       		.byte	0
 11537 2fb7 0D       		.uleb128 0xd
 11538 2fb8 32000000 		.4byte	.LASF641
 11539 2fbc 30       		.byte	0x30
 11540 2fbd 7B       		.byte	0x7b
 11541 2fbe D41B0000 		.4byte	0x1bd4
 11542 2fc2 04       		.byte	0x4
 11543 2fc3 0D       		.uleb128 0xd
 11544 2fc4 E0170000 		.4byte	.LASF463
 11545 2fc8 30       		.byte	0x30
 11546 2fc9 7B       		.byte	0x7b
 11547 2fca 892F0000 		.4byte	0x2f89
 11548 2fce 08       		.byte	0x8
 11549 2fcf 0D       		.uleb128 0xd
 11550 2fd0 271A0000 		.4byte	.LASF642
 11551 2fd4 30       		.byte	0x30
 11552 2fd5 7B       		.byte	0x7b
ARM GAS  C:\Users\mathi\AppData\Local\Temp\ccOm87JI.s 			page 204


 11553 2fd6 7F1C0000 		.4byte	0x1c7f
 11554 2fda 0C       		.byte	0xc
 11555 2fdb 0D       		.uleb128 0xd
 11556 2fdc F3120000 		.4byte	.LASF643
 11557 2fe0 30       		.byte	0x30
 11558 2fe1 7B       		.byte	0x7b
 11559 2fe2 8A1C0000 		.4byte	0x1c8a
 11560 2fe6 30       		.byte	0x30
 11561 2fe7 11       		.uleb128 0x11
 11562 2fe8 696200   		.ascii	"ib\000"
 11563 2feb 30       		.byte	0x30
 11564 2fec 7B       		.byte	0x7b
 11565 2fed 8E300000 		.4byte	0x308e
 11566 2ff1 54       		.byte	0x54
 11567 2ff2 11       		.uleb128 0x11
 11568 2ff3 6F6200   		.ascii	"ob\000"
 11569 2ff6 30       		.byte	0x30
 11570 2ff7 7B       		.byte	0x7b
 11571 2ff8 8E300000 		.4byte	0x308e
 11572 2ffc 64       		.byte	0x64
 11573 2ffd 0D       		.uleb128 0xd
 11574 2ffe FB1B0000 		.4byte	.LASF644
 11575 3002 30       		.byte	0x30
 11576 3003 7B       		.byte	0x7b
 11577 3004 9E300000 		.4byte	0x309e
 11578 3008 74       		.byte	0x74
 11579 3009 00       		.byte	0
 11580 300a 26       		.uleb128 0x26
 11581 300b 53443300 		.ascii	"SD3\000"
 11582 300f 31       		.byte	0x31
 11583 3010 1501     		.2byte	0x115
 11584 3012 942F0000 		.4byte	0x2f94
 11585 3016 10       		.uleb128 0x10
 11586 3017 3D100000 		.4byte	.LASF645
 11587 301b 20       		.byte	0x20
 11588 301c 30       		.byte	0x30
 11589 301d 6D       		.byte	0x6d
 11590 301e 83300000 		.4byte	0x3083
 11591 3022 0D       		.uleb128 0xd
 11592 3023 161A0000 		.4byte	.LASF646
 11593 3027 30       		.byte	0x30
 11594 3028 6E       		.byte	0x6e
 11595 3029 B41C0000 		.4byte	0x1cb4
 11596 302d 00       		.byte	0
 11597 302e 0D       		.uleb128 0xd
 11598 302f F2050000 		.4byte	.LASF647
 11599 3033 30       		.byte	0x30
 11600 3034 6E       		.byte	0x6e
 11601 3035 D31C0000 		.4byte	0x1cd3
 11602 3039 04       		.byte	0x4
 11603 303a 11       		.uleb128 0x11
 11604 303b 70757400 		.ascii	"put\000"
 11605 303f 30       		.byte	0x30
 11606 3040 6E       		.byte	0x6e
 11607 3041 ED1C0000 		.4byte	0x1ced
 11608 3045 08       		.byte	0x8
 11609 3046 11       		.uleb128 0x11
ARM GAS  C:\Users\mathi\AppData\Local\Temp\ccOm87JI.s 			page 205


 11610 3047 67657400 		.ascii	"get\000"
 11611 304b 30       		.byte	0x30
 11612 304c 6E       		.byte	0x6e
 11613 304d 021D0000 		.4byte	0x1d02
 11614 3051 0C       		.byte	0xc
 11615 3052 0D       		.uleb128 0xd
 11616 3053 32150000 		.4byte	.LASF648
 11617 3057 30       		.byte	0x30
 11618 3058 6E       		.byte	0x6e
 11619 3059 A31D0000 		.4byte	0x1da3
 11620 305d 10       		.byte	0x10
 11621 305e 0D       		.uleb128 0xd
 11622 305f FC190000 		.4byte	.LASF649
 11623 3063 30       		.byte	0x30
 11624 3064 6E       		.byte	0x6e
 11625 3065 BD1D0000 		.4byte	0x1dbd
 11626 3069 14       		.byte	0x14
 11627 306a 0D       		.uleb128 0xd
 11628 306b 92240000 		.4byte	.LASF650
 11629 306f 30       		.byte	0x30
 11630 3070 6E       		.byte	0x6e
 11631 3071 E11D0000 		.4byte	0x1de1
 11632 3075 18       		.byte	0x18
 11633 3076 0D       		.uleb128 0xd
 11634 3077 4C140000 		.4byte	.LASF651
 11635 307b 30       		.byte	0x30
 11636 307c 6E       		.byte	0x6e
 11637 307d 051E0000 		.4byte	0x1e05
 11638 3081 1C       		.byte	0x1c
 11639 3082 00       		.byte	0
 11640 3083 0F       		.uleb128 0xf
 11641 3084 16300000 		.4byte	0x3016
 11642 3088 05       		.uleb128 0x5
 11643 3089 04       		.byte	0x4
 11644 308a 83300000 		.4byte	0x3083
 11645 308e 0A       		.uleb128 0xa
 11646 308f E6080000 		.4byte	0x8e6
 11647 3093 9E300000 		.4byte	0x309e
 11648 3097 0B       		.uleb128 0xb
 11649 3098 25000000 		.4byte	0x25
 11650 309c 0F       		.byte	0xf
 11651 309d 00       		.byte	0
 11652 309e 05       		.uleb128 0x5
 11653 309f 04       		.byte	0x4
 11654 30a0 70160000 		.4byte	0x1670
 11655 30a4 27       		.uleb128 0x27
 11656 30a5 07       		.byte	0x7
 11657 30a6 01       		.byte	0x1
 11658 30a7 5E000000 		.4byte	0x5e
 11659 30ab 32       		.byte	0x32
 11660 30ac 6C       		.byte	0x6c
 11661 30ad C4300000 		.4byte	0x30c4
 11662 30b1 28       		.uleb128 0x28
 11663 30b2 37040000 		.4byte	.LASF652
 11664 30b6 00       		.byte	0
 11665 30b7 28       		.uleb128 0x28
 11666 30b8 F7160000 		.4byte	.LASF653
ARM GAS  C:\Users\mathi\AppData\Local\Temp\ccOm87JI.s 			page 206


 11667 30bc 01       		.byte	0x1
 11668 30bd 28       		.uleb128 0x28
 11669 30be E3130000 		.4byte	.LASF654
 11670 30c2 02       		.byte	0x2
 11671 30c3 00       		.byte	0
 11672 30c4 04       		.uleb128 0x4
 11673 30c5 351D0000 		.4byte	.LASF655
 11674 30c9 32       		.byte	0x32
 11675 30ca 70       		.byte	0x70
 11676 30cb A4300000 		.4byte	0x30a4
 11677 30cf 04       		.uleb128 0x4
 11678 30d0 1E1C0000 		.4byte	.LASF656
 11679 30d4 33       		.byte	0x33
 11680 30d5 BF       		.byte	0xbf
 11681 30d6 1C090000 		.4byte	0x91c
 11682 30da 04       		.uleb128 0x4
 11683 30db 8D000000 		.4byte	.LASF657
 11684 30df 33       		.byte	0x33
 11685 30e0 C4       		.byte	0xc4
 11686 30e1 1C090000 		.4byte	0x91c
 11687 30e5 04       		.uleb128 0x4
 11688 30e6 55230000 		.4byte	.LASF658
 11689 30ea 33       		.byte	0x33
 11690 30eb C9       		.byte	0xc9
 11691 30ec F0300000 		.4byte	0x30f0
 11692 30f0 10       		.uleb128 0x10
 11693 30f1 55230000 		.4byte	.LASF658
 11694 30f5 4C       		.byte	0x4c
 11695 30f6 33       		.byte	0x33
 11696 30f7 F2       		.byte	0xf2
 11697 30f8 9F310000 		.4byte	0x319f
 11698 30fc 11       		.uleb128 0x11
 11699 30fd 766D7400 		.ascii	"vmt\000"
 11700 3101 33       		.byte	0x33
 11701 3102 F6       		.byte	0xf6
 11702 3103 42320000 		.4byte	0x3242
 11703 3107 00       		.byte	0
 11704 3108 0D       		.uleb128 0xd
 11705 3109 E0170000 		.4byte	.LASF463
 11706 310d 33       		.byte	0x33
 11707 310e F7       		.byte	0xf7
 11708 310f 4F1E0000 		.4byte	0x1e4f
 11709 3113 04       		.byte	0x4
 11710 3114 11       		.uleb128 0x11
 11711 3115 63696400 		.ascii	"cid\000"
 11712 3119 33       		.byte	0x33
 11713 311a F7       		.byte	0xf7
 11714 311b 0A1F0000 		.4byte	0x1f0a
 11715 311f 08       		.byte	0x8
 11716 3120 11       		.uleb128 0x11
 11717 3121 63736400 		.ascii	"csd\000"
 11718 3125 33       		.byte	0x33
 11719 3126 F7       		.byte	0xf7
 11720 3127 0A1F0000 		.4byte	0x1f0a
 11721 312b 18       		.byte	0x18
 11722 312c 0D       		.uleb128 0xd
 11723 312d 001F0000 		.4byte	.LASF659
ARM GAS  C:\Users\mathi\AppData\Local\Temp\ccOm87JI.s 			page 207


 11724 3131 33       		.byte	0x33
 11725 3132 F7       		.byte	0xf7
 11726 3133 1C090000 		.4byte	0x91c
 11727 3137 28       		.byte	0x28
 11728 3138 0D       		.uleb128 0xd
 11729 3139 2A1E0000 		.4byte	.LASF464
 11730 313d 33       		.byte	0x33
 11731 313e FB       		.byte	0xfb
 11732 313f 48320000 		.4byte	0x3248
 11733 3143 2C       		.byte	0x2c
 11734 3144 0D       		.uleb128 0xd
 11735 3145 8A050000 		.4byte	.LASF660
 11736 3149 33       		.byte	0x33
 11737 314a FF       		.byte	0xff
 11738 314b CF300000 		.4byte	0x30cf
 11739 314f 30       		.byte	0x30
 11740 3150 18       		.uleb128 0x18
 11741 3151 27010000 		.4byte	.LASF596
 11742 3155 33       		.byte	0x33
 11743 3156 0301     		.2byte	0x103
 11744 3158 DA300000 		.4byte	0x30da
 11745 315c 34       		.byte	0x34
 11746 315d 21       		.uleb128 0x21
 11747 315e 72636100 		.ascii	"rca\000"
 11748 3162 33       		.byte	0x33
 11749 3163 0701     		.2byte	0x107
 11750 3165 1C090000 		.4byte	0x91c
 11751 3169 38       		.byte	0x38
 11752 316a 18       		.uleb128 0x18
 11753 316b 49080000 		.4byte	.LASF468
 11754 316f 33       		.byte	0x33
 11755 3170 0C01     		.2byte	0x10c
 11756 3172 F90A0000 		.4byte	0xaf9
 11757 3176 3C       		.byte	0x3c
 11758 3177 18       		.uleb128 0x18
 11759 3178 D8190000 		.4byte	.LASF471
 11760 317c 33       		.byte	0x33
 11761 317d 1001     		.2byte	0x110
 11762 317f 1C090000 		.4byte	0x91c
 11763 3183 40       		.byte	0x40
 11764 3184 21       		.uleb128 0x21
 11765 3185 646D6100 		.ascii	"dma\000"
 11766 3189 33       		.byte	0x33
 11767 318a 1401     		.2byte	0x114
 11768 318c 4F230000 		.4byte	0x234f
 11769 3190 44       		.byte	0x44
 11770 3191 18       		.uleb128 0x18
 11771 3192 F8170000 		.4byte	.LASF661
 11772 3196 33       		.byte	0x33
 11773 3197 1901     		.2byte	0x119
 11774 3199 4E320000 		.4byte	0x324e
 11775 319d 48       		.byte	0x48
 11776 319e 00       		.byte	0
 11777 319f 0C       		.uleb128 0xc
 11778 31a0 08       		.byte	0x8
 11779 31a1 33       		.byte	0x33
 11780 31a2 CF       		.byte	0xcf
ARM GAS  C:\Users\mathi\AppData\Local\Temp\ccOm87JI.s 			page 208


 11781 31a3 C0310000 		.4byte	0x31c0
 11782 31a7 0D       		.uleb128 0xd
 11783 31a8 270F0000 		.4byte	.LASF662
 11784 31ac 33       		.byte	0x33
 11785 31ad D8       		.byte	0xd8
 11786 31ae 791C0000 		.4byte	0x1c79
 11787 31b2 00       		.byte	0
 11788 31b3 0D       		.uleb128 0xd
 11789 31b4 8C250000 		.4byte	.LASF663
 11790 31b8 33       		.byte	0x33
 11791 31b9 DC       		.byte	0xdc
 11792 31ba C4300000 		.4byte	0x30c4
 11793 31be 04       		.byte	0x4
 11794 31bf 00       		.byte	0
 11795 31c0 04       		.uleb128 0x4
 11796 31c1 C91B0000 		.4byte	.LASF664
 11797 31c5 33       		.byte	0x33
 11798 31c6 DE       		.byte	0xde
 11799 31c7 9F310000 		.4byte	0x319f
 11800 31cb 0F       		.uleb128 0xf
 11801 31cc C0310000 		.4byte	0x31c0
 11802 31d0 10       		.uleb128 0x10
 11803 31d1 A2250000 		.4byte	.LASF665
 11804 31d5 20       		.byte	0x20
 11805 31d6 33       		.byte	0x33
 11806 31d7 EB       		.byte	0xeb
 11807 31d8 3D320000 		.4byte	0x323d
 11808 31dc 0D       		.uleb128 0xd
 11809 31dd 38280000 		.4byte	.LASF666
 11810 31e1 33       		.byte	0x33
 11811 31e2 EC       		.byte	0xec
 11812 31e3 9C1E0000 		.4byte	0x1e9c
 11813 31e7 00       		.byte	0
 11814 31e8 0D       		.uleb128 0xd
 11815 31e9 A40D0000 		.4byte	.LASF667
 11816 31ed 33       		.byte	0x33
 11817 31ee EC       		.byte	0xec
 11818 31ef 9C1E0000 		.4byte	0x1e9c
 11819 31f3 04       		.byte	0x4
 11820 31f4 0D       		.uleb128 0xd
 11821 31f5 62100000 		.4byte	.LASF668
 11822 31f9 33       		.byte	0x33
 11823 31fa EC       		.byte	0xec
 11824 31fb 9C1E0000 		.4byte	0x1e9c
 11825 31ff 08       		.byte	0x8
 11826 3200 0D       		.uleb128 0xd
 11827 3201 27150000 		.4byte	.LASF669
 11828 3205 33       		.byte	0x33
 11829 3206 EC       		.byte	0xec
 11830 3207 9C1E0000 		.4byte	0x1e9c
 11831 320b 0C       		.byte	0xc
 11832 320c 0D       		.uleb128 0xd
 11833 320d F2050000 		.4byte	.LASF647
 11834 3211 33       		.byte	0x33
 11835 3212 EC       		.byte	0xec
 11836 3213 C01E0000 		.4byte	0x1ec0
 11837 3217 10       		.byte	0x10
ARM GAS  C:\Users\mathi\AppData\Local\Temp\ccOm87JI.s 			page 209


 11838 3218 0D       		.uleb128 0xd
 11839 3219 161A0000 		.4byte	.LASF646
 11840 321d 33       		.byte	0x33
 11841 321e EC       		.byte	0xec
 11842 321f E41E0000 		.4byte	0x1ee4
 11843 3223 14       		.byte	0x14
 11844 3224 0D       		.uleb128 0xd
 11845 3225 F61B0000 		.4byte	.LASF670
 11846 3229 33       		.byte	0x33
 11847 322a EC       		.byte	0xec
 11848 322b 9C1E0000 		.4byte	0x1e9c
 11849 322f 18       		.byte	0x18
 11850 3230 0D       		.uleb128 0xd
 11851 3231 FA240000 		.4byte	.LASF671
 11852 3235 33       		.byte	0x33
 11853 3236 EC       		.byte	0xec
 11854 3237 041F0000 		.4byte	0x1f04
 11855 323b 1C       		.byte	0x1c
 11856 323c 00       		.byte	0
 11857 323d 0F       		.uleb128 0xf
 11858 323e D0310000 		.4byte	0x31d0
 11859 3242 05       		.uleb128 0x5
 11860 3243 04       		.byte	0x4
 11861 3244 3D320000 		.4byte	0x323d
 11862 3248 05       		.uleb128 0x5
 11863 3249 04       		.byte	0x4
 11864 324a CB310000 		.4byte	0x31cb
 11865 324e 05       		.uleb128 0x5
 11866 324f 04       		.byte	0x4
 11867 3250 78150000 		.4byte	0x1578
 11868 3254 20       		.uleb128 0x20
 11869 3255 780B0000 		.4byte	.LASF672
 11870 3259 33       		.byte	0x33
 11871 325a 2501     		.2byte	0x125
 11872 325c E5300000 		.4byte	0x30e5
 11873 3260 27       		.uleb128 0x27
 11874 3261 07       		.byte	0x7
 11875 3262 01       		.byte	0x1
 11876 3263 5E000000 		.4byte	0x5e
 11877 3267 34       		.byte	0x34
 11878 3268 46       		.byte	0x46
 11879 3269 8C320000 		.4byte	0x328c
 11880 326d 28       		.uleb128 0x28
 11881 326e 5F080000 		.4byte	.LASF673
 11882 3272 00       		.byte	0
 11883 3273 28       		.uleb128 0x28
 11884 3274 D6030000 		.4byte	.LASF674
 11885 3278 01       		.byte	0x1
 11886 3279 28       		.uleb128 0x28
 11887 327a 5F250000 		.4byte	.LASF675
 11888 327e 02       		.byte	0x2
 11889 327f 28       		.uleb128 0x28
 11890 3280 C00F0000 		.4byte	.LASF676
 11891 3284 03       		.byte	0x3
 11892 3285 28       		.uleb128 0x28
 11893 3286 77140000 		.4byte	.LASF677
 11894 328a 04       		.byte	0x4
ARM GAS  C:\Users\mathi\AppData\Local\Temp\ccOm87JI.s 			page 210


 11895 328b 00       		.byte	0
 11896 328c 04       		.uleb128 0x4
 11897 328d 700F0000 		.4byte	.LASF678
 11898 3291 34       		.byte	0x34
 11899 3292 4C       		.byte	0x4c
 11900 3293 60320000 		.4byte	0x3260
 11901 3297 07       		.uleb128 0x7
 11902 3298 48240000 		.4byte	.LASF679
 11903 329c 35       		.byte	0x35
 11904 329d 9601     		.2byte	0x196
 11905 329f A3320000 		.4byte	0x32a3
 11906 32a3 1B       		.uleb128 0x1b
 11907 32a4 48240000 		.4byte	.LASF679
 11908 32a8 34       		.byte	0x34
 11909 32a9 35       		.byte	0x35
 11910 32aa BA01     		.2byte	0x1ba
 11911 32ac 26330000 		.4byte	0x3326
 11912 32b0 18       		.uleb128 0x18
 11913 32b1 E0170000 		.4byte	.LASF463
 11914 32b5 35       		.byte	0x35
 11915 32b6 BE01     		.2byte	0x1be
 11916 32b8 8C320000 		.4byte	0x328c
 11917 32bc 00       		.byte	0
 11918 32bd 18       		.uleb128 0x18
 11919 32be 2A1E0000 		.4byte	.LASF464
 11920 32c2 35       		.byte	0x35
 11921 32c3 C201     		.2byte	0x1c2
 11922 32c5 98330000 		.4byte	0x3398
 11923 32c9 04       		.byte	0x4
 11924 32ca 18       		.uleb128 0x18
 11925 32cb 49080000 		.4byte	.LASF468
 11926 32cf 35       		.byte	0x35
 11927 32d0 C701     		.2byte	0x1c7
 11928 32d2 F90A0000 		.4byte	0xaf9
 11929 32d6 08       		.byte	0x8
 11930 32d7 18       		.uleb128 0x18
 11931 32d8 F50D0000 		.4byte	.LASF469
 11932 32dc 35       		.byte	0x35
 11933 32dd CD01     		.2byte	0x1cd
 11934 32df 501B0000 		.4byte	0x1b50
 11935 32e3 0C       		.byte	0xc
 11936 32e4 21       		.uleb128 0x21
 11937 32e5 73706900 		.ascii	"spi\000"
 11938 32e9 35       		.byte	0x35
 11939 32ea D601     		.2byte	0x1d6
 11940 32ec 872D0000 		.4byte	0x2d87
 11941 32f0 20       		.byte	0x20
 11942 32f1 18       		.uleb128 0x18
 11943 32f2 E8000000 		.4byte	.LASF600
 11944 32f6 35       		.byte	0x35
 11945 32f7 DA01     		.2byte	0x1da
 11946 32f9 4F230000 		.4byte	0x234f
 11947 32fd 24       		.byte	0x24
 11948 32fe 18       		.uleb128 0x18
 11949 32ff 12030000 		.4byte	.LASF601
 11950 3303 35       		.byte	0x35
 11951 3304 DE01     		.2byte	0x1de
ARM GAS  C:\Users\mathi\AppData\Local\Temp\ccOm87JI.s 			page 211


 11952 3306 4F230000 		.4byte	0x234f
 11953 330a 28       		.byte	0x28
 11954 330b 18       		.uleb128 0x18
 11955 330c D6090000 		.4byte	.LASF598
 11956 3310 35       		.byte	0x35
 11957 3311 E201     		.2byte	0x1e2
 11958 3313 1C090000 		.4byte	0x91c
 11959 3317 2C       		.byte	0x2c
 11960 3318 18       		.uleb128 0x18
 11961 3319 2F0A0000 		.4byte	.LASF599
 11962 331d 35       		.byte	0x35
 11963 331e E601     		.2byte	0x1e6
 11964 3320 1C090000 		.4byte	0x91c
 11965 3324 30       		.byte	0x30
 11966 3325 00       		.byte	0
 11967 3326 07       		.uleb128 0x7
 11968 3327 13170000 		.4byte	.LASF680
 11969 332b 35       		.byte	0x35
 11970 332c 9E01     		.2byte	0x19e
 11971 332e 32330000 		.4byte	0x3332
 11972 3332 05       		.uleb128 0x5
 11973 3333 04       		.byte	0x4
 11974 3334 38330000 		.4byte	0x3338
 11975 3338 1F       		.uleb128 0x1f
 11976 3339 43330000 		.4byte	0x3343
 11977 333d 16       		.uleb128 0x16
 11978 333e 43330000 		.4byte	0x3343
 11979 3342 00       		.byte	0
 11980 3343 05       		.uleb128 0x5
 11981 3344 04       		.byte	0x4
 11982 3345 97320000 		.4byte	0x3297
 11983 3349 1C       		.uleb128 0x1c
 11984 334a 0C       		.byte	0xc
 11985 334b 35       		.byte	0x35
 11986 334c A301     		.2byte	0x1a3
 11987 334e 87330000 		.4byte	0x3387
 11988 3352 18       		.uleb128 0x18
 11989 3353 B00A0000 		.4byte	.LASF476
 11990 3357 35       		.byte	0x35
 11991 3358 A701     		.2byte	0x1a7
 11992 335a 26330000 		.4byte	0x3326
 11993 335e 00       		.byte	0
 11994 335f 18       		.uleb128 0x18
 11995 3360 2A260000 		.4byte	.LASF681
 11996 3364 35       		.byte	0x35
 11997 3365 AC01     		.2byte	0x1ac
 11998 3367 E0200000 		.4byte	0x20e0
 11999 336b 04       		.byte	0x4
 12000 336c 18       		.uleb128 0x18
 12001 336d 290A0000 		.4byte	.LASF682
 12002 3371 35       		.byte	0x35
 12003 3372 B001     		.2byte	0x1b0
 12004 3374 01090000 		.4byte	0x901
 12005 3378 08       		.byte	0x8
 12006 3379 21       		.uleb128 0x21
 12007 337a 63723100 		.ascii	"cr1\000"
 12008 337e 35       		.byte	0x35
ARM GAS  C:\Users\mathi\AppData\Local\Temp\ccOm87JI.s 			page 212


 12009 337f B401     		.2byte	0x1b4
 12010 3381 01090000 		.4byte	0x901
 12011 3385 0A       		.byte	0xa
 12012 3386 00       		.byte	0
 12013 3387 07       		.uleb128 0x7
 12014 3388 FD220000 		.4byte	.LASF683
 12015 338c 35       		.byte	0x35
 12016 338d B501     		.2byte	0x1b5
 12017 338f 49330000 		.4byte	0x3349
 12018 3393 0F       		.uleb128 0xf
 12019 3394 87330000 		.4byte	0x3387
 12020 3398 05       		.uleb128 0x5
 12021 3399 04       		.byte	0x4
 12022 339a 93330000 		.4byte	0x3393
 12023 339e 20       		.uleb128 0x20
 12024 339f 14220000 		.4byte	.LASF684
 12025 33a3 35       		.byte	0x35
 12026 33a4 F201     		.2byte	0x1f2
 12027 33a6 97320000 		.4byte	0x3297
 12028 33aa 04       		.uleb128 0x4
 12029 33ab AD120000 		.4byte	.LASF685
 12030 33af 36       		.byte	0x36
 12031 33b0 FA       		.byte	0xfa
 12032 33b1 B5330000 		.4byte	0x33b5
 12033 33b5 17       		.uleb128 0x17
 12034 33b6 AD120000 		.4byte	.LASF685
 12035 33ba 6002     		.2byte	0x260
 12036 33bc 37       		.byte	0x37
 12037 33bd 7701     		.2byte	0x177
 12038 33bf E1340000 		.4byte	0x34e1
 12039 33c3 18       		.uleb128 0x18
 12040 33c4 E0170000 		.4byte	.LASF463
 12041 33c8 37       		.byte	0x37
 12042 33c9 7B01     		.2byte	0x17b
 12043 33cb 19350000 		.4byte	0x3519
 12044 33cf 00       		.byte	0
 12045 33d0 18       		.uleb128 0x18
 12046 33d1 2A1E0000 		.4byte	.LASF464
 12047 33d5 37       		.byte	0x37
 12048 33d6 7F01     		.2byte	0x17f
 12049 33d8 693E0000 		.4byte	0x3e69
 12050 33dc 04       		.byte	0x4
 12051 33dd 18       		.uleb128 0x18
 12052 33de 39230000 		.4byte	.LASF686
 12053 33e2 37       		.byte	0x37
 12054 33e3 8301     		.2byte	0x183
 12055 33e5 01090000 		.4byte	0x901
 12056 33e9 08       		.byte	0x8
 12057 33ea 18       		.uleb128 0x18
 12058 33eb 51260000 		.4byte	.LASF687
 12059 33ef 37       		.byte	0x37
 12060 33f0 8701     		.2byte	0x187
 12061 33f2 01090000 		.4byte	0x901
 12062 33f6 0A       		.byte	0xa
 12063 33f7 21       		.uleb128 0x21
 12064 33f8 65706300 		.ascii	"epc\000"
 12065 33fc 37       		.byte	0x37
ARM GAS  C:\Users\mathi\AppData\Local\Temp\ccOm87JI.s 			page 213


 12066 33fd 8B01     		.2byte	0x18b
 12067 33ff 6F3E0000 		.4byte	0x3e6f
 12068 3403 0C       		.byte	0xc
 12069 3404 18       		.uleb128 0x18
 12070 3405 8F080000 		.4byte	.LASF688
 12071 3409 37       		.byte	0x37
 12072 340a 9201     		.2byte	0x192
 12073 340c 853E0000 		.4byte	0x3e85
 12074 3410 1C       		.byte	0x1c
 12075 3411 18       		.uleb128 0x18
 12076 3412 640D0000 		.4byte	.LASF689
 12077 3416 37       		.byte	0x37
 12078 3417 9901     		.2byte	0x199
 12079 3419 853E0000 		.4byte	0x3e85
 12080 341d 28       		.byte	0x28
 12081 341e 18       		.uleb128 0x18
 12082 341f F2100000 		.4byte	.LASF690
 12083 3423 37       		.byte	0x37
 12084 3424 9D01     		.2byte	0x19d
 12085 3426 8B350000 		.4byte	0x358b
 12086 342a 34       		.byte	0x34
 12087 342b 18       		.uleb128 0x18
 12088 342c A61D0000 		.4byte	.LASF691
 12089 3430 37       		.byte	0x37
 12090 3431 A101     		.2byte	0x1a1
 12091 3433 791C0000 		.4byte	0x1c79
 12092 3437 38       		.byte	0x38
 12093 3438 18       		.uleb128 0x18
 12094 3439 61190000 		.4byte	.LASF692
 12095 343d 37       		.byte	0x37
 12096 343e A501     		.2byte	0x1a5
 12097 3440 33000000 		.4byte	0x33
 12098 3444 3C       		.byte	0x3c
 12099 3445 18       		.uleb128 0x18
 12100 3446 34200000 		.4byte	.LASF693
 12101 344a 37       		.byte	0x37
 12102 344b A901     		.2byte	0x1a9
 12103 344d 0B360000 		.4byte	0x360b
 12104 3451 40       		.byte	0x40
 12105 3452 18       		.uleb128 0x18
 12106 3453 59080000 		.4byte	.LASF694
 12107 3457 37       		.byte	0x37
 12108 3458 AD01     		.2byte	0x1ad
 12109 345a B0230000 		.4byte	0x23b0
 12110 345e 44       		.byte	0x44
 12111 345f 18       		.uleb128 0x18
 12112 3460 E5160000 		.4byte	.LASF695
 12113 3464 37       		.byte	0x37
 12114 3465 B101     		.2byte	0x1b1
 12115 3467 01090000 		.4byte	0x901
 12116 346b 4C       		.byte	0x4c
 12117 346c 18       		.uleb128 0x18
 12118 346d 3E170000 		.4byte	.LASF696
 12119 3471 37       		.byte	0x37
 12120 3472 B501     		.2byte	0x1b5
 12121 3474 E6080000 		.4byte	0x8e6
 12122 3478 4E       		.byte	0x4e
ARM GAS  C:\Users\mathi\AppData\Local\Temp\ccOm87JI.s 			page 214


 12123 3479 18       		.uleb128 0x18
 12124 347a CB1C0000 		.4byte	.LASF697
 12125 347e 37       		.byte	0x37
 12126 347f B901     		.2byte	0x1b9
 12127 3481 E6080000 		.4byte	0x8e6
 12128 3485 4F       		.byte	0x4f
 12129 3486 21       		.uleb128 0x21
 12130 3487 6F746700 		.ascii	"otg\000"
 12131 348b 37       		.byte	0x37
 12132 348c C101     		.2byte	0x1c1
 12133 348e 953E0000 		.4byte	0x3e95
 12134 3492 50       		.byte	0x50
 12135 3493 18       		.uleb128 0x18
 12136 3494 0E0F0000 		.4byte	.LASF698
 12137 3498 37       		.byte	0x37
 12138 3499 C501     		.2byte	0x1c5
 12139 349b 9B3E0000 		.4byte	0x3e9b
 12140 349f 54       		.byte	0x54
 12141 34a0 18       		.uleb128 0x18
 12142 34a1 A8210000 		.4byte	.LASF699
 12143 34a5 37       		.byte	0x37
 12144 34a6 C901     		.2byte	0x1c9
 12145 34a8 1C090000 		.4byte	0x91c
 12146 34ac 58       		.byte	0x58
 12147 34ad 18       		.uleb128 0x18
 12148 34ae 140E0000 		.4byte	.LASF700
 12149 34b2 37       		.byte	0x37
 12150 34b3 CD01     		.2byte	0x1cd
 12151 34b5 1C090000 		.4byte	0x91c
 12152 34b9 5C       		.byte	0x5c
 12153 34ba 18       		.uleb128 0x18
 12154 34bb 85090000 		.4byte	.LASF701
 12155 34bf 37       		.byte	0x37
 12156 34c0 D101     		.2byte	0x1d1
 12157 34c2 F90A0000 		.4byte	0xaf9
 12158 34c6 60       		.byte	0x60
 12159 34c7 21       		.uleb128 0x21
 12160 34c8 747200   		.ascii	"tr\000"
 12161 34cb 37       		.byte	0x37
 12162 34cc D601     		.2byte	0x1d6
 12163 34ce F90A0000 		.4byte	0xaf9
 12164 34d2 64       		.byte	0x64
 12165 34d3 18       		.uleb128 0x18
 12166 34d4 B7150000 		.4byte	.LASF702
 12167 34d8 37       		.byte	0x37
 12168 34d9 DA01     		.2byte	0x1da
 12169 34db A13E0000 		.4byte	0x3ea1
 12170 34df 68       		.byte	0x68
 12171 34e0 00       		.byte	0
 12172 34e1 04       		.uleb128 0x4
 12173 34e2 2D0B0000 		.4byte	.LASF703
 12174 34e6 36       		.byte	0x36
 12175 34e7 FF       		.byte	0xff
 12176 34e8 E6080000 		.4byte	0x8e6
 12177 34ec 2A       		.uleb128 0x2a
 12178 34ed 07       		.byte	0x7
 12179 34ee 01       		.byte	0x1
ARM GAS  C:\Users\mathi\AppData\Local\Temp\ccOm87JI.s 			page 215


 12180 34ef 5E000000 		.4byte	0x5e
 12181 34f3 36       		.byte	0x36
 12182 34f4 0401     		.2byte	0x104
 12183 34f6 19350000 		.4byte	0x3519
 12184 34fa 28       		.uleb128 0x28
 12185 34fb 1C270000 		.4byte	.LASF704
 12186 34ff 00       		.byte	0
 12187 3500 28       		.uleb128 0x28
 12188 3501 00000000 		.4byte	.LASF705
 12189 3505 01       		.byte	0x1
 12190 3506 28       		.uleb128 0x28
 12191 3507 42140000 		.4byte	.LASF706
 12192 350b 02       		.byte	0x2
 12193 350c 28       		.uleb128 0x28
 12194 350d B91A0000 		.4byte	.LASF707
 12195 3511 03       		.byte	0x3
 12196 3512 28       		.uleb128 0x28
 12197 3513 A8090000 		.4byte	.LASF708
 12198 3517 04       		.byte	0x4
 12199 3518 00       		.byte	0
 12200 3519 07       		.uleb128 0x7
 12201 351a 6D280000 		.4byte	.LASF709
 12202 351e 36       		.byte	0x36
 12203 351f 0A01     		.2byte	0x10a
 12204 3521 EC340000 		.4byte	0x34ec
 12205 3525 2A       		.uleb128 0x2a
 12206 3526 07       		.byte	0x7
 12207 3527 01       		.byte	0x1
 12208 3528 5E000000 		.4byte	0x5e
 12209 352c 36       		.byte	0x36
 12210 352d 0F01     		.2byte	0x10f
 12211 352f 46350000 		.4byte	0x3546
 12212 3533 28       		.uleb128 0x28
 12213 3534 5F200000 		.4byte	.LASF710
 12214 3538 00       		.byte	0
 12215 3539 28       		.uleb128 0x28
 12216 353a EA0E0000 		.4byte	.LASF711
 12217 353e 01       		.byte	0x1
 12218 353f 28       		.uleb128 0x28
 12219 3540 2C050000 		.4byte	.LASF712
 12220 3544 02       		.byte	0x2
 12221 3545 00       		.byte	0
 12222 3546 07       		.uleb128 0x7
 12223 3547 16040000 		.4byte	.LASF713
 12224 354b 36       		.byte	0x36
 12225 354c 1301     		.2byte	0x113
 12226 354e 25350000 		.4byte	0x3525
 12227 3552 2A       		.uleb128 0x2a
 12228 3553 07       		.byte	0x7
 12229 3554 01       		.byte	0x1
 12230 3555 5E000000 		.4byte	0x5e
 12231 3559 36       		.byte	0x36
 12232 355a 1801     		.2byte	0x118
 12233 355c 8B350000 		.4byte	0x358b
 12234 3560 28       		.uleb128 0x28
 12235 3561 FF1F0000 		.4byte	.LASF714
 12236 3565 00       		.byte	0
ARM GAS  C:\Users\mathi\AppData\Local\Temp\ccOm87JI.s 			page 216


 12237 3566 28       		.uleb128 0x28
 12238 3567 E7100000 		.4byte	.LASF715
 12239 356b 01       		.byte	0x1
 12240 356c 28       		.uleb128 0x28
 12241 356d 921D0000 		.4byte	.LASF716
 12242 3571 02       		.byte	0x2
 12243 3572 28       		.uleb128 0x28
 12244 3573 05180000 		.4byte	.LASF717
 12245 3577 03       		.byte	0x3
 12246 3578 28       		.uleb128 0x28
 12247 3579 D0160000 		.4byte	.LASF718
 12248 357d 04       		.byte	0x4
 12249 357e 28       		.uleb128 0x28
 12250 357f 00120000 		.4byte	.LASF719
 12251 3583 05       		.byte	0x5
 12252 3584 28       		.uleb128 0x28
 12253 3585 4D100000 		.4byte	.LASF720
 12254 3589 06       		.byte	0x6
 12255 358a 00       		.byte	0
 12256 358b 07       		.uleb128 0x7
 12257 358c 49120000 		.4byte	.LASF721
 12258 3590 36       		.byte	0x36
 12259 3591 2001     		.2byte	0x120
 12260 3593 52350000 		.4byte	0x3552
 12261 3597 2A       		.uleb128 0x2a
 12262 3598 07       		.byte	0x7
 12263 3599 01       		.byte	0x1
 12264 359a 5E000000 		.4byte	0x5e
 12265 359e 36       		.byte	0x36
 12266 359f 2501     		.2byte	0x125
 12267 35a1 CA350000 		.4byte	0x35ca
 12268 35a5 28       		.uleb128 0x28
 12269 35a6 9B1F0000 		.4byte	.LASF722
 12270 35aa 00       		.byte	0
 12271 35ab 28       		.uleb128 0x28
 12272 35ac 4C1B0000 		.4byte	.LASF723
 12273 35b0 01       		.byte	0x1
 12274 35b1 28       		.uleb128 0x28
 12275 35b2 12150000 		.4byte	.LASF724
 12276 35b6 02       		.byte	0x2
 12277 35b7 28       		.uleb128 0x28
 12278 35b8 19160000 		.4byte	.LASF725
 12279 35bc 03       		.byte	0x3
 12280 35bd 28       		.uleb128 0x28
 12281 35be BD250000 		.4byte	.LASF726
 12282 35c2 04       		.byte	0x4
 12283 35c3 28       		.uleb128 0x28
 12284 35c4 93140000 		.4byte	.LASF727
 12285 35c8 05       		.byte	0x5
 12286 35c9 00       		.byte	0
 12287 35ca 07       		.uleb128 0x7
 12288 35cb 7B1B0000 		.4byte	.LASF728
 12289 35cf 36       		.byte	0x36
 12290 35d0 2C01     		.2byte	0x12c
 12291 35d2 97350000 		.4byte	0x3597
 12292 35d6 1C       		.uleb128 0x1c
 12293 35d7 08       		.byte	0x8
ARM GAS  C:\Users\mathi\AppData\Local\Temp\ccOm87JI.s 			page 217


 12294 35d8 36       		.byte	0x36
 12295 35d9 3101     		.2byte	0x131
 12296 35db FA350000 		.4byte	0x35fa
 12297 35df 18       		.uleb128 0x18
 12298 35e0 F6270000 		.4byte	.LASF729
 12299 35e4 36       		.byte	0x36
 12300 35e5 3501     		.2byte	0x135
 12301 35e7 33000000 		.4byte	0x33
 12302 35eb 00       		.byte	0
 12303 35ec 18       		.uleb128 0x18
 12304 35ed D0050000 		.4byte	.LASF730
 12305 35f1 36       		.byte	0x36
 12306 35f2 3901     		.2byte	0x139
 12307 35f4 AE1C0000 		.4byte	0x1cae
 12308 35f8 04       		.byte	0x4
 12309 35f9 00       		.byte	0
 12310 35fa 07       		.uleb128 0x7
 12311 35fb 05170000 		.4byte	.LASF731
 12312 35ff 36       		.byte	0x36
 12313 3600 3A01     		.2byte	0x13a
 12314 3602 D6350000 		.4byte	0x35d6
 12315 3606 0F       		.uleb128 0xf
 12316 3607 FA350000 		.4byte	0x35fa
 12317 360b 07       		.uleb128 0x7
 12318 360c 78270000 		.4byte	.LASF732
 12319 3610 36       		.byte	0x36
 12320 3611 4201     		.2byte	0x142
 12321 3613 17360000 		.4byte	0x3617
 12322 3617 05       		.uleb128 0x5
 12323 3618 04       		.byte	0x4
 12324 3619 1D360000 		.4byte	0x361d
 12325 361d 1F       		.uleb128 0x1f
 12326 361e 28360000 		.4byte	0x3628
 12327 3622 16       		.uleb128 0x16
 12328 3623 28360000 		.4byte	0x3628
 12329 3627 00       		.byte	0
 12330 3628 05       		.uleb128 0x5
 12331 3629 04       		.byte	0x4
 12332 362a AA330000 		.4byte	0x33aa
 12333 362e 07       		.uleb128 0x7
 12334 362f 1C060000 		.4byte	.LASF733
 12335 3633 36       		.byte	0x36
 12336 3634 4B01     		.2byte	0x14b
 12337 3636 3A360000 		.4byte	0x363a
 12338 363a 05       		.uleb128 0x5
 12339 363b 04       		.byte	0x4
 12340 363c 40360000 		.4byte	0x3640
 12341 3640 1F       		.uleb128 0x1f
 12342 3641 50360000 		.4byte	0x3650
 12343 3645 16       		.uleb128 0x16
 12344 3646 28360000 		.4byte	0x3628
 12345 364a 16       		.uleb128 0x16
 12346 364b E1340000 		.4byte	0x34e1
 12347 364f 00       		.byte	0
 12348 3650 07       		.uleb128 0x7
 12349 3651 650C0000 		.4byte	.LASF734
 12350 3655 36       		.byte	0x36
ARM GAS  C:\Users\mathi\AppData\Local\Temp\ccOm87JI.s 			page 218


 12351 3656 5401     		.2byte	0x154
 12352 3658 5C360000 		.4byte	0x365c
 12353 365c 05       		.uleb128 0x5
 12354 365d 04       		.byte	0x4
 12355 365e 62360000 		.4byte	0x3662
 12356 3662 1F       		.uleb128 0x1f
 12357 3663 72360000 		.4byte	0x3672
 12358 3667 16       		.uleb128 0x16
 12359 3668 28360000 		.4byte	0x3628
 12360 366c 16       		.uleb128 0x16
 12361 366d CA350000 		.4byte	0x35ca
 12362 3671 00       		.byte	0
 12363 3672 07       		.uleb128 0x7
 12364 3673 C3070000 		.4byte	.LASF735
 12365 3677 36       		.byte	0x36
 12366 3678 6001     		.2byte	0x160
 12367 367a 7E360000 		.4byte	0x367e
 12368 367e 05       		.uleb128 0x5
 12369 367f 04       		.byte	0x4
 12370 3680 84360000 		.4byte	0x3684
 12371 3684 15       		.uleb128 0x15
 12372 3685 951E0000 		.4byte	0x1e95
 12373 3689 93360000 		.4byte	0x3693
 12374 368d 16       		.uleb128 0x16
 12375 368e 28360000 		.4byte	0x3628
 12376 3692 00       		.byte	0
 12377 3693 07       		.uleb128 0x7
 12378 3694 B9100000 		.4byte	.LASF736
 12379 3698 36       		.byte	0x36
 12380 3699 6501     		.2byte	0x165
 12381 369b 9F360000 		.4byte	0x369f
 12382 369f 05       		.uleb128 0x5
 12383 36a0 04       		.byte	0x4
 12384 36a1 A5360000 		.4byte	0x36a5
 12385 36a5 15       		.uleb128 0x15
 12386 36a6 C3360000 		.4byte	0x36c3
 12387 36aa C3360000 		.4byte	0x36c3
 12388 36ae 16       		.uleb128 0x16
 12389 36af 28360000 		.4byte	0x3628
 12390 36b3 16       		.uleb128 0x16
 12391 36b4 E6080000 		.4byte	0x8e6
 12392 36b8 16       		.uleb128 0x16
 12393 36b9 E6080000 		.4byte	0x8e6
 12394 36bd 16       		.uleb128 0x16
 12395 36be 01090000 		.4byte	0x901
 12396 36c2 00       		.byte	0
 12397 36c3 05       		.uleb128 0x5
 12398 36c4 04       		.byte	0x4
 12399 36c5 06360000 		.4byte	0x3606
 12400 36c9 0C       		.uleb128 0xc
 12401 36ca 20       		.byte	0x20
 12402 36cb 38       		.byte	0x38
 12403 36cc 35       		.byte	0x35
 12404 36cd 32370000 		.4byte	0x3732
 12405 36d1 0D       		.uleb128 0xd
 12406 36d2 45040000 		.4byte	.LASF737
 12407 36d6 38       		.byte	0x38
ARM GAS  C:\Users\mathi\AppData\Local\Temp\ccOm87JI.s 			page 219


 12408 36d7 36       		.byte	0x36
 12409 36d8 27090000 		.4byte	0x927
 12410 36dc 00       		.byte	0
 12411 36dd 0D       		.uleb128 0xd
 12412 36de 590E0000 		.4byte	.LASF738
 12413 36e2 38       		.byte	0x38
 12414 36e3 38       		.byte	0x38
 12415 36e4 27090000 		.4byte	0x927
 12416 36e8 04       		.byte	0x4
 12417 36e9 0D       		.uleb128 0xd
 12418 36ea AB030000 		.4byte	.LASF739
 12419 36ee 38       		.byte	0x38
 12420 36ef 39       		.byte	0x39
 12421 36f0 27090000 		.4byte	0x927
 12422 36f4 08       		.byte	0x8
 12423 36f5 0D       		.uleb128 0xd
 12424 36f6 1B1E0000 		.4byte	.LASF740
 12425 36fa 38       		.byte	0x38
 12426 36fb 3A       		.byte	0x3a
 12427 36fc 27090000 		.4byte	0x927
 12428 3700 0C       		.byte	0xc
 12429 3701 0D       		.uleb128 0xd
 12430 3702 0B150000 		.4byte	.LASF741
 12431 3706 38       		.byte	0x38
 12432 3707 3C       		.byte	0x3c
 12433 3708 27090000 		.4byte	0x927
 12434 370c 10       		.byte	0x10
 12435 370d 0D       		.uleb128 0xd
 12436 370e 8F0E0000 		.4byte	.LASF742
 12437 3712 38       		.byte	0x38
 12438 3713 3E       		.byte	0x3e
 12439 3714 27090000 		.4byte	0x927
 12440 3718 14       		.byte	0x14
 12441 3719 0D       		.uleb128 0xd
 12442 371a A20E0000 		.4byte	.LASF743
 12443 371e 38       		.byte	0x38
 12444 371f 3F       		.byte	0x3f
 12445 3720 27090000 		.4byte	0x927
 12446 3724 18       		.byte	0x18
 12447 3725 0D       		.uleb128 0xd
 12448 3726 E2040000 		.4byte	.LASF744
 12449 372a 38       		.byte	0x38
 12450 372b 40       		.byte	0x40
 12451 372c 27090000 		.4byte	0x927
 12452 3730 1C       		.byte	0x1c
 12453 3731 00       		.byte	0
 12454 3732 04       		.uleb128 0x4
 12455 3733 AE1D0000 		.4byte	.LASF745
 12456 3737 38       		.byte	0x38
 12457 3738 41       		.byte	0x41
 12458 3739 C9360000 		.4byte	0x36c9
 12459 373d 0C       		.uleb128 0xc
 12460 373e 20       		.byte	0x20
 12461 373f 38       		.byte	0x38
 12462 3740 46       		.byte	0x46
 12463 3741 A6370000 		.4byte	0x37a6
 12464 3745 0D       		.uleb128 0xd
ARM GAS  C:\Users\mathi\AppData\Local\Temp\ccOm87JI.s 			page 220


 12465 3746 FC0E0000 		.4byte	.LASF746
 12466 374a 38       		.byte	0x38
 12467 374b 47       		.byte	0x47
 12468 374c 27090000 		.4byte	0x927
 12469 3750 00       		.byte	0
 12470 3751 0D       		.uleb128 0xd
 12471 3752 A6120000 		.4byte	.LASF747
 12472 3756 38       		.byte	0x38
 12473 3757 49       		.byte	0x49
 12474 3758 27090000 		.4byte	0x927
 12475 375c 04       		.byte	0x4
 12476 375d 0D       		.uleb128 0xd
 12477 375e 59220000 		.4byte	.LASF748
 12478 3762 38       		.byte	0x38
 12479 3763 4A       		.byte	0x4a
 12480 3764 27090000 		.4byte	0x927
 12481 3768 08       		.byte	0x8
 12482 3769 0D       		.uleb128 0xd
 12483 376a CA120000 		.4byte	.LASF749
 12484 376e 38       		.byte	0x38
 12485 376f 4C       		.byte	0x4c
 12486 3770 27090000 		.4byte	0x927
 12487 3774 0C       		.byte	0xc
 12488 3775 0D       		.uleb128 0xd
 12489 3776 DF180000 		.4byte	.LASF750
 12490 377a 38       		.byte	0x38
 12491 377b 4D       		.byte	0x4d
 12492 377c 27090000 		.4byte	0x927
 12493 3780 10       		.byte	0x10
 12494 3781 0D       		.uleb128 0xd
 12495 3782 8F0E0000 		.4byte	.LASF742
 12496 3786 38       		.byte	0x38
 12497 3787 4F       		.byte	0x4f
 12498 3788 27090000 		.4byte	0x927
 12499 378c 14       		.byte	0x14
 12500 378d 0D       		.uleb128 0xd
 12501 378e 6A080000 		.4byte	.LASF751
 12502 3792 38       		.byte	0x38
 12503 3793 50       		.byte	0x50
 12504 3794 27090000 		.4byte	0x927
 12505 3798 18       		.byte	0x18
 12506 3799 0D       		.uleb128 0xd
 12507 379a 42220000 		.4byte	.LASF752
 12508 379e 38       		.byte	0x38
 12509 379f 52       		.byte	0x52
 12510 37a0 27090000 		.4byte	0x927
 12511 37a4 1C       		.byte	0x1c
 12512 37a5 00       		.byte	0
 12513 37a6 04       		.uleb128 0x4
 12514 37a7 B3090000 		.4byte	.LASF753
 12515 37ab 38       		.byte	0x38
 12516 37ac 53       		.byte	0x53
 12517 37ad 3D370000 		.4byte	0x373d
 12518 37b1 0C       		.uleb128 0xc
 12519 37b2 20       		.byte	0x20
 12520 37b3 38       		.byte	0x38
 12521 37b4 58       		.byte	0x58
ARM GAS  C:\Users\mathi\AppData\Local\Temp\ccOm87JI.s 			page 221


 12522 37b5 1A380000 		.4byte	0x381a
 12523 37b9 0D       		.uleb128 0xd
 12524 37ba 48160000 		.4byte	.LASF754
 12525 37be 38       		.byte	0x38
 12526 37bf 59       		.byte	0x59
 12527 37c0 27090000 		.4byte	0x927
 12528 37c4 00       		.byte	0
 12529 37c5 0D       		.uleb128 0xd
 12530 37c6 A6120000 		.4byte	.LASF747
 12531 37ca 38       		.byte	0x38
 12532 37cb 5B       		.byte	0x5b
 12533 37cc 27090000 		.4byte	0x927
 12534 37d0 04       		.byte	0x4
 12535 37d1 0D       		.uleb128 0xd
 12536 37d2 341A0000 		.4byte	.LASF755
 12537 37d6 38       		.byte	0x38
 12538 37d7 5C       		.byte	0x5c
 12539 37d8 27090000 		.4byte	0x927
 12540 37dc 08       		.byte	0x8
 12541 37dd 0D       		.uleb128 0xd
 12542 37de CA120000 		.4byte	.LASF749
 12543 37e2 38       		.byte	0x38
 12544 37e3 5E       		.byte	0x5e
 12545 37e4 27090000 		.4byte	0x927
 12546 37e8 0C       		.byte	0xc
 12547 37e9 0D       		.uleb128 0xd
 12548 37ea 92230000 		.4byte	.LASF756
 12549 37ee 38       		.byte	0x38
 12550 37ef 5F       		.byte	0x5f
 12551 37f0 27090000 		.4byte	0x927
 12552 37f4 10       		.byte	0x10
 12553 37f5 0D       		.uleb128 0xd
 12554 37f6 8F0E0000 		.4byte	.LASF742
 12555 37fa 38       		.byte	0x38
 12556 37fb 61       		.byte	0x61
 12557 37fc 27090000 		.4byte	0x927
 12558 3800 14       		.byte	0x14
 12559 3801 0D       		.uleb128 0xd
 12560 3802 A20E0000 		.4byte	.LASF743
 12561 3806 38       		.byte	0x38
 12562 3807 62       		.byte	0x62
 12563 3808 27090000 		.4byte	0x927
 12564 380c 18       		.byte	0x18
 12565 380d 0D       		.uleb128 0xd
 12566 380e 42220000 		.4byte	.LASF752
 12567 3812 38       		.byte	0x38
 12568 3813 63       		.byte	0x63
 12569 3814 27090000 		.4byte	0x927
 12570 3818 1C       		.byte	0x1c
 12571 3819 00       		.byte	0
 12572 381a 04       		.uleb128 0x4
 12573 381b 43090000 		.4byte	.LASF757
 12574 381f 38       		.byte	0x38
 12575 3820 64       		.byte	0x64
 12576 3821 B1370000 		.4byte	0x37b1
 12577 3825 2C       		.uleb128 0x2c
 12578 3826 00100100 		.4byte	0x11000
ARM GAS  C:\Users\mathi\AppData\Local\Temp\ccOm87JI.s 			page 222


 12579 382a 38       		.byte	0x38
 12580 382b 69       		.byte	0x69
 12581 382c 023B0000 		.4byte	0x3b02
 12582 3830 0D       		.uleb128 0xd
 12583 3831 14060000 		.4byte	.LASF758
 12584 3835 38       		.byte	0x38
 12585 3836 6A       		.byte	0x6a
 12586 3837 27090000 		.4byte	0x927
 12587 383b 00       		.byte	0
 12588 383c 0D       		.uleb128 0xd
 12589 383d 4C0D0000 		.4byte	.LASF759
 12590 3841 38       		.byte	0x38
 12591 3842 6B       		.byte	0x6b
 12592 3843 27090000 		.4byte	0x927
 12593 3847 04       		.byte	0x4
 12594 3848 0D       		.uleb128 0xd
 12595 3849 B4080000 		.4byte	.LASF760
 12596 384d 38       		.byte	0x38
 12597 384e 6C       		.byte	0x6c
 12598 384f 27090000 		.4byte	0x927
 12599 3853 08       		.byte	0x8
 12600 3854 0D       		.uleb128 0xd
 12601 3855 8C270000 		.4byte	.LASF761
 12602 3859 38       		.byte	0x38
 12603 385a 6D       		.byte	0x6d
 12604 385b 27090000 		.4byte	0x927
 12605 385f 0C       		.byte	0xc
 12606 3860 0D       		.uleb128 0xd
 12607 3861 52140000 		.4byte	.LASF762
 12608 3865 38       		.byte	0x38
 12609 3866 6E       		.byte	0x6e
 12610 3867 27090000 		.4byte	0x927
 12611 386b 10       		.byte	0x10
 12612 386c 0D       		.uleb128 0xd
 12613 386d A2040000 		.4byte	.LASF763
 12614 3871 38       		.byte	0x38
 12615 3872 6F       		.byte	0x6f
 12616 3873 27090000 		.4byte	0x927
 12617 3877 14       		.byte	0x14
 12618 3878 0D       		.uleb128 0xd
 12619 3879 611C0000 		.4byte	.LASF764
 12620 387d 38       		.byte	0x38
 12621 387e 70       		.byte	0x70
 12622 387f 27090000 		.4byte	0x927
 12623 3883 18       		.byte	0x18
 12624 3884 0D       		.uleb128 0xd
 12625 3885 5E090000 		.4byte	.LASF765
 12626 3889 38       		.byte	0x38
 12627 388a 71       		.byte	0x71
 12628 388b 27090000 		.4byte	0x927
 12629 388f 1C       		.byte	0x1c
 12630 3890 0D       		.uleb128 0xd
 12631 3891 56090000 		.4byte	.LASF766
 12632 3895 38       		.byte	0x38
 12633 3896 73       		.byte	0x73
 12634 3897 27090000 		.4byte	0x927
 12635 389b 20       		.byte	0x20
ARM GAS  C:\Users\mathi\AppData\Local\Temp\ccOm87JI.s 			page 223


 12636 389c 0D       		.uleb128 0xd
 12637 389d EE1B0000 		.4byte	.LASF767
 12638 38a1 38       		.byte	0x38
 12639 38a2 75       		.byte	0x75
 12640 38a3 27090000 		.4byte	0x927
 12641 38a7 24       		.byte	0x24
 12642 38a8 0D       		.uleb128 0xd
 12643 38a9 98000000 		.4byte	.LASF768
 12644 38ad 38       		.byte	0x38
 12645 38ae 76       		.byte	0x76
 12646 38af 27090000 		.4byte	0x927
 12647 38b3 28       		.byte	0x28
 12648 38b4 0D       		.uleb128 0xd
 12649 38b5 691C0000 		.4byte	.LASF769
 12650 38b9 38       		.byte	0x38
 12651 38ba 78       		.byte	0x78
 12652 38bb 27090000 		.4byte	0x927
 12653 38bf 2C       		.byte	0x2c
 12654 38c0 0D       		.uleb128 0xd
 12655 38c1 F30F0000 		.4byte	.LASF770
 12656 38c5 38       		.byte	0x38
 12657 38c6 7A       		.byte	0x7a
 12658 38c7 27090000 		.4byte	0x927
 12659 38cb 30       		.byte	0x30
 12660 38cc 0D       		.uleb128 0xd
 12661 38cd 01260000 		.4byte	.LASF771
 12662 38d1 38       		.byte	0x38
 12663 38d2 7B       		.byte	0x7b
 12664 38d3 27090000 		.4byte	0x927
 12665 38d7 34       		.byte	0x34
 12666 38d8 0D       		.uleb128 0xd
 12667 38d9 DA020000 		.4byte	.LASF772
 12668 38dd 38       		.byte	0x38
 12669 38de 7C       		.byte	0x7c
 12670 38df 27090000 		.4byte	0x927
 12671 38e3 38       		.byte	0x38
 12672 38e4 11       		.uleb128 0x11
 12673 38e5 43494400 		.ascii	"CID\000"
 12674 38e9 38       		.byte	0x38
 12675 38ea 7D       		.byte	0x7d
 12676 38eb 27090000 		.4byte	0x927
 12677 38ef 3C       		.byte	0x3c
 12678 38f0 0D       		.uleb128 0xd
 12679 38f1 97110000 		.4byte	.LASF773
 12680 38f5 38       		.byte	0x38
 12681 38f6 7E       		.byte	0x7e
 12682 38f7 123B0000 		.4byte	0x3b12
 12683 38fb 40       		.byte	0x40
 12684 38fc 13       		.uleb128 0x13
 12685 38fd A7240000 		.4byte	.LASF774
 12686 3901 38       		.byte	0x38
 12687 3902 7F       		.byte	0x7f
 12688 3903 27090000 		.4byte	0x927
 12689 3907 0001     		.2byte	0x100
 12690 3909 13       		.uleb128 0x13
 12691 390a 3E030000 		.4byte	.LASF775
 12692 390e 38       		.byte	0x38
ARM GAS  C:\Users\mathi\AppData\Local\Temp\ccOm87JI.s 			page 224


 12693 390f 81       		.byte	0x81
 12694 3910 8C160000 		.4byte	0x168c
 12695 3914 0401     		.2byte	0x104
 12696 3916 13       		.uleb128 0x13
 12697 3917 D6150000 		.4byte	.LASF776
 12698 391b 38       		.byte	0x38
 12699 391c 83       		.byte	0x83
 12700 391d 273B0000 		.4byte	0x3b27
 12701 3921 4001     		.2byte	0x140
 12702 3923 13       		.uleb128 0x13
 12703 3924 D3190000 		.4byte	.LASF777
 12704 3928 38       		.byte	0x38
 12705 3929 84       		.byte	0x84
 12706 392a 27090000 		.4byte	0x927
 12707 392e 0004     		.2byte	0x400
 12708 3930 13       		.uleb128 0x13
 12709 3931 17270000 		.4byte	.LASF778
 12710 3935 38       		.byte	0x38
 12711 3936 85       		.byte	0x85
 12712 3937 27090000 		.4byte	0x927
 12713 393b 0404     		.2byte	0x404
 12714 393d 13       		.uleb128 0x13
 12715 393e 66050000 		.4byte	.LASF779
 12716 3942 38       		.byte	0x38
 12717 3943 86       		.byte	0x86
 12718 3944 27090000 		.4byte	0x927
 12719 3948 0804     		.2byte	0x408
 12720 394a 13       		.uleb128 0x13
 12721 394b 25240000 		.4byte	.LASF780
 12722 394f 38       		.byte	0x38
 12723 3950 88       		.byte	0x88
 12724 3951 27090000 		.4byte	0x927
 12725 3955 0C04     		.2byte	0x40c
 12726 3957 13       		.uleb128 0x13
 12727 3958 07040000 		.4byte	.LASF781
 12728 395c 38       		.byte	0x38
 12729 395d 89       		.byte	0x89
 12730 395e 27090000 		.4byte	0x927
 12731 3962 1004     		.2byte	0x410
 12732 3964 13       		.uleb128 0x13
 12733 3965 01050000 		.4byte	.LASF782
 12734 3969 38       		.byte	0x38
 12735 396a 8B       		.byte	0x8b
 12736 396b 27090000 		.4byte	0x927
 12737 396f 1404     		.2byte	0x414
 12738 3971 13       		.uleb128 0x13
 12739 3972 5B0D0000 		.4byte	.LASF783
 12740 3976 38       		.byte	0x38
 12741 3977 8D       		.byte	0x8d
 12742 3978 27090000 		.4byte	0x927
 12743 397c 1804     		.2byte	0x418
 12744 397e 13       		.uleb128 0x13
 12745 397f 551F0000 		.4byte	.LASF784
 12746 3983 38       		.byte	0x38
 12747 3984 8F       		.byte	0x8f
 12748 3985 3C3B0000 		.4byte	0x3b3c
 12749 3989 1C04     		.2byte	0x41c
ARM GAS  C:\Users\mathi\AppData\Local\Temp\ccOm87JI.s 			page 225


 12750 398b 13       		.uleb128 0x13
 12751 398c A6030000 		.4byte	.LASF785
 12752 3990 38       		.byte	0x38
 12753 3991 90       		.byte	0x90
 12754 3992 27090000 		.4byte	0x927
 12755 3996 4004     		.2byte	0x440
 12756 3998 13       		.uleb128 0x13
 12757 3999 3A210000 		.4byte	.LASF786
 12758 399d 38       		.byte	0x38
 12759 399e 92       		.byte	0x92
 12760 399f 513B0000 		.4byte	0x3b51
 12761 39a3 4404     		.2byte	0x444
 12762 39a5 2D       		.uleb128 0x2d
 12763 39a6 686300   		.ascii	"hc\000"
 12764 39a9 38       		.byte	0x38
 12765 39aa 93       		.byte	0x93
 12766 39ab 563B0000 		.4byte	0x3b56
 12767 39af 0005     		.2byte	0x500
 12768 39b1 13       		.uleb128 0x13
 12769 39b2 6E240000 		.4byte	.LASF787
 12770 39b6 38       		.byte	0x38
 12771 39b7 94       		.byte	0x94
 12772 39b8 763B0000 		.4byte	0x3b76
 12773 39bc 0007     		.2byte	0x700
 12774 39be 13       		.uleb128 0x13
 12775 39bf 3E1C0000 		.4byte	.LASF788
 12776 39c3 38       		.byte	0x38
 12777 39c4 95       		.byte	0x95
 12778 39c5 27090000 		.4byte	0x927
 12779 39c9 0008     		.2byte	0x800
 12780 39cb 13       		.uleb128 0x13
 12781 39cc 9D250000 		.4byte	.LASF789
 12782 39d0 38       		.byte	0x38
 12783 39d1 96       		.byte	0x96
 12784 39d2 27090000 		.4byte	0x927
 12785 39d6 0408     		.2byte	0x804
 12786 39d8 13       		.uleb128 0x13
 12787 39d9 C8060000 		.4byte	.LASF790
 12788 39dd 38       		.byte	0x38
 12789 39de 97       		.byte	0x97
 12790 39df 27090000 		.4byte	0x927
 12791 39e3 0808     		.2byte	0x808
 12792 39e5 13       		.uleb128 0x13
 12793 39e6 02060000 		.4byte	.LASF791
 12794 39ea 38       		.byte	0x38
 12795 39eb 98       		.byte	0x98
 12796 39ec 27090000 		.4byte	0x927
 12797 39f0 0C08     		.2byte	0x80c
 12798 39f2 13       		.uleb128 0x13
 12799 39f3 440D0000 		.4byte	.LASF792
 12800 39f7 38       		.byte	0x38
 12801 39f8 99       		.byte	0x99
 12802 39f9 27090000 		.4byte	0x927
 12803 39fd 1008     		.2byte	0x810
 12804 39ff 13       		.uleb128 0x13
 12805 3a00 7A220000 		.4byte	.LASF793
 12806 3a04 38       		.byte	0x38
ARM GAS  C:\Users\mathi\AppData\Local\Temp\ccOm87JI.s 			page 226


 12807 3a05 9B       		.byte	0x9b
 12808 3a06 27090000 		.4byte	0x927
 12809 3a0a 1408     		.2byte	0x814
 12810 3a0c 13       		.uleb128 0x13
 12811 3a0d F7220000 		.4byte	.LASF794
 12812 3a11 38       		.byte	0x38
 12813 3a12 9D       		.byte	0x9d
 12814 3a13 27090000 		.4byte	0x927
 12815 3a17 1808     		.2byte	0x818
 12816 3a19 13       		.uleb128 0x13
 12817 3a1a E41F0000 		.4byte	.LASF795
 12818 3a1e 38       		.byte	0x38
 12819 3a1f 9F       		.byte	0x9f
 12820 3a20 27090000 		.4byte	0x927
 12821 3a24 1C08     		.2byte	0x81c
 12822 3a26 13       		.uleb128 0x13
 12823 3a27 54070000 		.4byte	.LASF796
 12824 3a2b 38       		.byte	0x38
 12825 3a2c A1       		.byte	0xa1
 12826 3a2d 27090000 		.4byte	0x927
 12827 3a31 2008     		.2byte	0x820
 12828 3a33 13       		.uleb128 0x13
 12829 3a34 3F060000 		.4byte	.LASF797
 12830 3a38 38       		.byte	0x38
 12831 3a39 A2       		.byte	0xa2
 12832 3a3a 27090000 		.4byte	0x927
 12833 3a3e 2408     		.2byte	0x824
 12834 3a40 13       		.uleb128 0x13
 12835 3a41 581C0000 		.4byte	.LASF798
 12836 3a45 38       		.byte	0x38
 12837 3a46 A3       		.byte	0xa3
 12838 3a47 27090000 		.4byte	0x927
 12839 3a4b 2808     		.2byte	0x828
 12840 3a4d 13       		.uleb128 0x13
 12841 3a4e 11100000 		.4byte	.LASF799
 12842 3a52 38       		.byte	0x38
 12843 3a53 A5       		.byte	0xa5
 12844 3a54 27090000 		.4byte	0x927
 12845 3a58 2C08     		.2byte	0x82c
 12846 3a5a 13       		.uleb128 0x13
 12847 3a5b 1A080000 		.4byte	.LASF800
 12848 3a5f 38       		.byte	0x38
 12849 3a60 A7       		.byte	0xa7
 12850 3a61 27090000 		.4byte	0x927
 12851 3a65 3008     		.2byte	0x830
 12852 3a67 13       		.uleb128 0x13
 12853 3a68 DF0E0000 		.4byte	.LASF801
 12854 3a6c 38       		.byte	0x38
 12855 3a6d A8       		.byte	0xa8
 12856 3a6e 27090000 		.4byte	0x927
 12857 3a72 3408     		.2byte	0x834
 12858 3a74 13       		.uleb128 0x13
 12859 3a75 28080000 		.4byte	.LASF802
 12860 3a79 38       		.byte	0x38
 12861 3a7a AA       		.byte	0xaa
 12862 3a7b 27090000 		.4byte	0x927
 12863 3a7f 3808     		.2byte	0x838
ARM GAS  C:\Users\mathi\AppData\Local\Temp\ccOm87JI.s 			page 227


 12864 3a81 13       		.uleb128 0x13
 12865 3a82 40080000 		.4byte	.LASF803
 12866 3a86 38       		.byte	0x38
 12867 3a87 AB       		.byte	0xab
 12868 3a88 27090000 		.4byte	0x927
 12869 3a8c 3C08     		.2byte	0x83c
 12870 3a8e 13       		.uleb128 0x13
 12871 3a8f D2080000 		.4byte	.LASF804
 12872 3a93 38       		.byte	0x38
 12873 3a94 AC       		.byte	0xac
 12874 3a95 8B3B0000 		.4byte	0x3b8b
 12875 3a99 4008     		.2byte	0x840
 12876 3a9b 13       		.uleb128 0x13
 12877 3a9c 760E0000 		.4byte	.LASF805
 12878 3aa0 38       		.byte	0x38
 12879 3aa1 AD       		.byte	0xad
 12880 3aa2 8B3B0000 		.4byte	0x3b8b
 12881 3aa6 8008     		.2byte	0x880
 12882 3aa8 13       		.uleb128 0x13
 12883 3aa9 B7120000 		.4byte	.LASF806
 12884 3aad 38       		.byte	0x38
 12885 3aae AE       		.byte	0xae
 12886 3aaf 8B3B0000 		.4byte	0x3b8b
 12887 3ab3 C008     		.2byte	0x8c0
 12888 3ab5 2D       		.uleb128 0x2d
 12889 3ab6 696500   		.ascii	"ie\000"
 12890 3ab9 38       		.byte	0x38
 12891 3aba AF       		.byte	0xaf
 12892 3abb 903B0000 		.4byte	0x3b90
 12893 3abf 0009     		.2byte	0x900
 12894 3ac1 2D       		.uleb128 0x2d
 12895 3ac2 6F6500   		.ascii	"oe\000"
 12896 3ac5 38       		.byte	0x38
 12897 3ac6 B0       		.byte	0xb0
 12898 3ac7 A03B0000 		.4byte	0x3ba0
 12899 3acb 000B     		.2byte	0xb00
 12900 3acd 13       		.uleb128 0x13
 12901 3ace C70C0000 		.4byte	.LASF807
 12902 3ad2 38       		.byte	0x38
 12903 3ad3 B1       		.byte	0xb1
 12904 3ad4 763B0000 		.4byte	0x3b76
 12905 3ad8 000D     		.2byte	0xd00
 12906 3ada 13       		.uleb128 0x13
 12907 3adb B5250000 		.4byte	.LASF808
 12908 3adf 38       		.byte	0x38
 12909 3ae0 B2       		.byte	0xb2
 12910 3ae1 27090000 		.4byte	0x927
 12911 3ae5 000E     		.2byte	0xe00
 12912 3ae7 13       		.uleb128 0x13
 12913 3ae8 66190000 		.4byte	.LASF809
 12914 3aec 38       		.byte	0x38
 12915 3aed B4       		.byte	0xb4
 12916 3aee C03B0000 		.4byte	0x3bc0
 12917 3af2 040E     		.2byte	0xe04
 12918 3af4 13       		.uleb128 0x13
 12919 3af5 D60A0000 		.4byte	.LASF306
 12920 3af9 38       		.byte	0x38
ARM GAS  C:\Users\mathi\AppData\Local\Temp\ccOm87JI.s 			page 228


 12921 3afa B5       		.byte	0xb5
 12922 3afb DC3B0000 		.4byte	0x3bdc
 12923 3aff 0010     		.2byte	0x1000
 12924 3b01 00       		.byte	0
 12925 3b02 0A       		.uleb128 0xa
 12926 3b03 27090000 		.4byte	0x927
 12927 3b07 123B0000 		.4byte	0x3b12
 12928 3b0b 0B       		.uleb128 0xb
 12929 3b0c 25000000 		.4byte	0x25
 12930 3b10 2F       		.byte	0x2f
 12931 3b11 00       		.byte	0
 12932 3b12 1A       		.uleb128 0x1a
 12933 3b13 023B0000 		.4byte	0x3b02
 12934 3b17 0A       		.uleb128 0xa
 12935 3b18 27090000 		.4byte	0x927
 12936 3b1c 273B0000 		.4byte	0x3b27
 12937 3b20 0B       		.uleb128 0xb
 12938 3b21 25000000 		.4byte	0x25
 12939 3b25 AF       		.byte	0xaf
 12940 3b26 00       		.byte	0
 12941 3b27 1A       		.uleb128 0x1a
 12942 3b28 173B0000 		.4byte	0x3b17
 12943 3b2c 0A       		.uleb128 0xa
 12944 3b2d 27090000 		.4byte	0x927
 12945 3b31 3C3B0000 		.4byte	0x3b3c
 12946 3b35 0B       		.uleb128 0xb
 12947 3b36 25000000 		.4byte	0x25
 12948 3b3a 08       		.byte	0x8
 12949 3b3b 00       		.byte	0
 12950 3b3c 1A       		.uleb128 0x1a
 12951 3b3d 2C3B0000 		.4byte	0x3b2c
 12952 3b41 0A       		.uleb128 0xa
 12953 3b42 27090000 		.4byte	0x927
 12954 3b46 513B0000 		.4byte	0x3b51
 12955 3b4a 0B       		.uleb128 0xb
 12956 3b4b 25000000 		.4byte	0x25
 12957 3b4f 2E       		.byte	0x2e
 12958 3b50 00       		.byte	0
 12959 3b51 1A       		.uleb128 0x1a
 12960 3b52 413B0000 		.4byte	0x3b41
 12961 3b56 0A       		.uleb128 0xa
 12962 3b57 32370000 		.4byte	0x3732
 12963 3b5b 663B0000 		.4byte	0x3b66
 12964 3b5f 0B       		.uleb128 0xb
 12965 3b60 25000000 		.4byte	0x25
 12966 3b64 0F       		.byte	0xf
 12967 3b65 00       		.byte	0
 12968 3b66 0A       		.uleb128 0xa
 12969 3b67 27090000 		.4byte	0x927
 12970 3b6b 763B0000 		.4byte	0x3b76
 12971 3b6f 0B       		.uleb128 0xb
 12972 3b70 25000000 		.4byte	0x25
 12973 3b74 3F       		.byte	0x3f
 12974 3b75 00       		.byte	0
 12975 3b76 1A       		.uleb128 0x1a
 12976 3b77 663B0000 		.4byte	0x3b66
 12977 3b7b 0A       		.uleb128 0xa
ARM GAS  C:\Users\mathi\AppData\Local\Temp\ccOm87JI.s 			page 229


 12978 3b7c 27090000 		.4byte	0x927
 12979 3b80 8B3B0000 		.4byte	0x3b8b
 12980 3b84 0B       		.uleb128 0xb
 12981 3b85 25000000 		.4byte	0x25
 12982 3b89 0F       		.byte	0xf
 12983 3b8a 00       		.byte	0
 12984 3b8b 1A       		.uleb128 0x1a
 12985 3b8c 7B3B0000 		.4byte	0x3b7b
 12986 3b90 0A       		.uleb128 0xa
 12987 3b91 A6370000 		.4byte	0x37a6
 12988 3b95 A03B0000 		.4byte	0x3ba0
 12989 3b99 0B       		.uleb128 0xb
 12990 3b9a 25000000 		.4byte	0x25
 12991 3b9e 0F       		.byte	0xf
 12992 3b9f 00       		.byte	0
 12993 3ba0 0A       		.uleb128 0xa
 12994 3ba1 1A380000 		.4byte	0x381a
 12995 3ba5 B03B0000 		.4byte	0x3bb0
 12996 3ba9 0B       		.uleb128 0xb
 12997 3baa 25000000 		.4byte	0x25
 12998 3bae 0F       		.byte	0xf
 12999 3baf 00       		.byte	0
 13000 3bb0 0A       		.uleb128 0xa
 13001 3bb1 27090000 		.4byte	0x927
 13002 3bb5 C03B0000 		.4byte	0x3bc0
 13003 3bb9 0B       		.uleb128 0xb
 13004 3bba 25000000 		.4byte	0x25
 13005 3bbe 7E       		.byte	0x7e
 13006 3bbf 00       		.byte	0
 13007 3bc0 1A       		.uleb128 0x1a
 13008 3bc1 B03B0000 		.4byte	0x3bb0
 13009 3bc5 0A       		.uleb128 0xa
 13010 3bc6 27090000 		.4byte	0x927
 13011 3bca DC3B0000 		.4byte	0x3bdc
 13012 3bce 0B       		.uleb128 0xb
 13013 3bcf 25000000 		.4byte	0x25
 13014 3bd3 0F       		.byte	0xf
 13015 3bd4 2E       		.uleb128 0x2e
 13016 3bd5 25000000 		.4byte	0x25
 13017 3bd9 FF03     		.2byte	0x3ff
 13018 3bdb 00       		.byte	0
 13019 3bdc 1A       		.uleb128 0x1a
 13020 3bdd C53B0000 		.4byte	0x3bc5
 13021 3be1 04       		.uleb128 0x4
 13022 3be2 B9270000 		.4byte	.LASF810
 13023 3be6 38       		.byte	0x38
 13024 3be7 B6       		.byte	0xb6
 13025 3be8 25380000 		.4byte	0x3825
 13026 3bec 0C       		.uleb128 0xc
 13027 3bed 0C       		.byte	0xc
 13028 3bee 37       		.byte	0x37
 13029 3bef C6       		.byte	0xc6
 13030 3bf0 193C0000 		.4byte	0x3c19
 13031 3bf4 0D       		.uleb128 0xd
 13032 3bf5 710A0000 		.4byte	.LASF811
 13033 3bf9 37       		.byte	0x37
 13034 3bfa C7       		.byte	0xc7
ARM GAS  C:\Users\mathi\AppData\Local\Temp\ccOm87JI.s 			page 230


 13035 3bfb 1C090000 		.4byte	0x91c
 13036 3bff 00       		.byte	0
 13037 3c00 0D       		.uleb128 0xd
 13038 3c01 980C0000 		.4byte	.LASF812
 13039 3c05 37       		.byte	0x37
 13040 3c06 C8       		.byte	0xc8
 13041 3c07 1C090000 		.4byte	0x91c
 13042 3c0b 04       		.byte	0x4
 13043 3c0c 0D       		.uleb128 0xd
 13044 3c0d 79100000 		.4byte	.LASF813
 13045 3c11 37       		.byte	0x37
 13046 3c12 C9       		.byte	0xc9
 13047 3c13 1C090000 		.4byte	0x91c
 13048 3c17 08       		.byte	0x8
 13049 3c18 00       		.byte	0
 13050 3c19 04       		.uleb128 0x4
 13051 3c1a B40C0000 		.4byte	.LASF814
 13052 3c1e 37       		.byte	0x37
 13053 3c1f CA       		.byte	0xca
 13054 3c20 EC3B0000 		.4byte	0x3bec
 13055 3c24 0F       		.uleb128 0xf
 13056 3c25 193C0000 		.4byte	0x3c19
 13057 3c29 0C       		.uleb128 0xc
 13058 3c2a 04       		.byte	0x4
 13059 3c2b 37       		.byte	0x37
 13060 3c2c DD       		.byte	0xdd
 13061 3c2d 3E3C0000 		.4byte	0x3c3e
 13062 3c31 0D       		.uleb128 0xd
 13063 3c32 AF250000 		.4byte	.LASF815
 13064 3c36 37       		.byte	0x37
 13065 3c37 E1       		.byte	0xe1
 13066 3c38 AE1C0000 		.4byte	0x1cae
 13067 3c3c 00       		.byte	0
 13068 3c3d 00       		.byte	0
 13069 3c3e 0C       		.uleb128 0xc
 13070 3c3f 04       		.byte	0x4
 13071 3c40 37       		.byte	0x37
 13072 3c41 E3       		.byte	0xe3
 13073 3c42 533C0000 		.4byte	0x3c53
 13074 3c46 0D       		.uleb128 0xd
 13075 3c47 E50A0000 		.4byte	.LASF496
 13076 3c4b 37       		.byte	0x37
 13077 3c4c E7       		.byte	0xe7
 13078 3c4d 533C0000 		.4byte	0x3c53
 13079 3c51 00       		.byte	0
 13080 3c52 00       		.byte	0
 13081 3c53 05       		.uleb128 0x5
 13082 3c54 04       		.byte	0x4
 13083 3c55 8A1C0000 		.4byte	0x1c8a
 13084 3c59 08       		.uleb128 0x8
 13085 3c5a 04       		.byte	0x4
 13086 3c5b 37       		.byte	0x37
 13087 3c5c DC       		.byte	0xdc
 13088 3c5d 783C0000 		.4byte	0x3c78
 13089 3c61 09       		.uleb128 0x9
 13090 3c62 6F210000 		.4byte	.LASF816
 13091 3c66 37       		.byte	0x37
ARM GAS  C:\Users\mathi\AppData\Local\Temp\ccOm87JI.s 			page 231


 13092 3c67 E2       		.byte	0xe2
 13093 3c68 293C0000 		.4byte	0x3c29
 13094 3c6c 09       		.uleb128 0x9
 13095 3c6d 2E200000 		.4byte	.LASF817
 13096 3c71 37       		.byte	0x37
 13097 3c72 E8       		.byte	0xe8
 13098 3c73 3E3C0000 		.4byte	0x3c3e
 13099 3c77 00       		.byte	0
 13100 3c78 0C       		.uleb128 0xc
 13101 3c79 14       		.byte	0x14
 13102 3c7a 37       		.byte	0x37
 13103 3c7b CF       		.byte	0xcf
 13104 3c7c BD3C0000 		.4byte	0x3cbd
 13105 3c80 0D       		.uleb128 0xd
 13106 3c81 27090000 		.4byte	.LASF818
 13107 3c85 37       		.byte	0x37
 13108 3c86 D3       		.byte	0xd3
 13109 3c87 951E0000 		.4byte	0x1e95
 13110 3c8b 00       		.byte	0
 13111 3c8c 0D       		.uleb128 0xd
 13112 3c8d F1130000 		.4byte	.LASF819
 13113 3c91 37       		.byte	0x37
 13114 3c92 D7       		.byte	0xd7
 13115 3c93 33000000 		.4byte	0x33
 13116 3c97 04       		.byte	0x4
 13117 3c98 0D       		.uleb128 0xd
 13118 3c99 5F0C0000 		.4byte	.LASF820
 13119 3c9d 37       		.byte	0x37
 13120 3c9e DB       		.byte	0xdb
 13121 3c9f 33000000 		.4byte	0x33
 13122 3ca3 08       		.byte	0x8
 13123 3ca4 0D       		.uleb128 0xd
 13124 3ca5 EA090000 		.4byte	.LASF542
 13125 3ca9 37       		.byte	0x37
 13126 3caa E9       		.byte	0xe9
 13127 3cab 593C0000 		.4byte	0x3c59
 13128 3caf 0C       		.byte	0xc
 13129 3cb0 0D       		.uleb128 0xd
 13130 3cb1 91100000 		.4byte	.LASF821
 13131 3cb5 37       		.byte	0x37
 13132 3cb6 ED       		.byte	0xed
 13133 3cb7 33000000 		.4byte	0x33
 13134 3cbb 10       		.byte	0x10
 13135 3cbc 00       		.byte	0
 13136 3cbd 04       		.uleb128 0x4
 13137 3cbe 9F110000 		.4byte	.LASF822
 13138 3cc2 37       		.byte	0x37
 13139 3cc3 EE       		.byte	0xee
 13140 3cc4 783C0000 		.4byte	0x3c78
 13141 3cc8 1C       		.uleb128 0x1c
 13142 3cc9 04       		.byte	0x4
 13143 3cca 37       		.byte	0x37
 13144 3ccb 0101     		.2byte	0x101
 13145 3ccd DF3C0000 		.4byte	0x3cdf
 13146 3cd1 18       		.uleb128 0x18
 13147 3cd2 D70C0000 		.4byte	.LASF823
 13148 3cd6 37       		.byte	0x37
ARM GAS  C:\Users\mathi\AppData\Local\Temp\ccOm87JI.s 			page 232


 13149 3cd7 0501     		.2byte	0x105
 13150 3cd9 791C0000 		.4byte	0x1c79
 13151 3cdd 00       		.byte	0
 13152 3cde 00       		.byte	0
 13153 3cdf 1C       		.uleb128 0x1c
 13154 3ce0 04       		.byte	0x4
 13155 3ce1 37       		.byte	0x37
 13156 3ce2 0701     		.2byte	0x107
 13157 3ce4 F63C0000 		.4byte	0x3cf6
 13158 3ce8 18       		.uleb128 0x18
 13159 3ce9 2A210000 		.4byte	.LASF497
 13160 3ced 37       		.byte	0x37
 13161 3cee 0B01     		.2byte	0x10b
 13162 3cf0 F63C0000 		.4byte	0x3cf6
 13163 3cf4 00       		.byte	0
 13164 3cf5 00       		.byte	0
 13165 3cf6 05       		.uleb128 0x5
 13166 3cf7 04       		.byte	0x4
 13167 3cf8 7F1C0000 		.4byte	0x1c7f
 13168 3cfc 1D       		.uleb128 0x1d
 13169 3cfd 04       		.byte	0x4
 13170 3cfe 37       		.byte	0x37
 13171 3cff 0001     		.2byte	0x100
 13172 3d01 1E3D0000 		.4byte	0x3d1e
 13173 3d05 1E       		.uleb128 0x1e
 13174 3d06 6F210000 		.4byte	.LASF816
 13175 3d0a 37       		.byte	0x37
 13176 3d0b 0601     		.2byte	0x106
 13177 3d0d C83C0000 		.4byte	0x3cc8
 13178 3d11 1E       		.uleb128 0x1e
 13179 3d12 2E200000 		.4byte	.LASF817
 13180 3d16 37       		.byte	0x37
 13181 3d17 0C01     		.2byte	0x10c
 13182 3d19 DF3C0000 		.4byte	0x3cdf
 13183 3d1d 00       		.byte	0
 13184 3d1e 0C       		.uleb128 0xc
 13185 3d1f 14       		.byte	0x14
 13186 3d20 37       		.byte	0x37
 13187 3d21 F3       		.byte	0xf3
 13188 3d22 653D0000 		.4byte	0x3d65
 13189 3d26 0D       		.uleb128 0xd
 13190 3d27 06070000 		.4byte	.LASF824
 13191 3d2b 37       		.byte	0x37
 13192 3d2c F7       		.byte	0xf7
 13193 3d2d 951E0000 		.4byte	0x1e95
 13194 3d31 00       		.byte	0
 13195 3d32 0D       		.uleb128 0xd
 13196 3d33 EA140000 		.4byte	.LASF825
 13197 3d37 37       		.byte	0x37
 13198 3d38 FB       		.byte	0xfb
 13199 3d39 33000000 		.4byte	0x33
 13200 3d3d 04       		.byte	0x4
 13201 3d3e 0D       		.uleb128 0xd
 13202 3d3f C5090000 		.4byte	.LASF826
 13203 3d43 37       		.byte	0x37
 13204 3d44 FF       		.byte	0xff
 13205 3d45 33000000 		.4byte	0x33
ARM GAS  C:\Users\mathi\AppData\Local\Temp\ccOm87JI.s 			page 233


 13206 3d49 08       		.byte	0x8
 13207 3d4a 18       		.uleb128 0x18
 13208 3d4b EA090000 		.4byte	.LASF542
 13209 3d4f 37       		.byte	0x37
 13210 3d50 0D01     		.2byte	0x10d
 13211 3d52 FC3C0000 		.4byte	0x3cfc
 13212 3d56 0C       		.byte	0xc
 13213 3d57 18       		.uleb128 0x18
 13214 3d58 91100000 		.4byte	.LASF821
 13215 3d5c 37       		.byte	0x37
 13216 3d5d 1101     		.2byte	0x111
 13217 3d5f 33000000 		.4byte	0x33
 13218 3d63 10       		.byte	0x10
 13219 3d64 00       		.byte	0
 13220 3d65 07       		.uleb128 0x7
 13221 3d66 411F0000 		.4byte	.LASF827
 13222 3d6a 37       		.byte	0x37
 13223 3d6b 1201     		.2byte	0x112
 13224 3d6d 1E3D0000 		.4byte	0x3d1e
 13225 3d71 1C       		.uleb128 0x1c
 13226 3d72 24       		.byte	0x24
 13227 3d73 37       		.byte	0x37
 13228 3d74 1801     		.2byte	0x118
 13229 3d76 FD3D0000 		.4byte	0x3dfd
 13230 3d7a 18       		.uleb128 0x18
 13231 3d7b 33190000 		.4byte	.LASF828
 13232 3d7f 37       		.byte	0x37
 13233 3d80 1C01     		.2byte	0x11c
 13234 3d82 1C090000 		.4byte	0x91c
 13235 3d86 00       		.byte	0
 13236 3d87 18       		.uleb128 0x18
 13237 3d88 B70A0000 		.4byte	.LASF829
 13238 3d8c 37       		.byte	0x37
 13239 3d8d 2701     		.2byte	0x127
 13240 3d8f 2E360000 		.4byte	0x362e
 13241 3d93 04       		.byte	0x4
 13242 3d94 18       		.uleb128 0x18
 13243 3d95 2E1A0000 		.4byte	.LASF830
 13244 3d99 37       		.byte	0x37
 13245 3d9a 2D01     		.2byte	0x12d
 13246 3d9c 2E360000 		.4byte	0x362e
 13247 3da0 08       		.byte	0x8
 13248 3da1 18       		.uleb128 0x18
 13249 3da2 540D0000 		.4byte	.LASF831
 13250 3da6 37       		.byte	0x37
 13251 3da7 3301     		.2byte	0x133
 13252 3da9 2E360000 		.4byte	0x362e
 13253 3dad 0C       		.byte	0xc
 13254 3dae 18       		.uleb128 0x18
 13255 3daf 0F280000 		.4byte	.LASF832
 13256 3db3 37       		.byte	0x37
 13257 3db4 3901     		.2byte	0x139
 13258 3db6 01090000 		.4byte	0x901
 13259 3dba 10       		.byte	0x10
 13260 3dbb 18       		.uleb128 0x18
 13261 3dbc C10D0000 		.4byte	.LASF833
 13262 3dc0 37       		.byte	0x37
ARM GAS  C:\Users\mathi\AppData\Local\Temp\ccOm87JI.s 			page 234


 13263 3dc1 3F01     		.2byte	0x13f
 13264 3dc3 01090000 		.4byte	0x901
 13265 3dc7 12       		.byte	0x12
 13266 3dc8 18       		.uleb128 0x18
 13267 3dc9 A4260000 		.4byte	.LASF834
 13268 3dcd 37       		.byte	0x37
 13269 3dce 4401     		.2byte	0x144
 13270 3dd0 FD3D0000 		.4byte	0x3dfd
 13271 3dd4 14       		.byte	0x14
 13272 3dd5 18       		.uleb128 0x18
 13273 3dd6 4D0F0000 		.4byte	.LASF835
 13274 3dda 37       		.byte	0x37
 13275 3ddb 4901     		.2byte	0x149
 13276 3ddd 033E0000 		.4byte	0x3e03
 13277 3de1 18       		.byte	0x18
 13278 3de2 18       		.uleb128 0x18
 13279 3de3 43130000 		.4byte	.LASF836
 13280 3de7 37       		.byte	0x37
 13281 3de8 5001     		.2byte	0x150
 13282 3dea 01090000 		.4byte	0x901
 13283 3dee 1C       		.byte	0x1c
 13284 3def 18       		.uleb128 0x18
 13285 3df0 F7250000 		.4byte	.LASF837
 13286 3df4 37       		.byte	0x37
 13287 3df5 5601     		.2byte	0x156
 13288 3df7 791C0000 		.4byte	0x1c79
 13289 3dfb 20       		.byte	0x20
 13290 3dfc 00       		.byte	0
 13291 3dfd 05       		.uleb128 0x5
 13292 3dfe 04       		.byte	0x4
 13293 3dff BD3C0000 		.4byte	0x3cbd
 13294 3e03 05       		.uleb128 0x5
 13295 3e04 04       		.byte	0x4
 13296 3e05 653D0000 		.4byte	0x3d65
 13297 3e09 07       		.uleb128 0x7
 13298 3e0a FA200000 		.4byte	.LASF838
 13299 3e0e 37       		.byte	0x37
 13300 3e0f 5701     		.2byte	0x157
 13301 3e11 713D0000 		.4byte	0x3d71
 13302 3e15 0F       		.uleb128 0xf
 13303 3e16 093E0000 		.4byte	0x3e09
 13304 3e1a 1C       		.uleb128 0x1c
 13305 3e1b 10       		.byte	0x10
 13306 3e1c 37       		.byte	0x37
 13307 3e1d 5C01     		.2byte	0x15c
 13308 3e1f 583E0000 		.4byte	0x3e58
 13309 3e23 18       		.uleb128 0x18
 13310 3e24 0B060000 		.4byte	.LASF839
 13311 3e28 37       		.byte	0x37
 13312 3e29 6101     		.2byte	0x161
 13313 3e2b 50360000 		.4byte	0x3650
 13314 3e2f 00       		.byte	0
 13315 3e30 18       		.uleb128 0x18
 13316 3e31 38250000 		.4byte	.LASF840
 13317 3e35 37       		.byte	0x37
 13318 3e36 6601     		.2byte	0x166
 13319 3e38 93360000 		.4byte	0x3693
ARM GAS  C:\Users\mathi\AppData\Local\Temp\ccOm87JI.s 			page 235


 13320 3e3c 04       		.byte	0x4
 13321 3e3d 18       		.uleb128 0x18
 13322 3e3e C3130000 		.4byte	.LASF841
 13323 3e42 37       		.byte	0x37
 13324 3e43 6C01     		.2byte	0x16c
 13325 3e45 72360000 		.4byte	0x3672
 13326 3e49 08       		.byte	0x8
 13327 3e4a 18       		.uleb128 0x18
 13328 3e4b 18030000 		.4byte	.LASF842
 13329 3e4f 37       		.byte	0x37
 13330 3e50 7001     		.2byte	0x170
 13331 3e52 0B360000 		.4byte	0x360b
 13332 3e56 0C       		.byte	0xc
 13333 3e57 00       		.byte	0
 13334 3e58 07       		.uleb128 0x7
 13335 3e59 C0120000 		.4byte	.LASF843
 13336 3e5d 37       		.byte	0x37
 13337 3e5e 7201     		.2byte	0x172
 13338 3e60 1A3E0000 		.4byte	0x3e1a
 13339 3e64 0F       		.uleb128 0xf
 13340 3e65 583E0000 		.4byte	0x3e58
 13341 3e69 05       		.uleb128 0x5
 13342 3e6a 04       		.byte	0x4
 13343 3e6b 643E0000 		.4byte	0x3e64
 13344 3e6f 0A       		.uleb128 0xa
 13345 3e70 7F3E0000 		.4byte	0x3e7f
 13346 3e74 7F3E0000 		.4byte	0x3e7f
 13347 3e78 0B       		.uleb128 0xb
 13348 3e79 25000000 		.4byte	0x25
 13349 3e7d 03       		.byte	0x3
 13350 3e7e 00       		.byte	0
 13351 3e7f 05       		.uleb128 0x5
 13352 3e80 04       		.byte	0x4
 13353 3e81 153E0000 		.4byte	0x3e15
 13354 3e85 0A       		.uleb128 0xa
 13355 3e86 5D010000 		.4byte	0x15d
 13356 3e8a 953E0000 		.4byte	0x3e95
 13357 3e8e 0B       		.uleb128 0xb
 13358 3e8f 25000000 		.4byte	0x25
 13359 3e93 02       		.byte	0x2
 13360 3e94 00       		.byte	0
 13361 3e95 05       		.uleb128 0x5
 13362 3e96 04       		.byte	0x4
 13363 3e97 E13B0000 		.4byte	0x3be1
 13364 3e9b 05       		.uleb128 0x5
 13365 3e9c 04       		.byte	0x4
 13366 3e9d 243C0000 		.4byte	0x3c24
 13367 3ea1 0A       		.uleb128 0xa
 13368 3ea2 9C160000 		.4byte	0x169c
 13369 3ea6 B13E0000 		.4byte	0x3eb1
 13370 3eaa 0B       		.uleb128 0xb
 13371 3eab 25000000 		.4byte	0x25
 13372 3eaf 3E       		.byte	0x3e
 13373 3eb0 00       		.byte	0
 13374 3eb1 20       		.uleb128 0x20
 13375 3eb2 A1000000 		.4byte	.LASF844
 13376 3eb6 37       		.byte	0x37
ARM GAS  C:\Users\mathi\AppData\Local\Temp\ccOm87JI.s 			page 236


 13377 3eb7 0602     		.2byte	0x206
 13378 3eb9 AA330000 		.4byte	0x33aa
 13379 3ebd 2F       		.uleb128 0x2f
 13380 3ebe B13E0000 		.4byte	0x3eb1
 13381 3ec2 01       		.byte	0x1
 13382 3ec3 2E       		.byte	0x2e
 13383 3ec4 05       		.uleb128 0x5
 13384 3ec5 03       		.byte	0x3
 13385 3ec6 00000000 		.4byte	USBD1
 13386 3eca 08       		.uleb128 0x8
 13387 3ecb 14       		.byte	0x14
 13388 3ecc 01       		.byte	0x1
 13389 3ecd 3F       		.byte	0x3f
 13390 3ece E83E0000 		.4byte	0x3ee8
 13391 3ed2 29       		.uleb128 0x29
 13392 3ed3 696E00   		.ascii	"in\000"
 13393 3ed6 01       		.byte	0x1
 13394 3ed7 43       		.byte	0x43
 13395 3ed8 BD3C0000 		.4byte	0x3cbd
 13396 3edc 29       		.uleb128 0x29
 13397 3edd 6F757400 		.ascii	"out\000"
 13398 3ee1 01       		.byte	0x1
 13399 3ee2 47       		.byte	0x47
 13400 3ee3 653D0000 		.4byte	0x3d65
 13401 3ee7 00       		.byte	0
 13402 3ee8 30       		.uleb128 0x30
 13403 3ee9 F51C0000 		.4byte	.LASF845
 13404 3eed 01       		.byte	0x1
 13405 3eee 48       		.byte	0x48
 13406 3eef CA3E0000 		.4byte	0x3eca
 13407 3ef3 05       		.uleb128 0x5
 13408 3ef4 03       		.byte	0x3
 13409 3ef5 00000000 		.4byte	ep0_state
 13410 3ef9 30       		.uleb128 0x30
 13411 3efa 350B0000 		.4byte	.LASF846
 13412 3efe 01       		.byte	0x1
 13413 3eff 4D       		.byte	0x4d
 13414 3f00 B0230000 		.4byte	0x23b0
 13415 3f04 05       		.uleb128 0x5
 13416 3f05 03       		.byte	0x3
 13417 3f06 00000000 		.4byte	ep0setup_buffer
 13418 3f0a 30       		.uleb128 0x30
 13419 3f0b F5030000 		.4byte	.LASF847
 13420 3f0f 01       		.byte	0x1
 13421 3f10 52       		.byte	0x52
 13422 3f11 153E0000 		.4byte	0x3e15
 13423 3f15 05       		.uleb128 0x5
 13424 3f16 03       		.byte	0x3
 13425 3f17 00000000 		.4byte	ep0config
 13426 3f1b 30       		.uleb128 0x30
 13427 3f1c 9A070000 		.4byte	.LASF848
 13428 3f20 01       		.byte	0x1
 13429 3f21 60       		.byte	0x60
 13430 3f22 243C0000 		.4byte	0x3c24
 13431 3f26 05       		.uleb128 0x5
 13432 3f27 03       		.byte	0x3
 13433 3f28 00000000 		.4byte	fsparams
ARM GAS  C:\Users\mathi\AppData\Local\Temp\ccOm87JI.s 			page 237


 13434 3f2c 31       		.uleb128 0x31
 13435 3f2d 431C0000 		.4byte	.LASF852
 13436 3f31 01       		.byte	0x1
 13437 3f32 0E05     		.2byte	0x50e
 13438 3f34 00000000 		.4byte	.LFB292
 13439 3f38 24050000 		.4byte	.LFE292-.LFB292
 13440 3f3c 01       		.uleb128 0x1
 13441 3f3d 9C       		.byte	0x9c
 13442 3f3e 5D480000 		.4byte	0x485d
 13443 3f42 32       		.uleb128 0x32
 13444 3f43 7000     		.ascii	"p\000"
 13445 3f45 01       		.byte	0x1
 13446 3f46 0E05     		.2byte	0x50e
 13447 3f48 5D010000 		.4byte	0x15d
 13448 3f4c 00000000 		.4byte	.LLST0
 13449 3f50 33       		.uleb128 0x33
 13450 3f51 7F240000 		.4byte	.LASF849
 13451 3f55 01       		.byte	0x1
 13452 3f56 0F05     		.2byte	0x50f
 13453 3f58 28360000 		.4byte	0x3628
 13454 3f5c 29000000 		.4byte	.LLST1
 13455 3f60 33       		.uleb128 0x33
 13456 3f61 631D0000 		.4byte	.LASF850
 13457 3f65 01       		.byte	0x1
 13458 3f66 1005     		.2byte	0x510
 13459 3f68 953E0000 		.4byte	0x3e95
 13460 3f6c 52000000 		.4byte	.LLST2
 13461 3f70 34       		.uleb128 0x34
 13462 3f71 30000000 		.4byte	.LBB435
 13463 3f75 F4040000 		.4byte	.LBE435-.LBB435
 13464 3f79 DF470000 		.4byte	0x47df
 13465 3f7d 35       		.uleb128 0x35
 13466 3f7e 657000   		.ascii	"ep\000"
 13467 3f81 01       		.byte	0x1
 13468 3f82 1705     		.2byte	0x517
 13469 3f84 E1340000 		.4byte	0x34e1
 13470 3f88 65000000 		.4byte	.LLST4
 13471 3f8c 33       		.uleb128 0x33
 13472 3f8d 2B1B0000 		.4byte	.LASF851
 13473 3f91 01       		.byte	0x1
 13474 3f92 1805     		.2byte	0x518
 13475 3f94 1C090000 		.4byte	0x91c
 13476 3f98 84000000 		.4byte	.LLST5
 13477 3f9c 34       		.uleb128 0x34
 13478 3f9d 88020000 		.4byte	.LBB495
 13479 3fa1 9C020000 		.4byte	.LBE495-.LBB495
 13480 3fa5 26440000 		.4byte	0x4426
 13481 3fa9 36       		.uleb128 0x36
 13482 3faa F5080000 		.4byte	.LASF860
 13483 3fae 01       		.byte	0x1
 13484 3faf 2C05     		.2byte	0x52c
 13485 3fb1 951E0000 		.4byte	0x1e95
 13486 3fb5 37       		.uleb128 0x37
 13487 3fb6 0D6B0000 		.4byte	0x6b0d
 13488 3fba 88020000 		.4byte	.LBB496
 13489 3fbe 0E000000 		.4byte	.LBE496-.LBB496
 13490 3fc2 01       		.byte	0x1
ARM GAS  C:\Users\mathi\AppData\Local\Temp\ccOm87JI.s 			page 238


 13491 3fc3 2E05     		.2byte	0x52e
 13492 3fc5 1C400000 		.4byte	0x401c
 13493 3fc9 38       		.uleb128 0x38
 13494 3fca 986B0000 		.4byte	0x6b98
 13495 3fce 88020000 		.4byte	.LBB497
 13496 3fd2 0E000000 		.4byte	.LBE497-.LBB497
 13497 3fd6 05       		.byte	0x5
 13498 3fd7 BF01     		.2byte	0x1bf
 13499 3fd9 37       		.uleb128 0x37
 13500 3fda BC6B0000 		.4byte	0x6bbc
 13501 3fde 88020000 		.4byte	.LBB499
 13502 3fe2 06000000 		.4byte	.LBE499-.LBB499
 13503 3fe6 04       		.byte	0x4
 13504 3fe7 5C01     		.2byte	0x15c
 13505 3fe9 08400000 		.4byte	0x4008
 13506 3fed 38       		.uleb128 0x38
 13507 3fee C56B0000 		.4byte	0x6bc5
 13508 3ff2 88020000 		.4byte	.LBB500
 13509 3ff6 06000000 		.4byte	.LBE500-.LBB500
 13510 3ffa 14       		.byte	0x14
 13511 3ffb BF01     		.2byte	0x1bf
 13512 3ffd 39       		.uleb128 0x39
 13513 3ffe D26B0000 		.4byte	0x6bd2
 13514 4002 AD000000 		.4byte	.LLST34
 13515 4006 00       		.byte	0
 13516 4007 00       		.byte	0
 13517 4008 3A       		.uleb128 0x3a
 13518 4009 92020000 		.4byte	.LVL79
 13519 400d C96C0000 		.4byte	0x6cc9
 13520 4011 3A       		.uleb128 0x3a
 13521 4012 96020000 		.4byte	.LVL80
 13522 4016 D46C0000 		.4byte	0x6cd4
 13523 401a 00       		.byte	0
 13524 401b 00       		.byte	0
 13525 401c 37       		.uleb128 0x37
 13526 401d 046B0000 		.4byte	0x6b04
 13527 4021 AE020000 		.4byte	.LBB502
 13528 4025 2C000000 		.4byte	.LBE502-.LBB502
 13529 4029 01       		.byte	0x1
 13530 402a 3805     		.2byte	0x538
 13531 402c A5400000 		.4byte	0x40a5
 13532 4030 38       		.uleb128 0x38
 13533 4031 7D6B0000 		.4byte	0x6b7d
 13534 4035 AE020000 		.4byte	.LBB503
 13535 4039 2C000000 		.4byte	.LBE503-.LBB503
 13536 403d 05       		.byte	0x5
 13537 403e CA01     		.2byte	0x1ca
 13538 4040 3B       		.uleb128 0x3b
 13539 4041 AE020000 		.4byte	.LBB504
 13540 4045 2C000000 		.4byte	.LBE504-.LBB504
 13541 4049 3C       		.uleb128 0x3c
 13542 404a 8A6B0000 		.4byte	0x6b8a
 13543 404e 37       		.uleb128 0x37
 13544 404f B36B0000 		.4byte	0x6bb3
 13545 4053 D0020000 		.4byte	.LBB505
 13546 4057 0A000000 		.4byte	.LBE505-.LBB505
 13547 405b 04       		.byte	0x4
ARM GAS  C:\Users\mathi\AppData\Local\Temp\ccOm87JI.s 			page 239


 13548 405c 7301     		.2byte	0x173
 13549 405e 7D400000 		.4byte	0x407d
 13550 4062 38       		.uleb128 0x38
 13551 4063 C56B0000 		.4byte	0x6bc5
 13552 4067 D0020000 		.4byte	.LBB506
 13553 406b 0A000000 		.4byte	.LBE506-.LBB506
 13554 406f 14       		.byte	0x14
 13555 4070 CD01     		.2byte	0x1cd
 13556 4072 39       		.uleb128 0x39
 13557 4073 D26B0000 		.4byte	0x6bd2
 13558 4077 C2000000 		.4byte	.LLST35
 13559 407b 00       		.byte	0
 13560 407c 00       		.byte	0
 13561 407d 3A       		.uleb128 0x3a
 13562 407e B2020000 		.4byte	.LVL81
 13563 4082 DF6C0000 		.4byte	0x6cdf
 13564 4086 3A       		.uleb128 0x3a
 13565 4087 B6020000 		.4byte	.LVL82
 13566 408b EA6C0000 		.4byte	0x6cea
 13567 408f 3D       		.uleb128 0x3d
 13568 4090 D0020000 		.4byte	.LVL83
 13569 4094 F56C0000 		.4byte	0x6cf5
 13570 4098 3E       		.uleb128 0x3e
 13571 4099 01       		.uleb128 0x1
 13572 409a 50       		.byte	0x50
 13573 409b 05       		.uleb128 0x5
 13574 409c 03       		.byte	0x3
 13575 409d 00000000 		.4byte	.LANCHOR0
 13576 40a1 00       		.byte	0
 13577 40a2 00       		.byte	0
 13578 40a3 00       		.byte	0
 13579 40a4 00       		.byte	0
 13580 40a5 3F       		.uleb128 0x3f
 13581 40a6 0F670000 		.4byte	0x670f
 13582 40aa DA020000 		.4byte	.LBB508
 13583 40ae F0000000 		.4byte	.Ldebug_ranges0+0xf0
 13584 40b2 01       		.byte	0x1
 13585 40b3 3A05     		.2byte	0x53a
 13586 40b5 15430000 		.4byte	0x4315
 13587 40b9 40       		.uleb128 0x40
 13588 40ba 2C670000 		.4byte	0x672c
 13589 40be 40       		.uleb128 0x40
 13590 40bf 20670000 		.4byte	0x6720
 13591 40c3 41       		.uleb128 0x41
 13592 40c4 37670000 		.4byte	0x6737
 13593 40c8 F0000000 		.4byte	.Ldebug_ranges0+0xf0
 13594 40cc 42       		.uleb128 0x42
 13595 40cd 38670000 		.4byte	0x6738
 13596 40d1 D6000000 		.4byte	.LLST36
 13597 40d5 3F       		.uleb128 0x3f
 13598 40d6 80680000 		.4byte	0x6880
 13599 40da 2C030000 		.4byte	.LBB510
 13600 40de 08010000 		.4byte	.Ldebug_ranges0+0x108
 13601 40e2 01       		.byte	0x1
 13602 40e3 FB01     		.2byte	0x1fb
 13603 40e5 C3420000 		.4byte	0x42c3
 13604 40e9 39       		.uleb128 0x39
ARM GAS  C:\Users\mathi\AppData\Local\Temp\ccOm87JI.s 			page 240


 13605 40ea A5680000 		.4byte	0x68a5
 13606 40ee 15010000 		.4byte	.LLST37
 13607 40f2 39       		.uleb128 0x39
 13608 40f3 99680000 		.4byte	0x6899
 13609 40f7 3E010000 		.4byte	.LLST38
 13610 40fb 40       		.uleb128 0x40
 13611 40fc 8D680000 		.4byte	0x688d
 13612 4100 43       		.uleb128 0x43
 13613 4101 08010000 		.4byte	.Ldebug_ranges0+0x108
 13614 4105 42       		.uleb128 0x42
 13615 4106 AF680000 		.4byte	0x68af
 13616 410a 52010000 		.4byte	.LLST39
 13617 410e 44       		.uleb128 0x44
 13618 410f BB680000 		.4byte	0x68bb
 13619 4113 28010000 		.4byte	.Ldebug_ranges0+0x128
 13620 4117 7B410000 		.4byte	0x417b
 13621 411b 42       		.uleb128 0x42
 13622 411c BC680000 		.4byte	0x68bc
 13623 4120 C4010000 		.4byte	.LLST40
 13624 4124 42       		.uleb128 0x42
 13625 4125 C6680000 		.4byte	0x68c6
 13626 4129 EE010000 		.4byte	.LLST41
 13627 412d 42       		.uleb128 0x42
 13628 412e D0680000 		.4byte	0x68d0
 13629 4132 32020000 		.4byte	.LLST42
 13630 4136 41       		.uleb128 0x41
 13631 4137 DB680000 		.4byte	0x68db
 13632 413b 48010000 		.4byte	.Ldebug_ranges0+0x148
 13633 413f 42       		.uleb128 0x42
 13634 4140 DC680000 		.4byte	0x68dc
 13635 4144 6A020000 		.4byte	.LLST43
 13636 4148 42       		.uleb128 0x42
 13637 4149 E8680000 		.4byte	0x68e8
 13638 414d 93020000 		.4byte	.LLST44
 13639 4151 45       		.uleb128 0x45
 13640 4152 23690000 		.4byte	0x6923
 13641 4156 4E030000 		.4byte	.LBB514
 13642 415a 60010000 		.4byte	.Ldebug_ranges0+0x160
 13643 415e 01       		.byte	0x1
 13644 415f 1B01     		.2byte	0x11b
 13645 4161 39       		.uleb128 0x39
 13646 4162 49690000 		.4byte	0x6949
 13647 4166 BF020000 		.4byte	.LLST45
 13648 416a 39       		.uleb128 0x39
 13649 416b 3E690000 		.4byte	0x693e
 13650 416f DD020000 		.4byte	.LLST46
 13651 4173 40       		.uleb128 0x40
 13652 4174 33690000 		.4byte	0x6933
 13653 4178 00       		.byte	0
 13654 4179 00       		.byte	0
 13655 417a 00       		.byte	0
 13656 417b 37       		.uleb128 0x37
 13657 417c 0D6B0000 		.4byte	0x6b0d
 13658 4180 70030000 		.4byte	.LBB519
 13659 4184 0E000000 		.4byte	.LBE519-.LBB519
 13660 4188 01       		.byte	0x1
 13661 4189 3501     		.2byte	0x135
ARM GAS  C:\Users\mathi\AppData\Local\Temp\ccOm87JI.s 			page 241


 13662 418b E2410000 		.4byte	0x41e2
 13663 418f 38       		.uleb128 0x38
 13664 4190 986B0000 		.4byte	0x6b98
 13665 4194 70030000 		.4byte	.LBB520
 13666 4198 0E000000 		.4byte	.LBE520-.LBB520
 13667 419c 05       		.byte	0x5
 13668 419d BF01     		.2byte	0x1bf
 13669 419f 37       		.uleb128 0x37
 13670 41a0 BC6B0000 		.4byte	0x6bbc
 13671 41a4 70030000 		.4byte	.LBB522
 13672 41a8 06000000 		.4byte	.LBE522-.LBB522
 13673 41ac 04       		.byte	0x4
 13674 41ad 5C01     		.2byte	0x15c
 13675 41af CE410000 		.4byte	0x41ce
 13676 41b3 38       		.uleb128 0x38
 13677 41b4 C56B0000 		.4byte	0x6bc5
 13678 41b8 70030000 		.4byte	.LBB523
 13679 41bc 06000000 		.4byte	.LBE523-.LBB523
 13680 41c0 14       		.byte	0x14
 13681 41c1 BF01     		.2byte	0x1bf
 13682 41c3 39       		.uleb128 0x39
 13683 41c4 D26B0000 		.4byte	0x6bd2
 13684 41c8 08030000 		.4byte	.LLST47
 13685 41cc 00       		.byte	0
 13686 41cd 00       		.byte	0
 13687 41ce 3A       		.uleb128 0x3a
 13688 41cf 7A030000 		.4byte	.LVL100
 13689 41d3 C96C0000 		.4byte	0x6cc9
 13690 41d7 3A       		.uleb128 0x3a
 13691 41d8 7E030000 		.4byte	.LVL101
 13692 41dc D46C0000 		.4byte	0x6cd4
 13693 41e0 00       		.byte	0
 13694 41e1 00       		.byte	0
 13695 41e2 37       		.uleb128 0x37
 13696 41e3 5F6A0000 		.4byte	0x6a5f
 13697 41e7 84030000 		.4byte	.LBB525
 13698 41eb 08000000 		.4byte	.LBE525-.LBB525
 13699 41ef 01       		.byte	0x1
 13700 41f0 3701     		.2byte	0x137
 13701 41f2 1E420000 		.4byte	0x421e
 13702 41f6 39       		.uleb128 0x39
 13703 41f7 786A0000 		.4byte	0x6a78
 13704 41fb 1D030000 		.4byte	.LLST48
 13705 41ff 39       		.uleb128 0x39
 13706 4200 6C6A0000 		.4byte	0x6a6c
 13707 4204 31030000 		.4byte	.LLST49
 13708 4208 3D       		.uleb128 0x3d
 13709 4209 8C030000 		.4byte	.LVL103
 13710 420d 016D0000 		.4byte	0x6d01
 13711 4211 3E       		.uleb128 0x3e
 13712 4212 01       		.uleb128 0x1
 13713 4213 50       		.byte	0x50
 13714 4214 02       		.uleb128 0x2
 13715 4215 74       		.byte	0x74
 13716 4216 00       		.sleb128 0
 13717 4217 3E       		.uleb128 0x3e
 13718 4218 01       		.uleb128 0x1
ARM GAS  C:\Users\mathi\AppData\Local\Temp\ccOm87JI.s 			page 242


 13719 4219 51       		.byte	0x51
 13720 421a 01       		.uleb128 0x1
 13721 421b 30       		.byte	0x30
 13722 421c 00       		.byte	0
 13723 421d 00       		.byte	0
 13724 421e 37       		.uleb128 0x37
 13725 421f CF6A0000 		.4byte	0x6acf
 13726 4223 8C030000 		.4byte	.LBB527
 13727 4227 04000000 		.4byte	.LBE527-.LBB527
 13728 422b 01       		.byte	0x1
 13729 422c 3801     		.2byte	0x138
 13730 422e 3C420000 		.4byte	0x423c
 13731 4232 3A       		.uleb128 0x3a
 13732 4233 90030000 		.4byte	.LVL104
 13733 4237 0C6D0000 		.4byte	0x6d0c
 13734 423b 00       		.byte	0
 13735 423c 38       		.uleb128 0x38
 13736 423d 046B0000 		.4byte	0x6b04
 13737 4241 90030000 		.4byte	.LBB529
 13738 4245 28000000 		.4byte	.LBE529-.LBB529
 13739 4249 01       		.byte	0x1
 13740 424a 3901     		.2byte	0x139
 13741 424c 38       		.uleb128 0x38
 13742 424d 7D6B0000 		.4byte	0x6b7d
 13743 4251 90030000 		.4byte	.LBB530
 13744 4255 28000000 		.4byte	.LBE530-.LBB530
 13745 4259 05       		.byte	0x5
 13746 425a CA01     		.2byte	0x1ca
 13747 425c 3B       		.uleb128 0x3b
 13748 425d 90030000 		.4byte	.LBB531
 13749 4261 28000000 		.4byte	.LBE531-.LBB531
 13750 4265 3C       		.uleb128 0x3c
 13751 4266 8A6B0000 		.4byte	0x6b8a
 13752 426a 37       		.uleb128 0x37
 13753 426b B36B0000 		.4byte	0x6bb3
 13754 426f B2030000 		.4byte	.LBB532
 13755 4273 06000000 		.4byte	.LBE532-.LBB532
 13756 4277 04       		.byte	0x4
 13757 4278 7301     		.2byte	0x173
 13758 427a 99420000 		.4byte	0x4299
 13759 427e 38       		.uleb128 0x38
 13760 427f C56B0000 		.4byte	0x6bc5
 13761 4283 B2030000 		.4byte	.LBB533
 13762 4287 06000000 		.4byte	.LBE533-.LBB533
 13763 428b 14       		.byte	0x14
 13764 428c CD01     		.2byte	0x1cd
 13765 428e 39       		.uleb128 0x39
 13766 428f D26B0000 		.4byte	0x6bd2
 13767 4293 44030000 		.4byte	.LLST50
 13768 4297 00       		.byte	0
 13769 4298 00       		.byte	0
 13770 4299 3A       		.uleb128 0x3a
 13771 429a 94030000 		.4byte	.LVL105
 13772 429e DF6C0000 		.4byte	0x6cdf
 13773 42a2 3A       		.uleb128 0x3a
 13774 42a3 98030000 		.4byte	.LVL106
 13775 42a7 EA6C0000 		.4byte	0x6cea
ARM GAS  C:\Users\mathi\AppData\Local\Temp\ccOm87JI.s 			page 243


 13776 42ab 3D       		.uleb128 0x3d
 13777 42ac B2030000 		.4byte	.LVL107
 13778 42b0 F56C0000 		.4byte	0x6cf5
 13779 42b4 3E       		.uleb128 0x3e
 13780 42b5 01       		.uleb128 0x1
 13781 42b6 50       		.byte	0x50
 13782 42b7 05       		.uleb128 0x5
 13783 42b8 03       		.byte	0x3
 13784 42b9 00000000 		.4byte	.LANCHOR0
 13785 42bd 00       		.byte	0
 13786 42be 00       		.byte	0
 13787 42bf 00       		.byte	0
 13788 42c0 00       		.byte	0
 13789 42c1 00       		.byte	0
 13790 42c2 00       		.byte	0
 13791 42c3 38       		.uleb128 0x38
 13792 42c4 F7680000 		.4byte	0x68f7
 13793 42c8 AE040000 		.4byte	.LBB540
 13794 42cc 1A000000 		.4byte	.LBE540-.LBB540
 13795 42d0 01       		.byte	0x1
 13796 42d1 0102     		.2byte	0x201
 13797 42d3 39       		.uleb128 0x39
 13798 42d4 19690000 		.4byte	0x6919
 13799 42d8 58030000 		.4byte	.LLST51
 13800 42dc 39       		.uleb128 0x39
 13801 42dd 0E690000 		.4byte	0x690e
 13802 42e1 6B030000 		.4byte	.LLST52
 13803 42e5 40       		.uleb128 0x40
 13804 42e6 03690000 		.4byte	0x6903
 13805 42ea 38       		.uleb128 0x38
 13806 42eb 23690000 		.4byte	0x6923
 13807 42ef B0040000 		.4byte	.LBB542
 13808 42f3 18000000 		.4byte	.LBE542-.LBB542
 13809 42f7 01       		.byte	0x1
 13810 42f8 0001     		.2byte	0x100
 13811 42fa 39       		.uleb128 0x39
 13812 42fb 49690000 		.4byte	0x6949
 13813 42ff 7F030000 		.4byte	.LLST53
 13814 4303 39       		.uleb128 0x39
 13815 4304 3E690000 		.4byte	0x693e
 13816 4308 A1030000 		.4byte	.LLST54
 13817 430c 40       		.uleb128 0x40
 13818 430d 33690000 		.4byte	0x6933
 13819 4311 00       		.byte	0
 13820 4312 00       		.byte	0
 13821 4313 00       		.byte	0
 13822 4314 00       		.byte	0
 13823 4315 3F       		.uleb128 0x3f
 13824 4316 0D6B0000 		.4byte	0x6b0d
 13825 431a F8030000 		.4byte	.LBB546
 13826 431e 78010000 		.4byte	.Ldebug_ranges0+0x178
 13827 4322 01       		.byte	0x1
 13828 4323 3C05     		.2byte	0x53c
 13829 4325 A0430000 		.4byte	0x43a0
 13830 4329 45       		.uleb128 0x45
 13831 432a 986B0000 		.4byte	0x6b98
 13832 432e F8030000 		.4byte	.LBB547
ARM GAS  C:\Users\mathi\AppData\Local\Temp\ccOm87JI.s 			page 244


 13833 4332 78010000 		.4byte	.Ldebug_ranges0+0x178
 13834 4336 05       		.byte	0x5
 13835 4337 BF01     		.2byte	0x1bf
 13836 4339 3F       		.uleb128 0x3f
 13837 433a BC6B0000 		.4byte	0x6bbc
 13838 433e F8030000 		.4byte	.LBB549
 13839 4342 98010000 		.4byte	.Ldebug_ranges0+0x198
 13840 4346 04       		.byte	0x4
 13841 4347 5C01     		.2byte	0x15c
 13842 4349 68430000 		.4byte	0x4368
 13843 434d 45       		.uleb128 0x45
 13844 434e C56B0000 		.4byte	0x6bc5
 13845 4352 F8030000 		.4byte	.LBB550
 13846 4356 98010000 		.4byte	.Ldebug_ranges0+0x198
 13847 435a 14       		.byte	0x14
 13848 435b BF01     		.2byte	0x1bf
 13849 435d 39       		.uleb128 0x39
 13850 435e D26B0000 		.4byte	0x6bd2
 13851 4362 D8030000 		.4byte	.LLST55
 13852 4366 00       		.byte	0
 13853 4367 00       		.byte	0
 13854 4368 3A       		.uleb128 0x3a
 13855 4369 02040000 		.4byte	.LVL114
 13856 436d C96C0000 		.4byte	0x6cc9
 13857 4371 3A       		.uleb128 0x3a
 13858 4372 06040000 		.4byte	.LVL115
 13859 4376 D46C0000 		.4byte	0x6cd4
 13860 437a 3A       		.uleb128 0x3a
 13861 437b EA040000 		.4byte	.LVL141
 13862 437f C96C0000 		.4byte	0x6cc9
 13863 4383 3A       		.uleb128 0x3a
 13864 4384 EE040000 		.4byte	.LVL142
 13865 4388 D46C0000 		.4byte	0x6cd4
 13866 438c 3A       		.uleb128 0x3a
 13867 438d 0A050000 		.4byte	.LVL145
 13868 4391 C96C0000 		.4byte	0x6cc9
 13869 4395 3A       		.uleb128 0x3a
 13870 4396 0E050000 		.4byte	.LVL146
 13871 439a D46C0000 		.4byte	0x6cd4
 13872 439e 00       		.byte	0
 13873 439f 00       		.byte	0
 13874 43a0 38       		.uleb128 0x38
 13875 43a1 046B0000 		.4byte	0x6b04
 13876 43a5 1E040000 		.4byte	.LBB562
 13877 43a9 2A000000 		.4byte	.LBE562-.LBB562
 13878 43ad 01       		.byte	0x1
 13879 43ae 4005     		.2byte	0x540
 13880 43b0 38       		.uleb128 0x38
 13881 43b1 7D6B0000 		.4byte	0x6b7d
 13882 43b5 1E040000 		.4byte	.LBB563
 13883 43b9 2A000000 		.4byte	.LBE563-.LBB563
 13884 43bd 05       		.byte	0x5
 13885 43be CA01     		.2byte	0x1ca
 13886 43c0 3B       		.uleb128 0x3b
 13887 43c1 1E040000 		.4byte	.LBB564
 13888 43c5 2A000000 		.4byte	.LBE564-.LBB564
 13889 43c9 3C       		.uleb128 0x3c
ARM GAS  C:\Users\mathi\AppData\Local\Temp\ccOm87JI.s 			page 245


 13890 43ca 8A6B0000 		.4byte	0x6b8a
 13891 43ce 37       		.uleb128 0x37
 13892 43cf B36B0000 		.4byte	0x6bb3
 13893 43d3 40040000 		.4byte	.LBB565
 13894 43d7 08000000 		.4byte	.LBE565-.LBB565
 13895 43db 04       		.byte	0x4
 13896 43dc 7301     		.2byte	0x173
 13897 43de FD430000 		.4byte	0x43fd
 13898 43e2 38       		.uleb128 0x38
 13899 43e3 C56B0000 		.4byte	0x6bc5
 13900 43e7 40040000 		.4byte	.LBB566
 13901 43eb 08000000 		.4byte	.LBE566-.LBB566
 13902 43ef 14       		.byte	0x14
 13903 43f0 CD01     		.2byte	0x1cd
 13904 43f2 39       		.uleb128 0x39
 13905 43f3 D26B0000 		.4byte	0x6bd2
 13906 43f7 07040000 		.4byte	.LLST56
 13907 43fb 00       		.byte	0
 13908 43fc 00       		.byte	0
 13909 43fd 3A       		.uleb128 0x3a
 13910 43fe 22040000 		.4byte	.LVL116
 13911 4402 DF6C0000 		.4byte	0x6cdf
 13912 4406 3A       		.uleb128 0x3a
 13913 4407 26040000 		.4byte	.LVL117
 13914 440b EA6C0000 		.4byte	0x6cea
 13915 440f 3D       		.uleb128 0x3d
 13916 4410 40040000 		.4byte	.LVL118
 13917 4414 F56C0000 		.4byte	0x6cf5
 13918 4418 3E       		.uleb128 0x3e
 13919 4419 01       		.uleb128 0x1
 13920 441a 50       		.byte	0x50
 13921 441b 05       		.uleb128 0x5
 13922 441c 03       		.byte	0x3
 13923 441d 00000000 		.4byte	.LANCHOR0
 13924 4421 00       		.byte	0
 13925 4422 00       		.byte	0
 13926 4423 00       		.byte	0
 13927 4424 00       		.byte	0
 13928 4425 00       		.byte	0
 13929 4426 3F       		.uleb128 0x3f
 13930 4427 046B0000 		.4byte	0x6b04
 13931 442b 30000000 		.4byte	.LBB436
 13932 442f 28000000 		.4byte	.Ldebug_ranges0+0x28
 13933 4433 01       		.byte	0x1
 13934 4434 2005     		.2byte	0x520
 13935 4436 AB440000 		.4byte	0x44ab
 13936 443a 45       		.uleb128 0x45
 13937 443b 7D6B0000 		.4byte	0x6b7d
 13938 443f 30000000 		.4byte	.LBB437
 13939 4443 28000000 		.4byte	.Ldebug_ranges0+0x28
 13940 4447 05       		.byte	0x5
 13941 4448 CA01     		.2byte	0x1ca
 13942 444a 43       		.uleb128 0x43
 13943 444b 28000000 		.4byte	.Ldebug_ranges0+0x28
 13944 444f 3C       		.uleb128 0x3c
 13945 4450 8A6B0000 		.4byte	0x6b8a
 13946 4454 3F       		.uleb128 0x3f
ARM GAS  C:\Users\mathi\AppData\Local\Temp\ccOm87JI.s 			page 246


 13947 4455 B36B0000 		.4byte	0x6bb3
 13948 4459 30000000 		.4byte	.LBB439
 13949 445d 40000000 		.4byte	.Ldebug_ranges0+0x40
 13950 4461 04       		.byte	0x4
 13951 4462 7301     		.2byte	0x173
 13952 4464 83440000 		.4byte	0x4483
 13953 4468 45       		.uleb128 0x45
 13954 4469 C56B0000 		.4byte	0x6bc5
 13955 446d 30000000 		.4byte	.LBB440
 13956 4471 40000000 		.4byte	.Ldebug_ranges0+0x40
 13957 4475 14       		.byte	0x14
 13958 4476 CD01     		.2byte	0x1cd
 13959 4478 39       		.uleb128 0x39
 13960 4479 D26B0000 		.4byte	0x6bd2
 13961 447d 1B040000 		.4byte	.LLST6
 13962 4481 00       		.byte	0
 13963 4482 00       		.byte	0
 13964 4483 3A       		.uleb128 0x3a
 13965 4484 62000000 		.4byte	.LVL7
 13966 4488 DF6C0000 		.4byte	0x6cdf
 13967 448c 3A       		.uleb128 0x3a
 13968 448d 66000000 		.4byte	.LVL8
 13969 4491 EA6C0000 		.4byte	0x6cea
 13970 4495 3D       		.uleb128 0x3d
 13971 4496 80000000 		.4byte	.LVL9
 13972 449a F56C0000 		.4byte	0x6cf5
 13973 449e 3E       		.uleb128 0x3e
 13974 449f 01       		.uleb128 0x1
 13975 44a0 50       		.byte	0x50
 13976 44a1 05       		.uleb128 0x5
 13977 44a2 03       		.byte	0x3
 13978 44a3 00000000 		.4byte	.LANCHOR0
 13979 44a7 00       		.byte	0
 13980 44a8 00       		.byte	0
 13981 44a9 00       		.byte	0
 13982 44aa 00       		.byte	0
 13983 44ab 3F       		.uleb128 0x3f
 13984 44ac B16A0000 		.4byte	0x6ab1
 13985 44b0 50000000 		.4byte	.LBB447
 13986 44b4 58000000 		.4byte	.Ldebug_ranges0+0x58
 13987 44b8 01       		.byte	0x1
 13988 44b9 1E05     		.2byte	0x51e
 13989 44bb D6440000 		.4byte	0x44d6
 13990 44bf 40       		.uleb128 0x40
 13991 44c0 C26A0000 		.4byte	0x6ac2
 13992 44c4 3D       		.uleb128 0x3d
 13993 44c5 5E000000 		.4byte	.LVL6
 13994 44c9 186D0000 		.4byte	0x6d18
 13995 44cd 3E       		.uleb128 0x3e
 13996 44ce 01       		.uleb128 0x1
 13997 44cf 50       		.byte	0x50
 13998 44d0 03       		.uleb128 0x3
 13999 44d1 91       		.byte	0x91
 14000 44d2 4C       		.sleb128 -52
 14001 44d3 06       		.byte	0x6
 14002 44d4 00       		.byte	0
 14003 44d5 00       		.byte	0
ARM GAS  C:\Users\mathi\AppData\Local\Temp\ccOm87JI.s 			page 247


 14004 44d6 3F       		.uleb128 0x3f
 14005 44d7 44670000 		.4byte	0x6744
 14006 44db 90000000 		.4byte	.LBB452
 14007 44df 70000000 		.4byte	.Ldebug_ranges0+0x70
 14008 44e3 01       		.byte	0x1
 14009 44e4 2705     		.2byte	0x527
 14010 44e6 7B470000 		.4byte	0x477b
 14011 44ea 39       		.uleb128 0x39
 14012 44eb 51670000 		.4byte	0x6751
 14013 44ef 2F040000 		.4byte	.LLST7
 14014 44f3 43       		.uleb128 0x43
 14015 44f4 70000000 		.4byte	.Ldebug_ranges0+0x70
 14016 44f8 42       		.uleb128 0x42
 14017 44f9 5D670000 		.4byte	0x675d
 14018 44fd 4D040000 		.4byte	.LLST8
 14019 4501 42       		.uleb128 0x42
 14020 4502 69670000 		.4byte	0x6769
 14021 4506 6B040000 		.4byte	.LLST9
 14022 450a 42       		.uleb128 0x42
 14023 450b 75670000 		.4byte	0x6775
 14024 450f 9C040000 		.4byte	.LLST10
 14025 4513 3F       		.uleb128 0x3f
 14026 4514 F8670000 		.4byte	0x67f8
 14027 4518 B4000000 		.4byte	.LBB454
 14028 451c 88000000 		.4byte	.Ldebug_ranges0+0x88
 14029 4520 01       		.byte	0x1
 14030 4521 BC01     		.2byte	0x1bc
 14031 4523 5B450000 		.4byte	0x455b
 14032 4527 39       		.uleb128 0x39
 14033 4528 27680000 		.4byte	0x6827
 14034 452c DC040000 		.4byte	.LLST11
 14035 4530 40       		.uleb128 0x40
 14036 4531 1D680000 		.4byte	0x681d
 14037 4535 39       		.uleb128 0x39
 14038 4536 11680000 		.4byte	0x6811
 14039 453a 12050000 		.4byte	.LLST12
 14040 453e 39       		.uleb128 0x39
 14041 453f 05680000 		.4byte	0x6805
 14042 4543 25050000 		.4byte	.LLST13
 14043 4547 41       		.uleb128 0x41
 14044 4548 33680000 		.4byte	0x6833
 14045 454c A0000000 		.4byte	.Ldebug_ranges0+0xa0
 14046 4550 42       		.uleb128 0x42
 14047 4551 34680000 		.4byte	0x6834
 14048 4555 46050000 		.4byte	.LLST14
 14049 4559 00       		.byte	0
 14050 455a 00       		.byte	0
 14051 455b 3F       		.uleb128 0x3f
 14052 455c F8670000 		.4byte	0x67f8
 14053 4560 02010000 		.4byte	.LBB461
 14054 4564 C0000000 		.4byte	.Ldebug_ranges0+0xc0
 14055 4568 01       		.byte	0x1
 14056 4569 C901     		.2byte	0x1c9
 14057 456b A7450000 		.4byte	0x45a7
 14058 456f 39       		.uleb128 0x39
 14059 4570 27680000 		.4byte	0x6827
 14060 4574 64050000 		.4byte	.LLST15
ARM GAS  C:\Users\mathi\AppData\Local\Temp\ccOm87JI.s 			page 248


 14061 4578 39       		.uleb128 0x39
 14062 4579 1D680000 		.4byte	0x681d
 14063 457d A0050000 		.4byte	.LLST16
 14064 4581 39       		.uleb128 0x39
 14065 4582 11680000 		.4byte	0x6811
 14066 4586 E3050000 		.4byte	.LLST17
 14067 458a 39       		.uleb128 0x39
 14068 458b 05680000 		.4byte	0x6805
 14069 458f 0D060000 		.4byte	.LLST18
 14070 4593 41       		.uleb128 0x41
 14071 4594 33680000 		.4byte	0x6833
 14072 4598 D8000000 		.4byte	.Ldebug_ranges0+0xd8
 14073 459c 42       		.uleb128 0x42
 14074 459d 34680000 		.4byte	0x6834
 14075 45a1 44060000 		.4byte	.LLST19
 14076 45a5 00       		.byte	0
 14077 45a6 00       		.byte	0
 14078 45a7 38       		.uleb128 0x38
 14079 45a8 81670000 		.4byte	0x6781
 14080 45ac 8A010000 		.4byte	.LBB467
 14081 45b0 FE000000 		.4byte	.LBE467-.LBB467
 14082 45b4 01       		.byte	0x1
 14083 45b5 C401     		.2byte	0x1c4
 14084 45b7 39       		.uleb128 0x39
 14085 45b8 A6670000 		.4byte	0x67a6
 14086 45bc 62060000 		.4byte	.LLST20
 14087 45c0 39       		.uleb128 0x39
 14088 45c1 9A670000 		.4byte	0x679a
 14089 45c5 75060000 		.4byte	.LLST21
 14090 45c9 39       		.uleb128 0x39
 14091 45ca 8E670000 		.4byte	0x678e
 14092 45ce 89060000 		.4byte	.LLST22
 14093 45d2 3B       		.uleb128 0x3b
 14094 45d3 8A010000 		.4byte	.LBB468
 14095 45d7 FE000000 		.4byte	.LBE468-.LBB468
 14096 45db 42       		.uleb128 0x42
 14097 45dc B0670000 		.4byte	0x67b0
 14098 45e0 AA060000 		.4byte	.LLST23
 14099 45e4 46       		.uleb128 0x46
 14100 45e5 BC670000 		.4byte	0x67bc
 14101 45e9 94010000 		.4byte	.LBB469
 14102 45ed 96000000 		.4byte	.LBE469-.LBB469
 14103 45f1 31460000 		.4byte	0x4631
 14104 45f5 42       		.uleb128 0x42
 14105 45f6 BD670000 		.4byte	0x67bd
 14106 45fa 07070000 		.4byte	.LLST24
 14107 45fe 42       		.uleb128 0x42
 14108 45ff C7670000 		.4byte	0x67c7
 14109 4603 1A070000 		.4byte	.LLST25
 14110 4607 42       		.uleb128 0x42
 14111 4608 D1670000 		.4byte	0x67d1
 14112 460c 5E070000 		.4byte	.LLST26
 14113 4610 47       		.uleb128 0x47
 14114 4611 DC670000 		.4byte	0x67dc
 14115 4615 9C010000 		.4byte	.LBB470
 14116 4619 0A000000 		.4byte	.LBE470-.LBB470
 14117 461d 42       		.uleb128 0x42
ARM GAS  C:\Users\mathi\AppData\Local\Temp\ccOm87JI.s 			page 249


 14118 461e DD670000 		.4byte	0x67dd
 14119 4622 84070000 		.4byte	.LLST27
 14120 4626 42       		.uleb128 0x42
 14121 4627 E9670000 		.4byte	0x67e9
 14122 462b 84070000 		.4byte	.LLST27
 14123 462f 00       		.byte	0
 14124 4630 00       		.byte	0
 14125 4631 37       		.uleb128 0x37
 14126 4632 0D6B0000 		.4byte	0x6b0d
 14127 4636 2E020000 		.4byte	.LBB471
 14128 463a 0E000000 		.4byte	.LBE471-.LBB471
 14129 463e 01       		.byte	0x1
 14130 463f A401     		.2byte	0x1a4
 14131 4641 98460000 		.4byte	0x4698
 14132 4645 38       		.uleb128 0x38
 14133 4646 986B0000 		.4byte	0x6b98
 14134 464a 2E020000 		.4byte	.LBB472
 14135 464e 0E000000 		.4byte	.LBE472-.LBB472
 14136 4652 05       		.byte	0x5
 14137 4653 BF01     		.2byte	0x1bf
 14138 4655 37       		.uleb128 0x37
 14139 4656 BC6B0000 		.4byte	0x6bbc
 14140 465a 2E020000 		.4byte	.LBB474
 14141 465e 06000000 		.4byte	.LBE474-.LBB474
 14142 4662 04       		.byte	0x4
 14143 4663 5C01     		.2byte	0x15c
 14144 4665 84460000 		.4byte	0x4684
 14145 4669 38       		.uleb128 0x38
 14146 466a C56B0000 		.4byte	0x6bc5
 14147 466e 2E020000 		.4byte	.LBB475
 14148 4672 06000000 		.4byte	.LBE475-.LBB475
 14149 4676 14       		.byte	0x14
 14150 4677 BF01     		.2byte	0x1bf
 14151 4679 39       		.uleb128 0x39
 14152 467a D26B0000 		.4byte	0x6bd2
 14153 467e 98070000 		.4byte	.LLST29
 14154 4682 00       		.byte	0
 14155 4683 00       		.byte	0
 14156 4684 3A       		.uleb128 0x3a
 14157 4685 38020000 		.4byte	.LVL68
 14158 4689 C96C0000 		.4byte	0x6cc9
 14159 468d 3A       		.uleb128 0x3a
 14160 468e 3C020000 		.4byte	.LVL69
 14161 4692 D46C0000 		.4byte	0x6cd4
 14162 4696 00       		.byte	0
 14163 4697 00       		.byte	0
 14164 4698 37       		.uleb128 0x37
 14165 4699 5F6A0000 		.4byte	0x6a5f
 14166 469d 42020000 		.4byte	.LBB477
 14167 46a1 08000000 		.4byte	.LBE477-.LBB477
 14168 46a5 01       		.byte	0x1
 14169 46a6 A601     		.2byte	0x1a6
 14170 46a8 D4460000 		.4byte	0x46d4
 14171 46ac 39       		.uleb128 0x39
 14172 46ad 786A0000 		.4byte	0x6a78
 14173 46b1 AD070000 		.4byte	.LLST30
 14174 46b5 39       		.uleb128 0x39
ARM GAS  C:\Users\mathi\AppData\Local\Temp\ccOm87JI.s 			page 250


 14175 46b6 6C6A0000 		.4byte	0x6a6c
 14176 46ba C1070000 		.4byte	.LLST31
 14177 46be 3D       		.uleb128 0x3d
 14178 46bf 4A020000 		.4byte	.LVL71
 14179 46c3 016D0000 		.4byte	0x6d01
 14180 46c7 3E       		.uleb128 0x3e
 14181 46c8 01       		.uleb128 0x1
 14182 46c9 50       		.byte	0x50
 14183 46ca 02       		.uleb128 0x2
 14184 46cb 76       		.byte	0x76
 14185 46cc 00       		.sleb128 0
 14186 46cd 3E       		.uleb128 0x3e
 14187 46ce 01       		.uleb128 0x1
 14188 46cf 51       		.byte	0x51
 14189 46d0 01       		.uleb128 0x1
 14190 46d1 30       		.byte	0x30
 14191 46d2 00       		.byte	0
 14192 46d3 00       		.byte	0
 14193 46d4 37       		.uleb128 0x37
 14194 46d5 CF6A0000 		.4byte	0x6acf
 14195 46d9 4A020000 		.4byte	.LBB479
 14196 46dd 04000000 		.4byte	.LBE479-.LBB479
 14197 46e1 01       		.byte	0x1
 14198 46e2 A701     		.2byte	0x1a7
 14199 46e4 F2460000 		.4byte	0x46f2
 14200 46e8 3A       		.uleb128 0x3a
 14201 46e9 4E020000 		.4byte	.LVL72
 14202 46ed 0C6D0000 		.4byte	0x6d0c
 14203 46f1 00       		.byte	0
 14204 46f2 38       		.uleb128 0x38
 14205 46f3 046B0000 		.4byte	0x6b04
 14206 46f7 4E020000 		.4byte	.LBB481
 14207 46fb 3A000000 		.4byte	.LBE481-.LBB481
 14208 46ff 01       		.byte	0x1
 14209 4700 A801     		.2byte	0x1a8
 14210 4702 38       		.uleb128 0x38
 14211 4703 7D6B0000 		.4byte	0x6b7d
 14212 4707 4E020000 		.4byte	.LBB482
 14213 470b 3A000000 		.4byte	.LBE482-.LBB482
 14214 470f 05       		.byte	0x5
 14215 4710 CA01     		.2byte	0x1ca
 14216 4712 3B       		.uleb128 0x3b
 14217 4713 4E020000 		.4byte	.LBB483
 14218 4717 3A000000 		.4byte	.LBE483-.LBB483
 14219 471b 3C       		.uleb128 0x3c
 14220 471c 8A6B0000 		.4byte	0x6b8a
 14221 4720 37       		.uleb128 0x37
 14222 4721 B36B0000 		.4byte	0x6bb3
 14223 4725 70020000 		.4byte	.LBB484
 14224 4729 18000000 		.4byte	.LBE484-.LBB484
 14225 472d 04       		.byte	0x4
 14226 472e 7301     		.2byte	0x173
 14227 4730 4F470000 		.4byte	0x474f
 14228 4734 38       		.uleb128 0x38
 14229 4735 C56B0000 		.4byte	0x6bc5
 14230 4739 70020000 		.4byte	.LBB485
 14231 473d 18000000 		.4byte	.LBE485-.LBB485
ARM GAS  C:\Users\mathi\AppData\Local\Temp\ccOm87JI.s 			page 251


 14232 4741 14       		.byte	0x14
 14233 4742 CD01     		.2byte	0x1cd
 14234 4744 39       		.uleb128 0x39
 14235 4745 D26B0000 		.4byte	0x6bd2
 14236 4749 D4070000 		.4byte	.LLST32
 14237 474d 00       		.byte	0
 14238 474e 00       		.byte	0
 14239 474f 3A       		.uleb128 0x3a
 14240 4750 52020000 		.4byte	.LVL73
 14241 4754 DF6C0000 		.4byte	0x6cdf
 14242 4758 3A       		.uleb128 0x3a
 14243 4759 56020000 		.4byte	.LVL74
 14244 475d EA6C0000 		.4byte	0x6cea
 14245 4761 3D       		.uleb128 0x3d
 14246 4762 70020000 		.4byte	.LVL75
 14247 4766 F56C0000 		.4byte	0x6cf5
 14248 476a 3E       		.uleb128 0x3e
 14249 476b 01       		.uleb128 0x1
 14250 476c 50       		.byte	0x50
 14251 476d 05       		.uleb128 0x5
 14252 476e 03       		.byte	0x3
 14253 476f 00000000 		.4byte	.LANCHOR0
 14254 4773 00       		.byte	0
 14255 4774 00       		.byte	0
 14256 4775 00       		.byte	0
 14257 4776 00       		.byte	0
 14258 4777 00       		.byte	0
 14259 4778 00       		.byte	0
 14260 4779 00       		.byte	0
 14261 477a 00       		.byte	0
 14262 477b 38       		.uleb128 0x38
 14263 477c 0D6B0000 		.4byte	0x6b0d
 14264 4780 6A010000 		.4byte	.LBB488
 14265 4784 10000000 		.4byte	.LBE488-.LBB488
 14266 4788 01       		.byte	0x1
 14267 4789 4305     		.2byte	0x543
 14268 478b 38       		.uleb128 0x38
 14269 478c 986B0000 		.4byte	0x6b98
 14270 4790 6A010000 		.4byte	.LBB489
 14271 4794 10000000 		.4byte	.LBE489-.LBB489
 14272 4798 05       		.byte	0x5
 14273 4799 BF01     		.2byte	0x1bf
 14274 479b 37       		.uleb128 0x37
 14275 479c BC6B0000 		.4byte	0x6bbc
 14276 47a0 6A010000 		.4byte	.LBB491
 14277 47a4 06000000 		.4byte	.LBE491-.LBB491
 14278 47a8 04       		.byte	0x4
 14279 47a9 5C01     		.2byte	0x15c
 14280 47ab CA470000 		.4byte	0x47ca
 14281 47af 38       		.uleb128 0x38
 14282 47b0 C56B0000 		.4byte	0x6bc5
 14283 47b4 6A010000 		.4byte	.LBB492
 14284 47b8 06000000 		.4byte	.LBE492-.LBB492
 14285 47bc 14       		.byte	0x14
 14286 47bd BF01     		.2byte	0x1bf
 14287 47bf 39       		.uleb128 0x39
 14288 47c0 D26B0000 		.4byte	0x6bd2
ARM GAS  C:\Users\mathi\AppData\Local\Temp\ccOm87JI.s 			page 252


 14289 47c4 E8070000 		.4byte	.LLST33
 14290 47c8 00       		.byte	0
 14291 47c9 00       		.byte	0
 14292 47ca 3A       		.uleb128 0x3a
 14293 47cb 74010000 		.4byte	.LVL48
 14294 47cf C96C0000 		.4byte	0x6cc9
 14295 47d3 3A       		.uleb128 0x3a
 14296 47d4 78010000 		.4byte	.LVL49
 14297 47d8 D46C0000 		.4byte	0x6cd4
 14298 47dc 00       		.byte	0
 14299 47dd 00       		.byte	0
 14300 47de 00       		.byte	0
 14301 47df 3F       		.uleb128 0x3f
 14302 47e0 166B0000 		.4byte	0x6b16
 14303 47e4 04000000 		.4byte	.LBB421
 14304 47e8 00000000 		.4byte	.Ldebug_ranges0+0
 14305 47ec 01       		.byte	0x1
 14306 47ed 1305     		.2byte	0x513
 14307 47ef F9470000 		.4byte	0x47f9
 14308 47f3 40       		.uleb128 0x40
 14309 47f4 226B0000 		.4byte	0x6b22
 14310 47f8 00       		.byte	0
 14311 47f9 38       		.uleb128 0x38
 14312 47fa 0D6B0000 		.4byte	0x6b0d
 14313 47fe 1E000000 		.4byte	.LBB429
 14314 4802 12000000 		.4byte	.LBE429-.LBB429
 14315 4806 01       		.byte	0x1
 14316 4807 1505     		.2byte	0x515
 14317 4809 38       		.uleb128 0x38
 14318 480a 986B0000 		.4byte	0x6b98
 14319 480e 1E000000 		.4byte	.LBB430
 14320 4812 12000000 		.4byte	.LBE430-.LBB430
 14321 4816 05       		.byte	0x5
 14322 4817 BF01     		.2byte	0x1bf
 14323 4819 37       		.uleb128 0x37
 14324 481a BC6B0000 		.4byte	0x6bbc
 14325 481e 1E000000 		.4byte	.LBB432
 14326 4822 06000000 		.4byte	.LBE432-.LBB432
 14327 4826 04       		.byte	0x4
 14328 4827 5C01     		.2byte	0x15c
 14329 4829 48480000 		.4byte	0x4848
 14330 482d 38       		.uleb128 0x38
 14331 482e C56B0000 		.4byte	0x6bc5
 14332 4832 1E000000 		.4byte	.LBB433
 14333 4836 06000000 		.4byte	.LBE433-.LBB433
 14334 483a 14       		.byte	0x14
 14335 483b BF01     		.2byte	0x1bf
 14336 483d 39       		.uleb128 0x39
 14337 483e D26B0000 		.4byte	0x6bd2
 14338 4842 FD070000 		.4byte	.LLST3
 14339 4846 00       		.byte	0
 14340 4847 00       		.byte	0
 14341 4848 3A       		.uleb128 0x3a
 14342 4849 28000000 		.4byte	.LVL3
 14343 484d C96C0000 		.4byte	0x6cc9
 14344 4851 3A       		.uleb128 0x3a
 14345 4852 2C000000 		.4byte	.LVL4
ARM GAS  C:\Users\mathi\AppData\Local\Temp\ccOm87JI.s 			page 253


 14346 4856 D46C0000 		.4byte	0x6cd4
 14347 485a 00       		.byte	0
 14348 485b 00       		.byte	0
 14349 485c 00       		.byte	0
 14350 485d 31       		.uleb128 0x31
 14351 485e 7E0D0000 		.4byte	.LASF853
 14352 4862 01       		.byte	0x1
 14353 4863 FE04     		.2byte	0x4fe
 14354 4865 00000000 		.4byte	.LFB291
 14355 4869 34000000 		.4byte	.LFE291-.LFB291
 14356 486d 01       		.uleb128 0x1
 14357 486e 9C       		.byte	0x9c
 14358 486f 9C480000 		.4byte	0x489c
 14359 4873 48       		.uleb128 0x48
 14360 4874 7F240000 		.4byte	.LASF849
 14361 4878 01       		.byte	0x1
 14362 4879 FE04     		.2byte	0x4fe
 14363 487b 28360000 		.4byte	0x3628
 14364 487f 12080000 		.4byte	.LLST262
 14365 4883 32       		.uleb128 0x32
 14366 4884 657000   		.ascii	"ep\000"
 14367 4887 01       		.byte	0x1
 14368 4888 FE04     		.2byte	0x4fe
 14369 488a E1340000 		.4byte	0x34e1
 14370 488e 33080000 		.4byte	.LLST263
 14371 4892 3A       		.uleb128 0x3a
 14372 4893 2E000000 		.4byte	.LVL564
 14373 4897 236D0000 		.4byte	0x6d23
 14374 489b 00       		.byte	0
 14375 489c 31       		.uleb128 0x31
 14376 489d B0240000 		.4byte	.LASF854
 14377 48a1 01       		.byte	0x1
 14378 48a2 F104     		.2byte	0x4f1
 14379 48a4 00000000 		.4byte	.LFB290
 14380 48a8 34000000 		.4byte	.LFE290-.LFB290
 14381 48ac 01       		.uleb128 0x1
 14382 48ad 9C       		.byte	0x9c
 14383 48ae DB480000 		.4byte	0x48db
 14384 48b2 48       		.uleb128 0x48
 14385 48b3 7F240000 		.4byte	.LASF849
 14386 48b7 01       		.byte	0x1
 14387 48b8 F104     		.2byte	0x4f1
 14388 48ba 28360000 		.4byte	0x3628
 14389 48be 54080000 		.4byte	.LLST260
 14390 48c2 32       		.uleb128 0x32
 14391 48c3 657000   		.ascii	"ep\000"
 14392 48c6 01       		.byte	0x1
 14393 48c7 F104     		.2byte	0x4f1
 14394 48c9 E1340000 		.4byte	0x34e1
 14395 48cd 75080000 		.4byte	.LLST261
 14396 48d1 3A       		.uleb128 0x3a
 14397 48d2 2E000000 		.4byte	.LVL561
 14398 48d6 236D0000 		.4byte	0x6d23
 14399 48da 00       		.byte	0
 14400 48db 31       		.uleb128 0x31
 14401 48dc D4110000 		.4byte	.LASF855
 14402 48e0 01       		.byte	0x1
ARM GAS  C:\Users\mathi\AppData\Local\Temp\ccOm87JI.s 			page 254


 14403 48e1 E404     		.2byte	0x4e4
 14404 48e3 00000000 		.4byte	.LFB289
 14405 48e7 34000000 		.4byte	.LFE289-.LFB289
 14406 48eb 01       		.uleb128 0x1
 14407 48ec 9C       		.byte	0x9c
 14408 48ed 1A490000 		.4byte	0x491a
 14409 48f1 48       		.uleb128 0x48
 14410 48f2 7F240000 		.4byte	.LASF849
 14411 48f6 01       		.byte	0x1
 14412 48f7 E404     		.2byte	0x4e4
 14413 48f9 28360000 		.4byte	0x3628
 14414 48fd 96080000 		.4byte	.LLST258
 14415 4901 32       		.uleb128 0x32
 14416 4902 657000   		.ascii	"ep\000"
 14417 4905 01       		.byte	0x1
 14418 4906 E404     		.2byte	0x4e4
 14419 4908 E1340000 		.4byte	0x34e1
 14420 490c B7080000 		.4byte	.LLST259
 14421 4910 3A       		.uleb128 0x3a
 14422 4911 2E000000 		.4byte	.LVL558
 14423 4915 236D0000 		.4byte	0x6d23
 14424 4919 00       		.byte	0
 14425 491a 31       		.uleb128 0x31
 14426 491b C5270000 		.4byte	.LASF856
 14427 491f 01       		.byte	0x1
 14428 4920 D704     		.2byte	0x4d7
 14429 4922 00000000 		.4byte	.LFB288
 14430 4926 34000000 		.4byte	.LFE288-.LFB288
 14431 492a 01       		.uleb128 0x1
 14432 492b 9C       		.byte	0x9c
 14433 492c 59490000 		.4byte	0x4959
 14434 4930 48       		.uleb128 0x48
 14435 4931 7F240000 		.4byte	.LASF849
 14436 4935 01       		.byte	0x1
 14437 4936 D704     		.2byte	0x4d7
 14438 4938 28360000 		.4byte	0x3628
 14439 493c D8080000 		.4byte	.LLST256
 14440 4940 32       		.uleb128 0x32
 14441 4941 657000   		.ascii	"ep\000"
 14442 4944 01       		.byte	0x1
 14443 4945 D704     		.2byte	0x4d7
 14444 4947 E1340000 		.4byte	0x34e1
 14445 494b F9080000 		.4byte	.LLST257
 14446 494f 3A       		.uleb128 0x3a
 14447 4950 2E000000 		.4byte	.LVL555
 14448 4954 236D0000 		.4byte	0x6d23
 14449 4958 00       		.byte	0
 14450 4959 49       		.uleb128 0x49
 14451 495a 0F070000 		.4byte	.LASF857
 14452 495e 01       		.byte	0x1
 14453 495f C904     		.2byte	0x4c9
 14454 4961 01       		.byte	0x1
 14455 4962 7E490000 		.4byte	0x497e
 14456 4966 4A       		.uleb128 0x4a
 14457 4967 7F240000 		.4byte	.LASF849
 14458 496b 01       		.byte	0x1
 14459 496c C904     		.2byte	0x4c9
ARM GAS  C:\Users\mathi\AppData\Local\Temp\ccOm87JI.s 			page 255


 14460 496e 28360000 		.4byte	0x3628
 14461 4972 4B       		.uleb128 0x4b
 14462 4973 657000   		.ascii	"ep\000"
 14463 4976 01       		.byte	0x1
 14464 4977 C904     		.2byte	0x4c9
 14465 4979 E1340000 		.4byte	0x34e1
 14466 497d 00       		.byte	0
 14467 497e 49       		.uleb128 0x49
 14468 497f 1E0C0000 		.4byte	.LASF858
 14469 4983 01       		.byte	0x1
 14470 4984 BC04     		.2byte	0x4bc
 14471 4986 01       		.byte	0x1
 14472 4987 A3490000 		.4byte	0x49a3
 14473 498b 4A       		.uleb128 0x4a
 14474 498c 7F240000 		.4byte	.LASF849
 14475 4990 01       		.byte	0x1
 14476 4991 BC04     		.2byte	0x4bc
 14477 4993 28360000 		.4byte	0x3628
 14478 4997 4B       		.uleb128 0x4b
 14479 4998 657000   		.ascii	"ep\000"
 14480 499b 01       		.byte	0x1
 14481 499c BC04     		.2byte	0x4bc
 14482 499e E1340000 		.4byte	0x34e1
 14483 49a2 00       		.byte	0
 14484 49a3 49       		.uleb128 0x49
 14485 49a4 580A0000 		.4byte	.LASF859
 14486 49a8 01       		.byte	0x1
 14487 49a9 9F04     		.2byte	0x49f
 14488 49ab 01       		.byte	0x1
 14489 49ac E2490000 		.4byte	0x49e2
 14490 49b0 4A       		.uleb128 0x4a
 14491 49b1 7F240000 		.4byte	.LASF849
 14492 49b5 01       		.byte	0x1
 14493 49b6 9F04     		.2byte	0x49f
 14494 49b8 28360000 		.4byte	0x3628
 14495 49bc 4B       		.uleb128 0x4b
 14496 49bd 657000   		.ascii	"ep\000"
 14497 49c0 01       		.byte	0x1
 14498 49c1 9F04     		.2byte	0x49f
 14499 49c3 E1340000 		.4byte	0x34e1
 14500 49c7 4C       		.uleb128 0x4c
 14501 49c8 69737000 		.ascii	"isp\000"
 14502 49cc 01       		.byte	0x1
 14503 49cd A004     		.2byte	0x4a0
 14504 49cf FD3D0000 		.4byte	0x3dfd
 14505 49d3 4D       		.uleb128 0x4d
 14506 49d4 36       		.uleb128 0x36
 14507 49d5 8D1B0000 		.4byte	.LASF861
 14508 49d9 01       		.byte	0x1
 14509 49da AD04     		.2byte	0x4ad
 14510 49dc 1C090000 		.4byte	0x91c
 14511 49e0 00       		.byte	0
 14512 49e1 00       		.byte	0
 14513 49e2 49       		.uleb128 0x49
 14514 49e3 131B0000 		.4byte	.LASF862
 14515 49e7 01       		.byte	0x1
 14516 49e8 8704     		.2byte	0x487
ARM GAS  C:\Users\mathi\AppData\Local\Temp\ccOm87JI.s 			page 256


 14517 49ea 01       		.byte	0x1
 14518 49eb 1F4A0000 		.4byte	0x4a1f
 14519 49ef 4A       		.uleb128 0x4a
 14520 49f0 7F240000 		.4byte	.LASF849
 14521 49f4 01       		.byte	0x1
 14522 49f5 8704     		.2byte	0x487
 14523 49f7 28360000 		.4byte	0x3628
 14524 49fb 4B       		.uleb128 0x4b
 14525 49fc 657000   		.ascii	"ep\000"
 14526 49ff 01       		.byte	0x1
 14527 4a00 8704     		.2byte	0x487
 14528 4a02 E1340000 		.4byte	0x34e1
 14529 4a06 36       		.uleb128 0x36
 14530 4a07 8D1B0000 		.4byte	.LASF861
 14531 4a0b 01       		.byte	0x1
 14532 4a0c 8804     		.2byte	0x488
 14533 4a0e 1C090000 		.4byte	0x91c
 14534 4a12 4C       		.uleb128 0x4c
 14535 4a13 6F737000 		.ascii	"osp\000"
 14536 4a17 01       		.byte	0x1
 14537 4a18 8904     		.2byte	0x489
 14538 4a1a 033E0000 		.4byte	0x3e03
 14539 4a1e 00       		.byte	0
 14540 4a1f 31       		.uleb128 0x31
 14541 4a20 D70B0000 		.4byte	.LASF863
 14542 4a24 01       		.byte	0x1
 14543 4a25 7A04     		.2byte	0x47a
 14544 4a27 00000000 		.4byte	.LFB283
 14545 4a2b 30000000 		.4byte	.LFE283-.LFB283
 14546 4a2f 01       		.uleb128 0x1
 14547 4a30 9C       		.byte	0x9c
 14548 4a31 6E4A0000 		.4byte	0x4a6e
 14549 4a35 48       		.uleb128 0x48
 14550 4a36 7F240000 		.4byte	.LASF849
 14551 4a3a 01       		.byte	0x1
 14552 4a3b 7A04     		.2byte	0x47a
 14553 4a3d 28360000 		.4byte	0x3628
 14554 4a41 1A090000 		.4byte	.LLST241
 14555 4a45 32       		.uleb128 0x32
 14556 4a46 657000   		.ascii	"ep\000"
 14557 4a49 01       		.byte	0x1
 14558 4a4a 7A04     		.2byte	0x47a
 14559 4a4c E1340000 		.4byte	0x34e1
 14560 4a50 3B090000 		.4byte	.LLST242
 14561 4a54 32       		.uleb128 0x32
 14562 4a55 62756600 		.ascii	"buf\000"
 14563 4a59 01       		.byte	0x1
 14564 4a5a 7A04     		.2byte	0x47a
 14565 4a5c 791C0000 		.4byte	0x1c79
 14566 4a60 5C090000 		.4byte	.LLST243
 14567 4a64 3A       		.uleb128 0x3a
 14568 4a65 2A000000 		.4byte	.LVL527
 14569 4a69 236D0000 		.4byte	0x6d23
 14570 4a6d 00       		.byte	0
 14571 4a6e 4E       		.uleb128 0x4e
 14572 4a6f E8150000 		.4byte	.LASF864
 14573 4a73 01       		.byte	0x1
ARM GAS  C:\Users\mathi\AppData\Local\Temp\ccOm87JI.s 			page 257


 14574 4a74 5F04     		.2byte	0x45f
 14575 4a76 46350000 		.4byte	0x3546
 14576 4a7a 00000000 		.4byte	.LFB282
 14577 4a7e 38000000 		.4byte	.LFE282-.LFB282
 14578 4a82 01       		.uleb128 0x1
 14579 4a83 9C       		.byte	0x9c
 14580 4a84 C14A0000 		.4byte	0x4ac1
 14581 4a88 48       		.uleb128 0x48
 14582 4a89 7F240000 		.4byte	.LASF849
 14583 4a8d 01       		.byte	0x1
 14584 4a8e 5F04     		.2byte	0x45f
 14585 4a90 28360000 		.4byte	0x3628
 14586 4a94 7D090000 		.4byte	.LLST238
 14587 4a98 32       		.uleb128 0x32
 14588 4a99 657000   		.ascii	"ep\000"
 14589 4a9c 01       		.byte	0x1
 14590 4a9d 5F04     		.2byte	0x45f
 14591 4a9f E1340000 		.4byte	0x34e1
 14592 4aa3 9E090000 		.4byte	.LLST239
 14593 4aa7 35       		.uleb128 0x35
 14594 4aa8 63746C00 		.ascii	"ctl\000"
 14595 4aac 01       		.byte	0x1
 14596 4aad 6004     		.2byte	0x460
 14597 4aaf 1C090000 		.4byte	0x91c
 14598 4ab3 BF090000 		.4byte	.LLST240
 14599 4ab7 3A       		.uleb128 0x3a
 14600 4ab8 34000000 		.4byte	.LVL523
 14601 4abc 236D0000 		.4byte	0x6d23
 14602 4ac0 00       		.byte	0
 14603 4ac1 4E       		.uleb128 0x4e
 14604 4ac2 46170000 		.4byte	.LASF865
 14605 4ac6 01       		.byte	0x1
 14606 4ac7 4604     		.2byte	0x446
 14607 4ac9 46350000 		.4byte	0x3546
 14608 4acd 00000000 		.4byte	.LFB281
 14609 4ad1 38000000 		.4byte	.LFE281-.LFB281
 14610 4ad5 01       		.uleb128 0x1
 14611 4ad6 9C       		.byte	0x9c
 14612 4ad7 144B0000 		.4byte	0x4b14
 14613 4adb 48       		.uleb128 0x48
 14614 4adc 7F240000 		.4byte	.LASF849
 14615 4ae0 01       		.byte	0x1
 14616 4ae1 4604     		.2byte	0x446
 14617 4ae3 28360000 		.4byte	0x3628
 14618 4ae7 D2090000 		.4byte	.LLST235
 14619 4aeb 32       		.uleb128 0x32
 14620 4aec 657000   		.ascii	"ep\000"
 14621 4aef 01       		.byte	0x1
 14622 4af0 4604     		.2byte	0x446
 14623 4af2 E1340000 		.4byte	0x34e1
 14624 4af6 F3090000 		.4byte	.LLST236
 14625 4afa 35       		.uleb128 0x35
 14626 4afb 63746C00 		.ascii	"ctl\000"
 14627 4aff 01       		.byte	0x1
 14628 4b00 4704     		.2byte	0x447
 14629 4b02 1C090000 		.4byte	0x91c
 14630 4b06 140A0000 		.4byte	.LLST237
ARM GAS  C:\Users\mathi\AppData\Local\Temp\ccOm87JI.s 			page 258


 14631 4b0a 3A       		.uleb128 0x3a
 14632 4b0b 34000000 		.4byte	.LVL517
 14633 4b0f 236D0000 		.4byte	0x6d23
 14634 4b13 00       		.byte	0
 14635 4b14 31       		.uleb128 0x31
 14636 4b15 F1140000 		.4byte	.LASF866
 14637 4b19 01       		.byte	0x1
 14638 4b1a 3104     		.2byte	0x431
 14639 4b1c 00000000 		.4byte	.LFB280
 14640 4b20 A0000000 		.4byte	.LFE280-.LFB280
 14641 4b24 01       		.uleb128 0x1
 14642 4b25 9C       		.byte	0x9c
 14643 4b26 AA4B0000 		.4byte	0x4baa
 14644 4b2a 48       		.uleb128 0x48
 14645 4b2b 7F240000 		.4byte	.LASF849
 14646 4b2f 01       		.byte	0x1
 14647 4b30 3104     		.2byte	0x431
 14648 4b32 28360000 		.4byte	0x3628
 14649 4b36 270A0000 		.4byte	.LLST228
 14650 4b3a 3F       		.uleb128 0x3f
 14651 4b3b A7690000 		.4byte	0x69a7
 14652 4b3f 04000000 		.4byte	.LBB1196
 14653 4b43 18050000 		.4byte	.Ldebug_ranges0+0x518
 14654 4b47 01       		.byte	0x1
 14655 4b48 3404     		.2byte	0x434
 14656 4b4a 614B0000 		.4byte	0x4b61
 14657 4b4e 39       		.uleb128 0x39
 14658 4b4f B3690000 		.4byte	0x69b3
 14659 4b53 480A0000 		.4byte	.LLST229
 14660 4b57 39       		.uleb128 0x39
 14661 4b58 B3690000 		.4byte	0x69b3
 14662 4b5c 690A0000 		.4byte	.LLST230
 14663 4b60 00       		.byte	0
 14664 4b61 3F       		.uleb128 0x3f
 14665 4b62 106A0000 		.4byte	0x6a10
 14666 4b66 16000000 		.4byte	.LBB1202
 14667 4b6a 38050000 		.4byte	.Ldebug_ranges0+0x538
 14668 4b6e 01       		.byte	0x1
 14669 4b6f 3704     		.2byte	0x437
 14670 4b71 A04B0000 		.4byte	0x4ba0
 14671 4b75 39       		.uleb128 0x39
 14672 4b76 1C6A0000 		.4byte	0x6a1c
 14673 4b7a 8A0A0000 		.4byte	.LLST231
 14674 4b7e 39       		.uleb128 0x39
 14675 4b7f 1C6A0000 		.4byte	0x6a1c
 14676 4b83 AB0A0000 		.4byte	.LLST232
 14677 4b87 43       		.uleb128 0x43
 14678 4b88 38050000 		.4byte	.Ldebug_ranges0+0x538
 14679 4b8c 42       		.uleb128 0x42
 14680 4b8d 276A0000 		.4byte	0x6a27
 14681 4b91 CC0A0000 		.4byte	.LLST233
 14682 4b95 42       		.uleb128 0x42
 14683 4b96 326A0000 		.4byte	0x6a32
 14684 4b9a DF0A0000 		.4byte	.LLST234
 14685 4b9e 00       		.byte	0
 14686 4b9f 00       		.byte	0
 14687 4ba0 3A       		.uleb128 0x3a
ARM GAS  C:\Users\mathi\AppData\Local\Temp\ccOm87JI.s 			page 259


 14688 4ba1 9C000000 		.4byte	.LVL511
 14689 4ba5 236D0000 		.4byte	0x6d23
 14690 4ba9 00       		.byte	0
 14691 4baa 31       		.uleb128 0x31
 14692 4bab 69250000 		.4byte	.LASF867
 14693 4baf 01       		.byte	0x1
 14694 4bb0 F103     		.2byte	0x3f1
 14695 4bb2 00000000 		.4byte	.LFB279
 14696 4bb6 A0010000 		.4byte	.LFE279-.LFB279
 14697 4bba 01       		.uleb128 0x1
 14698 4bbb 9C       		.byte	0x9c
 14699 4bbc 344D0000 		.4byte	0x4d34
 14700 4bc0 48       		.uleb128 0x48
 14701 4bc1 7F240000 		.4byte	.LASF849
 14702 4bc5 01       		.byte	0x1
 14703 4bc6 F103     		.2byte	0x3f1
 14704 4bc8 28360000 		.4byte	0x3628
 14705 4bcc FE0A0000 		.4byte	.LLST211
 14706 4bd0 32       		.uleb128 0x32
 14707 4bd1 657000   		.ascii	"ep\000"
 14708 4bd4 01       		.byte	0x1
 14709 4bd5 F103     		.2byte	0x3f1
 14710 4bd7 E1340000 		.4byte	0x34e1
 14711 4bdb 320B0000 		.4byte	.LLST212
 14712 4bdf 35       		.uleb128 0x35
 14713 4be0 63746C00 		.ascii	"ctl\000"
 14714 4be4 01       		.byte	0x1
 14715 4be5 F203     		.2byte	0x3f2
 14716 4be7 1C090000 		.4byte	0x91c
 14717 4beb 6C0B0000 		.4byte	.LLST213
 14718 4bef 33       		.uleb128 0x33
 14719 4bf0 C1160000 		.4byte	.LASF868
 14720 4bf4 01       		.byte	0x1
 14721 4bf5 F203     		.2byte	0x3f2
 14722 4bf7 1C090000 		.4byte	0x91c
 14723 4bfb AA0B0000 		.4byte	.LLST214
 14724 4bff 33       		.uleb128 0x33
 14725 4c00 631D0000 		.4byte	.LASF850
 14726 4c04 01       		.byte	0x1
 14727 4c05 F303     		.2byte	0x3f3
 14728 4c07 953E0000 		.4byte	0x3e95
 14729 4c0b BD0B0000 		.4byte	.LLST215
 14730 4c0f 3F       		.uleb128 0x3f
 14731 4c10 53690000 		.4byte	0x6953
 14732 4c14 A4000000 		.4byte	.LBB1178
 14733 4c18 F8040000 		.4byte	.Ldebug_ranges0+0x4f8
 14734 4c1c 01       		.byte	0x1
 14735 4c1d 1A04     		.2byte	0x41a
 14736 4c1f 664C0000 		.4byte	0x4c66
 14737 4c23 39       		.uleb128 0x39
 14738 4c24 63690000 		.4byte	0x6963
 14739 4c28 DF0B0000 		.4byte	.LLST216
 14740 4c2c 39       		.uleb128 0x39
 14741 4c2d 63690000 		.4byte	0x6963
 14742 4c31 DF0B0000 		.4byte	.LLST216
 14743 4c35 39       		.uleb128 0x39
 14744 4c36 6E690000 		.4byte	0x696e
ARM GAS  C:\Users\mathi\AppData\Local\Temp\ccOm87JI.s 			page 260


 14745 4c3a FD0B0000 		.4byte	.LLST218
 14746 4c3e 43       		.uleb128 0x43
 14747 4c3f F8040000 		.4byte	.Ldebug_ranges0+0x4f8
 14748 4c43 42       		.uleb128 0x42
 14749 4c44 79690000 		.4byte	0x6979
 14750 4c48 100C0000 		.4byte	.LLST219
 14751 4c4c 3C       		.uleb128 0x3c
 14752 4c4d 84690000 		.4byte	0x6984
 14753 4c51 3D       		.uleb128 0x3d
 14754 4c52 7A010000 		.4byte	.LVL502
 14755 4c56 F56C0000 		.4byte	0x6cf5
 14756 4c5a 3E       		.uleb128 0x3e
 14757 4c5b 01       		.uleb128 0x1
 14758 4c5c 50       		.byte	0x50
 14759 4c5d 05       		.uleb128 0x5
 14760 4c5e 03       		.byte	0x3
 14761 4c5f 00000000 		.4byte	.LANCHOR5
 14762 4c63 00       		.byte	0
 14763 4c64 00       		.byte	0
 14764 4c65 00       		.byte	0
 14765 4c66 37       		.uleb128 0x37
 14766 4c67 BF690000 		.4byte	0x69bf
 14767 4c6b C2000000 		.4byte	.LBB1183
 14768 4c6f 0E000000 		.4byte	.LBE1183-.LBB1183
 14769 4c73 01       		.byte	0x1
 14770 4c74 1B04     		.2byte	0x41b
 14771 4c76 C84C0000 		.4byte	0x4cc8
 14772 4c7a 39       		.uleb128 0x39
 14773 4c7b CB690000 		.4byte	0x69cb
 14774 4c7f 3A0C0000 		.4byte	.LLST220
 14775 4c83 39       		.uleb128 0x39
 14776 4c84 D6690000 		.4byte	0x69d6
 14777 4c88 4D0C0000 		.4byte	.LLST221
 14778 4c8c 3B       		.uleb128 0x3b
 14779 4c8d C2000000 		.4byte	.LBB1184
 14780 4c91 0E000000 		.4byte	.LBE1184-.LBB1184
 14781 4c95 42       		.uleb128 0x42
 14782 4c96 E1690000 		.4byte	0x69e1
 14783 4c9a 650C0000 		.4byte	.LLST222
 14784 4c9e 4F       		.uleb128 0x4f
 14785 4c9f D86A0000 		.4byte	0x6ad8
 14786 4ca3 CA000000 		.4byte	.LBB1185
 14787 4ca7 06000000 		.4byte	.LBE1185-.LBB1185
 14788 4cab 01       		.byte	0x1
 14789 4cac BA       		.byte	0xba
 14790 4cad 39       		.uleb128 0x39
 14791 4cae E56A0000 		.4byte	0x6ae5
 14792 4cb2 780C0000 		.4byte	.LLST223
 14793 4cb6 3D       		.uleb128 0x3d
 14794 4cb7 D0000000 		.4byte	.LVL492
 14795 4cbb 2C6D0000 		.4byte	0x6d2c
 14796 4cbf 3E       		.uleb128 0x3e
 14797 4cc0 01       		.uleb128 0x1
 14798 4cc1 50       		.byte	0x50
 14799 4cc2 01       		.uleb128 0x1
 14800 4cc3 3C       		.byte	0x3c
 14801 4cc4 00       		.byte	0
ARM GAS  C:\Users\mathi\AppData\Local\Temp\ccOm87JI.s 			page 261


 14802 4cc5 00       		.byte	0
 14803 4cc6 00       		.byte	0
 14804 4cc7 00       		.byte	0
 14805 4cc8 37       		.uleb128 0x37
 14806 4cc9 BF690000 		.4byte	0x69bf
 14807 4ccd 14010000 		.4byte	.LBB1187
 14808 4cd1 12000000 		.4byte	.LBE1187-.LBB1187
 14809 4cd5 01       		.byte	0x1
 14810 4cd6 2404     		.2byte	0x424
 14811 4cd8 2A4D0000 		.4byte	0x4d2a
 14812 4cdc 39       		.uleb128 0x39
 14813 4cdd CB690000 		.4byte	0x69cb
 14814 4ce1 8C0C0000 		.4byte	.LLST224
 14815 4ce5 39       		.uleb128 0x39
 14816 4ce6 D6690000 		.4byte	0x69d6
 14817 4cea 9F0C0000 		.4byte	.LLST225
 14818 4cee 3B       		.uleb128 0x3b
 14819 4cef 14010000 		.4byte	.LBB1188
 14820 4cf3 12000000 		.4byte	.LBE1188-.LBB1188
 14821 4cf7 42       		.uleb128 0x42
 14822 4cf8 E1690000 		.4byte	0x69e1
 14823 4cfc B70C0000 		.4byte	.LLST226
 14824 4d00 4F       		.uleb128 0x4f
 14825 4d01 D86A0000 		.4byte	0x6ad8
 14826 4d05 20010000 		.4byte	.LBB1189
 14827 4d09 06000000 		.4byte	.LBE1189-.LBB1189
 14828 4d0d 01       		.byte	0x1
 14829 4d0e BA       		.byte	0xba
 14830 4d0f 39       		.uleb128 0x39
 14831 4d10 E56A0000 		.4byte	0x6ae5
 14832 4d14 CA0C0000 		.4byte	.LLST227
 14833 4d18 3D       		.uleb128 0x3d
 14834 4d19 26010000 		.4byte	.LVL497
 14835 4d1d 2C6D0000 		.4byte	0x6d2c
 14836 4d21 3E       		.uleb128 0x3e
 14837 4d22 01       		.uleb128 0x1
 14838 4d23 50       		.byte	0x50
 14839 4d24 01       		.uleb128 0x1
 14840 4d25 3C       		.byte	0x3c
 14841 4d26 00       		.byte	0
 14842 4d27 00       		.byte	0
 14843 4d28 00       		.byte	0
 14844 4d29 00       		.byte	0
 14845 4d2a 3A       		.uleb128 0x3a
 14846 4d2b 84010000 		.4byte	.LVL504
 14847 4d2f 236D0000 		.4byte	0x6d23
 14848 4d33 00       		.byte	0
 14849 4d34 31       		.uleb128 0x31
 14850 4d35 1B140000 		.4byte	.LASF869
 14851 4d39 01       		.byte	0x1
 14852 4d3a E303     		.2byte	0x3e3
 14853 4d3c 00000000 		.4byte	.LFB278
 14854 4d40 38000000 		.4byte	.LFE278-.LFB278
 14855 4d44 01       		.uleb128 0x1
 14856 4d45 9C       		.byte	0x9c
 14857 4d46 744D0000 		.4byte	0x4d74
 14858 4d4a 48       		.uleb128 0x48
ARM GAS  C:\Users\mathi\AppData\Local\Temp\ccOm87JI.s 			page 262


 14859 4d4b 7F240000 		.4byte	.LASF849
 14860 4d4f 01       		.byte	0x1
 14861 4d50 E303     		.2byte	0x3e3
 14862 4d52 28360000 		.4byte	0x3628
 14863 4d56 DE0C0000 		.4byte	.LLST209
 14864 4d5a 33       		.uleb128 0x33
 14865 4d5b 631D0000 		.4byte	.LASF850
 14866 4d5f 01       		.byte	0x1
 14867 4d60 E403     		.2byte	0x3e4
 14868 4d62 953E0000 		.4byte	0x3e95
 14869 4d66 FF0C0000 		.4byte	.LLST210
 14870 4d6a 3A       		.uleb128 0x3a
 14871 4d6b 32000000 		.4byte	.LVL478
 14872 4d6f 236D0000 		.4byte	0x6d23
 14873 4d73 00       		.byte	0
 14874 4d74 31       		.uleb128 0x31
 14875 4d75 A4150000 		.4byte	.LASF870
 14876 4d79 01       		.byte	0x1
 14877 4d7a AD03     		.2byte	0x3ad
 14878 4d7c 00000000 		.4byte	.LFB277
 14879 4d80 4C020000 		.4byte	.LFE277-.LFB277
 14880 4d84 01       		.uleb128 0x1
 14881 4d85 9C       		.byte	0x9c
 14882 4d86 F34E0000 		.4byte	0x4ef3
 14883 4d8a 48       		.uleb128 0x48
 14884 4d8b 7F240000 		.4byte	.LASF849
 14885 4d8f 01       		.byte	0x1
 14886 4d90 AD03     		.2byte	0x3ad
 14887 4d92 28360000 		.4byte	0x3628
 14888 4d96 120D0000 		.4byte	.LLST199
 14889 4d9a 35       		.uleb128 0x35
 14890 4d9b 6900     		.ascii	"i\000"
 14891 4d9d 01       		.byte	0x1
 14892 4d9e AE03     		.2byte	0x3ae
 14893 4da0 25000000 		.4byte	0x25
 14894 4da4 300D0000 		.4byte	.LLST200
 14895 4da8 50       		.uleb128 0x50
 14896 4da9 631D0000 		.4byte	.LASF850
 14897 4dad 01       		.byte	0x1
 14898 4dae AF03     		.2byte	0x3af
 14899 4db0 953E0000 		.4byte	0x3e95
 14900 4db4 01       		.uleb128 0x1
 14901 4db5 54       		.byte	0x54
 14902 4db6 37       		.uleb128 0x37
 14903 4db7 BF690000 		.4byte	0x69bf
 14904 4dbb 0E000000 		.4byte	.LBB1166
 14905 4dbf 10000000 		.4byte	.LBE1166-.LBB1166
 14906 4dc3 01       		.byte	0x1
 14907 4dc4 B203     		.2byte	0x3b2
 14908 4dc6 184E0000 		.4byte	0x4e18
 14909 4dca 39       		.uleb128 0x39
 14910 4dcb CB690000 		.4byte	0x69cb
 14911 4dcf F80D0000 		.4byte	.LLST201
 14912 4dd3 39       		.uleb128 0x39
 14913 4dd4 D6690000 		.4byte	0x69d6
 14914 4dd8 160E0000 		.4byte	.LLST202
 14915 4ddc 3B       		.uleb128 0x3b
ARM GAS  C:\Users\mathi\AppData\Local\Temp\ccOm87JI.s 			page 263


 14916 4ddd 0E000000 		.4byte	.LBB1167
 14917 4de1 10000000 		.4byte	.LBE1167-.LBB1167
 14918 4de5 42       		.uleb128 0x42
 14919 4de6 E1690000 		.4byte	0x69e1
 14920 4dea 2A0E0000 		.4byte	.LLST203
 14921 4dee 4F       		.uleb128 0x4f
 14922 4def D86A0000 		.4byte	0x6ad8
 14923 4df3 18000000 		.4byte	.LBB1168
 14924 4df7 06000000 		.4byte	.LBE1168-.LBB1168
 14925 4dfb 01       		.byte	0x1
 14926 4dfc BA       		.byte	0xba
 14927 4dfd 39       		.uleb128 0x39
 14928 4dfe E56A0000 		.4byte	0x6ae5
 14929 4e02 3D0E0000 		.4byte	.LLST204
 14930 4e06 3D       		.uleb128 0x3d
 14931 4e07 1E000000 		.4byte	.LVL449
 14932 4e0b 2C6D0000 		.4byte	0x6d2c
 14933 4e0f 3E       		.uleb128 0x3e
 14934 4e10 01       		.uleb128 0x1
 14935 4e11 50       		.byte	0x50
 14936 4e12 01       		.uleb128 0x1
 14937 4e13 3C       		.byte	0x3c
 14938 4e14 00       		.byte	0
 14939 4e15 00       		.byte	0
 14940 4e16 00       		.byte	0
 14941 4e17 00       		.byte	0
 14942 4e18 37       		.uleb128 0x37
 14943 4e19 A7690000 		.4byte	0x69a7
 14944 4e1d BA010000 		.4byte	.LBB1170
 14945 4e21 04000000 		.4byte	.LBE1170-.LBB1170
 14946 4e25 01       		.byte	0x1
 14947 4e26 C103     		.2byte	0x3c1
 14948 4e28 3B4E0000 		.4byte	0x4e3b
 14949 4e2c 51       		.uleb128 0x51
 14950 4e2d B3690000 		.4byte	0x69b3
 14951 4e31 01       		.uleb128 0x1
 14952 4e32 56       		.byte	0x56
 14953 4e33 51       		.uleb128 0x51
 14954 4e34 B3690000 		.4byte	0x69b3
 14955 4e38 01       		.uleb128 0x1
 14956 4e39 56       		.byte	0x56
 14957 4e3a 00       		.byte	0
 14958 4e3b 37       		.uleb128 0x37
 14959 4e3c ED690000 		.4byte	0x69ed
 14960 4e40 C4010000 		.4byte	.LBB1172
 14961 4e44 12000000 		.4byte	.LBE1172-.LBB1172
 14962 4e48 01       		.byte	0x1
 14963 4e49 C503     		.2byte	0x3c5
 14964 4e4b 924E0000 		.4byte	0x4e92
 14965 4e4f 51       		.uleb128 0x51
 14966 4e50 F9690000 		.4byte	0x69f9
 14967 4e54 01       		.uleb128 0x1
 14968 4e55 56       		.byte	0x56
 14969 4e56 3B       		.uleb128 0x3b
 14970 4e57 C4010000 		.4byte	.LBB1173
 14971 4e5b 12000000 		.4byte	.LBE1173-.LBB1173
 14972 4e5f 42       		.uleb128 0x42
ARM GAS  C:\Users\mathi\AppData\Local\Temp\ccOm87JI.s 			page 264


 14973 4e60 046A0000 		.4byte	0x6a04
 14974 4e64 510E0000 		.4byte	.LLST205
 14975 4e68 4F       		.uleb128 0x4f
 14976 4e69 D86A0000 		.4byte	0x6ad8
 14977 4e6d D0010000 		.4byte	.LBB1174
 14978 4e71 06000000 		.4byte	.LBE1174-.LBB1174
 14979 4e75 01       		.byte	0x1
 14980 4e76 B0       		.byte	0xb0
 14981 4e77 39       		.uleb128 0x39
 14982 4e78 E56A0000 		.4byte	0x6ae5
 14983 4e7c 640E0000 		.4byte	.LLST206
 14984 4e80 3D       		.uleb128 0x3d
 14985 4e81 D6010000 		.4byte	.LVL469
 14986 4e85 2C6D0000 		.4byte	0x6d2c
 14987 4e89 3E       		.uleb128 0x3e
 14988 4e8a 01       		.uleb128 0x1
 14989 4e8b 50       		.byte	0x50
 14990 4e8c 01       		.uleb128 0x1
 14991 4e8d 3C       		.byte	0x3c
 14992 4e8e 00       		.byte	0
 14993 4e8f 00       		.byte	0
 14994 4e90 00       		.byte	0
 14995 4e91 00       		.byte	0
 14996 4e92 37       		.uleb128 0x37
 14997 4e93 53690000 		.4byte	0x6953
 14998 4e97 12020000 		.4byte	.LBB1176
 14999 4e9b 12000000 		.4byte	.LBE1176-.LBB1176
 15000 4e9f 01       		.byte	0x1
 15001 4ea0 D803     		.2byte	0x3d8
 15002 4ea2 E94E0000 		.4byte	0x4ee9
 15003 4ea6 51       		.uleb128 0x51
 15004 4ea7 63690000 		.4byte	0x6963
 15005 4eab 01       		.uleb128 0x1
 15006 4eac 56       		.byte	0x56
 15007 4ead 51       		.uleb128 0x51
 15008 4eae 63690000 		.4byte	0x6963
 15009 4eb2 01       		.uleb128 0x1
 15010 4eb3 56       		.byte	0x56
 15011 4eb4 39       		.uleb128 0x39
 15012 4eb5 6E690000 		.4byte	0x696e
 15013 4eb9 780E0000 		.4byte	.LLST207
 15014 4ebd 3B       		.uleb128 0x3b
 15015 4ebe 12020000 		.4byte	.LBB1177
 15016 4ec2 12000000 		.4byte	.LBE1177-.LBB1177
 15017 4ec6 42       		.uleb128 0x42
 15018 4ec7 79690000 		.4byte	0x6979
 15019 4ecb 8C0E0000 		.4byte	.LLST208
 15020 4ecf 3C       		.uleb128 0x3c
 15021 4ed0 84690000 		.4byte	0x6984
 15022 4ed4 3D       		.uleb128 0x3d
 15023 4ed5 24020000 		.4byte	.LVL471
 15024 4ed9 F56C0000 		.4byte	0x6cf5
 15025 4edd 3E       		.uleb128 0x3e
 15026 4ede 01       		.uleb128 0x1
 15027 4edf 50       		.byte	0x50
 15028 4ee0 05       		.uleb128 0x5
 15029 4ee1 03       		.byte	0x3
ARM GAS  C:\Users\mathi\AppData\Local\Temp\ccOm87JI.s 			page 265


 15030 4ee2 00000000 		.4byte	.LANCHOR5
 15031 4ee6 00       		.byte	0
 15032 4ee7 00       		.byte	0
 15033 4ee8 00       		.byte	0
 15034 4ee9 3A       		.uleb128 0x3a
 15035 4eea 3A020000 		.4byte	.LVL473
 15036 4eee 236D0000 		.4byte	0x6d23
 15037 4ef2 00       		.byte	0
 15038 4ef3 31       		.uleb128 0x31
 15039 4ef4 87030000 		.4byte	.LASF871
 15040 4ef8 01       		.byte	0x1
 15041 4ef9 8603     		.2byte	0x386
 15042 4efb 00000000 		.4byte	.LFB276
 15043 4eff C4000000 		.4byte	.LFE276-.LFB276
 15044 4f03 01       		.uleb128 0x1
 15045 4f04 9C       		.byte	0x9c
 15046 4f05 7A4F0000 		.4byte	0x4f7a
 15047 4f09 48       		.uleb128 0x48
 15048 4f0a 7F240000 		.4byte	.LASF849
 15049 4f0e 01       		.byte	0x1
 15050 4f0f 8603     		.2byte	0x386
 15051 4f11 28360000 		.4byte	0x3628
 15052 4f15 9F0E0000 		.4byte	.LLST196
 15053 4f19 33       		.uleb128 0x33
 15054 4f1a 631D0000 		.4byte	.LASF850
 15055 4f1e 01       		.byte	0x1
 15056 4f1f 8703     		.2byte	0x387
 15057 4f21 953E0000 		.4byte	0x3e95
 15058 4f25 D90E0000 		.4byte	.LLST197
 15059 4f29 3F       		.uleb128 0x3f
 15060 4f2a 106A0000 		.4byte	0x6a10
 15061 4f2e 12000000 		.4byte	.LBB1156
 15062 4f32 C8040000 		.4byte	.Ldebug_ranges0+0x4c8
 15063 4f36 01       		.byte	0x1
 15064 4f37 8E03     		.2byte	0x38e
 15065 4f39 5C4F0000 		.4byte	0x4f5c
 15066 4f3d 40       		.uleb128 0x40
 15067 4f3e 1C6A0000 		.4byte	0x6a1c
 15068 4f42 40       		.uleb128 0x40
 15069 4f43 1C6A0000 		.4byte	0x6a1c
 15070 4f47 43       		.uleb128 0x43
 15071 4f48 C8040000 		.4byte	.Ldebug_ranges0+0x4c8
 15072 4f4c 3C       		.uleb128 0x3c
 15073 4f4d 276A0000 		.4byte	0x6a27
 15074 4f51 42       		.uleb128 0x42
 15075 4f52 326A0000 		.4byte	0x6a32
 15076 4f56 040F0000 		.4byte	.LLST198
 15077 4f5a 00       		.byte	0
 15078 4f5b 00       		.byte	0
 15079 4f5c 52       		.uleb128 0x52
 15080 4f5d 8C000000 		.4byte	.LVL439
 15081 4f61 386D0000 		.4byte	0x6d38
 15082 4f65 704F0000 		.4byte	0x4f70
 15083 4f69 3E       		.uleb128 0x3e
 15084 4f6a 01       		.uleb128 0x1
 15085 4f6b 50       		.byte	0x50
 15086 4f6c 02       		.uleb128 0x2
ARM GAS  C:\Users\mathi\AppData\Local\Temp\ccOm87JI.s 			page 266


 15087 4f6d 08       		.byte	0x8
 15088 4f6e 43       		.byte	0x43
 15089 4f6f 00       		.byte	0
 15090 4f70 3A       		.uleb128 0x3a
 15091 4f71 B6000000 		.4byte	.LVL443
 15092 4f75 236D0000 		.4byte	0x6d23
 15093 4f79 00       		.byte	0
 15094 4f7a 31       		.uleb128 0x31
 15095 4f7b 620F0000 		.4byte	.LASF872
 15096 4f7f 01       		.byte	0x1
 15097 4f80 2603     		.2byte	0x326
 15098 4f82 00000000 		.4byte	.LFB275
 15099 4f86 80010000 		.4byte	.LFE275-.LFB275
 15100 4f8a 01       		.uleb128 0x1
 15101 4f8b 9C       		.byte	0x9c
 15102 4f8c 27510000 		.4byte	0x5127
 15103 4f90 48       		.uleb128 0x48
 15104 4f91 7F240000 		.4byte	.LASF849
 15105 4f95 01       		.byte	0x1
 15106 4f96 2603     		.2byte	0x326
 15107 4f98 28360000 		.4byte	0x3628
 15108 4f9c 220F0000 		.4byte	.LLST185
 15109 4fa0 33       		.uleb128 0x33
 15110 4fa1 631D0000 		.4byte	.LASF850
 15111 4fa5 01       		.byte	0x1
 15112 4fa6 2703     		.2byte	0x327
 15113 4fa8 953E0000 		.4byte	0x3e95
 15114 4fac 7D0F0000 		.4byte	.LLST186
 15115 4fb0 37       		.uleb128 0x37
 15116 4fb1 3C6A0000 		.4byte	0x6a3c
 15117 4fb5 46000000 		.4byte	.LBB1142
 15118 4fb9 1C000000 		.4byte	.LBE1142-.LBB1142
 15119 4fbd 01       		.byte	0x1
 15120 4fbe 5A03     		.2byte	0x35a
 15121 4fc0 36500000 		.4byte	0x5036
 15122 4fc4 39       		.uleb128 0x39
 15123 4fc5 486A0000 		.4byte	0x6a48
 15124 4fc9 AC0F0000 		.4byte	.LLST187
 15125 4fcd 3B       		.uleb128 0x3b
 15126 4fce 46000000 		.4byte	.LBB1143
 15127 4fd2 1C000000 		.4byte	.LBE1143-.LBB1143
 15128 4fd6 42       		.uleb128 0x42
 15129 4fd7 536A0000 		.4byte	0x6a53
 15130 4fdb CA0F0000 		.4byte	.LLST188
 15131 4fdf 53       		.uleb128 0x53
 15132 4fe0 D86A0000 		.4byte	0x6ad8
 15133 4fe4 46000000 		.4byte	.LBB1144
 15134 4fe8 06000000 		.4byte	.LBE1144-.LBB1144
 15135 4fec 01       		.byte	0x1
 15136 4fed 76       		.byte	0x76
 15137 4fee 0C500000 		.4byte	0x500c
 15138 4ff2 39       		.uleb128 0x39
 15139 4ff3 E56A0000 		.4byte	0x6ae5
 15140 4ff7 DD0F0000 		.4byte	.LLST189
 15141 4ffb 3D       		.uleb128 0x3d
 15142 4ffc 4C000000 		.4byte	.LVL410
 15143 5000 2C6D0000 		.4byte	0x6d2c
ARM GAS  C:\Users\mathi\AppData\Local\Temp\ccOm87JI.s 			page 267


 15144 5004 3E       		.uleb128 0x3e
 15145 5005 01       		.uleb128 0x1
 15146 5006 50       		.byte	0x50
 15147 5007 02       		.uleb128 0x2
 15148 5008 08       		.byte	0x8
 15149 5009 20       		.byte	0x20
 15150 500a 00       		.byte	0
 15151 500b 00       		.byte	0
 15152 500c 4F       		.uleb128 0x4f
 15153 500d D86A0000 		.4byte	0x6ad8
 15154 5011 56000000 		.4byte	.LBB1146
 15155 5015 06000000 		.4byte	.LBE1146-.LBB1146
 15156 5019 01       		.byte	0x1
 15157 501a 7D       		.byte	0x7d
 15158 501b 39       		.uleb128 0x39
 15159 501c E56A0000 		.4byte	0x6ae5
 15160 5020 F20F0000 		.4byte	.LLST190
 15161 5024 3D       		.uleb128 0x3d
 15162 5025 5C000000 		.4byte	.LVL412
 15163 5029 2C6D0000 		.4byte	0x6d2c
 15164 502d 3E       		.uleb128 0x3e
 15165 502e 01       		.uleb128 0x1
 15166 502f 50       		.byte	0x50
 15167 5030 01       		.uleb128 0x1
 15168 5031 3C       		.byte	0x3c
 15169 5032 00       		.byte	0
 15170 5033 00       		.byte	0
 15171 5034 00       		.byte	0
 15172 5035 00       		.byte	0
 15173 5036 37       		.uleb128 0x37
 15174 5037 106A0000 		.4byte	0x6a10
 15175 503b 6A000000 		.4byte	.LBB1148
 15176 503f 72000000 		.4byte	.LBE1148-.LBB1148
 15177 5043 01       		.byte	0x1
 15178 5044 6003     		.2byte	0x360
 15179 5046 79500000 		.4byte	0x5079
 15180 504a 39       		.uleb128 0x39
 15181 504b 1C6A0000 		.4byte	0x6a1c
 15182 504f 12100000 		.4byte	.LLST191
 15183 5053 39       		.uleb128 0x39
 15184 5054 1C6A0000 		.4byte	0x6a1c
 15185 5058 12100000 		.4byte	.LLST191
 15186 505c 3B       		.uleb128 0x3b
 15187 505d 6A000000 		.4byte	.LBB1149
 15188 5061 72000000 		.4byte	.LBE1149-.LBB1149
 15189 5065 42       		.uleb128 0x42
 15190 5066 276A0000 		.4byte	0x6a27
 15191 506a 30100000 		.4byte	.LLST193
 15192 506e 42       		.uleb128 0x42
 15193 506f 326A0000 		.4byte	0x6a32
 15194 5073 43100000 		.4byte	.LLST194
 15195 5077 00       		.byte	0
 15196 5078 00       		.byte	0
 15197 5079 3F       		.uleb128 0x3f
 15198 507a 2E6B0000 		.4byte	0x6b2e
 15199 507e 44010000 		.4byte	.LBB1150
 15200 5082 B0040000 		.4byte	.Ldebug_ranges0+0x4b0
ARM GAS  C:\Users\mathi\AppData\Local\Temp\ccOm87JI.s 			page 268


 15201 5086 01       		.byte	0x1
 15202 5087 7503     		.2byte	0x375
 15203 5089 C9500000 		.4byte	0x50c9
 15204 508d 39       		.uleb128 0x39
 15205 508e 3E6B0000 		.4byte	0x6b3e
 15206 5092 62100000 		.4byte	.LLST195
 15207 5096 43       		.uleb128 0x43
 15208 5097 B0040000 		.4byte	.Ldebug_ranges0+0x4b0
 15209 509b 3C       		.uleb128 0x3c
 15210 509c 486B0000 		.4byte	0x6b48
 15211 50a0 52       		.uleb128 0x52
 15212 50a1 54010000 		.4byte	.LVL427
 15213 50a5 F56C0000 		.4byte	0x6cf5
 15214 50a9 B7500000 		.4byte	0x50b7
 15215 50ad 3E       		.uleb128 0x3e
 15216 50ae 01       		.uleb128 0x1
 15217 50af 50       		.byte	0x50
 15218 50b0 05       		.uleb128 0x5
 15219 50b1 03       		.byte	0x3
 15220 50b2 00000000 		.4byte	.LANCHOR3
 15221 50b6 00       		.byte	0
 15222 50b7 3D       		.uleb128 0x3d
 15223 50b8 5A010000 		.4byte	.LVL428
 15224 50bc 436D0000 		.4byte	0x6d43
 15225 50c0 3E       		.uleb128 0x3e
 15226 50c1 01       		.uleb128 0x1
 15227 50c2 50       		.byte	0x50
 15228 50c3 02       		.uleb128 0x2
 15229 50c4 77       		.byte	0x77
 15230 50c5 00       		.sleb128 0
 15231 50c6 00       		.byte	0
 15232 50c7 00       		.byte	0
 15233 50c8 00       		.byte	0
 15234 50c9 52       		.uleb128 0x52
 15235 50ca 2E010000 		.4byte	.LVL422
 15236 50ce 4F6D0000 		.4byte	0x6d4f
 15237 50d2 E2500000 		.4byte	0x50e2
 15238 50d6 3E       		.uleb128 0x3e
 15239 50d7 01       		.uleb128 0x1
 15240 50d8 50       		.byte	0x50
 15241 50d9 02       		.uleb128 0x2
 15242 50da 08       		.byte	0x8
 15243 50db 43       		.byte	0x43
 15244 50dc 3E       		.uleb128 0x3e
 15245 50dd 01       		.uleb128 0x1
 15246 50de 51       		.byte	0x51
 15247 50df 01       		.uleb128 0x1
 15248 50e0 3E       		.byte	0x3e
 15249 50e1 00       		.byte	0
 15250 50e2 52       		.uleb128 0x52
 15251 50e3 42010000 		.4byte	.LVL424
 15252 50e7 5A6D0000 		.4byte	0x6d5a
 15253 50eb 14510000 		.4byte	0x5114
 15254 50ef 3E       		.uleb128 0x3e
 15255 50f0 01       		.uleb128 0x1
 15256 50f1 50       		.byte	0x50
 15257 50f2 03       		.uleb128 0x3
ARM GAS  C:\Users\mathi\AppData\Local\Temp\ccOm87JI.s 			page 269


 15258 50f3 74       		.byte	0x74
 15259 50f4 E800     		.sleb128 104
 15260 50f6 3E       		.uleb128 0x3e
 15261 50f7 01       		.uleb128 0x1
 15262 50f8 51       		.byte	0x51
 15263 50f9 03       		.uleb128 0x3
 15264 50fa 0A       		.byte	0xa
 15265 50fb F801     		.2byte	0x1f8
 15266 50fd 3E       		.uleb128 0x3e
 15267 50fe 01       		.uleb128 0x1
 15268 50ff 52       		.byte	0x52
 15269 5100 02       		.uleb128 0x2
 15270 5101 08       		.byte	0x8
 15271 5102 4A       		.byte	0x4a
 15272 5103 3E       		.uleb128 0x3e
 15273 5104 01       		.uleb128 0x1
 15274 5105 53       		.byte	0x53
 15275 5106 05       		.uleb128 0x5
 15276 5107 03       		.byte	0x3
 15277 5108 00000000 		.4byte	usb_lld_pump
 15278 510c 3E       		.uleb128 0x3e
 15279 510d 02       		.uleb128 0x2
 15280 510e 7D       		.byte	0x7d
 15281 510f 00       		.sleb128 0
 15282 5110 02       		.uleb128 0x2
 15283 5111 74       		.byte	0x74
 15284 5112 00       		.sleb128 0
 15285 5113 00       		.byte	0
 15286 5114 3A       		.uleb128 0x3a
 15287 5115 5E010000 		.4byte	.LVL429
 15288 5119 0C6D0000 		.4byte	0x6d0c
 15289 511d 3A       		.uleb128 0x3a
 15290 511e 64010000 		.4byte	.LVL431
 15291 5122 236D0000 		.4byte	0x6d23
 15292 5126 00       		.byte	0
 15293 5127 31       		.uleb128 0x31
 15294 5128 23180000 		.4byte	.LASF873
 15295 512c 01       		.byte	0x1
 15296 512d E802     		.2byte	0x2e8
 15297 512f 00000000 		.4byte	.LFB274
 15298 5133 5C000000 		.4byte	.LFE274-.LFB274
 15299 5137 01       		.uleb128 0x1
 15300 5138 9C       		.byte	0x9c
 15301 5139 BC510000 		.4byte	0x51bc
 15302 513d 54       		.uleb128 0x54
 15303 513e 90040000 		.4byte	.Ldebug_ranges0+0x490
 15304 5142 AB510000 		.4byte	0x51ab
 15305 5146 55       		.uleb128 0x55
 15306 5147 77737000 		.ascii	"wsp\000"
 15307 514b 01       		.byte	0x1
 15308 514c F702     		.2byte	0x2f7
 15309 514e 5D010000 		.4byte	0x15d
 15310 5152 06       		.uleb128 0x6
 15311 5153 03       		.byte	0x3
 15312 5154 68000000 		.4byte	USBD1+104
 15313 5158 9F       		.byte	0x9f
 15314 5159 52       		.uleb128 0x52
ARM GAS  C:\Users\mathi\AppData\Local\Temp\ccOm87JI.s 			page 270


 15315 515a 30000000 		.4byte	.LVL401
 15316 515e 656D0000 		.4byte	0x6d65
 15317 5162 7B510000 		.4byte	0x517b
 15318 5166 3E       		.uleb128 0x3e
 15319 5167 01       		.uleb128 0x1
 15320 5168 50       		.byte	0x50
 15321 5169 03       		.uleb128 0x3
 15322 516a 74       		.byte	0x74
 15323 516b E800     		.sleb128 104
 15324 516d 3E       		.uleb128 0x3e
 15325 516e 01       		.uleb128 0x1
 15326 516f 51       		.byte	0x51
 15327 5170 03       		.uleb128 0x3
 15328 5171 74       		.byte	0x74
 15329 5172 D001     		.sleb128 208
 15330 5174 3E       		.uleb128 0x3e
 15331 5175 01       		.uleb128 0x1
 15332 5176 52       		.byte	0x52
 15333 5177 02       		.uleb128 0x2
 15334 5178 09       		.byte	0x9
 15335 5179 FF       		.byte	0xff
 15336 517a 00       		.byte	0
 15337 517b 56       		.uleb128 0x56
 15338 517c 4C000000 		.4byte	.LVL402
 15339 5180 656D0000 		.4byte	0x6d65
 15340 5184 A1510000 		.4byte	0x51a1
 15341 5188 3E       		.uleb128 0x3e
 15342 5189 01       		.uleb128 0x1
 15343 518a 50       		.byte	0x50
 15344 518b 05       		.uleb128 0x5
 15345 518c 03       		.byte	0x3
 15346 518d D0000000 		.4byte	.LANCHOR1+208
 15347 5191 3E       		.uleb128 0x3e
 15348 5192 01       		.uleb128 0x1
 15349 5193 51       		.byte	0x51
 15350 5194 05       		.uleb128 0x5
 15351 5195 03       		.byte	0x3
 15352 5196 60020000 		.4byte	.LANCHOR1+608
 15353 519a 3E       		.uleb128 0x3e
 15354 519b 01       		.uleb128 0x1
 15355 519c 52       		.byte	0x52
 15356 519d 02       		.uleb128 0x2
 15357 519e 08       		.byte	0x8
 15358 519f 55       		.byte	0x55
 15359 51a0 00       		.byte	0
 15360 51a1 3A       		.uleb128 0x3a
 15361 51a2 50000000 		.4byte	.LVL403
 15362 51a6 236D0000 		.4byte	0x6d23
 15363 51aa 00       		.byte	0
 15364 51ab 3D       		.uleb128 0x3d
 15365 51ac 12000000 		.4byte	.LVL399
 15366 51b0 706D0000 		.4byte	0x6d70
 15367 51b4 3E       		.uleb128 0x3e
 15368 51b5 01       		.uleb128 0x1
 15369 51b6 50       		.byte	0x50
 15370 51b7 02       		.uleb128 0x2
 15371 51b8 74       		.byte	0x74
ARM GAS  C:\Users\mathi\AppData\Local\Temp\ccOm87JI.s 			page 271


 15372 51b9 00       		.sleb128 0
 15373 51ba 00       		.byte	0
 15374 51bb 00       		.byte	0
 15375 51bc 31       		.uleb128 0x31
 15376 51bd 0A110000 		.4byte	.LASF874
 15377 51c1 01       		.byte	0x1
 15378 51c2 C202     		.2byte	0x2c2
 15379 51c4 00000000 		.4byte	.LFB273
 15380 51c8 6A070000 		.4byte	.LFE273-.LFB273
 15381 51cc 01       		.uleb128 0x1
 15382 51cd 9C       		.byte	0x9c
 15383 51ce 3B660000 		.4byte	0x663b
 15384 51d2 3F       		.uleb128 0x3f
 15385 51d3 3B660000 		.4byte	0x663b
 15386 51d7 06000000 		.4byte	.LBB817
 15387 51db B8010000 		.4byte	.Ldebug_ranges0+0x1b8
 15388 51df 01       		.byte	0x1
 15389 51e0 C602     		.2byte	0x2c6
 15390 51e2 0D660000 		.4byte	0x660d
 15391 51e6 39       		.uleb128 0x39
 15392 51e7 48660000 		.4byte	0x6648
 15393 51eb 80100000 		.4byte	.LLST57
 15394 51ef 43       		.uleb128 0x43
 15395 51f0 B8010000 		.4byte	.Ldebug_ranges0+0x1b8
 15396 51f4 42       		.uleb128 0x42
 15397 51f5 54660000 		.4byte	0x6654
 15398 51f9 A8100000 		.4byte	.LLST58
 15399 51fd 42       		.uleb128 0x42
 15400 51fe 60660000 		.4byte	0x6660
 15401 5202 C6100000 		.4byte	.LLST59
 15402 5206 42       		.uleb128 0x42
 15403 5207 6C660000 		.4byte	0x666c
 15404 520b 05110000 		.4byte	.LLST60
 15405 520f 37       		.uleb128 0x37
 15406 5210 FB6A0000 		.4byte	0x6afb
 15407 5214 8E000000 		.4byte	.LBB819
 15408 5218 0E000000 		.4byte	.LBE819-.LBB819
 15409 521c 01       		.byte	0x1
 15410 521d 8B02     		.2byte	0x28b
 15411 521f 87520000 		.4byte	0x5287
 15412 5223 38       		.uleb128 0x38
 15413 5224 746B0000 		.4byte	0x6b74
 15414 5228 8E000000 		.4byte	.LBB820
 15415 522c 0E000000 		.4byte	.LBE820-.LBB820
 15416 5230 05       		.byte	0x5
 15417 5231 D501     		.2byte	0x1d5
 15418 5233 37       		.uleb128 0x37
 15419 5234 AA6B0000 		.4byte	0x6baa
 15420 5238 8E000000 		.4byte	.LBB822
 15421 523c 06000000 		.4byte	.LBE822-.LBB822
 15422 5240 04       		.byte	0x4
 15423 5241 8401     		.2byte	0x184
 15424 5243 73520000 		.4byte	0x5273
 15425 5247 38       		.uleb128 0x38
 15426 5248 BC6B0000 		.4byte	0x6bbc
 15427 524c 8E000000 		.4byte	.LBB823
 15428 5250 06000000 		.4byte	.LBE823-.LBB823
ARM GAS  C:\Users\mathi\AppData\Local\Temp\ccOm87JI.s 			page 272


 15429 5254 14       		.byte	0x14
 15430 5255 DB01     		.2byte	0x1db
 15431 5257 38       		.uleb128 0x38
 15432 5258 C56B0000 		.4byte	0x6bc5
 15433 525c 8E000000 		.4byte	.LBB824
 15434 5260 06000000 		.4byte	.LBE824-.LBB824
 15435 5264 14       		.byte	0x14
 15436 5265 BF01     		.2byte	0x1bf
 15437 5267 39       		.uleb128 0x39
 15438 5268 D26B0000 		.4byte	0x6bd2
 15439 526c 39110000 		.4byte	.LLST61
 15440 5270 00       		.byte	0
 15441 5271 00       		.byte	0
 15442 5272 00       		.byte	0
 15443 5273 3A       		.uleb128 0x3a
 15444 5274 98000000 		.4byte	.LVL159
 15445 5278 7C6D0000 		.4byte	0x6d7c
 15446 527c 3A       		.uleb128 0x3a
 15447 527d 9C000000 		.4byte	.LVL160
 15448 5281 876D0000 		.4byte	0x6d87
 15449 5285 00       		.byte	0
 15450 5286 00       		.byte	0
 15451 5287 3F       		.uleb128 0x3f
 15452 5288 8B6A0000 		.4byte	0x6a8b
 15453 528c 9E000000 		.4byte	.LBB826
 15454 5290 D8010000 		.4byte	.Ldebug_ranges0+0x1d8
 15455 5294 01       		.byte	0x1
 15456 5295 8D02     		.2byte	0x28d
 15457 5297 C6520000 		.4byte	0x52c6
 15458 529b 39       		.uleb128 0x39
 15459 529c A46A0000 		.4byte	0x6aa4
 15460 52a0 4E110000 		.4byte	.LLST62
 15461 52a4 39       		.uleb128 0x39
 15462 52a5 986A0000 		.4byte	0x6a98
 15463 52a9 62110000 		.4byte	.LLST63
 15464 52ad 3D       		.uleb128 0x3d
 15465 52ae AC000000 		.4byte	.LVL162
 15466 52b2 926D0000 		.4byte	0x6d92
 15467 52b6 3E       		.uleb128 0x3e
 15468 52b7 01       		.uleb128 0x1
 15469 52b8 50       		.byte	0x50
 15470 52b9 05       		.uleb128 0x5
 15471 52ba 03       		.byte	0x3
 15472 52bb 60000000 		.4byte	.LANCHOR1+96
 15473 52bf 3E       		.uleb128 0x3e
 15474 52c0 01       		.uleb128 0x1
 15475 52c1 51       		.byte	0x51
 15476 52c2 01       		.uleb128 0x1
 15477 52c3 30       		.byte	0x30
 15478 52c4 00       		.byte	0
 15479 52c5 00       		.byte	0
 15480 52c6 37       		.uleb128 0x37
 15481 52c7 F26A0000 		.4byte	0x6af2
 15482 52cb AC000000 		.4byte	.LBB830
 15483 52cf 10000000 		.4byte	.LBE830-.LBB830
 15484 52d3 01       		.byte	0x1
 15485 52d4 8E02     		.2byte	0x28e
ARM GAS  C:\Users\mathi\AppData\Local\Temp\ccOm87JI.s 			page 273


 15486 52d6 3E530000 		.4byte	0x533e
 15487 52da 38       		.uleb128 0x38
 15488 52db 6B6B0000 		.4byte	0x6b6b
 15489 52df AC000000 		.4byte	.LBB831
 15490 52e3 10000000 		.4byte	.LBE831-.LBB831
 15491 52e7 05       		.byte	0x5
 15492 52e8 E001     		.2byte	0x1e0
 15493 52ea 37       		.uleb128 0x37
 15494 52eb A16B0000 		.4byte	0x6ba1
 15495 52ef B4000000 		.4byte	.LBB833
 15496 52f3 08000000 		.4byte	.LBE833-.LBB833
 15497 52f7 04       		.byte	0x4
 15498 52f8 9A01     		.2byte	0x19a
 15499 52fa 2A530000 		.4byte	0x532a
 15500 52fe 38       		.uleb128 0x38
 15501 52ff B36B0000 		.4byte	0x6bb3
 15502 5303 B4000000 		.4byte	.LBB834
 15503 5307 08000000 		.4byte	.LBE834-.LBB834
 15504 530b 14       		.byte	0x14
 15505 530c E601     		.2byte	0x1e6
 15506 530e 38       		.uleb128 0x38
 15507 530f C56B0000 		.4byte	0x6bc5
 15508 5313 B4000000 		.4byte	.LBB835
 15509 5317 08000000 		.4byte	.LBE835-.LBB835
 15510 531b 14       		.byte	0x14
 15511 531c CD01     		.2byte	0x1cd
 15512 531e 39       		.uleb128 0x39
 15513 531f D26B0000 		.4byte	0x6bd2
 15514 5323 7A110000 		.4byte	.LLST64
 15515 5327 00       		.byte	0
 15516 5328 00       		.byte	0
 15517 5329 00       		.byte	0
 15518 532a 3A       		.uleb128 0x3a
 15519 532b B0000000 		.4byte	.LVL163
 15520 532f 9D6D0000 		.4byte	0x6d9d
 15521 5333 3A       		.uleb128 0x3a
 15522 5334 B4000000 		.4byte	.LVL164
 15523 5338 A86D0000 		.4byte	0x6da8
 15524 533c 00       		.byte	0
 15525 533d 00       		.byte	0
 15526 533e 3F       		.uleb128 0x3f
 15527 533f 79660000 		.4byte	0x6679
 15528 5343 D2000000 		.4byte	.LBB837
 15529 5347 F0010000 		.4byte	.Ldebug_ranges0+0x1f0
 15530 534b 01       		.byte	0x1
 15531 534c AB02     		.2byte	0x2ab
 15532 534e EE540000 		.4byte	0x54ee
 15533 5352 39       		.uleb128 0x39
 15534 5353 86660000 		.4byte	0x6686
 15535 5357 8E110000 		.4byte	.LLST65
 15536 535b 39       		.uleb128 0x39
 15537 535c 92660000 		.4byte	0x6692
 15538 5360 B6110000 		.4byte	.LLST66
 15539 5364 43       		.uleb128 0x43
 15540 5365 F0010000 		.4byte	.Ldebug_ranges0+0x1f0
 15541 5369 42       		.uleb128 0x42
 15542 536a 9D660000 		.4byte	0x669d
ARM GAS  C:\Users\mathi\AppData\Local\Temp\ccOm87JI.s 			page 274


 15543 536e D6110000 		.4byte	.LLST67
 15544 5372 42       		.uleb128 0x42
 15545 5373 A9660000 		.4byte	0x66a9
 15546 5377 F4110000 		.4byte	.LLST68
 15547 537b 44       		.uleb128 0x44
 15548 537c B5660000 		.4byte	0x66b5
 15549 5380 08020000 		.4byte	.Ldebug_ranges0+0x208
 15550 5384 DB540000 		.4byte	0x54db
 15551 5388 42       		.uleb128 0x42
 15552 5389 B6660000 		.4byte	0x66b6
 15553 538d 12120000 		.4byte	.LLST69
 15554 5391 37       		.uleb128 0x37
 15555 5392 E2490000 		.4byte	0x49e2
 15556 5396 42050000 		.4byte	.LBB840
 15557 539a 22000000 		.4byte	.LBE840-.LBB840
 15558 539e 01       		.byte	0x1
 15559 539f 5C02     		.2byte	0x25c
 15560 53a1 D4530000 		.4byte	0x53d4
 15561 53a5 39       		.uleb128 0x39
 15562 53a6 FB490000 		.4byte	0x49fb
 15563 53aa 4B120000 		.4byte	.LLST70
 15564 53ae 39       		.uleb128 0x39
 15565 53af EF490000 		.4byte	0x49ef
 15566 53b3 5F120000 		.4byte	.LLST71
 15567 53b7 3B       		.uleb128 0x3b
 15568 53b8 42050000 		.4byte	.LBB841
 15569 53bc 22000000 		.4byte	.LBE841-.LBB841
 15570 53c0 42       		.uleb128 0x42
 15571 53c1 064A0000 		.4byte	0x4a06
 15572 53c5 77120000 		.4byte	.LLST72
 15573 53c9 42       		.uleb128 0x42
 15574 53ca 124A0000 		.4byte	0x4a12
 15575 53ce A5120000 		.4byte	.LLST73
 15576 53d2 00       		.byte	0
 15577 53d3 00       		.byte	0
 15578 53d4 37       		.uleb128 0x37
 15579 53d5 746B0000 		.4byte	0x6b74
 15580 53d9 64050000 		.4byte	.LBB842
 15581 53dd 0E000000 		.4byte	.LBE842-.LBB842
 15582 53e1 01       		.byte	0x1
 15583 53e2 5D02     		.2byte	0x25d
 15584 53e4 3B540000 		.4byte	0x543b
 15585 53e8 37       		.uleb128 0x37
 15586 53e9 AA6B0000 		.4byte	0x6baa
 15587 53ed 64050000 		.4byte	.LBB844
 15588 53f1 06000000 		.4byte	.LBE844-.LBB844
 15589 53f5 04       		.byte	0x4
 15590 53f6 8401     		.2byte	0x184
 15591 53f8 28540000 		.4byte	0x5428
 15592 53fc 38       		.uleb128 0x38
 15593 53fd BC6B0000 		.4byte	0x6bbc
 15594 5401 64050000 		.4byte	.LBB845
 15595 5405 06000000 		.4byte	.LBE845-.LBB845
 15596 5409 14       		.byte	0x14
 15597 540a DB01     		.2byte	0x1db
 15598 540c 38       		.uleb128 0x38
 15599 540d C56B0000 		.4byte	0x6bc5
ARM GAS  C:\Users\mathi\AppData\Local\Temp\ccOm87JI.s 			page 275


 15600 5411 64050000 		.4byte	.LBB846
 15601 5415 06000000 		.4byte	.LBE846-.LBB846
 15602 5419 14       		.byte	0x14
 15603 541a BF01     		.2byte	0x1bf
 15604 541c 39       		.uleb128 0x39
 15605 541d D26B0000 		.4byte	0x6bd2
 15606 5421 B8120000 		.4byte	.LLST74
 15607 5425 00       		.byte	0
 15608 5426 00       		.byte	0
 15609 5427 00       		.byte	0
 15610 5428 3A       		.uleb128 0x3a
 15611 5429 6E050000 		.4byte	.LVL321
 15612 542d 7C6D0000 		.4byte	0x6d7c
 15613 5431 3A       		.uleb128 0x3a
 15614 5432 72050000 		.4byte	.LVL322
 15615 5436 876D0000 		.4byte	0x6d87
 15616 543a 00       		.byte	0
 15617 543b 37       		.uleb128 0x37
 15618 543c 7E490000 		.4byte	0x497e
 15619 5440 72050000 		.4byte	.LBB848
 15620 5444 0E000000 		.4byte	.LBE848-.LBB848
 15621 5448 01       		.byte	0x1
 15622 5449 5E02     		.2byte	0x25e
 15623 544b 62540000 		.4byte	0x5462
 15624 544f 39       		.uleb128 0x39
 15625 5450 97490000 		.4byte	0x4997
 15626 5454 CD120000 		.4byte	.LLST75
 15627 5458 39       		.uleb128 0x39
 15628 5459 8B490000 		.4byte	0x498b
 15629 545d E1120000 		.4byte	.LLST76
 15630 5461 00       		.byte	0
 15631 5462 37       		.uleb128 0x37
 15632 5463 6B6B0000 		.4byte	0x6b6b
 15633 5467 80050000 		.4byte	.LBB850
 15634 546b 0E000000 		.4byte	.LBE850-.LBB850
 15635 546f 01       		.byte	0x1
 15636 5470 5F02     		.2byte	0x25f
 15637 5472 C9540000 		.4byte	0x54c9
 15638 5476 37       		.uleb128 0x37
 15639 5477 A16B0000 		.4byte	0x6ba1
 15640 547b 88050000 		.4byte	.LBB852
 15641 547f 06000000 		.4byte	.LBE852-.LBB852
 15642 5483 04       		.byte	0x4
 15643 5484 9A01     		.2byte	0x19a
 15644 5486 B6540000 		.4byte	0x54b6
 15645 548a 38       		.uleb128 0x38
 15646 548b B36B0000 		.4byte	0x6bb3
 15647 548f 88050000 		.4byte	.LBB853
 15648 5493 06000000 		.4byte	.LBE853-.LBB853
 15649 5497 14       		.byte	0x14
 15650 5498 E601     		.2byte	0x1e6
 15651 549a 38       		.uleb128 0x38
 15652 549b C56B0000 		.4byte	0x6bc5
 15653 549f 88050000 		.4byte	.LBB854
 15654 54a3 06000000 		.4byte	.LBE854-.LBB854
 15655 54a7 14       		.byte	0x14
 15656 54a8 CD01     		.2byte	0x1cd
ARM GAS  C:\Users\mathi\AppData\Local\Temp\ccOm87JI.s 			page 276


 15657 54aa 39       		.uleb128 0x39
 15658 54ab D26B0000 		.4byte	0x6bd2
 15659 54af F9120000 		.4byte	.LLST77
 15660 54b3 00       		.byte	0
 15661 54b4 00       		.byte	0
 15662 54b5 00       		.byte	0
 15663 54b6 3A       		.uleb128 0x3a
 15664 54b7 84050000 		.4byte	.LVL324
 15665 54bb 9D6D0000 		.4byte	0x6d9d
 15666 54bf 3A       		.uleb128 0x3a
 15667 54c0 88050000 		.4byte	.LVL325
 15668 54c4 A86D0000 		.4byte	0x6da8
 15669 54c8 00       		.byte	0
 15670 54c9 57       		.uleb128 0x57
 15671 54ca 1C010000 		.4byte	.LVL175
 15672 54ce 3E       		.uleb128 0x3e
 15673 54cf 01       		.uleb128 0x1
 15674 54d0 50       		.byte	0x50
 15675 54d1 02       		.uleb128 0x2
 15676 54d2 76       		.byte	0x76
 15677 54d3 00       		.sleb128 0
 15678 54d4 3E       		.uleb128 0x3e
 15679 54d5 01       		.uleb128 0x1
 15680 54d6 51       		.byte	0x51
 15681 54d7 01       		.uleb128 0x1
 15682 54d8 33       		.byte	0x33
 15683 54d9 00       		.byte	0
 15684 54da 00       		.byte	0
 15685 54db 57       		.uleb128 0x57
 15686 54dc F2000000 		.4byte	.LVL171
 15687 54e0 3E       		.uleb128 0x3e
 15688 54e1 01       		.uleb128 0x1
 15689 54e2 50       		.byte	0x50
 15690 54e3 02       		.uleb128 0x2
 15691 54e4 76       		.byte	0x76
 15692 54e5 00       		.sleb128 0
 15693 54e6 3E       		.uleb128 0x3e
 15694 54e7 01       		.uleb128 0x1
 15695 54e8 51       		.byte	0x51
 15696 54e9 01       		.uleb128 0x1
 15697 54ea 33       		.byte	0x33
 15698 54eb 00       		.byte	0
 15699 54ec 00       		.byte	0
 15700 54ed 00       		.byte	0
 15701 54ee 3F       		.uleb128 0x3f
 15702 54ef 79660000 		.4byte	0x6679
 15703 54f3 1E010000 		.4byte	.LBB858
 15704 54f7 20020000 		.4byte	.Ldebug_ranges0+0x220
 15705 54fb 01       		.byte	0x1
 15706 54fc A502     		.2byte	0x2a5
 15707 54fe 9E560000 		.4byte	0x569e
 15708 5502 39       		.uleb128 0x39
 15709 5503 86660000 		.4byte	0x6686
 15710 5507 0D130000 		.4byte	.LLST78
 15711 550b 39       		.uleb128 0x39
 15712 550c 92660000 		.4byte	0x6692
 15713 5510 45130000 		.4byte	.LLST79
ARM GAS  C:\Users\mathi\AppData\Local\Temp\ccOm87JI.s 			page 277


 15714 5514 43       		.uleb128 0x43
 15715 5515 20020000 		.4byte	.Ldebug_ranges0+0x220
 15716 5519 42       		.uleb128 0x42
 15717 551a 9D660000 		.4byte	0x669d
 15718 551e 71130000 		.4byte	.LLST80
 15719 5522 42       		.uleb128 0x42
 15720 5523 A9660000 		.4byte	0x66a9
 15721 5527 9A130000 		.4byte	.LLST81
 15722 552b 44       		.uleb128 0x44
 15723 552c B5660000 		.4byte	0x66b5
 15724 5530 38020000 		.4byte	.Ldebug_ranges0+0x238
 15725 5534 8B560000 		.4byte	0x568b
 15726 5538 42       		.uleb128 0x42
 15727 5539 B6660000 		.4byte	0x66b6
 15728 553d C3130000 		.4byte	.LLST82
 15729 5541 37       		.uleb128 0x37
 15730 5542 E2490000 		.4byte	0x49e2
 15731 5546 E4040000 		.4byte	.LBB861
 15732 554a 2A000000 		.4byte	.LBE861-.LBB861
 15733 554e 01       		.byte	0x1
 15734 554f 5C02     		.2byte	0x25c
 15735 5551 84550000 		.4byte	0x5584
 15736 5555 39       		.uleb128 0x39
 15737 5556 FB490000 		.4byte	0x49fb
 15738 555a FC130000 		.4byte	.LLST83
 15739 555e 39       		.uleb128 0x39
 15740 555f EF490000 		.4byte	0x49ef
 15741 5563 1C140000 		.4byte	.LLST84
 15742 5567 3B       		.uleb128 0x3b
 15743 5568 E4040000 		.4byte	.LBB862
 15744 556c 2A000000 		.4byte	.LBE862-.LBB862
 15745 5570 42       		.uleb128 0x42
 15746 5571 064A0000 		.4byte	0x4a06
 15747 5575 44140000 		.4byte	.LLST85
 15748 5579 42       		.uleb128 0x42
 15749 557a 124A0000 		.4byte	0x4a12
 15750 557e 80140000 		.4byte	.LLST86
 15751 5582 00       		.byte	0
 15752 5583 00       		.byte	0
 15753 5584 37       		.uleb128 0x37
 15754 5585 746B0000 		.4byte	0x6b74
 15755 5589 0E050000 		.4byte	.LBB863
 15756 558d 0E000000 		.4byte	.LBE863-.LBB863
 15757 5591 01       		.byte	0x1
 15758 5592 5D02     		.2byte	0x25d
 15759 5594 EB550000 		.4byte	0x55eb
 15760 5598 37       		.uleb128 0x37
 15761 5599 AA6B0000 		.4byte	0x6baa
 15762 559d 0E050000 		.4byte	.LBB865
 15763 55a1 06000000 		.4byte	.LBE865-.LBB865
 15764 55a5 04       		.byte	0x4
 15765 55a6 8401     		.2byte	0x184
 15766 55a8 D8550000 		.4byte	0x55d8
 15767 55ac 38       		.uleb128 0x38
 15768 55ad BC6B0000 		.4byte	0x6bbc
 15769 55b1 0E050000 		.4byte	.LBB866
 15770 55b5 06000000 		.4byte	.LBE866-.LBB866
ARM GAS  C:\Users\mathi\AppData\Local\Temp\ccOm87JI.s 			page 278


 15771 55b9 14       		.byte	0x14
 15772 55ba DB01     		.2byte	0x1db
 15773 55bc 38       		.uleb128 0x38
 15774 55bd C56B0000 		.4byte	0x6bc5
 15775 55c1 0E050000 		.4byte	.LBB867
 15776 55c5 06000000 		.4byte	.LBE867-.LBB867
 15777 55c9 14       		.byte	0x14
 15778 55ca BF01     		.2byte	0x1bf
 15779 55cc 39       		.uleb128 0x39
 15780 55cd D26B0000 		.4byte	0x6bd2
 15781 55d1 9E140000 		.4byte	.LLST87
 15782 55d5 00       		.byte	0
 15783 55d6 00       		.byte	0
 15784 55d7 00       		.byte	0
 15785 55d8 3A       		.uleb128 0x3a
 15786 55d9 18050000 		.4byte	.LVL304
 15787 55dd 7C6D0000 		.4byte	0x6d7c
 15788 55e1 3A       		.uleb128 0x3a
 15789 55e2 1C050000 		.4byte	.LVL305
 15790 55e6 876D0000 		.4byte	0x6d87
 15791 55ea 00       		.byte	0
 15792 55eb 37       		.uleb128 0x37
 15793 55ec 7E490000 		.4byte	0x497e
 15794 55f0 1C050000 		.4byte	.LBB869
 15795 55f4 0E000000 		.4byte	.LBE869-.LBB869
 15796 55f8 01       		.byte	0x1
 15797 55f9 5E02     		.2byte	0x25e
 15798 55fb 12560000 		.4byte	0x5612
 15799 55ff 39       		.uleb128 0x39
 15800 5600 97490000 		.4byte	0x4997
 15801 5604 B3140000 		.4byte	.LLST88
 15802 5608 39       		.uleb128 0x39
 15803 5609 8B490000 		.4byte	0x498b
 15804 560d C7140000 		.4byte	.LLST89
 15805 5611 00       		.byte	0
 15806 5612 37       		.uleb128 0x37
 15807 5613 6B6B0000 		.4byte	0x6b6b
 15808 5617 2A050000 		.4byte	.LBB871
 15809 561b 10000000 		.4byte	.LBE871-.LBB871
 15810 561f 01       		.byte	0x1
 15811 5620 5F02     		.2byte	0x25f
 15812 5622 79560000 		.4byte	0x5679
 15813 5626 37       		.uleb128 0x37
 15814 5627 A16B0000 		.4byte	0x6ba1
 15815 562b 32050000 		.4byte	.LBB873
 15816 562f 08000000 		.4byte	.LBE873-.LBB873
 15817 5633 04       		.byte	0x4
 15818 5634 9A01     		.2byte	0x19a
 15819 5636 66560000 		.4byte	0x5666
 15820 563a 38       		.uleb128 0x38
 15821 563b B36B0000 		.4byte	0x6bb3
 15822 563f 32050000 		.4byte	.LBB874
 15823 5643 08000000 		.4byte	.LBE874-.LBB874
 15824 5647 14       		.byte	0x14
 15825 5648 E601     		.2byte	0x1e6
 15826 564a 38       		.uleb128 0x38
 15827 564b C56B0000 		.4byte	0x6bc5
ARM GAS  C:\Users\mathi\AppData\Local\Temp\ccOm87JI.s 			page 279


 15828 564f 32050000 		.4byte	.LBB875
 15829 5653 08000000 		.4byte	.LBE875-.LBB875
 15830 5657 14       		.byte	0x14
 15831 5658 CD01     		.2byte	0x1cd
 15832 565a 39       		.uleb128 0x39
 15833 565b D26B0000 		.4byte	0x6bd2
 15834 565f DF140000 		.4byte	.LLST90
 15835 5663 00       		.byte	0
 15836 5664 00       		.byte	0
 15837 5665 00       		.byte	0
 15838 5666 3A       		.uleb128 0x3a
 15839 5667 2E050000 		.4byte	.LVL307
 15840 566b 9D6D0000 		.4byte	0x6d9d
 15841 566f 3A       		.uleb128 0x3a
 15842 5670 32050000 		.4byte	.LVL308
 15843 5674 A86D0000 		.4byte	0x6da8
 15844 5678 00       		.byte	0
 15845 5679 57       		.uleb128 0x57
 15846 567a 6C010000 		.4byte	.LVL183
 15847 567e 3E       		.uleb128 0x3e
 15848 567f 01       		.uleb128 0x1
 15849 5680 50       		.byte	0x50
 15850 5681 02       		.uleb128 0x2
 15851 5682 76       		.byte	0x76
 15852 5683 00       		.sleb128 0
 15853 5684 3E       		.uleb128 0x3e
 15854 5685 01       		.uleb128 0x1
 15855 5686 51       		.byte	0x51
 15856 5687 01       		.uleb128 0x1
 15857 5688 30       		.byte	0x30
 15858 5689 00       		.byte	0
 15859 568a 00       		.byte	0
 15860 568b 57       		.uleb128 0x57
 15861 568c 40010000 		.4byte	.LVL179
 15862 5690 3E       		.uleb128 0x3e
 15863 5691 01       		.uleb128 0x1
 15864 5692 50       		.byte	0x50
 15865 5693 02       		.uleb128 0x2
 15866 5694 76       		.byte	0x76
 15867 5695 00       		.sleb128 0
 15868 5696 3E       		.uleb128 0x3e
 15869 5697 01       		.uleb128 0x1
 15870 5698 51       		.byte	0x51
 15871 5699 01       		.uleb128 0x1
 15872 569a 30       		.byte	0x30
 15873 569b 00       		.byte	0
 15874 569c 00       		.byte	0
 15875 569d 00       		.byte	0
 15876 569e 3F       		.uleb128 0x3f
 15877 569f 79660000 		.4byte	0x6679
 15878 56a3 6E010000 		.4byte	.LBB879
 15879 56a7 50020000 		.4byte	.Ldebug_ranges0+0x250
 15880 56ab 01       		.byte	0x1
 15881 56ac A702     		.2byte	0x2a7
 15882 56ae 4E580000 		.4byte	0x584e
 15883 56b2 39       		.uleb128 0x39
 15884 56b3 86660000 		.4byte	0x6686
ARM GAS  C:\Users\mathi\AppData\Local\Temp\ccOm87JI.s 			page 280


 15885 56b7 F3140000 		.4byte	.LLST91
 15886 56bb 39       		.uleb128 0x39
 15887 56bc 92660000 		.4byte	0x6692
 15888 56c0 1B150000 		.4byte	.LLST92
 15889 56c4 43       		.uleb128 0x43
 15890 56c5 50020000 		.4byte	.Ldebug_ranges0+0x250
 15891 56c9 42       		.uleb128 0x42
 15892 56ca 9D660000 		.4byte	0x669d
 15893 56ce 3B150000 		.4byte	.LLST93
 15894 56d2 42       		.uleb128 0x42
 15895 56d3 A9660000 		.4byte	0x66a9
 15896 56d7 59150000 		.4byte	.LLST94
 15897 56db 44       		.uleb128 0x44
 15898 56dc B5660000 		.4byte	0x66b5
 15899 56e0 68020000 		.4byte	.Ldebug_ranges0+0x268
 15900 56e4 3B580000 		.4byte	0x583b
 15901 56e8 42       		.uleb128 0x42
 15902 56e9 B6660000 		.4byte	0x66b6
 15903 56ed 77150000 		.4byte	.LLST95
 15904 56f1 37       		.uleb128 0x37
 15905 56f2 E2490000 		.4byte	0x49e2
 15906 56f6 90040000 		.4byte	.LBB882
 15907 56fa 22000000 		.4byte	.LBE882-.LBB882
 15908 56fe 01       		.byte	0x1
 15909 56ff 5C02     		.2byte	0x25c
 15910 5701 34570000 		.4byte	0x5734
 15911 5705 39       		.uleb128 0x39
 15912 5706 FB490000 		.4byte	0x49fb
 15913 570a B0150000 		.4byte	.LLST96
 15914 570e 39       		.uleb128 0x39
 15915 570f EF490000 		.4byte	0x49ef
 15916 5713 C4150000 		.4byte	.LLST97
 15917 5717 3B       		.uleb128 0x3b
 15918 5718 90040000 		.4byte	.LBB883
 15919 571c 22000000 		.4byte	.LBE883-.LBB883
 15920 5720 42       		.uleb128 0x42
 15921 5721 064A0000 		.4byte	0x4a06
 15922 5725 DC150000 		.4byte	.LLST98
 15923 5729 42       		.uleb128 0x42
 15924 572a 124A0000 		.4byte	0x4a12
 15925 572e 0A160000 		.4byte	.LLST99
 15926 5732 00       		.byte	0
 15927 5733 00       		.byte	0
 15928 5734 37       		.uleb128 0x37
 15929 5735 746B0000 		.4byte	0x6b74
 15930 5739 B2040000 		.4byte	.LBB884
 15931 573d 0E000000 		.4byte	.LBE884-.LBB884
 15932 5741 01       		.byte	0x1
 15933 5742 5D02     		.2byte	0x25d
 15934 5744 9B570000 		.4byte	0x579b
 15935 5748 37       		.uleb128 0x37
 15936 5749 AA6B0000 		.4byte	0x6baa
 15937 574d B2040000 		.4byte	.LBB886
 15938 5751 06000000 		.4byte	.LBE886-.LBB886
 15939 5755 04       		.byte	0x4
 15940 5756 8401     		.2byte	0x184
 15941 5758 88570000 		.4byte	0x5788
ARM GAS  C:\Users\mathi\AppData\Local\Temp\ccOm87JI.s 			page 281


 15942 575c 38       		.uleb128 0x38
 15943 575d BC6B0000 		.4byte	0x6bbc
 15944 5761 B2040000 		.4byte	.LBB887
 15945 5765 06000000 		.4byte	.LBE887-.LBB887
 15946 5769 14       		.byte	0x14
 15947 576a DB01     		.2byte	0x1db
 15948 576c 38       		.uleb128 0x38
 15949 576d C56B0000 		.4byte	0x6bc5
 15950 5771 B2040000 		.4byte	.LBB888
 15951 5775 06000000 		.4byte	.LBE888-.LBB888
 15952 5779 14       		.byte	0x14
 15953 577a BF01     		.2byte	0x1bf
 15954 577c 39       		.uleb128 0x39
 15955 577d D26B0000 		.4byte	0x6bd2
 15956 5781 1D160000 		.4byte	.LLST100
 15957 5785 00       		.byte	0
 15958 5786 00       		.byte	0
 15959 5787 00       		.byte	0
 15960 5788 3A       		.uleb128 0x3a
 15961 5789 BC040000 		.4byte	.LVL288
 15962 578d 7C6D0000 		.4byte	0x6d7c
 15963 5791 3A       		.uleb128 0x3a
 15964 5792 C0040000 		.4byte	.LVL289
 15965 5796 876D0000 		.4byte	0x6d87
 15966 579a 00       		.byte	0
 15967 579b 37       		.uleb128 0x37
 15968 579c 7E490000 		.4byte	0x497e
 15969 57a0 C0040000 		.4byte	.LBB890
 15970 57a4 0E000000 		.4byte	.LBE890-.LBB890
 15971 57a8 01       		.byte	0x1
 15972 57a9 5E02     		.2byte	0x25e
 15973 57ab C2570000 		.4byte	0x57c2
 15974 57af 39       		.uleb128 0x39
 15975 57b0 97490000 		.4byte	0x4997
 15976 57b4 32160000 		.4byte	.LLST101
 15977 57b8 39       		.uleb128 0x39
 15978 57b9 8B490000 		.4byte	0x498b
 15979 57bd 46160000 		.4byte	.LLST102
 15980 57c1 00       		.byte	0
 15981 57c2 37       		.uleb128 0x37
 15982 57c3 6B6B0000 		.4byte	0x6b6b
 15983 57c7 CE040000 		.4byte	.LBB892
 15984 57cb 0E000000 		.4byte	.LBE892-.LBB892
 15985 57cf 01       		.byte	0x1
 15986 57d0 5F02     		.2byte	0x25f
 15987 57d2 29580000 		.4byte	0x5829
 15988 57d6 37       		.uleb128 0x37
 15989 57d7 A16B0000 		.4byte	0x6ba1
 15990 57db D6040000 		.4byte	.LBB894
 15991 57df 06000000 		.4byte	.LBE894-.LBB894
 15992 57e3 04       		.byte	0x4
 15993 57e4 9A01     		.2byte	0x19a
 15994 57e6 16580000 		.4byte	0x5816
 15995 57ea 38       		.uleb128 0x38
 15996 57eb B36B0000 		.4byte	0x6bb3
 15997 57ef D6040000 		.4byte	.LBB895
 15998 57f3 06000000 		.4byte	.LBE895-.LBB895
ARM GAS  C:\Users\mathi\AppData\Local\Temp\ccOm87JI.s 			page 282


 15999 57f7 14       		.byte	0x14
 16000 57f8 E601     		.2byte	0x1e6
 16001 57fa 38       		.uleb128 0x38
 16002 57fb C56B0000 		.4byte	0x6bc5
 16003 57ff D6040000 		.4byte	.LBB896
 16004 5803 06000000 		.4byte	.LBE896-.LBB896
 16005 5807 14       		.byte	0x14
 16006 5808 CD01     		.2byte	0x1cd
 16007 580a 39       		.uleb128 0x39
 16008 580b D26B0000 		.4byte	0x6bd2
 16009 580f 5E160000 		.4byte	.LLST103
 16010 5813 00       		.byte	0
 16011 5814 00       		.byte	0
 16012 5815 00       		.byte	0
 16013 5816 3A       		.uleb128 0x3a
 16014 5817 D2040000 		.4byte	.LVL291
 16015 581b 9D6D0000 		.4byte	0x6d9d
 16016 581f 3A       		.uleb128 0x3a
 16017 5820 D6040000 		.4byte	.LVL292
 16018 5824 A86D0000 		.4byte	0x6da8
 16019 5828 00       		.byte	0
 16020 5829 57       		.uleb128 0x57
 16021 582a C0010000 		.4byte	.LVL191
 16022 582e 3E       		.uleb128 0x3e
 16023 582f 01       		.uleb128 0x1
 16024 5830 50       		.byte	0x50
 16025 5831 02       		.uleb128 0x2
 16026 5832 76       		.byte	0x76
 16027 5833 00       		.sleb128 0
 16028 5834 3E       		.uleb128 0x3e
 16029 5835 01       		.uleb128 0x1
 16030 5836 51       		.byte	0x51
 16031 5837 01       		.uleb128 0x1
 16032 5838 31       		.byte	0x31
 16033 5839 00       		.byte	0
 16034 583a 00       		.byte	0
 16035 583b 57       		.uleb128 0x57
 16036 583c 90010000 		.4byte	.LVL187
 16037 5840 3E       		.uleb128 0x3e
 16038 5841 01       		.uleb128 0x1
 16039 5842 50       		.byte	0x50
 16040 5843 02       		.uleb128 0x2
 16041 5844 76       		.byte	0x76
 16042 5845 00       		.sleb128 0
 16043 5846 3E       		.uleb128 0x3e
 16044 5847 01       		.uleb128 0x1
 16045 5848 51       		.byte	0x51
 16046 5849 01       		.uleb128 0x1
 16047 584a 31       		.byte	0x31
 16048 584b 00       		.byte	0
 16049 584c 00       		.byte	0
 16050 584d 00       		.byte	0
 16051 584e 3F       		.uleb128 0x3f
 16052 584f 79660000 		.4byte	0x6679
 16053 5853 C2010000 		.4byte	.LBB900
 16054 5857 80020000 		.4byte	.Ldebug_ranges0+0x280
 16055 585b 01       		.byte	0x1
ARM GAS  C:\Users\mathi\AppData\Local\Temp\ccOm87JI.s 			page 283


 16056 585c A902     		.2byte	0x2a9
 16057 585e FE590000 		.4byte	0x59fe
 16058 5862 39       		.uleb128 0x39
 16059 5863 86660000 		.4byte	0x6686
 16060 5867 72160000 		.4byte	.LLST104
 16061 586b 39       		.uleb128 0x39
 16062 586c 92660000 		.4byte	0x6692
 16063 5870 9A160000 		.4byte	.LLST105
 16064 5874 43       		.uleb128 0x43
 16065 5875 80020000 		.4byte	.Ldebug_ranges0+0x280
 16066 5879 42       		.uleb128 0x42
 16067 587a 9D660000 		.4byte	0x669d
 16068 587e BA160000 		.4byte	.LLST106
 16069 5882 42       		.uleb128 0x42
 16070 5883 A9660000 		.4byte	0x66a9
 16071 5887 D8160000 		.4byte	.LLST107
 16072 588b 44       		.uleb128 0x44
 16073 588c B5660000 		.4byte	0x66b5
 16074 5890 98020000 		.4byte	.Ldebug_ranges0+0x298
 16075 5894 EB590000 		.4byte	0x59eb
 16076 5898 42       		.uleb128 0x42
 16077 5899 B6660000 		.4byte	0x66b6
 16078 589d F6160000 		.4byte	.LLST108
 16079 58a1 37       		.uleb128 0x37
 16080 58a2 E2490000 		.4byte	0x49e2
 16081 58a6 3C040000 		.4byte	.LBB903
 16082 58aa 22000000 		.4byte	.LBE903-.LBB903
 16083 58ae 01       		.byte	0x1
 16084 58af 5C02     		.2byte	0x25c
 16085 58b1 E4580000 		.4byte	0x58e4
 16086 58b5 39       		.uleb128 0x39
 16087 58b6 FB490000 		.4byte	0x49fb
 16088 58ba 2F170000 		.4byte	.LLST109
 16089 58be 39       		.uleb128 0x39
 16090 58bf EF490000 		.4byte	0x49ef
 16091 58c3 43170000 		.4byte	.LLST110
 16092 58c7 3B       		.uleb128 0x3b
 16093 58c8 3C040000 		.4byte	.LBB904
 16094 58cc 22000000 		.4byte	.LBE904-.LBB904
 16095 58d0 42       		.uleb128 0x42
 16096 58d1 064A0000 		.4byte	0x4a06
 16097 58d5 5B170000 		.4byte	.LLST111
 16098 58d9 42       		.uleb128 0x42
 16099 58da 124A0000 		.4byte	0x4a12
 16100 58de 89170000 		.4byte	.LLST112
 16101 58e2 00       		.byte	0
 16102 58e3 00       		.byte	0
 16103 58e4 37       		.uleb128 0x37
 16104 58e5 746B0000 		.4byte	0x6b74
 16105 58e9 5E040000 		.4byte	.LBB905
 16106 58ed 0E000000 		.4byte	.LBE905-.LBB905
 16107 58f1 01       		.byte	0x1
 16108 58f2 5D02     		.2byte	0x25d
 16109 58f4 4B590000 		.4byte	0x594b
 16110 58f8 37       		.uleb128 0x37
 16111 58f9 AA6B0000 		.4byte	0x6baa
 16112 58fd 5E040000 		.4byte	.LBB907
ARM GAS  C:\Users\mathi\AppData\Local\Temp\ccOm87JI.s 			page 284


 16113 5901 06000000 		.4byte	.LBE907-.LBB907
 16114 5905 04       		.byte	0x4
 16115 5906 8401     		.2byte	0x184
 16116 5908 38590000 		.4byte	0x5938
 16117 590c 38       		.uleb128 0x38
 16118 590d BC6B0000 		.4byte	0x6bbc
 16119 5911 5E040000 		.4byte	.LBB908
 16120 5915 06000000 		.4byte	.LBE908-.LBB908
 16121 5919 14       		.byte	0x14
 16122 591a DB01     		.2byte	0x1db
 16123 591c 38       		.uleb128 0x38
 16124 591d C56B0000 		.4byte	0x6bc5
 16125 5921 5E040000 		.4byte	.LBB909
 16126 5925 06000000 		.4byte	.LBE909-.LBB909
 16127 5929 14       		.byte	0x14
 16128 592a BF01     		.2byte	0x1bf
 16129 592c 39       		.uleb128 0x39
 16130 592d D26B0000 		.4byte	0x6bd2
 16131 5931 9C170000 		.4byte	.LLST113
 16132 5935 00       		.byte	0
 16133 5936 00       		.byte	0
 16134 5937 00       		.byte	0
 16135 5938 3A       		.uleb128 0x3a
 16136 5939 68040000 		.4byte	.LVL271
 16137 593d 7C6D0000 		.4byte	0x6d7c
 16138 5941 3A       		.uleb128 0x3a
 16139 5942 6C040000 		.4byte	.LVL272
 16140 5946 876D0000 		.4byte	0x6d87
 16141 594a 00       		.byte	0
 16142 594b 37       		.uleb128 0x37
 16143 594c 7E490000 		.4byte	0x497e
 16144 5950 6C040000 		.4byte	.LBB911
 16145 5954 0E000000 		.4byte	.LBE911-.LBB911
 16146 5958 01       		.byte	0x1
 16147 5959 5E02     		.2byte	0x25e
 16148 595b 72590000 		.4byte	0x5972
 16149 595f 39       		.uleb128 0x39
 16150 5960 97490000 		.4byte	0x4997
 16151 5964 B1170000 		.4byte	.LLST114
 16152 5968 39       		.uleb128 0x39
 16153 5969 8B490000 		.4byte	0x498b
 16154 596d C5170000 		.4byte	.LLST115
 16155 5971 00       		.byte	0
 16156 5972 37       		.uleb128 0x37
 16157 5973 6B6B0000 		.4byte	0x6b6b
 16158 5977 7A040000 		.4byte	.LBB913
 16159 597b 0E000000 		.4byte	.LBE913-.LBB913
 16160 597f 01       		.byte	0x1
 16161 5980 5F02     		.2byte	0x25f
 16162 5982 D9590000 		.4byte	0x59d9
 16163 5986 37       		.uleb128 0x37
 16164 5987 A16B0000 		.4byte	0x6ba1
 16165 598b 82040000 		.4byte	.LBB915
 16166 598f 06000000 		.4byte	.LBE915-.LBB915
 16167 5993 04       		.byte	0x4
 16168 5994 9A01     		.2byte	0x19a
 16169 5996 C6590000 		.4byte	0x59c6
ARM GAS  C:\Users\mathi\AppData\Local\Temp\ccOm87JI.s 			page 285


 16170 599a 38       		.uleb128 0x38
 16171 599b B36B0000 		.4byte	0x6bb3
 16172 599f 82040000 		.4byte	.LBB916
 16173 59a3 06000000 		.4byte	.LBE916-.LBB916
 16174 59a7 14       		.byte	0x14
 16175 59a8 E601     		.2byte	0x1e6
 16176 59aa 38       		.uleb128 0x38
 16177 59ab C56B0000 		.4byte	0x6bc5
 16178 59af 82040000 		.4byte	.LBB917
 16179 59b3 06000000 		.4byte	.LBE917-.LBB917
 16180 59b7 14       		.byte	0x14
 16181 59b8 CD01     		.2byte	0x1cd
 16182 59ba 39       		.uleb128 0x39
 16183 59bb D26B0000 		.4byte	0x6bd2
 16184 59bf DD170000 		.4byte	.LLST116
 16185 59c3 00       		.byte	0
 16186 59c4 00       		.byte	0
 16187 59c5 00       		.byte	0
 16188 59c6 3A       		.uleb128 0x3a
 16189 59c7 7E040000 		.4byte	.LVL274
 16190 59cb 9D6D0000 		.4byte	0x6d9d
 16191 59cf 3A       		.uleb128 0x3a
 16192 59d0 82040000 		.4byte	.LVL275
 16193 59d4 A86D0000 		.4byte	0x6da8
 16194 59d8 00       		.byte	0
 16195 59d9 57       		.uleb128 0x57
 16196 59da 14020000 		.4byte	.LVL199
 16197 59de 3E       		.uleb128 0x3e
 16198 59df 01       		.uleb128 0x1
 16199 59e0 50       		.byte	0x50
 16200 59e1 02       		.uleb128 0x2
 16201 59e2 76       		.byte	0x76
 16202 59e3 00       		.sleb128 0
 16203 59e4 3E       		.uleb128 0x3e
 16204 59e5 01       		.uleb128 0x1
 16205 59e6 51       		.byte	0x51
 16206 59e7 01       		.uleb128 0x1
 16207 59e8 32       		.byte	0x32
 16208 59e9 00       		.byte	0
 16209 59ea 00       		.byte	0
 16210 59eb 57       		.uleb128 0x57
 16211 59ec E4010000 		.4byte	.LVL195
 16212 59f0 3E       		.uleb128 0x3e
 16213 59f1 01       		.uleb128 0x1
 16214 59f2 50       		.byte	0x50
 16215 59f3 02       		.uleb128 0x2
 16216 59f4 76       		.byte	0x76
 16217 59f5 00       		.sleb128 0
 16218 59f6 3E       		.uleb128 0x3e
 16219 59f7 01       		.uleb128 0x1
 16220 59f8 51       		.byte	0x51
 16221 59f9 01       		.uleb128 0x1
 16222 59fa 32       		.byte	0x32
 16223 59fb 00       		.byte	0
 16224 59fc 00       		.byte	0
 16225 59fd 00       		.byte	0
 16226 59fe 3F       		.uleb128 0x3f
ARM GAS  C:\Users\mathi\AppData\Local\Temp\ccOm87JI.s 			page 286


 16227 59ff C4660000 		.4byte	0x66c4
 16228 5a03 16020000 		.4byte	.LBB921
 16229 5a07 B0020000 		.4byte	.Ldebug_ranges0+0x2b0
 16230 5a0b 01       		.byte	0x1
 16231 5a0c 9B02     		.2byte	0x29b
 16232 5a0e F45C0000 		.4byte	0x5cf4
 16233 5a12 39       		.uleb128 0x39
 16234 5a13 D1660000 		.4byte	0x66d1
 16235 5a17 F1170000 		.4byte	.LLST117
 16236 5a1b 39       		.uleb128 0x39
 16237 5a1c DD660000 		.4byte	0x66dd
 16238 5a20 29180000 		.4byte	.LLST118
 16239 5a24 43       		.uleb128 0x43
 16240 5a25 B0020000 		.4byte	.Ldebug_ranges0+0x2b0
 16241 5a29 42       		.uleb128 0x42
 16242 5a2a E8660000 		.4byte	0x66e8
 16243 5a2e 55180000 		.4byte	.LLST119
 16244 5a32 42       		.uleb128 0x42
 16245 5a33 F4660000 		.4byte	0x66f4
 16246 5a37 7E180000 		.4byte	.LLST120
 16247 5a3b 44       		.uleb128 0x44
 16248 5a3c 00670000 		.4byte	0x6700
 16249 5a40 D0020000 		.4byte	.Ldebug_ranges0+0x2d0
 16250 5a44 C75B0000 		.4byte	0x5bc7
 16251 5a48 42       		.uleb128 0x42
 16252 5a49 01670000 		.4byte	0x6701
 16253 5a4d A7180000 		.4byte	.LLST121
 16254 5a51 3F       		.uleb128 0x3f
 16255 5a52 A3490000 		.4byte	0x49a3
 16256 5a56 96050000 		.4byte	.LBB924
 16257 5a5a F0020000 		.4byte	.Ldebug_ranges0+0x2f0
 16258 5a5e 01       		.byte	0x1
 16259 5a5f 2802     		.2byte	0x228
 16260 5a61 9E5A0000 		.4byte	0x5a9e
 16261 5a65 39       		.uleb128 0x39
 16262 5a66 BC490000 		.4byte	0x49bc
 16263 5a6a D1180000 		.4byte	.LLST122
 16264 5a6e 39       		.uleb128 0x39
 16265 5a6f B0490000 		.4byte	0x49b0
 16266 5a73 F1180000 		.4byte	.LLST123
 16267 5a77 43       		.uleb128 0x43
 16268 5a78 F0020000 		.4byte	.Ldebug_ranges0+0x2f0
 16269 5a7c 42       		.uleb128 0x42
 16270 5a7d C7490000 		.4byte	0x49c7
 16271 5a81 19190000 		.4byte	.LLST124
 16272 5a85 47       		.uleb128 0x47
 16273 5a86 D3490000 		.4byte	0x49d3
 16274 5a8a A4050000 		.4byte	.LBB926
 16275 5a8e 16000000 		.4byte	.LBE926-.LBB926
 16276 5a92 42       		.uleb128 0x42
 16277 5a93 D4490000 		.4byte	0x49d4
 16278 5a97 37190000 		.4byte	.LLST125
 16279 5a9b 00       		.byte	0
 16280 5a9c 00       		.byte	0
 16281 5a9d 00       		.byte	0
 16282 5a9e 37       		.uleb128 0x37
 16283 5a9f FB6A0000 		.4byte	0x6afb
ARM GAS  C:\Users\mathi\AppData\Local\Temp\ccOm87JI.s 			page 287


 16284 5aa3 BA050000 		.4byte	.LBB928
 16285 5aa7 0E000000 		.4byte	.LBE928-.LBB928
 16286 5aab 01       		.byte	0x1
 16287 5aac 2902     		.2byte	0x229
 16288 5aae 165B0000 		.4byte	0x5b16
 16289 5ab2 38       		.uleb128 0x38
 16290 5ab3 746B0000 		.4byte	0x6b74
 16291 5ab7 BA050000 		.4byte	.LBB929
 16292 5abb 0E000000 		.4byte	.LBE929-.LBB929
 16293 5abf 05       		.byte	0x5
 16294 5ac0 D501     		.2byte	0x1d5
 16295 5ac2 37       		.uleb128 0x37
 16296 5ac3 AA6B0000 		.4byte	0x6baa
 16297 5ac7 BA050000 		.4byte	.LBB931
 16298 5acb 06000000 		.4byte	.LBE931-.LBB931
 16299 5acf 04       		.byte	0x4
 16300 5ad0 8401     		.2byte	0x184
 16301 5ad2 025B0000 		.4byte	0x5b02
 16302 5ad6 38       		.uleb128 0x38
 16303 5ad7 BC6B0000 		.4byte	0x6bbc
 16304 5adb BA050000 		.4byte	.LBB932
 16305 5adf 06000000 		.4byte	.LBE932-.LBB932
 16306 5ae3 14       		.byte	0x14
 16307 5ae4 DB01     		.2byte	0x1db
 16308 5ae6 38       		.uleb128 0x38
 16309 5ae7 C56B0000 		.4byte	0x6bc5
 16310 5aeb BA050000 		.4byte	.LBB933
 16311 5aef 06000000 		.4byte	.LBE933-.LBB933
 16312 5af3 14       		.byte	0x14
 16313 5af4 BF01     		.2byte	0x1bf
 16314 5af6 39       		.uleb128 0x39
 16315 5af7 D26B0000 		.4byte	0x6bd2
 16316 5afb 65190000 		.4byte	.LLST126
 16317 5aff 00       		.byte	0
 16318 5b00 00       		.byte	0
 16319 5b01 00       		.byte	0
 16320 5b02 3A       		.uleb128 0x3a
 16321 5b03 C4050000 		.4byte	.LVL336
 16322 5b07 7C6D0000 		.4byte	0x6d7c
 16323 5b0b 3A       		.uleb128 0x3a
 16324 5b0c C8050000 		.4byte	.LVL337
 16325 5b10 876D0000 		.4byte	0x6d87
 16326 5b14 00       		.byte	0
 16327 5b15 00       		.byte	0
 16328 5b16 37       		.uleb128 0x37
 16329 5b17 59490000 		.4byte	0x4959
 16330 5b1b C8050000 		.4byte	.LBB935
 16331 5b1f 1A000000 		.4byte	.LBE935-.LBB935
 16332 5b23 01       		.byte	0x1
 16333 5b24 2A02     		.2byte	0x22a
 16334 5b26 3D5B0000 		.4byte	0x5b3d
 16335 5b2a 39       		.uleb128 0x39
 16336 5b2b 72490000 		.4byte	0x4972
 16337 5b2f 7A190000 		.4byte	.LLST127
 16338 5b33 39       		.uleb128 0x39
 16339 5b34 66490000 		.4byte	0x4966
 16340 5b38 8E190000 		.4byte	.LLST128
ARM GAS  C:\Users\mathi\AppData\Local\Temp\ccOm87JI.s 			page 288


 16341 5b3c 00       		.byte	0
 16342 5b3d 37       		.uleb128 0x37
 16343 5b3e F26A0000 		.4byte	0x6af2
 16344 5b42 E2050000 		.4byte	.LBB937
 16345 5b46 1E000000 		.4byte	.LBE937-.LBB937
 16346 5b4a 01       		.byte	0x1
 16347 5b4b 2B02     		.2byte	0x22b
 16348 5b4d B55B0000 		.4byte	0x5bb5
 16349 5b51 38       		.uleb128 0x38
 16350 5b52 6B6B0000 		.4byte	0x6b6b
 16351 5b56 E2050000 		.4byte	.LBB938
 16352 5b5a 1E000000 		.4byte	.LBE938-.LBB938
 16353 5b5e 05       		.byte	0x5
 16354 5b5f E001     		.2byte	0x1e0
 16355 5b61 37       		.uleb128 0x37
 16356 5b62 A16B0000 		.4byte	0x6ba1
 16357 5b66 EA050000 		.4byte	.LBB940
 16358 5b6a 16000000 		.4byte	.LBE940-.LBB940
 16359 5b6e 04       		.byte	0x4
 16360 5b6f 9A01     		.2byte	0x19a
 16361 5b71 A15B0000 		.4byte	0x5ba1
 16362 5b75 38       		.uleb128 0x38
 16363 5b76 B36B0000 		.4byte	0x6bb3
 16364 5b7a EA050000 		.4byte	.LBB941
 16365 5b7e 16000000 		.4byte	.LBE941-.LBB941
 16366 5b82 14       		.byte	0x14
 16367 5b83 E601     		.2byte	0x1e6
 16368 5b85 38       		.uleb128 0x38
 16369 5b86 C56B0000 		.4byte	0x6bc5
 16370 5b8a EA050000 		.4byte	.LBB942
 16371 5b8e 16000000 		.4byte	.LBE942-.LBB942
 16372 5b92 14       		.byte	0x14
 16373 5b93 CD01     		.2byte	0x1cd
 16374 5b95 39       		.uleb128 0x39
 16375 5b96 D26B0000 		.4byte	0x6bd2
 16376 5b9a A6190000 		.4byte	.LLST129
 16377 5b9e 00       		.byte	0
 16378 5b9f 00       		.byte	0
 16379 5ba0 00       		.byte	0
 16380 5ba1 3A       		.uleb128 0x3a
 16381 5ba2 E6050000 		.4byte	.LVL339
 16382 5ba6 9D6D0000 		.4byte	0x6d9d
 16383 5baa 3A       		.uleb128 0x3a
 16384 5bab EA050000 		.4byte	.LVL340
 16385 5baf A86D0000 		.4byte	0x6da8
 16386 5bb3 00       		.byte	0
 16387 5bb4 00       		.byte	0
 16388 5bb5 57       		.uleb128 0x57
 16389 5bb6 4E020000 		.4byte	.LVL205
 16390 5bba 3E       		.uleb128 0x3e
 16391 5bbb 01       		.uleb128 0x1
 16392 5bbc 50       		.byte	0x50
 16393 5bbd 02       		.uleb128 0x2
 16394 5bbe 76       		.byte	0x76
 16395 5bbf 00       		.sleb128 0
 16396 5bc0 3E       		.uleb128 0x3e
 16397 5bc1 01       		.uleb128 0x1
ARM GAS  C:\Users\mathi\AppData\Local\Temp\ccOm87JI.s 			page 289


 16398 5bc2 51       		.byte	0x51
 16399 5bc3 01       		.uleb128 0x1
 16400 5bc4 33       		.byte	0x33
 16401 5bc5 00       		.byte	0
 16402 5bc6 00       		.byte	0
 16403 5bc7 37       		.uleb128 0x37
 16404 5bc8 FB6A0000 		.4byte	0x6afb
 16405 5bcc 60020000 		.4byte	.LBB945
 16406 5bd0 0E000000 		.4byte	.LBE945-.LBB945
 16407 5bd4 01       		.byte	0x1
 16408 5bd5 3502     		.2byte	0x235
 16409 5bd7 3F5C0000 		.4byte	0x5c3f
 16410 5bdb 38       		.uleb128 0x38
 16411 5bdc 746B0000 		.4byte	0x6b74
 16412 5be0 60020000 		.4byte	.LBB946
 16413 5be4 0E000000 		.4byte	.LBE946-.LBB946
 16414 5be8 05       		.byte	0x5
 16415 5be9 D501     		.2byte	0x1d5
 16416 5beb 37       		.uleb128 0x37
 16417 5bec AA6B0000 		.4byte	0x6baa
 16418 5bf0 60020000 		.4byte	.LBB948
 16419 5bf4 06000000 		.4byte	.LBE948-.LBB948
 16420 5bf8 04       		.byte	0x4
 16421 5bf9 8401     		.2byte	0x184
 16422 5bfb 2B5C0000 		.4byte	0x5c2b
 16423 5bff 38       		.uleb128 0x38
 16424 5c00 BC6B0000 		.4byte	0x6bbc
 16425 5c04 60020000 		.4byte	.LBB949
 16426 5c08 06000000 		.4byte	.LBE949-.LBB949
 16427 5c0c 14       		.byte	0x14
 16428 5c0d DB01     		.2byte	0x1db
 16429 5c0f 38       		.uleb128 0x38
 16430 5c10 C56B0000 		.4byte	0x6bc5
 16431 5c14 60020000 		.4byte	.LBB950
 16432 5c18 06000000 		.4byte	.LBE950-.LBB950
 16433 5c1c 14       		.byte	0x14
 16434 5c1d BF01     		.2byte	0x1bf
 16435 5c1f 39       		.uleb128 0x39
 16436 5c20 D26B0000 		.4byte	0x6bd2
 16437 5c24 BA190000 		.4byte	.LLST130
 16438 5c28 00       		.byte	0
 16439 5c29 00       		.byte	0
 16440 5c2a 00       		.byte	0
 16441 5c2b 3A       		.uleb128 0x3a
 16442 5c2c 6A020000 		.4byte	.LVL208
 16443 5c30 7C6D0000 		.4byte	0x6d7c
 16444 5c34 3A       		.uleb128 0x3a
 16445 5c35 6E020000 		.4byte	.LVL209
 16446 5c39 876D0000 		.4byte	0x6d87
 16447 5c3d 00       		.byte	0
 16448 5c3e 00       		.byte	0
 16449 5c3f 3F       		.uleb128 0x3f
 16450 5c40 8B6A0000 		.4byte	0x6a8b
 16451 5c44 74020000 		.4byte	.LBB952
 16452 5c48 08030000 		.4byte	.Ldebug_ranges0+0x308
 16453 5c4c 01       		.byte	0x1
 16454 5c4d 3802     		.2byte	0x238
ARM GAS  C:\Users\mathi\AppData\Local\Temp\ccOm87JI.s 			page 290


 16455 5c4f 7E5C0000 		.4byte	0x5c7e
 16456 5c53 39       		.uleb128 0x39
 16457 5c54 A46A0000 		.4byte	0x6aa4
 16458 5c58 CF190000 		.4byte	.LLST131
 16459 5c5c 39       		.uleb128 0x39
 16460 5c5d 986A0000 		.4byte	0x6a98
 16461 5c61 E3190000 		.4byte	.LLST132
 16462 5c65 3D       		.uleb128 0x3d
 16463 5c66 8A020000 		.4byte	.LVL211
 16464 5c6a 926D0000 		.4byte	0x6d92
 16465 5c6e 3E       		.uleb128 0x3e
 16466 5c6f 01       		.uleb128 0x1
 16467 5c70 50       		.byte	0x50
 16468 5c71 05       		.uleb128 0x5
 16469 5c72 03       		.byte	0x3
 16470 5c73 60000000 		.4byte	.LANCHOR1+96
 16471 5c77 3E       		.uleb128 0x3e
 16472 5c78 01       		.uleb128 0x1
 16473 5c79 51       		.byte	0x51
 16474 5c7a 01       		.uleb128 0x1
 16475 5c7b 30       		.byte	0x30
 16476 5c7c 00       		.byte	0
 16477 5c7d 00       		.byte	0
 16478 5c7e 38       		.uleb128 0x38
 16479 5c7f F26A0000 		.4byte	0x6af2
 16480 5c83 8A020000 		.4byte	.LBB958
 16481 5c87 1E000000 		.4byte	.LBE958-.LBB958
 16482 5c8b 01       		.byte	0x1
 16483 5c8c 3902     		.2byte	0x239
 16484 5c8e 38       		.uleb128 0x38
 16485 5c8f 6B6B0000 		.4byte	0x6b6b
 16486 5c93 8A020000 		.4byte	.LBB959
 16487 5c97 1E000000 		.4byte	.LBE959-.LBB959
 16488 5c9b 05       		.byte	0x5
 16489 5c9c E001     		.2byte	0x1e0
 16490 5c9e 37       		.uleb128 0x37
 16491 5c9f A16B0000 		.4byte	0x6ba1
 16492 5ca3 92020000 		.4byte	.LBB961
 16493 5ca7 16000000 		.4byte	.LBE961-.LBB961
 16494 5cab 04       		.byte	0x4
 16495 5cac 9A01     		.2byte	0x19a
 16496 5cae DE5C0000 		.4byte	0x5cde
 16497 5cb2 38       		.uleb128 0x38
 16498 5cb3 B36B0000 		.4byte	0x6bb3
 16499 5cb7 92020000 		.4byte	.LBB962
 16500 5cbb 16000000 		.4byte	.LBE962-.LBB962
 16501 5cbf 14       		.byte	0x14
 16502 5cc0 E601     		.2byte	0x1e6
 16503 5cc2 38       		.uleb128 0x38
 16504 5cc3 C56B0000 		.4byte	0x6bc5
 16505 5cc7 92020000 		.4byte	.LBB963
 16506 5ccb 16000000 		.4byte	.LBE963-.LBB963
 16507 5ccf 14       		.byte	0x14
 16508 5cd0 CD01     		.2byte	0x1cd
 16509 5cd2 39       		.uleb128 0x39
 16510 5cd3 D26B0000 		.4byte	0x6bd2
 16511 5cd7 FB190000 		.4byte	.LLST133
ARM GAS  C:\Users\mathi\AppData\Local\Temp\ccOm87JI.s 			page 291


 16512 5cdb 00       		.byte	0
 16513 5cdc 00       		.byte	0
 16514 5cdd 00       		.byte	0
 16515 5cde 3A       		.uleb128 0x3a
 16516 5cdf 8E020000 		.4byte	.LVL212
 16517 5ce3 9D6D0000 		.4byte	0x6d9d
 16518 5ce7 3A       		.uleb128 0x3a
 16519 5ce8 92020000 		.4byte	.LVL213
 16520 5cec A86D0000 		.4byte	0x6da8
 16521 5cf0 00       		.byte	0
 16522 5cf1 00       		.byte	0
 16523 5cf2 00       		.byte	0
 16524 5cf3 00       		.byte	0
 16525 5cf4 3F       		.uleb128 0x3f
 16526 5cf5 C4660000 		.4byte	0x66c4
 16527 5cf9 A8020000 		.4byte	.LBB969
 16528 5cfd 28030000 		.4byte	.Ldebug_ranges0+0x328
 16529 5d01 01       		.byte	0x1
 16530 5d02 9502     		.2byte	0x295
 16531 5d04 EA5F0000 		.4byte	0x5fea
 16532 5d08 39       		.uleb128 0x39
 16533 5d09 D1660000 		.4byte	0x66d1
 16534 5d0d 0F1A0000 		.4byte	.LLST134
 16535 5d11 39       		.uleb128 0x39
 16536 5d12 DD660000 		.4byte	0x66dd
 16537 5d16 471A0000 		.4byte	.LLST135
 16538 5d1a 43       		.uleb128 0x43
 16539 5d1b 28030000 		.4byte	.Ldebug_ranges0+0x328
 16540 5d1f 42       		.uleb128 0x42
 16541 5d20 E8660000 		.4byte	0x66e8
 16542 5d24 731A0000 		.4byte	.LLST136
 16543 5d28 42       		.uleb128 0x42
 16544 5d29 F4660000 		.4byte	0x66f4
 16545 5d2d 9C1A0000 		.4byte	.LLST137
 16546 5d31 44       		.uleb128 0x44
 16547 5d32 00670000 		.4byte	0x6700
 16548 5d36 48030000 		.4byte	.Ldebug_ranges0+0x348
 16549 5d3a BD5E0000 		.4byte	0x5ebd
 16550 5d3e 42       		.uleb128 0x42
 16551 5d3f 01670000 		.4byte	0x6701
 16552 5d43 C51A0000 		.4byte	.LLST138
 16553 5d47 3F       		.uleb128 0x3f
 16554 5d48 A3490000 		.4byte	0x49a3
 16555 5d4c CE060000 		.4byte	.LBB972
 16556 5d50 68030000 		.4byte	.Ldebug_ranges0+0x368
 16557 5d54 01       		.byte	0x1
 16558 5d55 2802     		.2byte	0x228
 16559 5d57 945D0000 		.4byte	0x5d94
 16560 5d5b 39       		.uleb128 0x39
 16561 5d5c BC490000 		.4byte	0x49bc
 16562 5d60 EF1A0000 		.4byte	.LLST139
 16563 5d64 39       		.uleb128 0x39
 16564 5d65 B0490000 		.4byte	0x49b0
 16565 5d69 0F1B0000 		.4byte	.LLST140
 16566 5d6d 43       		.uleb128 0x43
 16567 5d6e 68030000 		.4byte	.Ldebug_ranges0+0x368
 16568 5d72 42       		.uleb128 0x42
ARM GAS  C:\Users\mathi\AppData\Local\Temp\ccOm87JI.s 			page 292


 16569 5d73 C7490000 		.4byte	0x49c7
 16570 5d77 371B0000 		.4byte	.LLST141
 16571 5d7b 47       		.uleb128 0x47
 16572 5d7c D3490000 		.4byte	0x49d3
 16573 5d80 DA060000 		.4byte	.LBB974
 16574 5d84 1E000000 		.4byte	.LBE974-.LBB974
 16575 5d88 42       		.uleb128 0x42
 16576 5d89 D4490000 		.4byte	0x49d4
 16577 5d8d 551B0000 		.4byte	.LLST142
 16578 5d91 00       		.byte	0
 16579 5d92 00       		.byte	0
 16580 5d93 00       		.byte	0
 16581 5d94 37       		.uleb128 0x37
 16582 5d95 FB6A0000 		.4byte	0x6afb
 16583 5d99 F8060000 		.4byte	.LBB976
 16584 5d9d 0E000000 		.4byte	.LBE976-.LBB976
 16585 5da1 01       		.byte	0x1
 16586 5da2 2902     		.2byte	0x229
 16587 5da4 0C5E0000 		.4byte	0x5e0c
 16588 5da8 38       		.uleb128 0x38
 16589 5da9 746B0000 		.4byte	0x6b74
 16590 5dad F8060000 		.4byte	.LBB977
 16591 5db1 0E000000 		.4byte	.LBE977-.LBB977
 16592 5db5 05       		.byte	0x5
 16593 5db6 D501     		.2byte	0x1d5
 16594 5db8 37       		.uleb128 0x37
 16595 5db9 AA6B0000 		.4byte	0x6baa
 16596 5dbd F8060000 		.4byte	.LBB979
 16597 5dc1 06000000 		.4byte	.LBE979-.LBB979
 16598 5dc5 04       		.byte	0x4
 16599 5dc6 8401     		.2byte	0x184
 16600 5dc8 F85D0000 		.4byte	0x5df8
 16601 5dcc 38       		.uleb128 0x38
 16602 5dcd BC6B0000 		.4byte	0x6bbc
 16603 5dd1 F8060000 		.4byte	.LBB980
 16604 5dd5 06000000 		.4byte	.LBE980-.LBB980
 16605 5dd9 14       		.byte	0x14
 16606 5dda DB01     		.2byte	0x1db
 16607 5ddc 38       		.uleb128 0x38
 16608 5ddd C56B0000 		.4byte	0x6bc5
 16609 5de1 F8060000 		.4byte	.LBB981
 16610 5de5 06000000 		.4byte	.LBE981-.LBB981
 16611 5de9 14       		.byte	0x14
 16612 5dea BF01     		.2byte	0x1bf
 16613 5dec 39       		.uleb128 0x39
 16614 5ded D26B0000 		.4byte	0x6bd2
 16615 5df1 831B0000 		.4byte	.LLST143
 16616 5df5 00       		.byte	0
 16617 5df6 00       		.byte	0
 16618 5df7 00       		.byte	0
 16619 5df8 3A       		.uleb128 0x3a
 16620 5df9 02070000 		.4byte	.LVL381
 16621 5dfd 7C6D0000 		.4byte	0x6d7c
 16622 5e01 3A       		.uleb128 0x3a
 16623 5e02 06070000 		.4byte	.LVL382
 16624 5e06 876D0000 		.4byte	0x6d87
 16625 5e0a 00       		.byte	0
ARM GAS  C:\Users\mathi\AppData\Local\Temp\ccOm87JI.s 			page 293


 16626 5e0b 00       		.byte	0
 16627 5e0c 37       		.uleb128 0x37
 16628 5e0d 59490000 		.4byte	0x4959
 16629 5e11 06070000 		.4byte	.LBB983
 16630 5e15 1A000000 		.4byte	.LBE983-.LBB983
 16631 5e19 01       		.byte	0x1
 16632 5e1a 2A02     		.2byte	0x22a
 16633 5e1c 335E0000 		.4byte	0x5e33
 16634 5e20 39       		.uleb128 0x39
 16635 5e21 72490000 		.4byte	0x4972
 16636 5e25 981B0000 		.4byte	.LLST144
 16637 5e29 39       		.uleb128 0x39
 16638 5e2a 66490000 		.4byte	0x4966
 16639 5e2e AC1B0000 		.4byte	.LLST145
 16640 5e32 00       		.byte	0
 16641 5e33 37       		.uleb128 0x37
 16642 5e34 F26A0000 		.4byte	0x6af2
 16643 5e38 20070000 		.4byte	.LBB985
 16644 5e3c 16000000 		.4byte	.LBE985-.LBB985
 16645 5e40 01       		.byte	0x1
 16646 5e41 2B02     		.2byte	0x22b
 16647 5e43 AB5E0000 		.4byte	0x5eab
 16648 5e47 38       		.uleb128 0x38
 16649 5e48 6B6B0000 		.4byte	0x6b6b
 16650 5e4c 20070000 		.4byte	.LBB986
 16651 5e50 16000000 		.4byte	.LBE986-.LBB986
 16652 5e54 05       		.byte	0x5
 16653 5e55 E001     		.2byte	0x1e0
 16654 5e57 37       		.uleb128 0x37
 16655 5e58 A16B0000 		.4byte	0x6ba1
 16656 5e5c 28070000 		.4byte	.LBB988
 16657 5e60 0E000000 		.4byte	.LBE988-.LBB988
 16658 5e64 04       		.byte	0x4
 16659 5e65 9A01     		.2byte	0x19a
 16660 5e67 975E0000 		.4byte	0x5e97
 16661 5e6b 38       		.uleb128 0x38
 16662 5e6c B36B0000 		.4byte	0x6bb3
 16663 5e70 28070000 		.4byte	.LBB989
 16664 5e74 0E000000 		.4byte	.LBE989-.LBB989
 16665 5e78 14       		.byte	0x14
 16666 5e79 E601     		.2byte	0x1e6
 16667 5e7b 38       		.uleb128 0x38
 16668 5e7c C56B0000 		.4byte	0x6bc5
 16669 5e80 28070000 		.4byte	.LBB990
 16670 5e84 0E000000 		.4byte	.LBE990-.LBB990
 16671 5e88 14       		.byte	0x14
 16672 5e89 CD01     		.2byte	0x1cd
 16673 5e8b 39       		.uleb128 0x39
 16674 5e8c D26B0000 		.4byte	0x6bd2
 16675 5e90 C41B0000 		.4byte	.LLST146
 16676 5e94 00       		.byte	0
 16677 5e95 00       		.byte	0
 16678 5e96 00       		.byte	0
 16679 5e97 3A       		.uleb128 0x3a
 16680 5e98 24070000 		.4byte	.LVL384
 16681 5e9c 9D6D0000 		.4byte	0x6d9d
 16682 5ea0 3A       		.uleb128 0x3a
ARM GAS  C:\Users\mathi\AppData\Local\Temp\ccOm87JI.s 			page 294


 16683 5ea1 28070000 		.4byte	.LVL385
 16684 5ea5 A86D0000 		.4byte	0x6da8
 16685 5ea9 00       		.byte	0
 16686 5eaa 00       		.byte	0
 16687 5eab 57       		.uleb128 0x57
 16688 5eac E0020000 		.4byte	.LVL220
 16689 5eb0 3E       		.uleb128 0x3e
 16690 5eb1 01       		.uleb128 0x1
 16691 5eb2 50       		.byte	0x50
 16692 5eb3 02       		.uleb128 0x2
 16693 5eb4 76       		.byte	0x76
 16694 5eb5 00       		.sleb128 0
 16695 5eb6 3E       		.uleb128 0x3e
 16696 5eb7 01       		.uleb128 0x1
 16697 5eb8 51       		.byte	0x51
 16698 5eb9 01       		.uleb128 0x1
 16699 5eba 30       		.byte	0x30
 16700 5ebb 00       		.byte	0
 16701 5ebc 00       		.byte	0
 16702 5ebd 37       		.uleb128 0x37
 16703 5ebe FB6A0000 		.4byte	0x6afb
 16704 5ec2 F2020000 		.4byte	.LBB993
 16705 5ec6 0E000000 		.4byte	.LBE993-.LBB993
 16706 5eca 01       		.byte	0x1
 16707 5ecb 3502     		.2byte	0x235
 16708 5ecd 355F0000 		.4byte	0x5f35
 16709 5ed1 38       		.uleb128 0x38
 16710 5ed2 746B0000 		.4byte	0x6b74
 16711 5ed6 F2020000 		.4byte	.LBB994
 16712 5eda 0E000000 		.4byte	.LBE994-.LBB994
 16713 5ede 05       		.byte	0x5
 16714 5edf D501     		.2byte	0x1d5
 16715 5ee1 37       		.uleb128 0x37
 16716 5ee2 AA6B0000 		.4byte	0x6baa
 16717 5ee6 F2020000 		.4byte	.LBB996
 16718 5eea 06000000 		.4byte	.LBE996-.LBB996
 16719 5eee 04       		.byte	0x4
 16720 5eef 8401     		.2byte	0x184
 16721 5ef1 215F0000 		.4byte	0x5f21
 16722 5ef5 38       		.uleb128 0x38
 16723 5ef6 BC6B0000 		.4byte	0x6bbc
 16724 5efa F2020000 		.4byte	.LBB997
 16725 5efe 06000000 		.4byte	.LBE997-.LBB997
 16726 5f02 14       		.byte	0x14
 16727 5f03 DB01     		.2byte	0x1db
 16728 5f05 38       		.uleb128 0x38
 16729 5f06 C56B0000 		.4byte	0x6bc5
 16730 5f0a F2020000 		.4byte	.LBB998
 16731 5f0e 06000000 		.4byte	.LBE998-.LBB998
 16732 5f12 14       		.byte	0x14
 16733 5f13 BF01     		.2byte	0x1bf
 16734 5f15 39       		.uleb128 0x39
 16735 5f16 D26B0000 		.4byte	0x6bd2
 16736 5f1a D81B0000 		.4byte	.LLST147
 16737 5f1e 00       		.byte	0
 16738 5f1f 00       		.byte	0
 16739 5f20 00       		.byte	0
ARM GAS  C:\Users\mathi\AppData\Local\Temp\ccOm87JI.s 			page 295


 16740 5f21 3A       		.uleb128 0x3a
 16741 5f22 FC020000 		.4byte	.LVL223
 16742 5f26 7C6D0000 		.4byte	0x6d7c
 16743 5f2a 3A       		.uleb128 0x3a
 16744 5f2b 00030000 		.4byte	.LVL224
 16745 5f2f 876D0000 		.4byte	0x6d87
 16746 5f33 00       		.byte	0
 16747 5f34 00       		.byte	0
 16748 5f35 3F       		.uleb128 0x3f
 16749 5f36 8B6A0000 		.4byte	0x6a8b
 16750 5f3a 06030000 		.4byte	.LBB1000
 16751 5f3e 80030000 		.4byte	.Ldebug_ranges0+0x380
 16752 5f42 01       		.byte	0x1
 16753 5f43 3802     		.2byte	0x238
 16754 5f45 745F0000 		.4byte	0x5f74
 16755 5f49 39       		.uleb128 0x39
 16756 5f4a A46A0000 		.4byte	0x6aa4
 16757 5f4e ED1B0000 		.4byte	.LLST148
 16758 5f52 39       		.uleb128 0x39
 16759 5f53 986A0000 		.4byte	0x6a98
 16760 5f57 011C0000 		.4byte	.LLST149
 16761 5f5b 3D       		.uleb128 0x3d
 16762 5f5c 1C030000 		.4byte	.LVL226
 16763 5f60 926D0000 		.4byte	0x6d92
 16764 5f64 3E       		.uleb128 0x3e
 16765 5f65 01       		.uleb128 0x1
 16766 5f66 50       		.byte	0x50
 16767 5f67 05       		.uleb128 0x5
 16768 5f68 03       		.byte	0x3
 16769 5f69 60000000 		.4byte	.LANCHOR1+96
 16770 5f6d 3E       		.uleb128 0x3e
 16771 5f6e 01       		.uleb128 0x1
 16772 5f6f 51       		.byte	0x51
 16773 5f70 01       		.uleb128 0x1
 16774 5f71 30       		.byte	0x30
 16775 5f72 00       		.byte	0
 16776 5f73 00       		.byte	0
 16777 5f74 38       		.uleb128 0x38
 16778 5f75 F26A0000 		.4byte	0x6af2
 16779 5f79 1C030000 		.4byte	.LBB1006
 16780 5f7d 10000000 		.4byte	.LBE1006-.LBB1006
 16781 5f81 01       		.byte	0x1
 16782 5f82 3902     		.2byte	0x239
 16783 5f84 38       		.uleb128 0x38
 16784 5f85 6B6B0000 		.4byte	0x6b6b
 16785 5f89 1C030000 		.4byte	.LBB1007
 16786 5f8d 10000000 		.4byte	.LBE1007-.LBB1007
 16787 5f91 05       		.byte	0x5
 16788 5f92 E001     		.2byte	0x1e0
 16789 5f94 37       		.uleb128 0x37
 16790 5f95 A16B0000 		.4byte	0x6ba1
 16791 5f99 24030000 		.4byte	.LBB1009
 16792 5f9d 08000000 		.4byte	.LBE1009-.LBB1009
 16793 5fa1 04       		.byte	0x4
 16794 5fa2 9A01     		.2byte	0x19a
 16795 5fa4 D45F0000 		.4byte	0x5fd4
 16796 5fa8 38       		.uleb128 0x38
ARM GAS  C:\Users\mathi\AppData\Local\Temp\ccOm87JI.s 			page 296


 16797 5fa9 B36B0000 		.4byte	0x6bb3
 16798 5fad 24030000 		.4byte	.LBB1010
 16799 5fb1 08000000 		.4byte	.LBE1010-.LBB1010
 16800 5fb5 14       		.byte	0x14
 16801 5fb6 E601     		.2byte	0x1e6
 16802 5fb8 38       		.uleb128 0x38
 16803 5fb9 C56B0000 		.4byte	0x6bc5
 16804 5fbd 24030000 		.4byte	.LBB1011
 16805 5fc1 08000000 		.4byte	.LBE1011-.LBB1011
 16806 5fc5 14       		.byte	0x14
 16807 5fc6 CD01     		.2byte	0x1cd
 16808 5fc8 39       		.uleb128 0x39
 16809 5fc9 D26B0000 		.4byte	0x6bd2
 16810 5fcd 191C0000 		.4byte	.LLST150
 16811 5fd1 00       		.byte	0
 16812 5fd2 00       		.byte	0
 16813 5fd3 00       		.byte	0
 16814 5fd4 3A       		.uleb128 0x3a
 16815 5fd5 20030000 		.4byte	.LVL227
 16816 5fd9 9D6D0000 		.4byte	0x6d9d
 16817 5fdd 3A       		.uleb128 0x3a
 16818 5fde 24030000 		.4byte	.LVL228
 16819 5fe2 A86D0000 		.4byte	0x6da8
 16820 5fe6 00       		.byte	0
 16821 5fe7 00       		.byte	0
 16822 5fe8 00       		.byte	0
 16823 5fe9 00       		.byte	0
 16824 5fea 3F       		.uleb128 0x3f
 16825 5feb C4660000 		.4byte	0x66c4
 16826 5fef 2C030000 		.4byte	.LBB1017
 16827 5ff3 A0030000 		.4byte	.Ldebug_ranges0+0x3a0
 16828 5ff7 01       		.byte	0x1
 16829 5ff8 9702     		.2byte	0x297
 16830 5ffa E0620000 		.4byte	0x62e0
 16831 5ffe 39       		.uleb128 0x39
 16832 5fff D1660000 		.4byte	0x66d1
 16833 6003 2D1C0000 		.4byte	.LLST151
 16834 6007 39       		.uleb128 0x39
 16835 6008 DD660000 		.4byte	0x66dd
 16836 600c 651C0000 		.4byte	.LLST152
 16837 6010 43       		.uleb128 0x43
 16838 6011 A0030000 		.4byte	.Ldebug_ranges0+0x3a0
 16839 6015 42       		.uleb128 0x42
 16840 6016 E8660000 		.4byte	0x66e8
 16841 601a 911C0000 		.4byte	.LLST153
 16842 601e 42       		.uleb128 0x42
 16843 601f F4660000 		.4byte	0x66f4
 16844 6023 BA1C0000 		.4byte	.LLST154
 16845 6027 44       		.uleb128 0x44
 16846 6028 00670000 		.4byte	0x6700
 16847 602c C0030000 		.4byte	.Ldebug_ranges0+0x3c0
 16848 6030 B3610000 		.4byte	0x61b3
 16849 6034 42       		.uleb128 0x42
 16850 6035 01670000 		.4byte	0x6701
 16851 6039 E31C0000 		.4byte	.LLST155
 16852 603d 3F       		.uleb128 0x3f
 16853 603e A3490000 		.4byte	0x49a3
ARM GAS  C:\Users\mathi\AppData\Local\Temp\ccOm87JI.s 			page 297


 16854 6042 6C060000 		.4byte	.LBB1020
 16855 6046 E0030000 		.4byte	.Ldebug_ranges0+0x3e0
 16856 604a 01       		.byte	0x1
 16857 604b 2802     		.2byte	0x228
 16858 604d 8A600000 		.4byte	0x608a
 16859 6051 39       		.uleb128 0x39
 16860 6052 BC490000 		.4byte	0x49bc
 16861 6056 0D1D0000 		.4byte	.LLST156
 16862 605a 39       		.uleb128 0x39
 16863 605b B0490000 		.4byte	0x49b0
 16864 605f 2D1D0000 		.4byte	.LLST157
 16865 6063 43       		.uleb128 0x43
 16866 6064 E0030000 		.4byte	.Ldebug_ranges0+0x3e0
 16867 6068 42       		.uleb128 0x42
 16868 6069 C7490000 		.4byte	0x49c7
 16869 606d 551D0000 		.4byte	.LLST158
 16870 6071 47       		.uleb128 0x47
 16871 6072 D3490000 		.4byte	0x49d3
 16872 6076 78060000 		.4byte	.LBB1022
 16873 607a 16000000 		.4byte	.LBE1022-.LBB1022
 16874 607e 42       		.uleb128 0x42
 16875 607f D4490000 		.4byte	0x49d4
 16876 6083 731D0000 		.4byte	.LLST159
 16877 6087 00       		.byte	0
 16878 6088 00       		.byte	0
 16879 6089 00       		.byte	0
 16880 608a 37       		.uleb128 0x37
 16881 608b FB6A0000 		.4byte	0x6afb
 16882 608f 8E060000 		.4byte	.LBB1024
 16883 6093 0E000000 		.4byte	.LBE1024-.LBB1024
 16884 6097 01       		.byte	0x1
 16885 6098 2902     		.2byte	0x229
 16886 609a 02610000 		.4byte	0x6102
 16887 609e 38       		.uleb128 0x38
 16888 609f 746B0000 		.4byte	0x6b74
 16889 60a3 8E060000 		.4byte	.LBB1025
 16890 60a7 0E000000 		.4byte	.LBE1025-.LBB1025
 16891 60ab 05       		.byte	0x5
 16892 60ac D501     		.2byte	0x1d5
 16893 60ae 37       		.uleb128 0x37
 16894 60af AA6B0000 		.4byte	0x6baa
 16895 60b3 8E060000 		.4byte	.LBB1027
 16896 60b7 06000000 		.4byte	.LBE1027-.LBB1027
 16897 60bb 04       		.byte	0x4
 16898 60bc 8401     		.2byte	0x184
 16899 60be EE600000 		.4byte	0x60ee
 16900 60c2 38       		.uleb128 0x38
 16901 60c3 BC6B0000 		.4byte	0x6bbc
 16902 60c7 8E060000 		.4byte	.LBB1028
 16903 60cb 06000000 		.4byte	.LBE1028-.LBB1028
 16904 60cf 14       		.byte	0x14
 16905 60d0 DB01     		.2byte	0x1db
 16906 60d2 38       		.uleb128 0x38
 16907 60d3 C56B0000 		.4byte	0x6bc5
 16908 60d7 8E060000 		.4byte	.LBB1029
 16909 60db 06000000 		.4byte	.LBE1029-.LBB1029
 16910 60df 14       		.byte	0x14
ARM GAS  C:\Users\mathi\AppData\Local\Temp\ccOm87JI.s 			page 298


 16911 60e0 BF01     		.2byte	0x1bf
 16912 60e2 39       		.uleb128 0x39
 16913 60e3 D26B0000 		.4byte	0x6bd2
 16914 60e7 A11D0000 		.4byte	.LLST160
 16915 60eb 00       		.byte	0
 16916 60ec 00       		.byte	0
 16917 60ed 00       		.byte	0
 16918 60ee 3A       		.uleb128 0x3a
 16919 60ef 98060000 		.4byte	.LVL366
 16920 60f3 7C6D0000 		.4byte	0x6d7c
 16921 60f7 3A       		.uleb128 0x3a
 16922 60f8 9C060000 		.4byte	.LVL367
 16923 60fc 876D0000 		.4byte	0x6d87
 16924 6100 00       		.byte	0
 16925 6101 00       		.byte	0
 16926 6102 37       		.uleb128 0x37
 16927 6103 59490000 		.4byte	0x4959
 16928 6107 9C060000 		.4byte	.LBB1031
 16929 610b 1A000000 		.4byte	.LBE1031-.LBB1031
 16930 610f 01       		.byte	0x1
 16931 6110 2A02     		.2byte	0x22a
 16932 6112 29610000 		.4byte	0x6129
 16933 6116 39       		.uleb128 0x39
 16934 6117 72490000 		.4byte	0x4972
 16935 611b B61D0000 		.4byte	.LLST161
 16936 611f 39       		.uleb128 0x39
 16937 6120 66490000 		.4byte	0x4966
 16938 6124 CA1D0000 		.4byte	.LLST162
 16939 6128 00       		.byte	0
 16940 6129 37       		.uleb128 0x37
 16941 612a F26A0000 		.4byte	0x6af2
 16942 612e B6060000 		.4byte	.LBB1033
 16943 6132 10000000 		.4byte	.LBE1033-.LBB1033
 16944 6136 01       		.byte	0x1
 16945 6137 2B02     		.2byte	0x22b
 16946 6139 A1610000 		.4byte	0x61a1
 16947 613d 38       		.uleb128 0x38
 16948 613e 6B6B0000 		.4byte	0x6b6b
 16949 6142 B6060000 		.4byte	.LBB1034
 16950 6146 10000000 		.4byte	.LBE1034-.LBB1034
 16951 614a 05       		.byte	0x5
 16952 614b E001     		.2byte	0x1e0
 16953 614d 37       		.uleb128 0x37
 16954 614e A16B0000 		.4byte	0x6ba1
 16955 6152 BE060000 		.4byte	.LBB1036
 16956 6156 08000000 		.4byte	.LBE1036-.LBB1036
 16957 615a 04       		.byte	0x4
 16958 615b 9A01     		.2byte	0x19a
 16959 615d 8D610000 		.4byte	0x618d
 16960 6161 38       		.uleb128 0x38
 16961 6162 B36B0000 		.4byte	0x6bb3
 16962 6166 BE060000 		.4byte	.LBB1037
 16963 616a 08000000 		.4byte	.LBE1037-.LBB1037
 16964 616e 14       		.byte	0x14
 16965 616f E601     		.2byte	0x1e6
 16966 6171 38       		.uleb128 0x38
 16967 6172 C56B0000 		.4byte	0x6bc5
ARM GAS  C:\Users\mathi\AppData\Local\Temp\ccOm87JI.s 			page 299


 16968 6176 BE060000 		.4byte	.LBB1038
 16969 617a 08000000 		.4byte	.LBE1038-.LBB1038
 16970 617e 14       		.byte	0x14
 16971 617f CD01     		.2byte	0x1cd
 16972 6181 39       		.uleb128 0x39
 16973 6182 D26B0000 		.4byte	0x6bd2
 16974 6186 E21D0000 		.4byte	.LLST163
 16975 618a 00       		.byte	0
 16976 618b 00       		.byte	0
 16977 618c 00       		.byte	0
 16978 618d 3A       		.uleb128 0x3a
 16979 618e BA060000 		.4byte	.LVL369
 16980 6192 9D6D0000 		.4byte	0x6d9d
 16981 6196 3A       		.uleb128 0x3a
 16982 6197 BE060000 		.4byte	.LVL370
 16983 619b A86D0000 		.4byte	0x6da8
 16984 619f 00       		.byte	0
 16985 61a0 00       		.byte	0
 16986 61a1 57       		.uleb128 0x57
 16987 61a2 64030000 		.4byte	.LVL235
 16988 61a6 3E       		.uleb128 0x3e
 16989 61a7 01       		.uleb128 0x1
 16990 61a8 50       		.byte	0x50
 16991 61a9 02       		.uleb128 0x2
 16992 61aa 76       		.byte	0x76
 16993 61ab 00       		.sleb128 0
 16994 61ac 3E       		.uleb128 0x3e
 16995 61ad 01       		.uleb128 0x1
 16996 61ae 51       		.byte	0x51
 16997 61af 01       		.uleb128 0x1
 16998 61b0 31       		.byte	0x31
 16999 61b1 00       		.byte	0
 17000 61b2 00       		.byte	0
 17001 61b3 37       		.uleb128 0x37
 17002 61b4 FB6A0000 		.4byte	0x6afb
 17003 61b8 76030000 		.4byte	.LBB1041
 17004 61bc 0E000000 		.4byte	.LBE1041-.LBB1041
 17005 61c0 01       		.byte	0x1
 17006 61c1 3502     		.2byte	0x235
 17007 61c3 2B620000 		.4byte	0x622b
 17008 61c7 38       		.uleb128 0x38
 17009 61c8 746B0000 		.4byte	0x6b74
 17010 61cc 76030000 		.4byte	.LBB1042
 17011 61d0 0E000000 		.4byte	.LBE1042-.LBB1042
 17012 61d4 05       		.byte	0x5
 17013 61d5 D501     		.2byte	0x1d5
 17014 61d7 37       		.uleb128 0x37
 17015 61d8 AA6B0000 		.4byte	0x6baa
 17016 61dc 76030000 		.4byte	.LBB1044
 17017 61e0 06000000 		.4byte	.LBE1044-.LBB1044
 17018 61e4 04       		.byte	0x4
 17019 61e5 8401     		.2byte	0x184
 17020 61e7 17620000 		.4byte	0x6217
 17021 61eb 38       		.uleb128 0x38
 17022 61ec BC6B0000 		.4byte	0x6bbc
 17023 61f0 76030000 		.4byte	.LBB1045
 17024 61f4 06000000 		.4byte	.LBE1045-.LBB1045
ARM GAS  C:\Users\mathi\AppData\Local\Temp\ccOm87JI.s 			page 300


 17025 61f8 14       		.byte	0x14
 17026 61f9 DB01     		.2byte	0x1db
 17027 61fb 38       		.uleb128 0x38
 17028 61fc C56B0000 		.4byte	0x6bc5
 17029 6200 76030000 		.4byte	.LBB1046
 17030 6204 06000000 		.4byte	.LBE1046-.LBB1046
 17031 6208 14       		.byte	0x14
 17032 6209 BF01     		.2byte	0x1bf
 17033 620b 39       		.uleb128 0x39
 17034 620c D26B0000 		.4byte	0x6bd2
 17035 6210 F61D0000 		.4byte	.LLST164
 17036 6214 00       		.byte	0
 17037 6215 00       		.byte	0
 17038 6216 00       		.byte	0
 17039 6217 3A       		.uleb128 0x3a
 17040 6218 80030000 		.4byte	.LVL238
 17041 621c 7C6D0000 		.4byte	0x6d7c
 17042 6220 3A       		.uleb128 0x3a
 17043 6221 84030000 		.4byte	.LVL239
 17044 6225 876D0000 		.4byte	0x6d87
 17045 6229 00       		.byte	0
 17046 622a 00       		.byte	0
 17047 622b 3F       		.uleb128 0x3f
 17048 622c 8B6A0000 		.4byte	0x6a8b
 17049 6230 8A030000 		.4byte	.LBB1048
 17050 6234 F8030000 		.4byte	.Ldebug_ranges0+0x3f8
 17051 6238 01       		.byte	0x1
 17052 6239 3802     		.2byte	0x238
 17053 623b 6A620000 		.4byte	0x626a
 17054 623f 39       		.uleb128 0x39
 17055 6240 A46A0000 		.4byte	0x6aa4
 17056 6244 0B1E0000 		.4byte	.LLST165
 17057 6248 39       		.uleb128 0x39
 17058 6249 986A0000 		.4byte	0x6a98
 17059 624d 1F1E0000 		.4byte	.LLST166
 17060 6251 3D       		.uleb128 0x3d
 17061 6252 A0030000 		.4byte	.LVL241
 17062 6256 926D0000 		.4byte	0x6d92
 17063 625a 3E       		.uleb128 0x3e
 17064 625b 01       		.uleb128 0x1
 17065 625c 50       		.byte	0x50
 17066 625d 05       		.uleb128 0x5
 17067 625e 03       		.byte	0x3
 17068 625f 60000000 		.4byte	.LANCHOR1+96
 17069 6263 3E       		.uleb128 0x3e
 17070 6264 01       		.uleb128 0x1
 17071 6265 51       		.byte	0x51
 17072 6266 01       		.uleb128 0x1
 17073 6267 30       		.byte	0x30
 17074 6268 00       		.byte	0
 17075 6269 00       		.byte	0
 17076 626a 38       		.uleb128 0x38
 17077 626b F26A0000 		.4byte	0x6af2
 17078 626f A0030000 		.4byte	.LBB1054
 17079 6273 10000000 		.4byte	.LBE1054-.LBB1054
 17080 6277 01       		.byte	0x1
 17081 6278 3902     		.2byte	0x239
ARM GAS  C:\Users\mathi\AppData\Local\Temp\ccOm87JI.s 			page 301


 17082 627a 38       		.uleb128 0x38
 17083 627b 6B6B0000 		.4byte	0x6b6b
 17084 627f A0030000 		.4byte	.LBB1055
 17085 6283 10000000 		.4byte	.LBE1055-.LBB1055
 17086 6287 05       		.byte	0x5
 17087 6288 E001     		.2byte	0x1e0
 17088 628a 37       		.uleb128 0x37
 17089 628b A16B0000 		.4byte	0x6ba1
 17090 628f A8030000 		.4byte	.LBB1057
 17091 6293 08000000 		.4byte	.LBE1057-.LBB1057
 17092 6297 04       		.byte	0x4
 17093 6298 9A01     		.2byte	0x19a
 17094 629a CA620000 		.4byte	0x62ca
 17095 629e 38       		.uleb128 0x38
 17096 629f B36B0000 		.4byte	0x6bb3
 17097 62a3 A8030000 		.4byte	.LBB1058
 17098 62a7 08000000 		.4byte	.LBE1058-.LBB1058
 17099 62ab 14       		.byte	0x14
 17100 62ac E601     		.2byte	0x1e6
 17101 62ae 38       		.uleb128 0x38
 17102 62af C56B0000 		.4byte	0x6bc5
 17103 62b3 A8030000 		.4byte	.LBB1059
 17104 62b7 08000000 		.4byte	.LBE1059-.LBB1059
 17105 62bb 14       		.byte	0x14
 17106 62bc CD01     		.2byte	0x1cd
 17107 62be 39       		.uleb128 0x39
 17108 62bf D26B0000 		.4byte	0x6bd2
 17109 62c3 371E0000 		.4byte	.LLST167
 17110 62c7 00       		.byte	0
 17111 62c8 00       		.byte	0
 17112 62c9 00       		.byte	0
 17113 62ca 3A       		.uleb128 0x3a
 17114 62cb A4030000 		.4byte	.LVL242
 17115 62cf 9D6D0000 		.4byte	0x6d9d
 17116 62d3 3A       		.uleb128 0x3a
 17117 62d4 A8030000 		.4byte	.LVL243
 17118 62d8 A86D0000 		.4byte	0x6da8
 17119 62dc 00       		.byte	0
 17120 62dd 00       		.byte	0
 17121 62de 00       		.byte	0
 17122 62df 00       		.byte	0
 17123 62e0 3F       		.uleb128 0x3f
 17124 62e1 C4660000 		.4byte	0x66c4
 17125 62e5 B0030000 		.4byte	.LBB1065
 17126 62e9 18040000 		.4byte	.Ldebug_ranges0+0x418
 17127 62ed 01       		.byte	0x1
 17128 62ee 9902     		.2byte	0x299
 17129 62f0 D6650000 		.4byte	0x65d6
 17130 62f4 39       		.uleb128 0x39
 17131 62f5 D1660000 		.4byte	0x66d1
 17132 62f9 4B1E0000 		.4byte	.LLST168
 17133 62fd 39       		.uleb128 0x39
 17134 62fe DD660000 		.4byte	0x66dd
 17135 6302 831E0000 		.4byte	.LLST169
 17136 6306 43       		.uleb128 0x43
 17137 6307 18040000 		.4byte	.Ldebug_ranges0+0x418
 17138 630b 42       		.uleb128 0x42
ARM GAS  C:\Users\mathi\AppData\Local\Temp\ccOm87JI.s 			page 302


 17139 630c E8660000 		.4byte	0x66e8
 17140 6310 AF1E0000 		.4byte	.LLST170
 17141 6314 42       		.uleb128 0x42
 17142 6315 F4660000 		.4byte	0x66f4
 17143 6319 D81E0000 		.4byte	.LLST171
 17144 631d 44       		.uleb128 0x44
 17145 631e 00670000 		.4byte	0x6700
 17146 6322 38040000 		.4byte	.Ldebug_ranges0+0x438
 17147 6326 A9640000 		.4byte	0x64a9
 17148 632a 42       		.uleb128 0x42
 17149 632b 01670000 		.4byte	0x6701
 17150 632f 011F0000 		.4byte	.LLST172
 17151 6333 3F       		.uleb128 0x3f
 17152 6334 A3490000 		.4byte	0x49a3
 17153 6338 08060000 		.4byte	.LBB1068
 17154 633c 58040000 		.4byte	.Ldebug_ranges0+0x458
 17155 6340 01       		.byte	0x1
 17156 6341 2802     		.2byte	0x228
 17157 6343 80630000 		.4byte	0x6380
 17158 6347 39       		.uleb128 0x39
 17159 6348 BC490000 		.4byte	0x49bc
 17160 634c 2B1F0000 		.4byte	.LLST173
 17161 6350 39       		.uleb128 0x39
 17162 6351 B0490000 		.4byte	0x49b0
 17163 6355 4B1F0000 		.4byte	.LLST174
 17164 6359 43       		.uleb128 0x43
 17165 635a 58040000 		.4byte	.Ldebug_ranges0+0x458
 17166 635e 42       		.uleb128 0x42
 17167 635f C7490000 		.4byte	0x49c7
 17168 6363 731F0000 		.4byte	.LLST175
 17169 6367 47       		.uleb128 0x47
 17170 6368 D3490000 		.4byte	0x49d3
 17171 636c 16060000 		.4byte	.LBB1070
 17172 6370 16000000 		.4byte	.LBE1070-.LBB1070
 17173 6374 42       		.uleb128 0x42
 17174 6375 D4490000 		.4byte	0x49d4
 17175 6379 911F0000 		.4byte	.LLST176
 17176 637d 00       		.byte	0
 17177 637e 00       		.byte	0
 17178 637f 00       		.byte	0
 17179 6380 37       		.uleb128 0x37
 17180 6381 FB6A0000 		.4byte	0x6afb
 17181 6385 2C060000 		.4byte	.LBB1072
 17182 6389 0E000000 		.4byte	.LBE1072-.LBB1072
 17183 638d 01       		.byte	0x1
 17184 638e 2902     		.2byte	0x229
 17185 6390 F8630000 		.4byte	0x63f8
 17186 6394 38       		.uleb128 0x38
 17187 6395 746B0000 		.4byte	0x6b74
 17188 6399 2C060000 		.4byte	.LBB1073
 17189 639d 0E000000 		.4byte	.LBE1073-.LBB1073
 17190 63a1 05       		.byte	0x5
 17191 63a2 D501     		.2byte	0x1d5
 17192 63a4 37       		.uleb128 0x37
 17193 63a5 AA6B0000 		.4byte	0x6baa
 17194 63a9 2C060000 		.4byte	.LBB1075
 17195 63ad 06000000 		.4byte	.LBE1075-.LBB1075
ARM GAS  C:\Users\mathi\AppData\Local\Temp\ccOm87JI.s 			page 303


 17196 63b1 04       		.byte	0x4
 17197 63b2 8401     		.2byte	0x184
 17198 63b4 E4630000 		.4byte	0x63e4
 17199 63b8 38       		.uleb128 0x38
 17200 63b9 BC6B0000 		.4byte	0x6bbc
 17201 63bd 2C060000 		.4byte	.LBB1076
 17202 63c1 06000000 		.4byte	.LBE1076-.LBB1076
 17203 63c5 14       		.byte	0x14
 17204 63c6 DB01     		.2byte	0x1db
 17205 63c8 38       		.uleb128 0x38
 17206 63c9 C56B0000 		.4byte	0x6bc5
 17207 63cd 2C060000 		.4byte	.LBB1077
 17208 63d1 06000000 		.4byte	.LBE1077-.LBB1077
 17209 63d5 14       		.byte	0x14
 17210 63d6 BF01     		.2byte	0x1bf
 17211 63d8 39       		.uleb128 0x39
 17212 63d9 D26B0000 		.4byte	0x6bd2
 17213 63dd BF1F0000 		.4byte	.LLST177
 17214 63e1 00       		.byte	0
 17215 63e2 00       		.byte	0
 17216 63e3 00       		.byte	0
 17217 63e4 3A       		.uleb128 0x3a
 17218 63e5 36060000 		.4byte	.LVL351
 17219 63e9 7C6D0000 		.4byte	0x6d7c
 17220 63ed 3A       		.uleb128 0x3a
 17221 63ee 3A060000 		.4byte	.LVL352
 17222 63f2 876D0000 		.4byte	0x6d87
 17223 63f6 00       		.byte	0
 17224 63f7 00       		.byte	0
 17225 63f8 37       		.uleb128 0x37
 17226 63f9 59490000 		.4byte	0x4959
 17227 63fd 3A060000 		.4byte	.LBB1079
 17228 6401 1A000000 		.4byte	.LBE1079-.LBB1079
 17229 6405 01       		.byte	0x1
 17230 6406 2A02     		.2byte	0x22a
 17231 6408 1F640000 		.4byte	0x641f
 17232 640c 39       		.uleb128 0x39
 17233 640d 72490000 		.4byte	0x4972
 17234 6411 D41F0000 		.4byte	.LLST178
 17235 6415 39       		.uleb128 0x39
 17236 6416 66490000 		.4byte	0x4966
 17237 641a E81F0000 		.4byte	.LLST179
 17238 641e 00       		.byte	0
 17239 641f 37       		.uleb128 0x37
 17240 6420 F26A0000 		.4byte	0x6af2
 17241 6424 54060000 		.4byte	.LBB1081
 17242 6428 10000000 		.4byte	.LBE1081-.LBB1081
 17243 642c 01       		.byte	0x1
 17244 642d 2B02     		.2byte	0x22b
 17245 642f 97640000 		.4byte	0x6497
 17246 6433 38       		.uleb128 0x38
 17247 6434 6B6B0000 		.4byte	0x6b6b
 17248 6438 54060000 		.4byte	.LBB1082
 17249 643c 10000000 		.4byte	.LBE1082-.LBB1082
 17250 6440 05       		.byte	0x5
 17251 6441 E001     		.2byte	0x1e0
 17252 6443 37       		.uleb128 0x37
ARM GAS  C:\Users\mathi\AppData\Local\Temp\ccOm87JI.s 			page 304


 17253 6444 A16B0000 		.4byte	0x6ba1
 17254 6448 5C060000 		.4byte	.LBB1084
 17255 644c 08000000 		.4byte	.LBE1084-.LBB1084
 17256 6450 04       		.byte	0x4
 17257 6451 9A01     		.2byte	0x19a
 17258 6453 83640000 		.4byte	0x6483
 17259 6457 38       		.uleb128 0x38
 17260 6458 B36B0000 		.4byte	0x6bb3
 17261 645c 5C060000 		.4byte	.LBB1085
 17262 6460 08000000 		.4byte	.LBE1085-.LBB1085
 17263 6464 14       		.byte	0x14
 17264 6465 E601     		.2byte	0x1e6
 17265 6467 38       		.uleb128 0x38
 17266 6468 C56B0000 		.4byte	0x6bc5
 17267 646c 5C060000 		.4byte	.LBB1086
 17268 6470 08000000 		.4byte	.LBE1086-.LBB1086
 17269 6474 14       		.byte	0x14
 17270 6475 CD01     		.2byte	0x1cd
 17271 6477 39       		.uleb128 0x39
 17272 6478 D26B0000 		.4byte	0x6bd2
 17273 647c 00200000 		.4byte	.LLST180
 17274 6480 00       		.byte	0
 17275 6481 00       		.byte	0
 17276 6482 00       		.byte	0
 17277 6483 3A       		.uleb128 0x3a
 17278 6484 58060000 		.4byte	.LVL354
 17279 6488 9D6D0000 		.4byte	0x6d9d
 17280 648c 3A       		.uleb128 0x3a
 17281 648d 5C060000 		.4byte	.LVL355
 17282 6491 A86D0000 		.4byte	0x6da8
 17283 6495 00       		.byte	0
 17284 6496 00       		.byte	0
 17285 6497 57       		.uleb128 0x57
 17286 6498 E8030000 		.4byte	.LVL250
 17287 649c 3E       		.uleb128 0x3e
 17288 649d 01       		.uleb128 0x1
 17289 649e 50       		.byte	0x50
 17290 649f 02       		.uleb128 0x2
 17291 64a0 76       		.byte	0x76
 17292 64a1 00       		.sleb128 0
 17293 64a2 3E       		.uleb128 0x3e
 17294 64a3 01       		.uleb128 0x1
 17295 64a4 51       		.byte	0x51
 17296 64a5 01       		.uleb128 0x1
 17297 64a6 32       		.byte	0x32
 17298 64a7 00       		.byte	0
 17299 64a8 00       		.byte	0
 17300 64a9 37       		.uleb128 0x37
 17301 64aa FB6A0000 		.4byte	0x6afb
 17302 64ae FA030000 		.4byte	.LBB1089
 17303 64b2 0E000000 		.4byte	.LBE1089-.LBB1089
 17304 64b6 01       		.byte	0x1
 17305 64b7 3502     		.2byte	0x235
 17306 64b9 21650000 		.4byte	0x6521
 17307 64bd 38       		.uleb128 0x38
 17308 64be 746B0000 		.4byte	0x6b74
 17309 64c2 FA030000 		.4byte	.LBB1090
ARM GAS  C:\Users\mathi\AppData\Local\Temp\ccOm87JI.s 			page 305


 17310 64c6 0E000000 		.4byte	.LBE1090-.LBB1090
 17311 64ca 05       		.byte	0x5
 17312 64cb D501     		.2byte	0x1d5
 17313 64cd 37       		.uleb128 0x37
 17314 64ce AA6B0000 		.4byte	0x6baa
 17315 64d2 FA030000 		.4byte	.LBB1092
 17316 64d6 06000000 		.4byte	.LBE1092-.LBB1092
 17317 64da 04       		.byte	0x4
 17318 64db 8401     		.2byte	0x184
 17319 64dd 0D650000 		.4byte	0x650d
 17320 64e1 38       		.uleb128 0x38
 17321 64e2 BC6B0000 		.4byte	0x6bbc
 17322 64e6 FA030000 		.4byte	.LBB1093
 17323 64ea 06000000 		.4byte	.LBE1093-.LBB1093
 17324 64ee 14       		.byte	0x14
 17325 64ef DB01     		.2byte	0x1db
 17326 64f1 38       		.uleb128 0x38
 17327 64f2 C56B0000 		.4byte	0x6bc5
 17328 64f6 FA030000 		.4byte	.LBB1094
 17329 64fa 06000000 		.4byte	.LBE1094-.LBB1094
 17330 64fe 14       		.byte	0x14
 17331 64ff BF01     		.2byte	0x1bf
 17332 6501 39       		.uleb128 0x39
 17333 6502 D26B0000 		.4byte	0x6bd2
 17334 6506 14200000 		.4byte	.LLST181
 17335 650a 00       		.byte	0
 17336 650b 00       		.byte	0
 17337 650c 00       		.byte	0
 17338 650d 3A       		.uleb128 0x3a
 17339 650e 04040000 		.4byte	.LVL253
 17340 6512 7C6D0000 		.4byte	0x6d7c
 17341 6516 3A       		.uleb128 0x3a
 17342 6517 08040000 		.4byte	.LVL254
 17343 651b 876D0000 		.4byte	0x6d87
 17344 651f 00       		.byte	0
 17345 6520 00       		.byte	0
 17346 6521 3F       		.uleb128 0x3f
 17347 6522 8B6A0000 		.4byte	0x6a8b
 17348 6526 0E040000 		.4byte	.LBB1096
 17349 652a 70040000 		.4byte	.Ldebug_ranges0+0x470
 17350 652e 01       		.byte	0x1
 17351 652f 3802     		.2byte	0x238
 17352 6531 60650000 		.4byte	0x6560
 17353 6535 39       		.uleb128 0x39
 17354 6536 A46A0000 		.4byte	0x6aa4
 17355 653a 29200000 		.4byte	.LLST182
 17356 653e 39       		.uleb128 0x39
 17357 653f 986A0000 		.4byte	0x6a98
 17358 6543 3D200000 		.4byte	.LLST183
 17359 6547 3D       		.uleb128 0x3d
 17360 6548 24040000 		.4byte	.LVL256
 17361 654c 926D0000 		.4byte	0x6d92
 17362 6550 3E       		.uleb128 0x3e
 17363 6551 01       		.uleb128 0x1
 17364 6552 50       		.byte	0x50
 17365 6553 05       		.uleb128 0x5
 17366 6554 03       		.byte	0x3
ARM GAS  C:\Users\mathi\AppData\Local\Temp\ccOm87JI.s 			page 306


 17367 6555 60000000 		.4byte	.LANCHOR1+96
 17368 6559 3E       		.uleb128 0x3e
 17369 655a 01       		.uleb128 0x1
 17370 655b 51       		.byte	0x51
 17371 655c 01       		.uleb128 0x1
 17372 655d 30       		.byte	0x30
 17373 655e 00       		.byte	0
 17374 655f 00       		.byte	0
 17375 6560 38       		.uleb128 0x38
 17376 6561 F26A0000 		.4byte	0x6af2
 17377 6565 24040000 		.4byte	.LBB1102
 17378 6569 10000000 		.4byte	.LBE1102-.LBB1102
 17379 656d 01       		.byte	0x1
 17380 656e 3902     		.2byte	0x239
 17381 6570 38       		.uleb128 0x38
 17382 6571 6B6B0000 		.4byte	0x6b6b
 17383 6575 24040000 		.4byte	.LBB1103
 17384 6579 10000000 		.4byte	.LBE1103-.LBB1103
 17385 657d 05       		.byte	0x5
 17386 657e E001     		.2byte	0x1e0
 17387 6580 37       		.uleb128 0x37
 17388 6581 A16B0000 		.4byte	0x6ba1
 17389 6585 2C040000 		.4byte	.LBB1105
 17390 6589 08000000 		.4byte	.LBE1105-.LBB1105
 17391 658d 04       		.byte	0x4
 17392 658e 9A01     		.2byte	0x19a
 17393 6590 C0650000 		.4byte	0x65c0
 17394 6594 38       		.uleb128 0x38
 17395 6595 B36B0000 		.4byte	0x6bb3
 17396 6599 2C040000 		.4byte	.LBB1106
 17397 659d 08000000 		.4byte	.LBE1106-.LBB1106
 17398 65a1 14       		.byte	0x14
 17399 65a2 E601     		.2byte	0x1e6
 17400 65a4 38       		.uleb128 0x38
 17401 65a5 C56B0000 		.4byte	0x6bc5
 17402 65a9 2C040000 		.4byte	.LBB1107
 17403 65ad 08000000 		.4byte	.LBE1107-.LBB1107
 17404 65b1 14       		.byte	0x14
 17405 65b2 CD01     		.2byte	0x1cd
 17406 65b4 39       		.uleb128 0x39
 17407 65b5 D26B0000 		.4byte	0x6bd2
 17408 65b9 55200000 		.4byte	.LLST184
 17409 65bd 00       		.byte	0
 17410 65be 00       		.byte	0
 17411 65bf 00       		.byte	0
 17412 65c0 3A       		.uleb128 0x3a
 17413 65c1 28040000 		.4byte	.LVL257
 17414 65c5 9D6D0000 		.4byte	0x6d9d
 17415 65c9 3A       		.uleb128 0x3a
 17416 65ca 2C040000 		.4byte	.LVL258
 17417 65ce A86D0000 		.4byte	0x6da8
 17418 65d2 00       		.byte	0
 17419 65d3 00       		.byte	0
 17420 65d4 00       		.byte	0
 17421 65d5 00       		.byte	0
 17422 65d6 58       		.uleb128 0x58
 17423 65d7 3A000000 		.4byte	.LVL152
ARM GAS  C:\Users\mathi\AppData\Local\Temp\ccOm87JI.s 			page 307


 17424 65db E6650000 		.4byte	0x65e6
 17425 65df 3E       		.uleb128 0x3e
 17426 65e0 01       		.uleb128 0x1
 17427 65e1 50       		.byte	0x50
 17428 65e2 02       		.uleb128 0x2
 17429 65e3 76       		.byte	0x76
 17430 65e4 00       		.sleb128 0
 17431 65e5 00       		.byte	0
 17432 65e6 52       		.uleb128 0x52
 17433 65e7 C2000000 		.4byte	.LVL166
 17434 65eb B36D0000 		.4byte	0x6db3
 17435 65ef FA650000 		.4byte	0x65fa
 17436 65f3 3E       		.uleb128 0x3e
 17437 65f4 01       		.uleb128 0x1
 17438 65f5 50       		.byte	0x50
 17439 65f6 02       		.uleb128 0x2
 17440 65f7 76       		.byte	0x76
 17441 65f8 00       		.sleb128 0
 17442 65f9 00       		.byte	0
 17443 65fa 57       		.uleb128 0x57
 17444 65fb D0000000 		.4byte	.LVL167
 17445 65ff 3E       		.uleb128 0x3e
 17446 6600 01       		.uleb128 0x1
 17447 6601 50       		.byte	0x50
 17448 6602 02       		.uleb128 0x2
 17449 6603 76       		.byte	0x76
 17450 6604 00       		.sleb128 0
 17451 6605 3E       		.uleb128 0x3e
 17452 6606 01       		.uleb128 0x1
 17453 6607 51       		.byte	0x51
 17454 6608 01       		.uleb128 0x1
 17455 6609 30       		.byte	0x30
 17456 660a 00       		.byte	0
 17457 660b 00       		.byte	0
 17458 660c 00       		.byte	0
 17459 660d 3A       		.uleb128 0x3a
 17460 660e 12000000 		.4byte	.LVL147
 17461 6612 BF6D0000 		.4byte	0x6dbf
 17462 6616 3A       		.uleb128 0x3a
 17463 6617 16000000 		.4byte	.LVL148
 17464 661b CA6D0000 		.4byte	0x6dca
 17465 661f 3A       		.uleb128 0x3a
 17466 6620 7A000000 		.4byte	.LVL156
 17467 6624 D56D0000 		.4byte	0x6dd5
 17468 6628 59       		.uleb128 0x59
 17469 6629 8E000000 		.4byte	.LVL157
 17470 662d E06D0000 		.4byte	0x6de0
 17471 6631 3A       		.uleb128 0x3a
 17472 6632 6A070000 		.4byte	.LVL398
 17473 6636 236D0000 		.4byte	0x6d23
 17474 663a 00       		.byte	0
 17475 663b 5A       		.uleb128 0x5a
 17476 663c 97180000 		.4byte	.LASF875
 17477 6640 01       		.byte	0x1
 17478 6641 6F02     		.2byte	0x26f
 17479 6643 01       		.byte	0x1
 17480 6644 79660000 		.4byte	0x6679
ARM GAS  C:\Users\mathi\AppData\Local\Temp\ccOm87JI.s 			page 308


 17481 6648 4A       		.uleb128 0x4a
 17482 6649 7F240000 		.4byte	.LASF849
 17483 664d 01       		.byte	0x1
 17484 664e 6F02     		.2byte	0x26f
 17485 6650 28360000 		.4byte	0x3628
 17486 6654 36       		.uleb128 0x36
 17487 6655 631D0000 		.4byte	.LASF850
 17488 6659 01       		.byte	0x1
 17489 665a 7002     		.2byte	0x270
 17490 665c 953E0000 		.4byte	0x3e95
 17491 6660 4C       		.uleb128 0x4c
 17492 6661 73747300 		.ascii	"sts\000"
 17493 6665 01       		.byte	0x1
 17494 6666 7102     		.2byte	0x271
 17495 6668 1C090000 		.4byte	0x91c
 17496 666c 4C       		.uleb128 0x4c
 17497 666d 73726300 		.ascii	"src\000"
 17498 6671 01       		.byte	0x1
 17499 6672 7102     		.2byte	0x271
 17500 6674 1C090000 		.4byte	0x91c
 17501 6678 00       		.byte	0
 17502 6679 5A       		.uleb128 0x5a
 17503 667a ED020000 		.4byte	.LASF876
 17504 667e 01       		.byte	0x1
 17505 667f 4502     		.2byte	0x245
 17506 6681 01       		.byte	0x1
 17507 6682 C4660000 		.4byte	0x66c4
 17508 6686 4A       		.uleb128 0x4a
 17509 6687 7F240000 		.4byte	.LASF849
 17510 668b 01       		.byte	0x1
 17511 668c 4502     		.2byte	0x245
 17512 668e 28360000 		.4byte	0x3628
 17513 6692 4B       		.uleb128 0x4b
 17514 6693 657000   		.ascii	"ep\000"
 17515 6696 01       		.byte	0x1
 17516 6697 4502     		.2byte	0x245
 17517 6699 E1340000 		.4byte	0x34e1
 17518 669d 36       		.uleb128 0x36
 17519 669e 631D0000 		.4byte	.LASF850
 17520 66a2 01       		.byte	0x1
 17521 66a3 4602     		.2byte	0x246
 17522 66a5 953E0000 		.4byte	0x3e95
 17523 66a9 36       		.uleb128 0x36
 17524 66aa 70030000 		.4byte	.LASF877
 17525 66ae 01       		.byte	0x1
 17526 66af 4702     		.2byte	0x247
 17527 66b1 1C090000 		.4byte	0x91c
 17528 66b5 4D       		.uleb128 0x4d
 17529 66b6 4C       		.uleb128 0x4c
 17530 66b7 6F737000 		.ascii	"osp\000"
 17531 66bb 01       		.byte	0x1
 17532 66bc 5402     		.2byte	0x254
 17533 66be 033E0000 		.4byte	0x3e03
 17534 66c2 00       		.byte	0
 17535 66c3 00       		.byte	0
 17536 66c4 5A       		.uleb128 0x5a
 17537 66c5 C31D0000 		.4byte	.LASF878
ARM GAS  C:\Users\mathi\AppData\Local\Temp\ccOm87JI.s 			page 309


 17538 66c9 01       		.byte	0x1
 17539 66ca 1502     		.2byte	0x215
 17540 66cc 01       		.byte	0x1
 17541 66cd 0F670000 		.4byte	0x670f
 17542 66d1 4A       		.uleb128 0x4a
 17543 66d2 7F240000 		.4byte	.LASF849
 17544 66d6 01       		.byte	0x1
 17545 66d7 1502     		.2byte	0x215
 17546 66d9 28360000 		.4byte	0x3628
 17547 66dd 4B       		.uleb128 0x4b
 17548 66de 657000   		.ascii	"ep\000"
 17549 66e1 01       		.byte	0x1
 17550 66e2 1502     		.2byte	0x215
 17551 66e4 E1340000 		.4byte	0x34e1
 17552 66e8 36       		.uleb128 0x36
 17553 66e9 631D0000 		.4byte	.LASF850
 17554 66ed 01       		.byte	0x1
 17555 66ee 1602     		.2byte	0x216
 17556 66f0 953E0000 		.4byte	0x3e95
 17557 66f4 36       		.uleb128 0x36
 17558 66f5 70030000 		.4byte	.LASF877
 17559 66f9 01       		.byte	0x1
 17560 66fa 1702     		.2byte	0x217
 17561 66fc 1C090000 		.4byte	0x91c
 17562 6700 4D       		.uleb128 0x4d
 17563 6701 4C       		.uleb128 0x4c
 17564 6702 69737000 		.ascii	"isp\000"
 17565 6706 01       		.byte	0x1
 17566 6707 2002     		.2byte	0x220
 17567 6709 FD3D0000 		.4byte	0x3dfd
 17568 670d 00       		.byte	0
 17569 670e 00       		.byte	0
 17570 670f 5B       		.uleb128 0x5b
 17571 6710 320F0000 		.4byte	.LASF886
 17572 6714 01       		.byte	0x1
 17573 6715 E101     		.2byte	0x1e1
 17574 6717 951E0000 		.4byte	0x1e95
 17575 671b 01       		.byte	0x1
 17576 671c 44670000 		.4byte	0x6744
 17577 6720 4A       		.uleb128 0x4a
 17578 6721 7F240000 		.4byte	.LASF849
 17579 6725 01       		.byte	0x1
 17580 6726 E101     		.2byte	0x1e1
 17581 6728 28360000 		.4byte	0x3628
 17582 672c 4B       		.uleb128 0x4b
 17583 672d 657000   		.ascii	"ep\000"
 17584 6730 01       		.byte	0x1
 17585 6731 E101     		.2byte	0x1e1
 17586 6733 E1340000 		.4byte	0x34e1
 17587 6737 4D       		.uleb128 0x4d
 17588 6738 4C       		.uleb128 0x4c
 17589 6739 6E00     		.ascii	"n\000"
 17590 673b 01       		.byte	0x1
 17591 673c E501     		.2byte	0x1e5
 17592 673e 1C090000 		.4byte	0x91c
 17593 6742 00       		.byte	0
 17594 6743 00       		.byte	0
ARM GAS  C:\Users\mathi\AppData\Local\Temp\ccOm87JI.s 			page 310


 17595 6744 5A       		.uleb128 0x5a
 17596 6745 FA080000 		.4byte	.LASF879
 17597 6749 01       		.byte	0x1
 17598 674a B201     		.2byte	0x1b2
 17599 674c 01       		.byte	0x1
 17600 674d 81670000 		.4byte	0x6781
 17601 6751 4A       		.uleb128 0x4a
 17602 6752 7F240000 		.4byte	.LASF849
 17603 6756 01       		.byte	0x1
 17604 6757 B201     		.2byte	0x1b2
 17605 6759 28360000 		.4byte	0x3628
 17606 675d 4C       		.uleb128 0x4c
 17607 675e 73747300 		.ascii	"sts\000"
 17608 6762 01       		.byte	0x1
 17609 6763 B301     		.2byte	0x1b3
 17610 6765 1C090000 		.4byte	0x91c
 17611 6769 4C       		.uleb128 0x4c
 17612 676a 636E7400 		.ascii	"cnt\000"
 17613 676e 01       		.byte	0x1
 17614 676f B301     		.2byte	0x1b3
 17615 6771 1C090000 		.4byte	0x91c
 17616 6775 4C       		.uleb128 0x4c
 17617 6776 657000   		.ascii	"ep\000"
 17618 6779 01       		.byte	0x1
 17619 677a B301     		.2byte	0x1b3
 17620 677c 1C090000 		.4byte	0x91c
 17621 6780 00       		.byte	0
 17622 6781 5A       		.uleb128 0x5a
 17623 6782 7F1F0000 		.4byte	.LASF880
 17624 6786 01       		.byte	0x1
 17625 6787 7C01     		.2byte	0x17c
 17626 6789 01       		.byte	0x1
 17627 678a F8670000 		.4byte	0x67f8
 17628 678e 4A       		.uleb128 0x4a
 17629 678f 21170000 		.4byte	.LASF881
 17630 6793 01       		.byte	0x1
 17631 6794 7C01     		.2byte	0x17c
 17632 6796 531D0000 		.4byte	0x1d53
 17633 679a 4B       		.uleb128 0x4b
 17634 679b 69717000 		.ascii	"iqp\000"
 17635 679f 01       		.byte	0x1
 17636 67a0 7D01     		.2byte	0x17d
 17637 67a2 F63C0000 		.4byte	0x3cf6
 17638 67a6 4B       		.uleb128 0x4b
 17639 67a7 6E00     		.ascii	"n\000"
 17640 67a9 01       		.byte	0x1
 17641 67aa 7E01     		.2byte	0x17e
 17642 67ac 33000000 		.4byte	0x33
 17643 67b0 36       		.uleb128 0x36
 17644 67b1 FF1C0000 		.4byte	.LASF882
 17645 67b5 01       		.byte	0x1
 17646 67b6 7F01     		.2byte	0x17f
 17647 67b8 33000000 		.4byte	0x33
 17648 67bc 4D       		.uleb128 0x4d
 17649 67bd 4C       		.uleb128 0x4c
 17650 67be 7700     		.ascii	"w\000"
 17651 67c0 01       		.byte	0x1
ARM GAS  C:\Users\mathi\AppData\Local\Temp\ccOm87JI.s 			page 311


 17652 67c1 8301     		.2byte	0x183
 17653 67c3 1C090000 		.4byte	0x91c
 17654 67c7 4C       		.uleb128 0x4c
 17655 67c8 6900     		.ascii	"i\000"
 17656 67ca 01       		.byte	0x1
 17657 67cb 8301     		.2byte	0x183
 17658 67cd 1C090000 		.4byte	0x91c
 17659 67d1 4C       		.uleb128 0x4c
 17660 67d2 6E7700   		.ascii	"nw\000"
 17661 67d5 01       		.byte	0x1
 17662 67d6 8401     		.2byte	0x184
 17663 67d8 33000000 		.4byte	0x33
 17664 67dc 4D       		.uleb128 0x4d
 17665 67dd 36       		.uleb128 0x36
 17666 67de 27270000 		.4byte	.LASF883
 17667 67e2 01       		.byte	0x1
 17668 67e3 8701     		.2byte	0x187
 17669 67e5 33000000 		.4byte	0x33
 17670 67e9 36       		.uleb128 0x36
 17671 67ea 1E240000 		.4byte	.LASF884
 17672 67ee 01       		.byte	0x1
 17673 67ef 8801     		.2byte	0x188
 17674 67f1 1C090000 		.4byte	0x91c
 17675 67f5 00       		.byte	0
 17676 67f6 00       		.byte	0
 17677 67f7 00       		.byte	0
 17678 67f8 5A       		.uleb128 0x5a
 17679 67f9 47270000 		.4byte	.LASF885
 17680 67fd 01       		.byte	0x1
 17681 67fe 5F01     		.2byte	0x15f
 17682 6800 01       		.byte	0x1
 17683 6801 40680000 		.4byte	0x6840
 17684 6805 4A       		.uleb128 0x4a
 17685 6806 21170000 		.4byte	.LASF881
 17686 680a 01       		.byte	0x1
 17687 680b 5F01     		.2byte	0x15f
 17688 680d 531D0000 		.4byte	0x1d53
 17689 6811 4B       		.uleb128 0x4b
 17690 6812 62756600 		.ascii	"buf\000"
 17691 6816 01       		.byte	0x1
 17692 6817 6001     		.2byte	0x160
 17693 6819 791C0000 		.4byte	0x1c79
 17694 681d 4B       		.uleb128 0x4b
 17695 681e 6E00     		.ascii	"n\000"
 17696 6820 01       		.byte	0x1
 17697 6821 6101     		.2byte	0x161
 17698 6823 33000000 		.4byte	0x33
 17699 6827 4B       		.uleb128 0x4b
 17700 6828 6D617800 		.ascii	"max\000"
 17701 682c 01       		.byte	0x1
 17702 682d 6201     		.2byte	0x162
 17703 682f 33000000 		.4byte	0x33
 17704 6833 4D       		.uleb128 0x4d
 17705 6834 4C       		.uleb128 0x4c
 17706 6835 7700     		.ascii	"w\000"
 17707 6837 01       		.byte	0x1
 17708 6838 6701     		.2byte	0x167
ARM GAS  C:\Users\mathi\AppData\Local\Temp\ccOm87JI.s 			page 312


 17709 683a 1C090000 		.4byte	0x91c
 17710 683e 00       		.byte	0
 17711 683f 00       		.byte	0
 17712 6840 5B       		.uleb128 0x5b
 17713 6841 130C0000 		.4byte	.LASF887
 17714 6845 01       		.byte	0x1
 17715 6846 4801     		.2byte	0x148
 17716 6848 791C0000 		.4byte	0x1c79
 17717 684c 01       		.byte	0x1
 17718 684d 80680000 		.4byte	0x6880
 17719 6851 4A       		.uleb128 0x4a
 17720 6852 21170000 		.4byte	.LASF881
 17721 6856 01       		.byte	0x1
 17722 6857 4801     		.2byte	0x148
 17723 6859 531D0000 		.4byte	0x1d53
 17724 685d 4B       		.uleb128 0x4b
 17725 685e 62756600 		.ascii	"buf\000"
 17726 6862 01       		.byte	0x1
 17727 6863 4801     		.2byte	0x148
 17728 6865 791C0000 		.4byte	0x1c79
 17729 6869 4B       		.uleb128 0x4b
 17730 686a 6E00     		.ascii	"n\000"
 17731 686c 01       		.byte	0x1
 17732 686d 4801     		.2byte	0x148
 17733 686f 33000000 		.4byte	0x33
 17734 6873 4D       		.uleb128 0x4d
 17735 6874 4C       		.uleb128 0x4c
 17736 6875 7700     		.ascii	"w\000"
 17737 6877 01       		.byte	0x1
 17738 6878 4B01     		.2byte	0x14b
 17739 687a 1C090000 		.4byte	0x91c
 17740 687e 00       		.byte	0
 17741 687f 00       		.byte	0
 17742 6880 5A       		.uleb128 0x5a
 17743 6881 AF230000 		.4byte	.LASF888
 17744 6885 01       		.byte	0x1
 17745 6886 0C01     		.2byte	0x10c
 17746 6888 01       		.byte	0x1
 17747 6889 F7680000 		.4byte	0x68f7
 17748 688d 4A       		.uleb128 0x4a
 17749 688e 21170000 		.4byte	.LASF881
 17750 6892 01       		.byte	0x1
 17751 6893 0C01     		.2byte	0x10c
 17752 6895 531D0000 		.4byte	0x1d53
 17753 6899 4B       		.uleb128 0x4b
 17754 689a 6F717000 		.ascii	"oqp\000"
 17755 689e 01       		.byte	0x1
 17756 689f 0D01     		.2byte	0x10d
 17757 68a1 533C0000 		.4byte	0x3c53
 17758 68a5 4B       		.uleb128 0x4b
 17759 68a6 6E00     		.ascii	"n\000"
 17760 68a8 01       		.byte	0x1
 17761 68a9 0E01     		.2byte	0x10e
 17762 68ab 33000000 		.4byte	0x33
 17763 68af 36       		.uleb128 0x36
 17764 68b0 FF1C0000 		.4byte	.LASF882
 17765 68b4 01       		.byte	0x1
ARM GAS  C:\Users\mathi\AppData\Local\Temp\ccOm87JI.s 			page 313


 17766 68b5 0F01     		.2byte	0x10f
 17767 68b7 33000000 		.4byte	0x33
 17768 68bb 4D       		.uleb128 0x4d
 17769 68bc 4C       		.uleb128 0x4c
 17770 68bd 7700     		.ascii	"w\000"
 17771 68bf 01       		.byte	0x1
 17772 68c0 1301     		.2byte	0x113
 17773 68c2 1C090000 		.4byte	0x91c
 17774 68c6 4C       		.uleb128 0x4c
 17775 68c7 6900     		.ascii	"i\000"
 17776 68c9 01       		.byte	0x1
 17777 68ca 1301     		.2byte	0x113
 17778 68cc 1C090000 		.4byte	0x91c
 17779 68d0 4C       		.uleb128 0x4c
 17780 68d1 6E7700   		.ascii	"nw\000"
 17781 68d4 01       		.byte	0x1
 17782 68d5 1401     		.2byte	0x114
 17783 68d7 33000000 		.4byte	0x33
 17784 68db 4D       		.uleb128 0x4d
 17785 68dc 36       		.uleb128 0x36
 17786 68dd 27270000 		.4byte	.LASF883
 17787 68e1 01       		.byte	0x1
 17788 68e2 1701     		.2byte	0x117
 17789 68e4 33000000 		.4byte	0x33
 17790 68e8 36       		.uleb128 0x36
 17791 68e9 1E240000 		.4byte	.LASF884
 17792 68ed 01       		.byte	0x1
 17793 68ee 1801     		.2byte	0x118
 17794 68f0 1C090000 		.4byte	0x91c
 17795 68f4 00       		.byte	0
 17796 68f5 00       		.byte	0
 17797 68f6 00       		.byte	0
 17798 68f7 5C       		.uleb128 0x5c
 17799 68f8 9A050000 		.4byte	.LASF889
 17800 68fc 01       		.byte	0x1
 17801 68fd FC       		.byte	0xfc
 17802 68fe 01       		.byte	0x1
 17803 68ff 23690000 		.4byte	0x6923
 17804 6903 5D       		.uleb128 0x5d
 17805 6904 21170000 		.4byte	.LASF881
 17806 6908 01       		.byte	0x1
 17807 6909 FC       		.byte	0xfc
 17808 690a 531D0000 		.4byte	0x1d53
 17809 690e 5E       		.uleb128 0x5e
 17810 690f 62756600 		.ascii	"buf\000"
 17811 6913 01       		.byte	0x1
 17812 6914 FD       		.byte	0xfd
 17813 6915 AE1C0000 		.4byte	0x1cae
 17814 6919 5E       		.uleb128 0x5e
 17815 691a 6E00     		.ascii	"n\000"
 17816 691c 01       		.byte	0x1
 17817 691d FE       		.byte	0xfe
 17818 691e 33000000 		.4byte	0x33
 17819 6922 00       		.byte	0
 17820 6923 5F       		.uleb128 0x5f
 17821 6924 D3180000 		.4byte	.LASF890
 17822 6928 01       		.byte	0x1
ARM GAS  C:\Users\mathi\AppData\Local\Temp\ccOm87JI.s 			page 314


 17823 6929 E7       		.byte	0xe7
 17824 692a 791C0000 		.4byte	0x1c79
 17825 692e 01       		.byte	0x1
 17826 692f 53690000 		.4byte	0x6953
 17827 6933 5D       		.uleb128 0x5d
 17828 6934 21170000 		.4byte	.LASF881
 17829 6938 01       		.byte	0x1
 17830 6939 E7       		.byte	0xe7
 17831 693a 531D0000 		.4byte	0x1d53
 17832 693e 5E       		.uleb128 0x5e
 17833 693f 62756600 		.ascii	"buf\000"
 17834 6943 01       		.byte	0x1
 17835 6944 E7       		.byte	0xe7
 17836 6945 791C0000 		.4byte	0x1c79
 17837 6949 5E       		.uleb128 0x5e
 17838 694a 6E00     		.ascii	"n\000"
 17839 694c 01       		.byte	0x1
 17840 694d E7       		.byte	0xe7
 17841 694e 33000000 		.4byte	0x33
 17842 6952 00       		.byte	0
 17843 6953 5F       		.uleb128 0x5f
 17844 6954 1C100000 		.4byte	.LASF891
 17845 6958 01       		.byte	0x1
 17846 6959 D1       		.byte	0xd1
 17847 695a 1C090000 		.4byte	0x91c
 17848 695e 01       		.byte	0x1
 17849 695f 92690000 		.4byte	0x6992
 17850 6963 5D       		.uleb128 0x5d
 17851 6964 7F240000 		.4byte	.LASF849
 17852 6968 01       		.byte	0x1
 17853 6969 D1       		.byte	0xd1
 17854 696a 28360000 		.4byte	0x3628
 17855 696e 5D       		.uleb128 0x5d
 17856 696f FB0D0000 		.4byte	.LASF613
 17857 6973 01       		.byte	0x1
 17858 6974 D1       		.byte	0xd1
 17859 6975 33000000 		.4byte	0x33
 17860 6979 60       		.uleb128 0x60
 17861 697a 31030000 		.4byte	.LASF892
 17862 697e 01       		.byte	0x1
 17863 697f D2       		.byte	0xd2
 17864 6980 1C090000 		.4byte	0x91c
 17865 6984 61       		.uleb128 0x61
 17866 6985 45000000 		.4byte	.LASF893
 17867 6989 A2690000 		.4byte	0x69a2
 17868 698d 1C100000 		.4byte	.LASF891
 17869 6991 00       		.byte	0
 17870 6992 0A       		.uleb128 0xa
 17871 6993 6C010000 		.4byte	0x16c
 17872 6997 A2690000 		.4byte	0x69a2
 17873 699b 0B       		.uleb128 0xb
 17874 699c 25000000 		.4byte	0x25
 17875 69a0 0D       		.byte	0xd
 17876 69a1 00       		.byte	0
 17877 69a2 0F       		.uleb128 0xf
 17878 69a3 92690000 		.4byte	0x6992
 17879 69a7 5C       		.uleb128 0x5c
ARM GAS  C:\Users\mathi\AppData\Local\Temp\ccOm87JI.s 			page 315


 17880 69a8 82220000 		.4byte	.LASF894
 17881 69ac 01       		.byte	0x1
 17882 69ad C4       		.byte	0xc4
 17883 69ae 01       		.byte	0x1
 17884 69af BF690000 		.4byte	0x69bf
 17885 69b3 5D       		.uleb128 0x5d
 17886 69b4 7F240000 		.4byte	.LASF849
 17887 69b8 01       		.byte	0x1
 17888 69b9 C4       		.byte	0xc4
 17889 69ba 28360000 		.4byte	0x3628
 17890 69be 00       		.byte	0
 17891 69bf 5C       		.uleb128 0x5c
 17892 69c0 16130000 		.4byte	.LASF895
 17893 69c4 01       		.byte	0x1
 17894 69c5 B3       		.byte	0xb3
 17895 69c6 01       		.byte	0x1
 17896 69c7 ED690000 		.4byte	0x69ed
 17897 69cb 5D       		.uleb128 0x5d
 17898 69cc 7F240000 		.4byte	.LASF849
 17899 69d0 01       		.byte	0x1
 17900 69d1 B3       		.byte	0xb3
 17901 69d2 28360000 		.4byte	0x3628
 17902 69d6 5D       		.uleb128 0x5d
 17903 69d7 EC0C0000 		.4byte	.LASF896
 17904 69db 01       		.byte	0x1
 17905 69dc B3       		.byte	0xb3
 17906 69dd 1C090000 		.4byte	0x91c
 17907 69e1 60       		.uleb128 0x60
 17908 69e2 631D0000 		.4byte	.LASF850
 17909 69e6 01       		.byte	0x1
 17910 69e7 B4       		.byte	0xb4
 17911 69e8 953E0000 		.4byte	0x3e95
 17912 69ec 00       		.byte	0
 17913 69ed 5C       		.uleb128 0x5c
 17914 69ee 27250000 		.4byte	.LASF897
 17915 69f2 01       		.byte	0x1
 17916 69f3 A9       		.byte	0xa9
 17917 69f4 01       		.byte	0x1
 17918 69f5 106A0000 		.4byte	0x6a10
 17919 69f9 5D       		.uleb128 0x5d
 17920 69fa 7F240000 		.4byte	.LASF849
 17921 69fe 01       		.byte	0x1
 17922 69ff A9       		.byte	0xa9
 17923 6a00 28360000 		.4byte	0x3628
 17924 6a04 60       		.uleb128 0x60
 17925 6a05 631D0000 		.4byte	.LASF850
 17926 6a09 01       		.byte	0x1
 17927 6a0a AA       		.byte	0xaa
 17928 6a0b 953E0000 		.4byte	0x3e95
 17929 6a0f 00       		.byte	0
 17930 6a10 5C       		.uleb128 0x5c
 17931 6a11 2F1C0000 		.4byte	.LASF898
 17932 6a15 01       		.byte	0x1
 17933 6a16 84       		.byte	0x84
 17934 6a17 01       		.byte	0x1
 17935 6a18 3C6A0000 		.4byte	0x6a3c
 17936 6a1c 5D       		.uleb128 0x5d
ARM GAS  C:\Users\mathi\AppData\Local\Temp\ccOm87JI.s 			page 316


 17937 6a1d 7F240000 		.4byte	.LASF849
 17938 6a21 01       		.byte	0x1
 17939 6a22 84       		.byte	0x84
 17940 6a23 28360000 		.4byte	0x3628
 17941 6a27 60       		.uleb128 0x60
 17942 6a28 631D0000 		.4byte	.LASF850
 17943 6a2c 01       		.byte	0x1
 17944 6a2d 85       		.byte	0x85
 17945 6a2e 953E0000 		.4byte	0x3e95
 17946 6a32 62       		.uleb128 0x62
 17947 6a33 6900     		.ascii	"i\000"
 17948 6a35 01       		.byte	0x1
 17949 6a36 86       		.byte	0x86
 17950 6a37 25000000 		.4byte	0x25
 17951 6a3b 00       		.byte	0
 17952 6a3c 5C       		.uleb128 0x5c
 17953 6a3d A50C0000 		.4byte	.LASF899
 17954 6a41 01       		.byte	0x1
 17955 6a42 73       		.byte	0x73
 17956 6a43 01       		.byte	0x1
 17957 6a44 5F6A0000 		.4byte	0x6a5f
 17958 6a48 5D       		.uleb128 0x5d
 17959 6a49 7F240000 		.4byte	.LASF849
 17960 6a4d 01       		.byte	0x1
 17961 6a4e 73       		.byte	0x73
 17962 6a4f 28360000 		.4byte	0x3628
 17963 6a53 60       		.uleb128 0x60
 17964 6a54 631D0000 		.4byte	.LASF850
 17965 6a58 01       		.byte	0x1
 17966 6a59 74       		.byte	0x74
 17967 6a5a 953E0000 		.4byte	0x3e95
 17968 6a5e 00       		.byte	0
 17969 6a5f 5A       		.uleb128 0x5a
 17970 6a60 33120000 		.4byte	.LASF900
 17971 6a64 05       		.byte	0x5
 17972 6a65 FA02     		.2byte	0x2fa
 17973 6a67 03       		.byte	0x3
 17974 6a68 856A0000 		.4byte	0x6a85
 17975 6a6c 4B       		.uleb128 0x4b
 17976 6a6d 74717000 		.ascii	"tqp\000"
 17977 6a71 05       		.byte	0x5
 17978 6a72 FA02     		.2byte	0x2fa
 17979 6a74 856A0000 		.4byte	0x6a85
 17980 6a78 4B       		.uleb128 0x4b
 17981 6a79 6D736700 		.ascii	"msg\000"
 17982 6a7d 05       		.byte	0x5
 17983 6a7e FA02     		.2byte	0x2fa
 17984 6a80 89090000 		.4byte	0x989
 17985 6a84 00       		.byte	0
 17986 6a85 05       		.uleb128 0x5
 17987 6a86 04       		.byte	0x4
 17988 6a87 2E0B0000 		.4byte	0xb2e
 17989 6a8b 5A       		.uleb128 0x5a
 17990 6a8c 42050000 		.4byte	.LASF901
 17991 6a90 05       		.byte	0x5
 17992 6a91 A802     		.2byte	0x2a8
 17993 6a93 03       		.byte	0x3
ARM GAS  C:\Users\mathi\AppData\Local\Temp\ccOm87JI.s 			page 317


 17994 6a94 B16A0000 		.4byte	0x6ab1
 17995 6a98 4B       		.uleb128 0x4b
 17996 6a99 74727000 		.ascii	"trp\000"
 17997 6a9d 05       		.byte	0x5
 17998 6a9e A802     		.2byte	0x2a8
 17999 6aa0 A9190000 		.4byte	0x19a9
 18000 6aa4 4B       		.uleb128 0x4b
 18001 6aa5 6D736700 		.ascii	"msg\000"
 18002 6aa9 05       		.byte	0x5
 18003 6aaa A802     		.2byte	0x2a8
 18004 6aac 89090000 		.4byte	0x989
 18005 6ab0 00       		.byte	0
 18006 6ab1 5B       		.uleb128 0x5b
 18007 6ab2 890F0000 		.4byte	.LASF902
 18008 6ab6 05       		.byte	0x5
 18009 6ab7 8002     		.2byte	0x280
 18010 6ab9 89090000 		.4byte	0x989
 18011 6abd 03       		.byte	0x3
 18012 6abe CF6A0000 		.4byte	0x6acf
 18013 6ac2 4B       		.uleb128 0x4b
 18014 6ac3 74727000 		.ascii	"trp\000"
 18015 6ac7 05       		.byte	0x5
 18016 6ac8 8002     		.2byte	0x280
 18017 6aca A9190000 		.4byte	0x19a9
 18018 6ace 00       		.byte	0
 18019 6acf 63       		.uleb128 0x63
 18020 6ad0 95200000 		.4byte	.LASF905
 18021 6ad4 05       		.byte	0x5
 18022 6ad5 2802     		.2byte	0x228
 18023 6ad7 03       		.byte	0x3
 18024 6ad8 5A       		.uleb128 0x5a
 18025 6ad9 8A260000 		.4byte	.LASF903
 18026 6add 05       		.byte	0x5
 18027 6ade 0D02     		.2byte	0x20d
 18028 6ae0 03       		.byte	0x3
 18029 6ae1 F26A0000 		.4byte	0x6af2
 18030 6ae5 4A       		.uleb128 0x4a
 18031 6ae6 DF030000 		.4byte	.LASF904
 18032 6aea 05       		.byte	0x5
 18033 6aeb 0D02     		.2byte	0x20d
 18034 6aed 3C090000 		.4byte	0x93c
 18035 6af1 00       		.byte	0
 18036 6af2 63       		.uleb128 0x63
 18037 6af3 A3070000 		.4byte	.LASF906
 18038 6af7 05       		.byte	0x5
 18039 6af8 DE01     		.2byte	0x1de
 18040 6afa 03       		.byte	0x3
 18041 6afb 63       		.uleb128 0x63
 18042 6afc B4170000 		.4byte	.LASF907
 18043 6b00 05       		.byte	0x5
 18044 6b01 D301     		.2byte	0x1d3
 18045 6b03 03       		.byte	0x3
 18046 6b04 63       		.uleb128 0x63
 18047 6b05 FF000000 		.4byte	.LASF908
 18048 6b09 05       		.byte	0x5
 18049 6b0a C801     		.2byte	0x1c8
 18050 6b0c 03       		.byte	0x3
ARM GAS  C:\Users\mathi\AppData\Local\Temp\ccOm87JI.s 			page 318


 18051 6b0d 63       		.uleb128 0x63
 18052 6b0e D41D0000 		.4byte	.LASF909
 18053 6b12 05       		.byte	0x5
 18054 6b13 BD01     		.2byte	0x1bd
 18055 6b15 03       		.byte	0x3
 18056 6b16 5C       		.uleb128 0x5c
 18057 6b17 01220000 		.4byte	.LASF910
 18058 6b1b 02       		.byte	0x2
 18059 6b1c 84       		.byte	0x84
 18060 6b1d 03       		.byte	0x3
 18061 6b1e 2E6B0000 		.4byte	0x6b2e
 18062 6b22 5D       		.uleb128 0x5d
 18063 6b23 D4230000 		.4byte	.LASF911
 18064 6b27 02       		.byte	0x2
 18065 6b28 84       		.byte	0x84
 18066 6b29 DD050000 		.4byte	0x5dd
 18067 6b2d 00       		.byte	0
 18068 6b2e 5F       		.uleb128 0x5f
 18069 6b2f A10F0000 		.4byte	.LASF912
 18070 6b33 06       		.byte	0x6
 18071 6b34 F5       		.byte	0xf5
 18072 6b35 040B0000 		.4byte	0xb04
 18073 6b39 03       		.byte	0x3
 18074 6b3a 566B0000 		.4byte	0x6b56
 18075 6b3e 5E       		.uleb128 0x5e
 18076 6b3f 747000   		.ascii	"tp\000"
 18077 6b42 06       		.byte	0x6
 18078 6b43 F5       		.byte	0xf5
 18079 6b44 040B0000 		.4byte	0xb04
 18080 6b48 61       		.uleb128 0x61
 18081 6b49 45000000 		.4byte	.LASF893
 18082 6b4d 666B0000 		.4byte	0x6b66
 18083 6b51 A10F0000 		.4byte	.LASF912
 18084 6b55 00       		.byte	0
 18085 6b56 0A       		.uleb128 0xa
 18086 6b57 6C010000 		.4byte	0x16c
 18087 6b5b 666B0000 		.4byte	0x6b66
 18088 6b5f 0B       		.uleb128 0xb
 18089 6b60 25000000 		.4byte	0x25
 18090 6b64 0B       		.byte	0xb
 18091 6b65 00       		.byte	0
 18092 6b66 0F       		.uleb128 0xf
 18093 6b67 566B0000 		.4byte	0x6b56
 18094 6b6b 63       		.uleb128 0x63
 18095 6b6c B61B0000 		.4byte	.LASF913
 18096 6b70 04       		.byte	0x4
 18097 6b71 9601     		.2byte	0x196
 18098 6b73 03       		.byte	0x3
 18099 6b74 63       		.uleb128 0x63
 18100 6b75 D6240000 		.4byte	.LASF914
 18101 6b79 04       		.byte	0x4
 18102 6b7a 8201     		.2byte	0x182
 18103 6b7c 03       		.byte	0x3
 18104 6b7d 5A       		.uleb128 0x5a
 18105 6b7e 1A220000 		.4byte	.LASF915
 18106 6b82 04       		.byte	0x4
 18107 6b83 6601     		.2byte	0x166
ARM GAS  C:\Users\mathi\AppData\Local\Temp\ccOm87JI.s 			page 319


 18108 6b85 03       		.byte	0x3
 18109 6b86 986B0000 		.4byte	0x6b98
 18110 6b8a 61       		.uleb128 0x61
 18111 6b8b 45000000 		.4byte	.LASF893
 18112 6b8f 666B0000 		.4byte	0x6b66
 18113 6b93 1A220000 		.4byte	.LASF915
 18114 6b97 00       		.byte	0
 18115 6b98 63       		.uleb128 0x63
 18116 6b99 1B190000 		.4byte	.LASF916
 18117 6b9d 04       		.byte	0x4
 18118 6b9e 5A01     		.2byte	0x15a
 18119 6ba0 03       		.byte	0x3
 18120 6ba1 63       		.uleb128 0x63
 18121 6ba2 78000000 		.4byte	.LASF917
 18122 6ba6 14       		.byte	0x14
 18123 6ba7 E401     		.2byte	0x1e4
 18124 6ba9 03       		.byte	0x3
 18125 6baa 63       		.uleb128 0x63
 18126 6bab C5140000 		.4byte	.LASF918
 18127 6baf 14       		.byte	0x14
 18128 6bb0 D901     		.2byte	0x1d9
 18129 6bb2 03       		.byte	0x3
 18130 6bb3 63       		.uleb128 0x63
 18131 6bb4 E8180000 		.4byte	.LASF919
 18132 6bb8 14       		.byte	0x14
 18133 6bb9 CA01     		.2byte	0x1ca
 18134 6bbb 03       		.byte	0x3
 18135 6bbc 63       		.uleb128 0x63
 18136 6bbd 7D1A0000 		.4byte	.LASF920
 18137 6bc1 14       		.byte	0x14
 18138 6bc2 BC01     		.2byte	0x1bc
 18139 6bc4 03       		.byte	0x3
 18140 6bc5 5A       		.uleb128 0x5a
 18141 6bc6 CE250000 		.4byte	.LASF921
 18142 6bca 03       		.byte	0x3
 18143 6bcb 2002     		.2byte	0x220
 18144 6bcd 03       		.byte	0x3
 18145 6bce DF6B0000 		.4byte	0x6bdf
 18146 6bd2 4A       		.uleb128 0x4a
 18147 6bd3 310D0000 		.4byte	.LASF922
 18148 6bd7 03       		.byte	0x3
 18149 6bd8 2002     		.2byte	0x220
 18150 6bda 1C090000 		.4byte	0x91c
 18151 6bde 00       		.byte	0
 18152 6bdf 64       		.uleb128 0x64
 18153 6be0 E2490000 		.4byte	0x49e2
 18154 6be4 00000000 		.4byte	.LFB284
 18155 6be8 5C000000 		.4byte	.LFE284-.LFB284
 18156 6bec 01       		.uleb128 0x1
 18157 6bed 9C       		.byte	0x9c
 18158 6bee 206C0000 		.4byte	0x6c20
 18159 6bf2 39       		.uleb128 0x39
 18160 6bf3 EF490000 		.4byte	0x49ef
 18161 6bf7 69200000 		.4byte	.LLST244
 18162 6bfb 39       		.uleb128 0x39
 18163 6bfc FB490000 		.4byte	0x49fb
 18164 6c00 8A200000 		.4byte	.LLST245
ARM GAS  C:\Users\mathi\AppData\Local\Temp\ccOm87JI.s 			page 320


 18165 6c04 42       		.uleb128 0x42
 18166 6c05 064A0000 		.4byte	0x4a06
 18167 6c09 AB200000 		.4byte	.LLST246
 18168 6c0d 42       		.uleb128 0x42
 18169 6c0e 124A0000 		.4byte	0x4a12
 18170 6c12 CE200000 		.4byte	.LLST247
 18171 6c16 3A       		.uleb128 0x3a
 18172 6c17 52000000 		.4byte	.LVL534
 18173 6c1b 236D0000 		.4byte	0x6d23
 18174 6c1f 00       		.byte	0
 18175 6c20 64       		.uleb128 0x64
 18176 6c21 A3490000 		.4byte	0x49a3
 18177 6c25 00000000 		.4byte	.LFB285
 18178 6c29 64000000 		.4byte	.LFE285-.LFB285
 18179 6c2d 01       		.uleb128 0x1
 18180 6c2e 9C       		.byte	0x9c
 18181 6c2f 6B6C0000 		.4byte	0x6c6b
 18182 6c33 39       		.uleb128 0x39
 18183 6c34 B0490000 		.4byte	0x49b0
 18184 6c38 E1200000 		.4byte	.LLST248
 18185 6c3c 39       		.uleb128 0x39
 18186 6c3d BC490000 		.4byte	0x49bc
 18187 6c41 1B210000 		.4byte	.LLST249
 18188 6c45 42       		.uleb128 0x42
 18189 6c46 C7490000 		.4byte	0x49c7
 18190 6c4a 55210000 		.4byte	.LLST250
 18191 6c4e 54       		.uleb128 0x54
 18192 6c4f 50050000 		.4byte	.Ldebug_ranges0+0x550
 18193 6c53 616C0000 		.4byte	0x6c61
 18194 6c57 42       		.uleb128 0x42
 18195 6c58 D4490000 		.4byte	0x49d4
 18196 6c5c 73210000 		.4byte	.LLST251
 18197 6c60 00       		.byte	0
 18198 6c61 3A       		.uleb128 0x3a
 18199 6c62 5E000000 		.4byte	.LVL545
 18200 6c66 236D0000 		.4byte	0x6d23
 18201 6c6a 00       		.byte	0
 18202 6c6b 64       		.uleb128 0x64
 18203 6c6c 7E490000 		.4byte	0x497e
 18204 6c70 00000000 		.4byte	.LFB286
 18205 6c74 34000000 		.4byte	.LFE286-.LFB286
 18206 6c78 01       		.uleb128 0x1
 18207 6c79 9C       		.byte	0x9c
 18208 6c7a 9A6C0000 		.4byte	0x6c9a
 18209 6c7e 39       		.uleb128 0x39
 18210 6c7f 8B490000 		.4byte	0x498b
 18211 6c83 96210000 		.4byte	.LLST252
 18212 6c87 39       		.uleb128 0x39
 18213 6c88 97490000 		.4byte	0x4997
 18214 6c8c B7210000 		.4byte	.LLST253
 18215 6c90 3A       		.uleb128 0x3a
 18216 6c91 2E000000 		.4byte	.LVL548
 18217 6c95 236D0000 		.4byte	0x6d23
 18218 6c99 00       		.byte	0
 18219 6c9a 64       		.uleb128 0x64
 18220 6c9b 59490000 		.4byte	0x4959
 18221 6c9f 00000000 		.4byte	.LFB287
ARM GAS  C:\Users\mathi\AppData\Local\Temp\ccOm87JI.s 			page 321


 18222 6ca3 44000000 		.4byte	.LFE287-.LFB287
 18223 6ca7 01       		.uleb128 0x1
 18224 6ca8 9C       		.byte	0x9c
 18225 6ca9 C96C0000 		.4byte	0x6cc9
 18226 6cad 39       		.uleb128 0x39
 18227 6cae 66490000 		.4byte	0x4966
 18228 6cb2 D8210000 		.4byte	.LLST254
 18229 6cb6 39       		.uleb128 0x39
 18230 6cb7 72490000 		.4byte	0x4972
 18231 6cbb F9210000 		.4byte	.LLST255
 18232 6cbf 3A       		.uleb128 0x3a
 18233 6cc0 3E000000 		.4byte	.LVL552
 18234 6cc4 236D0000 		.4byte	0x6d23
 18235 6cc8 00       		.byte	0
 18236 6cc9 65       		.uleb128 0x65
 18237 6cca 6C260000 		.4byte	.LASF923
 18238 6cce 6C260000 		.4byte	.LASF923
 18239 6cd2 17       		.byte	0x17
 18240 6cd3 4F       		.byte	0x4f
 18241 6cd4 65       		.uleb128 0x65
 18242 6cd5 1C050000 		.4byte	.LASF924
 18243 6cd9 1C050000 		.4byte	.LASF924
 18244 6cdd 15       		.byte	0x15
 18245 6cde D8       		.byte	0xd8
 18246 6cdf 65       		.uleb128 0x65
 18247 6ce0 D8140000 		.4byte	.LASF925
 18248 6ce4 D8140000 		.4byte	.LASF925
 18249 6ce8 15       		.byte	0x15
 18250 6ce9 D9       		.byte	0xd9
 18251 6cea 65       		.uleb128 0x65
 18252 6ceb 011C0000 		.4byte	.LASF926
 18253 6cef 011C0000 		.4byte	.LASF926
 18254 6cf3 17       		.byte	0x17
 18255 6cf4 50       		.byte	0x50
 18256 6cf5 66       		.uleb128 0x66
 18257 6cf6 08080000 		.4byte	.LASF927
 18258 6cfa 08080000 		.4byte	.LASF927
 18259 6cfe 04       		.byte	0x4
 18260 6cff 1601     		.2byte	0x116
 18261 6d01 65       		.uleb128 0x65
 18262 6d02 66090000 		.4byte	.LASF928
 18263 6d06 66090000 		.4byte	.LASF928
 18264 6d0a 06       		.byte	0x6
 18265 6d0b 94       		.byte	0x94
 18266 6d0c 66       		.uleb128 0x66
 18267 6d0d D01A0000 		.4byte	.LASF929
 18268 6d11 D01A0000 		.4byte	.LASF929
 18269 6d15 0F       		.byte	0xf
 18270 6d16 1702     		.2byte	0x217
 18271 6d18 65       		.uleb128 0x65
 18272 6d19 A5140000 		.4byte	.LASF930
 18273 6d1d A5140000 		.4byte	.LASF930
 18274 6d21 06       		.byte	0x6
 18275 6d22 8D       		.byte	0x8d
 18276 6d23 67       		.uleb128 0x67
 18277 6d24 63070000 		.4byte	.LASF951
 18278 6d28 63070000 		.4byte	.LASF951
ARM GAS  C:\Users\mathi\AppData\Local\Temp\ccOm87JI.s 			page 322


 18279 6d2c 66       		.uleb128 0x66
 18280 6d2d 76210000 		.4byte	.LASF931
 18281 6d31 76210000 		.4byte	.LASF931
 18282 6d35 04       		.byte	0x4
 18283 6d36 1D01     		.2byte	0x11d
 18284 6d38 65       		.uleb128 0x65
 18285 6d39 54050000 		.4byte	.LASF932
 18286 6d3d 54050000 		.4byte	.LASF932
 18287 6d41 39       		.byte	0x39
 18288 6d42 4F       		.byte	0x4f
 18289 6d43 66       		.uleb128 0x66
 18290 6d44 571D0000 		.4byte	.LASF933
 18291 6d48 571D0000 		.4byte	.LASF933
 18292 6d4c 0F       		.byte	0xf
 18293 6d4d 1302     		.2byte	0x213
 18294 6d4f 65       		.uleb128 0x65
 18295 6d50 0D240000 		.4byte	.LASF934
 18296 6d54 0D240000 		.4byte	.LASF934
 18297 6d58 39       		.byte	0x39
 18298 6d59 4E       		.byte	0x4e
 18299 6d5a 65       		.uleb128 0x65
 18300 6d5b 31170000 		.4byte	.LASF935
 18301 6d5f 31170000 		.4byte	.LASF935
 18302 6d63 06       		.byte	0x6
 18303 6d64 87       		.byte	0x87
 18304 6d65 65       		.uleb128 0x65
 18305 6d66 79130000 		.4byte	.LASF936
 18306 6d6a 79130000 		.4byte	.LASF936
 18307 6d6e 06       		.byte	0x6
 18308 6d6f 85       		.byte	0x85
 18309 6d70 66       		.uleb128 0x66
 18310 6d71 D2170000 		.4byte	.LASF937
 18311 6d75 D2170000 		.4byte	.LASF937
 18312 6d79 36       		.byte	0x36
 18313 6d7a 3602     		.2byte	0x236
 18314 6d7c 65       		.uleb128 0x65
 18315 6d7d 83160000 		.4byte	.LASF938
 18316 6d81 83160000 		.4byte	.LASF938
 18317 6d85 17       		.byte	0x17
 18318 6d86 51       		.byte	0x51
 18319 6d87 65       		.uleb128 0x65
 18320 6d88 03250000 		.4byte	.LASF939
 18321 6d8c 03250000 		.4byte	.LASF939
 18322 6d90 15       		.byte	0x15
 18323 6d91 DA       		.byte	0xda
 18324 6d92 65       		.uleb128 0x65
 18325 6d93 94210000 		.4byte	.LASF940
 18326 6d97 94210000 		.4byte	.LASF940
 18327 6d9b 06       		.byte	0x6
 18328 6d9c 8F       		.byte	0x8f
 18329 6d9d 65       		.uleb128 0x65
 18330 6d9e 261F0000 		.4byte	.LASF941
 18331 6da2 261F0000 		.4byte	.LASF941
 18332 6da6 15       		.byte	0x15
 18333 6da7 DB       		.byte	0xdb
 18334 6da8 65       		.uleb128 0x65
 18335 6da9 72200000 		.4byte	.LASF942
ARM GAS  C:\Users\mathi\AppData\Local\Temp\ccOm87JI.s 			page 323


 18336 6dad 72200000 		.4byte	.LASF942
 18337 6db1 17       		.byte	0x17
 18338 6db2 52       		.byte	0x52
 18339 6db3 66       		.uleb128 0x66
 18340 6db4 9D090000 		.4byte	.LASF943
 18341 6db8 9D090000 		.4byte	.LASF943
 18342 6dbc 36       		.byte	0x36
 18343 6dbd 4902     		.2byte	0x249
 18344 6dbf 65       		.uleb128 0x65
 18345 6dc0 3B070000 		.4byte	.LASF944
 18346 6dc4 3B070000 		.4byte	.LASF944
 18347 6dc8 17       		.byte	0x17
 18348 6dc9 4D       		.byte	0x4d
 18349 6dca 65       		.uleb128 0x65
 18350 6dcb 07050000 		.4byte	.LASF945
 18351 6dcf 07050000 		.4byte	.LASF945
 18352 6dd3 15       		.byte	0x15
 18353 6dd4 DC       		.byte	0xdc
 18354 6dd5 65       		.uleb128 0x65
 18355 6dd6 D9230000 		.4byte	.LASF946
 18356 6dda D9230000 		.4byte	.LASF946
 18357 6dde 15       		.byte	0x15
 18358 6ddf DD       		.byte	0xdd
 18359 6de0 66       		.uleb128 0x66
 18360 6de1 4A110000 		.4byte	.LASF947
 18361 6de5 4A110000 		.4byte	.LASF947
 18362 6de9 14       		.byte	0x14
 18363 6dea 6601     		.2byte	0x166
 18364 6dec 00       		.byte	0
 18365              		.section	.debug_abbrev,"",%progbits
 18366              	.Ldebug_abbrev0:
 18367 0000 01       		.uleb128 0x1
 18368 0001 11       		.uleb128 0x11
 18369 0002 01       		.byte	0x1
 18370 0003 25       		.uleb128 0x25
 18371 0004 0E       		.uleb128 0xe
 18372 0005 13       		.uleb128 0x13
 18373 0006 0B       		.uleb128 0xb
 18374 0007 03       		.uleb128 0x3
 18375 0008 0E       		.uleb128 0xe
 18376 0009 1B       		.uleb128 0x1b
 18377 000a 0E       		.uleb128 0xe
 18378 000b 55       		.uleb128 0x55
 18379 000c 17       		.uleb128 0x17
 18380 000d 11       		.uleb128 0x11
 18381 000e 01       		.uleb128 0x1
 18382 000f 10       		.uleb128 0x10
 18383 0010 17       		.uleb128 0x17
 18384 0011 00       		.byte	0
 18385 0012 00       		.byte	0
 18386 0013 02       		.uleb128 0x2
 18387 0014 24       		.uleb128 0x24
 18388 0015 00       		.byte	0
 18389 0016 0B       		.uleb128 0xb
 18390 0017 0B       		.uleb128 0xb
 18391 0018 3E       		.uleb128 0x3e
 18392 0019 0B       		.uleb128 0xb
ARM GAS  C:\Users\mathi\AppData\Local\Temp\ccOm87JI.s 			page 324


 18393 001a 03       		.uleb128 0x3
 18394 001b 0E       		.uleb128 0xe
 18395 001c 00       		.byte	0
 18396 001d 00       		.byte	0
 18397 001e 03       		.uleb128 0x3
 18398 001f 24       		.uleb128 0x24
 18399 0020 00       		.byte	0
 18400 0021 0B       		.uleb128 0xb
 18401 0022 0B       		.uleb128 0xb
 18402 0023 3E       		.uleb128 0x3e
 18403 0024 0B       		.uleb128 0xb
 18404 0025 03       		.uleb128 0x3
 18405 0026 08       		.uleb128 0x8
 18406 0027 00       		.byte	0
 18407 0028 00       		.byte	0
 18408 0029 04       		.uleb128 0x4
 18409 002a 16       		.uleb128 0x16
 18410 002b 00       		.byte	0
 18411 002c 03       		.uleb128 0x3
 18412 002d 0E       		.uleb128 0xe
 18413 002e 3A       		.uleb128 0x3a
 18414 002f 0B       		.uleb128 0xb
 18415 0030 3B       		.uleb128 0x3b
 18416 0031 0B       		.uleb128 0xb
 18417 0032 49       		.uleb128 0x49
 18418 0033 13       		.uleb128 0x13
 18419 0034 00       		.byte	0
 18420 0035 00       		.byte	0
 18421 0036 05       		.uleb128 0x5
 18422 0037 0F       		.uleb128 0xf
 18423 0038 00       		.byte	0
 18424 0039 0B       		.uleb128 0xb
 18425 003a 0B       		.uleb128 0xb
 18426 003b 49       		.uleb128 0x49
 18427 003c 13       		.uleb128 0x13
 18428 003d 00       		.byte	0
 18429 003e 00       		.byte	0
 18430 003f 06       		.uleb128 0x6
 18431 0040 13       		.uleb128 0x13
 18432 0041 00       		.byte	0
 18433 0042 03       		.uleb128 0x3
 18434 0043 0E       		.uleb128 0xe
 18435 0044 3C       		.uleb128 0x3c
 18436 0045 19       		.uleb128 0x19
 18437 0046 00       		.byte	0
 18438 0047 00       		.byte	0
 18439 0048 07       		.uleb128 0x7
 18440 0049 16       		.uleb128 0x16
 18441 004a 00       		.byte	0
 18442 004b 03       		.uleb128 0x3
 18443 004c 0E       		.uleb128 0xe
 18444 004d 3A       		.uleb128 0x3a
 18445 004e 0B       		.uleb128 0xb
 18446 004f 3B       		.uleb128 0x3b
 18447 0050 05       		.uleb128 0x5
 18448 0051 49       		.uleb128 0x49
 18449 0052 13       		.uleb128 0x13
ARM GAS  C:\Users\mathi\AppData\Local\Temp\ccOm87JI.s 			page 325


 18450 0053 00       		.byte	0
 18451 0054 00       		.byte	0
 18452 0055 08       		.uleb128 0x8
 18453 0056 17       		.uleb128 0x17
 18454 0057 01       		.byte	0x1
 18455 0058 0B       		.uleb128 0xb
 18456 0059 0B       		.uleb128 0xb
 18457 005a 3A       		.uleb128 0x3a
 18458 005b 0B       		.uleb128 0xb
 18459 005c 3B       		.uleb128 0x3b
 18460 005d 0B       		.uleb128 0xb
 18461 005e 01       		.uleb128 0x1
 18462 005f 13       		.uleb128 0x13
 18463 0060 00       		.byte	0
 18464 0061 00       		.byte	0
 18465 0062 09       		.uleb128 0x9
 18466 0063 0D       		.uleb128 0xd
 18467 0064 00       		.byte	0
 18468 0065 03       		.uleb128 0x3
 18469 0066 0E       		.uleb128 0xe
 18470 0067 3A       		.uleb128 0x3a
 18471 0068 0B       		.uleb128 0xb
 18472 0069 3B       		.uleb128 0x3b
 18473 006a 0B       		.uleb128 0xb
 18474 006b 49       		.uleb128 0x49
 18475 006c 13       		.uleb128 0x13
 18476 006d 00       		.byte	0
 18477 006e 00       		.byte	0
 18478 006f 0A       		.uleb128 0xa
 18479 0070 01       		.uleb128 0x1
 18480 0071 01       		.byte	0x1
 18481 0072 49       		.uleb128 0x49
 18482 0073 13       		.uleb128 0x13
 18483 0074 01       		.uleb128 0x1
 18484 0075 13       		.uleb128 0x13
 18485 0076 00       		.byte	0
 18486 0077 00       		.byte	0
 18487 0078 0B       		.uleb128 0xb
 18488 0079 21       		.uleb128 0x21
 18489 007a 00       		.byte	0
 18490 007b 49       		.uleb128 0x49
 18491 007c 13       		.uleb128 0x13
 18492 007d 2F       		.uleb128 0x2f
 18493 007e 0B       		.uleb128 0xb
 18494 007f 00       		.byte	0
 18495 0080 00       		.byte	0
 18496 0081 0C       		.uleb128 0xc
 18497 0082 13       		.uleb128 0x13
 18498 0083 01       		.byte	0x1
 18499 0084 0B       		.uleb128 0xb
 18500 0085 0B       		.uleb128 0xb
 18501 0086 3A       		.uleb128 0x3a
 18502 0087 0B       		.uleb128 0xb
 18503 0088 3B       		.uleb128 0x3b
 18504 0089 0B       		.uleb128 0xb
 18505 008a 01       		.uleb128 0x1
 18506 008b 13       		.uleb128 0x13
ARM GAS  C:\Users\mathi\AppData\Local\Temp\ccOm87JI.s 			page 326


 18507 008c 00       		.byte	0
 18508 008d 00       		.byte	0
 18509 008e 0D       		.uleb128 0xd
 18510 008f 0D       		.uleb128 0xd
 18511 0090 00       		.byte	0
 18512 0091 03       		.uleb128 0x3
 18513 0092 0E       		.uleb128 0xe
 18514 0093 3A       		.uleb128 0x3a
 18515 0094 0B       		.uleb128 0xb
 18516 0095 3B       		.uleb128 0x3b
 18517 0096 0B       		.uleb128 0xb
 18518 0097 49       		.uleb128 0x49
 18519 0098 13       		.uleb128 0x13
 18520 0099 38       		.uleb128 0x38
 18521 009a 0B       		.uleb128 0xb
 18522 009b 00       		.byte	0
 18523 009c 00       		.byte	0
 18524 009d 0E       		.uleb128 0xe
 18525 009e 0F       		.uleb128 0xf
 18526 009f 00       		.byte	0
 18527 00a0 0B       		.uleb128 0xb
 18528 00a1 0B       		.uleb128 0xb
 18529 00a2 00       		.byte	0
 18530 00a3 00       		.byte	0
 18531 00a4 0F       		.uleb128 0xf
 18532 00a5 26       		.uleb128 0x26
 18533 00a6 00       		.byte	0
 18534 00a7 49       		.uleb128 0x49
 18535 00a8 13       		.uleb128 0x13
 18536 00a9 00       		.byte	0
 18537 00aa 00       		.byte	0
 18538 00ab 10       		.uleb128 0x10
 18539 00ac 13       		.uleb128 0x13
 18540 00ad 01       		.byte	0x1
 18541 00ae 03       		.uleb128 0x3
 18542 00af 0E       		.uleb128 0xe
 18543 00b0 0B       		.uleb128 0xb
 18544 00b1 0B       		.uleb128 0xb
 18545 00b2 3A       		.uleb128 0x3a
 18546 00b3 0B       		.uleb128 0xb
 18547 00b4 3B       		.uleb128 0x3b
 18548 00b5 0B       		.uleb128 0xb
 18549 00b6 01       		.uleb128 0x1
 18550 00b7 13       		.uleb128 0x13
 18551 00b8 00       		.byte	0
 18552 00b9 00       		.byte	0
 18553 00ba 11       		.uleb128 0x11
 18554 00bb 0D       		.uleb128 0xd
 18555 00bc 00       		.byte	0
 18556 00bd 03       		.uleb128 0x3
 18557 00be 08       		.uleb128 0x8
 18558 00bf 3A       		.uleb128 0x3a
 18559 00c0 0B       		.uleb128 0xb
 18560 00c1 3B       		.uleb128 0x3b
 18561 00c2 0B       		.uleb128 0xb
 18562 00c3 49       		.uleb128 0x49
 18563 00c4 13       		.uleb128 0x13
ARM GAS  C:\Users\mathi\AppData\Local\Temp\ccOm87JI.s 			page 327


 18564 00c5 38       		.uleb128 0x38
 18565 00c6 0B       		.uleb128 0xb
 18566 00c7 00       		.byte	0
 18567 00c8 00       		.byte	0
 18568 00c9 12       		.uleb128 0x12
 18569 00ca 13       		.uleb128 0x13
 18570 00cb 01       		.byte	0x1
 18571 00cc 03       		.uleb128 0x3
 18572 00cd 0E       		.uleb128 0xe
 18573 00ce 0B       		.uleb128 0xb
 18574 00cf 05       		.uleb128 0x5
 18575 00d0 3A       		.uleb128 0x3a
 18576 00d1 0B       		.uleb128 0xb
 18577 00d2 3B       		.uleb128 0x3b
 18578 00d3 0B       		.uleb128 0xb
 18579 00d4 01       		.uleb128 0x1
 18580 00d5 13       		.uleb128 0x13
 18581 00d6 00       		.byte	0
 18582 00d7 00       		.byte	0
 18583 00d8 13       		.uleb128 0x13
 18584 00d9 0D       		.uleb128 0xd
 18585 00da 00       		.byte	0
 18586 00db 03       		.uleb128 0x3
 18587 00dc 0E       		.uleb128 0xe
 18588 00dd 3A       		.uleb128 0x3a
 18589 00de 0B       		.uleb128 0xb
 18590 00df 3B       		.uleb128 0x3b
 18591 00e0 0B       		.uleb128 0xb
 18592 00e1 49       		.uleb128 0x49
 18593 00e2 13       		.uleb128 0x13
 18594 00e3 38       		.uleb128 0x38
 18595 00e4 05       		.uleb128 0x5
 18596 00e5 00       		.byte	0
 18597 00e6 00       		.byte	0
 18598 00e7 14       		.uleb128 0x14
 18599 00e8 15       		.uleb128 0x15
 18600 00e9 00       		.byte	0
 18601 00ea 27       		.uleb128 0x27
 18602 00eb 19       		.uleb128 0x19
 18603 00ec 00       		.byte	0
 18604 00ed 00       		.byte	0
 18605 00ee 15       		.uleb128 0x15
 18606 00ef 15       		.uleb128 0x15
 18607 00f0 01       		.byte	0x1
 18608 00f1 27       		.uleb128 0x27
 18609 00f2 19       		.uleb128 0x19
 18610 00f3 49       		.uleb128 0x49
 18611 00f4 13       		.uleb128 0x13
 18612 00f5 01       		.uleb128 0x1
 18613 00f6 13       		.uleb128 0x13
 18614 00f7 00       		.byte	0
 18615 00f8 00       		.byte	0
 18616 00f9 16       		.uleb128 0x16
 18617 00fa 05       		.uleb128 0x5
 18618 00fb 00       		.byte	0
 18619 00fc 49       		.uleb128 0x49
 18620 00fd 13       		.uleb128 0x13
ARM GAS  C:\Users\mathi\AppData\Local\Temp\ccOm87JI.s 			page 328


 18621 00fe 00       		.byte	0
 18622 00ff 00       		.byte	0
 18623 0100 17       		.uleb128 0x17
 18624 0101 13       		.uleb128 0x13
 18625 0102 01       		.byte	0x1
 18626 0103 03       		.uleb128 0x3
 18627 0104 0E       		.uleb128 0xe
 18628 0105 0B       		.uleb128 0xb
 18629 0106 05       		.uleb128 0x5
 18630 0107 3A       		.uleb128 0x3a
 18631 0108 0B       		.uleb128 0xb
 18632 0109 3B       		.uleb128 0x3b
 18633 010a 05       		.uleb128 0x5
 18634 010b 01       		.uleb128 0x1
 18635 010c 13       		.uleb128 0x13
 18636 010d 00       		.byte	0
 18637 010e 00       		.byte	0
 18638 010f 18       		.uleb128 0x18
 18639 0110 0D       		.uleb128 0xd
 18640 0111 00       		.byte	0
 18641 0112 03       		.uleb128 0x3
 18642 0113 0E       		.uleb128 0xe
 18643 0114 3A       		.uleb128 0x3a
 18644 0115 0B       		.uleb128 0xb
 18645 0116 3B       		.uleb128 0x3b
 18646 0117 05       		.uleb128 0x5
 18647 0118 49       		.uleb128 0x49
 18648 0119 13       		.uleb128 0x13
 18649 011a 38       		.uleb128 0x38
 18650 011b 0B       		.uleb128 0xb
 18651 011c 00       		.byte	0
 18652 011d 00       		.byte	0
 18653 011e 19       		.uleb128 0x19
 18654 011f 0D       		.uleb128 0xd
 18655 0120 00       		.byte	0
 18656 0121 03       		.uleb128 0x3
 18657 0122 0E       		.uleb128 0xe
 18658 0123 3A       		.uleb128 0x3a
 18659 0124 0B       		.uleb128 0xb
 18660 0125 3B       		.uleb128 0x3b
 18661 0126 05       		.uleb128 0x5
 18662 0127 49       		.uleb128 0x49
 18663 0128 13       		.uleb128 0x13
 18664 0129 38       		.uleb128 0x38
 18665 012a 05       		.uleb128 0x5
 18666 012b 00       		.byte	0
 18667 012c 00       		.byte	0
 18668 012d 1A       		.uleb128 0x1a
 18669 012e 35       		.uleb128 0x35
 18670 012f 00       		.byte	0
 18671 0130 49       		.uleb128 0x49
 18672 0131 13       		.uleb128 0x13
 18673 0132 00       		.byte	0
 18674 0133 00       		.byte	0
 18675 0134 1B       		.uleb128 0x1b
 18676 0135 13       		.uleb128 0x13
 18677 0136 01       		.byte	0x1
ARM GAS  C:\Users\mathi\AppData\Local\Temp\ccOm87JI.s 			page 329


 18678 0137 03       		.uleb128 0x3
 18679 0138 0E       		.uleb128 0xe
 18680 0139 0B       		.uleb128 0xb
 18681 013a 0B       		.uleb128 0xb
 18682 013b 3A       		.uleb128 0x3a
 18683 013c 0B       		.uleb128 0xb
 18684 013d 3B       		.uleb128 0x3b
 18685 013e 05       		.uleb128 0x5
 18686 013f 01       		.uleb128 0x1
 18687 0140 13       		.uleb128 0x13
 18688 0141 00       		.byte	0
 18689 0142 00       		.byte	0
 18690 0143 1C       		.uleb128 0x1c
 18691 0144 13       		.uleb128 0x13
 18692 0145 01       		.byte	0x1
 18693 0146 0B       		.uleb128 0xb
 18694 0147 0B       		.uleb128 0xb
 18695 0148 3A       		.uleb128 0x3a
 18696 0149 0B       		.uleb128 0xb
 18697 014a 3B       		.uleb128 0x3b
 18698 014b 05       		.uleb128 0x5
 18699 014c 01       		.uleb128 0x1
 18700 014d 13       		.uleb128 0x13
 18701 014e 00       		.byte	0
 18702 014f 00       		.byte	0
 18703 0150 1D       		.uleb128 0x1d
 18704 0151 17       		.uleb128 0x17
 18705 0152 01       		.byte	0x1
 18706 0153 0B       		.uleb128 0xb
 18707 0154 0B       		.uleb128 0xb
 18708 0155 3A       		.uleb128 0x3a
 18709 0156 0B       		.uleb128 0xb
 18710 0157 3B       		.uleb128 0x3b
 18711 0158 05       		.uleb128 0x5
 18712 0159 01       		.uleb128 0x1
 18713 015a 13       		.uleb128 0x13
 18714 015b 00       		.byte	0
 18715 015c 00       		.byte	0
 18716 015d 1E       		.uleb128 0x1e
 18717 015e 0D       		.uleb128 0xd
 18718 015f 00       		.byte	0
 18719 0160 03       		.uleb128 0x3
 18720 0161 0E       		.uleb128 0xe
 18721 0162 3A       		.uleb128 0x3a
 18722 0163 0B       		.uleb128 0xb
 18723 0164 3B       		.uleb128 0x3b
 18724 0165 05       		.uleb128 0x5
 18725 0166 49       		.uleb128 0x49
 18726 0167 13       		.uleb128 0x13
 18727 0168 00       		.byte	0
 18728 0169 00       		.byte	0
 18729 016a 1F       		.uleb128 0x1f
 18730 016b 15       		.uleb128 0x15
 18731 016c 01       		.byte	0x1
 18732 016d 27       		.uleb128 0x27
 18733 016e 19       		.uleb128 0x19
 18734 016f 01       		.uleb128 0x1
ARM GAS  C:\Users\mathi\AppData\Local\Temp\ccOm87JI.s 			page 330


 18735 0170 13       		.uleb128 0x13
 18736 0171 00       		.byte	0
 18737 0172 00       		.byte	0
 18738 0173 20       		.uleb128 0x20
 18739 0174 34       		.uleb128 0x34
 18740 0175 00       		.byte	0
 18741 0176 03       		.uleb128 0x3
 18742 0177 0E       		.uleb128 0xe
 18743 0178 3A       		.uleb128 0x3a
 18744 0179 0B       		.uleb128 0xb
 18745 017a 3B       		.uleb128 0x3b
 18746 017b 05       		.uleb128 0x5
 18747 017c 49       		.uleb128 0x49
 18748 017d 13       		.uleb128 0x13
 18749 017e 3F       		.uleb128 0x3f
 18750 017f 19       		.uleb128 0x19
 18751 0180 3C       		.uleb128 0x3c
 18752 0181 19       		.uleb128 0x19
 18753 0182 00       		.byte	0
 18754 0183 00       		.byte	0
 18755 0184 21       		.uleb128 0x21
 18756 0185 0D       		.uleb128 0xd
 18757 0186 00       		.byte	0
 18758 0187 03       		.uleb128 0x3
 18759 0188 08       		.uleb128 0x8
 18760 0189 3A       		.uleb128 0x3a
 18761 018a 0B       		.uleb128 0xb
 18762 018b 3B       		.uleb128 0x3b
 18763 018c 05       		.uleb128 0x5
 18764 018d 49       		.uleb128 0x49
 18765 018e 13       		.uleb128 0x13
 18766 018f 38       		.uleb128 0x38
 18767 0190 0B       		.uleb128 0xb
 18768 0191 00       		.byte	0
 18769 0192 00       		.byte	0
 18770 0193 22       		.uleb128 0x22
 18771 0194 0D       		.uleb128 0xd
 18772 0195 00       		.byte	0
 18773 0196 03       		.uleb128 0x3
 18774 0197 08       		.uleb128 0x8
 18775 0198 3A       		.uleb128 0x3a
 18776 0199 0B       		.uleb128 0xb
 18777 019a 3B       		.uleb128 0x3b
 18778 019b 05       		.uleb128 0x5
 18779 019c 49       		.uleb128 0x49
 18780 019d 13       		.uleb128 0x13
 18781 019e 38       		.uleb128 0x38
 18782 019f 05       		.uleb128 0x5
 18783 01a0 00       		.byte	0
 18784 01a1 00       		.byte	0
 18785 01a2 23       		.uleb128 0x23
 18786 01a3 34       		.uleb128 0x34
 18787 01a4 00       		.byte	0
 18788 01a5 03       		.uleb128 0x3
 18789 01a6 0E       		.uleb128 0xe
 18790 01a7 3A       		.uleb128 0x3a
 18791 01a8 0B       		.uleb128 0xb
ARM GAS  C:\Users\mathi\AppData\Local\Temp\ccOm87JI.s 			page 331


 18792 01a9 3B       		.uleb128 0x3b
 18793 01aa 0B       		.uleb128 0xb
 18794 01ab 49       		.uleb128 0x49
 18795 01ac 13       		.uleb128 0x13
 18796 01ad 3F       		.uleb128 0x3f
 18797 01ae 19       		.uleb128 0x19
 18798 01af 3C       		.uleb128 0x3c
 18799 01b0 19       		.uleb128 0x19
 18800 01b1 00       		.byte	0
 18801 01b2 00       		.byte	0
 18802 01b3 24       		.uleb128 0x24
 18803 01b4 13       		.uleb128 0x13
 18804 01b5 01       		.byte	0x1
 18805 01b6 0B       		.uleb128 0xb
 18806 01b7 05       		.uleb128 0x5
 18807 01b8 3A       		.uleb128 0x3a
 18808 01b9 0B       		.uleb128 0xb
 18809 01ba 3B       		.uleb128 0x3b
 18810 01bb 05       		.uleb128 0x5
 18811 01bc 01       		.uleb128 0x1
 18812 01bd 13       		.uleb128 0x13
 18813 01be 00       		.byte	0
 18814 01bf 00       		.byte	0
 18815 01c0 25       		.uleb128 0x25
 18816 01c1 13       		.uleb128 0x13
 18817 01c2 01       		.byte	0x1
 18818 01c3 0B       		.uleb128 0xb
 18819 01c4 05       		.uleb128 0x5
 18820 01c5 3A       		.uleb128 0x3a
 18821 01c6 0B       		.uleb128 0xb
 18822 01c7 3B       		.uleb128 0x3b
 18823 01c8 0B       		.uleb128 0xb
 18824 01c9 01       		.uleb128 0x1
 18825 01ca 13       		.uleb128 0x13
 18826 01cb 00       		.byte	0
 18827 01cc 00       		.byte	0
 18828 01cd 26       		.uleb128 0x26
 18829 01ce 34       		.uleb128 0x34
 18830 01cf 00       		.byte	0
 18831 01d0 03       		.uleb128 0x3
 18832 01d1 08       		.uleb128 0x8
 18833 01d2 3A       		.uleb128 0x3a
 18834 01d3 0B       		.uleb128 0xb
 18835 01d4 3B       		.uleb128 0x3b
 18836 01d5 05       		.uleb128 0x5
 18837 01d6 49       		.uleb128 0x49
 18838 01d7 13       		.uleb128 0x13
 18839 01d8 3F       		.uleb128 0x3f
 18840 01d9 19       		.uleb128 0x19
 18841 01da 3C       		.uleb128 0x3c
 18842 01db 19       		.uleb128 0x19
 18843 01dc 00       		.byte	0
 18844 01dd 00       		.byte	0
 18845 01de 27       		.uleb128 0x27
 18846 01df 04       		.uleb128 0x4
 18847 01e0 01       		.byte	0x1
 18848 01e1 3E       		.uleb128 0x3e
ARM GAS  C:\Users\mathi\AppData\Local\Temp\ccOm87JI.s 			page 332


 18849 01e2 0B       		.uleb128 0xb
 18850 01e3 0B       		.uleb128 0xb
 18851 01e4 0B       		.uleb128 0xb
 18852 01e5 49       		.uleb128 0x49
 18853 01e6 13       		.uleb128 0x13
 18854 01e7 3A       		.uleb128 0x3a
 18855 01e8 0B       		.uleb128 0xb
 18856 01e9 3B       		.uleb128 0x3b
 18857 01ea 0B       		.uleb128 0xb
 18858 01eb 01       		.uleb128 0x1
 18859 01ec 13       		.uleb128 0x13
 18860 01ed 00       		.byte	0
 18861 01ee 00       		.byte	0
 18862 01ef 28       		.uleb128 0x28
 18863 01f0 28       		.uleb128 0x28
 18864 01f1 00       		.byte	0
 18865 01f2 03       		.uleb128 0x3
 18866 01f3 0E       		.uleb128 0xe
 18867 01f4 1C       		.uleb128 0x1c
 18868 01f5 0B       		.uleb128 0xb
 18869 01f6 00       		.byte	0
 18870 01f7 00       		.byte	0
 18871 01f8 29       		.uleb128 0x29
 18872 01f9 0D       		.uleb128 0xd
 18873 01fa 00       		.byte	0
 18874 01fb 03       		.uleb128 0x3
 18875 01fc 08       		.uleb128 0x8
 18876 01fd 3A       		.uleb128 0x3a
 18877 01fe 0B       		.uleb128 0xb
 18878 01ff 3B       		.uleb128 0x3b
 18879 0200 0B       		.uleb128 0xb
 18880 0201 49       		.uleb128 0x49
 18881 0202 13       		.uleb128 0x13
 18882 0203 00       		.byte	0
 18883 0204 00       		.byte	0
 18884 0205 2A       		.uleb128 0x2a
 18885 0206 04       		.uleb128 0x4
 18886 0207 01       		.byte	0x1
 18887 0208 3E       		.uleb128 0x3e
 18888 0209 0B       		.uleb128 0xb
 18889 020a 0B       		.uleb128 0xb
 18890 020b 0B       		.uleb128 0xb
 18891 020c 49       		.uleb128 0x49
 18892 020d 13       		.uleb128 0x13
 18893 020e 3A       		.uleb128 0x3a
 18894 020f 0B       		.uleb128 0xb
 18895 0210 3B       		.uleb128 0x3b
 18896 0211 05       		.uleb128 0x5
 18897 0212 01       		.uleb128 0x1
 18898 0213 13       		.uleb128 0x13
 18899 0214 00       		.byte	0
 18900 0215 00       		.byte	0
 18901 0216 2B       		.uleb128 0x2b
 18902 0217 26       		.uleb128 0x26
 18903 0218 00       		.byte	0
 18904 0219 00       		.byte	0
 18905 021a 00       		.byte	0
ARM GAS  C:\Users\mathi\AppData\Local\Temp\ccOm87JI.s 			page 333


 18906 021b 2C       		.uleb128 0x2c
 18907 021c 13       		.uleb128 0x13
 18908 021d 01       		.byte	0x1
 18909 021e 0B       		.uleb128 0xb
 18910 021f 06       		.uleb128 0x6
 18911 0220 3A       		.uleb128 0x3a
 18912 0221 0B       		.uleb128 0xb
 18913 0222 3B       		.uleb128 0x3b
 18914 0223 0B       		.uleb128 0xb
 18915 0224 01       		.uleb128 0x1
 18916 0225 13       		.uleb128 0x13
 18917 0226 00       		.byte	0
 18918 0227 00       		.byte	0
 18919 0228 2D       		.uleb128 0x2d
 18920 0229 0D       		.uleb128 0xd
 18921 022a 00       		.byte	0
 18922 022b 03       		.uleb128 0x3
 18923 022c 08       		.uleb128 0x8
 18924 022d 3A       		.uleb128 0x3a
 18925 022e 0B       		.uleb128 0xb
 18926 022f 3B       		.uleb128 0x3b
 18927 0230 0B       		.uleb128 0xb
 18928 0231 49       		.uleb128 0x49
 18929 0232 13       		.uleb128 0x13
 18930 0233 38       		.uleb128 0x38
 18931 0234 05       		.uleb128 0x5
 18932 0235 00       		.byte	0
 18933 0236 00       		.byte	0
 18934 0237 2E       		.uleb128 0x2e
 18935 0238 21       		.uleb128 0x21
 18936 0239 00       		.byte	0
 18937 023a 49       		.uleb128 0x49
 18938 023b 13       		.uleb128 0x13
 18939 023c 2F       		.uleb128 0x2f
 18940 023d 05       		.uleb128 0x5
 18941 023e 00       		.byte	0
 18942 023f 00       		.byte	0
 18943 0240 2F       		.uleb128 0x2f
 18944 0241 34       		.uleb128 0x34
 18945 0242 00       		.byte	0
 18946 0243 47       		.uleb128 0x47
 18947 0244 13       		.uleb128 0x13
 18948 0245 3A       		.uleb128 0x3a
 18949 0246 0B       		.uleb128 0xb
 18950 0247 3B       		.uleb128 0x3b
 18951 0248 0B       		.uleb128 0xb
 18952 0249 02       		.uleb128 0x2
 18953 024a 18       		.uleb128 0x18
 18954 024b 00       		.byte	0
 18955 024c 00       		.byte	0
 18956 024d 30       		.uleb128 0x30
 18957 024e 34       		.uleb128 0x34
 18958 024f 00       		.byte	0
 18959 0250 03       		.uleb128 0x3
 18960 0251 0E       		.uleb128 0xe
 18961 0252 3A       		.uleb128 0x3a
 18962 0253 0B       		.uleb128 0xb
ARM GAS  C:\Users\mathi\AppData\Local\Temp\ccOm87JI.s 			page 334


 18963 0254 3B       		.uleb128 0x3b
 18964 0255 0B       		.uleb128 0xb
 18965 0256 49       		.uleb128 0x49
 18966 0257 13       		.uleb128 0x13
 18967 0258 02       		.uleb128 0x2
 18968 0259 18       		.uleb128 0x18
 18969 025a 00       		.byte	0
 18970 025b 00       		.byte	0
 18971 025c 31       		.uleb128 0x31
 18972 025d 2E       		.uleb128 0x2e
 18973 025e 01       		.byte	0x1
 18974 025f 3F       		.uleb128 0x3f
 18975 0260 19       		.uleb128 0x19
 18976 0261 03       		.uleb128 0x3
 18977 0262 0E       		.uleb128 0xe
 18978 0263 3A       		.uleb128 0x3a
 18979 0264 0B       		.uleb128 0xb
 18980 0265 3B       		.uleb128 0x3b
 18981 0266 05       		.uleb128 0x5
 18982 0267 27       		.uleb128 0x27
 18983 0268 19       		.uleb128 0x19
 18984 0269 11       		.uleb128 0x11
 18985 026a 01       		.uleb128 0x1
 18986 026b 12       		.uleb128 0x12
 18987 026c 06       		.uleb128 0x6
 18988 026d 40       		.uleb128 0x40
 18989 026e 18       		.uleb128 0x18
 18990 026f 9742     		.uleb128 0x2117
 18991 0271 19       		.uleb128 0x19
 18992 0272 01       		.uleb128 0x1
 18993 0273 13       		.uleb128 0x13
 18994 0274 00       		.byte	0
 18995 0275 00       		.byte	0
 18996 0276 32       		.uleb128 0x32
 18997 0277 05       		.uleb128 0x5
 18998 0278 00       		.byte	0
 18999 0279 03       		.uleb128 0x3
 19000 027a 08       		.uleb128 0x8
 19001 027b 3A       		.uleb128 0x3a
 19002 027c 0B       		.uleb128 0xb
 19003 027d 3B       		.uleb128 0x3b
 19004 027e 05       		.uleb128 0x5
 19005 027f 49       		.uleb128 0x49
 19006 0280 13       		.uleb128 0x13
 19007 0281 02       		.uleb128 0x2
 19008 0282 17       		.uleb128 0x17
 19009 0283 00       		.byte	0
 19010 0284 00       		.byte	0
 19011 0285 33       		.uleb128 0x33
 19012 0286 34       		.uleb128 0x34
 19013 0287 00       		.byte	0
 19014 0288 03       		.uleb128 0x3
 19015 0289 0E       		.uleb128 0xe
 19016 028a 3A       		.uleb128 0x3a
 19017 028b 0B       		.uleb128 0xb
 19018 028c 3B       		.uleb128 0x3b
 19019 028d 05       		.uleb128 0x5
ARM GAS  C:\Users\mathi\AppData\Local\Temp\ccOm87JI.s 			page 335


 19020 028e 49       		.uleb128 0x49
 19021 028f 13       		.uleb128 0x13
 19022 0290 02       		.uleb128 0x2
 19023 0291 17       		.uleb128 0x17
 19024 0292 00       		.byte	0
 19025 0293 00       		.byte	0
 19026 0294 34       		.uleb128 0x34
 19027 0295 0B       		.uleb128 0xb
 19028 0296 01       		.byte	0x1
 19029 0297 11       		.uleb128 0x11
 19030 0298 01       		.uleb128 0x1
 19031 0299 12       		.uleb128 0x12
 19032 029a 06       		.uleb128 0x6
 19033 029b 01       		.uleb128 0x1
 19034 029c 13       		.uleb128 0x13
 19035 029d 00       		.byte	0
 19036 029e 00       		.byte	0
 19037 029f 35       		.uleb128 0x35
 19038 02a0 34       		.uleb128 0x34
 19039 02a1 00       		.byte	0
 19040 02a2 03       		.uleb128 0x3
 19041 02a3 08       		.uleb128 0x8
 19042 02a4 3A       		.uleb128 0x3a
 19043 02a5 0B       		.uleb128 0xb
 19044 02a6 3B       		.uleb128 0x3b
 19045 02a7 05       		.uleb128 0x5
 19046 02a8 49       		.uleb128 0x49
 19047 02a9 13       		.uleb128 0x13
 19048 02aa 02       		.uleb128 0x2
 19049 02ab 17       		.uleb128 0x17
 19050 02ac 00       		.byte	0
 19051 02ad 00       		.byte	0
 19052 02ae 36       		.uleb128 0x36
 19053 02af 34       		.uleb128 0x34
 19054 02b0 00       		.byte	0
 19055 02b1 03       		.uleb128 0x3
 19056 02b2 0E       		.uleb128 0xe
 19057 02b3 3A       		.uleb128 0x3a
 19058 02b4 0B       		.uleb128 0xb
 19059 02b5 3B       		.uleb128 0x3b
 19060 02b6 05       		.uleb128 0x5
 19061 02b7 49       		.uleb128 0x49
 19062 02b8 13       		.uleb128 0x13
 19063 02b9 00       		.byte	0
 19064 02ba 00       		.byte	0
 19065 02bb 37       		.uleb128 0x37
 19066 02bc 1D       		.uleb128 0x1d
 19067 02bd 01       		.byte	0x1
 19068 02be 31       		.uleb128 0x31
 19069 02bf 13       		.uleb128 0x13
 19070 02c0 11       		.uleb128 0x11
 19071 02c1 01       		.uleb128 0x1
 19072 02c2 12       		.uleb128 0x12
 19073 02c3 06       		.uleb128 0x6
 19074 02c4 58       		.uleb128 0x58
 19075 02c5 0B       		.uleb128 0xb
 19076 02c6 59       		.uleb128 0x59
ARM GAS  C:\Users\mathi\AppData\Local\Temp\ccOm87JI.s 			page 336


 19077 02c7 05       		.uleb128 0x5
 19078 02c8 01       		.uleb128 0x1
 19079 02c9 13       		.uleb128 0x13
 19080 02ca 00       		.byte	0
 19081 02cb 00       		.byte	0
 19082 02cc 38       		.uleb128 0x38
 19083 02cd 1D       		.uleb128 0x1d
 19084 02ce 01       		.byte	0x1
 19085 02cf 31       		.uleb128 0x31
 19086 02d0 13       		.uleb128 0x13
 19087 02d1 11       		.uleb128 0x11
 19088 02d2 01       		.uleb128 0x1
 19089 02d3 12       		.uleb128 0x12
 19090 02d4 06       		.uleb128 0x6
 19091 02d5 58       		.uleb128 0x58
 19092 02d6 0B       		.uleb128 0xb
 19093 02d7 59       		.uleb128 0x59
 19094 02d8 05       		.uleb128 0x5
 19095 02d9 00       		.byte	0
 19096 02da 00       		.byte	0
 19097 02db 39       		.uleb128 0x39
 19098 02dc 05       		.uleb128 0x5
 19099 02dd 00       		.byte	0
 19100 02de 31       		.uleb128 0x31
 19101 02df 13       		.uleb128 0x13
 19102 02e0 02       		.uleb128 0x2
 19103 02e1 17       		.uleb128 0x17
 19104 02e2 00       		.byte	0
 19105 02e3 00       		.byte	0
 19106 02e4 3A       		.uleb128 0x3a
 19107 02e5 898201   		.uleb128 0x4109
 19108 02e8 00       		.byte	0
 19109 02e9 11       		.uleb128 0x11
 19110 02ea 01       		.uleb128 0x1
 19111 02eb 31       		.uleb128 0x31
 19112 02ec 13       		.uleb128 0x13
 19113 02ed 00       		.byte	0
 19114 02ee 00       		.byte	0
 19115 02ef 3B       		.uleb128 0x3b
 19116 02f0 0B       		.uleb128 0xb
 19117 02f1 01       		.byte	0x1
 19118 02f2 11       		.uleb128 0x11
 19119 02f3 01       		.uleb128 0x1
 19120 02f4 12       		.uleb128 0x12
 19121 02f5 06       		.uleb128 0x6
 19122 02f6 00       		.byte	0
 19123 02f7 00       		.byte	0
 19124 02f8 3C       		.uleb128 0x3c
 19125 02f9 34       		.uleb128 0x34
 19126 02fa 00       		.byte	0
 19127 02fb 31       		.uleb128 0x31
 19128 02fc 13       		.uleb128 0x13
 19129 02fd 00       		.byte	0
 19130 02fe 00       		.byte	0
 19131 02ff 3D       		.uleb128 0x3d
 19132 0300 898201   		.uleb128 0x4109
 19133 0303 01       		.byte	0x1
ARM GAS  C:\Users\mathi\AppData\Local\Temp\ccOm87JI.s 			page 337


 19134 0304 11       		.uleb128 0x11
 19135 0305 01       		.uleb128 0x1
 19136 0306 31       		.uleb128 0x31
 19137 0307 13       		.uleb128 0x13
 19138 0308 00       		.byte	0
 19139 0309 00       		.byte	0
 19140 030a 3E       		.uleb128 0x3e
 19141 030b 8A8201   		.uleb128 0x410a
 19142 030e 00       		.byte	0
 19143 030f 02       		.uleb128 0x2
 19144 0310 18       		.uleb128 0x18
 19145 0311 9142     		.uleb128 0x2111
 19146 0313 18       		.uleb128 0x18
 19147 0314 00       		.byte	0
 19148 0315 00       		.byte	0
 19149 0316 3F       		.uleb128 0x3f
 19150 0317 1D       		.uleb128 0x1d
 19151 0318 01       		.byte	0x1
 19152 0319 31       		.uleb128 0x31
 19153 031a 13       		.uleb128 0x13
 19154 031b 52       		.uleb128 0x52
 19155 031c 01       		.uleb128 0x1
 19156 031d 55       		.uleb128 0x55
 19157 031e 17       		.uleb128 0x17
 19158 031f 58       		.uleb128 0x58
 19159 0320 0B       		.uleb128 0xb
 19160 0321 59       		.uleb128 0x59
 19161 0322 05       		.uleb128 0x5
 19162 0323 01       		.uleb128 0x1
 19163 0324 13       		.uleb128 0x13
 19164 0325 00       		.byte	0
 19165 0326 00       		.byte	0
 19166 0327 40       		.uleb128 0x40
 19167 0328 05       		.uleb128 0x5
 19168 0329 00       		.byte	0
 19169 032a 31       		.uleb128 0x31
 19170 032b 13       		.uleb128 0x13
 19171 032c 00       		.byte	0
 19172 032d 00       		.byte	0
 19173 032e 41       		.uleb128 0x41
 19174 032f 0B       		.uleb128 0xb
 19175 0330 01       		.byte	0x1
 19176 0331 31       		.uleb128 0x31
 19177 0332 13       		.uleb128 0x13
 19178 0333 55       		.uleb128 0x55
 19179 0334 17       		.uleb128 0x17
 19180 0335 00       		.byte	0
 19181 0336 00       		.byte	0
 19182 0337 42       		.uleb128 0x42
 19183 0338 34       		.uleb128 0x34
 19184 0339 00       		.byte	0
 19185 033a 31       		.uleb128 0x31
 19186 033b 13       		.uleb128 0x13
 19187 033c 02       		.uleb128 0x2
 19188 033d 17       		.uleb128 0x17
 19189 033e 00       		.byte	0
 19190 033f 00       		.byte	0
ARM GAS  C:\Users\mathi\AppData\Local\Temp\ccOm87JI.s 			page 338


 19191 0340 43       		.uleb128 0x43
 19192 0341 0B       		.uleb128 0xb
 19193 0342 01       		.byte	0x1
 19194 0343 55       		.uleb128 0x55
 19195 0344 17       		.uleb128 0x17
 19196 0345 00       		.byte	0
 19197 0346 00       		.byte	0
 19198 0347 44       		.uleb128 0x44
 19199 0348 0B       		.uleb128 0xb
 19200 0349 01       		.byte	0x1
 19201 034a 31       		.uleb128 0x31
 19202 034b 13       		.uleb128 0x13
 19203 034c 55       		.uleb128 0x55
 19204 034d 17       		.uleb128 0x17
 19205 034e 01       		.uleb128 0x1
 19206 034f 13       		.uleb128 0x13
 19207 0350 00       		.byte	0
 19208 0351 00       		.byte	0
 19209 0352 45       		.uleb128 0x45
 19210 0353 1D       		.uleb128 0x1d
 19211 0354 01       		.byte	0x1
 19212 0355 31       		.uleb128 0x31
 19213 0356 13       		.uleb128 0x13
 19214 0357 52       		.uleb128 0x52
 19215 0358 01       		.uleb128 0x1
 19216 0359 55       		.uleb128 0x55
 19217 035a 17       		.uleb128 0x17
 19218 035b 58       		.uleb128 0x58
 19219 035c 0B       		.uleb128 0xb
 19220 035d 59       		.uleb128 0x59
 19221 035e 05       		.uleb128 0x5
 19222 035f 00       		.byte	0
 19223 0360 00       		.byte	0
 19224 0361 46       		.uleb128 0x46
 19225 0362 0B       		.uleb128 0xb
 19226 0363 01       		.byte	0x1
 19227 0364 31       		.uleb128 0x31
 19228 0365 13       		.uleb128 0x13
 19229 0366 11       		.uleb128 0x11
 19230 0367 01       		.uleb128 0x1
 19231 0368 12       		.uleb128 0x12
 19232 0369 06       		.uleb128 0x6
 19233 036a 01       		.uleb128 0x1
 19234 036b 13       		.uleb128 0x13
 19235 036c 00       		.byte	0
 19236 036d 00       		.byte	0
 19237 036e 47       		.uleb128 0x47
 19238 036f 0B       		.uleb128 0xb
 19239 0370 01       		.byte	0x1
 19240 0371 31       		.uleb128 0x31
 19241 0372 13       		.uleb128 0x13
 19242 0373 11       		.uleb128 0x11
 19243 0374 01       		.uleb128 0x1
 19244 0375 12       		.uleb128 0x12
 19245 0376 06       		.uleb128 0x6
 19246 0377 00       		.byte	0
 19247 0378 00       		.byte	0
ARM GAS  C:\Users\mathi\AppData\Local\Temp\ccOm87JI.s 			page 339


 19248 0379 48       		.uleb128 0x48
 19249 037a 05       		.uleb128 0x5
 19250 037b 00       		.byte	0
 19251 037c 03       		.uleb128 0x3
 19252 037d 0E       		.uleb128 0xe
 19253 037e 3A       		.uleb128 0x3a
 19254 037f 0B       		.uleb128 0xb
 19255 0380 3B       		.uleb128 0x3b
 19256 0381 05       		.uleb128 0x5
 19257 0382 49       		.uleb128 0x49
 19258 0383 13       		.uleb128 0x13
 19259 0384 02       		.uleb128 0x2
 19260 0385 17       		.uleb128 0x17
 19261 0386 00       		.byte	0
 19262 0387 00       		.byte	0
 19263 0388 49       		.uleb128 0x49
 19264 0389 2E       		.uleb128 0x2e
 19265 038a 01       		.byte	0x1
 19266 038b 3F       		.uleb128 0x3f
 19267 038c 19       		.uleb128 0x19
 19268 038d 03       		.uleb128 0x3
 19269 038e 0E       		.uleb128 0xe
 19270 038f 3A       		.uleb128 0x3a
 19271 0390 0B       		.uleb128 0xb
 19272 0391 3B       		.uleb128 0x3b
 19273 0392 05       		.uleb128 0x5
 19274 0393 27       		.uleb128 0x27
 19275 0394 19       		.uleb128 0x19
 19276 0395 20       		.uleb128 0x20
 19277 0396 0B       		.uleb128 0xb
 19278 0397 01       		.uleb128 0x1
 19279 0398 13       		.uleb128 0x13
 19280 0399 00       		.byte	0
 19281 039a 00       		.byte	0
 19282 039b 4A       		.uleb128 0x4a
 19283 039c 05       		.uleb128 0x5
 19284 039d 00       		.byte	0
 19285 039e 03       		.uleb128 0x3
 19286 039f 0E       		.uleb128 0xe
 19287 03a0 3A       		.uleb128 0x3a
 19288 03a1 0B       		.uleb128 0xb
 19289 03a2 3B       		.uleb128 0x3b
 19290 03a3 05       		.uleb128 0x5
 19291 03a4 49       		.uleb128 0x49
 19292 03a5 13       		.uleb128 0x13
 19293 03a6 00       		.byte	0
 19294 03a7 00       		.byte	0
 19295 03a8 4B       		.uleb128 0x4b
 19296 03a9 05       		.uleb128 0x5
 19297 03aa 00       		.byte	0
 19298 03ab 03       		.uleb128 0x3
 19299 03ac 08       		.uleb128 0x8
 19300 03ad 3A       		.uleb128 0x3a
 19301 03ae 0B       		.uleb128 0xb
 19302 03af 3B       		.uleb128 0x3b
 19303 03b0 05       		.uleb128 0x5
 19304 03b1 49       		.uleb128 0x49
ARM GAS  C:\Users\mathi\AppData\Local\Temp\ccOm87JI.s 			page 340


 19305 03b2 13       		.uleb128 0x13
 19306 03b3 00       		.byte	0
 19307 03b4 00       		.byte	0
 19308 03b5 4C       		.uleb128 0x4c
 19309 03b6 34       		.uleb128 0x34
 19310 03b7 00       		.byte	0
 19311 03b8 03       		.uleb128 0x3
 19312 03b9 08       		.uleb128 0x8
 19313 03ba 3A       		.uleb128 0x3a
 19314 03bb 0B       		.uleb128 0xb
 19315 03bc 3B       		.uleb128 0x3b
 19316 03bd 05       		.uleb128 0x5
 19317 03be 49       		.uleb128 0x49
 19318 03bf 13       		.uleb128 0x13
 19319 03c0 00       		.byte	0
 19320 03c1 00       		.byte	0
 19321 03c2 4D       		.uleb128 0x4d
 19322 03c3 0B       		.uleb128 0xb
 19323 03c4 01       		.byte	0x1
 19324 03c5 00       		.byte	0
 19325 03c6 00       		.byte	0
 19326 03c7 4E       		.uleb128 0x4e
 19327 03c8 2E       		.uleb128 0x2e
 19328 03c9 01       		.byte	0x1
 19329 03ca 3F       		.uleb128 0x3f
 19330 03cb 19       		.uleb128 0x19
 19331 03cc 03       		.uleb128 0x3
 19332 03cd 0E       		.uleb128 0xe
 19333 03ce 3A       		.uleb128 0x3a
 19334 03cf 0B       		.uleb128 0xb
 19335 03d0 3B       		.uleb128 0x3b
 19336 03d1 05       		.uleb128 0x5
 19337 03d2 27       		.uleb128 0x27
 19338 03d3 19       		.uleb128 0x19
 19339 03d4 49       		.uleb128 0x49
 19340 03d5 13       		.uleb128 0x13
 19341 03d6 11       		.uleb128 0x11
 19342 03d7 01       		.uleb128 0x1
 19343 03d8 12       		.uleb128 0x12
 19344 03d9 06       		.uleb128 0x6
 19345 03da 40       		.uleb128 0x40
 19346 03db 18       		.uleb128 0x18
 19347 03dc 9742     		.uleb128 0x2117
 19348 03de 19       		.uleb128 0x19
 19349 03df 01       		.uleb128 0x1
 19350 03e0 13       		.uleb128 0x13
 19351 03e1 00       		.byte	0
 19352 03e2 00       		.byte	0
 19353 03e3 4F       		.uleb128 0x4f
 19354 03e4 1D       		.uleb128 0x1d
 19355 03e5 01       		.byte	0x1
 19356 03e6 31       		.uleb128 0x31
 19357 03e7 13       		.uleb128 0x13
 19358 03e8 11       		.uleb128 0x11
 19359 03e9 01       		.uleb128 0x1
 19360 03ea 12       		.uleb128 0x12
 19361 03eb 06       		.uleb128 0x6
ARM GAS  C:\Users\mathi\AppData\Local\Temp\ccOm87JI.s 			page 341


 19362 03ec 58       		.uleb128 0x58
 19363 03ed 0B       		.uleb128 0xb
 19364 03ee 59       		.uleb128 0x59
 19365 03ef 0B       		.uleb128 0xb
 19366 03f0 00       		.byte	0
 19367 03f1 00       		.byte	0
 19368 03f2 50       		.uleb128 0x50
 19369 03f3 34       		.uleb128 0x34
 19370 03f4 00       		.byte	0
 19371 03f5 03       		.uleb128 0x3
 19372 03f6 0E       		.uleb128 0xe
 19373 03f7 3A       		.uleb128 0x3a
 19374 03f8 0B       		.uleb128 0xb
 19375 03f9 3B       		.uleb128 0x3b
 19376 03fa 05       		.uleb128 0x5
 19377 03fb 49       		.uleb128 0x49
 19378 03fc 13       		.uleb128 0x13
 19379 03fd 02       		.uleb128 0x2
 19380 03fe 18       		.uleb128 0x18
 19381 03ff 00       		.byte	0
 19382 0400 00       		.byte	0
 19383 0401 51       		.uleb128 0x51
 19384 0402 05       		.uleb128 0x5
 19385 0403 00       		.byte	0
 19386 0404 31       		.uleb128 0x31
 19387 0405 13       		.uleb128 0x13
 19388 0406 02       		.uleb128 0x2
 19389 0407 18       		.uleb128 0x18
 19390 0408 00       		.byte	0
 19391 0409 00       		.byte	0
 19392 040a 52       		.uleb128 0x52
 19393 040b 898201   		.uleb128 0x4109
 19394 040e 01       		.byte	0x1
 19395 040f 11       		.uleb128 0x11
 19396 0410 01       		.uleb128 0x1
 19397 0411 31       		.uleb128 0x31
 19398 0412 13       		.uleb128 0x13
 19399 0413 01       		.uleb128 0x1
 19400 0414 13       		.uleb128 0x13
 19401 0415 00       		.byte	0
 19402 0416 00       		.byte	0
 19403 0417 53       		.uleb128 0x53
 19404 0418 1D       		.uleb128 0x1d
 19405 0419 01       		.byte	0x1
 19406 041a 31       		.uleb128 0x31
 19407 041b 13       		.uleb128 0x13
 19408 041c 11       		.uleb128 0x11
 19409 041d 01       		.uleb128 0x1
 19410 041e 12       		.uleb128 0x12
 19411 041f 06       		.uleb128 0x6
 19412 0420 58       		.uleb128 0x58
 19413 0421 0B       		.uleb128 0xb
 19414 0422 59       		.uleb128 0x59
 19415 0423 0B       		.uleb128 0xb
 19416 0424 01       		.uleb128 0x1
 19417 0425 13       		.uleb128 0x13
 19418 0426 00       		.byte	0
ARM GAS  C:\Users\mathi\AppData\Local\Temp\ccOm87JI.s 			page 342


 19419 0427 00       		.byte	0
 19420 0428 54       		.uleb128 0x54
 19421 0429 0B       		.uleb128 0xb
 19422 042a 01       		.byte	0x1
 19423 042b 55       		.uleb128 0x55
 19424 042c 17       		.uleb128 0x17
 19425 042d 01       		.uleb128 0x1
 19426 042e 13       		.uleb128 0x13
 19427 042f 00       		.byte	0
 19428 0430 00       		.byte	0
 19429 0431 55       		.uleb128 0x55
 19430 0432 34       		.uleb128 0x34
 19431 0433 00       		.byte	0
 19432 0434 03       		.uleb128 0x3
 19433 0435 08       		.uleb128 0x8
 19434 0436 3A       		.uleb128 0x3a
 19435 0437 0B       		.uleb128 0xb
 19436 0438 3B       		.uleb128 0x3b
 19437 0439 05       		.uleb128 0x5
 19438 043a 49       		.uleb128 0x49
 19439 043b 13       		.uleb128 0x13
 19440 043c 02       		.uleb128 0x2
 19441 043d 18       		.uleb128 0x18
 19442 043e 00       		.byte	0
 19443 043f 00       		.byte	0
 19444 0440 56       		.uleb128 0x56
 19445 0441 898201   		.uleb128 0x4109
 19446 0444 01       		.byte	0x1
 19447 0445 11       		.uleb128 0x11
 19448 0446 01       		.uleb128 0x1
 19449 0447 9542     		.uleb128 0x2115
 19450 0449 19       		.uleb128 0x19
 19451 044a 31       		.uleb128 0x31
 19452 044b 13       		.uleb128 0x13
 19453 044c 01       		.uleb128 0x1
 19454 044d 13       		.uleb128 0x13
 19455 044e 00       		.byte	0
 19456 044f 00       		.byte	0
 19457 0450 57       		.uleb128 0x57
 19458 0451 898201   		.uleb128 0x4109
 19459 0454 01       		.byte	0x1
 19460 0455 11       		.uleb128 0x11
 19461 0456 01       		.uleb128 0x1
 19462 0457 00       		.byte	0
 19463 0458 00       		.byte	0
 19464 0459 58       		.uleb128 0x58
 19465 045a 898201   		.uleb128 0x4109
 19466 045d 01       		.byte	0x1
 19467 045e 11       		.uleb128 0x11
 19468 045f 01       		.uleb128 0x1
 19469 0460 01       		.uleb128 0x1
 19470 0461 13       		.uleb128 0x13
 19471 0462 00       		.byte	0
 19472 0463 00       		.byte	0
 19473 0464 59       		.uleb128 0x59
 19474 0465 898201   		.uleb128 0x4109
 19475 0468 00       		.byte	0
ARM GAS  C:\Users\mathi\AppData\Local\Temp\ccOm87JI.s 			page 343


 19476 0469 11       		.uleb128 0x11
 19477 046a 01       		.uleb128 0x1
 19478 046b 9542     		.uleb128 0x2115
 19479 046d 19       		.uleb128 0x19
 19480 046e 31       		.uleb128 0x31
 19481 046f 13       		.uleb128 0x13
 19482 0470 00       		.byte	0
 19483 0471 00       		.byte	0
 19484 0472 5A       		.uleb128 0x5a
 19485 0473 2E       		.uleb128 0x2e
 19486 0474 01       		.byte	0x1
 19487 0475 03       		.uleb128 0x3
 19488 0476 0E       		.uleb128 0xe
 19489 0477 3A       		.uleb128 0x3a
 19490 0478 0B       		.uleb128 0xb
 19491 0479 3B       		.uleb128 0x3b
 19492 047a 05       		.uleb128 0x5
 19493 047b 27       		.uleb128 0x27
 19494 047c 19       		.uleb128 0x19
 19495 047d 20       		.uleb128 0x20
 19496 047e 0B       		.uleb128 0xb
 19497 047f 01       		.uleb128 0x1
 19498 0480 13       		.uleb128 0x13
 19499 0481 00       		.byte	0
 19500 0482 00       		.byte	0
 19501 0483 5B       		.uleb128 0x5b
 19502 0484 2E       		.uleb128 0x2e
 19503 0485 01       		.byte	0x1
 19504 0486 03       		.uleb128 0x3
 19505 0487 0E       		.uleb128 0xe
 19506 0488 3A       		.uleb128 0x3a
 19507 0489 0B       		.uleb128 0xb
 19508 048a 3B       		.uleb128 0x3b
 19509 048b 05       		.uleb128 0x5
 19510 048c 27       		.uleb128 0x27
 19511 048d 19       		.uleb128 0x19
 19512 048e 49       		.uleb128 0x49
 19513 048f 13       		.uleb128 0x13
 19514 0490 20       		.uleb128 0x20
 19515 0491 0B       		.uleb128 0xb
 19516 0492 01       		.uleb128 0x1
 19517 0493 13       		.uleb128 0x13
 19518 0494 00       		.byte	0
 19519 0495 00       		.byte	0
 19520 0496 5C       		.uleb128 0x5c
 19521 0497 2E       		.uleb128 0x2e
 19522 0498 01       		.byte	0x1
 19523 0499 03       		.uleb128 0x3
 19524 049a 0E       		.uleb128 0xe
 19525 049b 3A       		.uleb128 0x3a
 19526 049c 0B       		.uleb128 0xb
 19527 049d 3B       		.uleb128 0x3b
 19528 049e 0B       		.uleb128 0xb
 19529 049f 27       		.uleb128 0x27
 19530 04a0 19       		.uleb128 0x19
 19531 04a1 20       		.uleb128 0x20
 19532 04a2 0B       		.uleb128 0xb
ARM GAS  C:\Users\mathi\AppData\Local\Temp\ccOm87JI.s 			page 344


 19533 04a3 01       		.uleb128 0x1
 19534 04a4 13       		.uleb128 0x13
 19535 04a5 00       		.byte	0
 19536 04a6 00       		.byte	0
 19537 04a7 5D       		.uleb128 0x5d
 19538 04a8 05       		.uleb128 0x5
 19539 04a9 00       		.byte	0
 19540 04aa 03       		.uleb128 0x3
 19541 04ab 0E       		.uleb128 0xe
 19542 04ac 3A       		.uleb128 0x3a
 19543 04ad 0B       		.uleb128 0xb
 19544 04ae 3B       		.uleb128 0x3b
 19545 04af 0B       		.uleb128 0xb
 19546 04b0 49       		.uleb128 0x49
 19547 04b1 13       		.uleb128 0x13
 19548 04b2 00       		.byte	0
 19549 04b3 00       		.byte	0
 19550 04b4 5E       		.uleb128 0x5e
 19551 04b5 05       		.uleb128 0x5
 19552 04b6 00       		.byte	0
 19553 04b7 03       		.uleb128 0x3
 19554 04b8 08       		.uleb128 0x8
 19555 04b9 3A       		.uleb128 0x3a
 19556 04ba 0B       		.uleb128 0xb
 19557 04bb 3B       		.uleb128 0x3b
 19558 04bc 0B       		.uleb128 0xb
 19559 04bd 49       		.uleb128 0x49
 19560 04be 13       		.uleb128 0x13
 19561 04bf 00       		.byte	0
 19562 04c0 00       		.byte	0
 19563 04c1 5F       		.uleb128 0x5f
 19564 04c2 2E       		.uleb128 0x2e
 19565 04c3 01       		.byte	0x1
 19566 04c4 03       		.uleb128 0x3
 19567 04c5 0E       		.uleb128 0xe
 19568 04c6 3A       		.uleb128 0x3a
 19569 04c7 0B       		.uleb128 0xb
 19570 04c8 3B       		.uleb128 0x3b
 19571 04c9 0B       		.uleb128 0xb
 19572 04ca 27       		.uleb128 0x27
 19573 04cb 19       		.uleb128 0x19
 19574 04cc 49       		.uleb128 0x49
 19575 04cd 13       		.uleb128 0x13
 19576 04ce 20       		.uleb128 0x20
 19577 04cf 0B       		.uleb128 0xb
 19578 04d0 01       		.uleb128 0x1
 19579 04d1 13       		.uleb128 0x13
 19580 04d2 00       		.byte	0
 19581 04d3 00       		.byte	0
 19582 04d4 60       		.uleb128 0x60
 19583 04d5 34       		.uleb128 0x34
 19584 04d6 00       		.byte	0
 19585 04d7 03       		.uleb128 0x3
 19586 04d8 0E       		.uleb128 0xe
 19587 04d9 3A       		.uleb128 0x3a
 19588 04da 0B       		.uleb128 0xb
 19589 04db 3B       		.uleb128 0x3b
ARM GAS  C:\Users\mathi\AppData\Local\Temp\ccOm87JI.s 			page 345


 19590 04dc 0B       		.uleb128 0xb
 19591 04dd 49       		.uleb128 0x49
 19592 04de 13       		.uleb128 0x13
 19593 04df 00       		.byte	0
 19594 04e0 00       		.byte	0
 19595 04e1 61       		.uleb128 0x61
 19596 04e2 34       		.uleb128 0x34
 19597 04e3 00       		.byte	0
 19598 04e4 03       		.uleb128 0x3
 19599 04e5 0E       		.uleb128 0xe
 19600 04e6 49       		.uleb128 0x49
 19601 04e7 13       		.uleb128 0x13
 19602 04e8 34       		.uleb128 0x34
 19603 04e9 19       		.uleb128 0x19
 19604 04ea 1C       		.uleb128 0x1c
 19605 04eb 0E       		.uleb128 0xe
 19606 04ec 00       		.byte	0
 19607 04ed 00       		.byte	0
 19608 04ee 62       		.uleb128 0x62
 19609 04ef 34       		.uleb128 0x34
 19610 04f0 00       		.byte	0
 19611 04f1 03       		.uleb128 0x3
 19612 04f2 08       		.uleb128 0x8
 19613 04f3 3A       		.uleb128 0x3a
 19614 04f4 0B       		.uleb128 0xb
 19615 04f5 3B       		.uleb128 0x3b
 19616 04f6 0B       		.uleb128 0xb
 19617 04f7 49       		.uleb128 0x49
 19618 04f8 13       		.uleb128 0x13
 19619 04f9 00       		.byte	0
 19620 04fa 00       		.byte	0
 19621 04fb 63       		.uleb128 0x63
 19622 04fc 2E       		.uleb128 0x2e
 19623 04fd 00       		.byte	0
 19624 04fe 03       		.uleb128 0x3
 19625 04ff 0E       		.uleb128 0xe
 19626 0500 3A       		.uleb128 0x3a
 19627 0501 0B       		.uleb128 0xb
 19628 0502 3B       		.uleb128 0x3b
 19629 0503 05       		.uleb128 0x5
 19630 0504 27       		.uleb128 0x27
 19631 0505 19       		.uleb128 0x19
 19632 0506 20       		.uleb128 0x20
 19633 0507 0B       		.uleb128 0xb
 19634 0508 00       		.byte	0
 19635 0509 00       		.byte	0
 19636 050a 64       		.uleb128 0x64
 19637 050b 2E       		.uleb128 0x2e
 19638 050c 01       		.byte	0x1
 19639 050d 31       		.uleb128 0x31
 19640 050e 13       		.uleb128 0x13
 19641 050f 11       		.uleb128 0x11
 19642 0510 01       		.uleb128 0x1
 19643 0511 12       		.uleb128 0x12
 19644 0512 06       		.uleb128 0x6
 19645 0513 40       		.uleb128 0x40
 19646 0514 18       		.uleb128 0x18
ARM GAS  C:\Users\mathi\AppData\Local\Temp\ccOm87JI.s 			page 346


 19647 0515 9742     		.uleb128 0x2117
 19648 0517 19       		.uleb128 0x19
 19649 0518 01       		.uleb128 0x1
 19650 0519 13       		.uleb128 0x13
 19651 051a 00       		.byte	0
 19652 051b 00       		.byte	0
 19653 051c 65       		.uleb128 0x65
 19654 051d 2E       		.uleb128 0x2e
 19655 051e 00       		.byte	0
 19656 051f 3F       		.uleb128 0x3f
 19657 0520 19       		.uleb128 0x19
 19658 0521 3C       		.uleb128 0x3c
 19659 0522 19       		.uleb128 0x19
 19660 0523 6E       		.uleb128 0x6e
 19661 0524 0E       		.uleb128 0xe
 19662 0525 03       		.uleb128 0x3
 19663 0526 0E       		.uleb128 0xe
 19664 0527 3A       		.uleb128 0x3a
 19665 0528 0B       		.uleb128 0xb
 19666 0529 3B       		.uleb128 0x3b
 19667 052a 0B       		.uleb128 0xb
 19668 052b 00       		.byte	0
 19669 052c 00       		.byte	0
 19670 052d 66       		.uleb128 0x66
 19671 052e 2E       		.uleb128 0x2e
 19672 052f 00       		.byte	0
 19673 0530 3F       		.uleb128 0x3f
 19674 0531 19       		.uleb128 0x19
 19675 0532 3C       		.uleb128 0x3c
 19676 0533 19       		.uleb128 0x19
 19677 0534 6E       		.uleb128 0x6e
 19678 0535 0E       		.uleb128 0xe
 19679 0536 03       		.uleb128 0x3
 19680 0537 0E       		.uleb128 0xe
 19681 0538 3A       		.uleb128 0x3a
 19682 0539 0B       		.uleb128 0xb
 19683 053a 3B       		.uleb128 0x3b
 19684 053b 05       		.uleb128 0x5
 19685 053c 00       		.byte	0
 19686 053d 00       		.byte	0
 19687 053e 67       		.uleb128 0x67
 19688 053f 2E       		.uleb128 0x2e
 19689 0540 00       		.byte	0
 19690 0541 3F       		.uleb128 0x3f
 19691 0542 19       		.uleb128 0x19
 19692 0543 3C       		.uleb128 0x3c
 19693 0544 19       		.uleb128 0x19
 19694 0545 6E       		.uleb128 0x6e
 19695 0546 0E       		.uleb128 0xe
 19696 0547 03       		.uleb128 0x3
 19697 0548 0E       		.uleb128 0xe
 19698 0549 00       		.byte	0
 19699 054a 00       		.byte	0
 19700 054b 00       		.byte	0
 19701              		.section	.debug_loc,"",%progbits
 19702              	.Ldebug_loc0:
 19703              	.LLST0:
ARM GAS  C:\Users\mathi\AppData\Local\Temp\ccOm87JI.s 			page 347


 19704 0000 00000000 		.4byte	.LVL0
 19705 0004 27000000 		.4byte	.LVL3-1
 19706 0008 0100     		.2byte	0x1
 19707 000a 50       		.byte	0x50
 19708 000b 27000000 		.4byte	.LVL3-1
 19709 000f 36000000 		.4byte	.LVL5
 19710 0013 0100     		.2byte	0x1
 19711 0015 58       		.byte	0x58
 19712 0016 36000000 		.4byte	.LVL5
 19713 001a 24050000 		.4byte	.LFE292
 19714 001e 0100     		.2byte	0x1
 19715 0020 5A       		.byte	0x5a
 19716 0021 00000000 		.4byte	0
 19717 0025 00000000 		.4byte	0
 19718              	.LLST1:
 19719 0029 1C000000 		.4byte	.LVL1
 19720 002d 27000000 		.4byte	.LVL3-1
 19721 0031 0100     		.2byte	0x1
 19722 0033 50       		.byte	0x50
 19723 0034 27000000 		.4byte	.LVL3-1
 19724 0038 36000000 		.4byte	.LVL5
 19725 003c 0100     		.2byte	0x1
 19726 003e 58       		.byte	0x58
 19727 003f 36000000 		.4byte	.LVL5
 19728 0043 24050000 		.4byte	.LFE292
 19729 0047 0100     		.2byte	0x1
 19730 0049 5A       		.byte	0x5a
 19731 004a 00000000 		.4byte	0
 19732 004e 00000000 		.4byte	0
 19733              	.LLST2:
 19734 0052 1C000000 		.4byte	.LVL1
 19735 0056 36000000 		.4byte	.LVL5
 19736 005a 0100     		.2byte	0x1
 19737 005c 59       		.byte	0x59
 19738 005d 00000000 		.4byte	0
 19739 0061 00000000 		.4byte	0
 19740              	.LLST4:
 19741 0065 86000000 		.4byte	.LVL10
 19742 0069 88000000 		.4byte	.LVL11
 19743 006d 0200     		.2byte	0x2
 19744 006f 30       		.byte	0x30
 19745 0070 9F       		.byte	0x9f
 19746 0071 64010000 		.4byte	.LVL45
 19747 0075 7A010000 		.4byte	.LVL50
 19748 0079 0100     		.2byte	0x1
 19749 007b 54       		.byte	0x54
 19750 007c 00000000 		.4byte	0
 19751 0080 00000000 		.4byte	0
 19752              	.LLST5:
 19753 0084 52010000 		.4byte	.LVL43
 19754 0088 5C010000 		.4byte	.LVL44
 19755 008c 0100     		.2byte	0x1
 19756 008e 57       		.byte	0x57
 19757 008f 88020000 		.4byte	.LVL77
 19758 0093 1E030000 		.4byte	.LVL87
 19759 0097 0100     		.2byte	0x1
 19760 0099 57       		.byte	0x57
ARM GAS  C:\Users\mathi\AppData\Local\Temp\ccOm87JI.s 			page 348


 19761 009a E0040000 		.4byte	.LVL139
 19762 009e 24050000 		.4byte	.LFE292
 19763 00a2 0100     		.2byte	0x1
 19764 00a4 57       		.byte	0x57
 19765 00a5 00000000 		.4byte	0
 19766 00a9 00000000 		.4byte	0
 19767              	.LLST34:
 19768 00ad 88020000 		.4byte	.LVL77
 19769 00b1 8E020000 		.4byte	.LVL78
 19770 00b5 0300     		.2byte	0x3
 19771 00b7 08       		.byte	0x8
 19772 00b8 20       		.byte	0x20
 19773 00b9 9F       		.byte	0x9f
 19774 00ba 00000000 		.4byte	0
 19775 00be 00000000 		.4byte	0
 19776              	.LLST35:
 19777 00c2 D0020000 		.4byte	.LVL83
 19778 00c6 D6020000 		.4byte	.LVL84
 19779 00ca 0200     		.2byte	0x2
 19780 00cc 30       		.byte	0x30
 19781 00cd 9F       		.byte	0x9f
 19782 00ce 00000000 		.4byte	0
 19783 00d2 00000000 		.4byte	0
 19784              	.LLST36:
 19785 00d6 FA020000 		.4byte	.LVL85
 19786 00da 06030000 		.4byte	.LVL86
 19787 00de 0100     		.2byte	0x1
 19788 00e0 52       		.byte	0x52
 19789 00e1 06030000 		.4byte	.LVL86
 19790 00e5 C2030000 		.4byte	.LVL109
 19791 00e9 0100     		.2byte	0x1
 19792 00eb 55       		.byte	0x55
 19793 00ec E0030000 		.4byte	.LVL110
 19794 00f0 EA030000 		.4byte	.LVL111
 19795 00f4 0100     		.2byte	0x1
 19796 00f6 52       		.byte	0x52
 19797 00f7 EA030000 		.4byte	.LVL111
 19798 00fb F8030000 		.4byte	.LVL112
 19799 00ff 0100     		.2byte	0x1
 19800 0101 55       		.byte	0x55
 19801 0102 48040000 		.4byte	.LVL120
 19802 0106 D8040000 		.4byte	.LVL138
 19803 010a 0100     		.2byte	0x1
 19804 010c 55       		.byte	0x55
 19805 010d 00000000 		.4byte	0
 19806 0111 00000000 		.4byte	0
 19807              	.LLST37:
 19808 0115 2C030000 		.4byte	.LVL88
 19809 0119 B8030000 		.4byte	.LVL108
 19810 011d 0100     		.2byte	0x1
 19811 011f 55       		.byte	0x55
 19812 0120 48040000 		.4byte	.LVL120
 19813 0124 AE040000 		.4byte	.LVL128
 19814 0128 0100     		.2byte	0x1
 19815 012a 55       		.byte	0x55
 19816 012b D0040000 		.4byte	.LVL135
 19817 012f D8040000 		.4byte	.LVL138
ARM GAS  C:\Users\mathi\AppData\Local\Temp\ccOm87JI.s 			page 349


 19818 0133 0100     		.2byte	0x1
 19819 0135 55       		.byte	0x55
 19820 0136 00000000 		.4byte	0
 19821 013a 00000000 		.4byte	0
 19822              	.LLST38:
 19823 013e 2C030000 		.4byte	.LVL88
 19824 0142 30030000 		.4byte	.LVL89
 19825 0146 0200     		.2byte	0x2
 19826 0148 73       		.byte	0x73
 19827 0149 0C       		.sleb128 12
 19828 014a 00000000 		.4byte	0
 19829 014e 00000000 		.4byte	0
 19830              	.LLST39:
 19831 0152 2C030000 		.4byte	.LVL88
 19832 0156 30030000 		.4byte	.LVL89
 19833 015a 0100     		.2byte	0x1
 19834 015c 55       		.byte	0x55
 19835 015d 30030000 		.4byte	.LVL89
 19836 0161 70030000 		.4byte	.LVL98
 19837 0165 0100     		.2byte	0x1
 19838 0167 52       		.byte	0x52
 19839 0168 48040000 		.4byte	.LVL120
 19840 016c 5E040000 		.4byte	.LVL123
 19841 0170 0100     		.2byte	0x1
 19842 0172 52       		.byte	0x52
 19843 0173 5E040000 		.4byte	.LVL123
 19844 0177 76040000 		.4byte	.LVL124
 19845 017b 0300     		.2byte	0x3
 19846 017d 72       		.byte	0x72
 19847 017e 7F       		.sleb128 -1
 19848 017f 9F       		.byte	0x9f
 19849 0180 76040000 		.4byte	.LVL124
 19850 0184 8C040000 		.4byte	.LVL125
 19851 0188 0300     		.2byte	0x3
 19852 018a 72       		.byte	0x72
 19853 018b 7E       		.sleb128 -2
 19854 018c 9F       		.byte	0x9f
 19855 018d 8C040000 		.4byte	.LVL125
 19856 0191 9E040000 		.4byte	.LVL127
 19857 0195 0300     		.2byte	0x3
 19858 0197 72       		.byte	0x72
 19859 0198 7D       		.sleb128 -3
 19860 0199 9F       		.byte	0x9f
 19861 019a 9E040000 		.4byte	.LVL127
 19862 019e AE040000 		.4byte	.LVL128
 19863 01a2 0100     		.2byte	0x1
 19864 01a4 52       		.byte	0x52
 19865 01a5 D2040000 		.4byte	.LVL136
 19866 01a9 D4040000 		.4byte	.LVL137
 19867 01ad 0200     		.2byte	0x2
 19868 01af 30       		.byte	0x30
 19869 01b0 9F       		.byte	0x9f
 19870 01b1 D4040000 		.4byte	.LVL137
 19871 01b5 D8040000 		.4byte	.LVL138
 19872 01b9 0100     		.2byte	0x1
 19873 01bb 52       		.byte	0x52
 19874 01bc 00000000 		.4byte	0
ARM GAS  C:\Users\mathi\AppData\Local\Temp\ccOm87JI.s 			page 350


 19875 01c0 00000000 		.4byte	0
 19876              	.LLST40:
 19877 01c4 4E040000 		.4byte	.LVL121
 19878 01c8 5A040000 		.4byte	.LVL122
 19879 01cc 0200     		.2byte	0x2
 19880 01ce 30       		.byte	0x30
 19881 01cf 9F       		.byte	0x9f
 19882 01d0 5A040000 		.4byte	.LVL122
 19883 01d4 AE040000 		.4byte	.LVL128
 19884 01d8 0100     		.2byte	0x1
 19885 01da 53       		.byte	0x53
 19886 01db D0040000 		.4byte	.LVL135
 19887 01df D4040000 		.4byte	.LVL137
 19888 01e3 0100     		.2byte	0x1
 19889 01e5 53       		.byte	0x53
 19890 01e6 00000000 		.4byte	0
 19891 01ea 00000000 		.4byte	0
 19892              	.LLST41:
 19893 01ee 4E040000 		.4byte	.LVL121
 19894 01f2 5E040000 		.4byte	.LVL123
 19895 01f6 0200     		.2byte	0x2
 19896 01f8 30       		.byte	0x30
 19897 01f9 9F       		.byte	0x9f
 19898 01fa 5E040000 		.4byte	.LVL123
 19899 01fe 76040000 		.4byte	.LVL124
 19900 0202 0200     		.2byte	0x2
 19901 0204 31       		.byte	0x31
 19902 0205 9F       		.byte	0x9f
 19903 0206 76040000 		.4byte	.LVL124
 19904 020a 8C040000 		.4byte	.LVL125
 19905 020e 0200     		.2byte	0x2
 19906 0210 32       		.byte	0x32
 19907 0211 9F       		.byte	0x9f
 19908 0212 8C040000 		.4byte	.LVL125
 19909 0216 9E040000 		.4byte	.LVL127
 19910 021a 0200     		.2byte	0x2
 19911 021c 33       		.byte	0x33
 19912 021d 9F       		.byte	0x9f
 19913 021e 9E040000 		.4byte	.LVL127
 19914 0222 AE040000 		.4byte	.LVL128
 19915 0226 0200     		.2byte	0x2
 19916 0228 34       		.byte	0x34
 19917 0229 9F       		.byte	0x9f
 19918 022a 00000000 		.4byte	0
 19919 022e 00000000 		.4byte	0
 19920              	.LLST42:
 19921 0232 30030000 		.4byte	.LVL89
 19922 0236 34030000 		.4byte	.LVL90
 19923 023a 0500     		.2byte	0x5
 19924 023c 72       		.byte	0x72
 19925 023d 00       		.sleb128 0
 19926 023e 32       		.byte	0x32
 19927 023f 25       		.byte	0x25
 19928 0240 9F       		.byte	0x9f
 19929 0241 34030000 		.4byte	.LVL90
 19930 0245 70030000 		.4byte	.LVL98
 19931 0249 0100     		.2byte	0x1
ARM GAS  C:\Users\mathi\AppData\Local\Temp\ccOm87JI.s 			page 351


 19932 024b 5C       		.byte	0x5c
 19933 024c 48040000 		.4byte	.LVL120
 19934 0250 AE040000 		.4byte	.LVL128
 19935 0254 0100     		.2byte	0x1
 19936 0256 5C       		.byte	0x5c
 19937 0257 D0040000 		.4byte	.LVL135
 19938 025b D8040000 		.4byte	.LVL138
 19939 025f 0100     		.2byte	0x1
 19940 0261 5C       		.byte	0x5c
 19941 0262 00000000 		.4byte	0
 19942 0266 00000000 		.4byte	0
 19943              	.LLST43:
 19944 026a 4A030000 		.4byte	.LVL92
 19945 026e 70030000 		.4byte	.LVL98
 19946 0272 0100     		.2byte	0x1
 19947 0274 57       		.byte	0x57
 19948 0275 48040000 		.4byte	.LVL120
 19949 0279 4E040000 		.4byte	.LVL121
 19950 027d 0100     		.2byte	0x1
 19951 027f 57       		.byte	0x57
 19952 0280 D4040000 		.4byte	.LVL137
 19953 0284 D8040000 		.4byte	.LVL138
 19954 0288 0100     		.2byte	0x1
 19955 028a 57       		.byte	0x57
 19956 028b 00000000 		.4byte	0
 19957 028f 00000000 		.4byte	0
 19958              	.LLST44:
 19959 0293 3C030000 		.4byte	.LVL91
 19960 0297 56030000 		.4byte	.LVL94
 19961 029b 0800     		.2byte	0x8
 19962 029d 76       		.byte	0x76
 19963 029e 00       		.sleb128 0
 19964 029f 73       		.byte	0x73
 19965 02a0 00       		.sleb128 0
 19966 02a1 1C       		.byte	0x1c
 19967 02a2 34       		.byte	0x34
 19968 02a3 1B       		.byte	0x1b
 19969 02a4 9F       		.byte	0x9f
 19970 02a5 D4040000 		.4byte	.LVL137
 19971 02a9 D8040000 		.4byte	.LVL138
 19972 02ad 0800     		.2byte	0x8
 19973 02af 76       		.byte	0x76
 19974 02b0 00       		.sleb128 0
 19975 02b1 73       		.byte	0x73
 19976 02b2 00       		.sleb128 0
 19977 02b3 1C       		.byte	0x1c
 19978 02b4 34       		.byte	0x34
 19979 02b5 1B       		.byte	0x1b
 19980 02b6 9F       		.byte	0x9f
 19981 02b7 00000000 		.4byte	0
 19982 02bb 00000000 		.4byte	0
 19983              	.LLST45:
 19984 02bf 4E030000 		.4byte	.LVL93
 19985 02c3 56030000 		.4byte	.LVL94
 19986 02c7 0100     		.2byte	0x1
 19987 02c9 57       		.byte	0x57
 19988 02ca D4040000 		.4byte	.LVL137
ARM GAS  C:\Users\mathi\AppData\Local\Temp\ccOm87JI.s 			page 352


 19989 02ce D8040000 		.4byte	.LVL138
 19990 02d2 0100     		.2byte	0x1
 19991 02d4 57       		.byte	0x57
 19992 02d5 00000000 		.4byte	0
 19993 02d9 00000000 		.4byte	0
 19994              	.LLST46:
 19995 02dd 56030000 		.4byte	.LVL94
 19996 02e1 5A030000 		.4byte	.LVL95
 19997 02e5 0100     		.2byte	0x1
 19998 02e7 53       		.byte	0x53
 19999 02e8 5A030000 		.4byte	.LVL95
 20000 02ec 5C030000 		.4byte	.LVL96
 20001 02f0 0300     		.2byte	0x3
 20002 02f2 73       		.byte	0x73
 20003 02f3 7C       		.sleb128 -4
 20004 02f4 9F       		.byte	0x9f
 20005 02f5 5C030000 		.4byte	.LVL96
 20006 02f9 62030000 		.4byte	.LVL97
 20007 02fd 0100     		.2byte	0x1
 20008 02ff 53       		.byte	0x53
 20009 0300 00000000 		.4byte	0
 20010 0304 00000000 		.4byte	0
 20011              	.LLST47:
 20012 0308 70030000 		.4byte	.LVL98
 20013 030c 76030000 		.4byte	.LVL99
 20014 0310 0300     		.2byte	0x3
 20015 0312 08       		.byte	0x8
 20016 0313 20       		.byte	0x20
 20017 0314 9F       		.byte	0x9f
 20018 0315 00000000 		.4byte	0
 20019 0319 00000000 		.4byte	0
 20020              	.LLST48:
 20021 031d 84030000 		.4byte	.LVL102
 20022 0321 8C030000 		.4byte	.LVL103
 20023 0325 0200     		.2byte	0x2
 20024 0327 30       		.byte	0x30
 20025 0328 9F       		.byte	0x9f
 20026 0329 00000000 		.4byte	0
 20027 032d 00000000 		.4byte	0
 20028              	.LLST49:
 20029 0331 84030000 		.4byte	.LVL102
 20030 0335 8C030000 		.4byte	.LVL103
 20031 0339 0100     		.2byte	0x1
 20032 033b 54       		.byte	0x54
 20033 033c 00000000 		.4byte	0
 20034 0340 00000000 		.4byte	0
 20035              	.LLST50:
 20036 0344 B2030000 		.4byte	.LVL107
 20037 0348 B8030000 		.4byte	.LVL108
 20038 034c 0200     		.2byte	0x2
 20039 034e 30       		.byte	0x30
 20040 034f 9F       		.byte	0x9f
 20041 0350 00000000 		.4byte	0
 20042 0354 00000000 		.4byte	0
 20043              	.LLST51:
 20044 0358 AE040000 		.4byte	.LVL128
 20045 035c C8040000 		.4byte	.LVL134
ARM GAS  C:\Users\mathi\AppData\Local\Temp\ccOm87JI.s 			page 353


 20046 0360 0100     		.2byte	0x1
 20047 0362 55       		.byte	0x55
 20048 0363 00000000 		.4byte	0
 20049 0367 00000000 		.4byte	0
 20050              	.LLST52:
 20051 036b AE040000 		.4byte	.LVL128
 20052 036f B8040000 		.4byte	.LVL131
 20053 0373 0200     		.2byte	0x2
 20054 0375 73       		.byte	0x73
 20055 0376 0C       		.sleb128 12
 20056 0377 00000000 		.4byte	0
 20057 037b 00000000 		.4byte	0
 20058              	.LLST53:
 20059 037f B0040000 		.4byte	.LVL129
 20060 0383 B2040000 		.4byte	.LVL130
 20061 0387 0500     		.2byte	0x5
 20062 0389 72       		.byte	0x72
 20063 038a 00       		.sleb128 0
 20064 038b 32       		.byte	0x32
 20065 038c 25       		.byte	0x25
 20066 038d 9F       		.byte	0x9f
 20067 038e B2040000 		.4byte	.LVL130
 20068 0392 B8040000 		.4byte	.LVL131
 20069 0396 0100     		.2byte	0x1
 20070 0398 52       		.byte	0x52
 20071 0399 00000000 		.4byte	0
 20072 039d 00000000 		.4byte	0
 20073              	.LLST54:
 20074 03a1 B0040000 		.4byte	.LVL129
 20075 03a5 B8040000 		.4byte	.LVL131
 20076 03a9 0200     		.2byte	0x2
 20077 03ab 73       		.byte	0x73
 20078 03ac 0C       		.sleb128 12
 20079 03ad B8040000 		.4byte	.LVL131
 20080 03b1 BC040000 		.4byte	.LVL132
 20081 03b5 0100     		.2byte	0x1
 20082 03b7 54       		.byte	0x54
 20083 03b8 BC040000 		.4byte	.LVL132
 20084 03bc BE040000 		.4byte	.LVL133
 20085 03c0 0300     		.2byte	0x3
 20086 03c2 74       		.byte	0x74
 20087 03c3 7C       		.sleb128 -4
 20088 03c4 9F       		.byte	0x9f
 20089 03c5 BE040000 		.4byte	.LVL133
 20090 03c9 C8040000 		.4byte	.LVL134
 20091 03cd 0100     		.2byte	0x1
 20092 03cf 54       		.byte	0x54
 20093 03d0 00000000 		.4byte	0
 20094 03d4 00000000 		.4byte	0
 20095              	.LLST55:
 20096 03d8 F8030000 		.4byte	.LVL112
 20097 03dc FE030000 		.4byte	.LVL113
 20098 03e0 0300     		.2byte	0x3
 20099 03e2 08       		.byte	0x8
 20100 03e3 20       		.byte	0x20
 20101 03e4 9F       		.byte	0x9f
 20102 03e5 E0040000 		.4byte	.LVL139
ARM GAS  C:\Users\mathi\AppData\Local\Temp\ccOm87JI.s 			page 354


 20103 03e9 E6040000 		.4byte	.LVL140
 20104 03ed 0300     		.2byte	0x3
 20105 03ef 08       		.byte	0x8
 20106 03f0 20       		.byte	0x20
 20107 03f1 9F       		.byte	0x9f
 20108 03f2 00050000 		.4byte	.LVL143
 20109 03f6 06050000 		.4byte	.LVL144
 20110 03fa 0300     		.2byte	0x3
 20111 03fc 08       		.byte	0x8
 20112 03fd 20       		.byte	0x20
 20113 03fe 9F       		.byte	0x9f
 20114 03ff 00000000 		.4byte	0
 20115 0403 00000000 		.4byte	0
 20116              	.LLST56:
 20117 0407 40040000 		.4byte	.LVL118
 20118 040b 46040000 		.4byte	.LVL119
 20119 040f 0200     		.2byte	0x2
 20120 0411 30       		.byte	0x30
 20121 0412 9F       		.byte	0x9f
 20122 0413 00000000 		.4byte	0
 20123 0417 00000000 		.4byte	0
 20124              	.LLST6:
 20125 041b 80000000 		.4byte	.LVL9
 20126 041f 86000000 		.4byte	.LVL10
 20127 0423 0200     		.2byte	0x2
 20128 0425 30       		.byte	0x30
 20129 0426 9F       		.byte	0x9f
 20130 0427 00000000 		.4byte	0
 20131 042b 00000000 		.4byte	0
 20132              	.LLST7:
 20133 042f 90000000 		.4byte	.LVL12
 20134 0433 4A010000 		.4byte	.LVL42
 20135 0437 0100     		.2byte	0x1
 20136 0439 5A       		.byte	0x5a
 20137 043a 7A010000 		.4byte	.LVL50
 20138 043e 88020000 		.4byte	.LVL77
 20139 0442 0100     		.2byte	0x1
 20140 0444 5A       		.byte	0x5a
 20141 0445 00000000 		.4byte	0
 20142 0449 00000000 		.4byte	0
 20143              	.LLST8:
 20144 044d 96000000 		.4byte	.LVL13
 20145 0451 B2000000 		.4byte	.LVL17
 20146 0455 0100     		.2byte	0x1
 20147 0457 53       		.byte	0x53
 20148 0458 EA000000 		.4byte	.LVL28
 20149 045c F8000000 		.4byte	.LVL30
 20150 0460 0100     		.2byte	0x1
 20151 0462 53       		.byte	0x53
 20152 0463 00000000 		.4byte	0
 20153 0467 00000000 		.4byte	0
 20154              	.LLST9:
 20155 046b A6000000 		.4byte	.LVL14
 20156 046f B2000000 		.4byte	.LVL17
 20157 0473 0900     		.2byte	0x9
 20158 0475 73       		.byte	0x73
 20159 0476 00       		.sleb128 0
ARM GAS  C:\Users\mathi\AppData\Local\Temp\ccOm87JI.s 			page 355


 20160 0477 34       		.byte	0x34
 20161 0478 25       		.byte	0x25
 20162 0479 0A       		.byte	0xa
 20163 047a FF07     		.2byte	0x7ff
 20164 047c 1A       		.byte	0x1a
 20165 047d 9F       		.byte	0x9f
 20166 047e F6000000 		.4byte	.LVL29
 20167 0482 4A010000 		.4byte	.LVL42
 20168 0486 0100     		.2byte	0x1
 20169 0488 55       		.byte	0x55
 20170 0489 7A010000 		.4byte	.LVL50
 20171 048d 88020000 		.4byte	.LVL77
 20172 0491 0100     		.2byte	0x1
 20173 0493 55       		.byte	0x55
 20174 0494 00000000 		.4byte	0
 20175 0498 00000000 		.4byte	0
 20176              	.LLST10:
 20177 049c A6000000 		.4byte	.LVL14
 20178 04a0 AA000000 		.4byte	.LVL15
 20179 04a4 0500     		.2byte	0x5
 20180 04a6 73       		.byte	0x73
 20181 04a7 00       		.sleb128 0
 20182 04a8 3F       		.byte	0x3f
 20183 04a9 1A       		.byte	0x1a
 20184 04aa 9F       		.byte	0x9f
 20185 04ab AA000000 		.4byte	.LVL15
 20186 04af AE000000 		.4byte	.LVL16
 20187 04b3 0100     		.2byte	0x1
 20188 04b5 52       		.byte	0x52
 20189 04b6 AE000000 		.4byte	.LVL16
 20190 04ba B2000000 		.4byte	.LVL17
 20191 04be 0500     		.2byte	0x5
 20192 04c0 73       		.byte	0x73
 20193 04c1 00       		.sleb128 0
 20194 04c2 3F       		.byte	0x3f
 20195 04c3 1A       		.byte	0x1a
 20196 04c4 9F       		.byte	0x9f
 20197 04c5 F6000000 		.4byte	.LVL29
 20198 04c9 F8000000 		.4byte	.LVL30
 20199 04cd 0500     		.2byte	0x5
 20200 04cf 73       		.byte	0x73
 20201 04d0 00       		.sleb128 0
 20202 04d1 3F       		.byte	0x3f
 20203 04d2 1A       		.byte	0x1a
 20204 04d3 9F       		.byte	0x9f
 20205 04d4 00000000 		.4byte	0
 20206 04d8 00000000 		.4byte	0
 20207              	.LLST11:
 20208 04dc BA000000 		.4byte	.LVL18
 20209 04e0 C2000000 		.4byte	.LVL20
 20210 04e4 0200     		.2byte	0x2
 20211 04e6 32       		.byte	0x32
 20212 04e7 9F       		.byte	0x9f
 20213 04e8 C2000000 		.4byte	.LVL20
 20214 04ec DC000000 		.4byte	.LVL26
 20215 04f0 0100     		.2byte	0x1
 20216 04f2 52       		.byte	0x52
ARM GAS  C:\Users\mathi\AppData\Local\Temp\ccOm87JI.s 			page 356


 20217 04f3 DC000000 		.4byte	.LVL26
 20218 04f7 E4000000 		.4byte	.LVL27
 20219 04fb 0200     		.2byte	0x2
 20220 04fd 30       		.byte	0x30
 20221 04fe 9F       		.byte	0x9f
 20222 04ff E4000000 		.4byte	.LVL27
 20223 0503 EA000000 		.4byte	.LVL28
 20224 0507 0100     		.2byte	0x1
 20225 0509 52       		.byte	0x52
 20226 050a 00000000 		.4byte	0
 20227 050e 00000000 		.4byte	0
 20228              	.LLST12:
 20229 0512 BA000000 		.4byte	.LVL18
 20230 0516 EA000000 		.4byte	.LVL28
 20231 051a 0100     		.2byte	0x1
 20232 051c 55       		.byte	0x55
 20233 051d 00000000 		.4byte	0
 20234 0521 00000000 		.4byte	0
 20235              	.LLST13:
 20236 0525 BA000000 		.4byte	.LVL18
 20237 0529 C0000000 		.4byte	.LVL19
 20238 052d 0400     		.2byte	0x4
 20239 052f 71       		.byte	0x71
 20240 0530 8020     		.sleb128 4096
 20241 0532 9F       		.byte	0x9f
 20242 0533 C0000000 		.4byte	.LVL19
 20243 0537 EA000000 		.4byte	.LVL28
 20244 053b 0100     		.2byte	0x1
 20245 053d 51       		.byte	0x51
 20246 053e 00000000 		.4byte	0
 20247 0542 00000000 		.4byte	0
 20248              	.LLST14:
 20249 0546 C4000000 		.4byte	.LVL21
 20250 054a D4000000 		.4byte	.LVL24
 20251 054e 0100     		.2byte	0x1
 20252 0550 56       		.byte	0x56
 20253 0551 D6000000 		.4byte	.LVL25
 20254 0555 E4000000 		.4byte	.LVL27
 20255 0559 0100     		.2byte	0x1
 20256 055b 56       		.byte	0x56
 20257 055c 00000000 		.4byte	0
 20258 0560 00000000 		.4byte	0
 20259              	.LLST15:
 20260 0564 02010000 		.4byte	.LVL31
 20261 0568 12010000 		.4byte	.LVL33
 20262 056c 0800     		.2byte	0x8
 20263 056e 70       		.byte	0x70
 20264 056f 04       		.sleb128 4
 20265 0570 06       		.byte	0x6
 20266 0571 70       		.byte	0x70
 20267 0572 08       		.sleb128 8
 20268 0573 06       		.byte	0x6
 20269 0574 1C       		.byte	0x1c
 20270 0575 9F       		.byte	0x9f
 20271 0576 12010000 		.4byte	.LVL33
 20272 057a 2E010000 		.4byte	.LVL40
 20273 057e 0100     		.2byte	0x1
ARM GAS  C:\Users\mathi\AppData\Local\Temp\ccOm87JI.s 			page 357


 20274 0580 52       		.byte	0x52
 20275 0581 7A010000 		.4byte	.LVL50
 20276 0585 84010000 		.4byte	.LVL52
 20277 0589 0200     		.2byte	0x2
 20278 058b 30       		.byte	0x30
 20279 058c 9F       		.byte	0x9f
 20280 058d 84010000 		.4byte	.LVL52
 20281 0591 8A010000 		.4byte	.LVL53
 20282 0595 0100     		.2byte	0x1
 20283 0597 52       		.byte	0x52
 20284 0598 00000000 		.4byte	0
 20285 059c 00000000 		.4byte	0
 20286              	.LLST16:
 20287 05a0 02010000 		.4byte	.LVL31
 20288 05a4 0C010000 		.4byte	.LVL32
 20289 05a8 0100     		.2byte	0x1
 20290 05aa 55       		.byte	0x55
 20291 05ab 1A010000 		.4byte	.LVL35
 20292 05af 24010000 		.4byte	.LVL37
 20293 05b3 0100     		.2byte	0x1
 20294 05b5 53       		.byte	0x53
 20295 05b6 24010000 		.4byte	.LVL37
 20296 05ba 2A010000 		.4byte	.LVL39
 20297 05be 0300     		.2byte	0x3
 20298 05c0 70       		.byte	0x70
 20299 05c1 01       		.sleb128 1
 20300 05c2 9F       		.byte	0x9f
 20301 05c3 7A010000 		.4byte	.LVL50
 20302 05c7 80010000 		.4byte	.LVL51
 20303 05cb 0300     		.2byte	0x3
 20304 05cd 73       		.byte	0x73
 20305 05ce 7F       		.sleb128 -1
 20306 05cf 9F       		.byte	0x9f
 20307 05d0 80010000 		.4byte	.LVL51
 20308 05d4 84010000 		.4byte	.LVL52
 20309 05d8 0100     		.2byte	0x1
 20310 05da 50       		.byte	0x50
 20311 05db 00000000 		.4byte	0
 20312 05df 00000000 		.4byte	0
 20313              	.LLST17:
 20314 05e3 02010000 		.4byte	.LVL31
 20315 05e7 1A010000 		.4byte	.LVL35
 20316 05eb 0200     		.2byte	0x2
 20317 05ed 70       		.byte	0x70
 20318 05ee 0C       		.sleb128 12
 20319 05ef 1A010000 		.4byte	.LVL35
 20320 05f3 34010000 		.4byte	.LVL41
 20321 05f7 0100     		.2byte	0x1
 20322 05f9 56       		.byte	0x56
 20323 05fa 7A010000 		.4byte	.LVL50
 20324 05fe 8A010000 		.4byte	.LVL53
 20325 0602 0100     		.2byte	0x1
 20326 0604 56       		.byte	0x56
 20327 0605 00000000 		.4byte	0
 20328 0609 00000000 		.4byte	0
 20329              	.LLST18:
 20330 060d 02010000 		.4byte	.LVL31
ARM GAS  C:\Users\mathi\AppData\Local\Temp\ccOm87JI.s 			page 358


 20331 0611 18010000 		.4byte	.LVL34
 20332 0615 0400     		.2byte	0x4
 20333 0617 71       		.byte	0x71
 20334 0618 8020     		.sleb128 4096
 20335 061a 9F       		.byte	0x9f
 20336 061b 18010000 		.4byte	.LVL34
 20337 061f 1A010000 		.4byte	.LVL35
 20338 0623 0100     		.2byte	0x1
 20339 0625 51       		.byte	0x51
 20340 0626 1A010000 		.4byte	.LVL35
 20341 062a 34010000 		.4byte	.LVL41
 20342 062e 0100     		.2byte	0x1
 20343 0630 5C       		.byte	0x5c
 20344 0631 7A010000 		.4byte	.LVL50
 20345 0635 8A010000 		.4byte	.LVL53
 20346 0639 0100     		.2byte	0x1
 20347 063b 5C       		.byte	0x5c
 20348 063c 00000000 		.4byte	0
 20349 0640 00000000 		.4byte	0
 20350              	.LLST19:
 20351 0644 1E010000 		.4byte	.LVL36
 20352 0648 2E010000 		.4byte	.LVL40
 20353 064c 0100     		.2byte	0x1
 20354 064e 51       		.byte	0x51
 20355 064f 7A010000 		.4byte	.LVL50
 20356 0653 84010000 		.4byte	.LVL52
 20357 0657 0100     		.2byte	0x1
 20358 0659 51       		.byte	0x51
 20359 065a 00000000 		.4byte	0
 20360 065e 00000000 		.4byte	0
 20361              	.LLST20:
 20362 0662 8A010000 		.4byte	.LVL53
 20363 0666 88020000 		.4byte	.LVL77
 20364 066a 0100     		.2byte	0x1
 20365 066c 55       		.byte	0x55
 20366 066d 00000000 		.4byte	0
 20367 0671 00000000 		.4byte	0
 20368              	.LLST21:
 20369 0675 8A010000 		.4byte	.LVL53
 20370 0679 94010000 		.4byte	.LVL55
 20371 067d 0200     		.2byte	0x2
 20372 067f 70       		.byte	0x70
 20373 0680 0C       		.sleb128 12
 20374 0681 00000000 		.4byte	0
 20375 0685 00000000 		.4byte	0
 20376              	.LLST22:
 20377 0689 8A010000 		.4byte	.LVL53
 20378 068d 92010000 		.4byte	.LVL54
 20379 0691 0400     		.2byte	0x4
 20380 0693 71       		.byte	0x71
 20381 0694 8020     		.sleb128 4096
 20382 0696 9F       		.byte	0x9f
 20383 0697 92010000 		.4byte	.LVL54
 20384 069b 2E020000 		.4byte	.LVL66
 20385 069f 0100     		.2byte	0x1
 20386 06a1 51       		.byte	0x51
 20387 06a2 00000000 		.4byte	0
ARM GAS  C:\Users\mathi\AppData\Local\Temp\ccOm87JI.s 			page 359


 20388 06a6 00000000 		.4byte	0
 20389              	.LLST23:
 20390 06aa 8A010000 		.4byte	.LVL53
 20391 06ae 94010000 		.4byte	.LVL55
 20392 06b2 0100     		.2byte	0x1
 20393 06b4 55       		.byte	0x55
 20394 06b5 94010000 		.4byte	.LVL55
 20395 06b9 CA010000 		.4byte	.LVL60
 20396 06bd 0100     		.2byte	0x1
 20397 06bf 50       		.byte	0x50
 20398 06c0 CA010000 		.4byte	.LVL60
 20399 06c4 EC010000 		.4byte	.LVL61
 20400 06c8 0300     		.2byte	0x3
 20401 06ca 70       		.byte	0x70
 20402 06cb 7F       		.sleb128 -1
 20403 06cc 9F       		.byte	0x9f
 20404 06cd EC010000 		.4byte	.LVL61
 20405 06d1 0E020000 		.4byte	.LVL62
 20406 06d5 0300     		.2byte	0x3
 20407 06d7 70       		.byte	0x70
 20408 06d8 7E       		.sleb128 -2
 20409 06d9 9F       		.byte	0x9f
 20410 06da 0E020000 		.4byte	.LVL62
 20411 06de 12020000 		.4byte	.LVL63
 20412 06e2 0300     		.2byte	0x3
 20413 06e4 70       		.byte	0x70
 20414 06e5 7D       		.sleb128 -3
 20415 06e6 9F       		.byte	0x9f
 20416 06e7 12020000 		.4byte	.LVL63
 20417 06eb 2C020000 		.4byte	.LVL65
 20418 06ef 0300     		.2byte	0x3
 20419 06f1 70       		.byte	0x70
 20420 06f2 7C       		.sleb128 -4
 20421 06f3 9F       		.byte	0x9f
 20422 06f4 2C020000 		.4byte	.LVL65
 20423 06f8 2E020000 		.4byte	.LVL66
 20424 06fc 0100     		.2byte	0x1
 20425 06fe 50       		.byte	0x50
 20426 06ff 00000000 		.4byte	0
 20427 0703 00000000 		.4byte	0
 20428              	.LLST24:
 20429 0707 B0010000 		.4byte	.LVL59
 20430 070b 14020000 		.4byte	.LVL64
 20431 070f 0100     		.2byte	0x1
 20432 0711 52       		.byte	0x52
 20433 0712 00000000 		.4byte	0
 20434 0716 00000000 		.4byte	0
 20435              	.LLST25:
 20436 071a B0010000 		.4byte	.LVL59
 20437 071e CA010000 		.4byte	.LVL60
 20438 0722 0200     		.2byte	0x2
 20439 0724 30       		.byte	0x30
 20440 0725 9F       		.byte	0x9f
 20441 0726 CA010000 		.4byte	.LVL60
 20442 072a EC010000 		.4byte	.LVL61
 20443 072e 0200     		.2byte	0x2
 20444 0730 31       		.byte	0x31
ARM GAS  C:\Users\mathi\AppData\Local\Temp\ccOm87JI.s 			page 360


 20445 0731 9F       		.byte	0x9f
 20446 0732 EC010000 		.4byte	.LVL61
 20447 0736 0E020000 		.4byte	.LVL62
 20448 073a 0200     		.2byte	0x2
 20449 073c 32       		.byte	0x32
 20450 073d 9F       		.byte	0x9f
 20451 073e 0E020000 		.4byte	.LVL62
 20452 0742 12020000 		.4byte	.LVL63
 20453 0746 0200     		.2byte	0x2
 20454 0748 33       		.byte	0x33
 20455 0749 9F       		.byte	0x9f
 20456 074a 12020000 		.4byte	.LVL63
 20457 074e 2E020000 		.4byte	.LVL66
 20458 0752 0200     		.2byte	0x2
 20459 0754 34       		.byte	0x34
 20460 0755 9F       		.byte	0x9f
 20461 0756 00000000 		.4byte	0
 20462 075a 00000000 		.4byte	0
 20463              	.LLST26:
 20464 075e 94010000 		.4byte	.LVL55
 20465 0762 9C010000 		.4byte	.LVL56
 20466 0766 0500     		.2byte	0x5
 20467 0768 70       		.byte	0x70
 20468 0769 00       		.sleb128 0
 20469 076a 32       		.byte	0x32
 20470 076b 25       		.byte	0x25
 20471 076c 9F       		.byte	0x9f
 20472 076d A6010000 		.4byte	.LVL57
 20473 0771 AE010000 		.4byte	.LVL58
 20474 0775 0500     		.2byte	0x5
 20475 0777 70       		.byte	0x70
 20476 0778 00       		.sleb128 0
 20477 0779 32       		.byte	0x32
 20478 077a 25       		.byte	0x25
 20479 077b 9F       		.byte	0x9f
 20480 077c 00000000 		.4byte	0
 20481 0780 00000000 		.4byte	0
 20482              	.LLST27:
 20483 0784 9C010000 		.4byte	.LVL56
 20484 0788 AE010000 		.4byte	.LVL58
 20485 078c 0200     		.2byte	0x2
 20486 078e 30       		.byte	0x30
 20487 078f 9F       		.byte	0x9f
 20488 0790 00000000 		.4byte	0
 20489 0794 00000000 		.4byte	0
 20490              	.LLST29:
 20491 0798 2E020000 		.4byte	.LVL66
 20492 079c 34020000 		.4byte	.LVL67
 20493 07a0 0300     		.2byte	0x3
 20494 07a2 08       		.byte	0x8
 20495 07a3 20       		.byte	0x20
 20496 07a4 9F       		.byte	0x9f
 20497 07a5 00000000 		.4byte	0
 20498 07a9 00000000 		.4byte	0
 20499              	.LLST30:
 20500 07ad 42020000 		.4byte	.LVL70
 20501 07b1 4A020000 		.4byte	.LVL71
ARM GAS  C:\Users\mathi\AppData\Local\Temp\ccOm87JI.s 			page 361


 20502 07b5 0200     		.2byte	0x2
 20503 07b7 30       		.byte	0x30
 20504 07b8 9F       		.byte	0x9f
 20505 07b9 00000000 		.4byte	0
 20506 07bd 00000000 		.4byte	0
 20507              	.LLST31:
 20508 07c1 42020000 		.4byte	.LVL70
 20509 07c5 4A020000 		.4byte	.LVL71
 20510 07c9 0100     		.2byte	0x1
 20511 07cb 56       		.byte	0x56
 20512 07cc 00000000 		.4byte	0
 20513 07d0 00000000 		.4byte	0
 20514              	.LLST32:
 20515 07d4 70020000 		.4byte	.LVL75
 20516 07d8 76020000 		.4byte	.LVL76
 20517 07dc 0200     		.2byte	0x2
 20518 07de 30       		.byte	0x30
 20519 07df 9F       		.byte	0x9f
 20520 07e0 00000000 		.4byte	0
 20521 07e4 00000000 		.4byte	0
 20522              	.LLST33:
 20523 07e8 6A010000 		.4byte	.LVL46
 20524 07ec 70010000 		.4byte	.LVL47
 20525 07f0 0300     		.2byte	0x3
 20526 07f2 08       		.byte	0x8
 20527 07f3 20       		.byte	0x20
 20528 07f4 9F       		.byte	0x9f
 20529 07f5 00000000 		.4byte	0
 20530 07f9 00000000 		.4byte	0
 20531              	.LLST3:
 20532 07fd 1C000000 		.4byte	.LVL1
 20533 0801 24000000 		.4byte	.LVL2
 20534 0805 0300     		.2byte	0x3
 20535 0807 08       		.byte	0x8
 20536 0808 20       		.byte	0x20
 20537 0809 9F       		.byte	0x9f
 20538 080a 00000000 		.4byte	0
 20539 080e 00000000 		.4byte	0
 20540              	.LLST262:
 20541 0812 00000000 		.4byte	.LVL562
 20542 0816 2D000000 		.4byte	.LVL564-1
 20543 081a 0100     		.2byte	0x1
 20544 081c 50       		.byte	0x50
 20545 081d 2D000000 		.4byte	.LVL564-1
 20546 0821 34000000 		.4byte	.LFE291
 20547 0825 0400     		.2byte	0x4
 20548 0827 F3       		.byte	0xf3
 20549 0828 01       		.uleb128 0x1
 20550 0829 50       		.byte	0x50
 20551 082a 9F       		.byte	0x9f
 20552 082b 00000000 		.4byte	0
 20553 082f 00000000 		.4byte	0
 20554              	.LLST263:
 20555 0833 00000000 		.4byte	.LVL562
 20556 0837 0C000000 		.4byte	.LVL563
 20557 083b 0100     		.2byte	0x1
 20558 083d 51       		.byte	0x51
ARM GAS  C:\Users\mathi\AppData\Local\Temp\ccOm87JI.s 			page 362


 20559 083e 0C000000 		.4byte	.LVL563
 20560 0842 34000000 		.4byte	.LFE291
 20561 0846 0400     		.2byte	0x4
 20562 0848 F3       		.byte	0xf3
 20563 0849 01       		.uleb128 0x1
 20564 084a 51       		.byte	0x51
 20565 084b 9F       		.byte	0x9f
 20566 084c 00000000 		.4byte	0
 20567 0850 00000000 		.4byte	0
 20568              	.LLST260:
 20569 0854 00000000 		.4byte	.LVL559
 20570 0858 2D000000 		.4byte	.LVL561-1
 20571 085c 0100     		.2byte	0x1
 20572 085e 50       		.byte	0x50
 20573 085f 2D000000 		.4byte	.LVL561-1
 20574 0863 34000000 		.4byte	.LFE290
 20575 0867 0400     		.2byte	0x4
 20576 0869 F3       		.byte	0xf3
 20577 086a 01       		.uleb128 0x1
 20578 086b 50       		.byte	0x50
 20579 086c 9F       		.byte	0x9f
 20580 086d 00000000 		.4byte	0
 20581 0871 00000000 		.4byte	0
 20582              	.LLST261:
 20583 0875 00000000 		.4byte	.LVL559
 20584 0879 0C000000 		.4byte	.LVL560
 20585 087d 0100     		.2byte	0x1
 20586 087f 51       		.byte	0x51
 20587 0880 0C000000 		.4byte	.LVL560
 20588 0884 34000000 		.4byte	.LFE290
 20589 0888 0400     		.2byte	0x4
 20590 088a F3       		.byte	0xf3
 20591 088b 01       		.uleb128 0x1
 20592 088c 51       		.byte	0x51
 20593 088d 9F       		.byte	0x9f
 20594 088e 00000000 		.4byte	0
 20595 0892 00000000 		.4byte	0
 20596              	.LLST258:
 20597 0896 00000000 		.4byte	.LVL556
 20598 089a 2D000000 		.4byte	.LVL558-1
 20599 089e 0100     		.2byte	0x1
 20600 08a0 50       		.byte	0x50
 20601 08a1 2D000000 		.4byte	.LVL558-1
 20602 08a5 34000000 		.4byte	.LFE289
 20603 08a9 0400     		.2byte	0x4
 20604 08ab F3       		.byte	0xf3
 20605 08ac 01       		.uleb128 0x1
 20606 08ad 50       		.byte	0x50
 20607 08ae 9F       		.byte	0x9f
 20608 08af 00000000 		.4byte	0
 20609 08b3 00000000 		.4byte	0
 20610              	.LLST259:
 20611 08b7 00000000 		.4byte	.LVL556
 20612 08bb 0C000000 		.4byte	.LVL557
 20613 08bf 0100     		.2byte	0x1
 20614 08c1 51       		.byte	0x51
 20615 08c2 0C000000 		.4byte	.LVL557
ARM GAS  C:\Users\mathi\AppData\Local\Temp\ccOm87JI.s 			page 363


 20616 08c6 34000000 		.4byte	.LFE289
 20617 08ca 0400     		.2byte	0x4
 20618 08cc F3       		.byte	0xf3
 20619 08cd 01       		.uleb128 0x1
 20620 08ce 51       		.byte	0x51
 20621 08cf 9F       		.byte	0x9f
 20622 08d0 00000000 		.4byte	0
 20623 08d4 00000000 		.4byte	0
 20624              	.LLST256:
 20625 08d8 00000000 		.4byte	.LVL553
 20626 08dc 2D000000 		.4byte	.LVL555-1
 20627 08e0 0100     		.2byte	0x1
 20628 08e2 50       		.byte	0x50
 20629 08e3 2D000000 		.4byte	.LVL555-1
 20630 08e7 34000000 		.4byte	.LFE288
 20631 08eb 0400     		.2byte	0x4
 20632 08ed F3       		.byte	0xf3
 20633 08ee 01       		.uleb128 0x1
 20634 08ef 50       		.byte	0x50
 20635 08f0 9F       		.byte	0x9f
 20636 08f1 00000000 		.4byte	0
 20637 08f5 00000000 		.4byte	0
 20638              	.LLST257:
 20639 08f9 00000000 		.4byte	.LVL553
 20640 08fd 0C000000 		.4byte	.LVL554
 20641 0901 0100     		.2byte	0x1
 20642 0903 51       		.byte	0x51
 20643 0904 0C000000 		.4byte	.LVL554
 20644 0908 34000000 		.4byte	.LFE288
 20645 090c 0400     		.2byte	0x4
 20646 090e F3       		.byte	0xf3
 20647 090f 01       		.uleb128 0x1
 20648 0910 51       		.byte	0x51
 20649 0911 9F       		.byte	0x9f
 20650 0912 00000000 		.4byte	0
 20651 0916 00000000 		.4byte	0
 20652              	.LLST241:
 20653 091a 00000000 		.4byte	.LVL524
 20654 091e 0C000000 		.4byte	.LVL526
 20655 0922 0100     		.2byte	0x1
 20656 0924 50       		.byte	0x50
 20657 0925 0C000000 		.4byte	.LVL526
 20658 0929 30000000 		.4byte	.LFE283
 20659 092d 0400     		.2byte	0x4
 20660 092f F3       		.byte	0xf3
 20661 0930 01       		.uleb128 0x1
 20662 0931 50       		.byte	0x50
 20663 0932 9F       		.byte	0x9f
 20664 0933 00000000 		.4byte	0
 20665 0937 00000000 		.4byte	0
 20666              	.LLST242:
 20667 093b 00000000 		.4byte	.LVL524
 20668 093f 06000000 		.4byte	.LVL525
 20669 0943 0100     		.2byte	0x1
 20670 0945 51       		.byte	0x51
 20671 0946 06000000 		.4byte	.LVL525
 20672 094a 30000000 		.4byte	.LFE283
ARM GAS  C:\Users\mathi\AppData\Local\Temp\ccOm87JI.s 			page 364


 20673 094e 0400     		.2byte	0x4
 20674 0950 F3       		.byte	0xf3
 20675 0951 01       		.uleb128 0x1
 20676 0952 51       		.byte	0x51
 20677 0953 9F       		.byte	0x9f
 20678 0954 00000000 		.4byte	0
 20679 0958 00000000 		.4byte	0
 20680              	.LLST243:
 20681 095c 00000000 		.4byte	.LVL524
 20682 0960 29000000 		.4byte	.LVL527-1
 20683 0964 0100     		.2byte	0x1
 20684 0966 52       		.byte	0x52
 20685 0967 29000000 		.4byte	.LVL527-1
 20686 096b 30000000 		.4byte	.LFE283
 20687 096f 0400     		.2byte	0x4
 20688 0971 F3       		.byte	0xf3
 20689 0972 01       		.uleb128 0x1
 20690 0973 52       		.byte	0x52
 20691 0974 9F       		.byte	0x9f
 20692 0975 00000000 		.4byte	0
 20693 0979 00000000 		.4byte	0
 20694              	.LLST238:
 20695 097d 00000000 		.4byte	.LVL518
 20696 0981 08000000 		.4byte	.LVL519
 20697 0985 0100     		.2byte	0x1
 20698 0987 50       		.byte	0x50
 20699 0988 08000000 		.4byte	.LVL519
 20700 098c 38000000 		.4byte	.LFE282
 20701 0990 0400     		.2byte	0x4
 20702 0992 F3       		.byte	0xf3
 20703 0993 01       		.uleb128 0x1
 20704 0994 50       		.byte	0x50
 20705 0995 9F       		.byte	0x9f
 20706 0996 00000000 		.4byte	0
 20707 099a 00000000 		.4byte	0
 20708              	.LLST239:
 20709 099e 00000000 		.4byte	.LVL518
 20710 09a2 0C000000 		.4byte	.LVL520
 20711 09a6 0100     		.2byte	0x1
 20712 09a8 51       		.byte	0x51
 20713 09a9 0C000000 		.4byte	.LVL520
 20714 09ad 38000000 		.4byte	.LFE282
 20715 09b1 0400     		.2byte	0x4
 20716 09b3 F3       		.byte	0xf3
 20717 09b4 01       		.uleb128 0x1
 20718 09b5 51       		.byte	0x51
 20719 09b6 9F       		.byte	0x9f
 20720 09b7 00000000 		.4byte	0
 20721 09bb 00000000 		.4byte	0
 20722              	.LLST240:
 20723 09bf 12000000 		.4byte	.LVL521
 20724 09c3 26000000 		.4byte	.LVL522
 20725 09c7 0100     		.2byte	0x1
 20726 09c9 53       		.byte	0x53
 20727 09ca 00000000 		.4byte	0
 20728 09ce 00000000 		.4byte	0
 20729              	.LLST235:
ARM GAS  C:\Users\mathi\AppData\Local\Temp\ccOm87JI.s 			page 365


 20730 09d2 00000000 		.4byte	.LVL512
 20731 09d6 08000000 		.4byte	.LVL513
 20732 09da 0100     		.2byte	0x1
 20733 09dc 50       		.byte	0x50
 20734 09dd 08000000 		.4byte	.LVL513
 20735 09e1 38000000 		.4byte	.LFE281
 20736 09e5 0400     		.2byte	0x4
 20737 09e7 F3       		.byte	0xf3
 20738 09e8 01       		.uleb128 0x1
 20739 09e9 50       		.byte	0x50
 20740 09ea 9F       		.byte	0x9f
 20741 09eb 00000000 		.4byte	0
 20742 09ef 00000000 		.4byte	0
 20743              	.LLST236:
 20744 09f3 00000000 		.4byte	.LVL512
 20745 09f7 0C000000 		.4byte	.LVL514
 20746 09fb 0100     		.2byte	0x1
 20747 09fd 51       		.byte	0x51
 20748 09fe 0C000000 		.4byte	.LVL514
 20749 0a02 38000000 		.4byte	.LFE281
 20750 0a06 0400     		.2byte	0x4
 20751 0a08 F3       		.byte	0xf3
 20752 0a09 01       		.uleb128 0x1
 20753 0a0a 51       		.byte	0x51
 20754 0a0b 9F       		.byte	0x9f
 20755 0a0c 00000000 		.4byte	0
 20756 0a10 00000000 		.4byte	0
 20757              	.LLST237:
 20758 0a14 12000000 		.4byte	.LVL515
 20759 0a18 26000000 		.4byte	.LVL516
 20760 0a1c 0100     		.2byte	0x1
 20761 0a1e 53       		.byte	0x53
 20762 0a1f 00000000 		.4byte	0
 20763 0a23 00000000 		.4byte	0
 20764              	.LLST228:
 20765 0a27 00000000 		.4byte	.LVL505
 20766 0a2b 9B000000 		.4byte	.LVL511-1
 20767 0a2f 0100     		.2byte	0x1
 20768 0a31 50       		.byte	0x50
 20769 0a32 9B000000 		.4byte	.LVL511-1
 20770 0a36 A0000000 		.4byte	.LFE280
 20771 0a3a 0400     		.2byte	0x4
 20772 0a3c F3       		.byte	0xf3
 20773 0a3d 01       		.uleb128 0x1
 20774 0a3e 50       		.byte	0x50
 20775 0a3f 9F       		.byte	0x9f
 20776 0a40 00000000 		.4byte	0
 20777 0a44 00000000 		.4byte	0
 20778              	.LLST229:
 20779 0a48 1A000000 		.4byte	.LVL506
 20780 0a4c 9B000000 		.4byte	.LVL511-1
 20781 0a50 0100     		.2byte	0x1
 20782 0a52 50       		.byte	0x50
 20783 0a53 9B000000 		.4byte	.LVL511-1
 20784 0a57 A0000000 		.4byte	.LFE280
 20785 0a5b 0400     		.2byte	0x4
 20786 0a5d F3       		.byte	0xf3
ARM GAS  C:\Users\mathi\AppData\Local\Temp\ccOm87JI.s 			page 366


 20787 0a5e 01       		.uleb128 0x1
 20788 0a5f 50       		.byte	0x50
 20789 0a60 9F       		.byte	0x9f
 20790 0a61 00000000 		.4byte	0
 20791 0a65 00000000 		.4byte	0
 20792              	.LLST230:
 20793 0a69 1A000000 		.4byte	.LVL506
 20794 0a6d 9B000000 		.4byte	.LVL511-1
 20795 0a71 0100     		.2byte	0x1
 20796 0a73 50       		.byte	0x50
 20797 0a74 9B000000 		.4byte	.LVL511-1
 20798 0a78 A0000000 		.4byte	.LFE280
 20799 0a7c 0400     		.2byte	0x4
 20800 0a7e F3       		.byte	0xf3
 20801 0a7f 01       		.uleb128 0x1
 20802 0a80 50       		.byte	0x50
 20803 0a81 9F       		.byte	0x9f
 20804 0a82 00000000 		.4byte	0
 20805 0a86 00000000 		.4byte	0
 20806              	.LLST231:
 20807 0a8a 1A000000 		.4byte	.LVL506
 20808 0a8e 9B000000 		.4byte	.LVL511-1
 20809 0a92 0100     		.2byte	0x1
 20810 0a94 50       		.byte	0x50
 20811 0a95 9B000000 		.4byte	.LVL511-1
 20812 0a99 A0000000 		.4byte	.LFE280
 20813 0a9d 0400     		.2byte	0x4
 20814 0a9f F3       		.byte	0xf3
 20815 0aa0 01       		.uleb128 0x1
 20816 0aa1 50       		.byte	0x50
 20817 0aa2 9F       		.byte	0x9f
 20818 0aa3 00000000 		.4byte	0
 20819 0aa7 00000000 		.4byte	0
 20820              	.LLST232:
 20821 0aab 1A000000 		.4byte	.LVL506
 20822 0aaf 9B000000 		.4byte	.LVL511-1
 20823 0ab3 0100     		.2byte	0x1
 20824 0ab5 50       		.byte	0x50
 20825 0ab6 9B000000 		.4byte	.LVL511-1
 20826 0aba A0000000 		.4byte	.LFE280
 20827 0abe 0400     		.2byte	0x4
 20828 0ac0 F3       		.byte	0xf3
 20829 0ac1 01       		.uleb128 0x1
 20830 0ac2 50       		.byte	0x50
 20831 0ac3 9F       		.byte	0x9f
 20832 0ac4 00000000 		.4byte	0
 20833 0ac8 00000000 		.4byte	0
 20834              	.LLST233:
 20835 0acc 1A000000 		.4byte	.LVL506
 20836 0ad0 88000000 		.4byte	.LVL510
 20837 0ad4 0100     		.2byte	0x1
 20838 0ad6 56       		.byte	0x56
 20839 0ad7 00000000 		.4byte	0
 20840 0adb 00000000 		.4byte	0
 20841              	.LLST234:
 20842 0adf 1A000000 		.4byte	.LVL506
 20843 0ae3 26000000 		.4byte	.LVL507
ARM GAS  C:\Users\mathi\AppData\Local\Temp\ccOm87JI.s 			page 367


 20844 0ae7 0200     		.2byte	0x2
 20845 0ae9 30       		.byte	0x30
 20846 0aea 9F       		.byte	0x9f
 20847 0aeb 26000000 		.4byte	.LVL507
 20848 0aef 88000000 		.4byte	.LVL510
 20849 0af3 0100     		.2byte	0x1
 20850 0af5 54       		.byte	0x54
 20851 0af6 00000000 		.4byte	0
 20852 0afa 00000000 		.4byte	0
 20853              	.LLST211:
 20854 0afe 00000000 		.4byte	.LVL479
 20855 0b02 4C000000 		.4byte	.LVL484
 20856 0b06 0100     		.2byte	0x1
 20857 0b08 50       		.byte	0x50
 20858 0b09 4C000000 		.4byte	.LVL484
 20859 0b0d 64010000 		.4byte	.LVL499
 20860 0b11 0100     		.2byte	0x1
 20861 0b13 57       		.byte	0x57
 20862 0b14 64010000 		.4byte	.LVL499
 20863 0b18 70010000 		.4byte	.LVL501
 20864 0b1c 0100     		.2byte	0x1
 20865 0b1e 50       		.byte	0x50
 20866 0b1f 70010000 		.4byte	.LVL501
 20867 0b23 A0010000 		.4byte	.LFE279
 20868 0b27 0100     		.2byte	0x1
 20869 0b29 57       		.byte	0x57
 20870 0b2a 00000000 		.4byte	0
 20871 0b2e 00000000 		.4byte	0
 20872              	.LLST212:
 20873 0b32 00000000 		.4byte	.LVL479
 20874 0b36 32000000 		.4byte	.LVL481
 20875 0b3a 0100     		.2byte	0x1
 20876 0b3c 51       		.byte	0x51
 20877 0b3d 32000000 		.4byte	.LVL481
 20878 0b41 64010000 		.4byte	.LVL499
 20879 0b45 0400     		.2byte	0x4
 20880 0b47 F3       		.byte	0xf3
 20881 0b48 01       		.uleb128 0x1
 20882 0b49 51       		.byte	0x51
 20883 0b4a 9F       		.byte	0x9f
 20884 0b4b 64010000 		.4byte	.LVL499
 20885 0b4f 70010000 		.4byte	.LVL501
 20886 0b53 0100     		.2byte	0x1
 20887 0b55 51       		.byte	0x51
 20888 0b56 70010000 		.4byte	.LVL501
 20889 0b5a A0010000 		.4byte	.LFE279
 20890 0b5e 0400     		.2byte	0x4
 20891 0b60 F3       		.byte	0xf3
 20892 0b61 01       		.uleb128 0x1
 20893 0b62 51       		.byte	0x51
 20894 0b63 9F       		.byte	0x9f
 20895 0b64 00000000 		.4byte	0
 20896 0b68 00000000 		.4byte	0
 20897              	.LLST213:
 20898 0b6c 3E000000 		.4byte	.LVL482
 20899 0b70 64010000 		.4byte	.LVL499
 20900 0b74 0100     		.2byte	0x1
ARM GAS  C:\Users\mathi\AppData\Local\Temp\ccOm87JI.s 			page 368


 20901 0b76 5A       		.byte	0x5a
 20902 0b77 64010000 		.4byte	.LVL499
 20903 0b7b 6A010000 		.4byte	.LVL500
 20904 0b7f 0600     		.2byte	0x6
 20905 0b81 0C       		.byte	0xc
 20906 0b82 00800C10 		.4byte	0x100c8000
 20907 0b86 9F       		.byte	0x9f
 20908 0b87 6A010000 		.4byte	.LVL500
 20909 0b8b 70010000 		.4byte	.LVL501
 20910 0b8f 0600     		.2byte	0x6
 20911 0b91 0C       		.byte	0xc
 20912 0b92 00800810 		.4byte	0x10088000
 20913 0b96 9F       		.byte	0x9f
 20914 0b97 70010000 		.4byte	.LVL501
 20915 0b9b A0010000 		.4byte	.LFE279
 20916 0b9f 0100     		.2byte	0x1
 20917 0ba1 5A       		.byte	0x5a
 20918 0ba2 00000000 		.4byte	0
 20919 0ba6 00000000 		.4byte	0
 20920              	.LLST214:
 20921 0baa 9C000000 		.4byte	.LVL485
 20922 0bae B0000000 		.4byte	.LVL488
 20923 0bb2 0100     		.2byte	0x1
 20924 0bb4 56       		.byte	0x56
 20925 0bb5 00000000 		.4byte	0
 20926 0bb9 00000000 		.4byte	0
 20927              	.LLST215:
 20928 0bbd 26000000 		.4byte	.LVL480
 20929 0bc1 48000000 		.4byte	.LVL483
 20930 0bc5 0300     		.2byte	0x3
 20931 0bc7 70       		.byte	0x70
 20932 0bc8 D000     		.sleb128 80
 20933 0bca 64010000 		.4byte	.LVL499
 20934 0bce 70010000 		.4byte	.LVL501
 20935 0bd2 0300     		.2byte	0x3
 20936 0bd4 70       		.byte	0x70
 20937 0bd5 D000     		.sleb128 80
 20938 0bd7 00000000 		.4byte	0
 20939 0bdb 00000000 		.4byte	0
 20940              	.LLST216:
 20941 0bdf A4000000 		.4byte	.LVL487
 20942 0be3 F6000000 		.4byte	.LVL493
 20943 0be7 0100     		.2byte	0x1
 20944 0be9 57       		.byte	0x57
 20945 0bea 70010000 		.4byte	.LVL501
 20946 0bee 80010000 		.4byte	.LVL503
 20947 0bf2 0100     		.2byte	0x1
 20948 0bf4 57       		.byte	0x57
 20949 0bf5 00000000 		.4byte	0
 20950 0bf9 00000000 		.4byte	0
 20951              	.LLST218:
 20952 0bfd A4000000 		.4byte	.LVL487
 20953 0c01 B0000000 		.4byte	.LVL488
 20954 0c05 0100     		.2byte	0x1
 20955 0c07 56       		.byte	0x56
 20956 0c08 00000000 		.4byte	0
 20957 0c0c 00000000 		.4byte	0
ARM GAS  C:\Users\mathi\AppData\Local\Temp\ccOm87JI.s 			page 369


 20958              	.LLST219:
 20959 0c10 A4000000 		.4byte	.LVL487
 20960 0c14 B2000000 		.4byte	.LVL489
 20961 0c18 0100     		.2byte	0x1
 20962 0c1a 52       		.byte	0x52
 20963 0c1b 70010000 		.4byte	.LVL501
 20964 0c1f 79010000 		.4byte	.LVL502-1
 20965 0c23 0100     		.2byte	0x1
 20966 0c25 52       		.byte	0x52
 20967 0c26 79010000 		.4byte	.LVL502-1
 20968 0c2a 80010000 		.4byte	.LVL503
 20969 0c2e 0200     		.2byte	0x2
 20970 0c30 7D       		.byte	0x7d
 20971 0c31 00       		.sleb128 0
 20972 0c32 00000000 		.4byte	0
 20973 0c36 00000000 		.4byte	0
 20974              	.LLST220:
 20975 0c3a C2000000 		.4byte	.LVL490
 20976 0c3e F6000000 		.4byte	.LVL493
 20977 0c42 0100     		.2byte	0x1
 20978 0c44 57       		.byte	0x57
 20979 0c45 00000000 		.4byte	0
 20980 0c49 00000000 		.4byte	0
 20981              	.LLST221:
 20982 0c4d C2000000 		.4byte	.LVL490
 20983 0c51 D0000000 		.4byte	.LVL492
 20984 0c55 0600     		.2byte	0x6
 20985 0c57 75       		.byte	0x75
 20986 0c58 00       		.sleb128 0
 20987 0c59 08       		.byte	0x8
 20988 0c5a FF       		.byte	0xff
 20989 0c5b 1A       		.byte	0x1a
 20990 0c5c 9F       		.byte	0x9f
 20991 0c5d 00000000 		.4byte	0
 20992 0c61 00000000 		.4byte	0
 20993              	.LLST222:
 20994 0c65 C2000000 		.4byte	.LVL490
 20995 0c69 CF000000 		.4byte	.LVL492-1
 20996 0c6d 0100     		.2byte	0x1
 20997 0c6f 52       		.byte	0x52
 20998 0c70 00000000 		.4byte	0
 20999 0c74 00000000 		.4byte	0
 21000              	.LLST223:
 21001 0c78 CA000000 		.4byte	.LVL491
 21002 0c7c D0000000 		.4byte	.LVL492
 21003 0c80 0200     		.2byte	0x2
 21004 0c82 3C       		.byte	0x3c
 21005 0c83 9F       		.byte	0x9f
 21006 0c84 00000000 		.4byte	0
 21007 0c88 00000000 		.4byte	0
 21008              	.LLST224:
 21009 0c8c 14010000 		.4byte	.LVL495
 21010 0c90 46010000 		.4byte	.LVL498
 21011 0c94 0100     		.2byte	0x1
 21012 0c96 57       		.byte	0x57
 21013 0c97 00000000 		.4byte	0
 21014 0c9b 00000000 		.4byte	0
ARM GAS  C:\Users\mathi\AppData\Local\Temp\ccOm87JI.s 			page 370


 21015              	.LLST225:
 21016 0c9f 14010000 		.4byte	.LVL495
 21017 0ca3 26010000 		.4byte	.LVL497
 21018 0ca7 0600     		.2byte	0x6
 21019 0ca9 75       		.byte	0x75
 21020 0caa 00       		.sleb128 0
 21021 0cab 08       		.byte	0x8
 21022 0cac FF       		.byte	0xff
 21023 0cad 1A       		.byte	0x1a
 21024 0cae 9F       		.byte	0x9f
 21025 0caf 00000000 		.4byte	0
 21026 0cb3 00000000 		.4byte	0
 21027              	.LLST226:
 21028 0cb7 14010000 		.4byte	.LVL495
 21029 0cbb 25010000 		.4byte	.LVL497-1
 21030 0cbf 0100     		.2byte	0x1
 21031 0cc1 52       		.byte	0x52
 21032 0cc2 00000000 		.4byte	0
 21033 0cc6 00000000 		.4byte	0
 21034              	.LLST227:
 21035 0cca 1C010000 		.4byte	.LVL496
 21036 0cce 26010000 		.4byte	.LVL497
 21037 0cd2 0200     		.2byte	0x2
 21038 0cd4 3C       		.byte	0x3c
 21039 0cd5 9F       		.byte	0x9f
 21040 0cd6 00000000 		.4byte	0
 21041 0cda 00000000 		.4byte	0
 21042              	.LLST209:
 21043 0cde 00000000 		.4byte	.LVL474
 21044 0ce2 0C000000 		.4byte	.LVL476
 21045 0ce6 0100     		.2byte	0x1
 21046 0ce8 50       		.byte	0x50
 21047 0ce9 0C000000 		.4byte	.LVL476
 21048 0ced 38000000 		.4byte	.LFE278
 21049 0cf1 0400     		.2byte	0x4
 21050 0cf3 F3       		.byte	0xf3
 21051 0cf4 01       		.uleb128 0x1
 21052 0cf5 50       		.byte	0x50
 21053 0cf6 9F       		.byte	0x9f
 21054 0cf7 00000000 		.4byte	0
 21055 0cfb 00000000 		.4byte	0
 21056              	.LLST210:
 21057 0cff 06000000 		.4byte	.LVL475
 21058 0d03 22000000 		.4byte	.LVL477
 21059 0d07 0100     		.2byte	0x1
 21060 0d09 51       		.byte	0x51
 21061 0d0a 00000000 		.4byte	0
 21062 0d0e 00000000 		.4byte	0
 21063              	.LLST199:
 21064 0d12 00000000 		.4byte	.LVL444
 21065 0d16 1A000000 		.4byte	.LVL448
 21066 0d1a 0100     		.2byte	0x1
 21067 0d1c 50       		.byte	0x50
 21068 0d1d 1A000000 		.4byte	.LVL448
 21069 0d21 4C020000 		.4byte	.LFE277
 21070 0d25 0100     		.2byte	0x1
 21071 0d27 56       		.byte	0x56
ARM GAS  C:\Users\mathi\AppData\Local\Temp\ccOm87JI.s 			page 371


 21072 0d28 00000000 		.4byte	0
 21073 0d2c 00000000 		.4byte	0
 21074              	.LLST200:
 21075 0d30 1E000000 		.4byte	.LVL449
 21076 0d34 34000000 		.4byte	.LVL450
 21077 0d38 0200     		.2byte	0x2
 21078 0d3a 30       		.byte	0x30
 21079 0d3b 9F       		.byte	0x9f
 21080 0d3c 34000000 		.4byte	.LVL450
 21081 0d40 4E000000 		.4byte	.LVL451
 21082 0d44 0200     		.2byte	0x2
 21083 0d46 31       		.byte	0x31
 21084 0d47 9F       		.byte	0x9f
 21085 0d48 4E000000 		.4byte	.LVL451
 21086 0d4c 68000000 		.4byte	.LVL452
 21087 0d50 0200     		.2byte	0x2
 21088 0d52 32       		.byte	0x32
 21089 0d53 9F       		.byte	0x9f
 21090 0d54 68000000 		.4byte	.LVL452
 21091 0d58 82000000 		.4byte	.LVL453
 21092 0d5c 0200     		.2byte	0x2
 21093 0d5e 33       		.byte	0x33
 21094 0d5f 9F       		.byte	0x9f
 21095 0d60 82000000 		.4byte	.LVL453
 21096 0d64 9C000000 		.4byte	.LVL454
 21097 0d68 0200     		.2byte	0x2
 21098 0d6a 34       		.byte	0x34
 21099 0d6b 9F       		.byte	0x9f
 21100 0d6c 9C000000 		.4byte	.LVL454
 21101 0d70 B6000000 		.4byte	.LVL455
 21102 0d74 0200     		.2byte	0x2
 21103 0d76 35       		.byte	0x35
 21104 0d77 9F       		.byte	0x9f
 21105 0d78 B6000000 		.4byte	.LVL455
 21106 0d7c CE000000 		.4byte	.LVL456
 21107 0d80 0200     		.2byte	0x2
 21108 0d82 36       		.byte	0x36
 21109 0d83 9F       		.byte	0x9f
 21110 0d84 CE000000 		.4byte	.LVL456
 21111 0d88 E6000000 		.4byte	.LVL457
 21112 0d8c 0200     		.2byte	0x2
 21113 0d8e 37       		.byte	0x37
 21114 0d8f 9F       		.byte	0x9f
 21115 0d90 E6000000 		.4byte	.LVL457
 21116 0d94 FE000000 		.4byte	.LVL458
 21117 0d98 0200     		.2byte	0x2
 21118 0d9a 38       		.byte	0x38
 21119 0d9b 9F       		.byte	0x9f
 21120 0d9c FE000000 		.4byte	.LVL458
 21121 0da0 18010000 		.4byte	.LVL459
 21122 0da4 0200     		.2byte	0x2
 21123 0da6 39       		.byte	0x39
 21124 0da7 9F       		.byte	0x9f
 21125 0da8 18010000 		.4byte	.LVL459
 21126 0dac 30010000 		.4byte	.LVL460
 21127 0db0 0200     		.2byte	0x2
 21128 0db2 3A       		.byte	0x3a
ARM GAS  C:\Users\mathi\AppData\Local\Temp\ccOm87JI.s 			page 372


 21129 0db3 9F       		.byte	0x9f
 21130 0db4 30010000 		.4byte	.LVL460
 21131 0db8 48010000 		.4byte	.LVL461
 21132 0dbc 0200     		.2byte	0x2
 21133 0dbe 3B       		.byte	0x3b
 21134 0dbf 9F       		.byte	0x9f
 21135 0dc0 48010000 		.4byte	.LVL461
 21136 0dc4 60010000 		.4byte	.LVL462
 21137 0dc8 0200     		.2byte	0x2
 21138 0dca 3C       		.byte	0x3c
 21139 0dcb 9F       		.byte	0x9f
 21140 0dcc 60010000 		.4byte	.LVL462
 21141 0dd0 78010000 		.4byte	.LVL463
 21142 0dd4 0200     		.2byte	0x2
 21143 0dd6 3D       		.byte	0x3d
 21144 0dd7 9F       		.byte	0x9f
 21145 0dd8 78010000 		.4byte	.LVL463
 21146 0ddc 90010000 		.4byte	.LVL464
 21147 0de0 0200     		.2byte	0x2
 21148 0de2 3E       		.byte	0x3e
 21149 0de3 9F       		.byte	0x9f
 21150 0de4 90010000 		.4byte	.LVL464
 21151 0de8 A8010000 		.4byte	.LVL465
 21152 0dec 0200     		.2byte	0x2
 21153 0dee 3F       		.byte	0x3f
 21154 0def 9F       		.byte	0x9f
 21155 0df0 00000000 		.4byte	0
 21156 0df4 00000000 		.4byte	0
 21157              	.LLST201:
 21158 0df8 0C000000 		.4byte	.LVL446
 21159 0dfc 1A000000 		.4byte	.LVL448
 21160 0e00 0100     		.2byte	0x1
 21161 0e02 50       		.byte	0x50
 21162 0e03 1A000000 		.4byte	.LVL448
 21163 0e07 4C020000 		.4byte	.LFE277
 21164 0e0b 0100     		.2byte	0x1
 21165 0e0d 56       		.byte	0x56
 21166 0e0e 00000000 		.4byte	0
 21167 0e12 00000000 		.4byte	0
 21168              	.LLST202:
 21169 0e16 0C000000 		.4byte	.LVL446
 21170 0e1a 1E000000 		.4byte	.LVL449
 21171 0e1e 0200     		.2byte	0x2
 21172 0e20 30       		.byte	0x30
 21173 0e21 9F       		.byte	0x9f
 21174 0e22 00000000 		.4byte	0
 21175 0e26 00000000 		.4byte	0
 21176              	.LLST203:
 21177 0e2a 0C000000 		.4byte	.LVL446
 21178 0e2e 1E000000 		.4byte	.LVL449
 21179 0e32 0100     		.2byte	0x1
 21180 0e34 54       		.byte	0x54
 21181 0e35 00000000 		.4byte	0
 21182 0e39 00000000 		.4byte	0
 21183              	.LLST204:
 21184 0e3d 18000000 		.4byte	.LVL447
 21185 0e41 1E000000 		.4byte	.LVL449
ARM GAS  C:\Users\mathi\AppData\Local\Temp\ccOm87JI.s 			page 373


 21186 0e45 0200     		.2byte	0x2
 21187 0e47 3C       		.byte	0x3c
 21188 0e48 9F       		.byte	0x9f
 21189 0e49 00000000 		.4byte	0
 21190 0e4d 00000000 		.4byte	0
 21191              	.LLST205:
 21192 0e51 C4010000 		.4byte	.LVL467
 21193 0e55 D5010000 		.4byte	.LVL469-1
 21194 0e59 0100     		.2byte	0x1
 21195 0e5b 52       		.byte	0x52
 21196 0e5c 00000000 		.4byte	0
 21197 0e60 00000000 		.4byte	0
 21198              	.LLST206:
 21199 0e64 D0010000 		.4byte	.LVL468
 21200 0e68 D6010000 		.4byte	.LVL469
 21201 0e6c 0200     		.2byte	0x2
 21202 0e6e 3C       		.byte	0x3c
 21203 0e6f 9F       		.byte	0x9f
 21204 0e70 00000000 		.4byte	0
 21205 0e74 00000000 		.4byte	0
 21206              	.LLST207:
 21207 0e78 12020000 		.4byte	.LVL470
 21208 0e7c 24020000 		.4byte	.LVL471
 21209 0e80 0200     		.2byte	0x2
 21210 0e82 40       		.byte	0x40
 21211 0e83 9F       		.byte	0x9f
 21212 0e84 00000000 		.4byte	0
 21213 0e88 00000000 		.4byte	0
 21214              	.LLST208:
 21215 0e8c 12020000 		.4byte	.LVL470
 21216 0e90 24020000 		.4byte	.LVL471
 21217 0e94 0100     		.2byte	0x1
 21218 0e96 55       		.byte	0x55
 21219 0e97 00000000 		.4byte	0
 21220 0e9b 00000000 		.4byte	0
 21221              	.LLST196:
 21222 0e9f 00000000 		.4byte	.LVL432
 21223 0ea3 88000000 		.4byte	.LVL438
 21224 0ea7 0100     		.2byte	0x1
 21225 0ea9 50       		.byte	0x50
 21226 0eaa 88000000 		.4byte	.LVL438
 21227 0eae A4000000 		.4byte	.LVL441
 21228 0eb2 0400     		.2byte	0x4
 21229 0eb4 F3       		.byte	0xf3
 21230 0eb5 01       		.uleb128 0x1
 21231 0eb6 50       		.byte	0x50
 21232 0eb7 9F       		.byte	0x9f
 21233 0eb8 A4000000 		.4byte	.LVL441
 21234 0ebc B2000000 		.4byte	.LVL442
 21235 0ec0 0100     		.2byte	0x1
 21236 0ec2 50       		.byte	0x50
 21237 0ec3 B2000000 		.4byte	.LVL442
 21238 0ec7 C4000000 		.4byte	.LFE276
 21239 0ecb 0400     		.2byte	0x4
 21240 0ecd F3       		.byte	0xf3
 21241 0ece 01       		.uleb128 0x1
 21242 0ecf 50       		.byte	0x50
ARM GAS  C:\Users\mathi\AppData\Local\Temp\ccOm87JI.s 			page 374


 21243 0ed0 9F       		.byte	0x9f
 21244 0ed1 00000000 		.4byte	0
 21245 0ed5 00000000 		.4byte	0
 21246              	.LLST197:
 21247 0ed9 10000000 		.4byte	.LVL433
 21248 0edd 22000000 		.4byte	.LVL434
 21249 0ee1 0300     		.2byte	0x3
 21250 0ee3 70       		.byte	0x70
 21251 0ee4 D000     		.sleb128 80
 21252 0ee6 22000000 		.4byte	.LVL434
 21253 0eea 96000000 		.4byte	.LVL440
 21254 0eee 0100     		.2byte	0x1
 21255 0ef0 56       		.byte	0x56
 21256 0ef1 A4000000 		.4byte	.LVL441
 21257 0ef5 B2000000 		.4byte	.LVL442
 21258 0ef9 0100     		.2byte	0x1
 21259 0efb 56       		.byte	0x56
 21260 0efc 00000000 		.4byte	0
 21261 0f00 00000000 		.4byte	0
 21262              	.LLST198:
 21263 0f04 22000000 		.4byte	.LVL434
 21264 0f08 7A000000 		.4byte	.LVL437
 21265 0f0c 0100     		.2byte	0x1
 21266 0f0e 55       		.byte	0x55
 21267 0f0f A4000000 		.4byte	.LVL441
 21268 0f13 B2000000 		.4byte	.LVL442
 21269 0f17 0100     		.2byte	0x1
 21270 0f19 55       		.byte	0x55
 21271 0f1a 00000000 		.4byte	0
 21272 0f1e 00000000 		.4byte	0
 21273              	.LLST185:
 21274 0f22 00000000 		.4byte	.LVL404
 21275 0f26 12000000 		.4byte	.LVL406
 21276 0f2a 0100     		.2byte	0x1
 21277 0f2c 50       		.byte	0x50
 21278 0f2d 12000000 		.4byte	.LVL406
 21279 0f31 22000000 		.4byte	.LVL407
 21280 0f35 0400     		.2byte	0x4
 21281 0f37 F3       		.byte	0xf3
 21282 0f38 01       		.uleb128 0x1
 21283 0f39 50       		.byte	0x50
 21284 0f3a 9F       		.byte	0x9f
 21285 0f3b 22000000 		.4byte	.LVL407
 21286 0f3f 2C000000 		.4byte	.LVL408
 21287 0f43 0100     		.2byte	0x1
 21288 0f45 50       		.byte	0x50
 21289 0f46 2C000000 		.4byte	.LVL408
 21290 0f4a 10010000 		.4byte	.LVL419
 21291 0f4e 0100     		.2byte	0x1
 21292 0f50 54       		.byte	0x54
 21293 0f51 10010000 		.4byte	.LVL419
 21294 0f55 26010000 		.4byte	.LVL421
 21295 0f59 0100     		.2byte	0x1
 21296 0f5b 50       		.byte	0x50
 21297 0f5c 26010000 		.4byte	.LVL421
 21298 0f60 60010000 		.4byte	.LVL430
 21299 0f64 0100     		.2byte	0x1
ARM GAS  C:\Users\mathi\AppData\Local\Temp\ccOm87JI.s 			page 375


 21300 0f66 54       		.byte	0x54
 21301 0f67 60010000 		.4byte	.LVL430
 21302 0f6b 80010000 		.4byte	.LFE275
 21303 0f6f 0400     		.2byte	0x4
 21304 0f71 F3       		.byte	0xf3
 21305 0f72 01       		.uleb128 0x1
 21306 0f73 50       		.byte	0x50
 21307 0f74 9F       		.byte	0x9f
 21308 0f75 00000000 		.4byte	0
 21309 0f79 00000000 		.4byte	0
 21310              	.LLST186:
 21311 0f7d 10000000 		.4byte	.LVL405
 21312 0f81 12000000 		.4byte	.LVL406
 21313 0f85 0300     		.2byte	0x3
 21314 0f87 70       		.byte	0x70
 21315 0f88 D000     		.sleb128 80
 21316 0f8a 22000000 		.4byte	.LVL407
 21317 0f8e 2C000000 		.4byte	.LVL408
 21318 0f92 0300     		.2byte	0x3
 21319 0f94 70       		.byte	0x70
 21320 0f95 D000     		.sleb128 80
 21321 0f97 10010000 		.4byte	.LVL419
 21322 0f9b 1A010000 		.4byte	.LVL420
 21323 0f9f 0300     		.2byte	0x3
 21324 0fa1 70       		.byte	0x70
 21325 0fa2 D000     		.sleb128 80
 21326 0fa4 00000000 		.4byte	0
 21327 0fa8 00000000 		.4byte	0
 21328              	.LLST187:
 21329 0fac 46000000 		.4byte	.LVL409
 21330 0fb0 10010000 		.4byte	.LVL419
 21331 0fb4 0100     		.2byte	0x1
 21332 0fb6 54       		.byte	0x54
 21333 0fb7 30010000 		.4byte	.LVL423
 21334 0fbb 60010000 		.4byte	.LVL430
 21335 0fbf 0100     		.2byte	0x1
 21336 0fc1 54       		.byte	0x54
 21337 0fc2 00000000 		.4byte	0
 21338 0fc6 00000000 		.4byte	0
 21339              	.LLST188:
 21340 0fca 46000000 		.4byte	.LVL409
 21341 0fce 62000000 		.4byte	.LVL413
 21342 0fd2 0100     		.2byte	0x1
 21343 0fd4 57       		.byte	0x57
 21344 0fd5 00000000 		.4byte	0
 21345 0fd9 00000000 		.4byte	0
 21346              	.LLST189:
 21347 0fdd 46000000 		.4byte	.LVL409
 21348 0fe1 4C000000 		.4byte	.LVL410
 21349 0fe5 0300     		.2byte	0x3
 21350 0fe7 08       		.byte	0x8
 21351 0fe8 20       		.byte	0x20
 21352 0fe9 9F       		.byte	0x9f
 21353 0fea 00000000 		.4byte	0
 21354 0fee 00000000 		.4byte	0
 21355              	.LLST190:
 21356 0ff2 56000000 		.4byte	.LVL411
ARM GAS  C:\Users\mathi\AppData\Local\Temp\ccOm87JI.s 			page 376


 21357 0ff6 10010000 		.4byte	.LVL419
 21358 0ffa 0200     		.2byte	0x2
 21359 0ffc 3C       		.byte	0x3c
 21360 0ffd 9F       		.byte	0x9f
 21361 0ffe 30010000 		.4byte	.LVL423
 21362 1002 60010000 		.4byte	.LVL430
 21363 1006 0200     		.2byte	0x2
 21364 1008 3C       		.byte	0x3c
 21365 1009 9F       		.byte	0x9f
 21366 100a 00000000 		.4byte	0
 21367 100e 00000000 		.4byte	0
 21368              	.LLST191:
 21369 1012 6A000000 		.4byte	.LVL414
 21370 1016 10010000 		.4byte	.LVL419
 21371 101a 0100     		.2byte	0x1
 21372 101c 54       		.byte	0x54
 21373 101d 30010000 		.4byte	.LVL423
 21374 1021 60010000 		.4byte	.LVL430
 21375 1025 0100     		.2byte	0x1
 21376 1027 54       		.byte	0x54
 21377 1028 00000000 		.4byte	0
 21378 102c 00000000 		.4byte	0
 21379              	.LLST193:
 21380 1030 6A000000 		.4byte	.LVL414
 21381 1034 DC000000 		.4byte	.LVL418
 21382 1038 0100     		.2byte	0x1
 21383 103a 5C       		.byte	0x5c
 21384 103b 00000000 		.4byte	0
 21385 103f 00000000 		.4byte	0
 21386              	.LLST194:
 21387 1043 6A000000 		.4byte	.LVL414
 21388 1047 76000000 		.4byte	.LVL415
 21389 104b 0200     		.2byte	0x2
 21390 104d 30       		.byte	0x30
 21391 104e 9F       		.byte	0x9f
 21392 104f 76000000 		.4byte	.LVL415
 21393 1053 DC000000 		.4byte	.LVL418
 21394 1057 0100     		.2byte	0x1
 21395 1059 50       		.byte	0x50
 21396 105a 00000000 		.4byte	0
 21397 105e 00000000 		.4byte	0
 21398              	.LLST195:
 21399 1062 44010000 		.4byte	.LVL425
 21400 1066 50010000 		.4byte	.LVL426
 21401 106a 0100     		.2byte	0x1
 21402 106c 50       		.byte	0x50
 21403 106d 50010000 		.4byte	.LVL426
 21404 1071 5A010000 		.4byte	.LVL428
 21405 1075 0100     		.2byte	0x1
 21406 1077 57       		.byte	0x57
 21407 1078 00000000 		.4byte	0
 21408 107c 00000000 		.4byte	0
 21409              	.LLST57:
 21410 1080 16000000 		.4byte	.LVL148
 21411 1084 76000000 		.4byte	.LVL155
 21412 1088 0600     		.2byte	0x6
 21413 108a 03       		.byte	0x3
ARM GAS  C:\Users\mathi\AppData\Local\Temp\ccOm87JI.s 			page 377


 21414 108b 00000000 		.4byte	USBD1
 21415 108f 9F       		.byte	0x9f
 21416 1090 8E000000 		.4byte	.LVL157
 21417 1094 66070000 		.4byte	.LVL397
 21418 1098 0600     		.2byte	0x6
 21419 109a 03       		.byte	0x3
 21420 109b 00000000 		.4byte	USBD1
 21421 109f 9F       		.byte	0x9f
 21422 10a0 00000000 		.4byte	0
 21423 10a4 00000000 		.4byte	0
 21424              	.LLST58:
 21425 10a8 18000000 		.4byte	.LVL149
 21426 10ac 44000000 		.4byte	.LVL153
 21427 10b0 0100     		.2byte	0x1
 21428 10b2 55       		.byte	0x55
 21429 10b3 8E000000 		.4byte	.LVL157
 21430 10b7 D2000000 		.4byte	.LVL168
 21431 10bb 0100     		.2byte	0x1
 21432 10bd 55       		.byte	0x55
 21433 10be 00000000 		.4byte	0
 21434 10c2 00000000 		.4byte	0
 21435              	.LLST59:
 21436 10c6 1A000000 		.4byte	.LVL150
 21437 10ca 64000000 		.4byte	.LVL154
 21438 10ce 0100     		.2byte	0x1
 21439 10d0 54       		.byte	0x54
 21440 10d1 8E000000 		.4byte	.LVL157
 21441 10d5 D2000000 		.4byte	.LVL168
 21442 10d9 0100     		.2byte	0x1
 21443 10db 54       		.byte	0x54
 21444 10dc 16020000 		.4byte	.LVL200
 21445 10e0 34040000 		.4byte	.LVL260
 21446 10e4 0100     		.2byte	0x1
 21447 10e6 54       		.byte	0x54
 21448 10e7 8E050000 		.4byte	.LVL327
 21449 10eb 30070000 		.4byte	.LVL387
 21450 10ef 0100     		.2byte	0x1
 21451 10f1 54       		.byte	0x54
 21452 10f2 36070000 		.4byte	.LVL389
 21453 10f6 66070000 		.4byte	.LVL397
 21454 10fa 0100     		.2byte	0x1
 21455 10fc 54       		.byte	0x54
 21456 10fd 00000000 		.4byte	0
 21457 1101 00000000 		.4byte	0
 21458              	.LLST60:
 21459 1105 44000000 		.4byte	.LVL153
 21460 1109 76000000 		.4byte	.LVL155
 21461 110d 0100     		.2byte	0x1
 21462 110f 55       		.byte	0x55
 21463 1110 D2000000 		.4byte	.LVL168
 21464 1114 D8000000 		.4byte	.LVL170
 21465 1118 0100     		.2byte	0x1
 21466 111a 55       		.byte	0x55
 21467 111b 1E010000 		.4byte	.LVL176
 21468 111f 3A050000 		.4byte	.LVL310
 21469 1123 0100     		.2byte	0x1
 21470 1125 55       		.byte	0x55
ARM GAS  C:\Users\mathi\AppData\Local\Temp\ccOm87JI.s 			page 378


 21471 1126 8E050000 		.4byte	.LVL327
 21472 112a 66070000 		.4byte	.LVL397
 21473 112e 0100     		.2byte	0x1
 21474 1130 55       		.byte	0x55
 21475 1131 00000000 		.4byte	0
 21476 1135 00000000 		.4byte	0
 21477              	.LLST61:
 21478 1139 8E000000 		.4byte	.LVL157
 21479 113d 94000000 		.4byte	.LVL158
 21480 1141 0300     		.2byte	0x3
 21481 1143 08       		.byte	0x8
 21482 1144 20       		.byte	0x20
 21483 1145 9F       		.byte	0x9f
 21484 1146 00000000 		.4byte	0
 21485 114a 00000000 		.4byte	0
 21486              	.LLST62:
 21487 114e A6000000 		.4byte	.LVL161
 21488 1152 AC000000 		.4byte	.LVL162
 21489 1156 0200     		.2byte	0x2
 21490 1158 30       		.byte	0x30
 21491 1159 9F       		.byte	0x9f
 21492 115a 00000000 		.4byte	0
 21493 115e 00000000 		.4byte	0
 21494              	.LLST63:
 21495 1162 A6000000 		.4byte	.LVL161
 21496 1166 AC000000 		.4byte	.LVL162
 21497 116a 0600     		.2byte	0x6
 21498 116c 03       		.byte	0x3
 21499 116d 60000000 		.4byte	USBD1+96
 21500 1171 9F       		.byte	0x9f
 21501 1172 00000000 		.4byte	0
 21502 1176 00000000 		.4byte	0
 21503              	.LLST64:
 21504 117a B4000000 		.4byte	.LVL164
 21505 117e BA000000 		.4byte	.LVL165
 21506 1182 0200     		.2byte	0x2
 21507 1184 30       		.byte	0x30
 21508 1185 9F       		.byte	0x9f
 21509 1186 00000000 		.4byte	0
 21510 118a 00000000 		.4byte	0
 21511              	.LLST65:
 21512 118e D2000000 		.4byte	.LVL168
 21513 1192 1E010000 		.4byte	.LVL176
 21514 1196 0600     		.2byte	0x6
 21515 1198 03       		.byte	0x3
 21516 1199 00000000 		.4byte	USBD1
 21517 119d 9F       		.byte	0x9f
 21518 119e 3A050000 		.4byte	.LVL310
 21519 11a2 8E050000 		.4byte	.LVL327
 21520 11a6 0600     		.2byte	0x6
 21521 11a8 03       		.byte	0x3
 21522 11a9 00000000 		.4byte	USBD1
 21523 11ad 9F       		.byte	0x9f
 21524 11ae 00000000 		.4byte	0
 21525 11b2 00000000 		.4byte	0
 21526              	.LLST66:
 21527 11b6 D2000000 		.4byte	.LVL168
ARM GAS  C:\Users\mathi\AppData\Local\Temp\ccOm87JI.s 			page 379


 21528 11ba 1E010000 		.4byte	.LVL176
 21529 11be 0200     		.2byte	0x2
 21530 11c0 33       		.byte	0x33
 21531 11c1 9F       		.byte	0x9f
 21532 11c2 3A050000 		.4byte	.LVL310
 21533 11c6 8E050000 		.4byte	.LVL327
 21534 11ca 0200     		.2byte	0x2
 21535 11cc 33       		.byte	0x33
 21536 11cd 9F       		.byte	0x9f
 21537 11ce 00000000 		.4byte	0
 21538 11d2 00000000 		.4byte	0
 21539              	.LLST67:
 21540 11d6 D4000000 		.4byte	.LVL169
 21541 11da 1E010000 		.4byte	.LVL176
 21542 11de 0100     		.2byte	0x1
 21543 11e0 54       		.byte	0x54
 21544 11e1 3A050000 		.4byte	.LVL310
 21545 11e5 3E050000 		.4byte	.LVL311
 21546 11e9 0100     		.2byte	0x1
 21547 11eb 54       		.byte	0x54
 21548 11ec 00000000 		.4byte	0
 21549 11f0 00000000 		.4byte	0
 21550              	.LLST68:
 21551 11f4 D8000000 		.4byte	.LVL170
 21552 11f8 1E010000 		.4byte	.LVL176
 21553 11fc 0100     		.2byte	0x1
 21554 11fe 55       		.byte	0x55
 21555 11ff 3A050000 		.4byte	.LVL310
 21556 1203 8E050000 		.4byte	.LVL327
 21557 1207 0100     		.2byte	0x1
 21558 1209 55       		.byte	0x55
 21559 120a 00000000 		.4byte	0
 21560 120e 00000000 		.4byte	0
 21561              	.LLST69:
 21562 1212 02010000 		.4byte	.LVL172
 21563 1216 0E010000 		.4byte	.LVL173
 21564 121a 0100     		.2byte	0x1
 21565 121c 53       		.byte	0x53
 21566 121d 0E010000 		.4byte	.LVL173
 21567 1221 10010000 		.4byte	.LVL174
 21568 1225 0200     		.2byte	0x2
 21569 1227 72       		.byte	0x72
 21570 1228 18       		.sleb128 24
 21571 1229 10010000 		.4byte	.LVL174
 21572 122d 1B010000 		.4byte	.LVL175-1
 21573 1231 0500     		.2byte	0x5
 21574 1233 76       		.byte	0x76
 21575 1234 18       		.sleb128 24
 21576 1235 06       		.byte	0x6
 21577 1236 23       		.byte	0x23
 21578 1237 18       		.uleb128 0x18
 21579 1238 3A050000 		.4byte	.LVL310
 21580 123c 44050000 		.4byte	.LVL313
 21581 1240 0100     		.2byte	0x1
 21582 1242 53       		.byte	0x53
 21583 1243 00000000 		.4byte	0
 21584 1247 00000000 		.4byte	0
ARM GAS  C:\Users\mathi\AppData\Local\Temp\ccOm87JI.s 			page 380


 21585              	.LLST70:
 21586 124b 42050000 		.4byte	.LVL312
 21587 124f 64050000 		.4byte	.LVL319
 21588 1253 0200     		.2byte	0x2
 21589 1255 33       		.byte	0x33
 21590 1256 9F       		.byte	0x9f
 21591 1257 00000000 		.4byte	0
 21592 125b 00000000 		.4byte	0
 21593              	.LLST71:
 21594 125f 42050000 		.4byte	.LVL312
 21595 1263 64050000 		.4byte	.LVL319
 21596 1267 0600     		.2byte	0x6
 21597 1269 03       		.byte	0x3
 21598 126a 00000000 		.4byte	USBD1
 21599 126e 9F       		.byte	0x9f
 21600 126f 00000000 		.4byte	0
 21601 1273 00000000 		.4byte	0
 21602              	.LLST72:
 21603 1277 50050000 		.4byte	.LVL316
 21604 127b 56050000 		.4byte	.LVL317
 21605 127f 1100     		.2byte	0x11
 21606 1281 70       		.byte	0x70
 21607 1282 00       		.sleb128 0
 21608 1283 73       		.byte	0x73
 21609 1284 00       		.sleb128 0
 21610 1285 22       		.byte	0x22
 21611 1286 31       		.byte	0x31
 21612 1287 1C       		.byte	0x1c
 21613 1288 F7       		.byte	0xf7
 21614 1289 25       		.uleb128 0x25
 21615 128a 70       		.byte	0x70
 21616 128b 00       		.sleb128 0
 21617 128c F7       		.byte	0xf7
 21618 128d 25       		.uleb128 0x25
 21619 128e 1B       		.byte	0x1b
 21620 128f F7       		.byte	0xf7
 21621 1290 00       		.uleb128 0
 21622 1291 9F       		.byte	0x9f
 21623 1292 5C050000 		.4byte	.LVL318
 21624 1296 64050000 		.4byte	.LVL319
 21625 129a 0100     		.2byte	0x1
 21626 129c 52       		.byte	0x52
 21627 129d 00000000 		.4byte	0
 21628 12a1 00000000 		.4byte	0
 21629              	.LLST73:
 21630 12a5 46050000 		.4byte	.LVL314
 21631 12a9 4C050000 		.4byte	.LVL315
 21632 12ad 0100     		.2byte	0x1
 21633 12af 52       		.byte	0x52
 21634 12b0 00000000 		.4byte	0
 21635 12b4 00000000 		.4byte	0
 21636              	.LLST74:
 21637 12b8 64050000 		.4byte	.LVL319
 21638 12bc 6A050000 		.4byte	.LVL320
 21639 12c0 0300     		.2byte	0x3
 21640 12c2 08       		.byte	0x8
 21641 12c3 20       		.byte	0x20
ARM GAS  C:\Users\mathi\AppData\Local\Temp\ccOm87JI.s 			page 381


 21642 12c4 9F       		.byte	0x9f
 21643 12c5 00000000 		.4byte	0
 21644 12c9 00000000 		.4byte	0
 21645              	.LLST75:
 21646 12cd 72050000 		.4byte	.LVL322
 21647 12d1 80050000 		.4byte	.LVL323
 21648 12d5 0200     		.2byte	0x2
 21649 12d7 33       		.byte	0x33
 21650 12d8 9F       		.byte	0x9f
 21651 12d9 00000000 		.4byte	0
 21652 12dd 00000000 		.4byte	0
 21653              	.LLST76:
 21654 12e1 72050000 		.4byte	.LVL322
 21655 12e5 80050000 		.4byte	.LVL323
 21656 12e9 0600     		.2byte	0x6
 21657 12eb 03       		.byte	0x3
 21658 12ec 00000000 		.4byte	USBD1
 21659 12f0 9F       		.byte	0x9f
 21660 12f1 00000000 		.4byte	0
 21661 12f5 00000000 		.4byte	0
 21662              	.LLST77:
 21663 12f9 88050000 		.4byte	.LVL325
 21664 12fd 8C050000 		.4byte	.LVL326
 21665 1301 0200     		.2byte	0x2
 21666 1303 30       		.byte	0x30
 21667 1304 9F       		.byte	0x9f
 21668 1305 00000000 		.4byte	0
 21669 1309 00000000 		.4byte	0
 21670              	.LLST78:
 21671 130d 1E010000 		.4byte	.LVL176
 21672 1311 6E010000 		.4byte	.LVL184
 21673 1315 0600     		.2byte	0x6
 21674 1317 03       		.byte	0x3
 21675 1318 00000000 		.4byte	USBD1
 21676 131c 9F       		.byte	0x9f
 21677 131d DC040000 		.4byte	.LVL294
 21678 1321 3A050000 		.4byte	.LVL310
 21679 1325 0600     		.2byte	0x6
 21680 1327 03       		.byte	0x3
 21681 1328 00000000 		.4byte	USBD1
 21682 132c 9F       		.byte	0x9f
 21683 132d 30070000 		.4byte	.LVL387
 21684 1331 36070000 		.4byte	.LVL389
 21685 1335 0600     		.2byte	0x6
 21686 1337 03       		.byte	0x3
 21687 1338 00000000 		.4byte	USBD1
 21688 133c 9F       		.byte	0x9f
 21689 133d 00000000 		.4byte	0
 21690 1341 00000000 		.4byte	0
 21691              	.LLST79:
 21692 1345 1E010000 		.4byte	.LVL176
 21693 1349 6E010000 		.4byte	.LVL184
 21694 134d 0200     		.2byte	0x2
 21695 134f 30       		.byte	0x30
 21696 1350 9F       		.byte	0x9f
 21697 1351 DC040000 		.4byte	.LVL294
 21698 1355 3A050000 		.4byte	.LVL310
ARM GAS  C:\Users\mathi\AppData\Local\Temp\ccOm87JI.s 			page 382


 21699 1359 0200     		.2byte	0x2
 21700 135b 30       		.byte	0x30
 21701 135c 9F       		.byte	0x9f
 21702 135d 30070000 		.4byte	.LVL387
 21703 1361 36070000 		.4byte	.LVL389
 21704 1365 0200     		.2byte	0x2
 21705 1367 30       		.byte	0x30
 21706 1368 9F       		.byte	0x9f
 21707 1369 00000000 		.4byte	0
 21708 136d 00000000 		.4byte	0
 21709              	.LLST80:
 21710 1371 20010000 		.4byte	.LVL177
 21711 1375 6E010000 		.4byte	.LVL184
 21712 1379 0100     		.2byte	0x1
 21713 137b 54       		.byte	0x54
 21714 137c DC040000 		.4byte	.LVL294
 21715 1380 3A050000 		.4byte	.LVL310
 21716 1384 0100     		.2byte	0x1
 21717 1386 54       		.byte	0x54
 21718 1387 30070000 		.4byte	.LVL387
 21719 138b 36070000 		.4byte	.LVL389
 21720 138f 0100     		.2byte	0x1
 21721 1391 54       		.byte	0x54
 21722 1392 00000000 		.4byte	0
 21723 1396 00000000 		.4byte	0
 21724              	.LLST81:
 21725 139a 24010000 		.4byte	.LVL178
 21726 139e 6E010000 		.4byte	.LVL184
 21727 13a2 0100     		.2byte	0x1
 21728 13a4 58       		.byte	0x58
 21729 13a5 DC040000 		.4byte	.LVL294
 21730 13a9 3A050000 		.4byte	.LVL310
 21731 13ad 0100     		.2byte	0x1
 21732 13af 58       		.byte	0x58
 21733 13b0 30070000 		.4byte	.LVL387
 21734 13b4 36070000 		.4byte	.LVL389
 21735 13b8 0100     		.2byte	0x1
 21736 13ba 58       		.byte	0x58
 21737 13bb 00000000 		.4byte	0
 21738 13bf 00000000 		.4byte	0
 21739              	.LLST82:
 21740 13c3 52010000 		.4byte	.LVL180
 21741 13c7 5E010000 		.4byte	.LVL181
 21742 13cb 0100     		.2byte	0x1
 21743 13cd 53       		.byte	0x53
 21744 13ce 5E010000 		.4byte	.LVL181
 21745 13d2 60010000 		.4byte	.LVL182
 21746 13d6 0200     		.2byte	0x2
 21747 13d8 72       		.byte	0x72
 21748 13d9 18       		.sleb128 24
 21749 13da 60010000 		.4byte	.LVL182
 21750 13de 6B010000 		.4byte	.LVL183-1
 21751 13e2 0500     		.2byte	0x5
 21752 13e4 76       		.byte	0x76
 21753 13e5 0C       		.sleb128 12
 21754 13e6 06       		.byte	0x6
 21755 13e7 23       		.byte	0x23
ARM GAS  C:\Users\mathi\AppData\Local\Temp\ccOm87JI.s 			page 383


 21756 13e8 18       		.uleb128 0x18
 21757 13e9 DC040000 		.4byte	.LVL294
 21758 13ed EA040000 		.4byte	.LVL297
 21759 13f1 0100     		.2byte	0x1
 21760 13f3 53       		.byte	0x53
 21761 13f4 00000000 		.4byte	0
 21762 13f8 00000000 		.4byte	0
 21763              	.LLST83:
 21764 13fc E4040000 		.4byte	.LVL295
 21765 1400 0E050000 		.4byte	.LVL302
 21766 1404 0200     		.2byte	0x2
 21767 1406 30       		.byte	0x30
 21768 1407 9F       		.byte	0x9f
 21769 1408 30070000 		.4byte	.LVL387
 21770 140c 36070000 		.4byte	.LVL389
 21771 1410 0200     		.2byte	0x2
 21772 1412 30       		.byte	0x30
 21773 1413 9F       		.byte	0x9f
 21774 1414 00000000 		.4byte	0
 21775 1418 00000000 		.4byte	0
 21776              	.LLST84:
 21777 141c E4040000 		.4byte	.LVL295
 21778 1420 0E050000 		.4byte	.LVL302
 21779 1424 0600     		.2byte	0x6
 21780 1426 03       		.byte	0x3
 21781 1427 00000000 		.4byte	USBD1
 21782 142b 9F       		.byte	0x9f
 21783 142c 30070000 		.4byte	.LVL387
 21784 1430 36070000 		.4byte	.LVL389
 21785 1434 0600     		.2byte	0x6
 21786 1436 03       		.byte	0x3
 21787 1437 00000000 		.4byte	USBD1
 21788 143b 9F       		.byte	0x9f
 21789 143c 00000000 		.4byte	0
 21790 1440 00000000 		.4byte	0
 21791              	.LLST85:
 21792 1444 FC040000 		.4byte	.LVL299
 21793 1448 00050000 		.4byte	.LVL300
 21794 144c 1100     		.2byte	0x11
 21795 144e 70       		.byte	0x70
 21796 144f 00       		.sleb128 0
 21797 1450 73       		.byte	0x73
 21798 1451 00       		.sleb128 0
 21799 1452 22       		.byte	0x22
 21800 1453 31       		.byte	0x31
 21801 1454 1C       		.byte	0x1c
 21802 1455 F7       		.byte	0xf7
 21803 1456 25       		.uleb128 0x25
 21804 1457 70       		.byte	0x70
 21805 1458 00       		.sleb128 0
 21806 1459 F7       		.byte	0xf7
 21807 145a 25       		.uleb128 0x25
 21808 145b 1B       		.byte	0x1b
 21809 145c F7       		.byte	0xf7
 21810 145d 00       		.uleb128 0
 21811 145e 9F       		.byte	0x9f
 21812 145f 00050000 		.4byte	.LVL300
ARM GAS  C:\Users\mathi\AppData\Local\Temp\ccOm87JI.s 			page 384


 21813 1463 02050000 		.4byte	.LVL301
 21814 1467 0F00     		.2byte	0xf
 21815 1469 70       		.byte	0x70
 21816 146a 00       		.sleb128 0
 21817 146b 73       		.byte	0x73
 21818 146c 00       		.sleb128 0
 21819 146d 22       		.byte	0x22
 21820 146e F7       		.byte	0xf7
 21821 146f 25       		.uleb128 0x25
 21822 1470 70       		.byte	0x70
 21823 1471 00       		.sleb128 0
 21824 1472 F7       		.byte	0xf7
 21825 1473 25       		.uleb128 0x25
 21826 1474 1B       		.byte	0x1b
 21827 1475 F7       		.byte	0xf7
 21828 1476 00       		.uleb128 0
 21829 1477 9F       		.byte	0x9f
 21830 1478 00000000 		.4byte	0
 21831 147c 00000000 		.4byte	0
 21832              	.LLST86:
 21833 1480 E8040000 		.4byte	.LVL296
 21834 1484 FA040000 		.4byte	.LVL298
 21835 1488 0100     		.2byte	0x1
 21836 148a 51       		.byte	0x51
 21837 148b 30070000 		.4byte	.LVL387
 21838 148f 34070000 		.4byte	.LVL388
 21839 1493 0100     		.2byte	0x1
 21840 1495 51       		.byte	0x51
 21841 1496 00000000 		.4byte	0
 21842 149a 00000000 		.4byte	0
 21843              	.LLST87:
 21844 149e 0E050000 		.4byte	.LVL302
 21845 14a2 14050000 		.4byte	.LVL303
 21846 14a6 0300     		.2byte	0x3
 21847 14a8 08       		.byte	0x8
 21848 14a9 20       		.byte	0x20
 21849 14aa 9F       		.byte	0x9f
 21850 14ab 00000000 		.4byte	0
 21851 14af 00000000 		.4byte	0
 21852              	.LLST88:
 21853 14b3 1C050000 		.4byte	.LVL305
 21854 14b7 2A050000 		.4byte	.LVL306
 21855 14bb 0200     		.2byte	0x2
 21856 14bd 30       		.byte	0x30
 21857 14be 9F       		.byte	0x9f
 21858 14bf 00000000 		.4byte	0
 21859 14c3 00000000 		.4byte	0
 21860              	.LLST89:
 21861 14c7 1C050000 		.4byte	.LVL305
 21862 14cb 2A050000 		.4byte	.LVL306
 21863 14cf 0600     		.2byte	0x6
 21864 14d1 03       		.byte	0x3
 21865 14d2 00000000 		.4byte	USBD1
 21866 14d6 9F       		.byte	0x9f
 21867 14d7 00000000 		.4byte	0
 21868 14db 00000000 		.4byte	0
 21869              	.LLST90:
ARM GAS  C:\Users\mathi\AppData\Local\Temp\ccOm87JI.s 			page 385


 21870 14df 32050000 		.4byte	.LVL308
 21871 14e3 38050000 		.4byte	.LVL309
 21872 14e7 0200     		.2byte	0x2
 21873 14e9 30       		.byte	0x30
 21874 14ea 9F       		.byte	0x9f
 21875 14eb 00000000 		.4byte	0
 21876 14ef 00000000 		.4byte	0
 21877              	.LLST91:
 21878 14f3 6E010000 		.4byte	.LVL184
 21879 14f7 C2010000 		.4byte	.LVL192
 21880 14fb 0600     		.2byte	0x6
 21881 14fd 03       		.byte	0x3
 21882 14fe 00000000 		.4byte	USBD1
 21883 1502 9F       		.byte	0x9f
 21884 1503 88040000 		.4byte	.LVL277
 21885 1507 DC040000 		.4byte	.LVL294
 21886 150b 0600     		.2byte	0x6
 21887 150d 03       		.byte	0x3
 21888 150e 00000000 		.4byte	USBD1
 21889 1512 9F       		.byte	0x9f
 21890 1513 00000000 		.4byte	0
 21891 1517 00000000 		.4byte	0
 21892              	.LLST92:
 21893 151b 6E010000 		.4byte	.LVL184
 21894 151f C2010000 		.4byte	.LVL192
 21895 1523 0200     		.2byte	0x2
 21896 1525 31       		.byte	0x31
 21897 1526 9F       		.byte	0x9f
 21898 1527 88040000 		.4byte	.LVL277
 21899 152b DC040000 		.4byte	.LVL294
 21900 152f 0200     		.2byte	0x2
 21901 1531 31       		.byte	0x31
 21902 1532 9F       		.byte	0x9f
 21903 1533 00000000 		.4byte	0
 21904 1537 00000000 		.4byte	0
 21905              	.LLST93:
 21906 153b 70010000 		.4byte	.LVL185
 21907 153f C2010000 		.4byte	.LVL192
 21908 1543 0100     		.2byte	0x1
 21909 1545 54       		.byte	0x54
 21910 1546 88040000 		.4byte	.LVL277
 21911 154a 8C040000 		.4byte	.LVL278
 21912 154e 0100     		.2byte	0x1
 21913 1550 54       		.byte	0x54
 21914 1551 00000000 		.4byte	0
 21915 1555 00000000 		.4byte	0
 21916              	.LLST94:
 21917 1559 74010000 		.4byte	.LVL186
 21918 155d C2010000 		.4byte	.LVL192
 21919 1561 0100     		.2byte	0x1
 21920 1563 58       		.byte	0x58
 21921 1564 88040000 		.4byte	.LVL277
 21922 1568 DC040000 		.4byte	.LVL294
 21923 156c 0100     		.2byte	0x1
 21924 156e 58       		.byte	0x58
 21925 156f 00000000 		.4byte	0
 21926 1573 00000000 		.4byte	0
ARM GAS  C:\Users\mathi\AppData\Local\Temp\ccOm87JI.s 			page 386


 21927              	.LLST95:
 21928 1577 A6010000 		.4byte	.LVL188
 21929 157b B2010000 		.4byte	.LVL189
 21930 157f 0100     		.2byte	0x1
 21931 1581 53       		.byte	0x53
 21932 1582 B2010000 		.4byte	.LVL189
 21933 1586 B4010000 		.4byte	.LVL190
 21934 158a 0200     		.2byte	0x2
 21935 158c 72       		.byte	0x72
 21936 158d 18       		.sleb128 24
 21937 158e B4010000 		.4byte	.LVL190
 21938 1592 BF010000 		.4byte	.LVL191-1
 21939 1596 0500     		.2byte	0x5
 21940 1598 76       		.byte	0x76
 21941 1599 10       		.sleb128 16
 21942 159a 06       		.byte	0x6
 21943 159b 23       		.byte	0x23
 21944 159c 18       		.uleb128 0x18
 21945 159d 88040000 		.4byte	.LVL277
 21946 15a1 92040000 		.4byte	.LVL280
 21947 15a5 0100     		.2byte	0x1
 21948 15a7 53       		.byte	0x53
 21949 15a8 00000000 		.4byte	0
 21950 15ac 00000000 		.4byte	0
 21951              	.LLST96:
 21952 15b0 90040000 		.4byte	.LVL279
 21953 15b4 B2040000 		.4byte	.LVL286
 21954 15b8 0200     		.2byte	0x2
 21955 15ba 31       		.byte	0x31
 21956 15bb 9F       		.byte	0x9f
 21957 15bc 00000000 		.4byte	0
 21958 15c0 00000000 		.4byte	0
 21959              	.LLST97:
 21960 15c4 90040000 		.4byte	.LVL279
 21961 15c8 B2040000 		.4byte	.LVL286
 21962 15cc 0600     		.2byte	0x6
 21963 15ce 03       		.byte	0x3
 21964 15cf 00000000 		.4byte	USBD1
 21965 15d3 9F       		.byte	0x9f
 21966 15d4 00000000 		.4byte	0
 21967 15d8 00000000 		.4byte	0
 21968              	.LLST98:
 21969 15dc 9E040000 		.4byte	.LVL283
 21970 15e0 A4040000 		.4byte	.LVL284
 21971 15e4 1100     		.2byte	0x11
 21972 15e6 70       		.byte	0x70
 21973 15e7 00       		.sleb128 0
 21974 15e8 73       		.byte	0x73
 21975 15e9 00       		.sleb128 0
 21976 15ea 22       		.byte	0x22
 21977 15eb 31       		.byte	0x31
 21978 15ec 1C       		.byte	0x1c
 21979 15ed F7       		.byte	0xf7
 21980 15ee 25       		.uleb128 0x25
 21981 15ef 70       		.byte	0x70
 21982 15f0 00       		.sleb128 0
 21983 15f1 F7       		.byte	0xf7
ARM GAS  C:\Users\mathi\AppData\Local\Temp\ccOm87JI.s 			page 387


 21984 15f2 25       		.uleb128 0x25
 21985 15f3 1B       		.byte	0x1b
 21986 15f4 F7       		.byte	0xf7
 21987 15f5 00       		.uleb128 0
 21988 15f6 9F       		.byte	0x9f
 21989 15f7 AA040000 		.4byte	.LVL285
 21990 15fb B2040000 		.4byte	.LVL286
 21991 15ff 0100     		.2byte	0x1
 21992 1601 52       		.byte	0x52
 21993 1602 00000000 		.4byte	0
 21994 1606 00000000 		.4byte	0
 21995              	.LLST99:
 21996 160a 94040000 		.4byte	.LVL281
 21997 160e 9A040000 		.4byte	.LVL282
 21998 1612 0100     		.2byte	0x1
 21999 1614 52       		.byte	0x52
 22000 1615 00000000 		.4byte	0
 22001 1619 00000000 		.4byte	0
 22002              	.LLST100:
 22003 161d B2040000 		.4byte	.LVL286
 22004 1621 B8040000 		.4byte	.LVL287
 22005 1625 0300     		.2byte	0x3
 22006 1627 08       		.byte	0x8
 22007 1628 20       		.byte	0x20
 22008 1629 9F       		.byte	0x9f
 22009 162a 00000000 		.4byte	0
 22010 162e 00000000 		.4byte	0
 22011              	.LLST101:
 22012 1632 C0040000 		.4byte	.LVL289
 22013 1636 CE040000 		.4byte	.LVL290
 22014 163a 0200     		.2byte	0x2
 22015 163c 31       		.byte	0x31
 22016 163d 9F       		.byte	0x9f
 22017 163e 00000000 		.4byte	0
 22018 1642 00000000 		.4byte	0
 22019              	.LLST102:
 22020 1646 C0040000 		.4byte	.LVL289
 22021 164a CE040000 		.4byte	.LVL290
 22022 164e 0600     		.2byte	0x6
 22023 1650 03       		.byte	0x3
 22024 1651 00000000 		.4byte	USBD1
 22025 1655 9F       		.byte	0x9f
 22026 1656 00000000 		.4byte	0
 22027 165a 00000000 		.4byte	0
 22028              	.LLST103:
 22029 165e D6040000 		.4byte	.LVL292
 22030 1662 DA040000 		.4byte	.LVL293
 22031 1666 0200     		.2byte	0x2
 22032 1668 30       		.byte	0x30
 22033 1669 9F       		.byte	0x9f
 22034 166a 00000000 		.4byte	0
 22035 166e 00000000 		.4byte	0
 22036              	.LLST104:
 22037 1672 C2010000 		.4byte	.LVL192
 22038 1676 16020000 		.4byte	.LVL200
 22039 167a 0600     		.2byte	0x6
 22040 167c 03       		.byte	0x3
ARM GAS  C:\Users\mathi\AppData\Local\Temp\ccOm87JI.s 			page 388


 22041 167d 00000000 		.4byte	USBD1
 22042 1681 9F       		.byte	0x9f
 22043 1682 34040000 		.4byte	.LVL260
 22044 1686 88040000 		.4byte	.LVL277
 22045 168a 0600     		.2byte	0x6
 22046 168c 03       		.byte	0x3
 22047 168d 00000000 		.4byte	USBD1
 22048 1691 9F       		.byte	0x9f
 22049 1692 00000000 		.4byte	0
 22050 1696 00000000 		.4byte	0
 22051              	.LLST105:
 22052 169a C2010000 		.4byte	.LVL192
 22053 169e 16020000 		.4byte	.LVL200
 22054 16a2 0200     		.2byte	0x2
 22055 16a4 32       		.byte	0x32
 22056 16a5 9F       		.byte	0x9f
 22057 16a6 34040000 		.4byte	.LVL260
 22058 16aa 88040000 		.4byte	.LVL277
 22059 16ae 0200     		.2byte	0x2
 22060 16b0 32       		.byte	0x32
 22061 16b1 9F       		.byte	0x9f
 22062 16b2 00000000 		.4byte	0
 22063 16b6 00000000 		.4byte	0
 22064              	.LLST106:
 22065 16ba C4010000 		.4byte	.LVL193
 22066 16be 16020000 		.4byte	.LVL200
 22067 16c2 0100     		.2byte	0x1
 22068 16c4 54       		.byte	0x54
 22069 16c5 34040000 		.4byte	.LVL260
 22070 16c9 38040000 		.4byte	.LVL261
 22071 16cd 0100     		.2byte	0x1
 22072 16cf 54       		.byte	0x54
 22073 16d0 00000000 		.4byte	0
 22074 16d4 00000000 		.4byte	0
 22075              	.LLST107:
 22076 16d8 C8010000 		.4byte	.LVL194
 22077 16dc 16020000 		.4byte	.LVL200
 22078 16e0 0100     		.2byte	0x1
 22079 16e2 58       		.byte	0x58
 22080 16e3 34040000 		.4byte	.LVL260
 22081 16e7 88040000 		.4byte	.LVL277
 22082 16eb 0100     		.2byte	0x1
 22083 16ed 58       		.byte	0x58
 22084 16ee 00000000 		.4byte	0
 22085 16f2 00000000 		.4byte	0
 22086              	.LLST108:
 22087 16f6 FA010000 		.4byte	.LVL196
 22088 16fa 06020000 		.4byte	.LVL197
 22089 16fe 0100     		.2byte	0x1
 22090 1700 53       		.byte	0x53
 22091 1701 06020000 		.4byte	.LVL197
 22092 1705 08020000 		.4byte	.LVL198
 22093 1709 0200     		.2byte	0x2
 22094 170b 72       		.byte	0x72
 22095 170c 18       		.sleb128 24
 22096 170d 08020000 		.4byte	.LVL198
 22097 1711 13020000 		.4byte	.LVL199-1
ARM GAS  C:\Users\mathi\AppData\Local\Temp\ccOm87JI.s 			page 389


 22098 1715 0500     		.2byte	0x5
 22099 1717 76       		.byte	0x76
 22100 1718 14       		.sleb128 20
 22101 1719 06       		.byte	0x6
 22102 171a 23       		.byte	0x23
 22103 171b 18       		.uleb128 0x18
 22104 171c 34040000 		.4byte	.LVL260
 22105 1720 3E040000 		.4byte	.LVL263
 22106 1724 0100     		.2byte	0x1
 22107 1726 53       		.byte	0x53
 22108 1727 00000000 		.4byte	0
 22109 172b 00000000 		.4byte	0
 22110              	.LLST109:
 22111 172f 3C040000 		.4byte	.LVL262
 22112 1733 5E040000 		.4byte	.LVL269
 22113 1737 0200     		.2byte	0x2
 22114 1739 32       		.byte	0x32
 22115 173a 9F       		.byte	0x9f
 22116 173b 00000000 		.4byte	0
 22117 173f 00000000 		.4byte	0
 22118              	.LLST110:
 22119 1743 3C040000 		.4byte	.LVL262
 22120 1747 5E040000 		.4byte	.LVL269
 22121 174b 0600     		.2byte	0x6
 22122 174d 03       		.byte	0x3
 22123 174e 00000000 		.4byte	USBD1
 22124 1752 9F       		.byte	0x9f
 22125 1753 00000000 		.4byte	0
 22126 1757 00000000 		.4byte	0
 22127              	.LLST111:
 22128 175b 4A040000 		.4byte	.LVL266
 22129 175f 50040000 		.4byte	.LVL267
 22130 1763 1100     		.2byte	0x11
 22131 1765 70       		.byte	0x70
 22132 1766 00       		.sleb128 0
 22133 1767 73       		.byte	0x73
 22134 1768 00       		.sleb128 0
 22135 1769 22       		.byte	0x22
 22136 176a 31       		.byte	0x31
 22137 176b 1C       		.byte	0x1c
 22138 176c F7       		.byte	0xf7
 22139 176d 25       		.uleb128 0x25
 22140 176e 70       		.byte	0x70
 22141 176f 00       		.sleb128 0
 22142 1770 F7       		.byte	0xf7
 22143 1771 25       		.uleb128 0x25
 22144 1772 1B       		.byte	0x1b
 22145 1773 F7       		.byte	0xf7
 22146 1774 00       		.uleb128 0
 22147 1775 9F       		.byte	0x9f
 22148 1776 56040000 		.4byte	.LVL268
 22149 177a 5E040000 		.4byte	.LVL269
 22150 177e 0100     		.2byte	0x1
 22151 1780 52       		.byte	0x52
 22152 1781 00000000 		.4byte	0
 22153 1785 00000000 		.4byte	0
 22154              	.LLST112:
ARM GAS  C:\Users\mathi\AppData\Local\Temp\ccOm87JI.s 			page 390


 22155 1789 40040000 		.4byte	.LVL264
 22156 178d 46040000 		.4byte	.LVL265
 22157 1791 0100     		.2byte	0x1
 22158 1793 52       		.byte	0x52
 22159 1794 00000000 		.4byte	0
 22160 1798 00000000 		.4byte	0
 22161              	.LLST113:
 22162 179c 5E040000 		.4byte	.LVL269
 22163 17a0 64040000 		.4byte	.LVL270
 22164 17a4 0300     		.2byte	0x3
 22165 17a6 08       		.byte	0x8
 22166 17a7 20       		.byte	0x20
 22167 17a8 9F       		.byte	0x9f
 22168 17a9 00000000 		.4byte	0
 22169 17ad 00000000 		.4byte	0
 22170              	.LLST114:
 22171 17b1 6C040000 		.4byte	.LVL272
 22172 17b5 7A040000 		.4byte	.LVL273
 22173 17b9 0200     		.2byte	0x2
 22174 17bb 32       		.byte	0x32
 22175 17bc 9F       		.byte	0x9f
 22176 17bd 00000000 		.4byte	0
 22177 17c1 00000000 		.4byte	0
 22178              	.LLST115:
 22179 17c5 6C040000 		.4byte	.LVL272
 22180 17c9 7A040000 		.4byte	.LVL273
 22181 17cd 0600     		.2byte	0x6
 22182 17cf 03       		.byte	0x3
 22183 17d0 00000000 		.4byte	USBD1
 22184 17d4 9F       		.byte	0x9f
 22185 17d5 00000000 		.4byte	0
 22186 17d9 00000000 		.4byte	0
 22187              	.LLST116:
 22188 17dd 82040000 		.4byte	.LVL275
 22189 17e1 86040000 		.4byte	.LVL276
 22190 17e5 0200     		.2byte	0x2
 22191 17e7 30       		.byte	0x30
 22192 17e8 9F       		.byte	0x9f
 22193 17e9 00000000 		.4byte	0
 22194 17ed 00000000 		.4byte	0
 22195              	.LLST117:
 22196 17f1 16020000 		.4byte	.LVL200
 22197 17f5 A8020000 		.4byte	.LVL215
 22198 17f9 0600     		.2byte	0x6
 22199 17fb 03       		.byte	0x3
 22200 17fc 00000000 		.4byte	USBD1
 22201 1800 9F       		.byte	0x9f
 22202 1801 8E050000 		.4byte	.LVL327
 22203 1805 00060000 		.4byte	.LVL342
 22204 1809 0600     		.2byte	0x6
 22205 180b 03       		.byte	0x3
 22206 180c 00000000 		.4byte	USBD1
 22207 1810 9F       		.byte	0x9f
 22208 1811 36070000 		.4byte	.LVL389
 22209 1815 42070000 		.4byte	.LVL391
 22210 1819 0600     		.2byte	0x6
 22211 181b 03       		.byte	0x3
ARM GAS  C:\Users\mathi\AppData\Local\Temp\ccOm87JI.s 			page 391


 22212 181c 00000000 		.4byte	USBD1
 22213 1820 9F       		.byte	0x9f
 22214 1821 00000000 		.4byte	0
 22215 1825 00000000 		.4byte	0
 22216              	.LLST118:
 22217 1829 16020000 		.4byte	.LVL200
 22218 182d A8020000 		.4byte	.LVL215
 22219 1831 0200     		.2byte	0x2
 22220 1833 33       		.byte	0x33
 22221 1834 9F       		.byte	0x9f
 22222 1835 8E050000 		.4byte	.LVL327
 22223 1839 00060000 		.4byte	.LVL342
 22224 183d 0200     		.2byte	0x2
 22225 183f 33       		.byte	0x33
 22226 1840 9F       		.byte	0x9f
 22227 1841 36070000 		.4byte	.LVL389
 22228 1845 42070000 		.4byte	.LVL391
 22229 1849 0200     		.2byte	0x2
 22230 184b 33       		.byte	0x33
 22231 184c 9F       		.byte	0x9f
 22232 184d 00000000 		.4byte	0
 22233 1851 00000000 		.4byte	0
 22234              	.LLST119:
 22235 1855 1A020000 		.4byte	.LVL201
 22236 1859 A8020000 		.4byte	.LVL215
 22237 185d 0100     		.2byte	0x1
 22238 185f 58       		.byte	0x58
 22239 1860 8E050000 		.4byte	.LVL327
 22240 1864 00060000 		.4byte	.LVL342
 22241 1868 0100     		.2byte	0x1
 22242 186a 58       		.byte	0x58
 22243 186b 36070000 		.4byte	.LVL389
 22244 186f 42070000 		.4byte	.LVL391
 22245 1873 0100     		.2byte	0x1
 22246 1875 58       		.byte	0x58
 22247 1876 00000000 		.4byte	0
 22248 187a 00000000 		.4byte	0
 22249              	.LLST120:
 22250 187e 1E020000 		.4byte	.LVL202
 22251 1882 A8020000 		.4byte	.LVL215
 22252 1886 0100     		.2byte	0x1
 22253 1888 59       		.byte	0x59
 22254 1889 8E050000 		.4byte	.LVL327
 22255 188d 00060000 		.4byte	.LVL342
 22256 1891 0100     		.2byte	0x1
 22257 1893 59       		.byte	0x59
 22258 1894 36070000 		.4byte	.LVL389
 22259 1898 42070000 		.4byte	.LVL391
 22260 189c 0100     		.2byte	0x1
 22261 189e 59       		.byte	0x59
 22262 189f 00000000 		.4byte	0
 22263 18a3 00000000 		.4byte	0
 22264              	.LLST121:
 22265 18a7 34020000 		.4byte	.LVL203
 22266 18ab 40020000 		.4byte	.LVL204
 22267 18af 0100     		.2byte	0x1
 22268 18b1 53       		.byte	0x53
ARM GAS  C:\Users\mathi\AppData\Local\Temp\ccOm87JI.s 			page 392


 22269 18b2 40020000 		.4byte	.LVL204
 22270 18b6 4D020000 		.4byte	.LVL205-1
 22271 18ba 0200     		.2byte	0x2
 22272 18bc 72       		.byte	0x72
 22273 18bd 14       		.sleb128 20
 22274 18be 8E050000 		.4byte	.LVL327
 22275 18c2 98050000 		.4byte	.LVL329
 22276 18c6 0100     		.2byte	0x1
 22277 18c8 53       		.byte	0x53
 22278 18c9 00000000 		.4byte	0
 22279 18cd 00000000 		.4byte	0
 22280              	.LLST122:
 22281 18d1 96050000 		.4byte	.LVL328
 22282 18d5 BA050000 		.4byte	.LVL334
 22283 18d9 0200     		.2byte	0x2
 22284 18db 33       		.byte	0x33
 22285 18dc 9F       		.byte	0x9f
 22286 18dd 36070000 		.4byte	.LVL389
 22287 18e1 42070000 		.4byte	.LVL391
 22288 18e5 0200     		.2byte	0x2
 22289 18e7 33       		.byte	0x33
 22290 18e8 9F       		.byte	0x9f
 22291 18e9 00000000 		.4byte	0
 22292 18ed 00000000 		.4byte	0
 22293              	.LLST123:
 22294 18f1 96050000 		.4byte	.LVL328
 22295 18f5 BA050000 		.4byte	.LVL334
 22296 18f9 0600     		.2byte	0x6
 22297 18fb 03       		.byte	0x3
 22298 18fc 00000000 		.4byte	USBD1
 22299 1900 9F       		.byte	0x9f
 22300 1901 36070000 		.4byte	.LVL389
 22301 1905 42070000 		.4byte	.LVL391
 22302 1909 0600     		.2byte	0x6
 22303 190b 03       		.byte	0x3
 22304 190c 00000000 		.4byte	USBD1
 22305 1910 9F       		.byte	0x9f
 22306 1911 00000000 		.4byte	0
 22307 1915 00000000 		.4byte	0
 22308              	.LLST124:
 22309 1919 9A050000 		.4byte	.LVL330
 22310 191d A8050000 		.4byte	.LVL331
 22311 1921 0100     		.2byte	0x1
 22312 1923 53       		.byte	0x53
 22313 1924 36070000 		.4byte	.LVL389
 22314 1928 38070000 		.4byte	.LVL390
 22315 192c 0100     		.2byte	0x1
 22316 192e 53       		.byte	0x53
 22317 192f 00000000 		.4byte	0
 22318 1933 00000000 		.4byte	0
 22319              	.LLST125:
 22320 1937 AA050000 		.4byte	.LVL332
 22321 193b B2050000 		.4byte	.LVL333
 22322 193f 1100     		.2byte	0x11
 22323 1941 70       		.byte	0x70
 22324 1942 00       		.sleb128 0
 22325 1943 71       		.byte	0x71
ARM GAS  C:\Users\mathi\AppData\Local\Temp\ccOm87JI.s 			page 393


 22326 1944 00       		.sleb128 0
 22327 1945 22       		.byte	0x22
 22328 1946 31       		.byte	0x31
 22329 1947 1C       		.byte	0x1c
 22330 1948 F7       		.byte	0xf7
 22331 1949 25       		.uleb128 0x25
 22332 194a 70       		.byte	0x70
 22333 194b 00       		.sleb128 0
 22334 194c F7       		.byte	0xf7
 22335 194d 25       		.uleb128 0x25
 22336 194e 1B       		.byte	0x1b
 22337 194f F7       		.byte	0xf7
 22338 1950 00       		.uleb128 0
 22339 1951 9F       		.byte	0x9f
 22340 1952 B2050000 		.4byte	.LVL333
 22341 1956 BA050000 		.4byte	.LVL334
 22342 195a 0100     		.2byte	0x1
 22343 195c 52       		.byte	0x52
 22344 195d 00000000 		.4byte	0
 22345 1961 00000000 		.4byte	0
 22346              	.LLST126:
 22347 1965 BA050000 		.4byte	.LVL334
 22348 1969 C0050000 		.4byte	.LVL335
 22349 196d 0300     		.2byte	0x3
 22350 196f 08       		.byte	0x8
 22351 1970 20       		.byte	0x20
 22352 1971 9F       		.byte	0x9f
 22353 1972 00000000 		.4byte	0
 22354 1976 00000000 		.4byte	0
 22355              	.LLST127:
 22356 197a C8050000 		.4byte	.LVL337
 22357 197e E2050000 		.4byte	.LVL338
 22358 1982 0200     		.2byte	0x2
 22359 1984 33       		.byte	0x33
 22360 1985 9F       		.byte	0x9f
 22361 1986 00000000 		.4byte	0
 22362 198a 00000000 		.4byte	0
 22363              	.LLST128:
 22364 198e C8050000 		.4byte	.LVL337
 22365 1992 E2050000 		.4byte	.LVL338
 22366 1996 0600     		.2byte	0x6
 22367 1998 03       		.byte	0x3
 22368 1999 00000000 		.4byte	USBD1
 22369 199d 9F       		.byte	0x9f
 22370 199e 00000000 		.4byte	0
 22371 19a2 00000000 		.4byte	0
 22372              	.LLST129:
 22373 19a6 EA050000 		.4byte	.LVL340
 22374 19aa F0050000 		.4byte	.LVL341
 22375 19ae 0200     		.2byte	0x2
 22376 19b0 30       		.byte	0x30
 22377 19b1 9F       		.byte	0x9f
 22378 19b2 00000000 		.4byte	0
 22379 19b6 00000000 		.4byte	0
 22380              	.LLST130:
 22381 19ba 60020000 		.4byte	.LVL206
 22382 19be 66020000 		.4byte	.LVL207
ARM GAS  C:\Users\mathi\AppData\Local\Temp\ccOm87JI.s 			page 394


 22383 19c2 0300     		.2byte	0x3
 22384 19c4 08       		.byte	0x8
 22385 19c5 20       		.byte	0x20
 22386 19c6 9F       		.byte	0x9f
 22387 19c7 00000000 		.4byte	0
 22388 19cb 00000000 		.4byte	0
 22389              	.LLST131:
 22390 19cf 82020000 		.4byte	.LVL210
 22391 19d3 8A020000 		.4byte	.LVL211
 22392 19d7 0200     		.2byte	0x2
 22393 19d9 30       		.byte	0x30
 22394 19da 9F       		.byte	0x9f
 22395 19db 00000000 		.4byte	0
 22396 19df 00000000 		.4byte	0
 22397              	.LLST132:
 22398 19e3 82020000 		.4byte	.LVL210
 22399 19e7 8A020000 		.4byte	.LVL211
 22400 19eb 0600     		.2byte	0x6
 22401 19ed 03       		.byte	0x3
 22402 19ee 60000000 		.4byte	USBD1+96
 22403 19f2 9F       		.byte	0x9f
 22404 19f3 00000000 		.4byte	0
 22405 19f7 00000000 		.4byte	0
 22406              	.LLST133:
 22407 19fb 92020000 		.4byte	.LVL213
 22408 19ff 98020000 		.4byte	.LVL214
 22409 1a03 0200     		.2byte	0x2
 22410 1a05 30       		.byte	0x30
 22411 1a06 9F       		.byte	0x9f
 22412 1a07 00000000 		.4byte	0
 22413 1a0b 00000000 		.4byte	0
 22414              	.LLST134:
 22415 1a0f A8020000 		.4byte	.LVL215
 22416 1a13 2C030000 		.4byte	.LVL230
 22417 1a17 0600     		.2byte	0x6
 22418 1a19 03       		.byte	0x3
 22419 1a1a 00000000 		.4byte	USBD1
 22420 1a1e 9F       		.byte	0x9f
 22421 1a1f C6060000 		.4byte	.LVL372
 22422 1a23 30070000 		.4byte	.LVL387
 22423 1a27 0600     		.2byte	0x6
 22424 1a29 03       		.byte	0x3
 22425 1a2a 00000000 		.4byte	USBD1
 22426 1a2e 9F       		.byte	0x9f
 22427 1a2f 5A070000 		.4byte	.LVL395
 22428 1a33 66070000 		.4byte	.LVL397
 22429 1a37 0600     		.2byte	0x6
 22430 1a39 03       		.byte	0x3
 22431 1a3a 00000000 		.4byte	USBD1
 22432 1a3e 9F       		.byte	0x9f
 22433 1a3f 00000000 		.4byte	0
 22434 1a43 00000000 		.4byte	0
 22435              	.LLST135:
 22436 1a47 A8020000 		.4byte	.LVL215
 22437 1a4b 2C030000 		.4byte	.LVL230
 22438 1a4f 0200     		.2byte	0x2
 22439 1a51 30       		.byte	0x30
ARM GAS  C:\Users\mathi\AppData\Local\Temp\ccOm87JI.s 			page 395


 22440 1a52 9F       		.byte	0x9f
 22441 1a53 C6060000 		.4byte	.LVL372
 22442 1a57 30070000 		.4byte	.LVL387
 22443 1a5b 0200     		.2byte	0x2
 22444 1a5d 30       		.byte	0x30
 22445 1a5e 9F       		.byte	0x9f
 22446 1a5f 5A070000 		.4byte	.LVL395
 22447 1a63 66070000 		.4byte	.LVL397
 22448 1a67 0200     		.2byte	0x2
 22449 1a69 30       		.byte	0x30
 22450 1a6a 9F       		.byte	0x9f
 22451 1a6b 00000000 		.4byte	0
 22452 1a6f 00000000 		.4byte	0
 22453              	.LLST136:
 22454 1a73 AC020000 		.4byte	.LVL216
 22455 1a77 2C030000 		.4byte	.LVL230
 22456 1a7b 0100     		.2byte	0x1
 22457 1a7d 58       		.byte	0x58
 22458 1a7e C6060000 		.4byte	.LVL372
 22459 1a82 30070000 		.4byte	.LVL387
 22460 1a86 0100     		.2byte	0x1
 22461 1a88 58       		.byte	0x58
 22462 1a89 5A070000 		.4byte	.LVL395
 22463 1a8d 66070000 		.4byte	.LVL397
 22464 1a91 0100     		.2byte	0x1
 22465 1a93 58       		.byte	0x58
 22466 1a94 00000000 		.4byte	0
 22467 1a98 00000000 		.4byte	0
 22468              	.LLST137:
 22469 1a9c B0020000 		.4byte	.LVL217
 22470 1aa0 2C030000 		.4byte	.LVL230
 22471 1aa4 0100     		.2byte	0x1
 22472 1aa6 59       		.byte	0x59
 22473 1aa7 C6060000 		.4byte	.LVL372
 22474 1aab 30070000 		.4byte	.LVL387
 22475 1aaf 0100     		.2byte	0x1
 22476 1ab1 59       		.byte	0x59
 22477 1ab2 5A070000 		.4byte	.LVL395
 22478 1ab6 66070000 		.4byte	.LVL397
 22479 1aba 0100     		.2byte	0x1
 22480 1abc 59       		.byte	0x59
 22481 1abd 00000000 		.4byte	0
 22482 1ac1 00000000 		.4byte	0
 22483              	.LLST138:
 22484 1ac5 C6020000 		.4byte	.LVL218
 22485 1ac9 D2020000 		.4byte	.LVL219
 22486 1acd 0100     		.2byte	0x1
 22487 1acf 53       		.byte	0x53
 22488 1ad0 D2020000 		.4byte	.LVL219
 22489 1ad4 DF020000 		.4byte	.LVL220-1
 22490 1ad8 0200     		.2byte	0x2
 22491 1ada 72       		.byte	0x72
 22492 1adb 14       		.sleb128 20
 22493 1adc C6060000 		.4byte	.LVL372
 22494 1ae0 D0060000 		.4byte	.LVL374
 22495 1ae4 0100     		.2byte	0x1
 22496 1ae6 53       		.byte	0x53
ARM GAS  C:\Users\mathi\AppData\Local\Temp\ccOm87JI.s 			page 396


 22497 1ae7 00000000 		.4byte	0
 22498 1aeb 00000000 		.4byte	0
 22499              	.LLST139:
 22500 1aef CE060000 		.4byte	.LVL373
 22501 1af3 F8060000 		.4byte	.LVL379
 22502 1af7 0200     		.2byte	0x2
 22503 1af9 30       		.byte	0x30
 22504 1afa 9F       		.byte	0x9f
 22505 1afb 5A070000 		.4byte	.LVL395
 22506 1aff 66070000 		.4byte	.LVL397
 22507 1b03 0200     		.2byte	0x2
 22508 1b05 30       		.byte	0x30
 22509 1b06 9F       		.byte	0x9f
 22510 1b07 00000000 		.4byte	0
 22511 1b0b 00000000 		.4byte	0
 22512              	.LLST140:
 22513 1b0f CE060000 		.4byte	.LVL373
 22514 1b13 F8060000 		.4byte	.LVL379
 22515 1b17 0600     		.2byte	0x6
 22516 1b19 03       		.byte	0x3
 22517 1b1a 00000000 		.4byte	USBD1
 22518 1b1e 9F       		.byte	0x9f
 22519 1b1f 5A070000 		.4byte	.LVL395
 22520 1b23 66070000 		.4byte	.LVL397
 22521 1b27 0600     		.2byte	0x6
 22522 1b29 03       		.byte	0x3
 22523 1b2a 00000000 		.4byte	USBD1
 22524 1b2e 9F       		.byte	0x9f
 22525 1b2f 00000000 		.4byte	0
 22526 1b33 00000000 		.4byte	0
 22527              	.LLST141:
 22528 1b37 D2060000 		.4byte	.LVL375
 22529 1b3b E6060000 		.4byte	.LVL376
 22530 1b3f 0100     		.2byte	0x1
 22531 1b41 53       		.byte	0x53
 22532 1b42 5A070000 		.4byte	.LVL395
 22533 1b46 5C070000 		.4byte	.LVL396
 22534 1b4a 0100     		.2byte	0x1
 22535 1b4c 53       		.byte	0x53
 22536 1b4d 00000000 		.4byte	0
 22537 1b51 00000000 		.4byte	0
 22538              	.LLST142:
 22539 1b55 E8060000 		.4byte	.LVL377
 22540 1b59 F0060000 		.4byte	.LVL378
 22541 1b5d 1100     		.2byte	0x11
 22542 1b5f 70       		.byte	0x70
 22543 1b60 00       		.sleb128 0
 22544 1b61 71       		.byte	0x71
 22545 1b62 00       		.sleb128 0
 22546 1b63 22       		.byte	0x22
 22547 1b64 31       		.byte	0x31
 22548 1b65 1C       		.byte	0x1c
 22549 1b66 F7       		.byte	0xf7
 22550 1b67 25       		.uleb128 0x25
 22551 1b68 70       		.byte	0x70
 22552 1b69 00       		.sleb128 0
 22553 1b6a F7       		.byte	0xf7
ARM GAS  C:\Users\mathi\AppData\Local\Temp\ccOm87JI.s 			page 397


 22554 1b6b 25       		.uleb128 0x25
 22555 1b6c 1B       		.byte	0x1b
 22556 1b6d F7       		.byte	0xf7
 22557 1b6e 00       		.uleb128 0
 22558 1b6f 9F       		.byte	0x9f
 22559 1b70 F0060000 		.4byte	.LVL378
 22560 1b74 F8060000 		.4byte	.LVL379
 22561 1b78 0100     		.2byte	0x1
 22562 1b7a 52       		.byte	0x52
 22563 1b7b 00000000 		.4byte	0
 22564 1b7f 00000000 		.4byte	0
 22565              	.LLST143:
 22566 1b83 F8060000 		.4byte	.LVL379
 22567 1b87 FE060000 		.4byte	.LVL380
 22568 1b8b 0300     		.2byte	0x3
 22569 1b8d 08       		.byte	0x8
 22570 1b8e 20       		.byte	0x20
 22571 1b8f 9F       		.byte	0x9f
 22572 1b90 00000000 		.4byte	0
 22573 1b94 00000000 		.4byte	0
 22574              	.LLST144:
 22575 1b98 06070000 		.4byte	.LVL382
 22576 1b9c 20070000 		.4byte	.LVL383
 22577 1ba0 0200     		.2byte	0x2
 22578 1ba2 30       		.byte	0x30
 22579 1ba3 9F       		.byte	0x9f
 22580 1ba4 00000000 		.4byte	0
 22581 1ba8 00000000 		.4byte	0
 22582              	.LLST145:
 22583 1bac 06070000 		.4byte	.LVL382
 22584 1bb0 20070000 		.4byte	.LVL383
 22585 1bb4 0600     		.2byte	0x6
 22586 1bb6 03       		.byte	0x3
 22587 1bb7 00000000 		.4byte	USBD1
 22588 1bbb 9F       		.byte	0x9f
 22589 1bbc 00000000 		.4byte	0
 22590 1bc0 00000000 		.4byte	0
 22591              	.LLST146:
 22592 1bc4 28070000 		.4byte	.LVL385
 22593 1bc8 2E070000 		.4byte	.LVL386
 22594 1bcc 0200     		.2byte	0x2
 22595 1bce 30       		.byte	0x30
 22596 1bcf 9F       		.byte	0x9f
 22597 1bd0 00000000 		.4byte	0
 22598 1bd4 00000000 		.4byte	0
 22599              	.LLST147:
 22600 1bd8 F2020000 		.4byte	.LVL221
 22601 1bdc F8020000 		.4byte	.LVL222
 22602 1be0 0300     		.2byte	0x3
 22603 1be2 08       		.byte	0x8
 22604 1be3 20       		.byte	0x20
 22605 1be4 9F       		.byte	0x9f
 22606 1be5 00000000 		.4byte	0
 22607 1be9 00000000 		.4byte	0
 22608              	.LLST148:
 22609 1bed 14030000 		.4byte	.LVL225
 22610 1bf1 1C030000 		.4byte	.LVL226
ARM GAS  C:\Users\mathi\AppData\Local\Temp\ccOm87JI.s 			page 398


 22611 1bf5 0200     		.2byte	0x2
 22612 1bf7 30       		.byte	0x30
 22613 1bf8 9F       		.byte	0x9f
 22614 1bf9 00000000 		.4byte	0
 22615 1bfd 00000000 		.4byte	0
 22616              	.LLST149:
 22617 1c01 14030000 		.4byte	.LVL225
 22618 1c05 1C030000 		.4byte	.LVL226
 22619 1c09 0600     		.2byte	0x6
 22620 1c0b 03       		.byte	0x3
 22621 1c0c 60000000 		.4byte	USBD1+96
 22622 1c10 9F       		.byte	0x9f
 22623 1c11 00000000 		.4byte	0
 22624 1c15 00000000 		.4byte	0
 22625              	.LLST150:
 22626 1c19 24030000 		.4byte	.LVL228
 22627 1c1d 2A030000 		.4byte	.LVL229
 22628 1c21 0200     		.2byte	0x2
 22629 1c23 30       		.byte	0x30
 22630 1c24 9F       		.byte	0x9f
 22631 1c25 00000000 		.4byte	0
 22632 1c29 00000000 		.4byte	0
 22633              	.LLST151:
 22634 1c2d 2C030000 		.4byte	.LVL230
 22635 1c31 B0030000 		.4byte	.LVL245
 22636 1c35 0600     		.2byte	0x6
 22637 1c37 03       		.byte	0x3
 22638 1c38 00000000 		.4byte	USBD1
 22639 1c3c 9F       		.byte	0x9f
 22640 1c3d 64060000 		.4byte	.LVL357
 22641 1c41 C6060000 		.4byte	.LVL372
 22642 1c45 0600     		.2byte	0x6
 22643 1c47 03       		.byte	0x3
 22644 1c48 00000000 		.4byte	USBD1
 22645 1c4c 9F       		.byte	0x9f
 22646 1c4d 4E070000 		.4byte	.LVL393
 22647 1c51 5A070000 		.4byte	.LVL395
 22648 1c55 0600     		.2byte	0x6
 22649 1c57 03       		.byte	0x3
 22650 1c58 00000000 		.4byte	USBD1
 22651 1c5c 9F       		.byte	0x9f
 22652 1c5d 00000000 		.4byte	0
 22653 1c61 00000000 		.4byte	0
 22654              	.LLST152:
 22655 1c65 2C030000 		.4byte	.LVL230
 22656 1c69 B0030000 		.4byte	.LVL245
 22657 1c6d 0200     		.2byte	0x2
 22658 1c6f 31       		.byte	0x31
 22659 1c70 9F       		.byte	0x9f
 22660 1c71 64060000 		.4byte	.LVL357
 22661 1c75 C6060000 		.4byte	.LVL372
 22662 1c79 0200     		.2byte	0x2
 22663 1c7b 31       		.byte	0x31
 22664 1c7c 9F       		.byte	0x9f
 22665 1c7d 4E070000 		.4byte	.LVL393
 22666 1c81 5A070000 		.4byte	.LVL395
 22667 1c85 0200     		.2byte	0x2
ARM GAS  C:\Users\mathi\AppData\Local\Temp\ccOm87JI.s 			page 399


 22668 1c87 31       		.byte	0x31
 22669 1c88 9F       		.byte	0x9f
 22670 1c89 00000000 		.4byte	0
 22671 1c8d 00000000 		.4byte	0
 22672              	.LLST153:
 22673 1c91 30030000 		.4byte	.LVL231
 22674 1c95 B0030000 		.4byte	.LVL245
 22675 1c99 0100     		.2byte	0x1
 22676 1c9b 58       		.byte	0x58
 22677 1c9c 64060000 		.4byte	.LVL357
 22678 1ca0 C6060000 		.4byte	.LVL372
 22679 1ca4 0100     		.2byte	0x1
 22680 1ca6 58       		.byte	0x58
 22681 1ca7 4E070000 		.4byte	.LVL393
 22682 1cab 5A070000 		.4byte	.LVL395
 22683 1caf 0100     		.2byte	0x1
 22684 1cb1 58       		.byte	0x58
 22685 1cb2 00000000 		.4byte	0
 22686 1cb6 00000000 		.4byte	0
 22687              	.LLST154:
 22688 1cba 34030000 		.4byte	.LVL232
 22689 1cbe B0030000 		.4byte	.LVL245
 22690 1cc2 0100     		.2byte	0x1
 22691 1cc4 59       		.byte	0x59
 22692 1cc5 64060000 		.4byte	.LVL357
 22693 1cc9 C6060000 		.4byte	.LVL372
 22694 1ccd 0100     		.2byte	0x1
 22695 1ccf 59       		.byte	0x59
 22696 1cd0 4E070000 		.4byte	.LVL393
 22697 1cd4 5A070000 		.4byte	.LVL395
 22698 1cd8 0100     		.2byte	0x1
 22699 1cda 59       		.byte	0x59
 22700 1cdb 00000000 		.4byte	0
 22701 1cdf 00000000 		.4byte	0
 22702              	.LLST155:
 22703 1ce3 4A030000 		.4byte	.LVL233
 22704 1ce7 56030000 		.4byte	.LVL234
 22705 1ceb 0100     		.2byte	0x1
 22706 1ced 53       		.byte	0x53
 22707 1cee 56030000 		.4byte	.LVL234
 22708 1cf2 63030000 		.4byte	.LVL235-1
 22709 1cf6 0200     		.2byte	0x2
 22710 1cf8 72       		.byte	0x72
 22711 1cf9 14       		.sleb128 20
 22712 1cfa 64060000 		.4byte	.LVL357
 22713 1cfe 6E060000 		.4byte	.LVL359
 22714 1d02 0100     		.2byte	0x1
 22715 1d04 53       		.byte	0x53
 22716 1d05 00000000 		.4byte	0
 22717 1d09 00000000 		.4byte	0
 22718              	.LLST156:
 22719 1d0d 6C060000 		.4byte	.LVL358
 22720 1d11 8E060000 		.4byte	.LVL364
 22721 1d15 0200     		.2byte	0x2
 22722 1d17 31       		.byte	0x31
 22723 1d18 9F       		.byte	0x9f
 22724 1d19 4E070000 		.4byte	.LVL393
ARM GAS  C:\Users\mathi\AppData\Local\Temp\ccOm87JI.s 			page 400


 22725 1d1d 5A070000 		.4byte	.LVL395
 22726 1d21 0200     		.2byte	0x2
 22727 1d23 31       		.byte	0x31
 22728 1d24 9F       		.byte	0x9f
 22729 1d25 00000000 		.4byte	0
 22730 1d29 00000000 		.4byte	0
 22731              	.LLST157:
 22732 1d2d 6C060000 		.4byte	.LVL358
 22733 1d31 8E060000 		.4byte	.LVL364
 22734 1d35 0600     		.2byte	0x6
 22735 1d37 03       		.byte	0x3
 22736 1d38 00000000 		.4byte	USBD1
 22737 1d3c 9F       		.byte	0x9f
 22738 1d3d 4E070000 		.4byte	.LVL393
 22739 1d41 5A070000 		.4byte	.LVL395
 22740 1d45 0600     		.2byte	0x6
 22741 1d47 03       		.byte	0x3
 22742 1d48 00000000 		.4byte	USBD1
 22743 1d4c 9F       		.byte	0x9f
 22744 1d4d 00000000 		.4byte	0
 22745 1d51 00000000 		.4byte	0
 22746              	.LLST158:
 22747 1d55 70060000 		.4byte	.LVL360
 22748 1d59 7C060000 		.4byte	.LVL361
 22749 1d5d 0100     		.2byte	0x1
 22750 1d5f 53       		.byte	0x53
 22751 1d60 4E070000 		.4byte	.LVL393
 22752 1d64 50070000 		.4byte	.LVL394
 22753 1d68 0100     		.2byte	0x1
 22754 1d6a 53       		.byte	0x53
 22755 1d6b 00000000 		.4byte	0
 22756 1d6f 00000000 		.4byte	0
 22757              	.LLST159:
 22758 1d73 7E060000 		.4byte	.LVL362
 22759 1d77 86060000 		.4byte	.LVL363
 22760 1d7b 1100     		.2byte	0x11
 22761 1d7d 70       		.byte	0x70
 22762 1d7e 00       		.sleb128 0
 22763 1d7f 71       		.byte	0x71
 22764 1d80 00       		.sleb128 0
 22765 1d81 22       		.byte	0x22
 22766 1d82 31       		.byte	0x31
 22767 1d83 1C       		.byte	0x1c
 22768 1d84 F7       		.byte	0xf7
 22769 1d85 25       		.uleb128 0x25
 22770 1d86 70       		.byte	0x70
 22771 1d87 00       		.sleb128 0
 22772 1d88 F7       		.byte	0xf7
 22773 1d89 25       		.uleb128 0x25
 22774 1d8a 1B       		.byte	0x1b
 22775 1d8b F7       		.byte	0xf7
 22776 1d8c 00       		.uleb128 0
 22777 1d8d 9F       		.byte	0x9f
 22778 1d8e 86060000 		.4byte	.LVL363
 22779 1d92 8E060000 		.4byte	.LVL364
 22780 1d96 0100     		.2byte	0x1
 22781 1d98 52       		.byte	0x52
ARM GAS  C:\Users\mathi\AppData\Local\Temp\ccOm87JI.s 			page 401


 22782 1d99 00000000 		.4byte	0
 22783 1d9d 00000000 		.4byte	0
 22784              	.LLST160:
 22785 1da1 8E060000 		.4byte	.LVL364
 22786 1da5 94060000 		.4byte	.LVL365
 22787 1da9 0300     		.2byte	0x3
 22788 1dab 08       		.byte	0x8
 22789 1dac 20       		.byte	0x20
 22790 1dad 9F       		.byte	0x9f
 22791 1dae 00000000 		.4byte	0
 22792 1db2 00000000 		.4byte	0
 22793              	.LLST161:
 22794 1db6 9C060000 		.4byte	.LVL367
 22795 1dba B6060000 		.4byte	.LVL368
 22796 1dbe 0200     		.2byte	0x2
 22797 1dc0 31       		.byte	0x31
 22798 1dc1 9F       		.byte	0x9f
 22799 1dc2 00000000 		.4byte	0
 22800 1dc6 00000000 		.4byte	0
 22801              	.LLST162:
 22802 1dca 9C060000 		.4byte	.LVL367
 22803 1dce B6060000 		.4byte	.LVL368
 22804 1dd2 0600     		.2byte	0x6
 22805 1dd4 03       		.byte	0x3
 22806 1dd5 00000000 		.4byte	USBD1
 22807 1dd9 9F       		.byte	0x9f
 22808 1dda 00000000 		.4byte	0
 22809 1dde 00000000 		.4byte	0
 22810              	.LLST163:
 22811 1de2 BE060000 		.4byte	.LVL370
 22812 1de6 C4060000 		.4byte	.LVL371
 22813 1dea 0200     		.2byte	0x2
 22814 1dec 30       		.byte	0x30
 22815 1ded 9F       		.byte	0x9f
 22816 1dee 00000000 		.4byte	0
 22817 1df2 00000000 		.4byte	0
 22818              	.LLST164:
 22819 1df6 76030000 		.4byte	.LVL236
 22820 1dfa 7C030000 		.4byte	.LVL237
 22821 1dfe 0300     		.2byte	0x3
 22822 1e00 08       		.byte	0x8
 22823 1e01 20       		.byte	0x20
 22824 1e02 9F       		.byte	0x9f
 22825 1e03 00000000 		.4byte	0
 22826 1e07 00000000 		.4byte	0
 22827              	.LLST165:
 22828 1e0b 98030000 		.4byte	.LVL240
 22829 1e0f A0030000 		.4byte	.LVL241
 22830 1e13 0200     		.2byte	0x2
 22831 1e15 30       		.byte	0x30
 22832 1e16 9F       		.byte	0x9f
 22833 1e17 00000000 		.4byte	0
 22834 1e1b 00000000 		.4byte	0
 22835              	.LLST166:
 22836 1e1f 98030000 		.4byte	.LVL240
 22837 1e23 A0030000 		.4byte	.LVL241
 22838 1e27 0600     		.2byte	0x6
ARM GAS  C:\Users\mathi\AppData\Local\Temp\ccOm87JI.s 			page 402


 22839 1e29 03       		.byte	0x3
 22840 1e2a 60000000 		.4byte	USBD1+96
 22841 1e2e 9F       		.byte	0x9f
 22842 1e2f 00000000 		.4byte	0
 22843 1e33 00000000 		.4byte	0
 22844              	.LLST167:
 22845 1e37 A8030000 		.4byte	.LVL243
 22846 1e3b AE030000 		.4byte	.LVL244
 22847 1e3f 0200     		.2byte	0x2
 22848 1e41 30       		.byte	0x30
 22849 1e42 9F       		.byte	0x9f
 22850 1e43 00000000 		.4byte	0
 22851 1e47 00000000 		.4byte	0
 22852              	.LLST168:
 22853 1e4b B0030000 		.4byte	.LVL245
 22854 1e4f 34040000 		.4byte	.LVL260
 22855 1e53 0600     		.2byte	0x6
 22856 1e55 03       		.byte	0x3
 22857 1e56 00000000 		.4byte	USBD1
 22858 1e5a 9F       		.byte	0x9f
 22859 1e5b 00060000 		.4byte	.LVL342
 22860 1e5f 64060000 		.4byte	.LVL357
 22861 1e63 0600     		.2byte	0x6
 22862 1e65 03       		.byte	0x3
 22863 1e66 00000000 		.4byte	USBD1
 22864 1e6a 9F       		.byte	0x9f
 22865 1e6b 42070000 		.4byte	.LVL391
 22866 1e6f 4E070000 		.4byte	.LVL393
 22867 1e73 0600     		.2byte	0x6
 22868 1e75 03       		.byte	0x3
 22869 1e76 00000000 		.4byte	USBD1
 22870 1e7a 9F       		.byte	0x9f
 22871 1e7b 00000000 		.4byte	0
 22872 1e7f 00000000 		.4byte	0
 22873              	.LLST169:
 22874 1e83 B0030000 		.4byte	.LVL245
 22875 1e87 34040000 		.4byte	.LVL260
 22876 1e8b 0200     		.2byte	0x2
 22877 1e8d 32       		.byte	0x32
 22878 1e8e 9F       		.byte	0x9f
 22879 1e8f 00060000 		.4byte	.LVL342
 22880 1e93 64060000 		.4byte	.LVL357
 22881 1e97 0200     		.2byte	0x2
 22882 1e99 32       		.byte	0x32
 22883 1e9a 9F       		.byte	0x9f
 22884 1e9b 42070000 		.4byte	.LVL391
 22885 1e9f 4E070000 		.4byte	.LVL393
 22886 1ea3 0200     		.2byte	0x2
 22887 1ea5 32       		.byte	0x32
 22888 1ea6 9F       		.byte	0x9f
 22889 1ea7 00000000 		.4byte	0
 22890 1eab 00000000 		.4byte	0
 22891              	.LLST170:
 22892 1eaf B4030000 		.4byte	.LVL246
 22893 1eb3 34040000 		.4byte	.LVL260
 22894 1eb7 0100     		.2byte	0x1
 22895 1eb9 58       		.byte	0x58
ARM GAS  C:\Users\mathi\AppData\Local\Temp\ccOm87JI.s 			page 403


 22896 1eba 00060000 		.4byte	.LVL342
 22897 1ebe 64060000 		.4byte	.LVL357
 22898 1ec2 0100     		.2byte	0x1
 22899 1ec4 58       		.byte	0x58
 22900 1ec5 42070000 		.4byte	.LVL391
 22901 1ec9 4E070000 		.4byte	.LVL393
 22902 1ecd 0100     		.2byte	0x1
 22903 1ecf 58       		.byte	0x58
 22904 1ed0 00000000 		.4byte	0
 22905 1ed4 00000000 		.4byte	0
 22906              	.LLST171:
 22907 1ed8 B8030000 		.4byte	.LVL247
 22908 1edc 34040000 		.4byte	.LVL260
 22909 1ee0 0100     		.2byte	0x1
 22910 1ee2 59       		.byte	0x59
 22911 1ee3 00060000 		.4byte	.LVL342
 22912 1ee7 64060000 		.4byte	.LVL357
 22913 1eeb 0100     		.2byte	0x1
 22914 1eed 59       		.byte	0x59
 22915 1eee 42070000 		.4byte	.LVL391
 22916 1ef2 4E070000 		.4byte	.LVL393
 22917 1ef6 0100     		.2byte	0x1
 22918 1ef8 59       		.byte	0x59
 22919 1ef9 00000000 		.4byte	0
 22920 1efd 00000000 		.4byte	0
 22921              	.LLST172:
 22922 1f01 CE030000 		.4byte	.LVL248
 22923 1f05 DA030000 		.4byte	.LVL249
 22924 1f09 0100     		.2byte	0x1
 22925 1f0b 53       		.byte	0x53
 22926 1f0c DA030000 		.4byte	.LVL249
 22927 1f10 E7030000 		.4byte	.LVL250-1
 22928 1f14 0200     		.2byte	0x2
 22929 1f16 72       		.byte	0x72
 22930 1f17 14       		.sleb128 20
 22931 1f18 00060000 		.4byte	.LVL342
 22932 1f1c 0A060000 		.4byte	.LVL344
 22933 1f20 0100     		.2byte	0x1
 22934 1f22 53       		.byte	0x53
 22935 1f23 00000000 		.4byte	0
 22936 1f27 00000000 		.4byte	0
 22937              	.LLST173:
 22938 1f2b 08060000 		.4byte	.LVL343
 22939 1f2f 2C060000 		.4byte	.LVL349
 22940 1f33 0200     		.2byte	0x2
 22941 1f35 32       		.byte	0x32
 22942 1f36 9F       		.byte	0x9f
 22943 1f37 42070000 		.4byte	.LVL391
 22944 1f3b 4E070000 		.4byte	.LVL393
 22945 1f3f 0200     		.2byte	0x2
 22946 1f41 32       		.byte	0x32
 22947 1f42 9F       		.byte	0x9f
 22948 1f43 00000000 		.4byte	0
 22949 1f47 00000000 		.4byte	0
 22950              	.LLST174:
 22951 1f4b 08060000 		.4byte	.LVL343
 22952 1f4f 2C060000 		.4byte	.LVL349
ARM GAS  C:\Users\mathi\AppData\Local\Temp\ccOm87JI.s 			page 404


 22953 1f53 0600     		.2byte	0x6
 22954 1f55 03       		.byte	0x3
 22955 1f56 00000000 		.4byte	USBD1
 22956 1f5a 9F       		.byte	0x9f
 22957 1f5b 42070000 		.4byte	.LVL391
 22958 1f5f 4E070000 		.4byte	.LVL393
 22959 1f63 0600     		.2byte	0x6
 22960 1f65 03       		.byte	0x3
 22961 1f66 00000000 		.4byte	USBD1
 22962 1f6a 9F       		.byte	0x9f
 22963 1f6b 00000000 		.4byte	0
 22964 1f6f 00000000 		.4byte	0
 22965              	.LLST175:
 22966 1f73 0C060000 		.4byte	.LVL345
 22967 1f77 1A060000 		.4byte	.LVL346
 22968 1f7b 0100     		.2byte	0x1
 22969 1f7d 53       		.byte	0x53
 22970 1f7e 42070000 		.4byte	.LVL391
 22971 1f82 44070000 		.4byte	.LVL392
 22972 1f86 0100     		.2byte	0x1
 22973 1f88 53       		.byte	0x53
 22974 1f89 00000000 		.4byte	0
 22975 1f8d 00000000 		.4byte	0
 22976              	.LLST176:
 22977 1f91 1C060000 		.4byte	.LVL347
 22978 1f95 24060000 		.4byte	.LVL348
 22979 1f99 1100     		.2byte	0x11
 22980 1f9b 70       		.byte	0x70
 22981 1f9c 00       		.sleb128 0
 22982 1f9d 71       		.byte	0x71
 22983 1f9e 00       		.sleb128 0
 22984 1f9f 22       		.byte	0x22
 22985 1fa0 31       		.byte	0x31
 22986 1fa1 1C       		.byte	0x1c
 22987 1fa2 F7       		.byte	0xf7
 22988 1fa3 25       		.uleb128 0x25
 22989 1fa4 70       		.byte	0x70
 22990 1fa5 00       		.sleb128 0
 22991 1fa6 F7       		.byte	0xf7
 22992 1fa7 25       		.uleb128 0x25
 22993 1fa8 1B       		.byte	0x1b
 22994 1fa9 F7       		.byte	0xf7
 22995 1faa 00       		.uleb128 0
 22996 1fab 9F       		.byte	0x9f
 22997 1fac 24060000 		.4byte	.LVL348
 22998 1fb0 2C060000 		.4byte	.LVL349
 22999 1fb4 0100     		.2byte	0x1
 23000 1fb6 52       		.byte	0x52
 23001 1fb7 00000000 		.4byte	0
 23002 1fbb 00000000 		.4byte	0
 23003              	.LLST177:
 23004 1fbf 2C060000 		.4byte	.LVL349
 23005 1fc3 32060000 		.4byte	.LVL350
 23006 1fc7 0300     		.2byte	0x3
 23007 1fc9 08       		.byte	0x8
 23008 1fca 20       		.byte	0x20
 23009 1fcb 9F       		.byte	0x9f
ARM GAS  C:\Users\mathi\AppData\Local\Temp\ccOm87JI.s 			page 405


 23010 1fcc 00000000 		.4byte	0
 23011 1fd0 00000000 		.4byte	0
 23012              	.LLST178:
 23013 1fd4 3A060000 		.4byte	.LVL352
 23014 1fd8 54060000 		.4byte	.LVL353
 23015 1fdc 0200     		.2byte	0x2
 23016 1fde 32       		.byte	0x32
 23017 1fdf 9F       		.byte	0x9f
 23018 1fe0 00000000 		.4byte	0
 23019 1fe4 00000000 		.4byte	0
 23020              	.LLST179:
 23021 1fe8 3A060000 		.4byte	.LVL352
 23022 1fec 54060000 		.4byte	.LVL353
 23023 1ff0 0600     		.2byte	0x6
 23024 1ff2 03       		.byte	0x3
 23025 1ff3 00000000 		.4byte	USBD1
 23026 1ff7 9F       		.byte	0x9f
 23027 1ff8 00000000 		.4byte	0
 23028 1ffc 00000000 		.4byte	0
 23029              	.LLST180:
 23030 2000 5C060000 		.4byte	.LVL355
 23031 2004 62060000 		.4byte	.LVL356
 23032 2008 0200     		.2byte	0x2
 23033 200a 30       		.byte	0x30
 23034 200b 9F       		.byte	0x9f
 23035 200c 00000000 		.4byte	0
 23036 2010 00000000 		.4byte	0
 23037              	.LLST181:
 23038 2014 FA030000 		.4byte	.LVL251
 23039 2018 00040000 		.4byte	.LVL252
 23040 201c 0300     		.2byte	0x3
 23041 201e 08       		.byte	0x8
 23042 201f 20       		.byte	0x20
 23043 2020 9F       		.byte	0x9f
 23044 2021 00000000 		.4byte	0
 23045 2025 00000000 		.4byte	0
 23046              	.LLST182:
 23047 2029 1C040000 		.4byte	.LVL255
 23048 202d 24040000 		.4byte	.LVL256
 23049 2031 0200     		.2byte	0x2
 23050 2033 30       		.byte	0x30
 23051 2034 9F       		.byte	0x9f
 23052 2035 00000000 		.4byte	0
 23053 2039 00000000 		.4byte	0
 23054              	.LLST183:
 23055 203d 1C040000 		.4byte	.LVL255
 23056 2041 24040000 		.4byte	.LVL256
 23057 2045 0600     		.2byte	0x6
 23058 2047 03       		.byte	0x3
 23059 2048 60000000 		.4byte	USBD1+96
 23060 204c 9F       		.byte	0x9f
 23061 204d 00000000 		.4byte	0
 23062 2051 00000000 		.4byte	0
 23063              	.LLST184:
 23064 2055 2C040000 		.4byte	.LVL258
 23065 2059 32040000 		.4byte	.LVL259
 23066 205d 0200     		.2byte	0x2
ARM GAS  C:\Users\mathi\AppData\Local\Temp\ccOm87JI.s 			page 406


 23067 205f 30       		.byte	0x30
 23068 2060 9F       		.byte	0x9f
 23069 2061 00000000 		.4byte	0
 23070 2065 00000000 		.4byte	0
 23071              	.LLST244:
 23072 2069 00000000 		.4byte	.LVL528
 23073 206d 2C000000 		.4byte	.LVL530
 23074 2071 0100     		.2byte	0x1
 23075 2073 50       		.byte	0x50
 23076 2074 2C000000 		.4byte	.LVL530
 23077 2078 5C000000 		.4byte	.LFE284
 23078 207c 0400     		.2byte	0x4
 23079 207e F3       		.byte	0xf3
 23080 207f 01       		.uleb128 0x1
 23081 2080 50       		.byte	0x50
 23082 2081 9F       		.byte	0x9f
 23083 2082 00000000 		.4byte	0
 23084 2086 00000000 		.4byte	0
 23085              	.LLST245:
 23086 208a 00000000 		.4byte	.LVL528
 23087 208e 32000000 		.4byte	.LVL532
 23088 2092 0100     		.2byte	0x1
 23089 2094 51       		.byte	0x51
 23090 2095 32000000 		.4byte	.LVL532
 23091 2099 5C000000 		.4byte	.LFE284
 23092 209d 0400     		.2byte	0x4
 23093 209f F3       		.byte	0xf3
 23094 20a0 01       		.uleb128 0x1
 23095 20a1 51       		.byte	0x51
 23096 20a2 9F       		.byte	0x9f
 23097 20a3 00000000 		.4byte	0
 23098 20a7 00000000 		.4byte	0
 23099              	.LLST246:
 23100 20ab 2E000000 		.4byte	.LVL531
 23101 20af 44000000 		.4byte	.LVL533
 23102 20b3 1100     		.2byte	0x11
 23103 20b5 72       		.byte	0x72
 23104 20b6 00       		.sleb128 0
 23105 20b7 75       		.byte	0x75
 23106 20b8 00       		.sleb128 0
 23107 20b9 22       		.byte	0x22
 23108 20ba 31       		.byte	0x31
 23109 20bb 1C       		.byte	0x1c
 23110 20bc F7       		.byte	0xf7
 23111 20bd 25       		.uleb128 0x25
 23112 20be 75       		.byte	0x75
 23113 20bf 00       		.sleb128 0
 23114 20c0 F7       		.byte	0xf7
 23115 20c1 25       		.uleb128 0x25
 23116 20c2 1B       		.byte	0x1b
 23117 20c3 F7       		.byte	0xf7
 23118 20c4 00       		.uleb128 0
 23119 20c5 9F       		.byte	0x9f
 23120 20c6 00000000 		.4byte	0
 23121 20ca 00000000 		.4byte	0
 23122              	.LLST247:
 23123 20ce 0E000000 		.4byte	.LVL529
ARM GAS  C:\Users\mathi\AppData\Local\Temp\ccOm87JI.s 			page 407


 23124 20d2 2E000000 		.4byte	.LVL531
 23125 20d6 0100     		.2byte	0x1
 23126 20d8 55       		.byte	0x55
 23127 20d9 00000000 		.4byte	0
 23128 20dd 00000000 		.4byte	0
 23129              	.LLST248:
 23130 20e1 00000000 		.4byte	.LVL535
 23131 20e5 1E000000 		.4byte	.LVL538
 23132 20e9 0100     		.2byte	0x1
 23133 20eb 50       		.byte	0x50
 23134 20ec 1E000000 		.4byte	.LVL538
 23135 20f0 40000000 		.4byte	.LVL542
 23136 20f4 0400     		.2byte	0x4
 23137 20f6 F3       		.byte	0xf3
 23138 20f7 01       		.uleb128 0x1
 23139 20f8 50       		.byte	0x50
 23140 20f9 9F       		.byte	0x9f
 23141 20fa 40000000 		.4byte	.LVL542
 23142 20fe 5A000000 		.4byte	.LVL544
 23143 2102 0100     		.2byte	0x1
 23144 2104 50       		.byte	0x50
 23145 2105 5A000000 		.4byte	.LVL544
 23146 2109 64000000 		.4byte	.LFE285
 23147 210d 0400     		.2byte	0x4
 23148 210f F3       		.byte	0xf3
 23149 2110 01       		.uleb128 0x1
 23150 2111 50       		.byte	0x50
 23151 2112 9F       		.byte	0x9f
 23152 2113 00000000 		.4byte	0
 23153 2117 00000000 		.4byte	0
 23154              	.LLST249:
 23155 211b 00000000 		.4byte	.LVL535
 23156 211f 24000000 		.4byte	.LVL540
 23157 2123 0100     		.2byte	0x1
 23158 2125 51       		.byte	0x51
 23159 2126 24000000 		.4byte	.LVL540
 23160 212a 40000000 		.4byte	.LVL542
 23161 212e 0400     		.2byte	0x4
 23162 2130 F3       		.byte	0xf3
 23163 2131 01       		.uleb128 0x1
 23164 2132 51       		.byte	0x51
 23165 2133 9F       		.byte	0x9f
 23166 2134 40000000 		.4byte	.LVL542
 23167 2138 50000000 		.4byte	.LVL543
 23168 213c 0100     		.2byte	0x1
 23169 213e 51       		.byte	0x51
 23170 213f 50000000 		.4byte	.LVL543
 23171 2143 64000000 		.4byte	.LFE285
 23172 2147 0400     		.2byte	0x4
 23173 2149 F3       		.byte	0xf3
 23174 214a 01       		.uleb128 0x1
 23175 214b 51       		.byte	0x51
 23176 214c 9F       		.byte	0x9f
 23177 214d 00000000 		.4byte	0
 23178 2151 00000000 		.4byte	0
 23179              	.LLST250:
 23180 2155 0E000000 		.4byte	.LVL536
ARM GAS  C:\Users\mathi\AppData\Local\Temp\ccOm87JI.s 			page 408


 23181 2159 1C000000 		.4byte	.LVL537
 23182 215d 0100     		.2byte	0x1
 23183 215f 52       		.byte	0x52
 23184 2160 40000000 		.4byte	.LVL542
 23185 2164 5A000000 		.4byte	.LVL544
 23186 2168 0100     		.2byte	0x1
 23187 216a 52       		.byte	0x52
 23188 216b 00000000 		.4byte	0
 23189 216f 00000000 		.4byte	0
 23190              	.LLST251:
 23191 2173 20000000 		.4byte	.LVL539
 23192 2177 30000000 		.4byte	.LVL541
 23193 217b 1100     		.2byte	0x11
 23194 217d 73       		.byte	0x73
 23195 217e 00       		.sleb128 0
 23196 217f 75       		.byte	0x75
 23197 2180 00       		.sleb128 0
 23198 2181 22       		.byte	0x22
 23199 2182 31       		.byte	0x31
 23200 2183 1C       		.byte	0x1c
 23201 2184 F7       		.byte	0xf7
 23202 2185 25       		.uleb128 0x25
 23203 2186 75       		.byte	0x75
 23204 2187 00       		.sleb128 0
 23205 2188 F7       		.byte	0xf7
 23206 2189 25       		.uleb128 0x25
 23207 218a 1B       		.byte	0x1b
 23208 218b F7       		.byte	0xf7
 23209 218c 00       		.uleb128 0
 23210 218d 9F       		.byte	0x9f
 23211 218e 00000000 		.4byte	0
 23212 2192 00000000 		.4byte	0
 23213              	.LLST252:
 23214 2196 00000000 		.4byte	.LVL546
 23215 219a 2D000000 		.4byte	.LVL548-1
 23216 219e 0100     		.2byte	0x1
 23217 21a0 50       		.byte	0x50
 23218 21a1 2D000000 		.4byte	.LVL548-1
 23219 21a5 34000000 		.4byte	.LFE286
 23220 21a9 0400     		.2byte	0x4
 23221 21ab F3       		.byte	0xf3
 23222 21ac 01       		.uleb128 0x1
 23223 21ad 50       		.byte	0x50
 23224 21ae 9F       		.byte	0x9f
 23225 21af 00000000 		.4byte	0
 23226 21b3 00000000 		.4byte	0
 23227              	.LLST253:
 23228 21b7 00000000 		.4byte	.LVL546
 23229 21bb 0C000000 		.4byte	.LVL547
 23230 21bf 0100     		.2byte	0x1
 23231 21c1 51       		.byte	0x51
 23232 21c2 0C000000 		.4byte	.LVL547
 23233 21c6 34000000 		.4byte	.LFE286
 23234 21ca 0400     		.2byte	0x4
 23235 21cc F3       		.byte	0xf3
 23236 21cd 01       		.uleb128 0x1
 23237 21ce 51       		.byte	0x51
ARM GAS  C:\Users\mathi\AppData\Local\Temp\ccOm87JI.s 			page 409


 23238 21cf 9F       		.byte	0x9f
 23239 21d0 00000000 		.4byte	0
 23240 21d4 00000000 		.4byte	0
 23241              	.LLST254:
 23242 21d8 00000000 		.4byte	.LVL549
 23243 21dc 24000000 		.4byte	.LVL550
 23244 21e0 0100     		.2byte	0x1
 23245 21e2 50       		.byte	0x50
 23246 21e3 24000000 		.4byte	.LVL550
 23247 21e7 44000000 		.4byte	.LFE287
 23248 21eb 0400     		.2byte	0x4
 23249 21ed F3       		.byte	0xf3
 23250 21ee 01       		.uleb128 0x1
 23251 21ef 50       		.byte	0x50
 23252 21f0 9F       		.byte	0x9f
 23253 21f1 00000000 		.4byte	0
 23254 21f5 00000000 		.4byte	0
 23255              	.LLST255:
 23256 21f9 00000000 		.4byte	.LVL549
 23257 21fd 28000000 		.4byte	.LVL551
 23258 2201 0100     		.2byte	0x1
 23259 2203 51       		.byte	0x51
 23260 2204 28000000 		.4byte	.LVL551
 23261 2208 44000000 		.4byte	.LFE287
 23262 220c 0400     		.2byte	0x4
 23263 220e F3       		.byte	0xf3
 23264 220f 01       		.uleb128 0x1
 23265 2210 51       		.byte	0x51
 23266 2211 9F       		.byte	0x9f
 23267 2212 00000000 		.4byte	0
 23268 2216 00000000 		.4byte	0
 23269              		.section	.debug_aranges,"",%progbits
 23270 0000 B4000000 		.4byte	0xb4
 23271 0004 0200     		.2byte	0x2
 23272 0006 00000000 		.4byte	.Ldebug_info0
 23273 000a 04       		.byte	0x4
 23274 000b 00       		.byte	0
 23275 000c 0000     		.2byte	0
 23276 000e 0000     		.2byte	0
 23277 0010 00000000 		.4byte	.LFB292
 23278 0014 24050000 		.4byte	.LFE292-.LFB292
 23279 0018 00000000 		.4byte	.LFB273
 23280 001c 6A070000 		.4byte	.LFE273-.LFB273
 23281 0020 00000000 		.4byte	.LFB274
 23282 0024 5C000000 		.4byte	.LFE274-.LFB274
 23283 0028 00000000 		.4byte	.LFB275
 23284 002c 80010000 		.4byte	.LFE275-.LFB275
 23285 0030 00000000 		.4byte	.LFB276
 23286 0034 C4000000 		.4byte	.LFE276-.LFB276
 23287 0038 00000000 		.4byte	.LFB277
 23288 003c 4C020000 		.4byte	.LFE277-.LFB277
 23289 0040 00000000 		.4byte	.LFB278
 23290 0044 38000000 		.4byte	.LFE278-.LFB278
 23291 0048 00000000 		.4byte	.LFB279
 23292 004c A0010000 		.4byte	.LFE279-.LFB279
 23293 0050 00000000 		.4byte	.LFB280
 23294 0054 A0000000 		.4byte	.LFE280-.LFB280
ARM GAS  C:\Users\mathi\AppData\Local\Temp\ccOm87JI.s 			page 410


 23295 0058 00000000 		.4byte	.LFB281
 23296 005c 38000000 		.4byte	.LFE281-.LFB281
 23297 0060 00000000 		.4byte	.LFB282
 23298 0064 38000000 		.4byte	.LFE282-.LFB282
 23299 0068 00000000 		.4byte	.LFB283
 23300 006c 30000000 		.4byte	.LFE283-.LFB283
 23301 0070 00000000 		.4byte	.LFB284
 23302 0074 5C000000 		.4byte	.LFE284-.LFB284
 23303 0078 00000000 		.4byte	.LFB285
 23304 007c 64000000 		.4byte	.LFE285-.LFB285
 23305 0080 00000000 		.4byte	.LFB286
 23306 0084 34000000 		.4byte	.LFE286-.LFB286
 23307 0088 00000000 		.4byte	.LFB287
 23308 008c 44000000 		.4byte	.LFE287-.LFB287
 23309 0090 00000000 		.4byte	.LFB288
 23310 0094 34000000 		.4byte	.LFE288-.LFB288
 23311 0098 00000000 		.4byte	.LFB289
 23312 009c 34000000 		.4byte	.LFE289-.LFB289
 23313 00a0 00000000 		.4byte	.LFB290
 23314 00a4 34000000 		.4byte	.LFE290-.LFB290
 23315 00a8 00000000 		.4byte	.LFB291
 23316 00ac 34000000 		.4byte	.LFE291-.LFB291
 23317 00b0 00000000 		.4byte	0
 23318 00b4 00000000 		.4byte	0
 23319              		.section	.debug_ranges,"",%progbits
 23320              	.Ldebug_ranges0:
 23321 0000 04000000 		.4byte	.LBB421
 23322 0004 08000000 		.4byte	.LBE421
 23323 0008 0A000000 		.4byte	.LBB426
 23324 000c 0E000000 		.4byte	.LBE426
 23325 0010 10000000 		.4byte	.LBB427
 23326 0014 12000000 		.4byte	.LBE427
 23327 0018 16000000 		.4byte	.LBB428
 23328 001c 18000000 		.4byte	.LBE428
 23329 0020 00000000 		.4byte	0
 23330 0024 00000000 		.4byte	0
 23331 0028 30000000 		.4byte	.LBB436
 23332 002c 36000000 		.4byte	.LBE436
 23333 0030 5E000000 		.4byte	.LBB451
 23334 0034 88000000 		.4byte	.LBE451
 23335 0038 00000000 		.4byte	0
 23336 003c 00000000 		.4byte	0
 23337 0040 30000000 		.4byte	.LBB439
 23338 0044 36000000 		.4byte	.LBE439
 23339 0048 80000000 		.4byte	.LBB444
 23340 004c 88000000 		.4byte	.LBE444
 23341 0050 00000000 		.4byte	0
 23342 0054 00000000 		.4byte	0
 23343 0058 50000000 		.4byte	.LBB447
 23344 005c 52000000 		.4byte	.LBE447
 23345 0060 5A000000 		.4byte	.LBB450
 23346 0064 5E000000 		.4byte	.LBE450
 23347 0068 00000000 		.4byte	0
 23348 006c 00000000 		.4byte	0
 23349 0070 90000000 		.4byte	.LBB452
 23350 0074 42010000 		.4byte	.LBE452
 23351 0078 7A010000 		.4byte	.LBB494
ARM GAS  C:\Users\mathi\AppData\Local\Temp\ccOm87JI.s 			page 411


 23352 007c 88020000 		.4byte	.LBE494
 23353 0080 00000000 		.4byte	0
 23354 0084 00000000 		.4byte	0
 23355 0088 B4000000 		.4byte	.LBB454
 23356 008c B8000000 		.4byte	.LBE454
 23357 0090 BA000000 		.4byte	.LBB460
 23358 0094 EA000000 		.4byte	.LBE460
 23359 0098 00000000 		.4byte	0
 23360 009c 00000000 		.4byte	0
 23361 00a0 C2000000 		.4byte	.LBB456
 23362 00a4 D0000000 		.4byte	.LBE456
 23363 00a8 D4000000 		.4byte	.LBB457
 23364 00ac DC000000 		.4byte	.LBE457
 23365 00b0 E2000000 		.4byte	.LBB458
 23366 00b4 E4000000 		.4byte	.LBE458
 23367 00b8 00000000 		.4byte	0
 23368 00bc 00000000 		.4byte	0
 23369 00c0 02010000 		.4byte	.LBB461
 23370 00c4 34010000 		.4byte	.LBE461
 23371 00c8 7A010000 		.4byte	.LBB466
 23372 00cc 8A010000 		.4byte	.LBE466
 23373 00d0 00000000 		.4byte	0
 23374 00d4 00000000 		.4byte	0
 23375 00d8 1A010000 		.4byte	.LBB463
 23376 00dc 2A010000 		.4byte	.LBE463
 23377 00e0 80010000 		.4byte	.LBB464
 23378 00e4 84010000 		.4byte	.LBE464
 23379 00e8 00000000 		.4byte	0
 23380 00ec 00000000 		.4byte	0
 23381 00f0 DA020000 		.4byte	.LBB508
 23382 00f4 F8030000 		.4byte	.LBE508
 23383 00f8 48040000 		.4byte	.LBB568
 23384 00fc E0040000 		.4byte	.LBE568
 23385 0100 00000000 		.4byte	0
 23386 0104 00000000 		.4byte	0
 23387 0108 2C030000 		.4byte	.LBB510
 23388 010c B8030000 		.4byte	.LBE510
 23389 0110 48040000 		.4byte	.LBB539
 23390 0114 AE040000 		.4byte	.LBE539
 23391 0118 D0040000 		.4byte	.LBB544
 23392 011c DC040000 		.4byte	.LBE544
 23393 0120 00000000 		.4byte	0
 23394 0124 00000000 		.4byte	0
 23395 0128 30030000 		.4byte	.LBB512
 23396 012c 6C030000 		.4byte	.LBE512
 23397 0130 48040000 		.4byte	.LBB535
 23398 0134 A6040000 		.4byte	.LBE535
 23399 0138 D0040000 		.4byte	.LBB536
 23400 013c DC040000 		.4byte	.LBE536
 23401 0140 00000000 		.4byte	0
 23402 0144 00000000 		.4byte	0
 23403 0148 3C030000 		.4byte	.LBB513
 23404 014c 6C030000 		.4byte	.LBE513
 23405 0150 D4040000 		.4byte	.LBB518
 23406 0154 DC040000 		.4byte	.LBE518
 23407 0158 00000000 		.4byte	0
 23408 015c 00000000 		.4byte	0
ARM GAS  C:\Users\mathi\AppData\Local\Temp\ccOm87JI.s 			page 412


 23409 0160 4E030000 		.4byte	.LBB514
 23410 0164 62030000 		.4byte	.LBE514
 23411 0168 D4040000 		.4byte	.LBB517
 23412 016c DC040000 		.4byte	.LBE517
 23413 0170 00000000 		.4byte	0
 23414 0174 00000000 		.4byte	0
 23415 0178 F8030000 		.4byte	.LBB546
 23416 017c 06040000 		.4byte	.LBE546
 23417 0180 E0040000 		.4byte	.LBB569
 23418 0184 EE040000 		.4byte	.LBE569
 23419 0188 00050000 		.4byte	.LBB570
 23420 018c 0E050000 		.4byte	.LBE570
 23421 0190 00000000 		.4byte	0
 23422 0194 00000000 		.4byte	0
 23423 0198 F8030000 		.4byte	.LBB549
 23424 019c FE030000 		.4byte	.LBE549
 23425 01a0 E0040000 		.4byte	.LBB556
 23426 01a4 E6040000 		.4byte	.LBE556
 23427 01a8 00050000 		.4byte	.LBB557
 23428 01ac 06050000 		.4byte	.LBE557
 23429 01b0 00000000 		.4byte	0
 23430 01b4 00000000 		.4byte	0
 23431 01b8 06000000 		.4byte	.LBB817
 23432 01bc 08000000 		.4byte	.LBE817
 23433 01c0 16000000 		.4byte	.LBB1127
 23434 01c4 76000000 		.4byte	.LBE1127
 23435 01c8 8E000000 		.4byte	.LBB1128
 23436 01cc 66070000 		.4byte	.LBE1128
 23437 01d0 00000000 		.4byte	0
 23438 01d4 00000000 		.4byte	0
 23439 01d8 9E000000 		.4byte	.LBB826
 23440 01dc A0000000 		.4byte	.LBE826
 23441 01e0 A6000000 		.4byte	.LBB829
 23442 01e4 AC000000 		.4byte	.LBE829
 23443 01e8 00000000 		.4byte	0
 23444 01ec 00000000 		.4byte	0
 23445 01f0 D2000000 		.4byte	.LBB837
 23446 01f4 1E010000 		.4byte	.LBE837
 23447 01f8 3A050000 		.4byte	.LBB1116
 23448 01fc 8E050000 		.4byte	.LBE1116
 23449 0200 00000000 		.4byte	0
 23450 0204 00000000 		.4byte	0
 23451 0208 FE000000 		.4byte	.LBB839
 23452 020c 1E010000 		.4byte	.LBE839
 23453 0210 3A050000 		.4byte	.LBB856
 23454 0214 8E050000 		.4byte	.LBE856
 23455 0218 00000000 		.4byte	0
 23456 021c 00000000 		.4byte	0
 23457 0220 1E010000 		.4byte	.LBB858
 23458 0224 6E010000 		.4byte	.LBE858
 23459 0228 DC040000 		.4byte	.LBB1115
 23460 022c 3A050000 		.4byte	.LBE1115
 23461 0230 00000000 		.4byte	0
 23462 0234 00000000 		.4byte	0
 23463 0238 4E010000 		.4byte	.LBB860
 23464 023c 6E010000 		.4byte	.LBE860
 23465 0240 DC040000 		.4byte	.LBB877
ARM GAS  C:\Users\mathi\AppData\Local\Temp\ccOm87JI.s 			page 413


 23466 0244 3A050000 		.4byte	.LBE877
 23467 0248 00000000 		.4byte	0
 23468 024c 00000000 		.4byte	0
 23469 0250 6E010000 		.4byte	.LBB879
 23470 0254 C2010000 		.4byte	.LBE879
 23471 0258 88040000 		.4byte	.LBB1114
 23472 025c DC040000 		.4byte	.LBE1114
 23473 0260 00000000 		.4byte	0
 23474 0264 00000000 		.4byte	0
 23475 0268 A2010000 		.4byte	.LBB881
 23476 026c C2010000 		.4byte	.LBE881
 23477 0270 88040000 		.4byte	.LBB898
 23478 0274 DC040000 		.4byte	.LBE898
 23479 0278 00000000 		.4byte	0
 23480 027c 00000000 		.4byte	0
 23481 0280 C2010000 		.4byte	.LBB900
 23482 0284 16020000 		.4byte	.LBE900
 23483 0288 34040000 		.4byte	.LBB1113
 23484 028c 88040000 		.4byte	.LBE1113
 23485 0290 00000000 		.4byte	0
 23486 0294 00000000 		.4byte	0
 23487 0298 F6010000 		.4byte	.LBB902
 23488 029c 16020000 		.4byte	.LBE902
 23489 02a0 34040000 		.4byte	.LBB919
 23490 02a4 88040000 		.4byte	.LBE919
 23491 02a8 00000000 		.4byte	0
 23492 02ac 00000000 		.4byte	0
 23493 02b0 16020000 		.4byte	.LBB921
 23494 02b4 A8020000 		.4byte	.LBE921
 23495 02b8 8E050000 		.4byte	.LBB1117
 23496 02bc 00060000 		.4byte	.LBE1117
 23497 02c0 36070000 		.4byte	.LBB1121
 23498 02c4 42070000 		.4byte	.LBE1121
 23499 02c8 00000000 		.4byte	0
 23500 02cc 00000000 		.4byte	0
 23501 02d0 30020000 		.4byte	.LBB923
 23502 02d4 4E020000 		.4byte	.LBE923
 23503 02d8 8E050000 		.4byte	.LBB965
 23504 02dc 00060000 		.4byte	.LBE965
 23505 02e0 36070000 		.4byte	.LBB966
 23506 02e4 42070000 		.4byte	.LBE966
 23507 02e8 00000000 		.4byte	0
 23508 02ec 00000000 		.4byte	0
 23509 02f0 96050000 		.4byte	.LBB924
 23510 02f4 BA050000 		.4byte	.LBE924
 23511 02f8 36070000 		.4byte	.LBB944
 23512 02fc 42070000 		.4byte	.LBE944
 23513 0300 00000000 		.4byte	0
 23514 0304 00000000 		.4byte	0
 23515 0308 74020000 		.4byte	.LBB952
 23516 030c 76020000 		.4byte	.LBE952
 23517 0310 82020000 		.4byte	.LBB956
 23518 0314 84020000 		.4byte	.LBE956
 23519 0318 86020000 		.4byte	.LBB957
 23520 031c 8A020000 		.4byte	.LBE957
 23521 0320 00000000 		.4byte	0
 23522 0324 00000000 		.4byte	0
ARM GAS  C:\Users\mathi\AppData\Local\Temp\ccOm87JI.s 			page 414


 23523 0328 A8020000 		.4byte	.LBB969
 23524 032c 2C030000 		.4byte	.LBE969
 23525 0330 C6060000 		.4byte	.LBB1120
 23526 0334 36070000 		.4byte	.LBE1120
 23527 0338 5A070000 		.4byte	.LBB1124
 23528 033c 66070000 		.4byte	.LBE1124
 23529 0340 00000000 		.4byte	0
 23530 0344 00000000 		.4byte	0
 23531 0348 C2020000 		.4byte	.LBB971
 23532 034c E0020000 		.4byte	.LBE971
 23533 0350 C6060000 		.4byte	.LBB1013
 23534 0354 36070000 		.4byte	.LBE1013
 23535 0358 5A070000 		.4byte	.LBB1014
 23536 035c 66070000 		.4byte	.LBE1014
 23537 0360 00000000 		.4byte	0
 23538 0364 00000000 		.4byte	0
 23539 0368 CE060000 		.4byte	.LBB972
 23540 036c F8060000 		.4byte	.LBE972
 23541 0370 5A070000 		.4byte	.LBB992
 23542 0374 66070000 		.4byte	.LBE992
 23543 0378 00000000 		.4byte	0
 23544 037c 00000000 		.4byte	0
 23545 0380 06030000 		.4byte	.LBB1000
 23546 0384 08030000 		.4byte	.LBE1000
 23547 0388 14030000 		.4byte	.LBB1004
 23548 038c 16030000 		.4byte	.LBE1004
 23549 0390 18030000 		.4byte	.LBB1005
 23550 0394 1C030000 		.4byte	.LBE1005
 23551 0398 00000000 		.4byte	0
 23552 039c 00000000 		.4byte	0
 23553 03a0 2C030000 		.4byte	.LBB1017
 23554 03a4 B0030000 		.4byte	.LBE1017
 23555 03a8 64060000 		.4byte	.LBB1119
 23556 03ac C6060000 		.4byte	.LBE1119
 23557 03b0 4E070000 		.4byte	.LBB1123
 23558 03b4 5A070000 		.4byte	.LBE1123
 23559 03b8 00000000 		.4byte	0
 23560 03bc 00000000 		.4byte	0
 23561 03c0 46030000 		.4byte	.LBB1019
 23562 03c4 64030000 		.4byte	.LBE1019
 23563 03c8 64060000 		.4byte	.LBB1061
 23564 03cc C6060000 		.4byte	.LBE1061
 23565 03d0 4E070000 		.4byte	.LBB1062
 23566 03d4 5A070000 		.4byte	.LBE1062
 23567 03d8 00000000 		.4byte	0
 23568 03dc 00000000 		.4byte	0
 23569 03e0 6C060000 		.4byte	.LBB1020
 23570 03e4 8E060000 		.4byte	.LBE1020
 23571 03e8 4E070000 		.4byte	.LBB1040
 23572 03ec 5A070000 		.4byte	.LBE1040
 23573 03f0 00000000 		.4byte	0
 23574 03f4 00000000 		.4byte	0
 23575 03f8 8A030000 		.4byte	.LBB1048
 23576 03fc 8C030000 		.4byte	.LBE1048
 23577 0400 98030000 		.4byte	.LBB1052
 23578 0404 9A030000 		.4byte	.LBE1052
 23579 0408 9C030000 		.4byte	.LBB1053
ARM GAS  C:\Users\mathi\AppData\Local\Temp\ccOm87JI.s 			page 415


 23580 040c A0030000 		.4byte	.LBE1053
 23581 0410 00000000 		.4byte	0
 23582 0414 00000000 		.4byte	0
 23583 0418 B0030000 		.4byte	.LBB1065
 23584 041c 34040000 		.4byte	.LBE1065
 23585 0420 00060000 		.4byte	.LBB1118
 23586 0424 64060000 		.4byte	.LBE1118
 23587 0428 42070000 		.4byte	.LBB1122
 23588 042c 4E070000 		.4byte	.LBE1122
 23589 0430 00000000 		.4byte	0
 23590 0434 00000000 		.4byte	0
 23591 0438 CA030000 		.4byte	.LBB1067
 23592 043c E8030000 		.4byte	.LBE1067
 23593 0440 00060000 		.4byte	.LBB1109
 23594 0444 64060000 		.4byte	.LBE1109
 23595 0448 42070000 		.4byte	.LBB1110
 23596 044c 4E070000 		.4byte	.LBE1110
 23597 0450 00000000 		.4byte	0
 23598 0454 00000000 		.4byte	0
 23599 0458 08060000 		.4byte	.LBB1068
 23600 045c 2C060000 		.4byte	.LBE1068
 23601 0460 42070000 		.4byte	.LBB1088
 23602 0464 4E070000 		.4byte	.LBE1088
 23603 0468 00000000 		.4byte	0
 23604 046c 00000000 		.4byte	0
 23605 0470 0E040000 		.4byte	.LBB1096
 23606 0474 10040000 		.4byte	.LBE1096
 23607 0478 1C040000 		.4byte	.LBB1100
 23608 047c 1E040000 		.4byte	.LBE1100
 23609 0480 20040000 		.4byte	.LBB1101
 23610 0484 24040000 		.4byte	.LBE1101
 23611 0488 00000000 		.4byte	0
 23612 048c 00000000 		.4byte	0
 23613 0490 1E000000 		.4byte	.LBB1129
 23614 0494 28000000 		.4byte	.LBE1129
 23615 0498 2C000000 		.4byte	.LBB1130
 23616 049c 42000000 		.4byte	.LBE1130
 23617 04a0 48000000 		.4byte	.LBB1131
 23618 04a4 5C000000 		.4byte	.LBE1131
 23619 04a8 00000000 		.4byte	0
 23620 04ac 00000000 		.4byte	0
 23621 04b0 44010000 		.4byte	.LBB1150
 23622 04b4 4A010000 		.4byte	.LBE1150
 23623 04b8 4C010000 		.4byte	.LBB1153
 23624 04bc 5A010000 		.4byte	.LBE1153
 23625 04c0 00000000 		.4byte	0
 23626 04c4 00000000 		.4byte	0
 23627 04c8 12000000 		.4byte	.LBB1156
 23628 04cc 14000000 		.4byte	.LBE1156
 23629 04d0 16000000 		.4byte	.LBB1162
 23630 04d4 6E000000 		.4byte	.LBE1162
 23631 04d8 70000000 		.4byte	.LBB1163
 23632 04dc 74000000 		.4byte	.LBE1163
 23633 04e0 76000000 		.4byte	.LBB1164
 23634 04e4 7A000000 		.4byte	.LBE1164
 23635 04e8 A4000000 		.4byte	.LBB1165
 23636 04ec B2000000 		.4byte	.LBE1165
ARM GAS  C:\Users\mathi\AppData\Local\Temp\ccOm87JI.s 			page 416


 23637 04f0 00000000 		.4byte	0
 23638 04f4 00000000 		.4byte	0
 23639 04f8 A4000000 		.4byte	.LBB1178
 23640 04fc AC000000 		.4byte	.LBE1178
 23641 0500 B0000000 		.4byte	.LBB1182
 23642 0504 B2000000 		.4byte	.LBE1182
 23643 0508 70010000 		.4byte	.LBB1191
 23644 050c 80010000 		.4byte	.LBE1191
 23645 0510 00000000 		.4byte	0
 23646 0514 00000000 		.4byte	0
 23647 0518 04000000 		.4byte	.LBB1196
 23648 051c 06000000 		.4byte	.LBE1196
 23649 0520 0A000000 		.4byte	.LBB1200
 23650 0524 0C000000 		.4byte	.LBE1200
 23651 0528 12000000 		.4byte	.LBB1201
 23652 052c 14000000 		.4byte	.LBE1201
 23653 0530 00000000 		.4byte	0
 23654 0534 00000000 		.4byte	0
 23655 0538 16000000 		.4byte	.LBB1202
 23656 053c 18000000 		.4byte	.LBE1202
 23657 0540 1A000000 		.4byte	.LBB1205
 23658 0544 88000000 		.4byte	.LBE1205
 23659 0548 00000000 		.4byte	0
 23660 054c 00000000 		.4byte	0
 23661 0550 18000000 		.4byte	.LBB1206
 23662 0554 34000000 		.4byte	.LBE1206
 23663 0558 40000000 		.4byte	.LBB1207
 23664 055c 4A000000 		.4byte	.LBE1207
 23665 0560 00000000 		.4byte	0
 23666 0564 00000000 		.4byte	0
 23667 0568 00000000 		.4byte	.LFB292
 23668 056c 24050000 		.4byte	.LFE292
 23669 0570 00000000 		.4byte	.LFB273
 23670 0574 6A070000 		.4byte	.LFE273
 23671 0578 00000000 		.4byte	.LFB274
 23672 057c 5C000000 		.4byte	.LFE274
 23673 0580 00000000 		.4byte	.LFB275
 23674 0584 80010000 		.4byte	.LFE275
 23675 0588 00000000 		.4byte	.LFB276
 23676 058c C4000000 		.4byte	.LFE276
 23677 0590 00000000 		.4byte	.LFB277
 23678 0594 4C020000 		.4byte	.LFE277
 23679 0598 00000000 		.4byte	.LFB278
 23680 059c 38000000 		.4byte	.LFE278
 23681 05a0 00000000 		.4byte	.LFB279
 23682 05a4 A0010000 		.4byte	.LFE279
 23683 05a8 00000000 		.4byte	.LFB280
 23684 05ac A0000000 		.4byte	.LFE280
 23685 05b0 00000000 		.4byte	.LFB281
 23686 05b4 38000000 		.4byte	.LFE281
 23687 05b8 00000000 		.4byte	.LFB282
 23688 05bc 38000000 		.4byte	.LFE282
 23689 05c0 00000000 		.4byte	.LFB283
 23690 05c4 30000000 		.4byte	.LFE283
 23691 05c8 00000000 		.4byte	.LFB284
 23692 05cc 5C000000 		.4byte	.LFE284
 23693 05d0 00000000 		.4byte	.LFB285
ARM GAS  C:\Users\mathi\AppData\Local\Temp\ccOm87JI.s 			page 417


 23694 05d4 64000000 		.4byte	.LFE285
 23695 05d8 00000000 		.4byte	.LFB286
 23696 05dc 34000000 		.4byte	.LFE286
 23697 05e0 00000000 		.4byte	.LFB287
 23698 05e4 44000000 		.4byte	.LFE287
 23699 05e8 00000000 		.4byte	.LFB288
 23700 05ec 34000000 		.4byte	.LFE288
 23701 05f0 00000000 		.4byte	.LFB289
 23702 05f4 34000000 		.4byte	.LFE289
 23703 05f8 00000000 		.4byte	.LFB290
 23704 05fc 34000000 		.4byte	.LFE290
 23705 0600 00000000 		.4byte	.LFB291
 23706 0604 34000000 		.4byte	.LFE291
 23707 0608 00000000 		.4byte	0
 23708 060c 00000000 		.4byte	0
 23709              		.section	.debug_line,"",%progbits
 23710              	.Ldebug_line0:
 23711 0000 F5110000 		.section	.debug_str,"MS",%progbits,1
 23711      02007108 
 23711      00000201 
 23711      FB0E0D00 
 23711      01010101 
 23712              	.LASF705:
 23713 0000 5553425F 		.ascii	"USB_STOP\000"
 23713      53544F50 
 23713      00
 23714              	.LASF319:
 23715 0009 706F7274 		.ascii	"port_intctx\000"
 23715      5F696E74 
 23715      63747800 
 23716              	.LASF328:
 23717 0015 63685F74 		.ascii	"ch_trace_buffer_t\000"
 23717      72616365 
 23717      5F627566 
 23717      6665725F 
 23717      7400
 23718              	.LASF360:
 23719 0027 63685F70 		.ascii	"ch_ptrsize\000"
 23719      74727369 
 23719      7A6500
 23720              	.LASF641:
 23721 0032 6576656E 		.ascii	"event\000"
 23721      7400
 23722              	.LASF491:
 23723 0038 43414E5F 		.ascii	"CAN_STARTING\000"
 23723      53544152 
 23723      54494E47 
 23723      00
 23724              	.LASF893:
 23725 0045 5F5F6675 		.ascii	"__func__\000"
 23725      6E635F5F 
 23725      00
 23726              	.LASF141:
 23727 004e 6D73675F 		.ascii	"msg_t\000"
 23727      7400
 23728              	.LASF436:
 23729 0054 61667268 		.ascii	"afrh\000"
ARM GAS  C:\Users\mathi\AppData\Local\Temp\ccOm87JI.s 			page 418


 23729      00
 23730              	.LASF584:
 23731 0059 4F504D4F 		.ascii	"OPMODE_SMBUS_DEVICE\000"
 23731      44455F53 
 23731      4D425553 
 23731      5F444556 
 23731      49434500 
 23732              	.LASF339:
 23733 006d 6D5F6372 		.ascii	"m_crit_isr\000"
 23733      69745F69 
 23733      737200
 23734              	.LASF917:
 23735 0078 706F7274 		.ascii	"port_unlock_from_isr\000"
 23735      5F756E6C 
 23735      6F636B5F 
 23735      66726F6D 
 23735      5F697372 
 23736              	.LASF657:
 23737 008d 73646366 		.ascii	"sdcflags_t\000"
 23737      6C616773 
 23737      5F7400
 23738              	.LASF768:
 23739 0098 44494550 		.ascii	"DIEPTXF0\000"
 23739      54584630 
 23739      00
 23740              	.LASF844:
 23741 00a1 55534244 		.ascii	"USBD1\000"
 23741      3100
 23742              	.LASF490:
 23743 00a7 43414E5F 		.ascii	"CAN_STOP\000"
 23743      53544F50 
 23743      00
 23744              	.LASF373:
 23745 00b0 63665F6F 		.ascii	"cf_off_time\000"
 23745      66665F74 
 23745      696D6500 
 23746              	.LASF200:
 23747 00bc 63685F73 		.ascii	"ch_system_t\000"
 23747      79737465 
 23747      6D5F7400 
 23748              	.LASF5:
 23749 00c8 5F5F7569 		.ascii	"__uint8_t\000"
 23749      6E74385F 
 23749      7400
 23750              	.LASF345:
 23751 00d2 77747365 		.ascii	"wtsemp\000"
 23751      6D7000
 23752              	.LASF420:
 23753 00d9 5F426F6F 		.ascii	"_Bool\000"
 23753      6C00
 23754              	.LASF532:
 23755 00df 64617461 		.ascii	"datamode\000"
 23755      6D6F6465 
 23755      00
 23756              	.LASF600:
 23757 00e8 646D6172 		.ascii	"dmarx\000"
 23757      7800
ARM GAS  C:\Users\mathi\AppData\Local\Temp\ccOm87JI.s 			page 419


 23758              	.LASF70:
 23759 00ee 5F6D6273 		.ascii	"_mbstate\000"
 23759      74617465 
 23759      00
 23760              	.LASF49:
 23761 00f7 5F617465 		.ascii	"_atexit\000"
 23761      78697400 
 23762              	.LASF908:
 23763 00ff 6F73616C 		.ascii	"osalSysUnlock\000"
 23763      53797355 
 23763      6E6C6F63 
 23763      6B00
 23764              	.LASF480:
 23765 010d 73717231 		.ascii	"sqr1\000"
 23765      00
 23766              	.LASF407:
 23767 0112 424C4B5F 		.ascii	"BLK_UNINIT\000"
 23767      554E494E 
 23767      495400
 23768              	.LASF612:
 23769 011d 72785F62 		.ascii	"rx_buffer\000"
 23769      75666665 
 23769      7200
 23770              	.LASF596:
 23771 0127 6572726F 		.ascii	"errors\000"
 23771      727300
 23772              	.LASF332:
 23773 012e 776F7273 		.ascii	"worst\000"
 23773      7400
 23774              	.LASF193:
 23775 0134 76745F73 		.ascii	"vt_systime\000"
 23775      79737469 
 23775      6D6500
 23776              	.LASF259:
 23777 013f 444F5231 		.ascii	"DOR1\000"
 23777      00
 23778              	.LASF260:
 23779 0144 444F5232 		.ascii	"DOR2\000"
 23779      00
 23780              	.LASF611:
 23781 0149 74785F62 		.ascii	"tx_buffer\000"
 23781      75666665 
 23781      7200
 23782              	.LASF292:
 23783 0153 5243435F 		.ascii	"RCC_TypeDef\000"
 23783      54797065 
 23783      44656600 
 23784              	.LASF39:
 23785 015f 5F5F746D 		.ascii	"__tm_mon\000"
 23785      5F6D6F6E 
 23785      00
 23786              	.LASF47:
 23787 0168 5F666E74 		.ascii	"_fntypes\000"
 23787      79706573 
 23787      00
 23788              	.LASF354:
 23789 0171 6D5F6E65 		.ascii	"m_next\000"
ARM GAS  C:\Users\mathi\AppData\Local\Temp\ccOm87JI.s 			page 420


 23789      787400
 23790              	.LASF440:
 23791 0178 50434461 		.ascii	"PCData\000"
 23791      746100
 23792              	.LASF948:
 23793 017f 474E5520 		.ascii	"GNU C11 7.2.1 20170904 (release) [ARM/embedded-7-br"
 23793      43313120 
 23793      372E322E 
 23793      31203230 
 23793      31373039 
 23794 01b2 616E6368 		.ascii	"anch revision 255204] -mcpu=cortex-m4 -mfloat-abi=h"
 23794      20726576 
 23794      6973696F 
 23794      6E203235 
 23794      35323034 
 23795 01e5 61726420 		.ascii	"ard -mfpu=fpv4-sp-d16 -mno-thumb-interwork -mthumb "
 23795      2D6D6670 
 23795      753D6670 
 23795      76342D73 
 23795      702D6431 
 23796 0218 2D676764 		.ascii	"-ggdb -O3 -fomit-frame-pointer -falign-functions=16"
 23796      62202D4F 
 23796      33202D66 
 23796      6F6D6974 
 23796      2D667261 
 23797 024b 202D666E 		.ascii	" -fno-strict-aliasing -fstack-protector-all -ffunct"
 23797      6F2D7374 
 23797      72696374 
 23797      2D616C69 
 23797      6173696E 
 23798 027e 696F6E2D 		.ascii	"ion-sections -fdata-sections -fno-common -fsingle-p"
 23798      73656374 
 23798      696F6E73 
 23798      202D6664 
 23798      6174612D 
 23799 02b1 72656369 		.ascii	"recision-constant\000"
 23799      73696F6E 
 23799      2D636F6E 
 23799      7374616E 
 23799      7400
 23800              	.LASF77:
 23801 02c3 5F696E63 		.ascii	"_inc\000"
 23801      00
 23802              	.LASF50:
 23803 02c8 5F696E64 		.ascii	"_ind\000"
 23803      00
 23804              	.LASF304:
 23805 02cd 4D41534B 		.ascii	"MASK\000"
 23805      00
 23806              	.LASF465:
 23807 02d2 73616D70 		.ascii	"samples\000"
 23807      6C657300 
 23808              	.LASF772:
 23809 02da 47434346 		.ascii	"GCCFG\000"
 23809      4700
 23810              	.LASF561:
 23811 02e0 42445452 		.ascii	"BDTR\000"
ARM GAS  C:\Users\mathi\AppData\Local\Temp\ccOm87JI.s 			page 421


 23811      00
 23812              	.LASF514:
 23813 02e5 7265676D 		.ascii	"regmask\000"
 23813      61736B00 
 23814              	.LASF876:
 23815 02ed 6F74675F 		.ascii	"otg_epout_handler\000"
 23815      65706F75 
 23815      745F6861 
 23815      6E646C65 
 23815      7200
 23816              	.LASF594:
 23817 02ff 49324343 		.ascii	"I2CConfig\000"
 23817      6F6E6669 
 23817      6700
 23818              	.LASF130:
 23819 0309 75696E74 		.ascii	"uint16_t\000"
 23819      31365F74 
 23819      00
 23820              	.LASF601:
 23821 0312 646D6174 		.ascii	"dmatx\000"
 23821      7800
 23822              	.LASF842:
 23823 0318 736F665F 		.ascii	"sof_cb\000"
 23823      636200
 23824              	.LASF537:
 23825 031f 4558545F 		.ascii	"EXT_ACTIVE\000"
 23825      41435449 
 23825      564500
 23826              	.LASF56:
 23827 032a 5F666C61 		.ascii	"_flags\000"
 23827      677300
 23828              	.LASF892:
 23829 0331 6E657874 		.ascii	"next\000"
 23829      00
 23830              	.LASF433:
 23831 0336 6F737065 		.ascii	"ospeedr\000"
 23831      65647200 
 23832              	.LASF775:
 23833 033e 44494550 		.ascii	"DIEPTXF\000"
 23833      54584600 
 23834              	.LASF379:
 23835 0346 656C5F6E 		.ascii	"el_next\000"
 23835      65787400 
 23836              	.LASF460:
 23837 034e 4144435F 		.ascii	"ADC_ERR_OVERFLOW\000"
 23837      4552525F 
 23837      4F564552 
 23837      464C4F57 
 23837      00
 23838              	.LASF87:
 23839 035f 5F637674 		.ascii	"_cvtlen\000"
 23839      6C656E00 
 23840              	.LASF198:
 23841 0367 6C6F636B 		.ascii	"lock_cnt\000"
 23841      5F636E74 
 23841      00
 23842              	.LASF877:
ARM GAS  C:\Users\mathi\AppData\Local\Temp\ccOm87JI.s 			page 422


 23843 0370 6570696E 		.ascii	"epint\000"
 23843      7400
 23844              	.LASF174:
 23845 0376 63685F74 		.ascii	"ch_threads_queue\000"
 23845      68726561 
 23845      64735F71 
 23845      75657565 
 23845      00
 23846              	.LASF871:
 23847 0387 7573625F 		.ascii	"usb_lld_stop\000"
 23847      6C6C645F 
 23847      73746F70 
 23847      00
 23848              	.LASF91:
 23849 0394 5F736967 		.ascii	"_sig_func\000"
 23849      5F66756E 
 23849      6300
 23850              	.LASF153:
 23851 039e 705F6E65 		.ascii	"p_newer\000"
 23851      77657200 
 23852              	.LASF785:
 23853 03a6 48505254 		.ascii	"HPRT\000"
 23853      00
 23854              	.LASF739:
 23855 03ab 4843494E 		.ascii	"HCINT\000"
 23855      5400
 23856              	.LASF209:
 23857 03b1 534D5052 		.ascii	"SMPR1\000"
 23857      3100
 23858              	.LASF210:
 23859 03b7 534D5052 		.ascii	"SMPR2\000"
 23859      3200
 23860              	.LASF370:
 23861 03bd 63665F6F 		.ascii	"cf_off_flags\000"
 23861      66665F66 
 23861      6C616773 
 23861      00
 23862              	.LASF69:
 23863 03ca 5F6C6F63 		.ascii	"_lock\000"
 23863      6B00
 23864              	.LASF65:
 23865 03d0 5F6E6275 		.ascii	"_nbuf\000"
 23865      6600
 23866              	.LASF674:
 23867 03d6 5350495F 		.ascii	"SPI_STOP\000"
 23867      53544F50 
 23867      00
 23868              	.LASF904:
 23869 03df 6379636C 		.ascii	"cycles\000"
 23869      657300
 23870              	.LASF123:
 23871 03e6 5F756E75 		.ascii	"_unused\000"
 23871      73656400 
 23872              	.LASF439:
 23873 03ee 50424461 		.ascii	"PBData\000"
 23873      746100
 23874              	.LASF847:
ARM GAS  C:\Users\mathi\AppData\Local\Temp\ccOm87JI.s 			page 423


 23875 03f5 65703063 		.ascii	"ep0config\000"
 23875      6F6E6669 
 23875      6700
 23876              	.LASF358:
 23877 03ff 63685F73 		.ascii	"ch_size\000"
 23877      697A6500 
 23878              	.LASF781:
 23879 0407 48505458 		.ascii	"HPTXSTS\000"
 23879      53545300 
 23880              	.LASF432:
 23881 040f 6F747970 		.ascii	"otyper\000"
 23881      657200
 23882              	.LASF713:
 23883 0416 75736265 		.ascii	"usbepstatus_t\000"
 23883      70737461 
 23883      7475735F 
 23883      7400
 23884              	.LASF423:
 23885 0424 4F545950 		.ascii	"OTYPER\000"
 23885      455200
 23886              	.LASF516:
 23887 042b 64616370 		.ascii	"dacparams_t\000"
 23887      6172616D 
 23887      735F7400 
 23888              	.LASF652:
 23889 0437 5344435F 		.ascii	"SDC_MODE_1BIT\000"
 23889      4D4F4445 
 23889      5F314249 
 23889      5400
 23890              	.LASF737:
 23891 0445 48434348 		.ascii	"HCCHAR\000"
 23891      415200
 23892              	.LASF578:
 23893 044c 4932435F 		.ascii	"I2C_ACTIVE_RX\000"
 23893      41435449 
 23893      56455F52 
 23893      5800
 23894              	.LASF147:
 23895 045a 74687265 		.ascii	"thread_t\000"
 23895      61645F74 
 23895      00
 23896              	.LASF381:
 23897 0463 656C5F65 		.ascii	"el_events\000"
 23897      76656E74 
 23897      7300
 23898              	.LASF621:
 23899 046d 70776D73 		.ascii	"pwmstate_t\000"
 23899      74617465 
 23899      5F7400
 23900              	.LASF501:
 23901 0478 736C6565 		.ascii	"sleep_event\000"
 23901      705F6576 
 23901      656E7400 
 23902              	.LASF192:
 23903 0484 63685F76 		.ascii	"ch_virtual_timers_list\000"
 23903      69727475 
 23903      616C5F74 
ARM GAS  C:\Users\mathi\AppData\Local\Temp\ccOm87JI.s 			page 424


 23903      696D6572 
 23903      735F6C69 
 23904              	.LASF404:
 23905 049b 76656374 		.ascii	"vector\000"
 23905      6F7200
 23906              	.LASF763:
 23907 04a2 47494E54 		.ascii	"GINTSTS\000"
 23907      53545300 
 23908              	.LASF131:
 23909 04aa 696E7433 		.ascii	"int32_t\000"
 23909      325F7400 
 23910              	.LASF592:
 23911 04b2 636C6F63 		.ascii	"clock_speed\000"
 23911      6B5F7370 
 23911      65656400 
 23912              	.LASF146:
 23913 04be 73797374 		.ascii	"systime_t\000"
 23913      696D655F 
 23913      7400
 23914              	.LASF534:
 23915 04c8 44414344 		.ascii	"DACD2\000"
 23915      3200
 23916              	.LASF503:
 23917 04ce 43414E44 		.ascii	"CANDriver\000"
 23917      72697665 
 23917      7200
 23918              	.LASF101:
 23919 04d8 5F616464 		.ascii	"_add\000"
 23919      00
 23920              	.LASF263:
 23921 04dd 4D304152 		.ascii	"M0AR\000"
 23921      00
 23922              	.LASF744:
 23923 04e2 72657376 		.ascii	"resvd1c\000"
 23923      64316300 
 23924              	.LASF361:
 23925 04ea 63685F74 		.ascii	"ch_timesize\000"
 23925      696D6573 
 23925      697A6500 
 23926              	.LASF582:
 23927 04f6 69326366 		.ascii	"i2cflags_t\000"
 23927      6C616773 
 23927      5F7400
 23928              	.LASF782:
 23929 0501 4841494E 		.ascii	"HAINT\000"
 23929      5400
 23930              	.LASF945:
 23931 0507 5F646267 		.ascii	"_dbg_check_enter_isr\000"
 23931      5F636865 
 23931      636B5F65 
 23931      6E746572 
 23931      5F697372 
 23932              	.LASF924:
 23933 051c 5F646267 		.ascii	"_dbg_check_lock\000"
 23933      5F636865 
 23933      636B5F6C 
 23933      6F636B00 
ARM GAS  C:\Users\mathi\AppData\Local\Temp\ccOm87JI.s 			page 425


 23934              	.LASF712:
 23935 052c 45505F53 		.ascii	"EP_STATUS_ACTIVE\000"
 23935      54415455 
 23935      535F4143 
 23935      54495645 
 23935      00
 23936              	.LASF245:
 23937 053d 46413152 		.ascii	"FA1R\000"
 23937      00
 23938              	.LASF901:
 23939 0542 6F73616C 		.ascii	"osalThreadResumeI\000"
 23939      54687265 
 23939      61645265 
 23939      73756D65 
 23939      4900
 23940              	.LASF932:
 23941 0554 6E766963 		.ascii	"nvicDisableVector\000"
 23941      44697361 
 23941      626C6556 
 23941      6563746F 
 23941      7200
 23942              	.LASF779:
 23943 0566 48464E55 		.ascii	"HFNUM\000"
 23943      4D00
 23944              	.LASF397:
 23945 056c 716E6F74 		.ascii	"qnotify_t\000"
 23945      6966795F 
 23945      7400
 23946              	.LASF456:
 23947 0576 61646373 		.ascii	"adcstate_t\000"
 23947      74617465 
 23947      5F7400
 23948              	.LASF276:
 23949 0581 41504231 		.ascii	"APB1RSTR\000"
 23949      52535452 
 23949      00
 23950              	.LASF660:
 23951 058a 63617264 		.ascii	"cardmode\000"
 23951      6D6F6465 
 23951      00
 23952              	.LASF402:
 23953 0593 69736869 		.ascii	"ishift\000"
 23953      667400
 23954              	.LASF889:
 23955 059a 6F74675F 		.ascii	"otg_fifo_write_from_buffer\000"
 23955      6669666F 
 23955      5F777269 
 23955      74655F66 
 23955      726F6D5F 
 23956              	.LASF551:
 23957 05b5 4750545F 		.ascii	"GPT_ONESHOT\000"
 23957      4F4E4553 
 23957      484F5400 
 23958              	.LASF392:
 23959 05c1 715F746F 		.ascii	"q_top\000"
 23959      7000
 23960              	.LASF58:
ARM GAS  C:\Users\mathi\AppData\Local\Temp\ccOm87JI.s 			page 426


 23961 05c7 5F6C6266 		.ascii	"_lbfsize\000"
 23961      73697A65 
 23961      00
 23962              	.LASF730:
 23963 05d0 75645F73 		.ascii	"ud_string\000"
 23963      7472696E 
 23963      6700
 23964              	.LASF595:
 23965 05da 49324344 		.ascii	"I2CDriver\000"
 23965      72697665 
 23965      7200
 23966              	.LASF577:
 23967 05e4 4932435F 		.ascii	"I2C_ACTIVE_TX\000"
 23967      41435449 
 23967      56455F54 
 23967      5800
 23968              	.LASF647:
 23969 05f2 72656164 		.ascii	"read\000"
 23969      00
 23970              	.LASF583:
 23971 05f7 4F504D4F 		.ascii	"OPMODE_I2C\000"
 23971      44455F49 
 23971      324300
 23972              	.LASF791:
 23973 0602 72657376 		.ascii	"resvd80C\000"
 23973      64383043 
 23973      00
 23974              	.LASF839:
 23975 060b 6576656E 		.ascii	"event_cb\000"
 23975      745F6362 
 23975      00
 23976              	.LASF758:
 23977 0614 474F5447 		.ascii	"GOTGCTL\000"
 23977      43544C00 
 23978              	.LASF733:
 23979 061c 75736265 		.ascii	"usbepcallback_t\000"
 23979      7063616C 
 23979      6C626163 
 23979      6B5F7400 
 23980              	.LASF68:
 23981 062c 5F646174 		.ascii	"_data\000"
 23981      6100
 23982              	.LASF203:
 23983 0632 76746C69 		.ascii	"vtlist\000"
 23983      737400
 23984              	.LASF268:
 23985 0639 54524953 		.ascii	"TRISE\000"
 23985      4500
 23986              	.LASF797:
 23987 063f 72657376 		.ascii	"resvd824\000"
 23987      64383234 
 23987      00
 23988              	.LASF162:
 23989 0648 705F7761 		.ascii	"p_waiting\000"
 23989      6974696E 
 23989      6700
 23990              	.LASF340:
ARM GAS  C:\Users\mathi\AppData\Local\Temp\ccOm87JI.s 			page 427


 23991 0652 6B65726E 		.ascii	"kernel_stats_t\000"
 23991      656C5F73 
 23991      74617473 
 23991      5F7400
 23992              	.LASF389:
 23993 0661 715F7761 		.ascii	"q_waiting\000"
 23993      6974696E 
 23993      6700
 23994              	.LASF227:
 23995 066b 43414E5F 		.ascii	"CAN_TxMailBox_TypeDef\000"
 23995      54784D61 
 23995      696C426F 
 23995      785F5479 
 23995      70654465 
 23996              	.LASF202:
 23997 0681 726C6973 		.ascii	"rlist\000"
 23997      7400
 23998              	.LASF171:
 23999 0687 74687265 		.ascii	"threads_list_t\000"
 23999      6164735F 
 23999      6C697374 
 23999      5F7400
 24000              	.LASF330:
 24001 0696 746D5F63 		.ascii	"tm_calibration_t\000"
 24001      616C6962 
 24001      72617469 
 24001      6F6E5F74 
 24001      00
 24002              	.LASF398:
 24003 06a7 696E7075 		.ascii	"input_queue_t\000"
 24003      745F7175 
 24003      6575655F 
 24003      7400
 24004              	.LASF483:
 24005 06b5 41444343 		.ascii	"ADCConversionGroup\000"
 24005      6F6E7665 
 24005      7273696F 
 24005      6E47726F 
 24005      757000
 24006              	.LASF790:
 24007 06c8 44535453 		.ascii	"DSTS\000"
 24007      00
 24008              	.LASF124:
 24009 06cd 5F5F6C6F 		.ascii	"__lock\000"
 24009      636B00
 24010              	.LASF587:
 24011 06d4 5354445F 		.ascii	"STD_DUTY_CYCLE\000"
 24011      44555459 
 24011      5F435943 
 24011      4C4500
 24012              	.LASF72:
 24013 06e3 5F726565 		.ascii	"_reent\000"
 24013      6E7400
 24014              	.LASF366:
 24015 06ea 63665F6F 		.ascii	"cf_off_older\000"
 24015      66665F6F 
 24015      6C646572 
ARM GAS  C:\Users\mathi\AppData\Local\Temp\ccOm87JI.s 			page 428


 24015      00
 24016              	.LASF135:
 24017 06f7 72747469 		.ascii	"rttime_t\000"
 24017      6D655F74 
 24017      00
 24018              	.LASF546:
 24019 0700 45585444 		.ascii	"EXTD1\000"
 24019      3100
 24020              	.LASF824:
 24021 0706 72787175 		.ascii	"rxqueued\000"
 24021      65756564 
 24021      00
 24022              	.LASF857:
 24023 070f 7573625F 		.ascii	"usb_lld_start_in\000"
 24023      6C6C645F 
 24023      73746172 
 24023      745F696E 
 24023      00
 24024              	.LASF494:
 24025 0720 63616E73 		.ascii	"canstate_t\000"
 24025      74617465 
 24025      5F7400
 24026              	.LASF247:
 24027 072b 7346696C 		.ascii	"sFilterRegister\000"
 24027      74657252 
 24027      65676973 
 24027      74657200 
 24028              	.LASF944:
 24029 073b 5F737461 		.ascii	"_stats_increase_irq\000"
 24029      74735F69 
 24029      6E637265 
 24029      6173655F 
 24029      69727100 
 24030              	.LASF93:
 24031 074f 5F5F7366 		.ascii	"__sf\000"
 24031      00
 24032              	.LASF796:
 24033 0754 72657376 		.ascii	"resvd820\000"
 24033      64383230 
 24033      00
 24034              	.LASF53:
 24035 075d 5F626173 		.ascii	"_base\000"
 24035      6500
 24036              	.LASF951:
 24037 0763 5F5F7374 		.ascii	"__stack_chk_fail\000"
 24037      61636B5F 
 24037      63686B5F 
 24037      6661696C 
 24037      00
 24038              	.LASF296:
 24039 0774 52455350 		.ascii	"RESP1\000"
 24039      3100
 24040              	.LASF297:
 24041 077a 52455350 		.ascii	"RESP2\000"
 24041      3200
 24042              	.LASF298:
 24043 0780 52455350 		.ascii	"RESP3\000"
ARM GAS  C:\Users\mathi\AppData\Local\Temp\ccOm87JI.s 			page 429


 24043      3300
 24044              	.LASF299:
 24045 0786 52455350 		.ascii	"RESP4\000"
 24045      3400
 24046              	.LASF110:
 24047 078c 5F6D6274 		.ascii	"_mbtowc_state\000"
 24047      6F77635F 
 24047      73746174 
 24047      6500
 24048              	.LASF848:
 24049 079a 66737061 		.ascii	"fsparams\000"
 24049      72616D73 
 24049      00
 24050              	.LASF906:
 24051 07a3 6F73616C 		.ascii	"osalSysUnlockFromISR\000"
 24051      53797355 
 24051      6E6C6F63 
 24051      6B46726F 
 24051      6D495352 
 24052              	.LASF574:
 24053 07b8 4932435F 		.ascii	"I2C_UNINIT\000"
 24053      554E494E 
 24053      495400
 24054              	.LASF735:
 24055 07c3 75736272 		.ascii	"usbreqhandler_t\000"
 24055      65716861 
 24055      6E646C65 
 24055      725F7400 
 24056              	.LASF454:
 24057 07d3 4144435F 		.ascii	"ADC_COMPLETE\000"
 24057      434F4D50 
 24057      4C455445 
 24057      00
 24058              	.LASF570:
 24059 07e0 47505443 		.ascii	"GPTConfig\000"
 24059      6F6E6669 
 24059      6700
 24060              	.LASF636:
 24061 07ea 53445F55 		.ascii	"SD_UNINIT\000"
 24061      4E494E49 
 24061      5400
 24062              	.LASF140:
 24063 07f4 74707269 		.ascii	"tprio_t\000"
 24063      6F5F7400 
 24064              	.LASF336:
 24065 07fc 6E5F6972 		.ascii	"n_irq\000"
 24065      7100
 24066              	.LASF615:
 24067 0802 69327370 		.ascii	"i2spr\000"
 24067      7200
 24068              	.LASF927:
 24069 0808 63685379 		.ascii	"chSysHalt\000"
 24069      7348616C 
 24069      7400
 24070              	.LASF282:
 24071 0812 41504232 		.ascii	"APB2ENR\000"
 24071      454E5200 
ARM GAS  C:\Users\mathi\AppData\Local\Temp\ccOm87JI.s 			page 430


 24072              	.LASF800:
 24073 081a 72657376 		.ascii	"resvd830\000"
 24073      64383330 
 24073      00
 24074              	.LASF34:
 24075 0823 5F5F746D 		.ascii	"__tm\000"
 24075      00
 24076              	.LASF802:
 24077 0828 72657376 		.ascii	"resvd838\000"
 24077      64383338 
 24077      00
 24078              	.LASF590:
 24079 0831 69326364 		.ascii	"i2cdutycycle_t\000"
 24079      75747963 
 24079      79636C65 
 24079      5F7400
 24080              	.LASF803:
 24081 0840 72657376 		.ascii	"resvd83C\000"
 24081      64383343 
 24081      00
 24082              	.LASF468:
 24083 0849 74687265 		.ascii	"thread\000"
 24083      616400
 24084              	.LASF513:
 24085 0850 72656773 		.ascii	"regshift\000"
 24085      68696674 
 24085      00
 24086              	.LASF694:
 24087 0859 73657475 		.ascii	"setup\000"
 24087      7000
 24088              	.LASF673:
 24089 085f 5350495F 		.ascii	"SPI_UNINIT\000"
 24089      554E494E 
 24089      495400
 24090              	.LASF751:
 24091 086a 44545846 		.ascii	"DTXFSTS\000"
 24091      53545300 
 24092              	.LASF417:
 24093 0872 626C6B5F 		.ascii	"blk_size\000"
 24093      73697A65 
 24093      00
 24094              	.LASF576:
 24095 087b 4932435F 		.ascii	"I2C_READY\000"
 24095      52454144 
 24095      5900
 24096              	.LASF42:
 24097 0885 5F5F746D 		.ascii	"__tm_yday\000"
 24097      5F796461 
 24097      7900
 24098              	.LASF688:
 24099 088f 696E5F70 		.ascii	"in_params\000"
 24099      6172616D 
 24099      7300
 24100              	.LASF560:
 24101 0899 43434552 		.ascii	"CCER\000"
 24101      00
 24102              	.LASF312:
ARM GAS  C:\Users\mathi\AppData\Local\Temp\ccOm87JI.s 			page 431


 24103 089e 49325350 		.ascii	"I2SPR\000"
 24103      5200
 24104              	.LASF618:
 24105 08a4 50574D5F 		.ascii	"PWM_UNINIT\000"
 24105      554E494E 
 24105      495400
 24106              	.LASF331:
 24107 08af 62657374 		.ascii	"best\000"
 24107      00
 24108              	.LASF760:
 24109 08b4 47414842 		.ascii	"GAHBCFG\000"
 24109      43464700 
 24110              	.LASF523:
 24111 08bc 64616363 		.ascii	"daccallback_t\000"
 24111      616C6C62 
 24111      61636B5F 
 24111      7400
 24112              	.LASF17:
 24113 08ca 5F4C4F43 		.ascii	"_LOCK_T\000"
 24113      4B5F5400 
 24114              	.LASF804:
 24115 08d2 72657376 		.ascii	"resvd840\000"
 24115      64383430 
 24115      00
 24116              	.LASF308:
 24117 08db 43524350 		.ascii	"CRCPR\000"
 24117      5200
 24118              	.LASF412:
 24119 08e1 424C4B5F 		.ascii	"BLK_READY\000"
 24119      52454144 
 24119      5900
 24120              	.LASF7:
 24121 08eb 5F5F696E 		.ascii	"__int16_t\000"
 24121      7431365F 
 24121      7400
 24122              	.LASF860:
 24123 08f5 646F6E65 		.ascii	"done\000"
 24123      00
 24124              	.LASF879:
 24125 08fa 6F74675F 		.ascii	"otg_rxfifo_handler\000"
 24125      72786669 
 24125      666F5F68 
 24125      616E646C 
 24125      657200
 24126              	.LASF9:
 24127 090d 5F5F7569 		.ascii	"__uint16_t\000"
 24127      6E743136 
 24127      5F7400
 24128              	.LASF550:
 24129 0918 4750545F 		.ascii	"GPT_CONTINUOUS\000"
 24129      434F4E54 
 24129      494E554F 
 24129      555300
 24130              	.LASF818:
 24131 0927 74787175 		.ascii	"txqueued\000"
 24131      65756564 
 24131      00
ARM GAS  C:\Users\mathi\AppData\Local\Temp\ccOm87JI.s 			page 432


 24132              	.LASF164:
 24133 0930 705F6D73 		.ascii	"p_msg\000"
 24133      6700
 24134              	.LASF102:
 24135 0936 5F756E75 		.ascii	"_unused_rand\000"
 24135      7365645F 
 24135      72616E64 
 24135      00
 24136              	.LASF757:
 24137 0943 73746D33 		.ascii	"stm32_otg_out_ep_t\000"
 24137      325F6F74 
 24137      675F6F75 
 24137      745F6570 
 24137      5F7400
 24138              	.LASF766:
 24139 0956 47525853 		.ascii	"GRXSTSP\000"
 24139      54535000 
 24140              	.LASF765:
 24141 095e 47525853 		.ascii	"GRXSTSR\000"
 24141      54535200 
 24142              	.LASF928:
 24143 0966 63685468 		.ascii	"chThdDequeueAllI\000"
 24143      64446571 
 24143      75657565 
 24143      416C6C49 
 24143      00
 24144              	.LASF342:
 24145 0977 65786974 		.ascii	"exitcode\000"
 24145      636F6465 
 24145      00
 24146              	.LASF264:
 24147 0980 4D314152 		.ascii	"M1AR\000"
 24147      00
 24148              	.LASF701:
 24149 0985 77616974 		.ascii	"wait\000"
 24149      00
 24150              	.LASF265:
 24151 098a 444D415F 		.ascii	"DMA_Stream_TypeDef\000"
 24151      53747265 
 24151      616D5F54 
 24151      79706544 
 24151      656600
 24152              	.LASF943:
 24153 099d 5F757362 		.ascii	"_usb_reset\000"
 24153      5F726573 
 24153      657400
 24154              	.LASF708:
 24155 09a8 5553425F 		.ascii	"USB_ACTIVE\000"
 24155      41435449 
 24155      564500
 24156              	.LASF753:
 24157 09b3 73746D33 		.ascii	"stm32_otg_in_ep_t\000"
 24157      325F6F74 
 24157      675F696E 
 24157      5F65705F 
 24157      7400
 24158              	.LASF826:
ARM GAS  C:\Users\mathi\AppData\Local\Temp\ccOm87JI.s 			page 433


 24159 09c5 7278636E 		.ascii	"rxcnt\000"
 24159      7400
 24160              	.LASF450:
 24161 09cb 4144435F 		.ascii	"ADC_UNINIT\000"
 24161      554E494E 
 24161      495400
 24162              	.LASF598:
 24163 09d6 7278646D 		.ascii	"rxdmamode\000"
 24163      616D6F64 
 24163      6500
 24164              	.LASF84:
 24165 09e0 5F726573 		.ascii	"_result_k\000"
 24165      756C745F 
 24165      6B00
 24166              	.LASF542:
 24167 09ea 6D6F6465 		.ascii	"mode\000"
 24167      00
 24168              	.LASF76:
 24169 09ef 5F737464 		.ascii	"_stderr\000"
 24169      65727200 
 24170              	.LASF83:
 24171 09f7 5F726573 		.ascii	"_result\000"
 24171      756C7400 
 24172              	.LASF355:
 24173 09ff 6D5F636E 		.ascii	"m_cnt\000"
 24173      7400
 24174              	.LASF539:
 24175 0a05 45585444 		.ascii	"EXTDriver\000"
 24175      72697665 
 24175      7200
 24176              	.LASF46:
 24177 0a0f 5F64736F 		.ascii	"_dso_handle\000"
 24177      5F68616E 
 24177      646C6500 
 24178              	.LASF610:
 24179 0a1b 69327363 		.ascii	"i2scallback_t\000"
 24179      616C6C62 
 24179      61636B5F 
 24179      7400
 24180              	.LASF682:
 24181 0a29 73737061 		.ascii	"sspad\000"
 24181      6400
 24182              	.LASF599:
 24183 0a2f 7478646D 		.ascii	"txdmamode\000"
 24183      616D6F64 
 24183      6500
 24184              	.LASF566:
 24185 0a39 67707466 		.ascii	"gptfreq_t\000"
 24185      7265715F 
 24185      7400
 24186              	.LASF41:
 24187 0a43 5F5F746D 		.ascii	"__tm_wday\000"
 24187      5F776461 
 24187      7900
 24188              	.LASF43:
 24189 0a4d 5F5F746D 		.ascii	"__tm_isdst\000"
 24189      5F697364 
ARM GAS  C:\Users\mathi\AppData\Local\Temp\ccOm87JI.s 			page 434


 24189      737400
 24190              	.LASF859:
 24191 0a58 7573625F 		.ascii	"usb_lld_prepare_transmit\000"
 24191      6C6C645F 
 24191      70726570 
 24191      6172655F 
 24191      7472616E 
 24192              	.LASF811:
 24193 0a71 72785F66 		.ascii	"rx_fifo_size\000"
 24193      69666F5F 
 24193      73697A65 
 24193      00
 24194              	.LASF317:
 24195 0a7e 73746B61 		.ascii	"stkalign_t\000"
 24195      6C69676E 
 24195      5F7400
 24196              	.LASF521:
 24197 0a89 4441435F 		.ascii	"DAC_ERR_UNDERFLOW\000"
 24197      4552525F 
 24197      554E4445 
 24197      52464C4F 
 24197      5700
 24198              	.LASF502:
 24199 0a9b 77616B65 		.ascii	"wakeup_event\000"
 24199      75705F65 
 24199      76656E74 
 24199      00
 24200              	.LASF187:
 24201 0aa8 76745F70 		.ascii	"vt_prev\000"
 24201      72657600 
 24202              	.LASF476:
 24203 0ab0 656E645F 		.ascii	"end_cb\000"
 24203      636200
 24204              	.LASF829:
 24205 0ab7 73657475 		.ascii	"setup_cb\000"
 24205      705F6362 
 24205      00
 24206              	.LASF6:
 24207 0ac0 756E7369 		.ascii	"unsigned char\000"
 24207      676E6564 
 24207      20636861 
 24207      7200
 24208              	.LASF75:
 24209 0ace 5F737464 		.ascii	"_stdout\000"
 24209      6F757400 
 24210              	.LASF306:
 24211 0ad6 4649464F 		.ascii	"FIFO\000"
 24211      00
 24212              	.LASF327:
 24213 0adb 74625F62 		.ascii	"tb_buffer\000"
 24213      75666665 
 24213      7200
 24214              	.LASF496:
 24215 0ae5 74787175 		.ascii	"txqueue\000"
 24215      65756500 
 24216              	.LASF350:
 24217 0aed 735F636E 		.ascii	"s_cnt\000"
ARM GAS  C:\Users\mathi\AppData\Local\Temp\ccOm87JI.s 			page 435


 24217      7400
 24218              	.LASF175:
 24219 0af3 72656164 		.ascii	"ready_list_t\000"
 24219      795F6C69 
 24219      73745F74 
 24219      00
 24220              	.LASF148:
 24221 0b00 63685F74 		.ascii	"ch_thread\000"
 24221      68726561 
 24221      6400
 24222              	.LASF585:
 24223 0b0a 4F504D4F 		.ascii	"OPMODE_SMBUS_HOST\000"
 24223      44455F53 
 24223      4D425553 
 24223      5F484F53 
 24223      5400
 24224              	.LASF117:
 24225 0b1c 5F6D6273 		.ascii	"_mbsrtowcs_state\000"
 24225      72746F77 
 24225      63735F73 
 24225      74617465 
 24225      00
 24226              	.LASF703:
 24227 0b2d 75736265 		.ascii	"usbep_t\000"
 24227      705F7400 
 24228              	.LASF846:
 24229 0b35 65703073 		.ascii	"ep0setup_buffer\000"
 24229      65747570 
 24229      5F627566 
 24229      66657200 
 24230              	.LASF285:
 24231 0b45 41484233 		.ascii	"AHB3LPENR\000"
 24231      4C50454E 
 24231      5200
 24232              	.LASF32:
 24233 0b4f 5F776473 		.ascii	"_wds\000"
 24233      00
 24234              	.LASF535:
 24235 0b54 4558545F 		.ascii	"EXT_UNINIT\000"
 24235      554E494E 
 24235      495400
 24236              	.LASF493:
 24237 0b5f 43414E5F 		.ascii	"CAN_SLEEP\000"
 24237      534C4545 
 24237      5000
 24238              	.LASF323:
 24239 0b69 73655F73 		.ascii	"se_state\000"
 24239      74617465 
 24239      00
 24240              	.LASF54:
 24241 0b72 5F73697A 		.ascii	"_size\000"
 24241      6500
 24242              	.LASF672:
 24243 0b78 53444344 		.ascii	"SDCD1\000"
 24243      3100
 24244              	.LASF194:
 24245 0b7e 73797374 		.ascii	"system_debug_t\000"
ARM GAS  C:\Users\mathi\AppData\Local\Temp\ccOm87JI.s 			page 436


 24245      656D5F64 
 24245      65627567 
 24245      5F7400
 24246              	.LASF252:
 24247 0b8d 44485238 		.ascii	"DHR8R1\000"
 24247      523100
 24248              	.LASF255:
 24249 0b94 44485238 		.ascii	"DHR8R2\000"
 24249      523200
 24250              	.LASF557:
 24251 0b9b 44494552 		.ascii	"DIER\000"
 24251      00
 24252              	.LASF284:
 24253 0ba0 41484232 		.ascii	"AHB2LPENR\000"
 24253      4C50454E 
 24253      5200
 24254              	.LASF152:
 24255 0baa 705F6374 		.ascii	"p_ctx\000"
 24255      7800
 24256              	.LASF190:
 24257 0bb0 76745F70 		.ascii	"vt_par\000"
 24257      617200
 24258              	.LASF211:
 24259 0bb7 4A4F4652 		.ascii	"JOFR1\000"
 24259      3100
 24260              	.LASF212:
 24261 0bbd 4A4F4652 		.ascii	"JOFR2\000"
 24261      3200
 24262              	.LASF214:
 24263 0bc3 4A4F4652 		.ascii	"JOFR4\000"
 24263      3400
 24264              	.LASF61:
 24265 0bc9 5F777269 		.ascii	"_write\000"
 24265      746500
 24266              	.LASF310:
 24267 0bd0 54584352 		.ascii	"TXCRCR\000"
 24267      435200
 24268              	.LASF863:
 24269 0bd7 7573625F 		.ascii	"usb_lld_read_setup\000"
 24269      6C6C645F 
 24269      72656164 
 24269      5F736574 
 24269      757000
 24270              	.LASF528:
 24271 0bea 64616364 		.ascii	"dacdhrmode_t\000"
 24271      68726D6F 
 24271      64655F74 
 24271      00
 24272              	.LASF470:
 24273 0bf7 646D6173 		.ascii	"dmastp\000"
 24273      747000
 24274              	.LASF589:
 24275 0bfe 46415354 		.ascii	"FAST_DUTY_CYCLE_16_9\000"
 24275      5F445554 
 24275      595F4359 
 24275      434C455F 
 24275      31365F39 
ARM GAS  C:\Users\mathi\AppData\Local\Temp\ccOm87JI.s 			page 437


 24276              	.LASF887:
 24277 0c13 6F74675F 		.ascii	"otg_do_pop\000"
 24277      646F5F70 
 24277      6F7000
 24278              	.LASF858:
 24279 0c1e 7573625F 		.ascii	"usb_lld_start_out\000"
 24279      6C6C645F 
 24279      73746172 
 24279      745F6F75 
 24279      7400
 24280              	.LASF133:
 24281 0c30 75696E74 		.ascii	"uint64_t\000"
 24281      36345F74 
 24281      00
 24282              	.LASF337:
 24283 0c39 6E5F6374 		.ascii	"n_ctxswc\000"
 24283      78737763 
 24283      00
 24284              	.LASF375:
 24285 0c42 63685F64 		.ascii	"ch_debug\000"
 24285      65627567 
 24285      00
 24286              	.LASF531:
 24287 0c4b 696E6974 		.ascii	"init\000"
 24287      00
 24288              	.LASF239:
 24289 0c50 464D3152 		.ascii	"FM1R\000"
 24289      00
 24290              	.LASF447:
 24291 0c55 50414C43 		.ascii	"PALConfig\000"
 24291      6F6E6669 
 24291      6700
 24292              	.LASF820:
 24293 0c5f 7478636E 		.ascii	"txcnt\000"
 24293      7400
 24294              	.LASF734:
 24295 0c65 75736265 		.ascii	"usbeventcb_t\000"
 24295      76656E74 
 24295      63625F74 
 24295      00
 24296              	.LASF409:
 24297 0c72 424C4B5F 		.ascii	"BLK_ACTIVE\000"
 24297      41435449 
 24297      564500
 24298              	.LASF40:
 24299 0c7d 5F5F746D 		.ascii	"__tm_year\000"
 24299      5F796561 
 24299      7200
 24300              	.LASF377:
 24301 0c87 6576656E 		.ascii	"event_listener_t\000"
 24301      745F6C69 
 24301      7374656E 
 24301      65725F74 
 24301      00
 24302              	.LASF812:
 24303 0c98 6F74675F 		.ascii	"otg_ram_size\000"
 24303      72616D5F 
ARM GAS  C:\Users\mathi\AppData\Local\Temp\ccOm87JI.s 			page 438


 24303      73697A65 
 24303      00
 24304              	.LASF899:
 24305 0ca5 6F74675F 		.ascii	"otg_core_reset\000"
 24305      636F7265 
 24305      5F726573 
 24305      657400
 24306              	.LASF814:
 24307 0cb4 73746D33 		.ascii	"stm32_otg_params_t\000"
 24307      325F6F74 
 24307      675F7061 
 24307      72616D73 
 24307      5F7400
 24308              	.LASF807:
 24309 0cc7 72657376 		.ascii	"resvdD00\000"
 24309      64443030 
 24309      00
 24310              	.LASF309:
 24311 0cd0 52584352 		.ascii	"RXCRCR\000"
 24311      435200
 24312              	.LASF823:
 24313 0cd7 72786275 		.ascii	"rxbuf\000"
 24313      6600
 24314              	.LASF100:
 24315 0cdd 5F6D756C 		.ascii	"_mult\000"
 24315      7400
 24316              	.LASF351:
 24317 0ce3 63685F6D 		.ascii	"ch_mutex\000"
 24317      75746578 
 24317      00
 24318              	.LASF896:
 24319 0cec 6669666F 		.ascii	"fifo\000"
 24319      00
 24320              	.LASF499:
 24321 0cf1 7478656D 		.ascii	"txempty_event\000"
 24321      7074795F 
 24321      6576656E 
 24321      7400
 24322              	.LASF274:
 24323 0cff 41484232 		.ascii	"AHB2RSTR\000"
 24323      52535452 
 24323      00
 24324              	.LASF622:
 24325 0d08 50574D44 		.ascii	"PWMDriver\000"
 24325      72697665 
 24325      7200
 24326              	.LASF444:
 24327 0d12 50474461 		.ascii	"PGData\000"
 24327      746100
 24328              	.LASF631:
 24329 0d19 50574D43 		.ascii	"PWMConfig\000"
 24329      6F6E6669 
 24329      6700
 24330              	.LASF115:
 24331 0d23 5F6D6272 		.ascii	"_mbrlen_state\000"
 24331      6C656E5F 
 24331      73746174 
ARM GAS  C:\Users\mathi\AppData\Local\Temp\ccOm87JI.s 			page 439


 24331      6500
 24332              	.LASF922:
 24333 0d31 76616C75 		.ascii	"value\000"
 24333      6500
 24334              	.LASF365:
 24335 0d37 63665F6F 		.ascii	"cf_off_newer\000"
 24335      66665F6E 
 24335      65776572 
 24335      00
 24336              	.LASF792:
 24337 0d44 44494550 		.ascii	"DIEPMSK\000"
 24337      4D534B00 
 24338              	.LASF759:
 24339 0d4c 474F5447 		.ascii	"GOTGINT\000"
 24339      494E5400 
 24340              	.LASF831:
 24341 0d54 6F75745F 		.ascii	"out_cb\000"
 24341      636200
 24342              	.LASF783:
 24343 0d5b 4841494E 		.ascii	"HAINTMSK\000"
 24343      544D534B 
 24343      00
 24344              	.LASF689:
 24345 0d64 6F75745F 		.ascii	"out_params\000"
 24345      70617261 
 24345      6D7300
 24346              	.LASF322:
 24347 0d6f 73655F77 		.ascii	"se_wtobjp\000"
 24347      746F626A 
 24347      7000
 24348              	.LASF218:
 24349 0d79 4A535152 		.ascii	"JSQR\000"
 24349      00
 24350              	.LASF853:
 24351 0d7e 7573625F 		.ascii	"usb_lld_clear_in\000"
 24351      6C6C645F 
 24351      636C6561 
 24351      725F696E 
 24351      00
 24352              	.LASF74:
 24353 0d8f 5F737464 		.ascii	"_stdin\000"
 24353      696E00
 24354              	.LASF122:
 24355 0d96 5F6E6D61 		.ascii	"_nmalloc\000"
 24355      6C6C6F63 
 24355      00
 24356              	.LASF569:
 24357 0d9f 64696572 		.ascii	"dier\000"
 24357      00
 24358              	.LASF667:
 24359 0da4 69735F70 		.ascii	"is_protected\000"
 24359      726F7465 
 24359      63746564 
 24359      00
 24360              	.LASF184:
 24361 0db1 76697274 		.ascii	"virtual_timer_t\000"
 24361      75616C5F 
ARM GAS  C:\Users\mathi\AppData\Local\Temp\ccOm87JI.s 			page 440


 24361      74696D65 
 24361      725F7400 
 24362              	.LASF833:
 24363 0dc1 6F75745F 		.ascii	"out_maxsize\000"
 24363      6D617873 
 24363      697A6500 
 24364              	.LASF179:
 24365 0dcd 725F6374 		.ascii	"r_ctx\000"
 24365      7800
 24366              	.LASF186:
 24367 0dd3 76745F6E 		.ascii	"vt_next\000"
 24367      65787400 
 24368              	.LASF604:
 24369 0ddb 4932535F 		.ascii	"I2S_STOP\000"
 24369      53544F50 
 24369      00
 24370              	.LASF619:
 24371 0de4 50574D5F 		.ascii	"PWM_STOP\000"
 24371      53544F50 
 24371      00
 24372              	.LASF134:
 24373 0ded 7274636E 		.ascii	"rtcnt_t\000"
 24373      745F7400 
 24374              	.LASF469:
 24375 0df5 6D757465 		.ascii	"mutex\000"
 24375      7800
 24376              	.LASF613:
 24377 0dfb 73697A65 		.ascii	"size\000"
 24377      00
 24378              	.LASF517:
 24379 0e00 44414344 		.ascii	"DACDriver\000"
 24379      72697665 
 24379      7200
 24380              	.LASF533:
 24381 0e0a 44414343 		.ascii	"DACConfig\000"
 24381      6F6E6669 
 24381      6700
 24382              	.LASF700:
 24383 0e14 74787065 		.ascii	"txpending\000"
 24383      6E64696E 
 24383      6700
 24384              	.LASF554:
 24385 0e1e 636C6F63 		.ascii	"clock\000"
 24385      6B00
 24386              	.LASF421:
 24387 0e24 636C6561 		.ascii	"clear\000"
 24387      7200
 24388              	.LASF564:
 24389 0e2a 43435852 		.ascii	"CCXR\000"
 24389      00
 24390              	.LASF248:
 24391 0e2f 43414E5F 		.ascii	"CAN_TypeDef\000"
 24391      54797065 
 24391      44656600 
 24392              	.LASF18:
 24393 0e3b 5F6F6666 		.ascii	"_off_t\000"
 24393      5F7400
ARM GAS  C:\Users\mathi\AppData\Local\Temp\ccOm87JI.s 			page 441


 24394              	.LASF324:
 24395 0e42 63685F73 		.ascii	"ch_swc_event_t\000"
 24395      77635F65 
 24395      76656E74 
 24395      5F7400
 24396              	.LASF637:
 24397 0e51 53445F53 		.ascii	"SD_STOP\000"
 24397      544F5000 
 24398              	.LASF738:
 24399 0e59 72657376 		.ascii	"resvd8\000"
 24399      643800
 24400              	.LASF4:
 24401 0e60 73697A65 		.ascii	"size_t\000"
 24401      5F7400
 24402              	.LASF105:
 24403 0e67 5F6C6F63 		.ascii	"_localtime_buf\000"
 24403      616C7469 
 24403      6D655F62 
 24403      756600
 24404              	.LASF805:
 24405 0e76 72657376 		.ascii	"resvd880\000"
 24405      64383830 
 24405      00
 24406              	.LASF23:
 24407 0e7f 5F5F636F 		.ascii	"__count\000"
 24407      756E7400 
 24408              	.LASF128:
 24409 0e87 75696E74 		.ascii	"uint8_t\000"
 24409      385F7400 
 24410              	.LASF742:
 24411 0e8f 72657376 		.ascii	"resvd14\000"
 24411      64313400 
 24412              	.LASF489:
 24413 0e97 43414E5F 		.ascii	"CAN_UNINIT\000"
 24413      554E494E 
 24413      495400
 24414              	.LASF743:
 24415 0ea2 72657376 		.ascii	"resvd18\000"
 24415      64313800 
 24416              	.LASF181:
 24417 0eaa 725F6F6C 		.ascii	"r_older\000"
 24417      64657200 
 24418              	.LASF150:
 24419 0eb2 705F7072 		.ascii	"p_prev\000"
 24419      657600
 24420              	.LASF367:
 24421 0eb9 63665F6F 		.ascii	"cf_off_name\000"
 24421      66665F6E 
 24421      616D6500 
 24422              	.LASF630:
 24423 0ec5 50574D43 		.ascii	"PWMChannelConfig\000"
 24423      68616E6E 
 24423      656C436F 
 24423      6E666967 
 24423      00
 24424              	.LASF629:
 24425 0ed6 70776D63 		.ascii	"pwmcnt_t\000"
ARM GAS  C:\Users\mathi\AppData\Local\Temp\ccOm87JI.s 			page 442


 24425      6E745F74 
 24425      00
 24426              	.LASF801:
 24427 0edf 44494550 		.ascii	"DIEPEMPMSK\000"
 24427      454D504D 
 24427      534B00
 24428              	.LASF711:
 24429 0eea 45505F53 		.ascii	"EP_STATUS_STALLED\000"
 24429      54415455 
 24429      535F5354 
 24429      414C4C45 
 24429      4400
 24430              	.LASF746:
 24431 0efc 44494550 		.ascii	"DIEPCTL\000"
 24431      43544C00 
 24432              	.LASF383:
 24433 0f04 656C5F77 		.ascii	"el_wflags\000"
 24433      666C6167 
 24433      7300
 24434              	.LASF698:
 24435 0f0e 6F746770 		.ascii	"otgparams\000"
 24435      6172616D 
 24435      7300
 24436              	.LASF325:
 24437 0f18 74625F73 		.ascii	"tb_size\000"
 24437      697A6500 
 24438              	.LASF441:
 24439 0f20 50444461 		.ascii	"PDData\000"
 24439      746100
 24440              	.LASF662:
 24441 0f27 73637261 		.ascii	"scratchpad\000"
 24441      74636870 
 24441      616400
 24442              	.LASF886:
 24443 0f32 6F74675F 		.ascii	"otg_txfifo_handler\000"
 24443      74786669 
 24443      666F5F68 
 24443      616E646C 
 24443      657200
 24444              	.LASF88:
 24445 0f45 5F637674 		.ascii	"_cvtbuf\000"
 24445      62756600 
 24446              	.LASF835:
 24447 0f4d 6F75745F 		.ascii	"out_state\000"
 24447      73746174 
 24447      6500
 24448              	.LASF387:
 24449 0f57 696F5F71 		.ascii	"io_queue_t\000"
 24449      75657565 
 24449      5F7400
 24450              	.LASF872:
 24451 0f62 7573625F 		.ascii	"usb_lld_start\000"
 24451      6C6C645F 
 24451      73746172 
 24451      7400
 24452              	.LASF678:
 24453 0f70 73706973 		.ascii	"spistate_t\000"
ARM GAS  C:\Users\mathi\AppData\Local\Temp\ccOm87JI.s 			page 443


 24453      74617465 
 24453      5F7400
 24454              	.LASF575:
 24455 0f7b 4932435F 		.ascii	"I2C_STOP\000"
 24455      53544F50 
 24455      00
 24456              	.LASF597:
 24457 0f84 61646472 		.ascii	"addr\000"
 24457      00
 24458              	.LASF902:
 24459 0f89 6F73616C 		.ascii	"osalThreadSuspendS\000"
 24459      54687265 
 24459      61645375 
 24459      7370656E 
 24459      645300
 24460              	.LASF233:
 24461 0f9c 52463052 		.ascii	"RF0R\000"
 24461      00
 24462              	.LASF912:
 24463 0fa1 63685468 		.ascii	"chThdStartI\000"
 24463      64537461 
 24463      72744900 
 24464              	.LASF459:
 24465 0fad 4144435F 		.ascii	"ADC_ERR_DMAFAILURE\000"
 24465      4552525F 
 24465      444D4146 
 24465      41494C55 
 24465      524500
 24466              	.LASF676:
 24467 0fc0 5350495F 		.ascii	"SPI_ACTIVE\000"
 24467      41435449 
 24467      564500
 24468              	.LASF314:
 24469 0fcb 47545052 		.ascii	"GTPR\000"
 24469      00
 24470              	.LASF543:
 24471 0fd0 45585443 		.ascii	"EXTChannelConfig\000"
 24471      68616E6E 
 24471      656C436F 
 24471      6E666967 
 24471      00
 24472              	.LASF424:
 24473 0fe1 4F535045 		.ascii	"OSPEEDR\000"
 24473      45445200 
 24474              	.LASF507:
 24475 0fe9 4441435F 		.ascii	"DAC_READY\000"
 24475      52454144 
 24475      5900
 24476              	.LASF770:
 24477 0ff3 72657376 		.ascii	"resvd30\000"
 24477      64333000 
 24478              	.LASF22:
 24479 0ffb 5F5F7763 		.ascii	"__wchb\000"
 24479      686200
 24480              	.LASF116:
 24481 1002 5F6D6272 		.ascii	"_mbrtowc_state\000"
 24481      746F7763 
ARM GAS  C:\Users\mathi\AppData\Local\Temp\ccOm87JI.s 			page 444


 24481      5F737461 
 24481      746500
 24482              	.LASF799:
 24483 1011 44564255 		.ascii	"DVBUSPULSE\000"
 24483      5350554C 
 24483      534500
 24484              	.LASF891:
 24485 101c 6F74675F 		.ascii	"otg_ram_alloc\000"
 24485      72616D5F 
 24485      616C6C6F 
 24485      6300
 24486              	.LASF37:
 24487 102a 5F5F746D 		.ascii	"__tm_hour\000"
 24487      5F686F75 
 24487      7200
 24488              	.LASF408:
 24489 1034 424C4B5F 		.ascii	"BLK_STOP\000"
 24489      53544F50 
 24489      00
 24490              	.LASF645:
 24491 103d 53657269 		.ascii	"SerialDriverVMT\000"
 24491      616C4472 
 24491      69766572 
 24491      564D5400 
 24492              	.LASF720:
 24493 104d 5553425F 		.ascii	"USB_EP0_ERROR\000"
 24493      4550305F 
 24493      4552524F 
 24493      5200
 24494              	.LASF20:
 24495 105b 77696E74 		.ascii	"wint_t\000"
 24495      5F7400
 24496              	.LASF668:
 24497 1062 636F6E6E 		.ascii	"connect\000"
 24497      65637400 
 24498              	.LASF89:
 24499 106a 5F6E6577 		.ascii	"_new\000"
 24499      00
 24500              	.LASF462:
 24501 106f 41444344 		.ascii	"ADCDriver\000"
 24501      72697665 
 24501      7200
 24502              	.LASF813:
 24503 1079 6E756D5F 		.ascii	"num_endpoints\000"
 24503      656E6470 
 24503      6F696E74 
 24503      7300
 24504              	.LASF485:
 24505 1087 41444343 		.ascii	"ADCConfig\000"
 24505      6F6E6669 
 24505      6700
 24506              	.LASF821:
 24507 1091 746F7473 		.ascii	"totsize\000"
 24507      697A6500 
 24508              	.LASF96:
 24509 1099 5F6E696F 		.ascii	"_niobs\000"
 24509      627300
ARM GAS  C:\Users\mathi\AppData\Local\Temp\ccOm87JI.s 			page 445


 24510              	.LASF368:
 24511 10a0 63665F6F 		.ascii	"cf_off_stklimit\000"
 24511      66665F73 
 24511      746B6C69 
 24511      6D697400 
 24512              	.LASF638:
 24513 10b0 53445F52 		.ascii	"SD_READY\000"
 24513      45414459 
 24513      00
 24514              	.LASF736:
 24515 10b9 75736267 		.ascii	"usbgetdescriptor_t\000"
 24515      65746465 
 24515      73637269 
 24515      70746F72 
 24515      5F7400
 24516              	.LASF510:
 24517 10cc 4441435F 		.ascii	"DAC_ERROR\000"
 24517      4552524F 
 24517      5200
 24518              	.LASF182:
 24519 10d6 725F6375 		.ascii	"r_current\000"
 24519      7272656E 
 24519      7400
 24520              	.LASF73:
 24521 10e0 5F657272 		.ascii	"_errno\000"
 24521      6E6F00
 24522              	.LASF715:
 24523 10e7 5553425F 		.ascii	"USB_EP0_TX\000"
 24523      4550305F 
 24523      545800
 24524              	.LASF690:
 24525 10f2 65703073 		.ascii	"ep0state\000"
 24525      74617465 
 24525      00
 24526              	.LASF38:
 24527 10fb 5F5F746D 		.ascii	"__tm_mday\000"
 24527      5F6D6461 
 24527      7900
 24528              	.LASF401:
 24529 1105 69666372 		.ascii	"ifcr\000"
 24529      00
 24530              	.LASF874:
 24531 110a 56656374 		.ascii	"Vector14C\000"
 24531      6F723134 
 24531      4300
 24532              	.LASF603:
 24533 1114 4932535F 		.ascii	"I2S_UNINIT\000"
 24533      554E494E 
 24533      495400
 24534              	.LASF430:
 24535 111f 73746D33 		.ascii	"stm32_gpio_t\000"
 24535      325F6770 
 24535      696F5F74 
 24535      00
 24536              	.LASF341:
 24537 112c 7264796D 		.ascii	"rdymsg\000"
 24537      736700
ARM GAS  C:\Users\mathi\AppData\Local\Temp\ccOm87JI.s 			page 446


 24538              	.LASF45:
 24539 1133 5F666E61 		.ascii	"_fnargs\000"
 24539      72677300 
 24540              	.LASF620:
 24541 113b 50574D5F 		.ascii	"PWM_READY\000"
 24541      52454144 
 24541      5900
 24542              	.LASF224:
 24543 1145 54445452 		.ascii	"TDTR\000"
 24543      00
 24544              	.LASF947:
 24545 114a 5F706F72 		.ascii	"_port_irq_epilogue\000"
 24545      745F6972 
 24545      715F6570 
 24545      696C6F67 
 24545      756500
 24546              	.LASF232:
 24547 115d 43414E5F 		.ascii	"CAN_FilterRegister_TypeDef\000"
 24547      46696C74 
 24547      65725265 
 24547      67697374 
 24547      65725F54 
 24548              	.LASF500:
 24549 1178 6572726F 		.ascii	"error_event\000"
 24549      725F6576 
 24549      656E7400 
 24550              	.LASF475:
 24551 1184 6E756D5F 		.ascii	"num_channels\000"
 24551      6368616E 
 24551      6E656C73 
 24551      00
 24552              	.LASF213:
 24553 1191 4A4F4652 		.ascii	"JOFR3\000"
 24553      3300
 24554              	.LASF773:
 24555 1197 72657376 		.ascii	"resvd58\000"
 24555      64353800 
 24556              	.LASF822:
 24557 119f 55534249 		.ascii	"USBInEndpointState\000"
 24557      6E456E64 
 24557      706F696E 
 24557      74537461 
 24557      746500
 24558              	.LASF151:
 24559 11b2 705F7072 		.ascii	"p_prio\000"
 24559      696F00
 24560              	.LASF388:
 24561 11b9 696F5F71 		.ascii	"io_queue\000"
 24561      75657565 
 24561      00
 24562              	.LASF438:
 24563 11c2 50414461 		.ascii	"PAData\000"
 24563      746100
 24564              	.LASF15:
 24565 11c9 5F5F7569 		.ascii	"__uint64_t\000"
 24565      6E743634 
 24565      5F7400
ARM GAS  C:\Users\mathi\AppData\Local\Temp\ccOm87JI.s 			page 447


 24566              	.LASF855:
 24567 11d4 7573625F 		.ascii	"usb_lld_stall_in\000"
 24567      6C6C645F 
 24567      7374616C 
 24567      6C5F696E 
 24567      00
 24568              	.LASF29:
 24569 11e5 5F6E6578 		.ascii	"_next\000"
 24569      7400
 24570              	.LASF625:
 24571 11eb 70776D63 		.ascii	"pwmcallback_t\000"
 24571      616C6C62 
 24571      61636B5F 
 24571      7400
 24572              	.LASF518:
 24573 11f9 70617261 		.ascii	"params\000"
 24573      6D7300
 24574              	.LASF719:
 24575 1200 5553425F 		.ascii	"USB_EP0_SENDING_STS\000"
 24575      4550305F 
 24575      53454E44 
 24575      494E475F 
 24575      53545300 
 24576              	.LASF113:
 24577 1214 5F736967 		.ascii	"_signal_buf\000"
 24577      6E616C5F 
 24577      62756600 
 24578              	.LASF580:
 24579 1220 69326373 		.ascii	"i2cstate_t\000"
 24579      74617465 
 24579      5F7400
 24580              	.LASF59:
 24581 122b 5F636F6F 		.ascii	"_cookie\000"
 24581      6B696500 
 24582              	.LASF900:
 24583 1233 6F73616C 		.ascii	"osalThreadDequeueAllI\000"
 24583      54687265 
 24583      61644465 
 24583      71756575 
 24583      65416C6C 
 24584              	.LASF721:
 24585 1249 75736265 		.ascii	"usbep0state_t\000"
 24585      70307374 
 24585      6174655F 
 24585      7400
 24586              	.LASF522:
 24587 1257 64616365 		.ascii	"dacerror_t\000"
 24587      72726F72 
 24587      5F7400
 24588              	.LASF236:
 24589 1262 7354784D 		.ascii	"sTxMailBox\000"
 24589      61696C42 
 24589      6F7800
 24590              	.LASF457:
 24591 126d 61646373 		.ascii	"adcsample_t\000"
 24591      616D706C 
 24591      655F7400 
ARM GAS  C:\Users\mathi\AppData\Local\Temp\ccOm87JI.s 			page 448


 24592              	.LASF555:
 24593 1279 67707463 		.ascii	"gptcallback_t\000"
 24593      616C6C62 
 24593      61636B5F 
 24593      7400
 24594              	.LASF391:
 24595 1287 715F6275 		.ascii	"q_buffer\000"
 24595      66666572 
 24595      00
 24596              	.LASF277:
 24597 1290 41504232 		.ascii	"APB2RSTR\000"
 24597      52535452 
 24597      00
 24598              	.LASF149:
 24599 1299 705F6E65 		.ascii	"p_next\000"
 24599      787400
 24600              	.LASF602:
 24601 12a0 49324344 		.ascii	"I2CD1\000"
 24601      3100
 24602              	.LASF747:
 24603 12a6 72657376 		.ascii	"resvd4\000"
 24603      643400
 24604              	.LASF685:
 24605 12ad 55534244 		.ascii	"USBDriver\000"
 24605      72697665 
 24605      7200
 24606              	.LASF806:
 24607 12b7 72657376 		.ascii	"resvd8C0\000"
 24607      64384330 
 24607      00
 24608              	.LASF843:
 24609 12c0 55534243 		.ascii	"USBConfig\000"
 24609      6F6E6669 
 24609      6700
 24610              	.LASF749:
 24611 12ca 72657376 		.ascii	"resvdC\000"
 24611      644300
 24612              	.LASF632:
 24613 12d1 50574D44 		.ascii	"PWMD2\000"
 24613      3200
 24614              	.LASF633:
 24615 12d7 50574D44 		.ascii	"PWMD3\000"
 24615      3300
 24616              	.LASF634:
 24617 12dd 50574D44 		.ascii	"PWMD4\000"
 24617      3400
 24618              	.LASF635:
 24619 12e3 50574D44 		.ascii	"PWMD5\000"
 24619      3500
 24620              	.LASF286:
 24621 12e9 41504231 		.ascii	"APB1LPENR\000"
 24621      4C50454E 
 24621      5200
 24622              	.LASF643:
 24623 12f3 6F717565 		.ascii	"oqueue\000"
 24623      756500
 24624              	.LASF138:
ARM GAS  C:\Users\mathi\AppData\Local\Temp\ccOm87JI.s 			page 449


 24625 12fa 74726566 		.ascii	"trefs_t\000"
 24625      735F7400 
 24626              	.LASF168:
 24627 1302 705F6D70 		.ascii	"p_mpool\000"
 24627      6F6F6C00 
 24628              	.LASF270:
 24629 130a 4932435F 		.ascii	"I2C_TypeDef\000"
 24629      54797065 
 24629      44656600 
 24630              	.LASF895:
 24631 1316 6F74675F 		.ascii	"otg_txfifo_flush\000"
 24631      74786669 
 24631      666F5F66 
 24631      6C757368 
 24631      00
 24632              	.LASF530:
 24633 1327 44414343 		.ascii	"DACConversionGroup\000"
 24633      6F6E7665 
 24633      7273696F 
 24633      6E47726F 
 24633      757000
 24634              	.LASF35:
 24635 133a 5F5F746D 		.ascii	"__tm_sec\000"
 24635      5F736563 
 24635      00
 24636              	.LASF836:
 24637 1343 696E5F6D 		.ascii	"in_multiplier\000"
 24637      756C7469 
 24637      706C6965 
 24637      7200
 24638              	.LASF455:
 24639 1351 4144435F 		.ascii	"ADC_ERROR\000"
 24639      4552524F 
 24639      5200
 24640              	.LASF44:
 24641 135b 5F6F6E5F 		.ascii	"_on_exit_args\000"
 24641      65786974 
 24641      5F617267 
 24641      7300
 24642              	.LASF318:
 24643 1369 636F6E74 		.ascii	"context\000"
 24643      65787400 
 24644              	.LASF136:
 24645 1371 746D6F64 		.ascii	"tmode_t\000"
 24645      655F7400 
 24646              	.LASF936:
 24647 1379 5F746872 		.ascii	"_thread_memfill\000"
 24647      6561645F 
 24647      6D656D66 
 24647      696C6C00 
 24648              	.LASF280:
 24649 1389 41484233 		.ascii	"AHB3ENR\000"
 24649      454E5200 
 24650              	.LASF453:
 24651 1391 4144435F 		.ascii	"ADC_ACTIVE\000"
 24651      41435449 
 24651      564500
ARM GAS  C:\Users\mathi\AppData\Local\Temp\ccOm87JI.s 			page 450


 24652              	.LASF215:
 24653 139c 53515231 		.ascii	"SQR1\000"
 24653      00
 24654              	.LASF216:
 24655 13a1 53515232 		.ascii	"SQR2\000"
 24655      00
 24656              	.LASF217:
 24657 13a6 53515233 		.ascii	"SQR3\000"
 24657      00
 24658              	.LASF426:
 24659 13ab 42535252 		.ascii	"BSRR\000"
 24659      00
 24660              	.LASF405:
 24661 13b0 73746D33 		.ascii	"stm32_dma_stream_t\000"
 24661      325F646D 
 24661      615F7374 
 24661      7265616D 
 24661      5F7400
 24662              	.LASF841:
 24663 13c3 72657175 		.ascii	"requests_hook_cb\000"
 24663      65737473 
 24663      5F686F6F 
 24663      6B5F6362 
 24663      00
 24664              	.LASF118:
 24665 13d4 5F776372 		.ascii	"_wcrtomb_state\000"
 24665      746F6D62 
 24665      5F737461 
 24665      746500
 24666              	.LASF654:
 24667 13e3 5344435F 		.ascii	"SDC_MODE_8BIT\000"
 24667      4D4F4445 
 24667      5F384249 
 24667      5400
 24668              	.LASF819:
 24669 13f1 74787369 		.ascii	"txsize\000"
 24669      7A6500
 24670              	.LASF526:
 24671 13f8 4441435F 		.ascii	"DAC_DHRM_12BIT_LEFT\000"
 24671      4448524D 
 24671      5F313242 
 24671      49545F4C 
 24671      45465400 
 24672              	.LASF623:
 24673 140c 70657269 		.ascii	"period\000"
 24673      6F6400
 24674              	.LASF352:
 24675 1413 6D5F7175 		.ascii	"m_queue\000"
 24675      65756500 
 24676              	.LASF869:
 24677 141b 7573625F 		.ascii	"usb_lld_set_address\000"
 24677      6C6C645F 
 24677      7365745F 
 24677      61646472 
 24677      65737300 
 24678              	.LASF579:
 24679 142f 4932435F 		.ascii	"I2C_LOCKED\000"
ARM GAS  C:\Users\mathi\AppData\Local\Temp\ccOm87JI.s 			page 451


 24679      4C4F434B 
 24679      454400
 24680              	.LASF197:
 24681 143a 6973725F 		.ascii	"isr_cnt\000"
 24681      636E7400 
 24682              	.LASF706:
 24683 1442 5553425F 		.ascii	"USB_READY\000"
 24683      52454144 
 24683      5900
 24684              	.LASF651:
 24685 144c 72656164 		.ascii	"readt\000"
 24685      7400
 24686              	.LASF762:
 24687 1452 47525354 		.ascii	"GRSTCTL\000"
 24687      43544C00 
 24688              	.LASF552:
 24689 145a 67707473 		.ascii	"gptstate_t\000"
 24689      74617465 
 24689      5F7400
 24690              	.LASF28:
 24691 1465 5F5F554C 		.ascii	"__ULong\000"
 24691      6F6E6700 
 24692              	.LASF196:
 24693 146d 70616E69 		.ascii	"panic_msg\000"
 24693      635F6D73 
 24693      6700
 24694              	.LASF677:
 24695 1477 5350495F 		.ascii	"SPI_COMPLETE\000"
 24695      434F4D50 
 24695      4C455445 
 24695      00
 24696              	.LASF300:
 24697 1484 4454494D 		.ascii	"DTIMER\000"
 24697      455200
 24698              	.LASF180:
 24699 148b 725F6E65 		.ascii	"r_newer\000"
 24699      77657200 
 24700              	.LASF727:
 24701 1493 5553425F 		.ascii	"USB_EVENT_STALLED\000"
 24701      4556454E 
 24701      545F5354 
 24701      414C4C45 
 24701      4400
 24702              	.LASF930:
 24703 14a5 63685468 		.ascii	"chThdSuspendS\000"
 24703      64537573 
 24703      70656E64 
 24703      5300
 24704              	.LASF278:
 24705 14b3 41484231 		.ascii	"AHB1ENR\000"
 24705      454E5200 
 24706              	.LASF374:
 24707 14bb 63686465 		.ascii	"chdebug_t\000"
 24707      6275675F 
 24707      7400
 24708              	.LASF918:
 24709 14c5 706F7274 		.ascii	"port_lock_from_isr\000"
ARM GAS  C:\Users\mathi\AppData\Local\Temp\ccOm87JI.s 			page 452


 24709      5F6C6F63 
 24709      6B5F6672 
 24709      6F6D5F69 
 24709      737200
 24710              	.LASF925:
 24711 14d8 5F646267 		.ascii	"_dbg_check_unlock\000"
 24711      5F636865 
 24711      636B5F75 
 24711      6E6C6F63 
 24711      6B00
 24712              	.LASF825:
 24713 14ea 72787369 		.ascii	"rxsize\000"
 24713      7A6500
 24714              	.LASF866:
 24715 14f1 7573625F 		.ascii	"usb_lld_disable_endpoints\000"
 24715      6C6C645F 
 24715      64697361 
 24715      626C655F 
 24715      656E6470 
 24716              	.LASF741:
 24717 150b 48435453 		.ascii	"HCTSIZ\000"
 24717      495A00
 24718              	.LASF724:
 24719 1512 5553425F 		.ascii	"USB_EVENT_CONFIGURED\000"
 24719      4556454E 
 24719      545F434F 
 24719      4E464947 
 24719      55524544 
 24720              	.LASF669:
 24721 1527 64697363 		.ascii	"disconnect\000"
 24721      6F6E6E65 
 24721      637400
 24722              	.LASF648:
 24723 1532 70757474 		.ascii	"putt\000"
 24723      00
 24724              	.LASF139:
 24725 1537 74736C69 		.ascii	"tslices_t\000"
 24725      6365735F 
 24725      7400
 24726              	.LASF103:
 24727 1541 5F737472 		.ascii	"_strtok_last\000"
 24727      746F6B5F 
 24727      6C617374 
 24727      00
 24728              	.LASF950:
 24729 154e 433A5C55 		.ascii	"C:\\Users\\mathi\\Documents\\robotique\\robotics_pr"
 24729      73657273 
 24729      5C6D6174 
 24729      68695C44 
 24729      6F63756D 
 24730 157c 6F6A6563 		.ascii	"oject\\robotics_project\\robotics_project\000"
 24730      745C726F 
 24730      626F7469 
 24730      63735F70 
 24730      726F6A65 
 24731              	.LASF870:
 24732 15a4 7573625F 		.ascii	"usb_lld_reset\000"
ARM GAS  C:\Users\mathi\AppData\Local\Temp\ccOm87JI.s 			page 453


 24732      6C6C645F 
 24732      72657365 
 24732      7400
 24733              	.LASF272:
 24734 15b2 43464752 		.ascii	"CFGR\000"
 24734      00
 24735              	.LASF702:
 24736 15b7 77615F70 		.ascii	"wa_pump\000"
 24736      756D7000 
 24737              	.LASF305:
 24738 15bf 4649464F 		.ascii	"FIFOCNT\000"
 24738      434E5400 
 24739              	.LASF386:
 24740 15c7 6576656E 		.ascii	"event_source_t\000"
 24740      745F736F 
 24740      75726365 
 24740      5F7400
 24741              	.LASF776:
 24742 15d6 72657376 		.ascii	"resvd140\000"
 24742      64313430 
 24742      00
 24743              	.LASF188:
 24744 15df 76745F64 		.ascii	"vt_delta\000"
 24744      656C7461 
 24744      00
 24745              	.LASF864:
 24746 15e8 7573625F 		.ascii	"usb_lld_get_status_in\000"
 24746      6C6C645F 
 24746      6765745F 
 24746      73746174 
 24746      75735F69 
 24747              	.LASF99:
 24748 15fe 5F736565 		.ascii	"_seed\000"
 24748      6400
 24749              	.LASF326:
 24750 1604 74625F70 		.ascii	"tb_ptr\000"
 24750      747200
 24751              	.LASF529:
 24752 160b 74726967 		.ascii	"trigger\000"
 24752      67657200 
 24753              	.LASF62:
 24754 1613 5F736565 		.ascii	"_seek\000"
 24754      6B00
 24755              	.LASF725:
 24756 1619 5553425F 		.ascii	"USB_EVENT_SUSPEND\000"
 24756      4556454E 
 24756      545F5355 
 24756      5350454E 
 24756      4400
 24757              	.LASF129:
 24758 162b 696E7431 		.ascii	"int16_t\000"
 24758      365F7400 
 24759              	.LASF548:
 24760 1633 4750545F 		.ascii	"GPT_STOP\000"
 24760      53544F50 
 24760      00
 24761              	.LASF223:
ARM GAS  C:\Users\mathi\AppData\Local\Temp\ccOm87JI.s 			page 454


 24762 163c 4144435F 		.ascii	"ADC_TypeDef\000"
 24762      54797065 
 24762      44656600 
 24763              	.LASF754:
 24764 1648 444F4550 		.ascii	"DOEPCTL\000"
 24764      43544C00 
 24765              	.LASF10:
 24766 1650 73686F72 		.ascii	"short unsigned int\000"
 24766      7420756E 
 24766      7369676E 
 24766      65642069 
 24766      6E7400
 24767              	.LASF591:
 24768 1663 6F705F6D 		.ascii	"op_mode\000"
 24768      6F646500 
 24769              	.LASF3:
 24770 166b 7369676E 		.ascii	"signed char\000"
 24770      65642063 
 24770      68617200 
 24771              	.LASF628:
 24772 1677 70776D63 		.ascii	"pwmchnmsk_t\000"
 24772      686E6D73 
 24772      6B5F7400 
 24773              	.LASF938:
 24774 1683 5F737461 		.ascii	"_stats_start_measure_crit_isr\000"
 24774      74735F73 
 24774      74617274 
 24774      5F6D6561 
 24774      73757265 
 24775              	.LASF160:
 24776 16a1 705F7072 		.ascii	"p_preempt\000"
 24776      65656D70 
 24776      7400
 24777              	.LASF605:
 24778 16ab 4932535F 		.ascii	"I2S_READY\000"
 24778      52454144 
 24778      5900
 24779              	.LASF145:
 24780 16b5 75636E74 		.ascii	"ucnt_t\000"
 24780      5F7400
 24781              	.LASF226:
 24782 16bc 54444852 		.ascii	"TDHR\000"
 24782      00
 24783              	.LASF868:
 24784 16c1 6673697A 		.ascii	"fsize\000"
 24784      6500
 24785              	.LASF451:
 24786 16c7 4144435F 		.ascii	"ADC_STOP\000"
 24786      53544F50 
 24786      00
 24787              	.LASF718:
 24788 16d0 5553425F 		.ascii	"USB_EP0_RX\000"
 24788      4550305F 
 24788      525800
 24789              	.LASF626:
 24790 16db 70776D6D 		.ascii	"pwmmode_t\000"
 24790      6F64655F 
ARM GAS  C:\Users\mathi\AppData\Local\Temp\ccOm87JI.s 			page 455


 24790      7400
 24791              	.LASF695:
 24792 16e5 73746174 		.ascii	"status\000"
 24792      757300
 24793              	.LASF301:
 24794 16ec 444C454E 		.ascii	"DLEN\000"
 24794      00
 24795              	.LASF290:
 24796 16f1 53534347 		.ascii	"SSCGR\000"
 24796      5200
 24797              	.LASF653:
 24798 16f7 5344435F 		.ascii	"SDC_MODE_4BIT\000"
 24798      4D4F4445 
 24798      5F344249 
 24798      5400
 24799              	.LASF731:
 24800 1705 55534244 		.ascii	"USBDescriptor\000"
 24800      65736372 
 24800      6970746F 
 24800      7200
 24801              	.LASF680:
 24802 1713 73706963 		.ascii	"spicallback_t\000"
 24802      616C6C62 
 24802      61636B5F 
 24802      7400
 24803              	.LASF881:
 24804 1721 6669666F 		.ascii	"fifop\000"
 24804      7000
 24805              	.LASF86:
 24806 1727 5F667265 		.ascii	"_freelist\000"
 24806      656C6973 
 24806      7400
 24807              	.LASF935:
 24808 1731 63685468 		.ascii	"chThdCreateI\000"
 24808      64437265 
 24808      61746549 
 24808      00
 24809              	.LASF696:
 24810 173e 61646472 		.ascii	"address\000"
 24810      65737300 
 24811              	.LASF865:
 24812 1746 7573625F 		.ascii	"usb_lld_get_status_out\000"
 24812      6C6C645F 
 24812      6765745F 
 24812      73746174 
 24812      75735F6F 
 24813              	.LASF163:
 24814 175d 705F6D73 		.ascii	"p_msgqueue\000"
 24814      67717565 
 24814      756500
 24815              	.LASF371:
 24816 1768 63665F6F 		.ascii	"cf_off_refs\000"
 24816      66665F72 
 24816      65667300 
 24817              	.LASF369:
 24818 1774 63665F6F 		.ascii	"cf_off_state\000"
 24818      66665F73 
ARM GAS  C:\Users\mathi\AppData\Local\Temp\ccOm87JI.s 			page 456


 24818      74617465 
 24818      00
 24819              	.LASF353:
 24820 1781 6D5F6F77 		.ascii	"m_owner\000"
 24820      6E657200 
 24821              	.LASF67:
 24822 1789 5F6F6666 		.ascii	"_offset\000"
 24822      73657400 
 24823              	.LASF208:
 24824 1791 53797374 		.ascii	"SystemCoreClock\000"
 24824      656D436F 
 24824      7265436C 
 24824      6F636B00 
 24825              	.LASF473:
 24826 17a1 61646365 		.ascii	"adcerrorcallback_t\000"
 24826      72726F72 
 24826      63616C6C 
 24826      6261636B 
 24826      5F7400
 24827              	.LASF907:
 24828 17b4 6F73616C 		.ascii	"osalSysLockFromISR\000"
 24828      5379734C 
 24828      6F636B46 
 24828      726F6D49 
 24828      535200
 24829              	.LASF508:
 24830 17c7 4441435F 		.ascii	"DAC_ACTIVE\000"
 24830      41435449 
 24830      564500
 24831              	.LASF937:
 24832 17d2 7573624F 		.ascii	"usbObjectInit\000"
 24832      626A6563 
 24832      74496E69 
 24832      7400
 24833              	.LASF463:
 24834 17e0 73746174 		.ascii	"state\000"
 24834      6500
 24835              	.LASF359:
 24836 17e6 63685F76 		.ascii	"ch_version\000"
 24836      65727369 
 24836      6F6E00
 24837              	.LASF52:
 24838 17f1 5F5F7362 		.ascii	"__sbuf\000"
 24838      756600
 24839              	.LASF661:
 24840 17f8 7364696F 		.ascii	"sdio\000"
 24840      00
 24841              	.LASF249:
 24842 17fd 53575452 		.ascii	"SWTRIGR\000"
 24842      49475200 
 24843              	.LASF717:
 24844 1805 5553425F 		.ascii	"USB_EP0_WAITING_STS\000"
 24844      4550305F 
 24844      57414954 
 24844      494E475F 
 24844      53545300 
 24845              	.LASF112:
ARM GAS  C:\Users\mathi\AppData\Local\Temp\ccOm87JI.s 			page 457


 24846 1819 5F6C3634 		.ascii	"_l64a_buf\000"
 24846      615F6275 
 24846      6600
 24847              	.LASF873:
 24848 1823 7573625F 		.ascii	"usb_lld_init\000"
 24848      6C6C645F 
 24848      696E6974 
 24848      00
 24849              	.LASF230:
 24850 1830 52444852 		.ascii	"RDHR\000"
 24850      00
 24851              	.LASF562:
 24852 1835 444D4152 		.ascii	"DMAR\000"
 24852      00
 24853              	.LASF568:
 24854 183a 63616C6C 		.ascii	"callback\000"
 24854      6261636B 
 24854      00
 24855              	.LASF201:
 24856 1843 63685F73 		.ascii	"ch_system\000"
 24856      79737465 
 24856      6D00
 24857              	.LASF293:
 24858 184d 504F5745 		.ascii	"POWER\000"
 24858      5200
 24859              	.LASF291:
 24860 1853 504C4C49 		.ascii	"PLLI2SCFGR\000"
 24860      32534346 
 24860      475200
 24861              	.LASF199:
 24862 185e 74726163 		.ascii	"trace_buffer\000"
 24862      655F6275 
 24862      66666572 
 24862      00
 24863              	.LASF104:
 24864 186b 5F617363 		.ascii	"_asctime_buf\000"
 24864      74696D65 
 24864      5F627566 
 24864      00
 24865              	.LASF527:
 24866 1878 4441435F 		.ascii	"DAC_DHRM_8BIT_RIGHT\000"
 24866      4448524D 
 24866      5F384249 
 24866      545F5249 
 24866      47485400 
 24867              	.LASF547:
 24868 188c 4750545F 		.ascii	"GPT_UNINIT\000"
 24868      554E494E 
 24868      495400
 24869              	.LASF875:
 24870 1897 7573625F 		.ascii	"usb_lld_serve_interrupt\000"
 24870      6C6C645F 
 24870      73657276 
 24870      655F696E 
 24870      74657272 
 24871              	.LASF21:
 24872 18af 5F5F7763 		.ascii	"__wch\000"
ARM GAS  C:\Users\mathi\AppData\Local\Temp\ccOm87JI.s 			page 458


 24872      6800
 24873              	.LASF348:
 24874 18b5 63685F73 		.ascii	"ch_semaphore\000"
 24874      656D6170 
 24874      686F7265 
 24874      00
 24875              	.LASF119:
 24876 18c2 5F776373 		.ascii	"_wcsrtombs_state\000"
 24876      72746F6D 
 24876      62735F73 
 24876      74617465 
 24876      00
 24877              	.LASF890:
 24878 18d3 6F74675F 		.ascii	"otg_do_push\000"
 24878      646F5F70 
 24878      75736800 
 24879              	.LASF750:
 24880 18df 44494550 		.ascii	"DIEPTSIZ\000"
 24880      5453495A 
 24880      00
 24881              	.LASF919:
 24882 18e8 706F7274 		.ascii	"port_unlock\000"
 24882      5F756E6C 
 24882      6F636B00 
 24883              	.LASF478:
 24884 18f4 736D7072 		.ascii	"smpr1\000"
 24884      3100
 24885              	.LASF479:
 24886 18fa 736D7072 		.ascii	"smpr2\000"
 24886      3200
 24887              	.LASF173:
 24888 1900 74687265 		.ascii	"threads_queue_t\000"
 24888      6164735F 
 24888      71756575 
 24888      655F7400 
 24889              	.LASF416:
 24890 1910 626C6B73 		.ascii	"blkstate_t\000"
 24890      74617465 
 24890      5F7400
 24891              	.LASF916:
 24892 191b 63685379 		.ascii	"chSysLock\000"
 24892      734C6F63 
 24892      6B00
 24893              	.LASF161:
 24894 1925 705F7469 		.ascii	"p_time\000"
 24894      6D6500
 24895              	.LASF159:
 24896 192c 705F7265 		.ascii	"p_refs\000"
 24896      667300
 24897              	.LASF828:
 24898 1933 65705F6D 		.ascii	"ep_mode\000"
 24898      6F646500 
 24899              	.LASF627:
 24900 193b 70776D63 		.ascii	"pwmchannel_t\000"
 24900      68616E6E 
 24900      656C5F74 
 24900      00
ARM GAS  C:\Users\mathi\AppData\Local\Temp\ccOm87JI.s 			page 459


 24901              	.LASF225:
 24902 1948 54444C52 		.ascii	"TDLR\000"
 24902      00
 24903              	.LASF12:
 24904 194d 6C6F6E67 		.ascii	"long int\000"
 24904      20696E74 
 24904      00
 24905              	.LASF204:
 24906 1956 6D61696E 		.ascii	"mainthread\000"
 24906      74687265 
 24906      616400
 24907              	.LASF692:
 24908 1961 6570306E 		.ascii	"ep0n\000"
 24908      00
 24909              	.LASF809:
 24910 1966 72657376 		.ascii	"resvdE04\000"
 24910      64453034 
 24910      00
 24911              	.LASF581:
 24912 196f 69326361 		.ascii	"i2caddr_t\000"
 24912      6464725F 
 24912      7400
 24913              	.LASF111:
 24914 1979 5F776374 		.ascii	"_wctomb_state\000"
 24914      6F6D625F 
 24914      73746174 
 24914      6500
 24915              	.LASF515:
 24916 1987 646D6169 		.ascii	"dmairqprio\000"
 24916      72717072 
 24916      696F00
 24917              	.LASF553:
 24918 1992 47505444 		.ascii	"GPTDriver\000"
 24918      72697665 
 24918      7200
 24919              	.LASF275:
 24920 199c 41484233 		.ascii	"AHB3RSTR\000"
 24920      52535452 
 24920      00
 24921              	.LASF390:
 24922 19a5 715F636F 		.ascii	"q_counter\000"
 24922      756E7465 
 24922      7200
 24923              	.LASF445:
 24924 19af 50484461 		.ascii	"PHData\000"
 24924      746100
 24925              	.LASF448:
 24926 19b6 696F706F 		.ascii	"ioportid_t\000"
 24926      72746964 
 24926      5F7400
 24927              	.LASF486:
 24928 19c1 41444344 		.ascii	"ADCD1\000"
 24928      3100
 24929              	.LASF487:
 24930 19c7 41444344 		.ascii	"ADCD2\000"
 24930      3200
 24931              	.LASF488:
ARM GAS  C:\Users\mathi\AppData\Local\Temp\ccOm87JI.s 			page 460


 24932 19cd 41444344 		.ascii	"ADCD3\000"
 24932      3300
 24933              	.LASF777:
 24934 19d3 48434647 		.ascii	"HCFG\000"
 24934      00
 24935              	.LASF471:
 24936 19d8 646D616D 		.ascii	"dmamode\000"
 24936      6F646500 
 24937              	.LASF334:
 24938 19e0 63756D75 		.ascii	"cumulative\000"
 24938      6C617469 
 24938      766500
 24939              	.LASF97:
 24940 19eb 5F696F62 		.ascii	"_iobs\000"
 24940      7300
 24941              	.LASF78:
 24942 19f1 5F656D65 		.ascii	"_emergency\000"
 24942      7267656E 
 24942      637900
 24943              	.LASF649:
 24944 19fc 67657474 		.ascii	"gett\000"
 24944      00
 24945              	.LASF344:
 24946 1a01 77747472 		.ascii	"wttrp\000"
 24946      7000
 24947              	.LASF394:
 24948 1a07 715F7264 		.ascii	"q_rdptr\000"
 24948      70747200 
 24949              	.LASF121:
 24950 1a0f 5F6E6578 		.ascii	"_nextf\000"
 24950      746600
 24951              	.LASF646:
 24952 1a16 77726974 		.ascii	"write\000"
 24952      6500
 24953              	.LASF107:
 24954 1a1c 5F72616E 		.ascii	"_rand_next\000"
 24954      645F6E65 
 24954      787400
 24955              	.LASF642:
 24956 1a27 69717565 		.ascii	"iqueue\000"
 24956      756500
 24957              	.LASF830:
 24958 1a2e 696E5F63 		.ascii	"in_cb\000"
 24958      6200
 24959              	.LASF755:
 24960 1a34 444F4550 		.ascii	"DOEPINT\000"
 24960      494E5400 
 24961              	.LASF333:
 24962 1a3c 6C617374 		.ascii	"last\000"
 24962      00
 24963              	.LASF427:
 24964 1a41 4C434B52 		.ascii	"LCKR\000"
 24964      00
 24965              	.LASF639:
 24966 1a46 73647374 		.ascii	"sdstate_t\000"
 24966      6174655F 
 24966      7400
ARM GAS  C:\Users\mathi\AppData\Local\Temp\ccOm87JI.s 			page 461


 24967              	.LASF132:
 24968 1a50 75696E74 		.ascii	"uint32_t\000"
 24968      33325F74 
 24968      00
 24969              	.LASF512:
 24970 1a59 64617461 		.ascii	"dataoffset\000"
 24970      6F666673 
 24970      657400
 24971              	.LASF30:
 24972 1a64 5F6D6178 		.ascii	"_maxwds\000"
 24972      77647300 
 24973              	.LASF414:
 24974 1a6c 424C4B5F 		.ascii	"BLK_WRITING\000"
 24974      57524954 
 24974      494E4700 
 24975              	.LASF229:
 24976 1a78 52444C52 		.ascii	"RDLR\000"
 24976      00
 24977              	.LASF920:
 24978 1a7d 706F7274 		.ascii	"port_lock\000"
 24978      5F6C6F63 
 24978      6B00
 24979              	.LASF2:
 24980 1a87 6C6F6E67 		.ascii	"long double\000"
 24980      20646F75 
 24980      626C6500 
 24981              	.LASF316:
 24982 1a93 72656761 		.ascii	"regarm_t\000"
 24982      726D5F74 
 24982      00
 24983              	.LASF142:
 24984 1a9c 6576656E 		.ascii	"eventmask_t\000"
 24984      746D6173 
 24984      6B5F7400 
 24985              	.LASF466:
 24986 1aa8 64657074 		.ascii	"depth\000"
 24986      6800
 24987              	.LASF243:
 24988 1aae 46464131 		.ascii	"FFA1R\000"
 24988      5200
 24989              	.LASF234:
 24990 1ab4 52463152 		.ascii	"RF1R\000"
 24990      00
 24991              	.LASF707:
 24992 1ab9 5553425F 		.ascii	"USB_SELECTED\000"
 24992      53454C45 
 24992      43544544 
 24992      00
 24993              	.LASF492:
 24994 1ac6 43414E5F 		.ascii	"CAN_READY\000"
 24994      52454144 
 24994      5900
 24995              	.LASF929:
 24996 1ad0 63685363 		.ascii	"chSchRescheduleS\000"
 24996      68526573 
 24996      63686564 
 24996      756C6553 
ARM GAS  C:\Users\mathi\AppData\Local\Temp\ccOm87JI.s 			page 462


 24996      00
 24997              	.LASF14:
 24998 1ae1 6C6F6E67 		.ascii	"long unsigned int\000"
 24998      20756E73 
 24998      69676E65 
 24998      6420696E 
 24998      7400
 24999              	.LASF606:
 25000 1af3 4932535F 		.ascii	"I2S_ACTIVE\000"
 25000      41435449 
 25000      564500
 25001              	.LASF549:
 25002 1afe 4750545F 		.ascii	"GPT_READY\000"
 25002      52454144 
 25002      5900
 25003              	.LASF511:
 25004 1b08 64616373 		.ascii	"dacstate_t\000"
 25004      74617465 
 25004      5F7400
 25005              	.LASF862:
 25006 1b13 7573625F 		.ascii	"usb_lld_prepare_receive\000"
 25006      6C6C645F 
 25006      70726570 
 25006      6172655F 
 25006      72656365 
 25007              	.LASF851:
 25008 1b2b 65706D61 		.ascii	"epmask\000"
 25008      736B00
 25009              	.LASF321:
 25010 1b32 73655F74 		.ascii	"se_tp\000"
 25010      7000
 25011              	.LASF393:
 25012 1b38 715F7772 		.ascii	"q_wrptr\000"
 25012      70747200 
 25013              	.LASF519:
 25014 1b40 64616373 		.ascii	"dacsample_t\000"
 25014      616D706C 
 25014      655F7400 
 25015              	.LASF723:
 25016 1b4c 5553425F 		.ascii	"USB_EVENT_ADDRESS\000"
 25016      4556454E 
 25016      545F4144 
 25016      44524553 
 25016      5300
 25017              	.LASF614:
 25018 1b5e 69327363 		.ascii	"i2scfgr\000"
 25018      66677200 
 25019              	.LASF295:
 25020 1b66 52455350 		.ascii	"RESPCMD\000"
 25020      434D4400 
 25021              	.LASF498:
 25022 1b6e 72786675 		.ascii	"rxfull_event\000"
 25022      6C6C5F65 
 25022      76656E74 
 25022      00
 25023              	.LASF728:
 25024 1b7b 75736265 		.ascii	"usbevent_t\000"
ARM GAS  C:\Users\mathi\AppData\Local\Temp\ccOm87JI.s 			page 463


 25024      76656E74 
 25024      5F7400
 25025              	.LASF63:
 25026 1b86 5F636C6F 		.ascii	"_close\000"
 25026      736500
 25027              	.LASF861:
 25028 1b8d 70636E74 		.ascii	"pcnt\000"
 25028      00
 25029              	.LASF27:
 25030 1b92 63686172 		.ascii	"char\000"
 25030      00
 25031              	.LASF495:
 25032 1b97 43414E43 		.ascii	"CANConfig\000"
 25032      6F6E6669 
 25032      6700
 25033              	.LASF442:
 25034 1ba1 50454461 		.ascii	"PEData\000"
 25034      746100
 25035              	.LASF177:
 25036 1ba8 725F7175 		.ascii	"r_queue\000"
 25036      65756500 
 25037              	.LASF95:
 25038 1bb0 5F676C75 		.ascii	"_glue\000"
 25038      6500
 25039              	.LASF913:
 25040 1bb6 63685379 		.ascii	"chSysUnlockFromISR\000"
 25040      73556E6C 
 25040      6F636B46 
 25040      726F6D49 
 25040      535200
 25041              	.LASF664:
 25042 1bc9 53444343 		.ascii	"SDCConfig\000"
 25042      6F6E6669 
 25042      6700
 25043              	.LASF624:
 25044 1bd3 656E6162 		.ascii	"enabled\000"
 25044      6C656400 
 25045              	.LASF520:
 25046 1bdb 4441435F 		.ascii	"DAC_ERR_DMAFAILURE\000"
 25046      4552525F 
 25046      444D4146 
 25046      41494C55 
 25046      524500
 25047              	.LASF767:
 25048 1bee 47525846 		.ascii	"GRXFSIZ\000"
 25048      53495A00 
 25049              	.LASF670:
 25050 1bf6 73796E63 		.ascii	"sync\000"
 25050      00
 25051              	.LASF644:
 25052 1bfb 75736172 		.ascii	"usart\000"
 25052      7400
 25053              	.LASF926:
 25054 1c01 5F737461 		.ascii	"_stats_stop_measure_crit_thd\000"
 25054      74735F73 
 25054      746F705F 
 25054      6D656173 
ARM GAS  C:\Users\mathi\AppData\Local\Temp\ccOm87JI.s 			page 464


 25054      7572655F 
 25055              	.LASF656:
 25056 1c1e 7364636D 		.ascii	"sdcmode_t\000"
 25056      6F64655F 
 25056      7400
 25057              	.LASF396:
 25058 1c28 715F6C69 		.ascii	"q_link\000"
 25058      6E6B00
 25059              	.LASF898:
 25060 1c2f 6F74675F 		.ascii	"otg_disable_ep\000"
 25060      64697361 
 25060      626C655F 
 25060      657000
 25061              	.LASF788:
 25062 1c3e 44434647 		.ascii	"DCFG\000"
 25062      00
 25063              	.LASF852:
 25064 1c43 7573625F 		.ascii	"usb_lld_pump\000"
 25064      6C6C645F 
 25064      70756D70 
 25064      00
 25065              	.LASF33:
 25066 1c50 5F426967 		.ascii	"_Bigint\000"
 25066      696E7400 
 25067              	.LASF798:
 25068 1c58 44564255 		.ascii	"DVBUSDIS\000"
 25068      53444953 
 25068      00
 25069              	.LASF764:
 25070 1c61 47494E54 		.ascii	"GINTMSK\000"
 25070      4D534B00 
 25071              	.LASF769:
 25072 1c69 484E5054 		.ascii	"HNPTXSTS\000"
 25072      58535453 
 25072      00
 25073              	.LASF281:
 25074 1c72 41504231 		.ascii	"APB1ENR\000"
 25074      454E5200 
 25075              	.LASF949:
 25076 1c7a 2E2E2F2E 		.ascii	"../../lib/e-puck2_main-processor/ChibiOS//os/hal/po"
 25076      2E2F6C69 
 25076      622F652D 
 25076      7075636B 
 25076      325F6D61 
 25077 1cad 7274732F 		.ascii	"rts/STM32/LLD/OTGv1/usb_lld.c\000"
 25077      53544D33 
 25077      322F4C4C 
 25077      442F4F54 
 25077      4776312F 
 25078              	.LASF697:
 25079 1ccb 636F6E66 		.ascii	"configuration\000"
 25079      69677572 
 25079      6174696F 
 25079      6E00
 25080              	.LASF90:
 25081 1cd9 5F617465 		.ascii	"_atexit0\000"
 25081      78697430 
ARM GAS  C:\Users\mathi\AppData\Local\Temp\ccOm87JI.s 			page 465


 25081      00
 25082              	.LASF437:
 25083 1ce2 73746D33 		.ascii	"stm32_gpio_setup_t\000"
 25083      325F6770 
 25083      696F5F73 
 25083      65747570 
 25083      5F7400
 25084              	.LASF845:
 25085 1cf5 6570305F 		.ascii	"ep0_state\000"
 25085      73746174 
 25085      6500
 25086              	.LASF882:
 25087 1cff 6E746F67 		.ascii	"ntogo\000"
 25087      6F00
 25088              	.LASF406:
 25089 1d05 5F73746D 		.ascii	"_stm32_dma_streams\000"
 25089      33325F64 
 25089      6D615F73 
 25089      74726561 
 25089      6D7300
 25090              	.LASF251:
 25091 1d18 44485231 		.ascii	"DHR12L1\000"
 25091      324C3100 
 25092              	.LASF254:
 25093 1d20 44485231 		.ascii	"DHR12L2\000"
 25093      324C3200 
 25094              	.LASF114:
 25095 1d28 5F676574 		.ascii	"_getdate_err\000"
 25095      64617465 
 25095      5F657272 
 25095      00
 25096              	.LASF655:
 25097 1d35 73646362 		.ascii	"sdcbusmode_t\000"
 25097      75736D6F 
 25097      64655F74 
 25097      00
 25098              	.LASF257:
 25099 1d42 44485231 		.ascii	"DHR12LD\000"
 25099      324C4400 
 25100              	.LASF205:
 25101 1d4a 6B65726E 		.ascii	"kernel_stats\000"
 25101      656C5F73 
 25101      74617473 
 25101      00
 25102              	.LASF933:
 25103 1d57 63685363 		.ascii	"chSchReadyI\000"
 25103      68526561 
 25103      64794900 
 25104              	.LASF850:
 25105 1d63 6F746770 		.ascii	"otgp\000"
 25105      00
 25106              	.LASF472:
 25107 1d68 61646363 		.ascii	"adccallback_t\000"
 25107      616C6C62 
 25107      61636B5F 
 25107      7400
 25108              	.LASF156:
ARM GAS  C:\Users\mathi\AppData\Local\Temp\ccOm87JI.s 			page 466


 25109 1d76 705F7374 		.ascii	"p_stklimit\000"
 25109      6B6C696D 
 25109      697400
 25110              	.LASF144:
 25111 1d81 636E745F 		.ascii	"cnt_t\000"
 25111      7400
 25112              	.LASF538:
 25113 1d87 65787473 		.ascii	"extstate_t\000"
 25113      74617465 
 25113      5F7400
 25114              	.LASF716:
 25115 1d92 5553425F 		.ascii	"USB_EP0_WAITING_TX0\000"
 25115      4550305F 
 25115      57414954 
 25115      494E475F 
 25115      54583000 
 25116              	.LASF691:
 25117 1da6 6570306E 		.ascii	"ep0next\000"
 25117      65787400 
 25118              	.LASF745:
 25119 1dae 73746D33 		.ascii	"stm32_otg_host_chn_t\000"
 25119      325F6F74 
 25119      675F686F 
 25119      73745F63 
 25119      686E5F74 
 25120              	.LASF878:
 25121 1dc3 6F74675F 		.ascii	"otg_epin_handler\000"
 25121      6570696E 
 25121      5F68616E 
 25121      646C6572 
 25121      00
 25122              	.LASF909:
 25123 1dd4 6F73616C 		.ascii	"osalSysLock\000"
 25123      5379734C 
 25123      6F636B00 
 25124              	.LASF429:
 25125 1de0 41465248 		.ascii	"AFRH\000"
 25125      00
 25126              	.LASF428:
 25127 1de5 4146524C 		.ascii	"AFRL\000"
 25127      00
 25128              	.LASF126:
 25129 1dea 5F696D70 		.ascii	"_impure_ptr\000"
 25129      7572655F 
 25129      70747200 
 25130              	.LASF372:
 25131 1df6 63665F6F 		.ascii	"cf_off_preempt\000"
 25131      66665F70 
 25131      7265656D 
 25131      707400
 25132              	.LASF509:
 25133 1e05 4441435F 		.ascii	"DAC_COMPLETE\000"
 25133      434F4D50 
 25133      4C455445 
 25133      00
 25134              	.LASF66:
 25135 1e12 5F626C6B 		.ascii	"_blksize\000"
ARM GAS  C:\Users\mathi\AppData\Local\Temp\ccOm87JI.s 			page 467


 25135      73697A65 
 25135      00
 25136              	.LASF740:
 25137 1e1b 4843494E 		.ascii	"HCINTMSK\000"
 25137      544D534B 
 25137      00
 25138              	.LASF64:
 25139 1e24 5F756275 		.ascii	"_ubuf\000"
 25139      6600
 25140              	.LASF464:
 25141 1e2a 636F6E66 		.ascii	"config\000"
 25141      696700
 25142              	.LASF572:
 25143 1e31 47505444 		.ascii	"GPTD11\000"
 25143      313100
 25144              	.LASF573:
 25145 1e38 47505444 		.ascii	"GPTD12\000"
 25145      313200
 25146              	.LASF109:
 25147 1e3f 5F6D626C 		.ascii	"_mblen_state\000"
 25147      656E5F73 
 25147      74617465 
 25147      00
 25148              	.LASF92:
 25149 1e4c 5F5F7367 		.ascii	"__sglue\000"
 25149      6C756500 
 25150              	.LASF125:
 25151 1e54 5F5F6C6F 		.ascii	"__locale_t\000"
 25151      63616C65 
 25151      5F7400
 25152              	.LASF410:
 25153 1e5f 424C4B5F 		.ascii	"BLK_CONNECTING\000"
 25153      434F4E4E 
 25153      45435449 
 25153      4E4700
 25154              	.LASF82:
 25155 1e6e 5F5F636C 		.ascii	"__cleanup\000"
 25155      65616E75 
 25155      7000
 25156              	.LASF271:
 25157 1e78 504C4C43 		.ascii	"PLLCFGR\000"
 25157      46475200 
 25158              	.LASF505:
 25159 1e80 4441435F 		.ascii	"DAC_UNINIT\000"
 25159      554E494E 
 25159      495400
 25160              	.LASF458:
 25161 1e8b 6164635F 		.ascii	"adc_channels_num_t\000"
 25161      6368616E 
 25161      6E656C73 
 25161      5F6E756D 
 25161      5F7400
 25162              	.LASF183:
 25163 1e9e 76746675 		.ascii	"vtfunc_t\000"
 25163      6E635F74 
 25163      00
 25164              	.LASF231:
ARM GAS  C:\Users\mathi\AppData\Local\Temp\ccOm87JI.s 			page 468


 25165 1ea7 43414E5F 		.ascii	"CAN_FIFOMailBox_TypeDef\000"
 25165      4649464F 
 25165      4D61696C 
 25165      426F785F 
 25165      54797065 
 25166              	.LASF261:
 25167 1ebf 4441435F 		.ascii	"DAC_TypeDef\000"
 25167      54797065 
 25167      44656600 
 25168              	.LASF343:
 25169 1ecb 77746F62 		.ascii	"wtobjp\000"
 25169      6A7000
 25170              	.LASF19:
 25171 1ed2 5F66706F 		.ascii	"_fpos_t\000"
 25171      735F7400 
 25172              	.LASF525:
 25173 1eda 4441435F 		.ascii	"DAC_DHRM_12BIT_RIGHT\000"
 25173      4448524D 
 25173      5F313242 
 25173      49545F52 
 25173      49474854 
 25174              	.LASF57:
 25175 1eef 5F66696C 		.ascii	"_file\000"
 25175      6500
 25176              	.LASF167:
 25177 1ef5 705F7265 		.ascii	"p_realprio\000"
 25177      616C7072 
 25177      696F00
 25178              	.LASF659:
 25179 1f00 63617061 		.ascii	"capacity\000"
 25179      63697479 
 25179      00
 25180              	.LASF395:
 25181 1f09 715F6E6F 		.ascii	"q_notify\000"
 25181      74696679 
 25181      00
 25182              	.LASF346:
 25183 1f12 77746D74 		.ascii	"wtmtxp\000"
 25183      787000
 25184              	.LASF55:
 25185 1f19 5F5F7346 		.ascii	"__sFILE\000"
 25185      494C4500 
 25186              	.LASF51:
 25187 1f21 5F666E73 		.ascii	"_fns\000"
 25187      00
 25188              	.LASF941:
 25189 1f26 5F646267 		.ascii	"_dbg_check_unlock_from_isr\000"
 25189      5F636865 
 25189      636B5F75 
 25189      6E6C6F63 
 25189      6B5F6672 
 25190              	.LASF827:
 25191 1f41 5553424F 		.ascii	"USBOutEndpointState\000"
 25191      7574456E 
 25191      64706F69 
 25191      6E745374 
 25191      61746500 
ARM GAS  C:\Users\mathi\AppData\Local\Temp\ccOm87JI.s 			page 469


 25192              	.LASF784:
 25193 1f55 72657376 		.ascii	"resvd41C\000"
 25193      64343143 
 25193      00
 25194              	.LASF25:
 25195 1f5e 5F6D6273 		.ascii	"_mbstate_t\000"
 25195      74617465 
 25195      5F7400
 25196              	.LASF120:
 25197 1f69 5F685F65 		.ascii	"_h_errno\000"
 25197      72726E6F 
 25197      00
 25198              	.LASF228:
 25199 1f72 52445452 		.ascii	"RDTR\000"
 25199      00
 25200              	.LASF418:
 25201 1f77 626C6B5F 		.ascii	"blk_num\000"
 25201      6E756D00 
 25202              	.LASF880:
 25203 1f7f 6F74675F 		.ascii	"otg_fifo_read_to_queue\000"
 25203      6669666F 
 25203      5F726561 
 25203      645F746F 
 25203      5F717565 
 25204              	.LASF288:
 25205 1f96 42444352 		.ascii	"BDCR\000"
 25205      00
 25206              	.LASF722:
 25207 1f9b 5553425F 		.ascii	"USB_EVENT_RESET\000"
 25207      4556454E 
 25207      545F5245 
 25207      53455400 
 25208              	.LASF176:
 25209 1fab 63685F72 		.ascii	"ch_ready_list\000"
 25209      65616479 
 25209      5F6C6973 
 25209      7400
 25210              	.LASF425:
 25211 1fb9 50555044 		.ascii	"PUPDR\000"
 25211      5200
 25212              	.LASF11:
 25213 1fbf 5F5F696E 		.ascii	"__int32_t\000"
 25213      7433325F 
 25213      7400
 25214              	.LASF13:
 25215 1fc9 5F5F7569 		.ascii	"__uint32_t\000"
 25215      6E743332 
 25215      5F7400
 25216              	.LASF195:
 25217 1fd4 63685F73 		.ascii	"ch_system_debug\000"
 25217      79737465 
 25217      6D5F6465 
 25217      62756700 
 25218              	.LASF795:
 25219 1fe4 4441494E 		.ascii	"DAINTMSK\000"
 25219      544D534B 
 25219      00
ARM GAS  C:\Users\mathi\AppData\Local\Temp\ccOm87JI.s 			page 470


 25220              	.LASF545:
 25221 1fed 45585443 		.ascii	"EXTConfig\000"
 25221      6F6E6669 
 25221      6700
 25222              	.LASF24:
 25223 1ff7 5F5F7661 		.ascii	"__value\000"
 25223      6C756500 
 25224              	.LASF714:
 25225 1fff 5553425F 		.ascii	"USB_EP0_WAITING_SETUP\000"
 25225      4550305F 
 25225      57414954 
 25225      494E475F 
 25225      53455455 
 25226              	.LASF48:
 25227 2015 5F69735F 		.ascii	"_is_cxa\000"
 25227      63786100 
 25228              	.LASF413:
 25229 201d 424C4B5F 		.ascii	"BLK_READING\000"
 25229      52454144 
 25229      494E4700 
 25230              	.LASF435:
 25231 2029 6166726C 		.ascii	"afrl\000"
 25231      00
 25232              	.LASF817:
 25233 202e 71756575 		.ascii	"queue\000"
 25233      6500
 25234              	.LASF693:
 25235 2034 65703065 		.ascii	"ep0endcb\000"
 25235      6E646362 
 25235      00
 25236              	.LASF403:
 25237 203d 73656C66 		.ascii	"selfindex\000"
 25237      696E6465 
 25237      7800
 25238              	.LASF376:
 25239 2047 6D757465 		.ascii	"mutex_t\000"
 25239      785F7400 
 25240              	.LASF85:
 25241 204f 5F703573 		.ascii	"_p5s\000"
 25241      00
 25242              	.LASF165:
 25243 2054 705F6570 		.ascii	"p_epending\000"
 25243      656E6469 
 25243      6E6700
 25244              	.LASF710:
 25245 205f 45505F53 		.ascii	"EP_STATUS_DISABLED\000"
 25245      54415455 
 25245      535F4449 
 25245      5341424C 
 25245      454400
 25246              	.LASF942:
 25247 2072 5F737461 		.ascii	"_stats_stop_measure_crit_isr\000"
 25247      74735F73 
 25247      746F705F 
 25247      6D656173 
 25247      7572655F 
 25248              	.LASF422:
ARM GAS  C:\Users\mathi\AppData\Local\Temp\ccOm87JI.s 			page 471


 25249 208f 4D4F4445 		.ascii	"MODER\000"
 25249      5200
 25250              	.LASF905:
 25251 2095 6F73616C 		.ascii	"osalOsRescheduleS\000"
 25251      4F735265 
 25251      73636865 
 25251      64756C65 
 25251      5300
 25252              	.LASF607:
 25253 20a7 4932535F 		.ascii	"I2S_COMPLETE\000"
 25253      434F4D50 
 25253      4C455445 
 25253      00
 25254              	.LASF235:
 25255 20b4 52455345 		.ascii	"RESERVED0\000"
 25255      52564544 
 25255      3000
 25256              	.LASF238:
 25257 20be 52455345 		.ascii	"RESERVED1\000"
 25257      52564544 
 25257      3100
 25258              	.LASF240:
 25259 20c8 52455345 		.ascii	"RESERVED2\000"
 25259      52564544 
 25259      3200
 25260              	.LASF242:
 25261 20d2 52455345 		.ascii	"RESERVED3\000"
 25261      52564544 
 25261      3300
 25262              	.LASF244:
 25263 20dc 52455345 		.ascii	"RESERVED4\000"
 25263      52564544 
 25263      3400
 25264              	.LASF246:
 25265 20e6 52455345 		.ascii	"RESERVED5\000"
 25265      52564544 
 25265      3500
 25266              	.LASF289:
 25267 20f0 52455345 		.ascii	"RESERVED6\000"
 25267      52564544 
 25267      3600
 25268              	.LASF838:
 25269 20fa 55534245 		.ascii	"USBEndpointConfig\000"
 25269      6E64706F 
 25269      696E7443 
 25269      6F6E6669 
 25269      6700
 25270              	.LASF250:
 25271 210c 44485231 		.ascii	"DHR12R1\000"
 25271      32523100 
 25272              	.LASF253:
 25273 2114 44485231 		.ascii	"DHR12R2\000"
 25273      32523200 
 25274              	.LASF541:
 25275 211c 65787463 		.ascii	"extcallback_t\000"
 25275      616C6C62 
 25275      61636B5F 
ARM GAS  C:\Users\mathi\AppData\Local\Temp\ccOm87JI.s 			page 472


 25275      7400
 25276              	.LASF497:
 25277 212a 72787175 		.ascii	"rxqueue\000"
 25277      65756500 
 25278              	.LASF320:
 25279 2132 73655F74 		.ascii	"se_time\000"
 25279      696D6500 
 25280              	.LASF786:
 25281 213a 72657376 		.ascii	"resvd444\000"
 25281      64343434 
 25281      00
 25282              	.LASF449:
 25283 2143 70616C5F 		.ascii	"pal_default_config\000"
 25283      64656661 
 25283      756C745F 
 25283      636F6E66 
 25283      696700
 25284              	.LASF467:
 25285 2156 67727070 		.ascii	"grpp\000"
 25285      00
 25286              	.LASF256:
 25287 215b 44485231 		.ascii	"DHR12RD\000"
 25287      32524400 
 25288              	.LASF380:
 25289 2163 656C5F6C 		.ascii	"el_listener\000"
 25289      69737465 
 25289      6E657200 
 25290              	.LASF816:
 25291 216f 6C696E65 		.ascii	"linear\000"
 25291      617200
 25292              	.LASF931:
 25293 2176 63685379 		.ascii	"chSysPolledDelayX\000"
 25293      73506F6C 
 25293      6C656444 
 25293      656C6179 
 25293      5800
 25294              	.LASF565:
 25295 2188 73746D33 		.ascii	"stm32_tim_t\000"
 25295      325F7469 
 25295      6D5F7400 
 25296              	.LASF940:
 25297 2194 63685468 		.ascii	"chThdResumeI\000"
 25297      64526573 
 25297      756D6549 
 25297      00
 25298              	.LASF178:
 25299 21a1 725F7072 		.ascii	"r_prio\000"
 25299      696F00
 25300              	.LASF699:
 25301 21a8 706D6E65 		.ascii	"pmnext\000"
 25301      787400
 25302              	.LASF207:
 25303 21af 49544D5F 		.ascii	"ITM_RxBuffer\000"
 25303      52784275 
 25303      66666572 
 25303      00
 25304              	.LASF419:
ARM GAS  C:\Users\mathi\AppData\Local\Temp\ccOm87JI.s 			page 473


 25305 21bc 426C6F63 		.ascii	"BlockDeviceInfo\000"
 25305      6B446576 
 25305      69636549 
 25305      6E666F00 
 25306              	.LASF16:
 25307 21cc 6C6F6E67 		.ascii	"long long unsigned int\000"
 25307      206C6F6E 
 25307      6720756E 
 25307      7369676E 
 25307      65642069 
 25308              	.LASF307:
 25309 21e3 5344494F 		.ascii	"SDIO_TypeDef\000"
 25309      5F547970 
 25309      65446566 
 25309      00
 25310              	.LASF329:
 25311 21f0 6F666673 		.ascii	"offset\000"
 25311      657400
 25312              	.LASF283:
 25313 21f7 41484231 		.ascii	"AHB1LPENR\000"
 25313      4C50454E 
 25313      5200
 25314              	.LASF910:
 25315 2201 63685265 		.ascii	"chRegSetThreadName\000"
 25315      67536574 
 25315      54687265 
 25315      61644E61 
 25315      6D6500
 25316              	.LASF684:
 25317 2214 53504944 		.ascii	"SPID1\000"
 25317      3100
 25318              	.LASF915:
 25319 221a 63685379 		.ascii	"chSysUnlock\000"
 25319      73556E6C 
 25319      6F636B00 
 25320              	.LASF262:
 25321 2226 4E445452 		.ascii	"NDTR\000"
 25321      00
 25322              	.LASF385:
 25323 222b 65735F6E 		.ascii	"es_next\000"
 25323      65787400 
 25324              	.LASF106:
 25325 2233 5F67616D 		.ascii	"_gamma_signgam\000"
 25325      6D615F73 
 25325      69676E67 
 25325      616D00
 25326              	.LASF752:
 25327 2242 72657376 		.ascii	"resvd1C\000"
 25327      64314300 
 25328              	.LASF206:
 25329 224a 69646C65 		.ascii	"idle_thread_wa\000"
 25329      5F746872 
 25329      6561645F 
 25329      776100
 25330              	.LASF748:
 25331 2259 44494550 		.ascii	"DIEPINT\000"
 25331      494E5400 
ARM GAS  C:\Users\mathi\AppData\Local\Temp\ccOm87JI.s 			page 474


 25332              	.LASF313:
 25333 2261 5350495F 		.ascii	"SPI_TypeDef\000"
 25333      54797065 
 25333      44656600 
 25334              	.LASF189:
 25335 226d 76745F66 		.ascii	"vt_func\000"
 25335      756E6300 
 25336              	.LASF556:
 25337 2275 534D4352 		.ascii	"SMCR\000"
 25337      00
 25338              	.LASF793:
 25339 227a 444F4550 		.ascii	"DOEPMSK\000"
 25339      4D534B00 
 25340              	.LASF894:
 25341 2282 6F74675F 		.ascii	"otg_ram_reset\000"
 25341      72616D5F 
 25341      72657365 
 25341      7400
 25342              	.LASF185:
 25343 2290 63685F76 		.ascii	"ch_virtual_timer\000"
 25343      69727475 
 25343      616C5F74 
 25343      696D6572 
 25343      00
 25344              	.LASF158:
 25345 22a1 705F666C 		.ascii	"p_flags\000"
 25345      61677300 
 25346              	.LASF347:
 25347 22a9 65776D61 		.ascii	"ewmask\000"
 25347      736B00
 25348              	.LASF382:
 25349 22b0 656C5F66 		.ascii	"el_flags\000"
 25349      6C616773 
 25349      00
 25350              	.LASF384:
 25351 22b9 6576656E 		.ascii	"event_source\000"
 25351      745F736F 
 25351      75726365 
 25351      00
 25352              	.LASF166:
 25353 22c6 705F6D74 		.ascii	"p_mtxlist\000"
 25353      786C6973 
 25353      7400
 25354              	.LASF504:
 25355 22d0 43414E44 		.ascii	"CAND1\000"
 25355      3100
 25356              	.LASF241:
 25357 22d6 46533152 		.ascii	"FS1R\000"
 25357      00
 25358              	.LASF137:
 25359 22db 74737461 		.ascii	"tstate_t\000"
 25359      74655F74 
 25359      00
 25360              	.LASF127:
 25361 22e4 5F676C6F 		.ascii	"_global_impure_ptr\000"
 25361      62616C5F 
 25361      696D7075 
ARM GAS  C:\Users\mathi\AppData\Local\Temp\ccOm87JI.s 			page 475


 25361      72655F70 
 25361      747200
 25362              	.LASF794:
 25363 22f7 4441494E 		.ascii	"DAINT\000"
 25363      5400
 25364              	.LASF683:
 25365 22fd 53504943 		.ascii	"SPIConfig\000"
 25365      6F6E6669 
 25365      6700
 25366              	.LASF79:
 25367 2307 5F756E73 		.ascii	"_unspecified_locale_info\000"
 25367      70656369 
 25367      66696564 
 25367      5F6C6F63 
 25367      616C655F 
 25368              	.LASF434:
 25369 2320 70757064 		.ascii	"pupdr\000"
 25369      7200
 25370              	.LASF524:
 25371 2326 64616365 		.ascii	"dacerrorcallback_t\000"
 25371      72726F72 
 25371      63616C6C 
 25371      6261636B 
 25371      5F7400
 25372              	.LASF686:
 25373 2339 7472616E 		.ascii	"transmitting\000"
 25373      736D6974 
 25373      74696E67 
 25373      00
 25374              	.LASF544:
 25375 2346 6368616E 		.ascii	"channels\000"
 25375      6E656C73 
 25375      00
 25376              	.LASF294:
 25377 234f 434C4B43 		.ascii	"CLKCR\000"
 25377      5200
 25378              	.LASF658:
 25379 2355 53444344 		.ascii	"SDCDriver\000"
 25379      72697665 
 25379      7200
 25380              	.LASF155:
 25381 235f 705F6E61 		.ascii	"p_name\000"
 25381      6D6500
 25382              	.LASF81:
 25383 2366 5F5F7364 		.ascii	"__sdidinit\000"
 25383      6964696E 
 25383      697400
 25384              	.LASF640:
 25385 2371 53657269 		.ascii	"SerialDriver\000"
 25385      616C4472 
 25385      69766572 
 25385      00
 25386              	.LASF219:
 25387 237e 4A445231 		.ascii	"JDR1\000"
 25387      00
 25388              	.LASF220:
 25389 2383 4A445232 		.ascii	"JDR2\000"
ARM GAS  C:\Users\mathi\AppData\Local\Temp\ccOm87JI.s 			page 476


 25389      00
 25390              	.LASF221:
 25391 2388 4A445233 		.ascii	"JDR3\000"
 25391      00
 25392              	.LASF222:
 25393 238d 4A445234 		.ascii	"JDR4\000"
 25393      00
 25394              	.LASF756:
 25395 2392 444F4550 		.ascii	"DOEPTSIZ\000"
 25395      5453495A 
 25395      00
 25396              	.LASF287:
 25397 239b 41504232 		.ascii	"APB2LPENR\000"
 25397      4C50454E 
 25397      5200
 25398              	.LASF452:
 25399 23a5 4144435F 		.ascii	"ADC_READY\000"
 25399      52454144 
 25399      5900
 25400              	.LASF888:
 25401 23af 6F74675F 		.ascii	"otg_fifo_write_from_queue\000"
 25401      6669666F 
 25401      5F777269 
 25401      74655F66 
 25401      726F6D5F 
 25402              	.LASF364:
 25403 23c9 63665F6F 		.ascii	"cf_off_ctx\000"
 25403      66665F63 
 25403      747800
 25404              	.LASF911:
 25405 23d4 6E616D65 		.ascii	"name\000"
 25405      00
 25406              	.LASF946:
 25407 23d9 5F646267 		.ascii	"_dbg_check_leave_isr\000"
 25407      5F636865 
 25407      636B5F6C 
 25407      65617665 
 25407      5F697372 
 25408              	.LASF26:
 25409 23ee 5F666C6F 		.ascii	"_flock_t\000"
 25409      636B5F74 
 25409      00
 25410              	.LASF191:
 25411 23f7 76697274 		.ascii	"virtual_timers_list_t\000"
 25411      75616C5F 
 25411      74696D65 
 25411      72735F6C 
 25411      6973745F 
 25412              	.LASF934:
 25413 240d 6E766963 		.ascii	"nvicEnableVector\000"
 25413      456E6162 
 25413      6C655665 
 25413      63746F72 
 25413      00
 25414              	.LASF884:
 25415 241e 6E773265 		.ascii	"nw2end\000"
 25415      6E6400
ARM GAS  C:\Users\mathi\AppData\Local\Temp\ccOm87JI.s 			page 477


 25416              	.LASF780:
 25417 2425 72657376 		.ascii	"resvd40C\000"
 25417      64343043 
 25417      00
 25418              	.LASF474:
 25419 242e 63697263 		.ascii	"circular\000"
 25419      756C6172 
 25419      00
 25420              	.LASF608:
 25421 2437 69327373 		.ascii	"i2sstate_t\000"
 25421      74617465 
 25421      5F7400
 25422              	.LASF431:
 25423 2442 6D6F6465 		.ascii	"moder\000"
 25423      7200
 25424              	.LASF679:
 25425 2448 53504944 		.ascii	"SPIDriver\000"
 25425      72697665 
 25425      7200
 25426              	.LASF349:
 25427 2452 735F7175 		.ascii	"s_queue\000"
 25427      65756500 
 25428              	.LASF338:
 25429 245a 6D5F6372 		.ascii	"m_crit_thd\000"
 25429      69745F74 
 25429      686400
 25430              	.LASF506:
 25431 2465 4441435F 		.ascii	"DAC_STOP\000"
 25431      53544F50 
 25431      00
 25432              	.LASF787:
 25433 246e 72657376 		.ascii	"resvd700\000"
 25433      64373030 
 25433      00
 25434              	.LASF311:
 25435 2477 49325343 		.ascii	"I2SCFGR\000"
 25435      46475200 
 25436              	.LASF849:
 25437 247f 75736270 		.ascii	"usbp\000"
 25437      00
 25438              	.LASF356:
 25439 2484 63685F69 		.ascii	"ch_identifier\000"
 25439      64656E74 
 25439      69666965 
 25439      7200
 25440              	.LASF650:
 25441 2492 77726974 		.ascii	"writet\000"
 25441      657400
 25442              	.LASF1:
 25443 2499 6C6F6E67 		.ascii	"long long int\000"
 25443      206C6F6E 
 25443      6720696E 
 25443      7400
 25444              	.LASF774:
 25445 24a7 48505458 		.ascii	"HPTXFSIZ\000"
 25445      4653495A 
 25445      00
ARM GAS  C:\Users\mathi\AppData\Local\Temp\ccOm87JI.s 			page 478


 25446              	.LASF854:
 25447 24b0 7573625F 		.ascii	"usb_lld_clear_out\000"
 25447      6C6C645F 
 25447      636C6561 
 25447      725F6F75 
 25447      7400
 25448              	.LASF363:
 25449 24c2 63665F6F 		.ascii	"cf_off_prio\000"
 25449      66665F70 
 25449      72696F00 
 25450              	.LASF71:
 25451 24ce 5F666C61 		.ascii	"_flags2\000"
 25451      67733200 
 25452              	.LASF914:
 25453 24d6 63685379 		.ascii	"chSysLockFromISR\000"
 25453      734C6F63 
 25453      6B46726F 
 25453      6D495352 
 25453      00
 25454              	.LASF335:
 25455 24e7 74696D65 		.ascii	"time_measurement_t\000"
 25455      5F6D6561 
 25455      73757265 
 25455      6D656E74 
 25455      5F7400
 25456              	.LASF671:
 25457 24fa 6765745F 		.ascii	"get_info\000"
 25457      696E666F 
 25457      00
 25458              	.LASF939:
 25459 2503 5F646267 		.ascii	"_dbg_check_lock_from_isr\000"
 25459      5F636865 
 25459      636B5F6C 
 25459      6F636B5F 
 25459      66726F6D 
 25460              	.LASF461:
 25461 251c 61646365 		.ascii	"adcerror_t\000"
 25461      72726F72 
 25461      5F7400
 25462              	.LASF897:
 25463 2527 6F74675F 		.ascii	"otg_rxfifo_flush\000"
 25463      72786669 
 25463      666F5F66 
 25463      6C757368 
 25463      00
 25464              	.LASF840:
 25465 2538 6765745F 		.ascii	"get_descriptor_cb\000"
 25465      64657363 
 25465      72697074 
 25465      6F725F63 
 25465      6200
 25466              	.LASF80:
 25467 254a 5F6C6F63 		.ascii	"_locale\000"
 25467      616C6500 
 25468              	.LASF143:
 25469 2552 6576656E 		.ascii	"eventflags_t\000"
 25469      74666C61 
ARM GAS  C:\Users\mathi\AppData\Local\Temp\ccOm87JI.s 			page 479


 25469      67735F74 
 25469      00
 25470              	.LASF675:
 25471 255f 5350495F 		.ascii	"SPI_READY\000"
 25471      52454144 
 25471      5900
 25472              	.LASF867:
 25473 2569 7573625F 		.ascii	"usb_lld_init_endpoint\000"
 25473      6C6C645F 
 25473      696E6974 
 25473      5F656E64 
 25473      706F696E 
 25474              	.LASF237:
 25475 257f 73464946 		.ascii	"sFIFOMailBox\000"
 25475      4F4D6169 
 25475      6C426F78 
 25475      00
 25476              	.LASF663:
 25477 258c 6275735F 		.ascii	"bus_width\000"
 25477      77696474 
 25477      6800
 25478              	.LASF258:
 25479 2596 44485238 		.ascii	"DHR8RD\000"
 25479      524400
 25480              	.LASF789:
 25481 259d 4443544C 		.ascii	"DCTL\000"
 25481      00
 25482              	.LASF665:
 25483 25a2 53444344 		.ascii	"SDCDriverVMT\000"
 25483      72697665 
 25483      72564D54 
 25483      00
 25484              	.LASF815:
 25485 25af 74786275 		.ascii	"txbuf\000"
 25485      6600
 25486              	.LASF808:
 25487 25b5 50434743 		.ascii	"PCGCCTL\000"
 25487      43544C00 
 25488              	.LASF726:
 25489 25bd 5553425F 		.ascii	"USB_EVENT_WAKEUP\000"
 25489      4556454E 
 25489      545F5741 
 25489      4B455550 
 25489      00
 25490              	.LASF921:
 25491 25ce 5F5F7365 		.ascii	"__set_BASEPRI\000"
 25491      745F4241 
 25491      53455052 
 25491      4900
 25492              	.LASF154:
 25493 25dc 705F6F6C 		.ascii	"p_older\000"
 25493      64657200 
 25494              	.LASF415:
 25495 25e4 424C4B5F 		.ascii	"BLK_SYNCING\000"
 25495      53594E43 
 25495      494E4700 
 25496              	.LASF446:
ARM GAS  C:\Users\mathi\AppData\Local\Temp\ccOm87JI.s 			page 480


 25497 25f0 50494461 		.ascii	"PIData\000"
 25497      746100
 25498              	.LASF837:
 25499 25f7 73657475 		.ascii	"setup_buf\000"
 25499      705F6275 
 25499      6600
 25500              	.LASF771:
 25501 2601 72657376 		.ascii	"resvd34\000"
 25501      64333400 
 25502              	.LASF571:
 25503 2609 47505444 		.ascii	"GPTD6\000"
 25503      3600
 25504              	.LASF477:
 25505 260f 6572726F 		.ascii	"error_cb\000"
 25505      725F6362 
 25505      00
 25506              	.LASF411:
 25507 2618 424C4B5F 		.ascii	"BLK_DISCONNECTING\000"
 25507      44495343 
 25507      4F4E4E45 
 25507      4354494E 
 25507      4700
 25508              	.LASF681:
 25509 262a 7373706F 		.ascii	"ssport\000"
 25509      727400
 25510              	.LASF170:
 25511 2631 74687265 		.ascii	"thread_reference_t\000"
 25511      61645F72 
 25511      65666572 
 25511      656E6365 
 25511      5F7400
 25512              	.LASF540:
 25513 2644 65787063 		.ascii	"expchannel_t\000"
 25513      68616E6E 
 25513      656C5F74 
 25513      00
 25514              	.LASF687:
 25515 2651 72656365 		.ascii	"receiving\000"
 25515      6976696E 
 25515      6700
 25516              	.LASF94:
 25517 265b 5F5F4649 		.ascii	"__FILE\000"
 25517      4C4500
 25518              	.LASF567:
 25519 2662 66726571 		.ascii	"frequency\000"
 25519      75656E63 
 25519      7900
 25520              	.LASF923:
 25521 266c 5F737461 		.ascii	"_stats_start_measure_crit_thd\000"
 25521      74735F73 
 25521      74617274 
 25521      5F6D6561 
 25521      73757265 
 25522              	.LASF903:
 25523 268a 6F73616C 		.ascii	"osalSysPolledDelayX\000"
 25523      53797350 
 25523      6F6C6C65 
ARM GAS  C:\Users\mathi\AppData\Local\Temp\ccOm87JI.s 			page 481


 25523      6444656C 
 25523      61795800 
 25524              	.LASF31:
 25525 269e 5F736967 		.ascii	"_sign\000"
 25525      6E00
 25526              	.LASF834:
 25527 26a4 696E5F73 		.ascii	"in_state\000"
 25527      74617465 
 25527      00
 25528              	.LASF36:
 25529 26ad 5F5F746D 		.ascii	"__tm_min\000"
 25529      5F6D696E 
 25529      00
 25530              	.LASF357:
 25531 26b6 63685F7A 		.ascii	"ch_zero\000"
 25531      65726F00 
 25532              	.LASF588:
 25533 26be 46415354 		.ascii	"FAST_DUTY_CYCLE_2\000"
 25533      5F445554 
 25533      595F4359 
 25533      434C455F 
 25533      3200
 25534              	.LASF302:
 25535 26d0 44435452 		.ascii	"DCTRL\000"
 25535      4C00
 25536              	.LASF362:
 25537 26d6 63685F74 		.ascii	"ch_threadsize\000"
 25537      68726561 
 25537      6473697A 
 25537      6500
 25538              	.LASF269:
 25539 26e4 464C5452 		.ascii	"FLTR\000"
 25539      00
 25540              	.LASF558:
 25541 26e9 43434D52 		.ascii	"CCMR1\000"
 25541      3100
 25542              	.LASF559:
 25543 26ef 43434D52 		.ascii	"CCMR2\000"
 25543      3200
 25544              	.LASF563:
 25545 26f5 43434D52 		.ascii	"CCMR3\000"
 25545      3300
 25546              	.LASF0:
 25547 26fb 756E7369 		.ascii	"unsigned int\000"
 25547      676E6564 
 25547      20696E74 
 25547      00
 25548              	.LASF481:
 25549 2708 73717232 		.ascii	"sqr2\000"
 25549      00
 25550              	.LASF482:
 25551 270d 73717233 		.ascii	"sqr3\000"
 25551      00
 25552              	.LASF108:
 25553 2712 5F723438 		.ascii	"_r48\000"
 25553      00
 25554              	.LASF778:
ARM GAS  C:\Users\mathi\AppData\Local\Temp\ccOm87JI.s 			page 482


 25555 2717 48464952 		.ascii	"HFIR\000"
 25555      00
 25556              	.LASF704:
 25557 271c 5553425F 		.ascii	"USB_UNINIT\000"
 25557      554E494E 
 25557      495400
 25558              	.LASF883:
 25559 2727 73747265 		.ascii	"streak\000"
 25559      616B00
 25560              	.LASF400:
 25561 272e 73747265 		.ascii	"stream\000"
 25561      616D00
 25562              	.LASF484:
 25563 2735 64756D6D 		.ascii	"dummy\000"
 25563      7900
 25564              	.LASF586:
 25565 273b 6932636F 		.ascii	"i2copmode_t\000"
 25565      706D6F64 
 25565      655F7400 
 25566              	.LASF885:
 25567 2747 6F74675F 		.ascii	"otg_fifo_read_to_buffer\000"
 25567      6669666F 
 25567      5F726561 
 25567      645F746F 
 25567      5F627566 
 25568              	.LASF378:
 25569 275f 6576656E 		.ascii	"event_listener\000"
 25569      745F6C69 
 25569      7374656E 
 25569      657200
 25570              	.LASF8:
 25571 276e 73686F72 		.ascii	"short int\000"
 25571      7420696E 
 25571      7400
 25572              	.LASF732:
 25573 2778 75736263 		.ascii	"usbcallback_t\000"
 25573      616C6C62 
 25573      61636B5F 
 25573      7400
 25574              	.LASF60:
 25575 2786 5F726561 		.ascii	"_read\000"
 25575      6400
 25576              	.LASF761:
 25577 278c 47555342 		.ascii	"GUSBCFG\000"
 25577      43464700 
 25578              	.LASF315:
 25579 2794 55534152 		.ascii	"USART_TypeDef\000"
 25579      545F5479 
 25579      70654465 
 25579      6600
 25580              	.LASF399:
 25581 27a2 6F757470 		.ascii	"output_queue_t\000"
 25581      75745F71 
 25581      75657565 
 25581      5F7400
 25582              	.LASF98:
 25583 27b1 5F72616E 		.ascii	"_rand48\000"
ARM GAS  C:\Users\mathi\AppData\Local\Temp\ccOm87JI.s 			page 483


 25583      64343800 
 25584              	.LASF810:
 25585 27b9 73746D33 		.ascii	"stm32_otg_t\000"
 25585      325F6F74 
 25585      675F7400 
 25586              	.LASF856:
 25587 27c5 7573625F 		.ascii	"usb_lld_stall_out\000"
 25587      6C6C645F 
 25587      7374616C 
 25587      6C5F6F75 
 25587      7400
 25588              	.LASF609:
 25589 27d7 49325344 		.ascii	"I2SDriver\000"
 25589      72697665 
 25589      7200
 25590              	.LASF593:
 25591 27e1 64757479 		.ascii	"duty_cycle\000"
 25591      5F637963 
 25591      6C6500
 25592              	.LASF616:
 25593 27ec 49325343 		.ascii	"I2SConfig\000"
 25593      6F6E6669 
 25593      6700
 25594              	.LASF729:
 25595 27f6 75645F73 		.ascii	"ud_size\000"
 25595      697A6500 
 25596              	.LASF279:
 25597 27fe 41484232 		.ascii	"AHB2ENR\000"
 25597      454E5200 
 25598              	.LASF273:
 25599 2806 41484231 		.ascii	"AHB1RSTR\000"
 25599      52535452 
 25599      00
 25600              	.LASF832:
 25601 280f 696E5F6D 		.ascii	"in_maxsize\000"
 25601      61787369 
 25601      7A6500
 25602              	.LASF443:
 25603 281a 50464461 		.ascii	"PFData\000"
 25603      746100
 25604              	.LASF536:
 25605 2821 4558545F 		.ascii	"EXT_STOP\000"
 25605      53544F50 
 25605      00
 25606              	.LASF157:
 25607 282a 705F7374 		.ascii	"p_state\000"
 25607      61746500 
 25608              	.LASF617:
 25609 2832 49325344 		.ascii	"I2SD2\000"
 25609      3200
 25610              	.LASF666:
 25611 2838 69735F69 		.ascii	"is_inserted\000"
 25611      6E736572 
 25611      74656400 
 25612              	.LASF172:
 25613 2844 63685F74 		.ascii	"ch_threads_list\000"
 25613      68726561 
ARM GAS  C:\Users\mathi\AppData\Local\Temp\ccOm87JI.s 			page 484


 25613      64735F6C 
 25613      69737400 
 25614              	.LASF303:
 25615 2854 44434F55 		.ascii	"DCOUNT\000"
 25615      4E5400
 25616              	.LASF266:
 25617 285b 4F415231 		.ascii	"OAR1\000"
 25617      00
 25618              	.LASF267:
 25619 2860 4F415232 		.ascii	"OAR2\000"
 25619      00
 25620              	.LASF169:
 25621 2865 705F7374 		.ascii	"p_stats\000"
 25621      61747300 
 25622              	.LASF709:
 25623 286d 75736273 		.ascii	"usbstate_t\000"
 25623      74617465 
 25623      5F7400
 25624              		.ident	"GCC: (GNU Tools for Arm Embedded Processors 7-2017-q4-major) 7.2.1 20170904 (release) [ARM
ARM GAS  C:\Users\mathi\AppData\Local\Temp\ccOm87JI.s 			page 485


DEFINED SYMBOLS
                            *ABS*:00000000 usb_lld.c
C:\Users\mathi\AppData\Local\Temp\ccOm87JI.s:18     .text.usb_lld_pump:00000000 $t
C:\Users\mathi\AppData\Local\Temp\ccOm87JI.s:26     .text.usb_lld_pump:00000000 usb_lld_pump
C:\Users\mathi\AppData\Local\Temp\ccOm87JI.s:654    .text.usb_lld_pump:00000278 $d
C:\Users\mathi\AppData\Local\Temp\ccOm87JI.s:677    .text.usb_lld_pump:00000288 $t
C:\Users\mathi\AppData\Local\Temp\ccOm87JI.s:1300   .text.usb_lld_pump:00000520 $d
C:\Users\mathi\AppData\Local\Temp\ccOm87JI.s:1307   .text.Vector14C:00000000 $t
C:\Users\mathi\AppData\Local\Temp\ccOm87JI.s:1315   .text.Vector14C:00000000 Vector14C
C:\Users\mathi\AppData\Local\Temp\ccOm87JI.s:1919   .text.Vector14C:0000029c $d
C:\Users\mathi\AppData\Local\Temp\ccOm87JI.s:1936   .text.Vector14C:000002a8 $t
C:\Users\mathi\AppData\Local\Temp\ccOm87JI.s:2920   .text.Vector14C:000005f4 $d
C:\Users\mathi\AppData\Local\Temp\ccOm87JI.s:2939   .text.Vector14C:00000600 $t
C:\Users\mathi\AppData\Local\Temp\ccOm87JI.s:3387   .text.usb_lld_init:00000000 $t
C:\Users\mathi\AppData\Local\Temp\ccOm87JI.s:3395   .text.usb_lld_init:00000000 usb_lld_init
C:\Users\mathi\AppData\Local\Temp\ccOm87JI.s:3472   .text.usb_lld_init:00000050 $d
C:\Users\mathi\AppData\Local\Temp\ccOm87JI.s:3480   .text.usb_lld_start:00000000 $t
C:\Users\mathi\AppData\Local\Temp\ccOm87JI.s:3488   .text.usb_lld_start:00000000 usb_lld_start
C:\Users\mathi\AppData\Local\Temp\ccOm87JI.s:3780   .text.usb_lld_start:00000164 $d
C:\Users\mathi\AppData\Local\Temp\ccOm87JI.s:3791   .text.usb_lld_stop:00000000 $t
C:\Users\mathi\AppData\Local\Temp\ccOm87JI.s:3799   .text.usb_lld_stop:00000000 usb_lld_stop
C:\Users\mathi\AppData\Local\Temp\ccOm87JI.s:3968   .text.usb_lld_stop:000000b8 $d
C:\Users\mathi\AppData\Local\Temp\ccOm87JI.s:3975   .text.usb_lld_reset:00000000 $t
C:\Users\mathi\AppData\Local\Temp\ccOm87JI.s:3983   .text.usb_lld_reset:00000000 usb_lld_reset
C:\Users\mathi\AppData\Local\Temp\ccOm87JI.s:4367   .text.usb_lld_reset:0000023c $d
C:\Users\mathi\AppData\Local\Temp\ccOm87JI.s:4375   .text.usb_lld_set_address:00000000 $t
C:\Users\mathi\AppData\Local\Temp\ccOm87JI.s:4383   .text.usb_lld_set_address:00000000 usb_lld_set_address
C:\Users\mathi\AppData\Local\Temp\ccOm87JI.s:4430   .text.usb_lld_set_address:00000034 $d
C:\Users\mathi\AppData\Local\Temp\ccOm87JI.s:4435   .text.usb_lld_init_endpoint:00000000 $t
C:\Users\mathi\AppData\Local\Temp\ccOm87JI.s:4443   .text.usb_lld_init_endpoint:00000000 usb_lld_init_endpoint
C:\Users\mathi\AppData\Local\Temp\ccOm87JI.s:4716   .text.usb_lld_init_endpoint:00000184 $d
C:\Users\mathi\AppData\Local\Temp\ccOm87JI.s:4727   .text.usb_lld_disable_endpoints:00000000 $t
C:\Users\mathi\AppData\Local\Temp\ccOm87JI.s:4735   .text.usb_lld_disable_endpoints:00000000 usb_lld_disable_endpoints
C:\Users\mathi\AppData\Local\Temp\ccOm87JI.s:4875   .text.usb_lld_disable_endpoints:0000009c $d
C:\Users\mathi\AppData\Local\Temp\ccOm87JI.s:4880   .text.usb_lld_get_status_out:00000000 $t
C:\Users\mathi\AppData\Local\Temp\ccOm87JI.s:4888   .text.usb_lld_get_status_out:00000000 usb_lld_get_status_out
C:\Users\mathi\AppData\Local\Temp\ccOm87JI.s:4943   .text.usb_lld_get_status_out:00000034 $d
C:\Users\mathi\AppData\Local\Temp\ccOm87JI.s:4948   .text.usb_lld_get_status_in:00000000 $t
C:\Users\mathi\AppData\Local\Temp\ccOm87JI.s:4956   .text.usb_lld_get_status_in:00000000 usb_lld_get_status_in
C:\Users\mathi\AppData\Local\Temp\ccOm87JI.s:5011   .text.usb_lld_get_status_in:00000034 $d
C:\Users\mathi\AppData\Local\Temp\ccOm87JI.s:5016   .text.usb_lld_read_setup:00000000 $t
C:\Users\mathi\AppData\Local\Temp\ccOm87JI.s:5024   .text.usb_lld_read_setup:00000000 usb_lld_read_setup
C:\Users\mathi\AppData\Local\Temp\ccOm87JI.s:5077   .text.usb_lld_read_setup:0000002c $d
C:\Users\mathi\AppData\Local\Temp\ccOm87JI.s:5082   .text.usb_lld_prepare_receive:00000000 $t
C:\Users\mathi\AppData\Local\Temp\ccOm87JI.s:5090   .text.usb_lld_prepare_receive:00000000 usb_lld_prepare_receive
C:\Users\mathi\AppData\Local\Temp\ccOm87JI.s:5171   .text.usb_lld_prepare_receive:00000054 $d
C:\Users\mathi\AppData\Local\Temp\ccOm87JI.s:5177   .text.usb_lld_prepare_transmit:00000000 $t
C:\Users\mathi\AppData\Local\Temp\ccOm87JI.s:5185   .text.usb_lld_prepare_transmit:00000000 usb_lld_prepare_transmit
C:\Users\mathi\AppData\Local\Temp\ccOm87JI.s:5280   .text.usb_lld_prepare_transmit:00000060 $d
C:\Users\mathi\AppData\Local\Temp\ccOm87JI.s:5285   .text.usb_lld_start_out:00000000 $t
C:\Users\mathi\AppData\Local\Temp\ccOm87JI.s:5293   .text.usb_lld_start_out:00000000 usb_lld_start_out
C:\Users\mathi\AppData\Local\Temp\ccOm87JI.s:5333   .text.usb_lld_start_out:00000030 $d
C:\Users\mathi\AppData\Local\Temp\ccOm87JI.s:5338   .text.usb_lld_start_in:00000000 $t
C:\Users\mathi\AppData\Local\Temp\ccOm87JI.s:5346   .text.usb_lld_start_in:00000000 usb_lld_start_in
C:\Users\mathi\AppData\Local\Temp\ccOm87JI.s:5396   .text.usb_lld_start_in:00000040 $d
C:\Users\mathi\AppData\Local\Temp\ccOm87JI.s:5401   .text.usb_lld_stall_out:00000000 $t
C:\Users\mathi\AppData\Local\Temp\ccOm87JI.s:5409   .text.usb_lld_stall_out:00000000 usb_lld_stall_out
ARM GAS  C:\Users\mathi\AppData\Local\Temp\ccOm87JI.s 			page 486


C:\Users\mathi\AppData\Local\Temp\ccOm87JI.s:5449   .text.usb_lld_stall_out:00000030 $d
C:\Users\mathi\AppData\Local\Temp\ccOm87JI.s:5454   .text.usb_lld_stall_in:00000000 $t
C:\Users\mathi\AppData\Local\Temp\ccOm87JI.s:5462   .text.usb_lld_stall_in:00000000 usb_lld_stall_in
C:\Users\mathi\AppData\Local\Temp\ccOm87JI.s:5502   .text.usb_lld_stall_in:00000030 $d
C:\Users\mathi\AppData\Local\Temp\ccOm87JI.s:5507   .text.usb_lld_clear_out:00000000 $t
C:\Users\mathi\AppData\Local\Temp\ccOm87JI.s:5515   .text.usb_lld_clear_out:00000000 usb_lld_clear_out
C:\Users\mathi\AppData\Local\Temp\ccOm87JI.s:5555   .text.usb_lld_clear_out:00000030 $d
C:\Users\mathi\AppData\Local\Temp\ccOm87JI.s:5560   .text.usb_lld_clear_in:00000000 $t
C:\Users\mathi\AppData\Local\Temp\ccOm87JI.s:5568   .text.usb_lld_clear_in:00000000 usb_lld_clear_in
C:\Users\mathi\AppData\Local\Temp\ccOm87JI.s:5608   .text.usb_lld_clear_in:00000030 $d
C:\Users\mathi\AppData\Local\Temp\ccOm87JI.s:5618   .bss.USBD1:00000000 USBD1
C:\Users\mathi\AppData\Local\Temp\ccOm87JI.s:5614   .bss.USBD1:00000000 $d
C:\Users\mathi\AppData\Local\Temp\ccOm87JI.s:5621   .bss.ep0_state:00000000 $d
C:\Users\mathi\AppData\Local\Temp\ccOm87JI.s:5624   .bss.ep0_state:00000000 ep0_state
C:\Users\mathi\AppData\Local\Temp\ccOm87JI.s:5627   .bss.ep0setup_buffer:00000000 $d
C:\Users\mathi\AppData\Local\Temp\ccOm87JI.s:5630   .bss.ep0setup_buffer:00000000 ep0setup_buffer
C:\Users\mathi\AppData\Local\Temp\ccOm87JI.s:5633   .rodata.__func__.10295:00000000 $d
C:\Users\mathi\AppData\Local\Temp\ccOm87JI.s:5637   .rodata.__func__.10295:00000000 __func__.10295
C:\Users\mathi\AppData\Local\Temp\ccOm87JI.s:5640   .rodata.__func__.7554:00000000 $d
C:\Users\mathi\AppData\Local\Temp\ccOm87JI.s:5644   .rodata.__func__.7554:00000000 __func__.7554
C:\Users\mathi\AppData\Local\Temp\ccOm87JI.s:5647   .rodata.__func__.7721:00000000 $d
C:\Users\mathi\AppData\Local\Temp\ccOm87JI.s:5651   .rodata.__func__.7721:00000000 __func__.7721
C:\Users\mathi\AppData\Local\Temp\ccOm87JI.s:5654   .rodata.ep0config:00000000 $d
C:\Users\mathi\AppData\Local\Temp\ccOm87JI.s:5658   .rodata.ep0config:00000000 ep0config
C:\Users\mathi\AppData\Local\Temp\ccOm87JI.s:5671   .rodata.fsparams:00000000 $d
C:\Users\mathi\AppData\Local\Temp\ccOm87JI.s:5675   .rodata.fsparams:00000000 fsparams
C:\Users\mathi\AppData\Local\Temp\ccOm87JI.s:5680   .rodata.usb_lld_pump.str1.4:00000000 $d

UNDEFINED SYMBOLS
_stats_start_measure_crit_thd
_dbg_check_lock
chThdSuspendS
_dbg_check_unlock
_stats_stop_measure_crit_thd
chSysHalt
chThdDequeueAllI
chSchRescheduleS
__stack_chk_guard
ch
_stats_increase_irq
_dbg_check_enter_isr
_dbg_check_leave_isr
_port_irq_epilogue
_stats_start_measure_crit_isr
_dbg_check_lock_from_isr
chThdResumeI
_dbg_check_unlock_from_isr
_stats_stop_measure_crit_isr
_usb_reset
__stack_chk_fail
usbObjectInit
_thread_memfill
chSysPolledDelayX
nvicEnableVector
chThdCreateI
chSchReadyI
nvicDisableVector
ARM GAS  C:\Users\mathi\AppData\Local\Temp\ccOm87JI.s 			page 487


_usb_ep0setup
_usb_ep0in
_usb_ep0out
