ARM GAS  C:\Users\mathi\AppData\Local\Temp\ccV17BHA.s 			page 1


   1              		.cpu cortex-m4
   2              		.eabi_attribute 27, 1
   3              		.eabi_attribute 28, 1
   4              		.eabi_attribute 20, 1
   5              		.eabi_attribute 21, 1
   6              		.eabi_attribute 23, 3
   7              		.eabi_attribute 24, 1
   8              		.eabi_attribute 25, 1
   9              		.eabi_attribute 26, 1
  10              		.eabi_attribute 30, 2
  11              		.eabi_attribute 34, 1
  12              		.eabi_attribute 18, 4
  13              		.file	"vl53l0x_api_strings.c"
  14              		.text
  15              	.Ltext0:
  16              		.cfi_sections	.debug_frame
  17              		.section	.text.VL53L0X_check_part_used,"ax",%progbits
  18              		.align	1
  19              		.p2align 4,,15
  20              		.global	VL53L0X_check_part_used
  21              		.syntax unified
  22              		.thumb
  23              		.thumb_func
  24              		.fpu fpv4-sp-d16
  25              		.type	VL53L0X_check_part_used, %function
  26              	VL53L0X_check_part_used:
  27              	.LFB3:
  28              		.file 1 "../../lib/e-puck2_main-processor/src/sensors/VL53L0X/Api/core/src/vl53l0x_api_strings.c"
  29              		.loc 1 48 0
  30              		.cfi_startproc
  31              		@ args = 0, pretend = 0, frame = 8
  32              		@ frame_needed = 0, uses_anonymous_args = 0
  33              	.LVL0:
  34 0000 2DE9F041 		push	{r4, r5, r6, r7, r8, lr}
  35              		.cfi_def_cfa_offset 24
  36              		.cfi_offset 4, -24
  37              		.cfi_offset 5, -20
  38              		.cfi_offset 6, -16
  39              		.cfi_offset 7, -12
  40              		.cfi_offset 8, -8
  41              		.cfi_offset 14, -4
  42 0004 134D     		ldr	r5, .L9
  43 0006 82B0     		sub	sp, sp, #8
  44              		.cfi_def_cfa_offset 32
  45              		.loc 1 48 0
  46 0008 2B68     		ldr	r3, [r5]
  47 000a 0193     		str	r3, [sp, #4]
  48 000c 8846     		mov	r8, r1
  49              	.LVL1:
  50              		.loc 1 55 0
  51 000e 0221     		movs	r1, #2
  52              	.LVL2:
  53              		.loc 1 48 0
  54 0010 1746     		mov	r7, r2
  55 0012 0646     		mov	r6, r0
  56              		.loc 1 55 0
  57 0014 FFF7FEFF 		bl	VL53L0X_get_info_from_device
ARM GAS  C:\Users\mathi\AppData\Local\Temp\ccV17BHA.s 			page 2


  58              	.LVL3:
  59              		.loc 1 57 0
  60 0018 0446     		mov	r4, r0
  61 001a 60B9     		cbnz	r0, .L2
  62              	.LVL4:
  63              		.loc 1 60 0
  64 001c 96F8F130 		ldrb	r3, [r6, #241]	@ zero_extendqisi2
  65 0020 07F14000 		add	r0, r7, #64
  66              	.LVL5:
  67 0024 7BB1     		cbz	r3, .L7
  68              		.loc 1 64 0
  69 0026 96F8F230 		ldrb	r3, [r6, #242]	@ zero_extendqisi2
  70 002a 88F80030 		strb	r3, [r8]
  71              	.LVL6:
  72              		.loc 1 67 0
  73 002e 06F1F301 		add	r1, r6, #243
  74 0032 FFF7FEFF 		bl	strcpy
  75              	.LVL7:
  76              	.L2:
  77              		.loc 1 73 0
  78 0036 019A     		ldr	r2, [sp, #4]
  79 0038 2B68     		ldr	r3, [r5]
  80 003a 9A42     		cmp	r2, r3
  81 003c 2046     		mov	r0, r4
  82 003e 07D1     		bne	.L8
  83 0040 02B0     		add	sp, sp, #8
  84              		.cfi_remember_state
  85              		.cfi_def_cfa_offset 24
  86              		@ sp needed
  87 0042 BDE8F081 		pop	{r4, r5, r6, r7, r8, pc}
  88              	.LVL8:
  89              	.L7:
  90              		.cfi_restore_state
  91              	.LBB4:
  92              	.LBB5:
  93              		.loc 1 61 0
  94 0046 88F80040 		strb	r4, [r8]
  95              	.LVL9:
  96              		.loc 1 62 0
  97 004a 87F84040 		strb	r4, [r7, #64]
  98 004e F2E7     		b	.L2
  99              	.LVL10:
 100              	.L8:
 101              	.LBE5:
 102              	.LBE4:
 103              		.loc 1 73 0
 104 0050 FFF7FEFF 		bl	__stack_chk_fail
 105              	.LVL11:
 106              	.L10:
 107              		.align	2
 108              	.L9:
 109 0054 00000000 		.word	__stack_chk_guard
 110              		.cfi_endproc
 111              	.LFE3:
 112              		.size	VL53L0X_check_part_used, .-VL53L0X_check_part_used
 113              		.section	.text.VL53L0X_get_device_info,"ax",%progbits
 114              		.align	1
ARM GAS  C:\Users\mathi\AppData\Local\Temp\ccV17BHA.s 			page 3


 115              		.p2align 4,,15
 116              		.global	VL53L0X_get_device_info
 117              		.syntax unified
 118              		.thumb
 119              		.thumb_func
 120              		.fpu fpv4-sp-d16
 121              		.type	VL53L0X_get_device_info, %function
 122              	VL53L0X_get_device_info:
 123              	.LFB4:
 124              		.loc 1 78 0
 125              		.cfi_startproc
 126              		@ args = 0, pretend = 0, frame = 8
 127              		@ frame_needed = 0, uses_anonymous_args = 0
 128              	.LVL12:
 129 0000 F0B5     		push	{r4, r5, r6, r7, lr}
 130              		.cfi_def_cfa_offset 20
 131              		.cfi_offset 4, -20
 132              		.cfi_offset 5, -16
 133              		.cfi_offset 6, -12
 134              		.cfi_offset 7, -8
 135              		.cfi_offset 14, -4
 136 0002 2E4E     		ldr	r6, .L27
 137 0004 83B0     		sub	sp, sp, #12
 138              		.cfi_def_cfa_offset 32
 139              		.loc 1 78 0
 140 0006 0C46     		mov	r4, r1
 141 0008 3368     		ldr	r3, [r6]
 142 000a 0193     		str	r3, [sp, #4]
 143              	.LVL13:
 144              	.LBB10:
 145              	.LBB11:
 146              		.loc 1 55 0
 147 000c 0221     		movs	r1, #2
 148              	.LVL14:
 149              	.LBE11:
 150              	.LBE10:
 151              		.loc 1 78 0
 152 000e 0546     		mov	r5, r0
 153              	.LVL15:
 154              	.LBB16:
 155              	.LBB14:
 156              		.loc 1 55 0
 157 0010 FFF7FEFF 		bl	VL53L0X_get_info_from_device
 158              	.LVL16:
 159              		.loc 1 57 0
 160 0014 68BB     		cbnz	r0, .L12
 161              	.LVL17:
 162              		.loc 1 60 0
 163 0016 95F8F130 		ldrb	r3, [r5, #241]	@ zero_extendqisi2
 164 001a 04F14000 		add	r0, r4, #64
 165              	.LVL18:
 166 001e 73B3     		cbz	r3, .L25
 167              		.loc 1 64 0
 168 0020 95F8F270 		ldrb	r7, [r5, #242]	@ zero_extendqisi2
 169              	.LVL19:
 170              		.loc 1 67 0
 171 0024 05F1F301 		add	r1, r5, #243
ARM GAS  C:\Users\mathi\AppData\Local\Temp\ccV17BHA.s 			page 4


 172              	.LVL20:
 173 0028 FFF7FEFF 		bl	strcpy
 174              	.LVL21:
 175              	.LBE14:
 176              	.LBE16:
 177              		.loc 1 86 0
 178 002c 4FB3     		cbz	r7, .L14
 179              		.loc 1 89 0
 180 002e 222F     		cmp	r7, #34
 181 0030 2DD8     		bhi	.L17
 182              		.loc 1 89 0 is_stmt 0 discriminator 1
 183 0032 202F     		cmp	r7, #32
 184 0034 3AD0     		beq	.L18
 185              		.loc 1 90 0 is_stmt 1
 186 0036 224B     		ldr	r3, .L27+4
 187 0038 07CB     		ldmia	r3!, {r0, r1, r2}
 188 003a 2060     		str	r0, [r4]	@ unaligned
 189 003c 6160     		str	r1, [r4, #4]	@ unaligned
 190 003e A260     		str	r2, [r4, #8]	@ unaligned
 191              	.LVL22:
 192              	.L16:
 193              		.loc 1 100 0
 194 0040 204B     		ldr	r3, .L27+8
 195 0042 03CB     		ldmia	r3!, {r0, r1}
 196              		.loc 1 106 0
 197 0044 04F16002 		add	r2, r4, #96
 198              		.loc 1 100 0
 199 0048 2062     		str	r0, [r4, #32]	@ unaligned
 200 004a 6162     		str	r1, [r4, #36]	@ unaligned
 201              		.loc 1 106 0
 202 004c 2846     		mov	r0, r5
 203 004e C021     		movs	r1, #192
 204 0050 FFF7FEFF 		bl	VL53L0X_RdByte
 205              	.LVL23:
 206              		.loc 1 110 0
 207 0054 68B9     		cbnz	r0, .L12
 208              		.loc 1 111 0
 209 0056 0DF10302 		add	r2, sp, #3
 210 005a 2846     		mov	r0, r5
 211              	.LVL24:
 212 005c C221     		movs	r1, #194
 213 005e FFF7FEFF 		bl	VL53L0X_RdByte
 214              	.LVL25:
 215              		.loc 1 116 0
 216 0062 9DF80330 		ldrb	r3, [sp, #3]	@ zero_extendqisi2
 217              		.loc 1 114 0
 218 0066 0122     		movs	r2, #1
 219              		.loc 1 116 0
 220 0068 1B09     		lsrs	r3, r3, #4
 221              		.loc 1 115 0
 222 006a 84F86230 		strb	r3, [r4, #98]
 223              		.loc 1 114 0
 224 006e 84F86120 		strb	r2, [r4, #97]
 225              	.LVL26:
 226              	.L12:
 227              		.loc 1 120 0
 228 0072 019A     		ldr	r2, [sp, #4]
ARM GAS  C:\Users\mathi\AppData\Local\Temp\ccV17BHA.s 			page 5


 229 0074 3368     		ldr	r3, [r6]
 230 0076 9A42     		cmp	r2, r3
 231 0078 1ED1     		bne	.L26
 232 007a 03B0     		add	sp, sp, #12
 233              		.cfi_remember_state
 234              		.cfi_def_cfa_offset 20
 235              		@ sp needed
 236 007c F0BD     		pop	{r4, r5, r6, r7, pc}
 237              	.LVL27:
 238              	.L25:
 239              		.cfi_restore_state
 240              	.LBB17:
 241              	.LBB15:
 242              	.LBB12:
 243              	.LBB13:
 244              		.loc 1 62 0
 245 007e 84F84030 		strb	r3, [r4, #64]
 246              	.LVL28:
 247              	.L14:
 248              	.LBE13:
 249              	.LBE12:
 250              	.LBE15:
 251              	.LBE17:
 252              		.loc 1 87 0
 253 0082 114B     		ldr	r3, .L27+12
 254 0084 07CB     		ldmia	r3!, {r0, r1, r2}
 255 0086 2060     		str	r0, [r4]	@ unaligned
 256 0088 6160     		str	r1, [r4, #4]	@ unaligned
 257 008a A260     		str	r2, [r4, #8]	@ unaligned
 258 008c D8E7     		b	.L16
 259              	.LVL29:
 260              	.L17:
 261              		.loc 1 92 0
 262 008e 262F     		cmp	r7, #38
 263 0090 0CD9     		bls	.L18
 264              		.loc 1 96 0
 265 0092 0E4F     		ldr	r7, .L27+16
 266              	.LVL30:
 267 0094 0FCF     		ldmia	r7!, {r0, r1, r2, r3}
 268 0096 2060     		str	r0, [r4]	@ unaligned
 269 0098 97F804C0 		ldrb	ip, [r7, #4]	@ zero_extendqisi2
 270 009c 3868     		ldr	r0, [r7]
 271 009e 6160     		str	r1, [r4, #4]	@ unaligned
 272 00a0 A260     		str	r2, [r4, #8]	@ unaligned
 273 00a2 E360     		str	r3, [r4, #12]	@ unaligned
 274 00a4 2061     		str	r0, [r4, #16]	@ unaligned
 275 00a6 84F814C0 		strb	ip, [r4, #20]
 276 00aa C9E7     		b	.L16
 277              	.LVL31:
 278              	.L18:
 279              		.loc 1 93 0
 280 00ac 084B     		ldr	r3, .L27+20
 281 00ae 07CB     		ldmia	r3!, {r0, r1, r2}
 282 00b0 2060     		str	r0, [r4]	@ unaligned
 283 00b2 6160     		str	r1, [r4, #4]	@ unaligned
 284 00b4 A260     		str	r2, [r4, #8]	@ unaligned
 285 00b6 C3E7     		b	.L16
ARM GAS  C:\Users\mathi\AppData\Local\Temp\ccV17BHA.s 			page 6


 286              	.LVL32:
 287              	.L26:
 288              		.loc 1 120 0
 289 00b8 FFF7FEFF 		bl	__stack_chk_fail
 290              	.LVL33:
 291              	.L28:
 292              		.align	2
 293              	.L27:
 294 00bc 00000000 		.word	__stack_chk_guard
 295 00c0 0C000000 		.word	.LC1
 296 00c4 3C000000 		.word	.LC4
 297 00c8 00000000 		.word	.LC0
 298 00cc 24000000 		.word	.LC3
 299 00d0 18000000 		.word	.LC2
 300              		.cfi_endproc
 301              	.LFE4:
 302              		.size	VL53L0X_get_device_info, .-VL53L0X_get_device_info
 303              		.section	.text.VL53L0X_get_device_error_string,"ax",%progbits
 304              		.align	1
 305              		.p2align 4,,15
 306              		.global	VL53L0X_get_device_error_string
 307              		.syntax unified
 308              		.thumb
 309              		.thumb_func
 310              		.fpu fpv4-sp-d16
 311              		.type	VL53L0X_get_device_error_string, %function
 312              	VL53L0X_get_device_error_string:
 313              	.LFB5:
 314              		.loc 1 125 0
 315              		.cfi_startproc
 316              		@ args = 0, pretend = 0, frame = 8
 317              		@ frame_needed = 0, uses_anonymous_args = 0
 318              	.LVL34:
 319 0000 F0B5     		push	{r4, r5, r6, r7, lr}
 320              		.cfi_def_cfa_offset 20
 321              		.cfi_offset 4, -20
 322              		.cfi_offset 5, -16
 323              		.cfi_offset 6, -12
 324              		.cfi_offset 7, -8
 325              		.cfi_offset 14, -4
 326 0002 4B4D     		ldr	r5, .L56
 327 0004 83B0     		sub	sp, sp, #12
 328              		.cfi_def_cfa_offset 32
 329              		.loc 1 125 0
 330 0006 2B68     		ldr	r3, [r5]
 331 0008 0193     		str	r3, [sp, #4]
 332              	.LVL35:
 333 000a 0C46     		mov	r4, r1
 334              		.loc 1 130 0
 335 000c 0E28     		cmp	r0, #14
 336 000e 00F28B80 		bhi	.L30
 337 0012 DFE800F0 		tbb	[pc, r0]
 338              	.L32:
 339 0016 1C       		.byte	(.L31-.L32)/2
 340 0017 23       		.byte	(.L33-.L32)/2
 341 0018 30       		.byte	(.L34-.L32)/2
 342 0019 3B       		.byte	(.L35-.L32)/2
ARM GAS  C:\Users\mathi\AppData\Local\Temp\ccV17BHA.s 			page 7


 343 001a 46       		.byte	(.L36-.L32)/2
 344 001b 51       		.byte	(.L37-.L32)/2
 345 001c 5B       		.byte	(.L38-.L32)/2
 346 001d 65       		.byte	(.L39-.L32)/2
 347 001e 67       		.byte	(.L40-.L32)/2
 348 001f 69       		.byte	(.L41-.L32)/2
 349 0020 6B       		.byte	(.L42-.L32)/2
 350 0021 6D       		.byte	(.L43-.L32)/2
 351 0022 6F       		.byte	(.L44-.L32)/2
 352 0023 7D       		.byte	(.L45-.L32)/2
 353 0024 08       		.byte	(.L46-.L32)/2
 354 0025 00       		.p2align 1
 355              	.L46:
 356              		.loc 1 188 0
 357 0026 434E     		ldr	r6, .L56+4
 358 0028 0FCE     		ldmia	r6!, {r0, r1, r2, r3}
 359              	.LVL36:
 360 002a 2060     		str	r0, [r4]	@ unaligned
 361 002c 6160     		str	r1, [r4, #4]	@ unaligned
 362 002e A260     		str	r2, [r4, #8]	@ unaligned
 363 0030 07CE     		ldmia	r6!, {r0, r1, r2}
 364 0032 3678     		ldrb	r6, [r6]	@ zero_extendqisi2
 365 0034 E360     		str	r3, [r4, #12]	@ unaligned
 366 0036 2677     		strb	r6, [r4, #28]
 367 0038 2061     		str	r0, [r4, #16]	@ unaligned
 368 003a 6161     		str	r1, [r4, #20]	@ unaligned
 369 003c A261     		str	r2, [r4, #24]	@ unaligned
 370              	.L47:
 371              		.loc 1 200 0
 372 003e 019A     		ldr	r2, [sp, #4]
 373 0040 2B68     		ldr	r3, [r5]
 374 0042 9A42     		cmp	r2, r3
 375 0044 4FF00000 		mov	r0, #0
 376 0048 70D1     		bne	.L55
 377 004a 03B0     		add	sp, sp, #12
 378              		.cfi_remember_state
 379              		.cfi_def_cfa_offset 20
 380              		@ sp needed
 381 004c F0BD     		pop	{r4, r5, r6, r7, pc}
 382              	.LVL37:
 383              	.L31:
 384              		.cfi_restore_state
 385              		.loc 1 132 0
 386 004e 3A4B     		ldr	r3, .L56+8
 387              	.L50:
 388              		.loc 1 164 0
 389 0050 03CB     		ldmia	r3!, {r0, r1}
 390              	.LVL38:
 391 0052 1B88     		ldrh	r3, [r3]	@ unaligned
 392 0054 2381     		strh	r3, [r4, #8]	@ unaligned
 393 0056 2060     		str	r0, [r4]	@ unaligned
 394 0058 6160     		str	r1, [r4, #4]	@ unaligned
 395              		.loc 1 166 0
 396 005a F0E7     		b	.L47
 397              	.LVL39:
 398              	.L33:
 399              		.loc 1 136 0
ARM GAS  C:\Users\mathi\AppData\Local\Temp\ccV17BHA.s 			page 8


 400 005c 374E     		ldr	r6, .L56+12
 401 005e 0FCE     		ldmia	r6!, {r0, r1, r2, r3}
 402              	.LVL40:
 403 0060 2060     		str	r0, [r4]	@ unaligned
 404 0062 6160     		str	r1, [r4, #4]	@ unaligned
 405 0064 A260     		str	r2, [r4, #8]	@ unaligned
 406 0066 07CE     		ldmia	r6!, {r0, r1, r2}
 407 0068 3688     		ldrh	r6, [r6]	@ unaligned
 408 006a E360     		str	r3, [r4, #12]	@ unaligned
 409 006c A683     		strh	r6, [r4, #28]	@ unaligned
 410 006e 2061     		str	r0, [r4, #16]	@ unaligned
 411 0070 6161     		str	r1, [r4, #20]	@ unaligned
 412 0072 A261     		str	r2, [r4, #24]	@ unaligned
 413              		.loc 1 138 0
 414 0074 E3E7     		b	.L47
 415              	.LVL41:
 416              	.L34:
 417              		.loc 1 140 0
 418 0076 324E     		ldr	r6, .L56+16
 419              	.L51:
 420              		.loc 1 160 0
 421 0078 0FCE     		ldmia	r6!, {r0, r1, r2, r3}
 422              	.LVL42:
 423 007a 2060     		str	r0, [r4]	@ unaligned
 424 007c 6160     		str	r1, [r4, #4]	@ unaligned
 425 007e A260     		str	r2, [r4, #8]	@ unaligned
 426 0080 07CE     		ldmia	r6!, {r0, r1, r2}
 427 0082 E360     		str	r3, [r4, #12]	@ unaligned
 428 0084 2061     		str	r0, [r4, #16]	@ unaligned
 429 0086 6161     		str	r1, [r4, #20]	@ unaligned
 430 0088 A261     		str	r2, [r4, #24]	@ unaligned
 431              		.loc 1 162 0
 432 008a D8E7     		b	.L47
 433              	.LVL43:
 434              	.L35:
 435              		.loc 1 144 0
 436 008c 2D4E     		ldr	r6, .L56+20
 437              	.L52:
 438              		.loc 1 193 0
 439 008e 0FCE     		ldmia	r6!, {r0, r1, r2, r3}
 440              	.LVL44:
 441 0090 3788     		ldrh	r7, [r6]	@ unaligned
 442 0092 B678     		ldrb	r6, [r6, #2]	@ zero_extendqisi2
 443 0094 2060     		str	r0, [r4]	@ unaligned
 444 0096 6160     		str	r1, [r4, #4]	@ unaligned
 445 0098 A260     		str	r2, [r4, #8]	@ unaligned
 446 009a E360     		str	r3, [r4, #12]	@ unaligned
 447 009c 2782     		strh	r7, [r4, #16]	@ unaligned
 448 009e A674     		strb	r6, [r4, #18]
 449 00a0 CDE7     		b	.L47
 450              	.LVL45:
 451              	.L36:
 452              		.loc 1 148 0
 453 00a2 294E     		ldr	r6, .L56+24
 454 00a4 0FCE     		ldmia	r6!, {r0, r1, r2, r3}
 455              	.LVL46:
 456 00a6 2060     		str	r0, [r4]	@ unaligned
ARM GAS  C:\Users\mathi\AppData\Local\Temp\ccV17BHA.s 			page 9


 457 00a8 3779     		ldrb	r7, [r6, #4]	@ zero_extendqisi2
 458 00aa 3068     		ldr	r0, [r6]
 459 00ac 6160     		str	r1, [r4, #4]	@ unaligned
 460 00ae A260     		str	r2, [r4, #8]	@ unaligned
 461 00b0 E360     		str	r3, [r4, #12]	@ unaligned
 462 00b2 2061     		str	r0, [r4, #16]	@ unaligned
 463 00b4 2775     		strb	r7, [r4, #20]
 464              		.loc 1 150 0
 465 00b6 C2E7     		b	.L47
 466              	.LVL47:
 467              	.L37:
 468              		.loc 1 152 0
 469 00b8 244B     		ldr	r3, .L56+28
 470              	.L53:
 471              		.loc 1 172 0
 472 00ba 07CB     		ldmia	r3!, {r0, r1, r2}
 473              	.LVL48:
 474 00bc 1E88     		ldrh	r6, [r3]	@ unaligned
 475 00be 9B78     		ldrb	r3, [r3, #2]	@ zero_extendqisi2
 476 00c0 2060     		str	r0, [r4]	@ unaligned
 477 00c2 6160     		str	r1, [r4, #4]	@ unaligned
 478 00c4 A260     		str	r2, [r4, #8]	@ unaligned
 479 00c6 A681     		strh	r6, [r4, #12]	@ unaligned
 480 00c8 A373     		strb	r3, [r4, #14]
 481              		.loc 1 174 0
 482 00ca B8E7     		b	.L47
 483              	.LVL49:
 484              	.L38:
 485              		.loc 1 156 0
 486 00cc 204E     		ldr	r6, .L56+32
 487              	.L54:
 488              		.loc 1 168 0
 489 00ce 0FCE     		ldmia	r6!, {r0, r1, r2, r3}
 490              	.LVL50:
 491 00d0 2060     		str	r0, [r4]	@ unaligned
 492 00d2 6160     		str	r1, [r4, #4]	@ unaligned
 493 00d4 03CE     		ldmia	r6!, {r0, r1}
 494 00d6 A260     		str	r2, [r4, #8]	@ unaligned
 495 00d8 E360     		str	r3, [r4, #12]	@ unaligned
 496 00da 2061     		str	r0, [r4, #16]	@ unaligned
 497 00dc 6161     		str	r1, [r4, #20]	@ unaligned
 498              		.loc 1 170 0
 499 00de AEE7     		b	.L47
 500              	.LVL51:
 501              	.L39:
 502              		.loc 1 160 0
 503 00e0 1C4E     		ldr	r6, .L56+36
 504 00e2 C9E7     		b	.L51
 505              	.L40:
 506              		.loc 1 164 0
 507 00e4 1C4B     		ldr	r3, .L56+40
 508 00e6 B3E7     		b	.L50
 509              	.L41:
 510              		.loc 1 168 0
 511 00e8 1C4E     		ldr	r6, .L56+44
 512 00ea F0E7     		b	.L54
 513              	.L42:
ARM GAS  C:\Users\mathi\AppData\Local\Temp\ccV17BHA.s 			page 10


 514              		.loc 1 172 0
 515 00ec 1C4B     		ldr	r3, .L56+48
 516 00ee E4E7     		b	.L53
 517              	.L43:
 518              		.loc 1 176 0
 519 00f0 1C4B     		ldr	r3, .L56+52
 520 00f2 E2E7     		b	.L53
 521              	.L44:
 522              		.loc 1 180 0
 523 00f4 1C4E     		ldr	r6, .L56+56
 524 00f6 0FCE     		ldmia	r6!, {r0, r1, r2, r3}
 525              	.LVL52:
 526 00f8 2060     		str	r0, [r4]	@ unaligned
 527 00fa 6160     		str	r1, [r4, #4]	@ unaligned
 528 00fc 03CE     		ldmia	r6!, {r0, r1}
 529 00fe 3788     		ldrh	r7, [r6]	@ unaligned
 530 0100 B678     		ldrb	r6, [r6, #2]	@ zero_extendqisi2
 531 0102 A260     		str	r2, [r4, #8]	@ unaligned
 532 0104 E360     		str	r3, [r4, #12]	@ unaligned
 533 0106 2061     		str	r0, [r4, #16]	@ unaligned
 534 0108 6161     		str	r1, [r4, #20]	@ unaligned
 535 010a 2783     		strh	r7, [r4, #24]	@ unaligned
 536 010c A676     		strb	r6, [r4, #26]
 537              		.loc 1 182 0
 538 010e 96E7     		b	.L47
 539              	.LVL53:
 540              	.L45:
 541              		.loc 1 184 0
 542 0110 164E     		ldr	r6, .L56+60
 543 0112 0FCE     		ldmia	r6!, {r0, r1, r2, r3}
 544              	.LVL54:
 545 0114 2060     		str	r0, [r4]	@ unaligned
 546 0116 6160     		str	r1, [r4, #4]	@ unaligned
 547 0118 03CE     		ldmia	r6!, {r0, r1}
 548 011a 3678     		ldrb	r6, [r6]	@ zero_extendqisi2
 549 011c A260     		str	r2, [r4, #8]	@ unaligned
 550 011e E360     		str	r3, [r4, #12]	@ unaligned
 551 0120 2676     		strb	r6, [r4, #24]
 552 0122 2061     		str	r0, [r4, #16]	@ unaligned
 553 0124 6161     		str	r1, [r4, #20]	@ unaligned
 554              		.loc 1 186 0
 555 0126 8AE7     		b	.L47
 556              	.LVL55:
 557              	.L30:
 558              		.loc 1 193 0
 559 0128 114E     		ldr	r6, .L56+64
 560 012a B0E7     		b	.L52
 561              	.LVL56:
 562              	.L55:
 563              		.loc 1 200 0
 564 012c FFF7FEFF 		bl	__stack_chk_fail
 565              	.LVL57:
 566              	.L57:
 567              		.align	2
 568              	.L56:
 569 0130 00000000 		.word	__stack_chk_guard
 570 0134 34010000 		.word	.LC19
ARM GAS  C:\Users\mathi\AppData\Local\Temp\ccV17BHA.s 			page 11


 571 0138 00000000 		.word	.LC5
 572 013c 0C000000 		.word	.LC6
 573 0140 2C000000 		.word	.LC7
 574 0144 48000000 		.word	.LC8
 575 0148 5C000000 		.word	.LC9
 576 014c 74000000 		.word	.LC10
 577 0150 84000000 		.word	.LC11
 578 0154 9C000000 		.word	.LC12
 579 0158 B8000000 		.word	.LC13
 580 015c C4000000 		.word	.LC14
 581 0160 DC000000 		.word	.LC15
 582 0164 EC000000 		.word	.LC16
 583 0168 FC000000 		.word	.LC17
 584 016c 18010000 		.word	.LC18
 585 0170 54010000 		.word	.LC20
 586              		.cfi_endproc
 587              	.LFE5:
 588              		.size	VL53L0X_get_device_error_string, .-VL53L0X_get_device_error_string
 589              		.section	.text.VL53L0X_get_range_status_string,"ax",%progbits
 590              		.align	1
 591              		.p2align 4,,15
 592              		.global	VL53L0X_get_range_status_string
 593              		.syntax unified
 594              		.thumb
 595              		.thumb_func
 596              		.fpu fpv4-sp-d16
 597              		.type	VL53L0X_get_range_status_string, %function
 598              	VL53L0X_get_range_status_string:
 599              	.LFB6:
 600              		.loc 1 204 0
 601              		.cfi_startproc
 602              		@ args = 0, pretend = 0, frame = 8
 603              		@ frame_needed = 0, uses_anonymous_args = 0
 604              	.LVL58:
 605 0000 70B5     		push	{r4, r5, r6, lr}
 606              		.cfi_def_cfa_offset 16
 607              		.cfi_offset 4, -16
 608              		.cfi_offset 5, -12
 609              		.cfi_offset 6, -8
 610              		.cfi_offset 14, -4
 611 0002 224C     		ldr	r4, .L72
 612 0004 82B0     		sub	sp, sp, #8
 613              		.cfi_def_cfa_offset 24
 614              		.loc 1 204 0
 615 0006 2368     		ldr	r3, [r4]
 616 0008 0193     		str	r3, [sp, #4]
 617              	.LVL59:
 618 000a 0B46     		mov	r3, r1
 619              		.loc 1 209 0
 620 000c 0528     		cmp	r0, #5
 621 000e 34D8     		bhi	.L59
 622 0010 DFE800F0 		tbb	[pc, r0]
 623              	.L61:
 624 0014 12       		.byte	(.L60-.L61)/2
 625 0015 18       		.byte	(.L62-.L61)/2
 626 0016 21       		.byte	(.L63-.L61)/2
 627 0017 27       		.byte	(.L64-.L61)/2
ARM GAS  C:\Users\mathi\AppData\Local\Temp\ccV17BHA.s 			page 12


 628 0018 31       		.byte	(.L65-.L61)/2
 629 0019 03       		.byte	(.L66-.L61)/2
 630              		.p2align 1
 631              	.L66:
 632              		.loc 1 231 0
 633 001a 1D4D     		ldr	r5, .L72+4
 634 001c 07CD     		ldmia	r5!, {r0, r1, r2}
 635              	.LVL60:
 636 001e 2D88     		ldrh	r5, [r5]	@ unaligned
 637 0020 9D81     		strh	r5, [r3, #12]	@ unaligned
 638 0022 1860     		str	r0, [r3]	@ unaligned
 639 0024 5960     		str	r1, [r3, #4]	@ unaligned
 640 0026 9A60     		str	r2, [r3, #8]	@ unaligned
 641              	.L67:
 642              		.loc 1 242 0
 643 0028 019A     		ldr	r2, [sp, #4]
 644 002a 2368     		ldr	r3, [r4]
 645              	.LVL61:
 646 002c 9A42     		cmp	r2, r3
 647 002e 4FF00000 		mov	r0, #0
 648 0032 29D1     		bne	.L71
 649 0034 02B0     		add	sp, sp, #8
 650              		.cfi_remember_state
 651              		.cfi_def_cfa_offset 16
 652              		@ sp needed
 653 0036 70BD     		pop	{r4, r5, r6, pc}
 654              	.LVL62:
 655              	.L60:
 656              		.cfi_restore_state
 657              		.loc 1 211 0
 658 0038 164D     		ldr	r5, .L72+8
 659 003a 07CD     		ldmia	r5!, {r0, r1, r2}
 660              	.LVL63:
 661 003c 1860     		str	r0, [r3]	@ unaligned
 662 003e 5960     		str	r1, [r3, #4]	@ unaligned
 663 0040 9A60     		str	r2, [r3, #8]	@ unaligned
 664              		.loc 1 213 0
 665 0042 F1E7     		b	.L67
 666              	.LVL64:
 667              	.L62:
 668              		.loc 1 215 0
 669 0044 144A     		ldr	r2, .L72+12
 670              	.L70:
 671              		.loc 1 227 0
 672 0046 03CA     		ldmia	r2!, {r0, r1}
 673              	.LVL65:
 674 0048 1588     		ldrh	r5, [r2]	@ unaligned
 675 004a 9278     		ldrb	r2, [r2, #2]	@ zero_extendqisi2
 676 004c 1860     		str	r0, [r3]	@ unaligned
 677 004e 5960     		str	r1, [r3, #4]	@ unaligned
 678 0050 1D81     		strh	r5, [r3, #8]	@ unaligned
 679 0052 9A72     		strb	r2, [r3, #10]
 680              		.loc 1 229 0
 681 0054 E8E7     		b	.L67
 682              	.LVL66:
 683              	.L63:
 684              		.loc 1 219 0
ARM GAS  C:\Users\mathi\AppData\Local\Temp\ccV17BHA.s 			page 13


 685 0056 114D     		ldr	r5, .L72+16
 686 0058 07CD     		ldmia	r5!, {r0, r1, r2}
 687              	.LVL67:
 688 005a 1860     		str	r0, [r3]	@ unaligned
 689 005c 5960     		str	r1, [r3, #4]	@ unaligned
 690 005e 9A60     		str	r2, [r3, #8]	@ unaligned
 691              		.loc 1 221 0
 692 0060 E2E7     		b	.L67
 693              	.LVL68:
 694              	.L64:
 695              		.loc 1 223 0
 696 0062 0F4D     		ldr	r5, .L72+20
 697 0064 07CD     		ldmia	r5!, {r0, r1, r2}
 698              	.LVL69:
 699 0066 2E88     		ldrh	r6, [r5]	@ unaligned
 700 0068 AD78     		ldrb	r5, [r5, #2]	@ zero_extendqisi2
 701 006a 1860     		str	r0, [r3]	@ unaligned
 702 006c 5960     		str	r1, [r3, #4]	@ unaligned
 703 006e 9A60     		str	r2, [r3, #8]	@ unaligned
 704 0070 9E81     		strh	r6, [r3, #12]	@ unaligned
 705 0072 9D73     		strb	r5, [r3, #14]
 706              		.loc 1 225 0
 707 0074 D8E7     		b	.L67
 708              	.LVL70:
 709              	.L65:
 710              		.loc 1 227 0
 711 0076 0B4A     		ldr	r2, .L72+24
 712 0078 E5E7     		b	.L70
 713              	.L59:
 714              		.loc 1 236 0
 715 007a 0B4A     		ldr	r2, .L72+28
 716 007c 03CA     		ldmia	r2!, {r0, r1}
 717              	.LVL71:
 718 007e 1288     		ldrh	r2, [r2]	@ unaligned
 719 0080 1A81     		strh	r2, [r3, #8]	@ unaligned
 720 0082 1860     		str	r0, [r3]	@ unaligned
 721 0084 5960     		str	r1, [r3, #4]	@ unaligned
 722 0086 CFE7     		b	.L67
 723              	.LVL72:
 724              	.L71:
 725              		.loc 1 242 0
 726 0088 FFF7FEFF 		bl	__stack_chk_fail
 727              	.LVL73:
 728              	.L73:
 729              		.align	2
 730              	.L72:
 731 008c 00000000 		.word	__stack_chk_guard
 732 0090 40000000 		.word	.LC26
 733 0094 00000000 		.word	.LC21
 734 0098 0C000000 		.word	.LC22
 735 009c 18000000 		.word	.LC23
 736 00a0 24000000 		.word	.LC24
 737 00a4 34000000 		.word	.LC25
 738 00a8 00000000 		.word	.LC5
 739              		.cfi_endproc
 740              	.LFE6:
 741              		.size	VL53L0X_get_range_status_string, .-VL53L0X_get_range_status_string
ARM GAS  C:\Users\mathi\AppData\Local\Temp\ccV17BHA.s 			page 14


 742              		.section	.text.VL53L0X_get_pal_error_string,"ax",%progbits
 743              		.align	1
 744              		.p2align 4,,15
 745              		.global	VL53L0X_get_pal_error_string
 746              		.syntax unified
 747              		.thumb
 748              		.thumb_func
 749              		.fpu fpv4-sp-d16
 750              		.type	VL53L0X_get_pal_error_string, %function
 751              	VL53L0X_get_pal_error_string:
 752              	.LFB7:
 753              		.loc 1 246 0
 754              		.cfi_startproc
 755              		@ args = 0, pretend = 0, frame = 8
 756              		@ frame_needed = 0, uses_anonymous_args = 0
 757              	.LVL74:
 758 0000 F0B5     		push	{r4, r5, r6, r7, lr}
 759              		.cfi_def_cfa_offset 20
 760              		.cfi_offset 4, -20
 761              		.cfi_offset 5, -16
 762              		.cfi_offset 6, -12
 763              		.cfi_offset 7, -8
 764              		.cfi_offset 14, -4
 765 0002 684D     		ldr	r5, .L103
 766 0004 83B0     		sub	sp, sp, #12
 767              		.cfi_def_cfa_offset 32
 768              		.loc 1 246 0
 769 0006 2B68     		ldr	r3, [r5]
 770 0008 0193     		str	r3, [sp, #4]
 771              	.LVL75:
 772              		.loc 1 251 0
 773 000a 6330     		adds	r0, r0, #99
 774              	.LVL76:
 775              		.loc 1 246 0
 776 000c 0C46     		mov	r4, r1
 777              		.loc 1 251 0
 778 000e 6328     		cmp	r0, #99
 779 0010 00F2BB80 		bhi	.L75
 780 0014 DFE800F0 		tbb	[pc, r0]
 781              	.L77:
 782 0018 41       		.byte	(.L76-.L77)/2
 783 0019 B9       		.byte	(.L75-.L77)/2
 784 001a B9       		.byte	(.L75-.L77)/2
 785 001b B9       		.byte	(.L75-.L77)/2
 786 001c B9       		.byte	(.L75-.L77)/2
 787 001d B9       		.byte	(.L75-.L77)/2
 788 001e B9       		.byte	(.L75-.L77)/2
 789 001f B9       		.byte	(.L75-.L77)/2
 790 0020 B9       		.byte	(.L75-.L77)/2
 791 0021 B9       		.byte	(.L75-.L77)/2
 792 0022 B9       		.byte	(.L75-.L77)/2
 793 0023 B9       		.byte	(.L75-.L77)/2
 794 0024 B9       		.byte	(.L75-.L77)/2
 795 0025 B9       		.byte	(.L75-.L77)/2
 796 0026 B9       		.byte	(.L75-.L77)/2
 797 0027 B9       		.byte	(.L75-.L77)/2
 798 0028 B9       		.byte	(.L75-.L77)/2
ARM GAS  C:\Users\mathi\AppData\Local\Temp\ccV17BHA.s 			page 15


 799 0029 B9       		.byte	(.L75-.L77)/2
 800 002a B9       		.byte	(.L75-.L77)/2
 801 002b B9       		.byte	(.L75-.L77)/2
 802 002c B9       		.byte	(.L75-.L77)/2
 803 002d B9       		.byte	(.L75-.L77)/2
 804 002e B9       		.byte	(.L75-.L77)/2
 805 002f B9       		.byte	(.L75-.L77)/2
 806 0030 B9       		.byte	(.L75-.L77)/2
 807 0031 B9       		.byte	(.L75-.L77)/2
 808 0032 B9       		.byte	(.L75-.L77)/2
 809 0033 B9       		.byte	(.L75-.L77)/2
 810 0034 B9       		.byte	(.L75-.L77)/2
 811 0035 B9       		.byte	(.L75-.L77)/2
 812 0036 B9       		.byte	(.L75-.L77)/2
 813 0037 B9       		.byte	(.L75-.L77)/2
 814 0038 B9       		.byte	(.L75-.L77)/2
 815 0039 B9       		.byte	(.L75-.L77)/2
 816 003a B9       		.byte	(.L75-.L77)/2
 817 003b B9       		.byte	(.L75-.L77)/2
 818 003c B9       		.byte	(.L75-.L77)/2
 819 003d B9       		.byte	(.L75-.L77)/2
 820 003e B9       		.byte	(.L75-.L77)/2
 821 003f B9       		.byte	(.L75-.L77)/2
 822 0040 B9       		.byte	(.L75-.L77)/2
 823 0041 B9       		.byte	(.L75-.L77)/2
 824 0042 B9       		.byte	(.L75-.L77)/2
 825 0043 B9       		.byte	(.L75-.L77)/2
 826 0044 B9       		.byte	(.L75-.L77)/2
 827 0045 B9       		.byte	(.L75-.L77)/2
 828 0046 B9       		.byte	(.L75-.L77)/2
 829 0047 B9       		.byte	(.L75-.L77)/2
 830 0048 B9       		.byte	(.L75-.L77)/2
 831 0049 4C       		.byte	(.L78-.L77)/2
 832 004a B9       		.byte	(.L75-.L77)/2
 833 004b B9       		.byte	(.L75-.L77)/2
 834 004c B9       		.byte	(.L75-.L77)/2
 835 004d B9       		.byte	(.L75-.L77)/2
 836 004e B9       		.byte	(.L75-.L77)/2
 837 004f B9       		.byte	(.L75-.L77)/2
 838 0050 B9       		.byte	(.L75-.L77)/2
 839 0051 B9       		.byte	(.L75-.L77)/2
 840 0052 B9       		.byte	(.L75-.L77)/2
 841 0053 58       		.byte	(.L79-.L77)/2
 842 0054 B9       		.byte	(.L75-.L77)/2
 843 0055 B9       		.byte	(.L75-.L77)/2
 844 0056 B9       		.byte	(.L75-.L77)/2
 845 0057 B9       		.byte	(.L75-.L77)/2
 846 0058 B9       		.byte	(.L75-.L77)/2
 847 0059 B9       		.byte	(.L75-.L77)/2
 848 005a B9       		.byte	(.L75-.L77)/2
 849 005b B9       		.byte	(.L75-.L77)/2
 850 005c B9       		.byte	(.L75-.L77)/2
 851 005d 65       		.byte	(.L80-.L77)/2
 852 005e B9       		.byte	(.L75-.L77)/2
 853 005f B9       		.byte	(.L75-.L77)/2
 854 0060 B9       		.byte	(.L75-.L77)/2
 855 0061 B9       		.byte	(.L75-.L77)/2
ARM GAS  C:\Users\mathi\AppData\Local\Temp\ccV17BHA.s 			page 16


 856 0062 B9       		.byte	(.L75-.L77)/2
 857 0063 B9       		.byte	(.L75-.L77)/2
 858 0064 B9       		.byte	(.L75-.L77)/2
 859 0065 B9       		.byte	(.L75-.L77)/2
 860 0066 B9       		.byte	(.L75-.L77)/2
 861 0067 67       		.byte	(.L81-.L77)/2
 862 0068 B9       		.byte	(.L75-.L77)/2
 863 0069 B9       		.byte	(.L75-.L77)/2
 864 006a B9       		.byte	(.L75-.L77)/2
 865 006b B9       		.byte	(.L75-.L77)/2
 866 006c B9       		.byte	(.L75-.L77)/2
 867 006d B9       		.byte	(.L75-.L77)/2
 868 006e B9       		.byte	(.L75-.L77)/2
 869 006f 71       		.byte	(.L82-.L77)/2
 870 0070 73       		.byte	(.L83-.L77)/2
 871 0071 7F       		.byte	(.L84-.L77)/2
 872 0072 88       		.byte	(.L85-.L77)/2
 873 0073 91       		.byte	(.L86-.L77)/2
 874 0074 93       		.byte	(.L87-.L77)/2
 875 0075 9D       		.byte	(.L88-.L77)/2
 876 0076 A3       		.byte	(.L89-.L77)/2
 877 0077 AC       		.byte	(.L90-.L77)/2
 878 0078 AE       		.byte	(.L91-.L77)/2
 879 0079 B5       		.byte	(.L92-.L77)/2
 880 007a B7       		.byte	(.L93-.L77)/2
 881 007b 32       		.byte	(.L94-.L77)/2
 882              		.p2align 1
 883              	.L94:
 884              		.loc 1 253 0
 885 007c 4A4B     		ldr	r3, .L103+4
 886 007e 03CB     		ldmia	r3!, {r0, r1}
 887              	.LVL77:
 888 0080 1B78     		ldrb	r3, [r3]	@ zero_extendqisi2
 889 0082 2372     		strb	r3, [r4, #8]
 890 0084 2060     		str	r0, [r4]	@ unaligned
 891 0086 6160     		str	r1, [r4, #4]	@ unaligned
 892              	.L95:
 893              		.loc 1 332 0
 894 0088 019A     		ldr	r2, [sp, #4]
 895 008a 2B68     		ldr	r3, [r5]
 896 008c 9A42     		cmp	r2, r3
 897 008e 4FF00000 		mov	r0, #0
 898 0092 40F08580 		bne	.L102
 899 0096 03B0     		add	sp, sp, #12
 900              		.cfi_remember_state
 901              		.cfi_def_cfa_offset 20
 902              		@ sp needed
 903 0098 F0BD     		pop	{r4, r5, r6, r7, pc}
 904              	.LVL78:
 905              	.L76:
 906              		.cfi_restore_state
 907              		.loc 1 321 0
 908 009a 444E     		ldr	r6, .L103+8
 909              	.L101:
 910 009c 0FCE     		ldmia	r6!, {r0, r1, r2, r3}
 911              	.LVL79:
 912 009e 2060     		str	r0, [r4]	@ unaligned
ARM GAS  C:\Users\mathi\AppData\Local\Temp\ccV17BHA.s 			page 17


 913 00a0 B788     		ldrh	r7, [r6, #4]	@ unaligned
 914 00a2 3068     		ldr	r0, [r6]
 915 00a4 6160     		str	r1, [r4, #4]	@ unaligned
 916 00a6 A260     		str	r2, [r4, #8]	@ unaligned
 917 00a8 E360     		str	r3, [r4, #12]	@ unaligned
 918 00aa 2061     		str	r0, [r4, #16]	@ unaligned
 919 00ac A782     		strh	r7, [r4, #20]	@ unaligned
 920              		.loc 1 323 0
 921 00ae EBE7     		b	.L95
 922              	.LVL80:
 923              	.L78:
 924              		.loc 1 317 0
 925 00b0 3F4E     		ldr	r6, .L103+12
 926              	.L98:
 927 00b2 0FCE     		ldmia	r6!, {r0, r1, r2, r3}
 928              	.LVL81:
 929 00b4 2060     		str	r0, [r4]	@ unaligned
 930 00b6 6160     		str	r1, [r4, #4]	@ unaligned
 931 00b8 03CE     		ldmia	r6!, {r0, r1}
 932 00ba 3688     		ldrh	r6, [r6]	@ unaligned
 933 00bc A260     		str	r2, [r4, #8]	@ unaligned
 934 00be E360     		str	r3, [r4, #12]	@ unaligned
 935 00c0 2683     		strh	r6, [r4, #24]	@ unaligned
 936 00c2 2061     		str	r0, [r4, #16]	@ unaligned
 937 00c4 6161     		str	r1, [r4, #20]	@ unaligned
 938              		.loc 1 319 0
 939 00c6 DFE7     		b	.L95
 940              	.LVL82:
 941              	.L79:
 942              		.loc 1 313 0
 943 00c8 3A4E     		ldr	r6, .L103+16
 944 00ca 0FCE     		ldmia	r6!, {r0, r1, r2, r3}
 945              	.LVL83:
 946 00cc B788     		ldrh	r7, [r6, #4]	@ unaligned
 947 00ce 2060     		str	r0, [r4]	@ unaligned
 948 00d0 3068     		ldr	r0, [r6]
 949 00d2 B679     		ldrb	r6, [r6, #6]	@ zero_extendqisi2
 950 00d4 6160     		str	r1, [r4, #4]	@ unaligned
 951 00d6 A260     		str	r2, [r4, #8]	@ unaligned
 952 00d8 E360     		str	r3, [r4, #12]	@ unaligned
 953 00da 2061     		str	r0, [r4, #16]	@ unaligned
 954 00dc A782     		strh	r7, [r4, #20]	@ unaligned
 955 00de A675     		strb	r6, [r4, #22]
 956              		.loc 1 315 0
 957 00e0 D2E7     		b	.L95
 958              	.LVL84:
 959              	.L80:
 960              		.loc 1 309 0
 961 00e2 354E     		ldr	r6, .L103+20
 962 00e4 DAE7     		b	.L101
 963              	.L81:
 964              		.loc 1 305 0
 965 00e6 354E     		ldr	r6, .L103+24
 966 00e8 0FCE     		ldmia	r6!, {r0, r1, r2, r3}
 967              	.LVL85:
 968 00ea 2060     		str	r0, [r4]	@ unaligned
 969 00ec 6160     		str	r1, [r4, #4]	@ unaligned
ARM GAS  C:\Users\mathi\AppData\Local\Temp\ccV17BHA.s 			page 18


 970 00ee 03CE     		ldmia	r6!, {r0, r1}
 971 00f0 A260     		str	r2, [r4, #8]	@ unaligned
 972 00f2 E360     		str	r3, [r4, #12]	@ unaligned
 973 00f4 2061     		str	r0, [r4, #16]	@ unaligned
 974 00f6 6161     		str	r1, [r4, #20]	@ unaligned
 975              		.loc 1 307 0
 976 00f8 C6E7     		b	.L95
 977              	.LVL86:
 978              	.L82:
 979              		.loc 1 277 0
 980 00fa 314E     		ldr	r6, .L103+28
 981 00fc CEE7     		b	.L101
 982              	.L83:
 983              		.loc 1 301 0
 984 00fe 314E     		ldr	r6, .L103+32
 985              	.L100:
 986              		.loc 1 289 0
 987 0100 0FCE     		ldmia	r6!, {r0, r1, r2, r3}
 988              	.LVL87:
 989 0102 2060     		str	r0, [r4]	@ unaligned
 990 0104 6160     		str	r1, [r4, #4]	@ unaligned
 991 0106 03CE     		ldmia	r6!, {r0, r1}
 992 0108 3678     		ldrb	r6, [r6]	@ zero_extendqisi2
 993 010a A260     		str	r2, [r4, #8]	@ unaligned
 994 010c E360     		str	r3, [r4, #12]	@ unaligned
 995 010e 2676     		strb	r6, [r4, #24]
 996 0110 2061     		str	r0, [r4, #16]	@ unaligned
 997 0112 6161     		str	r1, [r4, #20]	@ unaligned
 998              		.loc 1 291 0
 999 0114 B8E7     		b	.L95
 1000              	.LVL88:
 1001              	.L84:
 1002              		.loc 1 297 0
 1003 0116 2C4E     		ldr	r6, .L103+36
 1004              	.L99:
 1005 0118 0FCE     		ldmia	r6!, {r0, r1, r2, r3}
 1006              	.LVL89:
 1007 011a 3688     		ldrh	r6, [r6]	@ unaligned
 1008 011c 2682     		strh	r6, [r4, #16]	@ unaligned
 1009 011e 2060     		str	r0, [r4]	@ unaligned
 1010 0120 6160     		str	r1, [r4, #4]	@ unaligned
 1011 0122 A260     		str	r2, [r4, #8]	@ unaligned
 1012 0124 E360     		str	r3, [r4, #12]	@ unaligned
 1013              		.loc 1 299 0
 1014 0126 AFE7     		b	.L95
 1015              	.LVL90:
 1016              	.L85:
 1017              		.loc 1 293 0
 1018 0128 284E     		ldr	r6, .L103+40
 1019 012a 0FCE     		ldmia	r6!, {r0, r1, r2, r3}
 1020              	.LVL91:
 1021 012c 3678     		ldrb	r6, [r6]	@ zero_extendqisi2
 1022 012e 2674     		strb	r6, [r4, #16]
 1023 0130 2060     		str	r0, [r4]	@ unaligned
 1024 0132 6160     		str	r1, [r4, #4]	@ unaligned
 1025 0134 A260     		str	r2, [r4, #8]	@ unaligned
 1026 0136 E360     		str	r3, [r4, #12]	@ unaligned
ARM GAS  C:\Users\mathi\AppData\Local\Temp\ccV17BHA.s 			page 19


 1027              		.loc 1 295 0
 1028 0138 A6E7     		b	.L95
 1029              	.LVL92:
 1030              	.L86:
 1031              		.loc 1 289 0
 1032 013a 254E     		ldr	r6, .L103+44
 1033 013c E0E7     		b	.L100
 1034              	.L87:
 1035              		.loc 1 285 0
 1036 013e 254B     		ldr	r3, .L103+48
 1037 0140 07CB     		ldmia	r3!, {r0, r1, r2}
 1038              	.LVL93:
 1039 0142 1E88     		ldrh	r6, [r3]	@ unaligned
 1040 0144 9B78     		ldrb	r3, [r3, #2]	@ zero_extendqisi2
 1041 0146 2060     		str	r0, [r4]	@ unaligned
 1042 0148 6160     		str	r1, [r4, #4]	@ unaligned
 1043 014a A260     		str	r2, [r4, #8]	@ unaligned
 1044 014c A681     		strh	r6, [r4, #12]	@ unaligned
 1045 014e A373     		strb	r3, [r4, #14]
 1046              		.loc 1 287 0
 1047 0150 9AE7     		b	.L95
 1048              	.LVL94:
 1049              	.L88:
 1050              		.loc 1 281 0
 1051 0152 214B     		ldr	r3, .L103+52
 1052 0154 07CB     		ldmia	r3!, {r0, r1, r2}
 1053              	.LVL95:
 1054 0156 2060     		str	r0, [r4]	@ unaligned
 1055 0158 6160     		str	r1, [r4, #4]	@ unaligned
 1056 015a A260     		str	r2, [r4, #8]	@ unaligned
 1057              		.loc 1 283 0
 1058 015c 94E7     		b	.L95
 1059              	.LVL96:
 1060              	.L89:
 1061              		.loc 1 273 0
 1062 015e 1F4E     		ldr	r6, .L103+56
 1063 0160 0FCE     		ldmia	r6!, {r0, r1, r2, r3}
 1064              	.LVL97:
 1065 0162 2060     		str	r0, [r4]	@ unaligned
 1066 0164 3068     		ldr	r0, [r6]
 1067 0166 2061     		str	r0, [r4, #16]	@ unaligned
 1068 0168 6160     		str	r1, [r4, #4]	@ unaligned
 1069 016a A260     		str	r2, [r4, #8]	@ unaligned
 1070 016c E360     		str	r3, [r4, #12]	@ unaligned
 1071              		.loc 1 275 0
 1072 016e 8BE7     		b	.L95
 1073              	.LVL98:
 1074              	.L90:
 1075              		.loc 1 269 0
 1076 0170 1B4E     		ldr	r6, .L103+60
 1077 0172 C5E7     		b	.L100
 1078              	.L91:
 1079              		.loc 1 265 0
 1080 0174 1B4E     		ldr	r6, .L103+64
 1081 0176 0FCE     		ldmia	r6!, {r0, r1, r2, r3}
 1082              	.LVL99:
 1083 0178 2060     		str	r0, [r4]	@ unaligned
ARM GAS  C:\Users\mathi\AppData\Local\Temp\ccV17BHA.s 			page 20


 1084 017a 6160     		str	r1, [r4, #4]	@ unaligned
 1085 017c A260     		str	r2, [r4, #8]	@ unaligned
 1086 017e E360     		str	r3, [r4, #12]	@ unaligned
 1087              		.loc 1 267 0
 1088 0180 82E7     		b	.L95
 1089              	.LVL100:
 1090              	.L92:
 1091              		.loc 1 261 0
 1092 0182 194E     		ldr	r6, .L103+68
 1093 0184 C8E7     		b	.L99
 1094              	.L93:
 1095              		.loc 1 257 0
 1096 0186 194E     		ldr	r6, .L103+72
 1097 0188 93E7     		b	.L98
 1098              	.L75:
 1099              		.loc 1 326 0
 1100 018a 194E     		ldr	r6, .L103+76
 1101 018c 0FCE     		ldmia	r6!, {r0, r1, r2, r3}
 1102              	.LVL101:
 1103 018e 3788     		ldrh	r7, [r6]	@ unaligned
 1104 0190 B678     		ldrb	r6, [r6, #2]	@ zero_extendqisi2
 1105 0192 2060     		str	r0, [r4]	@ unaligned
 1106 0194 6160     		str	r1, [r4, #4]	@ unaligned
 1107 0196 A260     		str	r2, [r4, #8]	@ unaligned
 1108 0198 E360     		str	r3, [r4, #12]	@ unaligned
 1109 019a 2782     		strh	r7, [r4, #16]	@ unaligned
 1110 019c A674     		strb	r6, [r4, #18]
 1111 019e 73E7     		b	.L95
 1112              	.L102:
 1113              		.loc 1 332 0
 1114 01a0 FFF7FEFF 		bl	__stack_chk_fail
 1115              	.LVL102:
 1116              	.L104:
 1117              		.align	2
 1118              	.L103:
 1119 01a4 00000000 		.word	__stack_chk_guard
 1120 01a8 00000000 		.word	.LC27
 1121 01ac 74010000 		.word	.LC44
 1122 01b0 58010000 		.word	.LC43
 1123 01b4 40010000 		.word	.LC42
 1124 01b8 28010000 		.word	.LC41
 1125 01bc 10010000 		.word	.LC40
 1126 01c0 7C000000 		.word	.LC33
 1127 01c4 F4000000 		.word	.LC39
 1128 01c8 E0000000 		.word	.LC38
 1129 01cc CC000000 		.word	.LC37
 1130 01d0 B0000000 		.word	.LC36
 1131 01d4 A0000000 		.word	.LC35
 1132 01d8 94000000 		.word	.LC34
 1133 01dc 68000000 		.word	.LC32
 1134 01e0 4C000000 		.word	.LC31
 1135 01e4 3C000000 		.word	.LC30
 1136 01e8 28000000 		.word	.LC29
 1137 01ec 0C000000 		.word	.LC28
 1138 01f0 54010000 		.word	.LC20
 1139              		.cfi_endproc
 1140              	.LFE7:
ARM GAS  C:\Users\mathi\AppData\Local\Temp\ccV17BHA.s 			page 21


 1141              		.size	VL53L0X_get_pal_error_string, .-VL53L0X_get_pal_error_string
 1142              		.section	.text.VL53L0X_get_pal_state_string,"ax",%progbits
 1143              		.align	1
 1144              		.p2align 4,,15
 1145              		.global	VL53L0X_get_pal_state_string
 1146              		.syntax unified
 1147              		.thumb
 1148              		.thumb_func
 1149              		.fpu fpv4-sp-d16
 1150              		.type	VL53L0X_get_pal_state_string, %function
 1151              	VL53L0X_get_pal_state_string:
 1152              	.LFB8:
 1153              		.loc 1 336 0
 1154              		.cfi_startproc
 1155              		@ args = 0, pretend = 0, frame = 8
 1156              		@ frame_needed = 0, uses_anonymous_args = 0
 1157              	.LVL103:
 1158 0000 70B5     		push	{r4, r5, r6, lr}
 1159              		.cfi_def_cfa_offset 16
 1160              		.cfi_offset 4, -16
 1161              		.cfi_offset 5, -12
 1162              		.cfi_offset 6, -8
 1163              		.cfi_offset 14, -4
 1164 0002 234D     		ldr	r5, .L120
 1165 0004 82B0     		sub	sp, sp, #8
 1166              		.cfi_def_cfa_offset 24
 1167              		.loc 1 336 0
 1168 0006 2B68     		ldr	r3, [r5]
 1169 0008 0193     		str	r3, [sp, #4]
 1170              	.LVL104:
 1171              		.loc 1 341 0
 1172 000a 0228     		cmp	r0, #2
 1173              		.loc 1 336 0
 1174 000c 0C46     		mov	r4, r1
 1175              		.loc 1 341 0
 1176 000e 3BD0     		beq	.L107
 1177 0010 0AD9     		bls	.L118
 1178 0012 0428     		cmp	r0, #4
 1179 0014 36D0     		beq	.L111
 1180 0016 2CD3     		bcc	.L112
 1181 0018 6328     		cmp	r0, #99
 1182 001a 14D1     		bne	.L106
 1183              		.loc 1 367 0
 1184 001c 1D4B     		ldr	r3, .L120+4
 1185 001e 07CB     		ldmia	r3!, {r0, r1, r2}
 1186              	.LVL105:
 1187 0020 2060     		str	r0, [r4]	@ unaligned
 1188 0022 6160     		str	r1, [r4, #4]	@ unaligned
 1189 0024 A260     		str	r2, [r4, #8]	@ unaligned
 1190              		.loc 1 369 0
 1191 0026 15E0     		b	.L114
 1192              	.LVL106:
 1193              	.L118:
 1194              		.loc 1 341 0
 1195 0028 E0B1     		cbz	r0, .L109
 1196 002a 0128     		cmp	r0, #1
 1197 002c 0BD1     		bne	.L106
ARM GAS  C:\Users\mathi\AppData\Local\Temp\ccV17BHA.s 			page 22


 1198              		.loc 1 347 0
 1199 002e 1A4E     		ldr	r6, .L120+8
 1200 0030 0FCE     		ldmia	r6!, {r0, r1, r2, r3}
 1201              	.LVL107:
 1202 0032 2060     		str	r0, [r4]	@ unaligned
 1203 0034 6160     		str	r1, [r4, #4]	@ unaligned
 1204 0036 03CE     		ldmia	r6!, {r0, r1}
 1205 0038 3688     		ldrh	r6, [r6]	@ unaligned
 1206 003a A260     		str	r2, [r4, #8]	@ unaligned
 1207 003c E360     		str	r3, [r4, #12]	@ unaligned
 1208 003e 2683     		strh	r6, [r4, #24]	@ unaligned
 1209 0040 2061     		str	r0, [r4, #16]	@ unaligned
 1210 0042 6161     		str	r1, [r4, #20]	@ unaligned
 1211              		.loc 1 349 0
 1212 0044 06E0     		b	.L114
 1213              	.LVL108:
 1214              	.L106:
 1215              		.loc 1 363 0
 1216 0046 154B     		ldr	r3, .L120+12
 1217              	.L117:
 1218              		.loc 1 359 0
 1219 0048 07CB     		ldmia	r3!, {r0, r1, r2}
 1220              	.LVL109:
 1221 004a 1B88     		ldrh	r3, [r3]	@ unaligned
 1222 004c A381     		strh	r3, [r4, #12]	@ unaligned
 1223 004e 2060     		str	r0, [r4]	@ unaligned
 1224 0050 6160     		str	r1, [r4, #4]	@ unaligned
 1225 0052 A260     		str	r2, [r4, #8]	@ unaligned
 1226              	.L114:
 1227              		.loc 1 378 0
 1228 0054 019A     		ldr	r2, [sp, #4]
 1229 0056 2B68     		ldr	r3, [r5]
 1230 0058 9A42     		cmp	r2, r3
 1231 005a 4FF00000 		mov	r0, #0
 1232 005e 15D1     		bne	.L119
 1233 0060 02B0     		add	sp, sp, #8
 1234              		.cfi_remember_state
 1235              		.cfi_def_cfa_offset 16
 1236              		@ sp needed
 1237 0062 70BD     		pop	{r4, r5, r6, pc}
 1238              	.LVL110:
 1239              	.L109:
 1240              		.cfi_restore_state
 1241              		.loc 1 343 0
 1242 0064 0E4E     		ldr	r6, .L120+16
 1243 0066 0FCE     		ldmia	r6!, {r0, r1, r2, r3}
 1244              	.LVL111:
 1245 0068 2060     		str	r0, [r4]	@ unaligned
 1246 006a 6160     		str	r1, [r4, #4]	@ unaligned
 1247 006c A260     		str	r2, [r4, #8]	@ unaligned
 1248 006e E360     		str	r3, [r4, #12]	@ unaligned
 1249              		.loc 1 345 0
 1250 0070 F0E7     		b	.L114
 1251              	.LVL112:
 1252              	.L112:
 1253              		.loc 1 355 0
 1254 0072 0C4B     		ldr	r3, .L120+20
ARM GAS  C:\Users\mathi\AppData\Local\Temp\ccV17BHA.s 			page 23


 1255 0074 03CB     		ldmia	r3!, {r0, r1}
 1256              	.LVL113:
 1257 0076 1A88     		ldrh	r2, [r3]	@ unaligned
 1258 0078 9B78     		ldrb	r3, [r3, #2]	@ zero_extendqisi2
 1259 007a 2060     		str	r0, [r4]	@ unaligned
 1260 007c 6160     		str	r1, [r4, #4]	@ unaligned
 1261 007e 2281     		strh	r2, [r4, #8]	@ unaligned
 1262 0080 A372     		strb	r3, [r4, #10]
 1263              		.loc 1 357 0
 1264 0082 E7E7     		b	.L114
 1265              	.LVL114:
 1266              	.L111:
 1267              		.loc 1 359 0
 1268 0084 084B     		ldr	r3, .L120+24
 1269 0086 DFE7     		b	.L117
 1270              	.L107:
 1271              		.loc 1 351 0
 1272 0088 084B     		ldr	r3, .L120+28
 1273 008a DDE7     		b	.L117
 1274              	.LVL115:
 1275              	.L119:
 1276              		.loc 1 378 0
 1277 008c FFF7FEFF 		bl	__stack_chk_fail
 1278              	.LVL116:
 1279              	.L121:
 1280              		.align	2
 1281              	.L120:
 1282 0090 00000000 		.word	__stack_chk_guard
 1283 0094 68000000 		.word	.LC51
 1284 0098 10000000 		.word	.LC46
 1285 009c 58000000 		.word	.LC50
 1286 00a0 00000000 		.word	.LC45
 1287 00a4 3C000000 		.word	.LC48
 1288 00a8 48000000 		.word	.LC49
 1289 00ac 2C000000 		.word	.LC47
 1290              		.cfi_endproc
 1291              	.LFE8:
 1292              		.size	VL53L0X_get_pal_state_string, .-VL53L0X_get_pal_state_string
 1293              		.section	.text.VL53L0X_get_sequence_steps_info,"ax",%progbits
 1294              		.align	1
 1295              		.p2align 4,,15
 1296              		.global	VL53L0X_get_sequence_steps_info
 1297              		.syntax unified
 1298              		.thumb
 1299              		.thumb_func
 1300              		.fpu fpv4-sp-d16
 1301              		.type	VL53L0X_get_sequence_steps_info, %function
 1302              	VL53L0X_get_sequence_steps_info:
 1303              	.LFB9:
 1304              		.loc 1 383 0
 1305              		.cfi_startproc
 1306              		@ args = 0, pretend = 0, frame = 8
 1307              		@ frame_needed = 0, uses_anonymous_args = 0
 1308              	.LVL117:
 1309 0000 30B5     		push	{r4, r5, lr}
 1310              		.cfi_def_cfa_offset 12
 1311              		.cfi_offset 4, -12
ARM GAS  C:\Users\mathi\AppData\Local\Temp\ccV17BHA.s 			page 24


 1312              		.cfi_offset 5, -8
 1313              		.cfi_offset 14, -4
 1314 0002 1B4B     		ldr	r3, .L134
 1315 0004 83B0     		sub	sp, sp, #12
 1316              		.cfi_def_cfa_offset 24
 1317              		.loc 1 383 0
 1318 0006 1A68     		ldr	r2, [r3]
 1319 0008 0192     		str	r2, [sp, #4]
 1320              	.LVL118:
 1321 000a 0C46     		mov	r4, r1
 1322              		.loc 1 387 0
 1323 000c 0428     		cmp	r0, #4
 1324 000e 2BD8     		bhi	.L131
 1325 0010 DFE800F0 		tbb	[pc, r0]
 1326              	.L125:
 1327 0014 0F       		.byte	(.L124-.L125)/2
 1328 0015 14       		.byte	(.L126-.L125)/2
 1329 0016 19       		.byte	(.L127-.L125)/2
 1330 0017 20       		.byte	(.L128-.L125)/2
 1331 0018 03       		.byte	(.L129-.L125)/2
 1332 0019 00       		.p2align 1
 1333              	.L129:
 1334              		.loc 1 405 0
 1335 001a 164D     		ldr	r5, .L134+4
 1336 001c 07CD     		ldmia	r5!, {r0, r1, r2}
 1337              	.LVL119:
 1338 001e 2060     		str	r0, [r4]	@ unaligned
 1339 0020 6160     		str	r1, [r4, #4]	@ unaligned
 1340 0022 A260     		str	r2, [r4, #8]	@ unaligned
 1341              		.loc 1 384 0
 1342 0024 0020     		movs	r0, #0
 1343              	.L123:
 1344              	.LVL120:
 1345              		.loc 1 416 0
 1346 0026 019A     		ldr	r2, [sp, #4]
 1347 0028 1B68     		ldr	r3, [r3]
 1348 002a 9A42     		cmp	r2, r3
 1349 002c 1AD1     		bne	.L133
 1350 002e 03B0     		add	sp, sp, #12
 1351              		.cfi_remember_state
 1352              		.cfi_def_cfa_offset 12
 1353              		@ sp needed
 1354 0030 30BD     		pop	{r4, r5, pc}
 1355              	.LVL121:
 1356              	.L124:
 1357              		.cfi_restore_state
 1358              		.loc 1 389 0
 1359 0032 114A     		ldr	r2, .L134+8
 1360 0034 1068     		ldr	r0, [r2]
 1361              	.LVL122:
 1362 0036 0860     		str	r0, [r1]	@ unaligned
 1363              		.loc 1 384 0
 1364 0038 0020     		movs	r0, #0
 1365              		.loc 1 391 0
 1366 003a F4E7     		b	.L123
 1367              	.LVL123:
 1368              	.L126:
ARM GAS  C:\Users\mathi\AppData\Local\Temp\ccV17BHA.s 			page 25


 1369              		.loc 1 393 0
 1370 003c 0F4A     		ldr	r2, .L134+12
 1371 003e 1068     		ldr	r0, [r2]
 1372              	.LVL124:
 1373 0040 0860     		str	r0, [r1]	@ unaligned
 1374              		.loc 1 384 0
 1375 0042 0020     		movs	r0, #0
 1376              		.loc 1 395 0
 1377 0044 EFE7     		b	.L123
 1378              	.LVL125:
 1379              	.L127:
 1380              		.loc 1 397 0
 1381 0046 0E4A     		ldr	r2, .L134+16
 1382 0048 1068     		ldr	r0, [r2]
 1383              	.LVL126:
 1384 004a 1279     		ldrb	r2, [r2, #4]	@ zero_extendqisi2
 1385 004c 0860     		str	r0, [r1]	@ unaligned
 1386 004e 0A71     		strb	r2, [r1, #4]
 1387              		.loc 1 384 0
 1388 0050 0020     		movs	r0, #0
 1389              		.loc 1 399 0
 1390 0052 E8E7     		b	.L123
 1391              	.LVL127:
 1392              	.L128:
 1393              		.loc 1 401 0
 1394 0054 0B4A     		ldr	r2, .L134+20
 1395 0056 03CA     		ldmia	r2!, {r0, r1}
 1396              	.LVL128:
 1397 0058 1288     		ldrh	r2, [r2]	@ unaligned
 1398 005a 2060     		str	r0, [r4]	@ unaligned
 1399 005c 2281     		strh	r2, [r4, #8]	@ unaligned
 1400 005e 6160     		str	r1, [r4, #4]	@ unaligned
 1401              		.loc 1 384 0
 1402 0060 0020     		movs	r0, #0
 1403              		.loc 1 403 0
 1404 0062 E0E7     		b	.L123
 1405              	.LVL129:
 1406              	.L133:
 1407              		.loc 1 416 0
 1408 0064 FFF7FEFF 		bl	__stack_chk_fail
 1409              	.LVL130:
 1410              	.L131:
 1411              		.loc 1 410 0
 1412 0068 6FF00300 		mvn	r0, #3
 1413              	.LVL131:
 1414 006c DBE7     		b	.L123
 1415              	.L135:
 1416 006e 00BF     		.align	2
 1417              	.L134:
 1418 0070 00000000 		.word	__stack_chk_guard
 1419 0074 1C000000 		.word	.LC56
 1420 0078 00000000 		.word	.LC52
 1421 007c 04000000 		.word	.LC53
 1422 0080 08000000 		.word	.LC54
 1423 0084 10000000 		.word	.LC55
 1424              		.cfi_endproc
 1425              	.LFE9:
ARM GAS  C:\Users\mathi\AppData\Local\Temp\ccV17BHA.s 			page 26


 1426              		.size	VL53L0X_get_sequence_steps_info, .-VL53L0X_get_sequence_steps_info
 1427              		.section	.text.VL53L0X_get_limit_check_info,"ax",%progbits
 1428              		.align	1
 1429              		.p2align 4,,15
 1430              		.global	VL53L0X_get_limit_check_info
 1431              		.syntax unified
 1432              		.thumb
 1433              		.thumb_func
 1434              		.fpu fpv4-sp-d16
 1435              		.type	VL53L0X_get_limit_check_info, %function
 1436              	VL53L0X_get_limit_check_info:
 1437              	.LFB10:
 1438              		.loc 1 421 0
 1439              		.cfi_startproc
 1440              		@ args = 0, pretend = 0, frame = 8
 1441              		@ frame_needed = 0, uses_anonymous_args = 0
 1442              	.LVL132:
 1443 0000 F0B5     		push	{r4, r5, r6, r7, lr}
 1444              		.cfi_def_cfa_offset 20
 1445              		.cfi_offset 4, -20
 1446              		.cfi_offset 5, -16
 1447              		.cfi_offset 6, -12
 1448              		.cfi_offset 7, -8
 1449              		.cfi_offset 14, -4
 1450 0002 2D4D     		ldr	r5, .L149
 1451 0004 83B0     		sub	sp, sp, #12
 1452              		.cfi_def_cfa_offset 32
 1453              		.loc 1 421 0
 1454 0006 2B68     		ldr	r3, [r5]
 1455 0008 0193     		str	r3, [sp, #4]
 1456              	.LVL133:
 1457 000a 1446     		mov	r4, r2
 1458              		.loc 1 427 0
 1459 000c 0529     		cmp	r1, #5
 1460 000e 46D8     		bhi	.L137
 1461 0010 DFE801F0 		tbb	[pc, r1]
 1462              	.L139:
 1463 0014 15       		.byte	(.L138-.L139)/2
 1464 0015 1E       		.byte	(.L140-.L139)/2
 1465 0016 28       		.byte	(.L141-.L139)/2
 1466 0017 2F       		.byte	(.L142-.L139)/2
 1467 0018 3C       		.byte	(.L143-.L139)/2
 1468 0019 03       		.byte	(.L144-.L139)/2
 1469              		.p2align 1
 1470              	.L144:
 1471              		.loc 1 451 0
 1472 001a 284E     		ldr	r6, .L149+4
 1473 001c 0FCE     		ldmia	r6!, {r0, r1, r2, r3}
 1474              	.LVL134:
 1475 001e 2060     		str	r0, [r4]	@ unaligned
 1476 0020 B788     		ldrh	r7, [r6, #4]	@ unaligned
 1477 0022 3068     		ldr	r0, [r6]
 1478 0024 6160     		str	r1, [r4, #4]	@ unaligned
 1479 0026 A260     		str	r2, [r4, #8]	@ unaligned
 1480 0028 E360     		str	r3, [r4, #12]	@ unaligned
 1481 002a 2061     		str	r0, [r4, #16]	@ unaligned
 1482 002c A782     		strh	r7, [r4, #20]	@ unaligned
ARM GAS  C:\Users\mathi\AppData\Local\Temp\ccV17BHA.s 			page 27


 1483              	.L145:
 1484              		.loc 1 463 0
 1485 002e 019A     		ldr	r2, [sp, #4]
 1486 0030 2B68     		ldr	r3, [r5]
 1487 0032 9A42     		cmp	r2, r3
 1488 0034 4FF00000 		mov	r0, #0
 1489 0038 3CD1     		bne	.L148
 1490 003a 03B0     		add	sp, sp, #12
 1491              		.cfi_remember_state
 1492              		.cfi_def_cfa_offset 20
 1493              		@ sp needed
 1494 003c F0BD     		pop	{r4, r5, r6, r7, pc}
 1495              	.LVL135:
 1496              	.L138:
 1497              		.cfi_restore_state
 1498              		.loc 1 429 0
 1499 003e 204E     		ldr	r6, .L149+8
 1500 0040 0FCE     		ldmia	r6!, {r0, r1, r2, r3}
 1501              	.LVL136:
 1502 0042 3688     		ldrh	r6, [r6]	@ unaligned
 1503 0044 2682     		strh	r6, [r4, #16]	@ unaligned
 1504 0046 2060     		str	r0, [r4]	@ unaligned
 1505 0048 6160     		str	r1, [r4, #4]	@ unaligned
 1506 004a A260     		str	r2, [r4, #8]	@ unaligned
 1507 004c E360     		str	r3, [r4, #12]	@ unaligned
 1508              		.loc 1 431 0
 1509 004e EEE7     		b	.L145
 1510              	.LVL137:
 1511              	.L140:
 1512              		.loc 1 433 0
 1513 0050 1C4E     		ldr	r6, .L149+12
 1514 0052 0FCE     		ldmia	r6!, {r0, r1, r2, r3}
 1515              	.LVL138:
 1516 0054 2060     		str	r0, [r4]	@ unaligned
 1517 0056 6160     		str	r1, [r4, #4]	@ unaligned
 1518 0058 03CE     		ldmia	r6!, {r0, r1}
 1519 005a A260     		str	r2, [r4, #8]	@ unaligned
 1520 005c E360     		str	r3, [r4, #12]	@ unaligned
 1521 005e 2061     		str	r0, [r4, #16]	@ unaligned
 1522 0060 6161     		str	r1, [r4, #20]	@ unaligned
 1523              		.loc 1 435 0
 1524 0062 E4E7     		b	.L145
 1525              	.LVL139:
 1526              	.L141:
 1527              		.loc 1 437 0
 1528 0064 184E     		ldr	r6, .L149+16
 1529 0066 0FCE     		ldmia	r6!, {r0, r1, r2, r3}
 1530              	.LVL140:
 1531 0068 2060     		str	r0, [r4]	@ unaligned
 1532 006a 6160     		str	r1, [r4, #4]	@ unaligned
 1533 006c A260     		str	r2, [r4, #8]	@ unaligned
 1534 006e E360     		str	r3, [r4, #12]	@ unaligned
 1535              		.loc 1 439 0
 1536 0070 DDE7     		b	.L145
 1537              	.LVL141:
 1538              	.L142:
 1539              		.loc 1 441 0
ARM GAS  C:\Users\mathi\AppData\Local\Temp\ccV17BHA.s 			page 28


 1540 0072 164E     		ldr	r6, .L149+20
 1541 0074 0FCE     		ldmia	r6!, {r0, r1, r2, r3}
 1542              	.LVL142:
 1543 0076 B788     		ldrh	r7, [r6, #4]	@ unaligned
 1544 0078 2060     		str	r0, [r4]	@ unaligned
 1545 007a 3068     		ldr	r0, [r6]
 1546 007c B679     		ldrb	r6, [r6, #6]	@ zero_extendqisi2
 1547 007e 6160     		str	r1, [r4, #4]	@ unaligned
 1548 0080 A260     		str	r2, [r4, #8]	@ unaligned
 1549 0082 E360     		str	r3, [r4, #12]	@ unaligned
 1550 0084 2061     		str	r0, [r4, #16]	@ unaligned
 1551 0086 A782     		strh	r7, [r4, #20]	@ unaligned
 1552 0088 A675     		strb	r6, [r4, #22]
 1553              		.loc 1 443 0
 1554 008a D0E7     		b	.L145
 1555              	.LVL143:
 1556              	.L143:
 1557              		.loc 1 446 0
 1558 008c 104E     		ldr	r6, .L149+24
 1559 008e 0FCE     		ldmia	r6!, {r0, r1, r2, r3}
 1560              	.LVL144:
 1561 0090 3678     		ldrb	r6, [r6]	@ zero_extendqisi2
 1562 0092 2674     		strb	r6, [r4, #16]
 1563 0094 2060     		str	r0, [r4]	@ unaligned
 1564 0096 6160     		str	r1, [r4, #4]	@ unaligned
 1565 0098 A260     		str	r2, [r4, #8]	@ unaligned
 1566 009a E360     		str	r3, [r4, #12]	@ unaligned
 1567              		.loc 1 448 0
 1568 009c C7E7     		b	.L145
 1569              	.LVL145:
 1570              	.L137:
 1571              		.loc 1 456 0
 1572 009e 0D4E     		ldr	r6, .L149+28
 1573 00a0 0FCE     		ldmia	r6!, {r0, r1, r2, r3}
 1574              	.LVL146:
 1575 00a2 3788     		ldrh	r7, [r6]	@ unaligned
 1576 00a4 B678     		ldrb	r6, [r6, #2]	@ zero_extendqisi2
 1577 00a6 2060     		str	r0, [r4]	@ unaligned
 1578 00a8 6160     		str	r1, [r4, #4]	@ unaligned
 1579 00aa A260     		str	r2, [r4, #8]	@ unaligned
 1580 00ac E360     		str	r3, [r4, #12]	@ unaligned
 1581 00ae 2782     		strh	r7, [r4, #16]	@ unaligned
 1582 00b0 A674     		strb	r6, [r4, #18]
 1583 00b2 BCE7     		b	.L145
 1584              	.L148:
 1585              		.loc 1 463 0
 1586 00b4 FFF7FEFF 		bl	__stack_chk_fail
 1587              	.LVL147:
 1588              	.L150:
 1589              		.align	2
 1590              	.L149:
 1591 00b8 00000000 		.word	__stack_chk_guard
 1592 00bc 68000000 		.word	.LC62
 1593 00c0 00000000 		.word	.LC57
 1594 00c4 14000000 		.word	.LC58
 1595 00c8 2C000000 		.word	.LC59
 1596 00cc 3C000000 		.word	.LC60
ARM GAS  C:\Users\mathi\AppData\Local\Temp\ccV17BHA.s 			page 29


 1597 00d0 54000000 		.word	.LC61
 1598 00d4 54010000 		.word	.LC20
 1599              		.cfi_endproc
 1600              	.LFE10:
 1601              		.size	VL53L0X_get_limit_check_info, .-VL53L0X_get_limit_check_info
 1602              		.section	.rodata.VL53L0X_get_device_error_string.str1.4,"aMS",%progbits,1
 1603              		.align	2
 1604              	.LC5:
 1605 0000 4E6F2055 		.ascii	"No Update\000"
 1605      70646174 
 1605      6500
 1606 000a 0000     		.space	2
 1607              	.LC6:
 1608 000c 56435345 		.ascii	"VCSEL Continuity Test Failure\000"
 1608      4C20436F 
 1608      6E74696E 
 1608      75697479 
 1608      20546573 
 1609 002a 0000     		.space	2
 1610              	.LC7:
 1611 002c 56435345 		.ascii	"VCSEL Watchdog Test Failure\000"
 1611      4C205761 
 1611      74636864 
 1611      6F672054 
 1611      65737420 
 1612              	.LC8:
 1613 0048 4E6F2056 		.ascii	"No VHV Value found\000"
 1613      48562056 
 1613      616C7565 
 1613      20666F75 
 1613      6E6400
 1614 005b 00       		.space	1
 1615              	.LC9:
 1616 005c 4D535243 		.ascii	"MSRC No Target Error\000"
 1616      204E6F20 
 1616      54617267 
 1616      65742045 
 1616      72726F72 
 1617 0071 000000   		.space	3
 1618              	.LC10:
 1619 0074 534E5220 		.ascii	"SNR Check Exit\000"
 1619      43686563 
 1619      6B204578 
 1619      697400
 1620 0083 00       		.space	1
 1621              	.LC11:
 1622 0084 52616E67 		.ascii	"Range Phase Check Error\000"
 1622      65205068 
 1622      61736520 
 1622      43686563 
 1622      6B204572 
 1623              	.LC12:
 1624 009c 5369676D 		.ascii	"Sigma Threshold Check Error\000"
 1624      61205468 
 1624      72657368 
 1624      6F6C6420 
 1624      43686563 
ARM GAS  C:\Users\mathi\AppData\Local\Temp\ccV17BHA.s 			page 30


 1625              	.LC13:
 1626 00b8 54434320 		.ascii	"TCC Error\000"
 1626      4572726F 
 1626      7200
 1627 00c2 0000     		.space	2
 1628              	.LC14:
 1629 00c4 50686173 		.ascii	"Phase Consistency Error\000"
 1629      6520436F 
 1629      6E736973 
 1629      74656E63 
 1629      79204572 
 1630              	.LC15:
 1631 00dc 4D696E20 		.ascii	"Min Clip Error\000"
 1631      436C6970 
 1631      20457272 
 1631      6F7200
 1632 00eb 00       		.space	1
 1633              	.LC16:
 1634 00ec 52616E67 		.ascii	"Range Complete\000"
 1634      6520436F 
 1634      6D706C65 
 1634      746500
 1635 00fb 00       		.space	1
 1636              	.LC17:
 1637 00fc 52616E67 		.ascii	"Range Algo Underflow Error\000"
 1637      6520416C 
 1637      676F2055 
 1637      6E646572 
 1637      666C6F77 
 1638 0117 00       		.space	1
 1639              	.LC18:
 1640 0118 52616E67 		.ascii	"Range Algo Overlow Error\000"
 1640      6520416C 
 1640      676F204F 
 1640      7665726C 
 1640      6F772045 
 1641 0131 000000   		.space	3
 1642              	.LC19:
 1643 0134 52616E67 		.ascii	"Range Ignore Threshold Error\000"
 1643      65204967 
 1643      6E6F7265 
 1643      20546872 
 1643      6573686F 
 1644 0151 000000   		.space	3
 1645              	.LC20:
 1646 0154 556E6B6E 		.ascii	"Unknown Error Code\000"
 1646      6F776E20 
 1646      4572726F 
 1646      7220436F 
 1646      646500
 1647              		.section	.rodata.VL53L0X_get_device_info.str1.4,"aMS",%progbits,1
 1648              		.align	2
 1649              	.LC0:
 1650 0000 564C3533 		.ascii	"VL53L0X TS0\000"
 1650      4C305820 
 1650      54533000 
 1651              	.LC1:
ARM GAS  C:\Users\mathi\AppData\Local\Temp\ccV17BHA.s 			page 31


 1652 000c 564C3533 		.ascii	"VL53L0X TS1\000"
 1652      4C305820 
 1652      54533100 
 1653              	.LC2:
 1654 0018 564C3533 		.ascii	"VL53L0X TS2\000"
 1654      4C305820 
 1654      54533200 
 1655              	.LC3:
 1656 0024 564C3533 		.ascii	"VL53L0X ES1 or later\000"
 1656      4C305820 
 1656      45533120 
 1656      6F72206C 
 1656      61746572 
 1657 0039 000000   		.space	3
 1658              	.LC4:
 1659 003c 564C3533 		.ascii	"VL53L0X\000"
 1659      4C305800 
 1660              		.section	.rodata.VL53L0X_get_limit_check_info.str1.4,"aMS",%progbits,1
 1661              		.align	2
 1662              	.LC57:
 1663 0000 5349474D 		.ascii	"SIGMA FINAL RANGE\000"
 1663      41204649 
 1663      4E414C20 
 1663      52414E47 
 1663      4500
 1664 0012 0000     		.space	2
 1665              	.LC58:
 1666 0014 5349474E 		.ascii	"SIGNAL RATE FINAL RANGE\000"
 1666      414C2052 
 1666      41544520 
 1666      46494E41 
 1666      4C205241 
 1667              	.LC59:
 1668 002c 5349474E 		.ascii	"SIGNAL REF CLIP\000"
 1668      414C2052 
 1668      45462043 
 1668      4C495000 
 1669              	.LC60:
 1670 003c 52414E47 		.ascii	"RANGE IGNORE THRESHOLD\000"
 1670      45204947 
 1670      4E4F5245 
 1670      20544852 
 1670      4553484F 
 1671 0053 00       		.space	1
 1672              	.LC61:
 1673 0054 5349474E 		.ascii	"SIGNAL RATE MSRC\000"
 1673      414C2052 
 1673      41544520 
 1673      4D535243 
 1673      00
 1674 0065 000000   		.space	3
 1675              	.LC62:
 1676 0068 5349474E 		.ascii	"SIGNAL RATE PRE RANGE\000"
 1676      414C2052 
 1676      41544520 
 1676      50524520 
 1676      52414E47 
ARM GAS  C:\Users\mathi\AppData\Local\Temp\ccV17BHA.s 			page 32


 1677              		.section	.rodata.VL53L0X_get_pal_error_string.str1.4,"aMS",%progbits,1
 1678              		.align	2
 1679              	.LC27:
 1680 0000 4E6F2045 		.ascii	"No Error\000"
 1680      72726F72 
 1680      00
 1681 0009 000000   		.space	3
 1682              	.LC28:
 1683 000c 43616C69 		.ascii	"Calibration Warning Error\000"
 1683      62726174 
 1683      696F6E20 
 1683      5761726E 
 1683      696E6720 
 1684 0026 0000     		.space	2
 1685              	.LC29:
 1686 0028 4D696E20 		.ascii	"Min clipped error\000"
 1686      636C6970 
 1686      70656420 
 1686      6572726F 
 1686      7200
 1687 003a 0000     		.space	2
 1688              	.LC30:
 1689 003c 556E6465 		.ascii	"Undefined error\000"
 1689      66696E65 
 1689      64206572 
 1689      726F7200 
 1690              	.LC31:
 1691 004c 496E7661 		.ascii	"Invalid parameters error\000"
 1691      6C696420 
 1691      70617261 
 1691      6D657465 
 1691      72732065 
 1692 0065 000000   		.space	3
 1693              	.LC32:
 1694 0068 4E6F7420 		.ascii	"Not supported error\000"
 1694      73757070 
 1694      6F727465 
 1694      64206572 
 1694      726F7200 
 1695              	.LC33:
 1696 007c 496E7465 		.ascii	"Interrupt not Cleared\000"
 1696      72727570 
 1696      74206E6F 
 1696      7420436C 
 1696      65617265 
 1697 0092 0000     		.space	2
 1698              	.LC34:
 1699 0094 52616E67 		.ascii	"Range error\000"
 1699      65206572 
 1699      726F7200 
 1700              	.LC35:
 1701 00a0 54696D65 		.ascii	"Time out error\000"
 1701      206F7574 
 1701      20657272 
 1701      6F7200
 1702 00af 00       		.space	1
 1703              	.LC36:
ARM GAS  C:\Users\mathi\AppData\Local\Temp\ccV17BHA.s 			page 33


 1704 00b0 4D6F6465 		.ascii	"Mode not supported error\000"
 1704      206E6F74 
 1704      20737570 
 1704      706F7274 
 1704      65642065 
 1705 00c9 000000   		.space	3
 1706              	.LC37:
 1707 00cc 42756666 		.ascii	"Buffer too small\000"
 1707      65722074 
 1707      6F6F2073 
 1707      6D616C6C 
 1707      00
 1708 00dd 000000   		.space	3
 1709              	.LC38:
 1710 00e0 4750494F 		.ascii	"GPIO not existing\000"
 1710      206E6F74 
 1710      20657869 
 1710      7374696E 
 1710      6700
 1711 00f2 0000     		.space	2
 1712              	.LC39:
 1713 00f4 4750494F 		.ascii	"GPIO funct not supported\000"
 1713      2066756E 
 1713      6374206E 
 1713      6F742073 
 1713      7570706F 
 1714 010d 000000   		.space	3
 1715              	.LC40:
 1716 0110 436F6E74 		.ascii	"Control Interface Error\000"
 1716      726F6C20 
 1716      496E7465 
 1716      72666163 
 1716      65204572 
 1717              	.LC41:
 1718 0128 496E7661 		.ascii	"Invalid Command Error\000"
 1718      6C696420 
 1718      436F6D6D 
 1718      616E6420 
 1718      4572726F 
 1719 013e 0000     		.space	2
 1720              	.LC42:
 1721 0140 44697669 		.ascii	"Division by zero Error\000"
 1721      73696F6E 
 1721      20627920 
 1721      7A65726F 
 1721      20457272 
 1722 0157 00       		.space	1
 1723              	.LC43:
 1724 0158 52656665 		.ascii	"Reference Spad Init Error\000"
 1724      72656E63 
 1724      65205370 
 1724      61642049 
 1724      6E697420 
 1725 0172 0000     		.space	2
 1726              	.LC44:
 1727 0174 4E6F7420 		.ascii	"Not implemented error\000"
 1727      696D706C 
ARM GAS  C:\Users\mathi\AppData\Local\Temp\ccV17BHA.s 			page 34


 1727      656D656E 
 1727      74656420 
 1727      6572726F 
 1728              		.section	.rodata.VL53L0X_get_pal_state_string.str1.4,"aMS",%progbits,1
 1729              		.align	2
 1730              	.LC45:
 1731 0000 504F5745 		.ascii	"POWERDOWN State\000"
 1731      52444F57 
 1731      4E205374 
 1731      61746500 
 1732              	.LC46:
 1733 0010 57616974 		.ascii	"Wait for staticinit State\000"
 1733      20666F72 
 1733      20737461 
 1733      74696369 
 1733      6E697420 
 1734 002a 0000     		.space	2
 1735              	.LC47:
 1736 002c 5354414E 		.ascii	"STANDBY State\000"
 1736      44425920 
 1736      53746174 
 1736      6500
 1737 003a 0000     		.space	2
 1738              	.LC48:
 1739 003c 49444C45 		.ascii	"IDLE State\000"
 1739      20537461 
 1739      746500
 1740 0047 00       		.space	1
 1741              	.LC49:
 1742 0048 52554E4E 		.ascii	"RUNNING State\000"
 1742      494E4720 
 1742      53746174 
 1742      6500
 1743 0056 0000     		.space	2
 1744              	.LC50:
 1745 0058 554E4B4E 		.ascii	"UNKNOWN State\000"
 1745      4F574E20 
 1745      53746174 
 1745      6500
 1746 0066 0000     		.space	2
 1747              	.LC51:
 1748 0068 4552524F 		.ascii	"ERROR State\000"
 1748      52205374 
 1748      61746500 
 1749              		.section	.rodata.VL53L0X_get_range_status_string.str1.4,"aMS",%progbits,1
 1750              		.align	2
 1751              	.LC21:
 1752 0000 52616E67 		.ascii	"Range Valid\000"
 1752      65205661 
 1752      6C696400 
 1753              	.LC22:
 1754 000c 5369676D 		.ascii	"Sigma Fail\000"
 1754      61204661 
 1754      696C00
 1755 0017 00       		.space	1
 1756              	.LC23:
 1757 0018 5369676E 		.ascii	"Signal Fail\000"
ARM GAS  C:\Users\mathi\AppData\Local\Temp\ccV17BHA.s 			page 35


 1757      616C2046 
 1757      61696C00 
 1758              	.LC24:
 1759 0024 4D696E20 		.ascii	"Min Range Fail\000"
 1759      52616E67 
 1759      65204661 
 1759      696C00
 1760 0033 00       		.space	1
 1761              	.LC25:
 1762 0034 50686173 		.ascii	"Phase Fail\000"
 1762      65204661 
 1762      696C00
 1763 003f 00       		.space	1
 1764              	.LC26:
 1765 0040 48617264 		.ascii	"Hardware Fail\000"
 1765      77617265 
 1765      20466169 
 1765      6C00
 1766              		.section	.rodata.VL53L0X_get_sequence_steps_info.str1.4,"aMS",%progbits,1
 1767              		.align	2
 1768              	.LC52:
 1769 0000 54434300 		.ascii	"TCC\000"
 1770              	.LC53:
 1771 0004 44535300 		.ascii	"DSS\000"
 1772              	.LC54:
 1773 0008 4D535243 		.ascii	"MSRC\000"
 1773      00
 1774 000d 000000   		.space	3
 1775              	.LC55:
 1776 0010 50524520 		.ascii	"PRE RANGE\000"
 1776      52414E47 
 1776      4500
 1777 001a 0000     		.space	2
 1778              	.LC56:
 1779 001c 46494E41 		.ascii	"FINAL RANGE\000"
 1779      4C205241 
 1779      4E474500 
 1780              		.text
 1781              	.Letext0:
 1782              		.file 2 "c:\\eclipse_e-puck2\\tools\\gcc-arm-none-eabi-7-2017-q4-major-win32\\arm-none-eabi\\inclu
 1783              		.file 3 "c:\\eclipse_e-puck2\\tools\\gcc-arm-none-eabi-7-2017-q4-major-win32\\arm-none-eabi\\inclu
 1784              		.file 4 "../../lib/e-puck2_main-processor/src/sensors/VL53L0X/Api/core/src/../inc/vl53l0x_types.h"
 1785              		.file 5 "../../lib/e-puck2_main-processor/src/sensors/VL53L0X/Api/core/src/../inc/vl53l0x_device.h
 1786              		.file 6 "../../lib/e-puck2_main-processor/src/sensors/VL53L0X/Api/core/src/../inc/vl53l0x_def.h"
 1787              		.file 7 "c:\\eclipse_e-puck2\\tools\\gcc-arm-none-eabi-7-2017-q4-major-win32\\arm-none-eabi\\inclu
 1788              		.file 8 "c:\\eclipse_e-puck2\\tools\\gcc-arm-none-eabi-7-2017-q4-major-win32\\arm-none-eabi\\inclu
 1789              		.file 9 "c:\\eclipse_e-puck2\\tools\\gcc-arm-none-eabi-7-2017-q4-major-win32\\lib\\gcc\\arm-none-e
 1790              		.file 10 "c:\\eclipse_e-puck2\\tools\\gcc-arm-none-eabi-7-2017-q4-major-win32\\arm-none-eabi\\incl
 1791              		.file 11 "../../lib/e-puck2_main-processor/src/sensors/VL53L0X/Api/core/src/../inc/../../platform/
 1792              		.file 12 "c:\\eclipse_e-puck2\\tools\\gcc-arm-none-eabi-7-2017-q4-major-win32\\arm-none-eabi\\incl
 1793              		.file 13 "../../lib/e-puck2_main-processor/src/sensors/VL53L0X/Api/core/src/../inc/vl53l0x_api_cor
 1794              		.file 14 "c:\\eclipse_e-puck2\\tools\\gcc-arm-none-eabi-7-2017-q4-major-win32\\arm-none-eabi\\incl